ARM GAS  C:\Users\Phuong\AppData\Local\Temp\ccyLHZOj.s 			page 1


   1              		.syntax unified
   2              		.cpu cortex-m0plus
   3              		.fpu softvfp
   4              		.eabi_attribute 20, 1
   5              		.eabi_attribute 21, 1
   6              		.eabi_attribute 23, 3
   7              		.eabi_attribute 24, 1
   8              		.eabi_attribute 25, 1
   9              		.eabi_attribute 26, 1
  10              		.eabi_attribute 30, 1
  11              		.eabi_attribute 34, 0
  12              		.eabi_attribute 18, 4
  13              		.thumb
  14              		.syntax unified
  15              		.file	"aes.c"
  16              		.text
  17              	.Ltext0:
  18              		.cfi_sections	.debug_frame
  19              		.global	__aeabi_idivmod
  20              		.section	.text.aes_gen_tables,"ax",%progbits
  21              		.align	2
  22              		.code	16
  23              		.thumb_func
  24              		.type	aes_gen_tables, %function
  25              	aes_gen_tables:
  26              	.LFB1:
  27              		.file 1 "Source\\mbedtls_open\\library\\aes.c"
   1:Source\mbedtls_open\library/aes.c **** /*
   2:Source\mbedtls_open\library/aes.c ****  *  FIPS-197 compliant AES implementation
   3:Source\mbedtls_open\library/aes.c ****  *
   4:Source\mbedtls_open\library/aes.c ****  *  Copyright (C) 2006-2015, ARM Limited, All Rights Reserved
   5:Source\mbedtls_open\library/aes.c ****  *  SPDX-License-Identifier: Apache-2.0
   6:Source\mbedtls_open\library/aes.c ****  *
   7:Source\mbedtls_open\library/aes.c ****  *  Licensed under the Apache License, Version 2.0 (the "License"); you may
   8:Source\mbedtls_open\library/aes.c ****  *  not use this file except in compliance with the License.
   9:Source\mbedtls_open\library/aes.c ****  *  You may obtain a copy of the License at
  10:Source\mbedtls_open\library/aes.c ****  *
  11:Source\mbedtls_open\library/aes.c ****  *  http://www.apache.org/licenses/LICENSE-2.0
  12:Source\mbedtls_open\library/aes.c ****  *
  13:Source\mbedtls_open\library/aes.c ****  *  Unless required by applicable law or agreed to in writing, software
  14:Source\mbedtls_open\library/aes.c ****  *  distributed under the License is distributed on an "AS IS" BASIS, WITHOUT
  15:Source\mbedtls_open\library/aes.c ****  *  WARRANTIES OR CONDITIONS OF ANY KIND, either express or implied.
  16:Source\mbedtls_open\library/aes.c ****  *  See the License for the specific language governing permissions and
  17:Source\mbedtls_open\library/aes.c ****  *  limitations under the License.
  18:Source\mbedtls_open\library/aes.c ****  *
  19:Source\mbedtls_open\library/aes.c ****  *  This file is part of mbed TLS (https://tls.mbed.org)
  20:Source\mbedtls_open\library/aes.c ****  */
  21:Source\mbedtls_open\library/aes.c **** /*
  22:Source\mbedtls_open\library/aes.c ****  *  The AES block cipher was designed by Vincent Rijmen and Joan Daemen.
  23:Source\mbedtls_open\library/aes.c ****  *
  24:Source\mbedtls_open\library/aes.c ****  *  http://csrc.nist.gov/encryption/aes/rijndael/Rijndael.pdf
  25:Source\mbedtls_open\library/aes.c ****  *  http://csrc.nist.gov/publications/fips/fips197/fips-197.pdf
  26:Source\mbedtls_open\library/aes.c ****  */
  27:Source\mbedtls_open\library/aes.c **** 
  28:Source\mbedtls_open\library/aes.c **** #if !defined(MBEDTLS_CONFIG_FILE)
  29:Source\mbedtls_open\library/aes.c **** #include "mbedtls/config.h"
  30:Source\mbedtls_open\library/aes.c **** #else
ARM GAS  C:\Users\Phuong\AppData\Local\Temp\ccyLHZOj.s 			page 2


  31:Source\mbedtls_open\library/aes.c **** #include MBEDTLS_CONFIG_FILE
  32:Source\mbedtls_open\library/aes.c **** #endif
  33:Source\mbedtls_open\library/aes.c **** 
  34:Source\mbedtls_open\library/aes.c **** #if defined(MBEDTLS_AES_C)
  35:Source\mbedtls_open\library/aes.c **** 
  36:Source\mbedtls_open\library/aes.c **** #include <string.h>
  37:Source\mbedtls_open\library/aes.c **** 
  38:Source\mbedtls_open\library/aes.c **** #include "mbedtls/aes.h"
  39:Source\mbedtls_open\library/aes.c **** #include "mbedtls/platform_util.h"
  40:Source\mbedtls_open\library/aes.c **** #if defined(MBEDTLS_PADLOCK_C)
  41:Source\mbedtls_open\library/aes.c **** #include "mbedtls/padlock.h"
  42:Source\mbedtls_open\library/aes.c **** #endif
  43:Source\mbedtls_open\library/aes.c **** #if defined(MBEDTLS_AESNI_C)
  44:Source\mbedtls_open\library/aes.c **** #include "mbedtls/aesni.h"
  45:Source\mbedtls_open\library/aes.c **** #endif
  46:Source\mbedtls_open\library/aes.c **** 
  47:Source\mbedtls_open\library/aes.c **** #if defined(MBEDTLS_SELF_TEST)
  48:Source\mbedtls_open\library/aes.c **** #if defined(MBEDTLS_PLATFORM_C)
  49:Source\mbedtls_open\library/aes.c **** #include "mbedtls/platform.h"
  50:Source\mbedtls_open\library/aes.c **** #else
  51:Source\mbedtls_open\library/aes.c **** #include <stdio.h>
  52:Source\mbedtls_open\library/aes.c **** #define mbedtls_printf printf
  53:Source\mbedtls_open\library/aes.c **** #endif /* MBEDTLS_PLATFORM_C */
  54:Source\mbedtls_open\library/aes.c **** #endif /* MBEDTLS_SELF_TEST */
  55:Source\mbedtls_open\library/aes.c **** 
  56:Source\mbedtls_open\library/aes.c **** #if !defined(MBEDTLS_AES_ALT)
  57:Source\mbedtls_open\library/aes.c **** 
  58:Source\mbedtls_open\library/aes.c **** /*
  59:Source\mbedtls_open\library/aes.c ****  * 32-bit integer manipulation macros (little endian)
  60:Source\mbedtls_open\library/aes.c ****  */
  61:Source\mbedtls_open\library/aes.c **** #ifndef GET_UINT32_LE
  62:Source\mbedtls_open\library/aes.c **** #define GET_UINT32_LE(n,b,i)                            \
  63:Source\mbedtls_open\library/aes.c **** {                                                       \
  64:Source\mbedtls_open\library/aes.c ****     (n) = ( (uint32_t) (b)[(i)    ]       )             \
  65:Source\mbedtls_open\library/aes.c ****         | ( (uint32_t) (b)[(i) + 1] <<  8 )             \
  66:Source\mbedtls_open\library/aes.c ****         | ( (uint32_t) (b)[(i) + 2] << 16 )             \
  67:Source\mbedtls_open\library/aes.c ****         | ( (uint32_t) (b)[(i) + 3] << 24 );            \
  68:Source\mbedtls_open\library/aes.c **** }
  69:Source\mbedtls_open\library/aes.c **** #endif
  70:Source\mbedtls_open\library/aes.c **** 
  71:Source\mbedtls_open\library/aes.c **** #ifndef PUT_UINT32_LE
  72:Source\mbedtls_open\library/aes.c **** #define PUT_UINT32_LE(n,b,i)                                    \
  73:Source\mbedtls_open\library/aes.c **** {                                                               \
  74:Source\mbedtls_open\library/aes.c ****     (b)[(i)    ] = (unsigned char) ( ( (n)       ) & 0xFF );    \
  75:Source\mbedtls_open\library/aes.c ****     (b)[(i) + 1] = (unsigned char) ( ( (n) >>  8 ) & 0xFF );    \
  76:Source\mbedtls_open\library/aes.c ****     (b)[(i) + 2] = (unsigned char) ( ( (n) >> 16 ) & 0xFF );    \
  77:Source\mbedtls_open\library/aes.c ****     (b)[(i) + 3] = (unsigned char) ( ( (n) >> 24 ) & 0xFF );    \
  78:Source\mbedtls_open\library/aes.c **** }
  79:Source\mbedtls_open\library/aes.c **** #endif
  80:Source\mbedtls_open\library/aes.c **** 
  81:Source\mbedtls_open\library/aes.c **** #if defined(MBEDTLS_PADLOCK_C) &&                      \
  82:Source\mbedtls_open\library/aes.c ****     ( defined(MBEDTLS_HAVE_X86) || defined(MBEDTLS_PADLOCK_ALIGN16) )
  83:Source\mbedtls_open\library/aes.c **** static int aes_padlock_ace = -1;
  84:Source\mbedtls_open\library/aes.c **** #endif
  85:Source\mbedtls_open\library/aes.c **** 
  86:Source\mbedtls_open\library/aes.c **** #if defined(MBEDTLS_AES_ROM_TABLES)
  87:Source\mbedtls_open\library/aes.c **** /*
ARM GAS  C:\Users\Phuong\AppData\Local\Temp\ccyLHZOj.s 			page 3


  88:Source\mbedtls_open\library/aes.c ****  * Forward S-box
  89:Source\mbedtls_open\library/aes.c ****  */
  90:Source\mbedtls_open\library/aes.c **** static const unsigned char FSb[256] =
  91:Source\mbedtls_open\library/aes.c **** {
  92:Source\mbedtls_open\library/aes.c ****     0x63, 0x7C, 0x77, 0x7B, 0xF2, 0x6B, 0x6F, 0xC5,
  93:Source\mbedtls_open\library/aes.c ****     0x30, 0x01, 0x67, 0x2B, 0xFE, 0xD7, 0xAB, 0x76,
  94:Source\mbedtls_open\library/aes.c ****     0xCA, 0x82, 0xC9, 0x7D, 0xFA, 0x59, 0x47, 0xF0,
  95:Source\mbedtls_open\library/aes.c ****     0xAD, 0xD4, 0xA2, 0xAF, 0x9C, 0xA4, 0x72, 0xC0,
  96:Source\mbedtls_open\library/aes.c ****     0xB7, 0xFD, 0x93, 0x26, 0x36, 0x3F, 0xF7, 0xCC,
  97:Source\mbedtls_open\library/aes.c ****     0x34, 0xA5, 0xE5, 0xF1, 0x71, 0xD8, 0x31, 0x15,
  98:Source\mbedtls_open\library/aes.c ****     0x04, 0xC7, 0x23, 0xC3, 0x18, 0x96, 0x05, 0x9A,
  99:Source\mbedtls_open\library/aes.c ****     0x07, 0x12, 0x80, 0xE2, 0xEB, 0x27, 0xB2, 0x75,
 100:Source\mbedtls_open\library/aes.c ****     0x09, 0x83, 0x2C, 0x1A, 0x1B, 0x6E, 0x5A, 0xA0,
 101:Source\mbedtls_open\library/aes.c ****     0x52, 0x3B, 0xD6, 0xB3, 0x29, 0xE3, 0x2F, 0x84,
 102:Source\mbedtls_open\library/aes.c ****     0x53, 0xD1, 0x00, 0xED, 0x20, 0xFC, 0xB1, 0x5B,
 103:Source\mbedtls_open\library/aes.c ****     0x6A, 0xCB, 0xBE, 0x39, 0x4A, 0x4C, 0x58, 0xCF,
 104:Source\mbedtls_open\library/aes.c ****     0xD0, 0xEF, 0xAA, 0xFB, 0x43, 0x4D, 0x33, 0x85,
 105:Source\mbedtls_open\library/aes.c ****     0x45, 0xF9, 0x02, 0x7F, 0x50, 0x3C, 0x9F, 0xA8,
 106:Source\mbedtls_open\library/aes.c ****     0x51, 0xA3, 0x40, 0x8F, 0x92, 0x9D, 0x38, 0xF5,
 107:Source\mbedtls_open\library/aes.c ****     0xBC, 0xB6, 0xDA, 0x21, 0x10, 0xFF, 0xF3, 0xD2,
 108:Source\mbedtls_open\library/aes.c ****     0xCD, 0x0C, 0x13, 0xEC, 0x5F, 0x97, 0x44, 0x17,
 109:Source\mbedtls_open\library/aes.c ****     0xC4, 0xA7, 0x7E, 0x3D, 0x64, 0x5D, 0x19, 0x73,
 110:Source\mbedtls_open\library/aes.c ****     0x60, 0x81, 0x4F, 0xDC, 0x22, 0x2A, 0x90, 0x88,
 111:Source\mbedtls_open\library/aes.c ****     0x46, 0xEE, 0xB8, 0x14, 0xDE, 0x5E, 0x0B, 0xDB,
 112:Source\mbedtls_open\library/aes.c ****     0xE0, 0x32, 0x3A, 0x0A, 0x49, 0x06, 0x24, 0x5C,
 113:Source\mbedtls_open\library/aes.c ****     0xC2, 0xD3, 0xAC, 0x62, 0x91, 0x95, 0xE4, 0x79,
 114:Source\mbedtls_open\library/aes.c ****     0xE7, 0xC8, 0x37, 0x6D, 0x8D, 0xD5, 0x4E, 0xA9,
 115:Source\mbedtls_open\library/aes.c ****     0x6C, 0x56, 0xF4, 0xEA, 0x65, 0x7A, 0xAE, 0x08,
 116:Source\mbedtls_open\library/aes.c ****     0xBA, 0x78, 0x25, 0x2E, 0x1C, 0xA6, 0xB4, 0xC6,
 117:Source\mbedtls_open\library/aes.c ****     0xE8, 0xDD, 0x74, 0x1F, 0x4B, 0xBD, 0x8B, 0x8A,
 118:Source\mbedtls_open\library/aes.c ****     0x70, 0x3E, 0xB5, 0x66, 0x48, 0x03, 0xF6, 0x0E,
 119:Source\mbedtls_open\library/aes.c ****     0x61, 0x35, 0x57, 0xB9, 0x86, 0xC1, 0x1D, 0x9E,
 120:Source\mbedtls_open\library/aes.c ****     0xE1, 0xF8, 0x98, 0x11, 0x69, 0xD9, 0x8E, 0x94,
 121:Source\mbedtls_open\library/aes.c ****     0x9B, 0x1E, 0x87, 0xE9, 0xCE, 0x55, 0x28, 0xDF,
 122:Source\mbedtls_open\library/aes.c ****     0x8C, 0xA1, 0x89, 0x0D, 0xBF, 0xE6, 0x42, 0x68,
 123:Source\mbedtls_open\library/aes.c ****     0x41, 0x99, 0x2D, 0x0F, 0xB0, 0x54, 0xBB, 0x16
 124:Source\mbedtls_open\library/aes.c **** };
 125:Source\mbedtls_open\library/aes.c **** 
 126:Source\mbedtls_open\library/aes.c **** /*
 127:Source\mbedtls_open\library/aes.c ****  * Forward tables
 128:Source\mbedtls_open\library/aes.c ****  */
 129:Source\mbedtls_open\library/aes.c **** #define FT \
 130:Source\mbedtls_open\library/aes.c **** \
 131:Source\mbedtls_open\library/aes.c ****     V(A5,63,63,C6), V(84,7C,7C,F8), V(99,77,77,EE), V(8D,7B,7B,F6), \
 132:Source\mbedtls_open\library/aes.c ****     V(0D,F2,F2,FF), V(BD,6B,6B,D6), V(B1,6F,6F,DE), V(54,C5,C5,91), \
 133:Source\mbedtls_open\library/aes.c ****     V(50,30,30,60), V(03,01,01,02), V(A9,67,67,CE), V(7D,2B,2B,56), \
 134:Source\mbedtls_open\library/aes.c ****     V(19,FE,FE,E7), V(62,D7,D7,B5), V(E6,AB,AB,4D), V(9A,76,76,EC), \
 135:Source\mbedtls_open\library/aes.c ****     V(45,CA,CA,8F), V(9D,82,82,1F), V(40,C9,C9,89), V(87,7D,7D,FA), \
 136:Source\mbedtls_open\library/aes.c ****     V(15,FA,FA,EF), V(EB,59,59,B2), V(C9,47,47,8E), V(0B,F0,F0,FB), \
 137:Source\mbedtls_open\library/aes.c ****     V(EC,AD,AD,41), V(67,D4,D4,B3), V(FD,A2,A2,5F), V(EA,AF,AF,45), \
 138:Source\mbedtls_open\library/aes.c ****     V(BF,9C,9C,23), V(F7,A4,A4,53), V(96,72,72,E4), V(5B,C0,C0,9B), \
 139:Source\mbedtls_open\library/aes.c ****     V(C2,B7,B7,75), V(1C,FD,FD,E1), V(AE,93,93,3D), V(6A,26,26,4C), \
 140:Source\mbedtls_open\library/aes.c ****     V(5A,36,36,6C), V(41,3F,3F,7E), V(02,F7,F7,F5), V(4F,CC,CC,83), \
 141:Source\mbedtls_open\library/aes.c ****     V(5C,34,34,68), V(F4,A5,A5,51), V(34,E5,E5,D1), V(08,F1,F1,F9), \
 142:Source\mbedtls_open\library/aes.c ****     V(93,71,71,E2), V(73,D8,D8,AB), V(53,31,31,62), V(3F,15,15,2A), \
 143:Source\mbedtls_open\library/aes.c ****     V(0C,04,04,08), V(52,C7,C7,95), V(65,23,23,46), V(5E,C3,C3,9D), \
 144:Source\mbedtls_open\library/aes.c ****     V(28,18,18,30), V(A1,96,96,37), V(0F,05,05,0A), V(B5,9A,9A,2F), \
ARM GAS  C:\Users\Phuong\AppData\Local\Temp\ccyLHZOj.s 			page 4


 145:Source\mbedtls_open\library/aes.c ****     V(09,07,07,0E), V(36,12,12,24), V(9B,80,80,1B), V(3D,E2,E2,DF), \
 146:Source\mbedtls_open\library/aes.c ****     V(26,EB,EB,CD), V(69,27,27,4E), V(CD,B2,B2,7F), V(9F,75,75,EA), \
 147:Source\mbedtls_open\library/aes.c ****     V(1B,09,09,12), V(9E,83,83,1D), V(74,2C,2C,58), V(2E,1A,1A,34), \
 148:Source\mbedtls_open\library/aes.c ****     V(2D,1B,1B,36), V(B2,6E,6E,DC), V(EE,5A,5A,B4), V(FB,A0,A0,5B), \
 149:Source\mbedtls_open\library/aes.c ****     V(F6,52,52,A4), V(4D,3B,3B,76), V(61,D6,D6,B7), V(CE,B3,B3,7D), \
 150:Source\mbedtls_open\library/aes.c ****     V(7B,29,29,52), V(3E,E3,E3,DD), V(71,2F,2F,5E), V(97,84,84,13), \
 151:Source\mbedtls_open\library/aes.c ****     V(F5,53,53,A6), V(68,D1,D1,B9), V(00,00,00,00), V(2C,ED,ED,C1), \
 152:Source\mbedtls_open\library/aes.c ****     V(60,20,20,40), V(1F,FC,FC,E3), V(C8,B1,B1,79), V(ED,5B,5B,B6), \
 153:Source\mbedtls_open\library/aes.c ****     V(BE,6A,6A,D4), V(46,CB,CB,8D), V(D9,BE,BE,67), V(4B,39,39,72), \
 154:Source\mbedtls_open\library/aes.c ****     V(DE,4A,4A,94), V(D4,4C,4C,98), V(E8,58,58,B0), V(4A,CF,CF,85), \
 155:Source\mbedtls_open\library/aes.c ****     V(6B,D0,D0,BB), V(2A,EF,EF,C5), V(E5,AA,AA,4F), V(16,FB,FB,ED), \
 156:Source\mbedtls_open\library/aes.c ****     V(C5,43,43,86), V(D7,4D,4D,9A), V(55,33,33,66), V(94,85,85,11), \
 157:Source\mbedtls_open\library/aes.c ****     V(CF,45,45,8A), V(10,F9,F9,E9), V(06,02,02,04), V(81,7F,7F,FE), \
 158:Source\mbedtls_open\library/aes.c ****     V(F0,50,50,A0), V(44,3C,3C,78), V(BA,9F,9F,25), V(E3,A8,A8,4B), \
 159:Source\mbedtls_open\library/aes.c ****     V(F3,51,51,A2), V(FE,A3,A3,5D), V(C0,40,40,80), V(8A,8F,8F,05), \
 160:Source\mbedtls_open\library/aes.c ****     V(AD,92,92,3F), V(BC,9D,9D,21), V(48,38,38,70), V(04,F5,F5,F1), \
 161:Source\mbedtls_open\library/aes.c ****     V(DF,BC,BC,63), V(C1,B6,B6,77), V(75,DA,DA,AF), V(63,21,21,42), \
 162:Source\mbedtls_open\library/aes.c ****     V(30,10,10,20), V(1A,FF,FF,E5), V(0E,F3,F3,FD), V(6D,D2,D2,BF), \
 163:Source\mbedtls_open\library/aes.c ****     V(4C,CD,CD,81), V(14,0C,0C,18), V(35,13,13,26), V(2F,EC,EC,C3), \
 164:Source\mbedtls_open\library/aes.c ****     V(E1,5F,5F,BE), V(A2,97,97,35), V(CC,44,44,88), V(39,17,17,2E), \
 165:Source\mbedtls_open\library/aes.c ****     V(57,C4,C4,93), V(F2,A7,A7,55), V(82,7E,7E,FC), V(47,3D,3D,7A), \
 166:Source\mbedtls_open\library/aes.c ****     V(AC,64,64,C8), V(E7,5D,5D,BA), V(2B,19,19,32), V(95,73,73,E6), \
 167:Source\mbedtls_open\library/aes.c ****     V(A0,60,60,C0), V(98,81,81,19), V(D1,4F,4F,9E), V(7F,DC,DC,A3), \
 168:Source\mbedtls_open\library/aes.c ****     V(66,22,22,44), V(7E,2A,2A,54), V(AB,90,90,3B), V(83,88,88,0B), \
 169:Source\mbedtls_open\library/aes.c ****     V(CA,46,46,8C), V(29,EE,EE,C7), V(D3,B8,B8,6B), V(3C,14,14,28), \
 170:Source\mbedtls_open\library/aes.c ****     V(79,DE,DE,A7), V(E2,5E,5E,BC), V(1D,0B,0B,16), V(76,DB,DB,AD), \
 171:Source\mbedtls_open\library/aes.c ****     V(3B,E0,E0,DB), V(56,32,32,64), V(4E,3A,3A,74), V(1E,0A,0A,14), \
 172:Source\mbedtls_open\library/aes.c ****     V(DB,49,49,92), V(0A,06,06,0C), V(6C,24,24,48), V(E4,5C,5C,B8), \
 173:Source\mbedtls_open\library/aes.c ****     V(5D,C2,C2,9F), V(6E,D3,D3,BD), V(EF,AC,AC,43), V(A6,62,62,C4), \
 174:Source\mbedtls_open\library/aes.c ****     V(A8,91,91,39), V(A4,95,95,31), V(37,E4,E4,D3), V(8B,79,79,F2), \
 175:Source\mbedtls_open\library/aes.c ****     V(32,E7,E7,D5), V(43,C8,C8,8B), V(59,37,37,6E), V(B7,6D,6D,DA), \
 176:Source\mbedtls_open\library/aes.c ****     V(8C,8D,8D,01), V(64,D5,D5,B1), V(D2,4E,4E,9C), V(E0,A9,A9,49), \
 177:Source\mbedtls_open\library/aes.c ****     V(B4,6C,6C,D8), V(FA,56,56,AC), V(07,F4,F4,F3), V(25,EA,EA,CF), \
 178:Source\mbedtls_open\library/aes.c ****     V(AF,65,65,CA), V(8E,7A,7A,F4), V(E9,AE,AE,47), V(18,08,08,10), \
 179:Source\mbedtls_open\library/aes.c ****     V(D5,BA,BA,6F), V(88,78,78,F0), V(6F,25,25,4A), V(72,2E,2E,5C), \
 180:Source\mbedtls_open\library/aes.c ****     V(24,1C,1C,38), V(F1,A6,A6,57), V(C7,B4,B4,73), V(51,C6,C6,97), \
 181:Source\mbedtls_open\library/aes.c ****     V(23,E8,E8,CB), V(7C,DD,DD,A1), V(9C,74,74,E8), V(21,1F,1F,3E), \
 182:Source\mbedtls_open\library/aes.c ****     V(DD,4B,4B,96), V(DC,BD,BD,61), V(86,8B,8B,0D), V(85,8A,8A,0F), \
 183:Source\mbedtls_open\library/aes.c ****     V(90,70,70,E0), V(42,3E,3E,7C), V(C4,B5,B5,71), V(AA,66,66,CC), \
 184:Source\mbedtls_open\library/aes.c ****     V(D8,48,48,90), V(05,03,03,06), V(01,F6,F6,F7), V(12,0E,0E,1C), \
 185:Source\mbedtls_open\library/aes.c ****     V(A3,61,61,C2), V(5F,35,35,6A), V(F9,57,57,AE), V(D0,B9,B9,69), \
 186:Source\mbedtls_open\library/aes.c ****     V(91,86,86,17), V(58,C1,C1,99), V(27,1D,1D,3A), V(B9,9E,9E,27), \
 187:Source\mbedtls_open\library/aes.c ****     V(38,E1,E1,D9), V(13,F8,F8,EB), V(B3,98,98,2B), V(33,11,11,22), \
 188:Source\mbedtls_open\library/aes.c ****     V(BB,69,69,D2), V(70,D9,D9,A9), V(89,8E,8E,07), V(A7,94,94,33), \
 189:Source\mbedtls_open\library/aes.c ****     V(B6,9B,9B,2D), V(22,1E,1E,3C), V(92,87,87,15), V(20,E9,E9,C9), \
 190:Source\mbedtls_open\library/aes.c ****     V(49,CE,CE,87), V(FF,55,55,AA), V(78,28,28,50), V(7A,DF,DF,A5), \
 191:Source\mbedtls_open\library/aes.c ****     V(8F,8C,8C,03), V(F8,A1,A1,59), V(80,89,89,09), V(17,0D,0D,1A), \
 192:Source\mbedtls_open\library/aes.c ****     V(DA,BF,BF,65), V(31,E6,E6,D7), V(C6,42,42,84), V(B8,68,68,D0), \
 193:Source\mbedtls_open\library/aes.c ****     V(C3,41,41,82), V(B0,99,99,29), V(77,2D,2D,5A), V(11,0F,0F,1E), \
 194:Source\mbedtls_open\library/aes.c ****     V(CB,B0,B0,7B), V(FC,54,54,A8), V(D6,BB,BB,6D), V(3A,16,16,2C)
 195:Source\mbedtls_open\library/aes.c **** 
 196:Source\mbedtls_open\library/aes.c **** #define V(a,b,c,d) 0x##a##b##c##d
 197:Source\mbedtls_open\library/aes.c **** static const uint32_t FT0[256] = { FT };
 198:Source\mbedtls_open\library/aes.c **** #undef V
 199:Source\mbedtls_open\library/aes.c **** 
 200:Source\mbedtls_open\library/aes.c **** #if !defined(MBEDTLS_AES_FEWER_TABLES)
 201:Source\mbedtls_open\library/aes.c **** 
ARM GAS  C:\Users\Phuong\AppData\Local\Temp\ccyLHZOj.s 			page 5


 202:Source\mbedtls_open\library/aes.c **** #define V(a,b,c,d) 0x##b##c##d##a
 203:Source\mbedtls_open\library/aes.c **** static const uint32_t FT1[256] = { FT };
 204:Source\mbedtls_open\library/aes.c **** #undef V
 205:Source\mbedtls_open\library/aes.c **** 
 206:Source\mbedtls_open\library/aes.c **** #define V(a,b,c,d) 0x##c##d##a##b
 207:Source\mbedtls_open\library/aes.c **** static const uint32_t FT2[256] = { FT };
 208:Source\mbedtls_open\library/aes.c **** #undef V
 209:Source\mbedtls_open\library/aes.c **** 
 210:Source\mbedtls_open\library/aes.c **** #define V(a,b,c,d) 0x##d##a##b##c
 211:Source\mbedtls_open\library/aes.c **** static const uint32_t FT3[256] = { FT };
 212:Source\mbedtls_open\library/aes.c **** #undef V
 213:Source\mbedtls_open\library/aes.c **** 
 214:Source\mbedtls_open\library/aes.c **** #endif /* !MBEDTLS_AES_FEWER_TABLES */
 215:Source\mbedtls_open\library/aes.c **** 
 216:Source\mbedtls_open\library/aes.c **** #undef FT
 217:Source\mbedtls_open\library/aes.c **** 
 218:Source\mbedtls_open\library/aes.c **** /*
 219:Source\mbedtls_open\library/aes.c ****  * Reverse S-box
 220:Source\mbedtls_open\library/aes.c ****  */
 221:Source\mbedtls_open\library/aes.c **** static const unsigned char RSb[256] =
 222:Source\mbedtls_open\library/aes.c **** {
 223:Source\mbedtls_open\library/aes.c ****     0x52, 0x09, 0x6A, 0xD5, 0x30, 0x36, 0xA5, 0x38,
 224:Source\mbedtls_open\library/aes.c ****     0xBF, 0x40, 0xA3, 0x9E, 0x81, 0xF3, 0xD7, 0xFB,
 225:Source\mbedtls_open\library/aes.c ****     0x7C, 0xE3, 0x39, 0x82, 0x9B, 0x2F, 0xFF, 0x87,
 226:Source\mbedtls_open\library/aes.c ****     0x34, 0x8E, 0x43, 0x44, 0xC4, 0xDE, 0xE9, 0xCB,
 227:Source\mbedtls_open\library/aes.c ****     0x54, 0x7B, 0x94, 0x32, 0xA6, 0xC2, 0x23, 0x3D,
 228:Source\mbedtls_open\library/aes.c ****     0xEE, 0x4C, 0x95, 0x0B, 0x42, 0xFA, 0xC3, 0x4E,
 229:Source\mbedtls_open\library/aes.c ****     0x08, 0x2E, 0xA1, 0x66, 0x28, 0xD9, 0x24, 0xB2,
 230:Source\mbedtls_open\library/aes.c ****     0x76, 0x5B, 0xA2, 0x49, 0x6D, 0x8B, 0xD1, 0x25,
 231:Source\mbedtls_open\library/aes.c ****     0x72, 0xF8, 0xF6, 0x64, 0x86, 0x68, 0x98, 0x16,
 232:Source\mbedtls_open\library/aes.c ****     0xD4, 0xA4, 0x5C, 0xCC, 0x5D, 0x65, 0xB6, 0x92,
 233:Source\mbedtls_open\library/aes.c ****     0x6C, 0x70, 0x48, 0x50, 0xFD, 0xED, 0xB9, 0xDA,
 234:Source\mbedtls_open\library/aes.c ****     0x5E, 0x15, 0x46, 0x57, 0xA7, 0x8D, 0x9D, 0x84,
 235:Source\mbedtls_open\library/aes.c ****     0x90, 0xD8, 0xAB, 0x00, 0x8C, 0xBC, 0xD3, 0x0A,
 236:Source\mbedtls_open\library/aes.c ****     0xF7, 0xE4, 0x58, 0x05, 0xB8, 0xB3, 0x45, 0x06,
 237:Source\mbedtls_open\library/aes.c ****     0xD0, 0x2C, 0x1E, 0x8F, 0xCA, 0x3F, 0x0F, 0x02,
 238:Source\mbedtls_open\library/aes.c ****     0xC1, 0xAF, 0xBD, 0x03, 0x01, 0x13, 0x8A, 0x6B,
 239:Source\mbedtls_open\library/aes.c ****     0x3A, 0x91, 0x11, 0x41, 0x4F, 0x67, 0xDC, 0xEA,
 240:Source\mbedtls_open\library/aes.c ****     0x97, 0xF2, 0xCF, 0xCE, 0xF0, 0xB4, 0xE6, 0x73,
 241:Source\mbedtls_open\library/aes.c ****     0x96, 0xAC, 0x74, 0x22, 0xE7, 0xAD, 0x35, 0x85,
 242:Source\mbedtls_open\library/aes.c ****     0xE2, 0xF9, 0x37, 0xE8, 0x1C, 0x75, 0xDF, 0x6E,
 243:Source\mbedtls_open\library/aes.c ****     0x47, 0xF1, 0x1A, 0x71, 0x1D, 0x29, 0xC5, 0x89,
 244:Source\mbedtls_open\library/aes.c ****     0x6F, 0xB7, 0x62, 0x0E, 0xAA, 0x18, 0xBE, 0x1B,
 245:Source\mbedtls_open\library/aes.c ****     0xFC, 0x56, 0x3E, 0x4B, 0xC6, 0xD2, 0x79, 0x20,
 246:Source\mbedtls_open\library/aes.c ****     0x9A, 0xDB, 0xC0, 0xFE, 0x78, 0xCD, 0x5A, 0xF4,
 247:Source\mbedtls_open\library/aes.c ****     0x1F, 0xDD, 0xA8, 0x33, 0x88, 0x07, 0xC7, 0x31,
 248:Source\mbedtls_open\library/aes.c ****     0xB1, 0x12, 0x10, 0x59, 0x27, 0x80, 0xEC, 0x5F,
 249:Source\mbedtls_open\library/aes.c ****     0x60, 0x51, 0x7F, 0xA9, 0x19, 0xB5, 0x4A, 0x0D,
 250:Source\mbedtls_open\library/aes.c ****     0x2D, 0xE5, 0x7A, 0x9F, 0x93, 0xC9, 0x9C, 0xEF,
 251:Source\mbedtls_open\library/aes.c ****     0xA0, 0xE0, 0x3B, 0x4D, 0xAE, 0x2A, 0xF5, 0xB0,
 252:Source\mbedtls_open\library/aes.c ****     0xC8, 0xEB, 0xBB, 0x3C, 0x83, 0x53, 0x99, 0x61,
 253:Source\mbedtls_open\library/aes.c ****     0x17, 0x2B, 0x04, 0x7E, 0xBA, 0x77, 0xD6, 0x26,
 254:Source\mbedtls_open\library/aes.c ****     0xE1, 0x69, 0x14, 0x63, 0x55, 0x21, 0x0C, 0x7D
 255:Source\mbedtls_open\library/aes.c **** };
 256:Source\mbedtls_open\library/aes.c **** 
 257:Source\mbedtls_open\library/aes.c **** /*
 258:Source\mbedtls_open\library/aes.c ****  * Reverse tables
ARM GAS  C:\Users\Phuong\AppData\Local\Temp\ccyLHZOj.s 			page 6


 259:Source\mbedtls_open\library/aes.c ****  */
 260:Source\mbedtls_open\library/aes.c **** #define RT \
 261:Source\mbedtls_open\library/aes.c **** \
 262:Source\mbedtls_open\library/aes.c ****     V(50,A7,F4,51), V(53,65,41,7E), V(C3,A4,17,1A), V(96,5E,27,3A), \
 263:Source\mbedtls_open\library/aes.c ****     V(CB,6B,AB,3B), V(F1,45,9D,1F), V(AB,58,FA,AC), V(93,03,E3,4B), \
 264:Source\mbedtls_open\library/aes.c ****     V(55,FA,30,20), V(F6,6D,76,AD), V(91,76,CC,88), V(25,4C,02,F5), \
 265:Source\mbedtls_open\library/aes.c ****     V(FC,D7,E5,4F), V(D7,CB,2A,C5), V(80,44,35,26), V(8F,A3,62,B5), \
 266:Source\mbedtls_open\library/aes.c ****     V(49,5A,B1,DE), V(67,1B,BA,25), V(98,0E,EA,45), V(E1,C0,FE,5D), \
 267:Source\mbedtls_open\library/aes.c ****     V(02,75,2F,C3), V(12,F0,4C,81), V(A3,97,46,8D), V(C6,F9,D3,6B), \
 268:Source\mbedtls_open\library/aes.c ****     V(E7,5F,8F,03), V(95,9C,92,15), V(EB,7A,6D,BF), V(DA,59,52,95), \
 269:Source\mbedtls_open\library/aes.c ****     V(2D,83,BE,D4), V(D3,21,74,58), V(29,69,E0,49), V(44,C8,C9,8E), \
 270:Source\mbedtls_open\library/aes.c ****     V(6A,89,C2,75), V(78,79,8E,F4), V(6B,3E,58,99), V(DD,71,B9,27), \
 271:Source\mbedtls_open\library/aes.c ****     V(B6,4F,E1,BE), V(17,AD,88,F0), V(66,AC,20,C9), V(B4,3A,CE,7D), \
 272:Source\mbedtls_open\library/aes.c ****     V(18,4A,DF,63), V(82,31,1A,E5), V(60,33,51,97), V(45,7F,53,62), \
 273:Source\mbedtls_open\library/aes.c ****     V(E0,77,64,B1), V(84,AE,6B,BB), V(1C,A0,81,FE), V(94,2B,08,F9), \
 274:Source\mbedtls_open\library/aes.c ****     V(58,68,48,70), V(19,FD,45,8F), V(87,6C,DE,94), V(B7,F8,7B,52), \
 275:Source\mbedtls_open\library/aes.c ****     V(23,D3,73,AB), V(E2,02,4B,72), V(57,8F,1F,E3), V(2A,AB,55,66), \
 276:Source\mbedtls_open\library/aes.c ****     V(07,28,EB,B2), V(03,C2,B5,2F), V(9A,7B,C5,86), V(A5,08,37,D3), \
 277:Source\mbedtls_open\library/aes.c ****     V(F2,87,28,30), V(B2,A5,BF,23), V(BA,6A,03,02), V(5C,82,16,ED), \
 278:Source\mbedtls_open\library/aes.c ****     V(2B,1C,CF,8A), V(92,B4,79,A7), V(F0,F2,07,F3), V(A1,E2,69,4E), \
 279:Source\mbedtls_open\library/aes.c ****     V(CD,F4,DA,65), V(D5,BE,05,06), V(1F,62,34,D1), V(8A,FE,A6,C4), \
 280:Source\mbedtls_open\library/aes.c ****     V(9D,53,2E,34), V(A0,55,F3,A2), V(32,E1,8A,05), V(75,EB,F6,A4), \
 281:Source\mbedtls_open\library/aes.c ****     V(39,EC,83,0B), V(AA,EF,60,40), V(06,9F,71,5E), V(51,10,6E,BD), \
 282:Source\mbedtls_open\library/aes.c ****     V(F9,8A,21,3E), V(3D,06,DD,96), V(AE,05,3E,DD), V(46,BD,E6,4D), \
 283:Source\mbedtls_open\library/aes.c ****     V(B5,8D,54,91), V(05,5D,C4,71), V(6F,D4,06,04), V(FF,15,50,60), \
 284:Source\mbedtls_open\library/aes.c ****     V(24,FB,98,19), V(97,E9,BD,D6), V(CC,43,40,89), V(77,9E,D9,67), \
 285:Source\mbedtls_open\library/aes.c ****     V(BD,42,E8,B0), V(88,8B,89,07), V(38,5B,19,E7), V(DB,EE,C8,79), \
 286:Source\mbedtls_open\library/aes.c ****     V(47,0A,7C,A1), V(E9,0F,42,7C), V(C9,1E,84,F8), V(00,00,00,00), \
 287:Source\mbedtls_open\library/aes.c ****     V(83,86,80,09), V(48,ED,2B,32), V(AC,70,11,1E), V(4E,72,5A,6C), \
 288:Source\mbedtls_open\library/aes.c ****     V(FB,FF,0E,FD), V(56,38,85,0F), V(1E,D5,AE,3D), V(27,39,2D,36), \
 289:Source\mbedtls_open\library/aes.c ****     V(64,D9,0F,0A), V(21,A6,5C,68), V(D1,54,5B,9B), V(3A,2E,36,24), \
 290:Source\mbedtls_open\library/aes.c ****     V(B1,67,0A,0C), V(0F,E7,57,93), V(D2,96,EE,B4), V(9E,91,9B,1B), \
 291:Source\mbedtls_open\library/aes.c ****     V(4F,C5,C0,80), V(A2,20,DC,61), V(69,4B,77,5A), V(16,1A,12,1C), \
 292:Source\mbedtls_open\library/aes.c ****     V(0A,BA,93,E2), V(E5,2A,A0,C0), V(43,E0,22,3C), V(1D,17,1B,12), \
 293:Source\mbedtls_open\library/aes.c ****     V(0B,0D,09,0E), V(AD,C7,8B,F2), V(B9,A8,B6,2D), V(C8,A9,1E,14), \
 294:Source\mbedtls_open\library/aes.c ****     V(85,19,F1,57), V(4C,07,75,AF), V(BB,DD,99,EE), V(FD,60,7F,A3), \
 295:Source\mbedtls_open\library/aes.c ****     V(9F,26,01,F7), V(BC,F5,72,5C), V(C5,3B,66,44), V(34,7E,FB,5B), \
 296:Source\mbedtls_open\library/aes.c ****     V(76,29,43,8B), V(DC,C6,23,CB), V(68,FC,ED,B6), V(63,F1,E4,B8), \
 297:Source\mbedtls_open\library/aes.c ****     V(CA,DC,31,D7), V(10,85,63,42), V(40,22,97,13), V(20,11,C6,84), \
 298:Source\mbedtls_open\library/aes.c ****     V(7D,24,4A,85), V(F8,3D,BB,D2), V(11,32,F9,AE), V(6D,A1,29,C7), \
 299:Source\mbedtls_open\library/aes.c ****     V(4B,2F,9E,1D), V(F3,30,B2,DC), V(EC,52,86,0D), V(D0,E3,C1,77), \
 300:Source\mbedtls_open\library/aes.c ****     V(6C,16,B3,2B), V(99,B9,70,A9), V(FA,48,94,11), V(22,64,E9,47), \
 301:Source\mbedtls_open\library/aes.c ****     V(C4,8C,FC,A8), V(1A,3F,F0,A0), V(D8,2C,7D,56), V(EF,90,33,22), \
 302:Source\mbedtls_open\library/aes.c ****     V(C7,4E,49,87), V(C1,D1,38,D9), V(FE,A2,CA,8C), V(36,0B,D4,98), \
 303:Source\mbedtls_open\library/aes.c ****     V(CF,81,F5,A6), V(28,DE,7A,A5), V(26,8E,B7,DA), V(A4,BF,AD,3F), \
 304:Source\mbedtls_open\library/aes.c ****     V(E4,9D,3A,2C), V(0D,92,78,50), V(9B,CC,5F,6A), V(62,46,7E,54), \
 305:Source\mbedtls_open\library/aes.c ****     V(C2,13,8D,F6), V(E8,B8,D8,90), V(5E,F7,39,2E), V(F5,AF,C3,82), \
 306:Source\mbedtls_open\library/aes.c ****     V(BE,80,5D,9F), V(7C,93,D0,69), V(A9,2D,D5,6F), V(B3,12,25,CF), \
 307:Source\mbedtls_open\library/aes.c ****     V(3B,99,AC,C8), V(A7,7D,18,10), V(6E,63,9C,E8), V(7B,BB,3B,DB), \
 308:Source\mbedtls_open\library/aes.c ****     V(09,78,26,CD), V(F4,18,59,6E), V(01,B7,9A,EC), V(A8,9A,4F,83), \
 309:Source\mbedtls_open\library/aes.c ****     V(65,6E,95,E6), V(7E,E6,FF,AA), V(08,CF,BC,21), V(E6,E8,15,EF), \
 310:Source\mbedtls_open\library/aes.c ****     V(D9,9B,E7,BA), V(CE,36,6F,4A), V(D4,09,9F,EA), V(D6,7C,B0,29), \
 311:Source\mbedtls_open\library/aes.c ****     V(AF,B2,A4,31), V(31,23,3F,2A), V(30,94,A5,C6), V(C0,66,A2,35), \
 312:Source\mbedtls_open\library/aes.c ****     V(37,BC,4E,74), V(A6,CA,82,FC), V(B0,D0,90,E0), V(15,D8,A7,33), \
 313:Source\mbedtls_open\library/aes.c ****     V(4A,98,04,F1), V(F7,DA,EC,41), V(0E,50,CD,7F), V(2F,F6,91,17), \
 314:Source\mbedtls_open\library/aes.c ****     V(8D,D6,4D,76), V(4D,B0,EF,43), V(54,4D,AA,CC), V(DF,04,96,E4), \
 315:Source\mbedtls_open\library/aes.c ****     V(E3,B5,D1,9E), V(1B,88,6A,4C), V(B8,1F,2C,C1), V(7F,51,65,46), \
ARM GAS  C:\Users\Phuong\AppData\Local\Temp\ccyLHZOj.s 			page 7


 316:Source\mbedtls_open\library/aes.c ****     V(04,EA,5E,9D), V(5D,35,8C,01), V(73,74,87,FA), V(2E,41,0B,FB), \
 317:Source\mbedtls_open\library/aes.c ****     V(5A,1D,67,B3), V(52,D2,DB,92), V(33,56,10,E9), V(13,47,D6,6D), \
 318:Source\mbedtls_open\library/aes.c ****     V(8C,61,D7,9A), V(7A,0C,A1,37), V(8E,14,F8,59), V(89,3C,13,EB), \
 319:Source\mbedtls_open\library/aes.c ****     V(EE,27,A9,CE), V(35,C9,61,B7), V(ED,E5,1C,E1), V(3C,B1,47,7A), \
 320:Source\mbedtls_open\library/aes.c ****     V(59,DF,D2,9C), V(3F,73,F2,55), V(79,CE,14,18), V(BF,37,C7,73), \
 321:Source\mbedtls_open\library/aes.c ****     V(EA,CD,F7,53), V(5B,AA,FD,5F), V(14,6F,3D,DF), V(86,DB,44,78), \
 322:Source\mbedtls_open\library/aes.c ****     V(81,F3,AF,CA), V(3E,C4,68,B9), V(2C,34,24,38), V(5F,40,A3,C2), \
 323:Source\mbedtls_open\library/aes.c ****     V(72,C3,1D,16), V(0C,25,E2,BC), V(8B,49,3C,28), V(41,95,0D,FF), \
 324:Source\mbedtls_open\library/aes.c ****     V(71,01,A8,39), V(DE,B3,0C,08), V(9C,E4,B4,D8), V(90,C1,56,64), \
 325:Source\mbedtls_open\library/aes.c ****     V(61,84,CB,7B), V(70,B6,32,D5), V(74,5C,6C,48), V(42,57,B8,D0)
 326:Source\mbedtls_open\library/aes.c **** 
 327:Source\mbedtls_open\library/aes.c **** #define V(a,b,c,d) 0x##a##b##c##d
 328:Source\mbedtls_open\library/aes.c **** static const uint32_t RT0[256] = { RT };
 329:Source\mbedtls_open\library/aes.c **** #undef V
 330:Source\mbedtls_open\library/aes.c **** 
 331:Source\mbedtls_open\library/aes.c **** #if !defined(MBEDTLS_AES_FEWER_TABLES)
 332:Source\mbedtls_open\library/aes.c **** 
 333:Source\mbedtls_open\library/aes.c **** #define V(a,b,c,d) 0x##b##c##d##a
 334:Source\mbedtls_open\library/aes.c **** static const uint32_t RT1[256] = { RT };
 335:Source\mbedtls_open\library/aes.c **** #undef V
 336:Source\mbedtls_open\library/aes.c **** 
 337:Source\mbedtls_open\library/aes.c **** #define V(a,b,c,d) 0x##c##d##a##b
 338:Source\mbedtls_open\library/aes.c **** static const uint32_t RT2[256] = { RT };
 339:Source\mbedtls_open\library/aes.c **** #undef V
 340:Source\mbedtls_open\library/aes.c **** 
 341:Source\mbedtls_open\library/aes.c **** #define V(a,b,c,d) 0x##d##a##b##c
 342:Source\mbedtls_open\library/aes.c **** static const uint32_t RT3[256] = { RT };
 343:Source\mbedtls_open\library/aes.c **** #undef V
 344:Source\mbedtls_open\library/aes.c **** 
 345:Source\mbedtls_open\library/aes.c **** #endif /* !MBEDTLS_AES_FEWER_TABLES */
 346:Source\mbedtls_open\library/aes.c **** 
 347:Source\mbedtls_open\library/aes.c **** #undef RT
 348:Source\mbedtls_open\library/aes.c **** 
 349:Source\mbedtls_open\library/aes.c **** /*
 350:Source\mbedtls_open\library/aes.c ****  * Round constants
 351:Source\mbedtls_open\library/aes.c ****  */
 352:Source\mbedtls_open\library/aes.c **** static const uint32_t RCON[10] =
 353:Source\mbedtls_open\library/aes.c **** {
 354:Source\mbedtls_open\library/aes.c ****     0x00000001, 0x00000002, 0x00000004, 0x00000008,
 355:Source\mbedtls_open\library/aes.c ****     0x00000010, 0x00000020, 0x00000040, 0x00000080,
 356:Source\mbedtls_open\library/aes.c ****     0x0000001B, 0x00000036
 357:Source\mbedtls_open\library/aes.c **** };
 358:Source\mbedtls_open\library/aes.c **** 
 359:Source\mbedtls_open\library/aes.c **** #else /* MBEDTLS_AES_ROM_TABLES */
 360:Source\mbedtls_open\library/aes.c **** 
 361:Source\mbedtls_open\library/aes.c **** /*
 362:Source\mbedtls_open\library/aes.c ****  * Forward S-box & tables
 363:Source\mbedtls_open\library/aes.c ****  */
 364:Source\mbedtls_open\library/aes.c **** static unsigned char FSb[256];
 365:Source\mbedtls_open\library/aes.c **** static uint32_t FT0[256];
 366:Source\mbedtls_open\library/aes.c **** #if !defined(MBEDTLS_AES_FEWER_TABLES)
 367:Source\mbedtls_open\library/aes.c **** static uint32_t FT1[256];
 368:Source\mbedtls_open\library/aes.c **** static uint32_t FT2[256];
 369:Source\mbedtls_open\library/aes.c **** static uint32_t FT3[256];
 370:Source\mbedtls_open\library/aes.c **** #endif /* !MBEDTLS_AES_FEWER_TABLES */
 371:Source\mbedtls_open\library/aes.c **** 
 372:Source\mbedtls_open\library/aes.c **** /*
ARM GAS  C:\Users\Phuong\AppData\Local\Temp\ccyLHZOj.s 			page 8


 373:Source\mbedtls_open\library/aes.c ****  * Reverse S-box & tables
 374:Source\mbedtls_open\library/aes.c ****  */
 375:Source\mbedtls_open\library/aes.c **** static unsigned char RSb[256];
 376:Source\mbedtls_open\library/aes.c **** static uint32_t RT0[256];
 377:Source\mbedtls_open\library/aes.c **** #if !defined(MBEDTLS_AES_FEWER_TABLES)
 378:Source\mbedtls_open\library/aes.c **** static uint32_t RT1[256];
 379:Source\mbedtls_open\library/aes.c **** static uint32_t RT2[256];
 380:Source\mbedtls_open\library/aes.c **** static uint32_t RT3[256];
 381:Source\mbedtls_open\library/aes.c **** #endif /* !MBEDTLS_AES_FEWER_TABLES */
 382:Source\mbedtls_open\library/aes.c **** 
 383:Source\mbedtls_open\library/aes.c **** /*
 384:Source\mbedtls_open\library/aes.c ****  * Round constants
 385:Source\mbedtls_open\library/aes.c ****  */
 386:Source\mbedtls_open\library/aes.c **** static uint32_t RCON[10];
 387:Source\mbedtls_open\library/aes.c **** 
 388:Source\mbedtls_open\library/aes.c **** /*
 389:Source\mbedtls_open\library/aes.c ****  * Tables generation code
 390:Source\mbedtls_open\library/aes.c ****  */
 391:Source\mbedtls_open\library/aes.c **** #define ROTL8(x) ( ( x << 8 ) & 0xFFFFFFFF ) | ( x >> 24 )
 392:Source\mbedtls_open\library/aes.c **** #define XTIME(x) ( ( x << 1 ) ^ ( ( x & 0x80 ) ? 0x1B : 0x00 ) )
 393:Source\mbedtls_open\library/aes.c **** #define MUL(x,y) ( ( x && y ) ? pow[(log[x]+log[y]) % 255] : 0 )
 394:Source\mbedtls_open\library/aes.c **** 
 395:Source\mbedtls_open\library/aes.c **** static int aes_init_done = 0;
 396:Source\mbedtls_open\library/aes.c **** 
 397:Source\mbedtls_open\library/aes.c **** static void aes_gen_tables( void )
 398:Source\mbedtls_open\library/aes.c **** {
  28              		.loc 1 398 0
  29              		.cfi_startproc
  30              		@ args = 0, pretend = 0, frame = 2048
  31              		@ frame_needed = 0, uses_anonymous_args = 0
  32 0000 F0B5     		push	{r4, r5, r6, r7, lr}
  33              		.cfi_def_cfa_offset 20
  34              		.cfi_offset 4, -20
  35              		.cfi_offset 5, -16
  36              		.cfi_offset 6, -12
  37              		.cfi_offset 7, -8
  38              		.cfi_offset 14, -4
  39 0002 764C     		ldr	r4, .L22
  40 0004 A544     		add	sp, sp, r4
  41              		.cfi_def_cfa_offset 2072
  42              	.LVL0:
 399:Source\mbedtls_open\library/aes.c ****     int i, x, y, z;
 400:Source\mbedtls_open\library/aes.c ****     int pow[256];
 401:Source\mbedtls_open\library/aes.c ****     int log[256];
 402:Source\mbedtls_open\library/aes.c **** 
 403:Source\mbedtls_open\library/aes.c ****     /*
 404:Source\mbedtls_open\library/aes.c ****      * compute pow and log tables over GF(2^8)
 405:Source\mbedtls_open\library/aes.c ****      */
 406:Source\mbedtls_open\library/aes.c ****     for( i = 0, x = 1; i < 256; i++ )
  43              		.loc 1 406 0
  44 0006 0123     		movs	r3, #1
  45 0008 0021     		movs	r1, #0
  46 000a 10E0     		b	.L2
  47              	.LVL1:
  48              	.L4:
 407:Source\mbedtls_open\library/aes.c ****     {
 408:Source\mbedtls_open\library/aes.c ****         pow[i] = x;
ARM GAS  C:\Users\Phuong\AppData\Local\Temp\ccyLHZOj.s 			page 9


  49              		.loc 1 408 0
  50 000c 8A00     		lsls	r2, r1, #2
  51 000e FFA8     		add	r0, sp, #1020
  52 0010 0430     		adds	r0, r0, #4
  53 0012 1350     		str	r3, [r2, r0]
 409:Source\mbedtls_open\library/aes.c ****         log[x] = i;
  54              		.loc 1 409 0
  55 0014 9A00     		lsls	r2, r3, #2
  56 0016 6846     		mov	r0, sp
  57 0018 1150     		str	r1, [r2, r0]
 410:Source\mbedtls_open\library/aes.c ****         x = ( x ^ XTIME( x ) ) & 0xFF;
  58              		.loc 1 410 0
  59 001a 5800     		lsls	r0, r3, #1
  60 001c 8022     		movs	r2, #128
  61 001e 1A40     		ands	r2, r3
  62 0020 00D0     		beq	.L3
  63 0022 1B22     		movs	r2, #27
  64              	.L3:
  65              		.loc 1 410 0 is_stmt 0 discriminator 4
  66 0024 4240     		eors	r2, r0
  67 0026 5340     		eors	r3, r2
  68              	.LVL2:
  69 0028 FF22     		movs	r2, #255
  70 002a 1340     		ands	r3, r2
  71              	.LVL3:
 406:Source\mbedtls_open\library/aes.c ****     {
  72              		.loc 1 406 0 is_stmt 1 discriminator 4
  73 002c 0131     		adds	r1, r1, #1
  74              	.LVL4:
  75              	.L2:
 406:Source\mbedtls_open\library/aes.c ****     {
  76              		.loc 1 406 0 is_stmt 0 discriminator 2
  77 002e FF29     		cmp	r1, #255
  78 0030 ECDD     		ble	.L4
  79 0032 0123     		movs	r3, #1
  80              	.LVL5:
  81 0034 0021     		movs	r1, #0
  82              	.LVL6:
  83 0036 0BE0     		b	.L5
  84              	.LVL7:
  85              	.L7:
 411:Source\mbedtls_open\library/aes.c ****     }
 412:Source\mbedtls_open\library/aes.c **** 
 413:Source\mbedtls_open\library/aes.c ****     /*
 414:Source\mbedtls_open\library/aes.c ****      * calculate the round constants
 415:Source\mbedtls_open\library/aes.c ****      */
 416:Source\mbedtls_open\library/aes.c ****     for( i = 0, x = 1; i < 10; i++ )
 417:Source\mbedtls_open\library/aes.c ****     {
 418:Source\mbedtls_open\library/aes.c ****         RCON[i] = (uint32_t) x;
  86              		.loc 1 418 0 is_stmt 1
  87 0038 8A00     		lsls	r2, r1, #2
  88 003a 6948     		ldr	r0, .L22+4
  89 003c 1350     		str	r3, [r2, r0]
 419:Source\mbedtls_open\library/aes.c ****         x = XTIME( x ) & 0xFF;
  90              		.loc 1 419 0
  91 003e 5A00     		lsls	r2, r3, #1
  92 0040 8020     		movs	r0, #128
ARM GAS  C:\Users\Phuong\AppData\Local\Temp\ccyLHZOj.s 			page 10


  93 0042 0340     		ands	r3, r0
  94              	.LVL8:
  95 0044 00D0     		beq	.L6
  96 0046 1B23     		movs	r3, #27
  97              	.L6:
  98              		.loc 1 419 0 is_stmt 0 discriminator 4
  99 0048 5340     		eors	r3, r2
 100 004a FF22     		movs	r2, #255
 101 004c 1340     		ands	r3, r2
 102              	.LVL9:
 416:Source\mbedtls_open\library/aes.c ****     {
 103              		.loc 1 416 0 is_stmt 1 discriminator 4
 104 004e 0131     		adds	r1, r1, #1
 105              	.LVL10:
 106              	.L5:
 416:Source\mbedtls_open\library/aes.c ****     {
 107              		.loc 1 416 0 is_stmt 0 discriminator 2
 108 0050 0929     		cmp	r1, #9
 109 0052 F1DD     		ble	.L7
 420:Source\mbedtls_open\library/aes.c ****     }
 421:Source\mbedtls_open\library/aes.c **** 
 422:Source\mbedtls_open\library/aes.c ****     /*
 423:Source\mbedtls_open\library/aes.c ****      * generate the forward and reverse S-boxes
 424:Source\mbedtls_open\library/aes.c ****      */
 425:Source\mbedtls_open\library/aes.c ****     FSb[0x00] = 0x63;
 110              		.loc 1 425 0 is_stmt 1
 111 0054 6321     		movs	r1, #99
 112              	.LVL11:
 113 0056 2823     		movs	r3, #40
 114              	.LVL12:
 115 0058 614A     		ldr	r2, .L22+4
 116 005a D154     		strb	r1, [r2, r3]
 426:Source\mbedtls_open\library/aes.c ****     RSb[0x63] = 0x00;
 117              		.loc 1 426 0
 118 005c 614B     		ldr	r3, .L22+8
 119 005e 8B33     		adds	r3, r3, #139
 120 0060 0022     		movs	r2, #0
 121 0062 1A70     		strb	r2, [r3]
 122              	.LVL13:
 427:Source\mbedtls_open\library/aes.c **** 
 428:Source\mbedtls_open\library/aes.c ****     for( i = 1; i < 256; i++ )
 123              		.loc 1 428 0
 124 0064 0120     		movs	r0, #1
 125 0066 29E0     		b	.L8
 126              	.LVL14:
 127              	.L9:
 429:Source\mbedtls_open\library/aes.c ****     {
 430:Source\mbedtls_open\library/aes.c ****         x = pow[255 - log[i]];
 128              		.loc 1 430 0 discriminator 3
 129 0068 8300     		lsls	r3, r0, #2
 130 006a 6A46     		mov	r2, sp
 131 006c 9B58     		ldr	r3, [r3, r2]
 132 006e FF24     		movs	r4, #255
 133 0070 E31A     		subs	r3, r4, r3
 134 0072 9B00     		lsls	r3, r3, #2
 135 0074 FFAA     		add	r2, sp, #1020
 136 0076 0432     		adds	r2, r2, #4
ARM GAS  C:\Users\Phuong\AppData\Local\Temp\ccyLHZOj.s 			page 11


 137 0078 9B58     		ldr	r3, [r3, r2]
 138              	.LVL15:
 431:Source\mbedtls_open\library/aes.c **** 
 432:Source\mbedtls_open\library/aes.c ****         y  = x; y = ( ( y << 1 ) | ( y >> 7 ) ) & 0xFF;
 139              		.loc 1 432 0 discriminator 3
 140 007a 5900     		lsls	r1, r3, #1
 141 007c DA11     		asrs	r2, r3, #7
 142 007e 1143     		orrs	r1, r2
 143 0080 2140     		ands	r1, r4
 144              	.LVL16:
 433:Source\mbedtls_open\library/aes.c ****         x ^= y; y = ( ( y << 1 ) | ( y >> 7 ) ) & 0xFF;
 145              		.loc 1 433 0 discriminator 3
 146 0082 4B40     		eors	r3, r1
 147              	.LVL17:
 148 0084 4A00     		lsls	r2, r1, #1
 149 0086 C911     		asrs	r1, r1, #7
 150              	.LVL18:
 151 0088 0A43     		orrs	r2, r1
 152 008a 2240     		ands	r2, r4
 153              	.LVL19:
 434:Source\mbedtls_open\library/aes.c ****         x ^= y; y = ( ( y << 1 ) | ( y >> 7 ) ) & 0xFF;
 154              		.loc 1 434 0 discriminator 3
 155 008c 5340     		eors	r3, r2
 156              	.LVL20:
 157 008e 1900     		movs	r1, r3
 158              	.LVL21:
 159 0090 5300     		lsls	r3, r2, #1
 160 0092 D211     		asrs	r2, r2, #7
 161              	.LVL22:
 162 0094 1A43     		orrs	r2, r3
 163 0096 1300     		movs	r3, r2
 164 0098 2340     		ands	r3, r4
 165              	.LVL23:
 435:Source\mbedtls_open\library/aes.c ****         x ^= y; y = ( ( y << 1 ) | ( y >> 7 ) ) & 0xFF;
 166              		.loc 1 435 0 discriminator 3
 167 009a 5940     		eors	r1, r3
 168              	.LVL24:
 169 009c 5D00     		lsls	r5, r3, #1
 170 009e DA11     		asrs	r2, r3, #7
 171 00a0 2B00     		movs	r3, r5
 172              	.LVL25:
 173 00a2 1343     		orrs	r3, r2
 174 00a4 2340     		ands	r3, r4
 175              	.LVL26:
 436:Source\mbedtls_open\library/aes.c ****         x ^= y ^ 0x63;
 176              		.loc 1 436 0 discriminator 3
 177 00a6 6322     		movs	r2, #99
 178 00a8 5340     		eors	r3, r2
 179              	.LVL27:
 180 00aa 5940     		eors	r1, r3
 181              	.LVL28:
 437:Source\mbedtls_open\library/aes.c **** 
 438:Source\mbedtls_open\library/aes.c ****         FSb[i] = (unsigned char) x;
 182              		.loc 1 438 0 discriminator 3
 183 00ac 3B3A     		subs	r2, r2, #59
 184 00ae 4C4B     		ldr	r3, .L22+4
 185              	.LVL29:
ARM GAS  C:\Users\Phuong\AppData\Local\Temp\ccyLHZOj.s 			page 12


 186 00b0 1B18     		adds	r3, r3, r0
 187 00b2 9954     		strb	r1, [r3, r2]
 439:Source\mbedtls_open\library/aes.c ****         RSb[x] = (unsigned char) i;
 188              		.loc 1 439 0 discriminator 3
 189 00b4 4B4B     		ldr	r3, .L22+8
 190 00b6 5918     		adds	r1, r3, r1
 191              	.LVL30:
 192 00b8 8854     		strb	r0, [r1, r2]
 428:Source\mbedtls_open\library/aes.c ****     {
 193              		.loc 1 428 0 discriminator 3
 194 00ba 0130     		adds	r0, r0, #1
 195              	.LVL31:
 196              	.L8:
 428:Source\mbedtls_open\library/aes.c ****     {
 197              		.loc 1 428 0 is_stmt 0 discriminator 1
 198 00bc FF28     		cmp	r0, #255
 199 00be D3DD     		ble	.L9
 200 00c0 0024     		movs	r4, #0
 201 00c2 85E0     		b	.L10
 202              	.LVL32:
 203              	.L16:
 440:Source\mbedtls_open\library/aes.c ****     }
 441:Source\mbedtls_open\library/aes.c **** 
 442:Source\mbedtls_open\library/aes.c ****     /*
 443:Source\mbedtls_open\library/aes.c ****      * generate the forward and reverse tables
 444:Source\mbedtls_open\library/aes.c ****      */
 445:Source\mbedtls_open\library/aes.c ****     for( i = 0; i < 256; i++ )
 446:Source\mbedtls_open\library/aes.c ****     {
 447:Source\mbedtls_open\library/aes.c ****         x = FSb[i];
 204              		.loc 1 447 0 is_stmt 1
 205 00c4 464B     		ldr	r3, .L22+4
 206 00c6 1B19     		adds	r3, r3, r4
 207 00c8 2822     		movs	r2, #40
 208 00ca 9B5C     		ldrb	r3, [r3, r2]
 209              	.LVL33:
 448:Source\mbedtls_open\library/aes.c ****         y = XTIME( x ) & 0xFF;
 210              		.loc 1 448 0
 211 00cc 5A00     		lsls	r2, r3, #1
 212 00ce 7F21     		movs	r1, #127
 213 00d0 1800     		movs	r0, r3
 214 00d2 8843     		bics	r0, r1
 215 00d4 01D0     		beq	.L17
 216 00d6 1B21     		movs	r1, #27
 217 00d8 00E0     		b	.L11
 218              	.L17:
 219 00da 0021     		movs	r1, #0
 220              	.L11:
 221              		.loc 1 448 0 is_stmt 0 discriminator 4
 222 00dc 4A40     		eors	r2, r1
 223 00de FF21     		movs	r1, #255
 224 00e0 0A40     		ands	r2, r1
 225              	.LVL34:
 449:Source\mbedtls_open\library/aes.c ****         z =  ( y ^ x ) & 0xFF;
 226              		.loc 1 449 0 is_stmt 1 discriminator 4
 227 00e2 1800     		movs	r0, r3
 228 00e4 5040     		eors	r0, r2
 229              	.LVL35:
ARM GAS  C:\Users\Phuong\AppData\Local\Temp\ccyLHZOj.s 			page 13


 450:Source\mbedtls_open\library/aes.c **** 
 451:Source\mbedtls_open\library/aes.c ****         FT0[i] = ( (uint32_t) y       ) ^
 452:Source\mbedtls_open\library/aes.c ****                  ( (uint32_t) x <<  8 ) ^
 230              		.loc 1 452 0 discriminator 4
 231 00e6 1902     		lsls	r1, r3, #8
 451:Source\mbedtls_open\library/aes.c ****                  ( (uint32_t) x <<  8 ) ^
 232              		.loc 1 451 0 discriminator 4
 233 00e8 4A40     		eors	r2, r1
 234              	.LVL36:
 453:Source\mbedtls_open\library/aes.c ****                  ( (uint32_t) x << 16 ) ^
 235              		.loc 1 453 0 discriminator 4
 236 00ea 1904     		lsls	r1, r3, #16
 452:Source\mbedtls_open\library/aes.c ****                  ( (uint32_t) x << 16 ) ^
 237              		.loc 1 452 0 discriminator 4
 238 00ec 4A40     		eors	r2, r1
 239              		.loc 1 453 0 discriminator 4
 240 00ee 0306     		lsls	r3, r0, #24
 241              	.LVL37:
 242 00f0 5340     		eors	r3, r2
 451:Source\mbedtls_open\library/aes.c ****                  ( (uint32_t) x <<  8 ) ^
 243              		.loc 1 451 0 discriminator 4
 244 00f2 A200     		lsls	r2, r4, #2
 245 00f4 3C49     		ldr	r1, .L22+12
 246 00f6 8918     		adds	r1, r1, r2
 247 00f8 8B62     		str	r3, [r1, #40]
 454:Source\mbedtls_open\library/aes.c ****                  ( (uint32_t) z << 24 );
 455:Source\mbedtls_open\library/aes.c **** 
 456:Source\mbedtls_open\library/aes.c **** #if !defined(MBEDTLS_AES_FEWER_TABLES)
 457:Source\mbedtls_open\library/aes.c ****         FT1[i] = ROTL8( FT0[i] );
 248              		.loc 1 457 0 discriminator 4
 249 00fa 1821     		movs	r1, #24
 250 00fc CB41     		rors	r3, r3, r1
 251 00fe 3B48     		ldr	r0, .L22+16
 252              	.LVL38:
 253 0100 8018     		adds	r0, r0, r2
 254 0102 8362     		str	r3, [r0, #40]
 458:Source\mbedtls_open\library/aes.c ****         FT2[i] = ROTL8( FT1[i] );
 255              		.loc 1 458 0 discriminator 4
 256 0104 CB41     		rors	r3, r3, r1
 257 0106 3A48     		ldr	r0, .L22+20
 258 0108 8018     		adds	r0, r0, r2
 259 010a 8362     		str	r3, [r0, #40]
 459:Source\mbedtls_open\library/aes.c ****         FT3[i] = ROTL8( FT2[i] );
 260              		.loc 1 459 0 discriminator 4
 261 010c CB41     		rors	r3, r3, r1
 262 010e 3949     		ldr	r1, .L22+24
 263 0110 8A18     		adds	r2, r1, r2
 264 0112 9362     		str	r3, [r2, #40]
 460:Source\mbedtls_open\library/aes.c **** #endif /* !MBEDTLS_AES_FEWER_TABLES */
 461:Source\mbedtls_open\library/aes.c **** 
 462:Source\mbedtls_open\library/aes.c ****         x = RSb[i];
 265              		.loc 1 462 0 discriminator 4
 266 0114 334B     		ldr	r3, .L22+8
 267 0116 1B19     		adds	r3, r3, r4
 268 0118 2822     		movs	r2, #40
 269              	.LVL39:
 270 011a 9E5C     		ldrb	r6, [r3, r2]
ARM GAS  C:\Users\Phuong\AppData\Local\Temp\ccyLHZOj.s 			page 14


 271              	.LVL40:
 463:Source\mbedtls_open\library/aes.c **** 
 464:Source\mbedtls_open\library/aes.c ****         RT0[i] = ( (uint32_t) MUL( 0x0E, x )       ) ^
 272              		.loc 1 464 0 discriminator 4
 273 011c 002E     		cmp	r6, #0
 274 011e 0CD0     		beq	.L18
 275              		.loc 1 464 0 is_stmt 0 discriminator 1
 276 0120 0E98     		ldr	r0, [sp, #56]
 277 0122 B300     		lsls	r3, r6, #2
 278 0124 6A46     		mov	r2, sp
 279 0126 9B58     		ldr	r3, [r3, r2]
 280 0128 C018     		adds	r0, r0, r3
 281 012a FF21     		movs	r1, #255
 282 012c FFF7FEFF 		bl	__aeabi_idivmod
 283              	.LVL41:
 284 0130 8900     		lsls	r1, r1, #2
 285 0132 FFAB     		add	r3, sp, #1020
 286 0134 0433     		adds	r3, r3, #4
 287 0136 CD58     		ldr	r5, [r1, r3]
 288 0138 00E0     		b	.L12
 289              	.L18:
 290              		.loc 1 464 0
 291 013a 0025     		movs	r5, #0
 292              	.L12:
 465:Source\mbedtls_open\library/aes.c ****                  ( (uint32_t) MUL( 0x09, x ) <<  8 ) ^
 293              		.loc 1 465 0 is_stmt 1
 294 013c 002E     		cmp	r6, #0
 295 013e 0DD0     		beq	.L19
 296              		.loc 1 465 0 is_stmt 0 discriminator 1
 297 0140 0998     		ldr	r0, [sp, #36]
 298 0142 B300     		lsls	r3, r6, #2
 299 0144 6A46     		mov	r2, sp
 300 0146 9B58     		ldr	r3, [r3, r2]
 301 0148 C018     		adds	r0, r0, r3
 302 014a FF21     		movs	r1, #255
 303 014c FFF7FEFF 		bl	__aeabi_idivmod
 304              	.LVL42:
 305 0150 8900     		lsls	r1, r1, #2
 306 0152 FFAB     		add	r3, sp, #1020
 307 0154 0433     		adds	r3, r3, #4
 308 0156 CB58     		ldr	r3, [r1, r3]
 309 0158 1B02     		lsls	r3, r3, #8
 310 015a 00E0     		b	.L13
 311              	.L19:
 312              		.loc 1 465 0
 313 015c 0023     		movs	r3, #0
 314              	.L13:
 464:Source\mbedtls_open\library/aes.c ****                  ( (uint32_t) MUL( 0x09, x ) <<  8 ) ^
 315              		.loc 1 464 0 is_stmt 1
 316 015e 5D40     		eors	r5, r3
 317 0160 2F00     		movs	r7, r5
 466:Source\mbedtls_open\library/aes.c ****                  ( (uint32_t) MUL( 0x0D, x ) << 16 ) ^
 318              		.loc 1 466 0
 319 0162 002E     		cmp	r6, #0
 320 0164 0DD0     		beq	.L20
 321              		.loc 1 466 0 is_stmt 0 discriminator 1
 322 0166 0D98     		ldr	r0, [sp, #52]
ARM GAS  C:\Users\Phuong\AppData\Local\Temp\ccyLHZOj.s 			page 15


 323 0168 B300     		lsls	r3, r6, #2
 324 016a 6A46     		mov	r2, sp
 325 016c 9B58     		ldr	r3, [r3, r2]
 326 016e C018     		adds	r0, r0, r3
 327 0170 FF21     		movs	r1, #255
 328 0172 FFF7FEFF 		bl	__aeabi_idivmod
 329              	.LVL43:
 330 0176 8900     		lsls	r1, r1, #2
 331 0178 FFAB     		add	r3, sp, #1020
 332 017a 0433     		adds	r3, r3, #4
 333 017c CB58     		ldr	r3, [r1, r3]
 334 017e 1B04     		lsls	r3, r3, #16
 335 0180 00E0     		b	.L14
 336              	.L20:
 337              		.loc 1 466 0
 338 0182 0023     		movs	r3, #0
 339              	.L14:
 465:Source\mbedtls_open\library/aes.c ****                  ( (uint32_t) MUL( 0x09, x ) <<  8 ) ^
 340              		.loc 1 465 0 is_stmt 1
 341 0184 7B40     		eors	r3, r7
 342 0186 1D00     		movs	r5, r3
 467:Source\mbedtls_open\library/aes.c ****                  ( (uint32_t) MUL( 0x0B, x ) << 24 );
 343              		.loc 1 467 0
 344 0188 002E     		cmp	r6, #0
 345 018a 0DD0     		beq	.L21
 346              		.loc 1 467 0 is_stmt 0 discriminator 1
 347 018c 0B98     		ldr	r0, [sp, #44]
 348 018e B300     		lsls	r3, r6, #2
 349 0190 6A46     		mov	r2, sp
 350 0192 9B58     		ldr	r3, [r3, r2]
 351 0194 C018     		adds	r0, r0, r3
 352 0196 FF21     		movs	r1, #255
 353 0198 FFF7FEFF 		bl	__aeabi_idivmod
 354              	.LVL44:
 355 019c 8900     		lsls	r1, r1, #2
 356 019e FFAB     		add	r3, sp, #1020
 357 01a0 0433     		adds	r3, r3, #4
 358 01a2 CB58     		ldr	r3, [r1, r3]
 359 01a4 1B06     		lsls	r3, r3, #24
 360 01a6 00E0     		b	.L15
 361              	.L21:
 362              		.loc 1 467 0
 363 01a8 0023     		movs	r3, #0
 364              	.L15:
 466:Source\mbedtls_open\library/aes.c ****                  ( (uint32_t) MUL( 0x0D, x ) << 16 ) ^
 365              		.loc 1 466 0 is_stmt 1 discriminator 2
 366 01aa 6B40     		eors	r3, r5
 464:Source\mbedtls_open\library/aes.c ****                  ( (uint32_t) MUL( 0x09, x ) <<  8 ) ^
 367              		.loc 1 464 0 discriminator 2
 368 01ac A200     		lsls	r2, r4, #2
 369 01ae 1249     		ldr	r1, .L22+28
 370 01b0 8918     		adds	r1, r1, r2
 371 01b2 8B62     		str	r3, [r1, #40]
 468:Source\mbedtls_open\library/aes.c **** 
 469:Source\mbedtls_open\library/aes.c **** #if !defined(MBEDTLS_AES_FEWER_TABLES)
 470:Source\mbedtls_open\library/aes.c ****         RT1[i] = ROTL8( RT0[i] );
 372              		.loc 1 470 0 discriminator 2
ARM GAS  C:\Users\Phuong\AppData\Local\Temp\ccyLHZOj.s 			page 16


 373 01b4 1821     		movs	r1, #24
 374 01b6 CB41     		rors	r3, r3, r1
 375 01b8 1048     		ldr	r0, .L22+32
 376 01ba 8018     		adds	r0, r0, r2
 377 01bc 8362     		str	r3, [r0, #40]
 471:Source\mbedtls_open\library/aes.c ****         RT2[i] = ROTL8( RT1[i] );
 378              		.loc 1 471 0 discriminator 2
 379 01be CB41     		rors	r3, r3, r1
 380 01c0 0F48     		ldr	r0, .L22+36
 381 01c2 8018     		adds	r0, r0, r2
 382 01c4 8362     		str	r3, [r0, #40]
 472:Source\mbedtls_open\library/aes.c ****         RT3[i] = ROTL8( RT2[i] );
 383              		.loc 1 472 0 discriminator 2
 384 01c6 CB41     		rors	r3, r3, r1
 385 01c8 0E49     		ldr	r1, .L22+40
 386 01ca 8A18     		adds	r2, r1, r2
 387 01cc 9362     		str	r3, [r2, #40]
 445:Source\mbedtls_open\library/aes.c ****     {
 388              		.loc 1 445 0 discriminator 2
 389 01ce 0134     		adds	r4, r4, #1
 390              	.LVL45:
 391              	.L10:
 445:Source\mbedtls_open\library/aes.c ****     {
 392              		.loc 1 445 0 is_stmt 0 discriminator 1
 393 01d0 FF2C     		cmp	r4, #255
 394 01d2 00DC     		bgt	.LCB402
 395 01d4 76E7     		b	.L16	@long jump
 396              	.LCB402:
 473:Source\mbedtls_open\library/aes.c **** #endif /* !MBEDTLS_AES_FEWER_TABLES */
 474:Source\mbedtls_open\library/aes.c ****     }
 475:Source\mbedtls_open\library/aes.c **** }
 397              		.loc 1 475 0 is_stmt 1
 398 01d6 0C4B     		ldr	r3, .L22+44
 399 01d8 9D44     		add	sp, sp, r3
 400              		@ sp needed
 401              	.LVL46:
 402 01da F0BD     		pop	{r4, r5, r6, r7, pc}
 403              	.L23:
 404              		.align	2
 405              	.L22:
 406 01dc FCF7FFFF 		.word	-2052
 407 01e0 00000000 		.word	.LANCHOR0
 408 01e4 00010000 		.word	.LANCHOR1
 409 01e8 00020000 		.word	.LANCHOR2
 410 01ec 00060000 		.word	.LANCHOR3
 411 01f0 000A0000 		.word	.LANCHOR4
 412 01f4 000E0000 		.word	.LANCHOR5
 413 01f8 00120000 		.word	.LANCHOR6
 414 01fc 00160000 		.word	.LANCHOR7
 415 0200 001A0000 		.word	.LANCHOR8
 416 0204 001E0000 		.word	.LANCHOR9
 417 0208 04080000 		.word	2052
 418              		.cfi_endproc
 419              	.LFE1:
 420              		.size	aes_gen_tables, .-aes_gen_tables
 421              		.section	.text.mbedtls_aes_init,"ax",%progbits
 422              		.align	2
ARM GAS  C:\Users\Phuong\AppData\Local\Temp\ccyLHZOj.s 			page 17


 423              		.global	mbedtls_aes_init
 424              		.code	16
 425              		.thumb_func
 426              		.type	mbedtls_aes_init, %function
 427              	mbedtls_aes_init:
 428              	.LFB2:
 476:Source\mbedtls_open\library/aes.c **** 
 477:Source\mbedtls_open\library/aes.c **** #undef ROTL8
 478:Source\mbedtls_open\library/aes.c **** 
 479:Source\mbedtls_open\library/aes.c **** #endif /* MBEDTLS_AES_ROM_TABLES */
 480:Source\mbedtls_open\library/aes.c **** 
 481:Source\mbedtls_open\library/aes.c **** #if defined(MBEDTLS_AES_FEWER_TABLES)
 482:Source\mbedtls_open\library/aes.c **** 
 483:Source\mbedtls_open\library/aes.c **** #define ROTL8(x)  ( (uint32_t)( ( x ) <<  8 ) + (uint32_t)( ( x ) >> 24 ) )
 484:Source\mbedtls_open\library/aes.c **** #define ROTL16(x) ( (uint32_t)( ( x ) << 16 ) + (uint32_t)( ( x ) >> 16 ) )
 485:Source\mbedtls_open\library/aes.c **** #define ROTL24(x) ( (uint32_t)( ( x ) << 24 ) + (uint32_t)( ( x ) >>  8 ) )
 486:Source\mbedtls_open\library/aes.c **** 
 487:Source\mbedtls_open\library/aes.c **** #define AES_RT0(idx) RT0[idx]
 488:Source\mbedtls_open\library/aes.c **** #define AES_RT1(idx) ROTL8(  RT0[idx] )
 489:Source\mbedtls_open\library/aes.c **** #define AES_RT2(idx) ROTL16( RT0[idx] )
 490:Source\mbedtls_open\library/aes.c **** #define AES_RT3(idx) ROTL24( RT0[idx] )
 491:Source\mbedtls_open\library/aes.c **** 
 492:Source\mbedtls_open\library/aes.c **** #define AES_FT0(idx) FT0[idx]
 493:Source\mbedtls_open\library/aes.c **** #define AES_FT1(idx) ROTL8(  FT0[idx] )
 494:Source\mbedtls_open\library/aes.c **** #define AES_FT2(idx) ROTL16( FT0[idx] )
 495:Source\mbedtls_open\library/aes.c **** #define AES_FT3(idx) ROTL24( FT0[idx] )
 496:Source\mbedtls_open\library/aes.c **** 
 497:Source\mbedtls_open\library/aes.c **** #else /* MBEDTLS_AES_FEWER_TABLES */
 498:Source\mbedtls_open\library/aes.c **** 
 499:Source\mbedtls_open\library/aes.c **** #define AES_RT0(idx) RT0[idx]
 500:Source\mbedtls_open\library/aes.c **** #define AES_RT1(idx) RT1[idx]
 501:Source\mbedtls_open\library/aes.c **** #define AES_RT2(idx) RT2[idx]
 502:Source\mbedtls_open\library/aes.c **** #define AES_RT3(idx) RT3[idx]
 503:Source\mbedtls_open\library/aes.c **** 
 504:Source\mbedtls_open\library/aes.c **** #define AES_FT0(idx) FT0[idx]
 505:Source\mbedtls_open\library/aes.c **** #define AES_FT1(idx) FT1[idx]
 506:Source\mbedtls_open\library/aes.c **** #define AES_FT2(idx) FT2[idx]
 507:Source\mbedtls_open\library/aes.c **** #define AES_FT3(idx) FT3[idx]
 508:Source\mbedtls_open\library/aes.c **** 
 509:Source\mbedtls_open\library/aes.c **** #endif /* MBEDTLS_AES_FEWER_TABLES */
 510:Source\mbedtls_open\library/aes.c **** 
 511:Source\mbedtls_open\library/aes.c **** void mbedtls_aes_init( mbedtls_aes_context *ctx )
 512:Source\mbedtls_open\library/aes.c **** {
 429              		.loc 1 512 0
 430              		.cfi_startproc
 431              		@ args = 0, pretend = 0, frame = 0
 432              		@ frame_needed = 0, uses_anonymous_args = 0
 433              	.LVL47:
 434 0000 10B5     		push	{r4, lr}
 435              		.cfi_def_cfa_offset 8
 436              		.cfi_offset 4, -8
 437              		.cfi_offset 14, -4
 513:Source\mbedtls_open\library/aes.c ****     memset( ctx, 0, sizeof( mbedtls_aes_context ) );
 438              		.loc 1 513 0
 439 0002 8C22     		movs	r2, #140
 440 0004 5200     		lsls	r2, r2, #1
 441 0006 0021     		movs	r1, #0
ARM GAS  C:\Users\Phuong\AppData\Local\Temp\ccyLHZOj.s 			page 18


 442 0008 FFF7FEFF 		bl	memset
 443              	.LVL48:
 514:Source\mbedtls_open\library/aes.c **** }
 444              		.loc 1 514 0
 445              		@ sp needed
 446 000c 10BD     		pop	{r4, pc}
 447              		.cfi_endproc
 448              	.LFE2:
 449              		.size	mbedtls_aes_init, .-mbedtls_aes_init
 450 000e C046     		.section	.text.mbedtls_aes_free,"ax",%progbits
 451              		.align	2
 452              		.global	mbedtls_aes_free
 453              		.code	16
 454              		.thumb_func
 455              		.type	mbedtls_aes_free, %function
 456              	mbedtls_aes_free:
 457              	.LFB3:
 515:Source\mbedtls_open\library/aes.c **** 
 516:Source\mbedtls_open\library/aes.c **** void mbedtls_aes_free( mbedtls_aes_context *ctx )
 517:Source\mbedtls_open\library/aes.c **** {
 458              		.loc 1 517 0
 459              		.cfi_startproc
 460              		@ args = 0, pretend = 0, frame = 0
 461              		@ frame_needed = 0, uses_anonymous_args = 0
 462              	.LVL49:
 463 0000 10B5     		push	{r4, lr}
 464              		.cfi_def_cfa_offset 8
 465              		.cfi_offset 4, -8
 466              		.cfi_offset 14, -4
 518:Source\mbedtls_open\library/aes.c ****     if( ctx == NULL )
 467              		.loc 1 518 0
 468 0002 0028     		cmp	r0, #0
 469 0004 03D0     		beq	.L25
 519:Source\mbedtls_open\library/aes.c ****         return;
 520:Source\mbedtls_open\library/aes.c **** 
 521:Source\mbedtls_open\library/aes.c ****     mbedtls_platform_zeroize( ctx, sizeof( mbedtls_aes_context ) );
 470              		.loc 1 521 0
 471 0006 8C21     		movs	r1, #140
 472 0008 4900     		lsls	r1, r1, #1
 473 000a FFF7FEFF 		bl	mbedtls_platform_zeroize
 474              	.LVL50:
 475              	.L25:
 522:Source\mbedtls_open\library/aes.c **** }
 476              		.loc 1 522 0
 477              		@ sp needed
 478 000e 10BD     		pop	{r4, pc}
 479              		.cfi_endproc
 480              	.LFE3:
 481              		.size	mbedtls_aes_free, .-mbedtls_aes_free
 482              		.section	.text.mbedtls_aes_setkey_enc,"ax",%progbits
 483              		.align	2
 484              		.global	mbedtls_aes_setkey_enc
 485              		.code	16
 486              		.thumb_func
 487              		.type	mbedtls_aes_setkey_enc, %function
 488              	mbedtls_aes_setkey_enc:
 489              	.LFB4:
ARM GAS  C:\Users\Phuong\AppData\Local\Temp\ccyLHZOj.s 			page 19


 523:Source\mbedtls_open\library/aes.c **** 
 524:Source\mbedtls_open\library/aes.c **** #if defined(MBEDTLS_CIPHER_MODE_XTS)
 525:Source\mbedtls_open\library/aes.c **** void mbedtls_aes_xts_init( mbedtls_aes_xts_context *ctx )
 526:Source\mbedtls_open\library/aes.c **** {
 527:Source\mbedtls_open\library/aes.c ****     mbedtls_aes_init( &ctx->crypt );
 528:Source\mbedtls_open\library/aes.c ****     mbedtls_aes_init( &ctx->tweak );
 529:Source\mbedtls_open\library/aes.c **** }
 530:Source\mbedtls_open\library/aes.c **** 
 531:Source\mbedtls_open\library/aes.c **** void mbedtls_aes_xts_free( mbedtls_aes_xts_context *ctx )
 532:Source\mbedtls_open\library/aes.c **** {
 533:Source\mbedtls_open\library/aes.c ****     mbedtls_aes_free( &ctx->crypt );
 534:Source\mbedtls_open\library/aes.c ****     mbedtls_aes_free( &ctx->tweak );
 535:Source\mbedtls_open\library/aes.c **** }
 536:Source\mbedtls_open\library/aes.c **** #endif /* MBEDTLS_CIPHER_MODE_XTS */
 537:Source\mbedtls_open\library/aes.c **** 
 538:Source\mbedtls_open\library/aes.c **** /*
 539:Source\mbedtls_open\library/aes.c ****  * AES key schedule (encryption)
 540:Source\mbedtls_open\library/aes.c ****  */
 541:Source\mbedtls_open\library/aes.c **** #if !defined(MBEDTLS_AES_SETKEY_ENC_ALT)
 542:Source\mbedtls_open\library/aes.c **** int mbedtls_aes_setkey_enc( mbedtls_aes_context *ctx, const unsigned char *key,
 543:Source\mbedtls_open\library/aes.c ****                     unsigned int keybits )
 544:Source\mbedtls_open\library/aes.c **** {
 490              		.loc 1 544 0
 491              		.cfi_startproc
 492              		@ args = 0, pretend = 0, frame = 0
 493              		@ frame_needed = 0, uses_anonymous_args = 0
 494              	.LVL51:
 495 0000 F0B5     		push	{r4, r5, r6, r7, lr}
 496              		.cfi_def_cfa_offset 20
 497              		.cfi_offset 4, -20
 498              		.cfi_offset 5, -16
 499              		.cfi_offset 6, -12
 500              		.cfi_offset 7, -8
 501              		.cfi_offset 14, -4
 502 0002 4746     		mov	r7, r8
 503 0004 80B4     		push	{r7}
 504              		.cfi_def_cfa_offset 24
 505              		.cfi_offset 8, -24
 506 0006 8046     		mov	r8, r0
 507 0008 0C00     		movs	r4, r1
 508 000a 1500     		movs	r5, r2
 545:Source\mbedtls_open\library/aes.c ****     unsigned int i;
 546:Source\mbedtls_open\library/aes.c ****     uint32_t *RK;
 547:Source\mbedtls_open\library/aes.c **** 
 548:Source\mbedtls_open\library/aes.c **** #if !defined(MBEDTLS_AES_ROM_TABLES)
 549:Source\mbedtls_open\library/aes.c ****     if( aes_init_done == 0 )
 509              		.loc 1 549 0
 510 000c 814B     		ldr	r3, .L49
 511 000e 9B6A     		ldr	r3, [r3, #40]
 512 0010 002B     		cmp	r3, #0
 513 0012 04D1     		bne	.L28
 550:Source\mbedtls_open\library/aes.c ****     {
 551:Source\mbedtls_open\library/aes.c ****         aes_gen_tables();
 514              		.loc 1 551 0
 515 0014 FFF7FEFF 		bl	aes_gen_tables
 516              	.LVL52:
 552:Source\mbedtls_open\library/aes.c ****         aes_init_done = 1;
ARM GAS  C:\Users\Phuong\AppData\Local\Temp\ccyLHZOj.s 			page 20


 517              		.loc 1 552 0
 518 0018 0122     		movs	r2, #1
 519 001a 7E4B     		ldr	r3, .L49
 520 001c 9A62     		str	r2, [r3, #40]
 521              	.L28:
 553:Source\mbedtls_open\library/aes.c **** 
 554:Source\mbedtls_open\library/aes.c ****     }
 555:Source\mbedtls_open\library/aes.c **** #endif
 556:Source\mbedtls_open\library/aes.c **** 
 557:Source\mbedtls_open\library/aes.c ****     switch( keybits )
 522              		.loc 1 557 0
 523 001e C02D     		cmp	r5, #192
 524 0020 0AD0     		beq	.L30
 525 0022 8023     		movs	r3, #128
 526 0024 5B00     		lsls	r3, r3, #1
 527 0026 9D42     		cmp	r5, r3
 528 0028 0AD0     		beq	.L31
 529 002a 802D     		cmp	r5, #128
 530 002c 00D0     		beq	.LCB518
 531 002e EAE0     		b	.L47	@long jump
 532              	.LCB518:
 558:Source\mbedtls_open\library/aes.c ****     {
 559:Source\mbedtls_open\library/aes.c ****         case 128: ctx->nr = 10; break;
 533              		.loc 1 559 0
 534 0030 F63B     		subs	r3, r3, #246
 535 0032 4246     		mov	r2, r8
 536 0034 1360     		str	r3, [r2]
 537 0036 06E0     		b	.L33
 538              	.L30:
 560:Source\mbedtls_open\library/aes.c ****         case 192: ctx->nr = 12; break;
 539              		.loc 1 560 0
 540 0038 0C23     		movs	r3, #12
 541 003a 4246     		mov	r2, r8
 542 003c 1360     		str	r3, [r2]
 543 003e 02E0     		b	.L33
 544              	.L31:
 561:Source\mbedtls_open\library/aes.c ****         case 256: ctx->nr = 14; break;
 545              		.loc 1 561 0
 546 0040 0E23     		movs	r3, #14
 547 0042 4246     		mov	r2, r8
 548 0044 1360     		str	r3, [r2]
 549              	.LVL53:
 550              	.L33:
 562:Source\mbedtls_open\library/aes.c ****         default : return( MBEDTLS_ERR_AES_INVALID_KEY_LENGTH );
 563:Source\mbedtls_open\library/aes.c ****     }
 564:Source\mbedtls_open\library/aes.c **** 
 565:Source\mbedtls_open\library/aes.c **** #if defined(MBEDTLS_PADLOCK_C) && defined(MBEDTLS_PADLOCK_ALIGN16)
 566:Source\mbedtls_open\library/aes.c ****     if( aes_padlock_ace == -1 )
 567:Source\mbedtls_open\library/aes.c ****         aes_padlock_ace = mbedtls_padlock_has_support( MBEDTLS_PADLOCK_ACE );
 568:Source\mbedtls_open\library/aes.c **** 
 569:Source\mbedtls_open\library/aes.c ****     if( aes_padlock_ace )
 570:Source\mbedtls_open\library/aes.c ****         ctx->rk = RK = MBEDTLS_PADLOCK_ALIGN16( ctx->buf );
 571:Source\mbedtls_open\library/aes.c ****     else
 572:Source\mbedtls_open\library/aes.c **** #endif
 573:Source\mbedtls_open\library/aes.c ****     ctx->rk = RK = ctx->buf;
 551              		.loc 1 573 0
 552 0046 4346     		mov	r3, r8
ARM GAS  C:\Users\Phuong\AppData\Local\Temp\ccyLHZOj.s 			page 21


 553 0048 0833     		adds	r3, r3, #8
 554              	.LVL54:
 555 004a 4246     		mov	r2, r8
 556              	.LVL55:
 557 004c 5360     		str	r3, [r2, #4]
 558              	.LVL56:
 574:Source\mbedtls_open\library/aes.c **** 
 575:Source\mbedtls_open\library/aes.c **** #if defined(MBEDTLS_AESNI_C) && defined(MBEDTLS_HAVE_X86_64)
 576:Source\mbedtls_open\library/aes.c ****     if( mbedtls_aesni_has_support( MBEDTLS_AESNI_AES ) )
 577:Source\mbedtls_open\library/aes.c ****         return( mbedtls_aesni_setkey_enc( (unsigned char *) ctx->rk, key, keybits ) );
 578:Source\mbedtls_open\library/aes.c **** #endif
 579:Source\mbedtls_open\library/aes.c **** 
 580:Source\mbedtls_open\library/aes.c ****     for( i = 0; i < ( keybits >> 5 ); i++ )
 559              		.loc 1 580 0
 560 004e 0020     		movs	r0, #0
 561 0050 0DE0     		b	.L34
 562              	.LVL57:
 563              	.L35:
 581:Source\mbedtls_open\library/aes.c ****     {
 582:Source\mbedtls_open\library/aes.c ****         GET_UINT32_LE( RK[i], key, i << 2 );
 564              		.loc 1 582 0 discriminator 3
 565 0052 8700     		lsls	r7, r0, #2
 566 0054 E15D     		ldrb	r1, [r4, r7]
 567 0056 E619     		adds	r6, r4, r7
 568 0058 7278     		ldrb	r2, [r6, #1]
 569 005a 1202     		lsls	r2, r2, #8
 570 005c 0A43     		orrs	r2, r1
 571 005e B178     		ldrb	r1, [r6, #2]
 572 0060 0904     		lsls	r1, r1, #16
 573 0062 0A43     		orrs	r2, r1
 574 0064 F178     		ldrb	r1, [r6, #3]
 575 0066 0906     		lsls	r1, r1, #24
 576 0068 0A43     		orrs	r2, r1
 577 006a DA51     		str	r2, [r3, r7]
 580:Source\mbedtls_open\library/aes.c ****     {
 578              		.loc 1 580 0 discriminator 3
 579 006c 0130     		adds	r0, r0, #1
 580              	.LVL58:
 581              	.L34:
 580:Source\mbedtls_open\library/aes.c ****     {
 582              		.loc 1 580 0 is_stmt 0 discriminator 1
 583 006e 6A09     		lsrs	r2, r5, #5
 584 0070 9042     		cmp	r0, r2
 585 0072 EED3     		bcc	.L35
 583:Source\mbedtls_open\library/aes.c ****     }
 584:Source\mbedtls_open\library/aes.c **** 
 585:Source\mbedtls_open\library/aes.c ****     switch( ctx->nr )
 586              		.loc 1 585 0 is_stmt 1
 587 0074 4246     		mov	r2, r8
 588 0076 1268     		ldr	r2, [r2]
 589 0078 0C2A     		cmp	r2, #12
 590 007a 68D0     		beq	.L45
 591 007c 0E2A     		cmp	r2, #14
 592 007e 00D1     		bne	.LCB588
 593 0080 BAE0     		b	.L46	@long jump
 594              	.LCB588:
 595 0082 0A2A     		cmp	r2, #10
ARM GAS  C:\Users\Phuong\AppData\Local\Temp\ccyLHZOj.s 			page 22


 596 0084 00D0     		beq	.LCB590
 597 0086 C1E0     		b	.L48	@long jump
 598              	.LCB590:
 599 0088 2DE0     		b	.L44
 600              	.LVL59:
 601              	.L39:
 586:Source\mbedtls_open\library/aes.c ****     {
 587:Source\mbedtls_open\library/aes.c ****         case 10:
 588:Source\mbedtls_open\library/aes.c **** 
 589:Source\mbedtls_open\library/aes.c ****             for( i = 0; i < 10; i++, RK += 4 )
 590:Source\mbedtls_open\library/aes.c ****             {
 591:Source\mbedtls_open\library/aes.c ****                 RK[4]  = RK[0] ^ RCON[i] ^
 602              		.loc 1 591 0 discriminator 3
 603 008a 634F     		ldr	r7, .L49+4
 604 008c B200     		lsls	r2, r6, #2
 605 008e D159     		ldr	r1, [r2, r7]
 606 0090 1A68     		ldr	r2, [r3]
 607 0092 5140     		eors	r1, r2
 592:Source\mbedtls_open\library/aes.c ****                 ( (uint32_t) FSb[ ( RK[3] >>  8 ) & 0xFF ]       ) ^
 608              		.loc 1 592 0 discriminator 3
 609 0094 DC68     		ldr	r4, [r3, #12]
 610 0096 250A     		lsrs	r5, r4, #8
 611 0098 FF20     		movs	r0, #255
 612 009a 0540     		ands	r5, r0
 613 009c 2822     		movs	r2, #40
 614 009e 9446     		mov	ip, r2
 615 00a0 7D19     		adds	r5, r7, r5
 616 00a2 AA5C     		ldrb	r2, [r5, r2]
 591:Source\mbedtls_open\library/aes.c ****                 ( (uint32_t) FSb[ ( RK[3] >>  8 ) & 0xFF ]       ) ^
 617              		.loc 1 591 0 discriminator 3
 618 00a4 5140     		eors	r1, r2
 593:Source\mbedtls_open\library/aes.c ****                 ( (uint32_t) FSb[ ( RK[3] >> 16 ) & 0xFF ] <<  8 ) ^
 619              		.loc 1 593 0 discriminator 3
 620 00a6 250C     		lsrs	r5, r4, #16
 621 00a8 0540     		ands	r5, r0
 622 00aa 7D19     		adds	r5, r7, r5
 623 00ac 6246     		mov	r2, ip
 624 00ae AA5C     		ldrb	r2, [r5, r2]
 625 00b0 1202     		lsls	r2, r2, #8
 592:Source\mbedtls_open\library/aes.c ****                 ( (uint32_t) FSb[ ( RK[3] >>  8 ) & 0xFF ]       ) ^
 626              		.loc 1 592 0 discriminator 3
 627 00b2 5140     		eors	r1, r2
 594:Source\mbedtls_open\library/aes.c ****                 ( (uint32_t) FSb[ ( RK[3] >> 24 ) & 0xFF ] << 16 ) ^
 628              		.loc 1 594 0 discriminator 3
 629 00b4 220E     		lsrs	r2, r4, #24
 630 00b6 BA18     		adds	r2, r7, r2
 631 00b8 6546     		mov	r5, ip
 632 00ba 555D     		ldrb	r5, [r2, r5]
 633 00bc 2D04     		lsls	r5, r5, #16
 593:Source\mbedtls_open\library/aes.c ****                 ( (uint32_t) FSb[ ( RK[3] >> 16 ) & 0xFF ] <<  8 ) ^
 634              		.loc 1 593 0 discriminator 3
 635 00be 6940     		eors	r1, r5
 595:Source\mbedtls_open\library/aes.c ****                 ( (uint32_t) FSb[ ( RK[3]       ) & 0xFF ] << 24 );
 636              		.loc 1 595 0 discriminator 3
 637 00c0 0200     		movs	r2, r0
 638 00c2 2240     		ands	r2, r4
 639 00c4 BA18     		adds	r2, r7, r2
ARM GAS  C:\Users\Phuong\AppData\Local\Temp\ccyLHZOj.s 			page 23


 640 00c6 6046     		mov	r0, ip
 641 00c8 105C     		ldrb	r0, [r2, r0]
 642 00ca 0006     		lsls	r0, r0, #24
 594:Source\mbedtls_open\library/aes.c ****                 ( (uint32_t) FSb[ ( RK[3] >> 24 ) & 0xFF ] << 16 ) ^
 643              		.loc 1 594 0 discriminator 3
 644 00cc 4140     		eors	r1, r0
 591:Source\mbedtls_open\library/aes.c ****                 ( (uint32_t) FSb[ ( RK[3] >>  8 ) & 0xFF ]       ) ^
 645              		.loc 1 591 0 discriminator 3
 646 00ce 1961     		str	r1, [r3, #16]
 596:Source\mbedtls_open\library/aes.c **** 
 597:Source\mbedtls_open\library/aes.c ****                 RK[5]  = RK[1] ^ RK[4];
 647              		.loc 1 597 0 discriminator 3
 648 00d0 5A68     		ldr	r2, [r3, #4]
 649 00d2 4A40     		eors	r2, r1
 650 00d4 5A61     		str	r2, [r3, #20]
 598:Source\mbedtls_open\library/aes.c ****                 RK[6]  = RK[2] ^ RK[5];
 651              		.loc 1 598 0 discriminator 3
 652 00d6 9968     		ldr	r1, [r3, #8]
 653 00d8 4A40     		eors	r2, r1
 654 00da 9A61     		str	r2, [r3, #24]
 599:Source\mbedtls_open\library/aes.c ****                 RK[7]  = RK[3] ^ RK[6];
 655              		.loc 1 599 0 discriminator 3
 656 00dc 6240     		eors	r2, r4
 657 00de DA61     		str	r2, [r3, #28]
 589:Source\mbedtls_open\library/aes.c ****             {
 658              		.loc 1 589 0 discriminator 3
 659 00e0 0136     		adds	r6, r6, #1
 660              	.LVL60:
 661 00e2 1033     		adds	r3, r3, #16
 662              	.LVL61:
 663 00e4 00E0     		b	.L38
 664              	.LVL62:
 665              	.L44:
 585:Source\mbedtls_open\library/aes.c ****     {
 666              		.loc 1 585 0
 667 00e6 0026     		movs	r6, #0
 668              	.LVL63:
 669              	.L38:
 589:Source\mbedtls_open\library/aes.c ****             {
 670              		.loc 1 589 0 discriminator 1
 671 00e8 092E     		cmp	r6, #9
 672 00ea CED9     		bls	.L39
 600:Source\mbedtls_open\library/aes.c ****             }
 601:Source\mbedtls_open\library/aes.c ****             break;
 602:Source\mbedtls_open\library/aes.c **** 
 603:Source\mbedtls_open\library/aes.c ****         case 12:
 604:Source\mbedtls_open\library/aes.c **** 
 605:Source\mbedtls_open\library/aes.c ****             for( i = 0; i < 8; i++, RK += 6 )
 606:Source\mbedtls_open\library/aes.c ****             {
 607:Source\mbedtls_open\library/aes.c ****                 RK[6]  = RK[0] ^ RCON[i] ^
 608:Source\mbedtls_open\library/aes.c ****                 ( (uint32_t) FSb[ ( RK[5] >>  8 ) & 0xFF ]       ) ^
 609:Source\mbedtls_open\library/aes.c ****                 ( (uint32_t) FSb[ ( RK[5] >> 16 ) & 0xFF ] <<  8 ) ^
 610:Source\mbedtls_open\library/aes.c ****                 ( (uint32_t) FSb[ ( RK[5] >> 24 ) & 0xFF ] << 16 ) ^
 611:Source\mbedtls_open\library/aes.c ****                 ( (uint32_t) FSb[ ( RK[5]       ) & 0xFF ] << 24 );
 612:Source\mbedtls_open\library/aes.c **** 
 613:Source\mbedtls_open\library/aes.c ****                 RK[7]  = RK[1] ^ RK[6];
 614:Source\mbedtls_open\library/aes.c ****                 RK[8]  = RK[2] ^ RK[7];
ARM GAS  C:\Users\Phuong\AppData\Local\Temp\ccyLHZOj.s 			page 24


 615:Source\mbedtls_open\library/aes.c ****                 RK[9]  = RK[3] ^ RK[8];
 616:Source\mbedtls_open\library/aes.c ****                 RK[10] = RK[4] ^ RK[9];
 617:Source\mbedtls_open\library/aes.c ****                 RK[11] = RK[5] ^ RK[10];
 618:Source\mbedtls_open\library/aes.c ****             }
 619:Source\mbedtls_open\library/aes.c ****             break;
 620:Source\mbedtls_open\library/aes.c **** 
 621:Source\mbedtls_open\library/aes.c ****         case 14:
 622:Source\mbedtls_open\library/aes.c **** 
 623:Source\mbedtls_open\library/aes.c ****             for( i = 0; i < 7; i++, RK += 8 )
 624:Source\mbedtls_open\library/aes.c ****             {
 625:Source\mbedtls_open\library/aes.c ****                 RK[8]  = RK[0] ^ RCON[i] ^
 626:Source\mbedtls_open\library/aes.c ****                 ( (uint32_t) FSb[ ( RK[7] >>  8 ) & 0xFF ]       ) ^
 627:Source\mbedtls_open\library/aes.c ****                 ( (uint32_t) FSb[ ( RK[7] >> 16 ) & 0xFF ] <<  8 ) ^
 628:Source\mbedtls_open\library/aes.c ****                 ( (uint32_t) FSb[ ( RK[7] >> 24 ) & 0xFF ] << 16 ) ^
 629:Source\mbedtls_open\library/aes.c ****                 ( (uint32_t) FSb[ ( RK[7]       ) & 0xFF ] << 24 );
 630:Source\mbedtls_open\library/aes.c **** 
 631:Source\mbedtls_open\library/aes.c ****                 RK[9]  = RK[1] ^ RK[8];
 632:Source\mbedtls_open\library/aes.c ****                 RK[10] = RK[2] ^ RK[9];
 633:Source\mbedtls_open\library/aes.c ****                 RK[11] = RK[3] ^ RK[10];
 634:Source\mbedtls_open\library/aes.c **** 
 635:Source\mbedtls_open\library/aes.c ****                 RK[12] = RK[4] ^
 636:Source\mbedtls_open\library/aes.c ****                 ( (uint32_t) FSb[ ( RK[11]       ) & 0xFF ]       ) ^
 637:Source\mbedtls_open\library/aes.c ****                 ( (uint32_t) FSb[ ( RK[11] >>  8 ) & 0xFF ] <<  8 ) ^
 638:Source\mbedtls_open\library/aes.c ****                 ( (uint32_t) FSb[ ( RK[11] >> 16 ) & 0xFF ] << 16 ) ^
 639:Source\mbedtls_open\library/aes.c ****                 ( (uint32_t) FSb[ ( RK[11] >> 24 ) & 0xFF ] << 24 );
 640:Source\mbedtls_open\library/aes.c **** 
 641:Source\mbedtls_open\library/aes.c ****                 RK[13] = RK[5] ^ RK[12];
 642:Source\mbedtls_open\library/aes.c ****                 RK[14] = RK[6] ^ RK[13];
 643:Source\mbedtls_open\library/aes.c ****                 RK[15] = RK[7] ^ RK[14];
 644:Source\mbedtls_open\library/aes.c ****             }
 645:Source\mbedtls_open\library/aes.c ****             break;
 646:Source\mbedtls_open\library/aes.c ****     }
 647:Source\mbedtls_open\library/aes.c **** 
 648:Source\mbedtls_open\library/aes.c ****     return( 0 );
 673              		.loc 1 648 0
 674 00ec 0020     		movs	r0, #0
 675 00ee 8EE0     		b	.L29
 676              	.LVL64:
 677              	.L40:
 607:Source\mbedtls_open\library/aes.c ****                 ( (uint32_t) FSb[ ( RK[5] >>  8 ) & 0xFF ]       ) ^
 678              		.loc 1 607 0 discriminator 3
 679 00f0 494E     		ldr	r6, .L49+4
 680 00f2 AA00     		lsls	r2, r5, #2
 681 00f4 9159     		ldr	r1, [r2, r6]
 682 00f6 1A68     		ldr	r2, [r3]
 683 00f8 5140     		eors	r1, r2
 608:Source\mbedtls_open\library/aes.c ****                 ( (uint32_t) FSb[ ( RK[5] >> 16 ) & 0xFF ] <<  8 ) ^
 684              		.loc 1 608 0 discriminator 3
 685 00fa 5C69     		ldr	r4, [r3, #20]
 686 00fc 200A     		lsrs	r0, r4, #8
 687 00fe FF22     		movs	r2, #255
 688 0100 1040     		ands	r0, r2
 689 0102 2827     		movs	r7, #40
 690 0104 3018     		adds	r0, r6, r0
 691 0106 C05D     		ldrb	r0, [r0, r7]
 607:Source\mbedtls_open\library/aes.c ****                 ( (uint32_t) FSb[ ( RK[5] >>  8 ) & 0xFF ]       ) ^
 692              		.loc 1 607 0 discriminator 3
ARM GAS  C:\Users\Phuong\AppData\Local\Temp\ccyLHZOj.s 			page 25


 693 0108 4140     		eors	r1, r0
 609:Source\mbedtls_open\library/aes.c ****                 ( (uint32_t) FSb[ ( RK[5] >> 24 ) & 0xFF ] << 16 ) ^
 694              		.loc 1 609 0 discriminator 3
 695 010a 200C     		lsrs	r0, r4, #16
 696 010c 1040     		ands	r0, r2
 697 010e 3018     		adds	r0, r6, r0
 698 0110 C05D     		ldrb	r0, [r0, r7]
 699 0112 0002     		lsls	r0, r0, #8
 608:Source\mbedtls_open\library/aes.c ****                 ( (uint32_t) FSb[ ( RK[5] >> 16 ) & 0xFF ] <<  8 ) ^
 700              		.loc 1 608 0 discriminator 3
 701 0114 4140     		eors	r1, r0
 610:Source\mbedtls_open\library/aes.c ****                 ( (uint32_t) FSb[ ( RK[5]       ) & 0xFF ] << 24 );
 702              		.loc 1 610 0 discriminator 3
 703 0116 200E     		lsrs	r0, r4, #24
 704 0118 3018     		adds	r0, r6, r0
 705 011a C05D     		ldrb	r0, [r0, r7]
 706 011c 0004     		lsls	r0, r0, #16
 609:Source\mbedtls_open\library/aes.c ****                 ( (uint32_t) FSb[ ( RK[5] >> 24 ) & 0xFF ] << 16 ) ^
 707              		.loc 1 609 0 discriminator 3
 708 011e 4140     		eors	r1, r0
 611:Source\mbedtls_open\library/aes.c **** 
 709              		.loc 1 611 0 discriminator 3
 710 0120 2240     		ands	r2, r4
 711 0122 B218     		adds	r2, r6, r2
 712 0124 D05D     		ldrb	r0, [r2, r7]
 713 0126 0006     		lsls	r0, r0, #24
 610:Source\mbedtls_open\library/aes.c ****                 ( (uint32_t) FSb[ ( RK[5]       ) & 0xFF ] << 24 );
 714              		.loc 1 610 0 discriminator 3
 715 0128 4140     		eors	r1, r0
 607:Source\mbedtls_open\library/aes.c ****                 ( (uint32_t) FSb[ ( RK[5] >>  8 ) & 0xFF ]       ) ^
 716              		.loc 1 607 0 discriminator 3
 717 012a 9961     		str	r1, [r3, #24]
 613:Source\mbedtls_open\library/aes.c ****                 RK[8]  = RK[2] ^ RK[7];
 718              		.loc 1 613 0 discriminator 3
 719 012c 5A68     		ldr	r2, [r3, #4]
 720 012e 4A40     		eors	r2, r1
 721 0130 DA61     		str	r2, [r3, #28]
 614:Source\mbedtls_open\library/aes.c ****                 RK[9]  = RK[3] ^ RK[8];
 722              		.loc 1 614 0 discriminator 3
 723 0132 9968     		ldr	r1, [r3, #8]
 724 0134 4A40     		eors	r2, r1
 725 0136 1A62     		str	r2, [r3, #32]
 615:Source\mbedtls_open\library/aes.c ****                 RK[10] = RK[4] ^ RK[9];
 726              		.loc 1 615 0 discriminator 3
 727 0138 D968     		ldr	r1, [r3, #12]
 728 013a 4A40     		eors	r2, r1
 729 013c 5A62     		str	r2, [r3, #36]
 616:Source\mbedtls_open\library/aes.c ****                 RK[11] = RK[5] ^ RK[10];
 730              		.loc 1 616 0 discriminator 3
 731 013e 1969     		ldr	r1, [r3, #16]
 732 0140 4A40     		eors	r2, r1
 733 0142 9A62     		str	r2, [r3, #40]
 617:Source\mbedtls_open\library/aes.c ****             }
 734              		.loc 1 617 0 discriminator 3
 735 0144 6240     		eors	r2, r4
 736 0146 DA62     		str	r2, [r3, #44]
 605:Source\mbedtls_open\library/aes.c ****             {
ARM GAS  C:\Users\Phuong\AppData\Local\Temp\ccyLHZOj.s 			page 26


 737              		.loc 1 605 0 discriminator 3
 738 0148 0135     		adds	r5, r5, #1
 739              	.LVL65:
 740 014a 1833     		adds	r3, r3, #24
 741              	.LVL66:
 742 014c 00E0     		b	.L36
 743              	.LVL67:
 744              	.L45:
 585:Source\mbedtls_open\library/aes.c ****     {
 745              		.loc 1 585 0
 746 014e 0025     		movs	r5, #0
 747              	.LVL68:
 748              	.L36:
 605:Source\mbedtls_open\library/aes.c ****             {
 749              		.loc 1 605 0 discriminator 1
 750 0150 072D     		cmp	r5, #7
 751 0152 CDD9     		bls	.L40
 752              		.loc 1 648 0
 753 0154 0020     		movs	r0, #0
 754 0156 5AE0     		b	.L29
 755              	.LVL69:
 756              	.L41:
 625:Source\mbedtls_open\library/aes.c ****                 ( (uint32_t) FSb[ ( RK[7] >>  8 ) & 0xFF ]       ) ^
 757              		.loc 1 625 0 discriminator 3
 758 0158 2F49     		ldr	r1, .L49+4
 759 015a 4246     		mov	r2, r8
 760              	.LVL70:
 761 015c 9200     		lsls	r2, r2, #2
 762 015e 5258     		ldr	r2, [r2, r1]
 763 0160 1868     		ldr	r0, [r3]
 764 0162 4240     		eors	r2, r0
 626:Source\mbedtls_open\library/aes.c ****                 ( (uint32_t) FSb[ ( RK[7] >> 16 ) & 0xFF ] <<  8 ) ^
 765              		.loc 1 626 0 discriminator 3
 766 0164 DE69     		ldr	r6, [r3, #28]
 767 0166 370A     		lsrs	r7, r6, #8
 768 0168 FF24     		movs	r4, #255
 769 016a 2740     		ands	r7, r4
 770 016c 2820     		movs	r0, #40
 771 016e CF19     		adds	r7, r1, r7
 772 0170 3F5C     		ldrb	r7, [r7, r0]
 625:Source\mbedtls_open\library/aes.c ****                 ( (uint32_t) FSb[ ( RK[7] >>  8 ) & 0xFF ]       ) ^
 773              		.loc 1 625 0 discriminator 3
 774 0172 7A40     		eors	r2, r7
 627:Source\mbedtls_open\library/aes.c ****                 ( (uint32_t) FSb[ ( RK[7] >> 24 ) & 0xFF ] << 16 ) ^
 775              		.loc 1 627 0 discriminator 3
 776 0174 370C     		lsrs	r7, r6, #16
 777 0176 2740     		ands	r7, r4
 778 0178 CF19     		adds	r7, r1, r7
 779 017a 3F5C     		ldrb	r7, [r7, r0]
 780 017c 3F02     		lsls	r7, r7, #8
 626:Source\mbedtls_open\library/aes.c ****                 ( (uint32_t) FSb[ ( RK[7] >> 16 ) & 0xFF ] <<  8 ) ^
 781              		.loc 1 626 0 discriminator 3
 782 017e 7A40     		eors	r2, r7
 628:Source\mbedtls_open\library/aes.c ****                 ( (uint32_t) FSb[ ( RK[7]       ) & 0xFF ] << 24 );
 783              		.loc 1 628 0 discriminator 3
 784 0180 370E     		lsrs	r7, r6, #24
 785 0182 CF19     		adds	r7, r1, r7
ARM GAS  C:\Users\Phuong\AppData\Local\Temp\ccyLHZOj.s 			page 27


 786 0184 3F5C     		ldrb	r7, [r7, r0]
 787 0186 3F04     		lsls	r7, r7, #16
 627:Source\mbedtls_open\library/aes.c ****                 ( (uint32_t) FSb[ ( RK[7] >> 24 ) & 0xFF ] << 16 ) ^
 788              		.loc 1 627 0 discriminator 3
 789 0188 7A40     		eors	r2, r7
 629:Source\mbedtls_open\library/aes.c **** 
 790              		.loc 1 629 0 discriminator 3
 791 018a 2700     		movs	r7, r4
 792 018c 3740     		ands	r7, r6
 793 018e CF19     		adds	r7, r1, r7
 794 0190 3F5C     		ldrb	r7, [r7, r0]
 795 0192 3F06     		lsls	r7, r7, #24
 628:Source\mbedtls_open\library/aes.c ****                 ( (uint32_t) FSb[ ( RK[7]       ) & 0xFF ] << 24 );
 796              		.loc 1 628 0 discriminator 3
 797 0194 7A40     		eors	r2, r7
 625:Source\mbedtls_open\library/aes.c ****                 ( (uint32_t) FSb[ ( RK[7] >>  8 ) & 0xFF ]       ) ^
 798              		.loc 1 625 0 discriminator 3
 799 0196 1A62     		str	r2, [r3, #32]
 631:Source\mbedtls_open\library/aes.c ****                 RK[10] = RK[2] ^ RK[9];
 800              		.loc 1 631 0 discriminator 3
 801 0198 5D68     		ldr	r5, [r3, #4]
 802 019a 6A40     		eors	r2, r5
 803 019c 5A62     		str	r2, [r3, #36]
 632:Source\mbedtls_open\library/aes.c ****                 RK[11] = RK[3] ^ RK[10];
 804              		.loc 1 632 0 discriminator 3
 805 019e 9D68     		ldr	r5, [r3, #8]
 806 01a0 6A40     		eors	r2, r5
 807 01a2 9A62     		str	r2, [r3, #40]
 633:Source\mbedtls_open\library/aes.c **** 
 808              		.loc 1 633 0 discriminator 3
 809 01a4 DD68     		ldr	r5, [r3, #12]
 810 01a6 6A40     		eors	r2, r5
 811 01a8 DA62     		str	r2, [r3, #44]
 636:Source\mbedtls_open\library/aes.c ****                 ( (uint32_t) FSb[ ( RK[11] >>  8 ) & 0xFF ] <<  8 ) ^
 812              		.loc 1 636 0 discriminator 3
 813 01aa 2700     		movs	r7, r4
 814 01ac 1740     		ands	r7, r2
 815 01ae CF19     		adds	r7, r1, r7
 816 01b0 3F5C     		ldrb	r7, [r7, r0]
 635:Source\mbedtls_open\library/aes.c ****                 ( (uint32_t) FSb[ ( RK[11]       ) & 0xFF ]       ) ^
 817              		.loc 1 635 0 discriminator 3
 818 01b2 1D69     		ldr	r5, [r3, #16]
 819 01b4 7D40     		eors	r5, r7
 637:Source\mbedtls_open\library/aes.c ****                 ( (uint32_t) FSb[ ( RK[11] >> 16 ) & 0xFF ] << 16 ) ^
 820              		.loc 1 637 0 discriminator 3
 821 01b6 170A     		lsrs	r7, r2, #8
 822 01b8 2740     		ands	r7, r4
 823 01ba CF19     		adds	r7, r1, r7
 824 01bc 3F5C     		ldrb	r7, [r7, r0]
 825 01be 3F02     		lsls	r7, r7, #8
 636:Source\mbedtls_open\library/aes.c ****                 ( (uint32_t) FSb[ ( RK[11] >>  8 ) & 0xFF ] <<  8 ) ^
 826              		.loc 1 636 0 discriminator 3
 827 01c0 7D40     		eors	r5, r7
 638:Source\mbedtls_open\library/aes.c ****                 ( (uint32_t) FSb[ ( RK[11] >> 24 ) & 0xFF ] << 24 );
 828              		.loc 1 638 0 discriminator 3
 829 01c2 170C     		lsrs	r7, r2, #16
 830 01c4 3C40     		ands	r4, r7
ARM GAS  C:\Users\Phuong\AppData\Local\Temp\ccyLHZOj.s 			page 28


 831 01c6 0C19     		adds	r4, r1, r4
 832 01c8 275C     		ldrb	r7, [r4, r0]
 833 01ca 3F04     		lsls	r7, r7, #16
 637:Source\mbedtls_open\library/aes.c ****                 ( (uint32_t) FSb[ ( RK[11] >> 16 ) & 0xFF ] << 16 ) ^
 834              		.loc 1 637 0 discriminator 3
 835 01cc 2C00     		movs	r4, r5
 836 01ce 7C40     		eors	r4, r7
 639:Source\mbedtls_open\library/aes.c **** 
 837              		.loc 1 639 0 discriminator 3
 838 01d0 120E     		lsrs	r2, r2, #24
 839 01d2 8A18     		adds	r2, r1, r2
 840 01d4 105C     		ldrb	r0, [r2, r0]
 841 01d6 0006     		lsls	r0, r0, #24
 638:Source\mbedtls_open\library/aes.c ****                 ( (uint32_t) FSb[ ( RK[11] >> 24 ) & 0xFF ] << 24 );
 842              		.loc 1 638 0 discriminator 3
 843 01d8 2100     		movs	r1, r4
 844 01da 4140     		eors	r1, r0
 635:Source\mbedtls_open\library/aes.c ****                 ( (uint32_t) FSb[ ( RK[11]       ) & 0xFF ]       ) ^
 845              		.loc 1 635 0 discriminator 3
 846 01dc 1963     		str	r1, [r3, #48]
 641:Source\mbedtls_open\library/aes.c ****                 RK[14] = RK[6] ^ RK[13];
 847              		.loc 1 641 0 discriminator 3
 848 01de 5A69     		ldr	r2, [r3, #20]
 849 01e0 4A40     		eors	r2, r1
 850 01e2 5A63     		str	r2, [r3, #52]
 642:Source\mbedtls_open\library/aes.c ****                 RK[15] = RK[7] ^ RK[14];
 851              		.loc 1 642 0 discriminator 3
 852 01e4 9969     		ldr	r1, [r3, #24]
 853 01e6 4A40     		eors	r2, r1
 854 01e8 9A63     		str	r2, [r3, #56]
 643:Source\mbedtls_open\library/aes.c ****             }
 855              		.loc 1 643 0 discriminator 3
 856 01ea 7240     		eors	r2, r6
 857 01ec DA63     		str	r2, [r3, #60]
 623:Source\mbedtls_open\library/aes.c ****             {
 858              		.loc 1 623 0 discriminator 3
 859 01ee 0122     		movs	r2, #1
 860 01f0 9446     		mov	ip, r2
 861 01f2 E044     		add	r8, r8, ip
 862              	.LVL71:
 863 01f4 2033     		adds	r3, r3, #32
 864              	.LVL72:
 865 01f6 01E0     		b	.L37
 866              	.LVL73:
 867              	.L46:
 585:Source\mbedtls_open\library/aes.c ****     {
 868              		.loc 1 585 0
 869 01f8 0022     		movs	r2, #0
 870 01fa 9046     		mov	r8, r2
 871              	.LVL74:
 872              	.L37:
 623:Source\mbedtls_open\library/aes.c ****             {
 873              		.loc 1 623 0 discriminator 1
 874 01fc 4246     		mov	r2, r8
 875 01fe 062A     		cmp	r2, #6
 876 0200 AAD9     		bls	.L41
 877              		.loc 1 648 0
ARM GAS  C:\Users\Phuong\AppData\Local\Temp\ccyLHZOj.s 			page 29


 878 0202 0020     		movs	r0, #0
 879 0204 03E0     		b	.L29
 880              	.LVL75:
 881              	.L47:
 562:Source\mbedtls_open\library/aes.c ****     }
 882              		.loc 1 562 0
 883 0206 2020     		movs	r0, #32
 884 0208 4042     		rsbs	r0, r0, #0
 885 020a 00E0     		b	.L29
 886              	.LVL76:
 887              	.L48:
 888              		.loc 1 648 0
 889 020c 0020     		movs	r0, #0
 890              	.LVL77:
 891              	.L29:
 649:Source\mbedtls_open\library/aes.c **** }
 892              		.loc 1 649 0
 893              		@ sp needed
 894 020e 04BC     		pop	{r2}
 895 0210 9046     		mov	r8, r2
 896 0212 F0BD     		pop	{r4, r5, r6, r7, pc}
 897              	.L50:
 898              		.align	2
 899              	.L49:
 900 0214 00220000 		.word	.LANCHOR10
 901 0218 00000000 		.word	.LANCHOR0
 902              		.cfi_endproc
 903              	.LFE4:
 904              		.size	mbedtls_aes_setkey_enc, .-mbedtls_aes_setkey_enc
 905              		.section	.text.mbedtls_aes_setkey_dec,"ax",%progbits
 906              		.align	2
 907              		.global	mbedtls_aes_setkey_dec
 908              		.code	16
 909              		.thumb_func
 910              		.type	mbedtls_aes_setkey_dec, %function
 911              	mbedtls_aes_setkey_dec:
 912              	.LFB5:
 650:Source\mbedtls_open\library/aes.c **** #endif /* !MBEDTLS_AES_SETKEY_ENC_ALT */
 651:Source\mbedtls_open\library/aes.c **** 
 652:Source\mbedtls_open\library/aes.c **** /*
 653:Source\mbedtls_open\library/aes.c ****  * AES key schedule (decryption)
 654:Source\mbedtls_open\library/aes.c ****  */
 655:Source\mbedtls_open\library/aes.c **** #if !defined(MBEDTLS_AES_SETKEY_DEC_ALT)
 656:Source\mbedtls_open\library/aes.c **** int mbedtls_aes_setkey_dec( mbedtls_aes_context *ctx, const unsigned char *key,
 657:Source\mbedtls_open\library/aes.c ****                     unsigned int keybits )
 658:Source\mbedtls_open\library/aes.c **** {
 913              		.loc 1 658 0
 914              		.cfi_startproc
 915              		@ args = 0, pretend = 0, frame = 288
 916              		@ frame_needed = 0, uses_anonymous_args = 0
 917              	.LVL78:
 918 0000 F0B5     		push	{r4, r5, r6, r7, lr}
 919              		.cfi_def_cfa_offset 20
 920              		.cfi_offset 4, -20
 921              		.cfi_offset 5, -16
 922              		.cfi_offset 6, -12
 923              		.cfi_offset 7, -8
ARM GAS  C:\Users\Phuong\AppData\Local\Temp\ccyLHZOj.s 			page 30


 924              		.cfi_offset 14, -4
 925 0002 5F46     		mov	r7, fp
 926 0004 5646     		mov	r6, r10
 927 0006 4D46     		mov	r5, r9
 928 0008 4446     		mov	r4, r8
 929 000a F0B4     		push	{r4, r5, r6, r7}
 930              		.cfi_def_cfa_offset 36
 931              		.cfi_offset 8, -36
 932              		.cfi_offset 9, -32
 933              		.cfi_offset 10, -28
 934              		.cfi_offset 11, -24
 935 000c C9B0     		sub	sp, sp, #292
 936              		.cfi_def_cfa_offset 328
 937 000e 0700     		movs	r7, r0
 938 0010 0C00     		movs	r4, r1
 939 0012 1500     		movs	r5, r2
 659:Source\mbedtls_open\library/aes.c ****     int i, j, ret;
 660:Source\mbedtls_open\library/aes.c ****     mbedtls_aes_context cty;
 661:Source\mbedtls_open\library/aes.c ****     uint32_t *RK;
 662:Source\mbedtls_open\library/aes.c ****     uint32_t *SK;
 663:Source\mbedtls_open\library/aes.c **** 
 664:Source\mbedtls_open\library/aes.c ****     mbedtls_aes_init( &cty );
 940              		.loc 1 664 0
 941 0014 02A8     		add	r0, sp, #8
 942              	.LVL79:
 943 0016 FFF7FEFF 		bl	mbedtls_aes_init
 944              	.LVL80:
 665:Source\mbedtls_open\library/aes.c **** 
 666:Source\mbedtls_open\library/aes.c **** #if defined(MBEDTLS_PADLOCK_C) && defined(MBEDTLS_PADLOCK_ALIGN16)
 667:Source\mbedtls_open\library/aes.c ****     if( aes_padlock_ace == -1 )
 668:Source\mbedtls_open\library/aes.c ****         aes_padlock_ace = mbedtls_padlock_has_support( MBEDTLS_PADLOCK_ACE );
 669:Source\mbedtls_open\library/aes.c **** 
 670:Source\mbedtls_open\library/aes.c ****     if( aes_padlock_ace )
 671:Source\mbedtls_open\library/aes.c ****         ctx->rk = RK = MBEDTLS_PADLOCK_ALIGN16( ctx->buf );
 672:Source\mbedtls_open\library/aes.c ****     else
 673:Source\mbedtls_open\library/aes.c **** #endif
 674:Source\mbedtls_open\library/aes.c ****     ctx->rk = RK = ctx->buf;
 945              		.loc 1 674 0
 946 001a 3B00     		movs	r3, r7
 947 001c 0833     		adds	r3, r3, #8
 948              	.LVL81:
 949 001e 7B60     		str	r3, [r7, #4]
 675:Source\mbedtls_open\library/aes.c **** 
 676:Source\mbedtls_open\library/aes.c ****     /* Also checks keybits */
 677:Source\mbedtls_open\library/aes.c ****     if( ( ret = mbedtls_aes_setkey_enc( &cty, key, keybits ) ) != 0 )
 950              		.loc 1 677 0
 951 0020 2A00     		movs	r2, r5
 952 0022 2100     		movs	r1, r4
 953 0024 02A8     		add	r0, sp, #8
 954 0026 FFF7FEFF 		bl	mbedtls_aes_setkey_enc
 955              	.LVL82:
 956 002a 0190     		str	r0, [sp, #4]
 957              	.LVL83:
 958 002c 0028     		cmp	r0, #0
 959 002e 5FD1     		bne	.L52
 678:Source\mbedtls_open\library/aes.c ****         goto exit;
 679:Source\mbedtls_open\library/aes.c **** 
ARM GAS  C:\Users\Phuong\AppData\Local\Temp\ccyLHZOj.s 			page 31


 680:Source\mbedtls_open\library/aes.c ****     ctx->nr = cty.nr;
 960              		.loc 1 680 0
 961 0030 029E     		ldr	r6, [sp, #8]
 962 0032 3E60     		str	r6, [r7]
 681:Source\mbedtls_open\library/aes.c **** 
 682:Source\mbedtls_open\library/aes.c **** #if defined(MBEDTLS_AESNI_C) && defined(MBEDTLS_HAVE_X86_64)
 683:Source\mbedtls_open\library/aes.c ****     if( mbedtls_aesni_has_support( MBEDTLS_AESNI_AES ) )
 684:Source\mbedtls_open\library/aes.c ****     {
 685:Source\mbedtls_open\library/aes.c ****         mbedtls_aesni_inverse_key( (unsigned char *) ctx->rk,
 686:Source\mbedtls_open\library/aes.c ****                            (const unsigned char *) cty.rk, ctx->nr );
 687:Source\mbedtls_open\library/aes.c ****         goto exit;
 688:Source\mbedtls_open\library/aes.c ****     }
 689:Source\mbedtls_open\library/aes.c **** #endif
 690:Source\mbedtls_open\library/aes.c **** 
 691:Source\mbedtls_open\library/aes.c ****     SK = cty.rk + cty.nr * 4;
 963              		.loc 1 691 0
 964 0034 3501     		lsls	r5, r6, #4
 965              	.LVL84:
 966 0036 039B     		ldr	r3, [sp, #12]
 967 0038 9C46     		mov	ip, r3
 968 003a 6544     		add	r5, r5, ip
 969              	.LVL85:
 692:Source\mbedtls_open\library/aes.c **** 
 693:Source\mbedtls_open\library/aes.c ****     *RK++ = *SK++;
 970              		.loc 1 693 0
 971 003c 2B68     		ldr	r3, [r5]
 972 003e BB60     		str	r3, [r7, #8]
 973              	.LVL86:
 694:Source\mbedtls_open\library/aes.c ****     *RK++ = *SK++;
 974              		.loc 1 694 0
 975 0040 6B68     		ldr	r3, [r5, #4]
 976 0042 FB60     		str	r3, [r7, #12]
 977              	.LVL87:
 695:Source\mbedtls_open\library/aes.c ****     *RK++ = *SK++;
 978              		.loc 1 695 0
 979 0044 AB68     		ldr	r3, [r5, #8]
 980 0046 3B61     		str	r3, [r7, #16]
 696:Source\mbedtls_open\library/aes.c ****     *RK++ = *SK++;
 981              		.loc 1 696 0
 982 0048 3800     		movs	r0, r7
 983              	.LVL88:
 984 004a 1830     		adds	r0, r0, #24
 985              	.LVL89:
 986 004c EB68     		ldr	r3, [r5, #12]
 987 004e 7B61     		str	r3, [r7, #20]
 697:Source\mbedtls_open\library/aes.c **** 
 698:Source\mbedtls_open\library/aes.c ****     for( i = ctx->nr - 1, SK -= 8; i > 0; i--, SK -= 8 )
 988              		.loc 1 698 0
 989 0050 731E     		subs	r3, r6, #1
 990 0052 9C46     		mov	ip, r3
 991              	.LVL90:
 992 0054 1023     		movs	r3, #16
 993              	.LVL91:
 994 0056 5B42     		rsbs	r3, r3, #0
 995 0058 9B46     		mov	fp, r3
 996 005a AB44     		add	fp, fp, r5
 997              	.LVL92:
ARM GAS  C:\Users\Phuong\AppData\Local\Temp\ccyLHZOj.s 			page 32


 998 005c 39E0     		b	.L53
 999              	.LVL93:
 1000              	.L54:
 699:Source\mbedtls_open\library/aes.c ****     {
 700:Source\mbedtls_open\library/aes.c ****         for( j = 0; j < 4; j++, SK++ )
 701:Source\mbedtls_open\library/aes.c ****         {
 702:Source\mbedtls_open\library/aes.c ****             *RK++ = AES_RT0( FSb[ ( *SK       ) & 0xFF ] ) ^
 1001              		.loc 1 702 0 discriminator 3
 1002 005e 5A46     		mov	r2, fp
 1003 0060 08CA     		ldmia	r2!, {r3}
 1004 0062 9346     		mov	fp, r2
 1005              	.LVL94:
 1006 0064 FF22     		movs	r2, #255
 1007              	.LVL95:
 1008 0066 9246     		mov	r10, r2
 1009 0068 1A40     		ands	r2, r3
 1010 006a 274C     		ldr	r4, .L57
 1011 006c 2827     		movs	r7, #40
 1012 006e A218     		adds	r2, r4, r2
 1013 0070 D25D     		ldrb	r2, [r2, r7]
 1014 0072 9200     		lsls	r2, r2, #2
 1015 0074 254E     		ldr	r6, .L57+4
 1016 0076 B218     		adds	r2, r6, r2
 1017 0078 926A     		ldr	r2, [r2, #40]
 703:Source\mbedtls_open\library/aes.c ****                     AES_RT1( FSb[ ( *SK >>  8 ) & 0xFF ] ) ^
 1018              		.loc 1 703 0 discriminator 3
 1019 007a 1E0A     		lsrs	r6, r3, #8
 1020 007c 5546     		mov	r5, r10
 1021 007e 2E40     		ands	r6, r5
 1022 0080 A619     		adds	r6, r4, r6
 1023 0082 F65D     		ldrb	r6, [r6, r7]
 1024 0084 B600     		lsls	r6, r6, #2
 1025 0086 224D     		ldr	r5, .L57+8
 1026 0088 A846     		mov	r8, r5
 1027 008a 4644     		add	r6, r6, r8
 1028 008c B66A     		ldr	r6, [r6, #40]
 702:Source\mbedtls_open\library/aes.c ****                     AES_RT1( FSb[ ( *SK >>  8 ) & 0xFF ] ) ^
 1029              		.loc 1 702 0 discriminator 3
 1030 008e 5640     		eors	r6, r2
 704:Source\mbedtls_open\library/aes.c ****                     AES_RT2( FSb[ ( *SK >> 16 ) & 0xFF ] ) ^
 1031              		.loc 1 704 0 discriminator 3
 1032 0090 1A0C     		lsrs	r2, r3, #16
 1033 0092 5546     		mov	r5, r10
 1034 0094 2A40     		ands	r2, r5
 1035 0096 A218     		adds	r2, r4, r2
 1036 0098 D25D     		ldrb	r2, [r2, r7]
 1037 009a 9200     		lsls	r2, r2, #2
 1038 009c 1D4D     		ldr	r5, .L57+12
 1039 009e A946     		mov	r9, r5
 1040 00a0 4A44     		add	r2, r2, r9
 1041 00a2 926A     		ldr	r2, [r2, #40]
 703:Source\mbedtls_open\library/aes.c ****                     AES_RT1( FSb[ ( *SK >>  8 ) & 0xFF ] ) ^
 1042              		.loc 1 703 0 discriminator 3
 1043 00a4 7240     		eors	r2, r6
 705:Source\mbedtls_open\library/aes.c ****                     AES_RT3( FSb[ ( *SK >> 24 ) & 0xFF ] );
 1044              		.loc 1 705 0 discriminator 3
 1045 00a6 1B0E     		lsrs	r3, r3, #24
ARM GAS  C:\Users\Phuong\AppData\Local\Temp\ccyLHZOj.s 			page 33


 1046 00a8 E318     		adds	r3, r4, r3
 1047 00aa DB5D     		ldrb	r3, [r3, r7]
 1048 00ac 9B00     		lsls	r3, r3, #2
 1049 00ae 1A4F     		ldr	r7, .L57+16
 1050 00b0 FB18     		adds	r3, r7, r3
 1051 00b2 9B6A     		ldr	r3, [r3, #40]
 704:Source\mbedtls_open\library/aes.c ****                     AES_RT2( FSb[ ( *SK >> 16 ) & 0xFF ] ) ^
 1052              		.loc 1 704 0 discriminator 3
 1053 00b4 5A40     		eors	r2, r3
 702:Source\mbedtls_open\library/aes.c ****                     AES_RT1( FSb[ ( *SK >>  8 ) & 0xFF ] ) ^
 1054              		.loc 1 702 0 discriminator 3
 1055 00b6 0260     		str	r2, [r0]
 700:Source\mbedtls_open\library/aes.c ****         {
 1056              		.loc 1 700 0 discriminator 3
 1057 00b8 0131     		adds	r1, r1, #1
 1058              	.LVL96:
 702:Source\mbedtls_open\library/aes.c ****                     AES_RT1( FSb[ ( *SK >>  8 ) & 0xFF ] ) ^
 1059              		.loc 1 702 0 discriminator 3
 1060 00ba 0430     		adds	r0, r0, #4
 1061              	.LVL97:
 1062 00bc 00E0     		b	.L55
 1063              	.LVL98:
 1064              	.L56:
 1065 00be 0021     		movs	r1, #0
 1066              	.LVL99:
 1067              	.L55:
 700:Source\mbedtls_open\library/aes.c ****         {
 1068              		.loc 1 700 0 discriminator 1
 1069 00c0 0329     		cmp	r1, #3
 1070 00c2 CCDD     		ble	.L54
 698:Source\mbedtls_open\library/aes.c ****     {
 1071              		.loc 1 698 0 discriminator 2
 1072 00c4 0123     		movs	r3, #1
 1073 00c6 5B42     		rsbs	r3, r3, #0
 1074 00c8 9846     		mov	r8, r3
 1075 00ca C444     		add	ip, ip, r8
 1076              	.LVL100:
 1077 00cc 1F3B     		subs	r3, r3, #31
 1078 00ce 9846     		mov	r8, r3
 1079 00d0 C344     		add	fp, fp, r8
 1080              	.LVL101:
 1081              	.L53:
 698:Source\mbedtls_open\library/aes.c ****     {
 1082              		.loc 1 698 0 is_stmt 0 discriminator 1
 1083 00d2 6346     		mov	r3, ip
 1084 00d4 002B     		cmp	r3, #0
 1085 00d6 F2DC     		bgt	.L56
 1086              	.LVL102:
 706:Source\mbedtls_open\library/aes.c ****         }
 707:Source\mbedtls_open\library/aes.c ****     }
 708:Source\mbedtls_open\library/aes.c **** 
 709:Source\mbedtls_open\library/aes.c ****     *RK++ = *SK++;
 1087              		.loc 1 709 0 is_stmt 1
 1088 00d8 5B46     		mov	r3, fp
 1089              	.LVL103:
 1090 00da 1B68     		ldr	r3, [r3]
 1091 00dc 0360     		str	r3, [r0]
ARM GAS  C:\Users\Phuong\AppData\Local\Temp\ccyLHZOj.s 			page 34


 1092              	.LVL104:
 710:Source\mbedtls_open\library/aes.c ****     *RK++ = *SK++;
 1093              		.loc 1 710 0
 1094 00de 5B46     		mov	r3, fp
 1095 00e0 5B68     		ldr	r3, [r3, #4]
 1096 00e2 4360     		str	r3, [r0, #4]
 1097              	.LVL105:
 711:Source\mbedtls_open\library/aes.c ****     *RK++ = *SK++;
 1098              		.loc 1 711 0
 1099 00e4 5B46     		mov	r3, fp
 1100 00e6 9B68     		ldr	r3, [r3, #8]
 1101 00e8 8360     		str	r3, [r0, #8]
 1102              	.LVL106:
 712:Source\mbedtls_open\library/aes.c ****     *RK++ = *SK++;
 1103              		.loc 1 712 0
 1104 00ea 5B46     		mov	r3, fp
 1105 00ec DB68     		ldr	r3, [r3, #12]
 1106 00ee C360     		str	r3, [r0, #12]
 1107              	.LVL107:
 1108              	.L52:
 713:Source\mbedtls_open\library/aes.c **** 
 714:Source\mbedtls_open\library/aes.c **** exit:
 715:Source\mbedtls_open\library/aes.c ****     mbedtls_aes_free( &cty );
 1109              		.loc 1 715 0
 1110 00f0 02A8     		add	r0, sp, #8
 1111 00f2 FFF7FEFF 		bl	mbedtls_aes_free
 1112              	.LVL108:
 716:Source\mbedtls_open\library/aes.c **** 
 717:Source\mbedtls_open\library/aes.c ****     return( ret );
 718:Source\mbedtls_open\library/aes.c **** }
 1113              		.loc 1 718 0
 1114 00f6 0198     		ldr	r0, [sp, #4]
 1115 00f8 49B0     		add	sp, sp, #292
 1116              		@ sp needed
 1117 00fa 3CBC     		pop	{r2, r3, r4, r5}
 1118 00fc 9046     		mov	r8, r2
 1119 00fe 9946     		mov	r9, r3
 1120 0100 A246     		mov	r10, r4
 1121 0102 AB46     		mov	fp, r5
 1122 0104 F0BD     		pop	{r4, r5, r6, r7, pc}
 1123              	.L58:
 1124 0106 C046     		.align	2
 1125              	.L57:
 1126 0108 00000000 		.word	.LANCHOR0
 1127 010c 00120000 		.word	.LANCHOR6
 1128 0110 00160000 		.word	.LANCHOR7
 1129 0114 001A0000 		.word	.LANCHOR8
 1130 0118 001E0000 		.word	.LANCHOR9
 1131              		.cfi_endproc
 1132              	.LFE5:
 1133              		.size	mbedtls_aes_setkey_dec, .-mbedtls_aes_setkey_dec
 1134              		.section	.text.mbedtls_internal_aes_encrypt,"ax",%progbits
 1135              		.align	2
 1136              		.global	mbedtls_internal_aes_encrypt
 1137              		.code	16
 1138              		.thumb_func
 1139              		.type	mbedtls_internal_aes_encrypt, %function
ARM GAS  C:\Users\Phuong\AppData\Local\Temp\ccyLHZOj.s 			page 35


 1140              	mbedtls_internal_aes_encrypt:
 1141              	.LFB6:
 719:Source\mbedtls_open\library/aes.c **** 
 720:Source\mbedtls_open\library/aes.c **** #if defined(MBEDTLS_CIPHER_MODE_XTS)
 721:Source\mbedtls_open\library/aes.c **** static int mbedtls_aes_xts_decode_keys( const unsigned char *key,
 722:Source\mbedtls_open\library/aes.c ****                                         unsigned int keybits,
 723:Source\mbedtls_open\library/aes.c ****                                         const unsigned char **key1,
 724:Source\mbedtls_open\library/aes.c ****                                         unsigned int *key1bits,
 725:Source\mbedtls_open\library/aes.c ****                                         const unsigned char **key2,
 726:Source\mbedtls_open\library/aes.c ****                                         unsigned int *key2bits )
 727:Source\mbedtls_open\library/aes.c **** {
 728:Source\mbedtls_open\library/aes.c ****     const unsigned int half_keybits = keybits / 2;
 729:Source\mbedtls_open\library/aes.c ****     const unsigned int half_keybytes = half_keybits / 8;
 730:Source\mbedtls_open\library/aes.c **** 
 731:Source\mbedtls_open\library/aes.c ****     switch( keybits )
 732:Source\mbedtls_open\library/aes.c ****     {
 733:Source\mbedtls_open\library/aes.c ****         case 256: break;
 734:Source\mbedtls_open\library/aes.c ****         case 512: break;
 735:Source\mbedtls_open\library/aes.c ****         default : return( MBEDTLS_ERR_AES_INVALID_KEY_LENGTH );
 736:Source\mbedtls_open\library/aes.c ****     }
 737:Source\mbedtls_open\library/aes.c **** 
 738:Source\mbedtls_open\library/aes.c ****     *key1bits = half_keybits;
 739:Source\mbedtls_open\library/aes.c ****     *key2bits = half_keybits;
 740:Source\mbedtls_open\library/aes.c ****     *key1 = &key[0];
 741:Source\mbedtls_open\library/aes.c ****     *key2 = &key[half_keybytes];
 742:Source\mbedtls_open\library/aes.c **** 
 743:Source\mbedtls_open\library/aes.c ****     return 0;
 744:Source\mbedtls_open\library/aes.c **** }
 745:Source\mbedtls_open\library/aes.c **** 
 746:Source\mbedtls_open\library/aes.c **** int mbedtls_aes_xts_setkey_enc( mbedtls_aes_xts_context *ctx,
 747:Source\mbedtls_open\library/aes.c ****                                 const unsigned char *key,
 748:Source\mbedtls_open\library/aes.c ****                                 unsigned int keybits)
 749:Source\mbedtls_open\library/aes.c **** {
 750:Source\mbedtls_open\library/aes.c ****     int ret;
 751:Source\mbedtls_open\library/aes.c ****     const unsigned char *key1, *key2;
 752:Source\mbedtls_open\library/aes.c ****     unsigned int key1bits, key2bits;
 753:Source\mbedtls_open\library/aes.c **** 
 754:Source\mbedtls_open\library/aes.c ****     ret = mbedtls_aes_xts_decode_keys( key, keybits, &key1, &key1bits,
 755:Source\mbedtls_open\library/aes.c ****                                        &key2, &key2bits );
 756:Source\mbedtls_open\library/aes.c ****     if( ret != 0 )
 757:Source\mbedtls_open\library/aes.c ****         return( ret );
 758:Source\mbedtls_open\library/aes.c **** 
 759:Source\mbedtls_open\library/aes.c ****     /* Set the tweak key. Always set tweak key for the encryption mode. */
 760:Source\mbedtls_open\library/aes.c ****     ret = mbedtls_aes_setkey_enc( &ctx->tweak, key2, key2bits );
 761:Source\mbedtls_open\library/aes.c ****     if( ret != 0 )
 762:Source\mbedtls_open\library/aes.c ****         return( ret );
 763:Source\mbedtls_open\library/aes.c **** 
 764:Source\mbedtls_open\library/aes.c ****     /* Set crypt key for encryption. */
 765:Source\mbedtls_open\library/aes.c ****     return mbedtls_aes_setkey_enc( &ctx->crypt, key1, key1bits );
 766:Source\mbedtls_open\library/aes.c **** }
 767:Source\mbedtls_open\library/aes.c **** 
 768:Source\mbedtls_open\library/aes.c **** int mbedtls_aes_xts_setkey_dec( mbedtls_aes_xts_context *ctx,
 769:Source\mbedtls_open\library/aes.c ****                                 const unsigned char *key,
 770:Source\mbedtls_open\library/aes.c ****                                 unsigned int keybits)
 771:Source\mbedtls_open\library/aes.c **** {
 772:Source\mbedtls_open\library/aes.c ****     int ret;
 773:Source\mbedtls_open\library/aes.c ****     const unsigned char *key1, *key2;
ARM GAS  C:\Users\Phuong\AppData\Local\Temp\ccyLHZOj.s 			page 36


 774:Source\mbedtls_open\library/aes.c ****     unsigned int key1bits, key2bits;
 775:Source\mbedtls_open\library/aes.c **** 
 776:Source\mbedtls_open\library/aes.c ****     ret = mbedtls_aes_xts_decode_keys( key, keybits, &key1, &key1bits,
 777:Source\mbedtls_open\library/aes.c ****                                        &key2, &key2bits );
 778:Source\mbedtls_open\library/aes.c ****     if( ret != 0 )
 779:Source\mbedtls_open\library/aes.c ****         return( ret );
 780:Source\mbedtls_open\library/aes.c **** 
 781:Source\mbedtls_open\library/aes.c ****     /* Set the tweak key. Always set tweak key for encryption. */
 782:Source\mbedtls_open\library/aes.c ****     ret = mbedtls_aes_setkey_enc( &ctx->tweak, key2, key2bits );
 783:Source\mbedtls_open\library/aes.c ****     if( ret != 0 )
 784:Source\mbedtls_open\library/aes.c ****         return( ret );
 785:Source\mbedtls_open\library/aes.c **** 
 786:Source\mbedtls_open\library/aes.c ****     /* Set crypt key for decryption. */
 787:Source\mbedtls_open\library/aes.c ****     return mbedtls_aes_setkey_dec( &ctx->crypt, key1, key1bits );
 788:Source\mbedtls_open\library/aes.c **** }
 789:Source\mbedtls_open\library/aes.c **** #endif /* MBEDTLS_CIPHER_MODE_XTS */
 790:Source\mbedtls_open\library/aes.c **** 
 791:Source\mbedtls_open\library/aes.c **** #endif /* !MBEDTLS_AES_SETKEY_DEC_ALT */
 792:Source\mbedtls_open\library/aes.c **** 
 793:Source\mbedtls_open\library/aes.c **** #define AES_FROUND(X0,X1,X2,X3,Y0,Y1,Y2,Y3)         \
 794:Source\mbedtls_open\library/aes.c **** {                                                   \
 795:Source\mbedtls_open\library/aes.c ****     X0 = *RK++ ^ AES_FT0( ( Y0       ) & 0xFF ) ^   \
 796:Source\mbedtls_open\library/aes.c ****                  AES_FT1( ( Y1 >>  8 ) & 0xFF ) ^   \
 797:Source\mbedtls_open\library/aes.c ****                  AES_FT2( ( Y2 >> 16 ) & 0xFF ) ^   \
 798:Source\mbedtls_open\library/aes.c ****                  AES_FT3( ( Y3 >> 24 ) & 0xFF );    \
 799:Source\mbedtls_open\library/aes.c ****                                                     \
 800:Source\mbedtls_open\library/aes.c ****     X1 = *RK++ ^ AES_FT0( ( Y1       ) & 0xFF ) ^   \
 801:Source\mbedtls_open\library/aes.c ****                  AES_FT1( ( Y2 >>  8 ) & 0xFF ) ^   \
 802:Source\mbedtls_open\library/aes.c ****                  AES_FT2( ( Y3 >> 16 ) & 0xFF ) ^   \
 803:Source\mbedtls_open\library/aes.c ****                  AES_FT3( ( Y0 >> 24 ) & 0xFF );    \
 804:Source\mbedtls_open\library/aes.c ****                                                     \
 805:Source\mbedtls_open\library/aes.c ****     X2 = *RK++ ^ AES_FT0( ( Y2       ) & 0xFF ) ^   \
 806:Source\mbedtls_open\library/aes.c ****                  AES_FT1( ( Y3 >>  8 ) & 0xFF ) ^   \
 807:Source\mbedtls_open\library/aes.c ****                  AES_FT2( ( Y0 >> 16 ) & 0xFF ) ^   \
 808:Source\mbedtls_open\library/aes.c ****                  AES_FT3( ( Y1 >> 24 ) & 0xFF );    \
 809:Source\mbedtls_open\library/aes.c ****                                                     \
 810:Source\mbedtls_open\library/aes.c ****     X3 = *RK++ ^ AES_FT0( ( Y3       ) & 0xFF ) ^   \
 811:Source\mbedtls_open\library/aes.c ****                  AES_FT1( ( Y0 >>  8 ) & 0xFF ) ^   \
 812:Source\mbedtls_open\library/aes.c ****                  AES_FT2( ( Y1 >> 16 ) & 0xFF ) ^   \
 813:Source\mbedtls_open\library/aes.c ****                  AES_FT3( ( Y2 >> 24 ) & 0xFF );    \
 814:Source\mbedtls_open\library/aes.c **** }
 815:Source\mbedtls_open\library/aes.c **** 
 816:Source\mbedtls_open\library/aes.c **** #define AES_RROUND(X0,X1,X2,X3,Y0,Y1,Y2,Y3)         \
 817:Source\mbedtls_open\library/aes.c **** {                                                   \
 818:Source\mbedtls_open\library/aes.c ****     X0 = *RK++ ^ AES_RT0( ( Y0       ) & 0xFF ) ^   \
 819:Source\mbedtls_open\library/aes.c ****                  AES_RT1( ( Y3 >>  8 ) & 0xFF ) ^   \
 820:Source\mbedtls_open\library/aes.c ****                  AES_RT2( ( Y2 >> 16 ) & 0xFF ) ^   \
 821:Source\mbedtls_open\library/aes.c ****                  AES_RT3( ( Y1 >> 24 ) & 0xFF );    \
 822:Source\mbedtls_open\library/aes.c ****                                                     \
 823:Source\mbedtls_open\library/aes.c ****     X1 = *RK++ ^ AES_RT0( ( Y1       ) & 0xFF ) ^   \
 824:Source\mbedtls_open\library/aes.c ****                  AES_RT1( ( Y0 >>  8 ) & 0xFF ) ^   \
 825:Source\mbedtls_open\library/aes.c ****                  AES_RT2( ( Y3 >> 16 ) & 0xFF ) ^   \
 826:Source\mbedtls_open\library/aes.c ****                  AES_RT3( ( Y2 >> 24 ) & 0xFF );    \
 827:Source\mbedtls_open\library/aes.c ****                                                     \
 828:Source\mbedtls_open\library/aes.c ****     X2 = *RK++ ^ AES_RT0( ( Y2       ) & 0xFF ) ^   \
 829:Source\mbedtls_open\library/aes.c ****                  AES_RT1( ( Y1 >>  8 ) & 0xFF ) ^   \
 830:Source\mbedtls_open\library/aes.c ****                  AES_RT2( ( Y0 >> 16 ) & 0xFF ) ^   \
ARM GAS  C:\Users\Phuong\AppData\Local\Temp\ccyLHZOj.s 			page 37


 831:Source\mbedtls_open\library/aes.c ****                  AES_RT3( ( Y3 >> 24 ) & 0xFF );    \
 832:Source\mbedtls_open\library/aes.c ****                                                     \
 833:Source\mbedtls_open\library/aes.c ****     X3 = *RK++ ^ AES_RT0( ( Y3       ) & 0xFF ) ^   \
 834:Source\mbedtls_open\library/aes.c ****                  AES_RT1( ( Y2 >>  8 ) & 0xFF ) ^   \
 835:Source\mbedtls_open\library/aes.c ****                  AES_RT2( ( Y1 >> 16 ) & 0xFF ) ^   \
 836:Source\mbedtls_open\library/aes.c ****                  AES_RT3( ( Y0 >> 24 ) & 0xFF );    \
 837:Source\mbedtls_open\library/aes.c **** }
 838:Source\mbedtls_open\library/aes.c **** 
 839:Source\mbedtls_open\library/aes.c **** /*
 840:Source\mbedtls_open\library/aes.c ****  * AES-ECB block encryption
 841:Source\mbedtls_open\library/aes.c ****  */
 842:Source\mbedtls_open\library/aes.c **** #if !defined(MBEDTLS_AES_ENCRYPT_ALT)
 843:Source\mbedtls_open\library/aes.c **** int mbedtls_internal_aes_encrypt( mbedtls_aes_context *ctx,
 844:Source\mbedtls_open\library/aes.c ****                                   const unsigned char input[16],
 845:Source\mbedtls_open\library/aes.c ****                                   unsigned char output[16] )
 846:Source\mbedtls_open\library/aes.c **** {
 1142              		.loc 1 846 0
 1143              		.cfi_startproc
 1144              		@ args = 0, pretend = 0, frame = 24
 1145              		@ frame_needed = 0, uses_anonymous_args = 0
 1146              	.LVL109:
 1147 0000 F0B5     		push	{r4, r5, r6, r7, lr}
 1148              		.cfi_def_cfa_offset 20
 1149              		.cfi_offset 4, -20
 1150              		.cfi_offset 5, -16
 1151              		.cfi_offset 6, -12
 1152              		.cfi_offset 7, -8
 1153              		.cfi_offset 14, -4
 1154 0002 5F46     		mov	r7, fp
 1155 0004 5646     		mov	r6, r10
 1156 0006 4D46     		mov	r5, r9
 1157 0008 4446     		mov	r4, r8
 1158 000a F0B4     		push	{r4, r5, r6, r7}
 1159              		.cfi_def_cfa_offset 36
 1160              		.cfi_offset 8, -36
 1161              		.cfi_offset 9, -32
 1162              		.cfi_offset 10, -28
 1163              		.cfi_offset 11, -24
 1164 000c 87B0     		sub	sp, sp, #28
 1165              		.cfi_def_cfa_offset 64
 1166 000e 0592     		str	r2, [sp, #20]
 847:Source\mbedtls_open\library/aes.c ****     int i;
 848:Source\mbedtls_open\library/aes.c ****     uint32_t *RK, X0, X1, X2, X3, Y0, Y1, Y2, Y3;
 849:Source\mbedtls_open\library/aes.c **** 
 850:Source\mbedtls_open\library/aes.c ****     RK = ctx->rk;
 1167              		.loc 1 850 0
 1168 0010 4268     		ldr	r2, [r0, #4]
 1169              	.LVL110:
 851:Source\mbedtls_open\library/aes.c **** 
 852:Source\mbedtls_open\library/aes.c ****     GET_UINT32_LE( X0, input,  0 ); X0 ^= *RK++;
 1170              		.loc 1 852 0
 1171 0012 0C78     		ldrb	r4, [r1]
 1172 0014 4B78     		ldrb	r3, [r1, #1]
 1173 0016 1B02     		lsls	r3, r3, #8
 1174 0018 2343     		orrs	r3, r4
 1175 001a 8C78     		ldrb	r4, [r1, #2]
 1176 001c 2404     		lsls	r4, r4, #16
ARM GAS  C:\Users\Phuong\AppData\Local\Temp\ccyLHZOj.s 			page 38


 1177 001e 2343     		orrs	r3, r4
 1178 0020 CC78     		ldrb	r4, [r1, #3]
 1179 0022 2406     		lsls	r4, r4, #24
 1180 0024 2343     		orrs	r3, r4
 1181              	.LVL111:
 1182 0026 1468     		ldr	r4, [r2]
 1183 0028 5C40     		eors	r4, r3
 1184 002a 0494     		str	r4, [sp, #16]
 1185              	.LVL112:
 853:Source\mbedtls_open\library/aes.c ****     GET_UINT32_LE( X1, input,  4 ); X1 ^= *RK++;
 1186              		.loc 1 853 0
 1187 002c 0B79     		ldrb	r3, [r1, #4]
 1188 002e 4C79     		ldrb	r4, [r1, #5]
 1189              	.LVL113:
 1190 0030 2402     		lsls	r4, r4, #8
 1191 0032 1C43     		orrs	r4, r3
 1192 0034 8B79     		ldrb	r3, [r1, #6]
 1193 0036 1B04     		lsls	r3, r3, #16
 1194 0038 1C43     		orrs	r4, r3
 1195 003a CB79     		ldrb	r3, [r1, #7]
 1196 003c 1B06     		lsls	r3, r3, #24
 1197 003e 1C43     		orrs	r4, r3
 1198              	.LVL114:
 1199 0040 5368     		ldr	r3, [r2, #4]
 1200 0042 5C40     		eors	r4, r3
 1201              	.LVL115:
 854:Source\mbedtls_open\library/aes.c ****     GET_UINT32_LE( X2, input,  8 ); X2 ^= *RK++;
 1202              		.loc 1 854 0
 1203 0044 0B7A     		ldrb	r3, [r1, #8]
 1204 0046 4D7A     		ldrb	r5, [r1, #9]
 1205 0048 2D02     		lsls	r5, r5, #8
 1206 004a 1D43     		orrs	r5, r3
 1207 004c 8B7A     		ldrb	r3, [r1, #10]
 1208 004e 1B04     		lsls	r3, r3, #16
 1209 0050 1D43     		orrs	r5, r3
 1210 0052 CB7A     		ldrb	r3, [r1, #11]
 1211 0054 1B06     		lsls	r3, r3, #24
 1212 0056 1D43     		orrs	r5, r3
 1213              	.LVL116:
 1214 0058 9368     		ldr	r3, [r2, #8]
 1215 005a 5D40     		eors	r5, r3
 1216              	.LVL117:
 855:Source\mbedtls_open\library/aes.c ****     GET_UINT32_LE( X3, input, 12 ); X3 ^= *RK++;
 1217              		.loc 1 855 0
 1218 005c 0B7B     		ldrb	r3, [r1, #12]
 1219 005e 4E7B     		ldrb	r6, [r1, #13]
 1220 0060 3602     		lsls	r6, r6, #8
 1221 0062 1E43     		orrs	r6, r3
 1222 0064 8B7B     		ldrb	r3, [r1, #14]
 1223 0066 1B04     		lsls	r3, r3, #16
 1224 0068 1E43     		orrs	r6, r3
 1225 006a CB7B     		ldrb	r3, [r1, #15]
 1226 006c 1B06     		lsls	r3, r3, #24
 1227 006e 1E43     		orrs	r6, r3
 1228              	.LVL118:
 1229 0070 1023     		movs	r3, #16
 1230 0072 9B46     		mov	fp, r3
ARM GAS  C:\Users\Phuong\AppData\Local\Temp\ccyLHZOj.s 			page 39


 1231 0074 9344     		add	fp, fp, r2
 1232              	.LVL119:
 1233 0076 D368     		ldr	r3, [r2, #12]
 1234 0078 5E40     		eors	r6, r3
 1235              	.LVL120:
 856:Source\mbedtls_open\library/aes.c **** 
 857:Source\mbedtls_open\library/aes.c ****     for( i = ( ctx->nr >> 1 ) - 1; i > 0; i-- )
 1236              		.loc 1 857 0
 1237 007a 0368     		ldr	r3, [r0]
 1238 007c 5B10     		asrs	r3, r3, #1
 1239 007e 013B     		subs	r3, r3, #1
 1240 0080 0393     		str	r3, [sp, #12]
 1241              	.LVL121:
 1242 0082 5F46     		mov	r7, fp
 1243 0084 0194     		str	r4, [sp, #4]
 1244 0086 D8E0     		b	.L60
 1245              	.LVL122:
 1246              	.L61:
 858:Source\mbedtls_open\library/aes.c ****     {
 859:Source\mbedtls_open\library/aes.c ****         AES_FROUND( Y0, Y1, Y2, Y3, X0, X1, X2, X3 );
 1247              		.loc 1 859 0 discriminator 3
 1248 0088 FF23     		movs	r3, #255
 1249              	.LVL123:
 1250 008a 049C     		ldr	r4, [sp, #16]
 1251 008c 2200     		movs	r2, r4
 1252 008e 1A40     		ands	r2, r3
 1253 0090 F749     		ldr	r1, .L62
 1254 0092 8A46     		mov	r10, r1
 1255 0094 9200     		lsls	r2, r2, #2
 1256 0096 5244     		add	r2, r2, r10
 1257 0098 916A     		ldr	r1, [r2, #40]
 1258 009a 3A68     		ldr	r2, [r7]
 1259 009c 5140     		eors	r1, r2
 1260 009e 0198     		ldr	r0, [sp, #4]
 1261 00a0 020A     		lsrs	r2, r0, #8
 1262 00a2 1A40     		ands	r2, r3
 1263 00a4 F348     		ldr	r0, .L62+4
 1264 00a6 8146     		mov	r9, r0
 1265 00a8 9200     		lsls	r2, r2, #2
 1266 00aa 4A44     		add	r2, r2, r9
 1267 00ac 926A     		ldr	r2, [r2, #40]
 1268 00ae 5140     		eors	r1, r2
 1269 00b0 2A0C     		lsrs	r2, r5, #16
 1270 00b2 1A40     		ands	r2, r3
 1271 00b4 F048     		ldr	r0, .L62+8
 1272 00b6 8046     		mov	r8, r0
 1273 00b8 9200     		lsls	r2, r2, #2
 1274 00ba 4244     		add	r2, r2, r8
 1275 00bc 926A     		ldr	r2, [r2, #40]
 1276 00be 5140     		eors	r1, r2
 1277 00c0 320E     		lsrs	r2, r6, #24
 1278 00c2 EE48     		ldr	r0, .L62+12
 1279 00c4 8446     		mov	ip, r0
 1280 00c6 9200     		lsls	r2, r2, #2
 1281 00c8 6244     		add	r2, r2, ip
 1282 00ca 926A     		ldr	r2, [r2, #40]
 1283 00cc 5140     		eors	r1, r2
ARM GAS  C:\Users\Phuong\AppData\Local\Temp\ccyLHZOj.s 			page 40


 1284              	.LVL124:
 1285 00ce 1A00     		movs	r2, r3
 1286 00d0 0198     		ldr	r0, [sp, #4]
 1287 00d2 0240     		ands	r2, r0
 1288 00d4 9200     		lsls	r2, r2, #2
 1289 00d6 5244     		add	r2, r2, r10
 1290 00d8 926A     		ldr	r2, [r2, #40]
 1291 00da 7868     		ldr	r0, [r7, #4]
 1292 00dc 4240     		eors	r2, r0
 1293 00de 280A     		lsrs	r0, r5, #8
 1294 00e0 1840     		ands	r0, r3
 1295 00e2 8000     		lsls	r0, r0, #2
 1296 00e4 4844     		add	r0, r0, r9
 1297 00e6 806A     		ldr	r0, [r0, #40]
 1298 00e8 4240     		eors	r2, r0
 1299 00ea 300C     		lsrs	r0, r6, #16
 1300 00ec 1840     		ands	r0, r3
 1301 00ee 8000     		lsls	r0, r0, #2
 1302 00f0 4044     		add	r0, r0, r8
 1303 00f2 806A     		ldr	r0, [r0, #40]
 1304 00f4 4240     		eors	r2, r0
 1305 00f6 200E     		lsrs	r0, r4, #24
 1306 00f8 8000     		lsls	r0, r0, #2
 1307 00fa 6044     		add	r0, r0, ip
 1308 00fc 806A     		ldr	r0, [r0, #40]
 1309 00fe 4240     		eors	r2, r0
 1310 0100 0292     		str	r2, [sp, #8]
 1311              	.LVL125:
 1312 0102 1800     		movs	r0, r3
 1313 0104 2840     		ands	r0, r5
 1314 0106 8000     		lsls	r0, r0, #2
 1315 0108 5044     		add	r0, r0, r10
 1316 010a 806A     		ldr	r0, [r0, #40]
 1317 010c BA68     		ldr	r2, [r7, #8]
 1318              	.LVL126:
 1319 010e 4240     		eors	r2, r0
 1320 0110 300A     		lsrs	r0, r6, #8
 1321 0112 1840     		ands	r0, r3
 1322 0114 8000     		lsls	r0, r0, #2
 1323 0116 4844     		add	r0, r0, r9
 1324 0118 806A     		ldr	r0, [r0, #40]
 1325 011a 4240     		eors	r2, r0
 1326 011c 200C     		lsrs	r0, r4, #16
 1327 011e 1840     		ands	r0, r3
 1328 0120 8000     		lsls	r0, r0, #2
 1329 0122 4044     		add	r0, r0, r8
 1330 0124 806A     		ldr	r0, [r0, #40]
 1331 0126 4240     		eors	r2, r0
 1332 0128 0198     		ldr	r0, [sp, #4]
 1333 012a 000E     		lsrs	r0, r0, #24
 1334 012c 8000     		lsls	r0, r0, #2
 1335 012e 6044     		add	r0, r0, ip
 1336 0130 806A     		ldr	r0, [r0, #40]
 1337 0132 5040     		eors	r0, r2
 1338              	.LVL127:
 1339 0134 1E40     		ands	r6, r3
 1340              	.LVL128:
ARM GAS  C:\Users\Phuong\AppData\Local\Temp\ccyLHZOj.s 			page 41


 1341 0136 B600     		lsls	r6, r6, #2
 1342 0138 5644     		add	r6, r6, r10
 1343 013a B66A     		ldr	r6, [r6, #40]
 1344 013c FA68     		ldr	r2, [r7, #12]
 1345 013e 5640     		eors	r6, r2
 1346 0140 220A     		lsrs	r2, r4, #8
 1347 0142 1A40     		ands	r2, r3
 1348 0144 9200     		lsls	r2, r2, #2
 1349 0146 9346     		mov	fp, r2
 1350 0148 CB44     		add	fp, fp, r9
 1351 014a 5A46     		mov	r2, fp
 1352 014c 926A     		ldr	r2, [r2, #40]
 1353 014e 5640     		eors	r6, r2
 1354 0150 019C     		ldr	r4, [sp, #4]
 1355 0152 240C     		lsrs	r4, r4, #16
 1356 0154 1C40     		ands	r4, r3
 1357 0156 A400     		lsls	r4, r4, #2
 1358 0158 4444     		add	r4, r4, r8
 1359 015a A46A     		ldr	r4, [r4, #40]
 1360 015c 6640     		eors	r6, r4
 1361 015e 2D0E     		lsrs	r5, r5, #24
 1362              	.LVL129:
 1363 0160 AD00     		lsls	r5, r5, #2
 1364 0162 6544     		add	r5, r5, ip
 1365 0164 AC6A     		ldr	r4, [r5, #40]
 1366 0166 6640     		eors	r6, r4
 1367              	.LVL130:
 860:Source\mbedtls_open\library/aes.c ****         AES_FROUND( X0, X1, X2, X3, Y0, Y1, Y2, Y3 );
 1368              		.loc 1 860 0 discriminator 3
 1369 0168 1C00     		movs	r4, r3
 1370 016a 0C40     		ands	r4, r1
 1371 016c A400     		lsls	r4, r4, #2
 1372 016e 5444     		add	r4, r4, r10
 1373 0170 A56A     		ldr	r5, [r4, #40]
 1374 0172 3A69     		ldr	r2, [r7, #16]
 1375 0174 5540     		eors	r5, r2
 1376 0176 029A     		ldr	r2, [sp, #8]
 1377 0178 140A     		lsrs	r4, r2, #8
 1378 017a 1C40     		ands	r4, r3
 1379 017c A400     		lsls	r4, r4, #2
 1380 017e 4C44     		add	r4, r4, r9
 1381 0180 A46A     		ldr	r4, [r4, #40]
 1382 0182 6540     		eors	r5, r4
 1383 0184 040C     		lsrs	r4, r0, #16
 1384 0186 1C40     		ands	r4, r3
 1385 0188 A400     		lsls	r4, r4, #2
 1386 018a 4444     		add	r4, r4, r8
 1387 018c A46A     		ldr	r4, [r4, #40]
 1388 018e 6540     		eors	r5, r4
 1389 0190 340E     		lsrs	r4, r6, #24
 1390 0192 A400     		lsls	r4, r4, #2
 1391 0194 6444     		add	r4, r4, ip
 1392 0196 A46A     		ldr	r4, [r4, #40]
 1393 0198 6540     		eors	r5, r4
 1394 019a 0495     		str	r5, [sp, #16]
 1395              	.LVL131:
 1396 019c 1C00     		movs	r4, r3
ARM GAS  C:\Users\Phuong\AppData\Local\Temp\ccyLHZOj.s 			page 42


 1397 019e 1440     		ands	r4, r2
 1398 01a0 A400     		lsls	r4, r4, #2
 1399 01a2 5444     		add	r4, r4, r10
 1400 01a4 A46A     		ldr	r4, [r4, #40]
 1401 01a6 7A69     		ldr	r2, [r7, #20]
 1402 01a8 5440     		eors	r4, r2
 1403 01aa 050A     		lsrs	r5, r0, #8
 1404              	.LVL132:
 1405 01ac 1D40     		ands	r5, r3
 1406 01ae AD00     		lsls	r5, r5, #2
 1407 01b0 4D44     		add	r5, r5, r9
 1408 01b2 AD6A     		ldr	r5, [r5, #40]
 1409 01b4 6C40     		eors	r4, r5
 1410 01b6 350C     		lsrs	r5, r6, #16
 1411 01b8 1D40     		ands	r5, r3
 1412 01ba AD00     		lsls	r5, r5, #2
 1413 01bc 4544     		add	r5, r5, r8
 1414 01be AD6A     		ldr	r5, [r5, #40]
 1415 01c0 6C40     		eors	r4, r5
 1416 01c2 0D0E     		lsrs	r5, r1, #24
 1417 01c4 AD00     		lsls	r5, r5, #2
 1418 01c6 6544     		add	r5, r5, ip
 1419 01c8 AD6A     		ldr	r5, [r5, #40]
 1420 01ca 6C40     		eors	r4, r5
 1421 01cc 0194     		str	r4, [sp, #4]
 1422              	.LVL133:
 1423 01ce 1D00     		movs	r5, r3
 1424 01d0 0540     		ands	r5, r0
 1425 01d2 AD00     		lsls	r5, r5, #2
 1426 01d4 5544     		add	r5, r5, r10
 1427 01d6 AD6A     		ldr	r5, [r5, #40]
 1428 01d8 BA69     		ldr	r2, [r7, #24]
 1429 01da 6A40     		eors	r2, r5
 1430 01dc 350A     		lsrs	r5, r6, #8
 1431 01de 1D40     		ands	r5, r3
 1432 01e0 AD00     		lsls	r5, r5, #2
 1433 01e2 4D44     		add	r5, r5, r9
 1434 01e4 AD6A     		ldr	r5, [r5, #40]
 1435 01e6 6A40     		eors	r2, r5
 1436 01e8 0D0C     		lsrs	r5, r1, #16
 1437 01ea 1D40     		ands	r5, r3
 1438 01ec AD00     		lsls	r5, r5, #2
 1439 01ee 4544     		add	r5, r5, r8
 1440 01f0 AD6A     		ldr	r5, [r5, #40]
 1441 01f2 6A40     		eors	r2, r5
 1442 01f4 9346     		mov	fp, r2
 1443 01f6 029C     		ldr	r4, [sp, #8]
 1444              	.LVL134:
 1445 01f8 250E     		lsrs	r5, r4, #24
 1446 01fa AD00     		lsls	r5, r5, #2
 1447 01fc 6544     		add	r5, r5, ip
 1448 01fe AD6A     		ldr	r5, [r5, #40]
 1449 0200 5A46     		mov	r2, fp
 1450 0202 5540     		eors	r5, r2
 1451              	.LVL135:
 1452 0204 1E40     		ands	r6, r3
 1453              	.LVL136:
ARM GAS  C:\Users\Phuong\AppData\Local\Temp\ccyLHZOj.s 			page 43


 1454 0206 B600     		lsls	r6, r6, #2
 1455 0208 5644     		add	r6, r6, r10
 1456 020a B66A     		ldr	r6, [r6, #40]
 1457 020c FA69     		ldr	r2, [r7, #28]
 1458 020e 5640     		eors	r6, r2
 1459 0210 090A     		lsrs	r1, r1, #8
 1460              	.LVL137:
 1461 0212 1940     		ands	r1, r3
 1462 0214 8900     		lsls	r1, r1, #2
 1463 0216 4944     		add	r1, r1, r9
 1464 0218 896A     		ldr	r1, [r1, #40]
 1465 021a 4E40     		eors	r6, r1
 1466 021c 220C     		lsrs	r2, r4, #16
 1467 021e 1340     		ands	r3, r2
 1468 0220 9B00     		lsls	r3, r3, #2
 1469 0222 4344     		add	r3, r3, r8
 1470 0224 9B6A     		ldr	r3, [r3, #40]
 1471 0226 5E40     		eors	r6, r3
 1472 0228 000E     		lsrs	r0, r0, #24
 1473              	.LVL138:
 1474 022a 8000     		lsls	r0, r0, #2
 1475 022c 6044     		add	r0, r0, ip
 1476 022e 836A     		ldr	r3, [r0, #40]
 1477 0230 5E40     		eors	r6, r3
 1478              	.LVL139:
 857:Source\mbedtls_open\library/aes.c ****     {
 1479              		.loc 1 857 0 discriminator 3
 1480 0232 039B     		ldr	r3, [sp, #12]
 1481 0234 013B     		subs	r3, r3, #1
 1482 0236 0393     		str	r3, [sp, #12]
 1483              	.LVL140:
 1484              		.loc 1 860 0 discriminator 3
 1485 0238 2037     		adds	r7, r7, #32
 1486              	.LVL141:
 1487              	.L60:
 857:Source\mbedtls_open\library/aes.c ****     {
 1488              		.loc 1 857 0 discriminator 1
 1489 023a 039B     		ldr	r3, [sp, #12]
 1490 023c 002B     		cmp	r3, #0
 1491 023e 00DD     		ble	.LCB1587
 1492 0240 22E7     		b	.L61	@long jump
 1493              	.LCB1587:
 1494 0242 BB46     		mov	fp, r7
 1495 0244 019C     		ldr	r4, [sp, #4]
 1496              	.LVL142:
 861:Source\mbedtls_open\library/aes.c ****     }
 862:Source\mbedtls_open\library/aes.c **** 
 863:Source\mbedtls_open\library/aes.c ****     AES_FROUND( Y0, Y1, Y2, Y3, X0, X1, X2, X3 );
 1497              		.loc 1 863 0
 1498 0246 FF23     		movs	r3, #255
 1499 0248 0498     		ldr	r0, [sp, #16]
 1500 024a 0200     		movs	r2, r0
 1501 024c 1A40     		ands	r2, r3
 1502 024e 8849     		ldr	r1, .L62
 1503 0250 8946     		mov	r9, r1
 1504 0252 9200     		lsls	r2, r2, #2
 1505 0254 4A44     		add	r2, r2, r9
ARM GAS  C:\Users\Phuong\AppData\Local\Temp\ccyLHZOj.s 			page 44


 1506 0256 916A     		ldr	r1, [r2, #40]
 1507 0258 3A68     		ldr	r2, [r7]
 1508 025a 5140     		eors	r1, r2
 1509 025c 220A     		lsrs	r2, r4, #8
 1510 025e 1A40     		ands	r2, r3
 1511 0260 844F     		ldr	r7, .L62+4
 1512              	.LVL143:
 1513 0262 B846     		mov	r8, r7
 1514 0264 9200     		lsls	r2, r2, #2
 1515 0266 4244     		add	r2, r2, r8
 1516 0268 926A     		ldr	r2, [r2, #40]
 1517 026a 5140     		eors	r1, r2
 1518 026c 2A0C     		lsrs	r2, r5, #16
 1519 026e 1A40     		ands	r2, r3
 1520 0270 814F     		ldr	r7, .L62+8
 1521 0272 BC46     		mov	ip, r7
 1522 0274 9200     		lsls	r2, r2, #2
 1523 0276 6244     		add	r2, r2, ip
 1524 0278 926A     		ldr	r2, [r2, #40]
 1525 027a 5140     		eors	r1, r2
 1526 027c 320E     		lsrs	r2, r6, #24
 1527 027e 7F4F     		ldr	r7, .L62+12
 1528 0280 9200     		lsls	r2, r2, #2
 1529 0282 BA18     		adds	r2, r7, r2
 1530 0284 926A     		ldr	r2, [r2, #40]
 1531 0286 5140     		eors	r1, r2
 1532 0288 8A46     		mov	r10, r1
 1533              	.LVL144:
 1534 028a 1A00     		movs	r2, r3
 1535 028c 2240     		ands	r2, r4
 1536 028e 9200     		lsls	r2, r2, #2
 1537 0290 4A44     		add	r2, r2, r9
 1538 0292 926A     		ldr	r2, [r2, #40]
 1539 0294 5946     		mov	r1, fp
 1540              	.LVL145:
 1541 0296 4968     		ldr	r1, [r1, #4]
 1542 0298 4A40     		eors	r2, r1
 1543 029a 290A     		lsrs	r1, r5, #8
 1544 029c 1940     		ands	r1, r3
 1545 029e 8900     		lsls	r1, r1, #2
 1546 02a0 4144     		add	r1, r1, r8
 1547 02a2 896A     		ldr	r1, [r1, #40]
 1548 02a4 4A40     		eors	r2, r1
 1549 02a6 310C     		lsrs	r1, r6, #16
 1550 02a8 1940     		ands	r1, r3
 1551 02aa 8900     		lsls	r1, r1, #2
 1552 02ac 6144     		add	r1, r1, ip
 1553 02ae 896A     		ldr	r1, [r1, #40]
 1554 02b0 4A40     		eors	r2, r1
 1555 02b2 010E     		lsrs	r1, r0, #24
 1556 02b4 8900     		lsls	r1, r1, #2
 1557 02b6 7918     		adds	r1, r7, r1
 1558 02b8 896A     		ldr	r1, [r1, #40]
 1559 02ba 4A40     		eors	r2, r1
 1560 02bc 0192     		str	r2, [sp, #4]
 1561              	.LVL146:
 1562 02be 1900     		movs	r1, r3
ARM GAS  C:\Users\Phuong\AppData\Local\Temp\ccyLHZOj.s 			page 45


 1563 02c0 2940     		ands	r1, r5
 1564 02c2 8900     		lsls	r1, r1, #2
 1565 02c4 4944     		add	r1, r1, r9
 1566 02c6 896A     		ldr	r1, [r1, #40]
 1567 02c8 5A46     		mov	r2, fp
 1568              	.LVL147:
 1569 02ca 9268     		ldr	r2, [r2, #8]
 1570 02cc 5140     		eors	r1, r2
 1571 02ce 300A     		lsrs	r0, r6, #8
 1572 02d0 1840     		ands	r0, r3
 1573 02d2 8000     		lsls	r0, r0, #2
 1574 02d4 4044     		add	r0, r0, r8
 1575 02d6 806A     		ldr	r0, [r0, #40]
 1576 02d8 4140     		eors	r1, r0
 1577 02da 0498     		ldr	r0, [sp, #16]
 1578 02dc 000C     		lsrs	r0, r0, #16
 1579 02de 1840     		ands	r0, r3
 1580 02e0 8000     		lsls	r0, r0, #2
 1581 02e2 6044     		add	r0, r0, ip
 1582 02e4 806A     		ldr	r0, [r0, #40]
 1583 02e6 4840     		eors	r0, r1
 1584 02e8 210E     		lsrs	r1, r4, #24
 1585 02ea 8900     		lsls	r1, r1, #2
 1586 02ec 7918     		adds	r1, r7, r1
 1587 02ee 896A     		ldr	r1, [r1, #40]
 1588 02f0 4140     		eors	r1, r0
 1589              	.LVL148:
 1590 02f2 1E40     		ands	r6, r3
 1591              	.LVL149:
 1592 02f4 B600     		lsls	r6, r6, #2
 1593 02f6 4E44     		add	r6, r6, r9
 1594 02f8 B06A     		ldr	r0, [r6, #40]
 1595 02fa 5A46     		mov	r2, fp
 1596 02fc D268     		ldr	r2, [r2, #12]
 1597 02fe 5040     		eors	r0, r2
 1598 0300 049E     		ldr	r6, [sp, #16]
 1599 0302 360A     		lsrs	r6, r6, #8
 1600 0304 1E40     		ands	r6, r3
 1601 0306 B600     		lsls	r6, r6, #2
 1602 0308 4644     		add	r6, r6, r8
 1603 030a B66A     		ldr	r6, [r6, #40]
 1604 030c 7040     		eors	r0, r6
 1605 030e 240C     		lsrs	r4, r4, #16
 1606              	.LVL150:
 1607 0310 1C40     		ands	r4, r3
 1608 0312 A400     		lsls	r4, r4, #2
 1609 0314 6444     		add	r4, r4, ip
 1610 0316 A46A     		ldr	r4, [r4, #40]
 1611 0318 6040     		eors	r0, r4
 1612 031a 2D0E     		lsrs	r5, r5, #24
 1613              	.LVL151:
 1614 031c AD00     		lsls	r5, r5, #2
 1615 031e 7F19     		adds	r7, r7, r5
 1616 0320 BC6A     		ldr	r4, [r7, #40]
 1617 0322 6040     		eors	r0, r4
 1618 0324 8046     		mov	r8, r0
 1619              	.LVL152:
ARM GAS  C:\Users\Phuong\AppData\Local\Temp\ccyLHZOj.s 			page 46


 864:Source\mbedtls_open\library/aes.c **** 
 865:Source\mbedtls_open\library/aes.c ****     X0 = *RK++ ^ \
 866:Source\mbedtls_open\library/aes.c ****             ( (uint32_t) FSb[ ( Y0       ) & 0xFF ]       ) ^
 1620              		.loc 1 866 0
 1621 0326 5046     		mov	r0, r10
 1622              	.LVL153:
 1623 0328 1840     		ands	r0, r3
 1624 032a 554D     		ldr	r5, .L62+16
 1625 032c 2824     		movs	r4, #40
 1626 032e 2818     		adds	r0, r5, r0
 1627 0330 075D     		ldrb	r7, [r0, r4]
 865:Source\mbedtls_open\library/aes.c ****             ( (uint32_t) FSb[ ( Y0       ) & 0xFF ]       ) ^
 1628              		.loc 1 865 0
 1629 0332 5A46     		mov	r2, fp
 1630 0334 1069     		ldr	r0, [r2, #16]
 1631 0336 7840     		eors	r0, r7
 867:Source\mbedtls_open\library/aes.c ****             ( (uint32_t) FSb[ ( Y1 >>  8 ) & 0xFF ] <<  8 ) ^
 1632              		.loc 1 867 0
 1633 0338 019A     		ldr	r2, [sp, #4]
 1634 033a 160A     		lsrs	r6, r2, #8
 1635 033c 1E40     		ands	r6, r3
 1636 033e AE19     		adds	r6, r5, r6
 1637 0340 365D     		ldrb	r6, [r6, r4]
 1638 0342 3602     		lsls	r6, r6, #8
 866:Source\mbedtls_open\library/aes.c ****             ( (uint32_t) FSb[ ( Y1 >>  8 ) & 0xFF ] <<  8 ) ^
 1639              		.loc 1 866 0
 1640 0344 7040     		eors	r0, r6
 1641 0346 0700     		movs	r7, r0
 868:Source\mbedtls_open\library/aes.c ****             ( (uint32_t) FSb[ ( Y2 >> 16 ) & 0xFF ] << 16 ) ^
 1642              		.loc 1 868 0
 1643 0348 0E0C     		lsrs	r6, r1, #16
 1644 034a 1E40     		ands	r6, r3
 1645 034c AE19     		adds	r6, r5, r6
 1646 034e 305D     		ldrb	r0, [r6, r4]
 1647 0350 0004     		lsls	r0, r0, #16
 867:Source\mbedtls_open\library/aes.c ****             ( (uint32_t) FSb[ ( Y1 >>  8 ) & 0xFF ] <<  8 ) ^
 1648              		.loc 1 867 0
 1649 0352 3E00     		movs	r6, r7
 1650 0354 4640     		eors	r6, r0
 869:Source\mbedtls_open\library/aes.c ****             ( (uint32_t) FSb[ ( Y3 >> 24 ) & 0xFF ] << 24 );
 1651              		.loc 1 869 0
 1652 0356 4246     		mov	r2, r8
 1653 0358 100E     		lsrs	r0, r2, #24
 1654 035a 2818     		adds	r0, r5, r0
 1655 035c 005D     		ldrb	r0, [r0, r4]
 1656 035e 0006     		lsls	r0, r0, #24
 865:Source\mbedtls_open\library/aes.c ****             ( (uint32_t) FSb[ ( Y0       ) & 0xFF ]       ) ^
 1657              		.loc 1 865 0
 1658 0360 7040     		eors	r0, r6
 1659              	.LVL154:
 870:Source\mbedtls_open\library/aes.c **** 
 871:Source\mbedtls_open\library/aes.c ****     X1 = *RK++ ^ \
 872:Source\mbedtls_open\library/aes.c ****             ( (uint32_t) FSb[ ( Y1       ) & 0xFF ]       ) ^
 1660              		.loc 1 872 0
 1661 0362 1E00     		movs	r6, r3
 1662 0364 019A     		ldr	r2, [sp, #4]
 1663 0366 1640     		ands	r6, r2
ARM GAS  C:\Users\Phuong\AppData\Local\Temp\ccyLHZOj.s 			page 47


 1664 0368 AE19     		adds	r6, r5, r6
 1665 036a 365D     		ldrb	r6, [r6, r4]
 871:Source\mbedtls_open\library/aes.c ****             ( (uint32_t) FSb[ ( Y1       ) & 0xFF ]       ) ^
 1666              		.loc 1 871 0
 1667 036c 5A46     		mov	r2, fp
 1668 036e 5269     		ldr	r2, [r2, #20]
 1669 0370 5640     		eors	r6, r2
 873:Source\mbedtls_open\library/aes.c ****             ( (uint32_t) FSb[ ( Y2 >>  8 ) & 0xFF ] <<  8 ) ^
 1670              		.loc 1 873 0
 1671 0372 0F0A     		lsrs	r7, r1, #8
 1672 0374 1F40     		ands	r7, r3
 1673 0376 EF19     		adds	r7, r5, r7
 1674 0378 3F5D     		ldrb	r7, [r7, r4]
 1675 037a 3F02     		lsls	r7, r7, #8
 872:Source\mbedtls_open\library/aes.c ****             ( (uint32_t) FSb[ ( Y2 >>  8 ) & 0xFF ] <<  8 ) ^
 1676              		.loc 1 872 0
 1677 037c 7E40     		eors	r6, r7
 874:Source\mbedtls_open\library/aes.c ****             ( (uint32_t) FSb[ ( Y3 >> 16 ) & 0xFF ] << 16 ) ^
 1678              		.loc 1 874 0
 1679 037e 4246     		mov	r2, r8
 1680 0380 170C     		lsrs	r7, r2, #16
 1681 0382 1F40     		ands	r7, r3
 1682 0384 EF19     		adds	r7, r5, r7
 1683 0386 3F5D     		ldrb	r7, [r7, r4]
 1684 0388 3F04     		lsls	r7, r7, #16
 873:Source\mbedtls_open\library/aes.c ****             ( (uint32_t) FSb[ ( Y2 >>  8 ) & 0xFF ] <<  8 ) ^
 1685              		.loc 1 873 0
 1686 038a 7E40     		eors	r6, r7
 875:Source\mbedtls_open\library/aes.c ****             ( (uint32_t) FSb[ ( Y0 >> 24 ) & 0xFF ] << 24 );
 1687              		.loc 1 875 0
 1688 038c 5246     		mov	r2, r10
 1689 038e 170E     		lsrs	r7, r2, #24
 1690 0390 EF19     		adds	r7, r5, r7
 1691 0392 3F5D     		ldrb	r7, [r7, r4]
 1692 0394 3F06     		lsls	r7, r7, #24
 871:Source\mbedtls_open\library/aes.c ****             ( (uint32_t) FSb[ ( Y1       ) & 0xFF ]       ) ^
 1693              		.loc 1 871 0
 1694 0396 7740     		eors	r7, r6
 1695              	.LVL155:
 876:Source\mbedtls_open\library/aes.c **** 
 877:Source\mbedtls_open\library/aes.c ****     X2 = *RK++ ^ \
 878:Source\mbedtls_open\library/aes.c ****             ( (uint32_t) FSb[ ( Y2       ) & 0xFF ]       ) ^
 1696              		.loc 1 878 0
 1697 0398 1E00     		movs	r6, r3
 1698 039a 0291     		str	r1, [sp, #8]
 1699 039c 0E40     		ands	r6, r1
 1700 039e AE19     		adds	r6, r5, r6
 1701 03a0 365D     		ldrb	r6, [r6, r4]
 877:Source\mbedtls_open\library/aes.c ****             ( (uint32_t) FSb[ ( Y2       ) & 0xFF ]       ) ^
 1702              		.loc 1 877 0
 1703 03a2 5A46     		mov	r2, fp
 1704 03a4 9269     		ldr	r2, [r2, #24]
 1705 03a6 7240     		eors	r2, r6
 1706 03a8 9446     		mov	ip, r2
 879:Source\mbedtls_open\library/aes.c ****             ( (uint32_t) FSb[ ( Y3 >>  8 ) & 0xFF ] <<  8 ) ^
 1707              		.loc 1 879 0
 1708 03aa 4246     		mov	r2, r8
ARM GAS  C:\Users\Phuong\AppData\Local\Temp\ccyLHZOj.s 			page 48


 1709 03ac 160A     		lsrs	r6, r2, #8
 1710 03ae 1E40     		ands	r6, r3
 1711 03b0 AE19     		adds	r6, r5, r6
 1712 03b2 365D     		ldrb	r6, [r6, r4]
 1713 03b4 3602     		lsls	r6, r6, #8
 878:Source\mbedtls_open\library/aes.c ****             ( (uint32_t) FSb[ ( Y3 >>  8 ) & 0xFF ] <<  8 ) ^
 1714              		.loc 1 878 0
 1715 03b6 6246     		mov	r2, ip
 1716 03b8 5640     		eors	r6, r2
 880:Source\mbedtls_open\library/aes.c ****             ( (uint32_t) FSb[ ( Y0 >> 16 ) & 0xFF ] << 16 ) ^
 1717              		.loc 1 880 0
 1718 03ba 5246     		mov	r2, r10
 1719 03bc 120C     		lsrs	r2, r2, #16
 1720 03be 1A40     		ands	r2, r3
 1721 03c0 9446     		mov	ip, r2
 1722 03c2 AC44     		add	ip, ip, r5
 1723 03c4 6246     		mov	r2, ip
 1724 03c6 125D     		ldrb	r2, [r2, r4]
 1725 03c8 1204     		lsls	r2, r2, #16
 879:Source\mbedtls_open\library/aes.c ****             ( (uint32_t) FSb[ ( Y3 >>  8 ) & 0xFF ] <<  8 ) ^
 1726              		.loc 1 879 0
 1727 03ca 5640     		eors	r6, r2
 881:Source\mbedtls_open\library/aes.c ****             ( (uint32_t) FSb[ ( Y1 >> 24 ) & 0xFF ] << 24 );
 1728              		.loc 1 881 0
 1729 03cc 0199     		ldr	r1, [sp, #4]
 1730              	.LVL156:
 1731 03ce 0A0E     		lsrs	r2, r1, #24
 1732 03d0 9446     		mov	ip, r2
 1733 03d2 AC44     		add	ip, ip, r5
 1734 03d4 6246     		mov	r2, ip
 1735 03d6 125D     		ldrb	r2, [r2, r4]
 1736 03d8 1206     		lsls	r2, r2, #24
 877:Source\mbedtls_open\library/aes.c ****             ( (uint32_t) FSb[ ( Y2       ) & 0xFF ]       ) ^
 1737              		.loc 1 877 0
 1738 03da 5640     		eors	r6, r2
 1739              	.LVL157:
 882:Source\mbedtls_open\library/aes.c **** 
 883:Source\mbedtls_open\library/aes.c ****     X3 = *RK++ ^ \
 1740              		.loc 1 883 0
 1741 03dc 5A46     		mov	r2, fp
 1742 03de D269     		ldr	r2, [r2, #28]
 1743 03e0 9446     		mov	ip, r2
 884:Source\mbedtls_open\library/aes.c ****             ( (uint32_t) FSb[ ( Y3       ) & 0xFF ]       ) ^
 1744              		.loc 1 884 0
 1745 03e2 4246     		mov	r2, r8
 1746 03e4 1A40     		ands	r2, r3
 1747 03e6 9046     		mov	r8, r2
 1748              	.LVL158:
 1749 03e8 A844     		add	r8, r8, r5
 1750 03ea 4246     		mov	r2, r8
 1751 03ec 125D     		ldrb	r2, [r2, r4]
 1752 03ee 9046     		mov	r8, r2
 883:Source\mbedtls_open\library/aes.c ****             ( (uint32_t) FSb[ ( Y3       ) & 0xFF ]       ) ^
 1753              		.loc 1 883 0
 1754 03f0 6246     		mov	r2, ip
 1755 03f2 4146     		mov	r1, r8
 1756 03f4 4A40     		eors	r2, r1
ARM GAS  C:\Users\Phuong\AppData\Local\Temp\ccyLHZOj.s 			page 49


 1757 03f6 9446     		mov	ip, r2
 885:Source\mbedtls_open\library/aes.c ****             ( (uint32_t) FSb[ ( Y0 >>  8 ) & 0xFF ] <<  8 ) ^
 1758              		.loc 1 885 0
 1759 03f8 5246     		mov	r2, r10
 1760 03fa 120A     		lsrs	r2, r2, #8
 1761 03fc 1A40     		ands	r2, r3
 1762 03fe 9246     		mov	r10, r2
 1763              	.LVL159:
 1764 0400 AA44     		add	r10, r10, r5
 1765 0402 5246     		mov	r2, r10
 1766 0404 125D     		ldrb	r2, [r2, r4]
 1767 0406 1202     		lsls	r2, r2, #8
 1768 0408 9046     		mov	r8, r2
 884:Source\mbedtls_open\library/aes.c ****             ( (uint32_t) FSb[ ( Y3       ) & 0xFF ]       ) ^
 1769              		.loc 1 884 0
 1770 040a 6246     		mov	r2, ip
 1771 040c 4146     		mov	r1, r8
 1772 040e 4A40     		eors	r2, r1
 1773 0410 9446     		mov	ip, r2
 886:Source\mbedtls_open\library/aes.c ****             ( (uint32_t) FSb[ ( Y1 >> 16 ) & 0xFF ] << 16 ) ^
 1774              		.loc 1 886 0
 1775 0412 0199     		ldr	r1, [sp, #4]
 1776 0414 0A0C     		lsrs	r2, r1, #16
 1777 0416 1A40     		ands	r2, r3
 1778 0418 AA18     		adds	r2, r5, r2
 1779 041a 135D     		ldrb	r3, [r2, r4]
 1780 041c 1B04     		lsls	r3, r3, #16
 885:Source\mbedtls_open\library/aes.c ****             ( (uint32_t) FSb[ ( Y0 >>  8 ) & 0xFF ] <<  8 ) ^
 1781              		.loc 1 885 0
 1782 041e 6246     		mov	r2, ip
 1783 0420 5A40     		eors	r2, r3
 887:Source\mbedtls_open\library/aes.c ****             ( (uint32_t) FSb[ ( Y2 >> 24 ) & 0xFF ] << 24 );
 1784              		.loc 1 887 0
 1785 0422 029B     		ldr	r3, [sp, #8]
 1786 0424 190E     		lsrs	r1, r3, #24
 1787 0426 6D18     		adds	r5, r5, r1
 1788 0428 2B5D     		ldrb	r3, [r5, r4]
 1789 042a 1B06     		lsls	r3, r3, #24
 883:Source\mbedtls_open\library/aes.c ****             ( (uint32_t) FSb[ ( Y3       ) & 0xFF ]       ) ^
 1790              		.loc 1 883 0
 1791 042c 5340     		eors	r3, r2
 1792              	.LVL160:
 888:Source\mbedtls_open\library/aes.c **** 
 889:Source\mbedtls_open\library/aes.c ****     PUT_UINT32_LE( X0, output,  0 );
 1793              		.loc 1 889 0
 1794 042e 0599     		ldr	r1, [sp, #20]
 1795 0430 0870     		strb	r0, [r1]
 1796 0432 020A     		lsrs	r2, r0, #8
 1797 0434 4A70     		strb	r2, [r1, #1]
 1798 0436 020C     		lsrs	r2, r0, #16
 1799 0438 8A70     		strb	r2, [r1, #2]
 1800 043a 000E     		lsrs	r0, r0, #24
 1801              	.LVL161:
 1802 043c C870     		strb	r0, [r1, #3]
 890:Source\mbedtls_open\library/aes.c ****     PUT_UINT32_LE( X1, output,  4 );
 1803              		.loc 1 890 0
 1804 043e 0F71     		strb	r7, [r1, #4]
ARM GAS  C:\Users\Phuong\AppData\Local\Temp\ccyLHZOj.s 			page 50


 1805 0440 3A0A     		lsrs	r2, r7, #8
 1806 0442 4A71     		strb	r2, [r1, #5]
 1807 0444 3A0C     		lsrs	r2, r7, #16
 1808 0446 8A71     		strb	r2, [r1, #6]
 1809 0448 3F0E     		lsrs	r7, r7, #24
 1810              	.LVL162:
 1811 044a CF71     		strb	r7, [r1, #7]
 891:Source\mbedtls_open\library/aes.c ****     PUT_UINT32_LE( X2, output,  8 );
 1812              		.loc 1 891 0
 1813 044c 0E72     		strb	r6, [r1, #8]
 1814 044e 320A     		lsrs	r2, r6, #8
 1815 0450 4A72     		strb	r2, [r1, #9]
 1816 0452 320C     		lsrs	r2, r6, #16
 1817 0454 8A72     		strb	r2, [r1, #10]
 1818 0456 360E     		lsrs	r6, r6, #24
 1819              	.LVL163:
 1820 0458 CE72     		strb	r6, [r1, #11]
 892:Source\mbedtls_open\library/aes.c ****     PUT_UINT32_LE( X3, output, 12 );
 1821              		.loc 1 892 0
 1822 045a 0B73     		strb	r3, [r1, #12]
 1823 045c 1A0A     		lsrs	r2, r3, #8
 1824 045e 4A73     		strb	r2, [r1, #13]
 1825 0460 1A0C     		lsrs	r2, r3, #16
 1826 0462 8A73     		strb	r2, [r1, #14]
 1827 0464 1B0E     		lsrs	r3, r3, #24
 1828              	.LVL164:
 1829 0466 CB73     		strb	r3, [r1, #15]
 893:Source\mbedtls_open\library/aes.c **** 
 894:Source\mbedtls_open\library/aes.c ****     return( 0 );
 895:Source\mbedtls_open\library/aes.c **** }
 1830              		.loc 1 895 0
 1831 0468 0020     		movs	r0, #0
 1832 046a 07B0     		add	sp, sp, #28
 1833              		@ sp needed
 1834              	.LVL165:
 1835              	.LVL166:
 1836              	.LVL167:
 1837 046c 0AE0     		b	.L63
 1838              	.L64:
 1839 046e C046     		.align	2
 1840              	.L62:
 1841 0470 00020000 		.word	.LANCHOR2
 1842 0474 00060000 		.word	.LANCHOR3
 1843 0478 000A0000 		.word	.LANCHOR4
 1844 047c 000E0000 		.word	.LANCHOR5
 1845 0480 00000000 		.word	.LANCHOR0
 1846              	.L63:
 1847 0484 3CBC     		pop	{r2, r3, r4, r5}
 1848 0486 9046     		mov	r8, r2
 1849 0488 9946     		mov	r9, r3
 1850 048a A246     		mov	r10, r4
 1851 048c AB46     		mov	fp, r5
 1852 048e F0BD     		pop	{r4, r5, r6, r7, pc}
 1853              		.cfi_endproc
 1854              	.LFE6:
 1855              		.size	mbedtls_internal_aes_encrypt, .-mbedtls_internal_aes_encrypt
 1856              		.section	.text.mbedtls_aes_encrypt,"ax",%progbits
ARM GAS  C:\Users\Phuong\AppData\Local\Temp\ccyLHZOj.s 			page 51


 1857              		.align	2
 1858              		.global	mbedtls_aes_encrypt
 1859              		.code	16
 1860              		.thumb_func
 1861              		.type	mbedtls_aes_encrypt, %function
 1862              	mbedtls_aes_encrypt:
 1863              	.LFB7:
 896:Source\mbedtls_open\library/aes.c **** #endif /* !MBEDTLS_AES_ENCRYPT_ALT */
 897:Source\mbedtls_open\library/aes.c **** 
 898:Source\mbedtls_open\library/aes.c **** #if !defined(MBEDTLS_DEPRECATED_REMOVED)
 899:Source\mbedtls_open\library/aes.c **** void mbedtls_aes_encrypt( mbedtls_aes_context *ctx,
 900:Source\mbedtls_open\library/aes.c ****                           const unsigned char input[16],
 901:Source\mbedtls_open\library/aes.c ****                           unsigned char output[16] )
 902:Source\mbedtls_open\library/aes.c **** {
 1864              		.loc 1 902 0
 1865              		.cfi_startproc
 1866              		@ args = 0, pretend = 0, frame = 0
 1867              		@ frame_needed = 0, uses_anonymous_args = 0
 1868              	.LVL168:
 1869 0000 10B5     		push	{r4, lr}
 1870              		.cfi_def_cfa_offset 8
 1871              		.cfi_offset 4, -8
 1872              		.cfi_offset 14, -4
 903:Source\mbedtls_open\library/aes.c ****     mbedtls_internal_aes_encrypt( ctx, input, output );
 1873              		.loc 1 903 0
 1874 0002 FFF7FEFF 		bl	mbedtls_internal_aes_encrypt
 1875              	.LVL169:
 904:Source\mbedtls_open\library/aes.c **** }
 1876              		.loc 1 904 0
 1877              		@ sp needed
 1878 0006 10BD     		pop	{r4, pc}
 1879              		.cfi_endproc
 1880              	.LFE7:
 1881              		.size	mbedtls_aes_encrypt, .-mbedtls_aes_encrypt
 1882              		.section	.text.mbedtls_internal_aes_decrypt,"ax",%progbits
 1883              		.align	2
 1884              		.global	mbedtls_internal_aes_decrypt
 1885              		.code	16
 1886              		.thumb_func
 1887              		.type	mbedtls_internal_aes_decrypt, %function
 1888              	mbedtls_internal_aes_decrypt:
 1889              	.LFB8:
 905:Source\mbedtls_open\library/aes.c **** #endif /* !MBEDTLS_DEPRECATED_REMOVED */
 906:Source\mbedtls_open\library/aes.c **** 
 907:Source\mbedtls_open\library/aes.c **** /*
 908:Source\mbedtls_open\library/aes.c ****  * AES-ECB block decryption
 909:Source\mbedtls_open\library/aes.c ****  */
 910:Source\mbedtls_open\library/aes.c **** #if !defined(MBEDTLS_AES_DECRYPT_ALT)
 911:Source\mbedtls_open\library/aes.c **** int mbedtls_internal_aes_decrypt( mbedtls_aes_context *ctx,
 912:Source\mbedtls_open\library/aes.c ****                                   const unsigned char input[16],
 913:Source\mbedtls_open\library/aes.c ****                                   unsigned char output[16] )
 914:Source\mbedtls_open\library/aes.c **** {
 1890              		.loc 1 914 0
 1891              		.cfi_startproc
 1892              		@ args = 0, pretend = 0, frame = 16
 1893              		@ frame_needed = 0, uses_anonymous_args = 0
 1894              	.LVL170:
ARM GAS  C:\Users\Phuong\AppData\Local\Temp\ccyLHZOj.s 			page 52


 1895 0000 F0B5     		push	{r4, r5, r6, r7, lr}
 1896              		.cfi_def_cfa_offset 20
 1897              		.cfi_offset 4, -20
 1898              		.cfi_offset 5, -16
 1899              		.cfi_offset 6, -12
 1900              		.cfi_offset 7, -8
 1901              		.cfi_offset 14, -4
 1902 0002 5F46     		mov	r7, fp
 1903 0004 5646     		mov	r6, r10
 1904 0006 4D46     		mov	r5, r9
 1905 0008 4446     		mov	r4, r8
 1906 000a F0B4     		push	{r4, r5, r6, r7}
 1907              		.cfi_def_cfa_offset 36
 1908              		.cfi_offset 8, -36
 1909              		.cfi_offset 9, -32
 1910              		.cfi_offset 10, -28
 1911              		.cfi_offset 11, -24
 1912 000c 85B0     		sub	sp, sp, #20
 1913              		.cfi_def_cfa_offset 56
 1914 000e 0392     		str	r2, [sp, #12]
 915:Source\mbedtls_open\library/aes.c ****     int i;
 916:Source\mbedtls_open\library/aes.c ****     uint32_t *RK, X0, X1, X2, X3, Y0, Y1, Y2, Y3;
 917:Source\mbedtls_open\library/aes.c **** 
 918:Source\mbedtls_open\library/aes.c ****     RK = ctx->rk;
 1915              		.loc 1 918 0
 1916 0010 4268     		ldr	r2, [r0, #4]
 1917              	.LVL171:
 919:Source\mbedtls_open\library/aes.c **** 
 920:Source\mbedtls_open\library/aes.c ****     GET_UINT32_LE( X0, input,  0 ); X0 ^= *RK++;
 1918              		.loc 1 920 0
 1919 0012 0C78     		ldrb	r4, [r1]
 1920 0014 4B78     		ldrb	r3, [r1, #1]
 1921 0016 1B02     		lsls	r3, r3, #8
 1922 0018 2343     		orrs	r3, r4
 1923 001a 8C78     		ldrb	r4, [r1, #2]
 1924 001c 2404     		lsls	r4, r4, #16
 1925 001e 2343     		orrs	r3, r4
 1926 0020 CC78     		ldrb	r4, [r1, #3]
 1927 0022 2406     		lsls	r4, r4, #24
 1928 0024 2343     		orrs	r3, r4
 1929              	.LVL172:
 1930 0026 1468     		ldr	r4, [r2]
 1931 0028 5C40     		eors	r4, r3
 1932 002a 0094     		str	r4, [sp]
 1933              	.LVL173:
 921:Source\mbedtls_open\library/aes.c ****     GET_UINT32_LE( X1, input,  4 ); X1 ^= *RK++;
 1934              		.loc 1 921 0
 1935 002c 0B79     		ldrb	r3, [r1, #4]
 1936 002e 4C79     		ldrb	r4, [r1, #5]
 1937              	.LVL174:
 1938 0030 2402     		lsls	r4, r4, #8
 1939 0032 1C43     		orrs	r4, r3
 1940 0034 8B79     		ldrb	r3, [r1, #6]
 1941 0036 1B04     		lsls	r3, r3, #16
 1942 0038 1C43     		orrs	r4, r3
 1943 003a CB79     		ldrb	r3, [r1, #7]
 1944 003c 1B06     		lsls	r3, r3, #24
ARM GAS  C:\Users\Phuong\AppData\Local\Temp\ccyLHZOj.s 			page 53


 1945 003e 1C43     		orrs	r4, r3
 1946              	.LVL175:
 1947 0040 5368     		ldr	r3, [r2, #4]
 1948 0042 5C40     		eors	r4, r3
 1949              	.LVL176:
 922:Source\mbedtls_open\library/aes.c ****     GET_UINT32_LE( X2, input,  8 ); X2 ^= *RK++;
 1950              		.loc 1 922 0
 1951 0044 0B7A     		ldrb	r3, [r1, #8]
 1952 0046 4D7A     		ldrb	r5, [r1, #9]
 1953 0048 2D02     		lsls	r5, r5, #8
 1954 004a 1D43     		orrs	r5, r3
 1955 004c 8B7A     		ldrb	r3, [r1, #10]
 1956 004e 1B04     		lsls	r3, r3, #16
 1957 0050 1D43     		orrs	r5, r3
 1958 0052 CB7A     		ldrb	r3, [r1, #11]
 1959 0054 1B06     		lsls	r3, r3, #24
 1960 0056 1D43     		orrs	r5, r3
 1961              	.LVL177:
 1962 0058 9368     		ldr	r3, [r2, #8]
 1963 005a 5D40     		eors	r5, r3
 1964              	.LVL178:
 923:Source\mbedtls_open\library/aes.c ****     GET_UINT32_LE( X3, input, 12 ); X3 ^= *RK++;
 1965              		.loc 1 923 0
 1966 005c 0B7B     		ldrb	r3, [r1, #12]
 1967 005e 4E7B     		ldrb	r6, [r1, #13]
 1968 0060 3602     		lsls	r6, r6, #8
 1969 0062 1E43     		orrs	r6, r3
 1970 0064 8B7B     		ldrb	r3, [r1, #14]
 1971 0066 1B04     		lsls	r3, r3, #16
 1972 0068 1E43     		orrs	r6, r3
 1973 006a CB7B     		ldrb	r3, [r1, #15]
 1974 006c 1B06     		lsls	r3, r3, #24
 1975 006e 1E43     		orrs	r6, r3
 1976              	.LVL179:
 1977 0070 1023     		movs	r3, #16
 1978 0072 9B46     		mov	fp, r3
 1979 0074 9344     		add	fp, fp, r2
 1980              	.LVL180:
 1981 0076 D368     		ldr	r3, [r2, #12]
 1982 0078 5E40     		eors	r6, r3
 1983              	.LVL181:
 924:Source\mbedtls_open\library/aes.c **** 
 925:Source\mbedtls_open\library/aes.c ****     for( i = ( ctx->nr >> 1 ) - 1; i > 0; i-- )
 1984              		.loc 1 925 0
 1985 007a 0368     		ldr	r3, [r0]
 1986 007c 5B10     		asrs	r3, r3, #1
 1987 007e 013B     		subs	r3, r3, #1
 1988 0080 0293     		str	r3, [sp, #8]
 1989              	.LVL182:
 1990 0082 5F46     		mov	r7, fp
 1991 0084 0194     		str	r4, [sp, #4]
 1992 0086 D5E0     		b	.L67
 1993              	.LVL183:
 1994              	.L68:
 926:Source\mbedtls_open\library/aes.c ****     {
 927:Source\mbedtls_open\library/aes.c ****         AES_RROUND( Y0, Y1, Y2, Y3, X0, X1, X2, X3 );
 1995              		.loc 1 927 0 discriminator 3
ARM GAS  C:\Users\Phuong\AppData\Local\Temp\ccyLHZOj.s 			page 54


 1996 0088 FF23     		movs	r3, #255
 1997              	.LVL184:
 1998 008a 0099     		ldr	r1, [sp]
 1999 008c 0A00     		movs	r2, r1
 2000 008e 1A40     		ands	r2, r3
 2001 0090 F348     		ldr	r0, .L69
 2002 0092 8246     		mov	r10, r0
 2003 0094 9200     		lsls	r2, r2, #2
 2004 0096 5244     		add	r2, r2, r10
 2005 0098 906A     		ldr	r0, [r2, #40]
 2006 009a 3A68     		ldr	r2, [r7]
 2007 009c 5040     		eors	r0, r2
 2008 009e 320A     		lsrs	r2, r6, #8
 2009 00a0 1A40     		ands	r2, r3
 2010 00a2 F04C     		ldr	r4, .L69+4
 2011 00a4 A146     		mov	r9, r4
 2012 00a6 9200     		lsls	r2, r2, #2
 2013 00a8 4A44     		add	r2, r2, r9
 2014 00aa 926A     		ldr	r2, [r2, #40]
 2015 00ac 5040     		eors	r0, r2
 2016 00ae 2A0C     		lsrs	r2, r5, #16
 2017 00b0 1A40     		ands	r2, r3
 2018 00b2 ED4C     		ldr	r4, .L69+8
 2019 00b4 A046     		mov	r8, r4
 2020 00b6 9200     		lsls	r2, r2, #2
 2021 00b8 4244     		add	r2, r2, r8
 2022 00ba 926A     		ldr	r2, [r2, #40]
 2023 00bc 5040     		eors	r0, r2
 2024 00be 019C     		ldr	r4, [sp, #4]
 2025 00c0 220E     		lsrs	r2, r4, #24
 2026 00c2 EA4C     		ldr	r4, .L69+12
 2027 00c4 A446     		mov	ip, r4
 2028 00c6 9200     		lsls	r2, r2, #2
 2029 00c8 6244     		add	r2, r2, ip
 2030 00ca 926A     		ldr	r2, [r2, #40]
 2031 00cc 5040     		eors	r0, r2
 2032              	.LVL185:
 2033 00ce 1A00     		movs	r2, r3
 2034 00d0 019C     		ldr	r4, [sp, #4]
 2035 00d2 2240     		ands	r2, r4
 2036 00d4 9200     		lsls	r2, r2, #2
 2037 00d6 5244     		add	r2, r2, r10
 2038 00d8 926A     		ldr	r2, [r2, #40]
 2039 00da 7C68     		ldr	r4, [r7, #4]
 2040 00dc 6240     		eors	r2, r4
 2041 00de 090A     		lsrs	r1, r1, #8
 2042 00e0 1940     		ands	r1, r3
 2043 00e2 8900     		lsls	r1, r1, #2
 2044 00e4 4944     		add	r1, r1, r9
 2045 00e6 896A     		ldr	r1, [r1, #40]
 2046 00e8 4A40     		eors	r2, r1
 2047 00ea 310C     		lsrs	r1, r6, #16
 2048 00ec 1940     		ands	r1, r3
 2049 00ee 8900     		lsls	r1, r1, #2
 2050 00f0 4144     		add	r1, r1, r8
 2051 00f2 896A     		ldr	r1, [r1, #40]
 2052 00f4 4A40     		eors	r2, r1
ARM GAS  C:\Users\Phuong\AppData\Local\Temp\ccyLHZOj.s 			page 55


 2053 00f6 290E     		lsrs	r1, r5, #24
 2054 00f8 8900     		lsls	r1, r1, #2
 2055 00fa 6144     		add	r1, r1, ip
 2056 00fc 896A     		ldr	r1, [r1, #40]
 2057 00fe 4A40     		eors	r2, r1
 2058              	.LVL186:
 2059 0100 1900     		movs	r1, r3
 2060 0102 2940     		ands	r1, r5
 2061 0104 8900     		lsls	r1, r1, #2
 2062 0106 5144     		add	r1, r1, r10
 2063 0108 896A     		ldr	r1, [r1, #40]
 2064 010a BC68     		ldr	r4, [r7, #8]
 2065 010c 4C40     		eors	r4, r1
 2066 010e A346     		mov	fp, r4
 2067 0110 019C     		ldr	r4, [sp, #4]
 2068 0112 210A     		lsrs	r1, r4, #8
 2069 0114 1940     		ands	r1, r3
 2070 0116 8900     		lsls	r1, r1, #2
 2071 0118 4944     		add	r1, r1, r9
 2072 011a 896A     		ldr	r1, [r1, #40]
 2073 011c 5C46     		mov	r4, fp
 2074 011e 4C40     		eors	r4, r1
 2075 0120 0099     		ldr	r1, [sp]
 2076 0122 090C     		lsrs	r1, r1, #16
 2077 0124 1940     		ands	r1, r3
 2078 0126 8900     		lsls	r1, r1, #2
 2079 0128 4144     		add	r1, r1, r8
 2080 012a 896A     		ldr	r1, [r1, #40]
 2081 012c 4C40     		eors	r4, r1
 2082 012e 310E     		lsrs	r1, r6, #24
 2083 0130 8900     		lsls	r1, r1, #2
 2084 0132 6144     		add	r1, r1, ip
 2085 0134 896A     		ldr	r1, [r1, #40]
 2086 0136 6140     		eors	r1, r4
 2087              	.LVL187:
 2088 0138 1E40     		ands	r6, r3
 2089              	.LVL188:
 2090 013a B600     		lsls	r6, r6, #2
 2091 013c 5644     		add	r6, r6, r10
 2092 013e B66A     		ldr	r6, [r6, #40]
 2093 0140 FC68     		ldr	r4, [r7, #12]
 2094 0142 6640     		eors	r6, r4
 2095 0144 2D0A     		lsrs	r5, r5, #8
 2096              	.LVL189:
 2097 0146 1D40     		ands	r5, r3
 2098 0148 AD00     		lsls	r5, r5, #2
 2099 014a 4D44     		add	r5, r5, r9
 2100 014c AD6A     		ldr	r5, [r5, #40]
 2101 014e 6E40     		eors	r6, r5
 2102 0150 019C     		ldr	r4, [sp, #4]
 2103 0152 240C     		lsrs	r4, r4, #16
 2104 0154 1C40     		ands	r4, r3
 2105 0156 A400     		lsls	r4, r4, #2
 2106 0158 4444     		add	r4, r4, r8
 2107 015a A56A     		ldr	r5, [r4, #40]
 2108 015c 6E40     		eors	r6, r5
 2109 015e 009C     		ldr	r4, [sp]
ARM GAS  C:\Users\Phuong\AppData\Local\Temp\ccyLHZOj.s 			page 56


 2110 0160 240E     		lsrs	r4, r4, #24
 2111 0162 A400     		lsls	r4, r4, #2
 2112 0164 6444     		add	r4, r4, ip
 2113 0166 A46A     		ldr	r4, [r4, #40]
 2114 0168 6640     		eors	r6, r4
 2115              	.LVL190:
 928:Source\mbedtls_open\library/aes.c ****         AES_RROUND( X0, X1, X2, X3, Y0, Y1, Y2, Y3 );
 2116              		.loc 1 928 0 discriminator 3
 2117 016a 1C00     		movs	r4, r3
 2118 016c 0440     		ands	r4, r0
 2119 016e A400     		lsls	r4, r4, #2
 2120 0170 5444     		add	r4, r4, r10
 2121 0172 A56A     		ldr	r5, [r4, #40]
 2122 0174 3C69     		ldr	r4, [r7, #16]
 2123 0176 6540     		eors	r5, r4
 2124 0178 340A     		lsrs	r4, r6, #8
 2125 017a 1C40     		ands	r4, r3
 2126 017c A400     		lsls	r4, r4, #2
 2127 017e 4C44     		add	r4, r4, r9
 2128 0180 A46A     		ldr	r4, [r4, #40]
 2129 0182 6540     		eors	r5, r4
 2130 0184 0C0C     		lsrs	r4, r1, #16
 2131 0186 1C40     		ands	r4, r3
 2132 0188 A400     		lsls	r4, r4, #2
 2133 018a 4444     		add	r4, r4, r8
 2134 018c A46A     		ldr	r4, [r4, #40]
 2135 018e 6540     		eors	r5, r4
 2136 0190 140E     		lsrs	r4, r2, #24
 2137 0192 A400     		lsls	r4, r4, #2
 2138 0194 6444     		add	r4, r4, ip
 2139 0196 A46A     		ldr	r4, [r4, #40]
 2140 0198 6540     		eors	r5, r4
 2141 019a 0095     		str	r5, [sp]
 2142              	.LVL191:
 2143 019c 1C00     		movs	r4, r3
 2144 019e 1440     		ands	r4, r2
 2145 01a0 A400     		lsls	r4, r4, #2
 2146 01a2 5444     		add	r4, r4, r10
 2147 01a4 A46A     		ldr	r4, [r4, #40]
 2148 01a6 7D69     		ldr	r5, [r7, #20]
 2149              	.LVL192:
 2150 01a8 6C40     		eors	r4, r5
 2151 01aa 050A     		lsrs	r5, r0, #8
 2152 01ac 1D40     		ands	r5, r3
 2153 01ae AD00     		lsls	r5, r5, #2
 2154 01b0 4D44     		add	r5, r5, r9
 2155 01b2 AD6A     		ldr	r5, [r5, #40]
 2156 01b4 6C40     		eors	r4, r5
 2157 01b6 350C     		lsrs	r5, r6, #16
 2158 01b8 1D40     		ands	r5, r3
 2159 01ba AD00     		lsls	r5, r5, #2
 2160 01bc 4544     		add	r5, r5, r8
 2161 01be AD6A     		ldr	r5, [r5, #40]
 2162 01c0 6C40     		eors	r4, r5
 2163 01c2 0D0E     		lsrs	r5, r1, #24
 2164 01c4 AD00     		lsls	r5, r5, #2
 2165 01c6 6544     		add	r5, r5, ip
ARM GAS  C:\Users\Phuong\AppData\Local\Temp\ccyLHZOj.s 			page 57


 2166 01c8 AD6A     		ldr	r5, [r5, #40]
 2167 01ca 6C40     		eors	r4, r5
 2168 01cc 0194     		str	r4, [sp, #4]
 2169              	.LVL193:
 2170 01ce 1D00     		movs	r5, r3
 2171 01d0 0D40     		ands	r5, r1
 2172 01d2 AD00     		lsls	r5, r5, #2
 2173 01d4 5544     		add	r5, r5, r10
 2174 01d6 AD6A     		ldr	r5, [r5, #40]
 2175 01d8 BC69     		ldr	r4, [r7, #24]
 2176              	.LVL194:
 2177 01da 6C40     		eors	r4, r5
 2178 01dc 150A     		lsrs	r5, r2, #8
 2179 01de 1D40     		ands	r5, r3
 2180 01e0 AD00     		lsls	r5, r5, #2
 2181 01e2 4D44     		add	r5, r5, r9
 2182 01e4 AD6A     		ldr	r5, [r5, #40]
 2183 01e6 6C40     		eors	r4, r5
 2184 01e8 050C     		lsrs	r5, r0, #16
 2185 01ea 1D40     		ands	r5, r3
 2186 01ec AD00     		lsls	r5, r5, #2
 2187 01ee 4544     		add	r5, r5, r8
 2188 01f0 AD6A     		ldr	r5, [r5, #40]
 2189 01f2 6C40     		eors	r4, r5
 2190 01f4 350E     		lsrs	r5, r6, #24
 2191 01f6 AD00     		lsls	r5, r5, #2
 2192 01f8 6544     		add	r5, r5, ip
 2193 01fa AD6A     		ldr	r5, [r5, #40]
 2194 01fc 6540     		eors	r5, r4
 2195              	.LVL195:
 2196 01fe 1E40     		ands	r6, r3
 2197              	.LVL196:
 2198 0200 B600     		lsls	r6, r6, #2
 2199 0202 5644     		add	r6, r6, r10
 2200 0204 B66A     		ldr	r6, [r6, #40]
 2201 0206 FC69     		ldr	r4, [r7, #28]
 2202 0208 6640     		eors	r6, r4
 2203 020a 090A     		lsrs	r1, r1, #8
 2204              	.LVL197:
 2205 020c 1940     		ands	r1, r3
 2206 020e 8900     		lsls	r1, r1, #2
 2207 0210 4944     		add	r1, r1, r9
 2208 0212 896A     		ldr	r1, [r1, #40]
 2209 0214 4E40     		eors	r6, r1
 2210 0216 120C     		lsrs	r2, r2, #16
 2211              	.LVL198:
 2212 0218 1340     		ands	r3, r2
 2213 021a 9B00     		lsls	r3, r3, #2
 2214 021c 4344     		add	r3, r3, r8
 2215 021e 9B6A     		ldr	r3, [r3, #40]
 2216 0220 5E40     		eors	r6, r3
 2217 0222 000E     		lsrs	r0, r0, #24
 2218              	.LVL199:
 2219 0224 8000     		lsls	r0, r0, #2
 2220 0226 6044     		add	r0, r0, ip
 2221 0228 836A     		ldr	r3, [r0, #40]
 2222 022a 5E40     		eors	r6, r3
ARM GAS  C:\Users\Phuong\AppData\Local\Temp\ccyLHZOj.s 			page 58


 2223              	.LVL200:
 925:Source\mbedtls_open\library/aes.c ****     {
 2224              		.loc 1 925 0 discriminator 3
 2225 022c 029B     		ldr	r3, [sp, #8]
 2226 022e 013B     		subs	r3, r3, #1
 2227 0230 0293     		str	r3, [sp, #8]
 2228              	.LVL201:
 2229              		.loc 1 928 0 discriminator 3
 2230 0232 2037     		adds	r7, r7, #32
 2231              	.LVL202:
 2232              	.L67:
 925:Source\mbedtls_open\library/aes.c ****     {
 2233              		.loc 1 925 0 discriminator 1
 2234 0234 029B     		ldr	r3, [sp, #8]
 2235 0236 002B     		cmp	r3, #0
 2236 0238 00DD     		ble	.LCB2387
 2237 023a 25E7     		b	.L68	@long jump
 2238              	.LCB2387:
 2239 023c BB46     		mov	fp, r7
 2240 023e 019C     		ldr	r4, [sp, #4]
 2241              	.LVL203:
 929:Source\mbedtls_open\library/aes.c ****     }
 930:Source\mbedtls_open\library/aes.c **** 
 931:Source\mbedtls_open\library/aes.c ****     AES_RROUND( Y0, Y1, Y2, Y3, X0, X1, X2, X3 );
 2242              		.loc 1 931 0
 2243 0240 FF23     		movs	r3, #255
 2244 0242 0098     		ldr	r0, [sp]
 2245 0244 0200     		movs	r2, r0
 2246 0246 1A40     		ands	r2, r3
 2247 0248 8549     		ldr	r1, .L69
 2248 024a 8946     		mov	r9, r1
 2249 024c 9200     		lsls	r2, r2, #2
 2250 024e 4A44     		add	r2, r2, r9
 2251 0250 916A     		ldr	r1, [r2, #40]
 2252 0252 3A68     		ldr	r2, [r7]
 2253 0254 5140     		eors	r1, r2
 2254 0256 320A     		lsrs	r2, r6, #8
 2255 0258 1A40     		ands	r2, r3
 2256 025a 824F     		ldr	r7, .L69+4
 2257              	.LVL204:
 2258 025c B846     		mov	r8, r7
 2259 025e 9200     		lsls	r2, r2, #2
 2260 0260 4244     		add	r2, r2, r8
 2261 0262 926A     		ldr	r2, [r2, #40]
 2262 0264 5140     		eors	r1, r2
 2263 0266 2A0C     		lsrs	r2, r5, #16
 2264 0268 1A40     		ands	r2, r3
 2265 026a 7F4F     		ldr	r7, .L69+8
 2266 026c BC46     		mov	ip, r7
 2267 026e 9200     		lsls	r2, r2, #2
 2268 0270 6244     		add	r2, r2, ip
 2269 0272 926A     		ldr	r2, [r2, #40]
 2270 0274 5140     		eors	r1, r2
 2271 0276 220E     		lsrs	r2, r4, #24
 2272 0278 7C4F     		ldr	r7, .L69+12
 2273 027a 9200     		lsls	r2, r2, #2
 2274 027c BA18     		adds	r2, r7, r2
ARM GAS  C:\Users\Phuong\AppData\Local\Temp\ccyLHZOj.s 			page 59


 2275 027e 926A     		ldr	r2, [r2, #40]
 2276 0280 5140     		eors	r1, r2
 2277 0282 8A46     		mov	r10, r1
 2278              	.LVL205:
 2279 0284 1A00     		movs	r2, r3
 2280 0286 2240     		ands	r2, r4
 2281 0288 9200     		lsls	r2, r2, #2
 2282 028a 4A44     		add	r2, r2, r9
 2283 028c 926A     		ldr	r2, [r2, #40]
 2284 028e 5946     		mov	r1, fp
 2285              	.LVL206:
 2286 0290 4968     		ldr	r1, [r1, #4]
 2287 0292 4A40     		eors	r2, r1
 2288 0294 010A     		lsrs	r1, r0, #8
 2289 0296 1940     		ands	r1, r3
 2290 0298 8900     		lsls	r1, r1, #2
 2291 029a 4144     		add	r1, r1, r8
 2292 029c 896A     		ldr	r1, [r1, #40]
 2293 029e 4A40     		eors	r2, r1
 2294 02a0 310C     		lsrs	r1, r6, #16
 2295 02a2 1940     		ands	r1, r3
 2296 02a4 8900     		lsls	r1, r1, #2
 2297 02a6 6144     		add	r1, r1, ip
 2298 02a8 896A     		ldr	r1, [r1, #40]
 2299 02aa 4A40     		eors	r2, r1
 2300 02ac 290E     		lsrs	r1, r5, #24
 2301 02ae 8900     		lsls	r1, r1, #2
 2302 02b0 7918     		adds	r1, r7, r1
 2303 02b2 896A     		ldr	r1, [r1, #40]
 2304 02b4 4A40     		eors	r2, r1
 2305 02b6 0192     		str	r2, [sp, #4]
 2306              	.LVL207:
 2307 02b8 1900     		movs	r1, r3
 2308 02ba 2940     		ands	r1, r5
 2309 02bc 8900     		lsls	r1, r1, #2
 2310 02be 4944     		add	r1, r1, r9
 2311 02c0 896A     		ldr	r1, [r1, #40]
 2312 02c2 5A46     		mov	r2, fp
 2313              	.LVL208:
 2314 02c4 9268     		ldr	r2, [r2, #8]
 2315 02c6 5140     		eors	r1, r2
 2316 02c8 200A     		lsrs	r0, r4, #8
 2317 02ca 1840     		ands	r0, r3
 2318 02cc 8000     		lsls	r0, r0, #2
 2319 02ce 4044     		add	r0, r0, r8
 2320 02d0 806A     		ldr	r0, [r0, #40]
 2321 02d2 4140     		eors	r1, r0
 2322 02d4 0098     		ldr	r0, [sp]
 2323 02d6 000C     		lsrs	r0, r0, #16
 2324 02d8 1840     		ands	r0, r3
 2325 02da 8000     		lsls	r0, r0, #2
 2326 02dc 6044     		add	r0, r0, ip
 2327 02de 806A     		ldr	r0, [r0, #40]
 2328 02e0 4840     		eors	r0, r1
 2329 02e2 310E     		lsrs	r1, r6, #24
 2330 02e4 8900     		lsls	r1, r1, #2
 2331 02e6 7918     		adds	r1, r7, r1
ARM GAS  C:\Users\Phuong\AppData\Local\Temp\ccyLHZOj.s 			page 60


 2332 02e8 896A     		ldr	r1, [r1, #40]
 2333 02ea 4140     		eors	r1, r0
 2334              	.LVL209:
 2335 02ec 1E40     		ands	r6, r3
 2336              	.LVL210:
 2337 02ee B600     		lsls	r6, r6, #2
 2338 02f0 4E44     		add	r6, r6, r9
 2339 02f2 B06A     		ldr	r0, [r6, #40]
 2340 02f4 5A46     		mov	r2, fp
 2341 02f6 D268     		ldr	r2, [r2, #12]
 2342 02f8 5040     		eors	r0, r2
 2343 02fa 2D0A     		lsrs	r5, r5, #8
 2344              	.LVL211:
 2345 02fc 1D40     		ands	r5, r3
 2346 02fe AD00     		lsls	r5, r5, #2
 2347 0300 4544     		add	r5, r5, r8
 2348 0302 AD6A     		ldr	r5, [r5, #40]
 2349 0304 6840     		eors	r0, r5
 2350 0306 240C     		lsrs	r4, r4, #16
 2351              	.LVL212:
 2352 0308 1C40     		ands	r4, r3
 2353 030a A400     		lsls	r4, r4, #2
 2354 030c 6444     		add	r4, r4, ip
 2355 030e A46A     		ldr	r4, [r4, #40]
 2356 0310 6040     		eors	r0, r4
 2357 0312 009C     		ldr	r4, [sp]
 2358 0314 240E     		lsrs	r4, r4, #24
 2359 0316 A400     		lsls	r4, r4, #2
 2360 0318 3F19     		adds	r7, r7, r4
 2361 031a BC6A     		ldr	r4, [r7, #40]
 2362 031c 6040     		eors	r0, r4
 2363 031e 8046     		mov	r8, r0
 2364              	.LVL213:
 932:Source\mbedtls_open\library/aes.c **** 
 933:Source\mbedtls_open\library/aes.c ****     X0 = *RK++ ^ \
 934:Source\mbedtls_open\library/aes.c ****             ( (uint32_t) RSb[ ( Y0       ) & 0xFF ]       ) ^
 2365              		.loc 1 934 0
 2366 0320 5046     		mov	r0, r10
 2367              	.LVL214:
 2368 0322 1840     		ands	r0, r3
 2369 0324 524D     		ldr	r5, .L69+16
 2370 0326 2824     		movs	r4, #40
 2371 0328 2818     		adds	r0, r5, r0
 2372 032a 075D     		ldrb	r7, [r0, r4]
 933:Source\mbedtls_open\library/aes.c ****             ( (uint32_t) RSb[ ( Y0       ) & 0xFF ]       ) ^
 2373              		.loc 1 933 0
 2374 032c 5A46     		mov	r2, fp
 2375 032e 1069     		ldr	r0, [r2, #16]
 2376 0330 7840     		eors	r0, r7
 935:Source\mbedtls_open\library/aes.c ****             ( (uint32_t) RSb[ ( Y3 >>  8 ) & 0xFF ] <<  8 ) ^
 2377              		.loc 1 935 0
 2378 0332 4246     		mov	r2, r8
 2379 0334 160A     		lsrs	r6, r2, #8
 2380 0336 1E40     		ands	r6, r3
 2381 0338 AE19     		adds	r6, r5, r6
 2382 033a 365D     		ldrb	r6, [r6, r4]
 2383 033c 3602     		lsls	r6, r6, #8
ARM GAS  C:\Users\Phuong\AppData\Local\Temp\ccyLHZOj.s 			page 61


 934:Source\mbedtls_open\library/aes.c ****             ( (uint32_t) RSb[ ( Y3 >>  8 ) & 0xFF ] <<  8 ) ^
 2384              		.loc 1 934 0
 2385 033e 7040     		eors	r0, r6
 2386 0340 0700     		movs	r7, r0
 936:Source\mbedtls_open\library/aes.c ****             ( (uint32_t) RSb[ ( Y2 >> 16 ) & 0xFF ] << 16 ) ^
 2387              		.loc 1 936 0
 2388 0342 0E0C     		lsrs	r6, r1, #16
 2389 0344 1E40     		ands	r6, r3
 2390 0346 AE19     		adds	r6, r5, r6
 2391 0348 305D     		ldrb	r0, [r6, r4]
 2392 034a 0004     		lsls	r0, r0, #16
 935:Source\mbedtls_open\library/aes.c ****             ( (uint32_t) RSb[ ( Y3 >>  8 ) & 0xFF ] <<  8 ) ^
 2393              		.loc 1 935 0
 2394 034c 3E00     		movs	r6, r7
 2395 034e 4640     		eors	r6, r0
 937:Source\mbedtls_open\library/aes.c ****             ( (uint32_t) RSb[ ( Y1 >> 24 ) & 0xFF ] << 24 );
 2396              		.loc 1 937 0
 2397 0350 019A     		ldr	r2, [sp, #4]
 2398 0352 100E     		lsrs	r0, r2, #24
 2399 0354 2818     		adds	r0, r5, r0
 2400 0356 005D     		ldrb	r0, [r0, r4]
 2401 0358 0006     		lsls	r0, r0, #24
 933:Source\mbedtls_open\library/aes.c ****             ( (uint32_t) RSb[ ( Y0       ) & 0xFF ]       ) ^
 2402              		.loc 1 933 0
 2403 035a 7040     		eors	r0, r6
 2404              	.LVL215:
 938:Source\mbedtls_open\library/aes.c **** 
 939:Source\mbedtls_open\library/aes.c ****     X1 = *RK++ ^ \
 940:Source\mbedtls_open\library/aes.c ****             ( (uint32_t) RSb[ ( Y1       ) & 0xFF ]       ) ^
 2405              		.loc 1 940 0
 2406 035c 1E00     		movs	r6, r3
 2407 035e 1640     		ands	r6, r2
 2408 0360 AE19     		adds	r6, r5, r6
 2409 0362 365D     		ldrb	r6, [r6, r4]
 939:Source\mbedtls_open\library/aes.c ****             ( (uint32_t) RSb[ ( Y1       ) & 0xFF ]       ) ^
 2410              		.loc 1 939 0
 2411 0364 5A46     		mov	r2, fp
 2412 0366 5269     		ldr	r2, [r2, #20]
 2413 0368 5640     		eors	r6, r2
 941:Source\mbedtls_open\library/aes.c ****             ( (uint32_t) RSb[ ( Y0 >>  8 ) & 0xFF ] <<  8 ) ^
 2414              		.loc 1 941 0
 2415 036a 5246     		mov	r2, r10
 2416 036c 170A     		lsrs	r7, r2, #8
 2417 036e 1F40     		ands	r7, r3
 2418 0370 EF19     		adds	r7, r5, r7
 2419 0372 3F5D     		ldrb	r7, [r7, r4]
 2420 0374 3F02     		lsls	r7, r7, #8
 940:Source\mbedtls_open\library/aes.c ****             ( (uint32_t) RSb[ ( Y0 >>  8 ) & 0xFF ] <<  8 ) ^
 2421              		.loc 1 940 0
 2422 0376 7E40     		eors	r6, r7
 942:Source\mbedtls_open\library/aes.c ****             ( (uint32_t) RSb[ ( Y3 >> 16 ) & 0xFF ] << 16 ) ^
 2423              		.loc 1 942 0
 2424 0378 4246     		mov	r2, r8
 2425 037a 170C     		lsrs	r7, r2, #16
 2426 037c 1F40     		ands	r7, r3
 2427 037e EF19     		adds	r7, r5, r7
 2428 0380 3F5D     		ldrb	r7, [r7, r4]
ARM GAS  C:\Users\Phuong\AppData\Local\Temp\ccyLHZOj.s 			page 62


 2429 0382 3F04     		lsls	r7, r7, #16
 941:Source\mbedtls_open\library/aes.c ****             ( (uint32_t) RSb[ ( Y0 >>  8 ) & 0xFF ] <<  8 ) ^
 2430              		.loc 1 941 0
 2431 0384 7E40     		eors	r6, r7
 943:Source\mbedtls_open\library/aes.c ****             ( (uint32_t) RSb[ ( Y2 >> 24 ) & 0xFF ] << 24 );
 2432              		.loc 1 943 0
 2433 0386 0F0E     		lsrs	r7, r1, #24
 2434 0388 EF19     		adds	r7, r5, r7
 2435 038a 3F5D     		ldrb	r7, [r7, r4]
 2436 038c 3F06     		lsls	r7, r7, #24
 939:Source\mbedtls_open\library/aes.c ****             ( (uint32_t) RSb[ ( Y1       ) & 0xFF ]       ) ^
 2437              		.loc 1 939 0
 2438 038e 7740     		eors	r7, r6
 2439              	.LVL216:
 944:Source\mbedtls_open\library/aes.c **** 
 945:Source\mbedtls_open\library/aes.c ****     X2 = *RK++ ^ \
 946:Source\mbedtls_open\library/aes.c ****             ( (uint32_t) RSb[ ( Y2       ) & 0xFF ]       ) ^
 2440              		.loc 1 946 0
 2441 0390 1E00     		movs	r6, r3
 2442 0392 0091     		str	r1, [sp]
 2443 0394 0E40     		ands	r6, r1
 2444 0396 AE19     		adds	r6, r5, r6
 2445 0398 365D     		ldrb	r6, [r6, r4]
 945:Source\mbedtls_open\library/aes.c ****             ( (uint32_t) RSb[ ( Y2       ) & 0xFF ]       ) ^
 2446              		.loc 1 945 0
 2447 039a 5A46     		mov	r2, fp
 2448 039c 9269     		ldr	r2, [r2, #24]
 2449 039e 7240     		eors	r2, r6
 947:Source\mbedtls_open\library/aes.c ****             ( (uint32_t) RSb[ ( Y1 >>  8 ) & 0xFF ] <<  8 ) ^
 2450              		.loc 1 947 0
 2451 03a0 019E     		ldr	r6, [sp, #4]
 2452 03a2 360A     		lsrs	r6, r6, #8
 2453 03a4 1E40     		ands	r6, r3
 2454 03a6 AE19     		adds	r6, r5, r6
 2455 03a8 365D     		ldrb	r6, [r6, r4]
 2456 03aa 3602     		lsls	r6, r6, #8
 946:Source\mbedtls_open\library/aes.c ****             ( (uint32_t) RSb[ ( Y1 >>  8 ) & 0xFF ] <<  8 ) ^
 2457              		.loc 1 946 0
 2458 03ac 5640     		eors	r6, r2
 948:Source\mbedtls_open\library/aes.c ****             ( (uint32_t) RSb[ ( Y0 >> 16 ) & 0xFF ] << 16 ) ^
 2459              		.loc 1 948 0
 2460 03ae 5246     		mov	r2, r10
 2461 03b0 120C     		lsrs	r2, r2, #16
 2462 03b2 1A40     		ands	r2, r3
 2463 03b4 9446     		mov	ip, r2
 2464 03b6 AC44     		add	ip, ip, r5
 2465 03b8 6246     		mov	r2, ip
 2466 03ba 125D     		ldrb	r2, [r2, r4]
 2467 03bc 1204     		lsls	r2, r2, #16
 947:Source\mbedtls_open\library/aes.c ****             ( (uint32_t) RSb[ ( Y1 >>  8 ) & 0xFF ] <<  8 ) ^
 2468              		.loc 1 947 0
 2469 03be 5640     		eors	r6, r2
 949:Source\mbedtls_open\library/aes.c ****             ( (uint32_t) RSb[ ( Y3 >> 24 ) & 0xFF ] << 24 );
 2470              		.loc 1 949 0
 2471 03c0 4246     		mov	r2, r8
 2472 03c2 120E     		lsrs	r2, r2, #24
 2473 03c4 9446     		mov	ip, r2
ARM GAS  C:\Users\Phuong\AppData\Local\Temp\ccyLHZOj.s 			page 63


 2474 03c6 AC44     		add	ip, ip, r5
 2475 03c8 6246     		mov	r2, ip
 2476 03ca 125D     		ldrb	r2, [r2, r4]
 2477 03cc 1206     		lsls	r2, r2, #24
 945:Source\mbedtls_open\library/aes.c ****             ( (uint32_t) RSb[ ( Y2       ) & 0xFF ]       ) ^
 2478              		.loc 1 945 0
 2479 03ce 5640     		eors	r6, r2
 2480              	.LVL217:
 950:Source\mbedtls_open\library/aes.c **** 
 951:Source\mbedtls_open\library/aes.c ****     X3 = *RK++ ^ \
 2481              		.loc 1 951 0
 2482 03d0 5A46     		mov	r2, fp
 2483 03d2 D269     		ldr	r2, [r2, #28]
 2484 03d4 9446     		mov	ip, r2
 952:Source\mbedtls_open\library/aes.c ****             ( (uint32_t) RSb[ ( Y3       ) & 0xFF ]       ) ^
 2485              		.loc 1 952 0
 2486 03d6 4246     		mov	r2, r8
 2487 03d8 1A40     		ands	r2, r3
 2488 03da 9046     		mov	r8, r2
 2489              	.LVL218:
 2490 03dc A844     		add	r8, r8, r5
 2491 03de 4246     		mov	r2, r8
 2492 03e0 125D     		ldrb	r2, [r2, r4]
 2493 03e2 9046     		mov	r8, r2
 951:Source\mbedtls_open\library/aes.c ****             ( (uint32_t) RSb[ ( Y3       ) & 0xFF ]       ) ^
 2494              		.loc 1 951 0
 2495 03e4 6246     		mov	r2, ip
 2496 03e6 4146     		mov	r1, r8
 2497              	.LVL219:
 2498 03e8 4A40     		eors	r2, r1
 2499 03ea 9446     		mov	ip, r2
 953:Source\mbedtls_open\library/aes.c ****             ( (uint32_t) RSb[ ( Y2 >>  8 ) & 0xFF ] <<  8 ) ^
 2500              		.loc 1 953 0
 2501 03ec 009A     		ldr	r2, [sp]
 2502 03ee 110A     		lsrs	r1, r2, #8
 2503 03f0 1940     		ands	r1, r3
 2504 03f2 6918     		adds	r1, r5, r1
 2505 03f4 095D     		ldrb	r1, [r1, r4]
 2506 03f6 0902     		lsls	r1, r1, #8
 952:Source\mbedtls_open\library/aes.c ****             ( (uint32_t) RSb[ ( Y3       ) & 0xFF ]       ) ^
 2507              		.loc 1 952 0
 2508 03f8 6246     		mov	r2, ip
 2509 03fa 5140     		eors	r1, r2
 954:Source\mbedtls_open\library/aes.c ****             ( (uint32_t) RSb[ ( Y1 >> 16 ) & 0xFF ] << 16 ) ^
 2510              		.loc 1 954 0
 2511 03fc 019A     		ldr	r2, [sp, #4]
 2512 03fe 120C     		lsrs	r2, r2, #16
 2513 0400 1A40     		ands	r2, r3
 2514 0402 AA18     		adds	r2, r5, r2
 2515 0404 135D     		ldrb	r3, [r2, r4]
 2516 0406 1B04     		lsls	r3, r3, #16
 953:Source\mbedtls_open\library/aes.c ****             ( (uint32_t) RSb[ ( Y2 >>  8 ) & 0xFF ] <<  8 ) ^
 2517              		.loc 1 953 0
 2518 0408 5940     		eors	r1, r3
 955:Source\mbedtls_open\library/aes.c ****             ( (uint32_t) RSb[ ( Y0 >> 24 ) & 0xFF ] << 24 );
 2519              		.loc 1 955 0
 2520 040a 5346     		mov	r3, r10
ARM GAS  C:\Users\Phuong\AppData\Local\Temp\ccyLHZOj.s 			page 64


 2521 040c 1A0E     		lsrs	r2, r3, #24
 2522 040e AD18     		adds	r5, r5, r2
 2523 0410 2B5D     		ldrb	r3, [r5, r4]
 2524 0412 1B06     		lsls	r3, r3, #24
 951:Source\mbedtls_open\library/aes.c ****             ( (uint32_t) RSb[ ( Y3       ) & 0xFF ]       ) ^
 2525              		.loc 1 951 0
 2526 0414 4B40     		eors	r3, r1
 2527              	.LVL220:
 956:Source\mbedtls_open\library/aes.c **** 
 957:Source\mbedtls_open\library/aes.c ****     PUT_UINT32_LE( X0, output,  0 );
 2528              		.loc 1 957 0
 2529 0416 0399     		ldr	r1, [sp, #12]
 2530 0418 0870     		strb	r0, [r1]
 2531 041a 020A     		lsrs	r2, r0, #8
 2532 041c 4A70     		strb	r2, [r1, #1]
 2533 041e 020C     		lsrs	r2, r0, #16
 2534 0420 8A70     		strb	r2, [r1, #2]
 2535 0422 000E     		lsrs	r0, r0, #24
 2536              	.LVL221:
 2537 0424 C870     		strb	r0, [r1, #3]
 958:Source\mbedtls_open\library/aes.c ****     PUT_UINT32_LE( X1, output,  4 );
 2538              		.loc 1 958 0
 2539 0426 0F71     		strb	r7, [r1, #4]
 2540 0428 3A0A     		lsrs	r2, r7, #8
 2541 042a 4A71     		strb	r2, [r1, #5]
 2542 042c 3A0C     		lsrs	r2, r7, #16
 2543 042e 8A71     		strb	r2, [r1, #6]
 2544 0430 3F0E     		lsrs	r7, r7, #24
 2545              	.LVL222:
 2546 0432 CF71     		strb	r7, [r1, #7]
 959:Source\mbedtls_open\library/aes.c ****     PUT_UINT32_LE( X2, output,  8 );
 2547              		.loc 1 959 0
 2548 0434 0E72     		strb	r6, [r1, #8]
 2549 0436 320A     		lsrs	r2, r6, #8
 2550 0438 4A72     		strb	r2, [r1, #9]
 2551 043a 320C     		lsrs	r2, r6, #16
 2552 043c 8A72     		strb	r2, [r1, #10]
 2553 043e 360E     		lsrs	r6, r6, #24
 2554              	.LVL223:
 2555 0440 CE72     		strb	r6, [r1, #11]
 960:Source\mbedtls_open\library/aes.c ****     PUT_UINT32_LE( X3, output, 12 );
 2556              		.loc 1 960 0
 2557 0442 0B73     		strb	r3, [r1, #12]
 2558 0444 1A0A     		lsrs	r2, r3, #8
 2559 0446 4A73     		strb	r2, [r1, #13]
 2560 0448 1A0C     		lsrs	r2, r3, #16
 2561 044a 8A73     		strb	r2, [r1, #14]
 2562 044c 1B0E     		lsrs	r3, r3, #24
 2563              	.LVL224:
 2564 044e CB73     		strb	r3, [r1, #15]
 961:Source\mbedtls_open\library/aes.c **** 
 962:Source\mbedtls_open\library/aes.c ****     return( 0 );
 963:Source\mbedtls_open\library/aes.c **** }
 2565              		.loc 1 963 0
 2566 0450 0020     		movs	r0, #0
 2567 0452 05B0     		add	sp, sp, #20
 2568              	.LVL225:
ARM GAS  C:\Users\Phuong\AppData\Local\Temp\ccyLHZOj.s 			page 65


 2569              		@ sp needed
 2570              	.LVL226:
 2571              	.LVL227:
 2572              	.LVL228:
 2573              	.LVL229:
 2574 0454 3CBC     		pop	{r2, r3, r4, r5}
 2575 0456 9046     		mov	r8, r2
 2576 0458 9946     		mov	r9, r3
 2577 045a A246     		mov	r10, r4
 2578 045c AB46     		mov	fp, r5
 2579 045e F0BD     		pop	{r4, r5, r6, r7, pc}
 2580              	.L70:
 2581              		.align	2
 2582              	.L69:
 2583 0460 00120000 		.word	.LANCHOR6
 2584 0464 00160000 		.word	.LANCHOR7
 2585 0468 001A0000 		.word	.LANCHOR8
 2586 046c 001E0000 		.word	.LANCHOR9
 2587 0470 00010000 		.word	.LANCHOR1
 2588              		.cfi_endproc
 2589              	.LFE8:
 2590              		.size	mbedtls_internal_aes_decrypt, .-mbedtls_internal_aes_decrypt
 2591              		.section	.text.mbedtls_aes_decrypt,"ax",%progbits
 2592              		.align	2
 2593              		.global	mbedtls_aes_decrypt
 2594              		.code	16
 2595              		.thumb_func
 2596              		.type	mbedtls_aes_decrypt, %function
 2597              	mbedtls_aes_decrypt:
 2598              	.LFB9:
 964:Source\mbedtls_open\library/aes.c **** #endif /* !MBEDTLS_AES_DECRYPT_ALT */
 965:Source\mbedtls_open\library/aes.c **** 
 966:Source\mbedtls_open\library/aes.c **** #if !defined(MBEDTLS_DEPRECATED_REMOVED)
 967:Source\mbedtls_open\library/aes.c **** void mbedtls_aes_decrypt( mbedtls_aes_context *ctx,
 968:Source\mbedtls_open\library/aes.c ****                           const unsigned char input[16],
 969:Source\mbedtls_open\library/aes.c ****                           unsigned char output[16] )
 970:Source\mbedtls_open\library/aes.c **** {
 2599              		.loc 1 970 0
 2600              		.cfi_startproc
 2601              		@ args = 0, pretend = 0, frame = 0
 2602              		@ frame_needed = 0, uses_anonymous_args = 0
 2603              	.LVL230:
 2604 0000 10B5     		push	{r4, lr}
 2605              		.cfi_def_cfa_offset 8
 2606              		.cfi_offset 4, -8
 2607              		.cfi_offset 14, -4
 971:Source\mbedtls_open\library/aes.c ****     mbedtls_internal_aes_decrypt( ctx, input, output );
 2608              		.loc 1 971 0
 2609 0002 FFF7FEFF 		bl	mbedtls_internal_aes_decrypt
 2610              	.LVL231:
 972:Source\mbedtls_open\library/aes.c **** }
 2611              		.loc 1 972 0
 2612              		@ sp needed
 2613 0006 10BD     		pop	{r4, pc}
 2614              		.cfi_endproc
 2615              	.LFE9:
 2616              		.size	mbedtls_aes_decrypt, .-mbedtls_aes_decrypt
ARM GAS  C:\Users\Phuong\AppData\Local\Temp\ccyLHZOj.s 			page 66


 2617              		.section	.text.mbedtls_aes_crypt_ecb,"ax",%progbits
 2618              		.align	2
 2619              		.global	mbedtls_aes_crypt_ecb
 2620              		.code	16
 2621              		.thumb_func
 2622              		.type	mbedtls_aes_crypt_ecb, %function
 2623              	mbedtls_aes_crypt_ecb:
 2624              	.LFB10:
 973:Source\mbedtls_open\library/aes.c **** #endif /* !MBEDTLS_DEPRECATED_REMOVED */
 974:Source\mbedtls_open\library/aes.c **** 
 975:Source\mbedtls_open\library/aes.c **** /*
 976:Source\mbedtls_open\library/aes.c ****  * AES-ECB block encryption/decryption
 977:Source\mbedtls_open\library/aes.c ****  */
 978:Source\mbedtls_open\library/aes.c **** int mbedtls_aes_crypt_ecb( mbedtls_aes_context *ctx,
 979:Source\mbedtls_open\library/aes.c ****                     int mode,
 980:Source\mbedtls_open\library/aes.c ****                     const unsigned char input[16],
 981:Source\mbedtls_open\library/aes.c ****                     unsigned char output[16] )
 982:Source\mbedtls_open\library/aes.c **** {
 2625              		.loc 1 982 0
 2626              		.cfi_startproc
 2627              		@ args = 0, pretend = 0, frame = 0
 2628              		@ frame_needed = 0, uses_anonymous_args = 0
 2629              	.LVL232:
 2630 0000 10B5     		push	{r4, lr}
 2631              		.cfi_def_cfa_offset 8
 2632              		.cfi_offset 4, -8
 2633              		.cfi_offset 14, -4
 2634 0002 1400     		movs	r4, r2
 983:Source\mbedtls_open\library/aes.c **** #if defined(MBEDTLS_AESNI_C) && defined(MBEDTLS_HAVE_X86_64)
 984:Source\mbedtls_open\library/aes.c ****     if( mbedtls_aesni_has_support( MBEDTLS_AESNI_AES ) )
 985:Source\mbedtls_open\library/aes.c ****         return( mbedtls_aesni_crypt_ecb( ctx, mode, input, output ) );
 986:Source\mbedtls_open\library/aes.c **** #endif
 987:Source\mbedtls_open\library/aes.c **** 
 988:Source\mbedtls_open\library/aes.c **** #if defined(MBEDTLS_PADLOCK_C) && defined(MBEDTLS_HAVE_X86)
 989:Source\mbedtls_open\library/aes.c ****     if( aes_padlock_ace )
 990:Source\mbedtls_open\library/aes.c ****     {
 991:Source\mbedtls_open\library/aes.c ****         if( mbedtls_padlock_xcryptecb( ctx, mode, input, output ) == 0 )
 992:Source\mbedtls_open\library/aes.c ****             return( 0 );
 993:Source\mbedtls_open\library/aes.c **** 
 994:Source\mbedtls_open\library/aes.c ****         // If padlock data misaligned, we just fall back to
 995:Source\mbedtls_open\library/aes.c ****         // unaccelerated mode
 996:Source\mbedtls_open\library/aes.c ****         //
 997:Source\mbedtls_open\library/aes.c ****     }
 998:Source\mbedtls_open\library/aes.c **** #endif
 999:Source\mbedtls_open\library/aes.c **** 
1000:Source\mbedtls_open\library/aes.c ****     if( mode == MBEDTLS_AES_ENCRYPT )
 2635              		.loc 1 1000 0
 2636 0004 0129     		cmp	r1, #1
 2637 0006 04D1     		bne	.L73
1001:Source\mbedtls_open\library/aes.c ****         return( mbedtls_internal_aes_encrypt( ctx, input, output ) );
 2638              		.loc 1 1001 0
 2639 0008 1A00     		movs	r2, r3
 2640              	.LVL233:
 2641 000a 2100     		movs	r1, r4
 2642              	.LVL234:
 2643 000c FFF7FEFF 		bl	mbedtls_internal_aes_encrypt
 2644              	.LVL235:
ARM GAS  C:\Users\Phuong\AppData\Local\Temp\ccyLHZOj.s 			page 67


 2645 0010 03E0     		b	.L74
 2646              	.LVL236:
 2647              	.L73:
1002:Source\mbedtls_open\library/aes.c ****     else
1003:Source\mbedtls_open\library/aes.c ****         return( mbedtls_internal_aes_decrypt( ctx, input, output ) );
 2648              		.loc 1 1003 0
 2649 0012 1A00     		movs	r2, r3
 2650              	.LVL237:
 2651 0014 2100     		movs	r1, r4
 2652              	.LVL238:
 2653 0016 FFF7FEFF 		bl	mbedtls_internal_aes_decrypt
 2654              	.LVL239:
 2655              	.L74:
1004:Source\mbedtls_open\library/aes.c **** }
 2656              		.loc 1 1004 0
 2657              		@ sp needed
 2658              	.LVL240:
 2659 001a 10BD     		pop	{r4, pc}
 2660              		.cfi_endproc
 2661              	.LFE10:
 2662              		.size	mbedtls_aes_crypt_ecb, .-mbedtls_aes_crypt_ecb
 2663              		.section	.text.mbedtls_aes_crypt_cbc,"ax",%progbits
 2664              		.align	2
 2665              		.global	mbedtls_aes_crypt_cbc
 2666              		.code	16
 2667              		.thumb_func
 2668              		.type	mbedtls_aes_crypt_cbc, %function
 2669              	mbedtls_aes_crypt_cbc:
 2670              	.LFB11:
1005:Source\mbedtls_open\library/aes.c **** 
1006:Source\mbedtls_open\library/aes.c **** #if defined(MBEDTLS_CIPHER_MODE_CBC)
1007:Source\mbedtls_open\library/aes.c **** /*
1008:Source\mbedtls_open\library/aes.c ****  * AES-CBC buffer encryption/decryption
1009:Source\mbedtls_open\library/aes.c ****  */
1010:Source\mbedtls_open\library/aes.c **** int mbedtls_aes_crypt_cbc( mbedtls_aes_context *ctx,
1011:Source\mbedtls_open\library/aes.c ****                     int mode,
1012:Source\mbedtls_open\library/aes.c ****                     size_t length,
1013:Source\mbedtls_open\library/aes.c ****                     unsigned char iv[16],
1014:Source\mbedtls_open\library/aes.c ****                     const unsigned char *input,
1015:Source\mbedtls_open\library/aes.c ****                     unsigned char *output )
1016:Source\mbedtls_open\library/aes.c **** {
 2671              		.loc 1 1016 0
 2672              		.cfi_startproc
 2673              		@ args = 8, pretend = 0, frame = 24
 2674              		@ frame_needed = 0, uses_anonymous_args = 0
 2675              	.LVL241:
 2676 0000 F0B5     		push	{r4, r5, r6, r7, lr}
 2677              		.cfi_def_cfa_offset 20
 2678              		.cfi_offset 4, -20
 2679              		.cfi_offset 5, -16
 2680              		.cfi_offset 6, -12
 2681              		.cfi_offset 7, -8
 2682              		.cfi_offset 14, -4
 2683 0002 87B0     		sub	sp, sp, #28
 2684              		.cfi_def_cfa_offset 48
 2685 0004 0090     		str	r0, [sp]
 2686 0006 0191     		str	r1, [sp, #4]
ARM GAS  C:\Users\Phuong\AppData\Local\Temp\ccyLHZOj.s 			page 68


 2687 0008 1500     		movs	r5, r2
 2688 000a 1F00     		movs	r7, r3
 2689 000c 0C9C     		ldr	r4, [sp, #48]
 2690 000e 0D9E     		ldr	r6, [sp, #52]
1017:Source\mbedtls_open\library/aes.c ****     int i;
1018:Source\mbedtls_open\library/aes.c ****     unsigned char temp[16];
1019:Source\mbedtls_open\library/aes.c **** 
1020:Source\mbedtls_open\library/aes.c ****     if( length % 16 )
 2691              		.loc 1 1020 0
 2692 0010 1307     		lsls	r3, r2, #28
 2693 0012 3ED1     		bne	.L84
 2694              	.LVL242:
1021:Source\mbedtls_open\library/aes.c ****         return( MBEDTLS_ERR_AES_INVALID_INPUT_LENGTH );
1022:Source\mbedtls_open\library/aes.c **** 
1023:Source\mbedtls_open\library/aes.c **** #if defined(MBEDTLS_PADLOCK_C) && defined(MBEDTLS_HAVE_X86)
1024:Source\mbedtls_open\library/aes.c ****     if( aes_padlock_ace )
1025:Source\mbedtls_open\library/aes.c ****     {
1026:Source\mbedtls_open\library/aes.c ****         if( mbedtls_padlock_xcryptcbc( ctx, mode, length, iv, input, output ) == 0 )
1027:Source\mbedtls_open\library/aes.c ****             return( 0 );
1028:Source\mbedtls_open\library/aes.c **** 
1029:Source\mbedtls_open\library/aes.c ****         // If padlock data misaligned, we just fall back to
1030:Source\mbedtls_open\library/aes.c ****         // unaccelerated mode
1031:Source\mbedtls_open\library/aes.c ****         //
1032:Source\mbedtls_open\library/aes.c ****     }
1033:Source\mbedtls_open\library/aes.c **** #endif
1034:Source\mbedtls_open\library/aes.c **** 
1035:Source\mbedtls_open\library/aes.c ****     if( mode == MBEDTLS_AES_DECRYPT )
 2695              		.loc 1 1035 0
 2696 0014 0029     		cmp	r1, #0
 2697 0016 1DD0     		beq	.L77
 2698 0018 37E0     		b	.L78
 2699              	.LVL243:
 2700              	.L81:
1036:Source\mbedtls_open\library/aes.c ****     {
1037:Source\mbedtls_open\library/aes.c ****         while( length > 0 )
1038:Source\mbedtls_open\library/aes.c ****         {
1039:Source\mbedtls_open\library/aes.c ****             memcpy( temp, input, 16 );
 2701              		.loc 1 1039 0
 2702 001a 1022     		movs	r2, #16
 2703 001c 2100     		movs	r1, r4
 2704 001e 02A8     		add	r0, sp, #8
 2705 0020 FFF7FEFF 		bl	memcpy
 2706              	.LVL244:
1040:Source\mbedtls_open\library/aes.c ****             mbedtls_aes_crypt_ecb( ctx, mode, input, output );
 2707              		.loc 1 1040 0
 2708 0024 3300     		movs	r3, r6
 2709 0026 2200     		movs	r2, r4
 2710 0028 0199     		ldr	r1, [sp, #4]
 2711 002a 0098     		ldr	r0, [sp]
 2712 002c FFF7FEFF 		bl	mbedtls_aes_crypt_ecb
 2713              	.LVL245:
1041:Source\mbedtls_open\library/aes.c **** 
1042:Source\mbedtls_open\library/aes.c ****             for( i = 0; i < 16; i++ )
 2714              		.loc 1 1042 0
 2715 0030 0023     		movs	r3, #0
 2716 0032 05E0     		b	.L79
 2717              	.LVL246:
ARM GAS  C:\Users\Phuong\AppData\Local\Temp\ccyLHZOj.s 			page 69


 2718              	.L80:
1043:Source\mbedtls_open\library/aes.c ****                 output[i] = (unsigned char)( output[i] ^ iv[i] );
 2719              		.loc 1 1043 0 discriminator 3
 2720 0034 F118     		adds	r1, r6, r3
 2721 0036 0878     		ldrb	r0, [r1]
 2722 0038 FA5C     		ldrb	r2, [r7, r3]
 2723 003a 4240     		eors	r2, r0
 2724 003c 0A70     		strb	r2, [r1]
1042:Source\mbedtls_open\library/aes.c ****                 output[i] = (unsigned char)( output[i] ^ iv[i] );
 2725              		.loc 1 1042 0 discriminator 3
 2726 003e 0133     		adds	r3, r3, #1
 2727              	.LVL247:
 2728              	.L79:
1042:Source\mbedtls_open\library/aes.c ****                 output[i] = (unsigned char)( output[i] ^ iv[i] );
 2729              		.loc 1 1042 0 is_stmt 0 discriminator 1
 2730 0040 0F2B     		cmp	r3, #15
 2731 0042 F7DD     		ble	.L80
1044:Source\mbedtls_open\library/aes.c **** 
1045:Source\mbedtls_open\library/aes.c ****             memcpy( iv, temp, 16 );
 2732              		.loc 1 1045 0 is_stmt 1
 2733 0044 1022     		movs	r2, #16
 2734 0046 02A9     		add	r1, sp, #8
 2735 0048 3800     		movs	r0, r7
 2736 004a FFF7FEFF 		bl	memcpy
 2737              	.LVL248:
1046:Source\mbedtls_open\library/aes.c **** 
1047:Source\mbedtls_open\library/aes.c ****             input  += 16;
 2738              		.loc 1 1047 0
 2739 004e 1034     		adds	r4, r4, #16
 2740              	.LVL249:
1048:Source\mbedtls_open\library/aes.c ****             output += 16;
 2741              		.loc 1 1048 0
 2742 0050 1036     		adds	r6, r6, #16
 2743              	.LVL250:
1049:Source\mbedtls_open\library/aes.c ****             length -= 16;
 2744              		.loc 1 1049 0
 2745 0052 103D     		subs	r5, r5, #16
 2746              	.LVL251:
 2747              	.L77:
1037:Source\mbedtls_open\library/aes.c ****         {
 2748              		.loc 1 1037 0
 2749 0054 002D     		cmp	r5, #0
 2750 0056 E0D1     		bne	.L81
1050:Source\mbedtls_open\library/aes.c ****         }
1051:Source\mbedtls_open\library/aes.c ****     }
1052:Source\mbedtls_open\library/aes.c ****     else
1053:Source\mbedtls_open\library/aes.c ****     {
1054:Source\mbedtls_open\library/aes.c ****         while( length > 0 )
1055:Source\mbedtls_open\library/aes.c ****         {
1056:Source\mbedtls_open\library/aes.c ****             for( i = 0; i < 16; i++ )
1057:Source\mbedtls_open\library/aes.c ****                 output[i] = (unsigned char)( input[i] ^ iv[i] );
1058:Source\mbedtls_open\library/aes.c **** 
1059:Source\mbedtls_open\library/aes.c ****             mbedtls_aes_crypt_ecb( ctx, mode, output, output );
1060:Source\mbedtls_open\library/aes.c ****             memcpy( iv, output, 16 );
1061:Source\mbedtls_open\library/aes.c **** 
1062:Source\mbedtls_open\library/aes.c ****             input  += 16;
1063:Source\mbedtls_open\library/aes.c ****             output += 16;
ARM GAS  C:\Users\Phuong\AppData\Local\Temp\ccyLHZOj.s 			page 70


1064:Source\mbedtls_open\library/aes.c ****             length -= 16;
1065:Source\mbedtls_open\library/aes.c ****         }
1066:Source\mbedtls_open\library/aes.c ****     }
1067:Source\mbedtls_open\library/aes.c **** 
1068:Source\mbedtls_open\library/aes.c ****     return( 0 );
 2751              		.loc 1 1068 0
 2752 0058 0020     		movs	r0, #0
 2753 005a 1CE0     		b	.L76
 2754              	.LVL252:
 2755              	.L82:
1057:Source\mbedtls_open\library/aes.c **** 
 2756              		.loc 1 1057 0 discriminator 3
 2757 005c E15C     		ldrb	r1, [r4, r3]
 2758 005e FA5C     		ldrb	r2, [r7, r3]
 2759 0060 4A40     		eors	r2, r1
 2760 0062 F254     		strb	r2, [r6, r3]
1056:Source\mbedtls_open\library/aes.c ****                 output[i] = (unsigned char)( input[i] ^ iv[i] );
 2761              		.loc 1 1056 0 discriminator 3
 2762 0064 0133     		adds	r3, r3, #1
 2763              	.LVL253:
 2764 0066 00E0     		b	.L83
 2765              	.LVL254:
 2766              	.L85:
 2767 0068 0023     		movs	r3, #0
 2768              	.L83:
 2769              	.LVL255:
1056:Source\mbedtls_open\library/aes.c ****                 output[i] = (unsigned char)( input[i] ^ iv[i] );
 2770              		.loc 1 1056 0 is_stmt 0 discriminator 1
 2771 006a 0F2B     		cmp	r3, #15
 2772 006c F6DD     		ble	.L82
1059:Source\mbedtls_open\library/aes.c ****             memcpy( iv, output, 16 );
 2773              		.loc 1 1059 0 is_stmt 1
 2774 006e 3300     		movs	r3, r6
 2775              	.LVL256:
 2776 0070 3200     		movs	r2, r6
 2777 0072 0199     		ldr	r1, [sp, #4]
 2778 0074 0098     		ldr	r0, [sp]
 2779 0076 FFF7FEFF 		bl	mbedtls_aes_crypt_ecb
 2780              	.LVL257:
1060:Source\mbedtls_open\library/aes.c **** 
 2781              		.loc 1 1060 0
 2782 007a 1022     		movs	r2, #16
 2783 007c 3100     		movs	r1, r6
 2784 007e 3800     		movs	r0, r7
 2785 0080 FFF7FEFF 		bl	memcpy
 2786              	.LVL258:
1062:Source\mbedtls_open\library/aes.c ****             output += 16;
 2787              		.loc 1 1062 0
 2788 0084 1034     		adds	r4, r4, #16
 2789              	.LVL259:
1063:Source\mbedtls_open\library/aes.c ****             length -= 16;
 2790              		.loc 1 1063 0
 2791 0086 1036     		adds	r6, r6, #16
 2792              	.LVL260:
1064:Source\mbedtls_open\library/aes.c ****         }
 2793              		.loc 1 1064 0
 2794 0088 103D     		subs	r5, r5, #16
ARM GAS  C:\Users\Phuong\AppData\Local\Temp\ccyLHZOj.s 			page 71


 2795              	.LVL261:
 2796              	.L78:
1054:Source\mbedtls_open\library/aes.c ****         {
 2797              		.loc 1 1054 0
 2798 008a 002D     		cmp	r5, #0
 2799 008c ECD1     		bne	.L85
 2800              		.loc 1 1068 0
 2801 008e 0020     		movs	r0, #0
 2802 0090 01E0     		b	.L76
 2803              	.LVL262:
 2804              	.L84:
1021:Source\mbedtls_open\library/aes.c **** 
 2805              		.loc 1 1021 0
 2806 0092 2220     		movs	r0, #34
 2807              	.LVL263:
 2808 0094 4042     		rsbs	r0, r0, #0
 2809              	.LVL264:
 2810              	.L76:
1069:Source\mbedtls_open\library/aes.c **** }
 2811              		.loc 1 1069 0
 2812 0096 07B0     		add	sp, sp, #28
 2813              	.LVL265:
 2814              		@ sp needed
 2815              	.LVL266:
 2816              	.LVL267:
 2817 0098 F0BD     		pop	{r4, r5, r6, r7, pc}
 2818              		.cfi_endproc
 2819              	.LFE11:
 2820              		.size	mbedtls_aes_crypt_cbc, .-mbedtls_aes_crypt_cbc
 2821 009a C046     		.section	.text.mbedtls_aes_crypt_cfb128,"ax",%progbits
 2822              		.align	2
 2823              		.global	mbedtls_aes_crypt_cfb128
 2824              		.code	16
 2825              		.thumb_func
 2826              		.type	mbedtls_aes_crypt_cfb128, %function
 2827              	mbedtls_aes_crypt_cfb128:
 2828              	.LFB12:
1070:Source\mbedtls_open\library/aes.c **** #endif /* MBEDTLS_CIPHER_MODE_CBC */
1071:Source\mbedtls_open\library/aes.c **** 
1072:Source\mbedtls_open\library/aes.c **** #if defined(MBEDTLS_CIPHER_MODE_XTS)
1073:Source\mbedtls_open\library/aes.c **** 
1074:Source\mbedtls_open\library/aes.c **** /* Endianess with 64 bits values */
1075:Source\mbedtls_open\library/aes.c **** #ifndef GET_UINT64_LE
1076:Source\mbedtls_open\library/aes.c **** #define GET_UINT64_LE(n,b,i)                            \
1077:Source\mbedtls_open\library/aes.c **** {                                                       \
1078:Source\mbedtls_open\library/aes.c ****     (n) = ( (uint64_t) (b)[(i) + 7] << 56 )             \
1079:Source\mbedtls_open\library/aes.c ****         | ( (uint64_t) (b)[(i) + 6] << 48 )             \
1080:Source\mbedtls_open\library/aes.c ****         | ( (uint64_t) (b)[(i) + 5] << 40 )             \
1081:Source\mbedtls_open\library/aes.c ****         | ( (uint64_t) (b)[(i) + 4] << 32 )             \
1082:Source\mbedtls_open\library/aes.c ****         | ( (uint64_t) (b)[(i) + 3] << 24 )             \
1083:Source\mbedtls_open\library/aes.c ****         | ( (uint64_t) (b)[(i) + 2] << 16 )             \
1084:Source\mbedtls_open\library/aes.c ****         | ( (uint64_t) (b)[(i) + 1] <<  8 )             \
1085:Source\mbedtls_open\library/aes.c ****         | ( (uint64_t) (b)[(i)    ]       );            \
1086:Source\mbedtls_open\library/aes.c **** }
1087:Source\mbedtls_open\library/aes.c **** #endif
1088:Source\mbedtls_open\library/aes.c **** 
1089:Source\mbedtls_open\library/aes.c **** #ifndef PUT_UINT64_LE
ARM GAS  C:\Users\Phuong\AppData\Local\Temp\ccyLHZOj.s 			page 72


1090:Source\mbedtls_open\library/aes.c **** #define PUT_UINT64_LE(n,b,i)                            \
1091:Source\mbedtls_open\library/aes.c **** {                                                       \
1092:Source\mbedtls_open\library/aes.c ****     (b)[(i) + 7] = (unsigned char) ( (n) >> 56 );       \
1093:Source\mbedtls_open\library/aes.c ****     (b)[(i) + 6] = (unsigned char) ( (n) >> 48 );       \
1094:Source\mbedtls_open\library/aes.c ****     (b)[(i) + 5] = (unsigned char) ( (n) >> 40 );       \
1095:Source\mbedtls_open\library/aes.c ****     (b)[(i) + 4] = (unsigned char) ( (n) >> 32 );       \
1096:Source\mbedtls_open\library/aes.c ****     (b)[(i) + 3] = (unsigned char) ( (n) >> 24 );       \
1097:Source\mbedtls_open\library/aes.c ****     (b)[(i) + 2] = (unsigned char) ( (n) >> 16 );       \
1098:Source\mbedtls_open\library/aes.c ****     (b)[(i) + 1] = (unsigned char) ( (n) >>  8 );       \
1099:Source\mbedtls_open\library/aes.c ****     (b)[(i)    ] = (unsigned char) ( (n)       );       \
1100:Source\mbedtls_open\library/aes.c **** }
1101:Source\mbedtls_open\library/aes.c **** #endif
1102:Source\mbedtls_open\library/aes.c **** 
1103:Source\mbedtls_open\library/aes.c **** typedef unsigned char mbedtls_be128[16];
1104:Source\mbedtls_open\library/aes.c **** 
1105:Source\mbedtls_open\library/aes.c **** /*
1106:Source\mbedtls_open\library/aes.c ****  * GF(2^128) multiplication function
1107:Source\mbedtls_open\library/aes.c ****  *
1108:Source\mbedtls_open\library/aes.c ****  * This function multiplies a field element by x in the polynomial field
1109:Source\mbedtls_open\library/aes.c ****  * representation. It uses 64-bit word operations to gain speed but compensates
1110:Source\mbedtls_open\library/aes.c ****  * for machine endianess and hence works correctly on both big and little
1111:Source\mbedtls_open\library/aes.c ****  * endian machines.
1112:Source\mbedtls_open\library/aes.c ****  */
1113:Source\mbedtls_open\library/aes.c **** static void mbedtls_gf128mul_x_ble( unsigned char r[16],
1114:Source\mbedtls_open\library/aes.c ****                                     const unsigned char x[16] )
1115:Source\mbedtls_open\library/aes.c **** {
1116:Source\mbedtls_open\library/aes.c ****     uint64_t a, b, ra, rb;
1117:Source\mbedtls_open\library/aes.c **** 
1118:Source\mbedtls_open\library/aes.c ****     GET_UINT64_LE( a, x, 0 );
1119:Source\mbedtls_open\library/aes.c ****     GET_UINT64_LE( b, x, 8 );
1120:Source\mbedtls_open\library/aes.c **** 
1121:Source\mbedtls_open\library/aes.c ****     ra = ( a << 1 )  ^ 0x0087 >> ( 8 - ( ( b >> 63 ) << 3 ) );
1122:Source\mbedtls_open\library/aes.c ****     rb = ( a >> 63 ) | ( b << 1 );
1123:Source\mbedtls_open\library/aes.c **** 
1124:Source\mbedtls_open\library/aes.c ****     PUT_UINT64_LE( ra, r, 0 );
1125:Source\mbedtls_open\library/aes.c ****     PUT_UINT64_LE( rb, r, 8 );
1126:Source\mbedtls_open\library/aes.c **** }
1127:Source\mbedtls_open\library/aes.c **** 
1128:Source\mbedtls_open\library/aes.c **** /*
1129:Source\mbedtls_open\library/aes.c ****  * AES-XTS buffer encryption/decryption
1130:Source\mbedtls_open\library/aes.c ****  */
1131:Source\mbedtls_open\library/aes.c **** int mbedtls_aes_crypt_xts( mbedtls_aes_xts_context *ctx,
1132:Source\mbedtls_open\library/aes.c ****                            int mode,
1133:Source\mbedtls_open\library/aes.c ****                            size_t length,
1134:Source\mbedtls_open\library/aes.c ****                            const unsigned char data_unit[16],
1135:Source\mbedtls_open\library/aes.c ****                            const unsigned char *input,
1136:Source\mbedtls_open\library/aes.c ****                            unsigned char *output )
1137:Source\mbedtls_open\library/aes.c **** {
1138:Source\mbedtls_open\library/aes.c ****     int ret;
1139:Source\mbedtls_open\library/aes.c ****     size_t blocks = length / 16;
1140:Source\mbedtls_open\library/aes.c ****     size_t leftover = length % 16;
1141:Source\mbedtls_open\library/aes.c ****     unsigned char tweak[16];
1142:Source\mbedtls_open\library/aes.c ****     unsigned char prev_tweak[16];
1143:Source\mbedtls_open\library/aes.c ****     unsigned char tmp[16];
1144:Source\mbedtls_open\library/aes.c **** 
1145:Source\mbedtls_open\library/aes.c ****     /* Sectors must be at least 16 bytes. */
1146:Source\mbedtls_open\library/aes.c ****     if( length < 16 )
ARM GAS  C:\Users\Phuong\AppData\Local\Temp\ccyLHZOj.s 			page 73


1147:Source\mbedtls_open\library/aes.c ****         return MBEDTLS_ERR_AES_INVALID_INPUT_LENGTH;
1148:Source\mbedtls_open\library/aes.c **** 
1149:Source\mbedtls_open\library/aes.c ****     /* NIST SP 80-38E disallows data units larger than 2**20 blocks. */
1150:Source\mbedtls_open\library/aes.c ****     if( length > ( 1 << 20 ) * 16 )
1151:Source\mbedtls_open\library/aes.c ****         return MBEDTLS_ERR_AES_INVALID_INPUT_LENGTH;
1152:Source\mbedtls_open\library/aes.c **** 
1153:Source\mbedtls_open\library/aes.c ****     /* Compute the tweak. */
1154:Source\mbedtls_open\library/aes.c ****     ret = mbedtls_aes_crypt_ecb( &ctx->tweak, MBEDTLS_AES_ENCRYPT,
1155:Source\mbedtls_open\library/aes.c ****                                  data_unit, tweak );
1156:Source\mbedtls_open\library/aes.c ****     if( ret != 0 )
1157:Source\mbedtls_open\library/aes.c ****         return( ret );
1158:Source\mbedtls_open\library/aes.c **** 
1159:Source\mbedtls_open\library/aes.c ****     while( blocks-- )
1160:Source\mbedtls_open\library/aes.c ****     {
1161:Source\mbedtls_open\library/aes.c ****         size_t i;
1162:Source\mbedtls_open\library/aes.c **** 
1163:Source\mbedtls_open\library/aes.c ****         if( leftover && ( mode == MBEDTLS_AES_DECRYPT ) && blocks == 0 )
1164:Source\mbedtls_open\library/aes.c ****         {
1165:Source\mbedtls_open\library/aes.c ****             /* We are on the last block in a decrypt operation that has
1166:Source\mbedtls_open\library/aes.c ****              * leftover bytes, so we need to use the next tweak for this block,
1167:Source\mbedtls_open\library/aes.c ****              * and this tweak for the lefover bytes. Save the current tweak for
1168:Source\mbedtls_open\library/aes.c ****              * the leftovers and then update the current tweak for use on this,
1169:Source\mbedtls_open\library/aes.c ****              * the last full block. */
1170:Source\mbedtls_open\library/aes.c ****             memcpy( prev_tweak, tweak, sizeof( tweak ) );
1171:Source\mbedtls_open\library/aes.c ****             mbedtls_gf128mul_x_ble( tweak, tweak );
1172:Source\mbedtls_open\library/aes.c ****         }
1173:Source\mbedtls_open\library/aes.c **** 
1174:Source\mbedtls_open\library/aes.c ****         for( i = 0; i < 16; i++ )
1175:Source\mbedtls_open\library/aes.c ****             tmp[i] = input[i] ^ tweak[i];
1176:Source\mbedtls_open\library/aes.c **** 
1177:Source\mbedtls_open\library/aes.c ****         ret = mbedtls_aes_crypt_ecb( &ctx->crypt, mode, tmp, tmp );
1178:Source\mbedtls_open\library/aes.c ****         if( ret != 0 )
1179:Source\mbedtls_open\library/aes.c ****             return( ret );
1180:Source\mbedtls_open\library/aes.c **** 
1181:Source\mbedtls_open\library/aes.c ****         for( i = 0; i < 16; i++ )
1182:Source\mbedtls_open\library/aes.c ****             output[i] = tmp[i] ^ tweak[i];
1183:Source\mbedtls_open\library/aes.c **** 
1184:Source\mbedtls_open\library/aes.c ****         /* Update the tweak for the next block. */
1185:Source\mbedtls_open\library/aes.c ****         mbedtls_gf128mul_x_ble( tweak, tweak );
1186:Source\mbedtls_open\library/aes.c **** 
1187:Source\mbedtls_open\library/aes.c ****         output += 16;
1188:Source\mbedtls_open\library/aes.c ****         input += 16;
1189:Source\mbedtls_open\library/aes.c ****     }
1190:Source\mbedtls_open\library/aes.c **** 
1191:Source\mbedtls_open\library/aes.c ****     if( leftover )
1192:Source\mbedtls_open\library/aes.c ****     {
1193:Source\mbedtls_open\library/aes.c ****         /* If we are on the leftover bytes in a decrypt operation, we need to
1194:Source\mbedtls_open\library/aes.c ****          * use the previous tweak for these bytes (as saved in prev_tweak). */
1195:Source\mbedtls_open\library/aes.c ****         unsigned char *t = mode == MBEDTLS_AES_DECRYPT ? prev_tweak : tweak;
1196:Source\mbedtls_open\library/aes.c **** 
1197:Source\mbedtls_open\library/aes.c ****         /* We are now on the final part of the data unit, which doesn't divide
1198:Source\mbedtls_open\library/aes.c ****          * evenly by 16. It's time for ciphertext stealing. */
1199:Source\mbedtls_open\library/aes.c ****         size_t i;
1200:Source\mbedtls_open\library/aes.c ****         unsigned char *prev_output = output - 16;
1201:Source\mbedtls_open\library/aes.c **** 
1202:Source\mbedtls_open\library/aes.c ****         /* Copy ciphertext bytes from the previous block to our output for each
1203:Source\mbedtls_open\library/aes.c ****          * byte of cyphertext we won't steal. At the same time, copy the
ARM GAS  C:\Users\Phuong\AppData\Local\Temp\ccyLHZOj.s 			page 74


1204:Source\mbedtls_open\library/aes.c ****          * remainder of the input for this final round (since the loop bounds
1205:Source\mbedtls_open\library/aes.c ****          * are the same). */
1206:Source\mbedtls_open\library/aes.c ****         for( i = 0; i < leftover; i++ )
1207:Source\mbedtls_open\library/aes.c ****         {
1208:Source\mbedtls_open\library/aes.c ****             output[i] = prev_output[i];
1209:Source\mbedtls_open\library/aes.c ****             tmp[i] = input[i] ^ t[i];
1210:Source\mbedtls_open\library/aes.c ****         }
1211:Source\mbedtls_open\library/aes.c **** 
1212:Source\mbedtls_open\library/aes.c ****         /* Copy ciphertext bytes from the previous block for input in this
1213:Source\mbedtls_open\library/aes.c ****          * round. */
1214:Source\mbedtls_open\library/aes.c ****         for( ; i < 16; i++ )
1215:Source\mbedtls_open\library/aes.c ****             tmp[i] = prev_output[i] ^ t[i];
1216:Source\mbedtls_open\library/aes.c **** 
1217:Source\mbedtls_open\library/aes.c ****         ret = mbedtls_aes_crypt_ecb( &ctx->crypt, mode, tmp, tmp );
1218:Source\mbedtls_open\library/aes.c ****         if( ret != 0 )
1219:Source\mbedtls_open\library/aes.c ****             return ret;
1220:Source\mbedtls_open\library/aes.c **** 
1221:Source\mbedtls_open\library/aes.c ****         /* Write the result back to the previous block, overriding the previous
1222:Source\mbedtls_open\library/aes.c ****          * output we copied. */
1223:Source\mbedtls_open\library/aes.c ****         for( i = 0; i < 16; i++ )
1224:Source\mbedtls_open\library/aes.c ****             prev_output[i] = tmp[i] ^ t[i];
1225:Source\mbedtls_open\library/aes.c ****     }
1226:Source\mbedtls_open\library/aes.c **** 
1227:Source\mbedtls_open\library/aes.c ****     return( 0 );
1228:Source\mbedtls_open\library/aes.c **** }
1229:Source\mbedtls_open\library/aes.c **** #endif /* MBEDTLS_CIPHER_MODE_XTS */
1230:Source\mbedtls_open\library/aes.c **** 
1231:Source\mbedtls_open\library/aes.c **** #if defined(MBEDTLS_CIPHER_MODE_CFB)
1232:Source\mbedtls_open\library/aes.c **** /*
1233:Source\mbedtls_open\library/aes.c ****  * AES-CFB128 buffer encryption/decryption
1234:Source\mbedtls_open\library/aes.c ****  */
1235:Source\mbedtls_open\library/aes.c **** int mbedtls_aes_crypt_cfb128( mbedtls_aes_context *ctx,
1236:Source\mbedtls_open\library/aes.c ****                        int mode,
1237:Source\mbedtls_open\library/aes.c ****                        size_t length,
1238:Source\mbedtls_open\library/aes.c ****                        size_t *iv_off,
1239:Source\mbedtls_open\library/aes.c ****                        unsigned char iv[16],
1240:Source\mbedtls_open\library/aes.c ****                        const unsigned char *input,
1241:Source\mbedtls_open\library/aes.c ****                        unsigned char *output )
1242:Source\mbedtls_open\library/aes.c **** {
 2829              		.loc 1 1242 0
 2830              		.cfi_startproc
 2831              		@ args = 12, pretend = 0, frame = 8
 2832              		@ frame_needed = 0, uses_anonymous_args = 0
 2833              	.LVL268:
 2834 0000 F0B5     		push	{r4, r5, r6, r7, lr}
 2835              		.cfi_def_cfa_offset 20
 2836              		.cfi_offset 4, -20
 2837              		.cfi_offset 5, -16
 2838              		.cfi_offset 6, -12
 2839              		.cfi_offset 7, -8
 2840              		.cfi_offset 14, -4
 2841 0002 4F46     		mov	r7, r9
 2842 0004 4646     		mov	r6, r8
 2843 0006 C0B4     		push	{r6, r7}
 2844              		.cfi_def_cfa_offset 28
 2845              		.cfi_offset 8, -28
 2846              		.cfi_offset 9, -24
ARM GAS  C:\Users\Phuong\AppData\Local\Temp\ccyLHZOj.s 			page 75


 2847 0008 83B0     		sub	sp, sp, #12
 2848              		.cfi_def_cfa_offset 40
 2849 000a 0190     		str	r0, [sp, #4]
 2850 000c 9846     		mov	r8, r3
 2851 000e 0A9E     		ldr	r6, [sp, #40]
 2852 0010 0B9D     		ldr	r5, [sp, #44]
 2853 0012 0C9F     		ldr	r7, [sp, #48]
1243:Source\mbedtls_open\library/aes.c ****     int c;
1244:Source\mbedtls_open\library/aes.c ****     size_t n = *iv_off;
 2854              		.loc 1 1244 0
 2855 0014 1C68     		ldr	r4, [r3]
 2856              	.LVL269:
1245:Source\mbedtls_open\library/aes.c **** 
1246:Source\mbedtls_open\library/aes.c ****     if( mode == MBEDTLS_AES_DECRYPT )
 2857              		.loc 1 1246 0
 2858 0016 0029     		cmp	r1, #0
 2859 0018 14D0     		beq	.L87
 2860 001a 2CE0     		b	.L88
 2861              	.LVL270:
 2862              	.L90:
1247:Source\mbedtls_open\library/aes.c ****     {
1248:Source\mbedtls_open\library/aes.c ****         while( length-- )
1249:Source\mbedtls_open\library/aes.c ****         {
1250:Source\mbedtls_open\library/aes.c ****             if( n == 0 )
 2863              		.loc 1 1250 0
 2864 001c 002C     		cmp	r4, #0
 2865 001e 05D1     		bne	.L89
1251:Source\mbedtls_open\library/aes.c ****                 mbedtls_aes_crypt_ecb( ctx, MBEDTLS_AES_ENCRYPT, iv, iv );
 2866              		.loc 1 1251 0
 2867 0020 3300     		movs	r3, r6
 2868              	.LVL271:
 2869 0022 3200     		movs	r2, r6
 2870 0024 0121     		movs	r1, #1
 2871 0026 0198     		ldr	r0, [sp, #4]
 2872 0028 FFF7FEFF 		bl	mbedtls_aes_crypt_ecb
 2873              	.LVL272:
 2874              	.L89:
1252:Source\mbedtls_open\library/aes.c **** 
1253:Source\mbedtls_open\library/aes.c ****             c = *input++;
 2875              		.loc 1 1253 0
 2876 002c 2978     		ldrb	r1, [r5]
 2877              	.LVL273:
1254:Source\mbedtls_open\library/aes.c ****             *output++ = (unsigned char)( c ^ iv[n] );
 2878              		.loc 1 1254 0
 2879 002e 3219     		adds	r2, r6, r4
 2880 0030 1378     		ldrb	r3, [r2]
 2881 0032 4B40     		eors	r3, r1
 2882 0034 3B70     		strb	r3, [r7]
1255:Source\mbedtls_open\library/aes.c ****             iv[n] = (unsigned char) c;
 2883              		.loc 1 1255 0
 2884 0036 1170     		strb	r1, [r2]
1256:Source\mbedtls_open\library/aes.c **** 
1257:Source\mbedtls_open\library/aes.c ****             n = ( n + 1 ) & 0x0F;
 2885              		.loc 1 1257 0
 2886 0038 0134     		adds	r4, r4, #1
 2887              	.LVL274:
 2888 003a 0F23     		movs	r3, #15
ARM GAS  C:\Users\Phuong\AppData\Local\Temp\ccyLHZOj.s 			page 76


 2889 003c 1C40     		ands	r4, r3
 2890              	.LVL275:
1248:Source\mbedtls_open\library/aes.c ****         {
 2891              		.loc 1 1248 0
 2892 003e 4A46     		mov	r2, r9
1254:Source\mbedtls_open\library/aes.c ****             iv[n] = (unsigned char) c;
 2893              		.loc 1 1254 0
 2894 0040 0137     		adds	r7, r7, #1
 2895              	.LVL276:
1253:Source\mbedtls_open\library/aes.c ****             *output++ = (unsigned char)( c ^ iv[n] );
 2896              		.loc 1 1253 0
 2897 0042 0135     		adds	r5, r5, #1
 2898              	.LVL277:
 2899              	.L87:
1248:Source\mbedtls_open\library/aes.c ****         {
 2900              		.loc 1 1248 0
 2901 0044 531E     		subs	r3, r2, #1
 2902 0046 9946     		mov	r9, r3
 2903              	.LVL278:
 2904 0048 002A     		cmp	r2, #0
 2905 004a E7D1     		bne	.L90
 2906 004c 17E0     		b	.L91
 2907              	.L93:
1258:Source\mbedtls_open\library/aes.c ****         }
1259:Source\mbedtls_open\library/aes.c ****     }
1260:Source\mbedtls_open\library/aes.c ****     else
1261:Source\mbedtls_open\library/aes.c ****     {
1262:Source\mbedtls_open\library/aes.c ****         while( length-- )
1263:Source\mbedtls_open\library/aes.c ****         {
1264:Source\mbedtls_open\library/aes.c ****             if( n == 0 )
 2908              		.loc 1 1264 0
 2909 004e 002C     		cmp	r4, #0
 2910 0050 05D1     		bne	.L92
1265:Source\mbedtls_open\library/aes.c ****                 mbedtls_aes_crypt_ecb( ctx, MBEDTLS_AES_ENCRYPT, iv, iv );
 2911              		.loc 1 1265 0
 2912 0052 3300     		movs	r3, r6
 2913              	.LVL279:
 2914 0054 3200     		movs	r2, r6
 2915 0056 0121     		movs	r1, #1
 2916 0058 0198     		ldr	r0, [sp, #4]
 2917 005a FFF7FEFF 		bl	mbedtls_aes_crypt_ecb
 2918              	.LVL280:
 2919              	.L92:
1266:Source\mbedtls_open\library/aes.c **** 
1267:Source\mbedtls_open\library/aes.c ****             iv[n] = *output++ = (unsigned char)( iv[n] ^ *input++ );
 2920              		.loc 1 1267 0
 2921 005e 3219     		adds	r2, r6, r4
 2922 0060 1178     		ldrb	r1, [r2]
 2923              	.LVL281:
 2924 0062 2B78     		ldrb	r3, [r5]
 2925 0064 4B40     		eors	r3, r1
 2926 0066 3B70     		strb	r3, [r7]
 2927 0068 1370     		strb	r3, [r2]
1268:Source\mbedtls_open\library/aes.c **** 
1269:Source\mbedtls_open\library/aes.c ****             n = ( n + 1 ) & 0x0F;
 2928              		.loc 1 1269 0
 2929 006a 0134     		adds	r4, r4, #1
ARM GAS  C:\Users\Phuong\AppData\Local\Temp\ccyLHZOj.s 			page 77


 2930              	.LVL282:
 2931 006c 0F23     		movs	r3, #15
 2932 006e 1C40     		ands	r4, r3
 2933              	.LVL283:
1262:Source\mbedtls_open\library/aes.c ****         {
 2934              		.loc 1 1262 0
 2935 0070 4A46     		mov	r2, r9
1267:Source\mbedtls_open\library/aes.c **** 
 2936              		.loc 1 1267 0
 2937 0072 0137     		adds	r7, r7, #1
 2938              	.LVL284:
 2939 0074 0135     		adds	r5, r5, #1
 2940              	.LVL285:
 2941              	.L88:
1262:Source\mbedtls_open\library/aes.c ****         {
 2942              		.loc 1 1262 0
 2943 0076 531E     		subs	r3, r2, #1
 2944 0078 9946     		mov	r9, r3
 2945              	.LVL286:
 2946 007a 002A     		cmp	r2, #0
 2947 007c E7D1     		bne	.L93
 2948              	.L91:
1270:Source\mbedtls_open\library/aes.c ****         }
1271:Source\mbedtls_open\library/aes.c ****     }
1272:Source\mbedtls_open\library/aes.c **** 
1273:Source\mbedtls_open\library/aes.c ****     *iv_off = n;
 2949              		.loc 1 1273 0
 2950 007e 4346     		mov	r3, r8
 2951              	.LVL287:
 2952 0080 1C60     		str	r4, [r3]
1274:Source\mbedtls_open\library/aes.c **** 
1275:Source\mbedtls_open\library/aes.c ****     return( 0 );
1276:Source\mbedtls_open\library/aes.c **** }
 2953              		.loc 1 1276 0
 2954 0082 0020     		movs	r0, #0
 2955 0084 03B0     		add	sp, sp, #12
 2956              		@ sp needed
 2957              	.LVL288:
 2958              	.LVL289:
 2959              	.LVL290:
 2960              	.LVL291:
 2961              	.LVL292:
 2962 0086 0CBC     		pop	{r2, r3}
 2963 0088 9046     		mov	r8, r2
 2964 008a 9946     		mov	r9, r3
 2965 008c F0BD     		pop	{r4, r5, r6, r7, pc}
 2966              		.cfi_endproc
 2967              	.LFE12:
 2968              		.size	mbedtls_aes_crypt_cfb128, .-mbedtls_aes_crypt_cfb128
 2969 008e C046     		.section	.text.mbedtls_aes_crypt_cfb8,"ax",%progbits
 2970              		.align	2
 2971              		.global	mbedtls_aes_crypt_cfb8
 2972              		.code	16
 2973              		.thumb_func
 2974              		.type	mbedtls_aes_crypt_cfb8, %function
 2975              	mbedtls_aes_crypt_cfb8:
 2976              	.LFB13:
ARM GAS  C:\Users\Phuong\AppData\Local\Temp\ccyLHZOj.s 			page 78


1277:Source\mbedtls_open\library/aes.c **** 
1278:Source\mbedtls_open\library/aes.c **** /*
1279:Source\mbedtls_open\library/aes.c ****  * AES-CFB8 buffer encryption/decryption
1280:Source\mbedtls_open\library/aes.c ****  */
1281:Source\mbedtls_open\library/aes.c **** int mbedtls_aes_crypt_cfb8( mbedtls_aes_context *ctx,
1282:Source\mbedtls_open\library/aes.c ****                        int mode,
1283:Source\mbedtls_open\library/aes.c ****                        size_t length,
1284:Source\mbedtls_open\library/aes.c ****                        unsigned char iv[16],
1285:Source\mbedtls_open\library/aes.c ****                        const unsigned char *input,
1286:Source\mbedtls_open\library/aes.c ****                        unsigned char *output )
1287:Source\mbedtls_open\library/aes.c **** {
 2977              		.loc 1 1287 0
 2978              		.cfi_startproc
 2979              		@ args = 8, pretend = 0, frame = 32
 2980              		@ frame_needed = 0, uses_anonymous_args = 0
 2981              	.LVL293:
 2982 0000 F0B5     		push	{r4, r5, r6, r7, lr}
 2983              		.cfi_def_cfa_offset 20
 2984              		.cfi_offset 4, -20
 2985              		.cfi_offset 5, -16
 2986              		.cfi_offset 6, -12
 2987              		.cfi_offset 7, -8
 2988              		.cfi_offset 14, -4
 2989 0002 5746     		mov	r7, r10
 2990 0004 4E46     		mov	r6, r9
 2991 0006 4546     		mov	r5, r8
 2992 0008 E0B4     		push	{r5, r6, r7}
 2993              		.cfi_def_cfa_offset 32
 2994              		.cfi_offset 8, -32
 2995              		.cfi_offset 9, -28
 2996              		.cfi_offset 10, -24
 2997 000a 88B0     		sub	sp, sp, #32
 2998              		.cfi_def_cfa_offset 64
 2999 000c 0190     		str	r0, [sp, #4]
 3000 000e 0F00     		movs	r7, r1
 3001 0010 1C00     		movs	r4, r3
 3002 0012 109E     		ldr	r6, [sp, #64]
 3003 0014 119D     		ldr	r5, [sp, #68]
1288:Source\mbedtls_open\library/aes.c ****     unsigned char c;
1289:Source\mbedtls_open\library/aes.c ****     unsigned char ov[17];
1290:Source\mbedtls_open\library/aes.c **** 
1291:Source\mbedtls_open\library/aes.c ****     while( length-- )
 3004              		.loc 1 1291 0
 3005 0016 24E0     		b	.L95
 3006              	.LVL294:
 3007              	.L98:
1292:Source\mbedtls_open\library/aes.c ****     {
1293:Source\mbedtls_open\library/aes.c ****         memcpy( ov, iv, 16 );
 3008              		.loc 1 1293 0
 3009 0018 1022     		movs	r2, #16
 3010 001a 2100     		movs	r1, r4
 3011 001c 03A8     		add	r0, sp, #12
 3012 001e FFF7FEFF 		bl	memcpy
 3013              	.LVL295:
1294:Source\mbedtls_open\library/aes.c ****         mbedtls_aes_crypt_ecb( ctx, MBEDTLS_AES_ENCRYPT, iv, iv );
 3014              		.loc 1 1294 0
 3015 0022 2300     		movs	r3, r4
ARM GAS  C:\Users\Phuong\AppData\Local\Temp\ccyLHZOj.s 			page 79


 3016 0024 2200     		movs	r2, r4
 3017 0026 0121     		movs	r1, #1
 3018 0028 0198     		ldr	r0, [sp, #4]
 3019 002a FFF7FEFF 		bl	mbedtls_aes_crypt_ecb
 3020              	.LVL296:
1295:Source\mbedtls_open\library/aes.c **** 
1296:Source\mbedtls_open\library/aes.c ****         if( mode == MBEDTLS_AES_DECRYPT )
 3021              		.loc 1 1296 0
 3022 002e 002F     		cmp	r7, #0
 3023 0030 02D1     		bne	.L96
1297:Source\mbedtls_open\library/aes.c ****             ov[16] = *input;
 3024              		.loc 1 1297 0
 3025 0032 3278     		ldrb	r2, [r6]
 3026 0034 03AB     		add	r3, sp, #12
 3027 0036 1A74     		strb	r2, [r3, #16]
 3028              	.L96:
1298:Source\mbedtls_open\library/aes.c **** 
1299:Source\mbedtls_open\library/aes.c ****         c = *output++ = (unsigned char)( iv[0] ^ *input++ );
 3029              		.loc 1 1299 0
 3030 0038 6B1C     		adds	r3, r5, #1
 3031 003a 9A46     		mov	r10, r3
 3032              	.LVL297:
 3033 003c 2278     		ldrb	r2, [r4]
 3034 003e 731C     		adds	r3, r6, #1
 3035              	.LVL298:
 3036 0040 9946     		mov	r9, r3
 3037              	.LVL299:
 3038 0042 3378     		ldrb	r3, [r6]
 3039              	.LVL300:
 3040 0044 5340     		eors	r3, r2
 3041 0046 2B70     		strb	r3, [r5]
 3042              	.LVL301:
1300:Source\mbedtls_open\library/aes.c **** 
1301:Source\mbedtls_open\library/aes.c ****         if( mode == MBEDTLS_AES_ENCRYPT )
 3043              		.loc 1 1301 0
 3044 0048 012F     		cmp	r7, #1
 3045 004a 01D1     		bne	.L97
1302:Source\mbedtls_open\library/aes.c ****             ov[16] = c;
 3046              		.loc 1 1302 0
 3047 004c 03AA     		add	r2, sp, #12
 3048 004e 1374     		strb	r3, [r2, #16]
 3049              	.L97:
1303:Source\mbedtls_open\library/aes.c **** 
1304:Source\mbedtls_open\library/aes.c ****         memcpy( iv, ov + 1, 16 );
 3050              		.loc 1 1304 0
 3051 0050 1022     		movs	r2, #16
 3052 0052 02AB     		add	r3, sp, #8
 3053              	.LVL302:
 3054 0054 591D     		adds	r1, r3, #5
 3055 0056 2000     		movs	r0, r4
 3056 0058 FFF7FEFF 		bl	memcpy
 3057              	.LVL303:
1291:Source\mbedtls_open\library/aes.c ****     {
 3058              		.loc 1 1291 0
 3059 005c 4246     		mov	r2, r8
1299:Source\mbedtls_open\library/aes.c **** 
 3060              		.loc 1 1299 0
ARM GAS  C:\Users\Phuong\AppData\Local\Temp\ccyLHZOj.s 			page 80


 3061 005e 5546     		mov	r5, r10
 3062 0060 4E46     		mov	r6, r9
 3063              	.LVL304:
 3064              	.L95:
1291:Source\mbedtls_open\library/aes.c ****     {
 3065              		.loc 1 1291 0
 3066 0062 531E     		subs	r3, r2, #1
 3067 0064 9846     		mov	r8, r3
 3068              	.LVL305:
 3069 0066 002A     		cmp	r2, #0
 3070 0068 D6D1     		bne	.L98
1305:Source\mbedtls_open\library/aes.c ****     }
1306:Source\mbedtls_open\library/aes.c **** 
1307:Source\mbedtls_open\library/aes.c ****     return( 0 );
1308:Source\mbedtls_open\library/aes.c **** }
 3071              		.loc 1 1308 0
 3072 006a 0020     		movs	r0, #0
 3073 006c 08B0     		add	sp, sp, #32
 3074              		@ sp needed
 3075              	.LVL306:
 3076              	.LVL307:
 3077              	.LVL308:
 3078              	.LVL309:
 3079 006e 1CBC     		pop	{r2, r3, r4}
 3080 0070 9046     		mov	r8, r2
 3081 0072 9946     		mov	r9, r3
 3082 0074 A246     		mov	r10, r4
 3083 0076 F0BD     		pop	{r4, r5, r6, r7, pc}
 3084              		.cfi_endproc
 3085              	.LFE13:
 3086              		.size	mbedtls_aes_crypt_cfb8, .-mbedtls_aes_crypt_cfb8
 3087              		.section	.text.mbedtls_aes_crypt_ofb,"ax",%progbits
 3088              		.align	2
 3089              		.global	mbedtls_aes_crypt_ofb
 3090              		.code	16
 3091              		.thumb_func
 3092              		.type	mbedtls_aes_crypt_ofb, %function
 3093              	mbedtls_aes_crypt_ofb:
 3094              	.LFB14:
1309:Source\mbedtls_open\library/aes.c **** #endif /* MBEDTLS_CIPHER_MODE_CFB */
1310:Source\mbedtls_open\library/aes.c **** 
1311:Source\mbedtls_open\library/aes.c **** #if defined(MBEDTLS_CIPHER_MODE_OFB)
1312:Source\mbedtls_open\library/aes.c **** /*
1313:Source\mbedtls_open\library/aes.c ****  * AES-OFB (Output Feedback Mode) buffer encryption/decryption
1314:Source\mbedtls_open\library/aes.c ****  */
1315:Source\mbedtls_open\library/aes.c **** int mbedtls_aes_crypt_ofb( mbedtls_aes_context *ctx,
1316:Source\mbedtls_open\library/aes.c ****                            size_t length,
1317:Source\mbedtls_open\library/aes.c ****                            size_t *iv_off,
1318:Source\mbedtls_open\library/aes.c ****                            unsigned char iv[16],
1319:Source\mbedtls_open\library/aes.c ****                            const unsigned char *input,
1320:Source\mbedtls_open\library/aes.c ****                            unsigned char *output )
1321:Source\mbedtls_open\library/aes.c **** {
 3095              		.loc 1 1321 0
 3096              		.cfi_startproc
 3097              		@ args = 8, pretend = 0, frame = 8
 3098              		@ frame_needed = 0, uses_anonymous_args = 0
 3099              	.LVL310:
ARM GAS  C:\Users\Phuong\AppData\Local\Temp\ccyLHZOj.s 			page 81


 3100 0000 F0B5     		push	{r4, r5, r6, r7, lr}
 3101              		.cfi_def_cfa_offset 20
 3102              		.cfi_offset 4, -20
 3103              		.cfi_offset 5, -16
 3104              		.cfi_offset 6, -12
 3105              		.cfi_offset 7, -8
 3106              		.cfi_offset 14, -4
 3107 0002 4F46     		mov	r7, r9
 3108 0004 4646     		mov	r6, r8
 3109 0006 C0B4     		push	{r6, r7}
 3110              		.cfi_def_cfa_offset 28
 3111              		.cfi_offset 8, -28
 3112              		.cfi_offset 9, -24
 3113 0008 83B0     		sub	sp, sp, #12
 3114              		.cfi_def_cfa_offset 40
 3115 000a 0190     		str	r0, [sp, #4]
 3116 000c 9146     		mov	r9, r2
 3117 000e 1E00     		movs	r6, r3
 3118 0010 0A9F     		ldr	r7, [sp, #40]
 3119 0012 0B9D     		ldr	r5, [sp, #44]
 3120              	.LVL311:
1322:Source\mbedtls_open\library/aes.c ****     int ret = 0;
1323:Source\mbedtls_open\library/aes.c ****     size_t n = *iv_off;
 3121              		.loc 1 1323 0
 3122 0014 1468     		ldr	r4, [r2]
 3123              	.LVL312:
1322:Source\mbedtls_open\library/aes.c ****     int ret = 0;
 3124              		.loc 1 1322 0
 3125 0016 0020     		movs	r0, #0
 3126              	.LVL313:
1324:Source\mbedtls_open\library/aes.c **** 
1325:Source\mbedtls_open\library/aes.c ****     while( length-- )
 3127              		.loc 1 1325 0
 3128 0018 13E0     		b	.L100
 3129              	.LVL314:
 3130              	.L103:
1326:Source\mbedtls_open\library/aes.c ****     {
1327:Source\mbedtls_open\library/aes.c ****         if( n == 0 )
 3131              		.loc 1 1327 0
 3132 001a 002C     		cmp	r4, #0
 3133 001c 07D1     		bne	.L101
1328:Source\mbedtls_open\library/aes.c ****         {
1329:Source\mbedtls_open\library/aes.c ****             ret = mbedtls_aes_crypt_ecb( ctx, MBEDTLS_AES_ENCRYPT, iv, iv );
 3134              		.loc 1 1329 0
 3135 001e 3300     		movs	r3, r6
 3136              	.LVL315:
 3137 0020 3200     		movs	r2, r6
 3138 0022 0121     		movs	r1, #1
 3139 0024 0198     		ldr	r0, [sp, #4]
 3140              	.LVL316:
 3141 0026 FFF7FEFF 		bl	mbedtls_aes_crypt_ecb
 3142              	.LVL317:
1330:Source\mbedtls_open\library/aes.c ****             if( ret != 0 )
 3143              		.loc 1 1330 0
 3144 002a 0028     		cmp	r0, #0
 3145 002c 0FD1     		bne	.L102
 3146              	.L101:
ARM GAS  C:\Users\Phuong\AppData\Local\Temp\ccyLHZOj.s 			page 82


 3147              	.LVL318:
1331:Source\mbedtls_open\library/aes.c ****                 goto exit;
1332:Source\mbedtls_open\library/aes.c ****         }
1333:Source\mbedtls_open\library/aes.c ****         *output++ =  *input++ ^ iv[n];
 3148              		.loc 1 1333 0
 3149 002e 3A78     		ldrb	r2, [r7]
 3150 0030 335D     		ldrb	r3, [r6, r4]
 3151 0032 5340     		eors	r3, r2
 3152 0034 2B70     		strb	r3, [r5]
1334:Source\mbedtls_open\library/aes.c **** 
1335:Source\mbedtls_open\library/aes.c ****         n = ( n + 1 ) & 0x0F;
 3153              		.loc 1 1335 0
 3154 0036 0134     		adds	r4, r4, #1
 3155              	.LVL319:
 3156 0038 0F23     		movs	r3, #15
 3157 003a 1C40     		ands	r4, r3
 3158              	.LVL320:
1325:Source\mbedtls_open\library/aes.c ****     {
 3159              		.loc 1 1325 0
 3160 003c 4146     		mov	r1, r8
1333:Source\mbedtls_open\library/aes.c **** 
 3161              		.loc 1 1333 0
 3162 003e 0135     		adds	r5, r5, #1
 3163              	.LVL321:
 3164 0040 0137     		adds	r7, r7, #1
 3165              	.LVL322:
 3166              	.L100:
1325:Source\mbedtls_open\library/aes.c ****     {
 3167              		.loc 1 1325 0
 3168 0042 4B1E     		subs	r3, r1, #1
 3169 0044 9846     		mov	r8, r3
 3170              	.LVL323:
 3171 0046 0029     		cmp	r1, #0
 3172 0048 E7D1     		bne	.L103
1336:Source\mbedtls_open\library/aes.c ****     }
1337:Source\mbedtls_open\library/aes.c **** 
1338:Source\mbedtls_open\library/aes.c ****     *iv_off = n;
 3173              		.loc 1 1338 0
 3174 004a 4B46     		mov	r3, r9
 3175              	.LVL324:
 3176 004c 1C60     		str	r4, [r3]
 3177              	.L102:
1339:Source\mbedtls_open\library/aes.c **** 
1340:Source\mbedtls_open\library/aes.c **** exit:
1341:Source\mbedtls_open\library/aes.c ****     return( ret );
1342:Source\mbedtls_open\library/aes.c **** }
 3178              		.loc 1 1342 0
 3179 004e 03B0     		add	sp, sp, #12
 3180              		@ sp needed
 3181              	.LVL325:
 3182              	.LVL326:
 3183              	.LVL327:
 3184              	.LVL328:
 3185              	.LVL329:
 3186              	.LVL330:
 3187 0050 0CBC     		pop	{r2, r3}
 3188 0052 9046     		mov	r8, r2
ARM GAS  C:\Users\Phuong\AppData\Local\Temp\ccyLHZOj.s 			page 83


 3189 0054 9946     		mov	r9, r3
 3190 0056 F0BD     		pop	{r4, r5, r6, r7, pc}
 3191              		.cfi_endproc
 3192              	.LFE14:
 3193              		.size	mbedtls_aes_crypt_ofb, .-mbedtls_aes_crypt_ofb
 3194              		.section	.text.mbedtls_aes_crypt_ctr,"ax",%progbits
 3195              		.align	2
 3196              		.global	mbedtls_aes_crypt_ctr
 3197              		.code	16
 3198              		.thumb_func
 3199              		.type	mbedtls_aes_crypt_ctr, %function
 3200              	mbedtls_aes_crypt_ctr:
 3201              	.LFB15:
1343:Source\mbedtls_open\library/aes.c **** #endif /* MBEDTLS_CIPHER_MODE_OFB */
1344:Source\mbedtls_open\library/aes.c **** 
1345:Source\mbedtls_open\library/aes.c **** #if defined(MBEDTLS_CIPHER_MODE_CTR)
1346:Source\mbedtls_open\library/aes.c **** /*
1347:Source\mbedtls_open\library/aes.c ****  * AES-CTR buffer encryption/decryption
1348:Source\mbedtls_open\library/aes.c ****  */
1349:Source\mbedtls_open\library/aes.c **** int mbedtls_aes_crypt_ctr( mbedtls_aes_context *ctx,
1350:Source\mbedtls_open\library/aes.c ****                        size_t length,
1351:Source\mbedtls_open\library/aes.c ****                        size_t *nc_off,
1352:Source\mbedtls_open\library/aes.c ****                        unsigned char nonce_counter[16],
1353:Source\mbedtls_open\library/aes.c ****                        unsigned char stream_block[16],
1354:Source\mbedtls_open\library/aes.c ****                        const unsigned char *input,
1355:Source\mbedtls_open\library/aes.c ****                        unsigned char *output )
1356:Source\mbedtls_open\library/aes.c **** {
 3202              		.loc 1 1356 0
 3203              		.cfi_startproc
 3204              		@ args = 12, pretend = 0, frame = 8
 3205              		@ frame_needed = 0, uses_anonymous_args = 0
 3206              	.LVL331:
 3207 0000 F0B5     		push	{r4, r5, r6, r7, lr}
 3208              		.cfi_def_cfa_offset 20
 3209              		.cfi_offset 4, -20
 3210              		.cfi_offset 5, -16
 3211              		.cfi_offset 6, -12
 3212              		.cfi_offset 7, -8
 3213              		.cfi_offset 14, -4
 3214 0002 5746     		mov	r7, r10
 3215 0004 4E46     		mov	r6, r9
 3216 0006 4546     		mov	r5, r8
 3217 0008 E0B4     		push	{r5, r6, r7}
 3218              		.cfi_def_cfa_offset 32
 3219              		.cfi_offset 8, -32
 3220              		.cfi_offset 9, -28
 3221              		.cfi_offset 10, -24
 3222 000a 82B0     		sub	sp, sp, #8
 3223              		.cfi_def_cfa_offset 40
 3224 000c 0190     		str	r0, [sp, #4]
 3225 000e 9046     		mov	r8, r2
 3226 0010 1F00     		movs	r7, r3
 3227 0012 0A9B     		ldr	r3, [sp, #40]
 3228              	.LVL332:
 3229 0014 9A46     		mov	r10, r3
 3230 0016 0B9E     		ldr	r6, [sp, #44]
 3231 0018 0C9D     		ldr	r5, [sp, #48]
ARM GAS  C:\Users\Phuong\AppData\Local\Temp\ccyLHZOj.s 			page 84


1357:Source\mbedtls_open\library/aes.c ****     int c, i;
1358:Source\mbedtls_open\library/aes.c ****     size_t n = *nc_off;
 3232              		.loc 1 1358 0
 3233 001a 1468     		ldr	r4, [r2]
 3234              	.LVL333:
1359:Source\mbedtls_open\library/aes.c **** 
1360:Source\mbedtls_open\library/aes.c ****     if ( n > 0x0F )
 3235              		.loc 1 1360 0
 3236 001c 0F2C     		cmp	r4, #15
 3237 001e 20D9     		bls	.L106
 3238 0020 27E0     		b	.L111
 3239              	.LVL334:
 3240              	.L110:
1361:Source\mbedtls_open\library/aes.c ****         return( MBEDTLS_ERR_AES_BAD_INPUT_DATA );
1362:Source\mbedtls_open\library/aes.c **** 
1363:Source\mbedtls_open\library/aes.c ****     while( length-- )
1364:Source\mbedtls_open\library/aes.c ****     {
1365:Source\mbedtls_open\library/aes.c ****         if( n == 0 ) {
 3241              		.loc 1 1365 0
 3242 0022 002C     		cmp	r4, #0
 3243 0024 12D1     		bne	.L107
1366:Source\mbedtls_open\library/aes.c ****             mbedtls_aes_crypt_ecb( ctx, MBEDTLS_AES_ENCRYPT, nonce_counter, stream_block );
 3244              		.loc 1 1366 0
 3245 0026 5346     		mov	r3, r10
 3246              	.LVL335:
 3247 0028 3A00     		movs	r2, r7
 3248 002a 0121     		movs	r1, #1
 3249 002c 0198     		ldr	r0, [sp, #4]
 3250 002e FFF7FEFF 		bl	mbedtls_aes_crypt_ecb
 3251              	.LVL336:
1367:Source\mbedtls_open\library/aes.c **** 
1368:Source\mbedtls_open\library/aes.c ****             for( i = 16; i > 0; i-- )
 3252              		.loc 1 1368 0
 3253 0032 1021     		movs	r1, #16
 3254 0034 08E0     		b	.L108
 3255              	.LVL337:
 3256              	.L109:
1369:Source\mbedtls_open\library/aes.c ****                 if( ++nonce_counter[i - 1] != 0 )
 3257              		.loc 1 1369 0
 3258 0036 4A1E     		subs	r2, r1, #1
 3259 0038 BA18     		adds	r2, r7, r2
 3260 003a 1378     		ldrb	r3, [r2]
 3261 003c 0133     		adds	r3, r3, #1
 3262 003e DBB2     		uxtb	r3, r3
 3263 0040 1370     		strb	r3, [r2]
 3264 0042 002B     		cmp	r3, #0
 3265 0044 02D1     		bne	.L107
1368:Source\mbedtls_open\library/aes.c ****                 if( ++nonce_counter[i - 1] != 0 )
 3266              		.loc 1 1368 0 discriminator 2
 3267 0046 0139     		subs	r1, r1, #1
 3268              	.LVL338:
 3269              	.L108:
1368:Source\mbedtls_open\library/aes.c ****                 if( ++nonce_counter[i - 1] != 0 )
 3270              		.loc 1 1368 0 is_stmt 0 discriminator 1
 3271 0048 0029     		cmp	r1, #0
 3272 004a F4DC     		bgt	.L109
 3273              	.LVL339:
ARM GAS  C:\Users\Phuong\AppData\Local\Temp\ccyLHZOj.s 			page 85


 3274              	.L107:
1370:Source\mbedtls_open\library/aes.c ****                     break;
1371:Source\mbedtls_open\library/aes.c ****         }
1372:Source\mbedtls_open\library/aes.c ****         c = *input++;
 3275              		.loc 1 1372 0 is_stmt 1
 3276 004c 3278     		ldrb	r2, [r6]
 3277              	.LVL340:
1373:Source\mbedtls_open\library/aes.c ****         *output++ = (unsigned char)( c ^ stream_block[n] );
 3278              		.loc 1 1373 0
 3279 004e 5346     		mov	r3, r10
 3280 0050 1B5D     		ldrb	r3, [r3, r4]
 3281 0052 5340     		eors	r3, r2
 3282 0054 2B70     		strb	r3, [r5]
1374:Source\mbedtls_open\library/aes.c **** 
1375:Source\mbedtls_open\library/aes.c ****         n = ( n + 1 ) & 0x0F;
 3283              		.loc 1 1375 0
 3284 0056 0134     		adds	r4, r4, #1
 3285              	.LVL341:
 3286 0058 0F23     		movs	r3, #15
 3287 005a 1C40     		ands	r4, r3
 3288              	.LVL342:
1363:Source\mbedtls_open\library/aes.c ****     {
 3289              		.loc 1 1363 0
 3290 005c 4946     		mov	r1, r9
1373:Source\mbedtls_open\library/aes.c ****         *output++ = (unsigned char)( c ^ stream_block[n] );
 3291              		.loc 1 1373 0
 3292 005e 0135     		adds	r5, r5, #1
 3293              	.LVL343:
1372:Source\mbedtls_open\library/aes.c ****         *output++ = (unsigned char)( c ^ stream_block[n] );
 3294              		.loc 1 1372 0
 3295 0060 0136     		adds	r6, r6, #1
 3296              	.LVL344:
 3297              	.L106:
1363:Source\mbedtls_open\library/aes.c ****     {
 3298              		.loc 1 1363 0
 3299 0062 4B1E     		subs	r3, r1, #1
 3300 0064 9946     		mov	r9, r3
 3301              	.LVL345:
 3302 0066 0029     		cmp	r1, #0
 3303 0068 DBD1     		bne	.L110
1376:Source\mbedtls_open\library/aes.c ****     }
1377:Source\mbedtls_open\library/aes.c **** 
1378:Source\mbedtls_open\library/aes.c ****     *nc_off = n;
 3304              		.loc 1 1378 0
 3305 006a 4346     		mov	r3, r8
 3306              	.LVL346:
 3307 006c 1C60     		str	r4, [r3]
1379:Source\mbedtls_open\library/aes.c **** 
1380:Source\mbedtls_open\library/aes.c ****     return( 0 );
 3308              		.loc 1 1380 0
 3309 006e 0020     		movs	r0, #0
 3310 0070 01E0     		b	.L105
 3311              	.LVL347:
 3312              	.L111:
1361:Source\mbedtls_open\library/aes.c **** 
 3313              		.loc 1 1361 0
 3314 0072 2120     		movs	r0, #33
ARM GAS  C:\Users\Phuong\AppData\Local\Temp\ccyLHZOj.s 			page 86


 3315              	.LVL348:
 3316 0074 4042     		rsbs	r0, r0, #0
 3317              	.LVL349:
 3318              	.L105:
1381:Source\mbedtls_open\library/aes.c **** }
 3319              		.loc 1 1381 0
 3320 0076 02B0     		add	sp, sp, #8
 3321              		@ sp needed
 3322              	.LVL350:
 3323              	.LVL351:
 3324              	.LVL352:
 3325 0078 1CBC     		pop	{r2, r3, r4}
 3326 007a 9046     		mov	r8, r2
 3327 007c 9946     		mov	r9, r3
 3328 007e A246     		mov	r10, r4
 3329 0080 F0BD     		pop	{r4, r5, r6, r7, pc}
 3330              		.cfi_endproc
 3331              	.LFE15:
 3332              		.size	mbedtls_aes_crypt_ctr, .-mbedtls_aes_crypt_ctr
 3333 0082 C046     		.section	.text.mbedtls_aes_self_test,"ax",%progbits
 3334              		.align	2
 3335              		.global	mbedtls_aes_self_test
 3336              		.code	16
 3337              		.thumb_func
 3338              		.type	mbedtls_aes_self_test, %function
 3339              	mbedtls_aes_self_test:
 3340              	.LFB16:
1382:Source\mbedtls_open\library/aes.c **** #endif /* MBEDTLS_CIPHER_MODE_CTR */
1383:Source\mbedtls_open\library/aes.c **** 
1384:Source\mbedtls_open\library/aes.c **** #endif /* !MBEDTLS_AES_ALT */
1385:Source\mbedtls_open\library/aes.c **** 
1386:Source\mbedtls_open\library/aes.c **** #if defined(MBEDTLS_SELF_TEST)
1387:Source\mbedtls_open\library/aes.c **** /*
1388:Source\mbedtls_open\library/aes.c ****  * AES test vectors from:
1389:Source\mbedtls_open\library/aes.c ****  *
1390:Source\mbedtls_open\library/aes.c ****  * http://csrc.nist.gov/archive/aes/rijndael/rijndael-vals.zip
1391:Source\mbedtls_open\library/aes.c ****  */
1392:Source\mbedtls_open\library/aes.c **** static const unsigned char aes_test_ecb_dec[3][16] =
1393:Source\mbedtls_open\library/aes.c **** {
1394:Source\mbedtls_open\library/aes.c ****     { 0x44, 0x41, 0x6A, 0xC2, 0xD1, 0xF5, 0x3C, 0x58,
1395:Source\mbedtls_open\library/aes.c ****       0x33, 0x03, 0x91, 0x7E, 0x6B, 0xE9, 0xEB, 0xE0 },
1396:Source\mbedtls_open\library/aes.c ****     { 0x48, 0xE3, 0x1E, 0x9E, 0x25, 0x67, 0x18, 0xF2,
1397:Source\mbedtls_open\library/aes.c ****       0x92, 0x29, 0x31, 0x9C, 0x19, 0xF1, 0x5B, 0xA4 },
1398:Source\mbedtls_open\library/aes.c ****     { 0x05, 0x8C, 0xCF, 0xFD, 0xBB, 0xCB, 0x38, 0x2D,
1399:Source\mbedtls_open\library/aes.c ****       0x1F, 0x6F, 0x56, 0x58, 0x5D, 0x8A, 0x4A, 0xDE }
1400:Source\mbedtls_open\library/aes.c **** };
1401:Source\mbedtls_open\library/aes.c **** 
1402:Source\mbedtls_open\library/aes.c **** static const unsigned char aes_test_ecb_enc[3][16] =
1403:Source\mbedtls_open\library/aes.c **** {
1404:Source\mbedtls_open\library/aes.c ****     { 0xC3, 0x4C, 0x05, 0x2C, 0xC0, 0xDA, 0x8D, 0x73,
1405:Source\mbedtls_open\library/aes.c ****       0x45, 0x1A, 0xFE, 0x5F, 0x03, 0xBE, 0x29, 0x7F },
1406:Source\mbedtls_open\library/aes.c ****     { 0xF3, 0xF6, 0x75, 0x2A, 0xE8, 0xD7, 0x83, 0x11,
1407:Source\mbedtls_open\library/aes.c ****       0x38, 0xF0, 0x41, 0x56, 0x06, 0x31, 0xB1, 0x14 },
1408:Source\mbedtls_open\library/aes.c ****     { 0x8B, 0x79, 0xEE, 0xCC, 0x93, 0xA0, 0xEE, 0x5D,
1409:Source\mbedtls_open\library/aes.c ****       0xFF, 0x30, 0xB4, 0xEA, 0x21, 0x63, 0x6D, 0xA4 }
1410:Source\mbedtls_open\library/aes.c **** };
1411:Source\mbedtls_open\library/aes.c **** 
ARM GAS  C:\Users\Phuong\AppData\Local\Temp\ccyLHZOj.s 			page 87


1412:Source\mbedtls_open\library/aes.c **** #if defined(MBEDTLS_CIPHER_MODE_CBC)
1413:Source\mbedtls_open\library/aes.c **** static const unsigned char aes_test_cbc_dec[3][16] =
1414:Source\mbedtls_open\library/aes.c **** {
1415:Source\mbedtls_open\library/aes.c ****     { 0xFA, 0xCA, 0x37, 0xE0, 0xB0, 0xC8, 0x53, 0x73,
1416:Source\mbedtls_open\library/aes.c ****       0xDF, 0x70, 0x6E, 0x73, 0xF7, 0xC9, 0xAF, 0x86 },
1417:Source\mbedtls_open\library/aes.c ****     { 0x5D, 0xF6, 0x78, 0xDD, 0x17, 0xBA, 0x4E, 0x75,
1418:Source\mbedtls_open\library/aes.c ****       0xB6, 0x17, 0x68, 0xC6, 0xAD, 0xEF, 0x7C, 0x7B },
1419:Source\mbedtls_open\library/aes.c ****     { 0x48, 0x04, 0xE1, 0x81, 0x8F, 0xE6, 0x29, 0x75,
1420:Source\mbedtls_open\library/aes.c ****       0x19, 0xA3, 0xE8, 0x8C, 0x57, 0x31, 0x04, 0x13 }
1421:Source\mbedtls_open\library/aes.c **** };
1422:Source\mbedtls_open\library/aes.c **** 
1423:Source\mbedtls_open\library/aes.c **** static const unsigned char aes_test_cbc_enc[3][16] =
1424:Source\mbedtls_open\library/aes.c **** {
1425:Source\mbedtls_open\library/aes.c ****     { 0x8A, 0x05, 0xFC, 0x5E, 0x09, 0x5A, 0xF4, 0x84,
1426:Source\mbedtls_open\library/aes.c ****       0x8A, 0x08, 0xD3, 0x28, 0xD3, 0x68, 0x8E, 0x3D },
1427:Source\mbedtls_open\library/aes.c ****     { 0x7B, 0xD9, 0x66, 0xD5, 0x3A, 0xD8, 0xC1, 0xBB,
1428:Source\mbedtls_open\library/aes.c ****       0x85, 0xD2, 0xAD, 0xFA, 0xE8, 0x7B, 0xB1, 0x04 },
1429:Source\mbedtls_open\library/aes.c ****     { 0xFE, 0x3C, 0x53, 0x65, 0x3E, 0x2F, 0x45, 0xB5,
1430:Source\mbedtls_open\library/aes.c ****       0x6F, 0xCD, 0x88, 0xB2, 0xCC, 0x89, 0x8F, 0xF0 }
1431:Source\mbedtls_open\library/aes.c **** };
1432:Source\mbedtls_open\library/aes.c **** #endif /* MBEDTLS_CIPHER_MODE_CBC */
1433:Source\mbedtls_open\library/aes.c **** 
1434:Source\mbedtls_open\library/aes.c **** #if defined(MBEDTLS_CIPHER_MODE_CFB)
1435:Source\mbedtls_open\library/aes.c **** /*
1436:Source\mbedtls_open\library/aes.c ****  * AES-CFB128 test vectors from:
1437:Source\mbedtls_open\library/aes.c ****  *
1438:Source\mbedtls_open\library/aes.c ****  * http://csrc.nist.gov/publications/nistpubs/800-38a/sp800-38a.pdf
1439:Source\mbedtls_open\library/aes.c ****  */
1440:Source\mbedtls_open\library/aes.c **** static const unsigned char aes_test_cfb128_key[3][32] =
1441:Source\mbedtls_open\library/aes.c **** {
1442:Source\mbedtls_open\library/aes.c ****     { 0x2B, 0x7E, 0x15, 0x16, 0x28, 0xAE, 0xD2, 0xA6,
1443:Source\mbedtls_open\library/aes.c ****       0xAB, 0xF7, 0x15, 0x88, 0x09, 0xCF, 0x4F, 0x3C },
1444:Source\mbedtls_open\library/aes.c ****     { 0x8E, 0x73, 0xB0, 0xF7, 0xDA, 0x0E, 0x64, 0x52,
1445:Source\mbedtls_open\library/aes.c ****       0xC8, 0x10, 0xF3, 0x2B, 0x80, 0x90, 0x79, 0xE5,
1446:Source\mbedtls_open\library/aes.c ****       0x62, 0xF8, 0xEA, 0xD2, 0x52, 0x2C, 0x6B, 0x7B },
1447:Source\mbedtls_open\library/aes.c ****     { 0x60, 0x3D, 0xEB, 0x10, 0x15, 0xCA, 0x71, 0xBE,
1448:Source\mbedtls_open\library/aes.c ****       0x2B, 0x73, 0xAE, 0xF0, 0x85, 0x7D, 0x77, 0x81,
1449:Source\mbedtls_open\library/aes.c ****       0x1F, 0x35, 0x2C, 0x07, 0x3B, 0x61, 0x08, 0xD7,
1450:Source\mbedtls_open\library/aes.c ****       0x2D, 0x98, 0x10, 0xA3, 0x09, 0x14, 0xDF, 0xF4 }
1451:Source\mbedtls_open\library/aes.c **** };
1452:Source\mbedtls_open\library/aes.c **** 
1453:Source\mbedtls_open\library/aes.c **** static const unsigned char aes_test_cfb128_iv[16] =
1454:Source\mbedtls_open\library/aes.c **** {
1455:Source\mbedtls_open\library/aes.c ****     0x00, 0x01, 0x02, 0x03, 0x04, 0x05, 0x06, 0x07,
1456:Source\mbedtls_open\library/aes.c ****     0x08, 0x09, 0x0A, 0x0B, 0x0C, 0x0D, 0x0E, 0x0F
1457:Source\mbedtls_open\library/aes.c **** };
1458:Source\mbedtls_open\library/aes.c **** 
1459:Source\mbedtls_open\library/aes.c **** static const unsigned char aes_test_cfb128_pt[64] =
1460:Source\mbedtls_open\library/aes.c **** {
1461:Source\mbedtls_open\library/aes.c ****     0x6B, 0xC1, 0xBE, 0xE2, 0x2E, 0x40, 0x9F, 0x96,
1462:Source\mbedtls_open\library/aes.c ****     0xE9, 0x3D, 0x7E, 0x11, 0x73, 0x93, 0x17, 0x2A,
1463:Source\mbedtls_open\library/aes.c ****     0xAE, 0x2D, 0x8A, 0x57, 0x1E, 0x03, 0xAC, 0x9C,
1464:Source\mbedtls_open\library/aes.c ****     0x9E, 0xB7, 0x6F, 0xAC, 0x45, 0xAF, 0x8E, 0x51,
1465:Source\mbedtls_open\library/aes.c ****     0x30, 0xC8, 0x1C, 0x46, 0xA3, 0x5C, 0xE4, 0x11,
1466:Source\mbedtls_open\library/aes.c ****     0xE5, 0xFB, 0xC1, 0x19, 0x1A, 0x0A, 0x52, 0xEF,
1467:Source\mbedtls_open\library/aes.c ****     0xF6, 0x9F, 0x24, 0x45, 0xDF, 0x4F, 0x9B, 0x17,
1468:Source\mbedtls_open\library/aes.c ****     0xAD, 0x2B, 0x41, 0x7B, 0xE6, 0x6C, 0x37, 0x10
ARM GAS  C:\Users\Phuong\AppData\Local\Temp\ccyLHZOj.s 			page 88


1469:Source\mbedtls_open\library/aes.c **** };
1470:Source\mbedtls_open\library/aes.c **** 
1471:Source\mbedtls_open\library/aes.c **** static const unsigned char aes_test_cfb128_ct[3][64] =
1472:Source\mbedtls_open\library/aes.c **** {
1473:Source\mbedtls_open\library/aes.c ****     { 0x3B, 0x3F, 0xD9, 0x2E, 0xB7, 0x2D, 0xAD, 0x20,
1474:Source\mbedtls_open\library/aes.c ****       0x33, 0x34, 0x49, 0xF8, 0xE8, 0x3C, 0xFB, 0x4A,
1475:Source\mbedtls_open\library/aes.c ****       0xC8, 0xA6, 0x45, 0x37, 0xA0, 0xB3, 0xA9, 0x3F,
1476:Source\mbedtls_open\library/aes.c ****       0xCD, 0xE3, 0xCD, 0xAD, 0x9F, 0x1C, 0xE5, 0x8B,
1477:Source\mbedtls_open\library/aes.c ****       0x26, 0x75, 0x1F, 0x67, 0xA3, 0xCB, 0xB1, 0x40,
1478:Source\mbedtls_open\library/aes.c ****       0xB1, 0x80, 0x8C, 0xF1, 0x87, 0xA4, 0xF4, 0xDF,
1479:Source\mbedtls_open\library/aes.c ****       0xC0, 0x4B, 0x05, 0x35, 0x7C, 0x5D, 0x1C, 0x0E,
1480:Source\mbedtls_open\library/aes.c ****       0xEA, 0xC4, 0xC6, 0x6F, 0x9F, 0xF7, 0xF2, 0xE6 },
1481:Source\mbedtls_open\library/aes.c ****     { 0xCD, 0xC8, 0x0D, 0x6F, 0xDD, 0xF1, 0x8C, 0xAB,
1482:Source\mbedtls_open\library/aes.c ****       0x34, 0xC2, 0x59, 0x09, 0xC9, 0x9A, 0x41, 0x74,
1483:Source\mbedtls_open\library/aes.c ****       0x67, 0xCE, 0x7F, 0x7F, 0x81, 0x17, 0x36, 0x21,
1484:Source\mbedtls_open\library/aes.c ****       0x96, 0x1A, 0x2B, 0x70, 0x17, 0x1D, 0x3D, 0x7A,
1485:Source\mbedtls_open\library/aes.c ****       0x2E, 0x1E, 0x8A, 0x1D, 0xD5, 0x9B, 0x88, 0xB1,
1486:Source\mbedtls_open\library/aes.c ****       0xC8, 0xE6, 0x0F, 0xED, 0x1E, 0xFA, 0xC4, 0xC9,
1487:Source\mbedtls_open\library/aes.c ****       0xC0, 0x5F, 0x9F, 0x9C, 0xA9, 0x83, 0x4F, 0xA0,
1488:Source\mbedtls_open\library/aes.c ****       0x42, 0xAE, 0x8F, 0xBA, 0x58, 0x4B, 0x09, 0xFF },
1489:Source\mbedtls_open\library/aes.c ****     { 0xDC, 0x7E, 0x84, 0xBF, 0xDA, 0x79, 0x16, 0x4B,
1490:Source\mbedtls_open\library/aes.c ****       0x7E, 0xCD, 0x84, 0x86, 0x98, 0x5D, 0x38, 0x60,
1491:Source\mbedtls_open\library/aes.c ****       0x39, 0xFF, 0xED, 0x14, 0x3B, 0x28, 0xB1, 0xC8,
1492:Source\mbedtls_open\library/aes.c ****       0x32, 0x11, 0x3C, 0x63, 0x31, 0xE5, 0x40, 0x7B,
1493:Source\mbedtls_open\library/aes.c ****       0xDF, 0x10, 0x13, 0x24, 0x15, 0xE5, 0x4B, 0x92,
1494:Source\mbedtls_open\library/aes.c ****       0xA1, 0x3E, 0xD0, 0xA8, 0x26, 0x7A, 0xE2, 0xF9,
1495:Source\mbedtls_open\library/aes.c ****       0x75, 0xA3, 0x85, 0x74, 0x1A, 0xB9, 0xCE, 0xF8,
1496:Source\mbedtls_open\library/aes.c ****       0x20, 0x31, 0x62, 0x3D, 0x55, 0xB1, 0xE4, 0x71 }
1497:Source\mbedtls_open\library/aes.c **** };
1498:Source\mbedtls_open\library/aes.c **** #endif /* MBEDTLS_CIPHER_MODE_CFB */
1499:Source\mbedtls_open\library/aes.c **** 
1500:Source\mbedtls_open\library/aes.c **** #if defined(MBEDTLS_CIPHER_MODE_OFB)
1501:Source\mbedtls_open\library/aes.c **** /*
1502:Source\mbedtls_open\library/aes.c ****  * AES-OFB test vectors from:
1503:Source\mbedtls_open\library/aes.c ****  *
1504:Source\mbedtls_open\library/aes.c ****  * https://csrc.nist.gov/publications/detail/sp/800-38a/final
1505:Source\mbedtls_open\library/aes.c ****  */
1506:Source\mbedtls_open\library/aes.c **** static const unsigned char aes_test_ofb_key[3][32] =
1507:Source\mbedtls_open\library/aes.c **** {
1508:Source\mbedtls_open\library/aes.c ****     { 0x2B, 0x7E, 0x15, 0x16, 0x28, 0xAE, 0xD2, 0xA6,
1509:Source\mbedtls_open\library/aes.c ****       0xAB, 0xF7, 0x15, 0x88, 0x09, 0xCF, 0x4F, 0x3C },
1510:Source\mbedtls_open\library/aes.c ****     { 0x8E, 0x73, 0xB0, 0xF7, 0xDA, 0x0E, 0x64, 0x52,
1511:Source\mbedtls_open\library/aes.c ****       0xC8, 0x10, 0xF3, 0x2B, 0x80, 0x90, 0x79, 0xE5,
1512:Source\mbedtls_open\library/aes.c ****       0x62, 0xF8, 0xEA, 0xD2, 0x52, 0x2C, 0x6B, 0x7B },
1513:Source\mbedtls_open\library/aes.c ****     { 0x60, 0x3D, 0xEB, 0x10, 0x15, 0xCA, 0x71, 0xBE,
1514:Source\mbedtls_open\library/aes.c ****       0x2B, 0x73, 0xAE, 0xF0, 0x85, 0x7D, 0x77, 0x81,
1515:Source\mbedtls_open\library/aes.c ****       0x1F, 0x35, 0x2C, 0x07, 0x3B, 0x61, 0x08, 0xD7,
1516:Source\mbedtls_open\library/aes.c ****       0x2D, 0x98, 0x10, 0xA3, 0x09, 0x14, 0xDF, 0xF4 }
1517:Source\mbedtls_open\library/aes.c **** };
1518:Source\mbedtls_open\library/aes.c **** 
1519:Source\mbedtls_open\library/aes.c **** static const unsigned char aes_test_ofb_iv[16] =
1520:Source\mbedtls_open\library/aes.c **** {
1521:Source\mbedtls_open\library/aes.c ****     0x00, 0x01, 0x02, 0x03, 0x04, 0x05, 0x06, 0x07,
1522:Source\mbedtls_open\library/aes.c ****     0x08, 0x09, 0x0A, 0x0B, 0x0C, 0x0D, 0x0E, 0x0F
1523:Source\mbedtls_open\library/aes.c **** };
1524:Source\mbedtls_open\library/aes.c **** 
1525:Source\mbedtls_open\library/aes.c **** static const unsigned char aes_test_ofb_pt[64] =
ARM GAS  C:\Users\Phuong\AppData\Local\Temp\ccyLHZOj.s 			page 89


1526:Source\mbedtls_open\library/aes.c **** {
1527:Source\mbedtls_open\library/aes.c ****     0x6B, 0xC1, 0xBE, 0xE2, 0x2E, 0x40, 0x9F, 0x96,
1528:Source\mbedtls_open\library/aes.c ****     0xE9, 0x3D, 0x7E, 0x11, 0x73, 0x93, 0x17, 0x2A,
1529:Source\mbedtls_open\library/aes.c ****     0xAE, 0x2D, 0x8A, 0x57, 0x1E, 0x03, 0xAC, 0x9C,
1530:Source\mbedtls_open\library/aes.c ****     0x9E, 0xB7, 0x6F, 0xAC, 0x45, 0xAF, 0x8E, 0x51,
1531:Source\mbedtls_open\library/aes.c ****     0x30, 0xC8, 0x1C, 0x46, 0xA3, 0x5C, 0xE4, 0x11,
1532:Source\mbedtls_open\library/aes.c ****     0xE5, 0xFB, 0xC1, 0x19, 0x1A, 0x0A, 0x52, 0xEF,
1533:Source\mbedtls_open\library/aes.c ****     0xF6, 0x9F, 0x24, 0x45, 0xDF, 0x4F, 0x9B, 0x17,
1534:Source\mbedtls_open\library/aes.c ****     0xAD, 0x2B, 0x41, 0x7B, 0xE6, 0x6C, 0x37, 0x10
1535:Source\mbedtls_open\library/aes.c **** };
1536:Source\mbedtls_open\library/aes.c **** 
1537:Source\mbedtls_open\library/aes.c **** static const unsigned char aes_test_ofb_ct[3][64] =
1538:Source\mbedtls_open\library/aes.c **** {
1539:Source\mbedtls_open\library/aes.c ****     { 0x3B, 0x3F, 0xD9, 0x2E, 0xB7, 0x2D, 0xAD, 0x20,
1540:Source\mbedtls_open\library/aes.c ****       0x33, 0x34, 0x49, 0xF8, 0xE8, 0x3C, 0xFB, 0x4A,
1541:Source\mbedtls_open\library/aes.c ****       0x77, 0x89, 0x50, 0x8d, 0x16, 0x91, 0x8f, 0x03,
1542:Source\mbedtls_open\library/aes.c ****       0xf5, 0x3c, 0x52, 0xda, 0xc5, 0x4e, 0xd8, 0x25,
1543:Source\mbedtls_open\library/aes.c ****       0x97, 0x40, 0x05, 0x1e, 0x9c, 0x5f, 0xec, 0xf6,
1544:Source\mbedtls_open\library/aes.c ****       0x43, 0x44, 0xf7, 0xa8, 0x22, 0x60, 0xed, 0xcc,
1545:Source\mbedtls_open\library/aes.c ****       0x30, 0x4c, 0x65, 0x28, 0xf6, 0x59, 0xc7, 0x78,
1546:Source\mbedtls_open\library/aes.c ****       0x66, 0xa5, 0x10, 0xd9, 0xc1, 0xd6, 0xae, 0x5e },
1547:Source\mbedtls_open\library/aes.c ****     { 0xCD, 0xC8, 0x0D, 0x6F, 0xDD, 0xF1, 0x8C, 0xAB,
1548:Source\mbedtls_open\library/aes.c ****       0x34, 0xC2, 0x59, 0x09, 0xC9, 0x9A, 0x41, 0x74,
1549:Source\mbedtls_open\library/aes.c ****       0xfc, 0xc2, 0x8b, 0x8d, 0x4c, 0x63, 0x83, 0x7c,
1550:Source\mbedtls_open\library/aes.c ****       0x09, 0xe8, 0x17, 0x00, 0xc1, 0x10, 0x04, 0x01,
1551:Source\mbedtls_open\library/aes.c ****       0x8d, 0x9a, 0x9a, 0xea, 0xc0, 0xf6, 0x59, 0x6f,
1552:Source\mbedtls_open\library/aes.c ****       0x55, 0x9c, 0x6d, 0x4d, 0xaf, 0x59, 0xa5, 0xf2,
1553:Source\mbedtls_open\library/aes.c ****       0x6d, 0x9f, 0x20, 0x08, 0x57, 0xca, 0x6c, 0x3e,
1554:Source\mbedtls_open\library/aes.c ****       0x9c, 0xac, 0x52, 0x4b, 0xd9, 0xac, 0xc9, 0x2a },
1555:Source\mbedtls_open\library/aes.c ****     { 0xDC, 0x7E, 0x84, 0xBF, 0xDA, 0x79, 0x16, 0x4B,
1556:Source\mbedtls_open\library/aes.c ****       0x7E, 0xCD, 0x84, 0x86, 0x98, 0x5D, 0x38, 0x60,
1557:Source\mbedtls_open\library/aes.c ****       0x4f, 0xeb, 0xdc, 0x67, 0x40, 0xd2, 0x0b, 0x3a,
1558:Source\mbedtls_open\library/aes.c ****       0xc8, 0x8f, 0x6a, 0xd8, 0x2a, 0x4f, 0xb0, 0x8d,
1559:Source\mbedtls_open\library/aes.c ****       0x71, 0xab, 0x47, 0xa0, 0x86, 0xe8, 0x6e, 0xed,
1560:Source\mbedtls_open\library/aes.c ****       0xf3, 0x9d, 0x1c, 0x5b, 0xba, 0x97, 0xc4, 0x08,
1561:Source\mbedtls_open\library/aes.c ****       0x01, 0x26, 0x14, 0x1d, 0x67, 0xf3, 0x7b, 0xe8,
1562:Source\mbedtls_open\library/aes.c ****       0x53, 0x8f, 0x5a, 0x8b, 0xe7, 0x40, 0xe4, 0x84 }
1563:Source\mbedtls_open\library/aes.c **** };
1564:Source\mbedtls_open\library/aes.c **** #endif /* MBEDTLS_CIPHER_MODE_OFB */
1565:Source\mbedtls_open\library/aes.c **** 
1566:Source\mbedtls_open\library/aes.c **** #if defined(MBEDTLS_CIPHER_MODE_CTR)
1567:Source\mbedtls_open\library/aes.c **** /*
1568:Source\mbedtls_open\library/aes.c ****  * AES-CTR test vectors from:
1569:Source\mbedtls_open\library/aes.c ****  *
1570:Source\mbedtls_open\library/aes.c ****  * http://www.faqs.org/rfcs/rfc3686.html
1571:Source\mbedtls_open\library/aes.c ****  */
1572:Source\mbedtls_open\library/aes.c **** 
1573:Source\mbedtls_open\library/aes.c **** static const unsigned char aes_test_ctr_key[3][16] =
1574:Source\mbedtls_open\library/aes.c **** {
1575:Source\mbedtls_open\library/aes.c ****     { 0xAE, 0x68, 0x52, 0xF8, 0x12, 0x10, 0x67, 0xCC,
1576:Source\mbedtls_open\library/aes.c ****       0x4B, 0xF7, 0xA5, 0x76, 0x55, 0x77, 0xF3, 0x9E },
1577:Source\mbedtls_open\library/aes.c ****     { 0x7E, 0x24, 0x06, 0x78, 0x17, 0xFA, 0xE0, 0xD7,
1578:Source\mbedtls_open\library/aes.c ****       0x43, 0xD6, 0xCE, 0x1F, 0x32, 0x53, 0x91, 0x63 },
1579:Source\mbedtls_open\library/aes.c ****     { 0x76, 0x91, 0xBE, 0x03, 0x5E, 0x50, 0x20, 0xA8,
1580:Source\mbedtls_open\library/aes.c ****       0xAC, 0x6E, 0x61, 0x85, 0x29, 0xF9, 0xA0, 0xDC }
1581:Source\mbedtls_open\library/aes.c **** };
1582:Source\mbedtls_open\library/aes.c **** 
ARM GAS  C:\Users\Phuong\AppData\Local\Temp\ccyLHZOj.s 			page 90


1583:Source\mbedtls_open\library/aes.c **** static const unsigned char aes_test_ctr_nonce_counter[3][16] =
1584:Source\mbedtls_open\library/aes.c **** {
1585:Source\mbedtls_open\library/aes.c ****     { 0x00, 0x00, 0x00, 0x30, 0x00, 0x00, 0x00, 0x00,
1586:Source\mbedtls_open\library/aes.c ****       0x00, 0x00, 0x00, 0x00, 0x00, 0x00, 0x00, 0x01 },
1587:Source\mbedtls_open\library/aes.c ****     { 0x00, 0x6C, 0xB6, 0xDB, 0xC0, 0x54, 0x3B, 0x59,
1588:Source\mbedtls_open\library/aes.c ****       0xDA, 0x48, 0xD9, 0x0B, 0x00, 0x00, 0x00, 0x01 },
1589:Source\mbedtls_open\library/aes.c ****     { 0x00, 0xE0, 0x01, 0x7B, 0x27, 0x77, 0x7F, 0x3F,
1590:Source\mbedtls_open\library/aes.c ****       0x4A, 0x17, 0x86, 0xF0, 0x00, 0x00, 0x00, 0x01 }
1591:Source\mbedtls_open\library/aes.c **** };
1592:Source\mbedtls_open\library/aes.c **** 
1593:Source\mbedtls_open\library/aes.c **** static const unsigned char aes_test_ctr_pt[3][48] =
1594:Source\mbedtls_open\library/aes.c **** {
1595:Source\mbedtls_open\library/aes.c ****     { 0x53, 0x69, 0x6E, 0x67, 0x6C, 0x65, 0x20, 0x62,
1596:Source\mbedtls_open\library/aes.c ****       0x6C, 0x6F, 0x63, 0x6B, 0x20, 0x6D, 0x73, 0x67 },
1597:Source\mbedtls_open\library/aes.c **** 
1598:Source\mbedtls_open\library/aes.c ****     { 0x00, 0x01, 0x02, 0x03, 0x04, 0x05, 0x06, 0x07,
1599:Source\mbedtls_open\library/aes.c ****       0x08, 0x09, 0x0A, 0x0B, 0x0C, 0x0D, 0x0E, 0x0F,
1600:Source\mbedtls_open\library/aes.c ****       0x10, 0x11, 0x12, 0x13, 0x14, 0x15, 0x16, 0x17,
1601:Source\mbedtls_open\library/aes.c ****       0x18, 0x19, 0x1A, 0x1B, 0x1C, 0x1D, 0x1E, 0x1F },
1602:Source\mbedtls_open\library/aes.c **** 
1603:Source\mbedtls_open\library/aes.c ****     { 0x00, 0x01, 0x02, 0x03, 0x04, 0x05, 0x06, 0x07,
1604:Source\mbedtls_open\library/aes.c ****       0x08, 0x09, 0x0A, 0x0B, 0x0C, 0x0D, 0x0E, 0x0F,
1605:Source\mbedtls_open\library/aes.c ****       0x10, 0x11, 0x12, 0x13, 0x14, 0x15, 0x16, 0x17,
1606:Source\mbedtls_open\library/aes.c ****       0x18, 0x19, 0x1A, 0x1B, 0x1C, 0x1D, 0x1E, 0x1F,
1607:Source\mbedtls_open\library/aes.c ****       0x20, 0x21, 0x22, 0x23 }
1608:Source\mbedtls_open\library/aes.c **** };
1609:Source\mbedtls_open\library/aes.c **** 
1610:Source\mbedtls_open\library/aes.c **** static const unsigned char aes_test_ctr_ct[3][48] =
1611:Source\mbedtls_open\library/aes.c **** {
1612:Source\mbedtls_open\library/aes.c ****     { 0xE4, 0x09, 0x5D, 0x4F, 0xB7, 0xA7, 0xB3, 0x79,
1613:Source\mbedtls_open\library/aes.c ****       0x2D, 0x61, 0x75, 0xA3, 0x26, 0x13, 0x11, 0xB8 },
1614:Source\mbedtls_open\library/aes.c ****     { 0x51, 0x04, 0xA1, 0x06, 0x16, 0x8A, 0x72, 0xD9,
1615:Source\mbedtls_open\library/aes.c ****       0x79, 0x0D, 0x41, 0xEE, 0x8E, 0xDA, 0xD3, 0x88,
1616:Source\mbedtls_open\library/aes.c ****       0xEB, 0x2E, 0x1E, 0xFC, 0x46, 0xDA, 0x57, 0xC8,
1617:Source\mbedtls_open\library/aes.c ****       0xFC, 0xE6, 0x30, 0xDF, 0x91, 0x41, 0xBE, 0x28 },
1618:Source\mbedtls_open\library/aes.c ****     { 0xC1, 0xCF, 0x48, 0xA8, 0x9F, 0x2F, 0xFD, 0xD9,
1619:Source\mbedtls_open\library/aes.c ****       0xCF, 0x46, 0x52, 0xE9, 0xEF, 0xDB, 0x72, 0xD7,
1620:Source\mbedtls_open\library/aes.c ****       0x45, 0x40, 0xA4, 0x2B, 0xDE, 0x6D, 0x78, 0x36,
1621:Source\mbedtls_open\library/aes.c ****       0xD5, 0x9A, 0x5C, 0xEA, 0xAE, 0xF3, 0x10, 0x53,
1622:Source\mbedtls_open\library/aes.c ****       0x25, 0xB2, 0x07, 0x2F }
1623:Source\mbedtls_open\library/aes.c **** };
1624:Source\mbedtls_open\library/aes.c **** 
1625:Source\mbedtls_open\library/aes.c **** static const int aes_test_ctr_len[3] =
1626:Source\mbedtls_open\library/aes.c ****     { 16, 32, 36 };
1627:Source\mbedtls_open\library/aes.c **** #endif /* MBEDTLS_CIPHER_MODE_CTR */
1628:Source\mbedtls_open\library/aes.c **** 
1629:Source\mbedtls_open\library/aes.c **** #if defined(MBEDTLS_CIPHER_MODE_XTS)
1630:Source\mbedtls_open\library/aes.c **** /*
1631:Source\mbedtls_open\library/aes.c ****  * AES-XTS test vectors from:
1632:Source\mbedtls_open\library/aes.c ****  *
1633:Source\mbedtls_open\library/aes.c ****  * IEEE P1619/D16 Annex B
1634:Source\mbedtls_open\library/aes.c ****  * https://web.archive.org/web/20150629024421/http://grouper.ieee.org/groups/1619/email/pdf00086.pd
1635:Source\mbedtls_open\library/aes.c ****  * (Archived from original at http://grouper.ieee.org/groups/1619/email/pdf00086.pdf)
1636:Source\mbedtls_open\library/aes.c ****  */
1637:Source\mbedtls_open\library/aes.c **** static const unsigned char aes_test_xts_key[][32] =
1638:Source\mbedtls_open\library/aes.c **** {
1639:Source\mbedtls_open\library/aes.c ****     { 0x00, 0x00, 0x00, 0x00, 0x00, 0x00, 0x00, 0x00,
ARM GAS  C:\Users\Phuong\AppData\Local\Temp\ccyLHZOj.s 			page 91


1640:Source\mbedtls_open\library/aes.c ****       0x00, 0x00, 0x00, 0x00, 0x00, 0x00, 0x00, 0x00,
1641:Source\mbedtls_open\library/aes.c ****       0x00, 0x00, 0x00, 0x00, 0x00, 0x00, 0x00, 0x00,
1642:Source\mbedtls_open\library/aes.c ****       0x00, 0x00, 0x00, 0x00, 0x00, 0x00, 0x00, 0x00 },
1643:Source\mbedtls_open\library/aes.c ****     { 0x11, 0x11, 0x11, 0x11, 0x11, 0x11, 0x11, 0x11,
1644:Source\mbedtls_open\library/aes.c ****       0x11, 0x11, 0x11, 0x11, 0x11, 0x11, 0x11, 0x11,
1645:Source\mbedtls_open\library/aes.c ****       0x22, 0x22, 0x22, 0x22, 0x22, 0x22, 0x22, 0x22,
1646:Source\mbedtls_open\library/aes.c ****       0x22, 0x22, 0x22, 0x22, 0x22, 0x22, 0x22, 0x22 },
1647:Source\mbedtls_open\library/aes.c ****     { 0xff, 0xfe, 0xfd, 0xfc, 0xfb, 0xfa, 0xf9, 0xf8,
1648:Source\mbedtls_open\library/aes.c ****       0xf7, 0xf6, 0xf5, 0xf4, 0xf3, 0xf2, 0xf1, 0xf0,
1649:Source\mbedtls_open\library/aes.c ****       0x22, 0x22, 0x22, 0x22, 0x22, 0x22, 0x22, 0x22,
1650:Source\mbedtls_open\library/aes.c ****       0x22, 0x22, 0x22, 0x22, 0x22, 0x22, 0x22, 0x22 },
1651:Source\mbedtls_open\library/aes.c **** };
1652:Source\mbedtls_open\library/aes.c **** 
1653:Source\mbedtls_open\library/aes.c **** static const unsigned char aes_test_xts_pt32[][32] =
1654:Source\mbedtls_open\library/aes.c **** {
1655:Source\mbedtls_open\library/aes.c ****     { 0x00, 0x00, 0x00, 0x00, 0x00, 0x00, 0x00, 0x00,
1656:Source\mbedtls_open\library/aes.c ****       0x00, 0x00, 0x00, 0x00, 0x00, 0x00, 0x00, 0x00,
1657:Source\mbedtls_open\library/aes.c ****       0x00, 0x00, 0x00, 0x00, 0x00, 0x00, 0x00, 0x00,
1658:Source\mbedtls_open\library/aes.c ****       0x00, 0x00, 0x00, 0x00, 0x00, 0x00, 0x00, 0x00 },
1659:Source\mbedtls_open\library/aes.c ****     { 0x44, 0x44, 0x44, 0x44, 0x44, 0x44, 0x44, 0x44,
1660:Source\mbedtls_open\library/aes.c ****       0x44, 0x44, 0x44, 0x44, 0x44, 0x44, 0x44, 0x44,
1661:Source\mbedtls_open\library/aes.c ****       0x44, 0x44, 0x44, 0x44, 0x44, 0x44, 0x44, 0x44,
1662:Source\mbedtls_open\library/aes.c ****       0x44, 0x44, 0x44, 0x44, 0x44, 0x44, 0x44, 0x44 },
1663:Source\mbedtls_open\library/aes.c ****     { 0x44, 0x44, 0x44, 0x44, 0x44, 0x44, 0x44, 0x44,
1664:Source\mbedtls_open\library/aes.c ****       0x44, 0x44, 0x44, 0x44, 0x44, 0x44, 0x44, 0x44,
1665:Source\mbedtls_open\library/aes.c ****       0x44, 0x44, 0x44, 0x44, 0x44, 0x44, 0x44, 0x44,
1666:Source\mbedtls_open\library/aes.c ****       0x44, 0x44, 0x44, 0x44, 0x44, 0x44, 0x44, 0x44 },
1667:Source\mbedtls_open\library/aes.c **** };
1668:Source\mbedtls_open\library/aes.c **** 
1669:Source\mbedtls_open\library/aes.c **** static const unsigned char aes_test_xts_ct32[][32] =
1670:Source\mbedtls_open\library/aes.c **** {
1671:Source\mbedtls_open\library/aes.c ****     { 0x91, 0x7c, 0xf6, 0x9e, 0xbd, 0x68, 0xb2, 0xec,
1672:Source\mbedtls_open\library/aes.c ****       0x9b, 0x9f, 0xe9, 0xa3, 0xea, 0xdd, 0xa6, 0x92,
1673:Source\mbedtls_open\library/aes.c ****       0xcd, 0x43, 0xd2, 0xf5, 0x95, 0x98, 0xed, 0x85,
1674:Source\mbedtls_open\library/aes.c ****       0x8c, 0x02, 0xc2, 0x65, 0x2f, 0xbf, 0x92, 0x2e },
1675:Source\mbedtls_open\library/aes.c ****     { 0xc4, 0x54, 0x18, 0x5e, 0x6a, 0x16, 0x93, 0x6e,
1676:Source\mbedtls_open\library/aes.c ****       0x39, 0x33, 0x40, 0x38, 0xac, 0xef, 0x83, 0x8b,
1677:Source\mbedtls_open\library/aes.c ****       0xfb, 0x18, 0x6f, 0xff, 0x74, 0x80, 0xad, 0xc4,
1678:Source\mbedtls_open\library/aes.c ****       0x28, 0x93, 0x82, 0xec, 0xd6, 0xd3, 0x94, 0xf0 },
1679:Source\mbedtls_open\library/aes.c ****     { 0xaf, 0x85, 0x33, 0x6b, 0x59, 0x7a, 0xfc, 0x1a,
1680:Source\mbedtls_open\library/aes.c ****       0x90, 0x0b, 0x2e, 0xb2, 0x1e, 0xc9, 0x49, 0xd2,
1681:Source\mbedtls_open\library/aes.c ****       0x92, 0xdf, 0x4c, 0x04, 0x7e, 0x0b, 0x21, 0x53,
1682:Source\mbedtls_open\library/aes.c ****       0x21, 0x86, 0xa5, 0x97, 0x1a, 0x22, 0x7a, 0x89 },
1683:Source\mbedtls_open\library/aes.c **** };
1684:Source\mbedtls_open\library/aes.c **** 
1685:Source\mbedtls_open\library/aes.c **** static const unsigned char aes_test_xts_data_unit[][16] =
1686:Source\mbedtls_open\library/aes.c **** {
1687:Source\mbedtls_open\library/aes.c ****    { 0x00, 0x00, 0x00, 0x00, 0x00, 0x00, 0x00, 0x00,
1688:Source\mbedtls_open\library/aes.c ****      0x00, 0x00, 0x00, 0x00, 0x00, 0x00, 0x00, 0x00 },
1689:Source\mbedtls_open\library/aes.c ****    { 0x33, 0x33, 0x33, 0x33, 0x33, 0x00, 0x00, 0x00,
1690:Source\mbedtls_open\library/aes.c ****      0x00, 0x00, 0x00, 0x00, 0x00, 0x00, 0x00, 0x00 },
1691:Source\mbedtls_open\library/aes.c ****    { 0x33, 0x33, 0x33, 0x33, 0x33, 0x00, 0x00, 0x00,
1692:Source\mbedtls_open\library/aes.c ****      0x00, 0x00, 0x00, 0x00, 0x00, 0x00, 0x00, 0x00 },
1693:Source\mbedtls_open\library/aes.c **** };
1694:Source\mbedtls_open\library/aes.c **** 
1695:Source\mbedtls_open\library/aes.c **** #endif /* MBEDTLS_CIPHER_MODE_XTS */
1696:Source\mbedtls_open\library/aes.c **** 
ARM GAS  C:\Users\Phuong\AppData\Local\Temp\ccyLHZOj.s 			page 92


1697:Source\mbedtls_open\library/aes.c **** /*
1698:Source\mbedtls_open\library/aes.c ****  * Checkup routine
1699:Source\mbedtls_open\library/aes.c ****  */
1700:Source\mbedtls_open\library/aes.c **** int mbedtls_aes_self_test( int verbose )
1701:Source\mbedtls_open\library/aes.c **** {
 3341              		.loc 1 1701 0
 3342              		.cfi_startproc
 3343              		@ args = 0, pretend = 0, frame = 464
 3344              		@ frame_needed = 0, uses_anonymous_args = 0
 3345              	.LVL353:
 3346 0000 F0B5     		push	{r4, r5, r6, r7, lr}
 3347              		.cfi_def_cfa_offset 20
 3348              		.cfi_offset 4, -20
 3349              		.cfi_offset 5, -16
 3350              		.cfi_offset 6, -12
 3351              		.cfi_offset 7, -8
 3352              		.cfi_offset 14, -4
 3353 0002 5F46     		mov	r7, fp
 3354 0004 5646     		mov	r6, r10
 3355 0006 4D46     		mov	r5, r9
 3356 0008 4446     		mov	r4, r8
 3357 000a F0B4     		push	{r4, r5, r6, r7}
 3358              		.cfi_def_cfa_offset 36
 3359              		.cfi_offset 8, -36
 3360              		.cfi_offset 9, -32
 3361              		.cfi_offset 10, -28
 3362              		.cfi_offset 11, -24
 3363 000c F9B0     		sub	sp, sp, #484
 3364              		.cfi_def_cfa_offset 520
 3365 000e 8346     		mov	fp, r0
 3366              	.LVL354:
1702:Source\mbedtls_open\library/aes.c ****     int ret = 0, i, j, u, mode;
1703:Source\mbedtls_open\library/aes.c ****     unsigned int keybits;
1704:Source\mbedtls_open\library/aes.c ****     unsigned char key[32];
1705:Source\mbedtls_open\library/aes.c ****     unsigned char buf[64];
1706:Source\mbedtls_open\library/aes.c ****     const unsigned char *aes_tests;
1707:Source\mbedtls_open\library/aes.c **** #if defined(MBEDTLS_CIPHER_MODE_CBC) || defined(MBEDTLS_CIPHER_MODE_CFB)
1708:Source\mbedtls_open\library/aes.c ****     unsigned char iv[16];
1709:Source\mbedtls_open\library/aes.c **** #endif
1710:Source\mbedtls_open\library/aes.c **** #if defined(MBEDTLS_CIPHER_MODE_CBC)
1711:Source\mbedtls_open\library/aes.c ****     unsigned char prv[16];
1712:Source\mbedtls_open\library/aes.c **** #endif
1713:Source\mbedtls_open\library/aes.c **** #if defined(MBEDTLS_CIPHER_MODE_CTR) || defined(MBEDTLS_CIPHER_MODE_CFB) || \
1714:Source\mbedtls_open\library/aes.c ****     defined(MBEDTLS_CIPHER_MODE_OFB)
1715:Source\mbedtls_open\library/aes.c ****     size_t offset;
1716:Source\mbedtls_open\library/aes.c **** #endif
1717:Source\mbedtls_open\library/aes.c **** #if defined(MBEDTLS_CIPHER_MODE_CTR) || defined(MBEDTLS_CIPHER_MODE_XTS)
1718:Source\mbedtls_open\library/aes.c ****     int len;
1719:Source\mbedtls_open\library/aes.c **** #endif
1720:Source\mbedtls_open\library/aes.c **** #if defined(MBEDTLS_CIPHER_MODE_CTR)
1721:Source\mbedtls_open\library/aes.c ****     unsigned char nonce_counter[16];
1722:Source\mbedtls_open\library/aes.c ****     unsigned char stream_block[16];
1723:Source\mbedtls_open\library/aes.c **** #endif
1724:Source\mbedtls_open\library/aes.c ****     mbedtls_aes_context ctx;
1725:Source\mbedtls_open\library/aes.c **** 
1726:Source\mbedtls_open\library/aes.c ****     memset( key, 0, 32 );
 3367              		.loc 1 1726 0
ARM GAS  C:\Users\Phuong\AppData\Local\Temp\ccyLHZOj.s 			page 93


 3368 0010 2022     		movs	r2, #32
 3369 0012 0021     		movs	r1, #0
 3370 0014 70A8     		add	r0, sp, #448
 3371              	.LVL355:
 3372 0016 FFF7FEFF 		bl	memset
 3373              	.LVL356:
1727:Source\mbedtls_open\library/aes.c ****     mbedtls_aes_init( &ctx );
 3374              		.loc 1 1727 0
 3375 001a 09A8     		add	r0, sp, #36
 3376 001c FFF7FEFF 		bl	mbedtls_aes_init
 3377              	.LVL357:
1728:Source\mbedtls_open\library/aes.c **** 
1729:Source\mbedtls_open\library/aes.c ****     /*
1730:Source\mbedtls_open\library/aes.c ****      * ECB mode
1731:Source\mbedtls_open\library/aes.c ****      */
1732:Source\mbedtls_open\library/aes.c ****     for( i = 0; i < 6; i++ )
 3378              		.loc 1 1732 0
 3379 0020 0023     		movs	r3, #0
 3380 0022 9946     		mov	r9, r3
 3381 0024 5BE0     		b	.L113
 3382              	.LVL358:
 3383              	.L123:
1733:Source\mbedtls_open\library/aes.c ****     {
1734:Source\mbedtls_open\library/aes.c ****         u = i >> 1;
 3384              		.loc 1 1734 0
 3385 0026 4B46     		mov	r3, r9
 3386              	.LVL359:
 3387 0028 5C10     		asrs	r4, r3, #1
 3388              	.LVL360:
1735:Source\mbedtls_open\library/aes.c ****         keybits = 128 + u * 64;
 3389              		.loc 1 1735 0
 3390 002a A31C     		adds	r3, r4, #2
 3391 002c 9F01     		lsls	r7, r3, #6
 3392              	.LVL361:
1736:Source\mbedtls_open\library/aes.c ****         mode = i & 1;
 3393              		.loc 1 1736 0
 3394 002e 0126     		movs	r6, #1
 3395 0030 4B46     		mov	r3, r9
 3396 0032 1E40     		ands	r6, r3
 3397              	.LVL362:
1737:Source\mbedtls_open\library/aes.c **** 
1738:Source\mbedtls_open\library/aes.c ****         if( verbose != 0 )
 3398              		.loc 1 1738 0
 3399 0034 5B46     		mov	r3, fp
 3400 0036 002B     		cmp	r3, #0
 3401 0038 08D0     		beq	.L114
 3402              	.LVL363:
1739:Source\mbedtls_open\library/aes.c ****             mbedtls_printf( "  AES-ECB-%3d (%s): ", keybits,
 3403              		.loc 1 1739 0
 3404 003a 002E     		cmp	r6, #0
 3405 003c 01D1     		bne	.L163
 3406 003e CB4A     		ldr	r2, .L174
 3407 0040 00E0     		b	.L115
 3408              	.L163:
 3409 0042 CB4A     		ldr	r2, .L174+4
 3410              	.L115:
 3411              		.loc 1 1739 0 is_stmt 0 discriminator 4
ARM GAS  C:\Users\Phuong\AppData\Local\Temp\ccyLHZOj.s 			page 94


 3412 0044 3900     		movs	r1, r7
 3413 0046 CB48     		ldr	r0, .L174+8
 3414 0048 FFF7FEFF 		bl	printf
 3415              	.LVL364:
 3416              	.L114:
1740:Source\mbedtls_open\library/aes.c ****                             ( mode == MBEDTLS_AES_DECRYPT ) ? "dec" : "enc" );
1741:Source\mbedtls_open\library/aes.c **** 
1742:Source\mbedtls_open\library/aes.c ****         memset( buf, 0, 16 );
 3417              		.loc 1 1742 0 is_stmt 1
 3418 004c 1022     		movs	r2, #16
 3419 004e 0021     		movs	r1, #0
 3420 0050 60A8     		add	r0, sp, #384
 3421 0052 FFF7FEFF 		bl	memset
 3422              	.LVL365:
1743:Source\mbedtls_open\library/aes.c **** 
1744:Source\mbedtls_open\library/aes.c ****         if( mode == MBEDTLS_AES_DECRYPT )
 3423              		.loc 1 1744 0
 3424 0056 002E     		cmp	r6, #0
 3425 0058 0AD1     		bne	.L116
1745:Source\mbedtls_open\library/aes.c ****         {
1746:Source\mbedtls_open\library/aes.c ****             ret = mbedtls_aes_setkey_dec( &ctx, key, keybits );
 3426              		.loc 1 1746 0
 3427 005a 3A00     		movs	r2, r7
 3428 005c 70A9     		add	r1, sp, #448
 3429 005e 09A8     		add	r0, sp, #36
 3430 0060 FFF7FEFF 		bl	mbedtls_aes_setkey_dec
 3431              	.LVL366:
 3432 0064 0500     		movs	r5, r0
 3433              	.LVL367:
1747:Source\mbedtls_open\library/aes.c ****             aes_tests = aes_test_ecb_dec[u];
 3434              		.loc 1 1747 0
 3435 0066 2401     		lsls	r4, r4, #4
 3436              	.LVL368:
 3437 0068 C34B     		ldr	r3, .L174+12
 3438 006a 9846     		mov	r8, r3
 3439 006c A044     		add	r8, r8, r4
 3440              	.LVL369:
 3441 006e 0AE0     		b	.L117
 3442              	.LVL370:
 3443              	.L116:
1748:Source\mbedtls_open\library/aes.c ****         }
1749:Source\mbedtls_open\library/aes.c ****         else
1750:Source\mbedtls_open\library/aes.c ****         {
1751:Source\mbedtls_open\library/aes.c ****             ret = mbedtls_aes_setkey_enc( &ctx, key, keybits );
 3444              		.loc 1 1751 0
 3445 0070 3A00     		movs	r2, r7
 3446 0072 70A9     		add	r1, sp, #448
 3447 0074 09A8     		add	r0, sp, #36
 3448 0076 FFF7FEFF 		bl	mbedtls_aes_setkey_enc
 3449              	.LVL371:
 3450 007a 0500     		movs	r5, r0
 3451              	.LVL372:
1752:Source\mbedtls_open\library/aes.c ****             aes_tests = aes_test_ecb_enc[u];
 3452              		.loc 1 1752 0
 3453 007c 2401     		lsls	r4, r4, #4
 3454              	.LVL373:
 3455 007e BE4B     		ldr	r3, .L174+12
ARM GAS  C:\Users\Phuong\AppData\Local\Temp\ccyLHZOj.s 			page 95


 3456 0080 3033     		adds	r3, r3, #48
 3457 0082 9846     		mov	r8, r3
 3458 0084 A044     		add	r8, r8, r4
 3459              	.LVL374:
 3460              	.L117:
1753:Source\mbedtls_open\library/aes.c ****         }
1754:Source\mbedtls_open\library/aes.c **** 
1755:Source\mbedtls_open\library/aes.c ****         /*
1756:Source\mbedtls_open\library/aes.c ****          * AES-192 is an optional feature that may be unavailable when
1757:Source\mbedtls_open\library/aes.c ****          * there is an alternative underlying implementation i.e. when
1758:Source\mbedtls_open\library/aes.c ****          * MBEDTLS_AES_ALT is defined.
1759:Source\mbedtls_open\library/aes.c ****          */
1760:Source\mbedtls_open\library/aes.c ****         if( ret == MBEDTLS_ERR_AES_FEATURE_UNAVAILABLE && keybits == 192 )
 3461              		.loc 1 1760 0
 3462 0086 2B00     		movs	r3, r5
 3463 0088 2333     		adds	r3, r3, #35
 3464 008a 05D1     		bne	.L118
 3465              		.loc 1 1760 0 is_stmt 0 discriminator 1
 3466 008c C02F     		cmp	r7, #192
 3467 008e 03D1     		bne	.L118
1761:Source\mbedtls_open\library/aes.c ****         {
1762:Source\mbedtls_open\library/aes.c ****             mbedtls_printf( "skipped\n" );
 3468              		.loc 1 1762 0 is_stmt 1
 3469 0090 BA48     		ldr	r0, .L174+16
 3470              	.LVL375:
 3471 0092 FFF7FEFF 		bl	puts
 3472              	.LVL376:
1763:Source\mbedtls_open\library/aes.c ****             continue;
 3473              		.loc 1 1763 0
 3474 0096 1FE0     		b	.L119
 3475              	.LVL377:
 3476              	.L118:
1764:Source\mbedtls_open\library/aes.c ****         }
1765:Source\mbedtls_open\library/aes.c ****         else if( ret != 0 )
 3477              		.loc 1 1765 0
 3478 0098 002D     		cmp	r5, #0
 3479 009a 00D0     		beq	.LCB3795
 3480 009c 47E2     		b	.L120	@long jump
 3481              	.LCB3795:
 3482 009e 0024     		movs	r4, #0
 3483 00a0 09E0     		b	.L121
 3484              	.LVL378:
 3485              	.L122:
1766:Source\mbedtls_open\library/aes.c ****         {
1767:Source\mbedtls_open\library/aes.c ****             goto exit;
1768:Source\mbedtls_open\library/aes.c ****         }
1769:Source\mbedtls_open\library/aes.c **** 
1770:Source\mbedtls_open\library/aes.c ****         for( j = 0; j < 10000; j++ )
1771:Source\mbedtls_open\library/aes.c ****         {
1772:Source\mbedtls_open\library/aes.c ****             ret = mbedtls_aes_crypt_ecb( &ctx, mode, buf, buf );
 3486              		.loc 1 1772 0
 3487 00a2 60AB     		add	r3, sp, #384
 3488 00a4 1A00     		movs	r2, r3
 3489 00a6 3100     		movs	r1, r6
 3490 00a8 09A8     		add	r0, sp, #36
 3491              	.LVL379:
 3492 00aa FFF7FEFF 		bl	mbedtls_aes_crypt_ecb
ARM GAS  C:\Users\Phuong\AppData\Local\Temp\ccyLHZOj.s 			page 96


 3493              	.LVL380:
 3494 00ae 051E     		subs	r5, r0, #0
 3495              	.LVL381:
1773:Source\mbedtls_open\library/aes.c ****             if( ret != 0 )
 3496              		.loc 1 1773 0
 3497 00b0 00D0     		beq	.LCB3815
 3498 00b2 3CE2     		b	.L120	@long jump
 3499              	.LCB3815:
1770:Source\mbedtls_open\library/aes.c ****         {
 3500              		.loc 1 1770 0 discriminator 2
 3501 00b4 0134     		adds	r4, r4, #1
 3502              	.LVL382:
 3503              	.L121:
1770:Source\mbedtls_open\library/aes.c ****         {
 3504              		.loc 1 1770 0 is_stmt 0 discriminator 1
 3505 00b6 B24B     		ldr	r3, .L174+20
 3506 00b8 9C42     		cmp	r4, r3
 3507 00ba F2DD     		ble	.L122
1774:Source\mbedtls_open\library/aes.c ****                 goto exit;
1775:Source\mbedtls_open\library/aes.c ****         }
1776:Source\mbedtls_open\library/aes.c **** 
1777:Source\mbedtls_open\library/aes.c ****         if( memcmp( buf, aes_tests, 16 ) != 0 )
 3508              		.loc 1 1777 0 is_stmt 1
 3509 00bc 1022     		movs	r2, #16
 3510 00be 4146     		mov	r1, r8
 3511 00c0 60A8     		add	r0, sp, #384
 3512              	.LVL383:
 3513 00c2 FFF7FEFF 		bl	memcmp
 3514              	.LVL384:
 3515 00c6 0028     		cmp	r0, #0
 3516 00c8 00D0     		beq	.LCB3835
 3517 00ca 25E2     		b	.L164	@long jump
 3518              	.LCB3835:
1778:Source\mbedtls_open\library/aes.c ****         {
1779:Source\mbedtls_open\library/aes.c ****             ret = 1;
1780:Source\mbedtls_open\library/aes.c ****             goto exit;
1781:Source\mbedtls_open\library/aes.c ****         }
1782:Source\mbedtls_open\library/aes.c **** 
1783:Source\mbedtls_open\library/aes.c ****         if( verbose != 0 )
 3519              		.loc 1 1783 0
 3520 00cc 5B46     		mov	r3, fp
 3521 00ce 002B     		cmp	r3, #0
 3522 00d0 02D0     		beq	.L119
 3523              	.LVL385:
1784:Source\mbedtls_open\library/aes.c ****             mbedtls_printf( "passed\n" );
 3524              		.loc 1 1784 0
 3525 00d2 AC48     		ldr	r0, .L174+24
 3526 00d4 FFF7FEFF 		bl	puts
 3527              	.LVL386:
 3528              	.L119:
1732:Source\mbedtls_open\library/aes.c ****     {
 3529              		.loc 1 1732 0 discriminator 2
 3530 00d8 0123     		movs	r3, #1
 3531 00da 9C46     		mov	ip, r3
 3532 00dc E144     		add	r9, r9, ip
 3533              	.LVL387:
 3534              	.L113:
ARM GAS  C:\Users\Phuong\AppData\Local\Temp\ccyLHZOj.s 			page 97


1732:Source\mbedtls_open\library/aes.c ****     {
 3535              		.loc 1 1732 0 is_stmt 0 discriminator 1
 3536 00de 4B46     		mov	r3, r9
 3537 00e0 052B     		cmp	r3, #5
 3538 00e2 A0DD     		ble	.L123
1785:Source\mbedtls_open\library/aes.c ****     }
1786:Source\mbedtls_open\library/aes.c **** 
1787:Source\mbedtls_open\library/aes.c ****     if( verbose != 0 )
 3539              		.loc 1 1787 0 is_stmt 1
 3540 00e4 5B46     		mov	r3, fp
 3541 00e6 002B     		cmp	r3, #0
 3542 00e8 02D0     		beq	.L124
 3543              	.LVL388:
1788:Source\mbedtls_open\library/aes.c ****         mbedtls_printf( "\n" );
 3544              		.loc 1 1788 0
 3545 00ea 0A20     		movs	r0, #10
 3546 00ec FFF7FEFF 		bl	putchar
 3547              	.LVL389:
 3548              	.L124:
 3549 00f0 0023     		movs	r3, #0
 3550 00f2 9A46     		mov	r10, r3
 3551 00f4 7FE0     		b	.L125
 3552              	.LVL390:
 3553              	.L135:
1789:Source\mbedtls_open\library/aes.c **** 
1790:Source\mbedtls_open\library/aes.c **** #if defined(MBEDTLS_CIPHER_MODE_CBC)
1791:Source\mbedtls_open\library/aes.c ****     /*
1792:Source\mbedtls_open\library/aes.c ****      * CBC mode
1793:Source\mbedtls_open\library/aes.c ****      */
1794:Source\mbedtls_open\library/aes.c ****     for( i = 0; i < 6; i++ )
1795:Source\mbedtls_open\library/aes.c ****     {
1796:Source\mbedtls_open\library/aes.c ****         u = i >> 1;
 3554              		.loc 1 1796 0
 3555 00f6 5346     		mov	r3, r10
 3556              	.LVL391:
 3557 00f8 5C10     		asrs	r4, r3, #1
 3558              	.LVL392:
1797:Source\mbedtls_open\library/aes.c ****         keybits = 128 + u * 64;
 3559              		.loc 1 1797 0
 3560 00fa A61C     		adds	r6, r4, #2
 3561 00fc B601     		lsls	r6, r6, #6
 3562              	.LVL393:
1798:Source\mbedtls_open\library/aes.c ****         mode = i & 1;
 3563              		.loc 1 1798 0
 3564 00fe 0123     		movs	r3, #1
 3565 0100 5746     		mov	r7, r10
 3566 0102 1F40     		ands	r7, r3
 3567              	.LVL394:
1799:Source\mbedtls_open\library/aes.c **** 
1800:Source\mbedtls_open\library/aes.c ****         if( verbose != 0 )
 3568              		.loc 1 1800 0
 3569 0104 5B46     		mov	r3, fp
 3570 0106 002B     		cmp	r3, #0
 3571 0108 08D0     		beq	.L126
 3572              	.LVL395:
1801:Source\mbedtls_open\library/aes.c ****             mbedtls_printf( "  AES-CBC-%3d (%s): ", keybits,
 3573              		.loc 1 1801 0
ARM GAS  C:\Users\Phuong\AppData\Local\Temp\ccyLHZOj.s 			page 98


 3574 010a 002F     		cmp	r7, #0
 3575 010c 01D1     		bne	.L165
 3576 010e 974A     		ldr	r2, .L174
 3577 0110 00E0     		b	.L127
 3578              	.L165:
 3579 0112 974A     		ldr	r2, .L174+4
 3580              	.L127:
 3581              		.loc 1 1801 0 is_stmt 0 discriminator 4
 3582 0114 3100     		movs	r1, r6
 3583 0116 9C48     		ldr	r0, .L174+28
 3584 0118 FFF7FEFF 		bl	printf
 3585              	.LVL396:
 3586              	.L126:
1802:Source\mbedtls_open\library/aes.c ****                             ( mode == MBEDTLS_AES_DECRYPT ) ? "dec" : "enc" );
1803:Source\mbedtls_open\library/aes.c **** 
1804:Source\mbedtls_open\library/aes.c ****         memset( iv , 0, 16 );
 3587              		.loc 1 1804 0 is_stmt 1
 3588 011c 1022     		movs	r2, #16
 3589 011e 0021     		movs	r1, #0
 3590 0120 5CA8     		add	r0, sp, #368
 3591 0122 FFF7FEFF 		bl	memset
 3592              	.LVL397:
1805:Source\mbedtls_open\library/aes.c ****         memset( prv, 0, 16 );
 3593              		.loc 1 1805 0
 3594 0126 1022     		movs	r2, #16
 3595 0128 0021     		movs	r1, #0
 3596 012a 58A8     		add	r0, sp, #352
 3597 012c FFF7FEFF 		bl	memset
 3598              	.LVL398:
1806:Source\mbedtls_open\library/aes.c ****         memset( buf, 0, 16 );
 3599              		.loc 1 1806 0
 3600 0130 1022     		movs	r2, #16
 3601 0132 0021     		movs	r1, #0
 3602 0134 60A8     		add	r0, sp, #384
 3603 0136 FFF7FEFF 		bl	memset
 3604              	.LVL399:
1807:Source\mbedtls_open\library/aes.c **** 
1808:Source\mbedtls_open\library/aes.c ****         if( mode == MBEDTLS_AES_DECRYPT )
 3605              		.loc 1 1808 0
 3606 013a 002F     		cmp	r7, #0
 3607 013c 0BD1     		bne	.L128
1809:Source\mbedtls_open\library/aes.c ****         {
1810:Source\mbedtls_open\library/aes.c ****             ret = mbedtls_aes_setkey_dec( &ctx, key, keybits );
 3608              		.loc 1 1810 0
 3609 013e 3200     		movs	r2, r6
 3610 0140 70A9     		add	r1, sp, #448
 3611 0142 09A8     		add	r0, sp, #36
 3612 0144 FFF7FEFF 		bl	mbedtls_aes_setkey_dec
 3613              	.LVL400:
 3614 0148 0500     		movs	r5, r0
 3615              	.LVL401:
1811:Source\mbedtls_open\library/aes.c ****             aes_tests = aes_test_cbc_dec[u];
 3616              		.loc 1 1811 0
 3617 014a 2401     		lsls	r4, r4, #4
 3618              	.LVL402:
 3619 014c 8A4B     		ldr	r3, .L174+12
 3620 014e 6033     		adds	r3, r3, #96
ARM GAS  C:\Users\Phuong\AppData\Local\Temp\ccyLHZOj.s 			page 99


 3621 0150 9946     		mov	r9, r3
 3622 0152 A144     		add	r9, r9, r4
 3623              	.LVL403:
 3624 0154 0AE0     		b	.L129
 3625              	.LVL404:
 3626              	.L128:
1812:Source\mbedtls_open\library/aes.c ****         }
1813:Source\mbedtls_open\library/aes.c ****         else
1814:Source\mbedtls_open\library/aes.c ****         {
1815:Source\mbedtls_open\library/aes.c ****             ret = mbedtls_aes_setkey_enc( &ctx, key, keybits );
 3627              		.loc 1 1815 0
 3628 0156 3200     		movs	r2, r6
 3629 0158 70A9     		add	r1, sp, #448
 3630 015a 09A8     		add	r0, sp, #36
 3631 015c FFF7FEFF 		bl	mbedtls_aes_setkey_enc
 3632              	.LVL405:
 3633 0160 0500     		movs	r5, r0
 3634              	.LVL406:
1816:Source\mbedtls_open\library/aes.c ****             aes_tests = aes_test_cbc_enc[u];
 3635              		.loc 1 1816 0
 3636 0162 2401     		lsls	r4, r4, #4
 3637              	.LVL407:
 3638 0164 894B     		ldr	r3, .L174+32
 3639 0166 1033     		adds	r3, r3, #16
 3640 0168 9946     		mov	r9, r3
 3641 016a A144     		add	r9, r9, r4
 3642              	.LVL408:
 3643              	.L129:
1817:Source\mbedtls_open\library/aes.c ****         }
1818:Source\mbedtls_open\library/aes.c **** 
1819:Source\mbedtls_open\library/aes.c ****         /*
1820:Source\mbedtls_open\library/aes.c ****          * AES-192 is an optional feature that may be unavailable when
1821:Source\mbedtls_open\library/aes.c ****          * there is an alternative underlying implementation i.e. when
1822:Source\mbedtls_open\library/aes.c ****          * MBEDTLS_AES_ALT is defined.
1823:Source\mbedtls_open\library/aes.c ****          */
1824:Source\mbedtls_open\library/aes.c ****         if( ret == MBEDTLS_ERR_AES_FEATURE_UNAVAILABLE && keybits == 192 )
 3644              		.loc 1 1824 0
 3645 016c 2B00     		movs	r3, r5
 3646 016e 2333     		adds	r3, r3, #35
 3647 0170 05D1     		bne	.L130
 3648              		.loc 1 1824 0 is_stmt 0 discriminator 1
 3649 0172 C02E     		cmp	r6, #192
 3650 0174 03D1     		bne	.L130
1825:Source\mbedtls_open\library/aes.c ****         {
1826:Source\mbedtls_open\library/aes.c ****             mbedtls_printf( "skipped\n" );
 3651              		.loc 1 1826 0 is_stmt 1
 3652 0176 8148     		ldr	r0, .L174+16
 3653              	.LVL409:
 3654 0178 FFF7FEFF 		bl	puts
 3655              	.LVL410:
1827:Source\mbedtls_open\library/aes.c ****             continue;
 3656              		.loc 1 1827 0
 3657 017c 38E0     		b	.L131
 3658              	.LVL411:
 3659              	.L130:
1828:Source\mbedtls_open\library/aes.c ****         }
1829:Source\mbedtls_open\library/aes.c ****         else if( ret != 0 )
ARM GAS  C:\Users\Phuong\AppData\Local\Temp\ccyLHZOj.s 			page 100


 3660              		.loc 1 1829 0
 3661 017e 002D     		cmp	r5, #0
 3662 0180 00D0     		beq	.LCB3999
 3663 0182 D4E1     		b	.L120	@long jump
 3664              	.LCB3999:
 3665 0184 0026     		movs	r6, #0
 3666              	.LVL412:
 3667 0186 22E0     		b	.L132
 3668              	.LVL413:
 3669              	.L134:
1830:Source\mbedtls_open\library/aes.c ****         {
1831:Source\mbedtls_open\library/aes.c ****             goto exit;
1832:Source\mbedtls_open\library/aes.c ****         }
1833:Source\mbedtls_open\library/aes.c **** 
1834:Source\mbedtls_open\library/aes.c ****         for( j = 0; j < 10000; j++ )
1835:Source\mbedtls_open\library/aes.c ****         {
1836:Source\mbedtls_open\library/aes.c ****             if( mode == MBEDTLS_AES_ENCRYPT )
 3670              		.loc 1 1836 0
 3671 0188 012F     		cmp	r7, #1
 3672 018a 13D1     		bne	.L133
 3673              	.LBB2:
1837:Source\mbedtls_open\library/aes.c ****             {
1838:Source\mbedtls_open\library/aes.c ****                 unsigned char tmp[16];
1839:Source\mbedtls_open\library/aes.c **** 
1840:Source\mbedtls_open\library/aes.c ****                 memcpy( tmp, prv, 16 );
 3674              		.loc 1 1840 0
 3675 018c 05AC     		add	r4, sp, #20
 3676 018e 58AB     		add	r3, sp, #352
 3677 0190 9C46     		mov	ip, r3
 3678 0192 2500     		movs	r5, r4
 3679 0194 07CB     		ldmia	r3!, {r0, r1, r2}
 3680 0196 07C5     		stmia	r5!, {r0, r1, r2}
 3681              	.LVL414:
 3682 0198 1B68     		ldr	r3, [r3]
 3683 019a 2B60     		str	r3, [r5]
1841:Source\mbedtls_open\library/aes.c ****                 memcpy( prv, buf, 16 );
 3684              		.loc 1 1841 0
 3685 019c 60AB     		add	r3, sp, #384
 3686 019e 9846     		mov	r8, r3
 3687 01a0 1022     		movs	r2, #16
 3688 01a2 1900     		movs	r1, r3
 3689 01a4 6046     		mov	r0, ip
 3690 01a6 FFF7FEFF 		bl	memcpy
 3691              	.LVL415:
1842:Source\mbedtls_open\library/aes.c ****                 memcpy( buf, tmp, 16 );
 3692              		.loc 1 1842 0
 3693 01aa 4346     		mov	r3, r8
 3694 01ac 07CC     		ldmia	r4!, {r0, r1, r2}
 3695 01ae 07C3     		stmia	r3!, {r0, r1, r2}
 3696 01b0 2A68     		ldr	r2, [r5]
 3697 01b2 1A60     		str	r2, [r3]
 3698              	.L133:
 3699              	.LBE2:
1843:Source\mbedtls_open\library/aes.c ****             }
1844:Source\mbedtls_open\library/aes.c **** 
1845:Source\mbedtls_open\library/aes.c ****             ret = mbedtls_aes_crypt_cbc( &ctx, mode, 16, iv, buf, buf );
 3700              		.loc 1 1845 0
ARM GAS  C:\Users\Phuong\AppData\Local\Temp\ccyLHZOj.s 			page 101


 3701 01b4 60AB     		add	r3, sp, #384
 3702 01b6 0193     		str	r3, [sp, #4]
 3703 01b8 0093     		str	r3, [sp]
 3704 01ba 5CAB     		add	r3, sp, #368
 3705 01bc 1022     		movs	r2, #16
 3706 01be 3900     		movs	r1, r7
 3707 01c0 09A8     		add	r0, sp, #36
 3708 01c2 FFF7FEFF 		bl	mbedtls_aes_crypt_cbc
 3709              	.LVL416:
 3710 01c6 051E     		subs	r5, r0, #0
 3711              	.LVL417:
1846:Source\mbedtls_open\library/aes.c ****             if( ret != 0 )
 3712              		.loc 1 1846 0
 3713 01c8 00D0     		beq	.LCB4047
 3714 01ca B0E1     		b	.L120	@long jump
 3715              	.LCB4047:
1834:Source\mbedtls_open\library/aes.c ****         {
 3716              		.loc 1 1834 0 discriminator 2
 3717 01cc 0136     		adds	r6, r6, #1
 3718              	.LVL418:
 3719              	.L132:
1834:Source\mbedtls_open\library/aes.c ****         {
 3720              		.loc 1 1834 0 is_stmt 0 discriminator 1
 3721 01ce 6C4B     		ldr	r3, .L174+20
 3722 01d0 9E42     		cmp	r6, r3
 3723 01d2 D9DD     		ble	.L134
1847:Source\mbedtls_open\library/aes.c ****                 goto exit;
1848:Source\mbedtls_open\library/aes.c **** 
1849:Source\mbedtls_open\library/aes.c ****         }
1850:Source\mbedtls_open\library/aes.c **** 
1851:Source\mbedtls_open\library/aes.c ****         if( memcmp( buf, aes_tests, 16 ) != 0 )
 3724              		.loc 1 1851 0 is_stmt 1
 3725 01d4 1022     		movs	r2, #16
 3726 01d6 4946     		mov	r1, r9
 3727 01d8 60A8     		add	r0, sp, #384
 3728              	.LVL419:
 3729 01da FFF7FEFF 		bl	memcmp
 3730              	.LVL420:
 3731 01de 0028     		cmp	r0, #0
 3732 01e0 00D0     		beq	.LCB4067
 3733 01e2 9BE1     		b	.L166	@long jump
 3734              	.LCB4067:
1852:Source\mbedtls_open\library/aes.c ****         {
1853:Source\mbedtls_open\library/aes.c ****             ret = 1;
1854:Source\mbedtls_open\library/aes.c ****             goto exit;
1855:Source\mbedtls_open\library/aes.c ****         }
1856:Source\mbedtls_open\library/aes.c **** 
1857:Source\mbedtls_open\library/aes.c ****         if( verbose != 0 )
 3735              		.loc 1 1857 0
 3736 01e4 5B46     		mov	r3, fp
 3737 01e6 002B     		cmp	r3, #0
 3738 01e8 02D0     		beq	.L131
 3739              	.LVL421:
1858:Source\mbedtls_open\library/aes.c ****             mbedtls_printf( "passed\n" );
 3740              		.loc 1 1858 0
 3741 01ea 6648     		ldr	r0, .L174+24
 3742 01ec FFF7FEFF 		bl	puts
ARM GAS  C:\Users\Phuong\AppData\Local\Temp\ccyLHZOj.s 			page 102


 3743              	.LVL422:
 3744              	.L131:
1794:Source\mbedtls_open\library/aes.c ****     {
 3745              		.loc 1 1794 0 discriminator 2
 3746 01f0 0123     		movs	r3, #1
 3747 01f2 9C46     		mov	ip, r3
 3748 01f4 E244     		add	r10, r10, ip
 3749              	.LVL423:
 3750              	.L125:
1794:Source\mbedtls_open\library/aes.c ****     {
 3751              		.loc 1 1794 0 is_stmt 0 discriminator 1
 3752 01f6 5346     		mov	r3, r10
 3753 01f8 052B     		cmp	r3, #5
 3754 01fa 00DC     		bgt	.LCB4101
 3755 01fc 7BE7     		b	.L135	@long jump
 3756              	.LCB4101:
1859:Source\mbedtls_open\library/aes.c ****     }
1860:Source\mbedtls_open\library/aes.c **** 
1861:Source\mbedtls_open\library/aes.c ****     if( verbose != 0 )
 3757              		.loc 1 1861 0 is_stmt 1
 3758 01fe 5B46     		mov	r3, fp
 3759 0200 002B     		cmp	r3, #0
 3760 0202 02D0     		beq	.L136
 3761              	.LVL424:
1862:Source\mbedtls_open\library/aes.c ****         mbedtls_printf( "\n" );
 3762              		.loc 1 1862 0
 3763 0204 0A20     		movs	r0, #10
 3764 0206 FFF7FEFF 		bl	putchar
 3765              	.LVL425:
 3766              	.L136:
1863:Source\mbedtls_open\library/aes.c **** #endif /* MBEDTLS_CIPHER_MODE_CBC */
1864:Source\mbedtls_open\library/aes.c **** 
1865:Source\mbedtls_open\library/aes.c **** #if defined(MBEDTLS_CIPHER_MODE_CFB)
1866:Source\mbedtls_open\library/aes.c ****     /*
1867:Source\mbedtls_open\library/aes.c ****      * CFB128 mode
1868:Source\mbedtls_open\library/aes.c ****      */
1869:Source\mbedtls_open\library/aes.c ****     for( i = 0; i < 6; i++ )
1870:Source\mbedtls_open\library/aes.c ****     {
1871:Source\mbedtls_open\library/aes.c ****         u = i >> 1;
1872:Source\mbedtls_open\library/aes.c ****         keybits = 128 + u * 64;
1873:Source\mbedtls_open\library/aes.c ****         mode = i & 1;
1874:Source\mbedtls_open\library/aes.c **** 
1875:Source\mbedtls_open\library/aes.c ****         if( verbose != 0 )
1876:Source\mbedtls_open\library/aes.c ****             mbedtls_printf( "  AES-CFB128-%3d (%s): ", keybits,
1877:Source\mbedtls_open\library/aes.c ****                             ( mode == MBEDTLS_AES_DECRYPT ) ? "dec" : "enc" );
1878:Source\mbedtls_open\library/aes.c **** 
1879:Source\mbedtls_open\library/aes.c ****         memcpy( iv,  aes_test_cfb128_iv, 16 );
1880:Source\mbedtls_open\library/aes.c ****         memcpy( key, aes_test_cfb128_key[u], keybits / 8 );
1881:Source\mbedtls_open\library/aes.c **** 
1882:Source\mbedtls_open\library/aes.c ****         offset = 0;
1883:Source\mbedtls_open\library/aes.c ****         ret = mbedtls_aes_setkey_enc( &ctx, key, keybits );
1884:Source\mbedtls_open\library/aes.c ****         /*
1885:Source\mbedtls_open\library/aes.c ****          * AES-192 is an optional feature that may be unavailable when
1886:Source\mbedtls_open\library/aes.c ****          * there is an alternative underlying implementation i.e. when
1887:Source\mbedtls_open\library/aes.c ****          * MBEDTLS_AES_ALT is defined.
1888:Source\mbedtls_open\library/aes.c ****          */
1889:Source\mbedtls_open\library/aes.c ****         if( ret == MBEDTLS_ERR_AES_FEATURE_UNAVAILABLE && keybits == 192 )
ARM GAS  C:\Users\Phuong\AppData\Local\Temp\ccyLHZOj.s 			page 103


1890:Source\mbedtls_open\library/aes.c ****         {
1891:Source\mbedtls_open\library/aes.c ****             mbedtls_printf( "skipped\n" );
1892:Source\mbedtls_open\library/aes.c ****             continue;
1893:Source\mbedtls_open\library/aes.c ****         }
1894:Source\mbedtls_open\library/aes.c ****         else if( ret != 0 )
1895:Source\mbedtls_open\library/aes.c ****         {
1896:Source\mbedtls_open\library/aes.c ****             goto exit;
1897:Source\mbedtls_open\library/aes.c ****         }
1898:Source\mbedtls_open\library/aes.c **** 
1899:Source\mbedtls_open\library/aes.c ****         if( mode == MBEDTLS_AES_DECRYPT )
1900:Source\mbedtls_open\library/aes.c ****         {
1901:Source\mbedtls_open\library/aes.c ****             memcpy( buf, aes_test_cfb128_ct[u], 64 );
1902:Source\mbedtls_open\library/aes.c ****             aes_tests = aes_test_cfb128_pt;
 3767              		.loc 1 1902 0 discriminator 1
 3768 020a 0023     		movs	r3, #0
 3769 020c 9846     		mov	r8, r3
 3770 020e 6CE0     		b	.L137
 3771              	.LVL426:
 3772              	.L144:
1871:Source\mbedtls_open\library/aes.c ****         keybits = 128 + u * 64;
 3773              		.loc 1 1871 0
 3774 0210 4346     		mov	r3, r8
 3775              	.LVL427:
 3776 0212 5C10     		asrs	r4, r3, #1
 3777              	.LVL428:
1872:Source\mbedtls_open\library/aes.c ****         mode = i & 1;
 3778              		.loc 1 1872 0
 3779 0214 A31C     		adds	r3, r4, #2
 3780 0216 9B01     		lsls	r3, r3, #6
 3781 0218 9946     		mov	r9, r3
 3782              	.LVL429:
1873:Source\mbedtls_open\library/aes.c **** 
 3783              		.loc 1 1873 0
 3784 021a 0126     		movs	r6, #1
 3785 021c 4346     		mov	r3, r8
 3786              	.LVL430:
 3787 021e 1E40     		ands	r6, r3
 3788              	.LVL431:
1875:Source\mbedtls_open\library/aes.c ****             mbedtls_printf( "  AES-CFB128-%3d (%s): ", keybits,
 3789              		.loc 1 1875 0
 3790 0220 5B46     		mov	r3, fp
 3791 0222 002B     		cmp	r3, #0
 3792 0224 08D0     		beq	.L138
 3793              	.LVL432:
1876:Source\mbedtls_open\library/aes.c ****                             ( mode == MBEDTLS_AES_DECRYPT ) ? "dec" : "enc" );
 3794              		.loc 1 1876 0
 3795 0226 002E     		cmp	r6, #0
 3796 0228 01D1     		bne	.L167
 3797 022a 504A     		ldr	r2, .L174
 3798 022c 00E0     		b	.L139
 3799              	.L167:
 3800 022e 504A     		ldr	r2, .L174+4
 3801              	.L139:
1876:Source\mbedtls_open\library/aes.c ****                             ( mode == MBEDTLS_AES_DECRYPT ) ? "dec" : "enc" );
 3802              		.loc 1 1876 0 is_stmt 0 discriminator 4
 3803 0230 4946     		mov	r1, r9
 3804 0232 5748     		ldr	r0, .L174+36
ARM GAS  C:\Users\Phuong\AppData\Local\Temp\ccyLHZOj.s 			page 104


 3805 0234 FFF7FEFF 		bl	printf
 3806              	.LVL433:
 3807              	.L138:
1879:Source\mbedtls_open\library/aes.c ****         memcpy( key, aes_test_cfb128_key[u], keybits / 8 );
 3808              		.loc 1 1879 0 is_stmt 1
 3809 0238 5CAA     		add	r2, sp, #368
 3810 023a 5449     		ldr	r1, .L174+32
 3811 023c 0B00     		movs	r3, r1
 3812 023e 4033     		adds	r3, r3, #64
 3813 0240 A1CB     		ldmia	r3!, {r0, r5, r7}
 3814 0242 A1C2     		stmia	r2!, {r0, r5, r7}
 3815 0244 1B68     		ldr	r3, [r3]
 3816 0246 1360     		str	r3, [r2]
1880:Source\mbedtls_open\library/aes.c **** 
 3817              		.loc 1 1880 0
 3818 0248 5031     		adds	r1, r1, #80
 3819 024a 6301     		lsls	r3, r4, #5
 3820 024c C918     		adds	r1, r1, r3
 3821 024e 4B46     		mov	r3, r9
 3822 0250 DA08     		lsrs	r2, r3, #3
 3823 0252 70A8     		add	r0, sp, #448
 3824 0254 FFF7FEFF 		bl	memcpy
 3825              	.LVL434:
1882:Source\mbedtls_open\library/aes.c ****         ret = mbedtls_aes_setkey_enc( &ctx, key, keybits );
 3826              		.loc 1 1882 0
 3827 0258 0023     		movs	r3, #0
 3828 025a 5793     		str	r3, [sp, #348]
1883:Source\mbedtls_open\library/aes.c ****         /*
 3829              		.loc 1 1883 0
 3830 025c 4A46     		mov	r2, r9
 3831 025e 70A9     		add	r1, sp, #448
 3832 0260 09A8     		add	r0, sp, #36
 3833 0262 FFF7FEFF 		bl	mbedtls_aes_setkey_enc
 3834              	.LVL435:
 3835 0266 0500     		movs	r5, r0
 3836              	.LVL436:
1889:Source\mbedtls_open\library/aes.c ****         {
 3837              		.loc 1 1889 0
 3838 0268 0300     		movs	r3, r0
 3839 026a 2333     		adds	r3, r3, #35
 3840 026c 06D1     		bne	.L140
1889:Source\mbedtls_open\library/aes.c ****         {
 3841              		.loc 1 1889 0 is_stmt 0 discriminator 1
 3842 026e 4B46     		mov	r3, r9
 3843 0270 C02B     		cmp	r3, #192
 3844 0272 03D1     		bne	.L140
 3845              	.LVL437:
1891:Source\mbedtls_open\library/aes.c ****             continue;
 3846              		.loc 1 1891 0 is_stmt 1
 3847 0274 4148     		ldr	r0, .L174+16
 3848              	.LVL438:
 3849 0276 FFF7FEFF 		bl	puts
 3850              	.LVL439:
1892:Source\mbedtls_open\library/aes.c ****         }
 3851              		.loc 1 1892 0
 3852 027a 33E0     		b	.L141
 3853              	.LVL440:
ARM GAS  C:\Users\Phuong\AppData\Local\Temp\ccyLHZOj.s 			page 105


 3854              	.L140:
1894:Source\mbedtls_open\library/aes.c ****         {
 3855              		.loc 1 1894 0
 3856 027c 002D     		cmp	r5, #0
 3857 027e 00D0     		beq	.LCB4200
 3858 0280 55E1     		b	.L120	@long jump
 3859              	.LCB4200:
1899:Source\mbedtls_open\library/aes.c ****         {
 3860              		.loc 1 1899 0
 3861 0282 002E     		cmp	r6, #0
 3862 0284 09D1     		bne	.L142
1901:Source\mbedtls_open\library/aes.c ****             aes_tests = aes_test_cfb128_pt;
 3863              		.loc 1 1901 0
 3864 0286 A401     		lsls	r4, r4, #6
 3865              	.LVL441:
 3866 0288 4249     		ldr	r1, .L174+40
 3867 028a 0919     		adds	r1, r1, r4
 3868 028c 3031     		adds	r1, r1, #48
 3869 028e 4022     		movs	r2, #64
 3870 0290 60A8     		add	r0, sp, #384
 3871              	.LVL442:
 3872 0292 FFF7FEFF 		bl	memcpy
 3873              	.LVL443:
 3874              		.loc 1 1902 0
 3875 0296 404C     		ldr	r4, .L174+44
 3876 0298 08E0     		b	.L143
 3877              	.LVL444:
 3878              	.L142:
1903:Source\mbedtls_open\library/aes.c ****         }
1904:Source\mbedtls_open\library/aes.c ****         else
1905:Source\mbedtls_open\library/aes.c ****         {
1906:Source\mbedtls_open\library/aes.c ****             memcpy( buf, aes_test_cfb128_pt, 64 );
 3879              		.loc 1 1906 0
 3880 029a 4022     		movs	r2, #64
 3881 029c 3E49     		ldr	r1, .L174+44
 3882 029e 60A8     		add	r0, sp, #384
 3883              	.LVL445:
 3884 02a0 FFF7FEFF 		bl	memcpy
 3885              	.LVL446:
1907:Source\mbedtls_open\library/aes.c ****             aes_tests = aes_test_cfb128_ct[u];
 3886              		.loc 1 1907 0
 3887 02a4 A401     		lsls	r4, r4, #6
 3888              	.LVL447:
 3889 02a6 3B4B     		ldr	r3, .L174+40
 3890 02a8 3033     		adds	r3, r3, #48
 3891 02aa 1C19     		adds	r4, r3, r4
 3892              	.LVL448:
 3893              	.L143:
1908:Source\mbedtls_open\library/aes.c ****         }
1909:Source\mbedtls_open\library/aes.c **** 
1910:Source\mbedtls_open\library/aes.c ****         ret = mbedtls_aes_crypt_cfb128( &ctx, mode, 64, &offset, iv, buf, buf );
 3894              		.loc 1 1910 0
 3895 02ac 60AB     		add	r3, sp, #384
 3896 02ae 0293     		str	r3, [sp, #8]
 3897 02b0 0193     		str	r3, [sp, #4]
 3898 02b2 5CAB     		add	r3, sp, #368
 3899 02b4 0093     		str	r3, [sp]
ARM GAS  C:\Users\Phuong\AppData\Local\Temp\ccyLHZOj.s 			page 106


 3900 02b6 57AB     		add	r3, sp, #348
 3901 02b8 4022     		movs	r2, #64
 3902 02ba 3100     		movs	r1, r6
 3903 02bc 09A8     		add	r0, sp, #36
 3904 02be FFF7FEFF 		bl	mbedtls_aes_crypt_cfb128
 3905              	.LVL449:
 3906 02c2 051E     		subs	r5, r0, #0
 3907              	.LVL450:
1911:Source\mbedtls_open\library/aes.c ****         if( ret != 0 )
 3908              		.loc 1 1911 0
 3909 02c4 00D0     		beq	.LCB4254
 3910 02c6 32E1     		b	.L120	@long jump
 3911              	.LCB4254:
1912:Source\mbedtls_open\library/aes.c ****             goto exit;
1913:Source\mbedtls_open\library/aes.c **** 
1914:Source\mbedtls_open\library/aes.c ****         if( memcmp( buf, aes_tests, 64 ) != 0 )
 3912              		.loc 1 1914 0
 3913 02c8 4022     		movs	r2, #64
 3914 02ca 2100     		movs	r1, r4
 3915 02cc 60A8     		add	r0, sp, #384
 3916              	.LVL451:
 3917 02ce FFF7FEFF 		bl	memcmp
 3918              	.LVL452:
 3919 02d2 0028     		cmp	r0, #0
 3920 02d4 00D0     		beq	.LCB4262
 3921 02d6 23E1     		b	.L168	@long jump
 3922              	.LCB4262:
1915:Source\mbedtls_open\library/aes.c ****         {
1916:Source\mbedtls_open\library/aes.c ****             ret = 1;
1917:Source\mbedtls_open\library/aes.c ****             goto exit;
1918:Source\mbedtls_open\library/aes.c ****         }
1919:Source\mbedtls_open\library/aes.c **** 
1920:Source\mbedtls_open\library/aes.c ****         if( verbose != 0 )
 3923              		.loc 1 1920 0
 3924 02d8 5B46     		mov	r3, fp
 3925 02da 002B     		cmp	r3, #0
 3926 02dc 02D0     		beq	.L141
 3927              	.LVL453:
1921:Source\mbedtls_open\library/aes.c ****             mbedtls_printf( "passed\n" );
 3928              		.loc 1 1921 0
 3929 02de 2948     		ldr	r0, .L174+24
 3930 02e0 FFF7FEFF 		bl	puts
 3931              	.LVL454:
 3932              	.L141:
1869:Source\mbedtls_open\library/aes.c ****     {
 3933              		.loc 1 1869 0 discriminator 2
 3934 02e4 0123     		movs	r3, #1
 3935 02e6 9C46     		mov	ip, r3
 3936 02e8 E044     		add	r8, r8, ip
 3937              	.LVL455:
 3938              	.L137:
1869:Source\mbedtls_open\library/aes.c ****     {
 3939              		.loc 1 1869 0 is_stmt 0 discriminator 1
 3940 02ea 4346     		mov	r3, r8
 3941 02ec 052B     		cmp	r3, #5
 3942 02ee 8FDD     		ble	.L144
1922:Source\mbedtls_open\library/aes.c ****     }
ARM GAS  C:\Users\Phuong\AppData\Local\Temp\ccyLHZOj.s 			page 107


1923:Source\mbedtls_open\library/aes.c **** 
1924:Source\mbedtls_open\library/aes.c ****     if( verbose != 0 )
 3943              		.loc 1 1924 0 is_stmt 1
 3944 02f0 5B46     		mov	r3, fp
 3945 02f2 002B     		cmp	r3, #0
 3946 02f4 02D0     		beq	.L145
 3947              	.LVL456:
1925:Source\mbedtls_open\library/aes.c ****         mbedtls_printf( "\n" );
 3948              		.loc 1 1925 0
 3949 02f6 0A20     		movs	r0, #10
 3950 02f8 FFF7FEFF 		bl	putchar
 3951              	.LVL457:
 3952              	.L145:
1926:Source\mbedtls_open\library/aes.c **** #endif /* MBEDTLS_CIPHER_MODE_CFB */
1927:Source\mbedtls_open\library/aes.c **** 
1928:Source\mbedtls_open\library/aes.c **** #if defined(MBEDTLS_CIPHER_MODE_OFB)
1929:Source\mbedtls_open\library/aes.c ****     /*
1930:Source\mbedtls_open\library/aes.c ****      * OFB mode
1931:Source\mbedtls_open\library/aes.c ****      */
1932:Source\mbedtls_open\library/aes.c ****     for( i = 0; i < 6; i++ )
1933:Source\mbedtls_open\library/aes.c ****     {
1934:Source\mbedtls_open\library/aes.c ****         u = i >> 1;
1935:Source\mbedtls_open\library/aes.c ****         keybits = 128 + u * 64;
1936:Source\mbedtls_open\library/aes.c ****         mode = i & 1;
1937:Source\mbedtls_open\library/aes.c **** 
1938:Source\mbedtls_open\library/aes.c ****         if( verbose != 0 )
1939:Source\mbedtls_open\library/aes.c ****             mbedtls_printf( "  AES-OFB-%3d (%s): ", keybits,
1940:Source\mbedtls_open\library/aes.c ****                             ( mode == MBEDTLS_AES_DECRYPT ) ? "dec" : "enc" );
1941:Source\mbedtls_open\library/aes.c **** 
1942:Source\mbedtls_open\library/aes.c ****         memcpy( iv,  aes_test_ofb_iv, 16 );
1943:Source\mbedtls_open\library/aes.c ****         memcpy( key, aes_test_ofb_key[u], keybits / 8 );
1944:Source\mbedtls_open\library/aes.c **** 
1945:Source\mbedtls_open\library/aes.c ****         offset = 0;
1946:Source\mbedtls_open\library/aes.c ****         ret = mbedtls_aes_setkey_enc( &ctx, key, keybits );
1947:Source\mbedtls_open\library/aes.c ****         /*
1948:Source\mbedtls_open\library/aes.c ****          * AES-192 is an optional feature that may be unavailable when
1949:Source\mbedtls_open\library/aes.c ****          * there is an alternative underlying implementation i.e. when
1950:Source\mbedtls_open\library/aes.c ****          * MBEDTLS_AES_ALT is defined.
1951:Source\mbedtls_open\library/aes.c ****          */
1952:Source\mbedtls_open\library/aes.c ****         if( ret == MBEDTLS_ERR_AES_FEATURE_UNAVAILABLE && keybits == 192 )
1953:Source\mbedtls_open\library/aes.c ****         {
1954:Source\mbedtls_open\library/aes.c ****             mbedtls_printf( "skipped\n" );
1955:Source\mbedtls_open\library/aes.c ****             continue;
1956:Source\mbedtls_open\library/aes.c ****         }
1957:Source\mbedtls_open\library/aes.c ****         else if( ret != 0 )
1958:Source\mbedtls_open\library/aes.c ****         {
1959:Source\mbedtls_open\library/aes.c ****             goto exit;
1960:Source\mbedtls_open\library/aes.c ****         }
1961:Source\mbedtls_open\library/aes.c **** 
1962:Source\mbedtls_open\library/aes.c ****         if( mode == MBEDTLS_AES_DECRYPT )
1963:Source\mbedtls_open\library/aes.c ****         {
1964:Source\mbedtls_open\library/aes.c ****             memcpy( buf, aes_test_ofb_ct[u], 64 );
1965:Source\mbedtls_open\library/aes.c ****             aes_tests = aes_test_ofb_pt;
 3953              		.loc 1 1965 0 discriminator 1
 3954 02fc 0026     		movs	r6, #0
 3955 02fe 89E0     		b	.L146
 3956              	.LVL458:
ARM GAS  C:\Users\Phuong\AppData\Local\Temp\ccyLHZOj.s 			page 108


 3957              	.L153:
1934:Source\mbedtls_open\library/aes.c ****         keybits = 128 + u * 64;
 3958              		.loc 1 1934 0
 3959 0300 7410     		asrs	r4, r6, #1
 3960              	.LVL459:
1935:Source\mbedtls_open\library/aes.c ****         mode = i & 1;
 3961              		.loc 1 1935 0
 3962 0302 A31C     		adds	r3, r4, #2
 3963 0304 9B01     		lsls	r3, r3, #6
 3964 0306 9846     		mov	r8, r3
 3965              	.LVL460:
1936:Source\mbedtls_open\library/aes.c **** 
 3966              		.loc 1 1936 0
 3967 0308 0123     		movs	r3, #1
 3968              	.LVL461:
 3969 030a 3340     		ands	r3, r6
 3970 030c 9946     		mov	r9, r3
 3971              	.LVL462:
1938:Source\mbedtls_open\library/aes.c ****             mbedtls_printf( "  AES-OFB-%3d (%s): ", keybits,
 3972              		.loc 1 1938 0
 3973 030e 5B46     		mov	r3, fp
 3974              	.LVL463:
 3975 0310 002B     		cmp	r3, #0
 3976 0312 09D0     		beq	.L147
 3977              	.LVL464:
1939:Source\mbedtls_open\library/aes.c ****                             ( mode == MBEDTLS_AES_DECRYPT ) ? "dec" : "enc" );
 3978              		.loc 1 1939 0
 3979 0314 4B46     		mov	r3, r9
 3980              	.LVL465:
 3981 0316 002B     		cmp	r3, #0
 3982 0318 01D1     		bne	.L169
 3983 031a 144A     		ldr	r2, .L174
 3984 031c 00E0     		b	.L148
 3985              	.L169:
 3986 031e 144A     		ldr	r2, .L174+4
 3987              	.L148:
1939:Source\mbedtls_open\library/aes.c ****                             ( mode == MBEDTLS_AES_DECRYPT ) ? "dec" : "enc" );
 3988              		.loc 1 1939 0 is_stmt 0 discriminator 4
 3989 0320 4146     		mov	r1, r8
 3990 0322 1E48     		ldr	r0, .L174+48
 3991 0324 FFF7FEFF 		bl	printf
 3992              	.LVL466:
 3993              	.L147:
1942:Source\mbedtls_open\library/aes.c ****         memcpy( key, aes_test_ofb_key[u], keybits / 8 );
 3994              		.loc 1 1942 0 is_stmt 1
 3995 0328 5CAA     		add	r2, sp, #368
 3996 032a 1D4B     		ldr	r3, .L174+52
 3997 032c 7033     		adds	r3, r3, #112
 3998 032e 23CB     		ldmia	r3!, {r0, r1, r5}
 3999 0330 23C2     		stmia	r2!, {r0, r1, r5}
 4000 0332 1B68     		ldr	r3, [r3]
 4001 0334 1360     		str	r3, [r2]
1943:Source\mbedtls_open\library/aes.c **** 
 4002              		.loc 1 1943 0
 4003 0336 6301     		lsls	r3, r4, #5
 4004 0338 1A49     		ldr	r1, .L174+56
 4005 033a C918     		adds	r1, r1, r3
ARM GAS  C:\Users\Phuong\AppData\Local\Temp\ccyLHZOj.s 			page 109


 4006 033c 4346     		mov	r3, r8
 4007 033e DA08     		lsrs	r2, r3, #3
 4008 0340 70A8     		add	r0, sp, #448
 4009 0342 FFF7FEFF 		bl	memcpy
 4010              	.LVL467:
1945:Source\mbedtls_open\library/aes.c ****         ret = mbedtls_aes_setkey_enc( &ctx, key, keybits );
 4011              		.loc 1 1945 0
 4012 0346 0023     		movs	r3, #0
 4013 0348 5793     		str	r3, [sp, #348]
1946:Source\mbedtls_open\library/aes.c ****         /*
 4014              		.loc 1 1946 0
 4015 034a 4246     		mov	r2, r8
 4016 034c 70A9     		add	r1, sp, #448
 4017 034e 09A8     		add	r0, sp, #36
 4018 0350 FFF7FEFF 		bl	mbedtls_aes_setkey_enc
 4019              	.LVL468:
 4020 0354 0500     		movs	r5, r0
 4021              	.LVL469:
1952:Source\mbedtls_open\library/aes.c ****         {
 4022              		.loc 1 1952 0
 4023 0356 0300     		movs	r3, r0
 4024 0358 2333     		adds	r3, r3, #35
 4025 035a 25D1     		bne	.L149
1952:Source\mbedtls_open\library/aes.c ****         {
 4026              		.loc 1 1952 0 is_stmt 0 discriminator 1
 4027 035c 4346     		mov	r3, r8
 4028 035e C02B     		cmp	r3, #192
 4029 0360 22D1     		bne	.L149
 4030              	.LVL470:
1954:Source\mbedtls_open\library/aes.c ****             continue;
 4031              		.loc 1 1954 0 is_stmt 1
 4032 0362 0648     		ldr	r0, .L174+16
 4033              	.LVL471:
 4034 0364 FFF7FEFF 		bl	puts
 4035              	.LVL472:
1955:Source\mbedtls_open\library/aes.c ****         }
 4036              		.loc 1 1955 0
 4037 0368 53E0     		b	.L150
 4038              	.L175:
 4039 036a C046     		.align	2
 4040              	.L174:
 4041 036c 00000000 		.word	.LC27
 4042 0370 04000000 		.word	.LC29
 4043 0374 08000000 		.word	.LC32
 4044 0378 80000000 		.word	.LANCHOR12
 4045 037c 20000000 		.word	.LC35
 4046 0380 0F270000 		.word	9999
 4047 0384 28000000 		.word	.LC37
 4048 0388 30000000 		.word	.LC39
 4049 038c 00010000 		.word	.LANCHOR13
 4050 0390 48000000 		.word	.LC42
 4051 0394 80010000 		.word	.LANCHOR14
 4052 0398 00000000 		.word	.LANCHOR11
 4053 039c 60000000 		.word	.LC45
 4054 03a0 00020000 		.word	.LANCHOR15
 4055 03a4 80020000 		.word	.LANCHOR16
 4056              	.LVL473:
ARM GAS  C:\Users\Phuong\AppData\Local\Temp\ccyLHZOj.s 			page 110


 4057              	.L149:
1957:Source\mbedtls_open\library/aes.c ****         {
 4058              		.loc 1 1957 0
 4059 03a8 002D     		cmp	r5, #0
 4060 03aa 00D0     		beq	.LCB4411
 4061 03ac BFE0     		b	.L120	@long jump
 4062              	.LCB4411:
1962:Source\mbedtls_open\library/aes.c ****         {
 4063              		.loc 1 1962 0
 4064 03ae 4B46     		mov	r3, r9
 4065 03b0 002B     		cmp	r3, #0
 4066 03b2 0AD1     		bne	.L151
 4067              	.LVL474:
1964:Source\mbedtls_open\library/aes.c ****             aes_tests = aes_test_ofb_pt;
 4068              		.loc 1 1964 0
 4069 03b4 A401     		lsls	r4, r4, #6
 4070              	.LVL475:
 4071 03b6 6749     		ldr	r1, .L176
 4072 03b8 0919     		adds	r1, r1, r4
 4073 03ba 6031     		adds	r1, r1, #96
 4074 03bc 4022     		movs	r2, #64
 4075 03be 60A8     		add	r0, sp, #384
 4076              	.LVL476:
 4077 03c0 FFF7FEFF 		bl	memcpy
 4078              	.LVL477:
 4079              		.loc 1 1965 0
 4080 03c4 644C     		ldr	r4, .L176+4
 4081 03c6 4034     		adds	r4, r4, #64
 4082 03c8 09E0     		b	.L152
 4083              	.LVL478:
 4084              	.L151:
1966:Source\mbedtls_open\library/aes.c ****         }
1967:Source\mbedtls_open\library/aes.c ****         else
1968:Source\mbedtls_open\library/aes.c ****         {
1969:Source\mbedtls_open\library/aes.c ****             memcpy( buf, aes_test_ofb_pt, 64 );
 4085              		.loc 1 1969 0
 4086 03ca 4022     		movs	r2, #64
 4087 03cc 6249     		ldr	r1, .L176+4
 4088 03ce 4031     		adds	r1, r1, #64
 4089 03d0 60A8     		add	r0, sp, #384
 4090              	.LVL479:
 4091 03d2 FFF7FEFF 		bl	memcpy
 4092              	.LVL480:
1970:Source\mbedtls_open\library/aes.c ****             aes_tests = aes_test_ofb_ct[u];
 4093              		.loc 1 1970 0
 4094 03d6 A401     		lsls	r4, r4, #6
 4095              	.LVL481:
 4096 03d8 5E4B     		ldr	r3, .L176
 4097 03da 6033     		adds	r3, r3, #96
 4098 03dc 1C19     		adds	r4, r3, r4
 4099              	.LVL482:
 4100              	.L152:
1971:Source\mbedtls_open\library/aes.c ****         }
1972:Source\mbedtls_open\library/aes.c **** 
1973:Source\mbedtls_open\library/aes.c ****         ret = mbedtls_aes_crypt_ofb( &ctx, 64, &offset, iv, buf, buf );
 4101              		.loc 1 1973 0
 4102 03de 60AB     		add	r3, sp, #384
ARM GAS  C:\Users\Phuong\AppData\Local\Temp\ccyLHZOj.s 			page 111


 4103 03e0 0193     		str	r3, [sp, #4]
 4104 03e2 0093     		str	r3, [sp]
 4105 03e4 5CAB     		add	r3, sp, #368
 4106 03e6 57AA     		add	r2, sp, #348
 4107 03e8 4021     		movs	r1, #64
 4108 03ea 09A8     		add	r0, sp, #36
 4109 03ec FFF7FEFF 		bl	mbedtls_aes_crypt_ofb
 4110              	.LVL483:
 4111 03f0 051E     		subs	r5, r0, #0
 4112              	.LVL484:
1974:Source\mbedtls_open\library/aes.c ****         if( ret != 0 )
 4113              		.loc 1 1974 0
 4114 03f2 00D0     		beq	.LCB4470
 4115 03f4 9BE0     		b	.L120	@long jump
 4116              	.LCB4470:
1975:Source\mbedtls_open\library/aes.c ****             goto exit;
1976:Source\mbedtls_open\library/aes.c **** 
1977:Source\mbedtls_open\library/aes.c ****         if( memcmp( buf, aes_tests, 64 ) != 0 )
 4117              		.loc 1 1977 0
 4118 03f6 4022     		movs	r2, #64
 4119 03f8 2100     		movs	r1, r4
 4120 03fa 60A8     		add	r0, sp, #384
 4121              	.LVL485:
 4122 03fc FFF7FEFF 		bl	memcmp
 4123              	.LVL486:
 4124 0400 0028     		cmp	r0, #0
 4125 0402 00D0     		beq	.LCB4478
 4126 0404 8EE0     		b	.L170	@long jump
 4127              	.LCB4478:
1978:Source\mbedtls_open\library/aes.c ****         {
1979:Source\mbedtls_open\library/aes.c ****             ret = 1;
1980:Source\mbedtls_open\library/aes.c ****             goto exit;
1981:Source\mbedtls_open\library/aes.c ****         }
1982:Source\mbedtls_open\library/aes.c **** 
1983:Source\mbedtls_open\library/aes.c ****         if( verbose != 0 )
 4128              		.loc 1 1983 0
 4129 0406 5B46     		mov	r3, fp
 4130 0408 002B     		cmp	r3, #0
 4131 040a 02D0     		beq	.L150
 4132              	.LVL487:
1984:Source\mbedtls_open\library/aes.c ****             mbedtls_printf( "passed\n" );
 4133              		.loc 1 1984 0
 4134 040c 5348     		ldr	r0, .L176+8
 4135 040e FFF7FEFF 		bl	puts
 4136              	.LVL488:
 4137              	.L150:
1932:Source\mbedtls_open\library/aes.c ****     {
 4138              		.loc 1 1932 0 discriminator 2
 4139 0412 0136     		adds	r6, r6, #1
 4140              	.LVL489:
 4141              	.L146:
1932:Source\mbedtls_open\library/aes.c ****     {
 4142              		.loc 1 1932 0 is_stmt 0 discriminator 1
 4143 0414 052E     		cmp	r6, #5
 4144 0416 00DC     		bgt	.LCB4507
 4145 0418 72E7     		b	.L153	@long jump
 4146              	.LCB4507:
ARM GAS  C:\Users\Phuong\AppData\Local\Temp\ccyLHZOj.s 			page 112


1985:Source\mbedtls_open\library/aes.c ****     }
1986:Source\mbedtls_open\library/aes.c **** 
1987:Source\mbedtls_open\library/aes.c ****     if( verbose != 0 )
 4147              		.loc 1 1987 0 is_stmt 1
 4148 041a 5B46     		mov	r3, fp
 4149 041c 002B     		cmp	r3, #0
 4150 041e 02D0     		beq	.L154
 4151              	.LVL490:
1988:Source\mbedtls_open\library/aes.c ****         mbedtls_printf( "\n" );
 4152              		.loc 1 1988 0
 4153 0420 0A20     		movs	r0, #10
 4154 0422 FFF7FEFF 		bl	putchar
 4155              	.LVL491:
 4156              	.L154:
1989:Source\mbedtls_open\library/aes.c **** #endif /* MBEDTLS_CIPHER_MODE_OFB */
1990:Source\mbedtls_open\library/aes.c **** 
1991:Source\mbedtls_open\library/aes.c **** #if defined(MBEDTLS_CIPHER_MODE_CTR)
1992:Source\mbedtls_open\library/aes.c ****     /*
1993:Source\mbedtls_open\library/aes.c ****      * CTR mode
1994:Source\mbedtls_open\library/aes.c ****      */
1995:Source\mbedtls_open\library/aes.c ****     for( i = 0; i < 6; i++ )
1996:Source\mbedtls_open\library/aes.c ****     {
1997:Source\mbedtls_open\library/aes.c ****         u = i >> 1;
1998:Source\mbedtls_open\library/aes.c ****         mode = i & 1;
1999:Source\mbedtls_open\library/aes.c **** 
2000:Source\mbedtls_open\library/aes.c ****         if( verbose != 0 )
2001:Source\mbedtls_open\library/aes.c ****             mbedtls_printf( "  AES-CTR-128 (%s): ",
 4157              		.loc 1 2001 0 discriminator 1
 4158 0426 0023     		movs	r3, #0
 4159 0428 9846     		mov	r8, r3
 4160 042a 6AE0     		b	.L155
 4161              	.LVL492:
 4162              	.L161:
1997:Source\mbedtls_open\library/aes.c ****         mode = i & 1;
 4163              		.loc 1 1997 0
 4164 042c 4346     		mov	r3, r8
 4165              	.LVL493:
 4166 042e 5C10     		asrs	r4, r3, #1
 4167              	.LVL494:
1998:Source\mbedtls_open\library/aes.c **** 
 4168              		.loc 1 1998 0
 4169 0430 0123     		movs	r3, #1
 4170 0432 4246     		mov	r2, r8
 4171 0434 1A40     		ands	r2, r3
 4172 0436 9146     		mov	r9, r2
 4173              	.LVL495:
2000:Source\mbedtls_open\library/aes.c ****             mbedtls_printf( "  AES-CTR-128 (%s): ",
 4174              		.loc 1 2000 0
 4175 0438 5B46     		mov	r3, fp
 4176 043a 002B     		cmp	r3, #0
 4177 043c 07D0     		beq	.L156
 4178              	.LVL496:
 4179              		.loc 1 2001 0
 4180 043e 002A     		cmp	r2, #0
 4181 0440 01D1     		bne	.L171
 4182 0442 4749     		ldr	r1, .L176+12
 4183 0444 00E0     		b	.L157
ARM GAS  C:\Users\Phuong\AppData\Local\Temp\ccyLHZOj.s 			page 113


 4184              	.L171:
 4185 0446 4749     		ldr	r1, .L176+16
 4186              	.L157:
 4187              		.loc 1 2001 0 is_stmt 0 discriminator 4
 4188 0448 4748     		ldr	r0, .L176+20
 4189 044a FFF7FEFF 		bl	printf
 4190              	.LVL497:
 4191              	.L156:
2002:Source\mbedtls_open\library/aes.c ****                             ( mode == MBEDTLS_AES_DECRYPT ) ? "dec" : "enc" );
2003:Source\mbedtls_open\library/aes.c **** 
2004:Source\mbedtls_open\library/aes.c ****         memcpy( nonce_counter, aes_test_ctr_nonce_counter[u], 16 );
 4192              		.loc 1 2004 0 is_stmt 1
 4193 044e 53AA     		add	r2, sp, #332
 4194 0450 4648     		ldr	r0, .L176+24
 4195 0452 2101     		lsls	r1, r4, #4
 4196 0454 4318     		adds	r3, r0, r1
 4197 0456 2033     		adds	r3, r3, #32
 4198 0458 E0CB     		ldmia	r3!, {r5, r6, r7}
 4199 045a E0C2     		stmia	r2!, {r5, r6, r7}
 4200 045c 1B68     		ldr	r3, [r3]
 4201 045e 1360     		str	r3, [r2]
2005:Source\mbedtls_open\library/aes.c ****         memcpy( key, aes_test_ctr_key[u], 16 );
 4202              		.loc 1 2005 0
 4203 0460 5030     		adds	r0, r0, #80
 4204 0462 4118     		adds	r1, r0, r1
 4205 0464 1022     		movs	r2, #16
 4206 0466 70A8     		add	r0, sp, #448
 4207 0468 FFF7FEFF 		bl	memcpy
 4208              	.LVL498:
2006:Source\mbedtls_open\library/aes.c **** 
2007:Source\mbedtls_open\library/aes.c ****         offset = 0;
 4209              		.loc 1 2007 0
 4210 046c 0023     		movs	r3, #0
 4211 046e 5793     		str	r3, [sp, #348]
2008:Source\mbedtls_open\library/aes.c ****         if( ( ret = mbedtls_aes_setkey_enc( &ctx, key, 128 ) ) != 0 )
 4212              		.loc 1 2008 0
 4213 0470 8022     		movs	r2, #128
 4214 0472 70A9     		add	r1, sp, #448
 4215 0474 09A8     		add	r0, sp, #36
 4216 0476 FFF7FEFF 		bl	mbedtls_aes_setkey_enc
 4217              	.LVL499:
 4218 047a 051E     		subs	r5, r0, #0
 4219              	.LVL500:
 4220 047c 57D1     		bne	.L120
2009:Source\mbedtls_open\library/aes.c ****             goto exit;
2010:Source\mbedtls_open\library/aes.c **** 
2011:Source\mbedtls_open\library/aes.c ****         len = aes_test_ctr_len[u];
 4221              		.loc 1 2011 0
 4222 047e A300     		lsls	r3, r4, #2
 4223 0480 3B4A     		ldr	r2, .L176+28
 4224 0482 9E58     		ldr	r6, [r3, r2]
 4225              	.LVL501:
2012:Source\mbedtls_open\library/aes.c **** 
2013:Source\mbedtls_open\library/aes.c ****         if( mode == MBEDTLS_AES_DECRYPT )
 4226              		.loc 1 2013 0
 4227 0484 4B46     		mov	r3, r9
 4228 0486 002B     		cmp	r3, #0
ARM GAS  C:\Users\Phuong\AppData\Local\Temp\ccyLHZOj.s 			page 114


 4229 0488 0FD1     		bne	.L158
 4230              	.LVL502:
2014:Source\mbedtls_open\library/aes.c ****         {
2015:Source\mbedtls_open\library/aes.c ****             memcpy( buf, aes_test_ctr_ct[u], len );
 4231              		.loc 1 2015 0
 4232 048a 6500     		lsls	r5, r4, #1
 4233 048c 2A19     		adds	r2, r5, r4
 4234 048e 1301     		lsls	r3, r2, #4
 4235              	.LVL503:
 4236 0490 3749     		ldr	r1, .L176+28
 4237 0492 0C31     		adds	r1, r1, #12
 4238 0494 C918     		adds	r1, r1, r3
 4239 0496 3200     		movs	r2, r6
 4240 0498 60A8     		add	r0, sp, #384
 4241              	.LVL504:
 4242 049a FFF7FEFF 		bl	memcpy
 4243              	.LVL505:
2016:Source\mbedtls_open\library/aes.c ****             aes_tests = aes_test_ctr_pt[u];
 4244              		.loc 1 2016 0
 4245 049e 2D19     		adds	r5, r5, r4
 4246 04a0 2C01     		lsls	r4, r5, #4
 4247              	.LVL506:
 4248 04a2 344B     		ldr	r3, .L176+32
 4249 04a4 1C33     		adds	r3, r3, #28
 4250 04a6 1C19     		adds	r4, r3, r4
 4251              	.LVL507:
 4252 04a8 0EE0     		b	.L159
 4253              	.LVL508:
 4254              	.L158:
2017:Source\mbedtls_open\library/aes.c ****         }
2018:Source\mbedtls_open\library/aes.c ****         else
2019:Source\mbedtls_open\library/aes.c ****         {
2020:Source\mbedtls_open\library/aes.c ****             memcpy( buf, aes_test_ctr_pt[u], len );
 4255              		.loc 1 2020 0
 4256 04aa 6500     		lsls	r5, r4, #1
 4257 04ac 2A19     		adds	r2, r5, r4
 4258 04ae 1301     		lsls	r3, r2, #4
 4259              	.LVL509:
 4260 04b0 3049     		ldr	r1, .L176+32
 4261 04b2 1C31     		adds	r1, r1, #28
 4262 04b4 C918     		adds	r1, r1, r3
 4263 04b6 3200     		movs	r2, r6
 4264 04b8 60A8     		add	r0, sp, #384
 4265              	.LVL510:
 4266 04ba FFF7FEFF 		bl	memcpy
 4267              	.LVL511:
2021:Source\mbedtls_open\library/aes.c ****             aes_tests = aes_test_ctr_ct[u];
 4268              		.loc 1 2021 0
 4269 04be 2B19     		adds	r3, r5, r4
 4270 04c0 1C01     		lsls	r4, r3, #4
 4271              	.LVL512:
 4272 04c2 2B4B     		ldr	r3, .L176+28
 4273 04c4 0C33     		adds	r3, r3, #12
 4274 04c6 1C19     		adds	r4, r3, r4
 4275              	.LVL513:
 4276              	.L159:
2022:Source\mbedtls_open\library/aes.c ****         }
ARM GAS  C:\Users\Phuong\AppData\Local\Temp\ccyLHZOj.s 			page 115


2023:Source\mbedtls_open\library/aes.c **** 
2024:Source\mbedtls_open\library/aes.c ****         ret = mbedtls_aes_crypt_ctr( &ctx, len, &offset, nonce_counter,
 4277              		.loc 1 2024 0
 4278 04c8 60AB     		add	r3, sp, #384
 4279 04ca 0293     		str	r3, [sp, #8]
 4280 04cc 0193     		str	r3, [sp, #4]
 4281 04ce 4FAB     		add	r3, sp, #316
 4282 04d0 0093     		str	r3, [sp]
 4283 04d2 53AB     		add	r3, sp, #332
 4284 04d4 57AA     		add	r2, sp, #348
 4285 04d6 3100     		movs	r1, r6
 4286 04d8 09A8     		add	r0, sp, #36
 4287 04da FFF7FEFF 		bl	mbedtls_aes_crypt_ctr
 4288              	.LVL514:
 4289 04de 051E     		subs	r5, r0, #0
 4290              	.LVL515:
2025:Source\mbedtls_open\library/aes.c ****                                      stream_block, buf, buf );
2026:Source\mbedtls_open\library/aes.c ****         if( ret != 0 )
 4291              		.loc 1 2026 0
 4292 04e0 25D1     		bne	.L120
2027:Source\mbedtls_open\library/aes.c ****             goto exit;
2028:Source\mbedtls_open\library/aes.c **** 
2029:Source\mbedtls_open\library/aes.c ****         if( memcmp( buf, aes_tests, len ) != 0 )
 4293              		.loc 1 2029 0
 4294 04e2 3200     		movs	r2, r6
 4295 04e4 2100     		movs	r1, r4
 4296 04e6 60A8     		add	r0, sp, #384
 4297              	.LVL516:
 4298 04e8 FFF7FEFF 		bl	memcmp
 4299              	.LVL517:
 4300 04ec 0028     		cmp	r0, #0
 4301 04ee 1BD1     		bne	.L172
2030:Source\mbedtls_open\library/aes.c ****         {
2031:Source\mbedtls_open\library/aes.c ****             ret = 1;
2032:Source\mbedtls_open\library/aes.c ****             goto exit;
2033:Source\mbedtls_open\library/aes.c ****         }
2034:Source\mbedtls_open\library/aes.c **** 
2035:Source\mbedtls_open\library/aes.c ****         if( verbose != 0 )
 4302              		.loc 1 2035 0
 4303 04f0 5B46     		mov	r3, fp
 4304 04f2 002B     		cmp	r3, #0
 4305 04f4 02D0     		beq	.L160
 4306              	.LVL518:
2036:Source\mbedtls_open\library/aes.c ****             mbedtls_printf( "passed\n" );
 4307              		.loc 1 2036 0
 4308 04f6 1948     		ldr	r0, .L176+8
 4309 04f8 FFF7FEFF 		bl	puts
 4310              	.LVL519:
 4311              	.L160:
1995:Source\mbedtls_open\library/aes.c ****     {
 4312              		.loc 1 1995 0 discriminator 2
 4313 04fc 0123     		movs	r3, #1
 4314 04fe 9C46     		mov	ip, r3
 4315 0500 E044     		add	r8, r8, ip
 4316              	.LVL520:
 4317              	.L155:
1995:Source\mbedtls_open\library/aes.c ****     {
ARM GAS  C:\Users\Phuong\AppData\Local\Temp\ccyLHZOj.s 			page 116


 4318              		.loc 1 1995 0 is_stmt 0 discriminator 1
 4319 0502 4346     		mov	r3, r8
 4320 0504 052B     		cmp	r3, #5
 4321 0506 91DD     		ble	.L161
2037:Source\mbedtls_open\library/aes.c ****     }
2038:Source\mbedtls_open\library/aes.c **** 
2039:Source\mbedtls_open\library/aes.c ****     if( verbose != 0 )
 4322              		.loc 1 2039 0 is_stmt 1
 4323 0508 5B46     		mov	r3, fp
 4324 050a 002B     		cmp	r3, #0
 4325 050c 0ED0     		beq	.L173
 4326              	.LVL521:
2040:Source\mbedtls_open\library/aes.c ****         mbedtls_printf( "\n" );
 4327              		.loc 1 2040 0
 4328 050e 0A20     		movs	r0, #10
 4329 0510 FFF7FEFF 		bl	putchar
 4330              	.LVL522:
2041:Source\mbedtls_open\library/aes.c **** #endif /* MBEDTLS_CIPHER_MODE_CTR */
2042:Source\mbedtls_open\library/aes.c **** 
2043:Source\mbedtls_open\library/aes.c **** #if defined(MBEDTLS_CIPHER_MODE_XTS)
2044:Source\mbedtls_open\library/aes.c ****     {
2045:Source\mbedtls_open\library/aes.c ****     static const int num_tests =
2046:Source\mbedtls_open\library/aes.c ****         sizeof(aes_test_xts_key) / sizeof(*aes_test_xts_key);
2047:Source\mbedtls_open\library/aes.c ****     mbedtls_aes_xts_context ctx_xts;
2048:Source\mbedtls_open\library/aes.c **** 
2049:Source\mbedtls_open\library/aes.c ****     /*
2050:Source\mbedtls_open\library/aes.c ****      * XTS mode
2051:Source\mbedtls_open\library/aes.c ****      */
2052:Source\mbedtls_open\library/aes.c ****     mbedtls_aes_xts_init( &ctx_xts );
2053:Source\mbedtls_open\library/aes.c **** 
2054:Source\mbedtls_open\library/aes.c ****     for( i = 0; i < num_tests << 1; i++ )
2055:Source\mbedtls_open\library/aes.c ****     {
2056:Source\mbedtls_open\library/aes.c ****         const unsigned char *data_unit;
2057:Source\mbedtls_open\library/aes.c ****         u = i >> 1;
2058:Source\mbedtls_open\library/aes.c ****         mode = i & 1;
2059:Source\mbedtls_open\library/aes.c **** 
2060:Source\mbedtls_open\library/aes.c ****         if( verbose != 0 )
2061:Source\mbedtls_open\library/aes.c ****             mbedtls_printf( "  AES-XTS-128 (%s): ",
2062:Source\mbedtls_open\library/aes.c ****                             ( mode == MBEDTLS_AES_DECRYPT ) ? "dec" : "enc" );
2063:Source\mbedtls_open\library/aes.c **** 
2064:Source\mbedtls_open\library/aes.c ****         memset( key, 0, sizeof( key ) );
2065:Source\mbedtls_open\library/aes.c ****         memcpy( key, aes_test_xts_key[u], 32 );
2066:Source\mbedtls_open\library/aes.c ****         data_unit = aes_test_xts_data_unit[u];
2067:Source\mbedtls_open\library/aes.c **** 
2068:Source\mbedtls_open\library/aes.c ****         len = sizeof( *aes_test_xts_ct32 );
2069:Source\mbedtls_open\library/aes.c **** 
2070:Source\mbedtls_open\library/aes.c ****         if( mode == MBEDTLS_AES_DECRYPT )
2071:Source\mbedtls_open\library/aes.c ****         {
2072:Source\mbedtls_open\library/aes.c ****             ret = mbedtls_aes_xts_setkey_dec( &ctx_xts, key, 256 );
2073:Source\mbedtls_open\library/aes.c ****             if( ret != 0)
2074:Source\mbedtls_open\library/aes.c ****                 goto exit;
2075:Source\mbedtls_open\library/aes.c ****             memcpy( buf, aes_test_xts_ct32[u], len );
2076:Source\mbedtls_open\library/aes.c ****             aes_tests = aes_test_xts_pt32[u];
2077:Source\mbedtls_open\library/aes.c ****         }
2078:Source\mbedtls_open\library/aes.c ****         else
2079:Source\mbedtls_open\library/aes.c ****         {
2080:Source\mbedtls_open\library/aes.c ****             ret = mbedtls_aes_xts_setkey_enc( &ctx_xts, key, 256 );
ARM GAS  C:\Users\Phuong\AppData\Local\Temp\ccyLHZOj.s 			page 117


2081:Source\mbedtls_open\library/aes.c ****             if( ret != 0)
2082:Source\mbedtls_open\library/aes.c ****                 goto exit;
2083:Source\mbedtls_open\library/aes.c ****             memcpy( buf, aes_test_xts_pt32[u], len );
2084:Source\mbedtls_open\library/aes.c ****             aes_tests = aes_test_xts_ct32[u];
2085:Source\mbedtls_open\library/aes.c ****         }
2086:Source\mbedtls_open\library/aes.c **** 
2087:Source\mbedtls_open\library/aes.c **** 
2088:Source\mbedtls_open\library/aes.c ****         ret = mbedtls_aes_crypt_xts( &ctx_xts, mode, len, data_unit,
2089:Source\mbedtls_open\library/aes.c ****                                      buf, buf );
2090:Source\mbedtls_open\library/aes.c ****         if( ret != 0 )
2091:Source\mbedtls_open\library/aes.c ****             goto exit;
2092:Source\mbedtls_open\library/aes.c **** 
2093:Source\mbedtls_open\library/aes.c ****         if( memcmp( buf, aes_tests, len ) != 0 )
2094:Source\mbedtls_open\library/aes.c ****         {
2095:Source\mbedtls_open\library/aes.c ****             ret = 1;
2096:Source\mbedtls_open\library/aes.c ****             goto exit;
2097:Source\mbedtls_open\library/aes.c ****         }
2098:Source\mbedtls_open\library/aes.c **** 
2099:Source\mbedtls_open\library/aes.c ****         if( verbose != 0 )
2100:Source\mbedtls_open\library/aes.c ****             mbedtls_printf( "passed\n" );
2101:Source\mbedtls_open\library/aes.c ****     }
2102:Source\mbedtls_open\library/aes.c **** 
2103:Source\mbedtls_open\library/aes.c ****     if( verbose != 0 )
2104:Source\mbedtls_open\library/aes.c ****         mbedtls_printf( "\n" );
2105:Source\mbedtls_open\library/aes.c **** 
2106:Source\mbedtls_open\library/aes.c ****     mbedtls_aes_xts_free( &ctx_xts );
2107:Source\mbedtls_open\library/aes.c ****     }
2108:Source\mbedtls_open\library/aes.c **** #endif /* MBEDTLS_CIPHER_MODE_XTS */
2109:Source\mbedtls_open\library/aes.c **** 
2110:Source\mbedtls_open\library/aes.c ****     ret = 0;
 4331              		.loc 1 2110 0
 4332 0514 0025     		movs	r5, #0
 4333 0516 0AE0     		b	.L120
 4334              	.LVL523:
 4335              	.L164:
1779:Source\mbedtls_open\library/aes.c ****             goto exit;
 4336              		.loc 1 1779 0
 4337 0518 0125     		movs	r5, #1
 4338              	.LVL524:
 4339 051a 08E0     		b	.L120
 4340              	.LVL525:
 4341              	.L166:
1853:Source\mbedtls_open\library/aes.c ****             goto exit;
 4342              		.loc 1 1853 0
 4343 051c 0125     		movs	r5, #1
 4344              	.LVL526:
 4345 051e 06E0     		b	.L120
 4346              	.LVL527:
 4347              	.L168:
1916:Source\mbedtls_open\library/aes.c ****             goto exit;
 4348              		.loc 1 1916 0
 4349 0520 0125     		movs	r5, #1
 4350              	.LVL528:
 4351 0522 04E0     		b	.L120
 4352              	.LVL529:
 4353              	.L170:
1979:Source\mbedtls_open\library/aes.c ****             goto exit;
ARM GAS  C:\Users\Phuong\AppData\Local\Temp\ccyLHZOj.s 			page 118


 4354              		.loc 1 1979 0
 4355 0524 0125     		movs	r5, #1
 4356              	.LVL530:
 4357 0526 02E0     		b	.L120
 4358              	.LVL531:
 4359              	.L172:
2031:Source\mbedtls_open\library/aes.c ****             goto exit;
 4360              		.loc 1 2031 0
 4361 0528 0125     		movs	r5, #1
 4362              	.LVL532:
 4363 052a 00E0     		b	.L120
 4364              	.LVL533:
 4365              	.L173:
 4366              		.loc 1 2110 0
 4367 052c 0025     		movs	r5, #0
 4368              	.LVL534:
 4369              	.L120:
2111:Source\mbedtls_open\library/aes.c **** 
2112:Source\mbedtls_open\library/aes.c **** exit:
2113:Source\mbedtls_open\library/aes.c ****     if( ret != 0 && verbose != 0 )
 4370              		.loc 1 2113 0
 4371 052e 002D     		cmp	r5, #0
 4372 0530 05D0     		beq	.L162
 4373              		.loc 1 2113 0 is_stmt 0 discriminator 1
 4374 0532 5B46     		mov	r3, fp
 4375 0534 002B     		cmp	r3, #0
 4376 0536 02D0     		beq	.L162
 4377              	.LVL535:
2114:Source\mbedtls_open\library/aes.c ****         mbedtls_printf( "failed\n" );
 4378              		.loc 1 2114 0 is_stmt 1
 4379 0538 0F48     		ldr	r0, .L176+36
 4380 053a FFF7FEFF 		bl	puts
 4381              	.LVL536:
 4382              	.L162:
2115:Source\mbedtls_open\library/aes.c **** 
2116:Source\mbedtls_open\library/aes.c ****     mbedtls_aes_free( &ctx );
 4383              		.loc 1 2116 0
 4384 053e 09A8     		add	r0, sp, #36
 4385 0540 FFF7FEFF 		bl	mbedtls_aes_free
 4386              	.LVL537:
2117:Source\mbedtls_open\library/aes.c **** 
2118:Source\mbedtls_open\library/aes.c ****     return( ret );
2119:Source\mbedtls_open\library/aes.c **** }
 4387              		.loc 1 2119 0
 4388 0544 2800     		movs	r0, r5
 4389 0546 79B0     		add	sp, sp, #484
 4390              		@ sp needed
 4391              	.LVL538:
 4392              	.LVL539:
 4393 0548 3CBC     		pop	{r2, r3, r4, r5}
 4394 054a 9046     		mov	r8, r2
 4395 054c 9946     		mov	r9, r3
 4396 054e A246     		mov	r10, r4
 4397 0550 AB46     		mov	fp, r5
 4398 0552 F0BD     		pop	{r4, r5, r6, r7, pc}
 4399              	.L177:
 4400              		.align	2
ARM GAS  C:\Users\Phuong\AppData\Local\Temp\ccyLHZOj.s 			page 119


 4401              	.L176:
 4402 0554 80020000 		.word	.LANCHOR16
 4403 0558 00000000 		.word	.LANCHOR11
 4404 055c 28000000 		.word	.LC37
 4405 0560 00000000 		.word	.LC27
 4406 0564 04000000 		.word	.LC29
 4407 0568 78000000 		.word	.LC49
 4408 056c 80030000 		.word	.LANCHOR17
 4409 0570 00040000 		.word	.LANCHOR18
 4410 0574 80040000 		.word	.LANCHOR19
 4411 0578 90000000 		.word	.LC54
 4412              		.cfi_endproc
 4413              	.LFE16:
 4414              		.size	mbedtls_aes_self_test, .-mbedtls_aes_self_test
 4415              		.section	.rodata
 4416              		.align	2
 4417              		.set	.LANCHOR11,. + 0
 4418              		.set	.LANCHOR12,. + 128
 4419              		.set	.LANCHOR13,. + 256
 4420              		.set	.LANCHOR14,. + 384
 4421              		.set	.LANCHOR15,. + 512
 4422              		.set	.LANCHOR16,. + 640
 4423              		.set	.LANCHOR17,. + 896
 4424              		.set	.LANCHOR18,. + 1024
 4425              		.set	.LANCHOR19,. + 1152
 4426              		.type	aes_test_cfb128_pt, %object
 4427              		.size	aes_test_cfb128_pt, 64
 4428              	aes_test_cfb128_pt:
 4429 0000 6B       		.byte	107
 4430 0001 C1       		.byte	-63
 4431 0002 BE       		.byte	-66
 4432 0003 E2       		.byte	-30
 4433 0004 2E       		.byte	46
 4434 0005 40       		.byte	64
 4435 0006 9F       		.byte	-97
 4436 0007 96       		.byte	-106
 4437 0008 E9       		.byte	-23
 4438 0009 3D       		.byte	61
 4439 000a 7E       		.byte	126
 4440 000b 11       		.byte	17
 4441 000c 73       		.byte	115
 4442 000d 93       		.byte	-109
 4443 000e 17       		.byte	23
 4444 000f 2A       		.byte	42
 4445 0010 AE       		.byte	-82
 4446 0011 2D       		.byte	45
 4447 0012 8A       		.byte	-118
 4448 0013 57       		.byte	87
 4449 0014 1E       		.byte	30
 4450 0015 03       		.byte	3
 4451 0016 AC       		.byte	-84
 4452 0017 9C       		.byte	-100
 4453 0018 9E       		.byte	-98
 4454 0019 B7       		.byte	-73
 4455 001a 6F       		.byte	111
 4456 001b AC       		.byte	-84
 4457 001c 45       		.byte	69
ARM GAS  C:\Users\Phuong\AppData\Local\Temp\ccyLHZOj.s 			page 120


 4458 001d AF       		.byte	-81
 4459 001e 8E       		.byte	-114
 4460 001f 51       		.byte	81
 4461 0020 30       		.byte	48
 4462 0021 C8       		.byte	-56
 4463 0022 1C       		.byte	28
 4464 0023 46       		.byte	70
 4465 0024 A3       		.byte	-93
 4466 0025 5C       		.byte	92
 4467 0026 E4       		.byte	-28
 4468 0027 11       		.byte	17
 4469 0028 E5       		.byte	-27
 4470 0029 FB       		.byte	-5
 4471 002a C1       		.byte	-63
 4472 002b 19       		.byte	25
 4473 002c 1A       		.byte	26
 4474 002d 0A       		.byte	10
 4475 002e 52       		.byte	82
 4476 002f EF       		.byte	-17
 4477 0030 F6       		.byte	-10
 4478 0031 9F       		.byte	-97
 4479 0032 24       		.byte	36
 4480 0033 45       		.byte	69
 4481 0034 DF       		.byte	-33
 4482 0035 4F       		.byte	79
 4483 0036 9B       		.byte	-101
 4484 0037 17       		.byte	23
 4485 0038 AD       		.byte	-83
 4486 0039 2B       		.byte	43
 4487 003a 41       		.byte	65
 4488 003b 7B       		.byte	123
 4489 003c E6       		.byte	-26
 4490 003d 6C       		.byte	108
 4491 003e 37       		.byte	55
 4492 003f 10       		.byte	16
 4493              		.type	aes_test_ofb_pt, %object
 4494              		.size	aes_test_ofb_pt, 64
 4495              	aes_test_ofb_pt:
 4496 0040 6B       		.byte	107
 4497 0041 C1       		.byte	-63
 4498 0042 BE       		.byte	-66
 4499 0043 E2       		.byte	-30
 4500 0044 2E       		.byte	46
 4501 0045 40       		.byte	64
 4502 0046 9F       		.byte	-97
 4503 0047 96       		.byte	-106
 4504 0048 E9       		.byte	-23
 4505 0049 3D       		.byte	61
 4506 004a 7E       		.byte	126
 4507 004b 11       		.byte	17
 4508 004c 73       		.byte	115
 4509 004d 93       		.byte	-109
 4510 004e 17       		.byte	23
 4511 004f 2A       		.byte	42
 4512 0050 AE       		.byte	-82
 4513 0051 2D       		.byte	45
 4514 0052 8A       		.byte	-118
ARM GAS  C:\Users\Phuong\AppData\Local\Temp\ccyLHZOj.s 			page 121


 4515 0053 57       		.byte	87
 4516 0054 1E       		.byte	30
 4517 0055 03       		.byte	3
 4518 0056 AC       		.byte	-84
 4519 0057 9C       		.byte	-100
 4520 0058 9E       		.byte	-98
 4521 0059 B7       		.byte	-73
 4522 005a 6F       		.byte	111
 4523 005b AC       		.byte	-84
 4524 005c 45       		.byte	69
 4525 005d AF       		.byte	-81
 4526 005e 8E       		.byte	-114
 4527 005f 51       		.byte	81
 4528 0060 30       		.byte	48
 4529 0061 C8       		.byte	-56
 4530 0062 1C       		.byte	28
 4531 0063 46       		.byte	70
 4532 0064 A3       		.byte	-93
 4533 0065 5C       		.byte	92
 4534 0066 E4       		.byte	-28
 4535 0067 11       		.byte	17
 4536 0068 E5       		.byte	-27
 4537 0069 FB       		.byte	-5
 4538 006a C1       		.byte	-63
 4539 006b 19       		.byte	25
 4540 006c 1A       		.byte	26
 4541 006d 0A       		.byte	10
 4542 006e 52       		.byte	82
 4543 006f EF       		.byte	-17
 4544 0070 F6       		.byte	-10
 4545 0071 9F       		.byte	-97
 4546 0072 24       		.byte	36
 4547 0073 45       		.byte	69
 4548 0074 DF       		.byte	-33
 4549 0075 4F       		.byte	79
 4550 0076 9B       		.byte	-101
 4551 0077 17       		.byte	23
 4552 0078 AD       		.byte	-83
 4553 0079 2B       		.byte	43
 4554 007a 41       		.byte	65
 4555 007b 7B       		.byte	123
 4556 007c E6       		.byte	-26
 4557 007d 6C       		.byte	108
 4558 007e 37       		.byte	55
 4559 007f 10       		.byte	16
 4560              		.type	aes_test_ecb_dec, %object
 4561              		.size	aes_test_ecb_dec, 48
 4562              	aes_test_ecb_dec:
 4563 0080 44       		.byte	68
 4564 0081 41       		.byte	65
 4565 0082 6A       		.byte	106
 4566 0083 C2       		.byte	-62
 4567 0084 D1       		.byte	-47
 4568 0085 F5       		.byte	-11
 4569 0086 3C       		.byte	60
 4570 0087 58       		.byte	88
 4571 0088 33       		.byte	51
ARM GAS  C:\Users\Phuong\AppData\Local\Temp\ccyLHZOj.s 			page 122


 4572 0089 03       		.byte	3
 4573 008a 91       		.byte	-111
 4574 008b 7E       		.byte	126
 4575 008c 6B       		.byte	107
 4576 008d E9       		.byte	-23
 4577 008e EB       		.byte	-21
 4578 008f E0       		.byte	-32
 4579 0090 48       		.byte	72
 4580 0091 E3       		.byte	-29
 4581 0092 1E       		.byte	30
 4582 0093 9E       		.byte	-98
 4583 0094 25       		.byte	37
 4584 0095 67       		.byte	103
 4585 0096 18       		.byte	24
 4586 0097 F2       		.byte	-14
 4587 0098 92       		.byte	-110
 4588 0099 29       		.byte	41
 4589 009a 31       		.byte	49
 4590 009b 9C       		.byte	-100
 4591 009c 19       		.byte	25
 4592 009d F1       		.byte	-15
 4593 009e 5B       		.byte	91
 4594 009f A4       		.byte	-92
 4595 00a0 05       		.byte	5
 4596 00a1 8C       		.byte	-116
 4597 00a2 CF       		.byte	-49
 4598 00a3 FD       		.byte	-3
 4599 00a4 BB       		.byte	-69
 4600 00a5 CB       		.byte	-53
 4601 00a6 38       		.byte	56
 4602 00a7 2D       		.byte	45
 4603 00a8 1F       		.byte	31
 4604 00a9 6F       		.byte	111
 4605 00aa 56       		.byte	86
 4606 00ab 58       		.byte	88
 4607 00ac 5D       		.byte	93
 4608 00ad 8A       		.byte	-118
 4609 00ae 4A       		.byte	74
 4610 00af DE       		.byte	-34
 4611              		.type	aes_test_ecb_enc, %object
 4612              		.size	aes_test_ecb_enc, 48
 4613              	aes_test_ecb_enc:
 4614 00b0 C3       		.byte	-61
 4615 00b1 4C       		.byte	76
 4616 00b2 05       		.byte	5
 4617 00b3 2C       		.byte	44
 4618 00b4 C0       		.byte	-64
 4619 00b5 DA       		.byte	-38
 4620 00b6 8D       		.byte	-115
 4621 00b7 73       		.byte	115
 4622 00b8 45       		.byte	69
 4623 00b9 1A       		.byte	26
 4624 00ba FE       		.byte	-2
 4625 00bb 5F       		.byte	95
 4626 00bc 03       		.byte	3
 4627 00bd BE       		.byte	-66
 4628 00be 29       		.byte	41
ARM GAS  C:\Users\Phuong\AppData\Local\Temp\ccyLHZOj.s 			page 123


 4629 00bf 7F       		.byte	127
 4630 00c0 F3       		.byte	-13
 4631 00c1 F6       		.byte	-10
 4632 00c2 75       		.byte	117
 4633 00c3 2A       		.byte	42
 4634 00c4 E8       		.byte	-24
 4635 00c5 D7       		.byte	-41
 4636 00c6 83       		.byte	-125
 4637 00c7 11       		.byte	17
 4638 00c8 38       		.byte	56
 4639 00c9 F0       		.byte	-16
 4640 00ca 41       		.byte	65
 4641 00cb 56       		.byte	86
 4642 00cc 06       		.byte	6
 4643 00cd 31       		.byte	49
 4644 00ce B1       		.byte	-79
 4645 00cf 14       		.byte	20
 4646 00d0 8B       		.byte	-117
 4647 00d1 79       		.byte	121
 4648 00d2 EE       		.byte	-18
 4649 00d3 CC       		.byte	-52
 4650 00d4 93       		.byte	-109
 4651 00d5 A0       		.byte	-96
 4652 00d6 EE       		.byte	-18
 4653 00d7 5D       		.byte	93
 4654 00d8 FF       		.byte	-1
 4655 00d9 30       		.byte	48
 4656 00da B4       		.byte	-76
 4657 00db EA       		.byte	-22
 4658 00dc 21       		.byte	33
 4659 00dd 63       		.byte	99
 4660 00de 6D       		.byte	109
 4661 00df A4       		.byte	-92
 4662              		.type	aes_test_cbc_dec, %object
 4663              		.size	aes_test_cbc_dec, 48
 4664              	aes_test_cbc_dec:
 4665 00e0 FA       		.byte	-6
 4666 00e1 CA       		.byte	-54
 4667 00e2 37       		.byte	55
 4668 00e3 E0       		.byte	-32
 4669 00e4 B0       		.byte	-80
 4670 00e5 C8       		.byte	-56
 4671 00e6 53       		.byte	83
 4672 00e7 73       		.byte	115
 4673 00e8 DF       		.byte	-33
 4674 00e9 70       		.byte	112
 4675 00ea 6E       		.byte	110
 4676 00eb 73       		.byte	115
 4677 00ec F7       		.byte	-9
 4678 00ed C9       		.byte	-55
 4679 00ee AF       		.byte	-81
 4680 00ef 86       		.byte	-122
 4681 00f0 5D       		.byte	93
 4682 00f1 F6       		.byte	-10
 4683 00f2 78       		.byte	120
 4684 00f3 DD       		.byte	-35
 4685 00f4 17       		.byte	23
ARM GAS  C:\Users\Phuong\AppData\Local\Temp\ccyLHZOj.s 			page 124


 4686 00f5 BA       		.byte	-70
 4687 00f6 4E       		.byte	78
 4688 00f7 75       		.byte	117
 4689 00f8 B6       		.byte	-74
 4690 00f9 17       		.byte	23
 4691 00fa 68       		.byte	104
 4692 00fb C6       		.byte	-58
 4693 00fc AD       		.byte	-83
 4694 00fd EF       		.byte	-17
 4695 00fe 7C       		.byte	124
 4696 00ff 7B       		.byte	123
 4697 0100 48       		.byte	72
 4698 0101 04       		.byte	4
 4699 0102 E1       		.byte	-31
 4700 0103 81       		.byte	-127
 4701 0104 8F       		.byte	-113
 4702 0105 E6       		.byte	-26
 4703 0106 29       		.byte	41
 4704 0107 75       		.byte	117
 4705 0108 19       		.byte	25
 4706 0109 A3       		.byte	-93
 4707 010a E8       		.byte	-24
 4708 010b 8C       		.byte	-116
 4709 010c 57       		.byte	87
 4710 010d 31       		.byte	49
 4711 010e 04       		.byte	4
 4712 010f 13       		.byte	19
 4713              		.type	aes_test_cbc_enc, %object
 4714              		.size	aes_test_cbc_enc, 48
 4715              	aes_test_cbc_enc:
 4716 0110 8A       		.byte	-118
 4717 0111 05       		.byte	5
 4718 0112 FC       		.byte	-4
 4719 0113 5E       		.byte	94
 4720 0114 09       		.byte	9
 4721 0115 5A       		.byte	90
 4722 0116 F4       		.byte	-12
 4723 0117 84       		.byte	-124
 4724 0118 8A       		.byte	-118
 4725 0119 08       		.byte	8
 4726 011a D3       		.byte	-45
 4727 011b 28       		.byte	40
 4728 011c D3       		.byte	-45
 4729 011d 68       		.byte	104
 4730 011e 8E       		.byte	-114
 4731 011f 3D       		.byte	61
 4732 0120 7B       		.byte	123
 4733 0121 D9       		.byte	-39
 4734 0122 66       		.byte	102
 4735 0123 D5       		.byte	-43
 4736 0124 3A       		.byte	58
 4737 0125 D8       		.byte	-40
 4738 0126 C1       		.byte	-63
 4739 0127 BB       		.byte	-69
 4740 0128 85       		.byte	-123
 4741 0129 D2       		.byte	-46
 4742 012a AD       		.byte	-83
ARM GAS  C:\Users\Phuong\AppData\Local\Temp\ccyLHZOj.s 			page 125


 4743 012b FA       		.byte	-6
 4744 012c E8       		.byte	-24
 4745 012d 7B       		.byte	123
 4746 012e B1       		.byte	-79
 4747 012f 04       		.byte	4
 4748 0130 FE       		.byte	-2
 4749 0131 3C       		.byte	60
 4750 0132 53       		.byte	83
 4751 0133 65       		.byte	101
 4752 0134 3E       		.byte	62
 4753 0135 2F       		.byte	47
 4754 0136 45       		.byte	69
 4755 0137 B5       		.byte	-75
 4756 0138 6F       		.byte	111
 4757 0139 CD       		.byte	-51
 4758 013a 88       		.byte	-120
 4759 013b B2       		.byte	-78
 4760 013c CC       		.byte	-52
 4761 013d 89       		.byte	-119
 4762 013e 8F       		.byte	-113
 4763 013f F0       		.byte	-16
 4764              		.type	aes_test_cfb128_iv, %object
 4765              		.size	aes_test_cfb128_iv, 16
 4766              	aes_test_cfb128_iv:
 4767 0140 00       		.byte	0
 4768 0141 01       		.byte	1
 4769 0142 02       		.byte	2
 4770 0143 03       		.byte	3
 4771 0144 04       		.byte	4
 4772 0145 05       		.byte	5
 4773 0146 06       		.byte	6
 4774 0147 07       		.byte	7
 4775 0148 08       		.byte	8
 4776 0149 09       		.byte	9
 4777 014a 0A       		.byte	10
 4778 014b 0B       		.byte	11
 4779 014c 0C       		.byte	12
 4780 014d 0D       		.byte	13
 4781 014e 0E       		.byte	14
 4782 014f 0F       		.byte	15
 4783              		.type	aes_test_cfb128_key, %object
 4784              		.size	aes_test_cfb128_key, 96
 4785              	aes_test_cfb128_key:
 4786 0150 2B       		.byte	43
 4787 0151 7E       		.byte	126
 4788 0152 15       		.byte	21
 4789 0153 16       		.byte	22
 4790 0154 28       		.byte	40
 4791 0155 AE       		.byte	-82
 4792 0156 D2       		.byte	-46
 4793 0157 A6       		.byte	-90
 4794 0158 AB       		.byte	-85
 4795 0159 F7       		.byte	-9
 4796 015a 15       		.byte	21
 4797 015b 88       		.byte	-120
 4798 015c 09       		.byte	9
 4799 015d CF       		.byte	-49
ARM GAS  C:\Users\Phuong\AppData\Local\Temp\ccyLHZOj.s 			page 126


 4800 015e 4F       		.byte	79
 4801 015f 3C       		.byte	60
 4802 0160 00000000 		.space	16
 4802      00000000 
 4802      00000000 
 4802      00000000 
 4803 0170 8E       		.byte	-114
 4804 0171 73       		.byte	115
 4805 0172 B0       		.byte	-80
 4806 0173 F7       		.byte	-9
 4807 0174 DA       		.byte	-38
 4808 0175 0E       		.byte	14
 4809 0176 64       		.byte	100
 4810 0177 52       		.byte	82
 4811 0178 C8       		.byte	-56
 4812 0179 10       		.byte	16
 4813 017a F3       		.byte	-13
 4814 017b 2B       		.byte	43
 4815 017c 80       		.byte	-128
 4816 017d 90       		.byte	-112
 4817 017e 79       		.byte	121
 4818 017f E5       		.byte	-27
 4819 0180 62       		.byte	98
 4820 0181 F8       		.byte	-8
 4821 0182 EA       		.byte	-22
 4822 0183 D2       		.byte	-46
 4823 0184 52       		.byte	82
 4824 0185 2C       		.byte	44
 4825 0186 6B       		.byte	107
 4826 0187 7B       		.byte	123
 4827 0188 00000000 		.space	8
 4827      00000000 
 4828 0190 60       		.byte	96
 4829 0191 3D       		.byte	61
 4830 0192 EB       		.byte	-21
 4831 0193 10       		.byte	16
 4832 0194 15       		.byte	21
 4833 0195 CA       		.byte	-54
 4834 0196 71       		.byte	113
 4835 0197 BE       		.byte	-66
 4836 0198 2B       		.byte	43
 4837 0199 73       		.byte	115
 4838 019a AE       		.byte	-82
 4839 019b F0       		.byte	-16
 4840 019c 85       		.byte	-123
 4841 019d 7D       		.byte	125
 4842 019e 77       		.byte	119
 4843 019f 81       		.byte	-127
 4844 01a0 1F       		.byte	31
 4845 01a1 35       		.byte	53
 4846 01a2 2C       		.byte	44
 4847 01a3 07       		.byte	7
 4848 01a4 3B       		.byte	59
 4849 01a5 61       		.byte	97
 4850 01a6 08       		.byte	8
 4851 01a7 D7       		.byte	-41
 4852 01a8 2D       		.byte	45
ARM GAS  C:\Users\Phuong\AppData\Local\Temp\ccyLHZOj.s 			page 127


 4853 01a9 98       		.byte	-104
 4854 01aa 10       		.byte	16
 4855 01ab A3       		.byte	-93
 4856 01ac 09       		.byte	9
 4857 01ad 14       		.byte	20
 4858 01ae DF       		.byte	-33
 4859 01af F4       		.byte	-12
 4860              		.type	aes_test_cfb128_ct, %object
 4861              		.size	aes_test_cfb128_ct, 192
 4862              	aes_test_cfb128_ct:
 4863 01b0 3B       		.byte	59
 4864 01b1 3F       		.byte	63
 4865 01b2 D9       		.byte	-39
 4866 01b3 2E       		.byte	46
 4867 01b4 B7       		.byte	-73
 4868 01b5 2D       		.byte	45
 4869 01b6 AD       		.byte	-83
 4870 01b7 20       		.byte	32
 4871 01b8 33       		.byte	51
 4872 01b9 34       		.byte	52
 4873 01ba 49       		.byte	73
 4874 01bb F8       		.byte	-8
 4875 01bc E8       		.byte	-24
 4876 01bd 3C       		.byte	60
 4877 01be FB       		.byte	-5
 4878 01bf 4A       		.byte	74
 4879 01c0 C8       		.byte	-56
 4880 01c1 A6       		.byte	-90
 4881 01c2 45       		.byte	69
 4882 01c3 37       		.byte	55
 4883 01c4 A0       		.byte	-96
 4884 01c5 B3       		.byte	-77
 4885 01c6 A9       		.byte	-87
 4886 01c7 3F       		.byte	63
 4887 01c8 CD       		.byte	-51
 4888 01c9 E3       		.byte	-29
 4889 01ca CD       		.byte	-51
 4890 01cb AD       		.byte	-83
 4891 01cc 9F       		.byte	-97
 4892 01cd 1C       		.byte	28
 4893 01ce E5       		.byte	-27
 4894 01cf 8B       		.byte	-117
 4895 01d0 26       		.byte	38
 4896 01d1 75       		.byte	117
 4897 01d2 1F       		.byte	31
 4898 01d3 67       		.byte	103
 4899 01d4 A3       		.byte	-93
 4900 01d5 CB       		.byte	-53
 4901 01d6 B1       		.byte	-79
 4902 01d7 40       		.byte	64
 4903 01d8 B1       		.byte	-79
 4904 01d9 80       		.byte	-128
 4905 01da 8C       		.byte	-116
 4906 01db F1       		.byte	-15
 4907 01dc 87       		.byte	-121
 4908 01dd A4       		.byte	-92
 4909 01de F4       		.byte	-12
ARM GAS  C:\Users\Phuong\AppData\Local\Temp\ccyLHZOj.s 			page 128


 4910 01df DF       		.byte	-33
 4911 01e0 C0       		.byte	-64
 4912 01e1 4B       		.byte	75
 4913 01e2 05       		.byte	5
 4914 01e3 35       		.byte	53
 4915 01e4 7C       		.byte	124
 4916 01e5 5D       		.byte	93
 4917 01e6 1C       		.byte	28
 4918 01e7 0E       		.byte	14
 4919 01e8 EA       		.byte	-22
 4920 01e9 C4       		.byte	-60
 4921 01ea C6       		.byte	-58
 4922 01eb 6F       		.byte	111
 4923 01ec 9F       		.byte	-97
 4924 01ed F7       		.byte	-9
 4925 01ee F2       		.byte	-14
 4926 01ef E6       		.byte	-26
 4927 01f0 CD       		.byte	-51
 4928 01f1 C8       		.byte	-56
 4929 01f2 0D       		.byte	13
 4930 01f3 6F       		.byte	111
 4931 01f4 DD       		.byte	-35
 4932 01f5 F1       		.byte	-15
 4933 01f6 8C       		.byte	-116
 4934 01f7 AB       		.byte	-85
 4935 01f8 34       		.byte	52
 4936 01f9 C2       		.byte	-62
 4937 01fa 59       		.byte	89
 4938 01fb 09       		.byte	9
 4939 01fc C9       		.byte	-55
 4940 01fd 9A       		.byte	-102
 4941 01fe 41       		.byte	65
 4942 01ff 74       		.byte	116
 4943 0200 67       		.byte	103
 4944 0201 CE       		.byte	-50
 4945 0202 7F       		.byte	127
 4946 0203 7F       		.byte	127
 4947 0204 81       		.byte	-127
 4948 0205 17       		.byte	23
 4949 0206 36       		.byte	54
 4950 0207 21       		.byte	33
 4951 0208 96       		.byte	-106
 4952 0209 1A       		.byte	26
 4953 020a 2B       		.byte	43
 4954 020b 70       		.byte	112
 4955 020c 17       		.byte	23
 4956 020d 1D       		.byte	29
 4957 020e 3D       		.byte	61
 4958 020f 7A       		.byte	122
 4959 0210 2E       		.byte	46
 4960 0211 1E       		.byte	30
 4961 0212 8A       		.byte	-118
 4962 0213 1D       		.byte	29
 4963 0214 D5       		.byte	-43
 4964 0215 9B       		.byte	-101
 4965 0216 88       		.byte	-120
 4966 0217 B1       		.byte	-79
ARM GAS  C:\Users\Phuong\AppData\Local\Temp\ccyLHZOj.s 			page 129


 4967 0218 C8       		.byte	-56
 4968 0219 E6       		.byte	-26
 4969 021a 0F       		.byte	15
 4970 021b ED       		.byte	-19
 4971 021c 1E       		.byte	30
 4972 021d FA       		.byte	-6
 4973 021e C4       		.byte	-60
 4974 021f C9       		.byte	-55
 4975 0220 C0       		.byte	-64
 4976 0221 5F       		.byte	95
 4977 0222 9F       		.byte	-97
 4978 0223 9C       		.byte	-100
 4979 0224 A9       		.byte	-87
 4980 0225 83       		.byte	-125
 4981 0226 4F       		.byte	79
 4982 0227 A0       		.byte	-96
 4983 0228 42       		.byte	66
 4984 0229 AE       		.byte	-82
 4985 022a 8F       		.byte	-113
 4986 022b BA       		.byte	-70
 4987 022c 58       		.byte	88
 4988 022d 4B       		.byte	75
 4989 022e 09       		.byte	9
 4990 022f FF       		.byte	-1
 4991 0230 DC       		.byte	-36
 4992 0231 7E       		.byte	126
 4993 0232 84       		.byte	-124
 4994 0233 BF       		.byte	-65
 4995 0234 DA       		.byte	-38
 4996 0235 79       		.byte	121
 4997 0236 16       		.byte	22
 4998 0237 4B       		.byte	75
 4999 0238 7E       		.byte	126
 5000 0239 CD       		.byte	-51
 5001 023a 84       		.byte	-124
 5002 023b 86       		.byte	-122
 5003 023c 98       		.byte	-104
 5004 023d 5D       		.byte	93
 5005 023e 38       		.byte	56
 5006 023f 60       		.byte	96
 5007 0240 39       		.byte	57
 5008 0241 FF       		.byte	-1
 5009 0242 ED       		.byte	-19
 5010 0243 14       		.byte	20
 5011 0244 3B       		.byte	59
 5012 0245 28       		.byte	40
 5013 0246 B1       		.byte	-79
 5014 0247 C8       		.byte	-56
 5015 0248 32       		.byte	50
 5016 0249 11       		.byte	17
 5017 024a 3C       		.byte	60
 5018 024b 63       		.byte	99
 5019 024c 31       		.byte	49
 5020 024d E5       		.byte	-27
 5021 024e 40       		.byte	64
 5022 024f 7B       		.byte	123
 5023 0250 DF       		.byte	-33
ARM GAS  C:\Users\Phuong\AppData\Local\Temp\ccyLHZOj.s 			page 130


 5024 0251 10       		.byte	16
 5025 0252 13       		.byte	19
 5026 0253 24       		.byte	36
 5027 0254 15       		.byte	21
 5028 0255 E5       		.byte	-27
 5029 0256 4B       		.byte	75
 5030 0257 92       		.byte	-110
 5031 0258 A1       		.byte	-95
 5032 0259 3E       		.byte	62
 5033 025a D0       		.byte	-48
 5034 025b A8       		.byte	-88
 5035 025c 26       		.byte	38
 5036 025d 7A       		.byte	122
 5037 025e E2       		.byte	-30
 5038 025f F9       		.byte	-7
 5039 0260 75       		.byte	117
 5040 0261 A3       		.byte	-93
 5041 0262 85       		.byte	-123
 5042 0263 74       		.byte	116
 5043 0264 1A       		.byte	26
 5044 0265 B9       		.byte	-71
 5045 0266 CE       		.byte	-50
 5046 0267 F8       		.byte	-8
 5047 0268 20       		.byte	32
 5048 0269 31       		.byte	49
 5049 026a 62       		.byte	98
 5050 026b 3D       		.byte	61
 5051 026c 55       		.byte	85
 5052 026d B1       		.byte	-79
 5053 026e E4       		.byte	-28
 5054 026f 71       		.byte	113
 5055              		.type	aes_test_ofb_iv, %object
 5056              		.size	aes_test_ofb_iv, 16
 5057              	aes_test_ofb_iv:
 5058 0270 00       		.byte	0
 5059 0271 01       		.byte	1
 5060 0272 02       		.byte	2
 5061 0273 03       		.byte	3
 5062 0274 04       		.byte	4
 5063 0275 05       		.byte	5
 5064 0276 06       		.byte	6
 5065 0277 07       		.byte	7
 5066 0278 08       		.byte	8
 5067 0279 09       		.byte	9
 5068 027a 0A       		.byte	10
 5069 027b 0B       		.byte	11
 5070 027c 0C       		.byte	12
 5071 027d 0D       		.byte	13
 5072 027e 0E       		.byte	14
 5073 027f 0F       		.byte	15
 5074              		.type	aes_test_ofb_key, %object
 5075              		.size	aes_test_ofb_key, 96
 5076              	aes_test_ofb_key:
 5077 0280 2B       		.byte	43
 5078 0281 7E       		.byte	126
 5079 0282 15       		.byte	21
 5080 0283 16       		.byte	22
ARM GAS  C:\Users\Phuong\AppData\Local\Temp\ccyLHZOj.s 			page 131


 5081 0284 28       		.byte	40
 5082 0285 AE       		.byte	-82
 5083 0286 D2       		.byte	-46
 5084 0287 A6       		.byte	-90
 5085 0288 AB       		.byte	-85
 5086 0289 F7       		.byte	-9
 5087 028a 15       		.byte	21
 5088 028b 88       		.byte	-120
 5089 028c 09       		.byte	9
 5090 028d CF       		.byte	-49
 5091 028e 4F       		.byte	79
 5092 028f 3C       		.byte	60
 5093 0290 00000000 		.space	16
 5093      00000000 
 5093      00000000 
 5093      00000000 
 5094 02a0 8E       		.byte	-114
 5095 02a1 73       		.byte	115
 5096 02a2 B0       		.byte	-80
 5097 02a3 F7       		.byte	-9
 5098 02a4 DA       		.byte	-38
 5099 02a5 0E       		.byte	14
 5100 02a6 64       		.byte	100
 5101 02a7 52       		.byte	82
 5102 02a8 C8       		.byte	-56
 5103 02a9 10       		.byte	16
 5104 02aa F3       		.byte	-13
 5105 02ab 2B       		.byte	43
 5106 02ac 80       		.byte	-128
 5107 02ad 90       		.byte	-112
 5108 02ae 79       		.byte	121
 5109 02af E5       		.byte	-27
 5110 02b0 62       		.byte	98
 5111 02b1 F8       		.byte	-8
 5112 02b2 EA       		.byte	-22
 5113 02b3 D2       		.byte	-46
 5114 02b4 52       		.byte	82
 5115 02b5 2C       		.byte	44
 5116 02b6 6B       		.byte	107
 5117 02b7 7B       		.byte	123
 5118 02b8 00000000 		.space	8
 5118      00000000 
 5119 02c0 60       		.byte	96
 5120 02c1 3D       		.byte	61
 5121 02c2 EB       		.byte	-21
 5122 02c3 10       		.byte	16
 5123 02c4 15       		.byte	21
 5124 02c5 CA       		.byte	-54
 5125 02c6 71       		.byte	113
 5126 02c7 BE       		.byte	-66
 5127 02c8 2B       		.byte	43
 5128 02c9 73       		.byte	115
 5129 02ca AE       		.byte	-82
 5130 02cb F0       		.byte	-16
 5131 02cc 85       		.byte	-123
 5132 02cd 7D       		.byte	125
 5133 02ce 77       		.byte	119
ARM GAS  C:\Users\Phuong\AppData\Local\Temp\ccyLHZOj.s 			page 132


 5134 02cf 81       		.byte	-127
 5135 02d0 1F       		.byte	31
 5136 02d1 35       		.byte	53
 5137 02d2 2C       		.byte	44
 5138 02d3 07       		.byte	7
 5139 02d4 3B       		.byte	59
 5140 02d5 61       		.byte	97
 5141 02d6 08       		.byte	8
 5142 02d7 D7       		.byte	-41
 5143 02d8 2D       		.byte	45
 5144 02d9 98       		.byte	-104
 5145 02da 10       		.byte	16
 5146 02db A3       		.byte	-93
 5147 02dc 09       		.byte	9
 5148 02dd 14       		.byte	20
 5149 02de DF       		.byte	-33
 5150 02df F4       		.byte	-12
 5151              		.type	aes_test_ofb_ct, %object
 5152              		.size	aes_test_ofb_ct, 192
 5153              	aes_test_ofb_ct:
 5154 02e0 3B       		.byte	59
 5155 02e1 3F       		.byte	63
 5156 02e2 D9       		.byte	-39
 5157 02e3 2E       		.byte	46
 5158 02e4 B7       		.byte	-73
 5159 02e5 2D       		.byte	45
 5160 02e6 AD       		.byte	-83
 5161 02e7 20       		.byte	32
 5162 02e8 33       		.byte	51
 5163 02e9 34       		.byte	52
 5164 02ea 49       		.byte	73
 5165 02eb F8       		.byte	-8
 5166 02ec E8       		.byte	-24
 5167 02ed 3C       		.byte	60
 5168 02ee FB       		.byte	-5
 5169 02ef 4A       		.byte	74
 5170 02f0 77       		.byte	119
 5171 02f1 89       		.byte	-119
 5172 02f2 50       		.byte	80
 5173 02f3 8D       		.byte	-115
 5174 02f4 16       		.byte	22
 5175 02f5 91       		.byte	-111
 5176 02f6 8F       		.byte	-113
 5177 02f7 03       		.byte	3
 5178 02f8 F5       		.byte	-11
 5179 02f9 3C       		.byte	60
 5180 02fa 52       		.byte	82
 5181 02fb DA       		.byte	-38
 5182 02fc C5       		.byte	-59
 5183 02fd 4E       		.byte	78
 5184 02fe D8       		.byte	-40
 5185 02ff 25       		.byte	37
 5186 0300 97       		.byte	-105
 5187 0301 40       		.byte	64
 5188 0302 05       		.byte	5
 5189 0303 1E       		.byte	30
 5190 0304 9C       		.byte	-100
ARM GAS  C:\Users\Phuong\AppData\Local\Temp\ccyLHZOj.s 			page 133


 5191 0305 5F       		.byte	95
 5192 0306 EC       		.byte	-20
 5193 0307 F6       		.byte	-10
 5194 0308 43       		.byte	67
 5195 0309 44       		.byte	68
 5196 030a F7       		.byte	-9
 5197 030b A8       		.byte	-88
 5198 030c 22       		.byte	34
 5199 030d 60       		.byte	96
 5200 030e ED       		.byte	-19
 5201 030f CC       		.byte	-52
 5202 0310 30       		.byte	48
 5203 0311 4C       		.byte	76
 5204 0312 65       		.byte	101
 5205 0313 28       		.byte	40
 5206 0314 F6       		.byte	-10
 5207 0315 59       		.byte	89
 5208 0316 C7       		.byte	-57
 5209 0317 78       		.byte	120
 5210 0318 66       		.byte	102
 5211 0319 A5       		.byte	-91
 5212 031a 10       		.byte	16
 5213 031b D9       		.byte	-39
 5214 031c C1       		.byte	-63
 5215 031d D6       		.byte	-42
 5216 031e AE       		.byte	-82
 5217 031f 5E       		.byte	94
 5218 0320 CD       		.byte	-51
 5219 0321 C8       		.byte	-56
 5220 0322 0D       		.byte	13
 5221 0323 6F       		.byte	111
 5222 0324 DD       		.byte	-35
 5223 0325 F1       		.byte	-15
 5224 0326 8C       		.byte	-116
 5225 0327 AB       		.byte	-85
 5226 0328 34       		.byte	52
 5227 0329 C2       		.byte	-62
 5228 032a 59       		.byte	89
 5229 032b 09       		.byte	9
 5230 032c C9       		.byte	-55
 5231 032d 9A       		.byte	-102
 5232 032e 41       		.byte	65
 5233 032f 74       		.byte	116
 5234 0330 FC       		.byte	-4
 5235 0331 C2       		.byte	-62
 5236 0332 8B       		.byte	-117
 5237 0333 8D       		.byte	-115
 5238 0334 4C       		.byte	76
 5239 0335 63       		.byte	99
 5240 0336 83       		.byte	-125
 5241 0337 7C       		.byte	124
 5242 0338 09       		.byte	9
 5243 0339 E8       		.byte	-24
 5244 033a 17       		.byte	23
 5245 033b 00       		.byte	0
 5246 033c C1       		.byte	-63
 5247 033d 10       		.byte	16
ARM GAS  C:\Users\Phuong\AppData\Local\Temp\ccyLHZOj.s 			page 134


 5248 033e 04       		.byte	4
 5249 033f 01       		.byte	1
 5250 0340 8D       		.byte	-115
 5251 0341 9A       		.byte	-102
 5252 0342 9A       		.byte	-102
 5253 0343 EA       		.byte	-22
 5254 0344 C0       		.byte	-64
 5255 0345 F6       		.byte	-10
 5256 0346 59       		.byte	89
 5257 0347 6F       		.byte	111
 5258 0348 55       		.byte	85
 5259 0349 9C       		.byte	-100
 5260 034a 6D       		.byte	109
 5261 034b 4D       		.byte	77
 5262 034c AF       		.byte	-81
 5263 034d 59       		.byte	89
 5264 034e A5       		.byte	-91
 5265 034f F2       		.byte	-14
 5266 0350 6D       		.byte	109
 5267 0351 9F       		.byte	-97
 5268 0352 20       		.byte	32
 5269 0353 08       		.byte	8
 5270 0354 57       		.byte	87
 5271 0355 CA       		.byte	-54
 5272 0356 6C       		.byte	108
 5273 0357 3E       		.byte	62
 5274 0358 9C       		.byte	-100
 5275 0359 AC       		.byte	-84
 5276 035a 52       		.byte	82
 5277 035b 4B       		.byte	75
 5278 035c D9       		.byte	-39
 5279 035d AC       		.byte	-84
 5280 035e C9       		.byte	-55
 5281 035f 2A       		.byte	42
 5282 0360 DC       		.byte	-36
 5283 0361 7E       		.byte	126
 5284 0362 84       		.byte	-124
 5285 0363 BF       		.byte	-65
 5286 0364 DA       		.byte	-38
 5287 0365 79       		.byte	121
 5288 0366 16       		.byte	22
 5289 0367 4B       		.byte	75
 5290 0368 7E       		.byte	126
 5291 0369 CD       		.byte	-51
 5292 036a 84       		.byte	-124
 5293 036b 86       		.byte	-122
 5294 036c 98       		.byte	-104
 5295 036d 5D       		.byte	93
 5296 036e 38       		.byte	56
 5297 036f 60       		.byte	96
 5298 0370 4F       		.byte	79
 5299 0371 EB       		.byte	-21
 5300 0372 DC       		.byte	-36
 5301 0373 67       		.byte	103
 5302 0374 40       		.byte	64
 5303 0375 D2       		.byte	-46
 5304 0376 0B       		.byte	11
ARM GAS  C:\Users\Phuong\AppData\Local\Temp\ccyLHZOj.s 			page 135


 5305 0377 3A       		.byte	58
 5306 0378 C8       		.byte	-56
 5307 0379 8F       		.byte	-113
 5308 037a 6A       		.byte	106
 5309 037b D8       		.byte	-40
 5310 037c 2A       		.byte	42
 5311 037d 4F       		.byte	79
 5312 037e B0       		.byte	-80
 5313 037f 8D       		.byte	-115
 5314 0380 71       		.byte	113
 5315 0381 AB       		.byte	-85
 5316 0382 47       		.byte	71
 5317 0383 A0       		.byte	-96
 5318 0384 86       		.byte	-122
 5319 0385 E8       		.byte	-24
 5320 0386 6E       		.byte	110
 5321 0387 ED       		.byte	-19
 5322 0388 F3       		.byte	-13
 5323 0389 9D       		.byte	-99
 5324 038a 1C       		.byte	28
 5325 038b 5B       		.byte	91
 5326 038c BA       		.byte	-70
 5327 038d 97       		.byte	-105
 5328 038e C4       		.byte	-60
 5329 038f 08       		.byte	8
 5330 0390 01       		.byte	1
 5331 0391 26       		.byte	38
 5332 0392 14       		.byte	20
 5333 0393 1D       		.byte	29
 5334 0394 67       		.byte	103
 5335 0395 F3       		.byte	-13
 5336 0396 7B       		.byte	123
 5337 0397 E8       		.byte	-24
 5338 0398 53       		.byte	83
 5339 0399 8F       		.byte	-113
 5340 039a 5A       		.byte	90
 5341 039b 8B       		.byte	-117
 5342 039c E7       		.byte	-25
 5343 039d 40       		.byte	64
 5344 039e E4       		.byte	-28
 5345 039f 84       		.byte	-124
 5346              		.type	aes_test_ctr_nonce_counter, %object
 5347              		.size	aes_test_ctr_nonce_counter, 48
 5348              	aes_test_ctr_nonce_counter:
 5349 03a0 00       		.byte	0
 5350 03a1 00       		.byte	0
 5351 03a2 00       		.byte	0
 5352 03a3 30       		.byte	48
 5353 03a4 00       		.byte	0
 5354 03a5 00       		.byte	0
 5355 03a6 00       		.byte	0
 5356 03a7 00       		.byte	0
 5357 03a8 00       		.byte	0
 5358 03a9 00       		.byte	0
 5359 03aa 00       		.byte	0
 5360 03ab 00       		.byte	0
 5361 03ac 00       		.byte	0
ARM GAS  C:\Users\Phuong\AppData\Local\Temp\ccyLHZOj.s 			page 136


 5362 03ad 00       		.byte	0
 5363 03ae 00       		.byte	0
 5364 03af 01       		.byte	1
 5365 03b0 00       		.byte	0
 5366 03b1 6C       		.byte	108
 5367 03b2 B6       		.byte	-74
 5368 03b3 DB       		.byte	-37
 5369 03b4 C0       		.byte	-64
 5370 03b5 54       		.byte	84
 5371 03b6 3B       		.byte	59
 5372 03b7 59       		.byte	89
 5373 03b8 DA       		.byte	-38
 5374 03b9 48       		.byte	72
 5375 03ba D9       		.byte	-39
 5376 03bb 0B       		.byte	11
 5377 03bc 00       		.byte	0
 5378 03bd 00       		.byte	0
 5379 03be 00       		.byte	0
 5380 03bf 01       		.byte	1
 5381 03c0 00       		.byte	0
 5382 03c1 E0       		.byte	-32
 5383 03c2 01       		.byte	1
 5384 03c3 7B       		.byte	123
 5385 03c4 27       		.byte	39
 5386 03c5 77       		.byte	119
 5387 03c6 7F       		.byte	127
 5388 03c7 3F       		.byte	63
 5389 03c8 4A       		.byte	74
 5390 03c9 17       		.byte	23
 5391 03ca 86       		.byte	-122
 5392 03cb F0       		.byte	-16
 5393 03cc 00       		.byte	0
 5394 03cd 00       		.byte	0
 5395 03ce 00       		.byte	0
 5396 03cf 01       		.byte	1
 5397              		.type	aes_test_ctr_key, %object
 5398              		.size	aes_test_ctr_key, 48
 5399              	aes_test_ctr_key:
 5400 03d0 AE       		.byte	-82
 5401 03d1 68       		.byte	104
 5402 03d2 52       		.byte	82
 5403 03d3 F8       		.byte	-8
 5404 03d4 12       		.byte	18
 5405 03d5 10       		.byte	16
 5406 03d6 67       		.byte	103
 5407 03d7 CC       		.byte	-52
 5408 03d8 4B       		.byte	75
 5409 03d9 F7       		.byte	-9
 5410 03da A5       		.byte	-91
 5411 03db 76       		.byte	118
 5412 03dc 55       		.byte	85
 5413 03dd 77       		.byte	119
 5414 03de F3       		.byte	-13
 5415 03df 9E       		.byte	-98
 5416 03e0 7E       		.byte	126
 5417 03e1 24       		.byte	36
 5418 03e2 06       		.byte	6
ARM GAS  C:\Users\Phuong\AppData\Local\Temp\ccyLHZOj.s 			page 137


 5419 03e3 78       		.byte	120
 5420 03e4 17       		.byte	23
 5421 03e5 FA       		.byte	-6
 5422 03e6 E0       		.byte	-32
 5423 03e7 D7       		.byte	-41
 5424 03e8 43       		.byte	67
 5425 03e9 D6       		.byte	-42
 5426 03ea CE       		.byte	-50
 5427 03eb 1F       		.byte	31
 5428 03ec 32       		.byte	50
 5429 03ed 53       		.byte	83
 5430 03ee 91       		.byte	-111
 5431 03ef 63       		.byte	99
 5432 03f0 76       		.byte	118
 5433 03f1 91       		.byte	-111
 5434 03f2 BE       		.byte	-66
 5435 03f3 03       		.byte	3
 5436 03f4 5E       		.byte	94
 5437 03f5 50       		.byte	80
 5438 03f6 20       		.byte	32
 5439 03f7 A8       		.byte	-88
 5440 03f8 AC       		.byte	-84
 5441 03f9 6E       		.byte	110
 5442 03fa 61       		.byte	97
 5443 03fb 85       		.byte	-123
 5444 03fc 29       		.byte	41
 5445 03fd F9       		.byte	-7
 5446 03fe A0       		.byte	-96
 5447 03ff DC       		.byte	-36
 5448              		.type	aes_test_ctr_len, %object
 5449              		.size	aes_test_ctr_len, 12
 5450              	aes_test_ctr_len:
 5451 0400 10000000 		.word	16
 5452 0404 20000000 		.word	32
 5453 0408 24000000 		.word	36
 5454              		.type	aes_test_ctr_ct, %object
 5455              		.size	aes_test_ctr_ct, 144
 5456              	aes_test_ctr_ct:
 5457 040c E4       		.byte	-28
 5458 040d 09       		.byte	9
 5459 040e 5D       		.byte	93
 5460 040f 4F       		.byte	79
 5461 0410 B7       		.byte	-73
 5462 0411 A7       		.byte	-89
 5463 0412 B3       		.byte	-77
 5464 0413 79       		.byte	121
 5465 0414 2D       		.byte	45
 5466 0415 61       		.byte	97
 5467 0416 75       		.byte	117
 5468 0417 A3       		.byte	-93
 5469 0418 26       		.byte	38
 5470 0419 13       		.byte	19
 5471 041a 11       		.byte	17
 5472 041b B8       		.byte	-72
 5473 041c 00000000 		.space	32
 5473      00000000 
 5473      00000000 
ARM GAS  C:\Users\Phuong\AppData\Local\Temp\ccyLHZOj.s 			page 138


 5473      00000000 
 5473      00000000 
 5474 043c 51       		.byte	81
 5475 043d 04       		.byte	4
 5476 043e A1       		.byte	-95
 5477 043f 06       		.byte	6
 5478 0440 16       		.byte	22
 5479 0441 8A       		.byte	-118
 5480 0442 72       		.byte	114
 5481 0443 D9       		.byte	-39
 5482 0444 79       		.byte	121
 5483 0445 0D       		.byte	13
 5484 0446 41       		.byte	65
 5485 0447 EE       		.byte	-18
 5486 0448 8E       		.byte	-114
 5487 0449 DA       		.byte	-38
 5488 044a D3       		.byte	-45
 5489 044b 88       		.byte	-120
 5490 044c EB       		.byte	-21
 5491 044d 2E       		.byte	46
 5492 044e 1E       		.byte	30
 5493 044f FC       		.byte	-4
 5494 0450 46       		.byte	70
 5495 0451 DA       		.byte	-38
 5496 0452 57       		.byte	87
 5497 0453 C8       		.byte	-56
 5498 0454 FC       		.byte	-4
 5499 0455 E6       		.byte	-26
 5500 0456 30       		.byte	48
 5501 0457 DF       		.byte	-33
 5502 0458 91       		.byte	-111
 5503 0459 41       		.byte	65
 5504 045a BE       		.byte	-66
 5505 045b 28       		.byte	40
 5506 045c 00000000 		.space	16
 5506      00000000 
 5506      00000000 
 5506      00000000 
 5507 046c C1       		.byte	-63
 5508 046d CF       		.byte	-49
 5509 046e 48       		.byte	72
 5510 046f A8       		.byte	-88
 5511 0470 9F       		.byte	-97
 5512 0471 2F       		.byte	47
 5513 0472 FD       		.byte	-3
 5514 0473 D9       		.byte	-39
 5515 0474 CF       		.byte	-49
 5516 0475 46       		.byte	70
 5517 0476 52       		.byte	82
 5518 0477 E9       		.byte	-23
 5519 0478 EF       		.byte	-17
 5520 0479 DB       		.byte	-37
 5521 047a 72       		.byte	114
 5522 047b D7       		.byte	-41
 5523 047c 45       		.byte	69
 5524 047d 40       		.byte	64
 5525 047e A4       		.byte	-92
ARM GAS  C:\Users\Phuong\AppData\Local\Temp\ccyLHZOj.s 			page 139


 5526 047f 2B       		.byte	43
 5527 0480 DE       		.byte	-34
 5528 0481 6D       		.byte	109
 5529 0482 78       		.byte	120
 5530 0483 36       		.byte	54
 5531 0484 D5       		.byte	-43
 5532 0485 9A       		.byte	-102
 5533 0486 5C       		.byte	92
 5534 0487 EA       		.byte	-22
 5535 0488 AE       		.byte	-82
 5536 0489 F3       		.byte	-13
 5537 048a 10       		.byte	16
 5538 048b 53       		.byte	83
 5539 048c 25       		.byte	37
 5540 048d B2       		.byte	-78
 5541 048e 07       		.byte	7
 5542 048f 2F       		.byte	47
 5543 0490 00000000 		.space	12
 5543      00000000 
 5543      00000000 
 5544              		.type	aes_test_ctr_pt, %object
 5545              		.size	aes_test_ctr_pt, 144
 5546              	aes_test_ctr_pt:
 5547 049c 53       		.byte	83
 5548 049d 69       		.byte	105
 5549 049e 6E       		.byte	110
 5550 049f 67       		.byte	103
 5551 04a0 6C       		.byte	108
 5552 04a1 65       		.byte	101
 5553 04a2 20       		.byte	32
 5554 04a3 62       		.byte	98
 5555 04a4 6C       		.byte	108
 5556 04a5 6F       		.byte	111
 5557 04a6 63       		.byte	99
 5558 04a7 6B       		.byte	107
 5559 04a8 20       		.byte	32
 5560 04a9 6D       		.byte	109
 5561 04aa 73       		.byte	115
 5562 04ab 67       		.byte	103
 5563 04ac 00000000 		.space	32
 5563      00000000 
 5563      00000000 
 5563      00000000 
 5563      00000000 
 5564 04cc 00       		.byte	0
 5565 04cd 01       		.byte	1
 5566 04ce 02       		.byte	2
 5567 04cf 03       		.byte	3
 5568 04d0 04       		.byte	4
 5569 04d1 05       		.byte	5
 5570 04d2 06       		.byte	6
 5571 04d3 07       		.byte	7
 5572 04d4 08       		.byte	8
 5573 04d5 09       		.byte	9
 5574 04d6 0A       		.byte	10
 5575 04d7 0B       		.byte	11
 5576 04d8 0C       		.byte	12
ARM GAS  C:\Users\Phuong\AppData\Local\Temp\ccyLHZOj.s 			page 140


 5577 04d9 0D       		.byte	13
 5578 04da 0E       		.byte	14
 5579 04db 0F       		.byte	15
 5580 04dc 10       		.byte	16
 5581 04dd 11       		.byte	17
 5582 04de 12       		.byte	18
 5583 04df 13       		.byte	19
 5584 04e0 14       		.byte	20
 5585 04e1 15       		.byte	21
 5586 04e2 16       		.byte	22
 5587 04e3 17       		.byte	23
 5588 04e4 18       		.byte	24
 5589 04e5 19       		.byte	25
 5590 04e6 1A       		.byte	26
 5591 04e7 1B       		.byte	27
 5592 04e8 1C       		.byte	28
 5593 04e9 1D       		.byte	29
 5594 04ea 1E       		.byte	30
 5595 04eb 1F       		.byte	31
 5596 04ec 00000000 		.space	16
 5596      00000000 
 5596      00000000 
 5596      00000000 
 5597 04fc 00       		.byte	0
 5598 04fd 01       		.byte	1
 5599 04fe 02       		.byte	2
 5600 04ff 03       		.byte	3
 5601 0500 04       		.byte	4
 5602 0501 05       		.byte	5
 5603 0502 06       		.byte	6
 5604 0503 07       		.byte	7
 5605 0504 08       		.byte	8
 5606 0505 09       		.byte	9
 5607 0506 0A       		.byte	10
 5608 0507 0B       		.byte	11
 5609 0508 0C       		.byte	12
 5610 0509 0D       		.byte	13
 5611 050a 0E       		.byte	14
 5612 050b 0F       		.byte	15
 5613 050c 10       		.byte	16
 5614 050d 11       		.byte	17
 5615 050e 12       		.byte	18
 5616 050f 13       		.byte	19
 5617 0510 14       		.byte	20
 5618 0511 15       		.byte	21
 5619 0512 16       		.byte	22
 5620 0513 17       		.byte	23
 5621 0514 18       		.byte	24
 5622 0515 19       		.byte	25
 5623 0516 1A       		.byte	26
 5624 0517 1B       		.byte	27
 5625 0518 1C       		.byte	28
 5626 0519 1D       		.byte	29
 5627 051a 1E       		.byte	30
 5628 051b 1F       		.byte	31
 5629 051c 20       		.byte	32
 5630 051d 21       		.byte	33
ARM GAS  C:\Users\Phuong\AppData\Local\Temp\ccyLHZOj.s 			page 141


 5631 051e 22       		.byte	34
 5632 051f 23       		.byte	35
 5633 0520 00000000 		.space	12
 5633      00000000 
 5633      00000000 
 5634              		.section	.rodata.str1.4,"aMS",%progbits,1
 5635              		.align	2
 5636              	.LC27:
 5637 0000 64656300 		.ascii	"dec\000"
 5638              	.LC29:
 5639 0004 656E6300 		.ascii	"enc\000"
 5640              	.LC32:
 5641 0008 20204145 		.ascii	"  AES-ECB-%3d (%s): \000"
 5641      532D4543 
 5641      422D2533 
 5641      64202825 
 5641      73293A20 
 5642 001d 000000   		.space	3
 5643              	.LC35:
 5644 0020 736B6970 		.ascii	"skipped\000"
 5644      70656400 
 5645              	.LC37:
 5646 0028 70617373 		.ascii	"passed\000"
 5646      656400
 5647 002f 00       		.space	1
 5648              	.LC39:
 5649 0030 20204145 		.ascii	"  AES-CBC-%3d (%s): \000"
 5649      532D4342 
 5649      432D2533 
 5649      64202825 
 5649      73293A20 
 5650 0045 000000   		.space	3
 5651              	.LC42:
 5652 0048 20204145 		.ascii	"  AES-CFB128-%3d (%s): \000"
 5652      532D4346 
 5652      42313238 
 5652      2D253364 
 5652      20282573 
 5653              	.LC45:
 5654 0060 20204145 		.ascii	"  AES-OFB-%3d (%s): \000"
 5654      532D4F46 
 5654      422D2533 
 5654      64202825 
 5654      73293A20 
 5655 0075 000000   		.space	3
 5656              	.LC49:
 5657 0078 20204145 		.ascii	"  AES-CTR-128 (%s): \000"
 5657      532D4354 
 5657      522D3132 
 5657      38202825 
 5657      73293A20 
 5658 008d 000000   		.space	3
 5659              	.LC54:
 5660 0090 6661696C 		.ascii	"failed\000"
 5660      656400
 5661              		.bss
 5662              		.align	2
ARM GAS  C:\Users\Phuong\AppData\Local\Temp\ccyLHZOj.s 			page 142


 5663              		.set	.LANCHOR0,. + 0
 5664              		.set	.LANCHOR1,. + 256
 5665              		.set	.LANCHOR2,. + 512
 5666              		.set	.LANCHOR3,. + 1536
 5667              		.set	.LANCHOR4,. + 2560
 5668              		.set	.LANCHOR5,. + 3584
 5669              		.set	.LANCHOR6,. + 4608
 5670              		.set	.LANCHOR7,. + 5632
 5671              		.set	.LANCHOR8,. + 6656
 5672              		.set	.LANCHOR9,. + 7680
 5673              		.set	.LANCHOR10,. + 8704
 5674              		.type	RCON, %object
 5675              		.size	RCON, 40
 5676              	RCON:
 5677 0000 00000000 		.space	40
 5677      00000000 
 5677      00000000 
 5677      00000000 
 5677      00000000 
 5678              		.type	FSb, %object
 5679              		.size	FSb, 256
 5680              	FSb:
 5681 0028 00000000 		.space	256
 5681      00000000 
 5681      00000000 
 5681      00000000 
 5681      00000000 
 5682              		.type	RSb, %object
 5683              		.size	RSb, 256
 5684              	RSb:
 5685 0128 00000000 		.space	256
 5685      00000000 
 5685      00000000 
 5685      00000000 
 5685      00000000 
 5686              		.type	FT0, %object
 5687              		.size	FT0, 1024
 5688              	FT0:
 5689 0228 00000000 		.space	1024
 5689      00000000 
 5689      00000000 
 5689      00000000 
 5689      00000000 
 5690              		.type	FT1, %object
 5691              		.size	FT1, 1024
 5692              	FT1:
 5693 0628 00000000 		.space	1024
 5693      00000000 
 5693      00000000 
 5693      00000000 
 5693      00000000 
 5694              		.type	FT2, %object
 5695              		.size	FT2, 1024
 5696              	FT2:
 5697 0a28 00000000 		.space	1024
 5697      00000000 
 5697      00000000 
ARM GAS  C:\Users\Phuong\AppData\Local\Temp\ccyLHZOj.s 			page 143


 5697      00000000 
 5697      00000000 
 5698              		.type	FT3, %object
 5699              		.size	FT3, 1024
 5700              	FT3:
 5701 0e28 00000000 		.space	1024
 5701      00000000 
 5701      00000000 
 5701      00000000 
 5701      00000000 
 5702              		.type	RT0, %object
 5703              		.size	RT0, 1024
 5704              	RT0:
 5705 1228 00000000 		.space	1024
 5705      00000000 
 5705      00000000 
 5705      00000000 
 5705      00000000 
 5706              		.type	RT1, %object
 5707              		.size	RT1, 1024
 5708              	RT1:
 5709 1628 00000000 		.space	1024
 5709      00000000 
 5709      00000000 
 5709      00000000 
 5709      00000000 
 5710              		.type	RT2, %object
 5711              		.size	RT2, 1024
 5712              	RT2:
 5713 1a28 00000000 		.space	1024
 5713      00000000 
 5713      00000000 
 5713      00000000 
 5713      00000000 
 5714              		.type	RT3, %object
 5715              		.size	RT3, 1024
 5716              	RT3:
 5717 1e28 00000000 		.space	1024
 5717      00000000 
 5717      00000000 
 5717      00000000 
 5717      00000000 
 5718              		.type	aes_init_done, %object
 5719              		.size	aes_init_done, 4
 5720              	aes_init_done:
 5721 2228 00000000 		.space	4
 5722              		.text
 5723              	.Letext0:
 5724              		.file 2 "c:\\program files (x86)\\cypress\\psoc creator\\4.2\\psoc creator\\import\\gnu\\arm\\5.4.
 5725              		.file 3 "c:\\program files (x86)\\cypress\\psoc creator\\4.2\\psoc creator\\import\\gnu\\arm\\5.4.
 5726              		.file 4 "c:\\program files (x86)\\cypress\\psoc creator\\4.2\\psoc creator\\import\\gnu\\arm\\5.4.
 5727              		.file 5 ".\\Source\\mbedtls_open\\include/mbedtls/aes.h"
 5728              		.file 6 ".\\Source\\mbedtls_open\\include/mbedtls/platform_util.h"
 5729              		.file 7 "c:\\program files (x86)\\cypress\\psoc creator\\4.2\\psoc creator\\import\\gnu\\arm\\5.4.
 5730              		.file 8 "c:\\program files (x86)\\cypress\\psoc creator\\4.2\\psoc creator\\import\\gnu\\arm\\5.4.
 5731              		.file 9 "<built-in>"
 5732              		.section	.debug_info,"",%progbits
ARM GAS  C:\Users\Phuong\AppData\Local\Temp\ccyLHZOj.s 			page 144


 5733              	.Ldebug_info0:
 5734 0000 16170000 		.4byte	0x1716
 5735 0004 0400     		.2byte	0x4
 5736 0006 00000000 		.4byte	.Ldebug_abbrev0
 5737 000a 04       		.byte	0x4
 5738 000b 01       		.uleb128 0x1
 5739 000c 8C000000 		.4byte	.LASF73
 5740 0010 0C       		.byte	0xc
 5741 0011 DA030000 		.4byte	.LASF74
 5742 0015 AA020000 		.4byte	.LASF75
 5743 0019 00000000 		.4byte	.Ldebug_ranges0+0
 5744 001d 00000000 		.4byte	0
 5745 0021 00000000 		.4byte	.Ldebug_line0
 5746 0025 02       		.uleb128 0x2
 5747 0026 01       		.byte	0x1
 5748 0027 06       		.byte	0x6
 5749 0028 4F030000 		.4byte	.LASF0
 5750 002c 02       		.uleb128 0x2
 5751 002d 01       		.byte	0x1
 5752 002e 08       		.byte	0x8
 5753 002f 9C020000 		.4byte	.LASF1
 5754 0033 02       		.uleb128 0x2
 5755 0034 02       		.byte	0x2
 5756 0035 05       		.byte	0x5
 5757 0036 7B010000 		.4byte	.LASF2
 5758 003a 02       		.uleb128 0x2
 5759 003b 02       		.byte	0x2
 5760 003c 07       		.byte	0x7
 5761 003d C7030000 		.4byte	.LASF3
 5762 0041 02       		.uleb128 0x2
 5763 0042 04       		.byte	0x4
 5764 0043 05       		.byte	0x5
 5765 0044 05020000 		.4byte	.LASF4
 5766 0048 03       		.uleb128 0x3
 5767 0049 31000000 		.4byte	.LASF9
 5768 004d 02       		.byte	0x2
 5769 004e 41       		.byte	0x41
 5770 004f 53000000 		.4byte	0x53
 5771 0053 02       		.uleb128 0x2
 5772 0054 04       		.byte	0x4
 5773 0055 07       		.byte	0x7
 5774 0056 84040000 		.4byte	.LASF5
 5775 005a 02       		.uleb128 0x2
 5776 005b 08       		.byte	0x8
 5777 005c 05       		.byte	0x5
 5778 005d 36010000 		.4byte	.LASF6
 5779 0061 02       		.uleb128 0x2
 5780 0062 08       		.byte	0x8
 5781 0063 07       		.byte	0x7
 5782 0064 5B030000 		.4byte	.LASF7
 5783 0068 04       		.uleb128 0x4
 5784 0069 04       		.byte	0x4
 5785 006a 05       		.byte	0x5
 5786 006b 696E7400 		.ascii	"int\000"
 5787 006f 02       		.uleb128 0x2
 5788 0070 04       		.byte	0x4
 5789 0071 07       		.byte	0x7
ARM GAS  C:\Users\Phuong\AppData\Local\Temp\ccyLHZOj.s 			page 145


 5790 0072 92030000 		.4byte	.LASF8
 5791 0076 03       		.uleb128 0x3
 5792 0077 62000000 		.4byte	.LASF10
 5793 007b 03       		.byte	0x3
 5794 007c D8       		.byte	0xd8
 5795 007d 6F000000 		.4byte	0x6f
 5796 0081 02       		.uleb128 0x2
 5797 0082 08       		.byte	0x8
 5798 0083 04       		.byte	0x4
 5799 0084 BA010000 		.4byte	.LASF11
 5800 0088 02       		.uleb128 0x2
 5801 0089 04       		.byte	0x4
 5802 008a 07       		.byte	0x7
 5803 008b 10050000 		.4byte	.LASF12
 5804 008f 05       		.uleb128 0x5
 5805 0090 04       		.byte	0x4
 5806 0091 2C000000 		.4byte	0x2c
 5807 0095 02       		.uleb128 0x2
 5808 0096 01       		.byte	0x1
 5809 0097 08       		.byte	0x8
 5810 0098 FC030000 		.4byte	.LASF13
 5811 009c 03       		.uleb128 0x3
 5812 009d 72030000 		.4byte	.LASF14
 5813 00a1 04       		.byte	0x4
 5814 00a2 30       		.byte	0x30
 5815 00a3 48000000 		.4byte	0x48
 5816 00a7 06       		.uleb128 0x6
 5817 00a8 FC040000 		.4byte	.LASF15
 5818 00ac 1801     		.2byte	0x118
 5819 00ae 05       		.byte	0x5
 5820 00af 52       		.byte	0x52
 5821 00b0 D7000000 		.4byte	0xd7
 5822 00b4 07       		.uleb128 0x7
 5823 00b5 6E7200   		.ascii	"nr\000"
 5824 00b8 05       		.byte	0x5
 5825 00b9 54       		.byte	0x54
 5826 00ba 68000000 		.4byte	0x68
 5827 00be 00       		.byte	0
 5828 00bf 07       		.uleb128 0x7
 5829 00c0 726B00   		.ascii	"rk\000"
 5830 00c3 05       		.byte	0x5
 5831 00c4 55       		.byte	0x55
 5832 00c5 D7000000 		.4byte	0xd7
 5833 00c9 04       		.byte	0x4
 5834 00ca 07       		.uleb128 0x7
 5835 00cb 62756600 		.ascii	"buf\000"
 5836 00cf 05       		.byte	0x5
 5837 00d0 56       		.byte	0x56
 5838 00d1 DD000000 		.4byte	0xdd
 5839 00d5 08       		.byte	0x8
 5840 00d6 00       		.byte	0
 5841 00d7 05       		.uleb128 0x5
 5842 00d8 04       		.byte	0x4
 5843 00d9 9C000000 		.4byte	0x9c
 5844 00dd 08       		.uleb128 0x8
 5845 00de 9C000000 		.4byte	0x9c
 5846 00e2 ED000000 		.4byte	0xed
ARM GAS  C:\Users\Phuong\AppData\Local\Temp\ccyLHZOj.s 			page 146


 5847 00e6 09       		.uleb128 0x9
 5848 00e7 88000000 		.4byte	0x88
 5849 00eb 43       		.byte	0x43
 5850 00ec 00       		.byte	0
 5851 00ed 03       		.uleb128 0x3
 5852 00ee FC040000 		.4byte	.LASF15
 5853 00f2 05       		.byte	0x5
 5854 00f3 5F       		.byte	0x5f
 5855 00f4 A7000000 		.4byte	0xa7
 5856 00f8 0A       		.uleb128 0xa
 5857 00f9 9F030000 		.4byte	.LASF76
 5858 00fd 01       		.byte	0x1
 5859 00fe 8D01     		.2byte	0x18d
 5860 0100 00000000 		.4byte	.LFB1
 5861 0104 0C020000 		.4byte	.LFE1-.LFB1
 5862 0108 01       		.uleb128 0x1
 5863 0109 9C       		.byte	0x9c
 5864 010a 67010000 		.4byte	0x167
 5865 010e 0B       		.uleb128 0xb
 5866 010f 6900     		.ascii	"i\000"
 5867 0111 01       		.byte	0x1
 5868 0112 8F01     		.2byte	0x18f
 5869 0114 68000000 		.4byte	0x68
 5870 0118 00000000 		.4byte	.LLST0
 5871 011c 0B       		.uleb128 0xb
 5872 011d 7800     		.ascii	"x\000"
 5873 011f 01       		.byte	0x1
 5874 0120 8F01     		.2byte	0x18f
 5875 0122 68000000 		.4byte	0x68
 5876 0126 4C000000 		.4byte	.LLST1
 5877 012a 0B       		.uleb128 0xb
 5878 012b 7900     		.ascii	"y\000"
 5879 012d 01       		.byte	0x1
 5880 012e 8F01     		.2byte	0x18f
 5881 0130 68000000 		.4byte	0x68
 5882 0134 73010000 		.4byte	.LLST2
 5883 0138 0B       		.uleb128 0xb
 5884 0139 7A00     		.ascii	"z\000"
 5885 013b 01       		.byte	0x1
 5886 013c 8F01     		.2byte	0x18f
 5887 013e 68000000 		.4byte	0x68
 5888 0142 B7040000 		.4byte	.LLST3
 5889 0146 0C       		.uleb128 0xc
 5890 0147 706F7700 		.ascii	"pow\000"
 5891 014b 01       		.byte	0x1
 5892 014c 9001     		.2byte	0x190
 5893 014e 67010000 		.4byte	0x167
 5894 0152 03       		.uleb128 0x3
 5895 0153 91       		.byte	0x91
 5896 0154 E877     		.sleb128 -1048
 5897 0156 0C       		.uleb128 0xc
 5898 0157 6C6F6700 		.ascii	"log\000"
 5899 015b 01       		.byte	0x1
 5900 015c 9101     		.2byte	0x191
 5901 015e 67010000 		.4byte	0x167
 5902 0162 03       		.uleb128 0x3
 5903 0163 91       		.byte	0x91
ARM GAS  C:\Users\Phuong\AppData\Local\Temp\ccyLHZOj.s 			page 147


 5904 0164 E86F     		.sleb128 -2072
 5905 0166 00       		.byte	0
 5906 0167 08       		.uleb128 0x8
 5907 0168 68000000 		.4byte	0x68
 5908 016c 77010000 		.4byte	0x177
 5909 0170 09       		.uleb128 0x9
 5910 0171 88000000 		.4byte	0x88
 5911 0175 FF       		.byte	0xff
 5912 0176 00       		.byte	0
 5913 0177 0D       		.uleb128 0xd
 5914 0178 25010000 		.4byte	.LASF16
 5915 017c 01       		.byte	0x1
 5916 017d FF01     		.2byte	0x1ff
 5917 017f 00000000 		.4byte	.LFB2
 5918 0183 0E000000 		.4byte	.LFE2-.LFB2
 5919 0187 01       		.uleb128 0x1
 5920 0188 9C       		.byte	0x9c
 5921 0189 BB010000 		.4byte	0x1bb
 5922 018d 0E       		.uleb128 0xe
 5923 018e 63747800 		.ascii	"ctx\000"
 5924 0192 01       		.byte	0x1
 5925 0193 FF01     		.2byte	0x1ff
 5926 0195 BB010000 		.4byte	0x1bb
 5927 0199 CF040000 		.4byte	.LLST4
 5928 019d 0F       		.uleb128 0xf
 5929 019e 0C000000 		.4byte	.LVL48
 5930 01a2 C8160000 		.4byte	0x16c8
 5931 01a6 10       		.uleb128 0x10
 5932 01a7 01       		.uleb128 0x1
 5933 01a8 50       		.byte	0x50
 5934 01a9 03       		.uleb128 0x3
 5935 01aa F3       		.byte	0xf3
 5936 01ab 01       		.uleb128 0x1
 5937 01ac 50       		.byte	0x50
 5938 01ad 10       		.uleb128 0x10
 5939 01ae 01       		.uleb128 0x1
 5940 01af 51       		.byte	0x51
 5941 01b0 01       		.uleb128 0x1
 5942 01b1 30       		.byte	0x30
 5943 01b2 10       		.uleb128 0x10
 5944 01b3 01       		.uleb128 0x1
 5945 01b4 52       		.byte	0x52
 5946 01b5 03       		.uleb128 0x3
 5947 01b6 0A       		.byte	0xa
 5948 01b7 1801     		.2byte	0x118
 5949 01b9 00       		.byte	0
 5950 01ba 00       		.byte	0
 5951 01bb 05       		.uleb128 0x5
 5952 01bc 04       		.byte	0x4
 5953 01bd ED000000 		.4byte	0xed
 5954 01c1 0D       		.uleb128 0xd
 5955 01c2 A9040000 		.4byte	.LASF17
 5956 01c6 01       		.byte	0x1
 5957 01c7 0402     		.2byte	0x204
 5958 01c9 00000000 		.4byte	.LFB3
 5959 01cd 10000000 		.4byte	.LFE3-.LFB3
 5960 01d1 01       		.uleb128 0x1
ARM GAS  C:\Users\Phuong\AppData\Local\Temp\ccyLHZOj.s 			page 148


 5961 01d2 9C       		.byte	0x9c
 5962 01d3 00020000 		.4byte	0x200
 5963 01d7 0E       		.uleb128 0xe
 5964 01d8 63747800 		.ascii	"ctx\000"
 5965 01dc 01       		.byte	0x1
 5966 01dd 0402     		.2byte	0x204
 5967 01df BB010000 		.4byte	0x1bb
 5968 01e3 F0040000 		.4byte	.LLST5
 5969 01e7 0F       		.uleb128 0xf
 5970 01e8 0E000000 		.4byte	.LVL50
 5971 01ec D1160000 		.4byte	0x16d1
 5972 01f0 10       		.uleb128 0x10
 5973 01f1 01       		.uleb128 0x1
 5974 01f2 50       		.byte	0x50
 5975 01f3 03       		.uleb128 0x3
 5976 01f4 F3       		.byte	0xf3
 5977 01f5 01       		.uleb128 0x1
 5978 01f6 50       		.byte	0x50
 5979 01f7 10       		.uleb128 0x10
 5980 01f8 01       		.uleb128 0x1
 5981 01f9 51       		.byte	0x51
 5982 01fa 03       		.uleb128 0x3
 5983 01fb 0A       		.byte	0xa
 5984 01fc 1801     		.2byte	0x118
 5985 01fe 00       		.byte	0
 5986 01ff 00       		.byte	0
 5987 0200 11       		.uleb128 0x11
 5988 0201 6D040000 		.4byte	.LASF19
 5989 0205 01       		.byte	0x1
 5990 0206 1E02     		.2byte	0x21e
 5991 0208 68000000 		.4byte	0x68
 5992 020c 00000000 		.4byte	.LFB4
 5993 0210 1C020000 		.4byte	.LFE4-.LFB4
 5994 0214 01       		.uleb128 0x1
 5995 0215 9C       		.byte	0x9c
 5996 0216 71020000 		.4byte	0x271
 5997 021a 0E       		.uleb128 0xe
 5998 021b 63747800 		.ascii	"ctx\000"
 5999 021f 01       		.byte	0x1
 6000 0220 1E02     		.2byte	0x21e
 6001 0222 BB010000 		.4byte	0x1bb
 6002 0226 11050000 		.4byte	.LLST6
 6003 022a 0E       		.uleb128 0xe
 6004 022b 6B657900 		.ascii	"key\000"
 6005 022f 01       		.byte	0x1
 6006 0230 1E02     		.2byte	0x21e
 6007 0232 71020000 		.4byte	0x271
 6008 0236 85050000 		.4byte	.LLST7
 6009 023a 12       		.uleb128 0x12
 6010 023b 79050000 		.4byte	.LASF18
 6011 023f 01       		.byte	0x1
 6012 0240 1F02     		.2byte	0x21f
 6013 0242 6F000000 		.4byte	0x6f
 6014 0246 15060000 		.4byte	.LLST8
 6015 024a 0B       		.uleb128 0xb
 6016 024b 6900     		.ascii	"i\000"
 6017 024d 01       		.byte	0x1
ARM GAS  C:\Users\Phuong\AppData\Local\Temp\ccyLHZOj.s 			page 149


 6018 024e 2102     		.2byte	0x221
 6019 0250 6F000000 		.4byte	0x6f
 6020 0254 A5060000 		.4byte	.LLST9
 6021 0258 0B       		.uleb128 0xb
 6022 0259 524B00   		.ascii	"RK\000"
 6023 025c 01       		.byte	0x1
 6024 025d 2202     		.2byte	0x222
 6025 025f D7000000 		.4byte	0xd7
 6026 0263 3D070000 		.4byte	.LLST10
 6027 0267 13       		.uleb128 0x13
 6028 0268 18000000 		.4byte	.LVL52
 6029 026c F8000000 		.4byte	0xf8
 6030 0270 00       		.byte	0
 6031 0271 05       		.uleb128 0x5
 6032 0272 04       		.byte	0x4
 6033 0273 77020000 		.4byte	0x277
 6034 0277 14       		.uleb128 0x14
 6035 0278 2C000000 		.4byte	0x2c
 6036 027c 11       		.uleb128 0x11
 6037 027d 63020000 		.4byte	.LASF20
 6038 0281 01       		.byte	0x1
 6039 0282 9002     		.2byte	0x290
 6040 0284 68000000 		.4byte	0x68
 6041 0288 00000000 		.4byte	.LFB5
 6042 028c 1C010000 		.4byte	.LFE5-.LFB5
 6043 0290 01       		.uleb128 0x1
 6044 0291 9C       		.byte	0x9c
 6045 0292 74030000 		.4byte	0x374
 6046 0296 0E       		.uleb128 0xe
 6047 0297 63747800 		.ascii	"ctx\000"
 6048 029b 01       		.byte	0x1
 6049 029c 9002     		.2byte	0x290
 6050 029e BB010000 		.4byte	0x1bb
 6051 02a2 5B070000 		.4byte	.LLST11
 6052 02a6 0E       		.uleb128 0xe
 6053 02a7 6B657900 		.ascii	"key\000"
 6054 02ab 01       		.byte	0x1
 6055 02ac 9002     		.2byte	0x290
 6056 02ae 71020000 		.4byte	0x271
 6057 02b2 87070000 		.4byte	.LLST12
 6058 02b6 12       		.uleb128 0x12
 6059 02b7 79050000 		.4byte	.LASF18
 6060 02bb 01       		.byte	0x1
 6061 02bc 9102     		.2byte	0x291
 6062 02be 6F000000 		.4byte	0x6f
 6063 02c2 B3070000 		.4byte	.LLST13
 6064 02c6 0B       		.uleb128 0xb
 6065 02c7 6900     		.ascii	"i\000"
 6066 02c9 01       		.byte	0x1
 6067 02ca 9302     		.2byte	0x293
 6068 02cc 68000000 		.4byte	0x68
 6069 02d0 DF070000 		.4byte	.LLST14
 6070 02d4 0B       		.uleb128 0xb
 6071 02d5 6A00     		.ascii	"j\000"
 6072 02d7 01       		.byte	0x1
 6073 02d8 9302     		.2byte	0x293
 6074 02da 68000000 		.4byte	0x68
ARM GAS  C:\Users\Phuong\AppData\Local\Temp\ccyLHZOj.s 			page 150


 6075 02de 29080000 		.4byte	.LLST15
 6076 02e2 0B       		.uleb128 0xb
 6077 02e3 72657400 		.ascii	"ret\000"
 6078 02e7 01       		.byte	0x1
 6079 02e8 9302     		.2byte	0x293
 6080 02ea 68000000 		.4byte	0x68
 6081 02ee 47080000 		.4byte	.LLST16
 6082 02f2 0C       		.uleb128 0xc
 6083 02f3 63747900 		.ascii	"cty\000"
 6084 02f7 01       		.byte	0x1
 6085 02f8 9402     		.2byte	0x294
 6086 02fa ED000000 		.4byte	0xed
 6087 02fe 03       		.uleb128 0x3
 6088 02ff 91       		.byte	0x91
 6089 0300 C07D     		.sleb128 -320
 6090 0302 0B       		.uleb128 0xb
 6091 0303 524B00   		.ascii	"RK\000"
 6092 0306 01       		.byte	0x1
 6093 0307 9502     		.2byte	0x295
 6094 0309 D7000000 		.4byte	0xd7
 6095 030d 67080000 		.4byte	.LLST17
 6096 0311 0B       		.uleb128 0xb
 6097 0312 534B00   		.ascii	"SK\000"
 6098 0315 01       		.byte	0x1
 6099 0316 9602     		.2byte	0x296
 6100 0318 D7000000 		.4byte	0xd7
 6101 031c 05090000 		.4byte	.LLST18
 6102 0320 15       		.uleb128 0x15
 6103 0321 5E020000 		.4byte	.LASF36
 6104 0325 01       		.byte	0x1
 6105 0326 CA02     		.2byte	0x2ca
 6106 0328 F0000000 		.4byte	.L52
 6107 032c 16       		.uleb128 0x16
 6108 032d 1A000000 		.4byte	.LVL80
 6109 0331 77010000 		.4byte	0x177
 6110 0335 41030000 		.4byte	0x341
 6111 0339 10       		.uleb128 0x10
 6112 033a 01       		.uleb128 0x1
 6113 033b 50       		.byte	0x50
 6114 033c 03       		.uleb128 0x3
 6115 033d 91       		.byte	0x91
 6116 033e C07D     		.sleb128 -320
 6117 0340 00       		.byte	0
 6118 0341 16       		.uleb128 0x16
 6119 0342 2A000000 		.4byte	.LVL82
 6120 0346 00020000 		.4byte	0x200
 6121 034a 62030000 		.4byte	0x362
 6122 034e 10       		.uleb128 0x10
 6123 034f 01       		.uleb128 0x1
 6124 0350 50       		.byte	0x50
 6125 0351 03       		.uleb128 0x3
 6126 0352 91       		.byte	0x91
 6127 0353 C07D     		.sleb128 -320
 6128 0355 10       		.uleb128 0x10
 6129 0356 01       		.uleb128 0x1
 6130 0357 51       		.byte	0x51
 6131 0358 02       		.uleb128 0x2
ARM GAS  C:\Users\Phuong\AppData\Local\Temp\ccyLHZOj.s 			page 151


 6132 0359 74       		.byte	0x74
 6133 035a 00       		.sleb128 0
 6134 035b 10       		.uleb128 0x10
 6135 035c 01       		.uleb128 0x1
 6136 035d 52       		.byte	0x52
 6137 035e 02       		.uleb128 0x2
 6138 035f 75       		.byte	0x75
 6139 0360 00       		.sleb128 0
 6140 0361 00       		.byte	0
 6141 0362 0F       		.uleb128 0xf
 6142 0363 F6000000 		.4byte	.LVL108
 6143 0367 C1010000 		.4byte	0x1c1
 6144 036b 10       		.uleb128 0x10
 6145 036c 01       		.uleb128 0x1
 6146 036d 50       		.byte	0x50
 6147 036e 03       		.uleb128 0x3
 6148 036f 91       		.byte	0x91
 6149 0370 C07D     		.sleb128 -320
 6150 0372 00       		.byte	0
 6151 0373 00       		.byte	0
 6152 0374 11       		.uleb128 0x11
 6153 0375 8A010000 		.4byte	.LASF21
 6154 0379 01       		.byte	0x1
 6155 037a 4B03     		.2byte	0x34b
 6156 037c 68000000 		.4byte	0x68
 6157 0380 00000000 		.4byte	.LFB6
 6158 0384 90040000 		.4byte	.LFE6-.LFB6
 6159 0388 01       		.uleb128 0x1
 6160 0389 9C       		.byte	0x9c
 6161 038a 54040000 		.4byte	0x454
 6162 038e 0E       		.uleb128 0xe
 6163 038f 63747800 		.ascii	"ctx\000"
 6164 0393 01       		.byte	0x1
 6165 0394 4B03     		.2byte	0x34b
 6166 0396 BB010000 		.4byte	0x1bb
 6167 039a A5090000 		.4byte	.LLST19
 6168 039e 12       		.uleb128 0x12
 6169 039f 69000000 		.4byte	.LASF22
 6170 03a3 01       		.byte	0x1
 6171 03a4 4C03     		.2byte	0x34c
 6172 03a6 71020000 		.4byte	0x271
 6173 03aa C6090000 		.4byte	.LLST20
 6174 03ae 12       		.uleb128 0x12
 6175 03af 19050000 		.4byte	.LASF23
 6176 03b3 01       		.byte	0x1
 6177 03b4 4D03     		.2byte	0x34d
 6178 03b6 8F000000 		.4byte	0x8f
 6179 03ba E7090000 		.4byte	.LLST21
 6180 03be 0B       		.uleb128 0xb
 6181 03bf 6900     		.ascii	"i\000"
 6182 03c1 01       		.byte	0x1
 6183 03c2 4F03     		.2byte	0x34f
 6184 03c4 68000000 		.4byte	0x68
 6185 03c8 060A0000 		.4byte	.LLST22
 6186 03cc 0B       		.uleb128 0xb
 6187 03cd 524B00   		.ascii	"RK\000"
 6188 03d0 01       		.byte	0x1
ARM GAS  C:\Users\Phuong\AppData\Local\Temp\ccyLHZOj.s 			page 152


 6189 03d1 5003     		.2byte	0x350
 6190 03d3 D7000000 		.4byte	0xd7
 6191 03d7 3C0A0000 		.4byte	.LLST23
 6192 03db 0B       		.uleb128 0xb
 6193 03dc 583000   		.ascii	"X0\000"
 6194 03df 01       		.byte	0x1
 6195 03e0 5003     		.2byte	0x350
 6196 03e2 9C000000 		.4byte	0x9c
 6197 03e6 690B0000 		.4byte	.LLST24
 6198 03ea 0B       		.uleb128 0xb
 6199 03eb 583100   		.ascii	"X1\000"
 6200 03ee 01       		.byte	0x1
 6201 03ef 5003     		.2byte	0x350
 6202 03f1 9C000000 		.4byte	0x9c
 6203 03f5 B50B0000 		.4byte	.LLST25
 6204 03f9 0B       		.uleb128 0xb
 6205 03fa 583200   		.ascii	"X2\000"
 6206 03fd 01       		.byte	0x1
 6207 03fe 5003     		.2byte	0x350
 6208 0400 9C000000 		.4byte	0x9c
 6209 0404 010C0000 		.4byte	.LLST26
 6210 0408 0B       		.uleb128 0xb
 6211 0409 583300   		.ascii	"X3\000"
 6212 040c 01       		.byte	0x1
 6213 040d 5003     		.2byte	0x350
 6214 040f 9C000000 		.4byte	0x9c
 6215 0413 2A0C0000 		.4byte	.LLST27
 6216 0417 0B       		.uleb128 0xb
 6217 0418 593000   		.ascii	"Y0\000"
 6218 041b 01       		.byte	0x1
 6219 041c 5003     		.2byte	0x350
 6220 041e 9C000000 		.4byte	0x9c
 6221 0422 E90C0000 		.4byte	.LLST28
 6222 0426 0B       		.uleb128 0xb
 6223 0427 593100   		.ascii	"Y1\000"
 6224 042a 01       		.byte	0x1
 6225 042b 5003     		.2byte	0x350
 6226 042d 9C000000 		.4byte	0x9c
 6227 0431 120D0000 		.4byte	.LLST29
 6228 0435 0B       		.uleb128 0xb
 6229 0436 593200   		.ascii	"Y2\000"
 6230 0439 01       		.byte	0x1
 6231 043a 5003     		.2byte	0x350
 6232 043c 9C000000 		.4byte	0x9c
 6233 0440 480D0000 		.4byte	.LLST30
 6234 0444 0B       		.uleb128 0xb
 6235 0445 593300   		.ascii	"Y3\000"
 6236 0448 01       		.byte	0x1
 6237 0449 5003     		.2byte	0x350
 6238 044b 9C000000 		.4byte	0x9c
 6239 044f 720D0000 		.4byte	.LLST31
 6240 0453 00       		.byte	0
 6241 0454 0D       		.uleb128 0xd
 6242 0455 E8040000 		.4byte	.LASF24
 6243 0459 01       		.byte	0x1
 6244 045a 8303     		.2byte	0x383
 6245 045c 00000000 		.4byte	.LFB7
ARM GAS  C:\Users\Phuong\AppData\Local\Temp\ccyLHZOj.s 			page 153


 6246 0460 08000000 		.4byte	.LFE7-.LFB7
 6247 0464 01       		.uleb128 0x1
 6248 0465 9C       		.byte	0x9c
 6249 0466 BA040000 		.4byte	0x4ba
 6250 046a 0E       		.uleb128 0xe
 6251 046b 63747800 		.ascii	"ctx\000"
 6252 046f 01       		.byte	0x1
 6253 0470 8303     		.2byte	0x383
 6254 0472 BB010000 		.4byte	0x1bb
 6255 0476 9B0D0000 		.4byte	.LLST32
 6256 047a 12       		.uleb128 0x12
 6257 047b 69000000 		.4byte	.LASF22
 6258 047f 01       		.byte	0x1
 6259 0480 8403     		.2byte	0x384
 6260 0482 71020000 		.4byte	0x271
 6261 0486 BC0D0000 		.4byte	.LLST33
 6262 048a 12       		.uleb128 0x12
 6263 048b 19050000 		.4byte	.LASF23
 6264 048f 01       		.byte	0x1
 6265 0490 8503     		.2byte	0x385
 6266 0492 8F000000 		.4byte	0x8f
 6267 0496 DD0D0000 		.4byte	.LLST34
 6268 049a 0F       		.uleb128 0xf
 6269 049b 06000000 		.4byte	.LVL169
 6270 049f 74030000 		.4byte	0x374
 6271 04a3 10       		.uleb128 0x10
 6272 04a4 01       		.uleb128 0x1
 6273 04a5 50       		.byte	0x50
 6274 04a6 03       		.uleb128 0x3
 6275 04a7 F3       		.byte	0xf3
 6276 04a8 01       		.uleb128 0x1
 6277 04a9 50       		.byte	0x50
 6278 04aa 10       		.uleb128 0x10
 6279 04ab 01       		.uleb128 0x1
 6280 04ac 51       		.byte	0x51
 6281 04ad 03       		.uleb128 0x3
 6282 04ae F3       		.byte	0xf3
 6283 04af 01       		.uleb128 0x1
 6284 04b0 51       		.byte	0x51
 6285 04b1 10       		.uleb128 0x10
 6286 04b2 01       		.uleb128 0x1
 6287 04b3 52       		.byte	0x52
 6288 04b4 03       		.uleb128 0x3
 6289 04b5 F3       		.byte	0xf3
 6290 04b6 01       		.uleb128 0x1
 6291 04b7 52       		.byte	0x52
 6292 04b8 00       		.byte	0
 6293 04b9 00       		.byte	0
 6294 04ba 11       		.uleb128 0x11
 6295 04bb BA040000 		.4byte	.LASF25
 6296 04bf 01       		.byte	0x1
 6297 04c0 8F03     		.2byte	0x38f
 6298 04c2 68000000 		.4byte	0x68
 6299 04c6 00000000 		.4byte	.LFB8
 6300 04ca 74040000 		.4byte	.LFE8-.LFB8
 6301 04ce 01       		.uleb128 0x1
 6302 04cf 9C       		.byte	0x9c
ARM GAS  C:\Users\Phuong\AppData\Local\Temp\ccyLHZOj.s 			page 154


 6303 04d0 9A050000 		.4byte	0x59a
 6304 04d4 0E       		.uleb128 0xe
 6305 04d5 63747800 		.ascii	"ctx\000"
 6306 04d9 01       		.byte	0x1
 6307 04da 8F03     		.2byte	0x38f
 6308 04dc BB010000 		.4byte	0x1bb
 6309 04e0 FE0D0000 		.4byte	.LLST35
 6310 04e4 12       		.uleb128 0x12
 6311 04e5 69000000 		.4byte	.LASF22
 6312 04e9 01       		.byte	0x1
 6313 04ea 9003     		.2byte	0x390
 6314 04ec 71020000 		.4byte	0x271
 6315 04f0 1F0E0000 		.4byte	.LLST36
 6316 04f4 12       		.uleb128 0x12
 6317 04f5 19050000 		.4byte	.LASF23
 6318 04f9 01       		.byte	0x1
 6319 04fa 9103     		.2byte	0x391
 6320 04fc 8F000000 		.4byte	0x8f
 6321 0500 400E0000 		.4byte	.LLST37
 6322 0504 0B       		.uleb128 0xb
 6323 0505 6900     		.ascii	"i\000"
 6324 0507 01       		.byte	0x1
 6325 0508 9303     		.2byte	0x393
 6326 050a 68000000 		.4byte	0x68
 6327 050e 5F0E0000 		.4byte	.LLST38
 6328 0512 0B       		.uleb128 0xb
 6329 0513 524B00   		.ascii	"RK\000"
 6330 0516 01       		.byte	0x1
 6331 0517 9403     		.2byte	0x394
 6332 0519 D7000000 		.4byte	0xd7
 6333 051d 950E0000 		.4byte	.LLST39
 6334 0521 0B       		.uleb128 0xb
 6335 0522 583000   		.ascii	"X0\000"
 6336 0525 01       		.byte	0x1
 6337 0526 9403     		.2byte	0x394
 6338 0528 9C000000 		.4byte	0x9c
 6339 052c C20F0000 		.4byte	.LLST40
 6340 0530 0B       		.uleb128 0xb
 6341 0531 583100   		.ascii	"X1\000"
 6342 0534 01       		.byte	0x1
 6343 0535 9403     		.2byte	0x394
 6344 0537 9C000000 		.4byte	0x9c
 6345 053b 0E100000 		.4byte	.LLST41
 6346 053f 0B       		.uleb128 0xb
 6347 0540 583200   		.ascii	"X2\000"
 6348 0543 01       		.byte	0x1
 6349 0544 9403     		.2byte	0x394
 6350 0546 9C000000 		.4byte	0x9c
 6351 054a 5A100000 		.4byte	.LLST42
 6352 054e 0B       		.uleb128 0xb
 6353 054f 583300   		.ascii	"X3\000"
 6354 0552 01       		.byte	0x1
 6355 0553 9403     		.2byte	0x394
 6356 0555 9C000000 		.4byte	0x9c
 6357 0559 83100000 		.4byte	.LLST43
 6358 055d 0B       		.uleb128 0xb
 6359 055e 593000   		.ascii	"Y0\000"
ARM GAS  C:\Users\Phuong\AppData\Local\Temp\ccyLHZOj.s 			page 155


 6360 0561 01       		.byte	0x1
 6361 0562 9403     		.2byte	0x394
 6362 0564 9C000000 		.4byte	0x9c
 6363 0568 D2110000 		.4byte	.LLST44
 6364 056c 0B       		.uleb128 0xb
 6365 056d 593100   		.ascii	"Y1\000"
 6366 0570 01       		.byte	0x1
 6367 0571 9403     		.2byte	0x394
 6368 0573 9C000000 		.4byte	0x9c
 6369 0577 FB110000 		.4byte	.LLST45
 6370 057b 0B       		.uleb128 0xb
 6371 057c 593200   		.ascii	"Y2\000"
 6372 057f 01       		.byte	0x1
 6373 0580 9403     		.2byte	0x394
 6374 0582 9C000000 		.4byte	0x9c
 6375 0586 25120000 		.4byte	.LLST46
 6376 058a 0B       		.uleb128 0xb
 6377 058b 593300   		.ascii	"Y3\000"
 6378 058e 01       		.byte	0x1
 6379 058f 9403     		.2byte	0x394
 6380 0591 9C000000 		.4byte	0x9c
 6381 0595 5B120000 		.4byte	.LLST47
 6382 0599 00       		.byte	0
 6383 059a 0D       		.uleb128 0xd
 6384 059b 25040000 		.4byte	.LASF26
 6385 059f 01       		.byte	0x1
 6386 05a0 C703     		.2byte	0x3c7
 6387 05a2 00000000 		.4byte	.LFB9
 6388 05a6 08000000 		.4byte	.LFE9-.LFB9
 6389 05aa 01       		.uleb128 0x1
 6390 05ab 9C       		.byte	0x9c
 6391 05ac 00060000 		.4byte	0x600
 6392 05b0 0E       		.uleb128 0xe
 6393 05b1 63747800 		.ascii	"ctx\000"
 6394 05b5 01       		.byte	0x1
 6395 05b6 C703     		.2byte	0x3c7
 6396 05b8 BB010000 		.4byte	0x1bb
 6397 05bc 84120000 		.4byte	.LLST48
 6398 05c0 12       		.uleb128 0x12
 6399 05c1 69000000 		.4byte	.LASF22
 6400 05c5 01       		.byte	0x1
 6401 05c6 C803     		.2byte	0x3c8
 6402 05c8 71020000 		.4byte	0x271
 6403 05cc A5120000 		.4byte	.LLST49
 6404 05d0 12       		.uleb128 0x12
 6405 05d1 19050000 		.4byte	.LASF23
 6406 05d5 01       		.byte	0x1
 6407 05d6 C903     		.2byte	0x3c9
 6408 05d8 8F000000 		.4byte	0x8f
 6409 05dc C6120000 		.4byte	.LLST50
 6410 05e0 0F       		.uleb128 0xf
 6411 05e1 06000000 		.4byte	.LVL231
 6412 05e5 BA040000 		.4byte	0x4ba
 6413 05e9 10       		.uleb128 0x10
 6414 05ea 01       		.uleb128 0x1
 6415 05eb 50       		.byte	0x50
 6416 05ec 03       		.uleb128 0x3
ARM GAS  C:\Users\Phuong\AppData\Local\Temp\ccyLHZOj.s 			page 156


 6417 05ed F3       		.byte	0xf3
 6418 05ee 01       		.uleb128 0x1
 6419 05ef 50       		.byte	0x50
 6420 05f0 10       		.uleb128 0x10
 6421 05f1 01       		.uleb128 0x1
 6422 05f2 51       		.byte	0x51
 6423 05f3 03       		.uleb128 0x3
 6424 05f4 F3       		.byte	0xf3
 6425 05f5 01       		.uleb128 0x1
 6426 05f6 51       		.byte	0x51
 6427 05f7 10       		.uleb128 0x10
 6428 05f8 01       		.uleb128 0x1
 6429 05f9 52       		.byte	0x52
 6430 05fa 03       		.uleb128 0x3
 6431 05fb F3       		.byte	0xf3
 6432 05fc 01       		.uleb128 0x1
 6433 05fd 52       		.byte	0x52
 6434 05fe 00       		.byte	0
 6435 05ff 00       		.byte	0
 6436 0600 11       		.uleb128 0x11
 6437 0601 63050000 		.4byte	.LASF27
 6438 0605 01       		.byte	0x1
 6439 0606 D203     		.2byte	0x3d2
 6440 0608 68000000 		.4byte	0x68
 6441 060c 00000000 		.4byte	.LFB10
 6442 0610 1C000000 		.4byte	.LFE10-.LFB10
 6443 0614 01       		.uleb128 0x1
 6444 0615 9C       		.byte	0x9c
 6445 0616 94060000 		.4byte	0x694
 6446 061a 0E       		.uleb128 0xe
 6447 061b 63747800 		.ascii	"ctx\000"
 6448 061f 01       		.byte	0x1
 6449 0620 D203     		.2byte	0x3d2
 6450 0622 BB010000 		.4byte	0x1bb
 6451 0626 E7120000 		.4byte	.LLST51
 6452 062a 12       		.uleb128 0x12
 6453 062b 5A010000 		.4byte	.LASF28
 6454 062f 01       		.byte	0x1
 6455 0630 D303     		.2byte	0x3d3
 6456 0632 68000000 		.4byte	0x68
 6457 0636 21130000 		.4byte	.LLST52
 6458 063a 12       		.uleb128 0x12
 6459 063b 69000000 		.4byte	.LASF22
 6460 063f 01       		.byte	0x1
 6461 0640 D403     		.2byte	0x3d4
 6462 0642 71020000 		.4byte	0x271
 6463 0646 5B130000 		.4byte	.LLST53
 6464 064a 12       		.uleb128 0x12
 6465 064b 19050000 		.4byte	.LASF23
 6466 064f 01       		.byte	0x1
 6467 0650 D503     		.2byte	0x3d5
 6468 0652 8F000000 		.4byte	0x8f
 6469 0656 9D130000 		.4byte	.LLST54
 6470 065a 16       		.uleb128 0x16
 6471 065b 10000000 		.4byte	.LVL235
 6472 065f 74030000 		.4byte	0x374
 6473 0663 7C060000 		.4byte	0x67c
ARM GAS  C:\Users\Phuong\AppData\Local\Temp\ccyLHZOj.s 			page 157


 6474 0667 10       		.uleb128 0x10
 6475 0668 01       		.uleb128 0x1
 6476 0669 50       		.byte	0x50
 6477 066a 03       		.uleb128 0x3
 6478 066b F3       		.byte	0xf3
 6479 066c 01       		.uleb128 0x1
 6480 066d 50       		.byte	0x50
 6481 066e 10       		.uleb128 0x10
 6482 066f 01       		.uleb128 0x1
 6483 0670 51       		.byte	0x51
 6484 0671 02       		.uleb128 0x2
 6485 0672 74       		.byte	0x74
 6486 0673 00       		.sleb128 0
 6487 0674 10       		.uleb128 0x10
 6488 0675 01       		.uleb128 0x1
 6489 0676 52       		.byte	0x52
 6490 0677 03       		.uleb128 0x3
 6491 0678 F3       		.byte	0xf3
 6492 0679 01       		.uleb128 0x1
 6493 067a 53       		.byte	0x53
 6494 067b 00       		.byte	0
 6495 067c 0F       		.uleb128 0xf
 6496 067d 1A000000 		.4byte	.LVL239
 6497 0681 BA040000 		.4byte	0x4ba
 6498 0685 10       		.uleb128 0x10
 6499 0686 01       		.uleb128 0x1
 6500 0687 51       		.byte	0x51
 6501 0688 02       		.uleb128 0x2
 6502 0689 74       		.byte	0x74
 6503 068a 00       		.sleb128 0
 6504 068b 10       		.uleb128 0x10
 6505 068c 01       		.uleb128 0x1
 6506 068d 52       		.byte	0x52
 6507 068e 03       		.uleb128 0x3
 6508 068f F3       		.byte	0xf3
 6509 0690 01       		.uleb128 0x1
 6510 0691 53       		.byte	0x53
 6511 0692 00       		.byte	0
 6512 0693 00       		.byte	0
 6513 0694 11       		.uleb128 0x11
 6514 0695 08040000 		.4byte	.LASF29
 6515 0699 01       		.byte	0x1
 6516 069a F203     		.2byte	0x3f2
 6517 069c 68000000 		.4byte	0x68
 6518 06a0 00000000 		.4byte	.LFB11
 6519 06a4 9A000000 		.4byte	.LFE11-.LFB11
 6520 06a8 01       		.uleb128 0x1
 6521 06a9 9C       		.byte	0x9c
 6522 06aa D4070000 		.4byte	0x7d4
 6523 06ae 0E       		.uleb128 0xe
 6524 06af 63747800 		.ascii	"ctx\000"
 6525 06b3 01       		.byte	0x1
 6526 06b4 F203     		.2byte	0x3f2
 6527 06b6 BB010000 		.4byte	0x1bb
 6528 06ba D7130000 		.4byte	.LLST55
 6529 06be 12       		.uleb128 0x12
 6530 06bf 5A010000 		.4byte	.LASF28
ARM GAS  C:\Users\Phuong\AppData\Local\Temp\ccyLHZOj.s 			page 158


 6531 06c3 01       		.byte	0x1
 6532 06c4 F303     		.2byte	0x3f3
 6533 06c6 68000000 		.4byte	0x68
 6534 06ca 19140000 		.4byte	.LLST56
 6535 06ce 12       		.uleb128 0x12
 6536 06cf 1E010000 		.4byte	.LASF30
 6537 06d3 01       		.byte	0x1
 6538 06d4 F403     		.2byte	0x3f4
 6539 06d6 76000000 		.4byte	0x76
 6540 06da 4F140000 		.4byte	.LLST57
 6541 06de 0E       		.uleb128 0xe
 6542 06df 697600   		.ascii	"iv\000"
 6543 06e2 01       		.byte	0x1
 6544 06e3 F503     		.2byte	0x3f5
 6545 06e5 8F000000 		.4byte	0x8f
 6546 06e9 83140000 		.4byte	.LLST58
 6547 06ed 12       		.uleb128 0x12
 6548 06ee 69000000 		.4byte	.LASF22
 6549 06f2 01       		.byte	0x1
 6550 06f3 F603     		.2byte	0x3f6
 6551 06f5 71020000 		.4byte	0x271
 6552 06f9 AF140000 		.4byte	.LLST59
 6553 06fd 12       		.uleb128 0x12
 6554 06fe 19050000 		.4byte	.LASF23
 6555 0702 01       		.byte	0x1
 6556 0703 F703     		.2byte	0x3f7
 6557 0705 8F000000 		.4byte	0x8f
 6558 0709 E5140000 		.4byte	.LLST60
 6559 070d 0B       		.uleb128 0xb
 6560 070e 6900     		.ascii	"i\000"
 6561 0710 01       		.byte	0x1
 6562 0711 F903     		.2byte	0x3f9
 6563 0713 68000000 		.4byte	0x68
 6564 0717 1B150000 		.4byte	.LLST61
 6565 071b 17       		.uleb128 0x17
 6566 071c 5D000000 		.4byte	.LASF31
 6567 0720 01       		.byte	0x1
 6568 0721 FA03     		.2byte	0x3fa
 6569 0723 D4070000 		.4byte	0x7d4
 6570 0727 02       		.uleb128 0x2
 6571 0728 91       		.byte	0x91
 6572 0729 58       		.sleb128 -40
 6573 072a 16       		.uleb128 0x16
 6574 072b 24000000 		.4byte	.LVL244
 6575 072f DC160000 		.4byte	0x16dc
 6576 0733 49070000 		.4byte	0x749
 6577 0737 10       		.uleb128 0x10
 6578 0738 01       		.uleb128 0x1
 6579 0739 50       		.byte	0x50
 6580 073a 02       		.uleb128 0x2
 6581 073b 91       		.byte	0x91
 6582 073c 58       		.sleb128 -40
 6583 073d 10       		.uleb128 0x10
 6584 073e 01       		.uleb128 0x1
 6585 073f 51       		.byte	0x51
 6586 0740 02       		.uleb128 0x2
 6587 0741 74       		.byte	0x74
ARM GAS  C:\Users\Phuong\AppData\Local\Temp\ccyLHZOj.s 			page 159


 6588 0742 00       		.sleb128 0
 6589 0743 10       		.uleb128 0x10
 6590 0744 01       		.uleb128 0x1
 6591 0745 52       		.byte	0x52
 6592 0746 01       		.uleb128 0x1
 6593 0747 40       		.byte	0x40
 6594 0748 00       		.byte	0
 6595 0749 16       		.uleb128 0x16
 6596 074a 30000000 		.4byte	.LVL245
 6597 074e 00060000 		.4byte	0x600
 6598 0752 71070000 		.4byte	0x771
 6599 0756 10       		.uleb128 0x10
 6600 0757 01       		.uleb128 0x1
 6601 0758 50       		.byte	0x50
 6602 0759 03       		.uleb128 0x3
 6603 075a 7D       		.byte	0x7d
 6604 075b 00       		.sleb128 0
 6605 075c 06       		.byte	0x6
 6606 075d 10       		.uleb128 0x10
 6607 075e 01       		.uleb128 0x1
 6608 075f 51       		.byte	0x51
 6609 0760 03       		.uleb128 0x3
 6610 0761 91       		.byte	0x91
 6611 0762 54       		.sleb128 -44
 6612 0763 06       		.byte	0x6
 6613 0764 10       		.uleb128 0x10
 6614 0765 01       		.uleb128 0x1
 6615 0766 52       		.byte	0x52
 6616 0767 02       		.uleb128 0x2
 6617 0768 74       		.byte	0x74
 6618 0769 00       		.sleb128 0
 6619 076a 10       		.uleb128 0x10
 6620 076b 01       		.uleb128 0x1
 6621 076c 53       		.byte	0x53
 6622 076d 02       		.uleb128 0x2
 6623 076e 76       		.byte	0x76
 6624 076f 00       		.sleb128 0
 6625 0770 00       		.byte	0
 6626 0771 16       		.uleb128 0x16
 6627 0772 4E000000 		.4byte	.LVL248
 6628 0776 DC160000 		.4byte	0x16dc
 6629 077a 90070000 		.4byte	0x790
 6630 077e 10       		.uleb128 0x10
 6631 077f 01       		.uleb128 0x1
 6632 0780 50       		.byte	0x50
 6633 0781 02       		.uleb128 0x2
 6634 0782 77       		.byte	0x77
 6635 0783 00       		.sleb128 0
 6636 0784 10       		.uleb128 0x10
 6637 0785 01       		.uleb128 0x1
 6638 0786 51       		.byte	0x51
 6639 0787 02       		.uleb128 0x2
 6640 0788 91       		.byte	0x91
 6641 0789 58       		.sleb128 -40
 6642 078a 10       		.uleb128 0x10
 6643 078b 01       		.uleb128 0x1
 6644 078c 52       		.byte	0x52
ARM GAS  C:\Users\Phuong\AppData\Local\Temp\ccyLHZOj.s 			page 160


 6645 078d 01       		.uleb128 0x1
 6646 078e 40       		.byte	0x40
 6647 078f 00       		.byte	0
 6648 0790 16       		.uleb128 0x16
 6649 0791 7A000000 		.4byte	.LVL257
 6650 0795 00060000 		.4byte	0x600
 6651 0799 B8070000 		.4byte	0x7b8
 6652 079d 10       		.uleb128 0x10
 6653 079e 01       		.uleb128 0x1
 6654 079f 50       		.byte	0x50
 6655 07a0 03       		.uleb128 0x3
 6656 07a1 7D       		.byte	0x7d
 6657 07a2 00       		.sleb128 0
 6658 07a3 06       		.byte	0x6
 6659 07a4 10       		.uleb128 0x10
 6660 07a5 01       		.uleb128 0x1
 6661 07a6 51       		.byte	0x51
 6662 07a7 03       		.uleb128 0x3
 6663 07a8 91       		.byte	0x91
 6664 07a9 54       		.sleb128 -44
 6665 07aa 06       		.byte	0x6
 6666 07ab 10       		.uleb128 0x10
 6667 07ac 01       		.uleb128 0x1
 6668 07ad 52       		.byte	0x52
 6669 07ae 02       		.uleb128 0x2
 6670 07af 76       		.byte	0x76
 6671 07b0 00       		.sleb128 0
 6672 07b1 10       		.uleb128 0x10
 6673 07b2 01       		.uleb128 0x1
 6674 07b3 53       		.byte	0x53
 6675 07b4 02       		.uleb128 0x2
 6676 07b5 76       		.byte	0x76
 6677 07b6 00       		.sleb128 0
 6678 07b7 00       		.byte	0
 6679 07b8 0F       		.uleb128 0xf
 6680 07b9 84000000 		.4byte	.LVL258
 6681 07bd DC160000 		.4byte	0x16dc
 6682 07c1 10       		.uleb128 0x10
 6683 07c2 01       		.uleb128 0x1
 6684 07c3 50       		.byte	0x50
 6685 07c4 02       		.uleb128 0x2
 6686 07c5 77       		.byte	0x77
 6687 07c6 00       		.sleb128 0
 6688 07c7 10       		.uleb128 0x10
 6689 07c8 01       		.uleb128 0x1
 6690 07c9 51       		.byte	0x51
 6691 07ca 02       		.uleb128 0x2
 6692 07cb 76       		.byte	0x76
 6693 07cc 00       		.sleb128 0
 6694 07cd 10       		.uleb128 0x10
 6695 07ce 01       		.uleb128 0x1
 6696 07cf 52       		.byte	0x52
 6697 07d0 01       		.uleb128 0x1
 6698 07d1 40       		.byte	0x40
 6699 07d2 00       		.byte	0
 6700 07d3 00       		.byte	0
 6701 07d4 08       		.uleb128 0x8
ARM GAS  C:\Users\Phuong\AppData\Local\Temp\ccyLHZOj.s 			page 161


 6702 07d5 2C000000 		.4byte	0x2c
 6703 07d9 E4070000 		.4byte	0x7e4
 6704 07dd 09       		.uleb128 0x9
 6705 07de 88000000 		.4byte	0x88
 6706 07e2 0F       		.byte	0xf
 6707 07e3 00       		.byte	0
 6708 07e4 11       		.uleb128 0x11
 6709 07e5 54040000 		.4byte	.LASF32
 6710 07e9 01       		.byte	0x1
 6711 07ea D304     		.2byte	0x4d3
 6712 07ec 68000000 		.4byte	0x68
 6713 07f0 00000000 		.4byte	.LFB12
 6714 07f4 8E000000 		.4byte	.LFE12-.LFB12
 6715 07f8 01       		.uleb128 0x1
 6716 07f9 9C       		.byte	0x9c
 6717 07fa D1080000 		.4byte	0x8d1
 6718 07fe 0E       		.uleb128 0xe
 6719 07ff 63747800 		.ascii	"ctx\000"
 6720 0803 01       		.byte	0x1
 6721 0804 D304     		.2byte	0x4d3
 6722 0806 BB010000 		.4byte	0x1bb
 6723 080a 50150000 		.4byte	.LLST62
 6724 080e 12       		.uleb128 0x12
 6725 080f 5A010000 		.4byte	.LASF28
 6726 0813 01       		.byte	0x1
 6727 0814 D404     		.2byte	0x4d4
 6728 0816 68000000 		.4byte	0x68
 6729 081a 6F150000 		.4byte	.LLST63
 6730 081e 12       		.uleb128 0x12
 6731 081f 1E010000 		.4byte	.LASF30
 6732 0823 01       		.byte	0x1
 6733 0824 D504     		.2byte	0x4d5
 6734 0826 76000000 		.4byte	0x76
 6735 082a 90150000 		.4byte	.LLST64
 6736 082e 12       		.uleb128 0x12
 6737 082f 20050000 		.4byte	.LASF33
 6738 0833 01       		.byte	0x1
 6739 0834 D604     		.2byte	0x4d6
 6740 0836 D1080000 		.4byte	0x8d1
 6741 083a FB150000 		.4byte	.LLST65
 6742 083e 18       		.uleb128 0x18
 6743 083f 697600   		.ascii	"iv\000"
 6744 0842 01       		.byte	0x1
 6745 0843 D704     		.2byte	0x4d7
 6746 0845 8F000000 		.4byte	0x8f
 6747 0849 02       		.uleb128 0x2
 6748 084a 91       		.byte	0x91
 6749 084b 00       		.sleb128 0
 6750 084c 12       		.uleb128 0x12
 6751 084d 69000000 		.4byte	.LASF22
 6752 0851 01       		.byte	0x1
 6753 0852 D804     		.2byte	0x4d8
 6754 0854 71020000 		.4byte	0x271
 6755 0858 24160000 		.4byte	.LLST66
 6756 085c 12       		.uleb128 0x12
 6757 085d 19050000 		.4byte	.LASF23
 6758 0861 01       		.byte	0x1
ARM GAS  C:\Users\Phuong\AppData\Local\Temp\ccyLHZOj.s 			page 162


 6759 0862 D904     		.2byte	0x4d9
 6760 0864 8F000000 		.4byte	0x8f
 6761 0868 73160000 		.4byte	.LLST67
 6762 086c 0B       		.uleb128 0xb
 6763 086d 6300     		.ascii	"c\000"
 6764 086f 01       		.byte	0x1
 6765 0870 DB04     		.2byte	0x4db
 6766 0872 68000000 		.4byte	0x68
 6767 0876 C2160000 		.4byte	.LLST68
 6768 087a 0B       		.uleb128 0xb
 6769 087b 6E00     		.ascii	"n\000"
 6770 087d 01       		.byte	0x1
 6771 087e DC04     		.2byte	0x4dc
 6772 0880 76000000 		.4byte	0x76
 6773 0884 DA160000 		.4byte	.LLST69
 6774 0888 16       		.uleb128 0x16
 6775 0889 2C000000 		.4byte	.LVL272
 6776 088d 00060000 		.4byte	0x600
 6777 0891 AE080000 		.4byte	0x8ae
 6778 0895 10       		.uleb128 0x10
 6779 0896 01       		.uleb128 0x1
 6780 0897 50       		.byte	0x50
 6781 0898 03       		.uleb128 0x3
 6782 0899 91       		.byte	0x91
 6783 089a 5C       		.sleb128 -36
 6784 089b 06       		.byte	0x6
 6785 089c 10       		.uleb128 0x10
 6786 089d 01       		.uleb128 0x1
 6787 089e 51       		.byte	0x51
 6788 089f 01       		.uleb128 0x1
 6789 08a0 31       		.byte	0x31
 6790 08a1 10       		.uleb128 0x10
 6791 08a2 01       		.uleb128 0x1
 6792 08a3 52       		.byte	0x52
 6793 08a4 02       		.uleb128 0x2
 6794 08a5 76       		.byte	0x76
 6795 08a6 00       		.sleb128 0
 6796 08a7 10       		.uleb128 0x10
 6797 08a8 01       		.uleb128 0x1
 6798 08a9 53       		.byte	0x53
 6799 08aa 02       		.uleb128 0x2
 6800 08ab 76       		.byte	0x76
 6801 08ac 00       		.sleb128 0
 6802 08ad 00       		.byte	0
 6803 08ae 0F       		.uleb128 0xf
 6804 08af 5E000000 		.4byte	.LVL280
 6805 08b3 00060000 		.4byte	0x600
 6806 08b7 10       		.uleb128 0x10
 6807 08b8 01       		.uleb128 0x1
 6808 08b9 50       		.byte	0x50
 6809 08ba 03       		.uleb128 0x3
 6810 08bb 91       		.byte	0x91
 6811 08bc 5C       		.sleb128 -36
 6812 08bd 06       		.byte	0x6
 6813 08be 10       		.uleb128 0x10
 6814 08bf 01       		.uleb128 0x1
 6815 08c0 51       		.byte	0x51
ARM GAS  C:\Users\Phuong\AppData\Local\Temp\ccyLHZOj.s 			page 163


 6816 08c1 01       		.uleb128 0x1
 6817 08c2 31       		.byte	0x31
 6818 08c3 10       		.uleb128 0x10
 6819 08c4 01       		.uleb128 0x1
 6820 08c5 52       		.byte	0x52
 6821 08c6 02       		.uleb128 0x2
 6822 08c7 76       		.byte	0x76
 6823 08c8 00       		.sleb128 0
 6824 08c9 10       		.uleb128 0x10
 6825 08ca 01       		.uleb128 0x1
 6826 08cb 53       		.byte	0x53
 6827 08cc 02       		.uleb128 0x2
 6828 08cd 76       		.byte	0x76
 6829 08ce 00       		.sleb128 0
 6830 08cf 00       		.byte	0
 6831 08d0 00       		.byte	0
 6832 08d1 05       		.uleb128 0x5
 6833 08d2 04       		.byte	0x4
 6834 08d3 76000000 		.4byte	0x76
 6835 08d7 11       		.uleb128 0x11
 6836 08d8 7B030000 		.4byte	.LASF34
 6837 08dc 01       		.byte	0x1
 6838 08dd 0105     		.2byte	0x501
 6839 08df 68000000 		.4byte	0x68
 6840 08e3 00000000 		.4byte	.LFB13
 6841 08e7 78000000 		.4byte	.LFE13-.LFB13
 6842 08eb 01       		.uleb128 0x1
 6843 08ec 9C       		.byte	0x9c
 6844 08ed CD090000 		.4byte	0x9cd
 6845 08f1 0E       		.uleb128 0xe
 6846 08f2 63747800 		.ascii	"ctx\000"
 6847 08f6 01       		.byte	0x1
 6848 08f7 0105     		.2byte	0x501
 6849 08f9 BB010000 		.4byte	0x1bb
 6850 08fd 29170000 		.4byte	.LLST70
 6851 0901 12       		.uleb128 0x12
 6852 0902 5A010000 		.4byte	.LASF28
 6853 0906 01       		.byte	0x1
 6854 0907 0205     		.2byte	0x502
 6855 0909 68000000 		.4byte	0x68
 6856 090d 48170000 		.4byte	.LLST71
 6857 0911 12       		.uleb128 0x12
 6858 0912 1E010000 		.4byte	.LASF30
 6859 0916 01       		.byte	0x1
 6860 0917 0305     		.2byte	0x503
 6861 0919 76000000 		.4byte	0x76
 6862 091d 74170000 		.4byte	.LLST72
 6863 0921 0E       		.uleb128 0xe
 6864 0922 697600   		.ascii	"iv\000"
 6865 0925 01       		.byte	0x1
 6866 0926 0405     		.2byte	0x504
 6867 0928 8F000000 		.4byte	0x8f
 6868 092c B3170000 		.4byte	.LLST73
 6869 0930 12       		.uleb128 0x12
 6870 0931 69000000 		.4byte	.LASF22
 6871 0935 01       		.byte	0x1
 6872 0936 0505     		.2byte	0x505
ARM GAS  C:\Users\Phuong\AppData\Local\Temp\ccyLHZOj.s 			page 164


 6873 0938 71020000 		.4byte	0x271
 6874 093c DF170000 		.4byte	.LLST74
 6875 0940 12       		.uleb128 0x12
 6876 0941 19050000 		.4byte	.LASF23
 6877 0945 01       		.byte	0x1
 6878 0946 0605     		.2byte	0x506
 6879 0948 8F000000 		.4byte	0x8f
 6880 094c 1F180000 		.4byte	.LLST75
 6881 0950 0B       		.uleb128 0xb
 6882 0951 6300     		.ascii	"c\000"
 6883 0953 01       		.byte	0x1
 6884 0954 0805     		.2byte	0x508
 6885 0956 2C000000 		.4byte	0x2c
 6886 095a 5F180000 		.4byte	.LLST76
 6887 095e 0C       		.uleb128 0xc
 6888 095f 6F7600   		.ascii	"ov\000"
 6889 0962 01       		.byte	0x1
 6890 0963 0905     		.2byte	0x509
 6891 0965 CD090000 		.4byte	0x9cd
 6892 0969 02       		.uleb128 0x2
 6893 096a 91       		.byte	0x91
 6894 096b 4C       		.sleb128 -52
 6895 096c 16       		.uleb128 0x16
 6896 096d 22000000 		.4byte	.LVL295
 6897 0971 DC160000 		.4byte	0x16dc
 6898 0975 8B090000 		.4byte	0x98b
 6899 0979 10       		.uleb128 0x10
 6900 097a 01       		.uleb128 0x1
 6901 097b 50       		.byte	0x50
 6902 097c 02       		.uleb128 0x2
 6903 097d 91       		.byte	0x91
 6904 097e 4C       		.sleb128 -52
 6905 097f 10       		.uleb128 0x10
 6906 0980 01       		.uleb128 0x1
 6907 0981 51       		.byte	0x51
 6908 0982 02       		.uleb128 0x2
 6909 0983 74       		.byte	0x74
 6910 0984 00       		.sleb128 0
 6911 0985 10       		.uleb128 0x10
 6912 0986 01       		.uleb128 0x1
 6913 0987 52       		.byte	0x52
 6914 0988 01       		.uleb128 0x1
 6915 0989 40       		.byte	0x40
 6916 098a 00       		.byte	0
 6917 098b 16       		.uleb128 0x16
 6918 098c 2E000000 		.4byte	.LVL296
 6919 0990 00060000 		.4byte	0x600
 6920 0994 B1090000 		.4byte	0x9b1
 6921 0998 10       		.uleb128 0x10
 6922 0999 01       		.uleb128 0x1
 6923 099a 50       		.byte	0x50
 6924 099b 03       		.uleb128 0x3
 6925 099c 91       		.byte	0x91
 6926 099d 44       		.sleb128 -60
 6927 099e 06       		.byte	0x6
 6928 099f 10       		.uleb128 0x10
 6929 09a0 01       		.uleb128 0x1
ARM GAS  C:\Users\Phuong\AppData\Local\Temp\ccyLHZOj.s 			page 165


 6930 09a1 51       		.byte	0x51
 6931 09a2 01       		.uleb128 0x1
 6932 09a3 31       		.byte	0x31
 6933 09a4 10       		.uleb128 0x10
 6934 09a5 01       		.uleb128 0x1
 6935 09a6 52       		.byte	0x52
 6936 09a7 02       		.uleb128 0x2
 6937 09a8 74       		.byte	0x74
 6938 09a9 00       		.sleb128 0
 6939 09aa 10       		.uleb128 0x10
 6940 09ab 01       		.uleb128 0x1
 6941 09ac 53       		.byte	0x53
 6942 09ad 02       		.uleb128 0x2
 6943 09ae 74       		.byte	0x74
 6944 09af 00       		.sleb128 0
 6945 09b0 00       		.byte	0
 6946 09b1 0F       		.uleb128 0xf
 6947 09b2 5C000000 		.4byte	.LVL303
 6948 09b6 DC160000 		.4byte	0x16dc
 6949 09ba 10       		.uleb128 0x10
 6950 09bb 01       		.uleb128 0x1
 6951 09bc 50       		.byte	0x50
 6952 09bd 02       		.uleb128 0x2
 6953 09be 74       		.byte	0x74
 6954 09bf 00       		.sleb128 0
 6955 09c0 10       		.uleb128 0x10
 6956 09c1 01       		.uleb128 0x1
 6957 09c2 51       		.byte	0x51
 6958 09c3 02       		.uleb128 0x2
 6959 09c4 91       		.byte	0x91
 6960 09c5 4D       		.sleb128 -51
 6961 09c6 10       		.uleb128 0x10
 6962 09c7 01       		.uleb128 0x1
 6963 09c8 52       		.byte	0x52
 6964 09c9 01       		.uleb128 0x1
 6965 09ca 40       		.byte	0x40
 6966 09cb 00       		.byte	0
 6967 09cc 00       		.byte	0
 6968 09cd 08       		.uleb128 0x8
 6969 09ce 2C000000 		.4byte	0x2c
 6970 09d2 DD090000 		.4byte	0x9dd
 6971 09d6 09       		.uleb128 0x9
 6972 09d7 88000000 		.4byte	0x88
 6973 09db 10       		.byte	0x10
 6974 09dc 00       		.byte	0
 6975 09dd 11       		.uleb128 0x11
 6976 09de 44010000 		.4byte	.LASF35
 6977 09e2 01       		.byte	0x1
 6978 09e3 2305     		.2byte	0x523
 6979 09e5 68000000 		.4byte	0x68
 6980 09e9 00000000 		.4byte	.LFB14
 6981 09ed 58000000 		.4byte	.LFE14-.LFB14
 6982 09f1 01       		.uleb128 0x1
 6983 09f2 9C       		.byte	0x9c
 6984 09f3 A30A0000 		.4byte	0xaa3
 6985 09f7 0E       		.uleb128 0xe
 6986 09f8 63747800 		.ascii	"ctx\000"
ARM GAS  C:\Users\Phuong\AppData\Local\Temp\ccyLHZOj.s 			page 166


 6987 09fc 01       		.byte	0x1
 6988 09fd 2305     		.2byte	0x523
 6989 09ff BB010000 		.4byte	0x1bb
 6990 0a03 72180000 		.4byte	.LLST77
 6991 0a07 12       		.uleb128 0x12
 6992 0a08 1E010000 		.4byte	.LASF30
 6993 0a0c 01       		.byte	0x1
 6994 0a0d 2405     		.2byte	0x524
 6995 0a0f 76000000 		.4byte	0x76
 6996 0a13 91180000 		.4byte	.LLST78
 6997 0a17 12       		.uleb128 0x12
 6998 0a18 20050000 		.4byte	.LASF33
 6999 0a1c 01       		.byte	0x1
 7000 0a1d 2505     		.2byte	0x525
 7001 0a1f D1080000 		.4byte	0x8d1
 7002 0a23 DB180000 		.4byte	.LLST79
 7003 0a27 0E       		.uleb128 0xe
 7004 0a28 697600   		.ascii	"iv\000"
 7005 0a2b 01       		.byte	0x1
 7006 0a2c 2605     		.2byte	0x526
 7007 0a2e 8F000000 		.4byte	0x8f
 7008 0a32 07190000 		.4byte	.LLST80
 7009 0a36 12       		.uleb128 0x12
 7010 0a37 69000000 		.4byte	.LASF22
 7011 0a3b 01       		.byte	0x1
 7012 0a3c 2705     		.2byte	0x527
 7013 0a3e 71020000 		.4byte	0x271
 7014 0a42 33190000 		.4byte	.LLST81
 7015 0a46 12       		.uleb128 0x12
 7016 0a47 19050000 		.4byte	.LASF23
 7017 0a4b 01       		.byte	0x1
 7018 0a4c 2805     		.2byte	0x528
 7019 0a4e 8F000000 		.4byte	0x8f
 7020 0a52 6A190000 		.4byte	.LLST82
 7021 0a56 0B       		.uleb128 0xb
 7022 0a57 72657400 		.ascii	"ret\000"
 7023 0a5b 01       		.byte	0x1
 7024 0a5c 2A05     		.2byte	0x52a
 7025 0a5e 68000000 		.4byte	0x68
 7026 0a62 A1190000 		.4byte	.LLST83
 7027 0a66 0B       		.uleb128 0xb
 7028 0a67 6E00     		.ascii	"n\000"
 7029 0a69 01       		.byte	0x1
 7030 0a6a 2B05     		.2byte	0x52b
 7031 0a6c 76000000 		.4byte	0x76
 7032 0a70 CB190000 		.4byte	.LLST84
 7033 0a74 15       		.uleb128 0x15
 7034 0a75 5E020000 		.4byte	.LASF36
 7035 0a79 01       		.byte	0x1
 7036 0a7a 3C05     		.2byte	0x53c
 7037 0a7c 4E000000 		.4byte	.L102
 7038 0a80 0F       		.uleb128 0xf
 7039 0a81 2A000000 		.4byte	.LVL317
 7040 0a85 00060000 		.4byte	0x600
 7041 0a89 10       		.uleb128 0x10
 7042 0a8a 01       		.uleb128 0x1
 7043 0a8b 50       		.byte	0x50
ARM GAS  C:\Users\Phuong\AppData\Local\Temp\ccyLHZOj.s 			page 167


 7044 0a8c 03       		.uleb128 0x3
 7045 0a8d 91       		.byte	0x91
 7046 0a8e 5C       		.sleb128 -36
 7047 0a8f 06       		.byte	0x6
 7048 0a90 10       		.uleb128 0x10
 7049 0a91 01       		.uleb128 0x1
 7050 0a92 51       		.byte	0x51
 7051 0a93 01       		.uleb128 0x1
 7052 0a94 31       		.byte	0x31
 7053 0a95 10       		.uleb128 0x10
 7054 0a96 01       		.uleb128 0x1
 7055 0a97 52       		.byte	0x52
 7056 0a98 02       		.uleb128 0x2
 7057 0a99 76       		.byte	0x76
 7058 0a9a 00       		.sleb128 0
 7059 0a9b 10       		.uleb128 0x10
 7060 0a9c 01       		.uleb128 0x1
 7061 0a9d 53       		.byte	0x53
 7062 0a9e 02       		.uleb128 0x2
 7063 0a9f 76       		.byte	0x76
 7064 0aa0 00       		.sleb128 0
 7065 0aa1 00       		.byte	0
 7066 0aa2 00       		.byte	0
 7067 0aa3 11       		.uleb128 0x11
 7068 0aa4 D7010000 		.4byte	.LASF37
 7069 0aa8 01       		.byte	0x1
 7070 0aa9 4505     		.2byte	0x545
 7071 0aab 68000000 		.4byte	0x68
 7072 0aaf 00000000 		.4byte	.LFB15
 7073 0ab3 82000000 		.4byte	.LFE15-.LFB15
 7074 0ab7 01       		.uleb128 0x1
 7075 0ab8 9C       		.byte	0x9c
 7076 0ab9 790B0000 		.4byte	0xb79
 7077 0abd 0E       		.uleb128 0xe
 7078 0abe 63747800 		.ascii	"ctx\000"
 7079 0ac2 01       		.byte	0x1
 7080 0ac3 4505     		.2byte	0x545
 7081 0ac5 BB010000 		.4byte	0x1bb
 7082 0ac9 F6190000 		.4byte	.LLST85
 7083 0acd 12       		.uleb128 0x12
 7084 0ace 1E010000 		.4byte	.LASF30
 7085 0ad2 01       		.byte	0x1
 7086 0ad3 4605     		.2byte	0x546
 7087 0ad5 76000000 		.4byte	0x76
 7088 0ad9 2C1A0000 		.4byte	.LLST86
 7089 0add 12       		.uleb128 0x12
 7090 0ade 74010000 		.4byte	.LASF38
 7091 0ae2 01       		.byte	0x1
 7092 0ae3 4705     		.2byte	0x547
 7093 0ae5 D1080000 		.4byte	0x8d1
 7094 0ae9 811A0000 		.4byte	.LLST87
 7095 0aed 12       		.uleb128 0x12
 7096 0aee 5F010000 		.4byte	.LASF39
 7097 0af2 01       		.byte	0x1
 7098 0af3 4805     		.2byte	0x548
 7099 0af5 8F000000 		.4byte	0x8f
 7100 0af9 C31A0000 		.4byte	.LLST88
ARM GAS  C:\Users\Phuong\AppData\Local\Temp\ccyLHZOj.s 			page 168


 7101 0afd 19       		.uleb128 0x19
 7102 0afe 6F000000 		.4byte	.LASF40
 7103 0b02 01       		.byte	0x1
 7104 0b03 4905     		.2byte	0x549
 7105 0b05 8F000000 		.4byte	0x8f
 7106 0b09 02       		.uleb128 0x2
 7107 0b0a 91       		.byte	0x91
 7108 0b0b 00       		.sleb128 0
 7109 0b0c 12       		.uleb128 0x12
 7110 0b0d 69000000 		.4byte	.LASF22
 7111 0b11 01       		.byte	0x1
 7112 0b12 4A05     		.2byte	0x54a
 7113 0b14 71020000 		.4byte	0x271
 7114 0b18 EF1A0000 		.4byte	.LLST89
 7115 0b1c 12       		.uleb128 0x12
 7116 0b1d 19050000 		.4byte	.LASF23
 7117 0b21 01       		.byte	0x1
 7118 0b22 4B05     		.2byte	0x54b
 7119 0b24 8F000000 		.4byte	0x8f
 7120 0b28 321B0000 		.4byte	.LLST90
 7121 0b2c 0B       		.uleb128 0xb
 7122 0b2d 6300     		.ascii	"c\000"
 7123 0b2f 01       		.byte	0x1
 7124 0b30 4D05     		.2byte	0x54d
 7125 0b32 68000000 		.4byte	0x68
 7126 0b36 751B0000 		.4byte	.LLST91
 7127 0b3a 0B       		.uleb128 0xb
 7128 0b3b 6900     		.ascii	"i\000"
 7129 0b3d 01       		.byte	0x1
 7130 0b3e 4D05     		.2byte	0x54d
 7131 0b40 68000000 		.4byte	0x68
 7132 0b44 8D1B0000 		.4byte	.LLST92
 7133 0b48 0B       		.uleb128 0xb
 7134 0b49 6E00     		.ascii	"n\000"
 7135 0b4b 01       		.byte	0x1
 7136 0b4c 4E05     		.2byte	0x54e
 7137 0b4e 76000000 		.4byte	0x76
 7138 0b52 AC1B0000 		.4byte	.LLST93
 7139 0b56 0F       		.uleb128 0xf
 7140 0b57 32000000 		.4byte	.LVL336
 7141 0b5b 00060000 		.4byte	0x600
 7142 0b5f 10       		.uleb128 0x10
 7143 0b60 01       		.uleb128 0x1
 7144 0b61 50       		.byte	0x50
 7145 0b62 03       		.uleb128 0x3
 7146 0b63 91       		.byte	0x91
 7147 0b64 5C       		.sleb128 -36
 7148 0b65 06       		.byte	0x6
 7149 0b66 10       		.uleb128 0x10
 7150 0b67 01       		.uleb128 0x1
 7151 0b68 51       		.byte	0x51
 7152 0b69 01       		.uleb128 0x1
 7153 0b6a 31       		.byte	0x31
 7154 0b6b 10       		.uleb128 0x10
 7155 0b6c 01       		.uleb128 0x1
 7156 0b6d 52       		.byte	0x52
 7157 0b6e 02       		.uleb128 0x2
ARM GAS  C:\Users\Phuong\AppData\Local\Temp\ccyLHZOj.s 			page 169


 7158 0b6f 77       		.byte	0x77
 7159 0b70 00       		.sleb128 0
 7160 0b71 10       		.uleb128 0x10
 7161 0b72 01       		.uleb128 0x1
 7162 0b73 53       		.byte	0x53
 7163 0b74 02       		.uleb128 0x2
 7164 0b75 7A       		.byte	0x7a
 7165 0b76 00       		.sleb128 0
 7166 0b77 00       		.byte	0
 7167 0b78 00       		.byte	0
 7168 0b79 11       		.uleb128 0x11
 7169 0b7a 81050000 		.4byte	.LASF41
 7170 0b7e 01       		.byte	0x1
 7171 0b7f A406     		.2byte	0x6a4
 7172 0b81 68000000 		.4byte	0x68
 7173 0b85 00000000 		.4byte	.LFB16
 7174 0b89 7C050000 		.4byte	.LFE16-.LFB16
 7175 0b8d 01       		.uleb128 0x1
 7176 0b8e 9C       		.byte	0x9c
 7177 0b8f 8C130000 		.4byte	0x138c
 7178 0b93 12       		.uleb128 0x12
 7179 0b94 7C000000 		.4byte	.LASF42
 7180 0b98 01       		.byte	0x1
 7181 0b99 A406     		.2byte	0x6a4
 7182 0b9b 68000000 		.4byte	0x68
 7183 0b9f D71B0000 		.4byte	.LLST94
 7184 0ba3 0B       		.uleb128 0xb
 7185 0ba4 72657400 		.ascii	"ret\000"
 7186 0ba8 01       		.byte	0x1
 7187 0ba9 A606     		.2byte	0x6a6
 7188 0bab 68000000 		.4byte	0x68
 7189 0baf 791D0000 		.4byte	.LLST95
 7190 0bb3 0B       		.uleb128 0xb
 7191 0bb4 6900     		.ascii	"i\000"
 7192 0bb6 01       		.byte	0x1
 7193 0bb7 A606     		.2byte	0x6a6
 7194 0bb9 68000000 		.4byte	0x68
 7195 0bbd 451F0000 		.4byte	.LLST96
 7196 0bc1 0B       		.uleb128 0xb
 7197 0bc2 6A00     		.ascii	"j\000"
 7198 0bc4 01       		.byte	0x1
 7199 0bc5 A606     		.2byte	0x6a6
 7200 0bc7 68000000 		.4byte	0x68
 7201 0bcb F31F0000 		.4byte	.LLST97
 7202 0bcf 0B       		.uleb128 0xb
 7203 0bd0 7500     		.ascii	"u\000"
 7204 0bd2 01       		.byte	0x1
 7205 0bd3 A606     		.2byte	0x6a6
 7206 0bd5 68000000 		.4byte	0x68
 7207 0bd9 27200000 		.4byte	.LLST98
 7208 0bdd 1A       		.uleb128 0x1a
 7209 0bde 5A010000 		.4byte	.LASF28
 7210 0be2 01       		.byte	0x1
 7211 0be3 A606     		.2byte	0x6a6
 7212 0be5 68000000 		.4byte	0x68
 7213 0be9 7E210000 		.4byte	.LLST99
 7214 0bed 1A       		.uleb128 0x1a
ARM GAS  C:\Users\Phuong\AppData\Local\Temp\ccyLHZOj.s 			page 170


 7215 0bee 79050000 		.4byte	.LASF18
 7216 0bf2 01       		.byte	0x1
 7217 0bf3 A706     		.2byte	0x6a7
 7218 0bf5 6F000000 		.4byte	0x6f
 7219 0bf9 57220000 		.4byte	.LLST100
 7220 0bfd 0C       		.uleb128 0xc
 7221 0bfe 6B657900 		.ascii	"key\000"
 7222 0c02 01       		.byte	0x1
 7223 0c03 A806     		.2byte	0x6a8
 7224 0c05 8C130000 		.4byte	0x138c
 7225 0c09 03       		.uleb128 0x3
 7226 0c0a 91       		.byte	0x91
 7227 0c0b B87F     		.sleb128 -72
 7228 0c0d 0C       		.uleb128 0xc
 7229 0c0e 62756600 		.ascii	"buf\000"
 7230 0c12 01       		.byte	0x1
 7231 0c13 A906     		.2byte	0x6a9
 7232 0c15 9C130000 		.4byte	0x139c
 7233 0c19 03       		.uleb128 0x3
 7234 0c1a 91       		.byte	0x91
 7235 0c1b F87E     		.sleb128 -136
 7236 0c1d 1A       		.uleb128 0x1a
 7237 0c1e 54020000 		.4byte	.LASF43
 7238 0c22 01       		.byte	0x1
 7239 0c23 AA06     		.2byte	0x6aa
 7240 0c25 71020000 		.4byte	0x271
 7241 0c29 14230000 		.4byte	.LLST101
 7242 0c2d 0C       		.uleb128 0xc
 7243 0c2e 697600   		.ascii	"iv\000"
 7244 0c31 01       		.byte	0x1
 7245 0c32 AC06     		.2byte	0x6ac
 7246 0c34 D4070000 		.4byte	0x7d4
 7247 0c38 03       		.uleb128 0x3
 7248 0c39 91       		.byte	0x91
 7249 0c3a E87E     		.sleb128 -152
 7250 0c3c 0C       		.uleb128 0xc
 7251 0c3d 70727600 		.ascii	"prv\000"
 7252 0c41 01       		.byte	0x1
 7253 0c42 AF06     		.2byte	0x6af
 7254 0c44 D4070000 		.4byte	0x7d4
 7255 0c48 03       		.uleb128 0x3
 7256 0c49 91       		.byte	0x91
 7257 0c4a D87E     		.sleb128 -168
 7258 0c4c 17       		.uleb128 0x17
 7259 0c4d 0E020000 		.4byte	.LASF44
 7260 0c51 01       		.byte	0x1
 7261 0c52 B306     		.2byte	0x6b3
 7262 0c54 76000000 		.4byte	0x76
 7263 0c58 03       		.uleb128 0x3
 7264 0c59 91       		.byte	0x91
 7265 0c5a D47E     		.sleb128 -172
 7266 0c5c 0B       		.uleb128 0xb
 7267 0c5d 6C656E00 		.ascii	"len\000"
 7268 0c61 01       		.byte	0x1
 7269 0c62 B606     		.2byte	0x6b6
 7270 0c64 68000000 		.4byte	0x68
 7271 0c68 B5230000 		.4byte	.LLST102
ARM GAS  C:\Users\Phuong\AppData\Local\Temp\ccyLHZOj.s 			page 171


 7272 0c6c 17       		.uleb128 0x17
 7273 0c6d 5F010000 		.4byte	.LASF39
 7274 0c71 01       		.byte	0x1
 7275 0c72 B906     		.2byte	0x6b9
 7276 0c74 D4070000 		.4byte	0x7d4
 7277 0c78 03       		.uleb128 0x3
 7278 0c79 91       		.byte	0x91
 7279 0c7a C47E     		.sleb128 -188
 7280 0c7c 17       		.uleb128 0x17
 7281 0c7d 6F000000 		.4byte	.LASF40
 7282 0c81 01       		.byte	0x1
 7283 0c82 BA06     		.2byte	0x6ba
 7284 0c84 D4070000 		.4byte	0x7d4
 7285 0c88 03       		.uleb128 0x3
 7286 0c89 91       		.byte	0x91
 7287 0c8a B47E     		.sleb128 -204
 7288 0c8c 0C       		.uleb128 0xc
 7289 0c8d 63747800 		.ascii	"ctx\000"
 7290 0c91 01       		.byte	0x1
 7291 0c92 BC06     		.2byte	0x6bc
 7292 0c94 ED000000 		.4byte	0xed
 7293 0c98 03       		.uleb128 0x3
 7294 0c99 91       		.byte	0x91
 7295 0c9a 9C7C     		.sleb128 -484
 7296 0c9c 15       		.uleb128 0x15
 7297 0c9d 5E020000 		.4byte	.LASF36
 7298 0ca1 01       		.byte	0x1
 7299 0ca2 4008     		.2byte	0x840
 7300 0ca4 2E050000 		.4byte	.L120
 7301 0ca8 1B       		.uleb128 0x1b
 7302 0ca9 8C010000 		.4byte	.LBB2
 7303 0cad 28000000 		.4byte	.LBE2-.LBB2
 7304 0cb1 E20C0000 		.4byte	0xce2
 7305 0cb5 0C       		.uleb128 0xc
 7306 0cb6 746D7000 		.ascii	"tmp\000"
 7307 0cba 01       		.byte	0x1
 7308 0cbb 2E07     		.2byte	0x72e
 7309 0cbd D4070000 		.4byte	0x7d4
 7310 0cc1 03       		.uleb128 0x3
 7311 0cc2 91       		.byte	0x91
 7312 0cc3 8C7C     		.sleb128 -500
 7313 0cc5 0F       		.uleb128 0xf
 7314 0cc6 AA010000 		.4byte	.LVL415
 7315 0cca DC160000 		.4byte	0x16dc
 7316 0cce 10       		.uleb128 0x10
 7317 0ccf 01       		.uleb128 0x1
 7318 0cd0 50       		.byte	0x50
 7319 0cd1 03       		.uleb128 0x3
 7320 0cd2 91       		.byte	0x91
 7321 0cd3 D87E     		.sleb128 -168
 7322 0cd5 10       		.uleb128 0x10
 7323 0cd6 01       		.uleb128 0x1
 7324 0cd7 51       		.byte	0x51
 7325 0cd8 02       		.uleb128 0x2
 7326 0cd9 78       		.byte	0x78
 7327 0cda 00       		.sleb128 0
 7328 0cdb 10       		.uleb128 0x10
ARM GAS  C:\Users\Phuong\AppData\Local\Temp\ccyLHZOj.s 			page 172


 7329 0cdc 01       		.uleb128 0x1
 7330 0cdd 52       		.byte	0x52
 7331 0cde 01       		.uleb128 0x1
 7332 0cdf 40       		.byte	0x40
 7333 0ce0 00       		.byte	0
 7334 0ce1 00       		.byte	0
 7335 0ce2 16       		.uleb128 0x16
 7336 0ce3 1A000000 		.4byte	.LVL356
 7337 0ce7 C8160000 		.4byte	0x16c8
 7338 0ceb 020D0000 		.4byte	0xd02
 7339 0cef 10       		.uleb128 0x10
 7340 0cf0 01       		.uleb128 0x1
 7341 0cf1 50       		.byte	0x50
 7342 0cf2 03       		.uleb128 0x3
 7343 0cf3 91       		.byte	0x91
 7344 0cf4 B87F     		.sleb128 -72
 7345 0cf6 10       		.uleb128 0x10
 7346 0cf7 01       		.uleb128 0x1
 7347 0cf8 51       		.byte	0x51
 7348 0cf9 01       		.uleb128 0x1
 7349 0cfa 30       		.byte	0x30
 7350 0cfb 10       		.uleb128 0x10
 7351 0cfc 01       		.uleb128 0x1
 7352 0cfd 52       		.byte	0x52
 7353 0cfe 02       		.uleb128 0x2
 7354 0cff 08       		.byte	0x8
 7355 0d00 20       		.byte	0x20
 7356 0d01 00       		.byte	0
 7357 0d02 16       		.uleb128 0x16
 7358 0d03 20000000 		.4byte	.LVL357
 7359 0d07 77010000 		.4byte	0x177
 7360 0d0b 170D0000 		.4byte	0xd17
 7361 0d0f 10       		.uleb128 0x10
 7362 0d10 01       		.uleb128 0x1
 7363 0d11 50       		.byte	0x50
 7364 0d12 03       		.uleb128 0x3
 7365 0d13 91       		.byte	0x91
 7366 0d14 9C7C     		.sleb128 -484
 7367 0d16 00       		.byte	0
 7368 0d17 16       		.uleb128 0x16
 7369 0d18 4C000000 		.4byte	.LVL364
 7370 0d1c E5160000 		.4byte	0x16e5
 7371 0d20 340D0000 		.4byte	0xd34
 7372 0d24 10       		.uleb128 0x10
 7373 0d25 01       		.uleb128 0x1
 7374 0d26 50       		.byte	0x50
 7375 0d27 05       		.uleb128 0x5
 7376 0d28 03       		.byte	0x3
 7377 0d29 08000000 		.4byte	.LC32
 7378 0d2d 10       		.uleb128 0x10
 7379 0d2e 01       		.uleb128 0x1
 7380 0d2f 51       		.byte	0x51
 7381 0d30 02       		.uleb128 0x2
 7382 0d31 77       		.byte	0x77
 7383 0d32 00       		.sleb128 0
 7384 0d33 00       		.byte	0
 7385 0d34 16       		.uleb128 0x16
ARM GAS  C:\Users\Phuong\AppData\Local\Temp\ccyLHZOj.s 			page 173


 7386 0d35 56000000 		.4byte	.LVL365
 7387 0d39 C8160000 		.4byte	0x16c8
 7388 0d3d 530D0000 		.4byte	0xd53
 7389 0d41 10       		.uleb128 0x10
 7390 0d42 01       		.uleb128 0x1
 7391 0d43 50       		.byte	0x50
 7392 0d44 03       		.uleb128 0x3
 7393 0d45 91       		.byte	0x91
 7394 0d46 F87E     		.sleb128 -136
 7395 0d48 10       		.uleb128 0x10
 7396 0d49 01       		.uleb128 0x1
 7397 0d4a 51       		.byte	0x51
 7398 0d4b 01       		.uleb128 0x1
 7399 0d4c 30       		.byte	0x30
 7400 0d4d 10       		.uleb128 0x10
 7401 0d4e 01       		.uleb128 0x1
 7402 0d4f 52       		.byte	0x52
 7403 0d50 01       		.uleb128 0x1
 7404 0d51 40       		.byte	0x40
 7405 0d52 00       		.byte	0
 7406 0d53 16       		.uleb128 0x16
 7407 0d54 64000000 		.4byte	.LVL366
 7408 0d58 7C020000 		.4byte	0x27c
 7409 0d5c 750D0000 		.4byte	0xd75
 7410 0d60 10       		.uleb128 0x10
 7411 0d61 01       		.uleb128 0x1
 7412 0d62 50       		.byte	0x50
 7413 0d63 03       		.uleb128 0x3
 7414 0d64 91       		.byte	0x91
 7415 0d65 9C7C     		.sleb128 -484
 7416 0d67 10       		.uleb128 0x10
 7417 0d68 01       		.uleb128 0x1
 7418 0d69 51       		.byte	0x51
 7419 0d6a 03       		.uleb128 0x3
 7420 0d6b 91       		.byte	0x91
 7421 0d6c B87F     		.sleb128 -72
 7422 0d6e 10       		.uleb128 0x10
 7423 0d6f 01       		.uleb128 0x1
 7424 0d70 52       		.byte	0x52
 7425 0d71 02       		.uleb128 0x2
 7426 0d72 77       		.byte	0x77
 7427 0d73 00       		.sleb128 0
 7428 0d74 00       		.byte	0
 7429 0d75 16       		.uleb128 0x16
 7430 0d76 7A000000 		.4byte	.LVL371
 7431 0d7a 00020000 		.4byte	0x200
 7432 0d7e 970D0000 		.4byte	0xd97
 7433 0d82 10       		.uleb128 0x10
 7434 0d83 01       		.uleb128 0x1
 7435 0d84 50       		.byte	0x50
 7436 0d85 03       		.uleb128 0x3
 7437 0d86 91       		.byte	0x91
 7438 0d87 9C7C     		.sleb128 -484
 7439 0d89 10       		.uleb128 0x10
 7440 0d8a 01       		.uleb128 0x1
 7441 0d8b 51       		.byte	0x51
 7442 0d8c 03       		.uleb128 0x3
ARM GAS  C:\Users\Phuong\AppData\Local\Temp\ccyLHZOj.s 			page 174


 7443 0d8d 91       		.byte	0x91
 7444 0d8e B87F     		.sleb128 -72
 7445 0d90 10       		.uleb128 0x10
 7446 0d91 01       		.uleb128 0x1
 7447 0d92 52       		.byte	0x52
 7448 0d93 02       		.uleb128 0x2
 7449 0d94 77       		.byte	0x77
 7450 0d95 00       		.sleb128 0
 7451 0d96 00       		.byte	0
 7452 0d97 16       		.uleb128 0x16
 7453 0d98 96000000 		.4byte	.LVL376
 7454 0d9c F0160000 		.4byte	0x16f0
 7455 0da0 AE0D0000 		.4byte	0xdae
 7456 0da4 10       		.uleb128 0x10
 7457 0da5 01       		.uleb128 0x1
 7458 0da6 50       		.byte	0x50
 7459 0da7 05       		.uleb128 0x5
 7460 0da8 03       		.byte	0x3
 7461 0da9 20000000 		.4byte	.LC35
 7462 0dad 00       		.byte	0
 7463 0dae 16       		.uleb128 0x16
 7464 0daf AE000000 		.4byte	.LVL380
 7465 0db3 00060000 		.4byte	0x600
 7466 0db7 D70D0000 		.4byte	0xdd7
 7467 0dbb 10       		.uleb128 0x10
 7468 0dbc 01       		.uleb128 0x1
 7469 0dbd 50       		.byte	0x50
 7470 0dbe 03       		.uleb128 0x3
 7471 0dbf 91       		.byte	0x91
 7472 0dc0 9C7C     		.sleb128 -484
 7473 0dc2 10       		.uleb128 0x10
 7474 0dc3 01       		.uleb128 0x1
 7475 0dc4 51       		.byte	0x51
 7476 0dc5 02       		.uleb128 0x2
 7477 0dc6 76       		.byte	0x76
 7478 0dc7 00       		.sleb128 0
 7479 0dc8 10       		.uleb128 0x10
 7480 0dc9 01       		.uleb128 0x1
 7481 0dca 52       		.byte	0x52
 7482 0dcb 03       		.uleb128 0x3
 7483 0dcc 91       		.byte	0x91
 7484 0dcd F87E     		.sleb128 -136
 7485 0dcf 10       		.uleb128 0x10
 7486 0dd0 01       		.uleb128 0x1
 7487 0dd1 53       		.byte	0x53
 7488 0dd2 03       		.uleb128 0x3
 7489 0dd3 91       		.byte	0x91
 7490 0dd4 F87E     		.sleb128 -136
 7491 0dd6 00       		.byte	0
 7492 0dd7 16       		.uleb128 0x16
 7493 0dd8 C6000000 		.4byte	.LVL384
 7494 0ddc FF160000 		.4byte	0x16ff
 7495 0de0 F70D0000 		.4byte	0xdf7
 7496 0de4 10       		.uleb128 0x10
 7497 0de5 01       		.uleb128 0x1
 7498 0de6 50       		.byte	0x50
 7499 0de7 03       		.uleb128 0x3
ARM GAS  C:\Users\Phuong\AppData\Local\Temp\ccyLHZOj.s 			page 175


 7500 0de8 91       		.byte	0x91
 7501 0de9 F87E     		.sleb128 -136
 7502 0deb 10       		.uleb128 0x10
 7503 0dec 01       		.uleb128 0x1
 7504 0ded 51       		.byte	0x51
 7505 0dee 02       		.uleb128 0x2
 7506 0def 78       		.byte	0x78
 7507 0df0 00       		.sleb128 0
 7508 0df1 10       		.uleb128 0x10
 7509 0df2 01       		.uleb128 0x1
 7510 0df3 52       		.byte	0x52
 7511 0df4 01       		.uleb128 0x1
 7512 0df5 40       		.byte	0x40
 7513 0df6 00       		.byte	0
 7514 0df7 16       		.uleb128 0x16
 7515 0df8 D8000000 		.4byte	.LVL386
 7516 0dfc F0160000 		.4byte	0x16f0
 7517 0e00 0E0E0000 		.4byte	0xe0e
 7518 0e04 10       		.uleb128 0x10
 7519 0e05 01       		.uleb128 0x1
 7520 0e06 50       		.byte	0x50
 7521 0e07 05       		.uleb128 0x5
 7522 0e08 03       		.byte	0x3
 7523 0e09 28000000 		.4byte	.LC37
 7524 0e0d 00       		.byte	0
 7525 0e0e 16       		.uleb128 0x16
 7526 0e0f F0000000 		.4byte	.LVL389
 7527 0e13 0A170000 		.4byte	0x170a
 7528 0e17 210E0000 		.4byte	0xe21
 7529 0e1b 10       		.uleb128 0x10
 7530 0e1c 01       		.uleb128 0x1
 7531 0e1d 50       		.byte	0x50
 7532 0e1e 01       		.uleb128 0x1
 7533 0e1f 3A       		.byte	0x3a
 7534 0e20 00       		.byte	0
 7535 0e21 16       		.uleb128 0x16
 7536 0e22 1C010000 		.4byte	.LVL396
 7537 0e26 E5160000 		.4byte	0x16e5
 7538 0e2a 3E0E0000 		.4byte	0xe3e
 7539 0e2e 10       		.uleb128 0x10
 7540 0e2f 01       		.uleb128 0x1
 7541 0e30 50       		.byte	0x50
 7542 0e31 05       		.uleb128 0x5
 7543 0e32 03       		.byte	0x3
 7544 0e33 30000000 		.4byte	.LC39
 7545 0e37 10       		.uleb128 0x10
 7546 0e38 01       		.uleb128 0x1
 7547 0e39 51       		.byte	0x51
 7548 0e3a 02       		.uleb128 0x2
 7549 0e3b 76       		.byte	0x76
 7550 0e3c 00       		.sleb128 0
 7551 0e3d 00       		.byte	0
 7552 0e3e 16       		.uleb128 0x16
 7553 0e3f 26010000 		.4byte	.LVL397
 7554 0e43 C8160000 		.4byte	0x16c8
 7555 0e47 5D0E0000 		.4byte	0xe5d
 7556 0e4b 10       		.uleb128 0x10
ARM GAS  C:\Users\Phuong\AppData\Local\Temp\ccyLHZOj.s 			page 176


 7557 0e4c 01       		.uleb128 0x1
 7558 0e4d 50       		.byte	0x50
 7559 0e4e 03       		.uleb128 0x3
 7560 0e4f 91       		.byte	0x91
 7561 0e50 E87E     		.sleb128 -152
 7562 0e52 10       		.uleb128 0x10
 7563 0e53 01       		.uleb128 0x1
 7564 0e54 51       		.byte	0x51
 7565 0e55 01       		.uleb128 0x1
 7566 0e56 30       		.byte	0x30
 7567 0e57 10       		.uleb128 0x10
 7568 0e58 01       		.uleb128 0x1
 7569 0e59 52       		.byte	0x52
 7570 0e5a 01       		.uleb128 0x1
 7571 0e5b 40       		.byte	0x40
 7572 0e5c 00       		.byte	0
 7573 0e5d 16       		.uleb128 0x16
 7574 0e5e 30010000 		.4byte	.LVL398
 7575 0e62 C8160000 		.4byte	0x16c8
 7576 0e66 7C0E0000 		.4byte	0xe7c
 7577 0e6a 10       		.uleb128 0x10
 7578 0e6b 01       		.uleb128 0x1
 7579 0e6c 50       		.byte	0x50
 7580 0e6d 03       		.uleb128 0x3
 7581 0e6e 91       		.byte	0x91
 7582 0e6f D87E     		.sleb128 -168
 7583 0e71 10       		.uleb128 0x10
 7584 0e72 01       		.uleb128 0x1
 7585 0e73 51       		.byte	0x51
 7586 0e74 01       		.uleb128 0x1
 7587 0e75 30       		.byte	0x30
 7588 0e76 10       		.uleb128 0x10
 7589 0e77 01       		.uleb128 0x1
 7590 0e78 52       		.byte	0x52
 7591 0e79 01       		.uleb128 0x1
 7592 0e7a 40       		.byte	0x40
 7593 0e7b 00       		.byte	0
 7594 0e7c 16       		.uleb128 0x16
 7595 0e7d 3A010000 		.4byte	.LVL399
 7596 0e81 C8160000 		.4byte	0x16c8
 7597 0e85 9B0E0000 		.4byte	0xe9b
 7598 0e89 10       		.uleb128 0x10
 7599 0e8a 01       		.uleb128 0x1
 7600 0e8b 50       		.byte	0x50
 7601 0e8c 03       		.uleb128 0x3
 7602 0e8d 91       		.byte	0x91
 7603 0e8e F87E     		.sleb128 -136
 7604 0e90 10       		.uleb128 0x10
 7605 0e91 01       		.uleb128 0x1
 7606 0e92 51       		.byte	0x51
 7607 0e93 01       		.uleb128 0x1
 7608 0e94 30       		.byte	0x30
 7609 0e95 10       		.uleb128 0x10
 7610 0e96 01       		.uleb128 0x1
 7611 0e97 52       		.byte	0x52
 7612 0e98 01       		.uleb128 0x1
 7613 0e99 40       		.byte	0x40
ARM GAS  C:\Users\Phuong\AppData\Local\Temp\ccyLHZOj.s 			page 177


 7614 0e9a 00       		.byte	0
 7615 0e9b 16       		.uleb128 0x16
 7616 0e9c 48010000 		.4byte	.LVL400
 7617 0ea0 7C020000 		.4byte	0x27c
 7618 0ea4 BD0E0000 		.4byte	0xebd
 7619 0ea8 10       		.uleb128 0x10
 7620 0ea9 01       		.uleb128 0x1
 7621 0eaa 50       		.byte	0x50
 7622 0eab 03       		.uleb128 0x3
 7623 0eac 91       		.byte	0x91
 7624 0ead 9C7C     		.sleb128 -484
 7625 0eaf 10       		.uleb128 0x10
 7626 0eb0 01       		.uleb128 0x1
 7627 0eb1 51       		.byte	0x51
 7628 0eb2 03       		.uleb128 0x3
 7629 0eb3 91       		.byte	0x91
 7630 0eb4 B87F     		.sleb128 -72
 7631 0eb6 10       		.uleb128 0x10
 7632 0eb7 01       		.uleb128 0x1
 7633 0eb8 52       		.byte	0x52
 7634 0eb9 02       		.uleb128 0x2
 7635 0eba 76       		.byte	0x76
 7636 0ebb 00       		.sleb128 0
 7637 0ebc 00       		.byte	0
 7638 0ebd 16       		.uleb128 0x16
 7639 0ebe 60010000 		.4byte	.LVL405
 7640 0ec2 00020000 		.4byte	0x200
 7641 0ec6 DF0E0000 		.4byte	0xedf
 7642 0eca 10       		.uleb128 0x10
 7643 0ecb 01       		.uleb128 0x1
 7644 0ecc 50       		.byte	0x50
 7645 0ecd 03       		.uleb128 0x3
 7646 0ece 91       		.byte	0x91
 7647 0ecf 9C7C     		.sleb128 -484
 7648 0ed1 10       		.uleb128 0x10
 7649 0ed2 01       		.uleb128 0x1
 7650 0ed3 51       		.byte	0x51
 7651 0ed4 03       		.uleb128 0x3
 7652 0ed5 91       		.byte	0x91
 7653 0ed6 B87F     		.sleb128 -72
 7654 0ed8 10       		.uleb128 0x10
 7655 0ed9 01       		.uleb128 0x1
 7656 0eda 52       		.byte	0x52
 7657 0edb 02       		.uleb128 0x2
 7658 0edc 76       		.byte	0x76
 7659 0edd 00       		.sleb128 0
 7660 0ede 00       		.byte	0
 7661 0edf 16       		.uleb128 0x16
 7662 0ee0 7C010000 		.4byte	.LVL410
 7663 0ee4 F0160000 		.4byte	0x16f0
 7664 0ee8 F60E0000 		.4byte	0xef6
 7665 0eec 10       		.uleb128 0x10
 7666 0eed 01       		.uleb128 0x1
 7667 0eee 50       		.byte	0x50
 7668 0eef 05       		.uleb128 0x5
 7669 0ef0 03       		.byte	0x3
 7670 0ef1 20000000 		.4byte	.LC35
ARM GAS  C:\Users\Phuong\AppData\Local\Temp\ccyLHZOj.s 			page 178


 7671 0ef5 00       		.byte	0
 7672 0ef6 16       		.uleb128 0x16
 7673 0ef7 C6010000 		.4byte	.LVL416
 7674 0efb 94060000 		.4byte	0x694
 7675 0eff 2D0F0000 		.4byte	0xf2d
 7676 0f03 10       		.uleb128 0x10
 7677 0f04 01       		.uleb128 0x1
 7678 0f05 50       		.byte	0x50
 7679 0f06 03       		.uleb128 0x3
 7680 0f07 91       		.byte	0x91
 7681 0f08 9C7C     		.sleb128 -484
 7682 0f0a 10       		.uleb128 0x10
 7683 0f0b 01       		.uleb128 0x1
 7684 0f0c 51       		.byte	0x51
 7685 0f0d 02       		.uleb128 0x2
 7686 0f0e 77       		.byte	0x77
 7687 0f0f 00       		.sleb128 0
 7688 0f10 10       		.uleb128 0x10
 7689 0f11 01       		.uleb128 0x1
 7690 0f12 52       		.byte	0x52
 7691 0f13 01       		.uleb128 0x1
 7692 0f14 40       		.byte	0x40
 7693 0f15 10       		.uleb128 0x10
 7694 0f16 01       		.uleb128 0x1
 7695 0f17 53       		.byte	0x53
 7696 0f18 03       		.uleb128 0x3
 7697 0f19 91       		.byte	0x91
 7698 0f1a E87E     		.sleb128 -152
 7699 0f1c 10       		.uleb128 0x10
 7700 0f1d 02       		.uleb128 0x2
 7701 0f1e 7D       		.byte	0x7d
 7702 0f1f 00       		.sleb128 0
 7703 0f20 03       		.uleb128 0x3
 7704 0f21 91       		.byte	0x91
 7705 0f22 F87E     		.sleb128 -136
 7706 0f24 10       		.uleb128 0x10
 7707 0f25 02       		.uleb128 0x2
 7708 0f26 7D       		.byte	0x7d
 7709 0f27 04       		.sleb128 4
 7710 0f28 03       		.uleb128 0x3
 7711 0f29 91       		.byte	0x91
 7712 0f2a F87E     		.sleb128 -136
 7713 0f2c 00       		.byte	0
 7714 0f2d 16       		.uleb128 0x16
 7715 0f2e DE010000 		.4byte	.LVL420
 7716 0f32 FF160000 		.4byte	0x16ff
 7717 0f36 4D0F0000 		.4byte	0xf4d
 7718 0f3a 10       		.uleb128 0x10
 7719 0f3b 01       		.uleb128 0x1
 7720 0f3c 50       		.byte	0x50
 7721 0f3d 03       		.uleb128 0x3
 7722 0f3e 91       		.byte	0x91
 7723 0f3f F87E     		.sleb128 -136
 7724 0f41 10       		.uleb128 0x10
 7725 0f42 01       		.uleb128 0x1
 7726 0f43 51       		.byte	0x51
 7727 0f44 02       		.uleb128 0x2
ARM GAS  C:\Users\Phuong\AppData\Local\Temp\ccyLHZOj.s 			page 179


 7728 0f45 79       		.byte	0x79
 7729 0f46 00       		.sleb128 0
 7730 0f47 10       		.uleb128 0x10
 7731 0f48 01       		.uleb128 0x1
 7732 0f49 52       		.byte	0x52
 7733 0f4a 01       		.uleb128 0x1
 7734 0f4b 40       		.byte	0x40
 7735 0f4c 00       		.byte	0
 7736 0f4d 16       		.uleb128 0x16
 7737 0f4e F0010000 		.4byte	.LVL422
 7738 0f52 F0160000 		.4byte	0x16f0
 7739 0f56 640F0000 		.4byte	0xf64
 7740 0f5a 10       		.uleb128 0x10
 7741 0f5b 01       		.uleb128 0x1
 7742 0f5c 50       		.byte	0x50
 7743 0f5d 05       		.uleb128 0x5
 7744 0f5e 03       		.byte	0x3
 7745 0f5f 28000000 		.4byte	.LC37
 7746 0f63 00       		.byte	0
 7747 0f64 16       		.uleb128 0x16
 7748 0f65 0A020000 		.4byte	.LVL425
 7749 0f69 0A170000 		.4byte	0x170a
 7750 0f6d 770F0000 		.4byte	0xf77
 7751 0f71 10       		.uleb128 0x10
 7752 0f72 01       		.uleb128 0x1
 7753 0f73 50       		.byte	0x50
 7754 0f74 01       		.uleb128 0x1
 7755 0f75 3A       		.byte	0x3a
 7756 0f76 00       		.byte	0
 7757 0f77 16       		.uleb128 0x16
 7758 0f78 38020000 		.4byte	.LVL433
 7759 0f7c E5160000 		.4byte	0x16e5
 7760 0f80 940F0000 		.4byte	0xf94
 7761 0f84 10       		.uleb128 0x10
 7762 0f85 01       		.uleb128 0x1
 7763 0f86 50       		.byte	0x50
 7764 0f87 05       		.uleb128 0x5
 7765 0f88 03       		.byte	0x3
 7766 0f89 48000000 		.4byte	.LC42
 7767 0f8d 10       		.uleb128 0x10
 7768 0f8e 01       		.uleb128 0x1
 7769 0f8f 51       		.byte	0x51
 7770 0f90 02       		.uleb128 0x2
 7771 0f91 79       		.byte	0x79
 7772 0f92 00       		.sleb128 0
 7773 0f93 00       		.byte	0
 7774 0f94 16       		.uleb128 0x16
 7775 0f95 58020000 		.4byte	.LVL434
 7776 0f99 DC160000 		.4byte	0x16dc
 7777 0f9d BF0F0000 		.4byte	0xfbf
 7778 0fa1 10       		.uleb128 0x10
 7779 0fa2 01       		.uleb128 0x1
 7780 0fa3 50       		.byte	0x50
 7781 0fa4 03       		.uleb128 0x3
 7782 0fa5 91       		.byte	0x91
 7783 0fa6 B87F     		.sleb128 -72
 7784 0fa8 10       		.uleb128 0x10
ARM GAS  C:\Users\Phuong\AppData\Local\Temp\ccyLHZOj.s 			page 180


 7785 0fa9 01       		.uleb128 0x1
 7786 0faa 51       		.byte	0x51
 7787 0fab 0A       		.uleb128 0xa
 7788 0fac 74       		.byte	0x74
 7789 0fad 00       		.sleb128 0
 7790 0fae 35       		.byte	0x35
 7791 0faf 24       		.byte	0x24
 7792 0fb0 03       		.byte	0x3
 7793 0fb1 50010000 		.4byte	.LANCHOR13+80
 7794 0fb5 22       		.byte	0x22
 7795 0fb6 10       		.uleb128 0x10
 7796 0fb7 01       		.uleb128 0x1
 7797 0fb8 52       		.byte	0x52
 7798 0fb9 04       		.uleb128 0x4
 7799 0fba 79       		.byte	0x79
 7800 0fbb 00       		.sleb128 0
 7801 0fbc 33       		.byte	0x33
 7802 0fbd 25       		.byte	0x25
 7803 0fbe 00       		.byte	0
 7804 0fbf 16       		.uleb128 0x16
 7805 0fc0 66020000 		.4byte	.LVL435
 7806 0fc4 00020000 		.4byte	0x200
 7807 0fc8 E10F0000 		.4byte	0xfe1
 7808 0fcc 10       		.uleb128 0x10
 7809 0fcd 01       		.uleb128 0x1
 7810 0fce 50       		.byte	0x50
 7811 0fcf 03       		.uleb128 0x3
 7812 0fd0 91       		.byte	0x91
 7813 0fd1 9C7C     		.sleb128 -484
 7814 0fd3 10       		.uleb128 0x10
 7815 0fd4 01       		.uleb128 0x1
 7816 0fd5 51       		.byte	0x51
 7817 0fd6 03       		.uleb128 0x3
 7818 0fd7 91       		.byte	0x91
 7819 0fd8 B87F     		.sleb128 -72
 7820 0fda 10       		.uleb128 0x10
 7821 0fdb 01       		.uleb128 0x1
 7822 0fdc 52       		.byte	0x52
 7823 0fdd 02       		.uleb128 0x2
 7824 0fde 79       		.byte	0x79
 7825 0fdf 00       		.sleb128 0
 7826 0fe0 00       		.byte	0
 7827 0fe1 16       		.uleb128 0x16
 7828 0fe2 7A020000 		.4byte	.LVL439
 7829 0fe6 F0160000 		.4byte	0x16f0
 7830 0fea F80F0000 		.4byte	0xff8
 7831 0fee 10       		.uleb128 0x10
 7832 0fef 01       		.uleb128 0x1
 7833 0ff0 50       		.byte	0x50
 7834 0ff1 05       		.uleb128 0x5
 7835 0ff2 03       		.byte	0x3
 7836 0ff3 20000000 		.4byte	.LC35
 7837 0ff7 00       		.byte	0
 7838 0ff8 16       		.uleb128 0x16
 7839 0ff9 96020000 		.4byte	.LVL443
 7840 0ffd DC160000 		.4byte	0x16dc
 7841 1001 1F100000 		.4byte	0x101f
ARM GAS  C:\Users\Phuong\AppData\Local\Temp\ccyLHZOj.s 			page 181


 7842 1005 10       		.uleb128 0x10
 7843 1006 01       		.uleb128 0x1
 7844 1007 50       		.byte	0x50
 7845 1008 03       		.uleb128 0x3
 7846 1009 91       		.byte	0x91
 7847 100a F87E     		.sleb128 -136
 7848 100c 10       		.uleb128 0x10
 7849 100d 01       		.uleb128 0x1
 7850 100e 51       		.byte	0x51
 7851 100f 08       		.uleb128 0x8
 7852 1010 74       		.byte	0x74
 7853 1011 00       		.sleb128 0
 7854 1012 03       		.byte	0x3
 7855 1013 B0010000 		.4byte	.LANCHOR14+48
 7856 1017 22       		.byte	0x22
 7857 1018 10       		.uleb128 0x10
 7858 1019 01       		.uleb128 0x1
 7859 101a 52       		.byte	0x52
 7860 101b 02       		.uleb128 0x2
 7861 101c 08       		.byte	0x8
 7862 101d 40       		.byte	0x40
 7863 101e 00       		.byte	0
 7864 101f 16       		.uleb128 0x16
 7865 1020 A4020000 		.4byte	.LVL446
 7866 1024 DC160000 		.4byte	0x16dc
 7867 1028 43100000 		.4byte	0x1043
 7868 102c 10       		.uleb128 0x10
 7869 102d 01       		.uleb128 0x1
 7870 102e 50       		.byte	0x50
 7871 102f 03       		.uleb128 0x3
 7872 1030 91       		.byte	0x91
 7873 1031 F87E     		.sleb128 -136
 7874 1033 10       		.uleb128 0x10
 7875 1034 01       		.uleb128 0x1
 7876 1035 51       		.byte	0x51
 7877 1036 05       		.uleb128 0x5
 7878 1037 03       		.byte	0x3
 7879 1038 00000000 		.4byte	.LANCHOR11
 7880 103c 10       		.uleb128 0x10
 7881 103d 01       		.uleb128 0x1
 7882 103e 52       		.byte	0x52
 7883 103f 02       		.uleb128 0x2
 7884 1040 08       		.byte	0x8
 7885 1041 40       		.byte	0x40
 7886 1042 00       		.byte	0
 7887 1043 16       		.uleb128 0x16
 7888 1044 C2020000 		.4byte	.LVL449
 7889 1048 E4070000 		.4byte	0x7e4
 7890 104c 83100000 		.4byte	0x1083
 7891 1050 10       		.uleb128 0x10
 7892 1051 01       		.uleb128 0x1
 7893 1052 50       		.byte	0x50
 7894 1053 03       		.uleb128 0x3
 7895 1054 91       		.byte	0x91
 7896 1055 9C7C     		.sleb128 -484
 7897 1057 10       		.uleb128 0x10
 7898 1058 01       		.uleb128 0x1
ARM GAS  C:\Users\Phuong\AppData\Local\Temp\ccyLHZOj.s 			page 182


 7899 1059 51       		.byte	0x51
 7900 105a 02       		.uleb128 0x2
 7901 105b 76       		.byte	0x76
 7902 105c 00       		.sleb128 0
 7903 105d 10       		.uleb128 0x10
 7904 105e 01       		.uleb128 0x1
 7905 105f 52       		.byte	0x52
 7906 1060 02       		.uleb128 0x2
 7907 1061 08       		.byte	0x8
 7908 1062 40       		.byte	0x40
 7909 1063 10       		.uleb128 0x10
 7910 1064 01       		.uleb128 0x1
 7911 1065 53       		.byte	0x53
 7912 1066 03       		.uleb128 0x3
 7913 1067 91       		.byte	0x91
 7914 1068 D47E     		.sleb128 -172
 7915 106a 10       		.uleb128 0x10
 7916 106b 02       		.uleb128 0x2
 7917 106c 7D       		.byte	0x7d
 7918 106d 00       		.sleb128 0
 7919 106e 03       		.uleb128 0x3
 7920 106f 91       		.byte	0x91
 7921 1070 E87E     		.sleb128 -152
 7922 1072 10       		.uleb128 0x10
 7923 1073 02       		.uleb128 0x2
 7924 1074 7D       		.byte	0x7d
 7925 1075 04       		.sleb128 4
 7926 1076 03       		.uleb128 0x3
 7927 1077 91       		.byte	0x91
 7928 1078 F87E     		.sleb128 -136
 7929 107a 10       		.uleb128 0x10
 7930 107b 02       		.uleb128 0x2
 7931 107c 7D       		.byte	0x7d
 7932 107d 08       		.sleb128 8
 7933 107e 03       		.uleb128 0x3
 7934 107f 91       		.byte	0x91
 7935 1080 F87E     		.sleb128 -136
 7936 1082 00       		.byte	0
 7937 1083 16       		.uleb128 0x16
 7938 1084 D2020000 		.4byte	.LVL452
 7939 1088 FF160000 		.4byte	0x16ff
 7940 108c A4100000 		.4byte	0x10a4
 7941 1090 10       		.uleb128 0x10
 7942 1091 01       		.uleb128 0x1
 7943 1092 50       		.byte	0x50
 7944 1093 03       		.uleb128 0x3
 7945 1094 91       		.byte	0x91
 7946 1095 F87E     		.sleb128 -136
 7947 1097 10       		.uleb128 0x10
 7948 1098 01       		.uleb128 0x1
 7949 1099 51       		.byte	0x51
 7950 109a 02       		.uleb128 0x2
 7951 109b 74       		.byte	0x74
 7952 109c 00       		.sleb128 0
 7953 109d 10       		.uleb128 0x10
 7954 109e 01       		.uleb128 0x1
 7955 109f 52       		.byte	0x52
ARM GAS  C:\Users\Phuong\AppData\Local\Temp\ccyLHZOj.s 			page 183


 7956 10a0 02       		.uleb128 0x2
 7957 10a1 08       		.byte	0x8
 7958 10a2 40       		.byte	0x40
 7959 10a3 00       		.byte	0
 7960 10a4 16       		.uleb128 0x16
 7961 10a5 E4020000 		.4byte	.LVL454
 7962 10a9 F0160000 		.4byte	0x16f0
 7963 10ad BB100000 		.4byte	0x10bb
 7964 10b1 10       		.uleb128 0x10
 7965 10b2 01       		.uleb128 0x1
 7966 10b3 50       		.byte	0x50
 7967 10b4 05       		.uleb128 0x5
 7968 10b5 03       		.byte	0x3
 7969 10b6 28000000 		.4byte	.LC37
 7970 10ba 00       		.byte	0
 7971 10bb 16       		.uleb128 0x16
 7972 10bc FC020000 		.4byte	.LVL457
 7973 10c0 0A170000 		.4byte	0x170a
 7974 10c4 CE100000 		.4byte	0x10ce
 7975 10c8 10       		.uleb128 0x10
 7976 10c9 01       		.uleb128 0x1
 7977 10ca 50       		.byte	0x50
 7978 10cb 01       		.uleb128 0x1
 7979 10cc 3A       		.byte	0x3a
 7980 10cd 00       		.byte	0
 7981 10ce 16       		.uleb128 0x16
 7982 10cf 28030000 		.4byte	.LVL466
 7983 10d3 E5160000 		.4byte	0x16e5
 7984 10d7 EB100000 		.4byte	0x10eb
 7985 10db 10       		.uleb128 0x10
 7986 10dc 01       		.uleb128 0x1
 7987 10dd 50       		.byte	0x50
 7988 10de 05       		.uleb128 0x5
 7989 10df 03       		.byte	0x3
 7990 10e0 60000000 		.4byte	.LC45
 7991 10e4 10       		.uleb128 0x10
 7992 10e5 01       		.uleb128 0x1
 7993 10e6 51       		.byte	0x51
 7994 10e7 02       		.uleb128 0x2
 7995 10e8 78       		.byte	0x78
 7996 10e9 00       		.sleb128 0
 7997 10ea 00       		.byte	0
 7998 10eb 16       		.uleb128 0x16
 7999 10ec 46030000 		.4byte	.LVL467
 8000 10f0 DC160000 		.4byte	0x16dc
 8001 10f4 16110000 		.4byte	0x1116
 8002 10f8 10       		.uleb128 0x10
 8003 10f9 01       		.uleb128 0x1
 8004 10fa 50       		.byte	0x50
 8005 10fb 03       		.uleb128 0x3
 8006 10fc 91       		.byte	0x91
 8007 10fd B87F     		.sleb128 -72
 8008 10ff 10       		.uleb128 0x10
 8009 1100 01       		.uleb128 0x1
 8010 1101 51       		.byte	0x51
 8011 1102 0A       		.uleb128 0xa
 8012 1103 74       		.byte	0x74
ARM GAS  C:\Users\Phuong\AppData\Local\Temp\ccyLHZOj.s 			page 184


 8013 1104 00       		.sleb128 0
 8014 1105 35       		.byte	0x35
 8015 1106 24       		.byte	0x24
 8016 1107 03       		.byte	0x3
 8017 1108 80020000 		.4byte	.LANCHOR16
 8018 110c 22       		.byte	0x22
 8019 110d 10       		.uleb128 0x10
 8020 110e 01       		.uleb128 0x1
 8021 110f 52       		.byte	0x52
 8022 1110 04       		.uleb128 0x4
 8023 1111 78       		.byte	0x78
 8024 1112 00       		.sleb128 0
 8025 1113 33       		.byte	0x33
 8026 1114 25       		.byte	0x25
 8027 1115 00       		.byte	0
 8028 1116 16       		.uleb128 0x16
 8029 1117 54030000 		.4byte	.LVL468
 8030 111b 00020000 		.4byte	0x200
 8031 111f 38110000 		.4byte	0x1138
 8032 1123 10       		.uleb128 0x10
 8033 1124 01       		.uleb128 0x1
 8034 1125 50       		.byte	0x50
 8035 1126 03       		.uleb128 0x3
 8036 1127 91       		.byte	0x91
 8037 1128 9C7C     		.sleb128 -484
 8038 112a 10       		.uleb128 0x10
 8039 112b 01       		.uleb128 0x1
 8040 112c 51       		.byte	0x51
 8041 112d 03       		.uleb128 0x3
 8042 112e 91       		.byte	0x91
 8043 112f B87F     		.sleb128 -72
 8044 1131 10       		.uleb128 0x10
 8045 1132 01       		.uleb128 0x1
 8046 1133 52       		.byte	0x52
 8047 1134 02       		.uleb128 0x2
 8048 1135 78       		.byte	0x78
 8049 1136 00       		.sleb128 0
 8050 1137 00       		.byte	0
 8051 1138 16       		.uleb128 0x16
 8052 1139 68030000 		.4byte	.LVL472
 8053 113d F0160000 		.4byte	0x16f0
 8054 1141 4F110000 		.4byte	0x114f
 8055 1145 10       		.uleb128 0x10
 8056 1146 01       		.uleb128 0x1
 8057 1147 50       		.byte	0x50
 8058 1148 05       		.uleb128 0x5
 8059 1149 03       		.byte	0x3
 8060 114a 20000000 		.4byte	.LC35
 8061 114e 00       		.byte	0
 8062 114f 16       		.uleb128 0x16
 8063 1150 C4030000 		.4byte	.LVL477
 8064 1154 DC160000 		.4byte	0x16dc
 8065 1158 76110000 		.4byte	0x1176
 8066 115c 10       		.uleb128 0x10
 8067 115d 01       		.uleb128 0x1
 8068 115e 50       		.byte	0x50
 8069 115f 03       		.uleb128 0x3
ARM GAS  C:\Users\Phuong\AppData\Local\Temp\ccyLHZOj.s 			page 185


 8070 1160 91       		.byte	0x91
 8071 1161 F87E     		.sleb128 -136
 8072 1163 10       		.uleb128 0x10
 8073 1164 01       		.uleb128 0x1
 8074 1165 51       		.byte	0x51
 8075 1166 08       		.uleb128 0x8
 8076 1167 74       		.byte	0x74
 8077 1168 00       		.sleb128 0
 8078 1169 03       		.byte	0x3
 8079 116a E0020000 		.4byte	.LANCHOR16+96
 8080 116e 22       		.byte	0x22
 8081 116f 10       		.uleb128 0x10
 8082 1170 01       		.uleb128 0x1
 8083 1171 52       		.byte	0x52
 8084 1172 02       		.uleb128 0x2
 8085 1173 08       		.byte	0x8
 8086 1174 40       		.byte	0x40
 8087 1175 00       		.byte	0
 8088 1176 16       		.uleb128 0x16
 8089 1177 D6030000 		.4byte	.LVL480
 8090 117b DC160000 		.4byte	0x16dc
 8091 117f 9A110000 		.4byte	0x119a
 8092 1183 10       		.uleb128 0x10
 8093 1184 01       		.uleb128 0x1
 8094 1185 50       		.byte	0x50
 8095 1186 03       		.uleb128 0x3
 8096 1187 91       		.byte	0x91
 8097 1188 F87E     		.sleb128 -136
 8098 118a 10       		.uleb128 0x10
 8099 118b 01       		.uleb128 0x1
 8100 118c 51       		.byte	0x51
 8101 118d 05       		.uleb128 0x5
 8102 118e 03       		.byte	0x3
 8103 118f 40000000 		.4byte	.LANCHOR11+64
 8104 1193 10       		.uleb128 0x10
 8105 1194 01       		.uleb128 0x1
 8106 1195 52       		.byte	0x52
 8107 1196 02       		.uleb128 0x2
 8108 1197 08       		.byte	0x8
 8109 1198 40       		.byte	0x40
 8110 1199 00       		.byte	0
 8111 119a 16       		.uleb128 0x16
 8112 119b F0030000 		.4byte	.LVL483
 8113 119f DD090000 		.4byte	0x9dd
 8114 11a3 D3110000 		.4byte	0x11d3
 8115 11a7 10       		.uleb128 0x10
 8116 11a8 01       		.uleb128 0x1
 8117 11a9 50       		.byte	0x50
 8118 11aa 03       		.uleb128 0x3
 8119 11ab 91       		.byte	0x91
 8120 11ac 9C7C     		.sleb128 -484
 8121 11ae 10       		.uleb128 0x10
 8122 11af 01       		.uleb128 0x1
 8123 11b0 51       		.byte	0x51
 8124 11b1 02       		.uleb128 0x2
 8125 11b2 08       		.byte	0x8
 8126 11b3 40       		.byte	0x40
ARM GAS  C:\Users\Phuong\AppData\Local\Temp\ccyLHZOj.s 			page 186


 8127 11b4 10       		.uleb128 0x10
 8128 11b5 01       		.uleb128 0x1
 8129 11b6 52       		.byte	0x52
 8130 11b7 03       		.uleb128 0x3
 8131 11b8 91       		.byte	0x91
 8132 11b9 D47E     		.sleb128 -172
 8133 11bb 10       		.uleb128 0x10
 8134 11bc 01       		.uleb128 0x1
 8135 11bd 53       		.byte	0x53
 8136 11be 03       		.uleb128 0x3
 8137 11bf 91       		.byte	0x91
 8138 11c0 E87E     		.sleb128 -152
 8139 11c2 10       		.uleb128 0x10
 8140 11c3 02       		.uleb128 0x2
 8141 11c4 7D       		.byte	0x7d
 8142 11c5 00       		.sleb128 0
 8143 11c6 03       		.uleb128 0x3
 8144 11c7 91       		.byte	0x91
 8145 11c8 F87E     		.sleb128 -136
 8146 11ca 10       		.uleb128 0x10
 8147 11cb 02       		.uleb128 0x2
 8148 11cc 7D       		.byte	0x7d
 8149 11cd 04       		.sleb128 4
 8150 11ce 03       		.uleb128 0x3
 8151 11cf 91       		.byte	0x91
 8152 11d0 F87E     		.sleb128 -136
 8153 11d2 00       		.byte	0
 8154 11d3 16       		.uleb128 0x16
 8155 11d4 00040000 		.4byte	.LVL486
 8156 11d8 FF160000 		.4byte	0x16ff
 8157 11dc F4110000 		.4byte	0x11f4
 8158 11e0 10       		.uleb128 0x10
 8159 11e1 01       		.uleb128 0x1
 8160 11e2 50       		.byte	0x50
 8161 11e3 03       		.uleb128 0x3
 8162 11e4 91       		.byte	0x91
 8163 11e5 F87E     		.sleb128 -136
 8164 11e7 10       		.uleb128 0x10
 8165 11e8 01       		.uleb128 0x1
 8166 11e9 51       		.byte	0x51
 8167 11ea 02       		.uleb128 0x2
 8168 11eb 74       		.byte	0x74
 8169 11ec 00       		.sleb128 0
 8170 11ed 10       		.uleb128 0x10
 8171 11ee 01       		.uleb128 0x1
 8172 11ef 52       		.byte	0x52
 8173 11f0 02       		.uleb128 0x2
 8174 11f1 08       		.byte	0x8
 8175 11f2 40       		.byte	0x40
 8176 11f3 00       		.byte	0
 8177 11f4 16       		.uleb128 0x16
 8178 11f5 12040000 		.4byte	.LVL488
 8179 11f9 F0160000 		.4byte	0x16f0
 8180 11fd 0B120000 		.4byte	0x120b
 8181 1201 10       		.uleb128 0x10
 8182 1202 01       		.uleb128 0x1
 8183 1203 50       		.byte	0x50
ARM GAS  C:\Users\Phuong\AppData\Local\Temp\ccyLHZOj.s 			page 187


 8184 1204 05       		.uleb128 0x5
 8185 1205 03       		.byte	0x3
 8186 1206 28000000 		.4byte	.LC37
 8187 120a 00       		.byte	0
 8188 120b 16       		.uleb128 0x16
 8189 120c 26040000 		.4byte	.LVL491
 8190 1210 0A170000 		.4byte	0x170a
 8191 1214 1E120000 		.4byte	0x121e
 8192 1218 10       		.uleb128 0x10
 8193 1219 01       		.uleb128 0x1
 8194 121a 50       		.byte	0x50
 8195 121b 01       		.uleb128 0x1
 8196 121c 3A       		.byte	0x3a
 8197 121d 00       		.byte	0
 8198 121e 16       		.uleb128 0x16
 8199 121f 4E040000 		.4byte	.LVL497
 8200 1223 E5160000 		.4byte	0x16e5
 8201 1227 35120000 		.4byte	0x1235
 8202 122b 10       		.uleb128 0x10
 8203 122c 01       		.uleb128 0x1
 8204 122d 50       		.byte	0x50
 8205 122e 05       		.uleb128 0x5
 8206 122f 03       		.byte	0x3
 8207 1230 78000000 		.4byte	.LC49
 8208 1234 00       		.byte	0
 8209 1235 16       		.uleb128 0x16
 8210 1236 6C040000 		.4byte	.LVL498
 8211 123a DC160000 		.4byte	0x16dc
 8212 123e 5D120000 		.4byte	0x125d
 8213 1242 10       		.uleb128 0x10
 8214 1243 01       		.uleb128 0x1
 8215 1244 50       		.byte	0x50
 8216 1245 03       		.uleb128 0x3
 8217 1246 91       		.byte	0x91
 8218 1247 B87F     		.sleb128 -72
 8219 1249 10       		.uleb128 0x10
 8220 124a 01       		.uleb128 0x1
 8221 124b 51       		.byte	0x51
 8222 124c 0A       		.uleb128 0xa
 8223 124d 74       		.byte	0x74
 8224 124e 00       		.sleb128 0
 8225 124f 34       		.byte	0x34
 8226 1250 24       		.byte	0x24
 8227 1251 03       		.byte	0x3
 8228 1252 D0030000 		.4byte	.LANCHOR17+80
 8229 1256 22       		.byte	0x22
 8230 1257 10       		.uleb128 0x10
 8231 1258 01       		.uleb128 0x1
 8232 1259 52       		.byte	0x52
 8233 125a 01       		.uleb128 0x1
 8234 125b 40       		.byte	0x40
 8235 125c 00       		.byte	0
 8236 125d 16       		.uleb128 0x16
 8237 125e 7A040000 		.4byte	.LVL499
 8238 1262 00020000 		.4byte	0x200
 8239 1266 7F120000 		.4byte	0x127f
 8240 126a 10       		.uleb128 0x10
ARM GAS  C:\Users\Phuong\AppData\Local\Temp\ccyLHZOj.s 			page 188


 8241 126b 01       		.uleb128 0x1
 8242 126c 50       		.byte	0x50
 8243 126d 03       		.uleb128 0x3
 8244 126e 91       		.byte	0x91
 8245 126f 9C7C     		.sleb128 -484
 8246 1271 10       		.uleb128 0x10
 8247 1272 01       		.uleb128 0x1
 8248 1273 51       		.byte	0x51
 8249 1274 03       		.uleb128 0x3
 8250 1275 91       		.byte	0x91
 8251 1276 B87F     		.sleb128 -72
 8252 1278 10       		.uleb128 0x10
 8253 1279 01       		.uleb128 0x1
 8254 127a 52       		.byte	0x52
 8255 127b 02       		.uleb128 0x2
 8256 127c 08       		.byte	0x8
 8257 127d 80       		.byte	0x80
 8258 127e 00       		.byte	0
 8259 127f 16       		.uleb128 0x16
 8260 1280 9E040000 		.4byte	.LVL505
 8261 1284 DC160000 		.4byte	0x16dc
 8262 1288 AB120000 		.4byte	0x12ab
 8263 128c 10       		.uleb128 0x10
 8264 128d 01       		.uleb128 0x1
 8265 128e 50       		.byte	0x50
 8266 128f 03       		.uleb128 0x3
 8267 1290 91       		.byte	0x91
 8268 1291 F87E     		.sleb128 -136
 8269 1293 10       		.uleb128 0x10
 8270 1294 01       		.uleb128 0x1
 8271 1295 51       		.byte	0x51
 8272 1296 0D       		.uleb128 0xd
 8273 1297 75       		.byte	0x75
 8274 1298 00       		.sleb128 0
 8275 1299 74       		.byte	0x74
 8276 129a 00       		.sleb128 0
 8277 129b 22       		.byte	0x22
 8278 129c 34       		.byte	0x34
 8279 129d 24       		.byte	0x24
 8280 129e 03       		.byte	0x3
 8281 129f 0C040000 		.4byte	.LANCHOR18+12
 8282 12a3 22       		.byte	0x22
 8283 12a4 10       		.uleb128 0x10
 8284 12a5 01       		.uleb128 0x1
 8285 12a6 52       		.byte	0x52
 8286 12a7 02       		.uleb128 0x2
 8287 12a8 76       		.byte	0x76
 8288 12a9 00       		.sleb128 0
 8289 12aa 00       		.byte	0
 8290 12ab 16       		.uleb128 0x16
 8291 12ac BE040000 		.4byte	.LVL511
 8292 12b0 DC160000 		.4byte	0x16dc
 8293 12b4 D7120000 		.4byte	0x12d7
 8294 12b8 10       		.uleb128 0x10
 8295 12b9 01       		.uleb128 0x1
 8296 12ba 50       		.byte	0x50
 8297 12bb 03       		.uleb128 0x3
ARM GAS  C:\Users\Phuong\AppData\Local\Temp\ccyLHZOj.s 			page 189


 8298 12bc 91       		.byte	0x91
 8299 12bd F87E     		.sleb128 -136
 8300 12bf 10       		.uleb128 0x10
 8301 12c0 01       		.uleb128 0x1
 8302 12c1 51       		.byte	0x51
 8303 12c2 0D       		.uleb128 0xd
 8304 12c3 75       		.byte	0x75
 8305 12c4 00       		.sleb128 0
 8306 12c5 74       		.byte	0x74
 8307 12c6 00       		.sleb128 0
 8308 12c7 22       		.byte	0x22
 8309 12c8 34       		.byte	0x34
 8310 12c9 24       		.byte	0x24
 8311 12ca 03       		.byte	0x3
 8312 12cb 9C040000 		.4byte	.LANCHOR19+28
 8313 12cf 22       		.byte	0x22
 8314 12d0 10       		.uleb128 0x10
 8315 12d1 01       		.uleb128 0x1
 8316 12d2 52       		.byte	0x52
 8317 12d3 02       		.uleb128 0x2
 8318 12d4 76       		.byte	0x76
 8319 12d5 00       		.sleb128 0
 8320 12d6 00       		.byte	0
 8321 12d7 16       		.uleb128 0x16
 8322 12d8 DE040000 		.4byte	.LVL514
 8323 12dc A30A0000 		.4byte	0xaa3
 8324 12e0 18130000 		.4byte	0x1318
 8325 12e4 10       		.uleb128 0x10
 8326 12e5 01       		.uleb128 0x1
 8327 12e6 50       		.byte	0x50
 8328 12e7 03       		.uleb128 0x3
 8329 12e8 91       		.byte	0x91
 8330 12e9 9C7C     		.sleb128 -484
 8331 12eb 10       		.uleb128 0x10
 8332 12ec 01       		.uleb128 0x1
 8333 12ed 51       		.byte	0x51
 8334 12ee 02       		.uleb128 0x2
 8335 12ef 76       		.byte	0x76
 8336 12f0 00       		.sleb128 0
 8337 12f1 10       		.uleb128 0x10
 8338 12f2 01       		.uleb128 0x1
 8339 12f3 52       		.byte	0x52
 8340 12f4 03       		.uleb128 0x3
 8341 12f5 91       		.byte	0x91
 8342 12f6 D47E     		.sleb128 -172
 8343 12f8 10       		.uleb128 0x10
 8344 12f9 01       		.uleb128 0x1
 8345 12fa 53       		.byte	0x53
 8346 12fb 03       		.uleb128 0x3
 8347 12fc 91       		.byte	0x91
 8348 12fd C47E     		.sleb128 -188
 8349 12ff 10       		.uleb128 0x10
 8350 1300 02       		.uleb128 0x2
 8351 1301 7D       		.byte	0x7d
 8352 1302 00       		.sleb128 0
 8353 1303 03       		.uleb128 0x3
 8354 1304 91       		.byte	0x91
ARM GAS  C:\Users\Phuong\AppData\Local\Temp\ccyLHZOj.s 			page 190


 8355 1305 B47E     		.sleb128 -204
 8356 1307 10       		.uleb128 0x10
 8357 1308 02       		.uleb128 0x2
 8358 1309 7D       		.byte	0x7d
 8359 130a 04       		.sleb128 4
 8360 130b 03       		.uleb128 0x3
 8361 130c 91       		.byte	0x91
 8362 130d F87E     		.sleb128 -136
 8363 130f 10       		.uleb128 0x10
 8364 1310 02       		.uleb128 0x2
 8365 1311 7D       		.byte	0x7d
 8366 1312 08       		.sleb128 8
 8367 1313 03       		.uleb128 0x3
 8368 1314 91       		.byte	0x91
 8369 1315 F87E     		.sleb128 -136
 8370 1317 00       		.byte	0
 8371 1318 16       		.uleb128 0x16
 8372 1319 EC040000 		.4byte	.LVL517
 8373 131d FF160000 		.4byte	0x16ff
 8374 1321 39130000 		.4byte	0x1339
 8375 1325 10       		.uleb128 0x10
 8376 1326 01       		.uleb128 0x1
 8377 1327 50       		.byte	0x50
 8378 1328 03       		.uleb128 0x3
 8379 1329 91       		.byte	0x91
 8380 132a F87E     		.sleb128 -136
 8381 132c 10       		.uleb128 0x10
 8382 132d 01       		.uleb128 0x1
 8383 132e 51       		.byte	0x51
 8384 132f 02       		.uleb128 0x2
 8385 1330 74       		.byte	0x74
 8386 1331 00       		.sleb128 0
 8387 1332 10       		.uleb128 0x10
 8388 1333 01       		.uleb128 0x1
 8389 1334 52       		.byte	0x52
 8390 1335 02       		.uleb128 0x2
 8391 1336 76       		.byte	0x76
 8392 1337 00       		.sleb128 0
 8393 1338 00       		.byte	0
 8394 1339 16       		.uleb128 0x16
 8395 133a FC040000 		.4byte	.LVL519
 8396 133e F0160000 		.4byte	0x16f0
 8397 1342 50130000 		.4byte	0x1350
 8398 1346 10       		.uleb128 0x10
 8399 1347 01       		.uleb128 0x1
 8400 1348 50       		.byte	0x50
 8401 1349 05       		.uleb128 0x5
 8402 134a 03       		.byte	0x3
 8403 134b 28000000 		.4byte	.LC37
 8404 134f 00       		.byte	0
 8405 1350 16       		.uleb128 0x16
 8406 1351 14050000 		.4byte	.LVL522
 8407 1355 0A170000 		.4byte	0x170a
 8408 1359 63130000 		.4byte	0x1363
 8409 135d 10       		.uleb128 0x10
 8410 135e 01       		.uleb128 0x1
 8411 135f 50       		.byte	0x50
ARM GAS  C:\Users\Phuong\AppData\Local\Temp\ccyLHZOj.s 			page 191


 8412 1360 01       		.uleb128 0x1
 8413 1361 3A       		.byte	0x3a
 8414 1362 00       		.byte	0
 8415 1363 16       		.uleb128 0x16
 8416 1364 3E050000 		.4byte	.LVL536
 8417 1368 F0160000 		.4byte	0x16f0
 8418 136c 7A130000 		.4byte	0x137a
 8419 1370 10       		.uleb128 0x10
 8420 1371 01       		.uleb128 0x1
 8421 1372 50       		.byte	0x50
 8422 1373 05       		.uleb128 0x5
 8423 1374 03       		.byte	0x3
 8424 1375 90000000 		.4byte	.LC54
 8425 1379 00       		.byte	0
 8426 137a 0F       		.uleb128 0xf
 8427 137b 44050000 		.4byte	.LVL537
 8428 137f C1010000 		.4byte	0x1c1
 8429 1383 10       		.uleb128 0x10
 8430 1384 01       		.uleb128 0x1
 8431 1385 50       		.byte	0x50
 8432 1386 03       		.uleb128 0x3
 8433 1387 91       		.byte	0x91
 8434 1388 9C7C     		.sleb128 -484
 8435 138a 00       		.byte	0
 8436 138b 00       		.byte	0
 8437 138c 08       		.uleb128 0x8
 8438 138d 2C000000 		.4byte	0x2c
 8439 1391 9C130000 		.4byte	0x139c
 8440 1395 09       		.uleb128 0x9
 8441 1396 88000000 		.4byte	0x88
 8442 139a 1F       		.byte	0x1f
 8443 139b 00       		.byte	0
 8444 139c 08       		.uleb128 0x8
 8445 139d 2C000000 		.4byte	0x2c
 8446 13a1 AC130000 		.4byte	0x13ac
 8447 13a5 09       		.uleb128 0x9
 8448 13a6 88000000 		.4byte	0x88
 8449 13aa 3F       		.byte	0x3f
 8450 13ab 00       		.byte	0
 8451 13ac 08       		.uleb128 0x8
 8452 13ad 2C000000 		.4byte	0x2c
 8453 13b1 BC130000 		.4byte	0x13bc
 8454 13b5 09       		.uleb128 0x9
 8455 13b6 88000000 		.4byte	0x88
 8456 13ba FF       		.byte	0xff
 8457 13bb 00       		.byte	0
 8458 13bc 0C       		.uleb128 0xc
 8459 13bd 46536200 		.ascii	"FSb\000"
 8460 13c1 01       		.byte	0x1
 8461 13c2 6C01     		.2byte	0x16c
 8462 13c4 AC130000 		.4byte	0x13ac
 8463 13c8 05       		.uleb128 0x5
 8464 13c9 03       		.byte	0x3
 8465 13ca 28000000 		.4byte	FSb
 8466 13ce 08       		.uleb128 0x8
 8467 13cf 9C000000 		.4byte	0x9c
 8468 13d3 DE130000 		.4byte	0x13de
ARM GAS  C:\Users\Phuong\AppData\Local\Temp\ccyLHZOj.s 			page 192


 8469 13d7 09       		.uleb128 0x9
 8470 13d8 88000000 		.4byte	0x88
 8471 13dc FF       		.byte	0xff
 8472 13dd 00       		.byte	0
 8473 13de 0C       		.uleb128 0xc
 8474 13df 46543000 		.ascii	"FT0\000"
 8475 13e3 01       		.byte	0x1
 8476 13e4 6D01     		.2byte	0x16d
 8477 13e6 CE130000 		.4byte	0x13ce
 8478 13ea 05       		.uleb128 0x5
 8479 13eb 03       		.byte	0x3
 8480 13ec 28020000 		.4byte	FT0
 8481 13f0 0C       		.uleb128 0xc
 8482 13f1 46543100 		.ascii	"FT1\000"
 8483 13f5 01       		.byte	0x1
 8484 13f6 6F01     		.2byte	0x16f
 8485 13f8 CE130000 		.4byte	0x13ce
 8486 13fc 05       		.uleb128 0x5
 8487 13fd 03       		.byte	0x3
 8488 13fe 28060000 		.4byte	FT1
 8489 1402 0C       		.uleb128 0xc
 8490 1403 46543200 		.ascii	"FT2\000"
 8491 1407 01       		.byte	0x1
 8492 1408 7001     		.2byte	0x170
 8493 140a CE130000 		.4byte	0x13ce
 8494 140e 05       		.uleb128 0x5
 8495 140f 03       		.byte	0x3
 8496 1410 280A0000 		.4byte	FT2
 8497 1414 0C       		.uleb128 0xc
 8498 1415 46543300 		.ascii	"FT3\000"
 8499 1419 01       		.byte	0x1
 8500 141a 7101     		.2byte	0x171
 8501 141c CE130000 		.4byte	0x13ce
 8502 1420 05       		.uleb128 0x5
 8503 1421 03       		.byte	0x3
 8504 1422 280E0000 		.4byte	FT3
 8505 1426 0C       		.uleb128 0xc
 8506 1427 52536200 		.ascii	"RSb\000"
 8507 142b 01       		.byte	0x1
 8508 142c 7701     		.2byte	0x177
 8509 142e AC130000 		.4byte	0x13ac
 8510 1432 05       		.uleb128 0x5
 8511 1433 03       		.byte	0x3
 8512 1434 28010000 		.4byte	RSb
 8513 1438 0C       		.uleb128 0xc
 8514 1439 52543000 		.ascii	"RT0\000"
 8515 143d 01       		.byte	0x1
 8516 143e 7801     		.2byte	0x178
 8517 1440 CE130000 		.4byte	0x13ce
 8518 1444 05       		.uleb128 0x5
 8519 1445 03       		.byte	0x3
 8520 1446 28120000 		.4byte	RT0
 8521 144a 0C       		.uleb128 0xc
 8522 144b 52543100 		.ascii	"RT1\000"
 8523 144f 01       		.byte	0x1
 8524 1450 7A01     		.2byte	0x17a
 8525 1452 CE130000 		.4byte	0x13ce
ARM GAS  C:\Users\Phuong\AppData\Local\Temp\ccyLHZOj.s 			page 193


 8526 1456 05       		.uleb128 0x5
 8527 1457 03       		.byte	0x3
 8528 1458 28160000 		.4byte	RT1
 8529 145c 0C       		.uleb128 0xc
 8530 145d 52543200 		.ascii	"RT2\000"
 8531 1461 01       		.byte	0x1
 8532 1462 7B01     		.2byte	0x17b
 8533 1464 CE130000 		.4byte	0x13ce
 8534 1468 05       		.uleb128 0x5
 8535 1469 03       		.byte	0x3
 8536 146a 281A0000 		.4byte	RT2
 8537 146e 0C       		.uleb128 0xc
 8538 146f 52543300 		.ascii	"RT3\000"
 8539 1473 01       		.byte	0x1
 8540 1474 7C01     		.2byte	0x17c
 8541 1476 CE130000 		.4byte	0x13ce
 8542 147a 05       		.uleb128 0x5
 8543 147b 03       		.byte	0x3
 8544 147c 281E0000 		.4byte	RT3
 8545 1480 08       		.uleb128 0x8
 8546 1481 9C000000 		.4byte	0x9c
 8547 1485 90140000 		.4byte	0x1490
 8548 1489 09       		.uleb128 0x9
 8549 148a 88000000 		.4byte	0x88
 8550 148e 09       		.byte	0x9
 8551 148f 00       		.byte	0
 8552 1490 17       		.uleb128 0x17
 8553 1491 85010000 		.4byte	.LASF45
 8554 1495 01       		.byte	0x1
 8555 1496 8201     		.2byte	0x182
 8556 1498 80140000 		.4byte	0x1480
 8557 149c 05       		.uleb128 0x5
 8558 149d 03       		.byte	0x3
 8559 149e 00000000 		.4byte	RCON
 8560 14a2 17       		.uleb128 0x17
 8561 14a3 36020000 		.4byte	.LASF46
 8562 14a7 01       		.byte	0x1
 8563 14a8 8B01     		.2byte	0x18b
 8564 14aa 68000000 		.4byte	0x68
 8565 14ae 05       		.uleb128 0x5
 8566 14af 03       		.byte	0x3
 8567 14b0 28220000 		.4byte	aes_init_done
 8568 14b4 08       		.uleb128 0x8
 8569 14b5 77020000 		.4byte	0x277
 8570 14b9 CA140000 		.4byte	0x14ca
 8571 14bd 09       		.uleb128 0x9
 8572 14be 88000000 		.4byte	0x88
 8573 14c2 02       		.byte	0x2
 8574 14c3 09       		.uleb128 0x9
 8575 14c4 88000000 		.4byte	0x88
 8576 14c8 0F       		.byte	0xf
 8577 14c9 00       		.byte	0
 8578 14ca 17       		.uleb128 0x17
 8579 14cb D7040000 		.4byte	.LASF47
 8580 14cf 01       		.byte	0x1
 8581 14d0 7005     		.2byte	0x570
 8582 14d2 DC140000 		.4byte	0x14dc
ARM GAS  C:\Users\Phuong\AppData\Local\Temp\ccyLHZOj.s 			page 194


 8583 14d6 05       		.uleb128 0x5
 8584 14d7 03       		.byte	0x3
 8585 14d8 80000000 		.4byte	aes_test_ecb_dec
 8586 14dc 14       		.uleb128 0x14
 8587 14dd B4140000 		.4byte	0x14b4
 8588 14e1 17       		.uleb128 0x17
 8589 14e2 4C000000 		.4byte	.LASF48
 8590 14e6 01       		.byte	0x1
 8591 14e7 7A05     		.2byte	0x57a
 8592 14e9 F3140000 		.4byte	0x14f3
 8593 14ed 05       		.uleb128 0x5
 8594 14ee 03       		.byte	0x3
 8595 14ef B0000000 		.4byte	aes_test_ecb_enc
 8596 14f3 14       		.uleb128 0x14
 8597 14f4 B4140000 		.4byte	0x14b4
 8598 14f8 17       		.uleb128 0x17
 8599 14f9 25020000 		.4byte	.LASF49
 8600 14fd 01       		.byte	0x1
 8601 14fe 8505     		.2byte	0x585
 8602 1500 0A150000 		.4byte	0x150a
 8603 1504 05       		.uleb128 0x5
 8604 1505 03       		.byte	0x3
 8605 1506 E0000000 		.4byte	aes_test_cbc_dec
 8606 150a 14       		.uleb128 0x14
 8607 150b B4140000 		.4byte	0x14b4
 8608 150f 17       		.uleb128 0x17
 8609 1510 ED010000 		.4byte	.LASF50
 8610 1514 01       		.byte	0x1
 8611 1515 8F05     		.2byte	0x58f
 8612 1517 21150000 		.4byte	0x1521
 8613 151b 05       		.uleb128 0x5
 8614 151c 03       		.byte	0x3
 8615 151d 10010000 		.4byte	aes_test_cbc_enc
 8616 1521 14       		.uleb128 0x14
 8617 1522 B4140000 		.4byte	0x14b4
 8618 1526 08       		.uleb128 0x8
 8619 1527 77020000 		.4byte	0x277
 8620 152b 3C150000 		.4byte	0x153c
 8621 152f 09       		.uleb128 0x9
 8622 1530 88000000 		.4byte	0x88
 8623 1534 02       		.byte	0x2
 8624 1535 09       		.uleb128 0x9
 8625 1536 88000000 		.4byte	0x88
 8626 153a 1F       		.byte	0x1f
 8627 153b 00       		.byte	0
 8628 153c 17       		.uleb128 0x17
 8629 153d B3030000 		.4byte	.LASF51
 8630 1541 01       		.byte	0x1
 8631 1542 A005     		.2byte	0x5a0
 8632 1544 4E150000 		.4byte	0x154e
 8633 1548 05       		.uleb128 0x5
 8634 1549 03       		.byte	0x3
 8635 154a 50010000 		.4byte	aes_test_cfb128_key
 8636 154e 14       		.uleb128 0x14
 8637 154f 26150000 		.4byte	0x1526
 8638 1553 08       		.uleb128 0x8
 8639 1554 77020000 		.4byte	0x277
ARM GAS  C:\Users\Phuong\AppData\Local\Temp\ccyLHZOj.s 			page 195


 8640 1558 63150000 		.4byte	0x1563
 8641 155c 09       		.uleb128 0x9
 8642 155d 88000000 		.4byte	0x88
 8643 1561 0F       		.byte	0xf
 8644 1562 00       		.byte	0
 8645 1563 17       		.uleb128 0x17
 8646 1564 50050000 		.4byte	.LASF52
 8647 1568 01       		.byte	0x1
 8648 1569 AD05     		.2byte	0x5ad
 8649 156b 75150000 		.4byte	0x1575
 8650 156f 05       		.uleb128 0x5
 8651 1570 03       		.byte	0x3
 8652 1571 40010000 		.4byte	aes_test_cfb128_iv
 8653 1575 14       		.uleb128 0x14
 8654 1576 53150000 		.4byte	0x1553
 8655 157a 08       		.uleb128 0x8
 8656 157b 77020000 		.4byte	0x277
 8657 157f 8A150000 		.4byte	0x158a
 8658 1583 09       		.uleb128 0x9
 8659 1584 88000000 		.4byte	0x88
 8660 1588 3F       		.byte	0x3f
 8661 1589 00       		.byte	0
 8662 158a 17       		.uleb128 0x17
 8663 158b 96040000 		.4byte	.LASF53
 8664 158f 01       		.byte	0x1
 8665 1590 B305     		.2byte	0x5b3
 8666 1592 9C150000 		.4byte	0x159c
 8667 1596 05       		.uleb128 0x5
 8668 1597 03       		.byte	0x3
 8669 1598 00000000 		.4byte	aes_test_cfb128_pt
 8670 159c 14       		.uleb128 0x14
 8671 159d 7A150000 		.4byte	0x157a
 8672 15a1 08       		.uleb128 0x8
 8673 15a2 77020000 		.4byte	0x277
 8674 15a6 B7150000 		.4byte	0x15b7
 8675 15aa 09       		.uleb128 0x9
 8676 15ab 88000000 		.4byte	0x88
 8677 15af 02       		.byte	0x2
 8678 15b0 09       		.uleb128 0x9
 8679 15b1 88000000 		.4byte	0x88
 8680 15b5 3F       		.byte	0x3f
 8681 15b6 00       		.byte	0
 8682 15b7 17       		.uleb128 0x17
 8683 15b8 A7010000 		.4byte	.LASF54
 8684 15bc 01       		.byte	0x1
 8685 15bd BF05     		.2byte	0x5bf
 8686 15bf C9150000 		.4byte	0x15c9
 8687 15c3 05       		.uleb128 0x5
 8688 15c4 03       		.byte	0x3
 8689 15c5 B0010000 		.4byte	aes_test_cfb128_ct
 8690 15c9 14       		.uleb128 0x14
 8691 15ca A1150000 		.4byte	0x15a1
 8692 15ce 17       		.uleb128 0x17
 8693 15cf 7A020000 		.4byte	.LASF55
 8694 15d3 01       		.byte	0x1
 8695 15d4 E205     		.2byte	0x5e2
 8696 15d6 E0150000 		.4byte	0x15e0
ARM GAS  C:\Users\Phuong\AppData\Local\Temp\ccyLHZOj.s 			page 196


 8697 15da 05       		.uleb128 0x5
 8698 15db 03       		.byte	0x3
 8699 15dc 80020000 		.4byte	aes_test_ofb_key
 8700 15e0 14       		.uleb128 0x14
 8701 15e1 26150000 		.4byte	0x1526
 8702 15e5 17       		.uleb128 0x17
 8703 15e6 0F000000 		.4byte	.LASF56
 8704 15ea 01       		.byte	0x1
 8705 15eb EF05     		.2byte	0x5ef
 8706 15ed F7150000 		.4byte	0x15f7
 8707 15f1 05       		.uleb128 0x5
 8708 15f2 03       		.byte	0x3
 8709 15f3 70020000 		.4byte	aes_test_ofb_iv
 8710 15f7 14       		.uleb128 0x14
 8711 15f8 53150000 		.4byte	0x1553
 8712 15fc 17       		.uleb128 0x17
 8713 15fd 40050000 		.4byte	.LASF57
 8714 1601 01       		.byte	0x1
 8715 1602 F505     		.2byte	0x5f5
 8716 1604 0E160000 		.4byte	0x160e
 8717 1608 05       		.uleb128 0x5
 8718 1609 03       		.byte	0x3
 8719 160a 40000000 		.4byte	aes_test_ofb_pt
 8720 160e 14       		.uleb128 0x14
 8721 160f 7A150000 		.4byte	0x157a
 8722 1613 17       		.uleb128 0x17
 8723 1614 44020000 		.4byte	.LASF58
 8724 1618 01       		.byte	0x1
 8725 1619 0106     		.2byte	0x601
 8726 161b 25160000 		.4byte	0x1625
 8727 161f 05       		.uleb128 0x5
 8728 1620 03       		.byte	0x3
 8729 1621 E0020000 		.4byte	aes_test_ofb_ct
 8730 1625 14       		.uleb128 0x14
 8731 1626 A1150000 		.4byte	0x15a1
 8732 162a 17       		.uleb128 0x17
 8733 162b 8B020000 		.4byte	.LASF59
 8734 162f 01       		.byte	0x1
 8735 1630 2506     		.2byte	0x625
 8736 1632 3C160000 		.4byte	0x163c
 8737 1636 05       		.uleb128 0x5
 8738 1637 03       		.byte	0x3
 8739 1638 D0030000 		.4byte	aes_test_ctr_key
 8740 163c 14       		.uleb128 0x14
 8741 163d B4140000 		.4byte	0x14b4
 8742 1641 17       		.uleb128 0x17
 8743 1642 39040000 		.4byte	.LASF60
 8744 1646 01       		.byte	0x1
 8745 1647 2F06     		.2byte	0x62f
 8746 1649 53160000 		.4byte	0x1653
 8747 164d 05       		.uleb128 0x5
 8748 164e 03       		.byte	0x3
 8749 164f A0030000 		.4byte	aes_test_ctr_nonce_counter
 8750 1653 14       		.uleb128 0x14
 8751 1654 B4140000 		.4byte	0x14b4
 8752 1658 08       		.uleb128 0x8
 8753 1659 77020000 		.4byte	0x277
ARM GAS  C:\Users\Phuong\AppData\Local\Temp\ccyLHZOj.s 			page 197


 8754 165d 6E160000 		.4byte	0x166e
 8755 1661 09       		.uleb128 0x9
 8756 1662 88000000 		.4byte	0x88
 8757 1666 02       		.byte	0x2
 8758 1667 09       		.uleb128 0x9
 8759 1668 88000000 		.4byte	0x88
 8760 166c 2F       		.byte	0x2f
 8761 166d 00       		.byte	0
 8762 166e 17       		.uleb128 0x17
 8763 166f 15020000 		.4byte	.LASF61
 8764 1673 01       		.byte	0x1
 8765 1674 3906     		.2byte	0x639
 8766 1676 80160000 		.4byte	0x1680
 8767 167a 05       		.uleb128 0x5
 8768 167b 03       		.byte	0x3
 8769 167c 9C040000 		.4byte	aes_test_ctr_pt
 8770 1680 14       		.uleb128 0x14
 8771 1681 58160000 		.4byte	0x1658
 8772 1685 17       		.uleb128 0x17
 8773 1686 3C000000 		.4byte	.LASF62
 8774 168a 01       		.byte	0x1
 8775 168b 4A06     		.2byte	0x64a
 8776 168d 97160000 		.4byte	0x1697
 8777 1691 05       		.uleb128 0x5
 8778 1692 03       		.byte	0x3
 8779 1693 0C040000 		.4byte	aes_test_ctr_ct
 8780 1697 14       		.uleb128 0x14
 8781 1698 58160000 		.4byte	0x1658
 8782 169c 08       		.uleb128 0x8
 8783 169d AC160000 		.4byte	0x16ac
 8784 16a1 AC160000 		.4byte	0x16ac
 8785 16a5 09       		.uleb128 0x9
 8786 16a6 88000000 		.4byte	0x88
 8787 16aa 02       		.byte	0x2
 8788 16ab 00       		.byte	0
 8789 16ac 14       		.uleb128 0x14
 8790 16ad 68000000 		.4byte	0x68
 8791 16b1 17       		.uleb128 0x17
 8792 16b2 C6010000 		.4byte	.LASF63
 8793 16b6 01       		.byte	0x1
 8794 16b7 5906     		.2byte	0x659
 8795 16b9 C3160000 		.4byte	0x16c3
 8796 16bd 05       		.uleb128 0x5
 8797 16be 03       		.byte	0x3
 8798 16bf 00040000 		.4byte	aes_test_ctr_len
 8799 16c3 14       		.uleb128 0x14
 8800 16c4 9C160000 		.4byte	0x169c
 8801 16c8 1C       		.uleb128 0x1c
 8802 16c9 FE010000 		.4byte	.LASF64
 8803 16cd FE010000 		.4byte	.LASF64
 8804 16d1 1D       		.uleb128 0x1d
 8805 16d2 27050000 		.4byte	.LASF66
 8806 16d6 27050000 		.4byte	.LASF66
 8807 16da 06       		.byte	0x6
 8808 16db 42       		.byte	0x42
 8809 16dc 1C       		.uleb128 0x1c
 8810 16dd 6D010000 		.4byte	.LASF65
ARM GAS  C:\Users\Phuong\AppData\Local\Temp\ccyLHZOj.s 			page 198


 8811 16e1 6D010000 		.4byte	.LASF65
 8812 16e5 1D       		.uleb128 0x1d
 8813 16e6 01040000 		.4byte	.LASF67
 8814 16ea 01040000 		.4byte	.LASF67
 8815 16ee 07       		.byte	0x7
 8816 16ef BB       		.byte	0xbb
 8817 16f0 1E       		.uleb128 0x1e
 8818 16f1 AE030000 		.4byte	.LASF69
 8819 16f5 00000000 		.4byte	.LASF71
 8820 16f9 09       		.byte	0x9
 8821 16fa 00       		.byte	0
 8822 16fb AE030000 		.4byte	.LASF69
 8823 16ff 1D       		.uleb128 0x1d
 8824 1700 1E040000 		.4byte	.LASF68
 8825 1704 1E040000 		.4byte	.LASF68
 8826 1708 08       		.byte	0x8
 8827 1709 16       		.byte	0x16
 8828 170a 1E       		.uleb128 0x1e
 8829 170b 84000000 		.4byte	.LASF70
 8830 170f 1F000000 		.4byte	.LASF72
 8831 1713 09       		.byte	0x9
 8832 1714 00       		.byte	0
 8833 1715 84000000 		.4byte	.LASF70
 8834 1719 00       		.byte	0
 8835              		.section	.debug_abbrev,"",%progbits
 8836              	.Ldebug_abbrev0:
 8837 0000 01       		.uleb128 0x1
 8838 0001 11       		.uleb128 0x11
 8839 0002 01       		.byte	0x1
 8840 0003 25       		.uleb128 0x25
 8841 0004 0E       		.uleb128 0xe
 8842 0005 13       		.uleb128 0x13
 8843 0006 0B       		.uleb128 0xb
 8844 0007 03       		.uleb128 0x3
 8845 0008 0E       		.uleb128 0xe
 8846 0009 1B       		.uleb128 0x1b
 8847 000a 0E       		.uleb128 0xe
 8848 000b 55       		.uleb128 0x55
 8849 000c 17       		.uleb128 0x17
 8850 000d 11       		.uleb128 0x11
 8851 000e 01       		.uleb128 0x1
 8852 000f 10       		.uleb128 0x10
 8853 0010 17       		.uleb128 0x17
 8854 0011 00       		.byte	0
 8855 0012 00       		.byte	0
 8856 0013 02       		.uleb128 0x2
 8857 0014 24       		.uleb128 0x24
 8858 0015 00       		.byte	0
 8859 0016 0B       		.uleb128 0xb
 8860 0017 0B       		.uleb128 0xb
 8861 0018 3E       		.uleb128 0x3e
 8862 0019 0B       		.uleb128 0xb
 8863 001a 03       		.uleb128 0x3
 8864 001b 0E       		.uleb128 0xe
 8865 001c 00       		.byte	0
 8866 001d 00       		.byte	0
 8867 001e 03       		.uleb128 0x3
ARM GAS  C:\Users\Phuong\AppData\Local\Temp\ccyLHZOj.s 			page 199


 8868 001f 16       		.uleb128 0x16
 8869 0020 00       		.byte	0
 8870 0021 03       		.uleb128 0x3
 8871 0022 0E       		.uleb128 0xe
 8872 0023 3A       		.uleb128 0x3a
 8873 0024 0B       		.uleb128 0xb
 8874 0025 3B       		.uleb128 0x3b
 8875 0026 0B       		.uleb128 0xb
 8876 0027 49       		.uleb128 0x49
 8877 0028 13       		.uleb128 0x13
 8878 0029 00       		.byte	0
 8879 002a 00       		.byte	0
 8880 002b 04       		.uleb128 0x4
 8881 002c 24       		.uleb128 0x24
 8882 002d 00       		.byte	0
 8883 002e 0B       		.uleb128 0xb
 8884 002f 0B       		.uleb128 0xb
 8885 0030 3E       		.uleb128 0x3e
 8886 0031 0B       		.uleb128 0xb
 8887 0032 03       		.uleb128 0x3
 8888 0033 08       		.uleb128 0x8
 8889 0034 00       		.byte	0
 8890 0035 00       		.byte	0
 8891 0036 05       		.uleb128 0x5
 8892 0037 0F       		.uleb128 0xf
 8893 0038 00       		.byte	0
 8894 0039 0B       		.uleb128 0xb
 8895 003a 0B       		.uleb128 0xb
 8896 003b 49       		.uleb128 0x49
 8897 003c 13       		.uleb128 0x13
 8898 003d 00       		.byte	0
 8899 003e 00       		.byte	0
 8900 003f 06       		.uleb128 0x6
 8901 0040 13       		.uleb128 0x13
 8902 0041 01       		.byte	0x1
 8903 0042 03       		.uleb128 0x3
 8904 0043 0E       		.uleb128 0xe
 8905 0044 0B       		.uleb128 0xb
 8906 0045 05       		.uleb128 0x5
 8907 0046 3A       		.uleb128 0x3a
 8908 0047 0B       		.uleb128 0xb
 8909 0048 3B       		.uleb128 0x3b
 8910 0049 0B       		.uleb128 0xb
 8911 004a 01       		.uleb128 0x1
 8912 004b 13       		.uleb128 0x13
 8913 004c 00       		.byte	0
 8914 004d 00       		.byte	0
 8915 004e 07       		.uleb128 0x7
 8916 004f 0D       		.uleb128 0xd
 8917 0050 00       		.byte	0
 8918 0051 03       		.uleb128 0x3
 8919 0052 08       		.uleb128 0x8
 8920 0053 3A       		.uleb128 0x3a
 8921 0054 0B       		.uleb128 0xb
 8922 0055 3B       		.uleb128 0x3b
 8923 0056 0B       		.uleb128 0xb
 8924 0057 49       		.uleb128 0x49
ARM GAS  C:\Users\Phuong\AppData\Local\Temp\ccyLHZOj.s 			page 200


 8925 0058 13       		.uleb128 0x13
 8926 0059 38       		.uleb128 0x38
 8927 005a 0B       		.uleb128 0xb
 8928 005b 00       		.byte	0
 8929 005c 00       		.byte	0
 8930 005d 08       		.uleb128 0x8
 8931 005e 01       		.uleb128 0x1
 8932 005f 01       		.byte	0x1
 8933 0060 49       		.uleb128 0x49
 8934 0061 13       		.uleb128 0x13
 8935 0062 01       		.uleb128 0x1
 8936 0063 13       		.uleb128 0x13
 8937 0064 00       		.byte	0
 8938 0065 00       		.byte	0
 8939 0066 09       		.uleb128 0x9
 8940 0067 21       		.uleb128 0x21
 8941 0068 00       		.byte	0
 8942 0069 49       		.uleb128 0x49
 8943 006a 13       		.uleb128 0x13
 8944 006b 2F       		.uleb128 0x2f
 8945 006c 0B       		.uleb128 0xb
 8946 006d 00       		.byte	0
 8947 006e 00       		.byte	0
 8948 006f 0A       		.uleb128 0xa
 8949 0070 2E       		.uleb128 0x2e
 8950 0071 01       		.byte	0x1
 8951 0072 03       		.uleb128 0x3
 8952 0073 0E       		.uleb128 0xe
 8953 0074 3A       		.uleb128 0x3a
 8954 0075 0B       		.uleb128 0xb
 8955 0076 3B       		.uleb128 0x3b
 8956 0077 05       		.uleb128 0x5
 8957 0078 27       		.uleb128 0x27
 8958 0079 19       		.uleb128 0x19
 8959 007a 11       		.uleb128 0x11
 8960 007b 01       		.uleb128 0x1
 8961 007c 12       		.uleb128 0x12
 8962 007d 06       		.uleb128 0x6
 8963 007e 40       		.uleb128 0x40
 8964 007f 18       		.uleb128 0x18
 8965 0080 9642     		.uleb128 0x2116
 8966 0082 19       		.uleb128 0x19
 8967 0083 01       		.uleb128 0x1
 8968 0084 13       		.uleb128 0x13
 8969 0085 00       		.byte	0
 8970 0086 00       		.byte	0
 8971 0087 0B       		.uleb128 0xb
 8972 0088 34       		.uleb128 0x34
 8973 0089 00       		.byte	0
 8974 008a 03       		.uleb128 0x3
 8975 008b 08       		.uleb128 0x8
 8976 008c 3A       		.uleb128 0x3a
 8977 008d 0B       		.uleb128 0xb
 8978 008e 3B       		.uleb128 0x3b
 8979 008f 05       		.uleb128 0x5
 8980 0090 49       		.uleb128 0x49
 8981 0091 13       		.uleb128 0x13
ARM GAS  C:\Users\Phuong\AppData\Local\Temp\ccyLHZOj.s 			page 201


 8982 0092 02       		.uleb128 0x2
 8983 0093 17       		.uleb128 0x17
 8984 0094 00       		.byte	0
 8985 0095 00       		.byte	0
 8986 0096 0C       		.uleb128 0xc
 8987 0097 34       		.uleb128 0x34
 8988 0098 00       		.byte	0
 8989 0099 03       		.uleb128 0x3
 8990 009a 08       		.uleb128 0x8
 8991 009b 3A       		.uleb128 0x3a
 8992 009c 0B       		.uleb128 0xb
 8993 009d 3B       		.uleb128 0x3b
 8994 009e 05       		.uleb128 0x5
 8995 009f 49       		.uleb128 0x49
 8996 00a0 13       		.uleb128 0x13
 8997 00a1 02       		.uleb128 0x2
 8998 00a2 18       		.uleb128 0x18
 8999 00a3 00       		.byte	0
 9000 00a4 00       		.byte	0
 9001 00a5 0D       		.uleb128 0xd
 9002 00a6 2E       		.uleb128 0x2e
 9003 00a7 01       		.byte	0x1
 9004 00a8 3F       		.uleb128 0x3f
 9005 00a9 19       		.uleb128 0x19
 9006 00aa 03       		.uleb128 0x3
 9007 00ab 0E       		.uleb128 0xe
 9008 00ac 3A       		.uleb128 0x3a
 9009 00ad 0B       		.uleb128 0xb
 9010 00ae 3B       		.uleb128 0x3b
 9011 00af 05       		.uleb128 0x5
 9012 00b0 27       		.uleb128 0x27
 9013 00b1 19       		.uleb128 0x19
 9014 00b2 11       		.uleb128 0x11
 9015 00b3 01       		.uleb128 0x1
 9016 00b4 12       		.uleb128 0x12
 9017 00b5 06       		.uleb128 0x6
 9018 00b6 40       		.uleb128 0x40
 9019 00b7 18       		.uleb128 0x18
 9020 00b8 9742     		.uleb128 0x2117
 9021 00ba 19       		.uleb128 0x19
 9022 00bb 01       		.uleb128 0x1
 9023 00bc 13       		.uleb128 0x13
 9024 00bd 00       		.byte	0
 9025 00be 00       		.byte	0
 9026 00bf 0E       		.uleb128 0xe
 9027 00c0 05       		.uleb128 0x5
 9028 00c1 00       		.byte	0
 9029 00c2 03       		.uleb128 0x3
 9030 00c3 08       		.uleb128 0x8
 9031 00c4 3A       		.uleb128 0x3a
 9032 00c5 0B       		.uleb128 0xb
 9033 00c6 3B       		.uleb128 0x3b
 9034 00c7 05       		.uleb128 0x5
 9035 00c8 49       		.uleb128 0x49
 9036 00c9 13       		.uleb128 0x13
 9037 00ca 02       		.uleb128 0x2
 9038 00cb 17       		.uleb128 0x17
ARM GAS  C:\Users\Phuong\AppData\Local\Temp\ccyLHZOj.s 			page 202


 9039 00cc 00       		.byte	0
 9040 00cd 00       		.byte	0
 9041 00ce 0F       		.uleb128 0xf
 9042 00cf 898201   		.uleb128 0x4109
 9043 00d2 01       		.byte	0x1
 9044 00d3 11       		.uleb128 0x11
 9045 00d4 01       		.uleb128 0x1
 9046 00d5 31       		.uleb128 0x31
 9047 00d6 13       		.uleb128 0x13
 9048 00d7 00       		.byte	0
 9049 00d8 00       		.byte	0
 9050 00d9 10       		.uleb128 0x10
 9051 00da 8A8201   		.uleb128 0x410a
 9052 00dd 00       		.byte	0
 9053 00de 02       		.uleb128 0x2
 9054 00df 18       		.uleb128 0x18
 9055 00e0 9142     		.uleb128 0x2111
 9056 00e2 18       		.uleb128 0x18
 9057 00e3 00       		.byte	0
 9058 00e4 00       		.byte	0
 9059 00e5 11       		.uleb128 0x11
 9060 00e6 2E       		.uleb128 0x2e
 9061 00e7 01       		.byte	0x1
 9062 00e8 3F       		.uleb128 0x3f
 9063 00e9 19       		.uleb128 0x19
 9064 00ea 03       		.uleb128 0x3
 9065 00eb 0E       		.uleb128 0xe
 9066 00ec 3A       		.uleb128 0x3a
 9067 00ed 0B       		.uleb128 0xb
 9068 00ee 3B       		.uleb128 0x3b
 9069 00ef 05       		.uleb128 0x5
 9070 00f0 27       		.uleb128 0x27
 9071 00f1 19       		.uleb128 0x19
 9072 00f2 49       		.uleb128 0x49
 9073 00f3 13       		.uleb128 0x13
 9074 00f4 11       		.uleb128 0x11
 9075 00f5 01       		.uleb128 0x1
 9076 00f6 12       		.uleb128 0x12
 9077 00f7 06       		.uleb128 0x6
 9078 00f8 40       		.uleb128 0x40
 9079 00f9 18       		.uleb128 0x18
 9080 00fa 9742     		.uleb128 0x2117
 9081 00fc 19       		.uleb128 0x19
 9082 00fd 01       		.uleb128 0x1
 9083 00fe 13       		.uleb128 0x13
 9084 00ff 00       		.byte	0
 9085 0100 00       		.byte	0
 9086 0101 12       		.uleb128 0x12
 9087 0102 05       		.uleb128 0x5
 9088 0103 00       		.byte	0
 9089 0104 03       		.uleb128 0x3
 9090 0105 0E       		.uleb128 0xe
 9091 0106 3A       		.uleb128 0x3a
 9092 0107 0B       		.uleb128 0xb
 9093 0108 3B       		.uleb128 0x3b
 9094 0109 05       		.uleb128 0x5
 9095 010a 49       		.uleb128 0x49
ARM GAS  C:\Users\Phuong\AppData\Local\Temp\ccyLHZOj.s 			page 203


 9096 010b 13       		.uleb128 0x13
 9097 010c 02       		.uleb128 0x2
 9098 010d 17       		.uleb128 0x17
 9099 010e 00       		.byte	0
 9100 010f 00       		.byte	0
 9101 0110 13       		.uleb128 0x13
 9102 0111 898201   		.uleb128 0x4109
 9103 0114 00       		.byte	0
 9104 0115 11       		.uleb128 0x11
 9105 0116 01       		.uleb128 0x1
 9106 0117 31       		.uleb128 0x31
 9107 0118 13       		.uleb128 0x13
 9108 0119 00       		.byte	0
 9109 011a 00       		.byte	0
 9110 011b 14       		.uleb128 0x14
 9111 011c 26       		.uleb128 0x26
 9112 011d 00       		.byte	0
 9113 011e 49       		.uleb128 0x49
 9114 011f 13       		.uleb128 0x13
 9115 0120 00       		.byte	0
 9116 0121 00       		.byte	0
 9117 0122 15       		.uleb128 0x15
 9118 0123 0A       		.uleb128 0xa
 9119 0124 00       		.byte	0
 9120 0125 03       		.uleb128 0x3
 9121 0126 0E       		.uleb128 0xe
 9122 0127 3A       		.uleb128 0x3a
 9123 0128 0B       		.uleb128 0xb
 9124 0129 3B       		.uleb128 0x3b
 9125 012a 05       		.uleb128 0x5
 9126 012b 11       		.uleb128 0x11
 9127 012c 01       		.uleb128 0x1
 9128 012d 00       		.byte	0
 9129 012e 00       		.byte	0
 9130 012f 16       		.uleb128 0x16
 9131 0130 898201   		.uleb128 0x4109
 9132 0133 01       		.byte	0x1
 9133 0134 11       		.uleb128 0x11
 9134 0135 01       		.uleb128 0x1
 9135 0136 31       		.uleb128 0x31
 9136 0137 13       		.uleb128 0x13
 9137 0138 01       		.uleb128 0x1
 9138 0139 13       		.uleb128 0x13
 9139 013a 00       		.byte	0
 9140 013b 00       		.byte	0
 9141 013c 17       		.uleb128 0x17
 9142 013d 34       		.uleb128 0x34
 9143 013e 00       		.byte	0
 9144 013f 03       		.uleb128 0x3
 9145 0140 0E       		.uleb128 0xe
 9146 0141 3A       		.uleb128 0x3a
 9147 0142 0B       		.uleb128 0xb
 9148 0143 3B       		.uleb128 0x3b
 9149 0144 05       		.uleb128 0x5
 9150 0145 49       		.uleb128 0x49
 9151 0146 13       		.uleb128 0x13
 9152 0147 02       		.uleb128 0x2
ARM GAS  C:\Users\Phuong\AppData\Local\Temp\ccyLHZOj.s 			page 204


 9153 0148 18       		.uleb128 0x18
 9154 0149 00       		.byte	0
 9155 014a 00       		.byte	0
 9156 014b 18       		.uleb128 0x18
 9157 014c 05       		.uleb128 0x5
 9158 014d 00       		.byte	0
 9159 014e 03       		.uleb128 0x3
 9160 014f 08       		.uleb128 0x8
 9161 0150 3A       		.uleb128 0x3a
 9162 0151 0B       		.uleb128 0xb
 9163 0152 3B       		.uleb128 0x3b
 9164 0153 05       		.uleb128 0x5
 9165 0154 49       		.uleb128 0x49
 9166 0155 13       		.uleb128 0x13
 9167 0156 02       		.uleb128 0x2
 9168 0157 18       		.uleb128 0x18
 9169 0158 00       		.byte	0
 9170 0159 00       		.byte	0
 9171 015a 19       		.uleb128 0x19
 9172 015b 05       		.uleb128 0x5
 9173 015c 00       		.byte	0
 9174 015d 03       		.uleb128 0x3
 9175 015e 0E       		.uleb128 0xe
 9176 015f 3A       		.uleb128 0x3a
 9177 0160 0B       		.uleb128 0xb
 9178 0161 3B       		.uleb128 0x3b
 9179 0162 05       		.uleb128 0x5
 9180 0163 49       		.uleb128 0x49
 9181 0164 13       		.uleb128 0x13
 9182 0165 02       		.uleb128 0x2
 9183 0166 18       		.uleb128 0x18
 9184 0167 00       		.byte	0
 9185 0168 00       		.byte	0
 9186 0169 1A       		.uleb128 0x1a
 9187 016a 34       		.uleb128 0x34
 9188 016b 00       		.byte	0
 9189 016c 03       		.uleb128 0x3
 9190 016d 0E       		.uleb128 0xe
 9191 016e 3A       		.uleb128 0x3a
 9192 016f 0B       		.uleb128 0xb
 9193 0170 3B       		.uleb128 0x3b
 9194 0171 05       		.uleb128 0x5
 9195 0172 49       		.uleb128 0x49
 9196 0173 13       		.uleb128 0x13
 9197 0174 02       		.uleb128 0x2
 9198 0175 17       		.uleb128 0x17
 9199 0176 00       		.byte	0
 9200 0177 00       		.byte	0
 9201 0178 1B       		.uleb128 0x1b
 9202 0179 0B       		.uleb128 0xb
 9203 017a 01       		.byte	0x1
 9204 017b 11       		.uleb128 0x11
 9205 017c 01       		.uleb128 0x1
 9206 017d 12       		.uleb128 0x12
 9207 017e 06       		.uleb128 0x6
 9208 017f 01       		.uleb128 0x1
 9209 0180 13       		.uleb128 0x13
ARM GAS  C:\Users\Phuong\AppData\Local\Temp\ccyLHZOj.s 			page 205


 9210 0181 00       		.byte	0
 9211 0182 00       		.byte	0
 9212 0183 1C       		.uleb128 0x1c
 9213 0184 2E       		.uleb128 0x2e
 9214 0185 00       		.byte	0
 9215 0186 3F       		.uleb128 0x3f
 9216 0187 19       		.uleb128 0x19
 9217 0188 3C       		.uleb128 0x3c
 9218 0189 19       		.uleb128 0x19
 9219 018a 6E       		.uleb128 0x6e
 9220 018b 0E       		.uleb128 0xe
 9221 018c 03       		.uleb128 0x3
 9222 018d 0E       		.uleb128 0xe
 9223 018e 00       		.byte	0
 9224 018f 00       		.byte	0
 9225 0190 1D       		.uleb128 0x1d
 9226 0191 2E       		.uleb128 0x2e
 9227 0192 00       		.byte	0
 9228 0193 3F       		.uleb128 0x3f
 9229 0194 19       		.uleb128 0x19
 9230 0195 3C       		.uleb128 0x3c
 9231 0196 19       		.uleb128 0x19
 9232 0197 6E       		.uleb128 0x6e
 9233 0198 0E       		.uleb128 0xe
 9234 0199 03       		.uleb128 0x3
 9235 019a 0E       		.uleb128 0xe
 9236 019b 3A       		.uleb128 0x3a
 9237 019c 0B       		.uleb128 0xb
 9238 019d 3B       		.uleb128 0x3b
 9239 019e 0B       		.uleb128 0xb
 9240 019f 00       		.byte	0
 9241 01a0 00       		.byte	0
 9242 01a1 1E       		.uleb128 0x1e
 9243 01a2 2E       		.uleb128 0x2e
 9244 01a3 00       		.byte	0
 9245 01a4 3F       		.uleb128 0x3f
 9246 01a5 19       		.uleb128 0x19
 9247 01a6 3C       		.uleb128 0x3c
 9248 01a7 19       		.uleb128 0x19
 9249 01a8 6E       		.uleb128 0x6e
 9250 01a9 0E       		.uleb128 0xe
 9251 01aa 03       		.uleb128 0x3
 9252 01ab 0E       		.uleb128 0xe
 9253 01ac 3A       		.uleb128 0x3a
 9254 01ad 0B       		.uleb128 0xb
 9255 01ae 3B       		.uleb128 0x3b
 9256 01af 0B       		.uleb128 0xb
 9257 01b0 6E       		.uleb128 0x6e
 9258 01b1 0E       		.uleb128 0xe
 9259 01b2 00       		.byte	0
 9260 01b3 00       		.byte	0
 9261 01b4 00       		.byte	0
 9262              		.section	.debug_loc,"",%progbits
 9263              	.Ldebug_loc0:
 9264              	.LLST0:
 9265 0000 06000000 		.4byte	.LVL0
 9266 0004 0C000000 		.4byte	.LVL1
ARM GAS  C:\Users\Phuong\AppData\Local\Temp\ccyLHZOj.s 			page 206


 9267 0008 0200     		.2byte	0x2
 9268 000a 30       		.byte	0x30
 9269 000b 9F       		.byte	0x9f
 9270 000c 0C000000 		.4byte	.LVL1
 9271 0010 36000000 		.4byte	.LVL6
 9272 0014 0100     		.2byte	0x1
 9273 0016 51       		.byte	0x51
 9274 0017 38000000 		.4byte	.LVL7
 9275 001b 56000000 		.4byte	.LVL11
 9276 001f 0100     		.2byte	0x1
 9277 0021 51       		.byte	0x51
 9278 0022 64000000 		.4byte	.LVL13
 9279 0026 68000000 		.4byte	.LVL14
 9280 002a 0200     		.2byte	0x2
 9281 002c 31       		.byte	0x31
 9282 002d 9F       		.byte	0x9f
 9283 002e 68000000 		.4byte	.LVL14
 9284 0032 C4000000 		.4byte	.LVL32
 9285 0036 0100     		.2byte	0x1
 9286 0038 50       		.byte	0x50
 9287 0039 C4000000 		.4byte	.LVL32
 9288 003d DA010000 		.4byte	.LVL46
 9289 0041 0100     		.2byte	0x1
 9290 0043 54       		.byte	0x54
 9291 0044 00000000 		.4byte	0
 9292 0048 00000000 		.4byte	0
 9293              	.LLST1:
 9294 004c 06000000 		.4byte	.LVL0
 9295 0050 0C000000 		.4byte	.LVL1
 9296 0054 0200     		.2byte	0x2
 9297 0056 31       		.byte	0x31
 9298 0057 9F       		.byte	0x9f
 9299 0058 0C000000 		.4byte	.LVL1
 9300 005c 28000000 		.4byte	.LVL2
 9301 0060 0100     		.2byte	0x1
 9302 0062 53       		.byte	0x53
 9303 0063 28000000 		.4byte	.LVL2
 9304 0067 2C000000 		.4byte	.LVL3
 9305 006b 0B00     		.2byte	0xb
 9306 006d 71       		.byte	0x71
 9307 006e 00       		.sleb128 0
 9308 006f 32       		.byte	0x32
 9309 0070 24       		.byte	0x24
 9310 0071 91       		.byte	0x91
 9311 0072 00       		.sleb128 0
 9312 0073 22       		.byte	0x22
 9313 0074 0A       		.byte	0xa
 9314 0075 1804     		.2byte	0x418
 9315 0077 1C       		.byte	0x1c
 9316 0078 2C000000 		.4byte	.LVL3
 9317 007c 34000000 		.4byte	.LVL5
 9318 0080 0100     		.2byte	0x1
 9319 0082 53       		.byte	0x53
 9320 0083 38000000 		.4byte	.LVL7
 9321 0087 44000000 		.4byte	.LVL8
 9322 008b 0100     		.2byte	0x1
 9323 008d 53       		.byte	0x53
ARM GAS  C:\Users\Phuong\AppData\Local\Temp\ccyLHZOj.s 			page 207


 9324 008e 44000000 		.4byte	.LVL8
 9325 0092 4E000000 		.4byte	.LVL9
 9326 0096 0A00     		.2byte	0xa
 9327 0098 71       		.byte	0x71
 9328 0099 00       		.sleb128 0
 9329 009a 32       		.byte	0x32
 9330 009b 24       		.byte	0x24
 9331 009c 03       		.byte	0x3
 9332 009d 00000000 		.4byte	.LANCHOR0
 9333 00a1 22       		.byte	0x22
 9334 00a2 4E000000 		.4byte	.LVL9
 9335 00a6 58000000 		.4byte	.LVL12
 9336 00aa 0100     		.2byte	0x1
 9337 00ac 53       		.byte	0x53
 9338 00ad 7A000000 		.4byte	.LVL15
 9339 00b1 8E000000 		.4byte	.LVL20
 9340 00b5 0100     		.2byte	0x1
 9341 00b7 53       		.byte	0x53
 9342 00b8 8E000000 		.4byte	.LVL20
 9343 00bc 90000000 		.4byte	.LVL21
 9344 00c0 5500     		.2byte	0x55
 9345 00c2 74       		.byte	0x74
 9346 00c3 00       		.sleb128 0
 9347 00c4 70       		.byte	0x70
 9348 00c5 00       		.sleb128 0
 9349 00c6 32       		.byte	0x32
 9350 00c7 24       		.byte	0x24
 9351 00c8 91       		.byte	0x91
 9352 00c9 00       		.sleb128 0
 9353 00ca 22       		.byte	0x22
 9354 00cb 0A       		.byte	0xa
 9355 00cc 1808     		.2byte	0x818
 9356 00ce 1C       		.byte	0x1c
 9357 00cf 06       		.byte	0x6
 9358 00d0 1C       		.byte	0x1c
 9359 00d1 32       		.byte	0x32
 9360 00d2 24       		.byte	0x24
 9361 00d3 91       		.byte	0x91
 9362 00d4 00       		.sleb128 0
 9363 00d5 22       		.byte	0x22
 9364 00d6 0A       		.byte	0xa
 9365 00d7 1804     		.2byte	0x418
 9366 00d9 1C       		.byte	0x1c
 9367 00da 06       		.byte	0x6
 9368 00db 31       		.byte	0x31
 9369 00dc 24       		.byte	0x24
 9370 00dd 74       		.byte	0x74
 9371 00de 00       		.sleb128 0
 9372 00df 70       		.byte	0x70
 9373 00e0 00       		.sleb128 0
 9374 00e1 32       		.byte	0x32
 9375 00e2 24       		.byte	0x24
 9376 00e3 91       		.byte	0x91
 9377 00e4 00       		.sleb128 0
 9378 00e5 22       		.byte	0x22
 9379 00e6 0A       		.byte	0xa
 9380 00e7 1808     		.2byte	0x818
ARM GAS  C:\Users\Phuong\AppData\Local\Temp\ccyLHZOj.s 			page 208


 9381 00e9 1C       		.byte	0x1c
 9382 00ea 06       		.byte	0x6
 9383 00eb 1C       		.byte	0x1c
 9384 00ec 32       		.byte	0x32
 9385 00ed 24       		.byte	0x24
 9386 00ee 91       		.byte	0x91
 9387 00ef 00       		.sleb128 0
 9388 00f0 22       		.byte	0x22
 9389 00f1 0A       		.byte	0xa
 9390 00f2 1804     		.2byte	0x418
 9391 00f4 1C       		.byte	0x1c
 9392 00f5 06       		.byte	0x6
 9393 00f6 37       		.byte	0x37
 9394 00f7 26       		.byte	0x26
 9395 00f8 21       		.byte	0x21
 9396 00f9 74       		.byte	0x74
 9397 00fa 00       		.sleb128 0
 9398 00fb 1A       		.byte	0x1a
 9399 00fc 74       		.byte	0x74
 9400 00fd 00       		.sleb128 0
 9401 00fe 70       		.byte	0x70
 9402 00ff 00       		.sleb128 0
 9403 0100 32       		.byte	0x32
 9404 0101 24       		.byte	0x24
 9405 0102 91       		.byte	0x91
 9406 0103 00       		.sleb128 0
 9407 0104 22       		.byte	0x22
 9408 0105 0A       		.byte	0xa
 9409 0106 1808     		.2byte	0x818
 9410 0108 1C       		.byte	0x1c
 9411 0109 06       		.byte	0x6
 9412 010a 1C       		.byte	0x1c
 9413 010b 32       		.byte	0x32
 9414 010c 24       		.byte	0x24
 9415 010d 91       		.byte	0x91
 9416 010e 00       		.sleb128 0
 9417 010f 22       		.byte	0x22
 9418 0110 0A       		.byte	0xa
 9419 0111 1804     		.2byte	0x418
 9420 0113 1C       		.byte	0x1c
 9421 0114 06       		.byte	0x6
 9422 0115 27       		.byte	0x27
 9423 0116 9F       		.byte	0x9f
 9424 0117 90000000 		.4byte	.LVL21
 9425 011b B8000000 		.4byte	.LVL30
 9426 011f 0100     		.2byte	0x1
 9427 0121 51       		.byte	0x51
 9428 0122 CC000000 		.4byte	.LVL33
 9429 0126 F0000000 		.4byte	.LVL37
 9430 012a 0100     		.2byte	0x1
 9431 012c 53       		.byte	0x53
 9432 012d F0000000 		.4byte	.LVL37
 9433 0131 1A010000 		.4byte	.LVL39
 9434 0135 0E00     		.2byte	0xe
 9435 0137 74       		.byte	0x74
 9436 0138 00       		.sleb128 0
 9437 0139 03       		.byte	0x3
ARM GAS  C:\Users\Phuong\AppData\Local\Temp\ccyLHZOj.s 			page 209


 9438 013a 28000000 		.4byte	.LANCHOR0+40
 9439 013e 22       		.byte	0x22
 9440 013f 94       		.byte	0x94
 9441 0140 01       		.byte	0x1
 9442 0141 08       		.byte	0x8
 9443 0142 FF       		.byte	0xff
 9444 0143 1A       		.byte	0x1a
 9445 0144 9F       		.byte	0x9f
 9446 0145 1A010000 		.4byte	.LVL39
 9447 0149 1C010000 		.4byte	.LVL40
 9448 014d 1100     		.2byte	0x11
 9449 014f 72       		.byte	0x72
 9450 0150 00       		.sleb128 0
 9451 0151 74       		.byte	0x74
 9452 0152 00       		.sleb128 0
 9453 0153 22       		.byte	0x22
 9454 0154 03       		.byte	0x3
 9455 0155 00000000 		.4byte	.LANCHOR0
 9456 0159 22       		.byte	0x22
 9457 015a 94       		.byte	0x94
 9458 015b 01       		.byte	0x1
 9459 015c 08       		.byte	0x8
 9460 015d FF       		.byte	0xff
 9461 015e 1A       		.byte	0x1a
 9462 015f 9F       		.byte	0x9f
 9463 0160 1C010000 		.4byte	.LVL40
 9464 0164 D0010000 		.4byte	.LVL45
 9465 0168 0100     		.2byte	0x1
 9466 016a 56       		.byte	0x56
 9467 016b 00000000 		.4byte	0
 9468 016f 00000000 		.4byte	0
 9469              	.LLST2:
 9470 0173 7A000000 		.4byte	.LVL15
 9471 0177 82000000 		.4byte	.LVL16
 9472 017b 0100     		.2byte	0x1
 9473 017d 53       		.byte	0x53
 9474 017e 82000000 		.4byte	.LVL16
 9475 0182 88000000 		.4byte	.LVL18
 9476 0186 0100     		.2byte	0x1
 9477 0188 51       		.byte	0x51
 9478 0189 88000000 		.4byte	.LVL18
 9479 018d 8C000000 		.4byte	.LVL19
 9480 0191 3B00     		.2byte	0x3b
 9481 0193 74       		.byte	0x74
 9482 0194 00       		.sleb128 0
 9483 0195 70       		.byte	0x70
 9484 0196 00       		.sleb128 0
 9485 0197 32       		.byte	0x32
 9486 0198 24       		.byte	0x24
 9487 0199 91       		.byte	0x91
 9488 019a 00       		.sleb128 0
 9489 019b 22       		.byte	0x22
 9490 019c 0A       		.byte	0xa
 9491 019d 1808     		.2byte	0x818
 9492 019f 1C       		.byte	0x1c
 9493 01a0 06       		.byte	0x6
 9494 01a1 1C       		.byte	0x1c
ARM GAS  C:\Users\Phuong\AppData\Local\Temp\ccyLHZOj.s 			page 210


 9495 01a2 32       		.byte	0x32
 9496 01a3 24       		.byte	0x24
 9497 01a4 91       		.byte	0x91
 9498 01a5 00       		.sleb128 0
 9499 01a6 22       		.byte	0x22
 9500 01a7 0A       		.byte	0xa
 9501 01a8 1804     		.2byte	0x418
 9502 01aa 1C       		.byte	0x1c
 9503 01ab 06       		.byte	0x6
 9504 01ac 31       		.byte	0x31
 9505 01ad 24       		.byte	0x24
 9506 01ae 74       		.byte	0x74
 9507 01af 00       		.sleb128 0
 9508 01b0 70       		.byte	0x70
 9509 01b1 00       		.sleb128 0
 9510 01b2 32       		.byte	0x32
 9511 01b3 24       		.byte	0x24
 9512 01b4 91       		.byte	0x91
 9513 01b5 00       		.sleb128 0
 9514 01b6 22       		.byte	0x22
 9515 01b7 0A       		.byte	0xa
 9516 01b8 1808     		.2byte	0x818
 9517 01ba 1C       		.byte	0x1c
 9518 01bb 06       		.byte	0x6
 9519 01bc 1C       		.byte	0x1c
 9520 01bd 32       		.byte	0x32
 9521 01be 24       		.byte	0x24
 9522 01bf 91       		.byte	0x91
 9523 01c0 00       		.sleb128 0
 9524 01c1 22       		.byte	0x22
 9525 01c2 0A       		.byte	0xa
 9526 01c3 1804     		.2byte	0x418
 9527 01c5 1C       		.byte	0x1c
 9528 01c6 06       		.byte	0x6
 9529 01c7 37       		.byte	0x37
 9530 01c8 26       		.byte	0x26
 9531 01c9 21       		.byte	0x21
 9532 01ca 74       		.byte	0x74
 9533 01cb 00       		.sleb128 0
 9534 01cc 1A       		.byte	0x1a
 9535 01cd 9F       		.byte	0x9f
 9536 01ce 8C000000 		.4byte	.LVL19
 9537 01d2 94000000 		.4byte	.LVL22
 9538 01d6 0100     		.2byte	0x1
 9539 01d8 52       		.byte	0x52
 9540 01d9 94000000 		.4byte	.LVL22
 9541 01dd 9A000000 		.4byte	.LVL23
 9542 01e1 7D00     		.2byte	0x7d
 9543 01e3 74       		.byte	0x74
 9544 01e4 00       		.sleb128 0
 9545 01e5 70       		.byte	0x70
 9546 01e6 00       		.sleb128 0
 9547 01e7 32       		.byte	0x32
 9548 01e8 24       		.byte	0x24
 9549 01e9 91       		.byte	0x91
 9550 01ea 00       		.sleb128 0
 9551 01eb 22       		.byte	0x22
ARM GAS  C:\Users\Phuong\AppData\Local\Temp\ccyLHZOj.s 			page 211


 9552 01ec 0A       		.byte	0xa
 9553 01ed 1808     		.2byte	0x818
 9554 01ef 1C       		.byte	0x1c
 9555 01f0 06       		.byte	0x6
 9556 01f1 1C       		.byte	0x1c
 9557 01f2 32       		.byte	0x32
 9558 01f3 24       		.byte	0x24
 9559 01f4 91       		.byte	0x91
 9560 01f5 00       		.sleb128 0
 9561 01f6 22       		.byte	0x22
 9562 01f7 0A       		.byte	0xa
 9563 01f8 1804     		.2byte	0x418
 9564 01fa 1C       		.byte	0x1c
 9565 01fb 06       		.byte	0x6
 9566 01fc 31       		.byte	0x31
 9567 01fd 24       		.byte	0x24
 9568 01fe 74       		.byte	0x74
 9569 01ff 00       		.sleb128 0
 9570 0200 70       		.byte	0x70
 9571 0201 00       		.sleb128 0
 9572 0202 32       		.byte	0x32
 9573 0203 24       		.byte	0x24
 9574 0204 91       		.byte	0x91
 9575 0205 00       		.sleb128 0
 9576 0206 22       		.byte	0x22
 9577 0207 0A       		.byte	0xa
 9578 0208 1808     		.2byte	0x818
 9579 020a 1C       		.byte	0x1c
 9580 020b 06       		.byte	0x6
 9581 020c 1C       		.byte	0x1c
 9582 020d 32       		.byte	0x32
 9583 020e 24       		.byte	0x24
 9584 020f 91       		.byte	0x91
 9585 0210 00       		.sleb128 0
 9586 0211 22       		.byte	0x22
 9587 0212 0A       		.byte	0xa
 9588 0213 1804     		.2byte	0x418
 9589 0215 1C       		.byte	0x1c
 9590 0216 06       		.byte	0x6
 9591 0217 37       		.byte	0x37
 9592 0218 26       		.byte	0x26
 9593 0219 21       		.byte	0x21
 9594 021a 74       		.byte	0x74
 9595 021b 00       		.sleb128 0
 9596 021c 1A       		.byte	0x1a
 9597 021d 31       		.byte	0x31
 9598 021e 24       		.byte	0x24
 9599 021f 74       		.byte	0x74
 9600 0220 00       		.sleb128 0
 9601 0221 70       		.byte	0x70
 9602 0222 00       		.sleb128 0
 9603 0223 32       		.byte	0x32
 9604 0224 24       		.byte	0x24
 9605 0225 91       		.byte	0x91
 9606 0226 00       		.sleb128 0
 9607 0227 22       		.byte	0x22
 9608 0228 0A       		.byte	0xa
ARM GAS  C:\Users\Phuong\AppData\Local\Temp\ccyLHZOj.s 			page 212


 9609 0229 1808     		.2byte	0x818
 9610 022b 1C       		.byte	0x1c
 9611 022c 06       		.byte	0x6
 9612 022d 1C       		.byte	0x1c
 9613 022e 32       		.byte	0x32
 9614 022f 24       		.byte	0x24
 9615 0230 91       		.byte	0x91
 9616 0231 00       		.sleb128 0
 9617 0232 22       		.byte	0x22
 9618 0233 0A       		.byte	0xa
 9619 0234 1804     		.2byte	0x418
 9620 0236 1C       		.byte	0x1c
 9621 0237 06       		.byte	0x6
 9622 0238 31       		.byte	0x31
 9623 0239 24       		.byte	0x24
 9624 023a 74       		.byte	0x74
 9625 023b 00       		.sleb128 0
 9626 023c 70       		.byte	0x70
 9627 023d 00       		.sleb128 0
 9628 023e 32       		.byte	0x32
 9629 023f 24       		.byte	0x24
 9630 0240 91       		.byte	0x91
 9631 0241 00       		.sleb128 0
 9632 0242 22       		.byte	0x22
 9633 0243 0A       		.byte	0xa
 9634 0244 1808     		.2byte	0x818
 9635 0246 1C       		.byte	0x1c
 9636 0247 06       		.byte	0x6
 9637 0248 1C       		.byte	0x1c
 9638 0249 32       		.byte	0x32
 9639 024a 24       		.byte	0x24
 9640 024b 91       		.byte	0x91
 9641 024c 00       		.sleb128 0
 9642 024d 22       		.byte	0x22
 9643 024e 0A       		.byte	0xa
 9644 024f 1804     		.2byte	0x418
 9645 0251 1C       		.byte	0x1c
 9646 0252 06       		.byte	0x6
 9647 0253 37       		.byte	0x37
 9648 0254 26       		.byte	0x26
 9649 0255 21       		.byte	0x21
 9650 0256 74       		.byte	0x74
 9651 0257 00       		.sleb128 0
 9652 0258 1A       		.byte	0x1a
 9653 0259 37       		.byte	0x37
 9654 025a 26       		.byte	0x26
 9655 025b 21       		.byte	0x21
 9656 025c 74       		.byte	0x74
 9657 025d 00       		.sleb128 0
 9658 025e 1A       		.byte	0x1a
 9659 025f 9F       		.byte	0x9f
 9660 0260 9A000000 		.4byte	.LVL23
 9661 0264 A2000000 		.4byte	.LVL25
 9662 0268 0100     		.2byte	0x1
 9663 026a 53       		.byte	0x53
 9664 026b A2000000 		.4byte	.LVL25
 9665 026f A6000000 		.4byte	.LVL26
ARM GAS  C:\Users\Phuong\AppData\Local\Temp\ccyLHZOj.s 			page 213


 9666 0273 0101     		.2byte	0x101
 9667 0275 74       		.byte	0x74
 9668 0276 00       		.sleb128 0
 9669 0277 70       		.byte	0x70
 9670 0278 00       		.sleb128 0
 9671 0279 32       		.byte	0x32
 9672 027a 24       		.byte	0x24
 9673 027b 91       		.byte	0x91
 9674 027c 00       		.sleb128 0
 9675 027d 22       		.byte	0x22
 9676 027e 0A       		.byte	0xa
 9677 027f 1808     		.2byte	0x818
 9678 0281 1C       		.byte	0x1c
 9679 0282 06       		.byte	0x6
 9680 0283 1C       		.byte	0x1c
 9681 0284 32       		.byte	0x32
 9682 0285 24       		.byte	0x24
 9683 0286 91       		.byte	0x91
 9684 0287 00       		.sleb128 0
 9685 0288 22       		.byte	0x22
 9686 0289 0A       		.byte	0xa
 9687 028a 1804     		.2byte	0x418
 9688 028c 1C       		.byte	0x1c
 9689 028d 06       		.byte	0x6
 9690 028e 31       		.byte	0x31
 9691 028f 24       		.byte	0x24
 9692 0290 74       		.byte	0x74
 9693 0291 00       		.sleb128 0
 9694 0292 70       		.byte	0x70
 9695 0293 00       		.sleb128 0
 9696 0294 32       		.byte	0x32
 9697 0295 24       		.byte	0x24
 9698 0296 91       		.byte	0x91
 9699 0297 00       		.sleb128 0
 9700 0298 22       		.byte	0x22
 9701 0299 0A       		.byte	0xa
 9702 029a 1808     		.2byte	0x818
 9703 029c 1C       		.byte	0x1c
 9704 029d 06       		.byte	0x6
 9705 029e 1C       		.byte	0x1c
 9706 029f 32       		.byte	0x32
 9707 02a0 24       		.byte	0x24
 9708 02a1 91       		.byte	0x91
 9709 02a2 00       		.sleb128 0
 9710 02a3 22       		.byte	0x22
 9711 02a4 0A       		.byte	0xa
 9712 02a5 1804     		.2byte	0x418
 9713 02a7 1C       		.byte	0x1c
 9714 02a8 06       		.byte	0x6
 9715 02a9 37       		.byte	0x37
 9716 02aa 26       		.byte	0x26
 9717 02ab 21       		.byte	0x21
 9718 02ac 74       		.byte	0x74
 9719 02ad 00       		.sleb128 0
 9720 02ae 1A       		.byte	0x1a
 9721 02af 31       		.byte	0x31
 9722 02b0 24       		.byte	0x24
ARM GAS  C:\Users\Phuong\AppData\Local\Temp\ccyLHZOj.s 			page 214


 9723 02b1 74       		.byte	0x74
 9724 02b2 00       		.sleb128 0
 9725 02b3 70       		.byte	0x70
 9726 02b4 00       		.sleb128 0
 9727 02b5 32       		.byte	0x32
 9728 02b6 24       		.byte	0x24
 9729 02b7 91       		.byte	0x91
 9730 02b8 00       		.sleb128 0
 9731 02b9 22       		.byte	0x22
 9732 02ba 0A       		.byte	0xa
 9733 02bb 1808     		.2byte	0x818
 9734 02bd 1C       		.byte	0x1c
 9735 02be 06       		.byte	0x6
 9736 02bf 1C       		.byte	0x1c
 9737 02c0 32       		.byte	0x32
 9738 02c1 24       		.byte	0x24
 9739 02c2 91       		.byte	0x91
 9740 02c3 00       		.sleb128 0
 9741 02c4 22       		.byte	0x22
 9742 02c5 0A       		.byte	0xa
 9743 02c6 1804     		.2byte	0x418
 9744 02c8 1C       		.byte	0x1c
 9745 02c9 06       		.byte	0x6
 9746 02ca 31       		.byte	0x31
 9747 02cb 24       		.byte	0x24
 9748 02cc 74       		.byte	0x74
 9749 02cd 00       		.sleb128 0
 9750 02ce 70       		.byte	0x70
 9751 02cf 00       		.sleb128 0
 9752 02d0 32       		.byte	0x32
 9753 02d1 24       		.byte	0x24
 9754 02d2 91       		.byte	0x91
 9755 02d3 00       		.sleb128 0
 9756 02d4 22       		.byte	0x22
 9757 02d5 0A       		.byte	0xa
 9758 02d6 1808     		.2byte	0x818
 9759 02d8 1C       		.byte	0x1c
 9760 02d9 06       		.byte	0x6
 9761 02da 1C       		.byte	0x1c
 9762 02db 32       		.byte	0x32
 9763 02dc 24       		.byte	0x24
 9764 02dd 91       		.byte	0x91
 9765 02de 00       		.sleb128 0
 9766 02df 22       		.byte	0x22
 9767 02e0 0A       		.byte	0xa
 9768 02e1 1804     		.2byte	0x418
 9769 02e3 1C       		.byte	0x1c
 9770 02e4 06       		.byte	0x6
 9771 02e5 37       		.byte	0x37
 9772 02e6 26       		.byte	0x26
 9773 02e7 21       		.byte	0x21
 9774 02e8 74       		.byte	0x74
 9775 02e9 00       		.sleb128 0
 9776 02ea 1A       		.byte	0x1a
 9777 02eb 37       		.byte	0x37
 9778 02ec 26       		.byte	0x26
 9779 02ed 21       		.byte	0x21
ARM GAS  C:\Users\Phuong\AppData\Local\Temp\ccyLHZOj.s 			page 215


 9780 02ee 74       		.byte	0x74
 9781 02ef 00       		.sleb128 0
 9782 02f0 1A       		.byte	0x1a
 9783 02f1 37       		.byte	0x37
 9784 02f2 26       		.byte	0x26
 9785 02f3 74       		.byte	0x74
 9786 02f4 00       		.sleb128 0
 9787 02f5 70       		.byte	0x70
 9788 02f6 00       		.sleb128 0
 9789 02f7 32       		.byte	0x32
 9790 02f8 24       		.byte	0x24
 9791 02f9 91       		.byte	0x91
 9792 02fa 00       		.sleb128 0
 9793 02fb 22       		.byte	0x22
 9794 02fc 0A       		.byte	0xa
 9795 02fd 1808     		.2byte	0x818
 9796 02ff 1C       		.byte	0x1c
 9797 0300 06       		.byte	0x6
 9798 0301 1C       		.byte	0x1c
 9799 0302 32       		.byte	0x32
 9800 0303 24       		.byte	0x24
 9801 0304 91       		.byte	0x91
 9802 0305 00       		.sleb128 0
 9803 0306 22       		.byte	0x22
 9804 0307 0A       		.byte	0xa
 9805 0308 1804     		.2byte	0x418
 9806 030a 1C       		.byte	0x1c
 9807 030b 06       		.byte	0x6
 9808 030c 31       		.byte	0x31
 9809 030d 24       		.byte	0x24
 9810 030e 74       		.byte	0x74
 9811 030f 00       		.sleb128 0
 9812 0310 70       		.byte	0x70
 9813 0311 00       		.sleb128 0
 9814 0312 32       		.byte	0x32
 9815 0313 24       		.byte	0x24
 9816 0314 91       		.byte	0x91
 9817 0315 00       		.sleb128 0
 9818 0316 22       		.byte	0x22
 9819 0317 0A       		.byte	0xa
 9820 0318 1808     		.2byte	0x818
 9821 031a 1C       		.byte	0x1c
 9822 031b 06       		.byte	0x6
 9823 031c 1C       		.byte	0x1c
 9824 031d 32       		.byte	0x32
 9825 031e 24       		.byte	0x24
 9826 031f 91       		.byte	0x91
 9827 0320 00       		.sleb128 0
 9828 0321 22       		.byte	0x22
 9829 0322 0A       		.byte	0xa
 9830 0323 1804     		.2byte	0x418
 9831 0325 1C       		.byte	0x1c
 9832 0326 06       		.byte	0x6
 9833 0327 37       		.byte	0x37
 9834 0328 26       		.byte	0x26
 9835 0329 21       		.byte	0x21
 9836 032a 74       		.byte	0x74
ARM GAS  C:\Users\Phuong\AppData\Local\Temp\ccyLHZOj.s 			page 216


 9837 032b 00       		.sleb128 0
 9838 032c 1A       		.byte	0x1a
 9839 032d 31       		.byte	0x31
 9840 032e 24       		.byte	0x24
 9841 032f 74       		.byte	0x74
 9842 0330 00       		.sleb128 0
 9843 0331 70       		.byte	0x70
 9844 0332 00       		.sleb128 0
 9845 0333 32       		.byte	0x32
 9846 0334 24       		.byte	0x24
 9847 0335 91       		.byte	0x91
 9848 0336 00       		.sleb128 0
 9849 0337 22       		.byte	0x22
 9850 0338 0A       		.byte	0xa
 9851 0339 1808     		.2byte	0x818
 9852 033b 1C       		.byte	0x1c
 9853 033c 06       		.byte	0x6
 9854 033d 1C       		.byte	0x1c
 9855 033e 32       		.byte	0x32
 9856 033f 24       		.byte	0x24
 9857 0340 91       		.byte	0x91
 9858 0341 00       		.sleb128 0
 9859 0342 22       		.byte	0x22
 9860 0343 0A       		.byte	0xa
 9861 0344 1804     		.2byte	0x418
 9862 0346 1C       		.byte	0x1c
 9863 0347 06       		.byte	0x6
 9864 0348 31       		.byte	0x31
 9865 0349 24       		.byte	0x24
 9866 034a 74       		.byte	0x74
 9867 034b 00       		.sleb128 0
 9868 034c 70       		.byte	0x70
 9869 034d 00       		.sleb128 0
 9870 034e 32       		.byte	0x32
 9871 034f 24       		.byte	0x24
 9872 0350 91       		.byte	0x91
 9873 0351 00       		.sleb128 0
 9874 0352 22       		.byte	0x22
 9875 0353 0A       		.byte	0xa
 9876 0354 1808     		.2byte	0x818
 9877 0356 1C       		.byte	0x1c
 9878 0357 06       		.byte	0x6
 9879 0358 1C       		.byte	0x1c
 9880 0359 32       		.byte	0x32
 9881 035a 24       		.byte	0x24
 9882 035b 91       		.byte	0x91
 9883 035c 00       		.sleb128 0
 9884 035d 22       		.byte	0x22
 9885 035e 0A       		.byte	0xa
 9886 035f 1804     		.2byte	0x418
 9887 0361 1C       		.byte	0x1c
 9888 0362 06       		.byte	0x6
 9889 0363 37       		.byte	0x37
 9890 0364 26       		.byte	0x26
 9891 0365 21       		.byte	0x21
 9892 0366 74       		.byte	0x74
 9893 0367 00       		.sleb128 0
ARM GAS  C:\Users\Phuong\AppData\Local\Temp\ccyLHZOj.s 			page 217


 9894 0368 1A       		.byte	0x1a
 9895 0369 37       		.byte	0x37
 9896 036a 26       		.byte	0x26
 9897 036b 21       		.byte	0x21
 9898 036c 74       		.byte	0x74
 9899 036d 00       		.sleb128 0
 9900 036e 1A       		.byte	0x1a
 9901 036f 31       		.byte	0x31
 9902 0370 24       		.byte	0x24
 9903 0371 21       		.byte	0x21
 9904 0372 74       		.byte	0x74
 9905 0373 00       		.sleb128 0
 9906 0374 1A       		.byte	0x1a
 9907 0375 9F       		.byte	0x9f
 9908 0376 A6000000 		.4byte	.LVL26
 9909 037a AA000000 		.4byte	.LVL27
 9910 037e 0100     		.2byte	0x1
 9911 0380 53       		.byte	0x53
 9912 0381 AA000000 		.4byte	.LVL27
 9913 0385 B0000000 		.4byte	.LVL29
 9914 0389 0600     		.2byte	0x6
 9915 038b 73       		.byte	0x73
 9916 038c 00       		.sleb128 0
 9917 038d 08       		.byte	0x8
 9918 038e 63       		.byte	0x63
 9919 038f 27       		.byte	0x27
 9920 0390 9F       		.byte	0x9f
 9921 0391 B0000000 		.4byte	.LVL29
 9922 0395 BC000000 		.4byte	.LVL31
 9923 0399 0901     		.2byte	0x109
 9924 039b 74       		.byte	0x74
 9925 039c 00       		.sleb128 0
 9926 039d 70       		.byte	0x70
 9927 039e 00       		.sleb128 0
 9928 039f 32       		.byte	0x32
 9929 03a0 24       		.byte	0x24
 9930 03a1 91       		.byte	0x91
 9931 03a2 00       		.sleb128 0
 9932 03a3 22       		.byte	0x22
 9933 03a4 0A       		.byte	0xa
 9934 03a5 1808     		.2byte	0x818
 9935 03a7 1C       		.byte	0x1c
 9936 03a8 06       		.byte	0x6
 9937 03a9 1C       		.byte	0x1c
 9938 03aa 32       		.byte	0x32
 9939 03ab 24       		.byte	0x24
 9940 03ac 91       		.byte	0x91
 9941 03ad 00       		.sleb128 0
 9942 03ae 22       		.byte	0x22
 9943 03af 0A       		.byte	0xa
 9944 03b0 1804     		.2byte	0x418
 9945 03b2 1C       		.byte	0x1c
 9946 03b3 06       		.byte	0x6
 9947 03b4 31       		.byte	0x31
 9948 03b5 24       		.byte	0x24
 9949 03b6 74       		.byte	0x74
 9950 03b7 00       		.sleb128 0
ARM GAS  C:\Users\Phuong\AppData\Local\Temp\ccyLHZOj.s 			page 218


 9951 03b8 70       		.byte	0x70
 9952 03b9 00       		.sleb128 0
 9953 03ba 32       		.byte	0x32
 9954 03bb 24       		.byte	0x24
 9955 03bc 91       		.byte	0x91
 9956 03bd 00       		.sleb128 0
 9957 03be 22       		.byte	0x22
 9958 03bf 0A       		.byte	0xa
 9959 03c0 1808     		.2byte	0x818
 9960 03c2 1C       		.byte	0x1c
 9961 03c3 06       		.byte	0x6
 9962 03c4 1C       		.byte	0x1c
 9963 03c5 32       		.byte	0x32
 9964 03c6 24       		.byte	0x24
 9965 03c7 91       		.byte	0x91
 9966 03c8 00       		.sleb128 0
 9967 03c9 22       		.byte	0x22
 9968 03ca 0A       		.byte	0xa
 9969 03cb 1804     		.2byte	0x418
 9970 03cd 1C       		.byte	0x1c
 9971 03ce 06       		.byte	0x6
 9972 03cf 37       		.byte	0x37
 9973 03d0 26       		.byte	0x26
 9974 03d1 21       		.byte	0x21
 9975 03d2 74       		.byte	0x74
 9976 03d3 00       		.sleb128 0
 9977 03d4 1A       		.byte	0x1a
 9978 03d5 31       		.byte	0x31
 9979 03d6 24       		.byte	0x24
 9980 03d7 74       		.byte	0x74
 9981 03d8 00       		.sleb128 0
 9982 03d9 70       		.byte	0x70
 9983 03da 00       		.sleb128 0
 9984 03db 32       		.byte	0x32
 9985 03dc 24       		.byte	0x24
 9986 03dd 91       		.byte	0x91
 9987 03de 00       		.sleb128 0
 9988 03df 22       		.byte	0x22
 9989 03e0 0A       		.byte	0xa
 9990 03e1 1808     		.2byte	0x818
 9991 03e3 1C       		.byte	0x1c
 9992 03e4 06       		.byte	0x6
 9993 03e5 1C       		.byte	0x1c
 9994 03e6 32       		.byte	0x32
 9995 03e7 24       		.byte	0x24
 9996 03e8 91       		.byte	0x91
 9997 03e9 00       		.sleb128 0
 9998 03ea 22       		.byte	0x22
 9999 03eb 0A       		.byte	0xa
 10000 03ec 1804     		.2byte	0x418
 10001 03ee 1C       		.byte	0x1c
 10002 03ef 06       		.byte	0x6
 10003 03f0 31       		.byte	0x31
 10004 03f1 24       		.byte	0x24
 10005 03f2 74       		.byte	0x74
 10006 03f3 00       		.sleb128 0
 10007 03f4 70       		.byte	0x70
ARM GAS  C:\Users\Phuong\AppData\Local\Temp\ccyLHZOj.s 			page 219


 10008 03f5 00       		.sleb128 0
 10009 03f6 32       		.byte	0x32
 10010 03f7 24       		.byte	0x24
 10011 03f8 91       		.byte	0x91
 10012 03f9 00       		.sleb128 0
 10013 03fa 22       		.byte	0x22
 10014 03fb 0A       		.byte	0xa
 10015 03fc 1808     		.2byte	0x818
 10016 03fe 1C       		.byte	0x1c
 10017 03ff 06       		.byte	0x6
 10018 0400 1C       		.byte	0x1c
 10019 0401 32       		.byte	0x32
 10020 0402 24       		.byte	0x24
 10021 0403 91       		.byte	0x91
 10022 0404 00       		.sleb128 0
 10023 0405 22       		.byte	0x22
 10024 0406 0A       		.byte	0xa
 10025 0407 1804     		.2byte	0x418
 10026 0409 1C       		.byte	0x1c
 10027 040a 06       		.byte	0x6
 10028 040b 37       		.byte	0x37
 10029 040c 26       		.byte	0x26
 10030 040d 21       		.byte	0x21
 10031 040e 74       		.byte	0x74
 10032 040f 00       		.sleb128 0
 10033 0410 1A       		.byte	0x1a
 10034 0411 37       		.byte	0x37
 10035 0412 26       		.byte	0x26
 10036 0413 21       		.byte	0x21
 10037 0414 74       		.byte	0x74
 10038 0415 00       		.sleb128 0
 10039 0416 1A       		.byte	0x1a
 10040 0417 37       		.byte	0x37
 10041 0418 26       		.byte	0x26
 10042 0419 74       		.byte	0x74
 10043 041a 00       		.sleb128 0
 10044 041b 70       		.byte	0x70
 10045 041c 00       		.sleb128 0
 10046 041d 32       		.byte	0x32
 10047 041e 24       		.byte	0x24
 10048 041f 91       		.byte	0x91
 10049 0420 00       		.sleb128 0
 10050 0421 22       		.byte	0x22
 10051 0422 0A       		.byte	0xa
 10052 0423 1808     		.2byte	0x818
 10053 0425 1C       		.byte	0x1c
 10054 0426 06       		.byte	0x6
 10055 0427 1C       		.byte	0x1c
 10056 0428 32       		.byte	0x32
 10057 0429 24       		.byte	0x24
 10058 042a 91       		.byte	0x91
 10059 042b 00       		.sleb128 0
 10060 042c 22       		.byte	0x22
 10061 042d 0A       		.byte	0xa
 10062 042e 1804     		.2byte	0x418
 10063 0430 1C       		.byte	0x1c
 10064 0431 06       		.byte	0x6
ARM GAS  C:\Users\Phuong\AppData\Local\Temp\ccyLHZOj.s 			page 220


 10065 0432 31       		.byte	0x31
 10066 0433 24       		.byte	0x24
 10067 0434 74       		.byte	0x74
 10068 0435 00       		.sleb128 0
 10069 0436 70       		.byte	0x70
 10070 0437 00       		.sleb128 0
 10071 0438 32       		.byte	0x32
 10072 0439 24       		.byte	0x24
 10073 043a 91       		.byte	0x91
 10074 043b 00       		.sleb128 0
 10075 043c 22       		.byte	0x22
 10076 043d 0A       		.byte	0xa
 10077 043e 1808     		.2byte	0x818
 10078 0440 1C       		.byte	0x1c
 10079 0441 06       		.byte	0x6
 10080 0442 1C       		.byte	0x1c
 10081 0443 32       		.byte	0x32
 10082 0444 24       		.byte	0x24
 10083 0445 91       		.byte	0x91
 10084 0446 00       		.sleb128 0
 10085 0447 22       		.byte	0x22
 10086 0448 0A       		.byte	0xa
 10087 0449 1804     		.2byte	0x418
 10088 044b 1C       		.byte	0x1c
 10089 044c 06       		.byte	0x6
 10090 044d 37       		.byte	0x37
 10091 044e 26       		.byte	0x26
 10092 044f 21       		.byte	0x21
 10093 0450 74       		.byte	0x74
 10094 0451 00       		.sleb128 0
 10095 0452 1A       		.byte	0x1a
 10096 0453 31       		.byte	0x31
 10097 0454 24       		.byte	0x24
 10098 0455 74       		.byte	0x74
 10099 0456 00       		.sleb128 0
 10100 0457 70       		.byte	0x70
 10101 0458 00       		.sleb128 0
 10102 0459 32       		.byte	0x32
 10103 045a 24       		.byte	0x24
 10104 045b 91       		.byte	0x91
 10105 045c 00       		.sleb128 0
 10106 045d 22       		.byte	0x22
 10107 045e 0A       		.byte	0xa
 10108 045f 1808     		.2byte	0x818
 10109 0461 1C       		.byte	0x1c
 10110 0462 06       		.byte	0x6
 10111 0463 1C       		.byte	0x1c
 10112 0464 32       		.byte	0x32
 10113 0465 24       		.byte	0x24
 10114 0466 91       		.byte	0x91
 10115 0467 00       		.sleb128 0
 10116 0468 22       		.byte	0x22
 10117 0469 0A       		.byte	0xa
 10118 046a 1804     		.2byte	0x418
 10119 046c 1C       		.byte	0x1c
 10120 046d 06       		.byte	0x6
 10121 046e 31       		.byte	0x31
ARM GAS  C:\Users\Phuong\AppData\Local\Temp\ccyLHZOj.s 			page 221


 10122 046f 24       		.byte	0x24
 10123 0470 74       		.byte	0x74
 10124 0471 00       		.sleb128 0
 10125 0472 70       		.byte	0x70
 10126 0473 00       		.sleb128 0
 10127 0474 32       		.byte	0x32
 10128 0475 24       		.byte	0x24
 10129 0476 91       		.byte	0x91
 10130 0477 00       		.sleb128 0
 10131 0478 22       		.byte	0x22
 10132 0479 0A       		.byte	0xa
 10133 047a 1808     		.2byte	0x818
 10134 047c 1C       		.byte	0x1c
 10135 047d 06       		.byte	0x6
 10136 047e 1C       		.byte	0x1c
 10137 047f 32       		.byte	0x32
 10138 0480 24       		.byte	0x24
 10139 0481 91       		.byte	0x91
 10140 0482 00       		.sleb128 0
 10141 0483 22       		.byte	0x22
 10142 0484 0A       		.byte	0xa
 10143 0485 1804     		.2byte	0x418
 10144 0487 1C       		.byte	0x1c
 10145 0488 06       		.byte	0x6
 10146 0489 37       		.byte	0x37
 10147 048a 26       		.byte	0x26
 10148 048b 21       		.byte	0x21
 10149 048c 74       		.byte	0x74
 10150 048d 00       		.sleb128 0
 10151 048e 1A       		.byte	0x1a
 10152 048f 37       		.byte	0x37
 10153 0490 26       		.byte	0x26
 10154 0491 21       		.byte	0x21
 10155 0492 74       		.byte	0x74
 10156 0493 00       		.sleb128 0
 10157 0494 1A       		.byte	0x1a
 10158 0495 31       		.byte	0x31
 10159 0496 24       		.byte	0x24
 10160 0497 21       		.byte	0x21
 10161 0498 74       		.byte	0x74
 10162 0499 00       		.sleb128 0
 10163 049a 1A       		.byte	0x1a
 10164 049b 37       		.byte	0x37
 10165 049c 26       		.byte	0x26
 10166 049d 75       		.byte	0x75
 10167 049e 00       		.sleb128 0
 10168 049f 21       		.byte	0x21
 10169 04a0 74       		.byte	0x74
 10170 04a1 00       		.sleb128 0
 10171 04a2 1A       		.byte	0x1a
 10172 04a3 9F       		.byte	0x9f
 10173 04a4 E2000000 		.4byte	.LVL34
 10174 04a8 EA000000 		.4byte	.LVL36
 10175 04ac 0100     		.2byte	0x1
 10176 04ae 52       		.byte	0x52
 10177 04af 00000000 		.4byte	0
 10178 04b3 00000000 		.4byte	0
ARM GAS  C:\Users\Phuong\AppData\Local\Temp\ccyLHZOj.s 			page 222


 10179              	.LLST3:
 10180 04b7 E6000000 		.4byte	.LVL35
 10181 04bb 00010000 		.4byte	.LVL38
 10182 04bf 0600     		.2byte	0x6
 10183 04c1 70       		.byte	0x70
 10184 04c2 00       		.sleb128 0
 10185 04c3 08       		.byte	0x8
 10186 04c4 FF       		.byte	0xff
 10187 04c5 1A       		.byte	0x1a
 10188 04c6 9F       		.byte	0x9f
 10189 04c7 00000000 		.4byte	0
 10190 04cb 00000000 		.4byte	0
 10191              	.LLST4:
 10192 04cf 00000000 		.4byte	.LVL47
 10193 04d3 0B000000 		.4byte	.LVL48-1
 10194 04d7 0100     		.2byte	0x1
 10195 04d9 50       		.byte	0x50
 10196 04da 0B000000 		.4byte	.LVL48-1
 10197 04de 0E000000 		.4byte	.LFE2
 10198 04e2 0400     		.2byte	0x4
 10199 04e4 F3       		.byte	0xf3
 10200 04e5 01       		.uleb128 0x1
 10201 04e6 50       		.byte	0x50
 10202 04e7 9F       		.byte	0x9f
 10203 04e8 00000000 		.4byte	0
 10204 04ec 00000000 		.4byte	0
 10205              	.LLST5:
 10206 04f0 00000000 		.4byte	.LVL49
 10207 04f4 0D000000 		.4byte	.LVL50-1
 10208 04f8 0100     		.2byte	0x1
 10209 04fa 50       		.byte	0x50
 10210 04fb 0D000000 		.4byte	.LVL50-1
 10211 04ff 10000000 		.4byte	.LFE3
 10212 0503 0400     		.2byte	0x4
 10213 0505 F3       		.byte	0xf3
 10214 0506 01       		.uleb128 0x1
 10215 0507 50       		.byte	0x50
 10216 0508 9F       		.byte	0x9f
 10217 0509 00000000 		.4byte	0
 10218 050d 00000000 		.4byte	0
 10219              	.LLST6:
 10220 0511 00000000 		.4byte	.LVL51
 10221 0515 17000000 		.4byte	.LVL52-1
 10222 0519 0100     		.2byte	0x1
 10223 051b 50       		.byte	0x50
 10224 051c 17000000 		.4byte	.LVL52-1
 10225 0520 46000000 		.4byte	.LVL53
 10226 0524 0100     		.2byte	0x1
 10227 0526 58       		.byte	0x58
 10228 0527 46000000 		.4byte	.LVL53
 10229 052b 4C000000 		.4byte	.LVL55
 10230 052f 0100     		.2byte	0x1
 10231 0531 52       		.byte	0x52
 10232 0532 4C000000 		.4byte	.LVL55
 10233 0536 58010000 		.4byte	.LVL69
 10234 053a 0100     		.2byte	0x1
 10235 053c 58       		.byte	0x58
ARM GAS  C:\Users\Phuong\AppData\Local\Temp\ccyLHZOj.s 			page 223


 10236 053d 58010000 		.4byte	.LVL69
 10237 0541 F8010000 		.4byte	.LVL73
 10238 0545 0400     		.2byte	0x4
 10239 0547 F3       		.byte	0xf3
 10240 0548 01       		.uleb128 0x1
 10241 0549 50       		.byte	0x50
 10242 054a 9F       		.byte	0x9f
 10243 054b F8010000 		.4byte	.LVL73
 10244 054f FC010000 		.4byte	.LVL74
 10245 0553 0100     		.2byte	0x1
 10246 0555 58       		.byte	0x58
 10247 0556 FC010000 		.4byte	.LVL74
 10248 055a 06020000 		.4byte	.LVL75
 10249 055e 0400     		.2byte	0x4
 10250 0560 F3       		.byte	0xf3
 10251 0561 01       		.uleb128 0x1
 10252 0562 50       		.byte	0x50
 10253 0563 9F       		.byte	0x9f
 10254 0564 06020000 		.4byte	.LVL75
 10255 0568 0E020000 		.4byte	.LVL77
 10256 056c 0100     		.2byte	0x1
 10257 056e 58       		.byte	0x58
 10258 056f 0E020000 		.4byte	.LVL77
 10259 0573 1C020000 		.4byte	.LFE4
 10260 0577 0400     		.2byte	0x4
 10261 0579 F3       		.byte	0xf3
 10262 057a 01       		.uleb128 0x1
 10263 057b 50       		.byte	0x50
 10264 057c 9F       		.byte	0x9f
 10265 057d 00000000 		.4byte	0
 10266 0581 00000000 		.4byte	0
 10267              	.LLST7:
 10268 0585 00000000 		.4byte	.LVL51
 10269 0589 17000000 		.4byte	.LVL52-1
 10270 058d 0100     		.2byte	0x1
 10271 058f 51       		.byte	0x51
 10272 0590 17000000 		.4byte	.LVL52-1
 10273 0594 8A000000 		.4byte	.LVL59
 10274 0598 0100     		.2byte	0x1
 10275 059a 54       		.byte	0x54
 10276 059b 8A000000 		.4byte	.LVL59
 10277 059f E6000000 		.4byte	.LVL62
 10278 05a3 0400     		.2byte	0x4
 10279 05a5 F3       		.byte	0xf3
 10280 05a6 01       		.uleb128 0x1
 10281 05a7 51       		.byte	0x51
 10282 05a8 9F       		.byte	0x9f
 10283 05a9 E6000000 		.4byte	.LVL62
 10284 05ad E8000000 		.4byte	.LVL63
 10285 05b1 0100     		.2byte	0x1
 10286 05b3 54       		.byte	0x54
 10287 05b4 E8000000 		.4byte	.LVL63
 10288 05b8 4E010000 		.4byte	.LVL67
 10289 05bc 0400     		.2byte	0x4
 10290 05be F3       		.byte	0xf3
 10291 05bf 01       		.uleb128 0x1
 10292 05c0 51       		.byte	0x51
ARM GAS  C:\Users\Phuong\AppData\Local\Temp\ccyLHZOj.s 			page 224


 10293 05c1 9F       		.byte	0x9f
 10294 05c2 4E010000 		.4byte	.LVL67
 10295 05c6 50010000 		.4byte	.LVL68
 10296 05ca 0100     		.2byte	0x1
 10297 05cc 54       		.byte	0x54
 10298 05cd 50010000 		.4byte	.LVL68
 10299 05d1 F8010000 		.4byte	.LVL73
 10300 05d5 0400     		.2byte	0x4
 10301 05d7 F3       		.byte	0xf3
 10302 05d8 01       		.uleb128 0x1
 10303 05d9 51       		.byte	0x51
 10304 05da 9F       		.byte	0x9f
 10305 05db F8010000 		.4byte	.LVL73
 10306 05df FC010000 		.4byte	.LVL74
 10307 05e3 0100     		.2byte	0x1
 10308 05e5 54       		.byte	0x54
 10309 05e6 FC010000 		.4byte	.LVL74
 10310 05ea 06020000 		.4byte	.LVL75
 10311 05ee 0400     		.2byte	0x4
 10312 05f0 F3       		.byte	0xf3
 10313 05f1 01       		.uleb128 0x1
 10314 05f2 51       		.byte	0x51
 10315 05f3 9F       		.byte	0x9f
 10316 05f4 06020000 		.4byte	.LVL75
 10317 05f8 0E020000 		.4byte	.LVL77
 10318 05fc 0100     		.2byte	0x1
 10319 05fe 54       		.byte	0x54
 10320 05ff 0E020000 		.4byte	.LVL77
 10321 0603 1C020000 		.4byte	.LFE4
 10322 0607 0400     		.2byte	0x4
 10323 0609 F3       		.byte	0xf3
 10324 060a 01       		.uleb128 0x1
 10325 060b 51       		.byte	0x51
 10326 060c 9F       		.byte	0x9f
 10327 060d 00000000 		.4byte	0
 10328 0611 00000000 		.4byte	0
 10329              	.LLST8:
 10330 0615 00000000 		.4byte	.LVL51
 10331 0619 17000000 		.4byte	.LVL52-1
 10332 061d 0100     		.2byte	0x1
 10333 061f 52       		.byte	0x52
 10334 0620 17000000 		.4byte	.LVL52-1
 10335 0624 8A000000 		.4byte	.LVL59
 10336 0628 0100     		.2byte	0x1
 10337 062a 55       		.byte	0x55
 10338 062b 8A000000 		.4byte	.LVL59
 10339 062f E6000000 		.4byte	.LVL62
 10340 0633 0400     		.2byte	0x4
 10341 0635 F3       		.byte	0xf3
 10342 0636 01       		.uleb128 0x1
 10343 0637 52       		.byte	0x52
 10344 0638 9F       		.byte	0x9f
 10345 0639 E6000000 		.4byte	.LVL62
 10346 063d E8000000 		.4byte	.LVL63
 10347 0641 0100     		.2byte	0x1
 10348 0643 55       		.byte	0x55
 10349 0644 E8000000 		.4byte	.LVL63
ARM GAS  C:\Users\Phuong\AppData\Local\Temp\ccyLHZOj.s 			page 225


 10350 0648 4E010000 		.4byte	.LVL67
 10351 064c 0400     		.2byte	0x4
 10352 064e F3       		.byte	0xf3
 10353 064f 01       		.uleb128 0x1
 10354 0650 52       		.byte	0x52
 10355 0651 9F       		.byte	0x9f
 10356 0652 4E010000 		.4byte	.LVL67
 10357 0656 50010000 		.4byte	.LVL68
 10358 065a 0100     		.2byte	0x1
 10359 065c 55       		.byte	0x55
 10360 065d 50010000 		.4byte	.LVL68
 10361 0661 F8010000 		.4byte	.LVL73
 10362 0665 0400     		.2byte	0x4
 10363 0667 F3       		.byte	0xf3
 10364 0668 01       		.uleb128 0x1
 10365 0669 52       		.byte	0x52
 10366 066a 9F       		.byte	0x9f
 10367 066b F8010000 		.4byte	.LVL73
 10368 066f FC010000 		.4byte	.LVL74
 10369 0673 0100     		.2byte	0x1
 10370 0675 55       		.byte	0x55
 10371 0676 FC010000 		.4byte	.LVL74
 10372 067a 06020000 		.4byte	.LVL75
 10373 067e 0400     		.2byte	0x4
 10374 0680 F3       		.byte	0xf3
 10375 0681 01       		.uleb128 0x1
 10376 0682 52       		.byte	0x52
 10377 0683 9F       		.byte	0x9f
 10378 0684 06020000 		.4byte	.LVL75
 10379 0688 0E020000 		.4byte	.LVL77
 10380 068c 0100     		.2byte	0x1
 10381 068e 55       		.byte	0x55
 10382 068f 0E020000 		.4byte	.LVL77
 10383 0693 1C020000 		.4byte	.LFE4
 10384 0697 0400     		.2byte	0x4
 10385 0699 F3       		.byte	0xf3
 10386 069a 01       		.uleb128 0x1
 10387 069b 52       		.byte	0x52
 10388 069c 9F       		.byte	0x9f
 10389 069d 00000000 		.4byte	0
 10390 06a1 00000000 		.4byte	0
 10391              	.LLST9:
 10392 06a5 4E000000 		.4byte	.LVL56
 10393 06a9 52000000 		.4byte	.LVL57
 10394 06ad 0200     		.2byte	0x2
 10395 06af 30       		.byte	0x30
 10396 06b0 9F       		.byte	0x9f
 10397 06b1 52000000 		.4byte	.LVL57
 10398 06b5 8A000000 		.4byte	.LVL59
 10399 06b9 0100     		.2byte	0x1
 10400 06bb 50       		.byte	0x50
 10401 06bc 8A000000 		.4byte	.LVL59
 10402 06c0 E6000000 		.4byte	.LVL62
 10403 06c4 0100     		.2byte	0x1
 10404 06c6 56       		.byte	0x56
 10405 06c7 E6000000 		.4byte	.LVL62
 10406 06cb E8000000 		.4byte	.LVL63
ARM GAS  C:\Users\Phuong\AppData\Local\Temp\ccyLHZOj.s 			page 226


 10407 06cf 0100     		.2byte	0x1
 10408 06d1 50       		.byte	0x50
 10409 06d2 E8000000 		.4byte	.LVL63
 10410 06d6 F0000000 		.4byte	.LVL64
 10411 06da 0100     		.2byte	0x1
 10412 06dc 56       		.byte	0x56
 10413 06dd F0000000 		.4byte	.LVL64
 10414 06e1 4E010000 		.4byte	.LVL67
 10415 06e5 0100     		.2byte	0x1
 10416 06e7 55       		.byte	0x55
 10417 06e8 4E010000 		.4byte	.LVL67
 10418 06ec 50010000 		.4byte	.LVL68
 10419 06f0 0100     		.2byte	0x1
 10420 06f2 50       		.byte	0x50
 10421 06f3 50010000 		.4byte	.LVL68
 10422 06f7 58010000 		.4byte	.LVL69
 10423 06fb 0100     		.2byte	0x1
 10424 06fd 55       		.byte	0x55
 10425 06fe 58010000 		.4byte	.LVL69
 10426 0702 5C010000 		.4byte	.LVL70
 10427 0706 0100     		.2byte	0x1
 10428 0708 52       		.byte	0x52
 10429 0709 5C010000 		.4byte	.LVL70
 10430 070d F8010000 		.4byte	.LVL73
 10431 0711 0100     		.2byte	0x1
 10432 0713 58       		.byte	0x58
 10433 0714 F8010000 		.4byte	.LVL73
 10434 0718 FC010000 		.4byte	.LVL74
 10435 071c 0100     		.2byte	0x1
 10436 071e 50       		.byte	0x50
 10437 071f FC010000 		.4byte	.LVL74
 10438 0723 06020000 		.4byte	.LVL75
 10439 0727 0100     		.2byte	0x1
 10440 0729 58       		.byte	0x58
 10441 072a 0C020000 		.4byte	.LVL76
 10442 072e 0E020000 		.4byte	.LVL77
 10443 0732 0100     		.2byte	0x1
 10444 0734 50       		.byte	0x50
 10445 0735 00000000 		.4byte	0
 10446 0739 00000000 		.4byte	0
 10447              	.LLST10:
 10448 073d 4A000000 		.4byte	.LVL54
 10449 0741 06020000 		.4byte	.LVL75
 10450 0745 0100     		.2byte	0x1
 10451 0747 53       		.byte	0x53
 10452 0748 0C020000 		.4byte	.LVL76
 10453 074c 0E020000 		.4byte	.LVL77
 10454 0750 0100     		.2byte	0x1
 10455 0752 53       		.byte	0x53
 10456 0753 00000000 		.4byte	0
 10457 0757 00000000 		.4byte	0
 10458              	.LLST11:
 10459 075b 00000000 		.4byte	.LVL78
 10460 075f 16000000 		.4byte	.LVL79
 10461 0763 0100     		.2byte	0x1
 10462 0765 50       		.byte	0x50
 10463 0766 16000000 		.4byte	.LVL79
ARM GAS  C:\Users\Phuong\AppData\Local\Temp\ccyLHZOj.s 			page 227


 10464 076a 5E000000 		.4byte	.LVL93
 10465 076e 0100     		.2byte	0x1
 10466 0770 57       		.byte	0x57
 10467 0771 5E000000 		.4byte	.LVL93
 10468 0775 1C010000 		.4byte	.LFE5
 10469 0779 0400     		.2byte	0x4
 10470 077b F3       		.byte	0xf3
 10471 077c 01       		.uleb128 0x1
 10472 077d 50       		.byte	0x50
 10473 077e 9F       		.byte	0x9f
 10474 077f 00000000 		.4byte	0
 10475 0783 00000000 		.4byte	0
 10476              	.LLST12:
 10477 0787 00000000 		.4byte	.LVL78
 10478 078b 19000000 		.4byte	.LVL80-1
 10479 078f 0100     		.2byte	0x1
 10480 0791 51       		.byte	0x51
 10481 0792 19000000 		.4byte	.LVL80-1
 10482 0796 5E000000 		.4byte	.LVL93
 10483 079a 0100     		.2byte	0x1
 10484 079c 54       		.byte	0x54
 10485 079d 5E000000 		.4byte	.LVL93
 10486 07a1 1C010000 		.4byte	.LFE5
 10487 07a5 0400     		.2byte	0x4
 10488 07a7 F3       		.byte	0xf3
 10489 07a8 01       		.uleb128 0x1
 10490 07a9 51       		.byte	0x51
 10491 07aa 9F       		.byte	0x9f
 10492 07ab 00000000 		.4byte	0
 10493 07af 00000000 		.4byte	0
 10494              	.LLST13:
 10495 07b3 00000000 		.4byte	.LVL78
 10496 07b7 19000000 		.4byte	.LVL80-1
 10497 07bb 0100     		.2byte	0x1
 10498 07bd 52       		.byte	0x52
 10499 07be 19000000 		.4byte	.LVL80-1
 10500 07c2 36000000 		.4byte	.LVL84
 10501 07c6 0100     		.2byte	0x1
 10502 07c8 55       		.byte	0x55
 10503 07c9 36000000 		.4byte	.LVL84
 10504 07cd 1C010000 		.4byte	.LFE5
 10505 07d1 0400     		.2byte	0x4
 10506 07d3 F3       		.byte	0xf3
 10507 07d4 01       		.uleb128 0x1
 10508 07d5 52       		.byte	0x52
 10509 07d6 9F       		.byte	0x9f
 10510 07d7 00000000 		.4byte	0
 10511 07db 00000000 		.4byte	0
 10512              	.LLST14:
 10513 07df 54000000 		.4byte	.LVL90
 10514 07e3 56000000 		.4byte	.LVL91
 10515 07e7 0100     		.2byte	0x1
 10516 07e9 53       		.byte	0x53
 10517 07ea 56000000 		.4byte	.LVL91
 10518 07ee BE000000 		.4byte	.LVL98
 10519 07f2 0100     		.2byte	0x1
 10520 07f4 5C       		.byte	0x5c
ARM GAS  C:\Users\Phuong\AppData\Local\Temp\ccyLHZOj.s 			page 228


 10521 07f5 BE000000 		.4byte	.LVL98
 10522 07f9 C0000000 		.4byte	.LVL99
 10523 07fd 0100     		.2byte	0x1
 10524 07ff 53       		.byte	0x53
 10525 0800 C0000000 		.4byte	.LVL99
 10526 0804 D8000000 		.4byte	.LVL102
 10527 0808 0100     		.2byte	0x1
 10528 080a 5C       		.byte	0x5c
 10529 080b D8000000 		.4byte	.LVL102
 10530 080f DA000000 		.4byte	.LVL103
 10531 0813 0100     		.2byte	0x1
 10532 0815 53       		.byte	0x53
 10533 0816 DA000000 		.4byte	.LVL103
 10534 081a F0000000 		.4byte	.LVL107
 10535 081e 0100     		.2byte	0x1
 10536 0820 5C       		.byte	0x5c
 10537 0821 00000000 		.4byte	0
 10538 0825 00000000 		.4byte	0
 10539              	.LLST15:
 10540 0829 5E000000 		.4byte	.LVL93
 10541 082d BE000000 		.4byte	.LVL98
 10542 0831 0100     		.2byte	0x1
 10543 0833 51       		.byte	0x51
 10544 0834 C0000000 		.4byte	.LVL99
 10545 0838 D2000000 		.4byte	.LVL101
 10546 083c 0100     		.2byte	0x1
 10547 083e 51       		.byte	0x51
 10548 083f 00000000 		.4byte	0
 10549 0843 00000000 		.4byte	0
 10550              	.LLST16:
 10551 0847 2C000000 		.4byte	.LVL83
 10552 084b 4A000000 		.4byte	.LVL88
 10553 084f 0100     		.2byte	0x1
 10554 0851 50       		.byte	0x50
 10555 0852 4A000000 		.4byte	.LVL88
 10556 0856 1C010000 		.4byte	.LFE5
 10557 085a 0300     		.2byte	0x3
 10558 085c 91       		.byte	0x91
 10559 085d BC7D     		.sleb128 -324
 10560 085f 00000000 		.4byte	0
 10561 0863 00000000 		.4byte	0
 10562              	.LLST17:
 10563 0867 1E000000 		.4byte	.LVL81
 10564 086b 29000000 		.4byte	.LVL82-1
 10565 086f 0100     		.2byte	0x1
 10566 0871 53       		.byte	0x53
 10567 0872 29000000 		.4byte	.LVL82-1
 10568 0876 3C000000 		.4byte	.LVL85
 10569 087a 0300     		.2byte	0x3
 10570 087c 77       		.byte	0x77
 10571 087d 08       		.sleb128 8
 10572 087e 9F       		.byte	0x9f
 10573 087f 3C000000 		.4byte	.LVL85
 10574 0883 40000000 		.4byte	.LVL86
 10575 0887 0300     		.2byte	0x3
 10576 0889 77       		.byte	0x77
 10577 088a 0C       		.sleb128 12
ARM GAS  C:\Users\Phuong\AppData\Local\Temp\ccyLHZOj.s 			page 229


 10578 088b 9F       		.byte	0x9f
 10579 088c 40000000 		.4byte	.LVL86
 10580 0890 44000000 		.4byte	.LVL87
 10581 0894 0300     		.2byte	0x3
 10582 0896 77       		.byte	0x77
 10583 0897 10       		.sleb128 16
 10584 0898 9F       		.byte	0x9f
 10585 0899 44000000 		.4byte	.LVL87
 10586 089d 4C000000 		.4byte	.LVL89
 10587 08a1 0300     		.2byte	0x3
 10588 08a3 77       		.byte	0x77
 10589 08a4 14       		.sleb128 20
 10590 08a5 9F       		.byte	0x9f
 10591 08a6 4C000000 		.4byte	.LVL89
 10592 08aa 5E000000 		.4byte	.LVL93
 10593 08ae 0100     		.2byte	0x1
 10594 08b0 50       		.byte	0x50
 10595 08b1 5E000000 		.4byte	.LVL93
 10596 08b5 BC000000 		.4byte	.LVL97
 10597 08b9 0300     		.2byte	0x3
 10598 08bb 70       		.byte	0x70
 10599 08bc 04       		.sleb128 4
 10600 08bd 9F       		.byte	0x9f
 10601 08be BC000000 		.4byte	.LVL97
 10602 08c2 D8000000 		.4byte	.LVL102
 10603 08c6 0100     		.2byte	0x1
 10604 08c8 50       		.byte	0x50
 10605 08c9 D8000000 		.4byte	.LVL102
 10606 08cd DE000000 		.4byte	.LVL104
 10607 08d1 0300     		.2byte	0x3
 10608 08d3 70       		.byte	0x70
 10609 08d4 04       		.sleb128 4
 10610 08d5 9F       		.byte	0x9f
 10611 08d6 DE000000 		.4byte	.LVL104
 10612 08da E4000000 		.4byte	.LVL105
 10613 08de 0300     		.2byte	0x3
 10614 08e0 70       		.byte	0x70
 10615 08e1 08       		.sleb128 8
 10616 08e2 9F       		.byte	0x9f
 10617 08e3 E4000000 		.4byte	.LVL105
 10618 08e7 EA000000 		.4byte	.LVL106
 10619 08eb 0300     		.2byte	0x3
 10620 08ed 70       		.byte	0x70
 10621 08ee 0C       		.sleb128 12
 10622 08ef 9F       		.byte	0x9f
 10623 08f0 EA000000 		.4byte	.LVL106
 10624 08f4 F0000000 		.4byte	.LVL107
 10625 08f8 0300     		.2byte	0x3
 10626 08fa 70       		.byte	0x70
 10627 08fb 10       		.sleb128 16
 10628 08fc 9F       		.byte	0x9f
 10629 08fd 00000000 		.4byte	0
 10630 0901 00000000 		.4byte	0
 10631              	.LLST18:
 10632 0905 3C000000 		.4byte	.LVL85
 10633 0909 40000000 		.4byte	.LVL86
 10634 090d 0300     		.2byte	0x3
ARM GAS  C:\Users\Phuong\AppData\Local\Temp\ccyLHZOj.s 			page 230


 10635 090f 75       		.byte	0x75
 10636 0910 04       		.sleb128 4
 10637 0911 9F       		.byte	0x9f
 10638 0912 40000000 		.4byte	.LVL86
 10639 0916 44000000 		.4byte	.LVL87
 10640 091a 0300     		.2byte	0x3
 10641 091c 75       		.byte	0x75
 10642 091d 08       		.sleb128 8
 10643 091e 9F       		.byte	0x9f
 10644 091f 44000000 		.4byte	.LVL87
 10645 0923 4C000000 		.4byte	.LVL89
 10646 0927 0300     		.2byte	0x3
 10647 0929 75       		.byte	0x75
 10648 092a 0C       		.sleb128 12
 10649 092b 9F       		.byte	0x9f
 10650 092c 4C000000 		.4byte	.LVL89
 10651 0930 5C000000 		.4byte	.LVL92
 10652 0934 0300     		.2byte	0x3
 10653 0936 75       		.byte	0x75
 10654 0937 10       		.sleb128 16
 10655 0938 9F       		.byte	0x9f
 10656 0939 5C000000 		.4byte	.LVL92
 10657 093d 64000000 		.4byte	.LVL94
 10658 0941 0100     		.2byte	0x1
 10659 0943 5B       		.byte	0x5b
 10660 0944 64000000 		.4byte	.LVL94
 10661 0948 66000000 		.4byte	.LVL95
 10662 094c 0300     		.2byte	0x3
 10663 094e 72       		.byte	0x72
 10664 094f 7C       		.sleb128 -4
 10665 0950 9F       		.byte	0x9f
 10666 0951 66000000 		.4byte	.LVL95
 10667 0955 BA000000 		.4byte	.LVL96
 10668 0959 0300     		.2byte	0x3
 10669 095b 7B       		.byte	0x7b
 10670 095c 7C       		.sleb128 -4
 10671 095d 9F       		.byte	0x9f
 10672 095e BA000000 		.4byte	.LVL96
 10673 0962 D8000000 		.4byte	.LVL102
 10674 0966 0100     		.2byte	0x1
 10675 0968 5B       		.byte	0x5b
 10676 0969 D8000000 		.4byte	.LVL102
 10677 096d DE000000 		.4byte	.LVL104
 10678 0971 0300     		.2byte	0x3
 10679 0973 7B       		.byte	0x7b
 10680 0974 04       		.sleb128 4
 10681 0975 9F       		.byte	0x9f
 10682 0976 DE000000 		.4byte	.LVL104
 10683 097a E4000000 		.4byte	.LVL105
 10684 097e 0300     		.2byte	0x3
 10685 0980 7B       		.byte	0x7b
 10686 0981 08       		.sleb128 8
 10687 0982 9F       		.byte	0x9f
 10688 0983 E4000000 		.4byte	.LVL105
 10689 0987 EA000000 		.4byte	.LVL106
 10690 098b 0300     		.2byte	0x3
 10691 098d 7B       		.byte	0x7b
ARM GAS  C:\Users\Phuong\AppData\Local\Temp\ccyLHZOj.s 			page 231


 10692 098e 0C       		.sleb128 12
 10693 098f 9F       		.byte	0x9f
 10694 0990 EA000000 		.4byte	.LVL106
 10695 0994 F0000000 		.4byte	.LVL107
 10696 0998 0300     		.2byte	0x3
 10697 099a 7B       		.byte	0x7b
 10698 099b 10       		.sleb128 16
 10699 099c 9F       		.byte	0x9f
 10700 099d 00000000 		.4byte	0
 10701 09a1 00000000 		.4byte	0
 10702              	.LLST19:
 10703 09a5 00000000 		.4byte	.LVL109
 10704 09a9 88000000 		.4byte	.LVL122
 10705 09ad 0100     		.2byte	0x1
 10706 09af 50       		.byte	0x50
 10707 09b0 88000000 		.4byte	.LVL122
 10708 09b4 90040000 		.4byte	.LFE6
 10709 09b8 0400     		.2byte	0x4
 10710 09ba F3       		.byte	0xf3
 10711 09bb 01       		.uleb128 0x1
 10712 09bc 50       		.byte	0x50
 10713 09bd 9F       		.byte	0x9f
 10714 09be 00000000 		.4byte	0
 10715 09c2 00000000 		.4byte	0
 10716              	.LLST20:
 10717 09c6 00000000 		.4byte	.LVL109
 10718 09ca 88000000 		.4byte	.LVL122
 10719 09ce 0100     		.2byte	0x1
 10720 09d0 51       		.byte	0x51
 10721 09d1 88000000 		.4byte	.LVL122
 10722 09d5 90040000 		.4byte	.LFE6
 10723 09d9 0400     		.2byte	0x4
 10724 09db F3       		.byte	0xf3
 10725 09dc 01       		.uleb128 0x1
 10726 09dd 51       		.byte	0x51
 10727 09de 9F       		.byte	0x9f
 10728 09df 00000000 		.4byte	0
 10729 09e3 00000000 		.4byte	0
 10730              	.LLST21:
 10731 09e7 00000000 		.4byte	.LVL109
 10732 09eb 12000000 		.4byte	.LVL110
 10733 09ef 0100     		.2byte	0x1
 10734 09f1 52       		.byte	0x52
 10735 09f2 12000000 		.4byte	.LVL110
 10736 09f6 90040000 		.4byte	.LFE6
 10737 09fa 0200     		.2byte	0x2
 10738 09fc 91       		.byte	0x91
 10739 09fd 54       		.sleb128 -44
 10740 09fe 00000000 		.4byte	0
 10741 0a02 00000000 		.4byte	0
 10742              	.LLST22:
 10743 0a06 82000000 		.4byte	.LVL121
 10744 0a0a 8A000000 		.4byte	.LVL123
 10745 0a0e 0100     		.2byte	0x1
 10746 0a10 53       		.byte	0x53
 10747 0a11 8A000000 		.4byte	.LVL123
 10748 0a15 38020000 		.4byte	.LVL140
ARM GAS  C:\Users\Phuong\AppData\Local\Temp\ccyLHZOj.s 			page 232


 10749 0a19 0200     		.2byte	0x2
 10750 0a1b 91       		.byte	0x91
 10751 0a1c 4C       		.sleb128 -52
 10752 0a1d 38020000 		.4byte	.LVL140
 10753 0a21 3A020000 		.4byte	.LVL141
 10754 0a25 0100     		.2byte	0x1
 10755 0a27 53       		.byte	0x53
 10756 0a28 3A020000 		.4byte	.LVL141
 10757 0a2c 90040000 		.4byte	.LFE6
 10758 0a30 0200     		.2byte	0x2
 10759 0a32 91       		.byte	0x91
 10760 0a33 4C       		.sleb128 -52
 10761 0a34 00000000 		.4byte	0
 10762 0a38 00000000 		.4byte	0
 10763              	.LLST23:
 10764 0a3c 12000000 		.4byte	.LVL110
 10765 0a40 26000000 		.4byte	.LVL111
 10766 0a44 0100     		.2byte	0x1
 10767 0a46 52       		.byte	0x52
 10768 0a47 26000000 		.4byte	.LVL111
 10769 0a4b 40000000 		.4byte	.LVL114
 10770 0a4f 0300     		.2byte	0x3
 10771 0a51 72       		.byte	0x72
 10772 0a52 04       		.sleb128 4
 10773 0a53 9F       		.byte	0x9f
 10774 0a54 40000000 		.4byte	.LVL114
 10775 0a58 58000000 		.4byte	.LVL116
 10776 0a5c 0300     		.2byte	0x3
 10777 0a5e 72       		.byte	0x72
 10778 0a5f 08       		.sleb128 8
 10779 0a60 9F       		.byte	0x9f
 10780 0a61 58000000 		.4byte	.LVL116
 10781 0a65 76000000 		.4byte	.LVL119
 10782 0a69 0300     		.2byte	0x3
 10783 0a6b 72       		.byte	0x72
 10784 0a6c 0C       		.sleb128 12
 10785 0a6d 9F       		.byte	0x9f
 10786 0a6e 76000000 		.4byte	.LVL119
 10787 0a72 88000000 		.4byte	.LVL122
 10788 0a76 0100     		.2byte	0x1
 10789 0a78 5B       		.byte	0x5b
 10790 0a79 88000000 		.4byte	.LVL122
 10791 0a7d CE000000 		.4byte	.LVL124
 10792 0a81 0300     		.2byte	0x3
 10793 0a83 77       		.byte	0x77
 10794 0a84 04       		.sleb128 4
 10795 0a85 9F       		.byte	0x9f
 10796 0a86 CE000000 		.4byte	.LVL124
 10797 0a8a 02010000 		.4byte	.LVL125
 10798 0a8e 0300     		.2byte	0x3
 10799 0a90 77       		.byte	0x77
 10800 0a91 08       		.sleb128 8
 10801 0a92 9F       		.byte	0x9f
 10802 0a93 02010000 		.4byte	.LVL125
 10803 0a97 34010000 		.4byte	.LVL127
 10804 0a9b 0300     		.2byte	0x3
 10805 0a9d 77       		.byte	0x77
ARM GAS  C:\Users\Phuong\AppData\Local\Temp\ccyLHZOj.s 			page 233


 10806 0a9e 0C       		.sleb128 12
 10807 0a9f 9F       		.byte	0x9f
 10808 0aa0 34010000 		.4byte	.LVL127
 10809 0aa4 68010000 		.4byte	.LVL130
 10810 0aa8 0300     		.2byte	0x3
 10811 0aaa 77       		.byte	0x77
 10812 0aab 10       		.sleb128 16
 10813 0aac 9F       		.byte	0x9f
 10814 0aad 68010000 		.4byte	.LVL130
 10815 0ab1 9C010000 		.4byte	.LVL131
 10816 0ab5 0300     		.2byte	0x3
 10817 0ab7 77       		.byte	0x77
 10818 0ab8 14       		.sleb128 20
 10819 0ab9 9F       		.byte	0x9f
 10820 0aba 9C010000 		.4byte	.LVL131
 10821 0abe CE010000 		.4byte	.LVL133
 10822 0ac2 0300     		.2byte	0x3
 10823 0ac4 77       		.byte	0x77
 10824 0ac5 18       		.sleb128 24
 10825 0ac6 9F       		.byte	0x9f
 10826 0ac7 CE010000 		.4byte	.LVL133
 10827 0acb 04020000 		.4byte	.LVL135
 10828 0acf 0300     		.2byte	0x3
 10829 0ad1 77       		.byte	0x77
 10830 0ad2 1C       		.sleb128 28
 10831 0ad3 9F       		.byte	0x9f
 10832 0ad4 04020000 		.4byte	.LVL135
 10833 0ad8 3A020000 		.4byte	.LVL141
 10834 0adc 0300     		.2byte	0x3
 10835 0ade 77       		.byte	0x77
 10836 0adf 20       		.sleb128 32
 10837 0ae0 9F       		.byte	0x9f
 10838 0ae1 3A020000 		.4byte	.LVL141
 10839 0ae5 46020000 		.4byte	.LVL142
 10840 0ae9 0100     		.2byte	0x1
 10841 0aeb 57       		.byte	0x57
 10842 0aec 46020000 		.4byte	.LVL142
 10843 0af0 62020000 		.4byte	.LVL143
 10844 0af4 0300     		.2byte	0x3
 10845 0af6 77       		.byte	0x77
 10846 0af7 04       		.sleb128 4
 10847 0af8 9F       		.byte	0x9f
 10848 0af9 62020000 		.4byte	.LVL143
 10849 0afd 8A020000 		.4byte	.LVL144
 10850 0b01 0300     		.2byte	0x3
 10851 0b03 7B       		.byte	0x7b
 10852 0b04 04       		.sleb128 4
 10853 0b05 9F       		.byte	0x9f
 10854 0b06 8A020000 		.4byte	.LVL144
 10855 0b0a BE020000 		.4byte	.LVL146
 10856 0b0e 0300     		.2byte	0x3
 10857 0b10 7B       		.byte	0x7b
 10858 0b11 08       		.sleb128 8
 10859 0b12 9F       		.byte	0x9f
 10860 0b13 BE020000 		.4byte	.LVL146
 10861 0b17 F2020000 		.4byte	.LVL148
 10862 0b1b 0300     		.2byte	0x3
ARM GAS  C:\Users\Phuong\AppData\Local\Temp\ccyLHZOj.s 			page 234


 10863 0b1d 7B       		.byte	0x7b
 10864 0b1e 0C       		.sleb128 12
 10865 0b1f 9F       		.byte	0x9f
 10866 0b20 F2020000 		.4byte	.LVL148
 10867 0b24 26030000 		.4byte	.LVL152
 10868 0b28 0300     		.2byte	0x3
 10869 0b2a 7B       		.byte	0x7b
 10870 0b2b 10       		.sleb128 16
 10871 0b2c 9F       		.byte	0x9f
 10872 0b2d 26030000 		.4byte	.LVL152
 10873 0b31 62030000 		.4byte	.LVL154
 10874 0b35 0300     		.2byte	0x3
 10875 0b37 7B       		.byte	0x7b
 10876 0b38 14       		.sleb128 20
 10877 0b39 9F       		.byte	0x9f
 10878 0b3a 62030000 		.4byte	.LVL154
 10879 0b3e 98030000 		.4byte	.LVL155
 10880 0b42 0300     		.2byte	0x3
 10881 0b44 7B       		.byte	0x7b
 10882 0b45 18       		.sleb128 24
 10883 0b46 9F       		.byte	0x9f
 10884 0b47 98030000 		.4byte	.LVL155
 10885 0b4b DC030000 		.4byte	.LVL157
 10886 0b4f 0300     		.2byte	0x3
 10887 0b51 7B       		.byte	0x7b
 10888 0b52 1C       		.sleb128 28
 10889 0b53 9F       		.byte	0x9f
 10890 0b54 DC030000 		.4byte	.LVL157
 10891 0b58 6C040000 		.4byte	.LVL167
 10892 0b5c 0300     		.2byte	0x3
 10893 0b5e 7B       		.byte	0x7b
 10894 0b5f 20       		.sleb128 32
 10895 0b60 9F       		.byte	0x9f
 10896 0b61 00000000 		.4byte	0
 10897 0b65 00000000 		.4byte	0
 10898              	.LLST24:
 10899 0b69 26000000 		.4byte	.LVL111
 10900 0b6d 2C000000 		.4byte	.LVL112
 10901 0b71 0100     		.2byte	0x1
 10902 0b73 53       		.byte	0x53
 10903 0b74 2C000000 		.4byte	.LVL112
 10904 0b78 30000000 		.4byte	.LVL113
 10905 0b7c 0100     		.2byte	0x1
 10906 0b7e 54       		.byte	0x54
 10907 0b7f 30000000 		.4byte	.LVL113
 10908 0b83 9C010000 		.4byte	.LVL131
 10909 0b87 0200     		.2byte	0x2
 10910 0b89 91       		.byte	0x91
 10911 0b8a 50       		.sleb128 -48
 10912 0b8b 9C010000 		.4byte	.LVL131
 10913 0b8f AC010000 		.4byte	.LVL132
 10914 0b93 0100     		.2byte	0x1
 10915 0b95 55       		.byte	0x55
 10916 0b96 AC010000 		.4byte	.LVL132
 10917 0b9a 62030000 		.4byte	.LVL154
 10918 0b9e 0200     		.2byte	0x2
 10919 0ba0 91       		.byte	0x91
ARM GAS  C:\Users\Phuong\AppData\Local\Temp\ccyLHZOj.s 			page 235


 10920 0ba1 50       		.sleb128 -48
 10921 0ba2 62030000 		.4byte	.LVL154
 10922 0ba6 3C040000 		.4byte	.LVL161
 10923 0baa 0100     		.2byte	0x1
 10924 0bac 50       		.byte	0x50
 10925 0bad 00000000 		.4byte	0
 10926 0bb1 00000000 		.4byte	0
 10927              	.LLST25:
 10928 0bb5 40000000 		.4byte	.LVL114
 10929 0bb9 88000000 		.4byte	.LVL122
 10930 0bbd 0100     		.2byte	0x1
 10931 0bbf 54       		.byte	0x54
 10932 0bc0 88000000 		.4byte	.LVL122
 10933 0bc4 CE010000 		.4byte	.LVL133
 10934 0bc8 0200     		.2byte	0x2
 10935 0bca 91       		.byte	0x91
 10936 0bcb 44       		.sleb128 -60
 10937 0bcc CE010000 		.4byte	.LVL133
 10938 0bd0 F8010000 		.4byte	.LVL134
 10939 0bd4 0100     		.2byte	0x1
 10940 0bd6 54       		.byte	0x54
 10941 0bd7 F8010000 		.4byte	.LVL134
 10942 0bdb BE020000 		.4byte	.LVL146
 10943 0bdf 0200     		.2byte	0x2
 10944 0be1 91       		.byte	0x91
 10945 0be2 44       		.sleb128 -60
 10946 0be3 BE020000 		.4byte	.LVL146
 10947 0be7 10030000 		.4byte	.LVL150
 10948 0beb 0100     		.2byte	0x1
 10949 0bed 54       		.byte	0x54
 10950 0bee 98030000 		.4byte	.LVL155
 10951 0bf2 4A040000 		.4byte	.LVL162
 10952 0bf6 0100     		.2byte	0x1
 10953 0bf8 57       		.byte	0x57
 10954 0bf9 00000000 		.4byte	0
 10955 0bfd 00000000 		.4byte	0
 10956              	.LLST26:
 10957 0c01 58000000 		.4byte	.LVL116
 10958 0c05 60010000 		.4byte	.LVL129
 10959 0c09 0100     		.2byte	0x1
 10960 0c0b 55       		.byte	0x55
 10961 0c0c 04020000 		.4byte	.LVL135
 10962 0c10 1C030000 		.4byte	.LVL151
 10963 0c14 0100     		.2byte	0x1
 10964 0c16 55       		.byte	0x55
 10965 0c17 DC030000 		.4byte	.LVL157
 10966 0c1b 58040000 		.4byte	.LVL163
 10967 0c1f 0100     		.2byte	0x1
 10968 0c21 56       		.byte	0x56
 10969 0c22 00000000 		.4byte	0
 10970 0c26 00000000 		.4byte	0
 10971              	.LLST27:
 10972 0c2a 70000000 		.4byte	.LVL118
 10973 0c2e 36010000 		.4byte	.LVL128
 10974 0c32 0100     		.2byte	0x1
 10975 0c34 56       		.byte	0x56
 10976 0c35 32020000 		.4byte	.LVL139
ARM GAS  C:\Users\Phuong\AppData\Local\Temp\ccyLHZOj.s 			page 236


 10977 0c39 F4020000 		.4byte	.LVL149
 10978 0c3d 0100     		.2byte	0x1
 10979 0c3f 56       		.byte	0x56
 10980 0c40 2E040000 		.4byte	.LVL160
 10981 0c44 66040000 		.4byte	.LVL164
 10982 0c48 0100     		.2byte	0x1
 10983 0c4a 53       		.byte	0x53
 10984 0c4b 66040000 		.4byte	.LVL164
 10985 0c4f 6C040000 		.4byte	.LVL165
 10986 0c53 2900     		.2byte	0x29
 10987 0c55 91       		.byte	0x91
 10988 0c56 44       		.sleb128 -60
 10989 0c57 06       		.byte	0x6
 10990 0c58 40       		.byte	0x40
 10991 0c59 25       		.byte	0x25
 10992 0c5a 08       		.byte	0x8
 10993 0c5b FF       		.byte	0xff
 10994 0c5c 1A       		.byte	0x1a
 10995 0c5d 74       		.byte	0x74
 10996 0c5e 00       		.sleb128 0
 10997 0c5f 22       		.byte	0x22
 10998 0c60 03       		.byte	0x3
 10999 0c61 00000000 		.4byte	.LANCHOR0
 11000 0c65 22       		.byte	0x22
 11001 0c66 94       		.byte	0x94
 11002 0c67 01       		.byte	0x1
 11003 0c68 08       		.byte	0x8
 11004 0c69 FF       		.byte	0xff
 11005 0c6a 1A       		.byte	0x1a
 11006 0c6b 40       		.byte	0x40
 11007 0c6c 24       		.byte	0x24
 11008 0c6d 75       		.byte	0x75
 11009 0c6e 00       		.sleb128 0
 11010 0c6f 74       		.byte	0x74
 11011 0c70 00       		.sleb128 0
 11012 0c71 22       		.byte	0x22
 11013 0c72 94       		.byte	0x94
 11014 0c73 01       		.byte	0x1
 11015 0c74 08       		.byte	0x8
 11016 0c75 FF       		.byte	0xff
 11017 0c76 1A       		.byte	0x1a
 11018 0c77 48       		.byte	0x48
 11019 0c78 24       		.byte	0x24
 11020 0c79 21       		.byte	0x21
 11021 0c7a 7C       		.byte	0x7c
 11022 0c7b 00       		.sleb128 0
 11023 0c7c 27       		.byte	0x27
 11024 0c7d 9F       		.byte	0x9f
 11025 0c7e 6C040000 		.4byte	.LVL165
 11026 0c82 6C040000 		.4byte	.LVL166
 11027 0c86 2300     		.2byte	0x23
 11028 0c88 91       		.byte	0x91
 11029 0c89 44       		.sleb128 -60
 11030 0c8a 06       		.byte	0x6
 11031 0c8b 40       		.byte	0x40
 11032 0c8c 25       		.byte	0x25
 11033 0c8d 08       		.byte	0x8
ARM GAS  C:\Users\Phuong\AppData\Local\Temp\ccyLHZOj.s 			page 237


 11034 0c8e FF       		.byte	0xff
 11035 0c8f 1A       		.byte	0x1a
 11036 0c90 03       		.byte	0x3
 11037 0c91 28000000 		.4byte	.LANCHOR0+40
 11038 0c95 22       		.byte	0x22
 11039 0c96 94       		.byte	0x94
 11040 0c97 01       		.byte	0x1
 11041 0c98 08       		.byte	0x8
 11042 0c99 FF       		.byte	0xff
 11043 0c9a 1A       		.byte	0x1a
 11044 0c9b 40       		.byte	0x40
 11045 0c9c 24       		.byte	0x24
 11046 0c9d 75       		.byte	0x75
 11047 0c9e 28       		.sleb128 40
 11048 0c9f 94       		.byte	0x94
 11049 0ca0 01       		.byte	0x1
 11050 0ca1 08       		.byte	0x8
 11051 0ca2 FF       		.byte	0xff
 11052 0ca3 1A       		.byte	0x1a
 11053 0ca4 48       		.byte	0x48
 11054 0ca5 24       		.byte	0x24
 11055 0ca6 21       		.byte	0x21
 11056 0ca7 7C       		.byte	0x7c
 11057 0ca8 00       		.sleb128 0
 11058 0ca9 27       		.byte	0x27
 11059 0caa 9F       		.byte	0x9f
 11060 0cab 6C040000 		.4byte	.LVL166
 11061 0caf 90040000 		.4byte	.LFE6
 11062 0cb3 2C00     		.2byte	0x2c
 11063 0cb5 91       		.byte	0x91
 11064 0cb6 44       		.sleb128 -60
 11065 0cb7 06       		.byte	0x6
 11066 0cb8 40       		.byte	0x40
 11067 0cb9 25       		.byte	0x25
 11068 0cba 08       		.byte	0x8
 11069 0cbb FF       		.byte	0xff
 11070 0cbc 1A       		.byte	0x1a
 11071 0cbd 03       		.byte	0x3
 11072 0cbe 28000000 		.4byte	.LANCHOR0+40
 11073 0cc2 22       		.byte	0x22
 11074 0cc3 94       		.byte	0x94
 11075 0cc4 01       		.byte	0x1
 11076 0cc5 08       		.byte	0x8
 11077 0cc6 FF       		.byte	0xff
 11078 0cc7 1A       		.byte	0x1a
 11079 0cc8 40       		.byte	0x40
 11080 0cc9 24       		.byte	0x24
 11081 0cca 91       		.byte	0x91
 11082 0ccb 48       		.sleb128 -56
 11083 0ccc 06       		.byte	0x6
 11084 0ccd 48       		.byte	0x48
 11085 0cce 25       		.byte	0x25
 11086 0ccf 03       		.byte	0x3
 11087 0cd0 28000000 		.4byte	.LANCHOR0+40
 11088 0cd4 22       		.byte	0x22
 11089 0cd5 94       		.byte	0x94
 11090 0cd6 01       		.byte	0x1
ARM GAS  C:\Users\Phuong\AppData\Local\Temp\ccyLHZOj.s 			page 238


 11091 0cd7 08       		.byte	0x8
 11092 0cd8 FF       		.byte	0xff
 11093 0cd9 1A       		.byte	0x1a
 11094 0cda 48       		.byte	0x48
 11095 0cdb 24       		.byte	0x24
 11096 0cdc 21       		.byte	0x21
 11097 0cdd 7C       		.byte	0x7c
 11098 0cde 00       		.sleb128 0
 11099 0cdf 27       		.byte	0x27
 11100 0ce0 9F       		.byte	0x9f
 11101 0ce1 00000000 		.4byte	0
 11102 0ce5 00000000 		.4byte	0
 11103              	.LLST28:
 11104 0ce9 CE000000 		.4byte	.LVL124
 11105 0ced 12020000 		.4byte	.LVL137
 11106 0cf1 0100     		.2byte	0x1
 11107 0cf3 51       		.byte	0x51
 11108 0cf4 8A020000 		.4byte	.LVL144
 11109 0cf8 96020000 		.4byte	.LVL145
 11110 0cfc 0100     		.2byte	0x1
 11111 0cfe 51       		.byte	0x51
 11112 0cff 96020000 		.4byte	.LVL145
 11113 0d03 00040000 		.4byte	.LVL159
 11114 0d07 0100     		.2byte	0x1
 11115 0d09 5A       		.byte	0x5a
 11116 0d0a 00000000 		.4byte	0
 11117 0d0e 00000000 		.4byte	0
 11118              	.LLST29:
 11119 0d12 02010000 		.4byte	.LVL125
 11120 0d16 0E010000 		.4byte	.LVL126
 11121 0d1a 0100     		.2byte	0x1
 11122 0d1c 52       		.byte	0x52
 11123 0d1d 0E010000 		.4byte	.LVL126
 11124 0d21 3A020000 		.4byte	.LVL141
 11125 0d25 0200     		.2byte	0x2
 11126 0d27 91       		.byte	0x91
 11127 0d28 48       		.sleb128 -56
 11128 0d29 BE020000 		.4byte	.LVL146
 11129 0d2d CA020000 		.4byte	.LVL147
 11130 0d31 0100     		.2byte	0x1
 11131 0d33 52       		.byte	0x52
 11132 0d34 CA020000 		.4byte	.LVL147
 11133 0d38 90040000 		.4byte	.LFE6
 11134 0d3c 0200     		.2byte	0x2
 11135 0d3e 91       		.byte	0x91
 11136 0d3f 44       		.sleb128 -60
 11137 0d40 00000000 		.4byte	0
 11138 0d44 00000000 		.4byte	0
 11139              	.LLST30:
 11140 0d48 34010000 		.4byte	.LVL127
 11141 0d4c 2A020000 		.4byte	.LVL138
 11142 0d50 0100     		.2byte	0x1
 11143 0d52 50       		.byte	0x50
 11144 0d53 F2020000 		.4byte	.LVL148
 11145 0d57 CE030000 		.4byte	.LVL156
 11146 0d5b 0100     		.2byte	0x1
 11147 0d5d 51       		.byte	0x51
ARM GAS  C:\Users\Phuong\AppData\Local\Temp\ccyLHZOj.s 			page 239


 11148 0d5e CE030000 		.4byte	.LVL156
 11149 0d62 90040000 		.4byte	.LFE6
 11150 0d66 0200     		.2byte	0x2
 11151 0d68 91       		.byte	0x91
 11152 0d69 48       		.sleb128 -56
 11153 0d6a 00000000 		.4byte	0
 11154 0d6e 00000000 		.4byte	0
 11155              	.LLST31:
 11156 0d72 68010000 		.4byte	.LVL130
 11157 0d76 06020000 		.4byte	.LVL136
 11158 0d7a 0100     		.2byte	0x1
 11159 0d7c 56       		.byte	0x56
 11160 0d7d 26030000 		.4byte	.LVL152
 11161 0d81 28030000 		.4byte	.LVL153
 11162 0d85 0100     		.2byte	0x1
 11163 0d87 50       		.byte	0x50
 11164 0d88 28030000 		.4byte	.LVL153
 11165 0d8c E8030000 		.4byte	.LVL158
 11166 0d90 0100     		.2byte	0x1
 11167 0d92 58       		.byte	0x58
 11168 0d93 00000000 		.4byte	0
 11169 0d97 00000000 		.4byte	0
 11170              	.LLST32:
 11171 0d9b 00000000 		.4byte	.LVL168
 11172 0d9f 05000000 		.4byte	.LVL169-1
 11173 0da3 0100     		.2byte	0x1
 11174 0da5 50       		.byte	0x50
 11175 0da6 05000000 		.4byte	.LVL169-1
 11176 0daa 08000000 		.4byte	.LFE7
 11177 0dae 0400     		.2byte	0x4
 11178 0db0 F3       		.byte	0xf3
 11179 0db1 01       		.uleb128 0x1
 11180 0db2 50       		.byte	0x50
 11181 0db3 9F       		.byte	0x9f
 11182 0db4 00000000 		.4byte	0
 11183 0db8 00000000 		.4byte	0
 11184              	.LLST33:
 11185 0dbc 00000000 		.4byte	.LVL168
 11186 0dc0 05000000 		.4byte	.LVL169-1
 11187 0dc4 0100     		.2byte	0x1
 11188 0dc6 51       		.byte	0x51
 11189 0dc7 05000000 		.4byte	.LVL169-1
 11190 0dcb 08000000 		.4byte	.LFE7
 11191 0dcf 0400     		.2byte	0x4
 11192 0dd1 F3       		.byte	0xf3
 11193 0dd2 01       		.uleb128 0x1
 11194 0dd3 51       		.byte	0x51
 11195 0dd4 9F       		.byte	0x9f
 11196 0dd5 00000000 		.4byte	0
 11197 0dd9 00000000 		.4byte	0
 11198              	.LLST34:
 11199 0ddd 00000000 		.4byte	.LVL168
 11200 0de1 05000000 		.4byte	.LVL169-1
 11201 0de5 0100     		.2byte	0x1
 11202 0de7 52       		.byte	0x52
 11203 0de8 05000000 		.4byte	.LVL169-1
 11204 0dec 08000000 		.4byte	.LFE7
ARM GAS  C:\Users\Phuong\AppData\Local\Temp\ccyLHZOj.s 			page 240


 11205 0df0 0400     		.2byte	0x4
 11206 0df2 F3       		.byte	0xf3
 11207 0df3 01       		.uleb128 0x1
 11208 0df4 52       		.byte	0x52
 11209 0df5 9F       		.byte	0x9f
 11210 0df6 00000000 		.4byte	0
 11211 0dfa 00000000 		.4byte	0
 11212              	.LLST35:
 11213 0dfe 00000000 		.4byte	.LVL170
 11214 0e02 88000000 		.4byte	.LVL183
 11215 0e06 0100     		.2byte	0x1
 11216 0e08 50       		.byte	0x50
 11217 0e09 88000000 		.4byte	.LVL183
 11218 0e0d 74040000 		.4byte	.LFE8
 11219 0e11 0400     		.2byte	0x4
 11220 0e13 F3       		.byte	0xf3
 11221 0e14 01       		.uleb128 0x1
 11222 0e15 50       		.byte	0x50
 11223 0e16 9F       		.byte	0x9f
 11224 0e17 00000000 		.4byte	0
 11225 0e1b 00000000 		.4byte	0
 11226              	.LLST36:
 11227 0e1f 00000000 		.4byte	.LVL170
 11228 0e23 88000000 		.4byte	.LVL183
 11229 0e27 0100     		.2byte	0x1
 11230 0e29 51       		.byte	0x51
 11231 0e2a 88000000 		.4byte	.LVL183
 11232 0e2e 74040000 		.4byte	.LFE8
 11233 0e32 0400     		.2byte	0x4
 11234 0e34 F3       		.byte	0xf3
 11235 0e35 01       		.uleb128 0x1
 11236 0e36 51       		.byte	0x51
 11237 0e37 9F       		.byte	0x9f
 11238 0e38 00000000 		.4byte	0
 11239 0e3c 00000000 		.4byte	0
 11240              	.LLST37:
 11241 0e40 00000000 		.4byte	.LVL170
 11242 0e44 12000000 		.4byte	.LVL171
 11243 0e48 0100     		.2byte	0x1
 11244 0e4a 52       		.byte	0x52
 11245 0e4b 12000000 		.4byte	.LVL171
 11246 0e4f 74040000 		.4byte	.LFE8
 11247 0e53 0200     		.2byte	0x2
 11248 0e55 91       		.byte	0x91
 11249 0e56 54       		.sleb128 -44
 11250 0e57 00000000 		.4byte	0
 11251 0e5b 00000000 		.4byte	0
 11252              	.LLST38:
 11253 0e5f 82000000 		.4byte	.LVL182
 11254 0e63 8A000000 		.4byte	.LVL184
 11255 0e67 0100     		.2byte	0x1
 11256 0e69 53       		.byte	0x53
 11257 0e6a 8A000000 		.4byte	.LVL184
 11258 0e6e 32020000 		.4byte	.LVL201
 11259 0e72 0200     		.2byte	0x2
 11260 0e74 91       		.byte	0x91
 11261 0e75 50       		.sleb128 -48
ARM GAS  C:\Users\Phuong\AppData\Local\Temp\ccyLHZOj.s 			page 241


 11262 0e76 32020000 		.4byte	.LVL201
 11263 0e7a 34020000 		.4byte	.LVL202
 11264 0e7e 0100     		.2byte	0x1
 11265 0e80 53       		.byte	0x53
 11266 0e81 34020000 		.4byte	.LVL202
 11267 0e85 74040000 		.4byte	.LFE8
 11268 0e89 0200     		.2byte	0x2
 11269 0e8b 91       		.byte	0x91
 11270 0e8c 50       		.sleb128 -48
 11271 0e8d 00000000 		.4byte	0
 11272 0e91 00000000 		.4byte	0
 11273              	.LLST39:
 11274 0e95 12000000 		.4byte	.LVL171
 11275 0e99 26000000 		.4byte	.LVL172
 11276 0e9d 0100     		.2byte	0x1
 11277 0e9f 52       		.byte	0x52
 11278 0ea0 26000000 		.4byte	.LVL172
 11279 0ea4 40000000 		.4byte	.LVL175
 11280 0ea8 0300     		.2byte	0x3
 11281 0eaa 72       		.byte	0x72
 11282 0eab 04       		.sleb128 4
 11283 0eac 9F       		.byte	0x9f
 11284 0ead 40000000 		.4byte	.LVL175
 11285 0eb1 58000000 		.4byte	.LVL177
 11286 0eb5 0300     		.2byte	0x3
 11287 0eb7 72       		.byte	0x72
 11288 0eb8 08       		.sleb128 8
 11289 0eb9 9F       		.byte	0x9f
 11290 0eba 58000000 		.4byte	.LVL177
 11291 0ebe 76000000 		.4byte	.LVL180
 11292 0ec2 0300     		.2byte	0x3
 11293 0ec4 72       		.byte	0x72
 11294 0ec5 0C       		.sleb128 12
 11295 0ec6 9F       		.byte	0x9f
 11296 0ec7 76000000 		.4byte	.LVL180
 11297 0ecb 88000000 		.4byte	.LVL183
 11298 0ecf 0100     		.2byte	0x1
 11299 0ed1 5B       		.byte	0x5b
 11300 0ed2 88000000 		.4byte	.LVL183
 11301 0ed6 CE000000 		.4byte	.LVL185
 11302 0eda 0300     		.2byte	0x3
 11303 0edc 77       		.byte	0x77
 11304 0edd 04       		.sleb128 4
 11305 0ede 9F       		.byte	0x9f
 11306 0edf CE000000 		.4byte	.LVL185
 11307 0ee3 00010000 		.4byte	.LVL186
 11308 0ee7 0300     		.2byte	0x3
 11309 0ee9 77       		.byte	0x77
 11310 0eea 08       		.sleb128 8
 11311 0eeb 9F       		.byte	0x9f
 11312 0eec 00010000 		.4byte	.LVL186
 11313 0ef0 38010000 		.4byte	.LVL187
 11314 0ef4 0300     		.2byte	0x3
 11315 0ef6 77       		.byte	0x77
 11316 0ef7 0C       		.sleb128 12
 11317 0ef8 9F       		.byte	0x9f
 11318 0ef9 38010000 		.4byte	.LVL187
ARM GAS  C:\Users\Phuong\AppData\Local\Temp\ccyLHZOj.s 			page 242


 11319 0efd 6A010000 		.4byte	.LVL190
 11320 0f01 0300     		.2byte	0x3
 11321 0f03 77       		.byte	0x77
 11322 0f04 10       		.sleb128 16
 11323 0f05 9F       		.byte	0x9f
 11324 0f06 6A010000 		.4byte	.LVL190
 11325 0f0a 9C010000 		.4byte	.LVL191
 11326 0f0e 0300     		.2byte	0x3
 11327 0f10 77       		.byte	0x77
 11328 0f11 14       		.sleb128 20
 11329 0f12 9F       		.byte	0x9f
 11330 0f13 9C010000 		.4byte	.LVL191
 11331 0f17 CE010000 		.4byte	.LVL193
 11332 0f1b 0300     		.2byte	0x3
 11333 0f1d 77       		.byte	0x77
 11334 0f1e 18       		.sleb128 24
 11335 0f1f 9F       		.byte	0x9f
 11336 0f20 CE010000 		.4byte	.LVL193
 11337 0f24 FE010000 		.4byte	.LVL195
 11338 0f28 0300     		.2byte	0x3
 11339 0f2a 77       		.byte	0x77
 11340 0f2b 1C       		.sleb128 28
 11341 0f2c 9F       		.byte	0x9f
 11342 0f2d FE010000 		.4byte	.LVL195
 11343 0f31 34020000 		.4byte	.LVL202
 11344 0f35 0300     		.2byte	0x3
 11345 0f37 77       		.byte	0x77
 11346 0f38 20       		.sleb128 32
 11347 0f39 9F       		.byte	0x9f
 11348 0f3a 34020000 		.4byte	.LVL202
 11349 0f3e 40020000 		.4byte	.LVL203
 11350 0f42 0100     		.2byte	0x1
 11351 0f44 57       		.byte	0x57
 11352 0f45 40020000 		.4byte	.LVL203
 11353 0f49 5C020000 		.4byte	.LVL204
 11354 0f4d 0300     		.2byte	0x3
 11355 0f4f 77       		.byte	0x77
 11356 0f50 04       		.sleb128 4
 11357 0f51 9F       		.byte	0x9f
 11358 0f52 5C020000 		.4byte	.LVL204
 11359 0f56 84020000 		.4byte	.LVL205
 11360 0f5a 0300     		.2byte	0x3
 11361 0f5c 7B       		.byte	0x7b
 11362 0f5d 04       		.sleb128 4
 11363 0f5e 9F       		.byte	0x9f
 11364 0f5f 84020000 		.4byte	.LVL205
 11365 0f63 B8020000 		.4byte	.LVL207
 11366 0f67 0300     		.2byte	0x3
 11367 0f69 7B       		.byte	0x7b
 11368 0f6a 08       		.sleb128 8
 11369 0f6b 9F       		.byte	0x9f
 11370 0f6c B8020000 		.4byte	.LVL207
 11371 0f70 EC020000 		.4byte	.LVL209
 11372 0f74 0300     		.2byte	0x3
 11373 0f76 7B       		.byte	0x7b
 11374 0f77 0C       		.sleb128 12
 11375 0f78 9F       		.byte	0x9f
ARM GAS  C:\Users\Phuong\AppData\Local\Temp\ccyLHZOj.s 			page 243


 11376 0f79 EC020000 		.4byte	.LVL209
 11377 0f7d 20030000 		.4byte	.LVL213
 11378 0f81 0300     		.2byte	0x3
 11379 0f83 7B       		.byte	0x7b
 11380 0f84 10       		.sleb128 16
 11381 0f85 9F       		.byte	0x9f
 11382 0f86 20030000 		.4byte	.LVL213
 11383 0f8a 5C030000 		.4byte	.LVL215
 11384 0f8e 0300     		.2byte	0x3
 11385 0f90 7B       		.byte	0x7b
 11386 0f91 14       		.sleb128 20
 11387 0f92 9F       		.byte	0x9f
 11388 0f93 5C030000 		.4byte	.LVL215
 11389 0f97 90030000 		.4byte	.LVL216
 11390 0f9b 0300     		.2byte	0x3
 11391 0f9d 7B       		.byte	0x7b
 11392 0f9e 18       		.sleb128 24
 11393 0f9f 9F       		.byte	0x9f
 11394 0fa0 90030000 		.4byte	.LVL216
 11395 0fa4 D0030000 		.4byte	.LVL217
 11396 0fa8 0300     		.2byte	0x3
 11397 0faa 7B       		.byte	0x7b
 11398 0fab 1C       		.sleb128 28
 11399 0fac 9F       		.byte	0x9f
 11400 0fad D0030000 		.4byte	.LVL217
 11401 0fb1 54040000 		.4byte	.LVL229
 11402 0fb5 0300     		.2byte	0x3
 11403 0fb7 7B       		.byte	0x7b
 11404 0fb8 20       		.sleb128 32
 11405 0fb9 9F       		.byte	0x9f
 11406 0fba 00000000 		.4byte	0
 11407 0fbe 00000000 		.4byte	0
 11408              	.LLST40:
 11409 0fc2 26000000 		.4byte	.LVL172
 11410 0fc6 2C000000 		.4byte	.LVL173
 11411 0fca 0100     		.2byte	0x1
 11412 0fcc 53       		.byte	0x53
 11413 0fcd 2C000000 		.4byte	.LVL173
 11414 0fd1 30000000 		.4byte	.LVL174
 11415 0fd5 0100     		.2byte	0x1
 11416 0fd7 54       		.byte	0x54
 11417 0fd8 30000000 		.4byte	.LVL174
 11418 0fdc 9C010000 		.4byte	.LVL191
 11419 0fe0 0200     		.2byte	0x2
 11420 0fe2 7D       		.byte	0x7d
 11421 0fe3 00       		.sleb128 0
 11422 0fe4 9C010000 		.4byte	.LVL191
 11423 0fe8 A8010000 		.4byte	.LVL192
 11424 0fec 0100     		.2byte	0x1
 11425 0fee 55       		.byte	0x55
 11426 0fef A8010000 		.4byte	.LVL192
 11427 0ff3 5C030000 		.4byte	.LVL215
 11428 0ff7 0200     		.2byte	0x2
 11429 0ff9 7D       		.byte	0x7d
 11430 0ffa 00       		.sleb128 0
 11431 0ffb 5C030000 		.4byte	.LVL215
 11432 0fff 24040000 		.4byte	.LVL221
ARM GAS  C:\Users\Phuong\AppData\Local\Temp\ccyLHZOj.s 			page 244


 11433 1003 0100     		.2byte	0x1
 11434 1005 50       		.byte	0x50
 11435 1006 00000000 		.4byte	0
 11436 100a 00000000 		.4byte	0
 11437              	.LLST41:
 11438 100e 40000000 		.4byte	.LVL175
 11439 1012 88000000 		.4byte	.LVL183
 11440 1016 0100     		.2byte	0x1
 11441 1018 54       		.byte	0x54
 11442 1019 88000000 		.4byte	.LVL183
 11443 101d CE010000 		.4byte	.LVL193
 11444 1021 0200     		.2byte	0x2
 11445 1023 91       		.byte	0x91
 11446 1024 4C       		.sleb128 -52
 11447 1025 CE010000 		.4byte	.LVL193
 11448 1029 DA010000 		.4byte	.LVL194
 11449 102d 0100     		.2byte	0x1
 11450 102f 54       		.byte	0x54
 11451 1030 DA010000 		.4byte	.LVL194
 11452 1034 B8020000 		.4byte	.LVL207
 11453 1038 0200     		.2byte	0x2
 11454 103a 91       		.byte	0x91
 11455 103b 4C       		.sleb128 -52
 11456 103c B8020000 		.4byte	.LVL207
 11457 1040 08030000 		.4byte	.LVL212
 11458 1044 0100     		.2byte	0x1
 11459 1046 54       		.byte	0x54
 11460 1047 90030000 		.4byte	.LVL216
 11461 104b 32040000 		.4byte	.LVL222
 11462 104f 0100     		.2byte	0x1
 11463 1051 57       		.byte	0x57
 11464 1052 00000000 		.4byte	0
 11465 1056 00000000 		.4byte	0
 11466              	.LLST42:
 11467 105a 58000000 		.4byte	.LVL177
 11468 105e 46010000 		.4byte	.LVL189
 11469 1062 0100     		.2byte	0x1
 11470 1064 55       		.byte	0x55
 11471 1065 FE010000 		.4byte	.LVL195
 11472 1069 FC020000 		.4byte	.LVL211
 11473 106d 0100     		.2byte	0x1
 11474 106f 55       		.byte	0x55
 11475 1070 D0030000 		.4byte	.LVL217
 11476 1074 40040000 		.4byte	.LVL223
 11477 1078 0100     		.2byte	0x1
 11478 107a 56       		.byte	0x56
 11479 107b 00000000 		.4byte	0
 11480 107f 00000000 		.4byte	0
 11481              	.LLST43:
 11482 1083 70000000 		.4byte	.LVL179
 11483 1087 3A010000 		.4byte	.LVL188
 11484 108b 0100     		.2byte	0x1
 11485 108d 56       		.byte	0x56
 11486 108e 2C020000 		.4byte	.LVL200
 11487 1092 EE020000 		.4byte	.LVL210
 11488 1096 0100     		.2byte	0x1
 11489 1098 56       		.byte	0x56
ARM GAS  C:\Users\Phuong\AppData\Local\Temp\ccyLHZOj.s 			page 245


 11490 1099 16040000 		.4byte	.LVL220
 11491 109d 4E040000 		.4byte	.LVL224
 11492 10a1 0100     		.2byte	0x1
 11493 10a3 53       		.byte	0x53
 11494 10a4 4E040000 		.4byte	.LVL224
 11495 10a8 54040000 		.4byte	.LVL225
 11496 10ac 4200     		.2byte	0x42
 11497 10ae 7D       		.byte	0x7d
 11498 10af 00       		.sleb128 0
 11499 10b0 06       		.byte	0x6
 11500 10b1 38       		.byte	0x38
 11501 10b2 25       		.byte	0x25
 11502 10b3 08       		.byte	0x8
 11503 10b4 FF       		.byte	0xff
 11504 10b5 1A       		.byte	0x1a
 11505 10b6 74       		.byte	0x74
 11506 10b7 00       		.sleb128 0
 11507 10b8 22       		.byte	0x22
 11508 10b9 03       		.byte	0x3
 11509 10ba 00010000 		.4byte	.LANCHOR1
 11510 10be 22       		.byte	0x22
 11511 10bf 94       		.byte	0x94
 11512 10c0 01       		.byte	0x1
 11513 10c1 08       		.byte	0x8
 11514 10c2 FF       		.byte	0xff
 11515 10c3 1A       		.byte	0x1a
 11516 10c4 38       		.byte	0x38
 11517 10c5 24       		.byte	0x24
 11518 10c6 91       		.byte	0x91
 11519 10c7 4C       		.sleb128 -52
 11520 10c8 06       		.byte	0x6
 11521 10c9 40       		.byte	0x40
 11522 10ca 25       		.byte	0x25
 11523 10cb 08       		.byte	0x8
 11524 10cc FF       		.byte	0xff
 11525 10cd 1A       		.byte	0x1a
 11526 10ce 74       		.byte	0x74
 11527 10cf 00       		.sleb128 0
 11528 10d0 22       		.byte	0x22
 11529 10d1 03       		.byte	0x3
 11530 10d2 00010000 		.4byte	.LANCHOR1
 11531 10d6 22       		.byte	0x22
 11532 10d7 94       		.byte	0x94
 11533 10d8 01       		.byte	0x1
 11534 10d9 08       		.byte	0x8
 11535 10da FF       		.byte	0xff
 11536 10db 1A       		.byte	0x1a
 11537 10dc 40       		.byte	0x40
 11538 10dd 24       		.byte	0x24
 11539 10de 21       		.byte	0x21
 11540 10df 75       		.byte	0x75
 11541 10e0 00       		.sleb128 0
 11542 10e1 74       		.byte	0x74
 11543 10e2 00       		.sleb128 0
 11544 10e3 22       		.byte	0x22
 11545 10e4 94       		.byte	0x94
 11546 10e5 01       		.byte	0x1
ARM GAS  C:\Users\Phuong\AppData\Local\Temp\ccyLHZOj.s 			page 246


 11547 10e6 08       		.byte	0x8
 11548 10e7 FF       		.byte	0xff
 11549 10e8 1A       		.byte	0x1a
 11550 10e9 48       		.byte	0x48
 11551 10ea 24       		.byte	0x24
 11552 10eb 21       		.byte	0x21
 11553 10ec 7C       		.byte	0x7c
 11554 10ed 00       		.sleb128 0
 11555 10ee 27       		.byte	0x27
 11556 10ef 9F       		.byte	0x9f
 11557 10f0 54040000 		.4byte	.LVL225
 11558 10f4 54040000 		.4byte	.LVL226
 11559 10f8 4200     		.2byte	0x42
 11560 10fa 91       		.byte	0x91
 11561 10fb 48       		.sleb128 -56
 11562 10fc 06       		.byte	0x6
 11563 10fd 38       		.byte	0x38
 11564 10fe 25       		.byte	0x25
 11565 10ff 08       		.byte	0x8
 11566 1100 FF       		.byte	0xff
 11567 1101 1A       		.byte	0x1a
 11568 1102 74       		.byte	0x74
 11569 1103 00       		.sleb128 0
 11570 1104 22       		.byte	0x22
 11571 1105 03       		.byte	0x3
 11572 1106 00010000 		.4byte	.LANCHOR1
 11573 110a 22       		.byte	0x22
 11574 110b 94       		.byte	0x94
 11575 110c 01       		.byte	0x1
 11576 110d 08       		.byte	0x8
 11577 110e FF       		.byte	0xff
 11578 110f 1A       		.byte	0x1a
 11579 1110 38       		.byte	0x38
 11580 1111 24       		.byte	0x24
 11581 1112 91       		.byte	0x91
 11582 1113 4C       		.sleb128 -52
 11583 1114 06       		.byte	0x6
 11584 1115 40       		.byte	0x40
 11585 1116 25       		.byte	0x25
 11586 1117 08       		.byte	0x8
 11587 1118 FF       		.byte	0xff
 11588 1119 1A       		.byte	0x1a
 11589 111a 74       		.byte	0x74
 11590 111b 00       		.sleb128 0
 11591 111c 22       		.byte	0x22
 11592 111d 03       		.byte	0x3
 11593 111e 00010000 		.4byte	.LANCHOR1
 11594 1122 22       		.byte	0x22
 11595 1123 94       		.byte	0x94
 11596 1124 01       		.byte	0x1
 11597 1125 08       		.byte	0x8
 11598 1126 FF       		.byte	0xff
 11599 1127 1A       		.byte	0x1a
 11600 1128 40       		.byte	0x40
 11601 1129 24       		.byte	0x24
 11602 112a 21       		.byte	0x21
 11603 112b 75       		.byte	0x75
ARM GAS  C:\Users\Phuong\AppData\Local\Temp\ccyLHZOj.s 			page 247


 11604 112c 00       		.sleb128 0
 11605 112d 74       		.byte	0x74
 11606 112e 00       		.sleb128 0
 11607 112f 22       		.byte	0x22
 11608 1130 94       		.byte	0x94
 11609 1131 01       		.byte	0x1
 11610 1132 08       		.byte	0x8
 11611 1133 FF       		.byte	0xff
 11612 1134 1A       		.byte	0x1a
 11613 1135 48       		.byte	0x48
 11614 1136 24       		.byte	0x24
 11615 1137 21       		.byte	0x21
 11616 1138 7C       		.byte	0x7c
 11617 1139 00       		.sleb128 0
 11618 113a 27       		.byte	0x27
 11619 113b 9F       		.byte	0x9f
 11620 113c 54040000 		.4byte	.LVL226
 11621 1140 54040000 		.4byte	.LVL227
 11622 1144 3900     		.2byte	0x39
 11623 1146 91       		.byte	0x91
 11624 1147 48       		.sleb128 -56
 11625 1148 06       		.byte	0x6
 11626 1149 38       		.byte	0x38
 11627 114a 25       		.byte	0x25
 11628 114b 08       		.byte	0x8
 11629 114c FF       		.byte	0xff
 11630 114d 1A       		.byte	0x1a
 11631 114e 03       		.byte	0x3
 11632 114f 28010000 		.4byte	.LANCHOR1+40
 11633 1153 22       		.byte	0x22
 11634 1154 94       		.byte	0x94
 11635 1155 01       		.byte	0x1
 11636 1156 08       		.byte	0x8
 11637 1157 FF       		.byte	0xff
 11638 1158 1A       		.byte	0x1a
 11639 1159 38       		.byte	0x38
 11640 115a 24       		.byte	0x24
 11641 115b 91       		.byte	0x91
 11642 115c 4C       		.sleb128 -52
 11643 115d 06       		.byte	0x6
 11644 115e 40       		.byte	0x40
 11645 115f 25       		.byte	0x25
 11646 1160 08       		.byte	0x8
 11647 1161 FF       		.byte	0xff
 11648 1162 1A       		.byte	0x1a
 11649 1163 03       		.byte	0x3
 11650 1164 28010000 		.4byte	.LANCHOR1+40
 11651 1168 22       		.byte	0x22
 11652 1169 94       		.byte	0x94
 11653 116a 01       		.byte	0x1
 11654 116b 08       		.byte	0x8
 11655 116c FF       		.byte	0xff
 11656 116d 1A       		.byte	0x1a
 11657 116e 40       		.byte	0x40
 11658 116f 24       		.byte	0x24
 11659 1170 21       		.byte	0x21
 11660 1171 75       		.byte	0x75
ARM GAS  C:\Users\Phuong\AppData\Local\Temp\ccyLHZOj.s 			page 248


 11661 1172 28       		.sleb128 40
 11662 1173 94       		.byte	0x94
 11663 1174 01       		.byte	0x1
 11664 1175 08       		.byte	0x8
 11665 1176 FF       		.byte	0xff
 11666 1177 1A       		.byte	0x1a
 11667 1178 48       		.byte	0x48
 11668 1179 24       		.byte	0x24
 11669 117a 21       		.byte	0x21
 11670 117b 7C       		.byte	0x7c
 11671 117c 00       		.sleb128 0
 11672 117d 27       		.byte	0x27
 11673 117e 9F       		.byte	0x9f
 11674 117f 54040000 		.4byte	.LVL227
 11675 1183 54040000 		.4byte	.LVL228
 11676 1187 4100     		.2byte	0x41
 11677 1189 91       		.byte	0x91
 11678 118a 48       		.sleb128 -56
 11679 118b 06       		.byte	0x6
 11680 118c 38       		.byte	0x38
 11681 118d 25       		.byte	0x25
 11682 118e 08       		.byte	0x8
 11683 118f FF       		.byte	0xff
 11684 1190 1A       		.byte	0x1a
 11685 1191 03       		.byte	0x3
 11686 1192 28010000 		.4byte	.LANCHOR1+40
 11687 1196 22       		.byte	0x22
 11688 1197 94       		.byte	0x94
 11689 1198 01       		.byte	0x1
 11690 1199 08       		.byte	0x8
 11691 119a FF       		.byte	0xff
 11692 119b 1A       		.byte	0x1a
 11693 119c 38       		.byte	0x38
 11694 119d 24       		.byte	0x24
 11695 119e 91       		.byte	0x91
 11696 119f 4C       		.sleb128 -52
 11697 11a0 06       		.byte	0x6
 11698 11a1 40       		.byte	0x40
 11699 11a2 25       		.byte	0x25
 11700 11a3 08       		.byte	0x8
 11701 11a4 FF       		.byte	0xff
 11702 11a5 1A       		.byte	0x1a
 11703 11a6 03       		.byte	0x3
 11704 11a7 28010000 		.4byte	.LANCHOR1+40
 11705 11ab 22       		.byte	0x22
 11706 11ac 94       		.byte	0x94
 11707 11ad 01       		.byte	0x1
 11708 11ae 08       		.byte	0x8
 11709 11af FF       		.byte	0xff
 11710 11b0 1A       		.byte	0x1a
 11711 11b1 40       		.byte	0x40
 11712 11b2 24       		.byte	0x24
 11713 11b3 21       		.byte	0x21
 11714 11b4 7A       		.byte	0x7a
 11715 11b5 00       		.sleb128 0
 11716 11b6 48       		.byte	0x48
 11717 11b7 25       		.byte	0x25
ARM GAS  C:\Users\Phuong\AppData\Local\Temp\ccyLHZOj.s 			page 249


 11718 11b8 03       		.byte	0x3
 11719 11b9 28010000 		.4byte	.LANCHOR1+40
 11720 11bd 22       		.byte	0x22
 11721 11be 94       		.byte	0x94
 11722 11bf 01       		.byte	0x1
 11723 11c0 08       		.byte	0x8
 11724 11c1 FF       		.byte	0xff
 11725 11c2 1A       		.byte	0x1a
 11726 11c3 48       		.byte	0x48
 11727 11c4 24       		.byte	0x24
 11728 11c5 21       		.byte	0x21
 11729 11c6 7C       		.byte	0x7c
 11730 11c7 00       		.sleb128 0
 11731 11c8 27       		.byte	0x27
 11732 11c9 9F       		.byte	0x9f
 11733 11ca 00000000 		.4byte	0
 11734 11ce 00000000 		.4byte	0
 11735              	.LLST44:
 11736 11d2 CE000000 		.4byte	.LVL185
 11737 11d6 24020000 		.4byte	.LVL199
 11738 11da 0100     		.2byte	0x1
 11739 11dc 50       		.byte	0x50
 11740 11dd 84020000 		.4byte	.LVL205
 11741 11e1 90020000 		.4byte	.LVL206
 11742 11e5 0100     		.2byte	0x1
 11743 11e7 51       		.byte	0x51
 11744 11e8 90020000 		.4byte	.LVL206
 11745 11ec 54040000 		.4byte	.LVL228
 11746 11f0 0100     		.2byte	0x1
 11747 11f2 5A       		.byte	0x5a
 11748 11f3 00000000 		.4byte	0
 11749 11f7 00000000 		.4byte	0
 11750              	.LLST45:
 11751 11fb 00010000 		.4byte	.LVL186
 11752 11ff 18020000 		.4byte	.LVL198
 11753 1203 0100     		.2byte	0x1
 11754 1205 52       		.byte	0x52
 11755 1206 B8020000 		.4byte	.LVL207
 11756 120a C4020000 		.4byte	.LVL208
 11757 120e 0100     		.2byte	0x1
 11758 1210 52       		.byte	0x52
 11759 1211 C4020000 		.4byte	.LVL208
 11760 1215 74040000 		.4byte	.LFE8
 11761 1219 0200     		.2byte	0x2
 11762 121b 91       		.byte	0x91
 11763 121c 4C       		.sleb128 -52
 11764 121d 00000000 		.4byte	0
 11765 1221 00000000 		.4byte	0
 11766              	.LLST46:
 11767 1225 38010000 		.4byte	.LVL187
 11768 1229 0C020000 		.4byte	.LVL197
 11769 122d 0100     		.2byte	0x1
 11770 122f 51       		.byte	0x51
 11771 1230 EC020000 		.4byte	.LVL209
 11772 1234 E8030000 		.4byte	.LVL219
 11773 1238 0100     		.2byte	0x1
 11774 123a 51       		.byte	0x51
ARM GAS  C:\Users\Phuong\AppData\Local\Temp\ccyLHZOj.s 			page 250


 11775 123b E8030000 		.4byte	.LVL219
 11776 123f 54040000 		.4byte	.LVL225
 11777 1243 0200     		.2byte	0x2
 11778 1245 7D       		.byte	0x7d
 11779 1246 00       		.sleb128 0
 11780 1247 54040000 		.4byte	.LVL225
 11781 124b 74040000 		.4byte	.LFE8
 11782 124f 0200     		.2byte	0x2
 11783 1251 91       		.byte	0x91
 11784 1252 48       		.sleb128 -56
 11785 1253 00000000 		.4byte	0
 11786 1257 00000000 		.4byte	0
 11787              	.LLST47:
 11788 125b 6A010000 		.4byte	.LVL190
 11789 125f 00020000 		.4byte	.LVL196
 11790 1263 0100     		.2byte	0x1
 11791 1265 56       		.byte	0x56
 11792 1266 20030000 		.4byte	.LVL213
 11793 126a 22030000 		.4byte	.LVL214
 11794 126e 0100     		.2byte	0x1
 11795 1270 50       		.byte	0x50
 11796 1271 22030000 		.4byte	.LVL214
 11797 1275 DC030000 		.4byte	.LVL218
 11798 1279 0100     		.2byte	0x1
 11799 127b 58       		.byte	0x58
 11800 127c 00000000 		.4byte	0
 11801 1280 00000000 		.4byte	0
 11802              	.LLST48:
 11803 1284 00000000 		.4byte	.LVL230
 11804 1288 05000000 		.4byte	.LVL231-1
 11805 128c 0100     		.2byte	0x1
 11806 128e 50       		.byte	0x50
 11807 128f 05000000 		.4byte	.LVL231-1
 11808 1293 08000000 		.4byte	.LFE9
 11809 1297 0400     		.2byte	0x4
 11810 1299 F3       		.byte	0xf3
 11811 129a 01       		.uleb128 0x1
 11812 129b 50       		.byte	0x50
 11813 129c 9F       		.byte	0x9f
 11814 129d 00000000 		.4byte	0
 11815 12a1 00000000 		.4byte	0
 11816              	.LLST49:
 11817 12a5 00000000 		.4byte	.LVL230
 11818 12a9 05000000 		.4byte	.LVL231-1
 11819 12ad 0100     		.2byte	0x1
 11820 12af 51       		.byte	0x51
 11821 12b0 05000000 		.4byte	.LVL231-1
 11822 12b4 08000000 		.4byte	.LFE9
 11823 12b8 0400     		.2byte	0x4
 11824 12ba F3       		.byte	0xf3
 11825 12bb 01       		.uleb128 0x1
 11826 12bc 51       		.byte	0x51
 11827 12bd 9F       		.byte	0x9f
 11828 12be 00000000 		.4byte	0
 11829 12c2 00000000 		.4byte	0
 11830              	.LLST50:
 11831 12c6 00000000 		.4byte	.LVL230
ARM GAS  C:\Users\Phuong\AppData\Local\Temp\ccyLHZOj.s 			page 251


 11832 12ca 05000000 		.4byte	.LVL231-1
 11833 12ce 0100     		.2byte	0x1
 11834 12d0 52       		.byte	0x52
 11835 12d1 05000000 		.4byte	.LVL231-1
 11836 12d5 08000000 		.4byte	.LFE9
 11837 12d9 0400     		.2byte	0x4
 11838 12db F3       		.byte	0xf3
 11839 12dc 01       		.uleb128 0x1
 11840 12dd 52       		.byte	0x52
 11841 12de 9F       		.byte	0x9f
 11842 12df 00000000 		.4byte	0
 11843 12e3 00000000 		.4byte	0
 11844              	.LLST51:
 11845 12e7 00000000 		.4byte	.LVL232
 11846 12eb 0F000000 		.4byte	.LVL235-1
 11847 12ef 0100     		.2byte	0x1
 11848 12f1 50       		.byte	0x50
 11849 12f2 0F000000 		.4byte	.LVL235-1
 11850 12f6 12000000 		.4byte	.LVL236
 11851 12fa 0400     		.2byte	0x4
 11852 12fc F3       		.byte	0xf3
 11853 12fd 01       		.uleb128 0x1
 11854 12fe 50       		.byte	0x50
 11855 12ff 9F       		.byte	0x9f
 11856 1300 12000000 		.4byte	.LVL236
 11857 1304 19000000 		.4byte	.LVL239-1
 11858 1308 0100     		.2byte	0x1
 11859 130a 50       		.byte	0x50
 11860 130b 19000000 		.4byte	.LVL239-1
 11861 130f 1C000000 		.4byte	.LFE10
 11862 1313 0400     		.2byte	0x4
 11863 1315 F3       		.byte	0xf3
 11864 1316 01       		.uleb128 0x1
 11865 1317 50       		.byte	0x50
 11866 1318 9F       		.byte	0x9f
 11867 1319 00000000 		.4byte	0
 11868 131d 00000000 		.4byte	0
 11869              	.LLST52:
 11870 1321 00000000 		.4byte	.LVL232
 11871 1325 0C000000 		.4byte	.LVL234
 11872 1329 0100     		.2byte	0x1
 11873 132b 51       		.byte	0x51
 11874 132c 0C000000 		.4byte	.LVL234
 11875 1330 12000000 		.4byte	.LVL236
 11876 1334 0400     		.2byte	0x4
 11877 1336 F3       		.byte	0xf3
 11878 1337 01       		.uleb128 0x1
 11879 1338 51       		.byte	0x51
 11880 1339 9F       		.byte	0x9f
 11881 133a 12000000 		.4byte	.LVL236
 11882 133e 16000000 		.4byte	.LVL238
 11883 1342 0100     		.2byte	0x1
 11884 1344 51       		.byte	0x51
 11885 1345 16000000 		.4byte	.LVL238
 11886 1349 1C000000 		.4byte	.LFE10
 11887 134d 0400     		.2byte	0x4
 11888 134f F3       		.byte	0xf3
ARM GAS  C:\Users\Phuong\AppData\Local\Temp\ccyLHZOj.s 			page 252


 11889 1350 01       		.uleb128 0x1
 11890 1351 51       		.byte	0x51
 11891 1352 9F       		.byte	0x9f
 11892 1353 00000000 		.4byte	0
 11893 1357 00000000 		.4byte	0
 11894              	.LLST53:
 11895 135b 00000000 		.4byte	.LVL232
 11896 135f 0A000000 		.4byte	.LVL233
 11897 1363 0100     		.2byte	0x1
 11898 1365 52       		.byte	0x52
 11899 1366 0A000000 		.4byte	.LVL233
 11900 136a 12000000 		.4byte	.LVL236
 11901 136e 0100     		.2byte	0x1
 11902 1370 54       		.byte	0x54
 11903 1371 12000000 		.4byte	.LVL236
 11904 1375 14000000 		.4byte	.LVL237
 11905 1379 0100     		.2byte	0x1
 11906 137b 52       		.byte	0x52
 11907 137c 14000000 		.4byte	.LVL237
 11908 1380 1A000000 		.4byte	.LVL240
 11909 1384 0100     		.2byte	0x1
 11910 1386 54       		.byte	0x54
 11911 1387 1A000000 		.4byte	.LVL240
 11912 138b 1C000000 		.4byte	.LFE10
 11913 138f 0400     		.2byte	0x4
 11914 1391 F3       		.byte	0xf3
 11915 1392 01       		.uleb128 0x1
 11916 1393 52       		.byte	0x52
 11917 1394 9F       		.byte	0x9f
 11918 1395 00000000 		.4byte	0
 11919 1399 00000000 		.4byte	0
 11920              	.LLST54:
 11921 139d 00000000 		.4byte	.LVL232
 11922 13a1 0F000000 		.4byte	.LVL235-1
 11923 13a5 0100     		.2byte	0x1
 11924 13a7 53       		.byte	0x53
 11925 13a8 0F000000 		.4byte	.LVL235-1
 11926 13ac 12000000 		.4byte	.LVL236
 11927 13b0 0400     		.2byte	0x4
 11928 13b2 F3       		.byte	0xf3
 11929 13b3 01       		.uleb128 0x1
 11930 13b4 53       		.byte	0x53
 11931 13b5 9F       		.byte	0x9f
 11932 13b6 12000000 		.4byte	.LVL236
 11933 13ba 19000000 		.4byte	.LVL239-1
 11934 13be 0100     		.2byte	0x1
 11935 13c0 53       		.byte	0x53
 11936 13c1 19000000 		.4byte	.LVL239-1
 11937 13c5 1C000000 		.4byte	.LFE10
 11938 13c9 0400     		.2byte	0x4
 11939 13cb F3       		.byte	0xf3
 11940 13cc 01       		.uleb128 0x1
 11941 13cd 53       		.byte	0x53
 11942 13ce 9F       		.byte	0x9f
 11943 13cf 00000000 		.4byte	0
 11944 13d3 00000000 		.4byte	0
 11945              	.LLST55:
ARM GAS  C:\Users\Phuong\AppData\Local\Temp\ccyLHZOj.s 			page 253


 11946 13d7 00000000 		.4byte	.LVL241
 11947 13db 1A000000 		.4byte	.LVL243
 11948 13df 0100     		.2byte	0x1
 11949 13e1 50       		.byte	0x50
 11950 13e2 1A000000 		.4byte	.LVL243
 11951 13e6 92000000 		.4byte	.LVL262
 11952 13ea 0200     		.2byte	0x2
 11953 13ec 7D       		.byte	0x7d
 11954 13ed 00       		.sleb128 0
 11955 13ee 92000000 		.4byte	.LVL262
 11956 13f2 94000000 		.4byte	.LVL263
 11957 13f6 0100     		.2byte	0x1
 11958 13f8 50       		.byte	0x50
 11959 13f9 94000000 		.4byte	.LVL263
 11960 13fd 98000000 		.4byte	.LVL265
 11961 1401 0200     		.2byte	0x2
 11962 1403 7D       		.byte	0x7d
 11963 1404 00       		.sleb128 0
 11964 1405 98000000 		.4byte	.LVL265
 11965 1409 9A000000 		.4byte	.LFE11
 11966 140d 0200     		.2byte	0x2
 11967 140f 91       		.byte	0x91
 11968 1410 50       		.sleb128 -48
 11969 1411 00000000 		.4byte	0
 11970 1415 00000000 		.4byte	0
 11971              	.LLST56:
 11972 1419 00000000 		.4byte	.LVL241
 11973 141d 1A000000 		.4byte	.LVL243
 11974 1421 0100     		.2byte	0x1
 11975 1423 51       		.byte	0x51
 11976 1424 1A000000 		.4byte	.LVL243
 11977 1428 92000000 		.4byte	.LVL262
 11978 142c 0200     		.2byte	0x2
 11979 142e 91       		.byte	0x91
 11980 142f 54       		.sleb128 -44
 11981 1430 92000000 		.4byte	.LVL262
 11982 1434 96000000 		.4byte	.LVL264
 11983 1438 0100     		.2byte	0x1
 11984 143a 51       		.byte	0x51
 11985 143b 96000000 		.4byte	.LVL264
 11986 143f 9A000000 		.4byte	.LFE11
 11987 1443 0200     		.2byte	0x2
 11988 1445 91       		.byte	0x91
 11989 1446 54       		.sleb128 -44
 11990 1447 00000000 		.4byte	0
 11991 144b 00000000 		.4byte	0
 11992              	.LLST57:
 11993 144f 00000000 		.4byte	.LVL241
 11994 1453 1A000000 		.4byte	.LVL243
 11995 1457 0100     		.2byte	0x1
 11996 1459 52       		.byte	0x52
 11997 145a 1A000000 		.4byte	.LVL243
 11998 145e 92000000 		.4byte	.LVL262
 11999 1462 0100     		.2byte	0x1
 12000 1464 55       		.byte	0x55
 12001 1465 92000000 		.4byte	.LVL262
 12002 1469 96000000 		.4byte	.LVL264
ARM GAS  C:\Users\Phuong\AppData\Local\Temp\ccyLHZOj.s 			page 254


 12003 146d 0100     		.2byte	0x1
 12004 146f 52       		.byte	0x52
 12005 1470 96000000 		.4byte	.LVL264
 12006 1474 98000000 		.4byte	.LVL266
 12007 1478 0100     		.2byte	0x1
 12008 147a 55       		.byte	0x55
 12009 147b 00000000 		.4byte	0
 12010 147f 00000000 		.4byte	0
 12011              	.LLST58:
 12012 1483 00000000 		.4byte	.LVL241
 12013 1487 14000000 		.4byte	.LVL242
 12014 148b 0100     		.2byte	0x1
 12015 148d 53       		.byte	0x53
 12016 148e 14000000 		.4byte	.LVL242
 12017 1492 98000000 		.4byte	.LVL267
 12018 1496 0100     		.2byte	0x1
 12019 1498 57       		.byte	0x57
 12020 1499 98000000 		.4byte	.LVL267
 12021 149d 9A000000 		.4byte	.LFE11
 12022 14a1 0400     		.2byte	0x4
 12023 14a3 F3       		.byte	0xf3
 12024 14a4 01       		.uleb128 0x1
 12025 14a5 53       		.byte	0x53
 12026 14a6 9F       		.byte	0x9f
 12027 14a7 00000000 		.4byte	0
 12028 14ab 00000000 		.4byte	0
 12029              	.LLST59:
 12030 14af 00000000 		.4byte	.LVL241
 12031 14b3 1A000000 		.4byte	.LVL243
 12032 14b7 0200     		.2byte	0x2
 12033 14b9 91       		.byte	0x91
 12034 14ba 00       		.sleb128 0
 12035 14bb 1A000000 		.4byte	.LVL243
 12036 14bf 34000000 		.4byte	.LVL246
 12037 14c3 0100     		.2byte	0x1
 12038 14c5 54       		.byte	0x54
 12039 14c6 50000000 		.4byte	.LVL249
 12040 14ca 92000000 		.4byte	.LVL262
 12041 14ce 0100     		.2byte	0x1
 12042 14d0 54       		.byte	0x54
 12043 14d1 92000000 		.4byte	.LVL262
 12044 14d5 96000000 		.4byte	.LVL264
 12045 14d9 0200     		.2byte	0x2
 12046 14db 91       		.byte	0x91
 12047 14dc 00       		.sleb128 0
 12048 14dd 00000000 		.4byte	0
 12049 14e1 00000000 		.4byte	0
 12050              	.LLST60:
 12051 14e5 00000000 		.4byte	.LVL241
 12052 14e9 1A000000 		.4byte	.LVL243
 12053 14ed 0200     		.2byte	0x2
 12054 14ef 91       		.byte	0x91
 12055 14f0 04       		.sleb128 4
 12056 14f1 1A000000 		.4byte	.LVL243
 12057 14f5 34000000 		.4byte	.LVL246
 12058 14f9 0100     		.2byte	0x1
 12059 14fb 56       		.byte	0x56
ARM GAS  C:\Users\Phuong\AppData\Local\Temp\ccyLHZOj.s 			page 255


 12060 14fc 52000000 		.4byte	.LVL250
 12061 1500 92000000 		.4byte	.LVL262
 12062 1504 0100     		.2byte	0x1
 12063 1506 56       		.byte	0x56
 12064 1507 92000000 		.4byte	.LVL262
 12065 150b 96000000 		.4byte	.LVL264
 12066 150f 0200     		.2byte	0x2
 12067 1511 91       		.byte	0x91
 12068 1512 04       		.sleb128 4
 12069 1513 00000000 		.4byte	0
 12070 1517 00000000 		.4byte	0
 12071              	.LLST61:
 12072 151b 30000000 		.4byte	.LVL245
 12073 151f 34000000 		.4byte	.LVL246
 12074 1523 0200     		.2byte	0x2
 12075 1525 30       		.byte	0x30
 12076 1526 9F       		.byte	0x9f
 12077 1527 34000000 		.4byte	.LVL246
 12078 152b 4D000000 		.4byte	.LVL248-1
 12079 152f 0100     		.2byte	0x1
 12080 1531 53       		.byte	0x53
 12081 1532 5C000000 		.4byte	.LVL252
 12082 1536 68000000 		.4byte	.LVL254
 12083 153a 0100     		.2byte	0x1
 12084 153c 53       		.byte	0x53
 12085 153d 6A000000 		.4byte	.LVL255
 12086 1541 70000000 		.4byte	.LVL256
 12087 1545 0100     		.2byte	0x1
 12088 1547 53       		.byte	0x53
 12089 1548 00000000 		.4byte	0
 12090 154c 00000000 		.4byte	0
 12091              	.LLST62:
 12092 1550 00000000 		.4byte	.LVL268
 12093 1554 1C000000 		.4byte	.LVL270
 12094 1558 0100     		.2byte	0x1
 12095 155a 50       		.byte	0x50
 12096 155b 1C000000 		.4byte	.LVL270
 12097 155f 8E000000 		.4byte	.LFE12
 12098 1563 0200     		.2byte	0x2
 12099 1565 91       		.byte	0x91
 12100 1566 5C       		.sleb128 -36
 12101 1567 00000000 		.4byte	0
 12102 156b 00000000 		.4byte	0
 12103              	.LLST63:
 12104 156f 00000000 		.4byte	.LVL268
 12105 1573 1C000000 		.4byte	.LVL270
 12106 1577 0100     		.2byte	0x1
 12107 1579 51       		.byte	0x51
 12108 157a 1C000000 		.4byte	.LVL270
 12109 157e 8E000000 		.4byte	.LFE12
 12110 1582 0400     		.2byte	0x4
 12111 1584 F3       		.byte	0xf3
 12112 1585 01       		.uleb128 0x1
 12113 1586 51       		.byte	0x51
 12114 1587 9F       		.byte	0x9f
 12115 1588 00000000 		.4byte	0
 12116 158c 00000000 		.4byte	0
ARM GAS  C:\Users\Phuong\AppData\Local\Temp\ccyLHZOj.s 			page 256


 12117              	.LLST64:
 12118 1590 00000000 		.4byte	.LVL268
 12119 1594 1C000000 		.4byte	.LVL270
 12120 1598 0100     		.2byte	0x1
 12121 159a 52       		.byte	0x52
 12122 159b 1C000000 		.4byte	.LVL270
 12123 159f 22000000 		.4byte	.LVL271
 12124 15a3 0100     		.2byte	0x1
 12125 15a5 53       		.byte	0x53
 12126 15a6 22000000 		.4byte	.LVL271
 12127 15aa 44000000 		.4byte	.LVL277
 12128 15ae 0100     		.2byte	0x1
 12129 15b0 59       		.byte	0x59
 12130 15b1 44000000 		.4byte	.LVL277
 12131 15b5 48000000 		.4byte	.LVL278
 12132 15b9 0100     		.2byte	0x1
 12133 15bb 52       		.byte	0x52
 12134 15bc 48000000 		.4byte	.LVL278
 12135 15c0 54000000 		.4byte	.LVL279
 12136 15c4 0100     		.2byte	0x1
 12137 15c6 53       		.byte	0x53
 12138 15c7 54000000 		.4byte	.LVL279
 12139 15cb 76000000 		.4byte	.LVL285
 12140 15cf 0100     		.2byte	0x1
 12141 15d1 59       		.byte	0x59
 12142 15d2 76000000 		.4byte	.LVL285
 12143 15d6 7A000000 		.4byte	.LVL286
 12144 15da 0100     		.2byte	0x1
 12145 15dc 52       		.byte	0x52
 12146 15dd 7A000000 		.4byte	.LVL286
 12147 15e1 80000000 		.4byte	.LVL287
 12148 15e5 0100     		.2byte	0x1
 12149 15e7 53       		.byte	0x53
 12150 15e8 80000000 		.4byte	.LVL287
 12151 15ec 86000000 		.4byte	.LVL292
 12152 15f0 0100     		.2byte	0x1
 12153 15f2 59       		.byte	0x59
 12154 15f3 00000000 		.4byte	0
 12155 15f7 00000000 		.4byte	0
 12156              	.LLST65:
 12157 15fb 00000000 		.4byte	.LVL268
 12158 15ff 1C000000 		.4byte	.LVL270
 12159 1603 0100     		.2byte	0x1
 12160 1605 53       		.byte	0x53
 12161 1606 1C000000 		.4byte	.LVL270
 12162 160a 86000000 		.4byte	.LVL291
 12163 160e 0100     		.2byte	0x1
 12164 1610 58       		.byte	0x58
 12165 1611 86000000 		.4byte	.LVL291
 12166 1615 8E000000 		.4byte	.LFE12
 12167 1619 0100     		.2byte	0x1
 12168 161b 53       		.byte	0x53
 12169 161c 00000000 		.4byte	0
 12170 1620 00000000 		.4byte	0
 12171              	.LLST66:
 12172 1624 00000000 		.4byte	.LVL268
 12173 1628 1C000000 		.4byte	.LVL270
ARM GAS  C:\Users\Phuong\AppData\Local\Temp\ccyLHZOj.s 			page 257


 12174 162c 0200     		.2byte	0x2
 12175 162e 91       		.byte	0x91
 12176 162f 04       		.sleb128 4
 12177 1630 1C000000 		.4byte	.LVL270
 12178 1634 2C000000 		.4byte	.LVL272
 12179 1638 0100     		.2byte	0x1
 12180 163a 55       		.byte	0x55
 12181 163b 2C000000 		.4byte	.LVL272
 12182 163f 44000000 		.4byte	.LVL277
 12183 1643 0300     		.2byte	0x3
 12184 1645 75       		.byte	0x75
 12185 1646 01       		.sleb128 1
 12186 1647 9F       		.byte	0x9f
 12187 1648 44000000 		.4byte	.LVL277
 12188 164c 62000000 		.4byte	.LVL281
 12189 1650 0100     		.2byte	0x1
 12190 1652 55       		.byte	0x55
 12191 1653 62000000 		.4byte	.LVL281
 12192 1657 76000000 		.4byte	.LVL285
 12193 165b 0300     		.2byte	0x3
 12194 165d 75       		.byte	0x75
 12195 165e 01       		.sleb128 1
 12196 165f 9F       		.byte	0x9f
 12197 1660 76000000 		.4byte	.LVL285
 12198 1664 86000000 		.4byte	.LVL289
 12199 1668 0100     		.2byte	0x1
 12200 166a 55       		.byte	0x55
 12201 166b 00000000 		.4byte	0
 12202 166f 00000000 		.4byte	0
 12203              	.LLST67:
 12204 1673 00000000 		.4byte	.LVL268
 12205 1677 1C000000 		.4byte	.LVL270
 12206 167b 0200     		.2byte	0x2
 12207 167d 91       		.byte	0x91
 12208 167e 08       		.sleb128 8
 12209 167f 1C000000 		.4byte	.LVL270
 12210 1683 2E000000 		.4byte	.LVL273
 12211 1687 0100     		.2byte	0x1
 12212 1689 57       		.byte	0x57
 12213 168a 2E000000 		.4byte	.LVL273
 12214 168e 42000000 		.4byte	.LVL276
 12215 1692 0300     		.2byte	0x3
 12216 1694 77       		.byte	0x77
 12217 1695 01       		.sleb128 1
 12218 1696 9F       		.byte	0x9f
 12219 1697 42000000 		.4byte	.LVL276
 12220 169b 5E000000 		.4byte	.LVL280
 12221 169f 0100     		.2byte	0x1
 12222 16a1 57       		.byte	0x57
 12223 16a2 5E000000 		.4byte	.LVL280
 12224 16a6 74000000 		.4byte	.LVL284
 12225 16aa 0300     		.2byte	0x3
 12226 16ac 77       		.byte	0x77
 12227 16ad 01       		.sleb128 1
 12228 16ae 9F       		.byte	0x9f
 12229 16af 74000000 		.4byte	.LVL284
 12230 16b3 86000000 		.4byte	.LVL290
ARM GAS  C:\Users\Phuong\AppData\Local\Temp\ccyLHZOj.s 			page 258


 12231 16b7 0100     		.2byte	0x1
 12232 16b9 57       		.byte	0x57
 12233 16ba 00000000 		.4byte	0
 12234 16be 00000000 		.4byte	0
 12235              	.LLST68:
 12236 16c2 2E000000 		.4byte	.LVL273
 12237 16c6 44000000 		.4byte	.LVL277
 12238 16ca 0600     		.2byte	0x6
 12239 16cc 71       		.byte	0x71
 12240 16cd 00       		.sleb128 0
 12241 16ce 08       		.byte	0x8
 12242 16cf FF       		.byte	0xff
 12243 16d0 1A       		.byte	0x1a
 12244 16d1 9F       		.byte	0x9f
 12245 16d2 00000000 		.4byte	0
 12246 16d6 00000000 		.4byte	0
 12247              	.LLST69:
 12248 16da 16000000 		.4byte	.LVL269
 12249 16de 3A000000 		.4byte	.LVL274
 12250 16e2 0100     		.2byte	0x1
 12251 16e4 54       		.byte	0x54
 12252 16e5 3A000000 		.4byte	.LVL274
 12253 16e9 3E000000 		.4byte	.LVL275
 12254 16ed 0300     		.2byte	0x3
 12255 16ef 74       		.byte	0x74
 12256 16f0 7F       		.sleb128 -1
 12257 16f1 9F       		.byte	0x9f
 12258 16f2 3E000000 		.4byte	.LVL275
 12259 16f6 6C000000 		.4byte	.LVL282
 12260 16fa 0100     		.2byte	0x1
 12261 16fc 54       		.byte	0x54
 12262 16fd 6C000000 		.4byte	.LVL282
 12263 1701 70000000 		.4byte	.LVL283
 12264 1705 0300     		.2byte	0x3
 12265 1707 74       		.byte	0x74
 12266 1708 7F       		.sleb128 -1
 12267 1709 9F       		.byte	0x9f
 12268 170a 70000000 		.4byte	.LVL283
 12269 170e 86000000 		.4byte	.LVL288
 12270 1712 0100     		.2byte	0x1
 12271 1714 54       		.byte	0x54
 12272 1715 86000000 		.4byte	.LVL288
 12273 1719 8E000000 		.4byte	.LFE12
 12274 171d 0200     		.2byte	0x2
 12275 171f 73       		.byte	0x73
 12276 1720 00       		.sleb128 0
 12277 1721 00000000 		.4byte	0
 12278 1725 00000000 		.4byte	0
 12279              	.LLST70:
 12280 1729 00000000 		.4byte	.LVL293
 12281 172d 18000000 		.4byte	.LVL294
 12282 1731 0100     		.2byte	0x1
 12283 1733 50       		.byte	0x50
 12284 1734 18000000 		.4byte	.LVL294
 12285 1738 78000000 		.4byte	.LFE13
 12286 173c 0200     		.2byte	0x2
 12287 173e 91       		.byte	0x91
ARM GAS  C:\Users\Phuong\AppData\Local\Temp\ccyLHZOj.s 			page 259


 12288 173f 44       		.sleb128 -60
 12289 1740 00000000 		.4byte	0
 12290 1744 00000000 		.4byte	0
 12291              	.LLST71:
 12292 1748 00000000 		.4byte	.LVL293
 12293 174c 18000000 		.4byte	.LVL294
 12294 1750 0100     		.2byte	0x1
 12295 1752 51       		.byte	0x51
 12296 1753 18000000 		.4byte	.LVL294
 12297 1757 6E000000 		.4byte	.LVL309
 12298 175b 0100     		.2byte	0x1
 12299 175d 57       		.byte	0x57
 12300 175e 6E000000 		.4byte	.LVL309
 12301 1762 78000000 		.4byte	.LFE13
 12302 1766 0400     		.2byte	0x4
 12303 1768 F3       		.byte	0xf3
 12304 1769 01       		.uleb128 0x1
 12305 176a 51       		.byte	0x51
 12306 176b 9F       		.byte	0x9f
 12307 176c 00000000 		.4byte	0
 12308 1770 00000000 		.4byte	0
 12309              	.LLST72:
 12310 1774 00000000 		.4byte	.LVL293
 12311 1778 18000000 		.4byte	.LVL294
 12312 177c 0100     		.2byte	0x1
 12313 177e 52       		.byte	0x52
 12314 177f 18000000 		.4byte	.LVL294
 12315 1783 21000000 		.4byte	.LVL295-1
 12316 1787 0100     		.2byte	0x1
 12317 1789 53       		.byte	0x53
 12318 178a 21000000 		.4byte	.LVL295-1
 12319 178e 62000000 		.4byte	.LVL304
 12320 1792 0100     		.2byte	0x1
 12321 1794 58       		.byte	0x58
 12322 1795 62000000 		.4byte	.LVL304
 12323 1799 66000000 		.4byte	.LVL305
 12324 179d 0100     		.2byte	0x1
 12325 179f 52       		.byte	0x52
 12326 17a0 66000000 		.4byte	.LVL305
 12327 17a4 78000000 		.4byte	.LFE13
 12328 17a8 0100     		.2byte	0x1
 12329 17aa 53       		.byte	0x53
 12330 17ab 00000000 		.4byte	0
 12331 17af 00000000 		.4byte	0
 12332              	.LLST73:
 12333 17b3 00000000 		.4byte	.LVL293
 12334 17b7 18000000 		.4byte	.LVL294
 12335 17bb 0100     		.2byte	0x1
 12336 17bd 53       		.byte	0x53
 12337 17be 18000000 		.4byte	.LVL294
 12338 17c2 6E000000 		.4byte	.LVL306
 12339 17c6 0100     		.2byte	0x1
 12340 17c8 54       		.byte	0x54
 12341 17c9 6E000000 		.4byte	.LVL306
 12342 17cd 78000000 		.4byte	.LFE13
 12343 17d1 0400     		.2byte	0x4
 12344 17d3 F3       		.byte	0xf3
ARM GAS  C:\Users\Phuong\AppData\Local\Temp\ccyLHZOj.s 			page 260


 12345 17d4 01       		.uleb128 0x1
 12346 17d5 53       		.byte	0x53
 12347 17d6 9F       		.byte	0x9f
 12348 17d7 00000000 		.4byte	0
 12349 17db 00000000 		.4byte	0
 12350              	.LLST74:
 12351 17df 00000000 		.4byte	.LVL293
 12352 17e3 18000000 		.4byte	.LVL294
 12353 17e7 0200     		.2byte	0x2
 12354 17e9 91       		.byte	0x91
 12355 17ea 00       		.sleb128 0
 12356 17eb 18000000 		.4byte	.LVL294
 12357 17ef 42000000 		.4byte	.LVL299
 12358 17f3 0100     		.2byte	0x1
 12359 17f5 56       		.byte	0x56
 12360 17f6 42000000 		.4byte	.LVL299
 12361 17fa 44000000 		.4byte	.LVL300
 12362 17fe 0100     		.2byte	0x1
 12363 1800 53       		.byte	0x53
 12364 1801 44000000 		.4byte	.LVL300
 12365 1805 62000000 		.4byte	.LVL304
 12366 1809 0100     		.2byte	0x1
 12367 180b 59       		.byte	0x59
 12368 180c 62000000 		.4byte	.LVL304
 12369 1810 6E000000 		.4byte	.LVL308
 12370 1814 0100     		.2byte	0x1
 12371 1816 56       		.byte	0x56
 12372 1817 00000000 		.4byte	0
 12373 181b 00000000 		.4byte	0
 12374              	.LLST75:
 12375 181f 00000000 		.4byte	.LVL293
 12376 1823 18000000 		.4byte	.LVL294
 12377 1827 0200     		.2byte	0x2
 12378 1829 91       		.byte	0x91
 12379 182a 04       		.sleb128 4
 12380 182b 18000000 		.4byte	.LVL294
 12381 182f 3C000000 		.4byte	.LVL297
 12382 1833 0100     		.2byte	0x1
 12383 1835 55       		.byte	0x55
 12384 1836 3C000000 		.4byte	.LVL297
 12385 183a 40000000 		.4byte	.LVL298
 12386 183e 0100     		.2byte	0x1
 12387 1840 53       		.byte	0x53
 12388 1841 40000000 		.4byte	.LVL298
 12389 1845 62000000 		.4byte	.LVL304
 12390 1849 0100     		.2byte	0x1
 12391 184b 5A       		.byte	0x5a
 12392 184c 62000000 		.4byte	.LVL304
 12393 1850 6E000000 		.4byte	.LVL307
 12394 1854 0100     		.2byte	0x1
 12395 1856 55       		.byte	0x55
 12396 1857 00000000 		.4byte	0
 12397 185b 00000000 		.4byte	0
 12398              	.LLST76:
 12399 185f 48000000 		.4byte	.LVL301
 12400 1863 54000000 		.4byte	.LVL302
 12401 1867 0100     		.2byte	0x1
ARM GAS  C:\Users\Phuong\AppData\Local\Temp\ccyLHZOj.s 			page 261


 12402 1869 53       		.byte	0x53
 12403 186a 00000000 		.4byte	0
 12404 186e 00000000 		.4byte	0
 12405              	.LLST77:
 12406 1872 00000000 		.4byte	.LVL310
 12407 1876 18000000 		.4byte	.LVL313
 12408 187a 0100     		.2byte	0x1
 12409 187c 50       		.byte	0x50
 12410 187d 18000000 		.4byte	.LVL313
 12411 1881 58000000 		.4byte	.LFE14
 12412 1885 0200     		.2byte	0x2
 12413 1887 91       		.byte	0x91
 12414 1888 5C       		.sleb128 -36
 12415 1889 00000000 		.4byte	0
 12416 188d 00000000 		.4byte	0
 12417              	.LLST78:
 12418 1891 00000000 		.4byte	.LVL310
 12419 1895 1A000000 		.4byte	.LVL314
 12420 1899 0100     		.2byte	0x1
 12421 189b 51       		.byte	0x51
 12422 189c 1A000000 		.4byte	.LVL314
 12423 18a0 20000000 		.4byte	.LVL315
 12424 18a4 0100     		.2byte	0x1
 12425 18a6 53       		.byte	0x53
 12426 18a7 20000000 		.4byte	.LVL315
 12427 18ab 42000000 		.4byte	.LVL322
 12428 18af 0100     		.2byte	0x1
 12429 18b1 58       		.byte	0x58
 12430 18b2 42000000 		.4byte	.LVL322
 12431 18b6 46000000 		.4byte	.LVL323
 12432 18ba 0100     		.2byte	0x1
 12433 18bc 51       		.byte	0x51
 12434 18bd 46000000 		.4byte	.LVL323
 12435 18c1 4C000000 		.4byte	.LVL324
 12436 18c5 0100     		.2byte	0x1
 12437 18c7 53       		.byte	0x53
 12438 18c8 4C000000 		.4byte	.LVL324
 12439 18cc 50000000 		.4byte	.LVL329
 12440 18d0 0100     		.2byte	0x1
 12441 18d2 58       		.byte	0x58
 12442 18d3 00000000 		.4byte	0
 12443 18d7 00000000 		.4byte	0
 12444              	.LLST79:
 12445 18db 00000000 		.4byte	.LVL310
 12446 18df 1A000000 		.4byte	.LVL314
 12447 18e3 0100     		.2byte	0x1
 12448 18e5 52       		.byte	0x52
 12449 18e6 1A000000 		.4byte	.LVL314
 12450 18ea 50000000 		.4byte	.LVL330
 12451 18ee 0100     		.2byte	0x1
 12452 18f0 59       		.byte	0x59
 12453 18f1 50000000 		.4byte	.LVL330
 12454 18f5 58000000 		.4byte	.LFE14
 12455 18f9 0400     		.2byte	0x4
 12456 18fb F3       		.byte	0xf3
 12457 18fc 01       		.uleb128 0x1
 12458 18fd 52       		.byte	0x52
ARM GAS  C:\Users\Phuong\AppData\Local\Temp\ccyLHZOj.s 			page 262


 12459 18fe 9F       		.byte	0x9f
 12460 18ff 00000000 		.4byte	0
 12461 1903 00000000 		.4byte	0
 12462              	.LLST80:
 12463 1907 00000000 		.4byte	.LVL310
 12464 190b 1A000000 		.4byte	.LVL314
 12465 190f 0100     		.2byte	0x1
 12466 1911 53       		.byte	0x53
 12467 1912 1A000000 		.4byte	.LVL314
 12468 1916 50000000 		.4byte	.LVL327
 12469 191a 0100     		.2byte	0x1
 12470 191c 56       		.byte	0x56
 12471 191d 50000000 		.4byte	.LVL327
 12472 1921 58000000 		.4byte	.LFE14
 12473 1925 0400     		.2byte	0x4
 12474 1927 F3       		.byte	0xf3
 12475 1928 01       		.uleb128 0x1
 12476 1929 53       		.byte	0x53
 12477 192a 9F       		.byte	0x9f
 12478 192b 00000000 		.4byte	0
 12479 192f 00000000 		.4byte	0
 12480              	.LLST81:
 12481 1933 00000000 		.4byte	.LVL310
 12482 1937 1A000000 		.4byte	.LVL314
 12483 193b 0200     		.2byte	0x2
 12484 193d 91       		.byte	0x91
 12485 193e 00       		.sleb128 0
 12486 193f 1A000000 		.4byte	.LVL314
 12487 1943 2E000000 		.4byte	.LVL318
 12488 1947 0100     		.2byte	0x1
 12489 1949 57       		.byte	0x57
 12490 194a 2E000000 		.4byte	.LVL318
 12491 194e 42000000 		.4byte	.LVL322
 12492 1952 0300     		.2byte	0x3
 12493 1954 77       		.byte	0x77
 12494 1955 01       		.sleb128 1
 12495 1956 9F       		.byte	0x9f
 12496 1957 42000000 		.4byte	.LVL322
 12497 195b 50000000 		.4byte	.LVL328
 12498 195f 0100     		.2byte	0x1
 12499 1961 57       		.byte	0x57
 12500 1962 00000000 		.4byte	0
 12501 1966 00000000 		.4byte	0
 12502              	.LLST82:
 12503 196a 00000000 		.4byte	.LVL310
 12504 196e 1A000000 		.4byte	.LVL314
 12505 1972 0200     		.2byte	0x2
 12506 1974 91       		.byte	0x91
 12507 1975 04       		.sleb128 4
 12508 1976 1A000000 		.4byte	.LVL314
 12509 197a 2E000000 		.4byte	.LVL318
 12510 197e 0100     		.2byte	0x1
 12511 1980 55       		.byte	0x55
 12512 1981 2E000000 		.4byte	.LVL318
 12513 1985 40000000 		.4byte	.LVL321
 12514 1989 0300     		.2byte	0x3
 12515 198b 75       		.byte	0x75
ARM GAS  C:\Users\Phuong\AppData\Local\Temp\ccyLHZOj.s 			page 263


 12516 198c 01       		.sleb128 1
 12517 198d 9F       		.byte	0x9f
 12518 198e 40000000 		.4byte	.LVL321
 12519 1992 50000000 		.4byte	.LVL326
 12520 1996 0100     		.2byte	0x1
 12521 1998 55       		.byte	0x55
 12522 1999 00000000 		.4byte	0
 12523 199d 00000000 		.4byte	0
 12524              	.LLST83:
 12525 19a1 14000000 		.4byte	.LVL311
 12526 19a5 1A000000 		.4byte	.LVL314
 12527 19a9 0200     		.2byte	0x2
 12528 19ab 30       		.byte	0x30
 12529 19ac 9F       		.byte	0x9f
 12530 19ad 1A000000 		.4byte	.LVL314
 12531 19b1 26000000 		.4byte	.LVL316
 12532 19b5 0100     		.2byte	0x1
 12533 19b7 50       		.byte	0x50
 12534 19b8 2A000000 		.4byte	.LVL317
 12535 19bc 58000000 		.4byte	.LFE14
 12536 19c0 0100     		.2byte	0x1
 12537 19c2 50       		.byte	0x50
 12538 19c3 00000000 		.4byte	0
 12539 19c7 00000000 		.4byte	0
 12540              	.LLST84:
 12541 19cb 16000000 		.4byte	.LVL312
 12542 19cf 38000000 		.4byte	.LVL319
 12543 19d3 0100     		.2byte	0x1
 12544 19d5 54       		.byte	0x54
 12545 19d6 38000000 		.4byte	.LVL319
 12546 19da 3C000000 		.4byte	.LVL320
 12547 19de 0300     		.2byte	0x3
 12548 19e0 74       		.byte	0x74
 12549 19e1 7F       		.sleb128 -1
 12550 19e2 9F       		.byte	0x9f
 12551 19e3 3C000000 		.4byte	.LVL320
 12552 19e7 50000000 		.4byte	.LVL325
 12553 19eb 0100     		.2byte	0x1
 12554 19ed 54       		.byte	0x54
 12555 19ee 00000000 		.4byte	0
 12556 19f2 00000000 		.4byte	0
 12557              	.LLST85:
 12558 19f6 00000000 		.4byte	.LVL331
 12559 19fa 22000000 		.4byte	.LVL334
 12560 19fe 0100     		.2byte	0x1
 12561 1a00 50       		.byte	0x50
 12562 1a01 22000000 		.4byte	.LVL334
 12563 1a05 72000000 		.4byte	.LVL347
 12564 1a09 0200     		.2byte	0x2
 12565 1a0b 91       		.byte	0x91
 12566 1a0c 5C       		.sleb128 -36
 12567 1a0d 72000000 		.4byte	.LVL347
 12568 1a11 74000000 		.4byte	.LVL348
 12569 1a15 0100     		.2byte	0x1
 12570 1a17 50       		.byte	0x50
 12571 1a18 74000000 		.4byte	.LVL348
 12572 1a1c 82000000 		.4byte	.LFE15
ARM GAS  C:\Users\Phuong\AppData\Local\Temp\ccyLHZOj.s 			page 264


 12573 1a20 0200     		.2byte	0x2
 12574 1a22 91       		.byte	0x91
 12575 1a23 5C       		.sleb128 -36
 12576 1a24 00000000 		.4byte	0
 12577 1a28 00000000 		.4byte	0
 12578              	.LLST86:
 12579 1a2c 00000000 		.4byte	.LVL331
 12580 1a30 22000000 		.4byte	.LVL334
 12581 1a34 0100     		.2byte	0x1
 12582 1a36 51       		.byte	0x51
 12583 1a37 22000000 		.4byte	.LVL334
 12584 1a3b 28000000 		.4byte	.LVL335
 12585 1a3f 0100     		.2byte	0x1
 12586 1a41 53       		.byte	0x53
 12587 1a42 28000000 		.4byte	.LVL335
 12588 1a46 62000000 		.4byte	.LVL344
 12589 1a4a 0100     		.2byte	0x1
 12590 1a4c 59       		.byte	0x59
 12591 1a4d 62000000 		.4byte	.LVL344
 12592 1a51 66000000 		.4byte	.LVL345
 12593 1a55 0100     		.2byte	0x1
 12594 1a57 51       		.byte	0x51
 12595 1a58 66000000 		.4byte	.LVL345
 12596 1a5c 6C000000 		.4byte	.LVL346
 12597 1a60 0100     		.2byte	0x1
 12598 1a62 53       		.byte	0x53
 12599 1a63 6C000000 		.4byte	.LVL346
 12600 1a67 72000000 		.4byte	.LVL347
 12601 1a6b 0100     		.2byte	0x1
 12602 1a6d 59       		.byte	0x59
 12603 1a6e 72000000 		.4byte	.LVL347
 12604 1a72 76000000 		.4byte	.LVL349
 12605 1a76 0100     		.2byte	0x1
 12606 1a78 51       		.byte	0x51
 12607 1a79 00000000 		.4byte	0
 12608 1a7d 00000000 		.4byte	0
 12609              	.LLST87:
 12610 1a81 00000000 		.4byte	.LVL331
 12611 1a85 22000000 		.4byte	.LVL334
 12612 1a89 0100     		.2byte	0x1
 12613 1a8b 52       		.byte	0x52
 12614 1a8c 22000000 		.4byte	.LVL334
 12615 1a90 72000000 		.4byte	.LVL347
 12616 1a94 0100     		.2byte	0x1
 12617 1a96 58       		.byte	0x58
 12618 1a97 72000000 		.4byte	.LVL347
 12619 1a9b 76000000 		.4byte	.LVL349
 12620 1a9f 0100     		.2byte	0x1
 12621 1aa1 52       		.byte	0x52
 12622 1aa2 76000000 		.4byte	.LVL349
 12623 1aa6 78000000 		.4byte	.LVL352
 12624 1aaa 0100     		.2byte	0x1
 12625 1aac 58       		.byte	0x58
 12626 1aad 78000000 		.4byte	.LVL352
 12627 1ab1 82000000 		.4byte	.LFE15
 12628 1ab5 0400     		.2byte	0x4
 12629 1ab7 F3       		.byte	0xf3
ARM GAS  C:\Users\Phuong\AppData\Local\Temp\ccyLHZOj.s 			page 265


 12630 1ab8 01       		.uleb128 0x1
 12631 1ab9 52       		.byte	0x52
 12632 1aba 9F       		.byte	0x9f
 12633 1abb 00000000 		.4byte	0
 12634 1abf 00000000 		.4byte	0
 12635              	.LLST88:
 12636 1ac3 00000000 		.4byte	.LVL331
 12637 1ac7 14000000 		.4byte	.LVL332
 12638 1acb 0100     		.2byte	0x1
 12639 1acd 53       		.byte	0x53
 12640 1ace 14000000 		.4byte	.LVL332
 12641 1ad2 78000000 		.4byte	.LVL351
 12642 1ad6 0100     		.2byte	0x1
 12643 1ad8 57       		.byte	0x57
 12644 1ad9 78000000 		.4byte	.LVL351
 12645 1add 82000000 		.4byte	.LFE15
 12646 1ae1 0400     		.2byte	0x4
 12647 1ae3 F3       		.byte	0xf3
 12648 1ae4 01       		.uleb128 0x1
 12649 1ae5 53       		.byte	0x53
 12650 1ae6 9F       		.byte	0x9f
 12651 1ae7 00000000 		.4byte	0
 12652 1aeb 00000000 		.4byte	0
 12653              	.LLST89:
 12654 1aef 00000000 		.4byte	.LVL331
 12655 1af3 22000000 		.4byte	.LVL334
 12656 1af7 0200     		.2byte	0x2
 12657 1af9 91       		.byte	0x91
 12658 1afa 04       		.sleb128 4
 12659 1afb 22000000 		.4byte	.LVL334
 12660 1aff 36000000 		.4byte	.LVL337
 12661 1b03 0100     		.2byte	0x1
 12662 1b05 56       		.byte	0x56
 12663 1b06 4C000000 		.4byte	.LVL339
 12664 1b0a 62000000 		.4byte	.LVL344
 12665 1b0e 0300     		.2byte	0x3
 12666 1b10 76       		.byte	0x76
 12667 1b11 01       		.sleb128 1
 12668 1b12 9F       		.byte	0x9f
 12669 1b13 62000000 		.4byte	.LVL344
 12670 1b17 72000000 		.4byte	.LVL347
 12671 1b1b 0100     		.2byte	0x1
 12672 1b1d 56       		.byte	0x56
 12673 1b1e 72000000 		.4byte	.LVL347
 12674 1b22 76000000 		.4byte	.LVL349
 12675 1b26 0200     		.2byte	0x2
 12676 1b28 91       		.byte	0x91
 12677 1b29 04       		.sleb128 4
 12678 1b2a 00000000 		.4byte	0
 12679 1b2e 00000000 		.4byte	0
 12680              	.LLST90:
 12681 1b32 00000000 		.4byte	.LVL331
 12682 1b36 22000000 		.4byte	.LVL334
 12683 1b3a 0200     		.2byte	0x2
 12684 1b3c 91       		.byte	0x91
 12685 1b3d 08       		.sleb128 8
 12686 1b3e 22000000 		.4byte	.LVL334
ARM GAS  C:\Users\Phuong\AppData\Local\Temp\ccyLHZOj.s 			page 266


 12687 1b42 36000000 		.4byte	.LVL337
 12688 1b46 0100     		.2byte	0x1
 12689 1b48 55       		.byte	0x55
 12690 1b49 4E000000 		.4byte	.LVL340
 12691 1b4d 60000000 		.4byte	.LVL343
 12692 1b51 0300     		.2byte	0x3
 12693 1b53 75       		.byte	0x75
 12694 1b54 01       		.sleb128 1
 12695 1b55 9F       		.byte	0x9f
 12696 1b56 60000000 		.4byte	.LVL343
 12697 1b5a 72000000 		.4byte	.LVL347
 12698 1b5e 0100     		.2byte	0x1
 12699 1b60 55       		.byte	0x55
 12700 1b61 72000000 		.4byte	.LVL347
 12701 1b65 76000000 		.4byte	.LVL349
 12702 1b69 0200     		.2byte	0x2
 12703 1b6b 91       		.byte	0x91
 12704 1b6c 08       		.sleb128 8
 12705 1b6d 00000000 		.4byte	0
 12706 1b71 00000000 		.4byte	0
 12707              	.LLST91:
 12708 1b75 4E000000 		.4byte	.LVL340
 12709 1b79 62000000 		.4byte	.LVL344
 12710 1b7d 0600     		.2byte	0x6
 12711 1b7f 72       		.byte	0x72
 12712 1b80 00       		.sleb128 0
 12713 1b81 08       		.byte	0x8
 12714 1b82 FF       		.byte	0xff
 12715 1b83 1A       		.byte	0x1a
 12716 1b84 9F       		.byte	0x9f
 12717 1b85 00000000 		.4byte	0
 12718 1b89 00000000 		.4byte	0
 12719              	.LLST92:
 12720 1b8d 32000000 		.4byte	.LVL336
 12721 1b91 36000000 		.4byte	.LVL337
 12722 1b95 0200     		.2byte	0x2
 12723 1b97 40       		.byte	0x40
 12724 1b98 9F       		.byte	0x9f
 12725 1b99 36000000 		.4byte	.LVL337
 12726 1b9d 4C000000 		.4byte	.LVL339
 12727 1ba1 0100     		.2byte	0x1
 12728 1ba3 51       		.byte	0x51
 12729 1ba4 00000000 		.4byte	0
 12730 1ba8 00000000 		.4byte	0
 12731              	.LLST93:
 12732 1bac 1C000000 		.4byte	.LVL333
 12733 1bb0 58000000 		.4byte	.LVL341
 12734 1bb4 0100     		.2byte	0x1
 12735 1bb6 54       		.byte	0x54
 12736 1bb7 58000000 		.4byte	.LVL341
 12737 1bbb 5C000000 		.4byte	.LVL342
 12738 1bbf 0300     		.2byte	0x3
 12739 1bc1 74       		.byte	0x74
 12740 1bc2 7F       		.sleb128 -1
 12741 1bc3 9F       		.byte	0x9f
 12742 1bc4 5C000000 		.4byte	.LVL342
 12743 1bc8 78000000 		.4byte	.LVL350
ARM GAS  C:\Users\Phuong\AppData\Local\Temp\ccyLHZOj.s 			page 267


 12744 1bcc 0100     		.2byte	0x1
 12745 1bce 54       		.byte	0x54
 12746 1bcf 00000000 		.4byte	0
 12747 1bd3 00000000 		.4byte	0
 12748              	.LLST94:
 12749 1bd7 00000000 		.4byte	.LVL353
 12750 1bdb 16000000 		.4byte	.LVL355
 12751 1bdf 0100     		.2byte	0x1
 12752 1be1 50       		.byte	0x50
 12753 1be2 16000000 		.4byte	.LVL355
 12754 1be6 3A000000 		.4byte	.LVL363
 12755 1bea 0100     		.2byte	0x1
 12756 1bec 5B       		.byte	0x5b
 12757 1bed 3A000000 		.4byte	.LVL363
 12758 1bf1 4B000000 		.4byte	.LVL364-1
 12759 1bf5 0100     		.2byte	0x1
 12760 1bf7 53       		.byte	0x53
 12761 1bf8 4B000000 		.4byte	.LVL364-1
 12762 1bfc D2000000 		.4byte	.LVL385
 12763 1c00 0100     		.2byte	0x1
 12764 1c02 5B       		.byte	0x5b
 12765 1c03 D2000000 		.4byte	.LVL385
 12766 1c07 D7000000 		.4byte	.LVL386-1
 12767 1c0b 0100     		.2byte	0x1
 12768 1c0d 53       		.byte	0x53
 12769 1c0e D7000000 		.4byte	.LVL386-1
 12770 1c12 EA000000 		.4byte	.LVL388
 12771 1c16 0100     		.2byte	0x1
 12772 1c18 5B       		.byte	0x5b
 12773 1c19 EA000000 		.4byte	.LVL388
 12774 1c1d EF000000 		.4byte	.LVL389-1
 12775 1c21 0100     		.2byte	0x1
 12776 1c23 53       		.byte	0x53
 12777 1c24 EF000000 		.4byte	.LVL389-1
 12778 1c28 0A010000 		.4byte	.LVL395
 12779 1c2c 0100     		.2byte	0x1
 12780 1c2e 5B       		.byte	0x5b
 12781 1c2f 0A010000 		.4byte	.LVL395
 12782 1c33 1B010000 		.4byte	.LVL396-1
 12783 1c37 0100     		.2byte	0x1
 12784 1c39 53       		.byte	0x53
 12785 1c3a 1B010000 		.4byte	.LVL396-1
 12786 1c3e EA010000 		.4byte	.LVL421
 12787 1c42 0100     		.2byte	0x1
 12788 1c44 5B       		.byte	0x5b
 12789 1c45 EA010000 		.4byte	.LVL421
 12790 1c49 EF010000 		.4byte	.LVL422-1
 12791 1c4d 0100     		.2byte	0x1
 12792 1c4f 53       		.byte	0x53
 12793 1c50 EF010000 		.4byte	.LVL422-1
 12794 1c54 04020000 		.4byte	.LVL424
 12795 1c58 0100     		.2byte	0x1
 12796 1c5a 5B       		.byte	0x5b
 12797 1c5b 04020000 		.4byte	.LVL424
 12798 1c5f 09020000 		.4byte	.LVL425-1
 12799 1c63 0100     		.2byte	0x1
 12800 1c65 53       		.byte	0x53
ARM GAS  C:\Users\Phuong\AppData\Local\Temp\ccyLHZOj.s 			page 268


 12801 1c66 09020000 		.4byte	.LVL425-1
 12802 1c6a 26020000 		.4byte	.LVL432
 12803 1c6e 0100     		.2byte	0x1
 12804 1c70 5B       		.byte	0x5b
 12805 1c71 26020000 		.4byte	.LVL432
 12806 1c75 37020000 		.4byte	.LVL433-1
 12807 1c79 0100     		.2byte	0x1
 12808 1c7b 53       		.byte	0x53
 12809 1c7c 37020000 		.4byte	.LVL433-1
 12810 1c80 DE020000 		.4byte	.LVL453
 12811 1c84 0100     		.2byte	0x1
 12812 1c86 5B       		.byte	0x5b
 12813 1c87 DE020000 		.4byte	.LVL453
 12814 1c8b E3020000 		.4byte	.LVL454-1
 12815 1c8f 0100     		.2byte	0x1
 12816 1c91 53       		.byte	0x53
 12817 1c92 E3020000 		.4byte	.LVL454-1
 12818 1c96 F6020000 		.4byte	.LVL456
 12819 1c9a 0100     		.2byte	0x1
 12820 1c9c 5B       		.byte	0x5b
 12821 1c9d F6020000 		.4byte	.LVL456
 12822 1ca1 FB020000 		.4byte	.LVL457-1
 12823 1ca5 0100     		.2byte	0x1
 12824 1ca7 53       		.byte	0x53
 12825 1ca8 FB020000 		.4byte	.LVL457-1
 12826 1cac 14030000 		.4byte	.LVL464
 12827 1cb0 0100     		.2byte	0x1
 12828 1cb2 5B       		.byte	0x5b
 12829 1cb3 14030000 		.4byte	.LVL464
 12830 1cb7 16030000 		.4byte	.LVL465
 12831 1cbb 0100     		.2byte	0x1
 12832 1cbd 53       		.byte	0x53
 12833 1cbe 16030000 		.4byte	.LVL465
 12834 1cc2 0C040000 		.4byte	.LVL487
 12835 1cc6 0100     		.2byte	0x1
 12836 1cc8 5B       		.byte	0x5b
 12837 1cc9 0C040000 		.4byte	.LVL487
 12838 1ccd 11040000 		.4byte	.LVL488-1
 12839 1cd1 0100     		.2byte	0x1
 12840 1cd3 53       		.byte	0x53
 12841 1cd4 11040000 		.4byte	.LVL488-1
 12842 1cd8 20040000 		.4byte	.LVL490
 12843 1cdc 0100     		.2byte	0x1
 12844 1cde 5B       		.byte	0x5b
 12845 1cdf 20040000 		.4byte	.LVL490
 12846 1ce3 25040000 		.4byte	.LVL491-1
 12847 1ce7 0100     		.2byte	0x1
 12848 1ce9 53       		.byte	0x53
 12849 1cea 25040000 		.4byte	.LVL491-1
 12850 1cee 3E040000 		.4byte	.LVL496
 12851 1cf2 0100     		.2byte	0x1
 12852 1cf4 5B       		.byte	0x5b
 12853 1cf5 3E040000 		.4byte	.LVL496
 12854 1cf9 4D040000 		.4byte	.LVL497-1
 12855 1cfd 0100     		.2byte	0x1
 12856 1cff 53       		.byte	0x53
 12857 1d00 4D040000 		.4byte	.LVL497-1
ARM GAS  C:\Users\Phuong\AppData\Local\Temp\ccyLHZOj.s 			page 269


 12858 1d04 F6040000 		.4byte	.LVL518
 12859 1d08 0100     		.2byte	0x1
 12860 1d0a 5B       		.byte	0x5b
 12861 1d0b F6040000 		.4byte	.LVL518
 12862 1d0f FB040000 		.4byte	.LVL519-1
 12863 1d13 0100     		.2byte	0x1
 12864 1d15 53       		.byte	0x53
 12865 1d16 FB040000 		.4byte	.LVL519-1
 12866 1d1a 0E050000 		.4byte	.LVL521
 12867 1d1e 0100     		.2byte	0x1
 12868 1d20 5B       		.byte	0x5b
 12869 1d21 0E050000 		.4byte	.LVL521
 12870 1d25 13050000 		.4byte	.LVL522-1
 12871 1d29 0100     		.2byte	0x1
 12872 1d2b 53       		.byte	0x53
 12873 1d2c 13050000 		.4byte	.LVL522-1
 12874 1d30 2C050000 		.4byte	.LVL533
 12875 1d34 0100     		.2byte	0x1
 12876 1d36 5B       		.byte	0x5b
 12877 1d37 2C050000 		.4byte	.LVL533
 12878 1d3b 2E050000 		.4byte	.LVL534
 12879 1d3f 0100     		.2byte	0x1
 12880 1d41 53       		.byte	0x53
 12881 1d42 2E050000 		.4byte	.LVL534
 12882 1d46 38050000 		.4byte	.LVL535
 12883 1d4a 0100     		.2byte	0x1
 12884 1d4c 5B       		.byte	0x5b
 12885 1d4d 38050000 		.4byte	.LVL535
 12886 1d51 3D050000 		.4byte	.LVL536-1
 12887 1d55 0100     		.2byte	0x1
 12888 1d57 53       		.byte	0x53
 12889 1d58 3D050000 		.4byte	.LVL536-1
 12890 1d5c 48050000 		.4byte	.LVL539
 12891 1d60 0100     		.2byte	0x1
 12892 1d62 5B       		.byte	0x5b
 12893 1d63 48050000 		.4byte	.LVL539
 12894 1d67 7C050000 		.4byte	.LFE16
 12895 1d6b 0400     		.2byte	0x4
 12896 1d6d F3       		.byte	0xf3
 12897 1d6e 01       		.uleb128 0x1
 12898 1d6f 50       		.byte	0x50
 12899 1d70 9F       		.byte	0x9f
 12900 1d71 00000000 		.4byte	0
 12901 1d75 00000000 		.4byte	0
 12902              	.LLST95:
 12903 1d79 10000000 		.4byte	.LVL354
 12904 1d7d 26000000 		.4byte	.LVL358
 12905 1d81 0200     		.2byte	0x2
 12906 1d83 30       		.byte	0x30
 12907 1d84 9F       		.byte	0x9f
 12908 1d85 66000000 		.4byte	.LVL367
 12909 1d89 70000000 		.4byte	.LVL370
 12910 1d8d 0100     		.2byte	0x1
 12911 1d8f 50       		.byte	0x50
 12912 1d90 7C000000 		.4byte	.LVL372
 12913 1d94 92000000 		.4byte	.LVL375
 12914 1d98 0100     		.2byte	0x1
ARM GAS  C:\Users\Phuong\AppData\Local\Temp\ccyLHZOj.s 			page 270


 12915 1d9a 50       		.byte	0x50
 12916 1d9b 92000000 		.4byte	.LVL375
 12917 1d9f 98000000 		.4byte	.LVL377
 12918 1da3 0100     		.2byte	0x1
 12919 1da5 55       		.byte	0x55
 12920 1da6 98000000 		.4byte	.LVL377
 12921 1daa AA000000 		.4byte	.LVL379
 12922 1dae 0100     		.2byte	0x1
 12923 1db0 50       		.byte	0x50
 12924 1db1 AA000000 		.4byte	.LVL379
 12925 1db5 B0000000 		.4byte	.LVL381
 12926 1db9 0100     		.2byte	0x1
 12927 1dbb 55       		.byte	0x55
 12928 1dbc B0000000 		.4byte	.LVL381
 12929 1dc0 C2000000 		.4byte	.LVL383
 12930 1dc4 0100     		.2byte	0x1
 12931 1dc6 50       		.byte	0x50
 12932 1dc7 C2000000 		.4byte	.LVL383
 12933 1dcb DE000000 		.4byte	.LVL387
 12934 1dcf 0100     		.2byte	0x1
 12935 1dd1 55       		.byte	0x55
 12936 1dd2 4A010000 		.4byte	.LVL401
 12937 1dd6 56010000 		.4byte	.LVL404
 12938 1dda 0100     		.2byte	0x1
 12939 1ddc 50       		.byte	0x50
 12940 1ddd 62010000 		.4byte	.LVL406
 12941 1de1 78010000 		.4byte	.LVL409
 12942 1de5 0100     		.2byte	0x1
 12943 1de7 50       		.byte	0x50
 12944 1de8 78010000 		.4byte	.LVL409
 12945 1dec 7E010000 		.4byte	.LVL411
 12946 1df0 0100     		.2byte	0x1
 12947 1df2 55       		.byte	0x55
 12948 1df3 7E010000 		.4byte	.LVL411
 12949 1df7 98010000 		.4byte	.LVL414
 12950 1dfb 0100     		.2byte	0x1
 12951 1dfd 50       		.byte	0x50
 12952 1dfe C8010000 		.4byte	.LVL417
 12953 1e02 DA010000 		.4byte	.LVL419
 12954 1e06 0100     		.2byte	0x1
 12955 1e08 50       		.byte	0x50
 12956 1e09 DA010000 		.4byte	.LVL419
 12957 1e0d F6010000 		.4byte	.LVL423
 12958 1e11 0100     		.2byte	0x1
 12959 1e13 55       		.byte	0x55
 12960 1e14 68020000 		.4byte	.LVL436
 12961 1e18 76020000 		.4byte	.LVL438
 12962 1e1c 0100     		.2byte	0x1
 12963 1e1e 50       		.byte	0x50
 12964 1e1f 76020000 		.4byte	.LVL438
 12965 1e23 7C020000 		.4byte	.LVL440
 12966 1e27 0100     		.2byte	0x1
 12967 1e29 55       		.byte	0x55
 12968 1e2a 7C020000 		.4byte	.LVL440
 12969 1e2e 92020000 		.4byte	.LVL442
 12970 1e32 0100     		.2byte	0x1
 12971 1e34 50       		.byte	0x50
ARM GAS  C:\Users\Phuong\AppData\Local\Temp\ccyLHZOj.s 			page 271


 12972 1e35 92020000 		.4byte	.LVL442
 12973 1e39 9A020000 		.4byte	.LVL444
 12974 1e3d 0100     		.2byte	0x1
 12975 1e3f 55       		.byte	0x55
 12976 1e40 9A020000 		.4byte	.LVL444
 12977 1e44 A0020000 		.4byte	.LVL445
 12978 1e48 0100     		.2byte	0x1
 12979 1e4a 50       		.byte	0x50
 12980 1e4b A0020000 		.4byte	.LVL445
 12981 1e4f C4020000 		.4byte	.LVL450
 12982 1e53 0100     		.2byte	0x1
 12983 1e55 55       		.byte	0x55
 12984 1e56 C4020000 		.4byte	.LVL450
 12985 1e5a CE020000 		.4byte	.LVL451
 12986 1e5e 0100     		.2byte	0x1
 12987 1e60 50       		.byte	0x50
 12988 1e61 CE020000 		.4byte	.LVL451
 12989 1e65 EA020000 		.4byte	.LVL455
 12990 1e69 0100     		.2byte	0x1
 12991 1e6b 55       		.byte	0x55
 12992 1e6c 56030000 		.4byte	.LVL469
 12993 1e70 64030000 		.4byte	.LVL471
 12994 1e74 0100     		.2byte	0x1
 12995 1e76 50       		.byte	0x50
 12996 1e77 64030000 		.4byte	.LVL471
 12997 1e7b A8030000 		.4byte	.LVL473
 12998 1e7f 0100     		.2byte	0x1
 12999 1e81 55       		.byte	0x55
 13000 1e82 A8030000 		.4byte	.LVL473
 13001 1e86 C0030000 		.4byte	.LVL476
 13002 1e8a 0100     		.2byte	0x1
 13003 1e8c 50       		.byte	0x50
 13004 1e8d C0030000 		.4byte	.LVL476
 13005 1e91 CA030000 		.4byte	.LVL478
 13006 1e95 0100     		.2byte	0x1
 13007 1e97 55       		.byte	0x55
 13008 1e98 CA030000 		.4byte	.LVL478
 13009 1e9c D2030000 		.4byte	.LVL479
 13010 1ea0 0100     		.2byte	0x1
 13011 1ea2 50       		.byte	0x50
 13012 1ea3 D2030000 		.4byte	.LVL479
 13013 1ea7 F2030000 		.4byte	.LVL484
 13014 1eab 0100     		.2byte	0x1
 13015 1ead 55       		.byte	0x55
 13016 1eae F2030000 		.4byte	.LVL484
 13017 1eb2 FC030000 		.4byte	.LVL485
 13018 1eb6 0100     		.2byte	0x1
 13019 1eb8 50       		.byte	0x50
 13020 1eb9 FC030000 		.4byte	.LVL485
 13021 1ebd 14040000 		.4byte	.LVL489
 13022 1ec1 0100     		.2byte	0x1
 13023 1ec3 55       		.byte	0x55
 13024 1ec4 7C040000 		.4byte	.LVL500
 13025 1ec8 9A040000 		.4byte	.LVL504
 13026 1ecc 0100     		.2byte	0x1
 13027 1ece 50       		.byte	0x50
 13028 1ecf AA040000 		.4byte	.LVL508
ARM GAS  C:\Users\Phuong\AppData\Local\Temp\ccyLHZOj.s 			page 272


 13029 1ed3 BA040000 		.4byte	.LVL510
 13030 1ed7 0100     		.2byte	0x1
 13031 1ed9 50       		.byte	0x50
 13032 1eda E0040000 		.4byte	.LVL515
 13033 1ede E8040000 		.4byte	.LVL516
 13034 1ee2 0100     		.2byte	0x1
 13035 1ee4 50       		.byte	0x50
 13036 1ee5 E8040000 		.4byte	.LVL516
 13037 1ee9 02050000 		.4byte	.LVL520
 13038 1eed 0100     		.2byte	0x1
 13039 1eef 55       		.byte	0x55
 13040 1ef0 18050000 		.4byte	.LVL523
 13041 1ef4 1A050000 		.4byte	.LVL524
 13042 1ef8 0100     		.2byte	0x1
 13043 1efa 55       		.byte	0x55
 13044 1efb 1C050000 		.4byte	.LVL525
 13045 1eff 1E050000 		.4byte	.LVL526
 13046 1f03 0100     		.2byte	0x1
 13047 1f05 55       		.byte	0x55
 13048 1f06 20050000 		.4byte	.LVL527
 13049 1f0a 22050000 		.4byte	.LVL528
 13050 1f0e 0100     		.2byte	0x1
 13051 1f10 55       		.byte	0x55
 13052 1f11 24050000 		.4byte	.LVL529
 13053 1f15 26050000 		.4byte	.LVL530
 13054 1f19 0100     		.2byte	0x1
 13055 1f1b 55       		.byte	0x55
 13056 1f1c 28050000 		.4byte	.LVL531
 13057 1f20 2A050000 		.4byte	.LVL532
 13058 1f24 0100     		.2byte	0x1
 13059 1f26 55       		.byte	0x55
 13060 1f27 2E050000 		.4byte	.LVL534
 13061 1f2b 48050000 		.4byte	.LVL538
 13062 1f2f 0100     		.2byte	0x1
 13063 1f31 55       		.byte	0x55
 13064 1f32 48050000 		.4byte	.LVL538
 13065 1f36 7C050000 		.4byte	.LFE16
 13066 1f3a 0100     		.2byte	0x1
 13067 1f3c 50       		.byte	0x50
 13068 1f3d 00000000 		.4byte	0
 13069 1f41 00000000 		.4byte	0
 13070              	.LLST96:
 13071 1f45 20000000 		.4byte	.LVL357
 13072 1f49 26000000 		.4byte	.LVL358
 13073 1f4d 0200     		.2byte	0x2
 13074 1f4f 30       		.byte	0x30
 13075 1f50 9F       		.byte	0x9f
 13076 1f51 26000000 		.4byte	.LVL358
 13077 1f55 28000000 		.4byte	.LVL359
 13078 1f59 0100     		.2byte	0x1
 13079 1f5b 53       		.byte	0x53
 13080 1f5c 28000000 		.4byte	.LVL359
 13081 1f60 F6000000 		.4byte	.LVL390
 13082 1f64 0100     		.2byte	0x1
 13083 1f66 59       		.byte	0x59
 13084 1f67 F6000000 		.4byte	.LVL390
 13085 1f6b F8000000 		.4byte	.LVL391
ARM GAS  C:\Users\Phuong\AppData\Local\Temp\ccyLHZOj.s 			page 273


 13086 1f6f 0100     		.2byte	0x1
 13087 1f71 53       		.byte	0x53
 13088 1f72 F8000000 		.4byte	.LVL391
 13089 1f76 10020000 		.4byte	.LVL426
 13090 1f7a 0100     		.2byte	0x1
 13091 1f7c 5A       		.byte	0x5a
 13092 1f7d 10020000 		.4byte	.LVL426
 13093 1f81 12020000 		.4byte	.LVL427
 13094 1f85 0100     		.2byte	0x1
 13095 1f87 53       		.byte	0x53
 13096 1f88 12020000 		.4byte	.LVL427
 13097 1f8c 00030000 		.4byte	.LVL458
 13098 1f90 0100     		.2byte	0x1
 13099 1f92 58       		.byte	0x58
 13100 1f93 00030000 		.4byte	.LVL458
 13101 1f97 2C040000 		.4byte	.LVL492
 13102 1f9b 0100     		.2byte	0x1
 13103 1f9d 56       		.byte	0x56
 13104 1f9e 2C040000 		.4byte	.LVL492
 13105 1fa2 2E040000 		.4byte	.LVL493
 13106 1fa6 0100     		.2byte	0x1
 13107 1fa8 53       		.byte	0x53
 13108 1fa9 2E040000 		.4byte	.LVL493
 13109 1fad 18050000 		.4byte	.LVL523
 13110 1fb1 0100     		.2byte	0x1
 13111 1fb3 58       		.byte	0x58
 13112 1fb4 18050000 		.4byte	.LVL523
 13113 1fb8 1C050000 		.4byte	.LVL525
 13114 1fbc 0100     		.2byte	0x1
 13115 1fbe 59       		.byte	0x59
 13116 1fbf 1C050000 		.4byte	.LVL525
 13117 1fc3 20050000 		.4byte	.LVL527
 13118 1fc7 0100     		.2byte	0x1
 13119 1fc9 5A       		.byte	0x5a
 13120 1fca 20050000 		.4byte	.LVL527
 13121 1fce 24050000 		.4byte	.LVL529
 13122 1fd2 0100     		.2byte	0x1
 13123 1fd4 58       		.byte	0x58
 13124 1fd5 24050000 		.4byte	.LVL529
 13125 1fd9 28050000 		.4byte	.LVL531
 13126 1fdd 0100     		.2byte	0x1
 13127 1fdf 56       		.byte	0x56
 13128 1fe0 28050000 		.4byte	.LVL531
 13129 1fe4 2E050000 		.4byte	.LVL534
 13130 1fe8 0100     		.2byte	0x1
 13131 1fea 58       		.byte	0x58
 13132 1feb 00000000 		.4byte	0
 13133 1fef 00000000 		.4byte	0
 13134              	.LLST97:
 13135 1ff3 A2000000 		.4byte	.LVL378
 13136 1ff7 D8000000 		.4byte	.LVL386
 13137 1ffb 0100     		.2byte	0x1
 13138 1ffd 54       		.byte	0x54
 13139 1ffe 88010000 		.4byte	.LVL413
 13140 2002 F0010000 		.4byte	.LVL422
 13141 2006 0100     		.2byte	0x1
 13142 2008 56       		.byte	0x56
ARM GAS  C:\Users\Phuong\AppData\Local\Temp\ccyLHZOj.s 			page 274


 13143 2009 18050000 		.4byte	.LVL523
 13144 200d 1C050000 		.4byte	.LVL525
 13145 2011 0100     		.2byte	0x1
 13146 2013 54       		.byte	0x54
 13147 2014 1C050000 		.4byte	.LVL525
 13148 2018 20050000 		.4byte	.LVL527
 13149 201c 0100     		.2byte	0x1
 13150 201e 56       		.byte	0x56
 13151 201f 00000000 		.4byte	0
 13152 2023 00000000 		.4byte	0
 13153              	.LLST98:
 13154 2027 2A000000 		.4byte	.LVL360
 13155 202b 68000000 		.4byte	.LVL368
 13156 202f 0100     		.2byte	0x1
 13157 2031 54       		.byte	0x54
 13158 2032 68000000 		.4byte	.LVL368
 13159 2036 70000000 		.4byte	.LVL370
 13160 203a 0500     		.2byte	0x5
 13161 203c 79       		.byte	0x79
 13162 203d 00       		.sleb128 0
 13163 203e 31       		.byte	0x31
 13164 203f 26       		.byte	0x26
 13165 2040 9F       		.byte	0x9f
 13166 2041 70000000 		.4byte	.LVL370
 13167 2045 7E000000 		.4byte	.LVL373
 13168 2049 0100     		.2byte	0x1
 13169 204b 54       		.byte	0x54
 13170 204c 7E000000 		.4byte	.LVL373
 13171 2050 DE000000 		.4byte	.LVL387
 13172 2054 0500     		.2byte	0x5
 13173 2056 79       		.byte	0x79
 13174 2057 00       		.sleb128 0
 13175 2058 31       		.byte	0x31
 13176 2059 26       		.byte	0x26
 13177 205a 9F       		.byte	0x9f
 13178 205b FA000000 		.4byte	.LVL392
 13179 205f 4C010000 		.4byte	.LVL402
 13180 2063 0100     		.2byte	0x1
 13181 2065 54       		.byte	0x54
 13182 2066 4C010000 		.4byte	.LVL402
 13183 206a 56010000 		.4byte	.LVL404
 13184 206e 0500     		.2byte	0x5
 13185 2070 7A       		.byte	0x7a
 13186 2071 00       		.sleb128 0
 13187 2072 31       		.byte	0x31
 13188 2073 26       		.byte	0x26
 13189 2074 9F       		.byte	0x9f
 13190 2075 56010000 		.4byte	.LVL404
 13191 2079 64010000 		.4byte	.LVL407
 13192 207d 0100     		.2byte	0x1
 13193 207f 54       		.byte	0x54
 13194 2080 64010000 		.4byte	.LVL407
 13195 2084 F6010000 		.4byte	.LVL423
 13196 2088 0500     		.2byte	0x5
 13197 208a 7A       		.byte	0x7a
 13198 208b 00       		.sleb128 0
 13199 208c 31       		.byte	0x31
ARM GAS  C:\Users\Phuong\AppData\Local\Temp\ccyLHZOj.s 			page 275


 13200 208d 26       		.byte	0x26
 13201 208e 9F       		.byte	0x9f
 13202 208f 14020000 		.4byte	.LVL428
 13203 2093 88020000 		.4byte	.LVL441
 13204 2097 0100     		.2byte	0x1
 13205 2099 54       		.byte	0x54
 13206 209a 88020000 		.4byte	.LVL441
 13207 209e 9A020000 		.4byte	.LVL444
 13208 20a2 0500     		.2byte	0x5
 13209 20a4 78       		.byte	0x78
 13210 20a5 00       		.sleb128 0
 13211 20a6 31       		.byte	0x31
 13212 20a7 26       		.byte	0x26
 13213 20a8 9F       		.byte	0x9f
 13214 20a9 9A020000 		.4byte	.LVL444
 13215 20ad A6020000 		.4byte	.LVL447
 13216 20b1 0100     		.2byte	0x1
 13217 20b3 54       		.byte	0x54
 13218 20b4 A6020000 		.4byte	.LVL447
 13219 20b8 EA020000 		.4byte	.LVL455
 13220 20bc 0500     		.2byte	0x5
 13221 20be 78       		.byte	0x78
 13222 20bf 00       		.sleb128 0
 13223 20c0 31       		.byte	0x31
 13224 20c1 26       		.byte	0x26
 13225 20c2 9F       		.byte	0x9f
 13226 20c3 02030000 		.4byte	.LVL459
 13227 20c7 B6030000 		.4byte	.LVL475
 13228 20cb 0100     		.2byte	0x1
 13229 20cd 54       		.byte	0x54
 13230 20ce B6030000 		.4byte	.LVL475
 13231 20d2 CA030000 		.4byte	.LVL478
 13232 20d6 0500     		.2byte	0x5
 13233 20d8 76       		.byte	0x76
 13234 20d9 00       		.sleb128 0
 13235 20da 31       		.byte	0x31
 13236 20db 26       		.byte	0x26
 13237 20dc 9F       		.byte	0x9f
 13238 20dd CA030000 		.4byte	.LVL478
 13239 20e1 D8030000 		.4byte	.LVL481
 13240 20e5 0100     		.2byte	0x1
 13241 20e7 54       		.byte	0x54
 13242 20e8 D8030000 		.4byte	.LVL481
 13243 20ec 14040000 		.4byte	.LVL489
 13244 20f0 0500     		.2byte	0x5
 13245 20f2 76       		.byte	0x76
 13246 20f3 00       		.sleb128 0
 13247 20f4 31       		.byte	0x31
 13248 20f5 26       		.byte	0x26
 13249 20f6 9F       		.byte	0x9f
 13250 20f7 30040000 		.4byte	.LVL494
 13251 20fb A2040000 		.4byte	.LVL506
 13252 20ff 0100     		.2byte	0x1
 13253 2101 54       		.byte	0x54
 13254 2102 A2040000 		.4byte	.LVL506
 13255 2106 AA040000 		.4byte	.LVL508
 13256 210a 0500     		.2byte	0x5
ARM GAS  C:\Users\Phuong\AppData\Local\Temp\ccyLHZOj.s 			page 276


 13257 210c 78       		.byte	0x78
 13258 210d 00       		.sleb128 0
 13259 210e 31       		.byte	0x31
 13260 210f 26       		.byte	0x26
 13261 2110 9F       		.byte	0x9f
 13262 2111 AA040000 		.4byte	.LVL508
 13263 2115 C2040000 		.4byte	.LVL512
 13264 2119 0100     		.2byte	0x1
 13265 211b 54       		.byte	0x54
 13266 211c C2040000 		.4byte	.LVL512
 13267 2120 02050000 		.4byte	.LVL520
 13268 2124 0500     		.2byte	0x5
 13269 2126 78       		.byte	0x78
 13270 2127 00       		.sleb128 0
 13271 2128 31       		.byte	0x31
 13272 2129 26       		.byte	0x26
 13273 212a 9F       		.byte	0x9f
 13274 212b 18050000 		.4byte	.LVL523
 13275 212f 1C050000 		.4byte	.LVL525
 13276 2133 0500     		.2byte	0x5
 13277 2135 79       		.byte	0x79
 13278 2136 00       		.sleb128 0
 13279 2137 31       		.byte	0x31
 13280 2138 26       		.byte	0x26
 13281 2139 9F       		.byte	0x9f
 13282 213a 1C050000 		.4byte	.LVL525
 13283 213e 20050000 		.4byte	.LVL527
 13284 2142 0500     		.2byte	0x5
 13285 2144 7A       		.byte	0x7a
 13286 2145 00       		.sleb128 0
 13287 2146 31       		.byte	0x31
 13288 2147 26       		.byte	0x26
 13289 2148 9F       		.byte	0x9f
 13290 2149 20050000 		.4byte	.LVL527
 13291 214d 24050000 		.4byte	.LVL529
 13292 2151 0500     		.2byte	0x5
 13293 2153 78       		.byte	0x78
 13294 2154 00       		.sleb128 0
 13295 2155 31       		.byte	0x31
 13296 2156 26       		.byte	0x26
 13297 2157 9F       		.byte	0x9f
 13298 2158 24050000 		.4byte	.LVL529
 13299 215c 28050000 		.4byte	.LVL531
 13300 2160 0500     		.2byte	0x5
 13301 2162 76       		.byte	0x76
 13302 2163 00       		.sleb128 0
 13303 2164 31       		.byte	0x31
 13304 2165 26       		.byte	0x26
 13305 2166 9F       		.byte	0x9f
 13306 2167 28050000 		.4byte	.LVL531
 13307 216b 2C050000 		.4byte	.LVL533
 13308 216f 0500     		.2byte	0x5
 13309 2171 78       		.byte	0x78
 13310 2172 00       		.sleb128 0
 13311 2173 31       		.byte	0x31
 13312 2174 26       		.byte	0x26
 13313 2175 9F       		.byte	0x9f
ARM GAS  C:\Users\Phuong\AppData\Local\Temp\ccyLHZOj.s 			page 277


 13314 2176 00000000 		.4byte	0
 13315 217a 00000000 		.4byte	0
 13316              	.LLST99:
 13317 217e 34000000 		.4byte	.LVL362
 13318 2182 DE000000 		.4byte	.LVL387
 13319 2186 0100     		.2byte	0x1
 13320 2188 56       		.byte	0x56
 13321 2189 04010000 		.4byte	.LVL394
 13322 218d F6010000 		.4byte	.LVL423
 13323 2191 0100     		.2byte	0x1
 13324 2193 57       		.byte	0x57
 13325 2194 20020000 		.4byte	.LVL431
 13326 2198 EA020000 		.4byte	.LVL455
 13327 219c 0100     		.2byte	0x1
 13328 219e 56       		.byte	0x56
 13329 219f 0E030000 		.4byte	.LVL462
 13330 21a3 10030000 		.4byte	.LVL463
 13331 21a7 0100     		.2byte	0x1
 13332 21a9 53       		.byte	0x53
 13333 21aa 10030000 		.4byte	.LVL463
 13334 21ae B4030000 		.4byte	.LVL474
 13335 21b2 0100     		.2byte	0x1
 13336 21b4 59       		.byte	0x59
 13337 21b5 B4030000 		.4byte	.LVL474
 13338 21b9 C3030000 		.4byte	.LVL477-1
 13339 21bd 0100     		.2byte	0x1
 13340 21bf 53       		.byte	0x53
 13341 21c0 C3030000 		.4byte	.LVL477-1
 13342 21c4 CA030000 		.4byte	.LVL478
 13343 21c8 0100     		.2byte	0x1
 13344 21ca 59       		.byte	0x59
 13345 21cb CA030000 		.4byte	.LVL478
 13346 21cf D5030000 		.4byte	.LVL480-1
 13347 21d3 0100     		.2byte	0x1
 13348 21d5 53       		.byte	0x53
 13349 21d6 D5030000 		.4byte	.LVL480-1
 13350 21da 14040000 		.4byte	.LVL489
 13351 21de 0100     		.2byte	0x1
 13352 21e0 59       		.byte	0x59
 13353 21e1 38040000 		.4byte	.LVL495
 13354 21e5 4D040000 		.4byte	.LVL497-1
 13355 21e9 0100     		.2byte	0x1
 13356 21eb 52       		.byte	0x52
 13357 21ec 4D040000 		.4byte	.LVL497-1
 13358 21f0 8A040000 		.4byte	.LVL502
 13359 21f4 0100     		.2byte	0x1
 13360 21f6 59       		.byte	0x59
 13361 21f7 8A040000 		.4byte	.LVL502
 13362 21fb 90040000 		.4byte	.LVL503
 13363 21ff 0100     		.2byte	0x1
 13364 2201 53       		.byte	0x53
 13365 2202 90040000 		.4byte	.LVL503
 13366 2206 AA040000 		.4byte	.LVL508
 13367 220a 0100     		.2byte	0x1
 13368 220c 59       		.byte	0x59
 13369 220d AA040000 		.4byte	.LVL508
 13370 2211 B0040000 		.4byte	.LVL509
ARM GAS  C:\Users\Phuong\AppData\Local\Temp\ccyLHZOj.s 			page 278


 13371 2215 0100     		.2byte	0x1
 13372 2217 53       		.byte	0x53
 13373 2218 B0040000 		.4byte	.LVL509
 13374 221c 02050000 		.4byte	.LVL520
 13375 2220 0100     		.2byte	0x1
 13376 2222 59       		.byte	0x59
 13377 2223 18050000 		.4byte	.LVL523
 13378 2227 1C050000 		.4byte	.LVL525
 13379 222b 0100     		.2byte	0x1
 13380 222d 56       		.byte	0x56
 13381 222e 1C050000 		.4byte	.LVL525
 13382 2232 20050000 		.4byte	.LVL527
 13383 2236 0100     		.2byte	0x1
 13384 2238 57       		.byte	0x57
 13385 2239 20050000 		.4byte	.LVL527
 13386 223d 24050000 		.4byte	.LVL529
 13387 2241 0100     		.2byte	0x1
 13388 2243 56       		.byte	0x56
 13389 2244 24050000 		.4byte	.LVL529
 13390 2248 2C050000 		.4byte	.LVL533
 13391 224c 0100     		.2byte	0x1
 13392 224e 59       		.byte	0x59
 13393 224f 00000000 		.4byte	0
 13394 2253 00000000 		.4byte	0
 13395              	.LLST100:
 13396 2257 2E000000 		.4byte	.LVL361
 13397 225b DE000000 		.4byte	.LVL387
 13398 225f 0100     		.2byte	0x1
 13399 2261 57       		.byte	0x57
 13400 2262 FE000000 		.4byte	.LVL393
 13401 2266 86010000 		.4byte	.LVL412
 13402 226a 0100     		.2byte	0x1
 13403 226c 56       		.byte	0x56
 13404 226d 86010000 		.4byte	.LVL412
 13405 2271 F6010000 		.4byte	.LVL423
 13406 2275 0900     		.2byte	0x9
 13407 2277 7A       		.byte	0x7a
 13408 2278 00       		.sleb128 0
 13409 2279 31       		.byte	0x31
 13410 227a 26       		.byte	0x26
 13411 227b 23       		.byte	0x23
 13412 227c 02       		.uleb128 0x2
 13413 227d 36       		.byte	0x36
 13414 227e 24       		.byte	0x24
 13415 227f 9F       		.byte	0x9f
 13416 2280 1A020000 		.4byte	.LVL429
 13417 2284 1E020000 		.4byte	.LVL430
 13418 2288 0100     		.2byte	0x1
 13419 228a 53       		.byte	0x53
 13420 228b 1E020000 		.4byte	.LVL430
 13421 228f 74020000 		.4byte	.LVL437
 13422 2293 0100     		.2byte	0x1
 13423 2295 59       		.byte	0x59
 13424 2296 74020000 		.4byte	.LVL437
 13425 229a 79020000 		.4byte	.LVL439-1
 13426 229e 0100     		.2byte	0x1
 13427 22a0 53       		.byte	0x53
ARM GAS  C:\Users\Phuong\AppData\Local\Temp\ccyLHZOj.s 			page 279


 13428 22a1 79020000 		.4byte	.LVL439-1
 13429 22a5 EA020000 		.4byte	.LVL455
 13430 22a9 0100     		.2byte	0x1
 13431 22ab 59       		.byte	0x59
 13432 22ac 08030000 		.4byte	.LVL460
 13433 22b0 0A030000 		.4byte	.LVL461
 13434 22b4 0100     		.2byte	0x1
 13435 22b6 53       		.byte	0x53
 13436 22b7 0A030000 		.4byte	.LVL461
 13437 22bb 62030000 		.4byte	.LVL470
 13438 22bf 0100     		.2byte	0x1
 13439 22c1 58       		.byte	0x58
 13440 22c2 62030000 		.4byte	.LVL470
 13441 22c6 67030000 		.4byte	.LVL472-1
 13442 22ca 0100     		.2byte	0x1
 13443 22cc 53       		.byte	0x53
 13444 22cd 67030000 		.4byte	.LVL472-1
 13445 22d1 14040000 		.4byte	.LVL489
 13446 22d5 0100     		.2byte	0x1
 13447 22d7 58       		.byte	0x58
 13448 22d8 18050000 		.4byte	.LVL523
 13449 22dc 1C050000 		.4byte	.LVL525
 13450 22e0 0100     		.2byte	0x1
 13451 22e2 57       		.byte	0x57
 13452 22e3 1C050000 		.4byte	.LVL525
 13453 22e7 20050000 		.4byte	.LVL527
 13454 22eb 0900     		.2byte	0x9
 13455 22ed 7A       		.byte	0x7a
 13456 22ee 00       		.sleb128 0
 13457 22ef 31       		.byte	0x31
 13458 22f0 26       		.byte	0x26
 13459 22f1 23       		.byte	0x23
 13460 22f2 02       		.uleb128 0x2
 13461 22f3 36       		.byte	0x36
 13462 22f4 24       		.byte	0x24
 13463 22f5 9F       		.byte	0x9f
 13464 22f6 20050000 		.4byte	.LVL527
 13465 22fa 24050000 		.4byte	.LVL529
 13466 22fe 0100     		.2byte	0x1
 13467 2300 59       		.byte	0x59
 13468 2301 24050000 		.4byte	.LVL529
 13469 2305 28050000 		.4byte	.LVL531
 13470 2309 0100     		.2byte	0x1
 13471 230b 58       		.byte	0x58
 13472 230c 00000000 		.4byte	0
 13473 2310 00000000 		.4byte	0
 13474              	.LLST101:
 13475 2314 6E000000 		.4byte	.LVL369
 13476 2318 70000000 		.4byte	.LVL370
 13477 231c 0100     		.2byte	0x1
 13478 231e 58       		.byte	0x58
 13479 231f 86000000 		.4byte	.LVL374
 13480 2323 DE000000 		.4byte	.LVL387
 13481 2327 0100     		.2byte	0x1
 13482 2329 58       		.byte	0x58
 13483 232a 54010000 		.4byte	.LVL403
 13484 232e 56010000 		.4byte	.LVL404
ARM GAS  C:\Users\Phuong\AppData\Local\Temp\ccyLHZOj.s 			page 280


 13485 2332 0100     		.2byte	0x1
 13486 2334 59       		.byte	0x59
 13487 2335 6C010000 		.4byte	.LVL408
 13488 2339 F6010000 		.4byte	.LVL423
 13489 233d 0100     		.2byte	0x1
 13490 233f 59       		.byte	0x59
 13491 2340 96020000 		.4byte	.LVL443
 13492 2344 9A020000 		.4byte	.LVL444
 13493 2348 0600     		.2byte	0x6
 13494 234a 03       		.byte	0x3
 13495 234b 00000000 		.4byte	aes_test_cfb128_pt
 13496 234f 9F       		.byte	0x9f
 13497 2350 AC020000 		.4byte	.LVL448
 13498 2354 E4020000 		.4byte	.LVL454
 13499 2358 0100     		.2byte	0x1
 13500 235a 54       		.byte	0x54
 13501 235b C4030000 		.4byte	.LVL477
 13502 235f CA030000 		.4byte	.LVL478
 13503 2363 0600     		.2byte	0x6
 13504 2365 03       		.byte	0x3
 13505 2366 40000000 		.4byte	aes_test_ofb_pt
 13506 236a 9F       		.byte	0x9f
 13507 236b DE030000 		.4byte	.LVL482
 13508 236f 12040000 		.4byte	.LVL488
 13509 2373 0100     		.2byte	0x1
 13510 2375 54       		.byte	0x54
 13511 2376 A8040000 		.4byte	.LVL507
 13512 237a AA040000 		.4byte	.LVL508
 13513 237e 0100     		.2byte	0x1
 13514 2380 54       		.byte	0x54
 13515 2381 C8040000 		.4byte	.LVL513
 13516 2385 02050000 		.4byte	.LVL520
 13517 2389 0100     		.2byte	0x1
 13518 238b 54       		.byte	0x54
 13519 238c 18050000 		.4byte	.LVL523
 13520 2390 1C050000 		.4byte	.LVL525
 13521 2394 0100     		.2byte	0x1
 13522 2396 58       		.byte	0x58
 13523 2397 1C050000 		.4byte	.LVL525
 13524 239b 20050000 		.4byte	.LVL527
 13525 239f 0100     		.2byte	0x1
 13526 23a1 59       		.byte	0x59
 13527 23a2 20050000 		.4byte	.LVL527
 13528 23a6 2C050000 		.4byte	.LVL533
 13529 23aa 0100     		.2byte	0x1
 13530 23ac 54       		.byte	0x54
 13531 23ad 00000000 		.4byte	0
 13532 23b1 00000000 		.4byte	0
 13533              	.LLST102:
 13534 23b5 84040000 		.4byte	.LVL501
 13535 23b9 02050000 		.4byte	.LVL520
 13536 23bd 0100     		.2byte	0x1
 13537 23bf 56       		.byte	0x56
 13538 23c0 28050000 		.4byte	.LVL531
 13539 23c4 2C050000 		.4byte	.LVL533
 13540 23c8 0100     		.2byte	0x1
 13541 23ca 56       		.byte	0x56
ARM GAS  C:\Users\Phuong\AppData\Local\Temp\ccyLHZOj.s 			page 281


 13542 23cb 00000000 		.4byte	0
 13543 23cf 00000000 		.4byte	0
 13544              		.section	.debug_aranges,"",%progbits
 13545 0000 94000000 		.4byte	0x94
 13546 0004 0200     		.2byte	0x2
 13547 0006 00000000 		.4byte	.Ldebug_info0
 13548 000a 04       		.byte	0x4
 13549 000b 00       		.byte	0
 13550 000c 0000     		.2byte	0
 13551 000e 0000     		.2byte	0
 13552 0010 00000000 		.4byte	.LFB1
 13553 0014 0C020000 		.4byte	.LFE1-.LFB1
 13554 0018 00000000 		.4byte	.LFB2
 13555 001c 0E000000 		.4byte	.LFE2-.LFB2
 13556 0020 00000000 		.4byte	.LFB3
 13557 0024 10000000 		.4byte	.LFE3-.LFB3
 13558 0028 00000000 		.4byte	.LFB4
 13559 002c 1C020000 		.4byte	.LFE4-.LFB4
 13560 0030 00000000 		.4byte	.LFB5
 13561 0034 1C010000 		.4byte	.LFE5-.LFB5
 13562 0038 00000000 		.4byte	.LFB6
 13563 003c 90040000 		.4byte	.LFE6-.LFB6
 13564 0040 00000000 		.4byte	.LFB7
 13565 0044 08000000 		.4byte	.LFE7-.LFB7
 13566 0048 00000000 		.4byte	.LFB8
 13567 004c 74040000 		.4byte	.LFE8-.LFB8
 13568 0050 00000000 		.4byte	.LFB9
 13569 0054 08000000 		.4byte	.LFE9-.LFB9
 13570 0058 00000000 		.4byte	.LFB10
 13571 005c 1C000000 		.4byte	.LFE10-.LFB10
 13572 0060 00000000 		.4byte	.LFB11
 13573 0064 9A000000 		.4byte	.LFE11-.LFB11
 13574 0068 00000000 		.4byte	.LFB12
 13575 006c 8E000000 		.4byte	.LFE12-.LFB12
 13576 0070 00000000 		.4byte	.LFB13
 13577 0074 78000000 		.4byte	.LFE13-.LFB13
 13578 0078 00000000 		.4byte	.LFB14
 13579 007c 58000000 		.4byte	.LFE14-.LFB14
 13580 0080 00000000 		.4byte	.LFB15
 13581 0084 82000000 		.4byte	.LFE15-.LFB15
 13582 0088 00000000 		.4byte	.LFB16
 13583 008c 7C050000 		.4byte	.LFE16-.LFB16
 13584 0090 00000000 		.4byte	0
 13585 0094 00000000 		.4byte	0
 13586              		.section	.debug_ranges,"",%progbits
 13587              	.Ldebug_ranges0:
 13588 0000 00000000 		.4byte	.LFB1
 13589 0004 0C020000 		.4byte	.LFE1
 13590 0008 00000000 		.4byte	.LFB2
 13591 000c 0E000000 		.4byte	.LFE2
 13592 0010 00000000 		.4byte	.LFB3
 13593 0014 10000000 		.4byte	.LFE3
 13594 0018 00000000 		.4byte	.LFB4
 13595 001c 1C020000 		.4byte	.LFE4
 13596 0020 00000000 		.4byte	.LFB5
 13597 0024 1C010000 		.4byte	.LFE5
 13598 0028 00000000 		.4byte	.LFB6
ARM GAS  C:\Users\Phuong\AppData\Local\Temp\ccyLHZOj.s 			page 282


 13599 002c 90040000 		.4byte	.LFE6
 13600 0030 00000000 		.4byte	.LFB7
 13601 0034 08000000 		.4byte	.LFE7
 13602 0038 00000000 		.4byte	.LFB8
 13603 003c 74040000 		.4byte	.LFE8
 13604 0040 00000000 		.4byte	.LFB9
 13605 0044 08000000 		.4byte	.LFE9
 13606 0048 00000000 		.4byte	.LFB10
 13607 004c 1C000000 		.4byte	.LFE10
 13608 0050 00000000 		.4byte	.LFB11
 13609 0054 9A000000 		.4byte	.LFE11
 13610 0058 00000000 		.4byte	.LFB12
 13611 005c 8E000000 		.4byte	.LFE12
 13612 0060 00000000 		.4byte	.LFB13
 13613 0064 78000000 		.4byte	.LFE13
 13614 0068 00000000 		.4byte	.LFB14
 13615 006c 58000000 		.4byte	.LFE14
 13616 0070 00000000 		.4byte	.LFB15
 13617 0074 82000000 		.4byte	.LFE15
 13618 0078 00000000 		.4byte	.LFB16
 13619 007c 7C050000 		.4byte	.LFE16
 13620 0080 00000000 		.4byte	0
 13621 0084 00000000 		.4byte	0
 13622              		.section	.debug_line,"",%progbits
 13623              	.Ldebug_line0:
 13624 0000 10090000 		.section	.debug_str,"MS",%progbits,1
 13624      02008602 
 13624      00000201 
 13624      FB0E0D00 
 13624      01010101 
 13625              	.LASF71:
 13626 0000 5F5F6275 		.ascii	"__builtin_puts\000"
 13626      696C7469 
 13626      6E5F7075 
 13626      747300
 13627              	.LASF56:
 13628 000f 6165735F 		.ascii	"aes_test_ofb_iv\000"
 13628      74657374 
 13628      5F6F6662 
 13628      5F697600 
 13629              	.LASF72:
 13630 001f 5F5F6275 		.ascii	"__builtin_putchar\000"
 13630      696C7469 
 13630      6E5F7075 
 13630      74636861 
 13630      7200
 13631              	.LASF9:
 13632 0031 5F5F7569 		.ascii	"__uint32_t\000"
 13632      6E743332 
 13632      5F7400
 13633              	.LASF62:
 13634 003c 6165735F 		.ascii	"aes_test_ctr_ct\000"
 13634      74657374 
 13634      5F637472 
 13634      5F637400 
 13635              	.LASF48:
 13636 004c 6165735F 		.ascii	"aes_test_ecb_enc\000"
ARM GAS  C:\Users\Phuong\AppData\Local\Temp\ccyLHZOj.s 			page 283


 13636      74657374 
 13636      5F656362 
 13636      5F656E63 
 13636      00
 13637              	.LASF31:
 13638 005d 74656D70 		.ascii	"temp\000"
 13638      00
 13639              	.LASF10:
 13640 0062 73697A65 		.ascii	"size_t\000"
 13640      5F7400
 13641              	.LASF22:
 13642 0069 696E7075 		.ascii	"input\000"
 13642      7400
 13643              	.LASF40:
 13644 006f 73747265 		.ascii	"stream_block\000"
 13644      616D5F62 
 13644      6C6F636B 
 13644      00
 13645              	.LASF42:
 13646 007c 76657262 		.ascii	"verbose\000"
 13646      6F736500 
 13647              	.LASF70:
 13648 0084 70757463 		.ascii	"putchar\000"
 13648      68617200 
 13649              	.LASF73:
 13650 008c 474E5520 		.ascii	"GNU C11 5.4.1 20160609 (release) [ARM/embedded-5-br"
 13650      43313120 
 13650      352E342E 
 13650      31203230 
 13650      31363036 
 13651 00bf 616E6368 		.ascii	"anch revision 237715] -mcpu=cortex-m0plus -mthumb -"
 13651      20726576 
 13651      6973696F 
 13651      6E203233 
 13651      37373135 
 13652 00f2 67202D4F 		.ascii	"g -Og -ffunction-sections -ffat-lto-objects\000"
 13652      67202D66 
 13652      66756E63 
 13652      74696F6E 
 13652      2D736563 
 13653              	.LASF30:
 13654 011e 6C656E67 		.ascii	"length\000"
 13654      746800
 13655              	.LASF16:
 13656 0125 6D626564 		.ascii	"mbedtls_aes_init\000"
 13656      746C735F 
 13656      6165735F 
 13656      696E6974 
 13656      00
 13657              	.LASF6:
 13658 0136 6C6F6E67 		.ascii	"long long int\000"
 13658      206C6F6E 
 13658      6720696E 
 13658      7400
 13659              	.LASF35:
 13660 0144 6D626564 		.ascii	"mbedtls_aes_crypt_ofb\000"
 13660      746C735F 
ARM GAS  C:\Users\Phuong\AppData\Local\Temp\ccyLHZOj.s 			page 284


 13660      6165735F 
 13660      63727970 
 13660      745F6F66 
 13661              	.LASF28:
 13662 015a 6D6F6465 		.ascii	"mode\000"
 13662      00
 13663              	.LASF39:
 13664 015f 6E6F6E63 		.ascii	"nonce_counter\000"
 13664      655F636F 
 13664      756E7465 
 13664      7200
 13665              	.LASF65:
 13666 016d 6D656D63 		.ascii	"memcpy\000"
 13666      707900
 13667              	.LASF38:
 13668 0174 6E635F6F 		.ascii	"nc_off\000"
 13668      666600
 13669              	.LASF2:
 13670 017b 73686F72 		.ascii	"short int\000"
 13670      7420696E 
 13670      7400
 13671              	.LASF45:
 13672 0185 52434F4E 		.ascii	"RCON\000"
 13672      00
 13673              	.LASF21:
 13674 018a 6D626564 		.ascii	"mbedtls_internal_aes_encrypt\000"
 13674      746C735F 
 13674      696E7465 
 13674      726E616C 
 13674      5F616573 
 13675              	.LASF54:
 13676 01a7 6165735F 		.ascii	"aes_test_cfb128_ct\000"
 13676      74657374 
 13676      5F636662 
 13676      3132385F 
 13676      637400
 13677              	.LASF11:
 13678 01ba 6C6F6E67 		.ascii	"long double\000"
 13678      20646F75 
 13678      626C6500 
 13679              	.LASF63:
 13680 01c6 6165735F 		.ascii	"aes_test_ctr_len\000"
 13680      74657374 
 13680      5F637472 
 13680      5F6C656E 
 13680      00
 13681              	.LASF37:
 13682 01d7 6D626564 		.ascii	"mbedtls_aes_crypt_ctr\000"
 13682      746C735F 
 13682      6165735F 
 13682      63727970 
 13682      745F6374 
 13683              	.LASF50:
 13684 01ed 6165735F 		.ascii	"aes_test_cbc_enc\000"
 13684      74657374 
 13684      5F636263 
 13684      5F656E63 
ARM GAS  C:\Users\Phuong\AppData\Local\Temp\ccyLHZOj.s 			page 285


 13684      00
 13685              	.LASF64:
 13686 01fe 6D656D73 		.ascii	"memset\000"
 13686      657400
 13687              	.LASF4:
 13688 0205 6C6F6E67 		.ascii	"long int\000"
 13688      20696E74 
 13688      00
 13689              	.LASF44:
 13690 020e 6F666673 		.ascii	"offset\000"
 13690      657400
 13691              	.LASF61:
 13692 0215 6165735F 		.ascii	"aes_test_ctr_pt\000"
 13692      74657374 
 13692      5F637472 
 13692      5F707400 
 13693              	.LASF49:
 13694 0225 6165735F 		.ascii	"aes_test_cbc_dec\000"
 13694      74657374 
 13694      5F636263 
 13694      5F646563 
 13694      00
 13695              	.LASF46:
 13696 0236 6165735F 		.ascii	"aes_init_done\000"
 13696      696E6974 
 13696      5F646F6E 
 13696      6500
 13697              	.LASF58:
 13698 0244 6165735F 		.ascii	"aes_test_ofb_ct\000"
 13698      74657374 
 13698      5F6F6662 
 13698      5F637400 
 13699              	.LASF43:
 13700 0254 6165735F 		.ascii	"aes_tests\000"
 13700      74657374 
 13700      7300
 13701              	.LASF36:
 13702 025e 65786974 		.ascii	"exit\000"
 13702      00
 13703              	.LASF20:
 13704 0263 6D626564 		.ascii	"mbedtls_aes_setkey_dec\000"
 13704      746C735F 
 13704      6165735F 
 13704      7365746B 
 13704      65795F64 
 13705              	.LASF55:
 13706 027a 6165735F 		.ascii	"aes_test_ofb_key\000"
 13706      74657374 
 13706      5F6F6662 
 13706      5F6B6579 
 13706      00
 13707              	.LASF59:
 13708 028b 6165735F 		.ascii	"aes_test_ctr_key\000"
 13708      74657374 
 13708      5F637472 
 13708      5F6B6579 
 13708      00
ARM GAS  C:\Users\Phuong\AppData\Local\Temp\ccyLHZOj.s 			page 286


 13709              	.LASF1:
 13710 029c 756E7369 		.ascii	"unsigned char\000"
 13710      676E6564 
 13710      20636861 
 13710      7200
 13711              	.LASF75:
 13712 02aa 433A5C55 		.ascii	"C:\\Users\\Phuong\\Documents\\PSoC Creator\\Dec0820"
 13712      73657273 
 13712      5C506875 
 13712      6F6E675C 
 13712      446F6375 
 13713 02d8 31385C69 		.ascii	"18\\iot-sdk-iot-dev\\PSOC6_FreeRTOS+LwIP+MbedTLS_Az"
 13713      6F742D73 
 13713      646B2D69 
 13713      6F742D64 
 13713      65765C50 
 13714 0309 7572652D 		.ascii	"ure-IOT-Hub-Demo\\PSOC6_FreeRTOS+LwIP+MbedTLS_Azure"
 13714      494F542D 
 13714      4875622D 
 13714      44656D6F 
 13714      5C50534F 
 13715 033b 2D494F54 		.ascii	"-IOT-Hub-Demo.cydsn\000"
 13715      2D487562 
 13715      2D44656D 
 13715      6F2E6379 
 13715      64736E00 
 13716              	.LASF0:
 13717 034f 7369676E 		.ascii	"signed char\000"
 13717      65642063 
 13717      68617200 
 13718              	.LASF7:
 13719 035b 6C6F6E67 		.ascii	"long long unsigned int\000"
 13719      206C6F6E 
 13719      6720756E 
 13719      7369676E 
 13719      65642069 
 13720              	.LASF14:
 13721 0372 75696E74 		.ascii	"uint32_t\000"
 13721      33325F74 
 13721      00
 13722              	.LASF34:
 13723 037b 6D626564 		.ascii	"mbedtls_aes_crypt_cfb8\000"
 13723      746C735F 
 13723      6165735F 
 13723      63727970 
 13723      745F6366 
 13724              	.LASF8:
 13725 0392 756E7369 		.ascii	"unsigned int\000"
 13725      676E6564 
 13725      20696E74 
 13725      00
 13726              	.LASF76:
 13727 039f 6165735F 		.ascii	"aes_gen_tables\000"
 13727      67656E5F 
 13727      7461626C 
 13727      657300
 13728              	.LASF69:
ARM GAS  C:\Users\Phuong\AppData\Local\Temp\ccyLHZOj.s 			page 287


 13729 03ae 70757473 		.ascii	"puts\000"
 13729      00
 13730              	.LASF51:
 13731 03b3 6165735F 		.ascii	"aes_test_cfb128_key\000"
 13731      74657374 
 13731      5F636662 
 13731      3132385F 
 13731      6B657900 
 13732              	.LASF3:
 13733 03c7 73686F72 		.ascii	"short unsigned int\000"
 13733      7420756E 
 13733      7369676E 
 13733      65642069 
 13733      6E7400
 13734              	.LASF74:
 13735 03da 536F7572 		.ascii	"Source\\mbedtls_open\\library\\aes.c\000"
 13735      63655C6D 
 13735      62656474 
 13735      6C735F6F 
 13735      70656E5C 
 13736              	.LASF13:
 13737 03fc 63686172 		.ascii	"char\000"
 13737      00
 13738              	.LASF67:
 13739 0401 7072696E 		.ascii	"printf\000"
 13739      746600
 13740              	.LASF29:
 13741 0408 6D626564 		.ascii	"mbedtls_aes_crypt_cbc\000"
 13741      746C735F 
 13741      6165735F 
 13741      63727970 
 13741      745F6362 
 13742              	.LASF68:
 13743 041e 6D656D63 		.ascii	"memcmp\000"
 13743      6D7000
 13744              	.LASF26:
 13745 0425 6D626564 		.ascii	"mbedtls_aes_decrypt\000"
 13745      746C735F 
 13745      6165735F 
 13745      64656372 
 13745      79707400 
 13746              	.LASF60:
 13747 0439 6165735F 		.ascii	"aes_test_ctr_nonce_counter\000"
 13747      74657374 
 13747      5F637472 
 13747      5F6E6F6E 
 13747      63655F63 
 13748              	.LASF32:
 13749 0454 6D626564 		.ascii	"mbedtls_aes_crypt_cfb128\000"
 13749      746C735F 
 13749      6165735F 
 13749      63727970 
 13749      745F6366 
 13750              	.LASF19:
 13751 046d 6D626564 		.ascii	"mbedtls_aes_setkey_enc\000"
 13751      746C735F 
 13751      6165735F 
ARM GAS  C:\Users\Phuong\AppData\Local\Temp\ccyLHZOj.s 			page 288


 13751      7365746B 
 13751      65795F65 
 13752              	.LASF5:
 13753 0484 6C6F6E67 		.ascii	"long unsigned int\000"
 13753      20756E73 
 13753      69676E65 
 13753      6420696E 
 13753      7400
 13754              	.LASF53:
 13755 0496 6165735F 		.ascii	"aes_test_cfb128_pt\000"
 13755      74657374 
 13755      5F636662 
 13755      3132385F 
 13755      707400
 13756              	.LASF17:
 13757 04a9 6D626564 		.ascii	"mbedtls_aes_free\000"
 13757      746C735F 
 13757      6165735F 
 13757      66726565 
 13757      00
 13758              	.LASF25:
 13759 04ba 6D626564 		.ascii	"mbedtls_internal_aes_decrypt\000"
 13759      746C735F 
 13759      696E7465 
 13759      726E616C 
 13759      5F616573 
 13760              	.LASF47:
 13761 04d7 6165735F 		.ascii	"aes_test_ecb_dec\000"
 13761      74657374 
 13761      5F656362 
 13761      5F646563 
 13761      00
 13762              	.LASF24:
 13763 04e8 6D626564 		.ascii	"mbedtls_aes_encrypt\000"
 13763      746C735F 
 13763      6165735F 
 13763      656E6372 
 13763      79707400 
 13764              	.LASF15:
 13765 04fc 6D626564 		.ascii	"mbedtls_aes_context\000"
 13765      746C735F 
 13765      6165735F 
 13765      636F6E74 
 13765      65787400 
 13766              	.LASF12:
 13767 0510 73697A65 		.ascii	"sizetype\000"
 13767      74797065 
 13767      00
 13768              	.LASF23:
 13769 0519 6F757470 		.ascii	"output\000"
 13769      757400
 13770              	.LASF33:
 13771 0520 69765F6F 		.ascii	"iv_off\000"
 13771      666600
 13772              	.LASF66:
 13773 0527 6D626564 		.ascii	"mbedtls_platform_zeroize\000"
 13773      746C735F 
ARM GAS  C:\Users\Phuong\AppData\Local\Temp\ccyLHZOj.s 			page 289


 13773      706C6174 
 13773      666F726D 
 13773      5F7A6572 
 13774              	.LASF57:
 13775 0540 6165735F 		.ascii	"aes_test_ofb_pt\000"
 13775      74657374 
 13775      5F6F6662 
 13775      5F707400 
 13776              	.LASF52:
 13777 0550 6165735F 		.ascii	"aes_test_cfb128_iv\000"
 13777      74657374 
 13777      5F636662 
 13777      3132385F 
 13777      697600
 13778              	.LASF27:
 13779 0563 6D626564 		.ascii	"mbedtls_aes_crypt_ecb\000"
 13779      746C735F 
 13779      6165735F 
 13779      63727970 
 13779      745F6563 
 13780              	.LASF18:
 13781 0579 6B657962 		.ascii	"keybits\000"
 13781      69747300 
 13782              	.LASF41:
 13783 0581 6D626564 		.ascii	"mbedtls_aes_self_test\000"
 13783      746C735F 
 13783      6165735F 
 13783      73656C66 
 13783      5F746573 
 13784              		.ident	"GCC: (GNU Tools for ARM Embedded Processors) 5.4.1 20160609 (release) [ARM/embedded-5-bran
