ARM GAS  C:\Users\Phuong\AppData\Local\Temp\ccyLHZOj.s 			page 1


   1              		.syntax unified
   2              		.cpu cortex-m0plus
   3              		.fpu softvfp
   4              		.eabi_attribute 20, 1
   5              		.eabi_attribute 21, 1
   6              		.eabi_attribute 23, 3
   7              		.eabi_attribute 24, 1
   8              		.eabi_attribute 25, 1
   9              		.eabi_attribute 26, 1
  10              		.eabi_attribute 30, 1
  11              		.eabi_attribute 34, 0
  12              		.eabi_attribute 18, 4
  13              		.thumb
  14              		.syntax unified
  15              		.file	"aes.c"
  16              		.text
  17              	.Ltext0:
  18              		.cfi_sections	.debug_frame
  19              		.global	__aeabi_idivmod
  20              		.section	.text.aes_gen_tables,"ax",%progbits
  21              		.align	2
  22              		.code	16
  23              		.thumb_func
  24              		.type	aes_gen_tables, %function
  25              	aes_gen_tables:
  26              	.LFB1:
  27              		.file 1 "Source\\mbedtls_open\\library\\aes.c"
   1:Source\mbedtls_open\library/aes.c **** /*
   2:Source\mbedtls_open\library/aes.c ****  *  FIPS-197 compliant AES implementation
   3:Source\mbedtls_open\library/aes.c ****  *
   4:Source\mbedtls_open\library/aes.c ****  *  Copyright (C) 2006-2015, ARM Limited, All Rights Reserved
   5:Source\mbedtls_open\library/aes.c ****  *  SPDX-License-Identifier: Apache-2.0
   6:Source\mbedtls_open\library/aes.c ****  *
   7:Source\mbedtls_open\library/aes.c ****  *  Licensed under the Apache License, Version 2.0 (the "License"); you may
   8:Source\mbedtls_open\library/aes.c ****  *  not use this file except in compliance with the License.
   9:Source\mbedtls_open\library/aes.c ****  *  You may obtain a copy of the License at
  10:Source\mbedtls_open\library/aes.c ****  *
  11:Source\mbedtls_open\library/aes.c ****  *  http://www.apache.org/licenses/LICENSE-2.0
  12:Source\mbedtls_open\library/aes.c ****  *
  13:Source\mbedtls_open\library/aes.c ****  *  Unless required by applicable law or agreed to in writing, software
  14:Source\mbedtls_open\library/aes.c ****  *  distributed under the License is distributed on an "AS IS" BASIS, WITHOUT
  15:Source\mbedtls_open\library/aes.c ****  *  WARRANTIES OR CONDITIONS OF ANY KIND, either express or implied.
  16:Source\mbedtls_open\library/aes.c ****  *  See the License for the specific language governing permissions and
  17:Source\mbedtls_open\library/aes.c ****  *  limitations under the License.
  18:Source\mbedtls_open\library/aes.c ****  *
  19:Source\mbedtls_open\library/aes.c ****  *  This file is part of mbed TLS (https://tls.mbed.org)
  20:Source\mbedtls_open\library/aes.c ****  */
  21:Source\mbedtls_open\library/aes.c **** /*
  22:Source\mbedtls_open\library/aes.c ****  *  The AES block cipher was designed by Vincent Rijmen and Joan Daemen.
  23:Source\mbedtls_open\library/aes.c ****  *
  24:Source\mbedtls_open\library/aes.c ****  *  http://csrc.nist.gov/encryption/aes/rijndael/Rijndael.pdf
  25:Source\mbedtls_open\library/aes.c ****  *  http://csrc.nist.gov/publications/fips/fips197/fips-197.pdf
  26:Source\mbedtls_open\library/aes.c ****  */
  27:Source\mbedtls_open\library/aes.c **** 
  28:Source\mbedtls_open\library/aes.c **** #if !defined(MBEDTLS_CONFIG_FILE)
  29:Source\mbedtls_open\library/aes.c **** #include "mbedtls/config.h"
  30:Source\mbedtls_open\library/aes.c **** #else
ARM GAS  C:\Users\Phuong\AppData\Local\Temp\ccyLHZOj.s 			page 2


  31:Source\mbedtls_open\library/aes.c **** #include MBEDTLS_CONFIG_FILE
  32:Source\mbedtls_open\library/aes.c **** #endif
  33:Source\mbedtls_open\library/aes.c **** 
  34:Source\mbedtls_open\library/aes.c **** #if defined(MBEDTLS_AES_C)
  35:Source\mbedtls_open\library/aes.c **** 
  36:Source\mbedtls_open\library/aes.c **** #include <string.h>
  37:Source\mbedtls_open\library/aes.c **** 
  38:Source\mbedtls_open\library/aes.c **** #include "mbedtls/aes.h"
  39:Source\mbedtls_open\library/aes.c **** #include "mbedtls/platform_util.h"
  40:Source\mbedtls_open\library/aes.c **** #if defined(MBEDTLS_PADLOCK_C)
  41:Source\mbedtls_open\library/aes.c **** #include "mbedtls/padlock.h"
  42:Source\mbedtls_open\library/aes.c **** #endif
  43:Source\mbedtls_open\library/aes.c **** #if defined(MBEDTLS_AESNI_C)
  44:Source\mbedtls_open\library/aes.c **** #include "mbedtls/aesni.h"
  45:Source\mbedtls_open\library/aes.c **** #endif
  46:Source\mbedtls_open\library/aes.c **** 
  47:Source\mbedtls_open\library/aes.c **** #if defined(MBEDTLS_SELF_TEST)
  48:Source\mbedtls_open\library/aes.c **** #if defined(MBEDTLS_PLATFORM_C)
  49:Source\mbedtls_open\library/aes.c **** #include "mbedtls/platform.h"
  50:Source\mbedtls_open\library/aes.c **** #else
  51:Source\mbedtls_open\library/aes.c **** #include <stdio.h>
  52:Source\mbedtls_open\library/aes.c **** #define mbedtls_printf printf
  53:Source\mbedtls_open\library/aes.c **** #endif /* MBEDTLS_PLATFORM_C */
  54:Source\mbedtls_open\library/aes.c **** #endif /* MBEDTLS_SELF_TEST */
  55:Source\mbedtls_open\library/aes.c **** 
  56:Source\mbedtls_open\library/aes.c **** #if !defined(MBEDTLS_AES_ALT)
  57:Source\mbedtls_open\library/aes.c **** 
  58:Source\mbedtls_open\library/aes.c **** /*
  59:Source\mbedtls_open\library/aes.c ****  * 32-bit integer manipulation macros (little endian)
  60:Source\mbedtls_open\library/aes.c ****  */
  61:Source\mbedtls_open\library/aes.c **** #ifndef GET_UINT32_LE
  62:Source\mbedtls_open\library/aes.c **** #define GET_UINT32_LE(n,b,i)                            \
  63:Source\mbedtls_open\library/aes.c **** {                                                       \
  64:Source\mbedtls_open\library/aes.c ****     (n) = ( (uint32_t) (b)[(i)    ]       )             \
  65:Source\mbedtls_open\library/aes.c ****         | ( (uint32_t) (b)[(i) + 1] <<  8 )             \
  66:Source\mbedtls_open\library/aes.c ****         | ( (uint32_t) (b)[(i) + 2] << 16 )             \
  67:Source\mbedtls_open\library/aes.c ****         | ( (uint32_t) (b)[(i) + 3] << 24 );            \
  68:Source\mbedtls_open\library/aes.c **** }
  69:Source\mbedtls_open\library/aes.c **** #endif
  70:Source\mbedtls_open\library/aes.c **** 
  71:Source\mbedtls_open\library/aes.c **** #ifndef PUT_UINT32_LE
  72:Source\mbedtls_open\library/aes.c **** #define PUT_UINT32_LE(n,b,i)                                    \
  73:Source\mbedtls_open\library/aes.c **** {                                                               \
  74:Source\mbedtls_open\library/aes.c ****     (b)[(i)    ] = (unsigned char) ( ( (n)       ) & 0xFF );    \
  75:Source\mbedtls_open\library/aes.c ****     (b)[(i) + 1] = (unsigned char) ( ( (n) >>  8 ) & 0xFF );    \
  76:Source\mbedtls_open\library/aes.c ****     (b)[(i) + 2] = (unsigned char) ( ( (n) >> 16 ) & 0xFF );    \
  77:Source\mbedtls_open\library/aes.c ****     (b)[(i) + 3] = (unsigned char) ( ( (n) >> 24 ) & 0xFF );    \
  78:Source\mbedtls_open\library/aes.c **** }
  79:Source\mbedtls_open\library/aes.c **** #endif
  80:Source\mbedtls_open\library/aes.c **** 
  81:Source\mbedtls_open\library/aes.c **** #if defined(MBEDTLS_PADLOCK_C) &&                      \
  82:Source\mbedtls_open\library/aes.c ****     ( defined(MBEDTLS_HAVE_X86) || defined(MBEDTLS_PADLOCK_ALIGN16) )
  83:Source\mbedtls_open\library/aes.c **** static int aes_padlock_ace = -1;
  84:Source\mbedtls_open\library/aes.c **** #endif
  85:Source\mbedtls_open\library/aes.c **** 
  86:Source\mbedtls_open\library/aes.c **** #if defined(MBEDTLS_AES_ROM_TABLES)
  87:Source\mbedtls_open\library/aes.c **** /*
ARM GAS  C:\Users\Phuong\AppData\Local\Temp\ccyLHZOj.s 			page 3


  88:Source\mbedtls_open\library/aes.c ****  * Forward S-box
  89:Source\mbedtls_open\library/aes.c ****  */
  90:Source\mbedtls_open\library/aes.c **** static const unsigned char FSb[256] =
  91:Source\mbedtls_open\library/aes.c **** {
  92:Source\mbedtls_open\library/aes.c ****     0x63, 0x7C, 0x77, 0x7B, 0xF2, 0x6B, 0x6F, 0xC5,
  93:Source\mbedtls_open\library/aes.c ****     0x30, 0x01, 0x67, 0x2B, 0xFE, 0xD7, 0xAB, 0x76,
  94:Source\mbedtls_open\library/aes.c ****     0xCA, 0x82, 0xC9, 0x7D, 0xFA, 0x59, 0x47, 0xF0,
  95:Source\mbedtls_open\library/aes.c ****     0xAD, 0xD4, 0xA2, 0xAF, 0x9C, 0xA4, 0x72, 0xC0,
  96:Source\mbedtls_open\library/aes.c ****     0xB7, 0xFD, 0x93, 0x26, 0x36, 0x3F, 0xF7, 0xCC,
  97:Source\mbedtls_open\library/aes.c ****     0x34, 0xA5, 0xE5, 0xF1, 0x71, 0xD8, 0x31, 0x15,
  98:Source\mbedtls_open\library/aes.c ****     0x04, 0xC7, 0x23, 0xC3, 0x18, 0x96, 0x05, 0x9A,
  99:Source\mbedtls_open\library/aes.c ****     0x07, 0x12, 0x80, 0xE2, 0xEB, 0x27, 0xB2, 0x75,
 100:Source\mbedtls_open\library/aes.c ****     0x09, 0x83, 0x2C, 0x1A, 0x1B, 0x6E, 0x5A, 0xA0,
 101:Source\mbedtls_open\library/aes.c ****     0x52, 0x3B, 0xD6, 0xB3, 0x29, 0xE3, 0x2F, 0x84,
 102:Source\mbedtls_open\library/aes.c ****     0x53, 0xD1, 0x00, 0xED, 0x20, 0xFC, 0xB1, 0x5B,
 103:Source\mbedtls_open\library/aes.c ****     0x6A, 0xCB, 0xBE, 0x39, 0x4A, 0x4C, 0x58, 0xCF,
 104:Source\mbedtls_open\library/aes.c ****     0xD0, 0xEF, 0xAA, 0xFB, 0x43, 0x4D, 0x33, 0x85,
 105:Source\mbedtls_open\library/aes.c ****     0x45, 0xF9, 0x02, 0x7F, 0x50, 0x3C, 0x9F, 0xA8,
 106:Source\mbedtls_open\library/aes.c ****     0x51, 0xA3, 0x40, 0x8F, 0x92, 0x9D, 0x38, 0xF5,
 107:Source\mbedtls_open\library/aes.c ****     0xBC, 0xB6, 0xDA, 0x21, 0x10, 0xFF, 0xF3, 0xD2,
 108:Source\mbedtls_open\library/aes.c ****     0xCD, 0x0C, 0x13, 0xEC, 0x5F, 0x97, 0x44, 0x17,
 109:Source\mbedtls_open\library/aes.c ****     0xC4, 0xA7, 0x7E, 0x3D, 0x64, 0x5D, 0x19, 0x73,
 110:Source\mbedtls_open\library/aes.c ****     0x60, 0x81, 0x4F, 0xDC, 0x22, 0x2A, 0x90, 0x88,
 111:Source\mbedtls_open\library/aes.c ****     0x46, 0xEE, 0xB8, 0x14, 0xDE, 0x5E, 0x0B, 0xDB,
 112:Source\mbedtls_open\library/aes.c ****     0xE0, 0x32, 0x3A, 0x0A, 0x49, 0x06, 0x24, 0x5C,
 113:Source\mbedtls_open\library/aes.c ****     0xC2, 0xD3, 0xAC, 0x62, 0x91, 0x95, 0xE4, 0x79,
 114:Source\mbedtls_open\library/aes.c ****     0xE7, 0xC8, 0x37, 0x6D, 0x8D, 0xD5, 0x4E, 0xA9,
 115:Source\mbedtls_open\library/aes.c ****     0x6C, 0x56, 0xF4, 0xEA, 0x65, 0x7A, 0xAE, 0x08,
 116:Source\mbedtls_open\library/aes.c ****     0xBA, 0x78, 0x25, 0x2E, 0x1C, 0xA6, 0xB4, 0xC6,
 117:Source\mbedtls_open\library/aes.c ****     0xE8, 0xDD, 0x74, 0x1F, 0x4B, 0xBD, 0x8B, 0x8A,
 118:Source\mbedtls_open\library/aes.c ****     0x70, 0x3E, 0xB5, 0x66, 0x48, 0x03, 0xF6, 0x0E,
 119:Source\mbedtls_open\library/aes.c ****     0x61, 0x35, 0x57, 0xB9, 0x86, 0xC1, 0x1D, 0x9E,
 120:Source\mbedtls_open\library/aes.c ****     0xE1, 0xF8, 0x98, 0x11, 0x69, 0xD9, 0x8E, 0x94,
 121:Source\mbedtls_open\library/aes.c ****     0x9B, 0x1E, 0x87, 0xE9, 0xCE, 0x55, 0x28, 0xDF,
 122:Source\mbedtls_open\library/aes.c ****     0x8C, 0xA1, 0x89, 0x0D, 0xBF, 0xE6, 0x42, 0x68,
 123:Source\mbedtls_open\library/aes.c ****     0x41, 0x99, 0x2D, 0x0F, 0xB0, 0x54, 0xBB, 0x16
 124:Source\mbedtls_open\library/aes.c **** };
 125:Source\mbedtls_open\library/aes.c **** 
 126:Source\mbedtls_open\library/aes.c **** /*
 127:Source\mbedtls_open\library/aes.c ****  * Forward tables
 128:Source\mbedtls_open\library/aes.c ****  */
 129:Source\mbedtls_open\library/aes.c **** #define FT \
 130:Source\mbedtls_open\library/aes.c **** \
 131:Source\mbedtls_open\library/aes.c ****     V(A5,63,63,C6), V(84,7C,7C,F8), V(99,77,77,EE), V(8D,7B,7B,F6), \
 132:Source\mbedtls_open\library/aes.c ****     V(0D,F2,F2,FF), V(BD,6B,6B,D6), V(B1,6F,6F,DE), V(54,C5,C5,91), \
 133:Source\mbedtls_open\library/aes.c ****     V(50,30,30,60), V(03,01,01,02), V(A9,67,67,CE), V(7D,2B,2B,56), \
 134:Source\mbedtls_open\library/aes.c ****     V(19,FE,FE,E7), V(62,D7,D7,B5), V(E6,AB,AB,4D), V(9A,76,76,EC), \
 135:Source\mbedtls_open\library/aes.c ****     V(45,CA,CA,8F), V(9D,82,82,1F), V(40,C9,C9,89), V(87,7D,7D,FA), \
 136:Source\mbedtls_open\library/aes.c ****     V(15,FA,FA,EF), V(EB,59,59,B2), V(C9,47,47,8E), V(0B,F0,F0,FB), \
 137:Source\mbedtls_open\library/aes.c ****     V(EC,AD,AD,41), V(67,D4,D4,B3), V(FD,A2,A2,5F), V(EA,AF,AF,45), \
 138:Source\mbedtls_open\library/aes.c ****     V(BF,9C,9C,23), V(F7,A4,A4,53), V(96,72,72,E4), V(5B,C0,C0,9B), \
 139:Source\mbedtls_open\library/aes.c ****     V(C2,B7,B7,75), V(1C,FD,FD,E1), V(AE,93,93,3D), V(6A,26,26,4C), \
 140:Source\mbedtls_open\library/aes.c ****     V(5A,36,36,6C), V(41,3F,3F,7E), V(02,F7,F7,F5), V(4F,CC,CC,83), \
 141:Source\mbedtls_open\library/aes.c ****     V(5C,34,34,68), V(F4,A5,A5,51), V(34,E5,E5,D1), V(08,F1,F1,F9), \
 142:Source\mbedtls_open\library/aes.c ****     V(93,71,71,E2), V(73,D8,D8,AB), V(53,31,31,62), V(3F,15,15,2A), \
 143:Source\mbedtls_open\library/aes.c ****     V(0C,04,04,08), V(52,C7,C7,95), V(65,23,23,46), V(5E,C3,C3,9D), \
 144:Source\mbedtls_open\library/aes.c ****     V(28,18,18,30), V(A1,96,96,37), V(0F,05,05,0A), V(B5,9A,9A,2F), \
ARM GAS  C:\Users\Phuong\AppData\Local\Temp\ccyLHZOj.s 			page 4


 145:Source\mbedtls_open\library/aes.c ****     V(09,07,07,0E), V(36,12,12,24), V(9B,80,80,1B), V(3D,E2,E2,DF), \
 146:Source\mbedtls_open\library/aes.c ****     V(26,EB,EB,CD), V(69,27,27,4E), V(CD,B2,B2,7F), V(9F,75,75,EA), \
 147:Source\mbedtls_open\library/aes.c ****     V(1B,09,09,12), V(9E,83,83,1D), V(74,2C,2C,58), V(2E,1A,1A,34), \
 148:Source\mbedtls_open\library/aes.c ****     V(2D,1B,1B,36), V(B2,6E,6E,DC), V(EE,5A,5A,B4), V(FB,A0,A0,5B), \
 149:Source\mbedtls_open\library/aes.c ****     V(F6,52,52,A4), V(4D,3B,3B,76), V(61,D6,D6,B7), V(CE,B3,B3,7D), \
 150:Source\mbedtls_open\library/aes.c ****     V(7B,29,29,52), V(3E,E3,E3,DD), V(71,2F,2F,5E), V(97,84,84,13), \
 151:Source\mbedtls_open\library/aes.c ****     V(F5,53,53,A6), V(68,D1,D1,B9), V(00,00,00,00), V(2C,ED,ED,C1), \
 152:Source\mbedtls_open\library/aes.c ****     V(60,20,20,40), V(1F,FC,FC,E3), V(C8,B1,B1,79), V(ED,5B,5B,B6), \
 153:Source\mbedtls_open\library/aes.c ****     V(BE,6A,6A,D4), V(46,CB,CB,8D), V(D9,BE,BE,67), V(4B,39,39,72), \
 154:Source\mbedtls_open\library/aes.c ****     V(DE,4A,4A,94), V(D4,4C,4C,98), V(E8,58,58,B0), V(4A,CF,CF,85), \
 155:Source\mbedtls_open\library/aes.c ****     V(6B,D0,D0,BB), V(2A,EF,EF,C5), V(E5,AA,AA,4F), V(16,FB,FB,ED), \
 156:Source\mbedtls_open\library/aes.c ****     V(C5,43,43,86), V(D7,4D,4D,9A), V(55,33,33,66), V(94,85,85,11), \
 157:Source\mbedtls_open\library/aes.c ****     V(CF,45,45,8A), V(10,F9,F9,E9), V(06,02,02,04), V(81,7F,7F,FE), \
 158:Source\mbedtls_open\library/aes.c ****     V(F0,50,50,A0), V(44,3C,3C,78), V(BA,9F,9F,25), V(E3,A8,A8,4B), \
 159:Source\mbedtls_open\library/aes.c ****     V(F3,51,51,A2), V(FE,A3,A3,5D), V(C0,40,40,80), V(8A,8F,8F,05), \
 160:Source\mbedtls_open\library/aes.c ****     V(AD,92,92,3F), V(BC,9D,9D,21), V(48,38,38,70), V(04,F5,F5,F1), \
 161:Source\mbedtls_open\library/aes.c ****     V(DF,BC,BC,63), V(C1,B6,B6,77), V(75,DA,DA,AF), V(63,21,21,42), \
 162:Source\mbedtls_open\library/aes.c ****     V(30,10,10,20), V(1A,FF,FF,E5), V(0E,F3,F3,FD), V(6D,D2,D2,BF), \
 163:Source\mbedtls_open\library/aes.c ****     V(4C,CD,CD,81), V(14,0C,0C,18), V(35,13,13,26), V(2F,EC,EC,C3), \
 164:Source\mbedtls_open\library/aes.c ****     V(E1,5F,5F,BE), V(A2,97,97,35), V(CC,44,44,88), V(39,17,17,2E), \
 165:Source\mbedtls_open\library/aes.c ****     V(57,C4,C4,93), V(F2,A7,A7,55), V(82,7E,7E,FC), V(47,3D,3D,7A), \
 166:Source\mbedtls_open\library/aes.c ****     V(AC,64,64,C8), V(E7,5D,5D,BA), V(2B,19,19,32), V(95,73,73,E6), \
 167:Source\mbedtls_open\library/aes.c ****     V(A0,60,60,C0), V(98,81,81,19), V(D1,4F,4F,9E), V(7F,DC,DC,A3), \
 168:Source\mbedtls_open\library/aes.c ****     V(66,22,22,44), V(7E,2A,2A,54), V(AB,90,90,3B), V(83,88,88,0B), \
 169:Source\mbedtls_open\library/aes.c ****     V(CA,46,46,8C), V(29,EE,EE,C7), V(D3,B8,B8,6B), V(3C,14,14,28), \
 170:Source\mbedtls_open\library/aes.c ****     V(79,DE,DE,A7), V(E2,5E,5E,BC), V(1D,0B,0B,16), V(76,DB,DB,AD), \
 171:Source\mbedtls_open\library/aes.c ****     V(3B,E0,E0,DB), V(56,32,32,64), V(4E,3A,3A,74), V(1E,0A,0A,14), \
 172:Source\mbedtls_open\library/aes.c ****     V(DB,49,49,92), V(0A,06,06,0C), V(6C,24,24,48), V(E4,5C,5C,B8), \
 173:Source\mbedtls_open\library/aes.c ****     V(5D,C2,C2,9F), V(6E,D3,D3,BD), V(EF,AC,AC,43), V(A6,62,62,C4), \
 174:Source\mbedtls_open\library/aes.c ****     V(A8,91,91,39), V(A4,95,95,31), V(37,E4,E4,D3), V(8B,79,79,F2), \
 175:Source\mbedtls_open\library/aes.c ****     V(32,E7,E7,D5), V(43,C8,C8,8B), V(59,37,37,6E), V(B7,6D,6D,DA), \
 176:Source\mbedtls_open\library/aes.c ****     V(8C,8D,8D,01), V(64,D5,D5,B1), V(D2,4E,4E,9C), V(E0,A9,A9,49), \
 177:Source\mbedtls_open\library/aes.c ****     V(B4,6C,6C,D8), V(FA,56,56,AC), V(07,F4,F4,F3), V(25,EA,EA,CF), \
 178:Source\mbedtls_open\library/aes.c ****     V(AF,65,65,CA), V(8E,7A,7A,F4), V(E9,AE,AE,47), V(18,08,08,10), \
 179:Source\mbedtls_open\library/aes.c ****     V(D5,BA,BA,6F), V(88,78,78,F0), V(6F,25,25,4A), V(72,2E,2E,5C), \
 180:Source\mbedtls_open\library/aes.c ****     V(24,1C,1C,38), V(F1,A6,A6,57), V(C7,B4,B4,73), V(51,C6,C6,97), \
 181:Source\mbedtls_open\library/aes.c ****     V(23,E8,E8,CB), V(7C,DD,DD,A1), V(9C,74,74,E8), V(21,1F,1F,3E), \
 182:Source\mbedtls_open\library/aes.c ****     V(DD,4B,4B,96), V(DC,BD,BD,61), V(86,8B,8B,0D), V(85,8A,8A,0F), \
 183:Source\mbedtls_open\library/aes.c ****     V(90,70,70,E0), V(42,3E,3E,7C), V(C4,B5,B5,71), V(AA,66,66,CC), \
 184:Source\mbedtls_open\library/aes.c ****     V(D8,48,48,90), V(05,03,03,06), V(01,F6,F6,F7), V(12,0E,0E,1C), \
 185:Source\mbedtls_open\library/aes.c ****     V(A3,61,61,C2), V(5F,35,35,6A), V(F9,57,57,AE), V(D0,B9,B9,69), \
 186:Source\mbedtls_open\library/aes.c ****     V(91,86,86,17), V(58,C1,C1,99), V(27,1D,1D,3A), V(B9,9E,9E,27), \
 187:Source\mbedtls_open\library/aes.c ****     V(38,E1,E1,D9), V(13,F8,F8,EB), V(B3,98,98,2B), V(33,11,11,22), \
 188:Source\mbedtls_open\library/aes.c ****     V(BB,69,69,D2), V(70,D9,D9,A9), V(89,8E,8E,07), V(A7,94,94,33), \
 189:Source\mbedtls_open\library/aes.c ****     V(B6,9B,9B,2D), V(22,1E,1E,3C), V(92,87,87,15), V(20,E9,E9,C9), \
 190:Source\mbedtls_open\library/aes.c ****     V(49,CE,CE,87), V(FF,55,55,AA), V(78,28,28,50), V(7A,DF,DF,A5), \
 191:Source\mbedtls_open\library/aes.c ****     V(8F,8C,8C,03), V(F8,A1,A1,59), V(80,89,89,09), V(17,0D,0D,1A), \
 192:Source\mbedtls_open\library/aes.c ****     V(DA,BF,BF,65), V(31,E6,E6,D7), V(C6,42,42,84), V(B8,68,68,D0), \
 193:Source\mbedtls_open\library/aes.c ****     V(C3,41,41,82), V(B0,99,99,29), V(77,2D,2D,5A), V(11,0F,0F,1E), \
 194:Source\mbedtls_open\library/aes.c ****     V(CB,B0,B0,7B), V(FC,54,54,A8), V(D6,BB,BB,6D), V(3A,16,16,2C)
 195:Source\mbedtls_open\library/aes.c **** 
 196:Source\mbedtls_open\library/aes.c **** #define V(a,b,c,d) 0x##a##b##c##d
 197:Source\mbedtls_open\library/aes.c **** static const uint32_t FT0[256] = { FT };
 198:Source\mbedtls_open\library/aes.c **** #undef V
 199:Source\mbedtls_open\library/aes.c **** 
 200:Source\mbedtls_open\library/aes.c **** #if !defined(MBEDTLS_AES_FEWER_TABLES)
 201:Source\mbedtls_open\library/aes.c **** 
ARM GAS  C:\Users\Phuong\AppData\Local\Temp\ccyLHZOj.s 			page 5


 202:Source\mbedtls_open\library/aes.c **** #define V(a,b,c,d) 0x##b##c##d##a
 203:Source\mbedtls_open\library/aes.c **** static const uint32_t FT1[256] = { FT };
 204:Source\mbedtls_open\library/aes.c **** #undef V
 205:Source\mbedtls_open\library/aes.c **** 
 206:Source\mbedtls_open\library/aes.c **** #define V(a,b,c,d) 0x##c##d##a##b
 207:Source\mbedtls_open\library/aes.c **** static const uint32_t FT2[256] = { FT };
 208:Source\mbedtls_open\library/aes.c **** #undef V
 209:Source\mbedtls_open\library/aes.c **** 
 210:Source\mbedtls_open\library/aes.c **** #define V(a,b,c,d) 0x##d##a##b##c
 211:Source\mbedtls_open\library/aes.c **** static const uint32_t FT3[256] = { FT };
 212:Source\mbedtls_open\library/aes.c **** #undef V
 213:Source\mbedtls_open\library/aes.c **** 
 214:Source\mbedtls_open\library/aes.c **** #endif /* !MBEDTLS_AES_FEWER_TABLES */
 215:Source\mbedtls_open\library/aes.c **** 
 216:Source\mbedtls_open\library/aes.c **** #undef FT
 217:Source\mbedtls_open\library/aes.c **** 
 218:Source\mbedtls_open\library/aes.c **** /*
 219:Source\mbedtls_open\library/aes.c ****  * Reverse S-box
 220:Source\mbedtls_open\library/aes.c ****  */
 221:Source\mbedtls_open\library/aes.c **** static const unsigned char RSb[256] =
 222:Source\mbedtls_open\library/aes.c **** {
 223:Source\mbedtls_open\library/aes.c ****     0x52, 0x09, 0x6A, 0xD5, 0x30, 0x36, 0xA5, 0x38,
 224:Source\mbedtls_open\library/aes.c ****     0xBF, 0x40, 0xA3, 0x9E, 0x81, 0xF3, 0xD7, 0xFB,
 225:Source\mbedtls_open\library/aes.c ****     0x7C, 0xE3, 0x39, 0x82, 0x9B, 0x2F, 0xFF, 0x87,
 226:Source\mbedtls_open\library/aes.c ****     0x34, 0x8E, 0x43, 0x44, 0xC4, 0xDE, 0xE9, 0xCB,
 227:Source\mbedtls_open\library/aes.c ****     0x54, 0x7B, 0x94, 0x32, 0xA6, 0xC2, 0x23, 0x3D,
 228:Source\mbedtls_open\library/aes.c ****     0xEE, 0x4C, 0x95, 0x0B, 0x42, 0xFA, 0xC3, 0x4E,
 229:Source\mbedtls_open\library/aes.c ****     0x08, 0x2E, 0xA1, 0x66, 0x28, 0xD9, 0x24, 0xB2,
 230:Source\mbedtls_open\library/aes.c ****     0x76, 0x5B, 0xA2, 0x49, 0x6D, 0x8B, 0xD1, 0x25,
 231:Source\mbedtls_open\library/aes.c ****     0x72, 0xF8, 0xF6, 0x64, 0x86, 0x68, 0x98, 0x16,
 232:Source\mbedtls_open\library/aes.c ****     0xD4, 0xA4, 0x5C, 0xCC, 0x5D, 0x65, 0xB6, 0x92,
 233:Source\mbedtls_open\library/aes.c ****     0x6C, 0x70, 0x48, 0x50, 0xFD, 0xED, 0xB9, 0xDA,
 234:Source\mbedtls_open\library/aes.c ****     0x5E, 0x15, 0x46, 0x57, 0xA7, 0x8D, 0x9D, 0x84,
 235:Source\mbedtls_open\library/aes.c ****     0x90, 0xD8, 0xAB, 0x00, 0x8C, 0xBC, 0xD3, 0x0A,
 236:Source\mbedtls_open\library/aes.c ****     0xF7, 0xE4, 0x58, 0x05, 0xB8, 0xB3, 0x45, 0x06,
 237:Source\mbedtls_open\library/aes.c ****     0xD0, 0x2C, 0x1E, 0x8F, 0xCA, 0x3F, 0x0F, 0x02,
 238:Source\mbedtls_open\library/aes.c ****     0xC1, 0xAF, 0xBD, 0x03, 0x01, 0x13, 0x8A, 0x6B,
 239:Source\mbedtls_open\library/aes.c ****     0x3A, 0x91, 0x11, 0x41, 0x4F, 0x67, 0xDC, 0xEA,
 240:Source\mbedtls_open\library/aes.c ****     0x97, 0xF2, 0xCF, 0xCE, 0xF0, 0xB4, 0xE6, 0x73,
 241:Source\mbedtls_open\library/aes.c ****     0x96, 0xAC, 0x74, 0x22, 0xE7, 0xAD, 0x35, 0x85,
 242:Source\mbedtls_open\library/aes.c ****     0xE2, 0xF9, 0x37, 0xE8, 0x1C, 0x75, 0xDF, 0x6E,
 243:Source\mbedtls_open\library/aes.c ****     0x47, 0xF1, 0x1A, 0x71, 0x1D, 0x29, 0xC5, 0x89,
 244:Source\mbedtls_open\library/aes.c ****     0x6F, 0xB7, 0x62, 0x0E, 0xAA, 0x18, 0xBE, 0x1B,
 245:Source\mbedtls_open\library/aes.c ****     0xFC, 0x56, 0x3E, 0x4B, 0xC6, 0xD2, 0x79, 0x20,
 246:Source\mbedtls_open\library/aes.c ****     0x9A, 0xDB, 0xC0, 0xFE, 0x78, 0xCD, 0x5A, 0xF4,
 247:Source\mbedtls_open\library/aes.c ****     0x1F, 0xDD, 0xA8, 0x33, 0x88, 0x07, 0xC7, 0x31,
 248:Source\mbedtls_open\library/aes.c ****     0xB1, 0x12, 0x10, 0x59, 0x27, 0x80, 0xEC, 0x5F,
 249:Source\mbedtls_open\library/aes.c ****     0x60, 0x51, 0x7F, 0xA9, 0x19, 0xB5, 0x4A, 0x0D,
 250:Source\mbedtls_open\library/aes.c ****     0x2D, 0xE5, 0x7A, 0x9F, 0x93, 0xC9, 0x9C, 0xEF,
 251:Source\mbedtls_open\library/aes.c ****     0xA0, 0xE0, 0x3B, 0x4D, 0xAE, 0x2A, 0xF5, 0xB0,
 252:Source\mbedtls_open\library/aes.c ****     0xC8, 0xEB, 0xBB, 0x3C, 0x83, 0x53, 0x99, 0x61,
 253:Source\mbedtls_open\library/aes.c ****     0x17, 0x2B, 0x04, 0x7E, 0xBA, 0x77, 0xD6, 0x26,
 254:Source\mbedtls_open\library/aes.c ****     0xE1, 0x69, 0x14, 0x63, 0x55, 0x21, 0x0C, 0x7D
 255:Source\mbedtls_open\library/aes.c **** };
 256:Source\mbedtls_open\library/aes.c **** 
 257:Source\mbedtls_open\library/aes.c **** /*
 258:Source\mbedtls_open\library/aes.c ****  * Reverse tables
ARM GAS  C:\Users\Phuong\AppData\Local\Temp\ccyLHZOj.s 			page 6


 259:Source\mbedtls_open\library/aes.c ****  */
 260:Source\mbedtls_open\library/aes.c **** #define RT \
 261:Source\mbedtls_open\library/aes.c **** \
 262:Source\mbedtls_open\library/aes.c ****     V(50,A7,F4,51), V(53,65,41,7E), V(C3,A4,17,1A), V(96,5E,27,3A), \
 263:Source\mbedtls_open\library/aes.c ****     V(CB,6B,AB,3B), V(F1,45,9D,1F), V(AB,58,FA,AC), V(93,03,E3,4B), \
 264:Source\mbedtls_open\library/aes.c ****     V(55,FA,30,20), V(F6,6D,76,AD), V(91,76,CC,88), V(25,4C,02,F5), \
 265:Source\mbedtls_open\library/aes.c ****     V(FC,D7,E5,4F), V(D7,CB,2A,C5), V(80,44,35,26), V(8F,A3,62,B5), \
 266:Source\mbedtls_open\library/aes.c ****     V(49,5A,B1,DE), V(67,1B,BA,25), V(98,0E,EA,45), V(E1,C0,FE,5D), \
 267:Source\mbedtls_open\library/aes.c ****     V(02,75,2F,C3), V(12,F0,4C,81), V(A3,97,46,8D), V(C6,F9,D3,6B), \
 268:Source\mbedtls_open\library/aes.c ****     V(E7,5F,8F,03), V(95,9C,92,15), V(EB,7A,6D,BF), V(DA,59,52,95), \
 269:Source\mbedtls_open\library/aes.c ****     V(2D,83,BE,D4), V(D3,21,74,58), V(29,69,E0,49), V(44,C8,C9,8E), \
 270:Source\mbedtls_open\library/aes.c ****     V(6A,89,C2,75), V(78,79,8E,F4), V(6B,3E,58,99), V(DD,71,B9,27), \
 271:Source\mbedtls_open\library/aes.c ****     V(B6,4F,E1,BE), V(17,AD,88,F0), V(66,AC,20,C9), V(B4,3A,CE,7D), \
 272:Source\mbedtls_open\library/aes.c ****     V(18,4A,DF,63), V(82,31,1A,E5), V(60,33,51,97), V(45,7F,53,62), \
 273:Source\mbedtls_open\library/aes.c ****     V(E0,77,64,B1), V(84,AE,6B,BB), V(1C,A0,81,FE), V(94,2B,08,F9), \
 274:Source\mbedtls_open\library/aes.c ****     V(58,68,48,70), V(19,FD,45,8F), V(87,6C,DE,94), V(B7,F8,7B,52), \
 275:Source\mbedtls_open\library/aes.c ****     V(23,D3,73,AB), V(E2,02,4B,72), V(57,8F,1F,E3), V(2A,AB,55,66), \
 276:Source\mbedtls_open\library/aes.c ****     V(07,28,EB,B2), V(03,C2,B5,2F), V(9A,7B,C5,86), V(A5,08,37,D3), \
 277:Source\mbedtls_open\library/aes.c ****     V(F2,87,28,30), V(B2,A5,BF,23), V(BA,6A,03,02), V(5C,82,16,ED), \
 278:Source\mbedtls_open\library/aes.c ****     V(2B,1C,CF,8A), V(92,B4,79,A7), V(F0,F2,07,F3), V(A1,E2,69,4E), \
 279:Source\mbedtls_open\library/aes.c ****     V(CD,F4,DA,65), V(D5,BE,05,06), V(1F,62,34,D1), V(8A,FE,A6,C4), \
 280:Source\mbedtls_open\library/aes.c ****     V(9D,53,2E,34), V(A0,55,F3,A2), V(32,E1,8A,05), V(75,EB,F6,A4), \
 281:Source\mbedtls_open\library/aes.c ****     V(39,EC,83,0B), V(AA,EF,60,40), V(06,9F,71,5E), V(51,10,6E,BD), \
 282:Source\mbedtls_open\library/aes.c ****     V(F9,8A,21,3E), V(3D,06,DD,96), V(AE,05,3E,DD), V(46,BD,E6,4D), \
 283:Source\mbedtls_open\library/aes.c ****     V(B5,8D,54,91), V(05,5D,C4,71), V(6F,D4,06,04), V(FF,15,50,60), \
 284:Source\mbedtls_open\library/aes.c ****     V(24,FB,98,19), V(97,E9,BD,D6), V(CC,43,40,89), V(77,9E,D9,67), \
 285:Source\mbedtls_open\library/aes.c ****     V(BD,42,E8,B0), V(88,8B,89,07), V(38,5B,19,E7), V(DB,EE,C8,79), \
 286:Source\mbedtls_open\library/aes.c ****     V(47,0A,7C,A1), V(E9,0F,42,7C), V(C9,1E,84,F8), V(00,00,00,00), \
 287:Source\mbedtls_open\library/aes.c ****     V(83,86,80,09), V(48,ED,2B,32), V(AC,70,11,1E), V(4E,72,5A,6C), \
 288:Source\mbedtls_open\library/aes.c ****     V(FB,FF,0E,FD), V(56,38,85,0F), V(1E,D5,AE,3D), V(27,39,2D,36), \
 289:Source\mbedtls_open\library/aes.c ****     V(64,D9,0F,0A), V(21,A6,5C,68), V(D1,54,5B,9B), V(3A,2E,36,24), \
 290:Source\mbedtls_open\library/aes.c ****     V(B1,67,0A,0C), V(0F,E7,57,93), V(D2,96,EE,B4), V(9E,91,9B,1B), \
 291:Source\mbedtls_open\library/aes.c ****     V(4F,C5,C0,80), V(A2,20,DC,61), V(69,4B,77,5A), V(16,1A,12,1C), \
 292:Source\mbedtls_open\library/aes.c ****     V(0A,BA,93,E2), V(E5,2A,A0,C0), V(43,E0,22,3C), V(1D,17,1B,12), \
 293:Source\mbedtls_open\library/aes.c ****     V(0B,0D,09,0E), V(AD,C7,8B,F2), V(B9,A8,B6,2D), V(C8,A9,1E,14), \
 294:Source\mbedtls_open\library/aes.c ****     V(85,19,F1,57), V(4C,07,75,AF), V(BB,DD,99,EE), V(FD,60,7F,A3), \
 295:Source\mbedtls_open\library/aes.c ****     V(9F,26,01,F7), V(BC,F5,72,5C), V(C5,3B,66,44), V(34,7E,FB,5B), \
 296:Source\mbedtls_open\library/aes.c ****     V(76,29,43,8B), V(DC,C6,23,CB), V(68,FC,ED,B6), V(63,F1,E4,B8), \
 297:Source\mbedtls_open\library/aes.c ****     V(CA,DC,31,D7), V(10,85,63,42), V(40,22,97,13), V(20,11,C6,84), \
 298:Source\mbedtls_open\library/aes.c ****     V(7D,24,4A,85), V(F8,3D,BB,D2), V(11,32,F9,AE), V(6D,A1,29,C7), \
 299:Source\mbedtls_open\library/aes.c ****     V(4B,2F,9E,1D), V(F3,30,B2,DC), V(EC,52,86,0D), V(D0,E3,C1,77), \
 300:Source\mbedtls_open\library/aes.c ****     V(6C,16,B3,2B), V(99,B9,70,A9), V(FA,48,94,11), V(22,64,E9,47), \
 301:Source\mbedtls_open\library/aes.c ****     V(C4,8C,FC,A8), V(1A,3F,F0,A0), V(D8,2C,7D,56), V(EF,90,33,22), \
 302:Source\mbedtls_open\library/aes.c ****     V(C7,4E,49,87), V(C1,D1,38,D9), V(FE,A2,CA,8C), V(36,0B,D4,98), \
 303:Source\mbedtls_open\library/aes.c ****     V(CF,81,F5,A6), V(28,DE,7A,A5), V(26,8E,B7,DA), V(A4,BF,AD,3F), \
 304:Source\mbedtls_open\library/aes.c ****     V(E4,9D,3A,2C), V(0D,92,78,50), V(9B,CC,5F,6A), V(62,46,7E,54), \
 305:Source\mbedtls_open\library/aes.c ****     V(C2,13,8D,F6), V(E8,B8,D8,90), V(5E,F7,39,2E), V(F5,AF,C3,82), \
 306:Source\mbedtls_open\library/aes.c ****     V(BE,80,5D,9F), V(7C,93,D0,69), V(A9,2D,D5,6F), V(B3,12,25,CF), \
 307:Source\mbedtls_open\library/aes.c ****     V(3B,99,AC,C8), V(A7,7D,18,10), V(6E,63,9C,E8), V(7B,BB,3B,DB), \
 308:Source\mbedtls_open\library/aes.c ****     V(09,78,26,CD), V(F4,18,59,6E), V(01,B7,9A,EC), V(A8,9A,4F,83), \
 309:Source\mbedtls_open\library/aes.c ****     V(65,6E,95,E6), V(7E,E6,FF,AA), V(08,CF,BC,21), V(E6,E8,15,EF), \
 310:Source\mbedtls_open\library/aes.c ****     V(D9,9B,E7,BA), V(CE,36,6F,4A), V(D4,09,9F,EA), V(D6,7C,B0,29), \
 311:Source\mbedtls_open\library/aes.c ****     V(AF,B2,A4,31), V(31,23,3F,2A), V(30,94,A5,C6), V(C0,66,A2,35), \
 312:Source\mbedtls_open\library/aes.c ****     V(37,BC,4E,74), V(A6,CA,82,FC), V(B0,D0,90,E0), V(15,D8,A7,33), \
 313:Source\mbedtls_open\library/aes.c ****     V(4A,98,04,F1), V(F7,DA,EC,41), V(0E,50,CD,7F), V(2F,F6,91,17), \
 314:Source\mbedtls_open\library/aes.c ****     V(8D,D6,4D,76), V(4D,B0,EF,43), V(54,4D,AA,CC), V(DF,04,96,E4), \
 315:Source\mbedtls_open\library/aes.c ****     V(E3,B5,D1,9E), V(1B,88,6A,4C), V(B8,1F,2C,C1), V(7F,51,65,46), \
ARM GAS  C:\Users\Phuong\AppData\Local\Temp\ccyLHZOj.s 			page 7


 316:Source\mbedtls_open\library/aes.c ****     V(04,EA,5E,9D), V(5D,35,8C,01), V(73,74,87,FA), V(2E,41,0B,FB), \
 317:Source\mbedtls_open\library/aes.c ****     V(5A,1D,67,B3), V(52,D2,DB,92), V(33,56,10,E9), V(13,47,D6,6D), \
 318:Source\mbedtls_open\library/aes.c ****     V(8C,61,D7,9A), V(7A,0C,A1,37), V(8E,14,F8,59), V(89,3C,13,EB), \
 319:Source\mbedtls_open\library/aes.c ****     V(EE,27,A9,CE), V(35,C9,61,B7), V(ED,E5,1C,E1), V(3C,B1,47,7A), \
 320:Source\mbedtls_open\library/aes.c ****     V(59,DF,D2,9C), V(3F,73,F2,55), V(79,CE,14,18), V(BF,37,C7,73), \
 321:Source\mbedtls_open\library/aes.c ****     V(EA,CD,F7,53), V(5B,AA,FD,5F), V(14,6F,3D,DF), V(86,DB,44,78), \
 322:Source\mbedtls_open\library/aes.c ****     V(81,F3,AF,CA), V(3E,C4,68,B9), V(2C,34,24,38), V(5F,40,A3,C2), \
 323:Source\mbedtls_open\library/aes.c ****     V(72,C3,1D,16), V(0C,25,E2,BC), V(8B,49,3C,28), V(41,95,0D,FF), \
 324:Source\mbedtls_open\library/aes.c ****     V(71,01,A8,39), V(DE,B3,0C,08), V(9C,E4,B4,D8), V(90,C1,56,64), \
 325:Source\mbedtls_open\library/aes.c ****     V(61,84,CB,7B), V(70,B6,32,D5), V(74,5C,6C,48), V(42,57,B8,D0)
 326:Source\mbedtls_open\library/aes.c **** 
 327:Source\mbedtls_open\library/aes.c **** #define V(a,b,c,d) 0x##a##b##c##d
 328:Source\mbedtls_open\library/aes.c **** static const uint32_t RT0[256] = { RT };
 329:Source\mbedtls_open\library/aes.c **** #undef V
 330:Source\mbedtls_open\library/aes.c **** 
 331:Source\mbedtls_open\library/aes.c **** #if !defined(MBEDTLS_AES_FEWER_TABLES)
 332:Source\mbedtls_open\library/aes.c **** 
 333:Source\mbedtls_open\library/aes.c **** #define V(a,b,c,d) 0x##b##c##d##a
 334:Source\mbedtls_open\library/aes.c **** static const uint32_t RT1[256] = { RT };
 335:Source\mbedtls_open\library/aes.c **** #undef V
 336:Source\mbedtls_open\library/aes.c **** 
 337:Source\mbedtls_open\library/aes.c **** #define V(a,b,c,d) 0x##c##d##a##b
 338:Source\mbedtls_open\library/aes.c **** static const uint32_t RT2[256] = { RT };
 339:Source\mbedtls_open\library/aes.c **** #undef V
 340:Source\mbedtls_open\library/aes.c **** 
 341:Source\mbedtls_open\library/aes.c **** #define V(a,b,c,d) 0x##d##a##b##c
 342:Source\mbedtls_open\library/aes.c **** static const uint32_t RT3[256] = { RT };
 343:Source\mbedtls_open\library/aes.c **** #undef V
 344:Source\mbedtls_open\library/aes.c **** 
 345:Source\mbedtls_open\library/aes.c **** #endif /* !MBEDTLS_AES_FEWER_TABLES */
 346:Source\mbedtls_open\library/aes.c **** 
 347:Source\mbedtls_open\library/aes.c **** #undef RT
 348:Source\mbedtls_open\library/aes.c **** 
 349:Source\mbedtls_open\library/aes.c **** /*
 350:Source\mbedtls_open\library/aes.c ****  * Round constants
 351:Source\mbedtls_open\library/aes.c ****  */
 352:Source\mbedtls_open\library/aes.c **** static const uint32_t RCON[10] =
 353:Source\mbedtls_open\library/aes.c **** {
 354:Source\mbedtls_open\library/aes.c ****     0x00000001, 0x00000002, 0x00000004, 0x00000008,
 355:Source\mbedtls_open\library/aes.c ****     0x00000010, 0x00000020, 0x00000040, 0x00000080,
 356:Source\mbedtls_open\library/aes.c ****     0x0000001B, 0x00000036
 357:Source\mbedtls_open\library/aes.c **** };
 358:Source\mbedtls_open\library/aes.c **** 
 359:Source\mbedtls_open\library/aes.c **** #else /* MBEDTLS_AES_ROM_TABLES */
 360:Source\mbedtls_open\library/aes.c **** 
 361:Source\mbedtls_open\library/aes.c **** /*
 362:Source\mbedtls_open\library/aes.c ****  * Forward S-box & tables
 363:Source\mbedtls_open\library/aes.c ****  */
 364:Source\mbedtls_open\library/aes.c **** static unsigned char FSb[256];
 365:Source\mbedtls_open\library/aes.c **** static uint32_t FT0[256];
 366:Source\mbedtls_open\library/aes.c **** #if !defined(MBEDTLS_AES_FEWER_TABLES)
 367:Source\mbedtls_open\library/aes.c **** static uint32_t FT1[256];
 368:Source\mbedtls_open\library/aes.c **** static uint32_t FT2[256];
 369:Source\mbedtls_open\library/aes.c **** static uint32_t FT3[256];
 370:Source\mbedtls_open\library/aes.c **** #endif /* !MBEDTLS_AES_FEWER_TABLES */
 371:Source\mbedtls_open\library/aes.c **** 
 372:Source\mbedtls_open\library/aes.c **** /*
ARM GAS  C:\Users\Phuong\AppData\Local\Temp\ccyLHZOj.s 			page 8


 373:Source\mbedtls_open\library/aes.c ****  * Reverse S-box & tables
 374:Source\mbedtls_open\library/aes.c ****  */
 375:Source\mbedtls_open\library/aes.c **** static unsigned char RSb[256];
 376:Source\mbedtls_open\library/aes.c **** static uint32_t RT0[256];
 377:Source\mbedtls_open\library/aes.c **** #if !defined(MBEDTLS_AES_FEWER_TABLES)
 378:Source\mbedtls_open\library/aes.c **** static uint32_t RT1[256];
 379:Source\mbedtls_open\library/aes.c **** static uint32_t RT2[256];
 380:Source\mbedtls_open\library/aes.c **** static uint32_t RT3[256];
 381:Source\mbedtls_open\library/aes.c **** #endif /* !MBEDTLS_AES_FEWER_TABLES */
 382:Source\mbedtls_open\library/aes.c **** 
 383:Source\mbedtls_open\library/aes.c **** /*
 384:Source\mbedtls_open\library/aes.c ****  * Round constants
 385:Source\mbedtls_open\library/aes.c ****  */
 386:Source\mbedtls_open\library/aes.c **** static uint32_t RCON[10];
 387:Source\mbedtls_open\library/aes.c **** 
 388:Source\mbedtls_open\library/aes.c **** /*
 389:Source\mbedtls_open\library/aes.c ****  * Tables generation code
 390:Source\mbedtls_open\library/aes.c ****  */
 391:Source\mbedtls_open\library/aes.c **** #define ROTL8(x) ( ( x << 8 ) & 0xFFFFFFFF ) | ( x >> 24 )
 392:Source\mbedtls_open\library/aes.c **** #define XTIME(x) ( ( x << 1 ) ^ ( ( x & 0x80 ) ? 0x1B : 0x00 ) )
 393:Source\mbedtls_open\library/aes.c **** #define MUL(x,y) ( ( x && y ) ? pow[(log[x]+log[y]) % 255] : 0 )
 394:Source\mbedtls_open\library/aes.c **** 
 395:Source\mbedtls_open\library/aes.c **** static int aes_init_done = 0;
 396:Source\mbedtls_open\library/aes.c **** 
 397:Source\mbedtls_open\library/aes.c **** static void aes_gen_tables( void )
 398:Source\mbedtls_open\library/aes.c **** {
  28              		.loc 1 398 0
  29              		.cfi_startproc
  30              		@ args = 0, pretend = 0, frame = 2048
  31              		@ frame_needed = 0, uses_anonymous_args = 0
  32 0000 F0B5     		push	{r4, r5, r6, r7, lr}
  33              		.cfi_def_cfa_offset 20
  34              		.cfi_offset 4, -20
  35              		.cfi_offset 5, -16
  36              		.cfi_offset 6, -12
  37              		.cfi_offset 7, -8
  38              		.cfi_offset 14, -4
  39 0002 764C     		ldr	r4, .L22
  40 0004 A544     		add	sp, sp, r4
  41              		.cfi_def_cfa_offset 2072
  42              	.LVL0:
 399:Source\mbedtls_open\library/aes.c ****     int i, x, y, z;
 400:Source\mbedtls_open\library/aes.c ****     int pow[256];
 401:Source\mbedtls_open\library/aes.c ****     int log[256];
 402:Source\mbedtls_open\library/aes.c **** 
 403:Source\mbedtls_open\library/aes.c ****     /*
 404:Source\mbedtls_open\library/aes.c ****      * compute pow and log tables over GF(2^8)
 405:Source\mbedtls_open\library/aes.c ****      */
 406:Source\mbedtls_open\library/aes.c ****     for( i = 0, x = 1; i < 256; i++ )
  43              		.loc 1 406 0
  44 0006 0123     		movs	r3, #1
  45 0008 0021     		movs	r1, #0
  46 000a 10E0     		b	.L2
  47              	.LVL1:
  48              	.L4:
 407:Source\mbedtls_open\library/aes.c ****     {
 408:Source\mbedtls_open\library/aes.c ****         pow[i] = x;
ARM GAS  C:\Users\Phuong\AppData\Local\Temp\ccyLHZOj.s 			page 9


  49              		.loc 1 408 0
  50 000c 8A00     		lsls	r2, r1, #2
  51 000e FFA8     		add	r0, sp, #1020
  52 0010 0430     		adds	r0, r0, #4
  53 0012 1350     		str	r3, [r2, r0]
 409:Source\mbedtls_open\library/aes.c ****         log[x] = i;
  54              		.loc 1 409 0
  55 0014 9A00     		lsls	r2, r3, #2
  56 0016 6846     		mov	r0, sp
  57 0018 1150     		str	r1, [r2, r0]
 410:Source\mbedtls_open\library/aes.c ****         x = ( x ^ XTIME( x ) ) & 0xFF;
  58              		.loc 1 410 0
  59 001a 5800     		lsls	r0, r3, #1
  60 001c 8022     		movs	r2, #128
  61 001e 1A40     		ands	r2, r3
  62 0020 00D0     		beq	.L3
  63 0022 1B22     		movs	r2, #27
  64              	.L3:
  65              		.loc 1 410 0 is_stmt 0 discriminator 4
  66 0024 4240     		eors	r2, r0
  67 0026 5340     		eors	r3, r2
  68              	.LVL2:
  69 0028 FF22     		movs	r2, #255
  70 002a 1340     		ands	r3, r2
  71              	.LVL3:
 406:Source\mbedtls_open\library/aes.c ****     {
  72              		.loc 1 406 0 is_stmt 1 discriminator 4
  73 002c 0131     		adds	r1, r1, #1
  74              	.LVL4:
  75              	.L2:
 406:Source\mbedtls_open\library/aes.c ****     {
  76              		.loc 1 406 0 is_stmt 0 discriminator 2
  77 002e FF29     		cmp	r1, #255
  78 0030 ECDD     		ble	.L4
  79 0032 0123     		movs	r3, #1
  80              	.LVL5:
  81 0034 0021     		movs	r1, #0
  82              	.LVL6:
  83 0036 0BE0     		b	.L5
  84              	.LVL7:
  85              	.L7:
 411:Source\mbedtls_open\library/aes.c ****     }
 412:Source\mbedtls_open\library/aes.c **** 
 413:Source\mbedtls_open\library/aes.c ****     /*
 414:Source\mbedtls_open\library/aes.c ****      * calculate the round constants
 415:Source\mbedtls_open\library/aes.c ****      */
 416:Source\mbedtls_open\library/aes.c ****     for( i = 0, x = 1; i < 10; i++ )
 417:Source\mbedtls_open\library/aes.c ****     {
 418:Source\mbedtls_open\library/aes.c ****         RCON[i] = (uint32_t) x;
  86              		.loc 1 418 0 is_stmt 1
  87 0038 8A00     		lsls	r2, r1, #2
  88 003a 6948     		ldr	r0, .L22+4
  89 003c 1350     		str	r3, [r2, r0]
 419:Source\mbedtls_open\library/aes.c ****         x = XTIME( x ) & 0xFF;
  90              		.loc 1 419 0
  91 003e 5A00     		lsls	r2, r3, #1
  92 0040 8020     		movs	r0, #128
ARM GAS  C:\Users\Phuong\AppData\Local\Temp\ccyLHZOj.s 			page 10


  93 0042 0340     		ands	r3, r0
  94              	.LVL8:
  95 0044 00D0     		beq	.L6
  96 0046 1B23     		movs	r3, #27
  97              	.L6:
  98              		.loc 1 419 0 is_stmt 0 discriminator 4
  99 0048 5340     		eors	r3, r2
 100 004a FF22     		movs	r2, #255
 101 004c 1340     		ands	r3, r2
 102              	.LVL9:
 416:Source\mbedtls_open\library/aes.c ****     {
 103              		.loc 1 416 0 is_stmt 1 discriminator 4
 104 004e 0131     		adds	r1, r1, #1
 105              	.LVL10:
 106              	.L5:
 416:Source\mbedtls_open\library/aes.c ****     {
 107              		.loc 1 416 0 is_stmt 0 discriminator 2
 108 0050 0929     		cmp	r1, #9
 109 0052 F1DD     		ble	.L7
 420:Source\mbedtls_open\library/aes.c ****     }
 421:Source\mbedtls_open\library/aes.c **** 
 422:Source\mbedtls_open\library/aes.c ****     /*
 423:Source\mbedtls_open\library/aes.c ****      * generate the forward and reverse S-boxes
 424:Source\mbedtls_open\library/aes.c ****      */
 425:Source\mbedtls_open\library/aes.c ****     FSb[0x00] = 0x63;
 110              		.loc 1 425 0 is_stmt 1
 111 0054 6321     		movs	r1, #99
 112              	.LVL11:
 113 0056 2823     		movs	r3, #40
 114              	.LVL12:
 115 0058 614A     		ldr	r2, .L22+4
 116 005a D154     		strb	r1, [r2, r3]
 426:Source\mbedtls_open\library/aes.c ****     RSb[0x63] = 0x00;
 117              		.loc 1 426 0
 118 005c 614B     		ldr	r3, .L22+8
 119 005e 8B33     		adds	r3, r3, #139
 120 0060 0022     		movs	r2, #0
 121 0062 1A70     		strb	r2, [r3]
 122              	.LVL13:
 427:Source\mbedtls_open\library/aes.c **** 
 428:Source\mbedtls_open\library/aes.c ****     for( i = 1; i < 256; i++ )
 123              		.loc 1 428 0
 124 0064 0120     		movs	r0, #1
 125 0066 29E0     		b	.L8
 126              	.LVL14:
 127              	.L9:
 429:Source\mbedtls_open\library/aes.c ****     {
 430:Source\mbedtls_open\library/aes.c ****         x = pow[255 - log[i]];
 128              		.loc 1 430 0 discriminator 3
 129 0068 8300     		lsls	r3, r0, #2
 130 006a 6A46     		mov	r2, sp
 131 006c 9B58     		ldr	r3, [r3, r2]
 132 006e FF24     		movs	r4, #255
 133 0070 E31A     		subs	r3, r4, r3
 134 0072 9B00     		lsls	r3, r3, #2
 135 0074 FFAA     		add	r2, sp, #1020
 136 0076 0432     		adds	r2, r2, #4
ARM GAS  C:\Users\Phuong\AppData\Local\Temp\ccyLHZOj.s 			page 11


 137 0078 9B58     		ldr	r3, [r3, r2]
 138              	.LVL15:
 431:Source\mbedtls_open\library/aes.c **** 
 432:Source\mbedtls_open\library/aes.c ****         y  = x; y = ( ( y << 1 ) | ( y >> 7 ) ) & 0xFF;
 139              		.loc 1 432 0 discriminator 3
 140 007a 5900     		lsls	r1, r3, #1
 141 007c DA11     		asrs	r2, r3, #7
 142 007e 1143     		orrs	r1, r2
 143 0080 2140     		ands	r1, r4
 144              	.LVL16:
 433:Source\mbedtls_open\library/aes.c ****         x ^= y; y = ( ( y << 1 ) | ( y >> 7 ) ) & 0xFF;
 145              		.loc 1 433 0 discriminator 3
 146 0082 4B40     		eors	r3, r1
 147              	.LVL17:
 148 0084 4A00     		lsls	r2, r1, #1
 149 0086 C911     		asrs	r1, r1, #7
 150              	.LVL18:
 151 0088 0A43     		orrs	r2, r1
 152 008a 2240     		ands	r2, r4
 153              	.LVL19:
 434:Source\mbedtls_open\library/aes.c ****         x ^= y; y = ( ( y << 1 ) | ( y >> 7 ) ) & 0xFF;
 154              		.loc 1 434 0 discriminator 3
 155 008c 5340     		eors	r3, r2
 156              	.LVL20:
 157 008e 1900     		movs	r1, r3
 158              	.LVL21:
 159 0090 5300     		lsls	r3, r2, #1
 160 0092 D211     		asrs	r2, r2, #7
 161              	.LVL22:
 162 0094 1A43     		orrs	r2, r3
 163 0096 1300     		movs	r3, r2
 164 0098 2340     		ands	r3, r4
 165              	.LVL23:
 435:Source\mbedtls_open\library/aes.c ****         x ^= y; y = ( ( y << 1 ) | ( y >> 7 ) ) & 0xFF;
 166              		.loc 1 435 0 discriminator 3
 167 009a 5940     		eors	r1, r3
 168              	.LVL24:
 169 009c 5D00     		lsls	r5, r3, #1
 170 009e DA11     		asrs	r2, r3, #7
 171 00a0 2B00     		movs	r3, r5
 172              	.LVL25:
 173 00a2 1343     		orrs	r3, r2
 174 00a4 2340     		ands	r3, r4
 175              	.LVL26:
 436:Source\mbedtls_open\library/aes.c ****         x ^= y ^ 0x63;
 176              		.loc 1 436 0 discriminator 3
 177 00a6 6322     		movs	r2, #99
 178 00a8 5340     		eors	r3, r2
 179              	.LVL27:
 180 00aa 5940     		eors	r1, r3
 181              	.LVL28:
 437:Source\mbedtls_open\library/aes.c **** 
 438:Source\mbedtls_open\library/aes.c ****         FSb[i] = (unsigned char) x;
 182              		.loc 1 438 0 discriminator 3
 183 00ac 3B3A     		subs	r2, r2, #59
 184 00ae 4C4B     		ldr	r3, .L22+4
 185              	.LVL29:
ARM GAS  C:\Users\Phuong\AppData\Local\Temp\ccyLHZOj.s 			page 12


 186 00b0 1B18     		adds	r3, r3, r0
 187 00b2 9954     		strb	r1, [r3, r2]
 439:Source\mbedtls_open\library/aes.c ****         RSb[x] = (unsigned char) i;
 188              		.loc 1 439 0 discriminator 3
 189 00b4 4B4B     		ldr	r3, .L22+8
 190 00b6 5918     		adds	r1, r3, r1
 191              	.LVL30:
 192 00b8 8854     		strb	r0, [r1, r2]
 428:Source\mbedtls_open\library/aes.c ****     {
 193              		.loc 1 428 0 discriminator 3
 194 00ba 0130     		adds	r0, r0, #1
 195              	.LVL31:
 196              	.L8:
 428:Source\mbedtls_open\library/aes.c ****     {
 197              		.loc 1 428 0 is_stmt 0 discriminator 1
 198 00bc FF28     		cmp	r0, #255
 199 00be D3DD     		ble	.L9
 200 00c0 0024     		movs	r4, #0
 201 00c2 85E0     		b	.L10
 202              	.LVL32:
 203              	.L16:
 440:Source\mbedtls_open\library/aes.c ****     }
 441:Source\mbedtls_open\library/aes.c **** 
 442:Source\mbedtls_open\library/aes.c ****     /*
 443:Source\mbedtls_open\library/aes.c ****      * generate the forward and reverse tables
 444:Source\mbedtls_open\library/aes.c ****      */
 445:Source\mbedtls_open\library/aes.c ****     for( i = 0; i < 256; i++ )
 446:Source\mbedtls_open\library/aes.c ****     {
 447:Source\mbedtls_open\library/aes.c ****         x = FSb[i];
 204              		.loc 1 447 0 is_stmt 1
 205 00c4 464B     		ldr	r3, .L22+4
 206 00c6 1B19     		adds	r3, r3, r4
 207 00c8 2822     		movs	r2, #40
 208 00ca 9B5C     		ldrb	r3, [r3, r2]
 209              	.LVL33:
 448:Source\mbedtls_open\library/aes.c ****         y = XTIME( x ) & 0xFF;
 210              		.loc 1 448 0
 211 00cc 5A00     		lsls	r2, r3, #1
 212 00ce 7F21     		movs	r1, #127
 213 00d0 1800     		movs	r0, r3
 214 00d2 8843     		bics	r0, r1
 215 00d4 01D0     		beq	.L17
 216 00d6 1B21     		movs	r1, #27
 217 00d8 00E0     		b	.L11
 218              	.L17:
 219 00da 0021     		movs	r1, #0
 220              	.L11:
 221              		.loc 1 448 0 is_stmt 0 discriminator 4
 222 00dc 4A40     		eors	r2, r1
 223 00de FF21     		movs	r1, #255
 224 00e0 0A40     		ands	r2, r1
 225              	.LVL34:
 449:Source\mbedtls_open\library/aes.c ****         z =  ( y ^ x ) & 0xFF;
 226              		.loc 1 449 0 is_stmt 1 discriminator 4
 227 00e2 1800     		movs	r0, r3
 228 00e4 5040     		eors	r0, r2
 229              	.LVL35:
ARM GAS  C:\Users\Phuong\AppData\Local\Temp\ccyLHZOj.s 			page 13


 450:Source\mbedtls_open\library/aes.c **** 
 451:Source\mbedtls_open\library/aes.c ****         FT0[i] = ( (uint32_t) y       ) ^
 452:Source\mbedtls_open\library/aes.c ****                  ( (uint32_t) x <<  8 ) ^
 230              		.loc 1 452 0 discriminator 4
 231 00e6 1902     		lsls	r1, r3, #8
 451:Source\mbedtls_open\library/aes.c ****                  ( (uint32_t) x <<  8 ) ^
 232              		.loc 1 451 0 discriminator 4
 233 00e8 4A40     		eors	r2, r1
 234              	.LVL36:
 453:Source\mbedtls_open\library/aes.c ****                  ( (uint32_t) x << 16 ) ^
 235              		.loc 1 453 0 discriminator 4
 236 00ea 1904     		lsls	r1, r3, #16
 452:Source\mbedtls_open\library/aes.c ****                  ( (uint32_t) x << 16 ) ^
 237              		.loc 1 452 0 discriminator 4
 238 00ec 4A40     		eors	r2, r1
 239              		.loc 1 453 0 discriminator 4
 240 00ee 0306     		lsls	r3, r0, #24
 241              	.LVL37:
 242 00f0 5340     		eors	r3, r2
 451:Source\mbedtls_open\library/aes.c ****                  ( (uint32_t) x <<  8 ) ^
 243              		.loc 1 451 0 discriminator 4
 244 00f2 A200     		lsls	r2, r4, #2
 245 00f4 3C49     		ldr	r1, .L22+12
 246 00f6 8918     		adds	r1, r1, r2
 247 00f8 8B62     		str	r3, [r1, #40]
 454:Source\mbedtls_open\library/aes.c ****                  ( (uint32_t) z << 24 );
 455:Source\mbedtls_open\library/aes.c **** 
 456:Source\mbedtls_open\library/aes.c **** #if !defined(MBEDTLS_AES_FEWER_TABLES)
 457:Source\mbedtls_open\library/aes.c ****         FT1[i] = ROTL8( FT0[i] );
 248              		.loc 1 457 0 discriminator 4
 249 00fa 1821     		movs	r1, #24
 250 00fc CB41     		rors	r3, r3, r1
 251 00fe 3B48     		ldr	r0, .L22+16
 252              	.LVL38:
 253 0100 8018     		adds	r0, r0, r2
 254 0102 8362     		str	r3, [r0, #40]
 458:Source\mbedtls_open\library/aes.c ****         FT2[i] = ROTL8( FT1[i] );
 255              		.loc 1 458 0 discriminator 4
 256 0104 CB41     		rors	r3, r3, r1
 257 0106 3A48     		ldr	r0, .L22+20
 258 0108 8018     		adds	r0, r0, r2
 259 010a 8362     		str	r3, [r0, #40]
 459:Source\mbedtls_open\library/aes.c ****         FT3[i] = ROTL8( FT2[i] );
 260              		.loc 1 459 0 discriminator 4
 261 010c CB41     		rors	r3, r3, r1
 262 010e 3949     		ldr	r1, .L22+24
 263 0110 8A18     		adds	r2, r1, r2
 264 0112 9362     		str	r3, [r2, #40]
 460:Source\mbedtls_open\library/aes.c **** #endif /* !MBEDTLS_AES_FEWER_TABLES */
 461:Source\mbedtls_open\library/aes.c **** 
 462:Source\mbedtls_open\library/aes.c ****         x = RSb[i];
 265              		.loc 1 462 0 discriminator 4
 266 0114 334B     		ldr	r3, .L22+8
 267 0116 1B19     		adds	r3, r3, r4
 268 0118 2822     		movs	r2, #40
 269              	.LVL39:
 270 011a 9E5C     		ldrb	r6, [r3, r2]
ARM GAS  C:\Users\Phuong\AppData\Local\Temp\ccyLHZOj.s 			page 14


 271              	.LVL40:
 463:Source\mbedtls_open\library/aes.c **** 
 464:Source\mbedtls_open\library/aes.c ****         RT0[i] = ( (uint32_t) MUL( 0x0E, x )       ) ^
 272              		.loc 1 464 0 discriminator 4
 273 011c 002E     		cmp	r6, #0
 274 011e 0CD0     		beq	.L18
 275              		.loc 1 464 0 is_stmt 0 discriminator 1
 276 0120 0E98     		ldr	r0, [sp, #56]
 277 0122 B300     		lsls	r3, r6, #2
 278 0124 6A46     		mov	r2, sp
 279 0126 9B58     		ldr	r3, [r3, r2]
 280 0128 C018     		adds	r0, r0, r3
 281 012a FF21     		movs	r1, #255
 282 012c FFF7FEFF 		bl	__aeabi_idivmod
 283              	.LVL41:
 284 0130 8900     		lsls	r1, r1, #2
 285 0132 FFAB     		add	r3, sp, #1020
 286 0134 0433     		adds	r3, r3, #4
 287 0136 CD58     		ldr	r5, [r1, r3]
 288 0138 00E0     		b	.L12
 289              	.L18:
 290              		.loc 1 464 0
 291 013a 0025     		movs	r5, #0
 292              	.L12:
 465:Source\mbedtls_open\library/aes.c ****                  ( (uint32_t) MUL( 0x09, x ) <<  8 ) ^
 293              		.loc 1 465 0 is_stmt 1
 294 013c 002E     		cmp	r6, #0
 295 013e 0DD0     		beq	.L19
 296              		.loc 1 465 0 is_stmt 0 discriminator 1
 297 0140 0998     		ldr	r0, [sp, #36]
 298 0142 B300     		lsls	r3, r6, #2
 299 0144 6A46     		mov	r2, sp
 300 0146 9B58     		ldr	r3, [r3, r2]
 301 0148 C018     		adds	r0, r0, r3
 302 014a FF21     		movs	r1, #255
 303 014c FFF7FEFF 		bl	__aeabi_idivmod
 304              	.LVL42:
 305 0150 8900     		lsls	r1, r1, #2
 306 0152 FFAB     		add	r3, sp, #1020
 307 0154 0433     		adds	r3, r3, #4
 308 0156 CB58     		ldr	r3, [r1, r3]
 309 0158 1B02     		lsls	r3, r3, #8
 310 015a 00E0     		b	.L13
 311              	.L19:
 312              		.loc 1 465 0
 313 015c 0023     		movs	r3, #0
 314              	.L13:
 464:Source\mbedtls_open\library/aes.c ****                  ( (uint32_t) MUL( 0x09, x ) <<  8 ) ^
 315              		.loc 1 464 0 is_stmt 1
 316 015e 5D40     		eors	r5, r3
 317 0160 2F00     		movs	r7, r5
 466:Source\mbedtls_open\library/aes.c ****                  ( (uint32_t) MUL( 0x0D, x ) << 16 ) ^
 318              		.loc 1 466 0
 319 0162 002E     		cmp	r6, #0
 320 0164 0DD0     		beq	.L20
 321              		.loc 1 466 0 is_stmt 0 discriminator 1
 322 0166 0D98     		ldr	r0, [sp, #52]
ARM GAS  C:\Users\Phuong\AppData\Local\Temp\ccyLHZOj.s 			page 15


 323 0168 B300     		lsls	r3, r6, #2
 324 016a 6A46     		mov	r2, sp
 325 016c 9B58     		ldr	r3, [r3, r2]
 326 016e C018     		adds	r0, r0, r3
 327 0170 FF21     		movs	r1, #255
 328 0172 FFF7FEFF 		bl	__aeabi_idivmod
 329              	.LVL43:
 330 0176 8900     		lsls	r1, r1, #2
 331 0178 FFAB     		add	r3, sp, #1020
 332 017a 0433     		adds	r3, r3, #4
 333 017c CB58     		ldr	r3, [r1, r3]
 334 017e 1B04     		lsls	r3, r3, #16
 335 0180 00E0     		b	.L14
 336              	.L20:
 337              		.loc 1 466 0
 338 0182 0023     		movs	r3, #0
 339              	.L14:
 465:Source\mbedtls_open\library/aes.c ****                  ( (uint32_t) MUL( 0x09, x ) <<  8 ) ^
 340              		.loc 1 465 0 is_stmt 1
 341 0184 7B40     		eors	r3, r7
 342 0186 1D00     		movs	r5, r3
 467:Source\mbedtls_open\library/aes.c ****                  ( (uint32_t) MUL( 0x0B, x ) << 24 );
 343              		.loc 1 467 0
 344 0188 002E     		cmp	r6, #0
 345 018a 0DD0     		beq	.L21
 346              		.loc 1 467 0 is_stmt 0 discriminator 1
 347 018c 0B98     		ldr	r0, [sp, #44]
 348 018e B300     		lsls	r3, r6, #2
 349 0190 6A46     		mov	r2, sp
 350 0192 9B58     		ldr	r3, [r3, r2]
 351 0194 C018     		adds	r0, r0, r3
 352 0196 FF21     		movs	r1, #255
 353 0198 FFF7FEFF 		bl	__aeabi_idivmod
 354              	.LVL44:
 355 019c 8900     		lsls	r1, r1, #2
 356 019e FFAB     		add	r3, sp, #1020
 357 01a0 0433     		adds	r3, r3, #4
 358 01a2 CB58     		ldr	r3, [r1, r3]
 359 01a4 1B06     		lsls	r3, r3, #24
 360 01a6 00E0     		b	.L15
 361              	.L21:
 362              		.loc 1 467 0
 363 01a8 0023     		movs	r3, #0
 364              	.L15:
 466:Source\mbedtls_open\library/aes.c ****                  ( (uint32_t) MUL( 0x0D, x ) << 16 ) ^
 365              		.loc 1 466 0 is_stmt 1 discriminator 2
 366 01aa 6B40     		eors	r3, r5
 464:Source\mbedtls_open\library/aes.c ****                  ( (uint32_t) MUL( 0x09, x ) <<  8 ) ^
 367              		.loc 1 464 0 discriminator 2
 368 01ac A200     		lsls	r2, r4, #2
 369 01ae 1249     		ldr	r1, .L22+28
 370 01b0 8918     		adds	r1, r1, r2
 371 01b2 8B62     		str	r3, [r1, #40]
 468:Source\mbedtls_open\library/aes.c **** 
 469:Source\mbedtls_open\library/aes.c **** #if !defined(MBEDTLS_AES_FEWER_TABLES)
 470:Source\mbedtls_open\library/aes.c ****         RT1[i] = ROTL8( RT0[i] );
 372              		.loc 1 470 0 discriminator 2
ARM GAS  C:\Users\Phuong\AppData\Local\Temp\ccyLHZOj.s 			page 16


 373 01b4 1821     		movs	r1, #24
 374 01b6 CB41     		rors	r3, r3, r1
 375 01b8 1048     		ldr	r0, .L22+32
 376 01ba 8018     		adds	r0, r0, r2
 377 01bc 8362     		str	r3, [r0, #40]
 471:Source\mbedtls_open\library/aes.c ****         RT2[i] = ROTL8( RT1[i] );
 378              		.loc 1 471 0 discriminator 2
 379 01be CB41     		rors	r3, r3, r1
 380 01c0 0F48     		ldr	r0, .L22+36
 381 01c2 8018     		adds	r0, r0, r2
 382 01c4 8362     		str	r3, [r0, #40]
 472:Source\mbedtls_open\library/aes.c ****         RT3[i] = ROTL8( RT2[i] );
 383              		.loc 1 472 0 discriminator 2
 384 01c6 CB41     		rors	r3, r3, r1
 385 01c8 0E49     		ldr	r1, .L22+40
 386 01ca 8A18     		adds	r2, r1, r2
 387 01cc 9362     		str	r3, [r2, #40]
 445:Source\mbedtls_open\library/aes.c ****     {
 388              		.loc 1 445 0 discriminator 2
 389 01ce 0134     		adds	r4, r4, #1
 390              	.LVL45:
 391              	.L10:
 445:Source\mbedtls_open\library/aes.c ****     {
 392              		.loc 1 445 0 is_stmt 0 discriminator 1
 393 01d0 FF2C     		cmp	r4, #255
 394 01d2 00DC     		bgt	.LCB402
 395 01d4 76E7     		b	.L16	@long jump
 396              	.LCB402:
 473:Source\mbedtls_open\library/aes.c **** #endif /* !MBEDTLS_AES_FEWER_TABLES */
 474:Source\mbedtls_open\library/aes.c ****     }
 475:Source\mbedtls_open\library/aes.c **** }
 397              		.loc 1 475 0 is_stmt 1
 398 01d6 0C4B     		ldr	r3, .L22+44
 399 01d8 9D44     		add	sp, sp, r3
 400              		@ sp needed
 401              	.LVL46:
 402 01da F0BD     		pop	{r4, r5, r6, r7, pc}
 403              	.L23:
 404              		.align	2
 405              	.L22:
 406 01dc FCF7FFFF 		.word	-2052
 407 01e0 00000000 		.word	.LANCHOR0
 408 01e4 00010000 		.word	.LANCHOR1
 409 01e8 00020000 		.word	.LANCHOR2
 410 01ec 00060000 		.word	.LANCHOR3
 411 01f0 000A0000 		.word	.LANCHOR4
 412 01f4 000E0000 		.word	.LANCHOR5
 413 01f8 00120000 		.word	.LANCHOR6
 414 01fc 00160000 		.word	.LANCHOR7
 415 0200 001A0000 		.word	.LANCHOR8
 416 0204 001E0000 		.word	.LANCHOR9
 417 0208 04080000 		.word	2052
 418              		.cfi_endproc
 419              	.LFE1:
 420              		.size	aes_gen_tables, .-aes_gen_tables
 421              		.section	.text.mbedtls_aes_init,"ax",%progbits
 422              		.align	2
ARM GAS  C:\Users\Phuong\AppData\Local\Temp\ccyLHZOj.s 			page 17


 423              		.global	mbedtls_aes_init
 424              		.code	16
 425              		.thumb_func
 426              		.type	mbedtls_aes_init, %function
 427              	mbedtls_aes_init:
 428              	.LFB2:
 476:Source\mbedtls_open\library/aes.c **** 
 477:Source\mbedtls_open\library/aes.c **** #undef ROTL8
 478:Source\mbedtls_open\library/aes.c **** 
 479:Source\mbedtls_open\library/aes.c **** #endif /* MBEDTLS_AES_ROM_TABLES */
 480:Source\mbedtls_open\library/aes.c **** 
 481:Source\mbedtls_open\library/aes.c **** #if defined(MBEDTLS_AES_FEWER_TABLES)
 482:Source\mbedtls_open\library/aes.c **** 
 483:Source\mbedtls_open\library/aes.c **** #define ROTL8(x)  ( (uint32_t)( ( x ) <<  8 ) + (uint32_t)( ( x ) >> 24 ) )
 484:Source\mbedtls_open\library/aes.c **** #define ROTL16(x) ( (uint32_t)( ( x ) << 16 ) + (uint32_t)( ( x ) >> 16 ) )
 485:Source\mbedtls_open\library/aes.c **** #define ROTL24(x) ( (uint32_t)( ( x ) << 24 ) + (uint32_t)( ( x ) >>  8 ) )
 486:Source\mbedtls_open\library/aes.c **** 
 487:Source\mbedtls_open\library/aes.c **** #define AES_RT0(idx) RT0[idx]
 488:Source\mbedtls_open\library/aes.c **** #define AES_RT1(idx) ROTL8(  RT0[idx] )
 489:Source\mbedtls_open\library/aes.c **** #define AES_RT2(idx) ROTL16( RT0[idx] )
 490:Source\mbedtls_open\library/aes.c **** #define AES_RT3(idx) ROTL24( RT0[idx] )
 491:Source\mbedtls_open\library/aes.c **** 
 492:Source\mbedtls_open\library/aes.c **** #define AES_FT0(idx) FT0[idx]
 493:Source\mbedtls_open\library/aes.c **** #define AES_FT1(idx) ROTL8(  FT0[idx] )
 494:Source\mbedtls_open\library/aes.c **** #define AES_FT2(idx) ROTL16( FT0[idx] )
 495:Source\mbedtls_open\library/aes.c **** #define AES_FT3(idx) ROTL24( FT0[idx] )
 496:Source\mbedtls_open\library/aes.c **** 
 497:Source\mbedtls_open\library/aes.c **** #else /* MBEDTLS_AES_FEWER_TABLES */
 498:Source\mbedtls_open\library/aes.c **** 
 499:Source\mbedtls_open\library/aes.c **** #define AES_RT0(idx) RT0[idx]
 500:Source\mbedtls_open\library/aes.c **** #define AES_RT1(idx) RT1[idx]
 501:Source\mbedtls_open\library/aes.c **** #define AES_RT2(idx) RT2[idx]
 502:Source\mbedtls_open\library/aes.c **** #define AES_RT3(idx) RT3[idx]
 503:Source\mbedtls_open\library/aes.c **** 
 504:Source\mbedtls_open\library/aes.c **** #define AES_FT0(idx) FT0[idx]
 505:Source\mbedtls_open\library/aes.c **** #define AES_FT1(idx) FT1[idx]
 506:Source\mbedtls_open\library/aes.c **** #define AES_FT2(idx) FT2[idx]
 507:Source\mbedtls_open\library/aes.c **** #define AES_FT3(idx) FT3[idx]
 508:Source\mbedtls_open\library/aes.c **** 
 509:Source\mbedtls_open\library/aes.c **** #endif /* MBEDTLS_AES_FEWER_TABLES */
 510:Source\mbedtls_open\library/aes.c **** 
 511:Source\mbedtls_open\library/aes.c **** void mbedtls_aes_init( mbedtls_aes_context *ctx )
 512:Source\mbedtls_open\library/aes.c **** {
 429              		.loc 1 512 0
 430              		.cfi_startproc
 431              		@ args = 0, pretend = 0, frame = 0
 432              		@ frame_needed = 0, uses_anonymous_args = 0
 433              	.LVL47:
 434 0000 10B5     		push	{r4, lr}
 435              		.cfi_def_cfa_offset 8
 436              		.cfi_offset 4, -8
 437              		.cfi_offset 14, -4
 513:Source\mbedtls_open\library/aes.c ****     memset( ctx, 0, sizeof( mbedtls_aes_context ) );
 438              		.loc 1 513 0
 439 0002 8C22     		movs	r2, #140
 440 0004 5200     		lsls	r2, r2, #1
 441 0006 0021     		movs	r1, #0
ARM GAS  C:\Users\Phuong\AppData\Local\Temp\ccyLHZOj.s 			page 18


 442 0008 FFF7FEFF 		bl	memset
 443              	.LVL48:
 514:Source\mbedtls_open\library/aes.c **** }
 444              		.loc 1 514 0
 445              		@ sp needed
 446 000c 10BD     		pop	{r4, pc}
 447              		.cfi_endproc
 448              	.LFE2:
 449              		.size	mbedtls_aes_init, .-mbedtls_aes_init
 450 000e C046     		.section	.text.mbedtls_aes_free,"ax",%progbits
 451              		.align	2
 452              		.global	mbedtls_aes_free
 453              		.code	16
 454              		.thumb_func
 455              		.type	mbedtls_aes_free, %function
 456              	mbedtls_aes_free:
 457              	.LFB3:
 515:Source\mbedtls_open\library/aes.c **** 
 516:Source\mbedtls_open\library/aes.c **** void mbedtls_aes_free( mbedtls_aes_context *ctx )
 517:Source\mbedtls_open\library/aes.c **** {
 458              		.loc 1 517 0
 459              		.cfi_startproc
 460              		@ args = 0, pretend = 0, frame = 0
 461              		@ frame_needed = 0, uses_anonymous_args = 0
 462              	.LVL49:
 463 0000 10B5     		push	{r4, lr}
 464              		.cfi_def_cfa_offset 8
 465              		.cfi_offset 4, -8
 466              		.cfi_offset 14, -4
 518:Source\mbedtls_open\library/aes.c ****     if( ctx == NULL )
 467              		.loc 1 518 0
 468 0002 0028     		cmp	r0, #0
 469 0004 03D0     		beq	.L25
 519:Source\mbedtls_open\library/aes.c ****         return;
 520:Source\mbedtls_open\library/aes.c **** 
 521:Source\mbedtls_open\library/aes.c ****     mbedtls_platform_zeroize( ctx, sizeof( mbedtls_aes_context ) );
 470              		.loc 1 521 0
 471 0006 8C21     		movs	r1, #140
 472 0008 4900     		lsls	r1, r1, #1
 473 000a FFF7FEFF 		bl	mbedtls_platform_zeroize
 474              	.LVL50:
 475              	.L25:
 522:Source\mbedtls_open\library/aes.c **** }
 476              		.loc 1 522 0
 477              		@ sp needed
 478 000e 10BD     		pop	{r4, pc}
 479              		.cfi_endproc
 480              	.LFE3:
 481              		.size	mbedtls_aes_free, .-mbedtls_aes_free
 482              		.section	.text.mbedtls_aes_setkey_enc,"ax",%progbits
 483              		.align	2
 484              		.global	mbedtls_aes_setkey_enc
 485              		.code	16
 486              		.thumb_func
 487              		.type	mbedtls_aes_setkey_enc, %function
 488              	mbedtls_aes_setkey_enc:
 489              	.LFB4:
ARM GAS  C:\Users\Phuong\AppData\Local\Temp\ccyLHZOj.s 			page 19


 523:Source\mbedtls_open\library/aes.c **** 
 524:Source\mbedtls_open\library/aes.c **** #if defined(MBEDTLS_CIPHER_MODE_XTS)
 525:Source\mbedtls_open\library/aes.c **** void mbedtls_aes_xts_init( mbedtls_aes_xts_context *ctx )
 526:Source\mbedtls_open\library/aes.c **** {
 527:Source\mbedtls_open\library/aes.c ****     mbedtls_aes_init( &ctx->crypt );
 528:Source\mbedtls_open\library/aes.c ****     mbedtls_aes_init( &ctx->tweak );
 529:Source\mbedtls_open\library/aes.c **** }
 530:Source\mbedtls_open\library/aes.c **** 
 531:Source\mbedtls_open\library/aes.c **** void mbedtls_aes_xts_free( mbedtls_aes_xts_context *ctx )
 532:Source\mbedtls_open\library/aes.c **** {
 533:Source\mbedtls_open\library/aes.c ****     mbedtls_aes_free( &ctx->crypt );
 534:Source\mbedtls_open\library/aes.c ****     mbedtls_aes_free( &ctx->tweak );
 535:Source\mbedtls_open\library/aes.c **** }
 536:Source\mbedtls_open\library/aes.c **** #endif /* MBEDTLS_CIPHER_MODE_XTS */
 537:Source\mbedtls_open\library/aes.c **** 
 538:Source\mbedtls_open\library/aes.c **** /*
 539:Source\mbedtls_open\library/aes.c ****  * AES key schedule (encryption)
 540:Source\mbedtls_open\library/aes.c ****  */
 541:Source\mbedtls_open\library/aes.c **** #if !defined(MBEDTLS_AES_SETKEY_ENC_ALT)
 542:Source\mbedtls_open\library/aes.c **** int mbedtls_aes_setkey_enc( mbedtls_aes_context *ctx, const unsigned char *key,
 543:Source\mbedtls_open\library/aes.c ****                     unsigned int keybits )
 544:Source\mbedtls_open\library/aes.c **** {
 490              		.loc 1 544 0
 491              		.cfi_startproc
 492              		@ args = 0, pretend = 0, frame = 0
 493              		@ frame_needed = 0, uses_anonymous_args = 0
 494              	.LVL51:
 495 0000 F0B5     		push	{r4, r5, r6, r7, lr}
 496              		.cfi_def_cfa_offset 20
 497              		.cfi_offset 4, -20
 498              		.cfi_offset 5, -16
 499              		.cfi_offset 6, -12
 500              		.cfi_offset 7, -8
 501              		.cfi_offset 14, -4
 502 0002 4746     		mov	r7, r8
 503 0004 80B4     		push	{r7}
 504              		.cfi_def_cfa_offset 24
 505              		.cfi_offset 8, -24
 506 0006 8046     		mov	r8, r0
 507 0008 0C00     		movs	r4, r1
 508 000a 1500     		movs	r5, r2
 545:Source\mbedtls_open\library/aes.c ****     unsigned int i;
 546:Source\mbedtls_open\library/aes.c ****     uint32_t *RK;
 547:Source\mbedtls_open\library/aes.c **** 
 548:Source\mbedtls_open\library/aes.c **** #if !defined(MBEDTLS_AES_ROM_TABLES)
 549:Source\mbedtls_open\library/aes.c ****     if( aes_init_done == 0 )
 509              		.loc 1 549 0
 510 000c 814B     		ldr	r3, .L49
 511 000e 9B6A     		ldr	r3, [r3, #40]
 512 0010 002B     		cmp	r3, #0
 513 0012 04D1     		bne	.L28
 550:Source\mbedtls_open\library/aes.c ****     {
 551:Source\mbedtls_open\library/aes.c ****         aes_gen_tables();
 514              		.loc 1 551 0
 515 0014 FFF7FEFF 		bl	aes_gen_tables
 516              	.LVL52:
 552:Source\mbedtls_open\library/aes.c ****         aes_init_done = 1;
ARM GAS  C:\Users\Phuong\AppData\Local\Temp\ccyLHZOj.s 			page 20


 517              		.loc 1 552 0
 518 0018 0122     		movs	r2, #1
 519 001a 7E4B     		ldr	r3, .L49
 520 001c 9A62     		str	r2, [r3, #40]
 521              	.L28:
 553:Source\mbedtls_open\library/aes.c **** 
 554:Source\mbedtls_open\library/aes.c ****     }
 555:Source\mbedtls_open\library/aes.c **** #endif
 556:Source\mbedtls_open\library/aes.c **** 
 557:Source\mbedtls_open\library/aes.c ****     switch( keybits )
 522              		.loc 1 557 0
 523 001e C02D     		cmp	r5, #192
 524 0020 0AD0     		beq	.L30
 525 0022 8023     		movs	r3, #128
 526 0024 5B00     		lsls	r3, r3, #1
 527 0026 9D42     		cmp	r5, r3
 528 0028 0AD0     		beq	.L31
 529 002a 802D     		cmp	r5, #128
 530 002c 00D0     		beq	.LCB518
 531 002e EAE0     		b	.L47	@long jump
 532              	.LCB518:
 558:Source\mbedtls_open\library/aes.c ****     {
 559:Source\mbedtls_open\library/aes.c ****         case 128: ctx->nr = 10; break;
 533              		.loc 1 559 0
 534 0030 F63B     		subs	r3, r3, #246
 535 0032 4246     		mov	r2, r8
 536 0034 1360     		str	r3, [r2]
 537 0036 06E0     		b	.L33
 538              	.L30:
 560:Source\mbedtls_open\library/aes.c ****         case 192: ctx->nr = 12; break;
 539              		.loc 1 560 0
 540 0038 0C23     		movs	r3, #12
 541 003a 4246     		mov	r2, r8
 542 003c 1360     		str	r3, [r2]
 543 003e 02E0     		b	.L33
 544              	.L31:
 561:Source\mbedtls_open\library/aes.c ****         case 256: ctx->nr = 14; break;
 545              		.loc 1 561 0
 546 0040 0E23     		movs	r3, #14
 547 0042 4246     		mov	r2, r8
 548 0044 1360     		str	r3, [r2]
 549              	.LVL53:
 550              	.L33:
 562:Source\mbedtls_open\library/aes.c ****         default : return( MBEDTLS_ERR_AES_INVALID_KEY_LENGTH );
 563:Source\mbedtls_open\library/aes.c ****     }
 564:Source\mbedtls_open\library/aes.c **** 
 565:Source\mbedtls_open\library/aes.c **** #if defined(MBEDTLS_PADLOCK_C) && defined(MBEDTLS_PADLOCK_ALIGN16)
 566:Source\mbedtls_open\library/aes.c ****     if( aes_padlock_ace == -1 )
 567:Source\mbedtls_open\library/aes.c ****         aes_padlock_ace = mbedtls_padlock_has_support( MBEDTLS_PADLOCK_ACE );
 568:Source\mbedtls_open\library/aes.c **** 
 569:Source\mbedtls_open\library/aes.c ****     if( aes_padlock_ace )
 570:Source\mbedtls_open\library/aes.c ****         ctx->rk = RK = MBEDTLS_PADLOCK_ALIGN16( ctx->buf );
 571:Source\mbedtls_open\library/aes.c ****     else
 572:Source\mbedtls_open\library/aes.c **** #endif
 573:Source\mbedtls_open\library/aes.c ****     ctx->rk = RK = ctx->buf;
 551              		.loc 1 573 0
 552 0046 4346     		mov	r3, r8
ARM GAS  C:\Users\Phuong\AppData\Local\Temp\ccyLHZOj.s 			page 21


 553 0048 0833     		adds	r3, r3, #8
 554              	.LVL54:
 555 004a 4246     		mov	r2, r8
 556              	.LVL55:
 557 004c 5360     		str	r3, [r2, #4]
 558              	.LVL56:
 574:Source\mbedtls_open\library/aes.c **** 
 575:Source\mbedtls_open\library/aes.c **** #if defined(MBEDTLS_AESNI_C) && defined(MBEDTLS_HAVE_X86_64)
 576:Source\mbedtls_open\library/aes.c ****     if( mbedtls_aesni_has_support( MBEDTLS_AESNI_AES ) )
 577:Source\mbedtls_open\library/aes.c ****         return( mbedtls_aesni_setkey_enc( (unsigned char *) ctx->rk, key, keybits ) );
 578:Source\mbedtls_open\library/aes.c **** #endif
 579:Source\mbedtls_open\library/aes.c **** 
 580:Source\mbedtls_open\library/aes.c ****     for( i = 0; i < ( keybits >> 5 ); i++ )
 559              		.loc 1 580 0
 560 004e 0020     		movs	r0, #0
 561 0050 0DE0     		b	.L34
 562              	.LVL57:
 563              	.L35:
 581:Source\mbedtls_open\library/aes.c ****     {
 582:Source\mbedtls_open\library/aes.c ****         GET_UINT32_LE( RK[i], key, i << 2 );
 564              		.loc 1 582 0 discriminator 3
 565 0052 8700     		lsls	r7, r0, #2
 566 0054 E15D     		ldrb	r1, [r4, r7]
 567 0056 E619     		adds	r6, r4, r7
 568 0058 7278     		ldrb	r2, [r6, #1]
 569 005a 1202     		lsls	r2, r2, #8
 570 005c 0A43     		orrs	r2, r1
 571 005e B178     		ldrb	r1, [r6, #2]
 572 0060 0904     		lsls	r1, r1, #16
 573 0062 0A43     		orrs	r2, r1
 574 0064 F178     		ldrb	r1, [r6, #3]
 575 0066 0906     		lsls	r1, r1, #24
 576 0068 0A43     		orrs	r2, r1
 577 006a DA51     		str	r2, [r3, r7]
 580:Source\mbedtls_open\library/aes.c ****     {
 578              		.loc 1 580 0 discriminator 3
 579 006c 0130     		adds	r0, r0, #1
 580              	.LVL58:
 581              	.L34:
 580:Source\mbedtls_open\library/aes.c ****     {
 582              		.loc 1 580 0 is_stmt 0 discriminator 1
 583 006e 6A09     		lsrs	r2, r5, #5
 584 0070 9042     		cmp	r0, r2
 585 0072 EED3     		bcc	.L35
 583:Source\mbedtls_open\library/aes.c ****     }
 584:Source\mbedtls_open\library/aes.c **** 
 585:Source\mbedtls_open\library/aes.c ****     switch( ctx->nr )
 586              		.loc 1 585 0 is_stmt 1
 587 0074 4246     		mov	r2, r8
 588 0076 1268     		ldr	r2, [r2]
 589 0078 0C2A     		cmp	r2, #12
 590 007a 68D0     		beq	.L45
 591 007c 0E2A     		cmp	r2, #14
 592 007e 00D1     		bne	.LCB588
 593 0080 BAE0     		b	.L46	@long jump
 594              	.LCB588:
 595 0082 0A2A     		cmp	r2, #10
ARM GAS  C:\Users\Phuong\AppData\Local\Temp\ccyLHZOj.s 			page 22


 596 0084 00D0     		beq	.LCB590
 597 0086 C1E0     		b	.L48	@long jump
 598              	.LCB590:
 599 0088 2DE0     		b	.L44
 600              	.LVL59:
 601              	.L39:
 586:Source\mbedtls_open\library/aes.c ****     {
 587:Source\mbedtls_open\library/aes.c ****         case 10:
 588:Source\mbedtls_open\library/aes.c **** 
 589:Source\mbedtls_open\library/aes.c ****             for( i = 0; i < 10; i++, RK += 4 )
 590:Source\mbedtls_open\library/aes.c ****             {
 591:Source\mbedtls_open\library/aes.c ****                 RK[4]  = RK[0] ^ RCON[i] ^
 602              		.loc 1 591 0 discriminator 3
 603 008a 634F     		ldr	r7, .L49+4
 604 008c B200     		lsls	r2, r6, #2
 605 008e D159     		ldr	r1, [r2, r7]
 606 0090 1A68     		ldr	r2, [r3]
 607 0092 5140     		eors	r1, r2
 592:Source\mbedtls_open\library/aes.c ****                 ( (uint32_t) FSb[ ( RK[3] >>  8 ) & 0xFF ]       ) ^
 608              		.loc 1 592 0 discriminator 3
 609 0094 DC68     		ldr	r4, [r3, #12]
 610 0096 250A     		lsrs	r5, r4, #8
 611 0098 FF20     		movs	r0, #255
 612 009a 0540     		ands	r5, r0
 613 009c 2822     		movs	r2, #40
 614 009e 9446     		mov	ip, r2
 615 00a0 7D19     		adds	r5, r7, r5
 616 00a2 AA5C     		ldrb	r2, [r5, r2]
 591:Source\mbedtls_open\library/aes.c ****                 ( (uint32_t) FSb[ ( RK[3] >>  8 ) & 0xFF ]       ) ^
 617              		.loc 1 591 0 discriminator 3
 618 00a4 5140     		eors	r1, r2
 593:Source\mbedtls_open\library/aes.c ****                 ( (uint32_t) FSb[ ( RK[3] >> 16 ) & 0xFF ] <<  8 ) ^
 619              		.loc 1 593 0 discriminator 3
 620 00a6 250C     		lsrs	r5, r4, #16
 621 00a8 0540     		ands	r5, r0
 622 00aa 7D19     		adds	r5, r7, r5
 623 00ac 6246     		mov	r2, ip
 624 00ae AA5C     		ldrb	r2, [r5, r2]
 625 00b0 1202     		lsls	r2, r2, #8
 592:Source\mbedtls_open\library/aes.c ****                 ( (uint32_t) FSb[ ( RK[3] >>  8 ) & 0xFF ]       ) ^
 626              		.loc 1 592 0 discriminator 3
 627 00b2 5140     		eors	r1, r2
 594:Source\mbedtls_open\library/aes.c ****                 ( (uint32_t) FSb[ ( RK[3] >> 24 ) & 0xFF ] << 16 ) ^
 628              		.loc 1 594 0 discriminator 3
 629 00b4 220E     		lsrs	r2, r4, #24
 630 00b6 BA18     		adds	r2, r7, r2
 631 00b8 6546     		mov	r5, ip
 632 00ba 555D     		ldrb	r5, [r2, r5]
 633 00bc 2D04     		lsls	r5, r5, #16
 593:Source\mbedtls_open\library/aes.c ****                 ( (uint32_t) FSb[ ( RK[3] >> 16 ) & 0xFF ] <<  8 ) ^
 634              		.loc 1 593 0 discriminator 3
 635 00be 6940     		eors	r1, r5
 595:Source\mbedtls_open\library/aes.c ****                 ( (uint32_t) FSb[ ( RK[3]       ) & 0xFF ] << 24 );
 636              		.loc 1 595 0 discriminator 3
 637 00c0 0200     		movs	r2, r0
 638 00c2 2240     		ands	r2, r4
 639 00c4 BA18     		adds	r2, r7, r2
ARM GAS  C:\Users\Phuong\AppData\Local\Temp\ccyLHZOj.s 			page 23


 640 00c6 6046     		mov	r0, ip
 641 00c8 105C     		ldrb	r0, [r2, r0]
 642 00ca 0006     		lsls	r0, r0, #24
 594:Source\mbedtls_open\library/aes.c ****                 ( (uint32_t) FSb[ ( RK[3] >> 24 ) & 0xFF ] << 16 ) ^
 643              		.loc 1 594 0 discriminator 3
 644 00cc 4140     		eors	r1, r0
 591:Source\mbedtls_open\library/aes.c ****                 ( (uint32_t) FSb[ ( RK[3] >>  8 ) & 0xFF ]       ) ^
 645              		.loc 1 591 0 discriminator 3
 646 00ce 1961     		str	r1, [r3, #16]
 596:Source\mbedtls_open\library/aes.c **** 
 597:Source\mbedtls_open\library/aes.c ****                 RK[5]  = RK[1] ^ RK[4];
 647              		.loc 1 597 0 discriminator 3
 648 00d0 5A68     		ldr	r2, [r3, #4]
 649 00d2 4A40     		eors	r2, r1
 650 00d4 5A61     		str	r2, [r3, #20]
 598:Source\mbedtls_open\library/aes.c ****                 RK[6]  = RK[2] ^ RK[5];
 651              		.loc 1 598 0 discriminator 3
 652 00d6 9968     		ldr	r1, [r3, #8]
 653 00d8 4A40     		eors	r2, r1
 654 00da 9A61     		str	r2, [r3, #24]
 599:Source\mbedtls_open\library/aes.c ****                 RK[7]  = RK[3] ^ RK[6];
 655              		.loc 1 599 0 discriminator 3
 656 00dc 6240     		eors	r2, r4
 657 00de DA61     		str	r2, [r3, #28]
 589:Source\mbedtls_open\library/aes.c ****             {
 658              		.loc 1 589 0 discriminator 3
 659 00e0 0136     		adds	r6, r6, #1
 660              	.LVL60:
 661 00e2 1033     		adds	r3, r3, #16
 662              	.LVL61:
 663 00e4 00E0     		b	.L38
 664              	.LVL62:
 665              	.L44:
 585:Source\mbedtls_open\library/aes.c ****     {
 666              		.loc 1 585 0
 667 00e6 0026     		movs	r6, #0
 668              	.LVL63:
 669              	.L38:
 589:Source\mbedtls_open\library/aes.c ****             {
 670              		.loc 1 589 0 discriminator 1
 671 00e8 092E     		cmp	r6, #9
 672 00ea CED9     		bls	.L39
 600:Source\mbedtls_open\library/aes.c ****             }
 601:Source\mbedtls_open\library/aes.c ****             break;
 602:Source\mbedtls_open\library/aes.c **** 
 603:Source\mbedtls_open\library/aes.c ****         case 12:
 604:Source\mbedtls_open\library/aes.c **** 
 605:Source\mbedtls_open\library/aes.c ****             for( i = 0; i < 8; i++, RK += 6 )
 606:Source\mbedtls_open\library/aes.c ****             {
 607:Source\mbedtls_open\library/aes.c ****                 RK[6]  = RK[0] ^ RCON[i] ^
 608:Source\mbedtls_open\library/aes.c ****                 ( (uint32_t) FSb[ ( RK[5] >>  8 ) & 0xFF ]       ) ^
 609:Source\mbedtls_open\library/aes.c ****                 ( (uint32_t) FSb[ ( RK[5] >> 16 ) & 0xFF ] <<  8 ) ^
 610:Source\mbedtls_open\library/aes.c ****                 ( (uint32_t) FSb[ ( RK[5] >> 24 ) & 0xFF ] << 16 ) ^
 611:Source\mbedtls_open\library/aes.c ****                 ( (uint32_t) FSb[ ( RK[5]       ) & 0xFF ] << 24 );
 612:Source\mbedtls_open\library/aes.c **** 
 613:Source\mbedtls_open\library/aes.c ****                 RK[7]  = RK[1] ^ RK[6];
 614:Source\mbedtls_open\library/aes.c ****                 RK[8]  = RK[2] ^ RK[7];
ARM GAS  C:\Users\Phuong\AppData\Local\Temp\ccyLHZOj.s 			page 24


 615:Source\mbedtls_open\library/aes.c ****                 RK[9]  = RK[3] ^ RK[8];
 616:Source\mbedtls_open\library/aes.c ****                 RK[10] = RK[4] ^ RK[9];
 617:Source\mbedtls_open\library/aes.c ****                 RK[11] = RK[5] ^ RK[10];
 618:Source\mbedtls_open\library/aes.c ****             }
 619:Source\mbedtls_open\library/aes.c ****             break;
 620:Source\mbedtls_open\library/aes.c **** 
 621:Source\mbedtls_open\library/aes.c ****         case 14:
 622:Source\mbedtls_open\library/aes.c **** 
 623:Source\mbedtls_open\library/aes.c ****             for( i = 0; i < 7; i++, RK += 8 )
 624:Source\mbedtls_open\library/aes.c ****             {
 625:Source\mbedtls_open\library/aes.c ****                 RK[8]  = RK[0] ^ RCON[i] ^
 626:Source\mbedtls_open\library/aes.c ****                 ( (uint32_t) FSb[ ( RK[7] >>  8 ) & 0xFF ]       ) ^
 627:Source\mbedtls_open\library/aes.c ****                 ( (uint32_t) FSb[ ( RK[7] >> 16 ) & 0xFF ] <<  8 ) ^
 628:Source\mbedtls_open\library/aes.c ****                 ( (uint32_t) FSb[ ( RK[7] >> 24 ) & 0xFF ] << 16 ) ^
 629:Source\mbedtls_open\library/aes.c ****                 ( (uint32_t) FSb[ ( RK[7]       ) & 0xFF ] << 24 );
 630:Source\mbedtls_open\library/aes.c **** 
 631:Source\mbedtls_open\library/aes.c ****                 RK[9]  = RK[1] ^ RK[8];
 632:Source\mbedtls_open\library/aes.c ****                 RK[10] = RK[2] ^ RK[9];
 633:Source\mbedtls_open\library/aes.c ****                 RK[11] = RK[3] ^ RK[10];
 634:Source\mbedtls_open\library/aes.c **** 
 635:Source\mbedtls_open\library/aes.c ****                 RK[12] = RK[4] ^
 636:Source\mbedtls_open\library/aes.c ****                 ( (uint32_t) FSb[ ( RK[11]       ) & 0xFF ]       ) ^
 637:Source\mbedtls_open\library/aes.c ****                 ( (uint32_t) FSb[ ( RK[11] >>  8 ) & 0xFF ] <<  8 ) ^
 638:Source\mbedtls_open\library/aes.c ****                 ( (uint32_t) FSb[ ( RK[11] >> 16 ) & 0xFF ] << 16 ) ^
 639:Source\mbedtls_open\library/aes.c ****                 ( (uint32_t) FSb[ ( RK[11] >> 24 ) & 0xFF ] << 24 );
 640:Source\mbedtls_open\library/aes.c **** 
 641:Source\mbedtls_open\library/aes.c ****                 RK[13] = RK[5] ^ RK[12];
 642:Source\mbedtls_open\library/aes.c ****                 RK[14] = RK[6] ^ RK[13];
 643:Source\mbedtls_open\library/aes.c ****                 RK[15] = RK[7] ^ RK[14];
 644:Source\mbedtls_open\library/aes.c ****             }
 645:Source\mbedtls_open\library/aes.c ****             break;
 646:Source\mbedtls_open\library/aes.c ****     }
 647:Source\mbedtls_open\library/aes.c **** 
 648:Source\mbedtls_open\library/aes.c ****     return( 0 );
 673              		.loc 1 648 0
 674 00ec 0020     		movs	r0, #0
 675 00ee 8EE0     		b	.L29
 676              	.LVL64:
 677              	.L40:
 607:Source\mbedtls_open\library/aes.c ****                 ( (uint32_t) FSb[ ( RK[5] >>  8 ) & 0xFF ]       ) ^
 678              		.loc 1 607 0 discriminator 3
 679 00f0 494E     		ldr	r6, .L49+4
 680 00f2 AA00     		lsls	r2, r5, #2
 681 00f4 9159     		ldr	r1, [r2, r6]
 682 00f6 1A68     		ldr	r2, [r3]
 683 00f8 5140     		eors	r1, r2
 608:Source\mbedtls_open\library/aes.c ****                 ( (uint32_t) FSb[ ( RK[5] >> 16 ) & 0xFF ] <<  8 ) ^
 684              		.loc 1 608 0 discriminator 3
 685 00fa 5C69     		ldr	r4, [r3, #20]
 686 00fc 200A     		lsrs	r0, r4, #8
 687 00fe FF22     		movs	r2, #255
 688 0100 1040     		ands	r0, r2
 689 0102 2827     		movs	r7, #40
 690 0104 3018     		adds	r0, r6, r0
 691 0106 C05D     		ldrb	r0, [r0, r7]
 607:Source\mbedtls_open\library/aes.c ****                 ( (uint32_t) FSb[ ( RK[5] >>  8 ) & 0xFF ]       ) ^
 692              		.loc 1 607 0 discriminator 3
ARM GAS  C:\Users\Phuong\AppData\Local\Temp\ccyLHZOj.s 			page 25


 693 0108 4140     		eors	r1, r0
 609:Source\mbedtls_open\library/aes.c ****                 ( (uint32_t) FSb[ ( RK[5] >> 24 ) & 0xFF ] << 16 ) ^
 694              		.loc 1 609 0 discriminator 3
 695 010a 200C     		lsrs	r0, r4, #16
 696 010c 1040     		ands	r0, r2
 697 010e 3018     		adds	r0, r6, r0
 698 0110 C05D     		ldrb	r0, [r0, r7]
 699 0112 0002     		lsls	r0, r0, #8
 608:Source\mbedtls_open\library/aes.c ****                 ( (uint32_t) FSb[ ( RK[5] >> 16 ) & 0xFF ] <<  8 ) ^
 700              		.loc 1 608 0 discriminator 3
 701 0114 4140     		eors	r1, r0
 610:Source\mbedtls_open\library/aes.c ****                 ( (uint32_t) FSb[ ( RK[5]       ) & 0xFF ] << 24 );
 702              		.loc 1 610 0 discriminator 3
 703 0116 200E     		lsrs	r0, r4, #24
 704 0118 3018     		adds	r0, r6, r0
 705 011a C05D     		ldrb	r0, [r0, r7]
 706 011c 0004     		lsls	r0, r0, #16
 609:Source\mbedtls_open\library/aes.c ****                 ( (uint32_t) FSb[ ( RK[5] >> 24 ) & 0xFF ] << 16 ) ^
 707              		.loc 1 609 0 discriminator 3
 708 011e 4140     		eors	r1, r0
 611:Source\mbedtls_open\library/aes.c **** 
 709              		.loc 1 611 0 discriminator 3
 710 0120 2240     		ands	r2, r4
 711 0122 B218     		adds	r2, r6, r2
 712 0124 D05D     		ldrb	r0, [r2, r7]
 713 0126 0006     		lsls	r0, r0, #24
 610:Source\mbedtls_open\library/aes.c ****                 ( (uint32_t) FSb[ ( RK[5]       ) & 0xFF ] << 24 );
 714              		.loc 1 610 0 discriminator 3
 715 0128 4140     		eors	r1, r0
 607:Source\mbedtls_open\library/aes.c ****                 ( (uint32_t) FSb[ ( RK[5] >>  8 ) & 0xFF ]       ) ^
 716              		.loc 1 607 0 discriminator 3
 717 012a 9961     		str	r1, [r3, #24]
 613:Source\mbedtls_open\library/aes.c ****                 RK[8]  = RK[2] ^ RK[7];
 718              		.loc 1 613 0 discriminator 3
 719 012c 5A68     		ldr	r2, [r3, #4]
 720 012e 4A40     		eors	r2, r1
 721 0130 DA61     		str	r2, [r3, #28]
 614:Source\mbedtls_open\library/aes.c ****                 RK[9]  = RK[3] ^ RK[8];
 722              		.loc 1 614 0 discriminator 3
 723 0132 9968     		ldr	r1, [r3, #8]
 724 0134 4A40     		eors	r2, r1
 725 0136 1A62     		str	r2, [r3, #32]
 615:Source\mbedtls_open\library/aes.c ****                 RK[10] = RK[4] ^ RK[9];
 726              		.loc 1 615 0 discriminator 3
 727 0138 D968     		ldr	r1, [r3, #12]
 728 013a 4A40     		eors	r2, r1
 729 013c 5A62     		str	r2, [r3, #36]
 616:Source\mbedtls_open\library/aes.c ****                 RK[11] = RK[5] ^ RK[10];
 730              		.loc 1 616 0 discriminator 3
 731 013e 1969     		ldr	r1, [r3, #16]
 732 0140 4A40     		eors	r2, r1
 733 0142 9A62     		str	r2, [r3, #40]
 617:Source\mbedtls_open\library/aes.c ****             }
 734              		.loc 1 617 0 discriminator 3
 735 0144 6240     		eors	r2, r4
 736 0146 DA62     		str	r2, [r3, #44]
 605:Source\mbedtls_open\library/aes.c ****             {
ARM GAS  C:\Users\Phuong\AppData\Local\Temp\ccyLHZOj.s 			page 26


 737              		.loc 1 605 0 discriminator 3
 738 0148 0135     		adds	r5, r5, #1
 739              	.LVL65:
 740 014a 1833     		adds	r3, r3, #24
 741              	.LVL66:
 742 014c 00E0     		b	.L36
 743              	.LVL67:
 744              	.L45:
 585:Source\mbedtls_open\library/aes.c ****     {
 745              		.loc 1 585 0
 746 014e 0025     		movs	r5, #0
 747              	.LVL68:
 748              	.L36:
 605:Source\mbedtls_open\library/aes.c ****             {
 749              		.loc 1 605 0 discriminator 1
 750 0150 072D     		cmp	r5, #7
 751 0152 CDD9     		bls	.L40
 752              		.loc 1 648 0
 753 0154 0020     		movs	r0, #0
 754 0156 5AE0     		b	.L29
 755              	.LVL69:
 756              	.L41:
 625:Source\mbedtls_open\library/aes.c ****                 ( (uint32_t) FSb[ ( RK[7] >>  8 ) & 0xFF ]       ) ^
 757              		.loc 1 625 0 discriminator 3
 758 0158 2F49     		ldr	r1, .L49+4
 759 015a 4246     		mov	r2, r8
 760              	.LVL70:
 761 015c 9200     		lsls	r2, r2, #2
 762 015e 5258     		ldr	r2, [r2, r1]
 763 0160 1868     		ldr	r0, [r3]
 764 0162 4240     		eors	r2, r0
 626:Source\mbedtls_open\library/aes.c ****                 ( (uint32_t) FSb[ ( RK[7] >> 16 ) & 0xFF ] <<  8 ) ^
 765              		.loc 1 626 0 discriminator 3
 766 0164 DE69     		ldr	r6, [r3, #28]
 767 0166 370A     		lsrs	r7, r6, #8
 768 0168 FF24     		movs	r4, #255
 769 016a 2740     		ands	r7, r4
 770 016c 2820     		movs	r0, #40
 771 016e CF19     		adds	r7, r1, r7
 772 0170 3F5C     		ldrb	r7, [r7, r0]
 625:Source\mbedtls_open\library/aes.c ****                 ( (uint32_t) FSb[ ( RK[7] >>  8 ) & 0xFF ]       ) ^
 773              		.loc 1 625 0 discriminator 3
 774 0172 7A40     		eors	r2, r7
 627:Source\mbedtls_open\library/aes.c ****                 ( (uint32_t) FSb[ ( RK[7] >> 24 ) & 0xFF ] << 16 ) ^
 775              		.loc 1 627 0 discriminator 3
 776 0174 370C     		lsrs	r7, r6, #16
 777 0176 2740     		ands	r7, r4
 778 0178 CF19     		adds	r7, r1, r7
 779 017a 3F5C     		ldrb	r7, [r7, r0]
 780 017c 3F02     		lsls	r7, r7, #8
 626:Source\mbedtls_open\library/aes.c ****                 ( (uint32_t) FSb[ ( RK[7] >> 16 ) & 0xFF ] <<  8 ) ^
 781              		.loc 1 626 0 discriminator 3
 782 017e 7A40     		eors	r2, r7
 628:Source\mbedtls_open\library/aes.c ****                 ( (uint32_t) FSb[ ( RK[7]       ) & 0xFF ] << 24 );
 783              		.loc 1 628 0 discriminator 3
 784 0180 370E     		lsrs	r7, r6, #24
 785 0182 CF19     		adds	r7, r1, r7
ARM GAS  C:\Users\Phuong\AppData\Local\Temp\ccyLHZOj.s 			page 27


 786 0184 3F5C     		ldrb	r7, [r7, r0]
 787 0186 3F04     		lsls	r7, r7, #16
 627:Source\mbedtls_open\library/aes.c ****                 ( (uint32_t) FSb[ ( RK[7] >> 24 ) & 0xFF ] << 16 ) ^
 788              		.loc 1 627 0 discriminator 3
 789 0188 7A40     		eors	r2, r7
 629:Source\mbedtls_open\library/aes.c **** 
 790              		.loc 1 629 0 discriminator 3
 791 018a 2700     		movs	r7, r4
 792 018c 3740     		ands	r7, r6
 793 018e CF19     		adds	r7, r1, r7
 794 0190 3F5C     		ldrb	r7, [r7, r0]
 795 0192 3F06     		lsls	r7, r7, #24
 628:Source\mbedtls_open\library/aes.c ****                 ( (uint32_t) FSb[ ( RK[7]       ) & 0xFF ] << 24 );
 796              		.loc 1 628 0 discriminator 3
 797 0194 7A40     		eors	r2, r7
 625:Source\mbedtls_open\library/aes.c ****                 ( (uint32_t) FSb[ ( RK[7] >>  8 ) & 0xFF ]       ) ^
 798              		.loc 1 625 0 discriminator 3
 799 0196 1A62     		str	r2, [r3, #32]
 631:Source\mbedtls_open\library/aes.c ****                 RK[10] = RK[2] ^ RK[9];
 800              		.loc 1 631 0 discriminator 3
 801 0198 5D68     		ldr	r5, [r3, #4]
 802 019a 6A40     		eors	r2, r5
 803 019c 5A62     		str	r2, [r3, #36]
 632:Source\mbedtls_open\library/aes.c ****                 RK[11] = RK[3] ^ RK[10];
 804              		.loc 1 632 0 discriminator 3
 805 019e 9D68     		ldr	r5, [r3, #8]
 806 01a0 6A40     		eors	r2, r5
 807 01a2 9A62     		str	r2, [r3, #40]
 633:Source\mbedtls_open\library/aes.c **** 
 808              		.loc 1 633 0 discriminator 3
 809 01a4 DD68     		ldr	r5, [r3, #12]
 810 01a6 6A40     		eors	r2, r5
 811 01a8 DA62     		str	r2, [r3, #44]
 636:Source\mbedtls_open\library/aes.c ****                 ( (uint32_t) FSb[ ( RK[11] >>  8 ) & 0xFF ] <<  8 ) ^
 812              		.loc 1 636 0 discriminator 3
 813 01aa 2700     		movs	r7, r4
 814 01ac 1740     		ands	r7, r2
 815 01ae CF19     		adds	r7, r1, r7
 816 01b0 3F5C     		ldrb	r7, [r7, r0]
 635:Source\mbedtls_open\library/aes.c ****                 ( (uint32_t) FSb[ ( RK[11]       ) & 0xFF ]       ) ^
 817              		.loc 1 635 0 discriminator 3
 818 01b2 1D69     		ldr	r5, [r3, #16]
 819 01b4 7D40     		eors	r5, r7
 637:Source\mbedtls_open\library/aes.c ****                 ( (uint32_t) FSb[ ( RK[11] >> 16 ) & 0xFF ] << 16 ) ^
 820              		.loc 1 637 0 discriminator 3
 821 01b6 170A     		lsrs	r7, r2, #8
 822 01b8 2740     		ands	r7, r4
 823 01ba CF19     		adds	r7, r1, r7
 824 01bc 3F5C     		ldrb	r7, [r7, r0]
 825 01be 3F02     		lsls	r7, r7, #8
 636:Source\mbedtls_open\library/aes.c ****                 ( (uint32_t) FSb[ ( RK[11] >>  8 ) & 0xFF ] <<  8 ) ^
 826              		.loc 1 636 0 discriminator 3
 827 01c0 7D40     		eors	r5, r7
 638:Source\mbedtls_open\library/aes.c ****                 ( (uint32_t) FSb[ ( RK[11] >> 24 ) & 0xFF ] << 24 );
 828              		.loc 1 638 0 discriminator 3
 829 01c2 170C     		lsrs	r7, r2, #16
 830 01c4 3C40     		ands	r4, r7
ARM GAS  C:\Users\Phuong\AppData\Local\Temp\ccyLHZOj.s 			page 28


 831 01c6 0C19     		adds	r4, r1, r4
 832 01c8 275C     		ldrb	r7, [r4, r0]
 833 01ca 3F04     		lsls	r7, r7, #16
 637:Source\mbedtls_open\library/aes.c ****                 ( (uint32_t) FSb[ ( RK[11] >> 16 ) & 0xFF ] << 16 ) ^
 834              		.loc 1 637 0 discriminator 3
 835 01cc 2C00     		movs	r4, r5
 836 01ce 7C40     		eors	r4, r7
 639:Source\mbedtls_open\library/aes.c **** 
 837              		.loc 1 639 0 discriminator 3
 838 01d0 120E     		lsrs	r2, r2, #24
 839 01d2 8A18     		adds	r2, r1, r2
 840 01d4 105C     		ldrb	r0, [r2, r0]
 841 01d6 0006     		lsls	r0, r0, #24
 638:Source\mbedtls_open\library/aes.c ****                 ( (uint32_t) FSb[ ( RK[11] >> 24 ) & 0xFF ] << 24 );
 842              		.loc 1 638 0 discriminator 3
 843 01d8 2100     		movs	r1, r4
 844 01da 4140     		eors	r1, r0
 635:Source\mbedtls_open\library/aes.c ****                 ( (uint32_t) FSb[ ( RK[11]       ) & 0xFF ]       ) ^
 845              		.loc 1 635 0 discriminator 3
 846 01dc 1963     		str	r1, [r3, #48]
 641:Source\mbedtls_open\library/aes.c ****                 RK[14] = RK[6] ^ RK[13];
 847              		.loc 1 641 0 discriminator 3
 848 01de 5A69     		ldr	r2, [r3, #20]
 849 01e0 4A40     		eors	r2, r1
 850 01e2 5A63     		str	r2, [r3, #52]
 642:Source\mbedtls_open\library/aes.c ****                 RK[15] = RK[7] ^ RK[14];
 851              		.loc 1 642 0 discriminator 3
 852 01e4 9969     		ldr	r1, [r3, #24]
 853 01e6 4A40     		eors	r2, r1
 854 01e8 9A63     		str	r2, [r3, #56]
 643:Source\mbedtls_open\library/aes.c ****             }
 855              		.loc 1 643 0 discriminator 3
 856 01ea 7240     		eors	r2, r6
 857 01ec DA63     		str	r2, [r3, #60]
 623:Source\mbedtls_open\library/aes.c ****             {
 858              		.loc 1 623 0 discriminator 3
 859 01ee 0122     		movs	r2, #1
 860 01f0 9446     		mov	ip, r2
 861 01f2 E044     		add	r8, r8, ip
 862              	.LVL71:
 863 01f4 2033     		adds	r3, r3, #32
 864              	.LVL72:
 865 01f6 01E0     		b	.L37
 866              	.LVL73:
 867              	.L46:
 585:Source\mbedtls_open\library/aes.c ****     {
 868              		.loc 1 585 0
 869 01f8 0022     		movs	r2, #0
 870 01fa 9046     		mov	r8, r2
 871              	.LVL74:
 872              	.L37:
 623:Source\mbedtls_open\library/aes.c ****             {
 873              		.loc 1 623 0 discriminator 1
 874 01fc 4246     		mov	r2, r8
 875 01fe 062A     		cmp	r2, #6
 876 0200 AAD9     		bls	.L41
 877              		.loc 1 648 0
ARM GAS  C:\Users\Phuong\AppData\Local\Temp\ccyLHZOj.s 			page 29


 878 0202 0020     		movs	r0, #0
 879 0204 03E0     		b	.L29
 880              	.LVL75:
 881              	.L47:
 562:Source\mbedtls_open\library/aes.c ****     }
 882              		.loc 1 562 0
 883 0206 2020     		movs	r0, #32
 884 0208 4042     		rsbs	r0, r0, #0
 885 020a 00E0     		b	.L29
 886              	.LVL76:
 887              	.L48:
 888              		.loc 1 648 0
 889 020c 0020     		movs	r0, #0
 890              	.LVL77:
 891              	.L29:
 649:Source\mbedtls_open\library/aes.c **** }
 892              		.loc 1 649 0
 893              		@ sp needed
 894 020e 04BC     		pop	{r2}
 895 0210 9046     		mov	r8, r2
 896 0212 F0BD     		pop	{r4, r5, r6, r7, pc}
 897              	.L50:
 898              		.align	2
 899              	.L49:
 900 0214 00220000 		.word	.LANCHOR10
 901 0218 00000000 		.word	.LANCHOR0
 902              		.cfi_endproc
 903              	.LFE4:
 904              		.size	mbedtls_aes_setkey_enc, .-mbedtls_aes_setkey_enc
 905              		.section	.text.mbedtls_aes_setkey_dec,"ax",%progbits
 906              		.align	2
 907              		.global	mbedtls_aes_setkey_dec
 908              		.code	16
 909              		.thumb_func
 910              		.type	mbedtls_aes_setkey_dec, %function
 911              	mbedtls_aes_setkey_dec:
 912              	.LFB5:
 650:Source\mbedtls_open\library/aes.c **** #endif /* !MBEDTLS_AES_SETKEY_ENC_ALT */
 651:Source\mbedtls_open\library/aes.c **** 
 652:Source\mbedtls_open\library/aes.c **** /*
 653:Source\mbedtls_open\library/aes.c ****  * AES key schedule (decryption)
 654:Source\mbedtls_open\library/aes.c ****  */
 655:Source\mbedtls_open\library/aes.c **** #if !defined(MBEDTLS_AES_SETKEY_DEC_ALT)
 656:Source\mbedtls_open\library/aes.c **** int mbedtls_aes_setkey_dec( mbedtls_aes_context *ctx, const unsigned char *key,
 657:Source\mbedtls_open\library/aes.c ****                     unsigned int keybits )
 658:Source\mbedtls_open\library/aes.c **** {
 913              		.loc 1 658 0
 914              		.cfi_startproc
 915              		@ args = 0, pretend = 0, frame = 288
 916              		@ frame_needed = 0, uses_anonymous_args = 0
 917              	.LVL78:
 918 0000 F0B5     		push	{r4, r5, r6, r7, lr}
 919              		.cfi_def_cfa_offset 20
 920              		.cfi_offset 4, -20
 921              		.cfi_offset 5, -16
 922              		.cfi_offset 6, -12
 923              		.cfi_offset 7, -8
ARM GAS  C:\Users\Phuong\AppData\Local\Temp\ccyLHZOj.s 			page 30


 924              		.cfi_offset 14, -4
 925 0002 5F46     		mov	r7, fp
 926 0004 5646     		mov	r6, r10
 927 0006 4D46     		mov	r5, r9
 928 0008 4446     		mov	r4, r8
 929 000a F0B4     		push	{r4, r5, r6, r7}
 930              		.cfi_def_cfa_offset 36
 931              		.cfi_offset 8, -36
 932              		.cfi_offset 9, -32
 933              		.cfi_offset 10, -28
 934              		.cfi_offset 11, -24
 935 000c C9B0     		sub	sp, sp, #292
 936              		.cfi_def_cfa_offset 328
 937 000e 0700     		movs	r7, r0
 938 0010 0C00     		movs	r4, r1
 939 0012 1500     		movs	r5, r2
 659:Source\mbedtls_open\library/aes.c ****     int i, j, ret;
 660:Source\mbedtls_open\library/aes.c ****     mbedtls_aes_context cty;
 661:Source\mbedtls_open\library/aes.c ****     uint32_t *RK;
 662:Source\mbedtls_open\library/aes.c ****     uint32_t *SK;
 663:Source\mbedtls_open\library/aes.c **** 
 664:Source\mbedtls_open\library/aes.c ****     mbedtls_aes_init( &cty );
 940              		.loc 1 664 0
 941 0014 02A8     		add	r0, sp, #8
 942              	.LVL79:
 943 0016 FFF7FEFF 		bl	mbedtls_aes_init
 944              	.LVL80:
 665:Source\mbedtls_open\library/aes.c **** 
 666:Source\mbedtls_open\library/aes.c **** #if defined(MBEDTLS_PADLOCK_C) && defined(MBEDTLS_PADLOCK_ALIGN16)
 667:Source\mbedtls_open\library/aes.c ****     if( aes_padlock_ace == -1 )
 668:Source\mbedtls_open\library/aes.c ****         aes_padlock_ace = mbedtls_padlock_has_support( MBEDTLS_PADLOCK_ACE );
 669:Source\mbedtls_open\library/aes.c **** 
 670:Source\mbedtls_open\library/aes.c ****     if( aes_padlock_ace )
 671:Source\mbedtls_open\library/aes.c ****         ctx->rk = RK = MBEDTLS_PADLOCK_ALIGN16( ctx->buf );
 672:Source\mbedtls_open\library/aes.c ****     else
 673:Source\mbedtls_open\library/aes.c **** #endif
 674:Source\mbedtls_open\library/aes.c ****     ctx->rk = RK = ctx->buf;
 945              		.loc 1 674 0
 946 001a 3B00     		movs	r3, r7
 947 001c 0833     		adds	r3, r3, #8
 948              	.LVL81:
 949 001e 7B60     		str	r3, [r7, #4]
 675:Source\mbedtls_open\library/aes.c **** 
 676:Source\mbedtls_open\library/aes.c ****     /* Also checks keybits */
 677:Source\mbedtls_open\library/aes.c ****     if( ( ret = mbedtls_aes_setkey_enc( &cty, key, keybits ) ) != 0 )
 950              		.loc 1 677 0
 951 0020 2A00     		movs	r2, r5
 952 0022 2100     		movs	r1, r4
 953 0024 02A8     		add	r0, sp, #8
 954 0026 FFF7FEFF 		bl	mbedtls_aes_setkey_enc
 955              	.LVL82:
 956 002a 0190     		str	r0, [sp, #4]
 957              	.LVL83:
 958 002c 0028     		cmp	r0, #0
 959 002e 5FD1     		bne	.L52
 678:Source\mbedtls_open\library/aes.c ****         goto exit;
 679:Source\mbedtls_open\library/aes.c **** 
ARM GAS  C:\Users\Phuong\AppData\Local\Temp\ccyLHZOj.s 			page 31


 680:Source\mbedtls_open\library/aes.c ****     ctx->nr = cty.nr;
 960              		.loc 1 680 0
 961 0030 029E     		ldr	r6, [sp, #8]
 962 0032 3E60     		str	r6, [r7]
 681:Source\mbedtls_open\library/aes.c **** 
 682:Source\mbedtls_open\library/aes.c **** #if defined(MBEDTLS_AESNI_C) && defined(MBEDTLS_HAVE_X86_64)
 683:Source\mbedtls_open\library/aes.c ****     if( mbedtls_aesni_has_support( MBEDTLS_AESNI_AES ) )
 684:Source\mbedtls_open\library/aes.c ****     {
 685:Source\mbedtls_open\library/aes.c ****         mbedtls_aesni_inverse_key( (unsigned char *) ctx->rk,
 686:Source\mbedtls_open\library/aes.c ****                            (const unsigned char *) cty.rk, ctx->nr );
 687:Source\mbedtls_open\library/aes.c ****         goto exit;
 688:Source\mbedtls_open\library/aes.c ****     }
 689:Source\mbedtls_open\library/aes.c **** #endif
 690:Source\mbedtls_open\library/aes.c **** 
 691:Source\mbedtls_open\library/aes.c ****     SK = cty.rk + cty.nr * 4;
 963              		.loc 1 691 0
 964 0034 3501     		lsls	r5, r6, #4
 965              	.LVL84:
 966 0036 039B     		ldr	r3, [sp, #12]
 967 0038 9C46     		mov	ip, r3
 968 003a 6544     		add	r5, r5, ip
 969              	.LVL85:
 692:Source\mbedtls_open\library/aes.c **** 
 693:Source\mbedtls_open\library/aes.c ****     *RK++ = *SK++;
 970              		.loc 1 693 0
 971 003c 2B68     		ldr	r3, [r5]
 972 003e BB60     		str	r3, [r7, #8]
 973              	.LVL86:
 694:Source\mbedtls_open\library/aes.c ****     *RK++ = *SK++;
 974              		.loc 1 694 0
 975 0040 6B68     		ldr	r3, [r5, #4]
 976 0042 FB60     		str	r3, [r7, #12]
 977              	.LVL87:
 695:Source\mbedtls_open\library/aes.c ****     *RK++ = *SK++;
 978              		.loc 1 695 0
 979 0044 AB68     		ldr	r3, [r5, #8]
 980 0046 3B61     		str	r3, [r7, #16]
 696:Source\mbedtls_open\library/aes.c ****     *RK++ = *SK++;
 981              		.loc 1 696 0
 982 0048 3800     		movs	r0, r7
 983              	.LVL88:
 984 004a 1830     		adds	r0, r0, #24
 985              	.LVL89:
 986 004c EB68     		ldr	r3, [r5, #12]
 987 004e 7B61     		str	r3, [r7, #20]
 697:Source\mbedtls_open\library/aes.c **** 
 698:Source\mbedtls_open\library/aes.c ****     for( i = ctx->nr - 1, SK -= 8; i > 0; i--, SK -= 8 )
 988              		.loc 1 698 0
 989 0050 731E     		subs	r3, r6, #1
 990 0052 9C46     		mov	ip, r3
 991              	.LVL90:
 992 0054 1023     		movs	r3, #16
 993              	.LVL91:
 994 0056 5B42     		rsbs	r3, r3, #0
 995 0058 9B46     		mov	fp, r3
 996 005a AB44     		add	fp, fp, r5
 997              	.LVL92:
ARM GAS  C:\Users\Phuong\AppData\Local\Temp\ccyLHZOj.s 			page 32


 998 005c 39E0     		b	.L53
 999              	.LVL93:
 1000              	.L54:
 699:Source\mbedtls_open\library/aes.c ****     {
 700:Source\mbedtls_open\library/aes.c ****         for( j = 0; j < 4; j++, SK++ )
 701:Source\mbedtls_open\library/aes.c ****         {
 702:Source\mbedtls_open\library/aes.c ****             *RK++ = AES_RT0( FSb[ ( *SK       ) & 0xFF ] ) ^
 1001              		.loc 1 702 0 discriminator 3
 1002 005e 5A46     		mov	r2, fp
 1003 0060 08CA     		ldmia	r2!, {r3}
 1004 0062 9346     		mov	fp, r2
 1005              	.LVL94:
 1006 0064 FF22     		movs	r2, #255
 1007              	.LVL95:
 1008 0066 9246     		mov	r10, r2
 1009 0068 1A40     		ands	r2, r3
 1010 006a 274C     		ldr	r4, .L57
 1011 006c 2827     		movs	r7, #40
 1012 006e A218     		adds	r2, r4, r2
 1013 0070 D25D     		ldrb	r2, [r2, r7]
 1014 0072 9200     		lsls	r2, r2, #2
 1015 0074 254E     		ldr	r6, .L57+4
 1016 0076 B218     		adds	r2, r6, r2
 1017 0078 926A     		ldr	r2, [r2, #40]
 703:Source\mbedtls_open\library/aes.c ****                     AES_RT1( FSb[ ( *SK >>  8 ) & 0xFF ] ) ^
 1018              		.loc 1 703 0 discriminator 3
 1019 007a 1E0A     		lsrs	r6, r3, #8
 1020 007c 5546     		mov	r5, r10
 1021 007e 2E40     		ands	r6, r5
 1022 0080 A619     		adds	r6, r4, r6
 1023 0082 F65D     		ldrb	r6, [r6, r7]
 1024 0084 B600     		lsls	r6, r6, #2
 1025 0086 224D     		ldr	r5, .L57+8
 1026 0088 A846     		mov	r8, r5
 1027 008a 4644     		add	r6, r6, r8
 1028 008c B66A     		ldr	r6, [r6, #40]
 702:Source\mbedtls_open\library/aes.c ****                     AES_RT1( FSb[ ( *SK >>  8 ) & 0xFF ] ) ^
 1029              		.loc 1 702 0 discriminator 3
 1030 008e 5640     		eors	r6, r2
 704:Source\mbedtls_open\library/aes.c ****                     AES_RT2( FSb[ ( *SK >> 16 ) & 0xFF ] ) ^
 1031              		.loc 1 704 0 discriminator 3
 1032 0090 1A0C     		lsrs	r2, r3, #16
 1033 0092 5546     		mov	r5, r10
 1034 0094 2A40     		ands	r2, r5
 1035 0096 A218     		adds	r2, r4, r2
 1036 0098 D25D     		ldrb	r2, [r2, r7]
 1037 009a 9200     		lsls	r2, r2, #2
 1038 009c 1D4D     		ldr	r5, .L57+12
 1039 009e A946     		mov	r9, r5
 1040 00a0 4A44     		add	r2, r2, r9
 1041 00a2 926A     		ldr	r2, [r2, #40]
 703:Source\mbedtls_open\library/aes.c ****                     AES_RT1( FSb[ ( *SK >>  8 ) & 0xFF ] ) ^
 1042              		.loc 1 703 0 discriminator 3
 1043 00a4 7240     		eors	r2, r6
 705:Source\mbedtls_open\library/aes.c ****                     AES_RT3( FSb[ ( *SK >> 24 ) & 0xFF ] );
 1044              		.loc 1 705 0 discriminator 3
 1045 00a6 1B0E     		lsrs	r3, r3, #24
ARM GAS  C:\Users\Phuong\AppData\Local\Temp\ccyLHZOj.s 			page 33


 1046 00a8 E318     		adds	r3, r4, r3
 1047 00aa DB5D     		ldrb	r3, [r3, r7]
 1048 00ac 9B00     		lsls	r3, r3, #2
 1049 00ae 1A4F     		ldr	r7, .L57+16
 1050 00b0 FB18     		adds	r3, r7, r3
 1051 00b2 9B6A     		ldr	r3, [r3, #40]
 704:Source\mbedtls_open\library/aes.c ****                     AES_RT2( FSb[ ( *SK >> 16 ) & 0xFF ] ) ^
 1052              		.loc 1 704 0 discriminator 3
 1053 00b4 5A40     		eors	r2, r3
 702:Source\mbedtls_open\library/aes.c ****                     AES_RT1( FSb[ ( *SK >>  8 ) & 0xFF ] ) ^
 1054              		.loc 1 702 0 discriminator 3
 1055 00b6 0260     		str	r2, [r0]
 700:Source\mbedtls_open\library/aes.c ****         {
 1056              		.loc 1 700 0 discriminator 3
 1057 00b8 0131     		adds	r1, r1, #1
 1058              	.LVL96:
 702:Source\mbedtls_open\library/aes.c ****                     AES_RT1( FSb[ ( *SK >>  8 ) & 0xFF ] ) ^
 1059              		.loc 1 702 0 discriminator 3
 1060 00ba 0430     		adds	r0, r0, #4
 1061              	.LVL97:
 1062 00bc 00E0     		b	.L55
 1063              	.LVL98:
 1064              	.L56:
 1065 00be 0021     		movs	r1, #0
 1066              	.LVL99:
 1067              	.L55:
 700:Source\mbedtls_open\library/aes.c ****         {
 1068              		.loc 1 700 0 discriminator 1
 1069 00c0 0329     		cmp	r1, #3
 1070 00c2 CCDD     		ble	.L54
 698:Source\mbedtls_open\library/aes.c ****     {
 1071              		.loc 1 698 0 discriminator 2
 1072 00c4 0123     		movs	r3, #1
 1073 00c6 5B42     		rsbs	r3, r3, #0
 1074 00c8 9846     		mov	r8, r3
 1075 00ca C444     		add	ip, ip, r8
 1076              	.LVL100:
 1077 00cc 1F3B     		subs	r3, r3, #31
 1078 00ce 9846     		mov	r8, r3
 1079 00d0 C344     		add	fp, fp, r8
 1080              	.LVL101:
 1081              	.L53:
 698:Source\mbedtls_open\library/aes.c ****     {
 1082              		.loc 1 698 0 is_stmt 0 discriminator 1
 1083 00d2 6346     		mov	r3, ip
 1084 00d4 002B     		cmp	r3, #0
 1085 00d6 F2DC     		bgt	.L56
 1086              	.LVL102:
 706:Source\mbedtls_open\library/aes.c ****         }
 707:Source\mbedtls_open\library/aes.c ****     }
 708:Source\mbedtls_open\library/aes.c **** 
 709:Source\mbedtls_open\library/aes.c ****     *RK++ = *SK++;
 1087              		.loc 1 709 0 is_stmt 1
 1088 00d8 5B46     		mov	r3, fp
 1089              	.LVL103:
 1090 00da 1B68     		ldr	r3, [r3]
 1091 00dc 0360     		str	r3, [r0]
ARM GAS  C:\Users\Phuong\AppData\Local\Temp\ccyLHZOj.s 			page 34


 1092              	.LVL104:
 710:Source\mbedtls_open\library/aes.c ****     *RK++ = *SK++;
 1093              		.loc 1 710 0
 1094 00de 5B46     		mov	r3, fp
 1095 00e0 5B68     		ldr	r3, [r3, #4]
 1096 00e2 4360     		str	r3, [r0, #4]
 1097              	.LVL105:
 711:Source\mbedtls_open\library/aes.c ****     *RK++ = *SK++;
 1098              		.loc 1 711 0
 1099 00e4 5B46     		mov	r3, fp
 1100 00e6 9B68     		ldr	r3, [r3, #8]
 1101 00e8 8360     		str	r3, [r0, #8]
 1102              	.LVL106:
 712:Source\mbedtls_open\library/aes.c ****     *RK++ = *SK++;
 1103              		.loc 1 712 0
 1104 00ea 5B46     		mov	r3, fp
 1105 00ec DB68     		ldr	r3, [r3, #12]
 1106 00ee C360     		str	r3, [r0, #12]
 1107              	.LVL107:
 1108              	.L52:
 713:Source\mbedtls_open\library/aes.c **** 
 714:Source\mbedtls_open\library/aes.c **** exit:
 715:Source\mbedtls_open\library/aes.c ****     mbedtls_aes_free( &cty );
 1109              		.loc 1 715 0
 1110 00f0 02A8     		add	r0, sp, #8
 1111 00f2 FFF7FEFF 		bl	mbedtls_aes_free
 1112              	.LVL108:
 716:Source\mbedtls_open\library/aes.c **** 
 717:Source\mbedtls_open\library/aes.c ****     return( ret );
 718:Source\mbedtls_open\library/aes.c **** }
 1113              		.loc 1 718 0
 1114 00f6 0198     		ldr	r0, [sp, #4]
 1115 00f8 49B0     		add	sp, sp, #292
 1116              		@ sp needed
 1117 00fa 3CBC     		pop	{r2, r3, r4, r5}
 1118 00fc 9046     		mov	r8, r2
 1119 00fe 9946     		mov	r9, r3
 1120 0100 A246     		mov	r10, r4
 1121 0102 AB46     		mov	fp, r5
 1122 0104 F0BD     		pop	{r4, r5, r6, r7, pc}
 1123              	.L58:
 1124 0106 C046     		.align	2
 1125              	.L57:
 1126 0108 00000000 		.word	.LANCHOR0
 1127 010c 00120000 		.word	.LANCHOR6
 1128 0110 00160000 		.word	.LANCHOR7
 1129 0114 001A0000 		.word	.LANCHOR8
 1130 0118 001E0000 		.word	.LANCHOR9
 1131              		.cfi_endproc
 1132              	.LFE5:
 1133              		.size	mbedtls_aes_setkey_dec, .-mbedtls_aes_setkey_dec
 1134              		.section	.text.mbedtls_internal_aes_encrypt,"ax",%progbits
 1135              		.align	2
 1136              		.global	mbedtls_internal_aes_encrypt
 1137              		.code	16
 1138              		.thumb_func
 1139              		.type	mbedtls_internal_aes_encrypt, %function
ARM GAS  C:\Users\Phuong\AppData\Local\Temp\ccyLHZOj.s 			page 35


 1140              	mbedtls_internal_aes_encrypt:
 1141              	.LFB6:
 719:Source\mbedtls_open\library/aes.c **** 
 720:Source\mbedtls_open\library/aes.c **** #if defined(MBEDTLS_CIPHER_MODE_XTS)
 721:Source\mbedtls_open\library/aes.c **** static int mbedtls_aes_xts_decode_keys( const unsigned char *key,
 722:Source\mbedtls_open\library/aes.c ****                                         unsigned int keybits,
 723:Source\mbedtls_open\library/aes.c ****                                         const unsigned char **key1,
 724:Source\mbedtls_open\library/aes.c ****                                         unsigned int *key1bits,
 725:Source\mbedtls_open\library/aes.c ****                                         const unsigned char **key2,
 726:Source\mbedtls_open\library/aes.c ****                                         unsigned int *key2bits )
 727:Source\mbedtls_open\library/aes.c **** {
 728:Source\mbedtls_open\library/aes.c ****     const unsigned int half_keybits = keybits / 2;
 729:Source\mbedtls_open\library/aes.c ****     const unsigned int half_keybytes = half_keybits / 8;
 730:Source\mbedtls_open\library/aes.c **** 
 731:Source\mbedtls_open\library/aes.c ****     switch( keybits )
 732:Source\mbedtls_open\library/aes.c ****     {
 733:Source\mbedtls_open\library/aes.c ****         case 256: break;
 734:Source\mbedtls_open\library/aes.c ****         case 512: break;
 735:Source\mbedtls_open\library/aes.c ****         default : return( MBEDTLS_ERR_AES_INVALID_KEY_LENGTH );
 736:Source\mbedtls_open\library/aes.c ****     }
 737:Source\mbedtls_open\library/aes.c **** 
 738:Source\mbedtls_open\library/aes.c ****     *key1bits = half_keybits;
 739:Source\mbedtls_open\library/aes.c ****     *key2bits = half_keybits;
 740:Source\mbedtls_open\library/aes.c ****     *key1 = &key[0];
 741:Source\mbedtls_open\library/aes.c ****     *key2 = &key[half_keybytes];
 742:Source\mbedtls_open\library/aes.c **** 
 743:Source\mbedtls_open\library/aes.c ****     return 0;
 744:Source\mbedtls_open\library/aes.c **** }
 745:Source\mbedtls_open\library/aes.c **** 
 746:Source\mbedtls_open\library/aes.c **** int mbedtls_aes_xts_setkey_enc( mbedtls_aes_xts_context *ctx,
 747:Source\mbedtls_open\library/aes.c ****                                 const unsigned char *key,
 748:Source\mbedtls_open\library/aes.c ****                                 unsigned int keybits)
 749:Source\mbedtls_open\library/aes.c **** {
 750:Source\mbedtls_open\library/aes.c ****     int ret;
 751:Source\mbedtls_open\library/aes.c ****     const unsigned char *key1, *key2;
 752:Source\mbedtls_open\library/aes.c ****     unsigned int key1bits, key2bits;
 753:Source\mbedtls_open\library/aes.c **** 
 754:Source\mbedtls_open\library/aes.c ****     ret = mbedtls_aes_xts_decode_keys( key, keybits, &key1, &key1bits,
 755:Source\mbedtls_open\library/aes.c ****                                        &key2, &key2bits );
 756:Source\mbedtls_open\library/aes.c ****     if( ret != 0 )
 757:Source\mbedtls_open\library/aes.c ****         return( ret );
 758:Source\mbedtls_open\library/aes.c **** 
 759:Source\mbedtls_open\library/aes.c ****     /* Set the tweak key. Always set tweak key for the encryption mode. */
 760:Source\mbedtls_open\library/aes.c ****     ret = mbedtls_aes_setkey_enc( &ctx->tweak, key2, key2bits );
 761:Source\mbedtls_open\library/aes.c ****     if( ret != 0 )
 762:Source\mbedtls_open\library/aes.c ****         return( ret );
 763:Source\mbedtls_open\library/aes.c **** 
 764:Source\mbedtls_open\library/aes.c ****     /* Set crypt key for encryption. */
 765:Source\mbedtls_open\library/aes.c ****     return mbedtls_aes_setkey_enc( &ctx->crypt, key1, key1bits );
 766:Source\mbedtls_open\library/aes.c **** }
 767:Source\mbedtls_open\library/aes.c **** 
 768:Source\mbedtls_open\library/aes.c **** int mbedtls_aes_xts_setkey_dec( mbedtls_aes_xts_context *ctx,
 769:Source\mbedtls_open\library/aes.c ****                                 const unsigned char *key,
 770:Source\mbedtls_open\library/aes.c ****                                 unsigned int keybits)
 771:Source\mbedtls_open\library/aes.c **** {
 772:Source\mbedtls_open\library/aes.c ****     int ret;
 773:Source\mbedtls_open\library/aes.c ****     const unsigned char *key1, *key2;
ARM GAS  C:\Users\Phuong\AppData\Local\Temp\ccyLHZOj.s 			page 36


 774:Source\mbedtls_open\library/aes.c ****     unsigned int key1bits, key2bits;
 775:Source\mbedtls_open\library/aes.c **** 
 776:Source\mbedtls_open\library/aes.c ****     ret = mbedtls_aes_xts_decode_keys( key, keybits, &key1, &key1bits,
 777:Source\mbedtls_open\library/aes.c ****                                        &key2, &key2bits );
 778:Source\mbedtls_open\library/aes.c ****     if( ret != 0 )
 779:Source\mbedtls_open\library/aes.c ****         return( ret );
 780:Source\mbedtls_open\library/aes.c **** 
 781:Source\mbedtls_open\library/aes.c ****     /* Set the tweak key. Always set tweak key for encryption. */
 782:Source\mbedtls_open\library/aes.c ****     ret = mbedtls_aes_setkey_enc( &ctx->tweak, key2, key2bits );
 783:Source\mbedtls_open\library/aes.c ****     if( ret != 0 )
 784:Source\mbedtls_open\library/aes.c ****         return( ret );
 785:Source\mbedtls_open\library/aes.c **** 
 786:Source\mbedtls_open\library/aes.c ****     /* Set crypt key for decryption. */
 787:Source\mbedtls_open\library/aes.c ****     return mbedtls_aes_setkey_dec( &ctx->crypt, key1, key1bits );
 788:Source\mbedtls_open\library/aes.c **** }
 789:Source\mbedtls_open\library/aes.c **** #endif /* MBEDTLS_CIPHER_MODE_XTS */
 790:Source\mbedtls_open\library/aes.c **** 
 791:Source\mbedtls_open\library/aes.c **** #endif /* !MBEDTLS_AES_SETKEY_DEC_ALT */
 792:Source\mbedtls_open\library/aes.c **** 
 793:Source\mbedtls_open\library/aes.c **** #define AES_FROUND(X0,X1,X2,X3,Y0,Y1,Y2,Y3)         \
 794:Source\mbedtls_open\library/aes.c **** {                                                   \
 795:Source\mbedtls_open\library/aes.c ****     X0 = *RK++ ^ AES_FT0( ( Y0       ) & 0xFF ) ^   \
 796:Source\mbedtls_open\library/aes.c ****                  AES_FT1( ( Y1 >>  8 ) & 0xFF ) ^   \
 797:Source\mbedtls_open\library/aes.c ****                  AES_FT2( ( Y2 >> 16 ) & 0xFF ) ^   \
 798:Source\mbedtls_open\library/aes.c ****                  AES_FT3( ( Y3 >> 24 ) & 0xFF );    \
 799:Source\mbedtls_open\library/aes.c ****                                                     \
 800:Source\mbedtls_open\library/aes.c ****     X1 = *RK++ ^ AES_FT0( ( Y1       ) & 0xFF ) ^   \
 801:Source\mbedtls_open\library/aes.c ****                  AES_FT1( ( Y2 >>  8 ) & 0xFF ) ^   \
 802:Source\mbedtls_open\library/aes.c ****                  AES_FT2( ( Y3 >> 16 ) & 0xFF ) ^   \
 803:Source\mbedtls_open\library/aes.c ****                  AES_FT3( ( Y0 >> 24 ) & 0xFF );    \
 804:Source\mbedtls_open\library/aes.c ****                                                     \
 805:Source\mbedtls_open\library/aes.c ****     X2 = *RK++ ^ AES_FT0( ( Y2       ) & 0xFF ) ^   \
 806:Source\mbedtls_open\library/aes.c ****                  AES_FT1( ( Y3 >>  8 ) & 0xFF ) ^   \
 807:Source\mbedtls_open\library/aes.c ****                  AES_FT2( ( Y0 >> 16 ) & 0xFF ) ^   \
 808:Source\mbedtls_open\library/aes.c ****                  AES_FT3( ( Y1 >> 24 ) & 0xFF );    \
 809:Source\mbedtls_open\library/aes.c ****                                                     \
 810:Source\mbedtls_open\library/aes.c ****     X3 = *RK++ ^ AES_FT0( ( Y3       ) & 0xFF ) ^   \
 811:Source\mbedtls_open\library/aes.c ****                  AES_FT1( ( Y0 >>  8 ) & 0xFF ) ^   \
 812:Source\mbedtls_open\library/aes.c ****                  AES_FT2( ( Y1 >> 16 ) & 0xFF ) ^   \
 813:Source\mbedtls_open\library/aes.c ****                  AES_FT3( ( Y2 >> 24 ) & 0xFF );    \
 814:Source\mbedtls_open\library/aes.c **** }
 815:Source\mbedtls_open\library/aes.c **** 
 816:Source\mbedtls_open\library/aes.c **** #define AES_RROUND(X0,X1,X2,X3,Y0,Y1,Y2,Y3)         \
 817:Source\mbedtls_open\library/aes.c **** {                                                   \
 818:Source\mbedtls_open\library/aes.c ****     X0 = *RK++ ^ AES_RT0( ( Y0       ) & 0xFF ) ^   \
 819:Source\mbedtls_open\library/aes.c ****                  AES_RT1( ( Y3 >>  8 ) & 0xFF ) ^   \
 820:Source\mbedtls_open\library/aes.c ****                  AES_RT2( ( Y2 >> 16 ) & 0xFF ) ^   \
 821:Source\mbedtls_open\library/aes.c ****                  AES_RT3( ( Y1 >> 24 ) & 0xFF );    \
 822:Source\mbedtls_open\library/aes.c ****                                                     \
 823:Source\mbedtls_open\library/aes.c ****     X1 = *RK++ ^ AES_RT0( ( Y1       ) & 0xFF ) ^   \
 824:Source\mbedtls_open\library/aes.c ****                  AES_RT1( ( Y0 >>  8 ) & 0xFF ) ^   \
 825:Source\mbedtls_open\library/aes.c ****                  AES_RT2( ( Y3 >> 16 ) & 0xFF ) ^   \
 826:Source\mbedtls_open\library/aes.c ****                  AES_RT3( ( Y2 >> 24 ) & 0xFF );    \
 827:Source\mbedtls_open\library/aes.c ****                                                     \
 828:Source\mbedtls_open\library/aes.c ****     X2 = *RK++ ^ AES_RT0( ( Y2       ) & 0xFF ) ^   \
 829:Source\mbedtls_open\library/aes.c ****                  AES_RT1( ( Y1 >>  8 ) & 0xFF ) ^   \
 830:Source\mbedtls_open\library/aes.c ****                  AES_RT2( ( Y0 >> 16 ) & 0xFF ) ^   \
ARM GAS  C:\Users\Phuong\AppData\Local\Temp\ccyLHZOj.s 			page 37


 831:Source\mbedtls_open\library/aes.c ****                  AES_RT3( ( Y3 >> 24 ) & 0xFF );    \
 832:Source\mbedtls_open\library/aes.c ****                                                     \
 833:Source\mbedtls_open\library/aes.c ****     X3 = *RK++ ^ AES_RT0( ( Y3       ) & 0xFF ) ^   \
 834:Source\mbedtls_open\library/aes.c ****                  AES_RT1( ( Y2 >>  8 ) & 0xFF ) ^   \
 835:Source\mbedtls_open\library/aes.c ****                  AES_RT2( ( Y1 >> 16 ) & 0xFF ) ^   \
 836:Source\mbedtls_open\library/aes.c ****                  AES_RT3( ( Y0 >> 24 ) & 0xFF );    \
 837:Source\mbedtls_open\library/aes.c **** }
 838:Source\mbedtls_open\library/aes.c **** 
 839:Source\mbedtls_open\library/aes.c **** /*
 840:Source\mbedtls_open\library/aes.c ****  * AES-ECB block encryption
 841:Source\mbedtls_open\library/aes.c ****  */
 842:Source\mbedtls_open\library/aes.c **** #if !defined(MBEDTLS_AES_ENCRYPT_ALT)
 843:Source\mbedtls_open\library/aes.c **** int mbedtls_internal_aes_encrypt( mbedtls_aes_context *ctx,
 844:Source\mbedtls_open\library/aes.c ****                                   const unsigned char input[16],
 845:Source\mbedtls_open\library/aes.c ****                                   unsigned char output[16] )
 846:Source\mbedtls_open\library/aes.c **** {
 1142              		.loc 1 846 0
 1143              		.cfi_startproc
 1144              		@ args = 0, pretend = 0, frame = 24
 1145              		@ frame_needed = 0, uses_anonymous_args = 0
 1146              	.LVL109:
 1147 0000 F0B5     		push	{r4, r5, r6, r7, lr}
 1148              		.cfi_def_cfa_offset 20
 1149              		.cfi_offset 4, -20
 1150              		.cfi_offset 5, -16
 1151              		.cfi_offset 6, -12
 1152              		.cfi_offset 7, -8
 1153              		.cfi_offset 14, -4
 1154 0002 5F46     		mov	r7, fp
 1155 0004 5646     		mov	r6, r10
 1156 0006 4D46     		mov	r5, r9
 1157 0008 4446     		mov	r4, r8
 1158 000a F0B4     		push	{r4, r5, r6, r7}
 1159              		.cfi_def_cfa_offset 36
 1160              		.cfi_offset 8, -36
 1161              		.cfi_offset 9, -32
 1162              		.cfi_offset 10, -28
 1163              		.cfi_offset 11, -24
 1164 000c 87B0     		sub	sp, sp, #28
 1165              		.cfi_def_cfa_offset 64
 1166 000e 0592     		str	r2, [sp, #20]
 847:Source\mbedtls_open\library/aes.c ****     int i;
 848:Source\mbedtls_open\library/aes.c ****     uint32_t *RK, X0, X1, X2, X3, Y0, Y1, Y2, Y3;
 849:Source\mbedtls_open\library/aes.c **** 
 850:Source\mbedtls_open\library/aes.c ****     RK = ctx->rk;
 1167              		.loc 1 850 0
 1168 0010 4268     		ldr	r2, [r0, #4]
 1169              	.LVL110:
 851:Source\mbedtls_open\library/aes.c **** 
 852:Source\mbedtls_open\library/aes.c ****     GET_UINT32_LE( X0, input,  0 ); X0 ^= *RK++;
 1170              		.loc 1 852 0
 1171 0012 0C78     		ldrb	r4, [r1]
 1172 0014 4B78     		ldrb	r3, [r1, #1]
 1173 0016 1B02     		lsls	r3, r3, #8
 1174 0018 2343     		orrs	r3, r4
 1175 001a 8C78     		ldrb	r4, [r1, #2]
 1176 001c 2404     		lsls	r4, r4, #16
ARM GAS  C:\Users\Phuong\AppData\Local\Temp\ccyLHZOj.s 			page 38


 1177 001e 2343     		orrs	r3, r4
 1178 0020 CC78     		ldrb	r4, [r1, #3]
 1179 0022 2406     		lsls	r4, r4, #24
 1180 0024 2343     		orrs	r3, r4
 1181              	.LVL111:
 1182 0026 1468     		ldr	r4, [r2]
 1183 0028 5C40     		eors	r4, r3
 1184 002a 0494     		str	r4, [sp, #16]
 1185              	.LVL112:
 853:Source\mbedtls_open\library/aes.c ****     GET_UINT32_LE( X1, input,  4 ); X1 ^= *RK++;
 1186              		.loc 1 853 0
 1187 002c 0B79     		ldrb	r3, [r1, #4]
 1188 002e 4C79     		ldrb	r4, [r1, #5]
 1189              	.LVL113:
 1190 0030 2402     		lsls	r4, r4, #8
 1191 0032 1C43     		orrs	r4, r3
 1192 0034 8B79     		ldrb	r3, [r1, #6]
 1193 0036 1B04     		lsls	r3, r3, #16
 1194 0038 1C43     		orrs	r4, r3
 1195 003a CB79     		ldrb	r3, [r1, #7]
 1196 003c 1B06     		lsls	r3, r3, #24
 1197 003e 1C43     		orrs	r4, r3
 1198              	.LVL114:
 1199 0040 5368     		ldr	r3, [r2, #4]
 1200 0042 5C40     		eors	r4, r3
 1201              	.LVL115:
 854:Source\mbedtls_open\library/aes.c ****     GET_UINT32_LE( X2, input,  8 ); X2 ^= *RK++;
 1202              		.loc 1 854 0
 1203 0044 0B7A     		ldrb	r3, [r1, #8]
 1204 0046 4D7A     		ldrb	r5, [r1, #9]
 1205 0048 2D02     		lsls	r5, r5, #8
 1206 004a 1D43     		orrs	r5, r3
 1207 004c 8B7A     		ldrb	r3, [r1, #10]
 1208 004e 1B04     		lsls	r3, r3, #16
 1209 0050 1D43     		orrs	r5, r3
 1210 0052 CB7A     		ldrb	r3, [r1, #11]
 1211 0054 1B06     		lsls	r3, r3, #24
 1212 0056 1D43     		orrs	r5, r3
 1213              	.LVL116:
 1214 0058 9368     		ldr	r3, [r2, #8]
 1215 005a 5D40     		eors	r5, r3
 1216              	.LVL117:
 855:Source\mbedtls_open\library/aes.c ****     GET_UINT32_LE( X3, input, 12 ); X3 ^= *RK++;
 1217              		.loc 1 855 0
 1218 005c 0B7B     		ldrb	r3, [r1, #12]
 1219 005e 4E7B     		ldrb	r6, [r1, #13]
 1220 0060 3602     		lsls	r6, r6, #8
 1221 0062 1E43     		orrs	r6, r3
 1222 0064 8B7B     		ldrb	r3, [r1, #14]
 1223 0066 1B04     		lsls	r3, r3, #16
 1224 0068 1E43     		orrs	r6, r3
 1225 006a CB7B     		ldrb	r3, [r1, #15]
 1226 006c 1B06     		lsls	r3, r3, #24
 1227 006e 1E43     		orrs	r6, r3
 1228              	.LVL118:
 1229 0070 1023     		movs	r3, #16
 1230 0072 9B46     		mov	fp, r3
ARM GAS  C:\Users\Phuong\AppData\Local\Temp\ccyLHZOj.s 			page 39


 1231 0074 9344     		add	fp, fp, r2
 1232              	.LVL119:
 1233 0076 D368     		ldr	r3, [r2, #12]
 1234 0078 5E40     		eors	r6, r3
 1235              	.LVL120:
 856:Source\mbedtls_open\library/aes.c **** 
 857:Source\mbedtls_open\library/aes.c ****     for( i = ( ctx->nr >> 1 ) - 1; i > 0; i-- )
 1236              		.loc 1 857 0
 1237 007a 0368     		ldr	r3, [r0]
 1238 007c 5B10     		asrs	r3, r3, #1
 1239 007e 013B     		subs	r3, r3, #1
 1240 0080 0393     		str	r3, [sp, #12]
 1241              	.LVL121:
 1242 0082 5F46     		mov	r7, fp
 1243 0084 0194     		str	r4, [sp, #4]
 1244 0086 D8E0     		b	.L60
 1245              	.LVL122:
 1246              	.L61:
 858:Source\mbedtls_open\library/aes.c ****     {
 859:Source\mbedtls_open\library/aes.c ****         AES_FROUND( Y0, Y1, Y2, Y3, X0, X1, X2, X3 );
 1247              		.loc 1 859 0 discriminator 3
 1248 0088 FF23     		movs	r3, #255
 1249              	.LVL123:
 1250 008a 049C     		ldr	r4, [sp, #16]
 1251 008c 2200     		movs	r2, r4
 1252 008e 1A40     		ands	r2, r3
 1253 0090 F749     		ldr	r1, .L62
 1254 0092 8A46     		mov	r10, r1
 1255 0094 9200     		lsls	r2, r2, #2
 1256 0096 5244     		add	r2, r2, r10
 1257 0098 916A     		ldr	r1, [r2, #40]
 1258 009a 3A68     		ldr	r2, [r7]
 1259 009c 5140     		eors	r1, r2
 1260 009e 0198     		ldr	r0, [sp, #4]
 1261 00a0 020A     		lsrs	r2, r0, #8
 1262 00a2 1A40     		ands	r2, r3
 1263 00a4 F348     		ldr	r0, .L62+4
 1264 00a6 8146     		mov	r9, r0
 1265 00a8 9200     		lsls	r2, r2, #2
 1266 00aa 4A44     		add	r2, r2, r9
 1267 00ac 926A     		ldr	r2, [r2, #40]
 1268 00ae 5140     		eors	r1, r2
 1269 00b0 2A0C     		lsrs	r2, r5, #16
 1270 00b2 1A40     		ands	r2, r3
 1271 00b4 F048     		ldr	r0, .L62+8
 1272 00b6 8046     		mov	r8, r0
 1273 00b8 9200     		lsls	r2, r2, #2
 1274 00ba 4244     		add	r2, r2, r8
 1275 00bc 926A     		ldr	r2, [r2, #40]
 1276 00be 5140     		eors	r1, r2
 1277 00c0 320E     		lsrs	r2, r6, #24
 1278 00c2 EE48     		ldr	r0, .L62+12
 1279 00c4 8446     		mov	ip, r0
 1280 00c6 9200     		lsls	r2, r2, #2
 1281 00c8 6244     		add	r2, r2, ip
 1282 00ca 926A     		ldr	r2, [r2, #40]
 1283 00cc 5140     		eors	r1, r2
ARM GAS  C:\Users\Phuong\AppData\Local\Temp\ccyLHZOj.s 			page 40


 1284              	.LVL124:
 1285 00ce 1A00     		movs	r2, r3
 1286 00d0 0198     		ldr	r0, [sp, #4]
 1287 00d2 0240     		ands	r2, r0
 1288 00d4 9200     		lsls	r2, r2, #2
 1289 00d6 5244     		add	r2, r2, r10
 1290 00d8 926A     		ldr	r2, [r2, #40]
 1291 00da 7868     		ldr	r0, [r7, #4]
 1292 00dc 4240     		eors	r2, r0
 1293 00de 280A     		lsrs	r0, r5, #8
 1294 00e0 1840     		ands	r0, r3
 1295 00e2 8000     		lsls	r0, r0, #2
 1296 00e4 4844     		add	r0, r0, r9
 1297 00e6 806A     		ldr	r0, [r0, #40]
 1298 00e8 4240     		eors	r2, r0
 1299 00ea 300C     		lsrs	r0, r6, #16
 1300 00ec 1840     		ands	r0, r3
 1301 00ee 8000     		lsls	r0, r0, #2
 1302 00f0 4044     		add	r0, r0, r8
 1303 00f2 806A     		ldr	r0, [r0, #40]
 1304 00f4 4240     		eors	r2, r0
 1305 00f6 200E     		lsrs	r0, r4, #24
 1306 00f8 8000     		lsls	r0, r0, #2
 1307 00fa 6044     		add	r0, r0, ip
 1308 00fc 806A     		ldr	r0, [r0, #40]
 1309 00fe 4240     		eors	r2, r0
 1310 0100 0292     		str	r2, [sp, #8]
 1311              	.LVL125:
 1312 0102 1800     		movs	r0, r3
 1313 0104 2840     		ands	r0, r5
 1314 0106 8000     		lsls	r0, r0, #2
 1315 0108 5044     		add	r0, r0, r10
 1316 010a 806A     		ldr	r0, [r0, #40]
 1317 010c BA68     		ldr	r2, [r7, #8]
 1318              	.LVL126:
 1319 010e 4240     		eors	r2, r0
 1320 0110 300A     		lsrs	r0, r6, #8
 1321 0112 1840     		ands	r0, r3
 1322 0114 8000     		lsls	r0, r0, #2
 1323 0116 4844     		add	r0, r0, r9
 1324 0118 806A     		ldr	r0, [r0, #40]
 1325 011a 4240     		eors	r2, r0
 1326 011c 200C     		lsrs	r0, r4, #16
 1327 011e 1840     		ands	r0, r3
 1328 0120 8000     		lsls	r0, r0, #2
 1329 0122 4044     		add	r0, r0, r8
 1330 0124 806A     		ldr	r0, [r0, #40]
 1331 0126 4240     		eors	r2, r0
 1332 0128 0198     		ldr	r0, [sp, #4]
 1333 012a 000E     		lsrs	r0, r0, #24
 1334 012c 8000     		lsls	r0, r0, #2
 1335 012e 6044     		add	r0, r0, ip
 1336 0130 806A     		ldr	r0, [r0, #40]
 1337 0132 5040     		eors	r0, r2
 1338              	.LVL127:
 1339 0134 1E40     		ands	r6, r3
 1340              	.LVL128:
ARM GAS  C:\Users\Phuong\AppData\Local\Temp\ccyLHZOj.s 			page 41


 1341 0136 B600     		lsls	r6, r6, #2
 1342 0138 5644     		add	r6, r6, r10
 1343 013a B66A     		ldr	r6, [r6, #40]
 1344 013c FA68     		ldr	r2, [r7, #12]
 1345 013e 5640     		eors	r6, r2
 1346 0140 220A     		lsrs	r2, r4, #8
 1347 0142 1A40     		ands	r2, r3
 1348 0144 9200     		lsls	r2, r2, #2
 1349 0146 9346     		mov	fp, r2
 1350 0148 CB44     		add	fp, fp, r9
 1351 014a 5A46     		mov	r2, fp
 1352 014c 926A     		ldr	r2, [r2, #40]
 1353 014e 5640     		eors	r6, r2
 1354 0150 019C     		ldr	r4, [sp, #4]
 1355 0152 240C     		lsrs	r4, r4, #16
 1356 0154 1C40     		ands	r4, r3
 1357 0156 A400     		lsls	r4, r4, #2
 1358 0158 4444     		add	r4, r4, r8
 1359 015a A46A     		ldr	r4, [r4, #40]
 1360 015c 6640     		eors	r6, r4
 1361 015e 2D0E     		lsrs	r5, r5, #24
 1362              	.LVL129:
 1363 0160 AD00     		lsls	r5, r5, #2
 1364 0162 6544     		add	r5, r5, ip
 1365 0164 AC6A     		ldr	r4, [r5, #40]
 1366 0166 6640     		eors	r6, r4
 1367              	.LVL130:
 860:Source\mbedtls_open\library/aes.c ****         AES_FROUND( X0, X1, X2, X3, Y0, Y1, Y2, Y3 );
 1368              		.loc 1 860 0 discriminator 3
 1369 0168 1C00     		movs	r4, r3
 1370 016a 0C40     		ands	r4, r1
 1371 016c A400     		lsls	r4, r4, #2
 1372 016e 5444     		add	r4, r4, r10
 1373 0170 A56A     		ldr	r5, [r4, #40]
 1374 0172 3A69     		ldr	r2, [r7, #16]
 1375 0174 5540     		eors	r5, r2
 1376 0176 029A     		ldr	r2, [sp, #8]
 1377 0178 140A     		lsrs	r4, r2, #8
 1378 017a 1C40     		ands	r4, r3
 1379 017c A400     		lsls	r4, r4, #2
 1380 017e 4C44     		add	r4, r4, r9
 1381 0180 A46A     		ldr	r4, [r4, #40]
 1382 0182 6540     		eors	r5, r4
 1383 0184 040C     		lsrs	r4, r0, #16
 1384 0186 1C40     		ands	r4, r3
 1385 0188 A400     		lsls	r4, r4, #2
 1386 018a 4444     		add	r4, r4, r8
 1387 018c A46A     		ldr	r4, [r4, #40]
 1388 018e 6540     		eors	r5, r4
 1389 0190 340E     		lsrs	r4, r6, #24
 1390 0192 A400     		lsls	r4, r4, #2
 1391 0194 6444     		add	r4, r4, ip
 1392 0196 A46A     		ldr	r4, [r4, #40]
 1393 0198 6540     		eors	r5, r4
 1394 019a 0495     		str	r5, [sp, #16]
 1395              	.LVL131:
 1396 019c 1C00     		movs	r4, r3
ARM GAS  C:\Users\Phuong\AppData\Local\Temp\ccyLHZOj.s 			page 42


 1397 019e 1440     		ands	r4, r2
 1398 01a0 A400     		lsls	r4, r4, #2
 1399 01a2 5444     		add	r4, r4, r10
 1400 01a4 A46A     		ldr	r4, [r4, #40]
 1401 01a6 7A69     		ldr	r2, [r7, #20]
 1402 01a8 5440     		eors	r4, r2
 1403 01aa 050A     		lsrs	r5, r0, #8
 1404              	.LVL132:
 1405 01ac 1D40     		ands	r5, r3
 1406 01ae AD00     		lsls	r5, r5, #2
 1407 01b0 4D44     		add	r5, r5, r9
 1408 01b2 AD6A     		ldr	r5, [r5, #40]
 1409 01b4 6C40     		eors	r4, r5
 1410 01b6 350C     		lsrs	r5, r6, #16
 1411 01b8 1D40     		ands	r5, r3
 1412 01ba AD00     		lsls	r5, r5, #2
 1413 01bc 4544     		add	r5, r5, r8
 1414 01be AD6A     		ldr	r5, [r5, #40]
 1415 01c0 6C40     		eors	r4, r5
 1416 01c2 0D0E     		lsrs	r5, r1, #24
 1417 01c4 AD00     		lsls	r5, r5, #2
 1418 01c6 6544     		add	r5, r5, ip
 1419 01c8 AD6A     		ldr	r5, [r5, #40]
 1420 01ca 6C40     		eors	r4, r5
 1421 01cc 0194     		str	r4, [sp, #4]
 1422              	.LVL133:
 1423 01ce 1D00     		movs	r5, r3
 1424 01d0 0540     		ands	r5, r0
 1425 01d2 AD00     		lsls	r5, r5, #2
 1426 01d4 5544     		add	r5, r5, r10
 1427 01d6 AD6A     		ldr	r5, [r5, #40]
 1428 01d8 BA69     		ldr	r2, [r7, #24]
 1429 01da 6A40     		eors	r2, r5
 1430 01dc 350A     		lsrs	r5, r6, #8
 1431 01de 1D40     		ands	r5, r3
 1432 01e0 AD00     		lsls	r5, r5, #2
 1433 01e2 4D44     		add	r5, r5, r9
 1434 01e4 AD6A     		ldr	r5, [r5, #40]
 1435 01e6 6A40     		eors	r2, r5
 1436 01e8 0D0C     		lsrs	r5, r1, #16
 1437 01ea 1D40     		ands	r5, r3
 1438 01ec AD00     		lsls	r5, r5, #2
 1439 01ee 4544     		add	r5, r5, r8
 1440 01f0 AD6A     		ldr	r5, [r5, #40]
 1441 01f2 6A40     		eors	r2, r5
 1442 01f4 9346     		mov	fp, r2
 1443 01f6 029C     		ldr	r4, [sp, #8]
 1444              	.LVL134:
 1445 01f8 250E     		lsrs	r5, r4, #24
 1446 01fa AD00     		lsls	r5, r5, #2
 1447 01fc 6544     		add	r5, r5, ip
 1448 01fe AD6A     		ldr	r5, [r5, #40]
 1449 0200 5A46     		mov	r2, fp
 1450 0202 5540     		eors	r5, r2
 1451              	.LVL135:
 1452 0204 1E40     		ands	r6, r3
 1453              	.LVL136:
ARM GAS  C:\Users\Phuong\AppData\Local\Temp\ccyLHZOj.s 			page 43


 1454 0206 B600     		lsls	r6, r6, #2
 1455 0208 5644     		add	r6, r6, r10
 1456 020a B66A     		ldr	r6, [r6, #40]
 1457 020c FA69     		ldr	r2, [r7, #28]
 1458 020e 5640     		eors	r6, r2
 1459 0210 090A     		lsrs	r1, r1, #8
 1460              	.LVL137:
 1461 0212 1940     		ands	r1, r3
 1462 0214 8900     		lsls	r1, r1, #2
 1463 0216 4944     		add	r1, r1, r9
 1464 0218 896A     		ldr	r1, [r1, #40]
 1465 021a 4E40     		eors	r6, r1
 1466 021c 220C     		lsrs	r2, r4, #16
 1467 021e 1340     		ands	r3, r2
 1468 0220 9B00     		lsls	r3, r3, #2
 1469 0222 4344     		add	r3, r3, r8
 1470 0224 9B6A     		ldr	r3, [r3, #40]
 1471 0226 5E40     		eors	r6, r3
 1472 0228 000E     		lsrs	r0, r0, #24
 1473              	.LVL138:
 1474 022a 8000     		lsls	r0, r0, #2
 1475 022c 6044     		add	r0, r0, ip
 1476 022e 836A     		ldr	r3, [r0, #40]
 1477 0230 5E40     		eors	r6, r3
 1478              	.LVL139:
 857:Source\mbedtls_open\library/aes.c ****     {
 1479              		.loc 1 857 0 discriminator 3
 1480 0232 039B     		ldr	r3, [sp, #12]
 1481 0234 013B     		subs	r3, r3, #1
 1482 0236 0393     		str	r3, [sp, #12]
 1483              	.LVL140:
 1484              		.loc 1 860 0 discriminator 3
 1485 0238 2037     		adds	r7, r7, #32
 1486              	.LVL141:
 1487              	.L60:
 857:Source\mbedtls_open\library/aes.c ****     {
 1488              		.loc 1 857 0 discriminator 1
 1489 023a 039B     		ldr	r3, [sp, #12]
 1490 023c 002B     		cmp	r3, #0
 1491 023e 00DD     		ble	.LCB1587
 1492 0240 22E7     		b	.L61	@long jump
 1493              	.LCB1587:
 1494 0242 BB46     		mov	fp, r7
 1495 0244 019C     		ldr	r4, [sp, #4]
 1496              	.LVL142:
 861:Source\mbedtls_open\library/aes.c ****     }
 862:Source\mbedtls_open\library/aes.c **** 
 863:Source\mbedtls_open\library/aes.c ****     AES_FROUND( Y0, Y1, Y2, Y3, X0, X1, X2, X3 );
 1497              		.loc 1 863 0
 1498 0246 FF23     		movs	r3, #255
 1499 0248 0498     		ldr	r0, [sp, #16]
 1500 024a 0200     		movs	r2, r0
 1501 024c 1A40     		ands	r2, r3
 1502 024e 8849     		ldr	r1, .L62
 1503 0250 8946     		mov	r9, r1
 1504 0252 9200     		lsls	r2, r2, #2
 1505 0254 4A44     		add	r2, r2, r9
ARM GAS  C:\Users\Phuong\AppData\Local\Temp\ccyLHZOj.s 			page 44


 1506 0256 916A     		ldr	r1, [r2, #40]
 1507 0258 3A68     		ldr	r2, [r7]
 1508 025a 5140     		eors	r1, r2
 1509 025c 220A     		lsrs	r2, r4, #8
 1510 025e 1A40     		ands	r2, r3
 1511 0260 844F     		ldr	r7, .L62+4
 1512              	.LVL143:
 1513 0262 B846     		mov	r8, r7
 1514 0264 9200     		lsls	r2, r2, #2
 1515 0266 4244     		add	r2, r2, r8
 1516 0268 926A     		ldr	r2, [r2, #40]
 1517 026a 5140     		eors	r1, r2
 1518 026c 2A0C     		lsrs	r2, r5, #16
 1519 026e 1A40     		ands	r2, r3
 1520 0270 814F     		ldr	r7, .L62+8
 1521 0272 BC46     		mov	ip, r7
 1522 0274 9200     		lsls	r2, r2, #2
 1523 0276 6244     		add	r2, r2, ip
 1524 0278 926A     		ldr	r2, [r2, #40]
 1525 027a 5140     		eors	r1, r2
 1526 027c 320E     		lsrs	r2, r6, #24
 1527 027e 7F4F     		ldr	r7, .L62+12
 1528 0280 9200     		lsls	r2, r2, #2
 1529 0282 BA18     		adds	r2, r7, r2
 1530 0284 926A     		ldr	r2, [r2, #40]
 1531 0286 5140     		eors	r1, r2
 1532 0288 8A46     		mov	r10, r1
 1533              	.LVL144:
 1534 028a 1A00     		movs	r2, r3
 1535 028c 2240     		ands	r2, r4
 1536 028e 9200     		lsls	r2, r2, #2
 1537 0290 4A44     		add	r2, r2, r9
 1538 0292 926A     		ldr	r2, [r2, #40]
 1539 0294 5946     		mov	r1, fp
 1540              	.LVL145:
 1541 0296 4968     		ldr	r1, [r1, #4]
 1542 0298 4A40     		eors	r2, r1
 1543 029a 290A     		lsrs	r1, r5, #8
 1544 029c 1940     		ands	r1, r3
 1545 029e 8900     		lsls	r1, r1, #2
 1546 02a0 4144     		add	r1, r1, r8
 1547 02a2 896A     		ldr	r1, [r1, #40]
 1548 02a4 4A40     		eors	r2, r1
 1549 02a6 310C     		lsrs	r1, r6, #16
 1550 02a8 1940     		ands	r1, r3
 1551 02aa 8900     		lsls	r1, r1, #2
 1552 02ac 6144     		add	r1, r1, ip
 1553 02ae 896A     		ldr	r1, [r1, #40]
 1554 02b0 4A40     		eors	r2, r1
 1555 02b2 010E     		lsrs	r1, r0, #24
 1556 02b4 8900     		lsls	r1, r1, #2
 1557 02b6 7918     		adds	r1, r7, r1
 1558 02b8 896A     		ldr	r1, [r1, #40]
 1559 02ba 4A40     		eors	r2, r1
 1560 02bc 0192     		str	r2, [sp, #4]
 1561              	.LVL146:
 1562 02be 1900     		movs	r1, r3
ARM GAS  C:\Users\Phuong\AppData\Local\Temp\ccyLHZOj.s 			page 45


 1563 02c0 2940     		ands	r1, r5
 1564 02c2 8900     		lsls	r1, r1, #2
 1565 02c4 4944     		add	r1, r1, r9
 1566 02c6 896A     		ldr	r1, [r1, #40]
 1567 02c8 5A46     		mov	r2, fp
 1568              	.LVL147:
 1569 02ca 9268     		ldr	r2, [r2, #8]
 1570 02cc 5140     		eors	r1, r2
 1571 02ce 300A     		lsrs	r0, r6, #8
 1572 02d0 1840     		ands	r0, r3
 1573 02d2 8000     		lsls	r0, r0, #2
 1574 02d4 4044     		add	r0, r0, r8
 1575 02d6 806A     		ldr	r0, [r0, #40]
 1576 02d8 4140     		eors	r1, r0
 1577 02da 0498     		ldr	r0, [sp, #16]
 1578 02dc 000C     		lsrs	r0, r0, #16
 1579 02de 1840     		ands	r0, r3
 1580 02e0 8000     		lsls	r0, r0, #2
 1581 02e2 6044     		add	r0, r0, ip
 1582 02e4 806A     		ldr	r0, [r0, #40]
 1583 02e6 4840     		eors	r0, r1
 1584 02e8 210E     		lsrs	r1, r4, #24
 1585 02ea 8900     		lsls	r1, r1, #2
 1586 02ec 7918     		adds	r1, r7, r1
 1587 02ee 896A     		ldr	r1, [r1, #40]
 1588 02f0 4140     		eors	r1, r0
 1589              	.LVL148:
 1590 02f2 1E40     		ands	r6, r3
 1591              	.LVL149:
 1592 02f4 B600     		lsls	r6, r6, #2
 1593 02f6 4E44     		add	r6, r6, r9
 1594 02f8 B06A     		ldr	r0, [r6, #40]
 1595 02fa 5A46     		mov	r2, fp
 1596 02fc D268     		ldr	r2, [r2, #12]
 1597 02fe 5040     		eors	r0, r2
 1598 0300 049E     		ldr	r6, [sp, #16]
 1599 0302 360A     		lsrs	r6, r6, #8
 1600 0304 1E40     		ands	r6, r3
 1601 0306 B600     		lsls	r6, r6, #2
 1602 0308 4644     		add	r6, r6, r8
 1603 030a B66A     		ldr	r6, [r6, #40]
 1604 030c 7040     		eors	r0, r6
 1605 030e 240C     		lsrs	r4, r4, #16
 1606              	.LVL150:
 1607 0310 1C40     		ands	r4, r3
 1608 0312 A400     		lsls	r4, r4, #2
 1609 0314 6444     		add	r4, r4, ip
 1610 0316 A46A     		ldr	r4, [r4, #40]
 1611 0318 6040     		eors	r0, r4
 1612 031a 2D0E     		lsrs	r5, r5, #24
 1613              	.LVL151:
 1614 031c AD00     		lsls	r5, r5, #2
 1615 031e 7F19     		adds	r7, r7, r5
 1616 0320 BC6A     		ldr	r4, [r7, #40]
 1617 0322 6040     		eors	r0, r4
 1618 0324 8046     		mov	r8, r0
 1619              	.LVL152:
ARM GAS  C:\Users\Phuong\AppData\Local\Temp\ccyLHZOj.s 			page 46


 864:Source\mbedtls_open\library/aes.c **** 
 865:Source\mbedtls_open\library/aes.c ****     X0 = *RK++ ^ \
 866:Source\mbedtls_open\library/aes.c ****             ( (uint32_t) FSb[ ( Y0       ) & 0xFF ]       ) ^
 1620              		.loc 1 866 0
 1621 0326 5046     		mov	r0, r10
 1622              	.LVL153:
 1623 0328 1840     		ands	r0, r3
 1624 032a 554D     		ldr	r5, .L62+16
 1625 032c 2824     		movs	r4, #40
 1626 032e 2818     		adds	r0, r5, r0
 1627 0330 075D     		ldrb	r7, [r0, r4]
 865:Source\mbedtls_open\library/aes.c ****             ( (uint32_t) FSb[ ( Y0       ) & 0xFF ]       ) ^
 1628              		.loc 1 865 0
 1629 0332 5A46     		mov	r2, fp
 1630 0334 1069     		ldr	r0, [r2, #16]
 1631 0336 7840     		eors	r0, r7
 867:Source\mbedtls_open\library/aes.c ****             ( (uint32_t) FSb[ ( Y1 >>  8 ) & 0xFF ] <<  8 ) ^
 1632              		.loc 1 867 0
 1633 0338 019A     		ldr	r2, [sp, #4]
 1634 033a 160A     		lsrs	r6, r2, #8
 1635 033c 1E40     		ands	r6, r3
 1636 033e AE19     		adds	r6, r5, r6
 1637 0340 365D     		ldrb	r6, [r6, r4]
 1638 0342 3602     		lsls	r6, r6, #8
 866:Source\mbedtls_open\library/aes.c ****             ( (uint32_t) FSb[ ( Y1 >>  8 ) & 0xFF ] <<  8 ) ^
 1639              		.loc 1 866 0
 1640 0344 7040     		eors	r0, r6
 1641 0346 0700     		movs	r7, r0
 868:Source\mbedtls_open\library/aes.c ****             ( (uint32_t) FSb[ ( Y2 >> 16 ) & 0xFF ] << 16 ) ^
 1642              		.loc 1 868 0
 1643 0348 0E0C     		lsrs	r6, r1, #16
 1644 034a 1E40     		ands	r6, r3
 1645 034c AE19     		adds	r6, r5, r6
 1646 034e 305D     		ldrb	r0, [r6, r4]
 1647 0350 0004     		lsls	r0, r0, #16
 867:Source\mbedtls_open\library/aes.c ****             ( (uint32_t) FSb[ ( Y1 >>  8 ) & 0xFF ] <<  8 ) ^
 1648              		.loc 1 867 0
 1649 0352 3E00     		movs	r6, r7
 1650 0354 4640     		eors	r6, r0
 869:Source\mbedtls_open\library/aes.c ****             ( (uint32_t) FSb[ ( Y3 >> 24 ) & 0xFF ] << 24 );
 1651              		.loc 1 869 0
 1652 0356 4246     		mov	r2, r8
 1653 0358 100E     		lsrs	r0, r2, #24
 1654 035a 2818     		adds	r0, r5, r0
 1655 035c 005D     		ldrb	r0, [r0, r4]
 1656 035e 0006     		lsls	r0, r0, #24
 865:Source\mbedtls_open\library/aes.c ****             ( (uint32_t) FSb[ ( Y0       ) & 0xFF ]       ) ^
 1657              		.loc 1 865 0
 1658 0360 7040     		eors	r0, r6
 1659              	.LVL154:
 870:Source\mbedtls_open\library/aes.c **** 
 871:Source\mbedtls_open\library/aes.c ****     X1 = *RK++ ^ \
 872:Source\mbedtls_open\library/aes.c ****             ( (uint32_t) FSb[ ( Y1       ) & 0xFF ]       ) ^
 1660              		.loc 1 872 0
 1661 0362 1E00     		movs	r6, r3
 1662 0364 019A     		ldr	r2, [sp, #4]
 1663 0366 1640     		ands	r6, r2
ARM GAS  C:\Users\Phuong\AppData\Local\Temp\ccyLHZOj.s 			page 47


 1664 0368 AE19     		adds	r6, r5, r6
 1665 036a 365D     		ldrb	r6, [r6, r4]
 871:Source\mbedtls_open\library/aes.c ****             ( (uint32_t) FSb[ ( Y1       ) & 0xFF ]       ) ^
 1666              		.loc 1 871 0
 1667 036c 5A46     		mov	r2, fp
 1668 036e 5269     		ldr	r2, [r2, #20]
 1669 0370 5640     		eors	r6, r2
 873:Source\mbedtls_open\library/aes.c ****             ( (uint32_t) FSb[ ( Y2 >>  8 ) & 0xFF ] <<  8 ) ^
 1670              		.loc 1 873 0
 1671 0372 0F0A     		lsrs	r7, r1, #8
 1672 0374 1F40     		ands	r7, r3
 1673 0376 EF19     		adds	r7, r5, r7
 1674 0378 3F5D     		ldrb	r7, [r7, r4]
 1675 037a 3F02     		lsls	r7, r7, #8
 872:Source\mbedtls_open\library/aes.c ****             ( (uint32_t) FSb[ ( Y2 >>  8 ) & 0xFF ] <<  8 ) ^
 1676              		.loc 1 872 0
 1677 037c 7E40     		eors	r6, r7
 874:Source\mbedtls_open\library/aes.c ****             ( (uint32_t) FSb[ ( Y3 >> 16 ) & 0xFF ] << 16 ) ^
 1678              		.loc 1 874 0
 1679 037e 4246     		mov	r2, r8
 1680 0380 170C     		lsrs	r7, r2, #16
 1681 0382 1F40     		ands	r7, r3
 1682 0384 EF19     		adds	r7, r5, r7
 1683 0386 3F5D     		ldrb	r7, [r7, r4]
 1684 0388 3F04     		lsls	r7, r7, #16
 873:Source\mbedtls_open\library/aes.c ****             ( (uint32_t) FSb[ ( Y2 >>  8 ) & 0xFF ] <<  8 ) ^
 1685              		.loc 1 873 0
 1686 038a 7E40     		eors	r6, r7
 875:Source\mbedtls_open\library/aes.c ****             ( (uint32_t) FSb[ ( Y0 >> 24 ) & 0xFF ] << 24 );
 1687              		.loc 1 875 0
 1688 038c 5246     		mov	r2, r10
 1689 038e 170E     		lsrs	r7, r2, #24
 1690 0390 EF19     		adds	r7, r5, r7
 1691 0392 3F5D     		ldrb	r7, [r7, r4]
 1692 0394 3F06     		lsls	r7, r7, #24
 871:Source\mbedtls_open\library/aes.c ****             ( (uint32_t) FSb[ ( Y1       ) & 0xFF ]       ) ^
 1693              		.loc 1 871 0
 1694 0396 7740     		eors	r7, r6
 1695              	.LVL155:
 876:Source\mbedtls_open\library/aes.c **** 
 877:Source\mbedtls_open\library/aes.c ****     X2 = *RK++ ^ \
 878:Source\mbedtls_open\library/aes.c ****             ( (uint32_t) FSb[ ( Y2       ) & 0xFF ]       ) ^
 1696              		.loc 1 878 0
 1697 0398 1E00     		movs	r6, r3
 1698 039a 0291     		str	r1, [sp, #8]
 1699 039c 0E40     		ands	r6, r1
 1700 039e AE19     		adds	r6, r5, r6
 1701 03a0 365D     		ldrb	r6, [r6, r4]
 877:Source\mbedtls_open\library/aes.c ****             ( (uint32_t) FSb[ ( Y2       ) & 0xFF ]       ) ^
 1702              		.loc 1 877 0
 1703 03a2 5A46     		mov	r2, fp
 1704 03a4 9269     		ldr	r2, [r2, #24]
 1705 03a6 7240     		eors	r2, r6
 1706 03a8 9446     		mov	ip, r2
 879:Source\mbedtls_open\library/aes.c ****             ( (uint32_t) FSb[ ( Y3 >>  8 ) & 0xFF ] <<  8 ) ^
 1707              		.loc 1 879 0
 1708 03aa 4246     		mov	r2, r8
ARM GAS  C:\Users\Phuong\AppData\Local\Temp\ccyLHZOj.s 			page 48


 1709 03ac 160A     		lsrs	r6, r2, #8
 1710 03ae 1E40     		ands	r6, r3
 1711 03b0 AE19     		adds	r6, r5, r6
 1712 03b2 365D     		ldrb	r6, [r6, r4]
 1713 03b4 3602     		lsls	r6, r6, #8
 878:Source\mbedtls_open\library/aes.c ****             ( (uint32_t) FSb[ ( Y3 >>  8 ) & 0xFF ] <<  8 ) ^
 1714              		.loc 1 878 0
 1715 03b6 6246     		mov	r2, ip
 1716 03b8 5640     		eors	r6, r2
 880:Source\mbedtls_open\library/aes.c ****             ( (uint32_t) FSb[ ( Y0 >> 16 ) & 0xFF ] << 16 ) ^
 1717              		.loc 1 880 0
 1718 03ba 5246     		mov	r2, r10
 1719 03bc 120C     		lsrs	r2, r2, #16
 1720 03be 1A40     		ands	r2, r3
 1721 03c0 9446     		mov	ip, r2
 1722 03c2 AC44     		add	ip, ip, r5
 1723 03c4 6246     		mov	r2, ip
 1724 03c6 125D     		ldrb	r2, [r2, r4]
 1725 03c8 1204     		lsls	r2, r2, #16
 879:Source\mbedtls_open\library/aes.c ****             ( (uint32_t) FSb[ ( Y3 >>  8 ) & 0xFF ] <<  8 ) ^
 1726              		.loc 1 879 0
 1727 03ca 5640     		eors	r6, r2
 881:Source\mbedtls_open\library/aes.c ****             ( (uint32_t) FSb[ ( Y1 >> 24 ) & 0xFF ] << 24 );
 1728              		.loc 1 881 0
 1729 03cc 0199     		ldr	r1, [sp, #4]
 1730              	.LVL156:
 1731 03ce 0A0E     		lsrs	r2, r1, #24
 1732 03d0 9446     		mov	ip, r2
 1733 03d2 AC44     		add	ip, ip, r5
 1734 03d4 6246     		mov	r2, ip
 1735 03d6 125D     		ldrb	r2, [r2, r4]
 1736 03d8 1206     		lsls	r2, r2, #24
 877:Source\mbedtls_open\library/aes.c ****             ( (uint32_t) FSb[ ( Y2       ) & 0xFF ]       ) ^
 1737              		.loc 1 877 0
 1738 03da 5640     		eors	r6, r2
 1739              	.LVL157:
 882:Source\mbedtls_open\library/aes.c **** 
 883:Source\mbedtls_open\library/aes.c ****     X3 = *RK++ ^ \
 1740              		.loc 1 883 0
 1741 03dc 5A46     		mov	r2, fp
 1742 03de D269     		ldr	r2, [r2, #28]
 1743 03e0 9446     		mov	ip, r2
 884:Source\mbedtls_open\library/aes.c ****             ( (uint32_t) FSb[ ( Y3       ) & 0xFF ]       ) ^
 1744              		.loc 1 884 0
 1745 03e2 4246     		mov	r2, r8
 1746 03e4 1A40     		ands	r2, r3
 1747 03e6 9046     		mov	r8, r2
 1748              	.LVL158:
 1749 03e8 A844     		add	r8, r8, r5
 1750 03ea 4246     		mov	r2, r8
 1751 03ec 125D     		ldrb	r2, [r2, r4]
 1752 03ee 9046     		mov	r8, r2
 883:Source\mbedtls_open\library/aes.c ****             ( (uint32_t) FSb[ ( Y3       ) & 0xFF ]       ) ^
 1753              		.loc 1 883 0
 1754 03f0 6246     		mov	r2, ip
 1755 03f2 4146     		mov	r1, r8
 1756 03f4 4A40     		eors	r2, r1
ARM GAS  C:\Users\Phuong\AppData\Local\Temp\ccyLHZOj.s 			page 49


 1757 03f6 9446     		mov	ip, r2
 885:Source\mbedtls_open\library/aes.c ****             ( (uint32_t) FSb[ ( Y0 >>  8 ) & 0xFF ] <<  8 ) ^
 1758              		.loc 1 885 0
 1759 03f8 5246     		mov	r2, r10
 1760 03fa 120A     		lsrs	r2, r2, #8
 1761 03fc 1A40     		ands	r2, r3
 1762 03fe 9246     		mov	r10, r2
 1763              	.LVL159:
 1764 0400 AA44     		add	r10, r10, r5
 1765 0402 5246     		mov	r2, r10
 1766 0404 125D     		ldrb	r2, [r2, r4]
 1767 0406 1202     		lsls	r2, r2, #8
 1768 0408 9046     		mov	r8, r2
 884:Source\mbedtls_open\library/aes.c ****             ( (uint32_t) FSb[ ( Y3       ) & 0xFF ]       ) ^
 1769              		.loc 1 884 0
 1770 040a 6246     		mov	r2, ip
 1771 040c 4146     		mov	r1, r8
 1772 040e 4A40     		eors	r2, r1
 1773 0410 9446     		mov	ip, r2
 886:Source\mbedtls_open\library/aes.c ****             ( (uint32_t) FSb[ ( Y1 >> 16 ) & 0xFF ] << 16 ) ^
 1774              		.loc 1 886 0
 1775 0412 0199     		ldr	r1, [sp, #4]
 1776 0414 0A0C     		lsrs	r2, r1, #16
 1777 0416 1A40     		ands	r2, r3
 1778 0418 AA18     		adds	r2, r5, r2
 1779 041a 135D     		ldrb	r3, [r2, r4]
 1780 041c 1B04     		lsls	r3, r3, #16
 885:Source\mbedtls_open\library/aes.c ****             ( (uint32_t) FSb[ ( Y0 >>  8 ) & 0xFF ] <<  8 ) ^
 1781              		.loc 1 885 0
 1782 041e 6246     		mov	r2, ip
 1783 0420 5A40     		eors	r2, r3
 887:Source\mbedtls_open\library/aes.c ****             ( (uint32_t) FSb[ ( Y2 >> 24 ) & 0xFF ] << 24 );
 1784              		.loc 1 887 0
 1785 0422 029B     		ldr	r3, [sp, #8]
 1786 0424 190E     		lsrs	r1, r3, #24
 1787 0426 6D18     		adds	r5, r5, r1
 1788 0428 2B5D     		ldrb	r3, [r5, r4]
 1789 042a 1B06     		lsls	r3, r3, #24
 883:Source\mbedtls_open\library/aes.c ****             ( (uint32_t) FSb[ ( Y3       ) & 0xFF ]       ) ^
 1790              		.loc 1 883 0
 1791 042c 5340     		eors	r3, r2
 1792              	.LVL160:
 888:Source\mbedtls_open\library/aes.c **** 
 889:Source\mbedtls_open\library/aes.c ****     PUT_UINT32_LE( X0, output,  0 );
 1793              		.loc 1 889 0
 1794 042e 0599     		ldr	r1, [sp, #20]
 1795 0430 0870     		strb	r0, [r1]
 1796 0432 020A     		lsrs	r2, r0, #8
 1797 0434 4A70     		strb	r2, [r1, #1]
 1798 0436 020C     		lsrs	r2, r0, #16
 1799 0438 8A70     		strb	r2, [r1, #2]
 1800 043a 000E     		lsrs	r0, r0, #24
 1801              	.LVL161:
 1802 043c C870     		strb	r0, [r1, #3]
 890:Source\mbedtls_open\library/aes.c ****     PUT_UINT32_LE( X1, output,  4 );
 1803              		.loc 1 890 0
 1804 043e 0F71     		strb	r7, [r1, #4]
ARM GAS  C:\Users\Phuong\AppData\Local\Temp\ccyLHZOj.s 			page 50


 1805 0440 3A0A     		lsrs	r2, r7, #8
 1806 0442 4A71     		strb	r2, [r1, #5]
 1807 0444 3A0C     		lsrs	r2, r7, #16
 1808 0446 8A71     		strb	r2, [r1, #6]
 1809 0448 3F0E     		lsrs	r7, r7, #24
 1810              	.LVL162:
 1811 044a CF71     		strb	r7, [r1, #7]
 891:Source\mbedtls_open\library/aes.c ****     PUT_UINT32_LE( X2, output,  8 );
 1812              		.loc 1 891 0
 1813 044c 0E72     		strb	r6, [r1, #8]
 1814 044e 320A     		lsrs	r2, r6, #8
 1815 0450 4A72     		strb	r2, [r1, #9]
 1816 0452 320C     		lsrs	r2, r6, #16
 1817 0454 8A72     		strb	r2, [r1, #10]
 1818 0456 360E     		lsrs	r6, r6, #24
 1819              	.LVL163:
 1820 0458 CE72     		strb	r6, [r1, #11]
 892:Source\mbedtls_open\library/aes.c ****     PUT_UINT32_LE( X3, output, 12 );
 1821              		.loc 1 892 0
 1822 045a 0B73     		strb	r3, [r1, #12]
 1823 045c 1A0A     		lsrs	r2, r3, #8
 1824 045e 4A73     		strb	r2, [r1, #13]
 1825 0460 1A0C     		lsrs	r2, r3, #16
 1826 0462 8A73     		strb	r2, [r1, #14]
 1827 0464 1B0E     		lsrs	r3, r3, #24
 1828              	.LVL164:
 1829 0466 CB73     		strb	r3, [r1, #15]
 893:Source\mbedtls_open\library/aes.c **** 
 894:Source\mbedtls_open\library/aes.c ****     return( 0 );
 895:Source\mbedtls_open\library/aes.c **** }
 1830              		.loc 1 895 0
 1831 0468 0020     		movs	r0, #0
 1832 046a 07B0     		add	sp, sp, #28
 1833              		@ sp needed
 1834              	.LVL165:
 1835              	.LVL166:
 1836              	.LVL167:
 1837 046c 0AE0     		b	.L63
 1838              	.L64:
 1839 046e C046     		.align	2
 1840              	.L62:
 1841 0470 00020000 		.word	.LANCHOR2
 1842 0474 00060000 		.word	.LANCHOR3
 1843 0478 000A0000 		.word	.LANCHOR4
 1844 047c 000E0000 		.word	.LANCHOR5
 1845 0480 00000000 		.word	.LANCHOR0
 1846              	.L63:
 1847 0484 3CBC     		pop	{r2, r3, r4, r5}
 1848 0486 9046     		mov	r8, r2
 1849 0488 9946     		mov	r9, r3
 1850 048a A246     		mov	r10, r4
 1851 048c AB46     		mov	fp, r5
 1852 048e F0BD     		pop	{r4, r5, r6, r7, pc}
 1853              		.cfi_endproc
 1854              	.LFE6:
 1855              		.size	mbedtls_internal_aes_encrypt, .-mbedtls_internal_aes_encrypt
 1856              		.section	.text.mbedtls_aes_encrypt,"ax",%progbits
ARM GAS  C:\Users\Phuong\AppData\Local\Temp\ccyLHZOj.s 			page 51


 1857              		.align	2
 1858              		.global	mbedtls_aes_encrypt
 1859              		.code	16
 1860              		.thumb_func
 1861              		.type	mbedtls_aes_encrypt, %function
 1862              	mbedtls_aes_encrypt:
 1863              	.LFB7:
 896:Source\mbedtls_open\library/aes.c **** #endif /* !MBEDTLS_AES_ENCRYPT_ALT */
 897:Source\mbedtls_open\library/aes.c **** 
 898:Source\mbedtls_open\library/aes.c **** #if !defined(MBEDTLS_DEPRECATED_REMOVED)
 899:Source\mbedtls_open\library/aes.c **** void mbedtls_aes_encrypt( mbedtls_aes_context *ctx,
 900:Source\mbedtls_open\library/aes.c ****                           const unsigned char input[16],
 901:Source\mbedtls_open\library/aes.c ****                           unsigned char output[16] )
 902:Source\mbedtls_open\library/aes.c **** {
 1864              		.loc 1 902 0
 1865              		.cfi_startproc
 1866              		@ args = 0, pretend = 0, frame = 0
 1867              		@ frame_needed = 0, uses_anonymous_args = 0
 1868              	.LVL168:
 1869 0000 10B5     		push	{r4, lr}
 1870              		.cfi_def_cfa_offset 8
 1871              		.cfi_offset 4, -8
 1872              		.cfi_offset 14, -4
 903:Source\mbedtls_open\library/aes.c ****     mbedtls_internal_aes_encrypt( ctx, input, output );
 1873              		.loc 1 903 0
 1874 0002 FFF7FEFF 		bl	mbedtls_internal_aes_encrypt
 1875              	.LVL169:
 904:Source\mbedtls_open\library/aes.c **** }
 1876              		.loc 1 904 0
 1877              		@ sp needed
 1878 0006 10BD     		pop	{r4, pc}
 1879              		.cfi_endproc
 1880              	.LFE7:
 1881              		.size	mbedtls_aes_encrypt, .-mbedtls_aes_encrypt
 1882              		.section	.text.mbedtls_internal_aes_decrypt,"ax",%progbits
 1883              		.align	2
 1884              		.global	mbedtls_internal_aes_decrypt
 1885              		.code	16
 1886              		.thumb_func
 1887              		.type	mbedtls_internal_aes_decrypt, %function
 1888              	mbedtls_internal_aes_decrypt:
 1889              	.LFB8:
 905:Source\mbedtls_open\library/aes.c **** #endif /* !MBEDTLS_DEPRECATED_REMOVED */
 906:Source\mbedtls_open\library/aes.c **** 
 907:Source\mbedtls_open\library/aes.c **** /*
 908:Source\mbedtls_open\library/aes.c ****  * AES-ECB block decryption
 909:Source\mbedtls_open\library/aes.c ****  */
 910:Source\mbedtls_open\library/aes.c **** #if !defined(MBEDTLS_AES_DECRYPT_ALT)
 911:Source\mbedtls_open\library/aes.c **** int mbedtls_internal_aes_decrypt( mbedtls_aes_context *ctx,
 912:Source\mbedtls_open\library/aes.c ****                                   const unsigned char input[16],
 913:Source\mbedtls_open\library/aes.c ****                                   unsigned char output[16] )
 914:Source\mbedtls_open\library/aes.c **** {
 1890              		.loc 1 914 0
 1891              		.cfi_startproc
 1892              		@ args = 0, pretend = 0, frame = 16
 1893              		@ frame_needed = 0, uses_anonymous_args = 0
 1894              	.LVL170:
ARM GAS  C:\Users\Phuong\AppData\Local\Temp\ccyLHZOj.s 			page 52


 1895 0000 F0B5     		push	{r4, r5, r6, r7, lr}
 1896              		.cfi_def_cfa_offset 20
 1897              		.cfi_offset 4, -20
 1898              		.cfi_offset 5, -16
 1899              		.cfi_offset 6, -12
 1900              		.cfi_offset 7, -8
 1901              		.cfi_offset 14, -4
 1902 0002 5F46     		mov	r7, fp
 1903 0004 5646     		mov	r6, r10
 1904 0006 4D46     		mov	r5, r9
 1905 0008 4446     		mov	r4, r8
 1906 000a F0B4     		push	{r4, r5, r6, r7}
 1907              		.cfi_def_cfa_offset 36
 1908              		.cfi_offset 8, -36
 1909              		.cfi_offset 9, -32
 1910              		.cfi_offset 10, -28
 1911              		.cfi_offset 11, -24
 1912 000c 85B0     		sub	sp, sp, #20
 1913              		.cfi_def_cfa_offset 56
 1914 000e 0392     		str	r2, [sp, #12]
 915:Source\mbedtls_open\library/aes.c ****     int i;
 916:Source\mbedtls_open\library/aes.c ****     uint32_t *RK, X0, X1, X2, X3, Y0, Y1, Y2, Y3;
 917:Source\mbedtls_open\library/aes.c **** 
 918:Source\mbedtls_open\library/aes.c ****     RK = ctx->rk;
 1915              		.loc 1 918 0
 1916 0010 4268     		ldr	r2, [r0, #4]
 1917              	.LVL171:
 919:Source\mbedtls_open\library/aes.c **** 
 920:Source\mbedtls_open\library/aes.c ****     GET_UINT32_LE( X0, input,  0 ); X0 ^= *RK++;
 1918              		.loc 1 920 0
 1919 0012 0C78     		ldrb	r4, [r1]
 1920 0014 4B78     		ldrb	r3, [r1, #1]
 1921 0016 1B02     		lsls	r3, r3, #8
 1922 0018 2343     		orrs	r3, r4
 1923 001a 8C78     		ldrb	r4, [r1, #2]
 1924 001c 2404     		lsls	r4, r4, #16
 1925 001e 2343     		orrs	r3, r4
 1926 0020 CC78     		ldrb	r4, [r1, #3]
 1927 0022 2406     		lsls	r4, r4, #24
 1928 0024 2343     		orrs	r3, r4
 1929              	.LVL172:
 1930 0026 1468     		ldr	r4, [r2]
 1931 0028 5C40     		eors	r4, r3
 1932 002a 0094     		str	r4, [sp]
 1933              	.LVL173:
 921:Source\mbedtls_open\library/aes.c ****     GET_UINT32_LE( X1, input,  4 ); X1 ^= *RK++;
 1934              		.loc 1 921 0
 1935 002c 0B79     		ldrb	r3, [r1, #4]
 1936 002e 4C79     		ldrb	r4, [r1, #5]
 1937              	.LVL174:
 1938 0030 2402     		lsls	r4, r4, #8
 1939 0032 1C43     		orrs	r4, r3
 1940 0034 8B79     		ldrb	r3, [r1, #6]
 1941 0036 1B04     		lsls	r3, r3, #16
 1942 0038 1C43     		orrs	r4, r3
 1943 003a CB79     		ldrb	r3, [r1, #7]
 1944 003c 1B06     		lsls	r3, r3, #24
ARM GAS  C:\Users\Phuong\AppData\Local\Temp\ccyLHZOj.s 			page 53


 1945 003e 1C43     		orrs	r4, r3
 1946              	.LVL175:
 1947 0040 5368     		ldr	r3, [r2, #4]
 1948 0042 5C40     		eors	r4, r3
 1949              	.LVL176:
 922:Source\mbedtls_open\library/aes.c ****     GET_UINT32_LE( X2, input,  8 ); X2 ^= *RK++;
 1950              		.loc 1 922 0
 1951 0044 0B7A     		ldrb	r3, [r1, #8]
 1952 0046 4D7A     		ldrb	r5, [r1, #9]
 1953 0048 2D02     		lsls	r5, r5, #8
 1954 004a 1D43     		orrs	r5, r3
 1955 004c 8B7A     		ldrb	r3, [r1, #10]
 1956 004e 1B04     		lsls	r3, r3, #16
 1957 0050 1D43     		orrs	r5, r3
 1958 0052 CB7A     		ldrb	r3, [r1, #11]
 1959 0054 1B06     		lsls	r3, r3, #24
 1960 0056 1D43     		orrs	r5, r3
 1961              	.LVL177:
 1962 0058 9368     		ldr	r3, [r2, #8]
 1963 005a 5D40     		eors	r5, r3
 1964              	.LVL178:
 923:Source\mbedtls_open\library/aes.c ****     GET_UINT32_LE( X3, input, 12 ); X3 ^= *RK++;
 1965              		.loc 1 923 0
 1966 005c 0B7B     		ldrb	r3, [r1, #12]
 1967 005e 4E7B     		ldrb	r6, [r1, #13]
 1968 0060 3602     		lsls	r6, r6, #8
 1969 0062 1E43     		orrs	r6, r3
 1970 0064 8B7B     		ldrb	r3, [r1, #14]
 1971 0066 1B04     		lsls	r3, r3, #16
 1972 0068 1E43     		orrs	r6, r3
 1973 006a CB7B     		ldrb	r3, [r1, #15]
 1974 006c 1B06     		lsls	r3, r3, #24
 1975 006e 1E43     		orrs	r6, r3
 1976              	.LVL179:
 1977 0070 1023     		movs	r3, #16
 1978 0072 9B46     		mov	fp, r3
 1979 0074 9344     		add	fp, fp, r2
 1980              	.LVL180:
 1981 0076 D368     		ldr	r3, [r2, #12]
 1982 0078 5E40     		eors	r6, r3
 1983              	.LVL181:
 924:Source\mbedtls_open\library/aes.c **** 
 925:Source\mbedtls_open\library/aes.c ****     for( i = ( ctx->nr >> 1 ) - 1; i > 0; i-- )
 1984              		.loc 1 925 0
 1985 007a 0368     		ldr	r3, [r0]
 1986 007c 5B10     		asrs	r3, r3, #1
 1987 007e 013B     		subs	r3, r3, #1
 1988 0080 0293     		str	r3, [sp, #8]
 1989              	.LVL182:
 1990 0082 5F46     		mov	r7, fp
 1991 0084 0194     		str	r4, [sp, #4]
 1992 0086 D5E0     		b	.L67
 1993              	.LVL183:
 1994              	.L68:
 926:Source\mbedtls_open\library/aes.c ****     {
 927:Source\mbedtls_open\library/aes.c ****         AES_RROUND( Y0, Y1, Y2, Y3, X0, X1, X2, X3 );
 1995              		.loc 1 927 0 discriminator 3
ARM GAS  C:\Users\Phuong\AppData\Local\Temp\ccyLHZOj.s 			page 54


 1996 0088 FF23     		movs	r3, #255
 1997              	.LVL184:
 1998 008a 0099     		ldr	r1, [sp]
 1999 008c 0A00     		movs	r2, r1
 2000 008e 1A40     		ands	r2, r3
 2001 0090 F348     		ldr	r0, .L69
 2002 0092 8246     		mov	r10, r0
 2003 0094 9200     		lsls	r2, r2, #2
 2004 0096 5244     		add	r2, r2, r10
 2005 0098 906A     		ldr	r0, [r2, #40]
 2006 009a 3A68     		ldr	r2, [r7]
 2007 009c 5040     		eors	r0, r2
 2008 009e 320A     		lsrs	r2, r6, #8
 2009 00a0 1A40     		ands	r2, r3
 2010 00a2 F04C     		ldr	r4, .L69+4
 2011 00a4 A146     		mov	r9, r4
 2012 00a6 9200     		lsls	r2, r2, #2
 2013 00a8 4A44     		add	r2, r2, r9
 2014 00aa 926A     		ldr	r2, [r2, #40]
 2015 00ac 5040     		eors	r0, r2
 2016 00ae 2A0C     		lsrs	r2, r5, #16
 2017 00b0 1A40     		ands	r2, r3
 2018 00b2 ED4C     		ldr	r4, .L69+8
 2019 00b4 A046     		mov	r8, r4
 2020 00b6 9200     		lsls	r2, r2, #2
 2021 00b8 4244     		add	r2, r2, r8
 2022 00ba 926A     		ldr	r2, [r2, #40]
 2023 00bc 5040     		eors	r0, r2
 2024 00be 019C     		ldr	r4, [sp, #4]
 2025 00c0 220E     		lsrs	r2, r4, #24
 2026 00c2 EA4C     		ldr	r4, .L69+12
 2027 00c4 A446     		mov	ip, r4
 2028 00c6 9200     		lsls	r2, r2, #2
 2029 00c8 6244     		add	r2, r2, ip
 2030 00ca 926A     		ldr	r2, [r2, #40]
 2031 00cc 5040     		eors	r0, r2
 2032              	.LVL185:
 2033 00ce 1A00     		movs	r2, r3
 2034 00d0 019C     		ldr	r4, [sp, #4]
 2035 00d2 2240     		ands	r2, r4
 2036 00d4 9200     		lsls	r2, r2, #2
 2037 00d6 5244     		add	r2, r2, r10
 2038 00d8 926A     		ldr	r2, [r2, #40]
 2039 00da 7C68     		ldr	r4, [r7, #4]
 2040 00dc 6240     		eors	r2, r4
 2041 00de 090A     		lsrs	r1, r1, #8
 2042 00e0 1940     		ands	r1, r3
 2043 00e2 8900     		lsls	r1, r1, #2
 2044 00e4 4944     		add	r1, r1, r9
 2045 00e6 896A     		ldr	r1, [r1, #40]
 2046 00e8 4A40     		eors	r2, r1
 2047 00ea 310C     		lsrs	r1, r6, #16
 2048 00ec 1940     		ands	r1, r3
 2049 00ee 8900     		lsls	r1, r1, #2
 2050 00f0 4144     		add	r1, r1, r8
 2051 00f2 896A     		ldr	r1, [r1, #40]
 2052 00f4 4A40     		eors	r2, r1
ARM GAS  C:\Users\Phuong\AppData\Local\Temp\ccyLHZOj.s 			page 55


 2053 00f6 290E     		lsrs	r1, r5, #24
 2054 00f8 8900     		lsls	r1, r1, #2
 2055 00fa 6144     		add	r1, r1, ip
 2056 00fc 896A     		ldr	r1, [r1, #40]
 2057 00fe 4A40     		eors	r2, r1
 2058              	.LVL186:
 2059 0100 1900     		movs	r1, r3
 2060 0102 2940     		ands	r1, r5
 2061 0104 8900     		lsls	r1, r1, #2
 2062 0106 5144     		add	r1, r1, r10
 2063 0108 896A     		ldr	r1, [r1, #40]
 2064 010a BC68     		ldr	r4, [r7, #8]
 2065 010c 4C40     		eors	r4, r1
 2066 010e A346     		mov	fp, r4
 2067 0110 019C     		ldr	r4, [sp, #4]
 2068 0112 210A     		lsrs	r1, r4, #8
 2069 0114 1940     		ands	r1, r3
 2070 0116 8900     		lsls	r1, r1, #2
 2071 0118 4944     		add	r1, r1, r9
 2072 011a 896A     		ldr	r1, [r1, #40]
 2073 011c 5C46     		mov	r4, fp
 2074 011e 4C40     		eors	r4, r1
 2075 0120 0099     		ldr	r1, [sp]
 2076 0122 090C     		lsrs	r1, r1, #16
 2077 0124 1940     		ands	r1, r3
 2078 0126 8900     		lsls	r1, r1, #2
 2079 0128 4144     		add	r1, r1, r8
 2080 012a 896A     		ldr	r1, [r1, #40]
 2081 012c 4C40     		eors	r4, r1
 2082 012e 310E     		lsrs	r1, r6, #24
 2083 0130 8900     		lsls	r1, r1, #2
 2084 0132 6144     		add	r1, r1, ip
 2085 0134 896A     		ldr	r1, [r1, #40]
 2086 0136 6140     		eors	r1, r4
 2087              	.LVL187:
 2088 0138 1E40     		ands	r6, r3
 2089              	.LVL188:
 2090 013a B600     		lsls	r6, r6, #2
 2091 013c 5644     		add	r6, r6, r10
 2092 013e B66A     		ldr	r6, [r6, #40]
 2093 0140 FC68     		ldr	r4, [r7, #12]
 2094 0142 6640     		eors	r6, r4
 2095 0144 2D0A     		lsrs	r5, r5, #8
 2096              	.LVL189:
 2097 0146 1D40     		ands	r5, r3
 2098 0148 AD00     		lsls	r5, r5, #2
 2099 014a 4D44     		add	r5, r5, r9
 2100 014c AD6A     		ldr	r5, [r5, #40]
 2101 014e 6E40     		eors	r6, r5
 2102 0150 019C     		ldr	r4, [sp, #4]
 2103 0152 240C     		lsrs	r4, r4, #16
 2104 0154 1C40     		ands	r4, r3
 2105 0156 A400     		lsls	r4, r4, #2
 2106 0158 4444     		add	r4, r4, r8
 2107 015a A56A     		ldr	r5, [r4, #40]
 2108 015c 6E40     		eors	r6, r5
 2109 015e 009C     		ldr	r4, [sp]
ARM GAS  C:\Users\Phuong\AppData\Local\Temp\ccyLHZOj.s 			page 56


 2110 0160 240E     		lsrs	r4, r4, #24
 2111 0162 A400     		lsls	r4, r4, #2
 2112 0164 6444     		add	r4, r4, ip
 2113 0166 A46A     		ldr	r4, [r4, #40]
 2114 0168 6640     		eors	r6, r4
 2115              	.LVL190:
 928:Source\mbedtls_open\library/aes.c ****         AES_RROUND( X0, X1, X2, X3, Y0, Y1, Y2, Y3 );
 2116              		.loc 1 928 0 discriminator 3
 2117 016a 1C00     		movs	r4, r3
 2118 016c 0440     		ands	r4, r0
 2119 016e A400     		lsls	r4, r4, #2
 2120 0170 5444     		add	r4, r4, r10
 2121 0172 A56A     		ldr	r5, [r4, #40]
 2122 0174 3C69     		ldr	r4, [r7, #16]
 2123 0176 6540     		eors	r5, r4
 2124 0178 340A     		lsrs	r4, r6, #8
 2125 017a 1C40     		ands	r4, r3
 2126 017c A400     		lsls	r4, r4, #2
 2127 017e 4C44     		add	r4, r4, r9
 2128 0180 A46A     		ldr	r4, [r4, #40]
 2129 0182 6540     		eors	r5, r4
 2130 0184 0C0C     		lsrs	r4, r1, #16
 2131 0186 1C40     		ands	r4, r3
 2132 0188 A400     		lsls	r4, r4, #2
 2133 018a 4444     		add	r4, r4, r8
 2134 018c A46A     		ldr	r4, [r4, #40]
 2135 018e 6540     		eors	r5, r4
 2136 0190 140E     		lsrs	r4, r2, #24
 2137 0192 A400     		lsls	r4, r4, #2
 2138 0194 6444     		add	r4, r4, ip
 2139 0196 A46A     		ldr	r4, [r4, #40]
 2140 0198 6540     		eors	r5, r4
 2141 019a 0095     		str	r5, [sp]
 2142              	.LVL191:
 2143 019c 1C00     		movs	r4, r3
 2144 019e 1440     		ands	r4, r2
 2145 01a0 A400     		lsls	r4, r4, #2
 2146 01a2 5444     		add	r4, r4, r10
 2147 01a4 A46A     		ldr	r4, [r4, #40]
 2148 01a6 7D69     		ldr	r5, [r7, #20]
 2149              	.LVL192:
 2150 01a8 6C40     		eors	r4, r5
 2151 01aa 050A     		lsrs	r5, r0, #8
 2152 01ac 1D40     		ands	r5, r3
 2153 01ae AD00     		lsls	r5, r5, #2
 2154 01b0 4D44     		add	r5, r5, r9
 2155 01b2 AD6A     		ldr	r5, [r5, #40]
 2156 01b4 6C40     		eors	r4, r5
 2157 01b6 350C     		lsrs	r5, r6, #16
 2158 01b8 1D40     		ands	r5, r3
 2159 01ba AD00     		lsls	r5, r5, #2
 2160 01bc 4544     		add	r5, r5, r8
 2161 01be AD6A     		ldr	r5, [r5, #40]
 2162 01c0 6C40     		eors	r4, r5
 2163 01c2 0D0E     		lsrs	r5, r1, #24
 2164 01c4 AD00     		lsls	r5, r5, #2
 2165 01c6 6544     		add	r5, r5, ip
ARM GAS  C:\Users\Phuong\AppData\Local\Temp\ccyLHZOj.s 			page 57


 2166 01c8 AD6A     		ldr	r5, [r5, #40]
 2167 01ca 6C40     		eors	r4, r5
 2168 01cc 0194     		str	r4, [sp, #4]
 2169              	.LVL193:
 2170 01ce 1D00     		movs	r5, r3
 2171 01d0 0D40     		ands	r5, r1
 2172 01d2 AD00     		lsls	r5, r5, #2
 2173 01d4 5544     		add	r5, r5, r10
 2174 01d6 AD6A     		ldr	r5, [r5, #40]
 2175 01d8 BC69     		ldr	r4, [r7, #24]
 2176              	.LVL194:
 2177 01da 6C40     		eors	r4, r5
 2178 01dc 150A     		lsrs	r5, r2, #8
 2179 01de 1D40     		ands	r5, r3
 2180 01e0 AD00     		lsls	r5, r5, #2
 2181 01e2 4D44     		add	r5, r5, r9
 2182 01e4 AD6A     		ldr	r5, [r5, #40]
 2183 01e6 6C40     		eors	r4, r5
 2184 01e8 050C     		lsrs	r5, r0, #16
 2185 01ea 1D40     		ands	r5, r3
 2186 01ec AD00     		lsls	r5, r5, #2
 2187 01ee 4544     		add	r5, r5, r8
 2188 01f0 AD6A     		ldr	r5, [r5, #40]
 2189 01f2 6C40     		eors	r4, r5
 2190 01f4 350E     		lsrs	r5, r6, #24
 2191 01f6 AD00     		lsls	r5, r5, #2
 2192 01f8 6544     		add	r5, r5, ip
 2193 01fa AD6A     		ldr	r5, [r5, #40]
 2194 01fc 6540     		eors	r5, r4
 2195              	.LVL195:
 2196 01fe 1E40     		ands	r6, r3
 2197              	.LVL196:
 2198 0200 B600     		lsls	r6, r6, #2
 2199 0202 5644     		add	r6, r6, r10
 2200 0204 B66A     		ldr	r6, [r6, #40]
 2201 0206 FC69     		ldr	r4, [r7, #28]
 2202 0208 6640     		eors	r6, r4
 2203 020a 090A     		lsrs	r1, r1, #8
 2204              	.LVL197:
 2205 020c 1940     		ands	r1, r3
 2206 020e 8900     		lsls	r1, r1, #2
 2207 0210 4944     		add	r1, r1, r9
 2208 0212 896A     		ldr	r1, [r1, #40]
 2209 0214 4E40     		eors	r6, r1
 2210 0216 120C     		lsrs	r2, r2, #16
 2211              	.LVL198:
 2212 0218 1340     		ands	r3, r2
 2213 021a 9B00     		lsls	r3, r3, #2
 2214 021c 4344     		add	r3, r3, r8
 2215 021e 9B6A     		ldr	r3, [r3, #40]
 2216 0220 5E40     		eors	r6, r3
 2217 0222 000E     		lsrs	r0, r0, #24
 2218              	.LVL199:
 2219 0224 8000     		lsls	r0, r0, #2
 2220 0226 6044     		add	r0, r0, ip
 2221 0228 836A     		ldr	r3, [r0, #40]
 2222 022a 5E40     		eors	r6, r3
ARM GAS  C:\Users\Phuong\AppData\Local\Temp\ccyLHZOj.s 			page 58


 2223              	.LVL200:
 925:Source\mbedtls_open\library/aes.c ****     {
 2224              		.loc 1 925 0 discriminator 3
 2225 022c 029B     		ldr	r3, [sp, #8]
 2226 022e 013B     		subs	r3, r3, #1
 2227 0230 0293     		str	r3, [sp, #8]
 2228              	.LVL201:
 2229              		.loc 1 928 0 discriminator 3
 2230 0232 2037     		adds	r7, r7, #32
 2231              	.LVL202:
 2232              	.L67:
 925:Source\mbedtls_open\library/aes.c ****     {
 2233              		.loc 1 925 0 discriminator 1
 2234 0234 029B     		ldr	r3, [sp, #8]
 2235 0236 002B     		cmp	r3, #0
 2236 0238 00DD     		ble	.LCB2387
 2237 023a 25E7     		b	.L68	@long jump
 2238              	.LCB2387:
 2239 023c BB46     		mov	fp, r7
 2240 023e 019C     		ldr	r4, [sp, #4]
 2241              	.LVL203:
 929:Source\mbedtls_open\library/aes.c ****     }
 930:Source\mbedtls_open\library/aes.c **** 
 931:Source\mbedtls_open\library/aes.c ****     AES_RROUND( Y0, Y1, Y2, Y3, X0, X1, X2, X3 );
 2242              		.loc 1 931 0
 2243 0240 FF23     		movs	r3, #255
 2244 0242 0098     		ldr	r0, [sp]
 2245 0244 0200     		movs	r2, r0
 2246 0246 1A40     		ands	r2, r3
 2247 0248 8549     		ldr	r1, .L69
 2248 024a 8946     		mov	r9, r1
 2249 024c 9200     		lsls	r2, r2, #2
 2250 024e 4A44     		add	r2, r2, r9
 2251 0250 916A     		ldr	r1, [r2, #40]
 2252 0252 3A68     		ldr	r2, [r7]
 2253 0254 5140     		eors	r1, r2
 2254 0256 320A     		lsrs	r2, r6, #8
 2255 0258 1A40     		ands	r2, r3
 2256 025a 824F     		ldr	r7, .L69+4
 2257              	.LVL204:
 2258 025c B846     		mov	r8, r7
 2259 025e 9200     		lsls	r2, r2, #2
 2260 0260 4244     		add	r2, r2, r8
 2261 0262 926A     		ldr	r2, [r2, #40]
 2262 0264 5140     		eors	r1, r2
 2263 0266 2A0C     		lsrs	r2, r5, #16
 2264 0268 1A40     		ands	r2, r3
 2265 026a 7F4F     		ldr	r7, .L69+8
 2266 026c BC46     		mov	ip, r7
 2267 026e 9200     		lsls	r2, r2, #2
 2268 0270 6244     		add	r2, r2, ip
 2269 0272 926A     		ldr	r2, [r2, #40]
 2270 0274 5140     		eors	r1, r2
 2271 0276 220E     		lsrs	r2, r4, #24
 2272 0278 7C4F     		ldr	r7, .L69+12
 2273 027a 9200     		lsls	r2, r2, #2
 2274 027c BA18     		adds	r2, r7, r2
ARM GAS  C:\Users\Phuong\AppData\Local\Temp\ccyLHZOj.s 			page 59


 2275 027e 926A     		ldr	r2, [r2, #40]
 2276 0280 5140     		eors	r1, r2
 2277 0282 8A46     		mov	r10, r1
 2278              	.LVL205:
 2279 0284 1A00     		movs	r2, r3
 2280 0286 2240     		ands	r2, r4
 2281 0288 9200     		lsls	r2, r2, #2
 2282 028a 4A44     		add	r2, r2, r9
 2283 028c 926A     		ldr	r2, [r2, #40]
 2284 028e 5946     		mov	r1, fp
 2285              	.LVL206:
 2286 0290 4968     		ldr	r1, [r1, #4]
 2287 0292 4A40     		eors	r2, r1
 2288 0294 010A     		lsrs	r1, r0, #8
 2289 0296 1940     		ands	r1, r3
 2290 0298 8900     		lsls	r1, r1, #2
 2291 029a 4144     		add	r1, r1, r8
 2292 029c 896A     		ldr	r1, [r1, #40]
 2293 029e 4A40     		eors	r2, r1
 2294 02a0 310C     		lsrs	r1, r6, #16
 2295 02a2 1940     		ands	r1, r3
 2296 02a4 8900     		lsls	r1, r1, #2
 2297 02a6 6144     		add	r1, r1, ip
 2298 02a8 896A     		ldr	r1, [r1, #40]
 2299 02aa 4A40     		eors	r2, r1
 2300 02ac 290E     		lsrs	r1, r5, #24
 2301 02ae 8900     		lsls	r1, r1, #2
 2302 02b0 7918     		adds	r1, r7, r1
 2303 02b2 896A     		ldr	r1, [r1, #40]
 2304 02b4 4A40     		eors	r2, r1
 2305 02b6 0192     		str	r2, [sp, #4]
 2306              	.LVL207:
 2307 02b8 1900     		movs	r1, r3
 2308 02ba 2940     		ands	r1, r5
 2309 02bc 8900     		lsls	r1, r1, #2
 2310 02be 4944     		add	r1, r1, r9
 2311 02c0 896A     		ldr	r1, [r1, #40]
 2312 02c2 5A46     		mov	r2, fp
 2313              	.LVL208:
 2314 02c4 9268     		ldr	r2, [r2, #8]
 2315 02c6 5140     		eors	r1, r2
 2316 02c8 200A     		lsrs	r0, r4, #8
 2317 02ca 1840     		ands	r0, r3
 2318 02cc 8000     		lsls	r0, r0, #2
 2319 02ce 4044     		add	r0, r0, r8
 2320 02d0 806A     		ldr	r0, [r0, #40]
 2321 02d2 4140     		eors	r1, r0
 2322 02d4 0098     		ldr	r0, [sp]
 2323 02d6 000C     		lsrs	r0, r0, #16
 2324 02d8 1840     		ands	r0, r3
 2325 02da 8000     		lsls	r0, r0, #2
 2326 02dc 6044     		add	r0, r0, ip
 2327 02de 806A     		ldr	r0, [r0, #40]
 2328 02e0 4840     		eors	r0, r1
 2329 02e2 310E     		lsrs	r1, r6, #24
 2330 02e4 8900     		lsls	r1, r1, #2
 2331 02e6 7918     		adds	r1, r7, r1
ARM GAS  C:\Users\Phuong\AppData\Local\Temp\ccyLHZOj.s 			page 60


 2332 02e8 896A     		ldr	r1, [r1, #40]
 2333 02ea 4140     		eors	r1, r0
 2334              	.LVL209:
 2335 02ec 1E40     		ands	r6, r3
 2336              	.LVL210:
 2337 02ee B600     		lsls	r6, r6, #2
 2338 02f0 4E44     		add	r6, r6, r9
 2339 02f2 B06A     		ldr	r0, [r6, #40]
 2340 02f4 5A46     		mov	r2, fp
 2341 02f6 D268     		ldr	r2, [r2, #12]
 2342 02f8 5040     		eors	r0, r2
 2343 02fa 2D0A     		lsrs	r5, r5, #8
 2344              	.LVL211:
 2345 02fc 1D40     		ands	r5, r3
 2346 02fe AD00     		lsls	r5, r5, #2
 2347 0300 4544     		add	r5, r5, r8
 2348 0302 AD6A     		ldr	r5, [r5, #40]
 2349 0304 6840     		eors	r0, r5
 2350 0306 240C     		lsrs	r4, r4, #16
 2351              	.LVL212:
 2352 0308 1C40     		ands	r4, r3
 2353 030a A400     		lsls	r4, r4, #2
 2354 030c 6444     		add	r4, r4, ip
 2355 030e A46A     		ldr	r4, [r4, #40]
 2356 0310 6040     		eors	r0, r4
 2357 0312 009C     		ldr	r4, [sp]
 2358 0314 240E     		lsrs	r4, r4, #24
 2359 0316 A400     		lsls	r4, r4, #2
 2360 0318 3F19     		adds	r7, r7, r4
 2361 031a BC6A     		ldr	r4, [r7, #40]
 2362 031c 6040     		eors	r0, r4
 2363 031e 8046     		mov	r8, r0
 2364              	.LVL213:
 932:Source\mbedtls_open\library/aes.c **** 
 933:Source\mbedtls_open\library/aes.c ****     X0 = *RK++ ^ \
 934:Source\mbedtls_open\library/aes.c ****             ( (uint32_t) RSb[ ( Y0       ) & 0xFF ]       ) ^
 2365              		.loc 1 934 0
 2366 0320 5046     		mov	r0, r10
 2367              	.LVL214:
 2368 0322 1840     		ands	r0, r3
 2369 0324 524D     		ldr	r5, .L69+16
 2370 0326 2824     		movs	r4, #40
 2371 0328 2818     		adds	r0, r5, r0
 2372 032a 075D     		ldrb	r7, [r0, r4]
 933:Source\mbedtls_open\library/aes.c ****             ( (uint32_t) RSb[ ( Y0       ) & 0xFF ]       ) ^
 2373              		.loc 1 933 0
 2374 032c 5A46     		mov	r2, fp
 2375 032e 1069     		ldr	r0, [r2, #16]
 2376 0330 7840     		eors	r0, r7
 935:Source\mbedtls_open\library/aes.c ****             ( (uint32_t) RSb[ ( Y3 >>  8 ) & 0xFF ] <<  8 ) ^
 2377              		.loc 1 935 0
 2378 0332 4246     		mov	r2, r8
 2379 0334 160A     		lsrs	r6, r2, #8
 2380 0336 1E40     		ands	r6, r3
 2381 0338 AE19     		adds	r6, r5, r6
 2382 033a 365D     		ldrb	r6, [r6, r4]
 2383 033c 3602     		lsls	r6, r6, #8
ARM GAS  C:\Users\Phuong\AppData\Local\Temp\ccyLHZOj.s 			page 61


 934:Source\mbedtls_open\library/aes.c ****             ( (uint32_t) RSb[ ( Y3 >>  8 ) & 0xFF ] <<  8 ) ^
 2384              		.loc 1 934 0
 2385 033e 7040     		eors	r0, r6
 2386 0340 0700     		movs	r7, r0
 936:Source\mbedtls_open\library/aes.c ****             ( (uint32_t) RSb[ ( Y2 >> 16 ) & 0xFF ] << 16 ) ^
 2387              		.loc 1 936 0
 2388 0342 0E0C     		lsrs	r6, r1, #16
 2389 0344 1E40     		ands	r6, r3
 2390 0346 AE19     		adds	r6, r5, r6
 2391 0348 305D     		ldrb	r0, [r6, r4]
 2392 034a 0004     		lsls	r0, r0, #16
 935:Source\mbedtls_open\library/aes.c ****             ( (uint32_t) RSb[ ( Y3 >>  8 ) & 0xFF ] <<  8 ) ^
 2393              		.loc 1 935 0
 2394 034c 3E00     		movs	r6, r7
 2395 034e 4640     		eors	r6, r0
 937:Source\mbedtls_open\library/aes.c ****             ( (uint32_t) RSb[ ( Y1 >> 24 ) & 0xFF ] << 24 );
 2396              		.loc 1 937 0
 2397 0350 019A     		ldr	r2, [sp, #4]
 2398 0352 100E     		lsrs	r0, r2, #24
 2399 0354 2818     		adds	r0, r5, r0
 2400 0356 005D     		ldrb	r0, [r0, r4]
 2401 0358 0006     		lsls	r0, r0, #24
 933:Source\mbedtls_open\library/aes.c ****             ( (uint32_t) RSb[ ( Y0       ) & 0xFF ]       ) ^
 2402              		.loc 1 933 0
 2403 035a 7040     		eors	r0, r6
 2404              	.LVL215:
 938:Source\mbedtls_open\library/aes.c **** 
 939:Source\mbedtls_open\library/aes.c ****     X1 = *RK++ ^ \
 940:Source\mbedtls_open\library/aes.c ****             ( (uint32_t) RSb[ ( Y1       ) & 0xFF ]       ) ^
 2405              		.loc 1 940 0
 2406 035c 1E00     		movs	r6, r3
 2407 035e 1640     		ands	r6, r2
 2408 0360 AE19     		adds	r6, r5, r6
 2409 0362 365D     		ldrb	r6, [r6, r4]
 939:Source\mbedtls_open\library/aes.c ****             ( (uint32_t) RSb[ ( Y1       ) & 0xFF ]       ) ^
 2410              		.loc 1 939 0
 2411 0364 5A46     		mov	r2, fp
 2412 0366 5269     		ldr	r2, [r2, #20]
 2413 0368 5640     		eors	r6, r2
 941:Source\mbedtls_open\library/aes.c ****             ( (uint32_t) RSb[ ( Y0 >>  8 ) & 0xFF ] <<  8 ) ^
 2414              		.loc 1 941 0
 2415 036a 5246     		mov	r2, r10
 2416 036c 170A     		lsrs	r7, r2, #8
 2417 036e 1F40     		ands	r7, r3
 2418 0370 EF19     		adds	r7, r5, r7
 2419 0372 3F5D     		ldrb	r7, [r7, r4]
 2420 0374 3F02     		lsls	r7, r7, #8
 940:Source\mbedtls_open\library/aes.c ****             ( (uint32_t) RSb[ ( Y0 >>  8 ) & 0xFF ] <<  8 ) ^
 2421              		.loc 1 940 0
 2422 0376 7E40     		eors	r6, r7
 942:Source\mbedtls_open\library/aes.c ****             ( (uint32_t) RSb[ ( Y3 >> 16 ) & 0xFF ] << 16 ) ^
 2423              		.loc 1 942 0
 2424 0378 4246     		mov	r2, r8
 2425 037a 170C     		lsrs	r7, r2, #16
 2426 037c 1F40     		ands	r7, r3
 2427 037e EF19     		adds	r7, r5, r7
 2428 0380 3F5D     		ldrb	r7, [r7, r4]
ARM GAS  C:\Users\Phuong\AppData\Local\Temp\ccyLHZOj.s 			page 62


 2429 0382 3F04     		lsls	r7, r7, #16
 941:Source\mbedtls_open\library/aes.c ****             ( (uint32_t) RSb[ ( Y0 >>  8 ) & 0xFF ] <<  8 ) ^
 2430              		.loc 1 941 0
 2431 0384 7E40     		eors	r6, r7
 943:Source\mbedtls_open\library/aes.c ****             ( (uint32_t) RSb[ ( Y2 >> 24 ) & 0xFF ] << 24 );
 2432              		.loc 1 943 0
 2433 0386 0F0E     		lsrs	r7, r1, #24
 2434 0388 EF19     		adds	r7, r5, r7
 2435 038a 3F5D     		ldrb	r7, [r7, r4]
 2436 038c 3F06     		lsls	r7, r7, #24
 939:Source\mbedtls_open\library/aes.c ****             ( (uint32_t) RSb[ ( Y1       ) & 0xFF ]       ) ^
 2437              		.loc 1 939 0
 2438 038e 7740     		eors	r7, r6
 2439              	.LVL216:
 944:Source\mbedtls_open\library/aes.c **** 
 945:Source\mbedtls_open\library/aes.c ****     X2 = *RK++ ^ \
 946:Source\mbedtls_open\library/aes.c ****             ( (uint32_t) RSb[ ( Y2       ) & 0xFF ]       ) ^
 2440              		.loc 1 946 0
 2441 0390 1E00     		movs	r6, r3
 2442 0392 0091     		str	r1, [sp]
 2443 0394 0E40     		ands	r6, r1
 2444 0396 AE19     		adds	r6, r5, r6
 2445 0398 365D     		ldrb	r6, [r6, r4]
 945:Source\mbedtls_open\library/aes.c ****             ( (uint32_t) RSb[ ( Y2       ) & 0xFF ]       ) ^
 2446              		.loc 1 945 0
 2447 039a 5A46     		mov	r2, fp
 2448 039c 9269     		ldr	r2, [r2, #24]
 2449 039e 7240     		eors	r2, r6
 947:Source\mbedtls_open\library/aes.c ****             ( (uint32_t) RSb[ ( Y1 >>  8 ) & 0xFF ] <<  8 ) ^
 2450              		.loc 1 947 0
 2451 03a0 019E     		ldr	r6, [sp, #4]
 2452 03a2 360A     		lsrs	r6, r6, #8
 2453 03a4 1E40     		ands	r6, r3
 2454 03a6 AE19     		adds	r6, r5, r6
 2455 03a8 365D     		ldrb	r6, [r6, r4]
 2456 03aa 3602     		lsls	r6, r6, #8
 946:Source\mbedtls_open\library/aes.c ****             ( (uint32_t) RSb[ ( Y1 >>  8 ) & 0xFF ] <<  8 ) ^
 2457              		.loc 1 946 0
 2458 03ac 5640     		eors	r6, r2
 948:Source\mbedtls_open\library/aes.c ****             ( (uint32_t) RSb[ ( Y0 >> 16 ) & 0xFF ] << 16 ) ^
 2459              		.loc 1 948 0
 2460 03ae 5246     		mov	r2, r10
 2461 03b0 120C     		lsrs	r2, r2, #16
 2462 03b2 1A40     		ands	r2, r3
 2463 03b4 9446     		mov	ip, r2
 2464 03b6 AC44     		add	ip, ip, r5
 2465 03b8 6246     		mov	r2, ip
 2466 03ba 125D     		ldrb	r2, [r2, r4]
 2467 03bc 1204     		lsls	r2, r2, #16
 947:Source\mbedtls_open\library/aes.c ****             ( (uint32_t) RSb[ ( Y1 >>  8 ) & 0xFF ] <<  8 ) ^
 2468              		.loc 1 947 0
 2469 03be 5640     		eors	r6, r2
 949:Source\mbedtls_open\library/aes.c ****             ( (uint32_t) RSb[ ( Y3 >> 24 ) & 0xFF ] << 24 );
 2470              		.loc 1 949 0
 2471 03c0 4246     		mov	r2, r8
 2472 03c2 120E     		lsrs	r2, r2, #24
 2473 03c4 9446     		mov	ip, r2
ARM GAS  C:\Users\Phuong\AppData\Local\Temp\ccyLHZOj.s 			page 63


 2474 03c6 AC44     		add	ip, ip, r5
 2475 03c8 6246     		mov	r2, ip
 2476 03ca 125D     		ldrb	r2, [r2, r4]
 2477 03cc 1206     		lsls	r2, r2, #24
 945:Source\mbedtls_open\library/aes.c ****             ( (uint32_t) RSb[ ( Y2       ) & 0xFF ]       ) ^
 2478              		.loc 1 945 0
 2479 03ce 5640     		eors	r6, r2
 2480              	.LVL217:
 950:Source\mbedtls_open\library/aes.c **** 
 951:Source\mbedtls_open\library/aes.c ****     X3 = *RK++ ^ \
 2481              		.loc 1 951 0
 2482 03d0 5A46     		mov	r2, fp
 2483 03d2 D269     		ldr	r2, [r2, #28]
 2484 03d4 9446     		mov	ip, r2
 952:Source\mbedtls_open\library/aes.c ****             ( (uint32_t) RSb[ ( Y3       ) & 0xFF ]       ) ^
 2485              		.loc 1 952 0
 2486 03d6 4246     		mov	r2, r8
 2487 03d8 1A40     		ands	r2, r3
 2488 03da 9046     		mov	r8, r2
 2489              	.LVL218:
 2490 03dc A844     		add	r8, r8, r5
 2491 03de 4246     		mov	r2, r8
 2492 03e0 125D     		ldrb	r2, [r2, r4]
 2493 03e2 9046     		mov	r8, r2
 951:Source\mbedtls_open\library/aes.c ****             ( (uint32_t) RSb[ ( Y3       ) & 0xFF ]       ) ^
 2494              		.loc 1 951 0
 2495 03e4 6246     		mov	r2, ip
 2496 03e6 4146     		mov	r1, r8
 2497              	.LVL219:
 2498 03e8 4A40     		eors	r2, r1
 2499 03ea 9446     		mov	ip, r2
 953:Source\mbedtls_open\library/aes.c ****             ( (uint32_t) RSb[ ( Y2 >>  8 ) & 0xFF ] <<  8 ) ^
 2500              		.loc 1 953 0
 2501 03ec 009A     		ldr	r2, [sp]
 2502 03ee 110A     		lsrs	r1, r2, #8
 2503 03f0 1940     		ands	r1, r3
 2504 03f2 6918     		adds	r1, r5, r1
 2505 03f4 095D     		ldrb	r1, [r1, r4]
 2506 03f6 0902     		lsls	r1, r1, #8
 952:Source\mbedtls_open\library/aes.c ****             ( (uint32_t) RSb[ ( Y3       ) & 0xFF ]       ) ^
 2507              		.loc 1 952 0
 2508 03f8 6246     		mov	r2, ip
 2509 03fa 5140     		eors	r1, r2
 954:Source\mbedtls_open\library/aes.c ****             ( (uint32_t) RSb[ ( Y1 >> 16 ) & 0xFF ] << 16 ) ^
 2510              		.loc 1 954 0
 2511 03fc 019A     		ldr	r2, [sp, #4]
 2512 03fe 120C     		lsrs	r2, r2, #16
 2513 0400 1A40     		ands	r2, r3
 2514 0402 AA18     		adds	r2, r5, r2
 2515 0404 135D     		ldrb	r3, [r2, r4]
 2516 0406 1B04     		lsls	r3, r3, #16
 953:Source\mbedtls_open\library/aes.c ****             ( (uint32_t) RSb[ ( Y2 >>  8 ) & 0xFF ] <<  8 ) ^
 2517              		.loc 1 953 0
 2518 0408 5940     		eors	r1, r3
 955:Source\mbedtls_open\library/aes.c ****             ( (uint32_t) RSb[ ( Y0 >> 24 ) & 0xFF ] << 24 );
 2519              		.loc 1 955 0
 2520 040a 5346     		mov	r3, r10
ARM GAS  C:\Users\Phuong\AppData\Local\Temp\ccyLHZOj.s 			page 64


 2521 040c 1A0E     		lsrs	r2, r3, #24
 2522 040e AD18     		adds	r5, r5, r2
 2523 0410 2B5D     		ldrb	r3, [r5, r4]
 2524 0412 1B06     		lsls	r3, r3, #24
 951:Source\mbedtls_open\library/aes.c ****             ( (uint32_t) RSb[ ( Y3       ) & 0xFF ]       ) ^
 2525              		.loc 1 951 0
 2526 0414 4B40     		eors	r3, r1
 2527              	.LVL220:
 956:Source\mbedtls_open\library/aes.c **** 
 957:Source\mbedtls_open\library/aes.c ****     PUT_UINT32_LE( X0, output,  0 );
 2528              		.loc 1 957 0
 2529 0416 0399     		ldr	r1, [sp, #12]
 2530 0418 0870     		strb	r0, [r1]
 2531 041a 020A     		lsrs	r2, r0, #8
 2532 041c 4A70     		strb	r2, [r1, #1]
 2533 041e 020C     		lsrs	r2, r0, #16
 2534 0420 8A70     		strb	r2, [r1, #2]
 2535 0422 000E     		lsrs	r0, r0, #24
 2536              	.LVL221:
 2537 0424 C870     		strb	r0, [r1, #3]
 958:Source\mbedtls_open\library/aes.c ****     PUT_UINT32_LE( X1, output,  4 );
 2538              		.loc 1 958 0
 2539 0426 0F71     		strb	r7, [r1, #4]
 2540 0428 3A0A     		lsrs	r2, r7, #8
 2541 042a 4A71     		strb	r2, [r1, #5]
 2542 042c 3A0C     		lsrs	r2, r7, #16
 2543 042e 8A71     		strb	r2, [r1, #6]
 2544 0430 3F0E     		lsrs	r7, r7, #24
 2545              	.LVL222:
 2546 0432 CF71     		strb	r7, [r1, #7]
 959:Source\mbedtls_open\library/aes.c ****     PUT_UINT32_LE( X2, output,  8 );
 2547              		.loc 1 959 0
 2548 0434 0E72     		strb	r6, [r1, #8]
 2549 0436 320A     		lsrs	r2, r6, #8
 2550 0438 4A72     		strb	r2, [r1, #9]
 2551 043a 320C     		lsrs	r2, r6, #16
 2552 043c 8A72     		strb	r2, [r1, #10]
 2553 043e 360E     		lsrs	r6, r6, #24
 2554              	.LVL223:
 2555 0440 CE72     		strb	r6, [r1, #11]
 960:Source\mbedtls_open\library/aes.c ****     PUT_UINT32_LE( X3, output, 12 );
 2556              		.loc 1 960 0
 2557 0442 0B73     		strb	r3, [r1, #12]
 2558 0444 1A0A     		lsrs	r2, r3, #8
 2559 0446 4A73     		strb	r2, [r1, #13]
 2560 0448 1A0C     		lsrs	r2, r3, #16
 2561 044a 8A73     		strb	r2, [r1, #14]
 2562 044c 1B0E     		lsrs	r3, r3, #24
 2563              	.LVL224:
 2564 044e CB73     		strb	r3, [r1, #15]
 961:Source\mbedtls_open\library/aes.c **** 
 962:Source\mbedtls_open\library/aes.c ****     return( 0 );
 963:Source\mbedtls_open\library/aes.c **** }
 2565              		.loc 1 963 0
 2566 0450 0020     		movs	r0, #0
 2567 0452 05B0     		add	sp, sp, #20
 2568              	.LVL225:
ARM GAS  C:\Users\Phuong\AppData\Local\Temp\ccyLHZOj.s 			page 65


 2569              		@ sp needed
 2570              	.LVL226:
 2571              	.LVL227:
 2572              	.LVL228:
 2573              	.LVL229:
 2574 0454 3CBC     		pop	{r2, r3, r4, r5}
 2575 0456 9046     		mov	r8, r2
 2576 0458 9946     		mov	r9, r3
 2577 045a A246     		mov	r10, r4
 2578 045c AB46     		mov	fp, r5
 2579 045e F0BD     		pop	{r4, r5, r6, r7, pc}
 2580              	.L70:
 2581              		.align	2
 2582              	.L69:
 2583 0460 00120000 		.word	.LANCHOR6
 2584 0464 00160000 		.word	.LANCHOR7
 2585 0468 001A0000 		.word	.LANCHOR8
 2586 046c 001E0000 		.word	.LANCHOR9
 2587 0470 00010000 		.word	.LANCHOR1
 2588              		.cfi_endproc
 2589              	.LFE8:
 2590              		.size	mbedtls_internal_aes_decrypt, .-mbedtls_internal_aes_decrypt
 2591              		.section	.text.mbedtls_aes_decrypt,"ax",%progbits
 2592              		.align	2
 2593              		.global	mbedtls_aes_decrypt
 2594              		.code	16
 2595              		.thumb_func
 2596              		.type	mbedtls_aes_decrypt, %function
 2597              	mbedtls_aes_decrypt:
 2598              	.LFB9:
 964:Source\mbedtls_open\library/aes.c **** #endif /* !MBEDTLS_AES_DECRYPT_ALT */
 965:Source\mbedtls_open\library/aes.c **** 
 966:Source\mbedtls_open\library/aes.c **** #if !defined(MBEDTLS_DEPRECATED_REMOVED)
 967:Source\mbedtls_open\library/aes.c **** void mbedtls_aes_decrypt( mbedtls_aes_context *ctx,
 968:Source\mbedtls_open\library/aes.c ****                           const unsigned char input[16],
 969:Source\mbedtls_open\library/aes.c ****                           unsigned char output[16] )
 970:Source\mbedtls_open\library/aes.c **** {
 2599              		.loc 1 970 0
 2600              		.cfi_startproc
 2601              		@ args = 0, pretend = 0, frame = 0
 2602              		@ frame_needed = 0, uses_anonymous_args = 0
 2603              	.LVL230:
 2604 0000 10B5     		push	{r4, lr}
 2605              		.cfi_def_cfa_offset 8
 2606              		.cfi_offset 4, -8
 2607              		.cfi_offset 14, -4
 971:Source\mbedtls_open\library/aes.c ****     mbedtls_internal_aes_decrypt( ctx, input, output );
 2608              		.loc 1 971 0
 2609 0002 FFF7FEFF 		bl	mbedtls_internal_aes_decrypt
 2610              	.LVL231:
 972:Source\mbedtls_open\library/aes.c **** }
 2611              		.loc 1 972 0
 2612              		@ sp needed
 2613 0006 10BD     		pop	{r4, pc}
 2614              		.cfi_endproc
 2615              	.LFE9:
 2616              		.size	mbedtls_aes_decrypt, .-mbedtls_aes_decrypt
ARM GAS  C:\Users\Phuong\AppData\Local\Temp\ccyLHZOj.s 			page 66


 2617              		.section	.text.mbedtls_aes_crypt_ecb,"ax",%progbits
 2618              		.align	2
 2619              		.global	mbedtls_aes_crypt_ecb
 2620              		.code	16
 2621              		.thumb_func
 2622              		.type	mbedtls_aes_crypt_ecb, %function
 2623              	mbedtls_aes_crypt_ecb:
 2624              	.LFB10:
 973:Source\mbedtls_open\library/aes.c **** #endif /* !MBEDTLS_DEPRECATED_REMOVED */
 974:Source\mbedtls_open\library/aes.c **** 
 975:Source\mbedtls_open\library/aes.c **** /*
 976:Source\mbedtls_open\library/aes.c ****  * AES-ECB block encryption/decryption
 977:Source\mbedtls_open\library/aes.c ****  */
 978:Source\mbedtls_open\library/aes.c **** int mbedtls_aes_crypt_ecb( mbedtls_aes_context *ctx,
 979:Source\mbedtls_open\library/aes.c ****                     int mode,
 980:Source\mbedtls_open\library/aes.c ****                     const unsigned char input[16],
 981:Source\mbedtls_open\library/aes.c ****                     unsigned char output[16] )
 982:Source\mbedtls_open\library/aes.c **** {
 2625              		.loc 1 982 0
 2626              		.cfi_startproc
 2627              		@ args = 0, pretend = 0, frame = 0
 2628              		@ frame_needed = 0, uses_anonymous_args = 0
 2629              	.LVL232:
 2630 0000 10B5     		push	{r4, lr}
 2631              		.cfi_def_cfa_offset 8
 2632              		.cfi_offset 4, -8
 2633              		.cfi_offset 14, -4
 2634 0002 1400     		movs	r4, r2
 983:Source\mbedtls_open\library/aes.c **** #if defined(MBEDTLS_AESNI_C) && defined(MBEDTLS_HAVE_X86_64)
 984:Source\mbedtls_open\library/aes.c ****     if( mbedtls_aesni_has_support( MBEDTLS_AESNI_AES ) )
 985:Source\mbedtls_open\library/aes.c ****         return( mbedtls_aesni_crypt_ecb( ctx, mode, input, output ) );
 986:Source\mbedtls_open\library/aes.c **** #endif
 987:Source\mbedtls_open\library/aes.c **** 
 988:Source\mbedtls_open\library/aes.c **** #if defined(MBEDTLS_PADLOCK_C) && defined(MBEDTLS_HAVE_X86)
 989:Source\mbedtls_open\library/aes.c ****     if( aes_padlock_ace )
 990:Source\mbedtls_open\library/aes.c ****     {
 991:Source\mbedtls_open\library/aes.c ****         if( mbedtls_padlock_xcryptecb( ctx, mode, input, output ) == 0 )
 992:Source\mbedtls_open\library/aes.c ****             return( 0 );
 993:Source\mbedtls_open\library/aes.c **** 
 994:Source\mbedtls_open\library/aes.c ****         // If padlock data misaligned, we just fall back to
 995:Source\mbedtls_open\library/aes.c ****         // unaccelerated mode
 996:Source\mbedtls_open\library/aes.c ****         //
 997:Source\mbedtls_open\library/aes.c ****     }
 998:Source\mbedtls_open\library/aes.c **** #endif
 999:Source\mbedtls_open\library/aes.c **** 
1000:Source\mbedtls_open\library/aes.c ****     if( mode == MBEDTLS_AES_ENCRYPT )
 2635              		.loc 1 1000 0
 2636 0004 0129     		cmp	r1, #1
 2637 0006 04D1     		bne	.L73
1001:Source\mbedtls_open\library/aes.c ****         return( mbedtls_internal_aes_encrypt( ctx, input, output ) );
 2638              		.loc 1 1001 0
 2639 0008 1A00     		movs	r2, r3
 2640              	.LVL233:
 2641 000a 2100     		movs	r1, r4
 2642              	.LVL234:
 2643 000c FFF7FEFF 		bl	mbedtls_internal_aes_encrypt
 2644              	.LVL235:
ARM GAS  C:\Users\Phuong\AppData\Local\Temp\ccyLHZOj.s 			page 67


 2645 0010 03E0     		b	.L74
 2646              	.LVL236:
 2647              	.L73:
1002:Source\mbedtls_open\library/aes.c ****     else
1003:Source\mbedtls_open\library/aes.c ****         return( mbedtls_internal_aes_decrypt( ctx, input, output ) );
 2648              		.loc 1 1003 0
 2649 0012 1A00     		movs	r2, r3
 2650              	.LVL237:
 2651 0014 2100     		movs	r1, r4
 2652              	.LVL238:
 2653 0016 FFF7FEFF 		bl	mbedtls_internal_aes_decrypt
 2654              	.LVL239:
 2655              	.L74:
1004:Source\mbedtls_open\library/aes.c **** }
 2656              		.loc 1 1004 0
 2657              		@ sp needed
 2658              	.LVL240:
 2659 001a 10BD     		pop	{r4, pc}
 2660              		.cfi_endproc
 2661              	.LFE10:
 2662              		.size	mbedtls_aes_crypt_ecb, .-mbedtls_aes_crypt_ecb
 2663              		.section	.text.mbedtls_aes_crypt_cbc,"ax",%progbits
 2664              		.align	2
 2665              		.global	mbedtls_aes_crypt_cbc
 2666              		.code	16
 2667              		.thumb_func
 2668              		.type	mbedtls_aes_crypt_cbc, %function
 2669              	mbedtls_aes_crypt_cbc:
 2670              	.LFB11:
1005:Source\mbedtls_open\library/aes.c **** 
1006:Source\mbedtls_open\library/aes.c **** #if defined(MBEDTLS_CIPHER_MODE_CBC)
1007:Source\mbedtls_open\library/aes.c **** /*
1008:Source\mbedtls_open\library/aes.c ****  * AES-CBC buffer encryption/decryption
1009:Source\mbedtls_open\library/aes.c ****  */
1010:Source\mbedtls_open\library/aes.c **** int mbedtls_aes_crypt_cbc( mbedtls_aes_context *ctx,
1011:Source\mbedtls_open\library/aes.c ****                     int mode,
1012:Source\mbedtls_open\library/aes.c ****                     size_t length,
1013:Source\mbedtls_open\library/aes.c ****                     unsigned char iv[16],
1014:Source\mbedtls_open\library/aes.c ****                     const unsigned char *input,
1015:Source\mbedtls_open\library/aes.c ****                     unsigned char *output )
1016:Source\mbedtls_open\library/aes.c **** {
 2671              		.loc 1 1016 0
 2672              		.cfi_startproc
 2673              		@ args = 8, pretend = 0, frame = 24
 2674              		@ frame_needed = 0, uses_anonymous_args = 0
 2675              	.LVL241:
 2676 0000 F0B5     		push	{r4, r5, r6, r7, lr}
 2677              		.cfi_def_cfa_offset 20
 2678              		.cfi_offset 4, -20
 2679              		.cfi_offset 5, -16
 2680              		.cfi_offset 6, -12
 2681              		.cfi_offset 7, -8
 2682              		.cfi_offset 14, -4
 2683 0002 87B0     		sub	sp, sp, #28
 2684              		.cfi_def_cfa_offset 48
 2685 0004 0090     		str	r0, [sp]
 2686 0006 0191     		str	r1, [sp, #4]
ARM GAS  C:\Users\Phuong\AppData\Local\Temp\ccyLHZOj.s 			page 68


 2687 0008 1500     		movs	r5, r2
 2688 000a 1F00     		movs	r7, r3
 2689 000c 0C9C     		ldr	r4, [sp, #48]
 2690 000e 0D9E     		ldr	r6, [sp, #52]
1017:Source\mbedtls_open\library/aes.c ****     int i;
1018:Source\mbedtls_open\library/aes.c ****     unsigned char temp[16];
1019:Source\mbedtls_open\library/aes.c **** 
1020:Source\mbedtls_open\library/aes.c ****     if( length % 16 )
 2691              		.loc 1 1020 0
 2692 0010 1307     		lsls	r3, r2, #28
 2693 0012 3ED1     		bne	.L84
 2694              	.LVL242:
1021:Source\mbedtls_open\library/aes.c ****         return( MBEDTLS_ERR_AES_INVALID_INPUT_LENGTH );
1022:Source\mbedtls_open\library/aes.c **** 
1023:Source\mbedtls_open\library/aes.c **** #if defined(MBEDTLS_PADLOCK_C) && defined(MBEDTLS_HAVE_X86)
1024:Source\mbedtls_open\library/aes.c ****     if( aes_padlock_ace )
1025:Source\mbedtls_open\library/aes.c ****     {
1026:Source\mbedtls_open\library/aes.c ****         if( mbedtls_padlock_xcryptcbc( ctx, mode, length, iv, input, output ) == 0 )
1027:Source\mbedtls_open\library/aes.c ****             return( 0 );
1028:Source\mbedtls_open\library/aes.c **** 
1029:Source\mbedtls_open\library/aes.c ****         // If padlock data misaligned, we just fall back to
1030:Source\mbedtls_open\library/aes.c ****         // unaccelerated mode
1031:Source\mbedtls_open\library/aes.c ****         //
1032:Source\mbedtls_open\library/aes.c ****     }
1033:Source\mbedtls_open\library/aes.c **** #endif
1034:Source\mbedtls_open\library/aes.c **** 
1035:Source\mbedtls_open\library/aes.c ****     if( mode == MBEDTLS_AES_DECRYPT )
 2695              		.loc 1 1035 0
 2696 0014 0029     		cmp	r1, #0
 2697 0016 1DD0     		beq	.L77
 2698 0018 37E0     		b	.L78
 2699              	.LVL243:
 2700              	.L81:
1036:Source\mbedtls_open\library/aes.c ****     {
1037:Source\mbedtls_open\library/aes.c ****         while( length > 0 )
1038:Source\mbedtls_open\library/aes.c ****         {
1039:Source\mbedtls_open\library/aes.c ****             memcpy( temp, input, 16 );
 2701              		.loc 1 1039 0
 2702 001a 1022     		movs	r2, #16
 2703 001c 2100     		movs	r1, r4
 2704 001e 02A8     		add	r0, sp, #8
 2705 0020 FFF7FEFF 		bl	memcpy
 2706              	.LVL244:
1040:Source\mbedtls_open\library/aes.c ****             mbedtls_aes_crypt_ecb( ctx, mode, input, output );
 2707              		.loc 1 1040 0
 2708 0024 3300     		movs	r3, r6
 2709 0026 2200     		movs	r2, r4
 2710 0028 0199     		ldr	r1, [sp, #4]
 2711 002a 0098     		ldr	r0, [sp]
 2712 002c FFF7FEFF 		bl	mbedtls_aes_crypt_ecb
 2713              	.LVL245:
1041:Source\mbedtls_open\library/aes.c **** 
1042:Source\mbedtls_open\library/aes.c ****             for( i = 0; i < 16; i++ )
 2714              		.loc 1 1042 0
 2715 0030 0023     		movs	r3, #0
 2716 0032 05E0     		b	.L79
 2717              	.LVL246:
ARM GAS  C:\Users\Phuong\AppData\Local\Temp\ccyLHZOj.s 			page 69


 2718              	.L80:
1043:Source\mbedtls_open\library/aes.c ****                 output[i] = (unsigned char)( output[i] ^ iv[i] );
 2719              		.loc 1 1043 0 discriminator 3
 2720 0034 F118     		adds	r1, r6, r3
 2721 0036 0878     		ldrb	r0, [r1]
 2722 0038 FA5C     		ldrb	r2, [r7, r3]
 2723 003a 4240     		eors	r2, r0
 2724 003c 0A70     		strb	r2, [r1]
1042:Source\mbedtls_open\library/aes.c ****                 output[i] = (unsigned char)( output[i] ^ iv[i] );
 2725              		.loc 1 1042 0 discriminator 3
 2726 003e 0133     		adds	r3, r3, #1
 2727              	.LVL247:
 2728              	.L79:
1042:Source\mbedtls_open\library/aes.c ****                 output[i] = (unsigned char)( output[i] ^ iv[i] );
 2729              		.loc 1 1042 0 is_stmt 0 discriminator 1
 2730 0040 0F2B     		cmp	r3, #15
 2731 0042 F7DD     		ble	.L80
1044:Source\mbedtls_open\library/aes.c **** 
1045:Source\mbedtls_open\library/aes.c ****             memcpy( iv, temp, 16 );
 2732              		.loc 1 1045 0 is_stmt 1
 2733 0044 1022     		movs	r2, #16
 2734 0046 02A9     		add	r1, sp, #8
 2735 0048 3800     		movs	r0, r7
 2736 004a FFF7FEFF 		bl	memcpy
 2737              	.LVL248:
1046:Source\mbedtls_open\library/aes.c **** 
1047:Source\mbedtls_open\library/aes.c ****             input  += 16;
 2738              		.loc 1 1047 0
 2739 004e 1034     		adds	r4, r4, #16
 2740              	.LVL249:
1048:Source\mbedtls_open\library/aes.c ****             output += 16;
 2741              		.loc 1 1048 0
 2742 0050 1036     		adds	r6, r6, #16
 2743              	.LVL250:
1049:Source\mbedtls_open\library/aes.c ****             length -= 16;
 2744              		.loc 1 1049 0
 2745 0052 103D     		subs	r5, r5, #16
 2746              	.LVL251:
 2747              	.L77:
1037:Source\mbedtls_open\library/aes.c ****         {
 2748              		.loc 1 1037 0
 2749 0054 002D     		cmp	r5, #0
 2750 0056 E0D1     		bne	.L81
1050:Source\mbedtls_open\library/aes.c ****         }
1051:Source\mbedtls_open\library/aes.c ****     }
1052:Source\mbedtls_open\library/aes.c ****     else
1053:Source\mbedtls_open\library/aes.c ****     {
1054:Source\mbedtls_open\library/aes.c ****         while( length > 0 )
1055:Source\mbedtls_open\library/aes.c ****         {
1056:Source\mbedtls_open\library/aes.c ****             for( i = 0; i < 16; i++ )
1057:Source\mbedtls_open\library/aes.c ****                 output[i] = (unsigned char)( input[i] ^ iv[i] );
1058:Source\mbedtls_open\library/aes.c **** 
1059:Source\mbedtls_open\library/aes.c ****             mbedtls_aes_crypt_ecb( ctx, mode, output, output );
1060:Source\mbedtls_open\library/aes.c ****             memcpy( iv, output, 16 );
1061:Source\mbedtls_open\library/aes.c **** 
1062:Source\mbedtls_open\library/aes.c ****             input  += 16;
1063:Source\mbedtls_open\library/aes.c ****             output += 16;
ARM GAS  C:\Users\Phuong\AppData\Local\Temp\ccyLHZOj.s 			page 70


1064:Source\mbedtls_open\library/aes.c ****             length -= 16;
1065:Source\mbedtls_open\library/aes.c ****         }
1066:Source\mbedtls_open\library/aes.c ****     }
1067:Source\mbedtls_open\library/aes.c **** 
1068:Source\mbedtls_open\library/aes.c ****     return( 0 );
 2751              		.loc 1 1068 0
 2752 0058 0020     		movs	r0, #0
 2753 005a 1CE0     		b	.L76
 2754              	.LVL252:
 2755              	.L82:
1057:Source\mbedtls_open\library/aes.c **** 
 2756              		.loc 1 1057 0 discriminator 3
 2757 005c E15C     		ldrb	r1, [r4, r3]
 2758 005e FA5C     		ldrb	r2, [r7, r3]
 2759 0060 4A40     		eors	r2, r1
 2760 0062 F254     		strb	r2, [r6, r3]
1056:Source\mbedtls_open\library/aes.c ****                 output[i] = (unsigned char)( input[i] ^ iv[i] );
 2761              		.loc 1 1056 0 discriminator 3
 2762 0064 0133     		adds	r3, r3, #1
 2763              	.LVL253:
 2764 0066 00E0     		b	.L83
 2765              	.LVL254:
 2766              	.L85:
 2767 0068 0023     		movs	r3, #0
 2768              	.L83:
 2769              	.LVL255:
1056:Source\mbedtls_open\library/aes.c ****                 output[i] = (unsigned char)( input[i] ^ iv[i] );
 2770              		.loc 1 1056 0 is_stmt 0 discriminator 1
 2771 006a 0F2B     		cmp	r3, #15
 2772 006c F6DD     		ble	.L82
1059:Source\mbedtls_open\library/aes.c ****             memcpy( iv, output, 16 );
 2773              		.loc 1 1059 0 is_stmt 1
 2774 006e 3300     		movs	r3, r6
 2775              	.LVL256:
 2776 0070 3200     		movs	r2, r6
 2777 0072 0199     		ldr	r1, [sp, #4]
 2778 0074 0098     		ldr	r0, [sp]
 2779 0076 FFF7FEFF 		bl	mbedtls_aes_crypt_ecb
 2780              	.LVL257:
1060:Source\mbedtls_open\library/aes.c **** 
 2781              		.loc 1 1060 0
 2782 007a 1022     		movs	r2, #16
 2783 007c 3100     		movs	r1, r6
 2784 007e 3800     		movs	r0, r7
 2785 0080 FFF7FEFF 		bl	memcpy
 2786              	.LVL258:
1062:Source\mbedtls_open\library/aes.c ****             output += 16;
 2787              		.loc 1 1062 0
 2788 0084 1034     		adds	r4, r4, #16
 2789              	.LVL259:
1063:Source\mbedtls_open\library/aes.c ****             length -= 16;
 2790              		.loc 1 1063 0
 2791 0086 1036     		adds	r6, r6, #16
 2792              	.LVL260:
1064:Source\mbedtls_open\library/aes.c ****         }
 2793              		.loc 1 1064 0
 2794 0088 103D     		subs	r5, r5, #16
ARM GAS  C:\Users\Phuong\AppData\Local\Temp\ccyLHZOj.s 			page 71


 2795              	.LVL261:
 2796              	.L78:
1054:Source\mbedtls_open\library/aes.c ****         {
 2797              		.loc 1 1054 0
 2798 008a 002D     		cmp	r5, #0
 2799 008c ECD1     		bne	.L85
 2800              		.loc 1 1068 0
 2801 008e 0020     		movs	r0, #0
 2802 0090 01E0     		b	.L76
 2803              	.LVL262:
 2804              	.L84:
1021:Source\mbedtls_open\library/aes.c **** 
 2805              		.loc 1 1021 0
 2806 0092 2220     		movs	r0, #34
 2807              	.LVL263:
 2808 0094 4042     		rsbs	r0, r0, #0
 2809              	.LVL264:
 2810              	.L76:
1069:Source\mbedtls_open\library/aes.c **** }
 2811              		.loc 1 1069 0
 2812 0096 07B0     		add	sp, sp, #28
 2813              	.LVL265:
 2814              		@ sp needed
 2815              	.LVL266:
 2816              	.LVL267:
 2817 0098 F0BD     		pop	{r4, r5, r6, r7, pc}
 2818              		.cfi_endproc
 2819              	.LFE11:
 2820              		.size	mbedtls_aes_crypt_cbc, .-mbedtls_aes_crypt_cbc
 2821 009a C046     		.section	.text.mbedtls_aes_crypt_cfb128,"ax",%progbits
 2822              		.align	2
 2823              		.global	mbedtls_aes_crypt_cfb128
 2824              		.code	16
 2825              		.thumb_func
 2826              		.type	mbedtls_aes_crypt_cfb128, %function
 2827              	mbedtls_aes_crypt_cfb128:
 2828              	.LFB12:
1070:Source\mbedtls_open\library/aes.c **** #endif /* MBEDTLS_CIPHER_MODE_CBC */
1071:Source\mbedtls_open\library/aes.c **** 
1072:Source\mbedtls_open\library/aes.c **** #if defined(MBEDTLS_CIPHER_MODE_XTS)
1073:Source\mbedtls_open\library/aes.c **** 
1074:Source\mbedtls_open\library/aes.c **** /* Endianess with 64 bits values */
1075:Source\mbedtls_open\library/aes.c **** #ifndef GET_UINT64_LE
1076:Source\mbedtls_open\library/aes.c **** #define GET_UINT64_LE(n,b,i)                            \
1077:Source\mbedtls_open\library/aes.c **** {                                                       \
1078:Source\mbedtls_open\library/aes.c ****     (n) = ( (uint64_t) (b)[(i) + 7] << 56 )             \
1079:Source\mbedtls_open\library/aes.c ****         | ( (uint64_t) (b)[(i) + 6] << 48 )             \
1080:Source\mbedtls_open\library/aes.c ****         | ( (uint64_t) (b)[(i) + 5] << 40 )             \
1081:Source\mbedtls_open\library/aes.c ****         | ( (uint64_t) (b)[(i) + 4] << 32 )             \
1082:Source\mbedtls_open\library/aes.c ****         | ( (uint64_t) (b)[(i) + 3] << 24 )             \
1083:Source\mbedtls_open\library/aes.c ****         | ( (uint64_t) (b)[(i) + 2] << 16 )             \
1084:Source\mbedtls_open\library/aes.c ****         | ( (uint64_t) (b)[(i) + 1] <<  8 )             \
1085:Source\mbedtls_open\library/aes.c ****         | ( (uint64_t) (b)[(i)    ]       );            \
1086:Source\mbedtls_open\library/aes.c **** }
1087:Source\mbedtls_open\library/aes.c **** #endif
1088:Source\mbedtls_open\library/aes.c **** 
1089:Source\mbedtls_open\library/aes.c **** #ifndef PUT_UINT64_LE
ARM GAS  C:\Users\Phuong\AppData\Local\Temp\ccyLHZOj.s 			page 72


1090:Source\mbedtls_open\library/aes.c **** #define PUT_UINT64_LE(n,b,i)                            \
1091:Source\mbedtls_open\library/aes.c **** {                                                       \
1092:Source\mbedtls_open\library/aes.c ****     (b)[(i) + 7] = (unsigned char) ( (n) >> 56 );       \
1093:Source\mbedtls_open\library/aes.c ****     (b)[(i) + 6] = (unsigned char) ( (n) >> 48 );       \
1094:Source\mbedtls_open\library/aes.c ****     (b)[(i) + 5] = (unsigned char) ( (n) >> 40 );       \
1095:Source\mbedtls_open\library/aes.c ****     (b)[(i) + 4] = (unsigned char) ( (n) >> 32 );       \
1096:Source\mbedtls_open\library/aes.c ****     (b)[(i) + 3] = (unsigned char) ( (n) >> 24 );       \
1097:Source\mbedtls_open\library/aes.c ****     (b)[(i) + 2] = (unsigned char) ( (n) >> 16 );       \
1098:Source\mbedtls_open\library/aes.c ****     (b)[(i) + 1] = (unsigned char) ( (n) >>  8 );       \
1099:Source\mbedtls_open\library/aes.c ****     (b)[(i)    ] = (unsigned char) ( (n)       );       \
1100:Source\mbedtls_open\library/aes.c **** }
1101:Source\mbedtls_open\library/aes.c **** #endif
1102:Source\mbedtls_open\library/aes.c **** 
1103:Source\mbedtls_open\library/aes.c **** typedef unsigned char mbedtls_be128[16];
1104:Source\mbedtls_open\library/aes.c **** 
1105:Source\mbedtls_open\library/aes.c **** /*
1106:Source\mbedtls_open\library/aes.c ****  * GF(2^128) multiplication function
1107:Source\mbedtls_open\library/aes.c ****  *
1108:Source\mbedtls_open\library/aes.c ****  * This function multiplies a field element by x in the polynomial field
1109:Source\mbedtls_open\library/aes.c ****  * representation. It uses 64-bit word operations to gain speed but compensates
1110:Source\mbedtls_open\library/aes.c ****  * for machine endianess and hence works correctly on both big and little
1111:Source\mbedtls_open\library/aes.c ****  * endian machines.
1112:Source\mbedtls_open\library/aes.c ****  */
1113:Source\mbedtls_open\library/aes.c **** static void mbedtls_gf128mul_x_ble( unsigned char r[16],
1114:Source\mbedtls_open\library/aes.c ****                                     const unsigned char x[16] )
1115:Source\mbedtls_open\library/aes.c **** {
1116:Source\mbedtls_open\library/aes.c ****     uint64_t a, b, ra, rb;
1117:Source\mbedtls_open\library/aes.c **** 
1118:Source\mbedtls_open\library/aes.c ****     GET_UINT64_LE( a, x, 0 );
1119:Source\mbedtls_open\library/aes.c ****     GET_UINT64_LE( b, x, 8 );
1120:Source\mbedtls_open\library/aes.c **** 
1121:Source\mbedtls_open\library/aes.c ****     ra = ( a << 1 )  ^ 0x0087 >> ( 8 - ( ( b >> 63 ) << 3 ) );
1122:Source\mbedtls_open\library/aes.c ****     rb = ( a >> 63 ) | ( b << 1 );
1123:Source\mbedtls_open\library/aes.c **** 
1124:Source\mbedtls_open\library/aes.c ****     PUT_UINT64_LE( ra, r, 0 );
1125:Source\mbedtls_open\library/aes.c ****     PUT_UINT64_LE( rb, r, 8 );
1126:Source\mbedtls_open\library/aes.c **** }
1127:Source\mbedtls_open\library/aes.c **** 
1128:Source\mbedtls_open\library/aes.c **** /*
1129:Source\mbedtls_open\library/aes.c ****  * AES-XTS buffer encryption/decryption
1130:Source\mbedtls_open\library/aes.c ****  */
1131:Source\mbedtls_open\library/aes.c **** int mbedtls_aes_crypt_xts( mbedtls_aes_xts_context *ctx,
1132:Source\mbedtls_open\library/aes.c ****                            int mode,
1133:Source\mbedtls_open\library/aes.c ****                            size_t length,
1134:Source\mbedtls_open\library/aes.c ****                            const unsigned char data_unit[16],
1135:Source\mbedtls_open\library/aes.c ****                            const unsigned char *input,
1136:Source\mbedtls_open\library/aes.c ****                            unsigned char *output )
1137:Source\mbedtls_open\library/aes.c **** {
1138:Source\mbedtls_open\library/aes.c ****     int ret;
1139:Source\mbedtls_open\library/aes.c ****     size_t blocks = length / 16;
1140:Source\mbedtls_open\library/aes.c ****     size_t leftover = length % 16;
1141:Source\mbedtls_open\library/aes.c ****     unsigned char tweak[16];
1142:Source\mbedtls_open\library/aes.c ****     unsigned char prev_tweak[16];
1143:Source\mbedtls_open\library/aes.c ****     unsigned char tmp[16];
1144:Source\mbedtls_open\library/aes.c **** 
1145:Source\mbedtls_open\library/aes.c ****     /* Sectors must be at least 16 bytes. */
1146:Source\mbedtls_open\library/aes.c ****     if( length < 16 )
ARM GAS  C:\Users\Phuong\AppData\Local\Temp\ccyLHZOj.s 			page 73


1147:Source\mbedtls_open\library/aes.c ****         return MBEDTLS_ERR_AES_INVALID_INPUT_LENGTH;
1148:Source\mbedtls_open\library/aes.c **** 
1149:Source\mbedtls_open\library/aes.c ****     /* NIST SP 80-38E disallows data units larger than 2**20 blocks. */
1150:Source\mbedtls_open\library/aes.c ****     if( length > ( 1 << 20 ) * 16 )
1151:Source\mbedtls_open\library/aes.c ****         return MBEDTLS_ERR_AES_INVALID_INPUT_LENGTH;
1152:Source\mbedtls_open\library/aes.c **** 
1153:Source\mbedtls_open\library/aes.c ****     /* Compute the tweak. */
1154:Source\mbedtls_open\library/aes.c ****     ret = mbedtls_aes_crypt_ecb( &ctx->tweak, MBEDTLS_AES_ENCRYPT,
1155:Source\mbedtls_open\library/aes.c ****                                  data_unit, tweak );
1156:Source\mbedtls_open\library/aes.c ****     if( ret != 0 )
1157:Source\mbedtls_open\library/aes.c ****         return( ret );
1158:Source\mbedtls_open\library/aes.c **** 
1159:Source\mbedtls_open\library/aes.c ****     while( blocks-- )
1160:Source\mbedtls_open\library/aes.c ****     {
1161:Source\mbedtls_open\library/aes.c ****         size_t i;
1162:Source\mbedtls_open\library/aes.c **** 
1163:Source\mbedtls_open\library/aes.c ****         if( leftover && ( mode == MBEDTLS_AES_DECRYPT ) && blocks == 0 )
1164:Source\mbedtls_open\library/aes.c ****         {
1165:Source\mbedtls_open\library/aes.c ****             /* We are on the last block in a decrypt operation that has
1166:Source\mbedtls_open\library/aes.c ****              * leftover bytes, so we need to use the next tweak for this block,
1167:Source\mbedtls_open\library/aes.c ****              * and this tweak for the lefover bytes. Save the current tweak for
1168:Source\mbedtls_open\library/aes.c ****              * the leftovers and then update the current tweak for use on this,
1169:Source\mbedtls_open\library/aes.c ****              * the last full block. */
1170:Source\mbedtls_open\library/aes.c ****             memcpy( prev_tweak, tweak, sizeof( tweak ) );
1171:Source\mbedtls_open\library/aes.c ****             mbedtls_gf128mul_x_ble( tweak, tweak );
1172:Source\mbedtls_open\library/aes.c ****         }
1173:Source\mbedtls_open\library/aes.c **** 
1174:Source\mbedtls_open\library/aes.c ****         for( i = 0; i < 16; i++ )
1175:Source\mbedtls_open\library/aes.c ****             tmp[i] = input[i] ^ tweak[i];
1176:Source\mbedtls_open\library/aes.c **** 
1177:Source\mbedtls_open\library/aes.c ****         ret = mbedtls_aes_crypt_ecb( &ctx->crypt, mode, tmp, tmp );
1178:Source\mbedtls_open\library/aes.c ****         if( ret != 0 )
1179:Source\mbedtls_open\library/aes.c ****             return( ret );
1180:Source\mbedtls_open\library/aes.c **** 
1181:Source\mbedtls_open\library/aes.c ****         for( i = 0; i < 16; i++ )
1182:Source\mbedtls_open\library/aes.c ****             output[i] = tmp[i] ^ tweak[i];
1183:Source\mbedtls_open\library/aes.c **** 
1184:Source\mbedtls_open\library/aes.c ****         /* Update the tweak for the next block. */
1185:Source\mbedtls_open\library/aes.c ****         mbedtls_gf128mul_x_ble( tweak, tweak );
1186:Source\mbedtls_open\library/aes.c **** 
1187:Source\mbedtls_open\library/aes.c ****         output += 16;
1188:Source\mbedtls_open\library/aes.c ****         input += 16;
1189:Source\mbedtls_open\library/aes.c ****     }
1190:Source\mbedtls_open\library/aes.c **** 
1191:Source\mbedtls_open\library/aes.c ****     if( leftover )
1192:Source\mbedtls_open\library/aes.c ****     {
1193:Source\mbedtls_open\library/aes.c ****         /* If we are on the leftover bytes in a decrypt operation, we need to
1194:Source\mbedtls_open\library/aes.c ****          * use the previous tweak for these bytes (as saved in prev_tweak). */
1195:Source\mbedtls_open\library/aes.c ****         unsigned char *t = mode == MBEDTLS_AES_DECRYPT ? prev_tweak : tweak;
1196:Source\mbedtls_open\library/aes.c **** 
1197:Source\mbedtls_open\library/aes.c ****         /* We are now on the final part of the data unit, which doesn't divide
1198:Source\mbedtls_open\library/aes.c ****          * evenly by 16. It's time for ciphertext stealing. */
1199:Source\mbedtls_open\library/aes.c ****         size_t i;
1200:Source\mbedtls_open\library/aes.c ****         unsigned char *prev_output = output - 16;
1201:Source\mbedtls_open\library/aes.c **** 
1202:Source\mbedtls_open\library/aes.c ****         /* Copy ciphertext bytes from the previous block to our output for each
1203:Source\mbedtls_open\library/aes.c ****          * byte of cyphertext we won't steal. At the same time, copy the
ARM GAS  C:\Users\Phuong\AppData\Local\Temp\ccyLHZOj.s 			page 74


1204:Source\mbedtls_open\library/aes.c ****          * remainder of the input for this final round (since the loop bounds
1205:Source\mbedtls_open\library/aes.c ****          * are the same). */
1206:Source\mbedtls_open\library/aes.c ****         for( i = 0; i < leftover; i++ )
1207:Source\mbedtls_open\library/aes.c ****         {
1208:Source\mbedtls_open\library/aes.c ****             output[i] = prev_output[i];
1209:Source\mbedtls_open\library/aes.c ****             tmp[i] = input[i] ^ t[i];
1210:Source\mbedtls_open\library/aes.c ****         }
1211:Source\mbedtls_open\library/aes.c **** 
1212:Source\mbedtls_open\library/aes.c ****         /* Copy ciphertext bytes from the previous block for input in this
1213:Source\mbedtls_open\library/aes.c ****          * round. */
1214:Source\mbedtls_open\library/aes.c ****         for( ; i < 16; i++ )
1215:Source\mbedtls_open\library/aes.c ****             tmp[i] = prev_output[i] ^ t[i];
1216:Source\mbedtls_open\library/aes.c **** 
1217:Source\mbedtls_open\library/aes.c ****         ret = mbedtls_aes_crypt_ecb( &ctx->crypt, mode, tmp, tmp );
1218:Source\mbedtls_open\library/aes.c ****         if( ret != 0 )
1219:Source\mbedtls_open\library/aes.c ****             return ret;
1220:Source\mbedtls_open\library/aes.c **** 
1221:Source\mbedtls_open\library/aes.c ****         /* Write the result back to the previous block, overriding the previous
1222:Source\mbedtls_open\library/aes.c ****          * output we copied. */
1223:Source\mbedtls_open\library/aes.c ****         for( i = 0; i < 16; i++ )
1224:Source\mbedtls_open\library/aes.c ****             prev_output[i] = tmp[i] ^ t[i];
1225:Source\mbedtls_open\library/aes.c ****     }
1226:Source\mbedtls_open\library/aes.c **** 
1227:Source\mbedtls_open\library/aes.c ****     return( 0 );
1228:Source\mbedtls_open\library/aes.c **** }
1229:Source\mbedtls_open\library/aes.c **** #endif /* MBEDTLS_CIPHER_MODE_XTS */
1230:Source\mbedtls_open\library/aes.c **** 
1231:Source\mbedtls_open\library/aes.c **** #if defined(MBEDTLS_CIPHER_MODE_CFB)
1232:Source\mbedtls_open\library/aes.c **** /*
1233:Source\mbedtls_open\library/aes.c ****  * AES-CFB128 buffer encryption/decryption
1234:Source\mbedtls_open\library/aes.c ****  */
1235:Source\mbedtls_open\library/aes.c **** int mbedtls_aes_crypt_cfb128( mbedtls_aes_context *ctx,
1236:Source\mbedtls_open\library/aes.c ****                        int mode,
1237:Source\mbedtls_open\library/aes.c ****                        size_t length,
1238:Source\mbedtls_open\library/aes.c ****                        size_t *iv_off,
1239:Source\mbedtls_open\library/aes.c ****                        unsigned char iv[16],
1240:Source\mbedtls_open\library/aes.c ****                        const unsigned char *input,
1241:Source\mbedtls_open\library/aes.c ****                        unsigned char *output )
1242:Source\mbedtls_open\library/aes.c **** {
 2829              		.loc 1 1242 0
 2830              		.cfi_startproc
 2831              		@ args = 12, pretend = 0, frame = 8
 2832              		@ frame_needed = 0, uses_anonymous_args = 0
 2833              	.LVL268:
 2834 0000 F0B5     		push	{r4, r5, r6, r7, lr}
 2835              		.cfi_def_cfa_offset 20
 2836              		.cfi_offset 4, -20
 2837              		.cfi_offset 5, -16
 2838              		.cfi_offset 6, -12
 2839              		.cfi_offset 7, -8
 2840              		.cfi_offset 14, -4
 2841 0002 4F46     		mov	r7, r9
 2842 0004 4646     		mov	r6, r8
 2843 0006 C0B4     		push	{r6, r7}
 2844              		.cfi_def_cfa_offset 28
 2845              		.cfi_offset 8, -28
 2846              		.cfi_offset 9, -24
ARM GAS  C:\Users\Phuong\AppData\Local\Temp\ccyLHZOj.s 			page 75


 2847 0008 83B0     		sub	sp, sp, #12
 2848              		.cfi_def_cfa_offset 40
 2849 000a 0190     		str	r0, [sp, #4]
 2850 000c 9846     		mov	r8, r3
 2851 000e 0A9E     		ldr	r6, [sp, #40]
 2852 0010 0B9D     		ldr	r5, [sp, #44]
 2853 0012 0C9F     		ldr	r7, [sp, #48]
1243:Source\mbedtls_open\library/aes.c ****     int c;
1244:Source\mbedtls_open\library/aes.c ****     size_t n = *iv_off;
 2854              		.loc 1 1244 0
 2855 0014 1C68     		ldr	r4, [r3]
 2856              	.LVL269:
1245:Source\mbedtls_open\library/aes.c **** 
1246:Source\mbedtls_open\library/aes.c ****     if( mode == MBEDTLS_AES_DECRYPT )
 2857              		.loc 1 1246 0
 2858 0016 0029     		cmp	r1, #0
 2859 0018 14D0     		beq	.L87
 2860 001a 2CE0     		b	.L88
 2861              	.LVL270:
 2862              	.L90:
1247:Source\mbedtls_open\library/aes.c ****     {
1248:Source\mbedtls_open\library/aes.c ****         while( length-- )
1249:Source\mbedtls_open\library/aes.c ****         {
1250:Source\mbedtls_open\library/aes.c ****             if( n == 0 )
 2863              		.loc 1 1250 0
 2864 001c 002C     		cmp	r4, #0
 2865 001e 05D1     		bne	.L89
1251:Source\mbedtls_open\library/aes.c ****                 mbedtls_aes_crypt_ecb( ctx, MBEDTLS_AES_ENCRYPT, iv, iv );
 2866              		.loc 1 1251 0
 2867 0020 3300     		movs	r3, r6
 2868              	.LVL271:
 2869 0022 3200     		movs	r2, r6
 2870 0024 0121     		movs	r1, #1
 2871 0026 0198     		ldr	r0, [sp, #4]
 2872 0028 FFF7FEFF 		bl	mbedtls_aes_crypt_ecb
 2873              	.LVL272:
 2874              	.L89:
1252:Source\mbedtls_open\library/aes.c **** 
1253:Source\mbedtls_open\library/aes.c ****             c = *input++;
 2875              		.loc 1 1253 0
 2876 002c 2978     		ldrb	r1, [r5]
 2877              	.LVL273:
1254:Source\mbedtls_open\library/aes.c ****             *output++ = (unsigned char)( c ^ iv[n] );
 2878              		.loc 1 1254 0
 2879 002e 3219     		adds	r2, r6, r4
 2880 0030 1378     		ldrb	r3, [r2]
 2881 0032 4B40     		eors	r3, r1
 2882 0034 3B70     		strb	r3, [r7]
1255:Source\mbedtls_open\library/aes.c ****             iv[n] = (unsigned char) c;
 2883              		.loc 1 1255 0
 2884 0036 1170     		strb	r1, [r2]
1256:Source\mbedtls_open\library/aes.c **** 
1257:Source\mbedtls_open\library/aes.c ****             n = ( n + 1 ) & 0x0F;
 2885              		.loc 1 1257 0
 2886 0038 0134     		adds	r4, r4, #1
 2887              	.LVL274:
 2888 003a 0F23     		movs	r3, #15
ARM GAS  C:\Users\Phuong\AppData\Local\Temp\ccyLHZOj.s 			page 76


 2889 003c 1C40     		ands	r4, r3
 2890              	.LVL275:
1248:Source\mbedtls_open\library/aes.c ****         {
 2891              		.loc 1 1248 0
 2892 003e 4A46     		mov	r2, r9
1254:Source\mbedtls_open\library/aes.c ****             iv[n] = (unsigned char) c;
 2893              		.loc 1 1254 0
 2894 0040 0137     		adds	r7, r7, #1
 2895              	.LVL276:
1253:Source\mbedtls_open\library/aes.c ****             *output++ = (unsigned char)( c ^ iv[n] );
 2896              		.loc 1 1253 0
 2897 0042 0135     		adds	r5, r5, #1
 2898              	.LVL277:
 2899              	.L87:
1248:Source\mbedtls_open\library/aes.c ****         {
 2900              		.loc 1 1248 0
 2901 0044 531E     		subs	r3, r2, #1
 2902 0046 9946     		mov	r9, r3
 2903              	.LVL278:
 2904 0048 002A     		cmp	r2, #0
 2905 004a E7D1     		bne	.L90
 2906 004c 17E0     		b	.L91
 2907              	.L93:
1258:Source\mbedtls_open\library/aes.c ****         }
1259:Source\mbedtls_open\library/aes.c ****     }
1260:Source\mbedtls_open\library/aes.c ****     else
1261:Source\mbedtls_open\library/aes.c ****     {
1262:Source\mbedtls_open\library/aes.c ****         while( length-- )
1263:Source\mbedtls_open\library/aes.c ****         {
1264:Source\mbedtls_open\library/aes.c ****             if( n == 0 )
 2908              		.loc 1 1264 0
 2909 004e 002C     		cmp	r4, #0
 2910 0050 05D1     		bne	.L92
1265:Source\mbedtls_open\library/aes.c ****                 mbedtls_aes_crypt_ecb( ctx, MBEDTLS_AES_ENCRYPT, iv, iv );
 2911              		.loc 1 1265 0
 2912 0052 3300     		movs	r3, r6
 2913              	.LVL279:
 2914 0054 3200     		movs	r2, r6
 2915 0056 0121     		movs	r1, #1
 2916 0058 0198     		ldr	r0, [sp, #4]
 2917 005a FFF7FEFF 		bl	mbedtls_aes_crypt_ecb
 2918              	.LVL280:
 2919              	.L92:
1266:Source\mbedtls_open\library/aes.c **** 
1267:Source\mbedtls_open\library/aes.c ****             iv[n] = *output++ = (unsigned char)( iv[n] ^ *input++ );
 2920              		.loc 1 1267 0
 2921 005e 3219     		adds	r2, r6, r4
 2922 0060 1178     		ldrb	r1, [r2]
 2923              	.LVL281:
 2924 0062 2B78     		ldrb	r3, [r5]
 2925 0064 4B40     		eors	r3, r1
 2926 0066 3B70     		strb	r3, [r7]
 2927 0068 1370     		strb	r3, [r2]
1268:Source\mbedtls_open\library/aes.c **** 
1269:Source\mbedtls_open\library/aes.c ****             n = ( n + 1 ) & 0x0F;
 2928              		.loc 1 1269 0
 2929 006a 0134     		adds	r4, r4, #1
ARM GAS  C:\Users\Phuong\AppData\Local\Temp\ccyLHZOj.s 			page 77


 2930              	.LVL282:
 2931 006c 0F23     		movs	r3, #15
 2932 006e 1C40     		ands	r4, r3
 2933              	.LVL283:
1262:Source\mbedtls_open\library/aes.c ****         {
 2934              		.loc 1 1262 0
 2935 0070 4A46     		mov	r2, r9
1267:Source\mbedtls_open\library/aes.c **** 
 2936              		.loc 1 1267 0
 2937 0072 0137     		adds	r7, r7, #1
 2938              	.LVL284:
 2939 0074 0135     		adds	r5, r5, #1
 2940              	.LVL285:
 2941              	.L88:
1262:Source\mbedtls_open\library/aes.c ****         {
 2942              		.loc 1 1262 0
 2943 0076 531E     		subs	r3, r2, #1
 2944 0078 9946     		mov	r9, r3
 2945              	.LVL286:
 2946 007a 002A     		cmp	r2, #0
 2947 007c E7D1     		bne	.L93
 2948              	.L91:
1270:Source\mbedtls_open\library/aes.c ****         }
1271:Source\mbedtls_open\library/aes.c ****     }
1272:Source\mbedtls_open\library/aes.c **** 
1273:Source\mbedtls_open\library/aes.c ****     *iv_off = n;
 2949              		.loc 1 1273 0
 2950 007e 4346     		mov	r3, r8
 2951              	.LVL287:
 2952 0080 1C60     		str	r4, [r3]
1274:Source\mbedtls_open\library/aes.c **** 
1275:Source\mbedtls_open\library/aes.c ****     return( 0 );
1276:Source\mbedtls_open\library/aes.c **** }
 2953              		.loc 1 1276 0
 2954 0082 0020     		movs	r0, #0
 2955 0084 03B0     		add	sp, sp, #12
 2956              		@ sp needed
 2957              	.LVL288:
 2958              	.LVL289:
 2959              	.LVL290:
 2960              	.LVL291:
 2961              	.LVL292:
 2962 0086 0CBC     		pop	{r2, r3}
 2963 0088 9046     		mov	r8, r2
 2964 008a 9946     		mov	r9, r3
 2965 008c F0BD     		pop	{r4, r5, r6, r7, pc}
 2966              		.cfi_endproc
 2967              	.LFE12:
 2968              		.size	mbedtls_aes_crypt_cfb128, .-mbedtls_aes_crypt_cfb128
 2969 008e C046     		.section	.text.mbedtls_aes_crypt_cfb8,"ax",%progbits
 2970              		.align	2
 2971              		.global	mbedtls_aes_crypt_cfb8
 2972              		.code	16
 2973              		.thumb_func
 2974              		.type	mbedtls_aes_crypt_cfb8, %function
 2975              	mbedtls_aes_crypt_cfb8:
 2976              	.LFB13:
ARM GAS  C:\Users\Phuong\AppData\Local\Temp\ccyLHZOj.s 			page 78


1277:Source\mbedtls_open\library/aes.c **** 
1278:Source\mbedtls_open\library/aes.c **** /*
1279:Source\mbedtls_open\library/aes.c ****  * AES-CFB8 buffer encryption/decryption
1280:Source\mbedtls_open\library/aes.c ****  */
1281:Source\mbedtls_open\library/aes.c **** int mbedtls_aes_crypt_cfb8( mbedtls_aes_context *ctx,
1282:Source\mbedtls_open\library/aes.c ****                        int mode,
1283:Source\mbedtls_open\library/aes.c ****                        size_t length,
1284:Source\mbedtls_open\library/aes.c ****                        unsigned char iv[16],
1285:Source\mbedtls_open\library/aes.c ****                        const unsigned char *input,
1286:Source\mbedtls_open\library/aes.c ****                        unsigned char *output )
1287:Source\mbedtls_open\library/aes.c **** {
 2977              		.loc 1 1287 0
 2978              		.cfi_startproc
 2979              		@ args = 8, pretend = 0, frame = 32
 2980              		@ frame_needed = 0, uses_anonymous_args = 0
 2981              	.LVL293:
 2982 0000 F0B5     		push	{r4, r5, r6, r7, lr}
 2983              		.cfi_def_cfa_offset 20
 2984              		.cfi_offset 4, -20
 2985              		.cfi_offset 5, -16
 2986              		.cfi_offset 6, -12
 2987              		.cfi_offset 7, -8
 2988              		.cfi_offset 14, -4
 2989 0002 5746     		mov	r7, r10
 2990 0004 4E46     		mov	r6, r9
 2991 0006 4546     		mov	r5, r8
 2992 0008 E0B4     		push	{r5, r6, r7}
 2993              		.cfi_def_cfa_offset 32
 2994              		.cfi_offset 8, -32
 2995              		.cfi_offset 9, -28
 2996              		.cfi_offset 10, -24
 2997 000a 88B0     		sub	sp, sp, #32
 2998              		.cfi_def_cfa_offset 64
 2999 000c 0190     		str	r0, [sp, #4]
 3000 000e 0F00     		movs	r7, r1
 3001 0010 1C00     		movs	r4, r3
 3002 0012 109E     		ldr	r6, [sp, #64]
 3003 0014 119D     		ldr	r5, [sp, #68]
1288:Source\mbedtls_open\library/aes.c ****     unsigned char c;
1289:Source\mbedtls_open\library/aes.c ****     unsigned char ov[17];
1290:Source\mbedtls_open\library/aes.c **** 
1291:Source\mbedtls_open\library/aes.c ****     while( length-- )
 3004              		.loc 1 1291 0
 3005 0016 24E0     		b	.L95
 3006              	.LVL294:
 3007              	.L98:
1292:Source\mbedtls_open\library/aes.c ****     {
1293:Source\mbedtls_open\library/aes.c ****         memcpy( ov, iv, 16 );
 3008              		.loc 1 1293 0
 3009 0018 1022     		movs	r2, #16
 3010 001a 2100     		movs	r1, r4
 3011 001c 03A8     		add	r0, sp, #12
 3012 001e FFF7FEFF 		bl	memcpy
 3013              	.LVL295:
1294:Source\mbedtls_open\library/aes.c ****         mbedtls_aes_crypt_ecb( ctx, MBEDTLS_AES_ENCRYPT, iv, iv );
 3014              		.loc 1 1294 0
 3015 0022 2300     		movs	r3, r4
ARM GAS  C:\Users\Phuong\AppData\Local\Temp\ccyLHZOj.s 			page 79


 3016 0024 2200     		movs	r2, r4
 3017 0026 0121     		movs	r1, #1
 3018 0028 0198     		ldr	r0, [sp, #4]
 3019 002a FFF7FEFF 		bl	mbedtls_aes_crypt_ecb
 3020              	.LVL296:
1295:Source\mbedtls_open\library/aes.c **** 
1296:Source\mbedtls_open\library/aes.c ****         if( mode == MBEDTLS_AES_DECRYPT )
 3021              		.loc 1 1296 0
 3022 002e 002F     		cmp	r7, #0
 3023 0030 02D1     		bne	.L96
1297:Source\mbedtls_open\library/aes.c ****             ov[16] = *input;
 3024              		.loc 1 1297 0
 3025 0032 3278     		ldrb	r2, [r6]
 3026 0034 03AB     		add	r3, sp, #12
 3027 0036 1A74     		strb	r2, [r3, #16]
 3028              	.L96:
1298:Source\mbedtls_open\library/aes.c **** 
1299:Source\mbedtls_open\library/aes.c ****         c = *output++ = (unsigned char)( iv[0] ^ *input++ );
 3029              		.loc 1 1299 0
 3030 0038 6B1C     		adds	r3, r5, #1
 3031 003a 9A46     		mov	r10, r3
 3032              	.LVL297:
 3033 003c 2278     		ldrb	r2, [r4]
 3034 003e 731C     		adds	r3, r6, #1
 3035              	.LVL298:
 3036 0040 9946     		mov	r9, r3
 3037              	.LVL299:
 3038 0042 3378     		ldrb	r3, [r6]
 3039              	.LVL300:
 3040 0044 5340     		eors	r3, r2
 3041 0046 2B70     		strb	r3, [r5]
 3042              	.LVL301:
1300:Source\mbedtls_open\library/aes.c **** 
1301:Source\mbedtls_open\library/aes.c ****         if( mode == MBEDTLS_AES_ENCRYPT )
 3043              		.loc 1 1301 0
 3044 0048 012F     		cmp	r7, #1
 3045 004a 01D1     		bne	.L97
1302:Source\mbedtls_open\library/aes.c ****             ov[16] = c;
 3046              		.loc 1 1302 0
 3047 004c 03AA     		add	r2, sp, #12
 3048 004e 1374     		strb	r3, [r2, #16]
 3049              	.L97:
1303:Source\mbedtls_open\library/aes.c **** 
1304:Source\mbedtls_open\library/aes.c ****         memcpy( iv, ov + 1, 16 );
 3050              		.loc 1 1304 0
 3051 0050 1022     		movs	r2, #16
 3052 0052 02AB     		add	r3, sp, #8
 3053              	.LVL302:
 3054 0054 591D     		adds	r1, r3, #5
 3055 0056 2000     		movs	r0, r4
 3056 0058 FFF7FEFF 		bl	memcpy
 3057              	.LVL303:
1291:Source\mbedtls_open\library/aes.c ****     {
 3058              		.loc 1 1291 0
 3059 005c 4246     		mov	r2, r8
1299:Source\mbedtls_open\library/aes.c **** 
 3060              		.loc 1 1299 0
ARM GAS  C:\Users\Phuong\AppData\Local\Temp\ccyLHZOj.s 			page 80


 3061 005e 5546     		mov	r5, r10
 3062 0060 4E46     		mov	r6, r9
 3063              	.LVL304:
 3064              	.L95:
1291:Source\mbedtls_open\library/aes.c ****     {
 3065              		.loc 1 1291 0
 3066 0062 531E     		subs	r3, r2, #1
 3067 0064 9846     		mov	r8, r3
 3068              	.LVL305:
 3069 0066 002A     		cmp	r2, #0
 3070 0068 D6D1     		bne	.L98
1305:Source\mbedtls_open\library/aes.c ****     }
1306:Source\mbedtls_open\library/aes.c **** 
1307:Source\mbedtls_open\library/aes.c ****     return( 0 );
1308:Source\mbedtls_open\library/aes.c **** }
 3071              		.loc 1 1308 0
 3072 006a 0020     		movs	r0, #0
 3073 006c 08B0     		add	sp, sp, #32
 3074              		@ sp needed
 3075              	.LVL306:
 3076              	.LVL307:
 3077              	.LVL308:
 3078              	.LVL309:
 3079 006e 1CBC     		pop	{r2, r3, r4}
 3080 0070 9046     		mov	r8, r2
 3081 0072 9946     		mov	r9, r3
 3082 0074 A246     		mov	r10, r4
 3083 0076 F0BD     		pop	{r4, r5, r6, r7, pc}
 3084              		.cfi_endproc
 3085              	.LFE13:
 3086              		.size	mbedtls_aes_crypt_cfb8, .-mbedtls_aes_crypt_cfb8
 3087              		.section	.text.mbedtls_aes_crypt_ofb,"ax",%progbits
 3088              		.align	2
 3089              		.global	mbedtls_aes_crypt_ofb
 3090              		.code	16
 3091              		.thumb_func
 3092              		.type	mbedtls_aes_crypt_ofb, %function
 3093              	mbedtls_aes_crypt_ofb:
 3094              	.LFB14:
1309:Source\mbedtls_open\library/aes.c **** #endif /* MBEDTLS_CIPHER_MODE_CFB */
1310:Source\mbedtls_open\library/aes.c **** 
1311:Source\mbedtls_open\library/aes.c **** #if defined(MBEDTLS_CIPHER_MODE_OFB)
1312:Source\mbedtls_open\library/aes.c **** /*
1313:Source\mbedtls_open\library/aes.c ****  * AES-OFB (Output Feedback Mode) buffer encryption/decryption
1314:Source\mbedtls_open\library/aes.c ****  */
1315:Source\mbedtls_open\library/aes.c **** int mbedtls_aes_crypt_ofb( mbedtls_aes_context *ctx,
1316:Source\mbedtls_open\library/aes.c ****                            size_t length,
1317:Source\mbedtls_open\library/aes.c ****                            size_t *iv_off,
1318:Source\mbedtls_open\library/aes.c ****                            unsigned char iv[16],
1319:Source\mbedtls_open\library/aes.c ****                            const unsigned char *input,
1320:Source\mbedtls_open\library/aes.c ****                            unsigned char *output )
1321:Source\mbedtls_open\library/aes.c **** {
 3095              		.loc 1 1321 0
 3096              		.cfi_startproc
 3097              		@ args = 8, pretend = 0, frame = 8
 3098              		@ frame_needed = 0, uses_anonymous_args = 0
 3099              	.LVL310:
ARM GAS  C:\Users\Phuong\AppData\Local\Temp\ccyLHZOj.s 			page 81


 3100 0000 F0B5     		push	{r4, r5, r6, r7, lr}
 3101              		.cfi_def_cfa_offset 20
 3102              		.cfi_offset 4, -20
 3103              		.cfi_offset 5, -16
 3104              		.cfi_offset 6, -12
 3105              		.cfi_offset 7, -8
 3106              		.cfi_offset 14, -4
 3107 0002 4F46     		mov	r7, r9
 3108 0004 4646     		mov	r6, r8
 3109 0006 C0B4     		push	{r6, r7}
 3110              		.cfi_def_cfa_offset 28
 3111              		.cfi_offset 8, -28
 3112              		.cfi_offset 9, -24
 3113 0008 83B0     		sub	sp, sp, #12
 3114              		.cfi_def_cfa_offset 40
 3115 000a 0190     		str	r0, [sp, #4]
 3116 000c 9146     		mov	r9, r2
 3117 000e 1E00     		movs	r6, r3
 3118 0010 0A9F     		ldr	r7, [sp, #40]
 3119 0012 0B9D     		ldr	r5, [sp, #44]
 3120              	.LVL311:
1322:Source\mbedtls_open\library/aes.c ****     int ret = 0;
1323:Source\mbedtls_open\library/aes.c ****     size_t n = *iv_off;
 3121              		.loc 1 1323 0
 3122 0014 1468     		ldr	r4, [r2]
 3123              	.LVL312:
1322:Source\mbedtls_open\library/aes.c ****     int ret = 0;
 3124              		.loc 1 1322 0
 3125 0016 0020     		movs	r0, #0
 3126              	.LVL313:
1324:Source\mbedtls_open\library/aes.c **** 
1325:Source\mbedtls_open\library/aes.c ****     while( length-- )
 3127              		.loc 1 1325 0
 3128 0018 13E0     		b	.L100
 3129              	.LVL314:
 3130              	.L103:
1326:Source\mbedtls_open\library/aes.c ****     {
1327:Source\mbedtls_open\library/aes.c ****         if( n == 0 )
 3131              		.loc 1 1327 0
 3132 001a 002C     		cmp	r4, #0
 3133 001c 07D1     		bne	.L101
1328:Source\mbedtls_open\library/aes.c ****         {
1329:Source\mbedtls_open\library/aes.c ****             ret = mbedtls_aes_crypt_ecb( ctx, MBEDTLS_AES_ENCRYPT, iv, iv );
 3134              		.loc 1 1329 0
 3135 001e 3300     		movs	r3, r6
 3136              	.LVL315:
 3137 0020 3200     		movs	r2, r6
 3138 0022 0121     		movs	r1, #1
 3139 0024 0198     		ldr	r0, [sp, #4]
 3140              	.LVL316:
 3141 0026 FFF7FEFF 		bl	mbedtls_aes_crypt_ecb
 3142              	.LVL317:
1330:Source\mbedtls_open\library/aes.c ****             if( ret != 0 )
 3143              		.loc 1 1330 0
 3144 002a 0028     		cmp	r0, #0
 3145 002c 0FD1     		bne	.L102
 3146              	.L101:
ARM GAS  C:\Users\Phuong\AppData\Local\Temp\ccyLHZOj.s 			page 82


 3147              	.LVL318:
1331:Source\mbedtls_open\library/aes.c ****                 goto exit;
1332:Source\mbedtls_open\library/aes.c ****         }
1333:Source\mbedtls_open\library/aes.c ****         *output++ =  *input++ ^ iv[n];
 3148              		.loc 1 1333 0
 3149 002e 3A78     		ldrb	r2, [r7]
 3150 0030 335D     		ldrb	r3, [r6, r4]
 3151 0032 5340     		eors	r3, r2
 3152 0034 2B70     		strb	r3, [r5]
1334:Source\mbedtls_open\library/aes.c **** 
1335:Source\mbedtls_open\library/aes.c ****         n = ( n + 1 ) & 0x0F;
 3153              		.loc 1 1335 0
 3154 0036 0134     		adds	r4, r4, #1
 3155              	.LVL319:
 3156 0038 0F23     		movs	r3, #15
 3157 003a 1C40     		ands	r4, r3
 3158              	.LVL320:
1325:Source\mbedtls_open\library/aes.c ****     {
 3159              		.loc 1 1325 0
 3160 003c 4146     		mov	r1, r8
1333:Source\mbedtls_open\library/aes.c **** 
 3161              		.loc 1 1333 0
 3162 003e 0135     		adds	r5, r5, #1
 3163              	.LVL321:
 3164 0040 0137     		adds	r7, r7, #1
 3165              	.LVL322:
 3166              	.L100:
1325:Source\mbedtls_open\library/aes.c ****     {
 3167              		.loc 1 1325 0
 3168 0042 4B1E     		subs	r3, r1, #1
 3169 0044 9846     		mov	r8, r3
 3170              	.LVL323:
 3171 0046 0029     		cmp	r1, #0
 3172 0048 E7D1     		bne	.L103
1336:Source\mbedtls_open\library/aes.c ****     }
1337:Source\mbedtls_open\library/aes.c **** 
1338:Source\mbedtls_open\library/aes.c ****     *iv_off = n;
 3173              		.loc 1 1338 0
 3174 004a 4B46     		mov	r3, r9
 3175              	.LVL324:
 3176 004c 1C60     		str	r4, [r3]
 3177              	.L102:
1339:Source\mbedtls_open\library/aes.c **** 
1340:Source\mbedtls_open\library/aes.c **** exit:
1341:Source\mbedtls_open\library/aes.c ****     return( ret );
1342:Source\mbedtls_open\library/aes.c **** }
 3178              		.loc 1 1342 0
 3179 004e 03B0     		add	sp, sp, #12
 3180              		@ sp needed
 3181              	.LVL325:
 3182              	.LVL326:
 3183              	.LVL327:
 3184              	.LVL328:
 3185              	.LVL329:
 3186              	.LVL330:
 3187 0050 0CBC     		pop	{r2, r3}
 3188 0052 9046     		mov	r8, r2
ARM GAS  C:\Users\Phuong\AppData\Local\Temp\ccyLHZOj.s 			page 83


 3189 0054 9946     		mov	r9, r3
 3190 0056 F0BD     		pop	{r4, r5, r6, r7, pc}
 3191              		.cfi_endproc
 3192              	.LFE14:
 3193              		.size	mbedtls_aes_crypt_ofb, .-mbedtls_aes_crypt_ofb
 3194              		.section	.text.mbedtls_aes_crypt_ctr,"ax",%progbits
 3195              		.align	2
 3196              		.global	mbedtls_aes_crypt_ctr
 3197              		.code	16
 3198              		.thumb_func
 3199              		.type	mbedtls_aes_crypt_ctr, %function
 3200              	mbedtls_aes_crypt_ctr:
 3201              	.LFB15:
1343:Source\mbedtls_open\library/aes.c **** #endif /* MBEDTLS_CIPHER_MODE_OFB */
1344:Source\mbedtls_open\library/aes.c **** 
1345:Source\mbedtls_open\library/aes.c **** #if defined(MBEDTLS_CIPHER_MODE_CTR)
1346:Source\mbedtls_open\library/aes.c **** /*
1347:Source\mbedtls_open\library/aes.c ****  * AES-CTR buffer encryption/decryption
1348:Source\mbedtls_open\library/aes.c ****  */
1349:Source\mbedtls_open\library/aes.c **** int mbedtls_aes_crypt_ctr( mbedtls_aes_context *ctx,
1350:Source\mbedtls_open\library/aes.c ****                        size_t length,
1351:Source\mbedtls_open\library/aes.c ****                        size_t *nc_off,
1352:Source\mbedtls_open\library/aes.c ****                        unsigned char nonce_counter[16],
1353:Source\mbedtls_open\library/aes.c ****                        unsigned char stream_block[16],
1354:Source\mbedtls_open\library/aes.c ****                        const unsigned char *input,
1355:Source\mbedtls_open\library/aes.c ****                        unsigned char *output )
1356:Source\mbedtls_open\library/aes.c **** {
 3202              		.loc 1 1356 0
 3203              		.cfi_startproc
 3204              		@ args = 12, pretend = 0, frame = 8
 3205              		@ frame_needed = 0, uses_anonymous_args = 0
 3206              	.LVL331:
 3207 0000 F0B5     		push	{r4, r5, r6, r7, lr}
 3208              		.cfi_def_cfa_offset 20
 3209              		.cfi_offset 4, -20
 3210              		.cfi_offset 5, -16
 3211              		.cfi_offset 6, -12
 3212              		.cfi_offset 7, -8
 3213              		.cfi_offset 14, -4
 3214 0002 5746     		mov	r7, r10
 3215 0004 4E46     		mov	r6, r9
 3216 0006 4546     		mov	r5, r8
 3217 0008 E0B4     		push	{r5, r6, r7}
 3218              		.cfi_def_cfa_offset 32
 3219              		.cfi_offset 8, -32
 3220              		.cfi_offset 9, -28
 3221              		.cfi_offset 10, -24
 3222 000a 82B0     		sub	sp, sp, #8
 3223              		.cfi_def_cfa_offset 40
 3224 000c 0190     		str	r0, [sp, #4]
 3225 000e 9046     		mov	r8, r2
 3226 0010 1F00     		movs	r7, r3
 3227 0012 0A9B     		ldr	r3, [sp, #40]
 3228              	.LVL332:
 3229 0014 9A46     		mov	r10, r3
 3230 0016 0B9E     		ldr	r6, [sp, #44]
 3231 0018 0C9D     		ldr	r5, [sp, #48]
ARM GAS  C:\Users\Phuong\AppData\Local\Temp\ccyLHZOj.s 			page 84


1357:Source\mbedtls_open\library/aes.c ****     int c, i;
1358:Source\mbedtls_open\library/aes.c ****     size_t n = *nc_off;
 3232              		.loc 1 1358 0
 3233 001a 1468     		ldr	r4, [r2]
 3234              	.LVL333:
1359:Source\mbedtls_open\library/aes.c **** 
1360:Source\mbedtls_open\library/aes.c ****     if ( n > 0x0F )
 3235              		.loc 1 1360 0
 3236 001c 0F2C     		cmp	r4, #15
 3237 001e 20D9     		bls	.L106
 3238 0020 27E0     		b	.L111
 3239              	.LVL334:
 3240              	.L110:
1361:Source\mbedtls_open\library/aes.c ****         return( MBEDTLS_ERR_AES_BAD_INPUT_DATA );
1362:Source\mbedtls_open\library/aes.c **** 
1363:Source\mbedtls_open\library/aes.c ****     while( length-- )
1364:Source\mbedtls_open\library/aes.c ****     {
1365:Source\mbedtls_open\library/aes.c ****         if( n == 0 ) {
 3241              		.loc 1 1365 0
 3242 0022 002C     		cmp	r4, #0
 3243 0024 12D1     		bne	.L107
1366:Source\mbedtls_open\library/aes.c ****             mbedtls_aes_crypt_ecb( ctx, MBEDTLS_AES_ENCRYPT, nonce_counter, stream_block );
 3244              		.loc 1 1366 0
 3245 0026 5346     		mov	r3, r10
 3246              	.LVL335:
 3247 0028 3A00     		movs	r2, r7
 3248 002a 0121     		movs	r1, #1
 3249 002c 0198     		ldr	r0, [sp, #4]
 3250 002e FFF7FEFF 		bl	mbedtls_aes_crypt_ecb
 3251              	.LVL336:
1367:Source\mbedtls_open\library/aes.c **** 
1368:Source\mbedtls_open\library/aes.c ****             for( i = 16; i > 0; i-- )
 3252              		.loc 1 1368 0
 3253 0032 1021     		movs	r1, #16
 3254 0034 08E0     		b	.L108
 3255              	.LVL337:
 3256              	.L109:
1369:Source\mbedtls_open\library/aes.c ****                 if( ++nonce_counter[i - 1] != 0 )
 3257              		.loc 1 1369 0
 3258 0036 4A1E     		subs	r2, r1, #1
 3259 0038 BA18     		adds	r2, r7, r2
 3260 003a 1378     		ldrb	r3, [r2]
 3261 003c 0133     		adds	r3, r3, #1
 3262 003e DBB2     		uxtb	r3, r3
 3263 0040 1370     		strb	r3, [r2]
 3264 0042 002B     		cmp	r3, #0
 3265 0044 02D1     		bne	.L107
1368:Source\mbedtls_open\library/aes.c ****                 if( ++nonce_counter[i - 1] != 0 )
 3266              		.loc 1 1368 0 discriminator 2
 3267 0046 0139     		subs	r1, r1, #1
 3268              	.LVL338:
 3269              	.L108:
1368:Source\mbedtls_open\library/aes.c ****                 if( ++nonce_counter[i - 1] != 0 )
 3270              		.loc 1 1368 0 is_stmt 0 discriminator 1
 3271 0048 0029     		cmp	r1, #0
 3272 004a F4DC     		bgt	.L109
 3273              	.LVL339:
ARM GAS  C:\Users\Phuong\AppData\Local\Temp\ccyLHZOj.s 			page 85


 3274              	.L107:
1370:Source\mbedtls_open\library/aes.c ****                     break;
1371:Source\mbedtls_open\library/aes.c ****         }
1372:Source\mbedtls_open\library/aes.c ****         c = *input++;
 3275              		.loc 1 1372 0 is_stmt 1
 3276 004c 3278     		ldrb	r2, [r6]
 3277              	.LVL340:
1373:Source\mbedtls_open\library/aes.c ****         *output++ = (unsigned char)( c ^ stream_block[n] );
 3278              		.loc 1 1373 0
 3279 004e 5346     		mov	r3, r10
 3280 0050 1B5D     		ldrb	r3, [r3, r4]
 3281 0052 5340     		eors	r3, r2
 3282 0054 2B70     		strb	r3, [r5]
1374:Source\mbedtls_open\library/aes.c **** 
1375:Source\mbedtls_open\library/aes.c ****         n = ( n + 1 ) & 0x0F;
 3283              		.loc 1 1375 0
 3284 0056 0134     		adds	r4, r4, #1
 3285              	.LVL341:
