ARM GAS  C:\Users\Phuong\AppData\Local\Temp\ccoG7q3S.s 			page 1


   1              		.syntax unified
   2              		.cpu cortex-m0plus
   3              		.fpu softvfp
   4              		.eabi_attribute 20, 1
   5              		.eabi_attribute 21, 1
   6              		.eabi_attribute 23, 3
   7              		.eabi_attribute 24, 1
   8              		.eabi_attribute 25, 1
   9              		.eabi_attribute 26, 1
  10              		.eabi_attribute 30, 1
  11              		.eabi_attribute 34, 0
  12              		.eabi_attribute 18, 4
  13              		.thumb
  14              		.syntax unified
  15              		.file	"agenttime.c"
  16              		.text
  17              	.Ltext0:
  18              		.cfi_sections	.debug_frame
  19              		.section	.text.get_time,"ax",%progbits
  20              		.align	2
  21              		.global	get_time
  22              		.code	16
  23              		.thumb_func
  24              		.type	get_time, %function
  25              	get_time:
  26              	.LFB0:
  27              		.file 1 "Source\\azure_iot_sdk\\c-utility\\adapters\\agenttime.c"
   1:Source\azure_iot_sdk\c-utility\adapters/agenttime.c **** // Copyright (c) Microsoft. All rights reserved.
   2:Source\azure_iot_sdk\c-utility\adapters/agenttime.c **** // Licensed under the MIT license. See LICENSE file in the project root for full license informatio
   3:Source\azure_iot_sdk\c-utility\adapters/agenttime.c **** 
   4:Source\azure_iot_sdk\c-utility\adapters/agenttime.c **** #include "azure_c_shared_utility/gballoc.h"
   5:Source\azure_iot_sdk\c-utility\adapters/agenttime.c **** 
   6:Source\azure_iot_sdk\c-utility\adapters/agenttime.c **** #include <time.h>
   7:Source\azure_iot_sdk\c-utility\adapters/agenttime.c **** #include "azure_c_shared_utility/agenttime.h"
   8:Source\azure_iot_sdk\c-utility\adapters/agenttime.c **** 
   9:Source\azure_iot_sdk\c-utility\adapters/agenttime.c **** time_t get_time(time_t* p)
  10:Source\azure_iot_sdk\c-utility\adapters/agenttime.c **** {
  28              		.loc 1 10 0
  29              		.cfi_startproc
  30              		@ args = 0, pretend = 0, frame = 0
  31              		@ frame_needed = 0, uses_anonymous_args = 0
  32              	.LVL0:
  33 0000 10B5     		push	{r4, lr}
  34              		.cfi_def_cfa_offset 8
  35              		.cfi_offset 4, -8
  36              		.cfi_offset 14, -4
  11:Source\azure_iot_sdk\c-utility\adapters/agenttime.c ****     return time(p);
  37              		.loc 1 11 0
  38 0002 FFF7FEFF 		bl	time
  39              	.LVL1:
  12:Source\azure_iot_sdk\c-utility\adapters/agenttime.c **** }
  40              		.loc 1 12 0
  41              		@ sp needed
  42 0006 10BD     		pop	{r4, pc}
  43              		.cfi_endproc
  44              	.LFE0:
  45              		.size	get_time, .-get_time
ARM GAS  C:\Users\Phuong\AppData\Local\Temp\ccoG7q3S.s 			page 2


  46              		.section	.text.get_gmtime,"ax",%progbits
  47              		.align	2
  48              		.global	get_gmtime
  49              		.code	16
  50              		.thumb_func
  51              		.type	get_gmtime, %function
  52              	get_gmtime:
  53              	.LFB1:
  13:Source\azure_iot_sdk\c-utility\adapters/agenttime.c **** 
  14:Source\azure_iot_sdk\c-utility\adapters/agenttime.c **** struct tm* get_gmtime(time_t* currentTime)
  15:Source\azure_iot_sdk\c-utility\adapters/agenttime.c **** {
  54              		.loc 1 15 0
  55              		.cfi_startproc
  56              		@ args = 0, pretend = 0, frame = 0
  57              		@ frame_needed = 0, uses_anonymous_args = 0
  58              	.LVL2:
  59 0000 10B5     		push	{r4, lr}
  60              		.cfi_def_cfa_offset 8
  61              		.cfi_offset 4, -8
  62              		.cfi_offset 14, -4
  16:Source\azure_iot_sdk\c-utility\adapters/agenttime.c ****     return gmtime(currentTime);
  63              		.loc 1 16 0
  64 0002 FFF7FEFF 		bl	gmtime
  65              	.LVL3:
  17:Source\azure_iot_sdk\c-utility\adapters/agenttime.c **** }
  66              		.loc 1 17 0
  67              		@ sp needed
  68 0006 10BD     		pop	{r4, pc}
  69              		.cfi_endproc
  70              	.LFE1:
  71              		.size	get_gmtime, .-get_gmtime
  72              		.section	.text.get_mktime,"ax",%progbits
  73              		.align	2
  74              		.global	get_mktime
  75              		.code	16
  76              		.thumb_func
  77              		.type	get_mktime, %function
  78              	get_mktime:
  79              	.LFB2:
  18:Source\azure_iot_sdk\c-utility\adapters/agenttime.c **** 
  19:Source\azure_iot_sdk\c-utility\adapters/agenttime.c **** time_t get_mktime(struct tm* cal_time)
  20:Source\azure_iot_sdk\c-utility\adapters/agenttime.c **** {
  80              		.loc 1 20 0
  81              		.cfi_startproc
  82              		@ args = 0, pretend = 0, frame = 0
  83              		@ frame_needed = 0, uses_anonymous_args = 0
  84              	.LVL4:
  85 0000 10B5     		push	{r4, lr}
  86              		.cfi_def_cfa_offset 8
  87              		.cfi_offset 4, -8
  88              		.cfi_offset 14, -4
  21:Source\azure_iot_sdk\c-utility\adapters/agenttime.c ****     return mktime(cal_time);
  89              		.loc 1 21 0
  90 0002 FFF7FEFF 		bl	mktime
  91              	.LVL5:
  22:Source\azure_iot_sdk\c-utility\adapters/agenttime.c **** }
  92              		.loc 1 22 0
ARM GAS  C:\Users\Phuong\AppData\Local\Temp\ccoG7q3S.s 			page 3


  93              		@ sp needed
  94 0006 10BD     		pop	{r4, pc}
  95              		.cfi_endproc
  96              	.LFE2:
  97              		.size	get_mktime, .-get_mktime
  98              		.section	.text.get_ctime,"ax",%progbits
  99              		.align	2
 100              		.global	get_ctime
 101              		.code	16
 102              		.thumb_func
 103              		.type	get_ctime, %function
 104              	get_ctime:
 105              	.LFB3:
  23:Source\azure_iot_sdk\c-utility\adapters/agenttime.c **** 
  24:Source\azure_iot_sdk\c-utility\adapters/agenttime.c **** char* get_ctime(time_t* timeToGet)
  25:Source\azure_iot_sdk\c-utility\adapters/agenttime.c **** {
 106              		.loc 1 25 0
 107              		.cfi_startproc
 108              		@ args = 0, pretend = 0, frame = 0
 109              		@ frame_needed = 0, uses_anonymous_args = 0
 110              	.LVL6:
 111 0000 10B5     		push	{r4, lr}
 112              		.cfi_def_cfa_offset 8
 113              		.cfi_offset 4, -8
 114              		.cfi_offset 14, -4
  26:Source\azure_iot_sdk\c-utility\adapters/agenttime.c ****     return ctime(timeToGet);
 115              		.loc 1 26 0
 116 0002 FFF7FEFF 		bl	ctime
 117              	.LVL7:
  27:Source\azure_iot_sdk\c-utility\adapters/agenttime.c **** }
 118              		.loc 1 27 0
 119              		@ sp needed
 120 0006 10BD     		pop	{r4, pc}
 121              		.cfi_endproc
 122              	.LFE3:
 123              		.size	get_ctime, .-get_ctime
 124              		.section	.text.get_difftime,"ax",%progbits
 125              		.align	2
 126              		.global	get_difftime
 127              		.code	16
 128              		.thumb_func
 129              		.type	get_difftime, %function
 130              	get_difftime:
 131              	.LFB4:
  28:Source\azure_iot_sdk\c-utility\adapters/agenttime.c **** 
  29:Source\azure_iot_sdk\c-utility\adapters/agenttime.c **** double get_difftime(time_t stopTime, time_t startTime)
  30:Source\azure_iot_sdk\c-utility\adapters/agenttime.c **** {
 132              		.loc 1 30 0
 133              		.cfi_startproc
 134              		@ args = 0, pretend = 0, frame = 0
 135              		@ frame_needed = 0, uses_anonymous_args = 0
 136              	.LVL8:
 137 0000 10B5     		push	{r4, lr}
 138              		.cfi_def_cfa_offset 8
 139              		.cfi_offset 4, -8
 140              		.cfi_offset 14, -4
  31:Source\azure_iot_sdk\c-utility\adapters/agenttime.c ****     return difftime(stopTime, startTime);
ARM GAS  C:\Users\Phuong\AppData\Local\Temp\ccoG7q3S.s 			page 4


 141              		.loc 1 31 0
 142 0002 FFF7FEFF 		bl	difftime
 143              	.LVL9:
  32:Source\azure_iot_sdk\c-utility\adapters/agenttime.c **** }
 144              		.loc 1 32 0
 145              		@ sp needed
 146 0006 10BD     		pop	{r4, pc}
 147              		.cfi_endproc
 148              	.LFE4:
 149              		.size	get_difftime, .-get_difftime
 150              		.text
 151              	.Letext0:
 152              		.file 2 "c:\\program files (x86)\\cypress\\psoc creator\\4.2\\psoc creator\\import\\gnu\\arm\\5.4.
 153              		.file 3 "c:\\program files (x86)\\cypress\\psoc creator\\4.2\\psoc creator\\import\\gnu\\arm\\5.4.