ARM GAS  C:\Users\Phuong\AppData\Local\Temp\ccU7OqD6.s 			page 1


   1              		.syntax unified
   2              		.cpu cortex-m0plus
   3              		.fpu softvfp
   4              		.eabi_attribute 20, 1
   5              		.eabi_attribute 21, 1
   6              		.eabi_attribute 23, 3
   7              		.eabi_attribute 24, 1
   8              		.eabi_attribute 25, 1
   9              		.eabi_attribute 26, 1
  10              		.eabi_attribute 30, 1
  11              		.eabi_attribute 34, 0
  12              		.eabi_attribute 18, 4
  13              		.thumb
  14              		.syntax unified
  15              		.file	"amqpvalue_to_string.c"
  16              		.text
  17              	.Ltext0:
  18              		.cfi_sections	.debug_frame
  19              		.section	.text.string_concat,"ax",%progbits
  20              		.align	2
  21              		.code	16
  22              		.thumb_func
  23              		.type	string_concat, %function
  24              	string_concat:
  25              	.LFB1:
  26              		.file 1 "Source\\azure_iot_sdk\\uamqp\\src\\amqpvalue_to_string.c"
   1:Source\azure_iot_sdk\uamqp\src/amqpvalue_to_string.c **** // Copyright (c) Microsoft. All rights reserved.
   2:Source\azure_iot_sdk\uamqp\src/amqpvalue_to_string.c **** // Licensed under the MIT license. See LICENSE file in the project root for full license informatio
   3:Source\azure_iot_sdk\uamqp\src/amqpvalue_to_string.c **** 
   4:Source\azure_iot_sdk\uamqp\src/amqpvalue_to_string.c **** #include <stdlib.h>
   5:Source\azure_iot_sdk\uamqp\src/amqpvalue_to_string.c **** #include <stdint.h>
   6:Source\azure_iot_sdk\uamqp\src/amqpvalue_to_string.c **** #include <inttypes.h>
   7:Source\azure_iot_sdk\uamqp\src/amqpvalue_to_string.c **** #include <stddef.h>
   8:Source\azure_iot_sdk\uamqp\src/amqpvalue_to_string.c **** #include <string.h>
   9:Source\azure_iot_sdk\uamqp\src/amqpvalue_to_string.c **** #include <stdio.h>
  10:Source\azure_iot_sdk\uamqp\src/amqpvalue_to_string.c **** #include "azure_c_shared_utility/optimize_size.h"
  11:Source\azure_iot_sdk\uamqp\src/amqpvalue_to_string.c **** #include "azure_c_shared_utility/gballoc.h"
  12:Source\azure_iot_sdk\uamqp\src/amqpvalue_to_string.c **** #include "azure_c_shared_utility/xlogging.h"
  13:Source\azure_iot_sdk\uamqp\src/amqpvalue_to_string.c **** #include "azure_c_shared_utility/uuid.h"
  14:Source\azure_iot_sdk\uamqp\src/amqpvalue_to_string.c **** #include "azure_uamqp_c/amqpvalue_to_string.h"
  15:Source\azure_iot_sdk\uamqp\src/amqpvalue_to_string.c **** #include "azure_uamqp_c/amqpvalue.h"
  16:Source\azure_iot_sdk\uamqp\src/amqpvalue_to_string.c **** 
  17:Source\azure_iot_sdk\uamqp\src/amqpvalue_to_string.c **** #if _WIN32
  18:Source\azure_iot_sdk\uamqp\src/amqpvalue_to_string.c **** /* The MS runtime does not have snprintf */
  19:Source\azure_iot_sdk\uamqp\src/amqpvalue_to_string.c **** #define snprintf _snprintf
  20:Source\azure_iot_sdk\uamqp\src/amqpvalue_to_string.c **** #endif
  21:Source\azure_iot_sdk\uamqp\src/amqpvalue_to_string.c **** 
  22:Source\azure_iot_sdk\uamqp\src/amqpvalue_to_string.c **** static int string_concat(char** string, const char* to_concat)
  23:Source\azure_iot_sdk\uamqp\src/amqpvalue_to_string.c **** {
  27              		.loc 1 23 0
  28              		.cfi_startproc
  29              		@ args = 0, pretend = 0, frame = 8
  30              		@ frame_needed = 0, uses_anonymous_args = 0
  31              	.LVL0:
  32 0000 F0B5     		push	{r4, r5, r6, r7, lr}
  33              		.cfi_def_cfa_offset 20
  34              		.cfi_offset 4, -20
ARM GAS  C:\Users\Phuong\AppData\Local\Temp\ccU7OqD6.s 			page 2


  35              		.cfi_offset 5, -16
  36              		.cfi_offset 6, -12
  37              		.cfi_offset 7, -8
  38              		.cfi_offset 14, -4
  39 0002 85B0     		sub	sp, sp, #20
  40              		.cfi_def_cfa_offset 40
  41 0004 0500     		movs	r5, r0
  42 0006 0391     		str	r1, [sp, #12]
  24:Source\azure_iot_sdk\uamqp\src/amqpvalue_to_string.c ****     int result;
  25:Source\azure_iot_sdk\uamqp\src/amqpvalue_to_string.c ****     char* new_string;
  26:Source\azure_iot_sdk\uamqp\src/amqpvalue_to_string.c ****     size_t length = strlen(to_concat) + 1;
  43              		.loc 1 26 0
  44 0008 0800     		movs	r0, r1
  45              	.LVL1:
  46 000a FFF7FEFF 		bl	strlen
  47              	.LVL2:
  48 000e 461C     		adds	r6, r0, #1
  49              	.LVL3:
  27:Source\azure_iot_sdk\uamqp\src/amqpvalue_to_string.c ****     size_t src_length;
  28:Source\azure_iot_sdk\uamqp\src/amqpvalue_to_string.c **** 
  29:Source\azure_iot_sdk\uamqp\src/amqpvalue_to_string.c ****     if (*string != NULL)
  50              		.loc 1 29 0
  51 0010 2F68     		ldr	r7, [r5]
  52 0012 002F     		cmp	r7, #0
  53 0014 04D0     		beq	.L5
  30:Source\azure_iot_sdk\uamqp\src/amqpvalue_to_string.c ****     {
  31:Source\azure_iot_sdk\uamqp\src/amqpvalue_to_string.c ****         src_length = strlen(*string);
  54              		.loc 1 31 0
  55 0016 3800     		movs	r0, r7
  56 0018 FFF7FEFF 		bl	strlen
  57              	.LVL4:
  58 001c 0400     		movs	r4, r0
  59              	.LVL5:
  60 001e 00E0     		b	.L2
  61              	.LVL6:
  62              	.L5:
  32:Source\azure_iot_sdk\uamqp\src/amqpvalue_to_string.c ****     }
  33:Source\azure_iot_sdk\uamqp\src/amqpvalue_to_string.c ****     else
  34:Source\azure_iot_sdk\uamqp\src/amqpvalue_to_string.c ****     {
  35:Source\azure_iot_sdk\uamqp\src/amqpvalue_to_string.c ****         src_length = 0;
  63              		.loc 1 35 0
  64 0020 0024     		movs	r4, #0
  65              	.L2:
  66              	.LVL7:
  36:Source\azure_iot_sdk\uamqp\src/amqpvalue_to_string.c ****     }
  37:Source\azure_iot_sdk\uamqp\src/amqpvalue_to_string.c **** 
  38:Source\azure_iot_sdk\uamqp\src/amqpvalue_to_string.c ****     new_string = (char*)realloc(*string, src_length + length);
  67              		.loc 1 38 0
  68 0022 A119     		adds	r1, r4, r6
  69 0024 3800     		movs	r0, r7
  70 0026 FFF7FEFF 		bl	realloc
  71              	.LVL8:
  39:Source\azure_iot_sdk\uamqp\src/amqpvalue_to_string.c ****     if (new_string == NULL)
  72              		.loc 1 39 0
  73 002a 0028     		cmp	r0, #0
  74 002c 0ED1     		bne	.L3
  75              	.LBB2:
ARM GAS  C:\Users\Phuong\AppData\Local\Temp\ccU7OqD6.s 			page 3


  40:Source\azure_iot_sdk\uamqp\src/amqpvalue_to_string.c ****     {
  41:Source\azure_iot_sdk\uamqp\src/amqpvalue_to_string.c ****         LogError("Cannot allocate memory for the new string");
  76              		.loc 1 41 0 discriminator 3
  77 002e FFF7FEFF 		bl	xlogging_get_log_function
  78              	.LVL9:
  79 0032 041E     		subs	r4, r0, #0
  80              	.LVL10:
  81 0034 12D0     		beq	.L6
  82              		.loc 1 41 0 is_stmt 0 discriminator 4
  83 0036 0B4B     		ldr	r3, .L7
  84 0038 0193     		str	r3, [sp, #4]
  85 003a 0123     		movs	r3, #1
  86 003c 0093     		str	r3, [sp]
  87 003e 2833     		adds	r3, r3, #40
  88 0040 094A     		ldr	r2, .L7+4
  89 0042 0A49     		ldr	r1, .L7+8
  90 0044 0020     		movs	r0, #0
  91              	.LVL11:
  92 0046 A047     		blx	r4
  93              	.LVL12:
  94              	.LBE2:
  42:Source\azure_iot_sdk\uamqp\src/amqpvalue_to_string.c ****         result = __FAILURE__;
  95              		.loc 1 42 0 is_stmt 1 discriminator 4
  96 0048 2A20     		movs	r0, #42
  97 004a 08E0     		b	.L4
  98              	.LVL13:
  99              	.L3:
  43:Source\azure_iot_sdk\uamqp\src/amqpvalue_to_string.c ****     }
  44:Source\azure_iot_sdk\uamqp\src/amqpvalue_to_string.c ****     else
  45:Source\azure_iot_sdk\uamqp\src/amqpvalue_to_string.c ****     {
  46:Source\azure_iot_sdk\uamqp\src/amqpvalue_to_string.c ****         *string = new_string;
 100              		.loc 1 46 0
 101 004c 2860     		str	r0, [r5]
  47:Source\azure_iot_sdk\uamqp\src/amqpvalue_to_string.c ****         (void)memcpy(*string + src_length, to_concat, length);
 102              		.loc 1 47 0
 103 004e 0019     		adds	r0, r0, r4
 104              	.LVL14:
 105 0050 3200     		movs	r2, r6
 106 0052 0399     		ldr	r1, [sp, #12]
 107 0054 FFF7FEFF 		bl	memcpy
 108              	.LVL15:
  48:Source\azure_iot_sdk\uamqp\src/amqpvalue_to_string.c ****         result = 0;
 109              		.loc 1 48 0
 110 0058 0020     		movs	r0, #0
 111 005a 00E0     		b	.L4
 112              	.LVL16:
 113              	.L6:
  42:Source\azure_iot_sdk\uamqp\src/amqpvalue_to_string.c ****     }
 114              		.loc 1 42 0
 115 005c 2A20     		movs	r0, #42
 116              	.LVL17:
 117              	.L4:
  49:Source\azure_iot_sdk\uamqp\src/amqpvalue_to_string.c ****     }
  50:Source\azure_iot_sdk\uamqp\src/amqpvalue_to_string.c **** 
  51:Source\azure_iot_sdk\uamqp\src/amqpvalue_to_string.c ****     return result;
  52:Source\azure_iot_sdk\uamqp\src/amqpvalue_to_string.c **** }
 118              		.loc 1 52 0
ARM GAS  C:\Users\Phuong\AppData\Local\Temp\ccU7OqD6.s 			page 4


 119 005e 05B0     		add	sp, sp, #20
 120              		@ sp needed
 121              	.LVL18:
 122              	.LVL19:
 123 0060 F0BD     		pop	{r4, r5, r6, r7, pc}
 124              	.L8:
 125 0062 C046     		.align	2
 126              	.L7:
 127 0064 38000000 		.word	.LC3
 128 0068 5C000000 		.word	.LANCHOR0
 129 006c 00000000 		.word	.LC1
 130              		.cfi_endproc
 131              	.LFE1:
 132              		.size	string_concat, .-string_concat
 133              		.global	__aeabi_f2d
 134              		.section	.text.amqpvalue_to_string,"ax",%progbits
 135              		.align	2
 136              		.global	amqpvalue_to_string
 137              		.code	16
 138              		.thumb_func
 139              		.type	amqpvalue_to_string, %function
 140              	amqpvalue_to_string:
 141              	.LFB2:
  53:Source\azure_iot_sdk\uamqp\src/amqpvalue_to_string.c **** 
  54:Source\azure_iot_sdk\uamqp\src/amqpvalue_to_string.c **** char* amqpvalue_to_string(AMQP_VALUE amqp_value)
  55:Source\azure_iot_sdk\uamqp\src/amqpvalue_to_string.c **** {
 142              		.loc 1 55 0
 143              		.cfi_startproc
 144              		@ args = 0, pretend = 0, frame = 48
 145              		@ frame_needed = 0, uses_anonymous_args = 0
 146              	.LVL20:
 147 0000 F0B5     		push	{r4, r5, r6, r7, lr}
 148              		.cfi_def_cfa_offset 20
 149              		.cfi_offset 4, -20
 150              		.cfi_offset 5, -16
 151              		.cfi_offset 6, -12
 152              		.cfi_offset 7, -8
 153              		.cfi_offset 14, -4
 154 0002 91B0     		sub	sp, sp, #68
 155              		.cfi_def_cfa_offset 88
 156 0004 0400     		movs	r4, r0
  56:Source\azure_iot_sdk\uamqp\src/amqpvalue_to_string.c ****     char* result = NULL;
 157              		.loc 1 56 0
 158 0006 0023     		movs	r3, #0
 159 0008 0F93     		str	r3, [sp, #60]
  57:Source\azure_iot_sdk\uamqp\src/amqpvalue_to_string.c **** 
  58:Source\azure_iot_sdk\uamqp\src/amqpvalue_to_string.c ****     if (amqp_value != NULL)
 160              		.loc 1 58 0
 161 000a 0028     		cmp	r0, #0
 162 000c 01D1     		bne	.LCB143
 163 000e 01F03FF8 		bl	.L10	@far jump
 164              	.LCB143:
 165              	.LBB3:
  59:Source\azure_iot_sdk\uamqp\src/amqpvalue_to_string.c ****     {
  60:Source\azure_iot_sdk\uamqp\src/amqpvalue_to_string.c ****         AMQP_TYPE amqp_type = amqpvalue_get_type(amqp_value);
 166              		.loc 1 60 0
 167 0012 FFF7FEFF 		bl	amqpvalue_get_type
ARM GAS  C:\Users\Phuong\AppData\Local\Temp\ccU7OqD6.s 			page 5


 168              	.LVL21:
  61:Source\azure_iot_sdk\uamqp\src/amqpvalue_to_string.c ****         switch (amqp_type)
 169              		.loc 1 61 0
 170 0016 1628     		cmp	r0, #22
 171 0018 03D8     		bhi	.L11
 172 001a 8000     		lsls	r0, r0, #2
 173              	.LVL22:
 174 001c D74B     		ldr	r3, .L200
 175 001e 1B58     		ldr	r3, [r3, r0]
 176 0020 9F46     		mov	pc, r3
 177              		.section	.rodata
 178              		.align	2
 179              	.L13:
 180 0000 46000000 		.word	.L12
 181 0004 80000000 		.word	.L14
 182 0008 FC000000 		.word	.L15
 183 000c 7C010000 		.word	.L16
 184 0010 FC010000 		.word	.L17
 185 0014 7A020000 		.word	.L18
 186 0018 FA020000 		.word	.L19
 187 001c C8030000 		.word	.L20
 188 0020 4A040000 		.word	.L21
 189 0024 C8040000 		.word	.L22
 190 0028 48050000 		.word	.L23
 191 002c D2050000 		.word	.L24
 192 0030 5C060000 		.word	.L25
 193 0034 F8060000 		.word	.L26
 194 0038 BC070000 		.word	.L27
 195 003c 68080000 		.word	.L28
 196 0040 60090000 		.word	.L29
 197 0044 CE090000 		.word	.L30
 198 0048 3C0A0000 		.word	.L31
 199 004c F20B0000 		.word	.L32
 200 0050 F40D0000 		.word	.L33
 201 0054 BC0F0000 		.word	.L34
 202 0058 BC0F0000 		.word	.L34
 203              		.section	.text.amqpvalue_to_string
 204              	.LVL23:
 205              	.L11:
 206              	.LBB4:
  62:Source\azure_iot_sdk\uamqp\src/amqpvalue_to_string.c ****         {
  63:Source\azure_iot_sdk\uamqp\src/amqpvalue_to_string.c ****         default:
  64:Source\azure_iot_sdk\uamqp\src/amqpvalue_to_string.c ****             LogError("Unknown AMQP type");
 207              		.loc 1 64 0 discriminator 3
 208 0022 FFF7FEFF 		bl	xlogging_get_log_function
 209              	.LVL24:
 210 0026 041E     		subs	r4, r0, #0
 211              	.LVL25:
 212 0028 09D0     		beq	.L35
 213              		.loc 1 64 0 is_stmt 0 discriminator 4
 214 002a D54B     		ldr	r3, .L200+4
 215 002c 0193     		str	r3, [sp, #4]
 216 002e 0123     		movs	r3, #1
 217 0030 0093     		str	r3, [sp]
 218 0032 3F33     		adds	r3, r3, #63
 219 0034 D34A     		ldr	r2, .L200+8
 220 0036 1032     		adds	r2, r2, #16
ARM GAS  C:\Users\Phuong\AppData\Local\Temp\ccU7OqD6.s 			page 6


 221 0038 D349     		ldr	r1, .L200+12
 222 003a 0020     		movs	r0, #0
 223              	.LVL26:
 224 003c A047     		blx	r4
 225              	.LVL27:
 226              	.L35:
 227              	.LBE4:
  65:Source\azure_iot_sdk\uamqp\src/amqpvalue_to_string.c ****             result = NULL;
 228              		.loc 1 65 0 is_stmt 1
 229 003e 0023     		movs	r3, #0
 230 0040 0F93     		str	r3, [sp, #60]
  66:Source\azure_iot_sdk\uamqp\src/amqpvalue_to_string.c ****             break;
 231              		.loc 1 66 0
 232 0042 01F025F8 		bl	.L10	@ far jump
 233              	.LVL28:
 234              	.L12:
  67:Source\azure_iot_sdk\uamqp\src/amqpvalue_to_string.c **** 
  68:Source\azure_iot_sdk\uamqp\src/amqpvalue_to_string.c ****         case AMQP_TYPE_NULL:
  69:Source\azure_iot_sdk\uamqp\src/amqpvalue_to_string.c ****             if (string_concat(&result, "NULL") != 0)
 235              		.loc 1 69 0
 236 0046 D149     		ldr	r1, .L200+16
 237 0048 0FA8     		add	r0, sp, #60
 238 004a FFF7FEFF 		bl	string_concat
 239              	.LVL29:
 240 004e 0028     		cmp	r0, #0
 241 0050 01D1     		bne	.LCB202
 242 0052 01F01DF8 		bl	.L10	@far jump
 243              	.LCB202:
 244              	.LBB5:
  70:Source\azure_iot_sdk\uamqp\src/amqpvalue_to_string.c ****             {
  71:Source\azure_iot_sdk\uamqp\src/amqpvalue_to_string.c ****                 LogError("Failure building amqp value string");
 245              		.loc 1 71 0 discriminator 3
 246 0056 FFF7FEFF 		bl	xlogging_get_log_function
 247              	.LVL30:
 248 005a 041E     		subs	r4, r0, #0
 249              	.LVL31:
 250 005c 09D0     		beq	.L36
 251              		.loc 1 71 0 is_stmt 0 discriminator 4
 252 005e CC4B     		ldr	r3, .L200+20
 253 0060 0193     		str	r3, [sp, #4]
 254 0062 0123     		movs	r3, #1
 255 0064 0093     		str	r3, [sp]
 256 0066 4633     		adds	r3, r3, #70
 257 0068 C64A     		ldr	r2, .L200+8
 258 006a 1032     		adds	r2, r2, #16
 259 006c C649     		ldr	r1, .L200+12
 260 006e 0020     		movs	r0, #0
 261              	.LVL32:
 262 0070 A047     		blx	r4
 263              	.LVL33:
 264              	.L36:
 265              	.LBE5:
  72:Source\azure_iot_sdk\uamqp\src/amqpvalue_to_string.c ****                 free(result);
 266              		.loc 1 72 0 is_stmt 1
 267 0072 0F98     		ldr	r0, [sp, #60]
 268 0074 FFF7FEFF 		bl	free
 269              	.LVL34:
ARM GAS  C:\Users\Phuong\AppData\Local\Temp\ccU7OqD6.s 			page 7


  73:Source\azure_iot_sdk\uamqp\src/amqpvalue_to_string.c ****                 result = NULL;
 270              		.loc 1 73 0
 271 0078 0023     		movs	r3, #0
 272 007a 0F93     		str	r3, [sp, #60]
 273 007c 01F008F8 		bl	.L10	@ far jump
 274              	.LVL35:
 275              	.L14:
 276              	.LBB6:
  74:Source\azure_iot_sdk\uamqp\src/amqpvalue_to_string.c ****             }
  75:Source\azure_iot_sdk\uamqp\src/amqpvalue_to_string.c ****             break;
  76:Source\azure_iot_sdk\uamqp\src/amqpvalue_to_string.c ****         case AMQP_TYPE_BOOL:
  77:Source\azure_iot_sdk\uamqp\src/amqpvalue_to_string.c ****         {
  78:Source\azure_iot_sdk\uamqp\src/amqpvalue_to_string.c ****             bool value;
  79:Source\azure_iot_sdk\uamqp\src/amqpvalue_to_string.c ****             if (amqpvalue_get_boolean(amqp_value, &value) != 0)
 277              		.loc 1 79 0
 278 0080 08A9     		add	r1, sp, #32
 279 0082 2000     		movs	r0, r4
 280 0084 FFF7FEFF 		bl	amqpvalue_get_boolean
 281              	.LVL36:
 282 0088 0028     		cmp	r0, #0
 283 008a 14D0     		beq	.L37
 284              	.LBB7:
  80:Source\azure_iot_sdk\uamqp\src/amqpvalue_to_string.c ****             {
  81:Source\azure_iot_sdk\uamqp\src/amqpvalue_to_string.c ****                 LogError("Failure getting bool value");
 285              		.loc 1 81 0 discriminator 3
 286 008c FFF7FEFF 		bl	xlogging_get_log_function
 287              	.LVL37:
 288 0090 041E     		subs	r4, r0, #0
 289              	.LVL38:
 290 0092 09D0     		beq	.L38
 291              		.loc 1 81 0 is_stmt 0 discriminator 4
 292 0094 BF4B     		ldr	r3, .L200+24
 293 0096 0193     		str	r3, [sp, #4]
 294 0098 0123     		movs	r3, #1
 295 009a 0093     		str	r3, [sp]
 296 009c 5033     		adds	r3, r3, #80
 297 009e B94A     		ldr	r2, .L200+8
 298 00a0 1032     		adds	r2, r2, #16
 299 00a2 B949     		ldr	r1, .L200+12
 300 00a4 0020     		movs	r0, #0
 301              	.LVL39:
 302 00a6 A047     		blx	r4
 303              	.LVL40:
 304              	.L38:
 305              	.LBE7:
  82:Source\azure_iot_sdk\uamqp\src/amqpvalue_to_string.c ****                 free(result);
 306              		.loc 1 82 0 is_stmt 1
 307 00a8 0F98     		ldr	r0, [sp, #60]
 308 00aa FFF7FEFF 		bl	free
 309              	.LVL41:
  83:Source\azure_iot_sdk\uamqp\src/amqpvalue_to_string.c ****                 result = NULL;
 310              		.loc 1 83 0
 311 00ae 0023     		movs	r3, #0
 312 00b0 0F93     		str	r3, [sp, #60]
 313 00b2 00F0EDFF 		bl	.L10	@ far jump
 314              	.LVL42:
 315              	.L37:
ARM GAS  C:\Users\Phuong\AppData\Local\Temp\ccU7OqD6.s 			page 8


  84:Source\azure_iot_sdk\uamqp\src/amqpvalue_to_string.c ****             }
  85:Source\azure_iot_sdk\uamqp\src/amqpvalue_to_string.c ****             else if (string_concat(&result, (value == true) ? "true" : "false") != 0)
 316              		.loc 1 85 0
 317 00b6 08AB     		add	r3, sp, #32
 318 00b8 1B78     		ldrb	r3, [r3]
 319 00ba 002B     		cmp	r3, #0
 320 00bc 01D0     		beq	.L193
 321 00be B649     		ldr	r1, .L200+28
 322 00c0 00E0     		b	.L40
 323              	.L193:
 324 00c2 B649     		ldr	r1, .L200+32
 325              	.L40:
 326              		.loc 1 85 0 is_stmt 0 discriminator 4
 327 00c4 0FA8     		add	r0, sp, #60
 328 00c6 FFF7FEFF 		bl	string_concat
 329              	.LVL43:
 330 00ca 0028     		cmp	r0, #0
 331 00cc 01D1     		bne	.LCB294
 332 00ce 00F0DFFF 		bl	.L10	@far jump
 333              	.LCB294:
 334              	.LBB8:
  86:Source\azure_iot_sdk\uamqp\src/amqpvalue_to_string.c ****             {
  87:Source\azure_iot_sdk\uamqp\src/amqpvalue_to_string.c ****                 LogError("Failure building amqp value string");
 335              		.loc 1 87 0 is_stmt 1 discriminator 3
 336 00d2 FFF7FEFF 		bl	xlogging_get_log_function
 337              	.LVL44:
 338 00d6 041E     		subs	r4, r0, #0
 339              	.LVL45:
 340 00d8 09D0     		beq	.L41
 341              		.loc 1 87 0 is_stmt 0 discriminator 4
 342 00da AD4B     		ldr	r3, .L200+20
 343 00dc 0193     		str	r3, [sp, #4]
 344 00de 0123     		movs	r3, #1
 345 00e0 0093     		str	r3, [sp]
 346 00e2 5633     		adds	r3, r3, #86
 347 00e4 A74A     		ldr	r2, .L200+8
 348 00e6 1032     		adds	r2, r2, #16
 349 00e8 A749     		ldr	r1, .L200+12
 350 00ea 0020     		movs	r0, #0
 351              	.LVL46:
 352 00ec A047     		blx	r4
 353              	.LVL47:
 354              	.L41:
 355              	.LBE8:
  88:Source\azure_iot_sdk\uamqp\src/amqpvalue_to_string.c ****                 free(result);
 356              		.loc 1 88 0 is_stmt 1
 357 00ee 0F98     		ldr	r0, [sp, #60]
 358 00f0 FFF7FEFF 		bl	free
 359              	.LVL48:
  89:Source\azure_iot_sdk\uamqp\src/amqpvalue_to_string.c ****                 result = NULL;
 360              		.loc 1 89 0
 361 00f4 0023     		movs	r3, #0
 362 00f6 0F93     		str	r3, [sp, #60]
 363 00f8 00F0CAFF 		bl	.L10	@ far jump
 364              	.LVL49:
 365              	.L15:
 366              	.LBE6:
ARM GAS  C:\Users\Phuong\AppData\Local\Temp\ccU7OqD6.s 			page 9


 367              	.LBB9:
  90:Source\azure_iot_sdk\uamqp\src/amqpvalue_to_string.c ****             }
  91:Source\azure_iot_sdk\uamqp\src/amqpvalue_to_string.c ****             break;
  92:Source\azure_iot_sdk\uamqp\src/amqpvalue_to_string.c ****         }
  93:Source\azure_iot_sdk\uamqp\src/amqpvalue_to_string.c ****         case AMQP_TYPE_UBYTE:
  94:Source\azure_iot_sdk\uamqp\src/amqpvalue_to_string.c ****         {
  95:Source\azure_iot_sdk\uamqp\src/amqpvalue_to_string.c ****             char str_value[4];
  96:Source\azure_iot_sdk\uamqp\src/amqpvalue_to_string.c ****             uint8_t value;
  97:Source\azure_iot_sdk\uamqp\src/amqpvalue_to_string.c ****             if (amqpvalue_get_ubyte(amqp_value, &value) != 0)
 368              		.loc 1 97 0
 369 00fc 06A9     		add	r1, sp, #24
 370 00fe 2000     		movs	r0, r4
 371 0100 FFF7FEFF 		bl	amqpvalue_get_ubyte
 372              	.LVL50:
 373 0104 0028     		cmp	r0, #0
 374 0106 14D0     		beq	.L42
 375              	.LBB10:
  98:Source\azure_iot_sdk\uamqp\src/amqpvalue_to_string.c ****             {
  99:Source\azure_iot_sdk\uamqp\src/amqpvalue_to_string.c ****                 LogError("Failure getting ubyte value");
 376              		.loc 1 99 0 discriminator 3
 377 0108 FFF7FEFF 		bl	xlogging_get_log_function
 378              	.LVL51:
 379 010c 041E     		subs	r4, r0, #0
 380              	.LVL52:
 381 010e 09D0     		beq	.L43
 382              		.loc 1 99 0 is_stmt 0 discriminator 4
 383 0110 A34B     		ldr	r3, .L200+36
 384 0112 0193     		str	r3, [sp, #4]
 385 0114 0123     		movs	r3, #1
 386 0116 0093     		str	r3, [sp]
 387 0118 6233     		adds	r3, r3, #98
 388 011a 9A4A     		ldr	r2, .L200+8
 389 011c 1032     		adds	r2, r2, #16
 390 011e 9A49     		ldr	r1, .L200+12
 391 0120 0020     		movs	r0, #0
 392              	.LVL53:
 393 0122 A047     		blx	r4
 394              	.LVL54:
 395              	.L43:
 396              	.LBE10:
 100:Source\azure_iot_sdk\uamqp\src/amqpvalue_to_string.c ****                 free(result);
 397              		.loc 1 100 0 is_stmt 1
 398 0124 0F98     		ldr	r0, [sp, #60]
 399 0126 FFF7FEFF 		bl	free
 400              	.LVL55:
 101:Source\azure_iot_sdk\uamqp\src/amqpvalue_to_string.c ****                 result = NULL;
 401              		.loc 1 101 0
 402 012a 0023     		movs	r3, #0
 403 012c 0F93     		str	r3, [sp, #60]
 404 012e 00F0AFFF 		bl	.L10	@ far jump
 405              	.LVL56:
 406              	.L42:
 102:Source\azure_iot_sdk\uamqp\src/amqpvalue_to_string.c ****             }
 103:Source\azure_iot_sdk\uamqp\src/amqpvalue_to_string.c ****             else if ((sprintf(str_value, "%" PRIu8, value) < 0) ||
 407              		.loc 1 103 0
 408 0132 06AB     		add	r3, sp, #24
 409 0134 1A78     		ldrb	r2, [r3]
ARM GAS  C:\Users\Phuong\AppData\Local\Temp\ccU7OqD6.s 			page 10


 410 0136 9B49     		ldr	r1, .L200+40
 411 0138 08A8     		add	r0, sp, #32
 412 013a FFF7FEFF 		bl	sprintf
 413              	.LVL57:
 414 013e 0028     		cmp	r0, #0
 415 0140 07DB     		blt	.L45
 104:Source\azure_iot_sdk\uamqp\src/amqpvalue_to_string.c ****                      (string_concat(&result, str_value) != 0))
 416              		.loc 1 104 0 discriminator 1
 417 0142 08A9     		add	r1, sp, #32
 418 0144 0FA8     		add	r0, sp, #60
 419 0146 FFF7FEFF 		bl	string_concat
 420              	.LVL58:
 103:Source\azure_iot_sdk\uamqp\src/amqpvalue_to_string.c ****                      (string_concat(&result, str_value) != 0))
 421              		.loc 1 103 0 discriminator 1
 422 014a 0028     		cmp	r0, #0
 423 014c 01D1     		bne	.LCB384
 424 014e 00F09FFF 		bl	.L10	@far jump
 425              	.LCB384:
 426              	.L45:
 427              	.LBB11:
 105:Source\azure_iot_sdk\uamqp\src/amqpvalue_to_string.c ****             {
 106:Source\azure_iot_sdk\uamqp\src/amqpvalue_to_string.c ****                 LogError("Failure building amqp value string");
 428              		.loc 1 106 0 discriminator 3
 429 0152 FFF7FEFF 		bl	xlogging_get_log_function
 430              	.LVL59:
 431 0156 041E     		subs	r4, r0, #0
 432              	.LVL60:
 433 0158 09D0     		beq	.L46
 434              		.loc 1 106 0 is_stmt 0 discriminator 4
 435 015a 8D4B     		ldr	r3, .L200+20
 436 015c 0193     		str	r3, [sp, #4]
 437 015e 0123     		movs	r3, #1
 438 0160 0093     		str	r3, [sp]
 439 0162 6933     		adds	r3, r3, #105
 440 0164 874A     		ldr	r2, .L200+8
 441 0166 1032     		adds	r2, r2, #16
 442 0168 8749     		ldr	r1, .L200+12
 443 016a 0020     		movs	r0, #0
 444              	.LVL61:
 445 016c A047     		blx	r4
 446              	.LVL62:
 447              	.L46:
 448              	.LBE11:
 107:Source\azure_iot_sdk\uamqp\src/amqpvalue_to_string.c ****                 free(result);
 449              		.loc 1 107 0 is_stmt 1
 450 016e 0F98     		ldr	r0, [sp, #60]
 451 0170 FFF7FEFF 		bl	free
 452              	.LVL63:
 108:Source\azure_iot_sdk\uamqp\src/amqpvalue_to_string.c ****                 result = NULL;
 453              		.loc 1 108 0
 454 0174 0023     		movs	r3, #0
 455 0176 0F93     		str	r3, [sp, #60]
 456 0178 00F08AFF 		bl	.L10	@ far jump
 457              	.LVL64:
 458              	.L16:
 459              	.LBE9:
 460              	.LBB12:
ARM GAS  C:\Users\Phuong\AppData\Local\Temp\ccU7OqD6.s 			page 11


 109:Source\azure_iot_sdk\uamqp\src/amqpvalue_to_string.c ****             }
 110:Source\azure_iot_sdk\uamqp\src/amqpvalue_to_string.c ****             break;
 111:Source\azure_iot_sdk\uamqp\src/amqpvalue_to_string.c ****         }
 112:Source\azure_iot_sdk\uamqp\src/amqpvalue_to_string.c ****         case AMQP_TYPE_USHORT:
 113:Source\azure_iot_sdk\uamqp\src/amqpvalue_to_string.c ****         {
 114:Source\azure_iot_sdk\uamqp\src/amqpvalue_to_string.c ****             char str_value[6];
 115:Source\azure_iot_sdk\uamqp\src/amqpvalue_to_string.c ****             uint16_t value;
 116:Source\azure_iot_sdk\uamqp\src/amqpvalue_to_string.c ****             if (amqpvalue_get_ushort(amqp_value, &value) != 0)
 461              		.loc 1 116 0
 462 017c 06A9     		add	r1, sp, #24
 463 017e 2000     		movs	r0, r4
 464 0180 FFF7FEFF 		bl	amqpvalue_get_ushort
 465              	.LVL65:
 466 0184 0028     		cmp	r0, #0
 467 0186 14D0     		beq	.L47
 468              	.LBB13:
 117:Source\azure_iot_sdk\uamqp\src/amqpvalue_to_string.c ****             {
 118:Source\azure_iot_sdk\uamqp\src/amqpvalue_to_string.c ****                 LogError("Failure getting ushort value");
 469              		.loc 1 118 0 discriminator 3
 470 0188 FFF7FEFF 		bl	xlogging_get_log_function
 471              	.LVL66:
 472 018c 041E     		subs	r4, r0, #0
 473              	.LVL67:
 474 018e 09D0     		beq	.L48
 475              		.loc 1 118 0 is_stmt 0 discriminator 4
 476 0190 854B     		ldr	r3, .L200+44
 477 0192 0193     		str	r3, [sp, #4]
 478 0194 0123     		movs	r3, #1
 479 0196 0093     		str	r3, [sp]
 480 0198 7533     		adds	r3, r3, #117
 481 019a 7A4A     		ldr	r2, .L200+8
 482 019c 1032     		adds	r2, r2, #16
 483 019e 7A49     		ldr	r1, .L200+12
 484 01a0 0020     		movs	r0, #0
 485              	.LVL68:
 486 01a2 A047     		blx	r4
 487              	.LVL69:
 488              	.L48:
 489              	.LBE13:
 119:Source\azure_iot_sdk\uamqp\src/amqpvalue_to_string.c ****                 free(result);
 490              		.loc 1 119 0 is_stmt 1
 491 01a4 0F98     		ldr	r0, [sp, #60]
 492 01a6 FFF7FEFF 		bl	free
 493              	.LVL70:
 120:Source\azure_iot_sdk\uamqp\src/amqpvalue_to_string.c ****                 result = NULL;
 494              		.loc 1 120 0
 495 01aa 0023     		movs	r3, #0
 496 01ac 0F93     		str	r3, [sp, #60]
 497 01ae 00F06FFF 		bl	.L10	@ far jump
 498              	.LVL71:
 499              	.L47:
 121:Source\azure_iot_sdk\uamqp\src/amqpvalue_to_string.c ****             }
 122:Source\azure_iot_sdk\uamqp\src/amqpvalue_to_string.c ****             else if ((sprintf(str_value, "%" PRIu16, value) < 0) ||
 500              		.loc 1 122 0
 501 01b2 06AB     		add	r3, sp, #24
 502 01b4 1A88     		ldrh	r2, [r3]
 503 01b6 7D49     		ldr	r1, .L200+48
ARM GAS  C:\Users\Phuong\AppData\Local\Temp\ccU7OqD6.s 			page 12


 504 01b8 08A8     		add	r0, sp, #32
 505 01ba FFF7FEFF 		bl	sprintf
 506              	.LVL72:
 507 01be 0028     		cmp	r0, #0
 508 01c0 07DB     		blt	.L50
 123:Source\azure_iot_sdk\uamqp\src/amqpvalue_to_string.c ****                      (string_concat(&result, str_value) != 0))
 509              		.loc 1 123 0 discriminator 1
 510 01c2 08A9     		add	r1, sp, #32
 511 01c4 0FA8     		add	r0, sp, #60
 512 01c6 FFF7FEFF 		bl	string_concat
 513              	.LVL73:
 122:Source\azure_iot_sdk\uamqp\src/amqpvalue_to_string.c ****                      (string_concat(&result, str_value) != 0))
 514              		.loc 1 122 0 discriminator 1
 515 01ca 0028     		cmp	r0, #0
 516 01cc 01D1     		bne	.LCB475
 517 01ce 00F05FFF 		bl	.L10	@far jump
 518              	.LCB475:
 519              	.L50:
 520              	.LBB14:
 124:Source\azure_iot_sdk\uamqp\src/amqpvalue_to_string.c ****             {
 125:Source\azure_iot_sdk\uamqp\src/amqpvalue_to_string.c ****                 LogError("Failure building amqp value string");
 521              		.loc 1 125 0 discriminator 3
 522 01d2 FFF7FEFF 		bl	xlogging_get_log_function
 523              	.LVL74:
 524 01d6 041E     		subs	r4, r0, #0
 525              	.LVL75:
 526 01d8 09D0     		beq	.L51
 527              		.loc 1 125 0 is_stmt 0 discriminator 4
 528 01da 6D4B     		ldr	r3, .L200+20
 529 01dc 0193     		str	r3, [sp, #4]
 530 01de 0123     		movs	r3, #1
 531 01e0 0093     		str	r3, [sp]
 532 01e2 7C33     		adds	r3, r3, #124
 533 01e4 674A     		ldr	r2, .L200+8
 534 01e6 1032     		adds	r2, r2, #16
 535 01e8 6749     		ldr	r1, .L200+12
 536 01ea 0020     		movs	r0, #0
 537              	.LVL76:
 538 01ec A047     		blx	r4
 539              	.LVL77:
 540              	.L51:
 541              	.LBE14:
 126:Source\azure_iot_sdk\uamqp\src/amqpvalue_to_string.c ****                 free(result);
 542              		.loc 1 126 0 is_stmt 1
 543 01ee 0F98     		ldr	r0, [sp, #60]
 544 01f0 FFF7FEFF 		bl	free
 545              	.LVL78:
 127:Source\azure_iot_sdk\uamqp\src/amqpvalue_to_string.c ****                 result = NULL;
 546              		.loc 1 127 0
 547 01f4 0023     		movs	r3, #0
 548 01f6 0F93     		str	r3, [sp, #60]
 549 01f8 00F04AFF 		bl	.L10	@ far jump
 550              	.LVL79:
 551              	.L17:
 552              	.LBE12:
 553              	.LBB15:
 128:Source\azure_iot_sdk\uamqp\src/amqpvalue_to_string.c ****             }
ARM GAS  C:\Users\Phuong\AppData\Local\Temp\ccU7OqD6.s 			page 13


 129:Source\azure_iot_sdk\uamqp\src/amqpvalue_to_string.c ****             break;
 130:Source\azure_iot_sdk\uamqp\src/amqpvalue_to_string.c ****         }
 131:Source\azure_iot_sdk\uamqp\src/amqpvalue_to_string.c ****         case AMQP_TYPE_UINT:
 132:Source\azure_iot_sdk\uamqp\src/amqpvalue_to_string.c ****         {
 133:Source\azure_iot_sdk\uamqp\src/amqpvalue_to_string.c ****             char str_value[11];
 134:Source\azure_iot_sdk\uamqp\src/amqpvalue_to_string.c ****             uint32_t value;
 135:Source\azure_iot_sdk\uamqp\src/amqpvalue_to_string.c ****             if (amqpvalue_get_uint(amqp_value, &value) != 0)
 554              		.loc 1 135 0
 555 01fc 06A9     		add	r1, sp, #24
 556 01fe 2000     		movs	r0, r4
 557 0200 FFF7FEFF 		bl	amqpvalue_get_uint
 558              	.LVL80:
 559 0204 0028     		cmp	r0, #0
 560 0206 14D0     		beq	.L52
 561              	.LBB16:
 136:Source\azure_iot_sdk\uamqp\src/amqpvalue_to_string.c ****             {
 137:Source\azure_iot_sdk\uamqp\src/amqpvalue_to_string.c ****                 LogError("Failure getting uint value");
 562              		.loc 1 137 0 discriminator 3
 563 0208 FFF7FEFF 		bl	xlogging_get_log_function
 564              	.LVL81:
 565 020c 041E     		subs	r4, r0, #0
 566              	.LVL82:
 567 020e 09D0     		beq	.L53
 568              		.loc 1 137 0 is_stmt 0 discriminator 4
 569 0210 674B     		ldr	r3, .L200+52
 570 0212 0193     		str	r3, [sp, #4]
 571 0214 0123     		movs	r3, #1
 572 0216 0093     		str	r3, [sp]
 573 0218 8833     		adds	r3, r3, #136
 574 021a 5A4A     		ldr	r2, .L200+8
 575 021c 1032     		adds	r2, r2, #16
 576 021e 5A49     		ldr	r1, .L200+12
 577 0220 0020     		movs	r0, #0
 578              	.LVL83:
 579 0222 A047     		blx	r4
 580              	.LVL84:
 581              	.L53:
 582              	.LBE16:
 138:Source\azure_iot_sdk\uamqp\src/amqpvalue_to_string.c ****                 free(result);
 583              		.loc 1 138 0 is_stmt 1
 584 0224 0F98     		ldr	r0, [sp, #60]
 585 0226 FFF7FEFF 		bl	free
 586              	.LVL85:
 139:Source\azure_iot_sdk\uamqp\src/amqpvalue_to_string.c ****                 result = NULL;
 587              		.loc 1 139 0
 588 022a 0023     		movs	r3, #0
 589 022c 0F93     		str	r3, [sp, #60]
 590 022e 00F02FFF 		bl	.L10	@ far jump
 591              	.LVL86:
 592              	.L52:
 140:Source\azure_iot_sdk\uamqp\src/amqpvalue_to_string.c ****             }
 141:Source\azure_iot_sdk\uamqp\src/amqpvalue_to_string.c ****             else if ((sprintf(str_value, "%" PRIu32, value) < 0) ||
 593              		.loc 1 141 0
 594 0232 069A     		ldr	r2, [sp, #24]
 595 0234 5F49     		ldr	r1, .L200+56
 596 0236 08A8     		add	r0, sp, #32
 597 0238 FFF7FEFF 		bl	sprintf
ARM GAS  C:\Users\Phuong\AppData\Local\Temp\ccU7OqD6.s 			page 14


 598              	.LVL87:
 599 023c 0028     		cmp	r0, #0
 600 023e 07DB     		blt	.L55
 142:Source\azure_iot_sdk\uamqp\src/amqpvalue_to_string.c ****                      (string_concat(&result, str_value) != 0))
 601              		.loc 1 142 0 discriminator 1
 602 0240 08A9     		add	r1, sp, #32
 603 0242 0FA8     		add	r0, sp, #60
 604 0244 FFF7FEFF 		bl	string_concat
 605              	.LVL88:
 141:Source\azure_iot_sdk\uamqp\src/amqpvalue_to_string.c ****                      (string_concat(&result, str_value) != 0))
 606              		.loc 1 141 0 discriminator 1
 607 0248 0028     		cmp	r0, #0
 608 024a 01D1     		bne	.LCB565
 609 024c 00F020FF 		bl	.L10	@far jump
 610              	.LCB565:
 611              	.L55:
 612              	.LBB17:
 143:Source\azure_iot_sdk\uamqp\src/amqpvalue_to_string.c ****             {
 144:Source\azure_iot_sdk\uamqp\src/amqpvalue_to_string.c ****                 LogError("Failure building amqp value string");
 613              		.loc 1 144 0 discriminator 3
 614 0250 FFF7FEFF 		bl	xlogging_get_log_function
 615              	.LVL89:
 616 0254 041E     		subs	r4, r0, #0
 617              	.LVL90:
 618 0256 09D0     		beq	.L56
 619              		.loc 1 144 0 is_stmt 0 discriminator 4
 620 0258 4D4B     		ldr	r3, .L200+20
 621 025a 0193     		str	r3, [sp, #4]
 622 025c 0123     		movs	r3, #1
 623 025e 0093     		str	r3, [sp]
 624 0260 8F33     		adds	r3, r3, #143
 625 0262 484A     		ldr	r2, .L200+8
 626 0264 1032     		adds	r2, r2, #16
 627 0266 4849     		ldr	r1, .L200+12
 628 0268 0020     		movs	r0, #0
 629              	.LVL91:
 630 026a A047     		blx	r4
 631              	.LVL92:
 632              	.L56:
 633              	.LBE17:
 145:Source\azure_iot_sdk\uamqp\src/amqpvalue_to_string.c ****                 free(result);
 634              		.loc 1 145 0 is_stmt 1
 635 026c 0F98     		ldr	r0, [sp, #60]
 636 026e FFF7FEFF 		bl	free
 637              	.LVL93:
 146:Source\azure_iot_sdk\uamqp\src/amqpvalue_to_string.c ****                 result = NULL;
 638              		.loc 1 146 0
 639 0272 0023     		movs	r3, #0
 640 0274 0F93     		str	r3, [sp, #60]
 641 0276 00F00BFF 		bl	.L10	@ far jump
 642              	.LVL94:
 643              	.L18:
 644              	.LBE15:
 645              	.LBB18:
 147:Source\azure_iot_sdk\uamqp\src/amqpvalue_to_string.c ****             }
 148:Source\azure_iot_sdk\uamqp\src/amqpvalue_to_string.c ****             break;
 149:Source\azure_iot_sdk\uamqp\src/amqpvalue_to_string.c ****         }
ARM GAS  C:\Users\Phuong\AppData\Local\Temp\ccU7OqD6.s 			page 15


 150:Source\azure_iot_sdk\uamqp\src/amqpvalue_to_string.c ****         case AMQP_TYPE_ULONG:
 151:Source\azure_iot_sdk\uamqp\src/amqpvalue_to_string.c ****         {
 152:Source\azure_iot_sdk\uamqp\src/amqpvalue_to_string.c ****             char str_value[21];
 153:Source\azure_iot_sdk\uamqp\src/amqpvalue_to_string.c ****             uint64_t value;
 154:Source\azure_iot_sdk\uamqp\src/amqpvalue_to_string.c ****             if (amqpvalue_get_ulong(amqp_value, &value) != 0)
 646              		.loc 1 154 0
 647 027a 06A9     		add	r1, sp, #24
 648 027c 2000     		movs	r0, r4
 649 027e FFF7FEFF 		bl	amqpvalue_get_ulong
 650              	.LVL95:
 651 0282 0028     		cmp	r0, #0
 652 0284 14D0     		beq	.L57
 653              	.LBB19:
 155:Source\azure_iot_sdk\uamqp\src/amqpvalue_to_string.c ****             {
 156:Source\azure_iot_sdk\uamqp\src/amqpvalue_to_string.c ****                 LogError("Failure getting ulong value");
 654              		.loc 1 156 0 discriminator 3
 655 0286 FFF7FEFF 		bl	xlogging_get_log_function
 656              	.LVL96:
 657 028a 041E     		subs	r4, r0, #0
 658              	.LVL97:
 659 028c 09D0     		beq	.L58
 660              		.loc 1 156 0 is_stmt 0 discriminator 4
 661 028e 4A4B     		ldr	r3, .L200+60
 662 0290 0193     		str	r3, [sp, #4]
 663 0292 0123     		movs	r3, #1
 664 0294 0093     		str	r3, [sp]
 665 0296 9B33     		adds	r3, r3, #155
 666 0298 3A4A     		ldr	r2, .L200+8
 667 029a 1032     		adds	r2, r2, #16
 668 029c 3A49     		ldr	r1, .L200+12
 669 029e 0020     		movs	r0, #0
 670              	.LVL98:
 671 02a0 A047     		blx	r4
 672              	.LVL99:
 673              	.L58:
 674              	.LBE19:
 157:Source\azure_iot_sdk\uamqp\src/amqpvalue_to_string.c ****                 free(result);
 675              		.loc 1 157 0 is_stmt 1
 676 02a2 0F98     		ldr	r0, [sp, #60]
 677 02a4 FFF7FEFF 		bl	free
 678              	.LVL100:
 158:Source\azure_iot_sdk\uamqp\src/amqpvalue_to_string.c ****                 result = NULL;
 679              		.loc 1 158 0
 680 02a8 0023     		movs	r3, #0
 681 02aa 0F93     		str	r3, [sp, #60]
 682 02ac 00F0F0FE 		bl	.L10	@ far jump
 683              	.LVL101:
 684              	.L57:
 159:Source\azure_iot_sdk\uamqp\src/amqpvalue_to_string.c ****             }
 160:Source\azure_iot_sdk\uamqp\src/amqpvalue_to_string.c ****             else if ((sprintf(str_value, "%" PRIu64, value) < 0) ||
 685              		.loc 1 160 0
 686 02b0 069A     		ldr	r2, [sp, #24]
 687 02b2 079B     		ldr	r3, [sp, #28]
 688 02b4 4149     		ldr	r1, .L200+64
 689 02b6 08A8     		add	r0, sp, #32
 690 02b8 FFF7FEFF 		bl	sprintf
 691              	.LVL102:
ARM GAS  C:\Users\Phuong\AppData\Local\Temp\ccU7OqD6.s 			page 16


 692 02bc 0028     		cmp	r0, #0
 693 02be 07DB     		blt	.L60
 161:Source\azure_iot_sdk\uamqp\src/amqpvalue_to_string.c ****                      (string_concat(&result, str_value) != 0))
 694              		.loc 1 161 0 discriminator 1
 695 02c0 08A9     		add	r1, sp, #32
 696 02c2 0FA8     		add	r0, sp, #60
 697 02c4 FFF7FEFF 		bl	string_concat
 698              	.LVL103:
 160:Source\azure_iot_sdk\uamqp\src/amqpvalue_to_string.c ****                      (string_concat(&result, str_value) != 0))
 699              		.loc 1 160 0 discriminator 1
 700 02c8 0028     		cmp	r0, #0
 701 02ca 01D1     		bne	.LCB655
 702 02cc 00F0E0FE 		bl	.L10	@far jump
 703              	.LCB655:
 704              	.L60:
 705              	.LBB20:
 162:Source\azure_iot_sdk\uamqp\src/amqpvalue_to_string.c ****             {
 163:Source\azure_iot_sdk\uamqp\src/amqpvalue_to_string.c ****                 LogError("Failure building amqp value string");
 706              		.loc 1 163 0 discriminator 3
 707 02d0 FFF7FEFF 		bl	xlogging_get_log_function
 708              	.LVL104:
 709 02d4 041E     		subs	r4, r0, #0
 710              	.LVL105:
 711 02d6 09D0     		beq	.L61
 712              		.loc 1 163 0 is_stmt 0 discriminator 4
 713 02d8 2D4B     		ldr	r3, .L200+20
 714 02da 0193     		str	r3, [sp, #4]
 715 02dc 0123     		movs	r3, #1
 716 02de 0093     		str	r3, [sp]
 717 02e0 A233     		adds	r3, r3, #162
 718 02e2 284A     		ldr	r2, .L200+8
 719 02e4 1032     		adds	r2, r2, #16
 720 02e6 2849     		ldr	r1, .L200+12
 721 02e8 0020     		movs	r0, #0
 722              	.LVL106:
 723 02ea A047     		blx	r4
 724              	.LVL107:
 725              	.L61:
 726              	.LBE20:
 164:Source\azure_iot_sdk\uamqp\src/amqpvalue_to_string.c ****                 free(result);
 727              		.loc 1 164 0 is_stmt 1
 728 02ec 0F98     		ldr	r0, [sp, #60]
 729 02ee FFF7FEFF 		bl	free
 730              	.LVL108:
 165:Source\azure_iot_sdk\uamqp\src/amqpvalue_to_string.c ****                 result = NULL;
 731              		.loc 1 165 0
 732 02f2 0023     		movs	r3, #0
 733 02f4 0F93     		str	r3, [sp, #60]
 734 02f6 00F0CBFE 		bl	.L10	@ far jump
 735              	.LVL109:
 736              	.L19:
 737              	.LBE18:
 738              	.LBB21:
 166:Source\azure_iot_sdk\uamqp\src/amqpvalue_to_string.c ****             }
 167:Source\azure_iot_sdk\uamqp\src/amqpvalue_to_string.c ****             break;
 168:Source\azure_iot_sdk\uamqp\src/amqpvalue_to_string.c ****         }
 169:Source\azure_iot_sdk\uamqp\src/amqpvalue_to_string.c ****         case AMQP_TYPE_BYTE:
ARM GAS  C:\Users\Phuong\AppData\Local\Temp\ccU7OqD6.s 			page 17


 170:Source\azure_iot_sdk\uamqp\src/amqpvalue_to_string.c ****         {
 171:Source\azure_iot_sdk\uamqp\src/amqpvalue_to_string.c ****             char str_value[5];
 172:Source\azure_iot_sdk\uamqp\src/amqpvalue_to_string.c ****             char value;
 173:Source\azure_iot_sdk\uamqp\src/amqpvalue_to_string.c ****             if (amqpvalue_get_byte(amqp_value, &value) != 0)
 739              		.loc 1 173 0
 740 02fa 06A9     		add	r1, sp, #24
 741 02fc 2000     		movs	r0, r4
 742 02fe FFF7FEFF 		bl	amqpvalue_get_byte
 743              	.LVL110:
 744 0302 0028     		cmp	r0, #0
 745 0304 14D0     		beq	.L62
 746              	.LBB22:
 174:Source\azure_iot_sdk\uamqp\src/amqpvalue_to_string.c ****             {
 175:Source\azure_iot_sdk\uamqp\src/amqpvalue_to_string.c ****                 LogError("Failure getting byte value");
 747              		.loc 1 175 0 discriminator 3
 748 0306 FFF7FEFF 		bl	xlogging_get_log_function
 749              	.LVL111:
 750 030a 041E     		subs	r4, r0, #0
 751              	.LVL112:
 752 030c 09D0     		beq	.L63
 753              		.loc 1 175 0 is_stmt 0 discriminator 4
 754 030e 2C4B     		ldr	r3, .L200+68
 755 0310 0193     		str	r3, [sp, #4]
 756 0312 0123     		movs	r3, #1
 757 0314 0093     		str	r3, [sp]
 758 0316 AE33     		adds	r3, r3, #174
 759 0318 1A4A     		ldr	r2, .L200+8
 760 031a 1032     		adds	r2, r2, #16
 761 031c 1A49     		ldr	r1, .L200+12
 762 031e 0020     		movs	r0, #0
 763              	.LVL113:
 764 0320 A047     		blx	r4
 765              	.LVL114:
 766              	.L63:
 767              	.LBE22:
 176:Source\azure_iot_sdk\uamqp\src/amqpvalue_to_string.c ****                 free(result);
 768              		.loc 1 176 0 is_stmt 1
 769 0322 0F98     		ldr	r0, [sp, #60]
 770 0324 FFF7FEFF 		bl	free
 771              	.LVL115:
 177:Source\azure_iot_sdk\uamqp\src/amqpvalue_to_string.c ****                 result = NULL;
 772              		.loc 1 177 0
 773 0328 0023     		movs	r3, #0
 774 032a 0F93     		str	r3, [sp, #60]
 775 032c 00F0B0FE 		bl	.L10	@ far jump
 776              	.LVL116:
 777              	.L62:
 178:Source\azure_iot_sdk\uamqp\src/amqpvalue_to_string.c ****             }
 179:Source\azure_iot_sdk\uamqp\src/amqpvalue_to_string.c ****             else if ((sprintf(str_value, "%" PRId8, value) < 0) ||
 778              		.loc 1 179 0
 779 0330 06AB     		add	r3, sp, #24
 780 0332 1A78     		ldrb	r2, [r3]
 781 0334 2349     		ldr	r1, .L200+72
 782 0336 08A8     		add	r0, sp, #32
 783 0338 FFF7FEFF 		bl	sprintf
 784              	.LVL117:
 785 033c 0028     		cmp	r0, #0
ARM GAS  C:\Users\Phuong\AppData\Local\Temp\ccU7OqD6.s 			page 18


 786 033e 07DB     		blt	.L65
 180:Source\azure_iot_sdk\uamqp\src/amqpvalue_to_string.c ****                      (string_concat(&result, str_value) != 0))
 787              		.loc 1 180 0 discriminator 1
 788 0340 08A9     		add	r1, sp, #32
 789 0342 0FA8     		add	r0, sp, #60
 790 0344 FFF7FEFF 		bl	string_concat
 791              	.LVL118:
 179:Source\azure_iot_sdk\uamqp\src/amqpvalue_to_string.c ****                      (string_concat(&result, str_value) != 0))
 792              		.loc 1 179 0 discriminator 1
 793 0348 0028     		cmp	r0, #0
 794 034a 01D1     		bne	.LCB746
 795 034c 00F0A0FE 		bl	.L10	@far jump
 796              	.LCB746:
 797              	.L65:
 798              	.LBB23:
 181:Source\azure_iot_sdk\uamqp\src/amqpvalue_to_string.c ****             {
 182:Source\azure_iot_sdk\uamqp\src/amqpvalue_to_string.c ****                 LogError("Failure building amqp value string");
 799              		.loc 1 182 0 discriminator 3
 800 0350 FFF7FEFF 		bl	xlogging_get_log_function
 801              	.LVL119:
 802 0354 041E     		subs	r4, r0, #0
 803              	.LVL120:
 804 0356 09D0     		beq	.L66
 805              		.loc 1 182 0 is_stmt 0 discriminator 4
 806 0358 0D4B     		ldr	r3, .L200+20
 807 035a 0193     		str	r3, [sp, #4]
 808 035c 0123     		movs	r3, #1
 809 035e 0093     		str	r3, [sp]
 810 0360 B533     		adds	r3, r3, #181
 811 0362 084A     		ldr	r2, .L200+8
 812 0364 1032     		adds	r2, r2, #16
 813 0366 0849     		ldr	r1, .L200+12
 814 0368 0020     		movs	r0, #0
 815              	.LVL121:
 816 036a A047     		blx	r4
 817              	.LVL122:
 818              	.L66:
 819              	.LBE23:
 183:Source\azure_iot_sdk\uamqp\src/amqpvalue_to_string.c ****                 free(result);
 820              		.loc 1 183 0 is_stmt 1
 821 036c 0F98     		ldr	r0, [sp, #60]
 822 036e FFF7FEFF 		bl	free
 823              	.LVL123:
 184:Source\azure_iot_sdk\uamqp\src/amqpvalue_to_string.c ****                 result = NULL;
 824              		.loc 1 184 0
 825 0372 0023     		movs	r3, #0
 826 0374 0F93     		str	r3, [sp, #60]
 827 0376 00F08BFE 		bl	.L10	@ far jump
 828              	.L201:
 829 037a C046     		.align	2
 830              	.L200:
 831 037c 00000000 		.word	.L13
 832 0380 7C000000 		.word	.LC16
 833 0384 5C000000 		.word	.LANCHOR0
 834 0388 00000000 		.word	.LC1
 835 038c 90000000 		.word	.LC18
 836 0390 98000000 		.word	.LC20
ARM GAS  C:\Users\Phuong\AppData\Local\Temp\ccU7OqD6.s 			page 19


 837 0394 BC000000 		.word	.LC22
 838 0398 64000000 		.word	.LC5
 839 039c 6C000000 		.word	.LC7
 840 03a0 D8000000 		.word	.LC24
 841 03a4 F4000000 		.word	.LC26
 842 03a8 FC000000 		.word	.LC28
 843 03ac 1C010000 		.word	.LC30
 844 03b0 20010000 		.word	.LC32
 845 03b4 3C010000 		.word	.LC34
 846 03b8 40010000 		.word	.LC36
 847 03bc 5C010000 		.word	.LC38
 848 03c0 64010000 		.word	.LC40
 849 03c4 80010000 		.word	.LC42
 850              	.LVL124:
 851              	.L20:
 852              	.LBE21:
 853              	.LBB24:
 185:Source\azure_iot_sdk\uamqp\src/amqpvalue_to_string.c ****             }
 186:Source\azure_iot_sdk\uamqp\src/amqpvalue_to_string.c ****             break;
 187:Source\azure_iot_sdk\uamqp\src/amqpvalue_to_string.c ****         }
 188:Source\azure_iot_sdk\uamqp\src/amqpvalue_to_string.c ****         case AMQP_TYPE_SHORT:
 189:Source\azure_iot_sdk\uamqp\src/amqpvalue_to_string.c ****         {
 190:Source\azure_iot_sdk\uamqp\src/amqpvalue_to_string.c ****             char str_value[7];
 191:Source\azure_iot_sdk\uamqp\src/amqpvalue_to_string.c ****             int16_t value;
 192:Source\azure_iot_sdk\uamqp\src/amqpvalue_to_string.c ****             if (amqpvalue_get_short(amqp_value, &value) != 0)
 854              		.loc 1 192 0
 855 03c8 06A9     		add	r1, sp, #24
 856 03ca 2000     		movs	r0, r4
 857 03cc FFF7FEFF 		bl	amqpvalue_get_short
 858              	.LVL125:
 859 03d0 0028     		cmp	r0, #0
 860 03d2 14D0     		beq	.L67
 861              	.LBB25:
 193:Source\azure_iot_sdk\uamqp\src/amqpvalue_to_string.c ****             {
 194:Source\azure_iot_sdk\uamqp\src/amqpvalue_to_string.c ****                 LogError("Failure getting short value");
 862              		.loc 1 194 0 discriminator 3
 863 03d4 FFF7FEFF 		bl	xlogging_get_log_function
 864              	.LVL126:
 865 03d8 041E     		subs	r4, r0, #0
 866              	.LVL127:
 867 03da 09D0     		beq	.L68
 868              		.loc 1 194 0 is_stmt 0 discriminator 4
 869 03dc D44B     		ldr	r3, .L202
 870 03de 0193     		str	r3, [sp, #4]
 871 03e0 0123     		movs	r3, #1
 872 03e2 0093     		str	r3, [sp]
 873 03e4 C133     		adds	r3, r3, #193
 874 03e6 D34A     		ldr	r2, .L202+4
 875 03e8 1032     		adds	r2, r2, #16
 876 03ea D349     		ldr	r1, .L202+8
 877 03ec 0020     		movs	r0, #0
 878              	.LVL128:
 879 03ee A047     		blx	r4
 880              	.LVL129:
 881              	.L68:
 882              	.LBE25:
 195:Source\azure_iot_sdk\uamqp\src/amqpvalue_to_string.c ****                 free(result);
ARM GAS  C:\Users\Phuong\AppData\Local\Temp\ccU7OqD6.s 			page 20


 883              		.loc 1 195 0 is_stmt 1
 884 03f0 0F98     		ldr	r0, [sp, #60]
 885 03f2 FFF7FEFF 		bl	free
 886              	.LVL130:
 196:Source\azure_iot_sdk\uamqp\src/amqpvalue_to_string.c ****                 result = NULL;
 887              		.loc 1 196 0
 888 03f6 0023     		movs	r3, #0
 889 03f8 0F93     		str	r3, [sp, #60]
 890 03fa 00F049FE 		bl	.L10	@ far jump
 891              	.LVL131:
 892              	.L67:
 197:Source\azure_iot_sdk\uamqp\src/amqpvalue_to_string.c ****             }
 198:Source\azure_iot_sdk\uamqp\src/amqpvalue_to_string.c ****             else if ((sprintf(str_value, "%" PRId16, value) < 0) ||
 893              		.loc 1 198 0
 894 03fe 06AB     		add	r3, sp, #24
 895 0400 0022     		movs	r2, #0
 896 0402 9A5E     		ldrsh	r2, [r3, r2]
 897 0404 CD49     		ldr	r1, .L202+12
 898 0406 08A8     		add	r0, sp, #32
 899 0408 FFF7FEFF 		bl	sprintf
 900              	.LVL132:
 901 040c 0028     		cmp	r0, #0
 902 040e 07DB     		blt	.L70
 199:Source\azure_iot_sdk\uamqp\src/amqpvalue_to_string.c ****                      (string_concat(&result, str_value) != 0))
 903              		.loc 1 199 0 discriminator 1
 904 0410 08A9     		add	r1, sp, #32
 905 0412 0FA8     		add	r0, sp, #60
 906 0414 FFF7FEFF 		bl	string_concat
 907              	.LVL133:
 198:Source\azure_iot_sdk\uamqp\src/amqpvalue_to_string.c ****                      (string_concat(&result, str_value) != 0))
 908              		.loc 1 198 0 discriminator 1
 909 0418 0028     		cmp	r0, #0
 910 041a 01D1     		bne	.LCB861
 911 041c 00F038FE 		bl	.L10	@far jump
 912              	.LCB861:
 913              	.L70:
 914              	.LBB26:
 200:Source\azure_iot_sdk\uamqp\src/amqpvalue_to_string.c ****             {
 201:Source\azure_iot_sdk\uamqp\src/amqpvalue_to_string.c ****                 LogError("Failure building amqp value string");
 915              		.loc 1 201 0 discriminator 3
 916 0420 FFF7FEFF 		bl	xlogging_get_log_function
 917              	.LVL134:
 918 0424 041E     		subs	r4, r0, #0
 919              	.LVL135:
 920 0426 09D0     		beq	.L71
 921              		.loc 1 201 0 is_stmt 0 discriminator 4
 922 0428 C54B     		ldr	r3, .L202+16
 923 042a 0193     		str	r3, [sp, #4]
 924 042c 0123     		movs	r3, #1
 925 042e 0093     		str	r3, [sp]
 926 0430 C833     		adds	r3, r3, #200
 927 0432 C04A     		ldr	r2, .L202+4
 928 0434 1032     		adds	r2, r2, #16
 929 0436 C049     		ldr	r1, .L202+8
 930 0438 0020     		movs	r0, #0
 931              	.LVL136:
 932 043a A047     		blx	r4
ARM GAS  C:\Users\Phuong\AppData\Local\Temp\ccU7OqD6.s 			page 21


 933              	.LVL137:
 934              	.L71:
 935              	.LBE26:
 202:Source\azure_iot_sdk\uamqp\src/amqpvalue_to_string.c ****                 free(result);
 936              		.loc 1 202 0 is_stmt 1
 937 043c 0F98     		ldr	r0, [sp, #60]
 938 043e FFF7FEFF 		bl	free
 939              	.LVL138:
 203:Source\azure_iot_sdk\uamqp\src/amqpvalue_to_string.c ****                 result = NULL;
 940              		.loc 1 203 0
 941 0442 0023     		movs	r3, #0
 942 0444 0F93     		str	r3, [sp, #60]
 943 0446 00F023FE 		bl	.L10	@ far jump
 944              	.LVL139:
 945              	.L21:
 946              	.LBE24:
 947              	.LBB27:
 204:Source\azure_iot_sdk\uamqp\src/amqpvalue_to_string.c ****             }
 205:Source\azure_iot_sdk\uamqp\src/amqpvalue_to_string.c ****             break;
 206:Source\azure_iot_sdk\uamqp\src/amqpvalue_to_string.c ****         }
 207:Source\azure_iot_sdk\uamqp\src/amqpvalue_to_string.c ****         case AMQP_TYPE_INT:
 208:Source\azure_iot_sdk\uamqp\src/amqpvalue_to_string.c ****         {
 209:Source\azure_iot_sdk\uamqp\src/amqpvalue_to_string.c ****             char str_value[12];
 210:Source\azure_iot_sdk\uamqp\src/amqpvalue_to_string.c ****             int32_t value;
 211:Source\azure_iot_sdk\uamqp\src/amqpvalue_to_string.c ****             if (amqpvalue_get_int(amqp_value, &value) != 0)
 948              		.loc 1 211 0
 949 044a 06A9     		add	r1, sp, #24
 950 044c 2000     		movs	r0, r4
 951 044e FFF7FEFF 		bl	amqpvalue_get_int
 952              	.LVL140:
 953 0452 0028     		cmp	r0, #0
 954 0454 14D0     		beq	.L72
 955              	.LBB28:
 212:Source\azure_iot_sdk\uamqp\src/amqpvalue_to_string.c ****             {
 213:Source\azure_iot_sdk\uamqp\src/amqpvalue_to_string.c ****                 LogError("Failure getting int value");
 956              		.loc 1 213 0 discriminator 3
 957 0456 FFF7FEFF 		bl	xlogging_get_log_function
 958              	.LVL141:
 959 045a 041E     		subs	r4, r0, #0
 960              	.LVL142:
 961 045c 09D0     		beq	.L73
 962              		.loc 1 213 0 is_stmt 0 discriminator 4
 963 045e B94B     		ldr	r3, .L202+20
 964 0460 0193     		str	r3, [sp, #4]
 965 0462 0123     		movs	r3, #1
 966 0464 0093     		str	r3, [sp]
 967 0466 D433     		adds	r3, r3, #212
 968 0468 B24A     		ldr	r2, .L202+4
 969 046a 1032     		adds	r2, r2, #16
 970 046c B249     		ldr	r1, .L202+8
 971 046e 0020     		movs	r0, #0
 972              	.LVL143:
 973 0470 A047     		blx	r4
 974              	.LVL144:
 975              	.L73:
 976              	.LBE28:
 214:Source\azure_iot_sdk\uamqp\src/amqpvalue_to_string.c ****                 free(result);
ARM GAS  C:\Users\Phuong\AppData\Local\Temp\ccU7OqD6.s 			page 22


 977              		.loc 1 214 0 is_stmt 1
 978 0472 0F98     		ldr	r0, [sp, #60]
 979 0474 FFF7FEFF 		bl	free
 980              	.LVL145:
 215:Source\azure_iot_sdk\uamqp\src/amqpvalue_to_string.c ****                 result = NULL;
 981              		.loc 1 215 0
 982 0478 0023     		movs	r3, #0
 983 047a 0F93     		str	r3, [sp, #60]
 984 047c 00F008FE 		bl	.L10	@ far jump
 985              	.LVL146:
 986              	.L72:
 216:Source\azure_iot_sdk\uamqp\src/amqpvalue_to_string.c ****             }
 217:Source\azure_iot_sdk\uamqp\src/amqpvalue_to_string.c ****             else if ((sprintf(str_value, "%" PRId32, value) < 0) ||
 987              		.loc 1 217 0
 988 0480 069A     		ldr	r2, [sp, #24]
 989 0482 B149     		ldr	r1, .L202+24
 990 0484 08A8     		add	r0, sp, #32
 991 0486 FFF7FEFF 		bl	sprintf
 992              	.LVL147:
 993 048a 0028     		cmp	r0, #0
 994 048c 07DB     		blt	.L75
 218:Source\azure_iot_sdk\uamqp\src/amqpvalue_to_string.c ****                      (string_concat(&result, str_value) != 0))
 995              		.loc 1 218 0 discriminator 1
 996 048e 08A9     		add	r1, sp, #32
 997 0490 0FA8     		add	r0, sp, #60
 998 0492 FFF7FEFF 		bl	string_concat
 999              	.LVL148:
 217:Source\azure_iot_sdk\uamqp\src/amqpvalue_to_string.c ****                      (string_concat(&result, str_value) != 0))
 1000              		.loc 1 217 0 discriminator 1
 1001 0496 0028     		cmp	r0, #0
 1002 0498 01D1     		bne	.LCB951
 1003 049a 00F0F9FD 		bl	.L10	@far jump
 1004              	.LCB951:
 1005              	.L75:
 1006              	.LBB29:
 219:Source\azure_iot_sdk\uamqp\src/amqpvalue_to_string.c ****             {
 220:Source\azure_iot_sdk\uamqp\src/amqpvalue_to_string.c ****                 LogError("Failure building amqp value string");
 1007              		.loc 1 220 0 discriminator 3
 1008 049e FFF7FEFF 		bl	xlogging_get_log_function
 1009              	.LVL149:
 1010 04a2 041E     		subs	r4, r0, #0
 1011              	.LVL150:
 1012 04a4 09D0     		beq	.L76
 1013              		.loc 1 220 0 is_stmt 0 discriminator 4
 1014 04a6 A64B     		ldr	r3, .L202+16
 1015 04a8 0193     		str	r3, [sp, #4]
 1016 04aa 0123     		movs	r3, #1
 1017 04ac 0093     		str	r3, [sp]
 1018 04ae DB33     		adds	r3, r3, #219
 1019 04b0 A04A     		ldr	r2, .L202+4
 1020 04b2 1032     		adds	r2, r2, #16
 1021 04b4 A049     		ldr	r1, .L202+8
 1022 04b6 0020     		movs	r0, #0
 1023              	.LVL151:
 1024 04b8 A047     		blx	r4
 1025              	.LVL152:
 1026              	.L76:
ARM GAS  C:\Users\Phuong\AppData\Local\Temp\ccU7OqD6.s 			page 23


 1027              	.LBE29:
 221:Source\azure_iot_sdk\uamqp\src/amqpvalue_to_string.c ****                 free(result);
 1028              		.loc 1 221 0 is_stmt 1
 1029 04ba 0F98     		ldr	r0, [sp, #60]
 1030 04bc FFF7FEFF 		bl	free
 1031              	.LVL153:
 222:Source\azure_iot_sdk\uamqp\src/amqpvalue_to_string.c ****                 result = NULL;
 1032              		.loc 1 222 0
 1033 04c0 0023     		movs	r3, #0
 1034 04c2 0F93     		str	r3, [sp, #60]
 1035 04c4 00F0E4FD 		bl	.L10	@ far jump
 1036              	.LVL154:
 1037              	.L22:
 1038              	.LBE27:
 1039              	.LBB30:
 223:Source\azure_iot_sdk\uamqp\src/amqpvalue_to_string.c ****             }
 224:Source\azure_iot_sdk\uamqp\src/amqpvalue_to_string.c ****             break;
 225:Source\azure_iot_sdk\uamqp\src/amqpvalue_to_string.c ****         }
 226:Source\azure_iot_sdk\uamqp\src/amqpvalue_to_string.c ****         case AMQP_TYPE_LONG:
 227:Source\azure_iot_sdk\uamqp\src/amqpvalue_to_string.c ****         {
 228:Source\azure_iot_sdk\uamqp\src/amqpvalue_to_string.c ****             char str_value[21];
 229:Source\azure_iot_sdk\uamqp\src/amqpvalue_to_string.c ****             int64_t value;
 230:Source\azure_iot_sdk\uamqp\src/amqpvalue_to_string.c ****             if (amqpvalue_get_long(amqp_value, &value) != 0)
 1040              		.loc 1 230 0
 1041 04c8 06A9     		add	r1, sp, #24
 1042 04ca 2000     		movs	r0, r4
 1043 04cc FFF7FEFF 		bl	amqpvalue_get_long
 1044              	.LVL155:
 1045 04d0 0028     		cmp	r0, #0
 1046 04d2 14D0     		beq	.L77
 1047              	.LBB31:
 231:Source\azure_iot_sdk\uamqp\src/amqpvalue_to_string.c ****             {
 232:Source\azure_iot_sdk\uamqp\src/amqpvalue_to_string.c ****                 LogError("Failure getting long value");
 1048              		.loc 1 232 0 discriminator 3
 1049 04d4 FFF7FEFF 		bl	xlogging_get_log_function
 1050              	.LVL156:
 1051 04d8 041E     		subs	r4, r0, #0
 1052              	.LVL157:
 1053 04da 09D0     		beq	.L78
 1054              		.loc 1 232 0 is_stmt 0 discriminator 4
 1055 04dc 9B4B     		ldr	r3, .L202+28
 1056 04de 0193     		str	r3, [sp, #4]
 1057 04e0 0123     		movs	r3, #1
 1058 04e2 0093     		str	r3, [sp]
 1059 04e4 E733     		adds	r3, r3, #231
 1060 04e6 934A     		ldr	r2, .L202+4
 1061 04e8 1032     		adds	r2, r2, #16
 1062 04ea 9349     		ldr	r1, .L202+8
 1063 04ec 0020     		movs	r0, #0
 1064              	.LVL158:
 1065 04ee A047     		blx	r4
 1066              	.LVL159:
 1067              	.L78:
 1068              	.LBE31:
 233:Source\azure_iot_sdk\uamqp\src/amqpvalue_to_string.c ****                 free(result);
 1069              		.loc 1 233 0 is_stmt 1
 1070 04f0 0F98     		ldr	r0, [sp, #60]
ARM GAS  C:\Users\Phuong\AppData\Local\Temp\ccU7OqD6.s 			page 24


 1071 04f2 FFF7FEFF 		bl	free
 1072              	.LVL160:
 234:Source\azure_iot_sdk\uamqp\src/amqpvalue_to_string.c ****                 result = NULL;
 1073              		.loc 1 234 0
 1074 04f6 0023     		movs	r3, #0
 1075 04f8 0F93     		str	r3, [sp, #60]
 1076 04fa 00F0C9FD 		bl	.L10	@ far jump
 1077              	.LVL161:
 1078              	.L77:
 235:Source\azure_iot_sdk\uamqp\src/amqpvalue_to_string.c ****             }
 236:Source\azure_iot_sdk\uamqp\src/amqpvalue_to_string.c ****             else if ((sprintf(str_value, "%" PRId64, value) < 0) ||
 1079              		.loc 1 236 0
 1080 04fe 069A     		ldr	r2, [sp, #24]
 1081 0500 079B     		ldr	r3, [sp, #28]
 1082 0502 9349     		ldr	r1, .L202+32
 1083 0504 08A8     		add	r0, sp, #32
 1084 0506 FFF7FEFF 		bl	sprintf
 1085              	.LVL162:
 1086 050a 0028     		cmp	r0, #0
 1087 050c 07DB     		blt	.L80
 237:Source\azure_iot_sdk\uamqp\src/amqpvalue_to_string.c ****                      (string_concat(&result, str_value) != 0))
 1088              		.loc 1 237 0 discriminator 1
 1089 050e 08A9     		add	r1, sp, #32
 1090 0510 0FA8     		add	r0, sp, #60
 1091 0512 FFF7FEFF 		bl	string_concat
 1092              	.LVL163:
 236:Source\azure_iot_sdk\uamqp\src/amqpvalue_to_string.c ****                      (string_concat(&result, str_value) != 0))
 1093              		.loc 1 236 0 discriminator 1
 1094 0516 0028     		cmp	r0, #0
 1095 0518 01D1     		bne	.LCB1041
 1096 051a 00F0B9FD 		bl	.L10	@far jump
 1097              	.LCB1041:
 1098              	.L80:
 1099              	.LBB32:
 238:Source\azure_iot_sdk\uamqp\src/amqpvalue_to_string.c ****             {
 239:Source\azure_iot_sdk\uamqp\src/amqpvalue_to_string.c ****                 LogError("Failure building amqp value string");
 1100              		.loc 1 239 0 discriminator 3
 1101 051e FFF7FEFF 		bl	xlogging_get_log_function
 1102              	.LVL164:
 1103 0522 041E     		subs	r4, r0, #0
 1104              	.LVL165:
 1105 0524 09D0     		beq	.L81
 1106              		.loc 1 239 0 is_stmt 0 discriminator 4
 1107 0526 864B     		ldr	r3, .L202+16
 1108 0528 0193     		str	r3, [sp, #4]
 1109 052a 0123     		movs	r3, #1
 1110 052c 0093     		str	r3, [sp]
 1111 052e EE33     		adds	r3, r3, #238
 1112 0530 804A     		ldr	r2, .L202+4
 1113 0532 1032     		adds	r2, r2, #16
 1114 0534 8049     		ldr	r1, .L202+8
 1115 0536 0020     		movs	r0, #0
 1116              	.LVL166:
 1117 0538 A047     		blx	r4
 1118              	.LVL167:
 1119              	.L81:
 1120              	.LBE32:
ARM GAS  C:\Users\Phuong\AppData\Local\Temp\ccU7OqD6.s 			page 25


 240:Source\azure_iot_sdk\uamqp\src/amqpvalue_to_string.c ****                 free(result);
 1121              		.loc 1 240 0 is_stmt 1
 1122 053a 0F98     		ldr	r0, [sp, #60]
 1123 053c FFF7FEFF 		bl	free
 1124              	.LVL168:
 241:Source\azure_iot_sdk\uamqp\src/amqpvalue_to_string.c ****                 result = NULL;
 1125              		.loc 1 241 0
 1126 0540 0023     		movs	r3, #0
 1127 0542 0F93     		str	r3, [sp, #60]
 1128 0544 00F0A4FD 		bl	.L10	@ far jump
 1129              	.LVL169:
 1130              	.L23:
 1131              	.LBE30:
 1132              	.LBB33:
 242:Source\azure_iot_sdk\uamqp\src/amqpvalue_to_string.c ****             }
 243:Source\azure_iot_sdk\uamqp\src/amqpvalue_to_string.c ****             break;
 244:Source\azure_iot_sdk\uamqp\src/amqpvalue_to_string.c ****         }
 245:Source\azure_iot_sdk\uamqp\src/amqpvalue_to_string.c ****         case AMQP_TYPE_FLOAT:
 246:Source\azure_iot_sdk\uamqp\src/amqpvalue_to_string.c ****         {
 247:Source\azure_iot_sdk\uamqp\src/amqpvalue_to_string.c ****             float float_value;
 248:Source\azure_iot_sdk\uamqp\src/amqpvalue_to_string.c ****             if (amqpvalue_get_float(amqp_value, &float_value) != 0)
 1133              		.loc 1 248 0
 1134 0548 06A9     		add	r1, sp, #24
 1135 054a 2000     		movs	r0, r4
 1136 054c FFF7FEFF 		bl	amqpvalue_get_float
 1137              	.LVL170:
 1138 0550 0028     		cmp	r0, #0
 1139 0552 14D0     		beq	.L82
 1140              	.LBB34:
 249:Source\azure_iot_sdk\uamqp\src/amqpvalue_to_string.c ****             {
 250:Source\azure_iot_sdk\uamqp\src/amqpvalue_to_string.c ****                 LogError("Failure getting float value");
 1141              		.loc 1 250 0 discriminator 3
 1142 0554 FFF7FEFF 		bl	xlogging_get_log_function
 1143              	.LVL171:
 1144 0558 041E     		subs	r4, r0, #0
 1145              	.LVL172:
 1146 055a 09D0     		beq	.L83
 1147              		.loc 1 250 0 is_stmt 0 discriminator 4
 1148 055c 7D4B     		ldr	r3, .L202+36
 1149 055e 0193     		str	r3, [sp, #4]
 1150 0560 0123     		movs	r3, #1
 1151 0562 0093     		str	r3, [sp]
 1152 0564 F933     		adds	r3, r3, #249
 1153 0566 734A     		ldr	r2, .L202+4
 1154 0568 1032     		adds	r2, r2, #16
 1155 056a 7349     		ldr	r1, .L202+8
 1156 056c 0020     		movs	r0, #0
 1157              	.LVL173:
 1158 056e A047     		blx	r4
 1159              	.LVL174:
 1160              	.L83:
 1161              	.LBE34:
 251:Source\azure_iot_sdk\uamqp\src/amqpvalue_to_string.c ****                 free(result);
 1162              		.loc 1 251 0 is_stmt 1
 1163 0570 0F98     		ldr	r0, [sp, #60]
 1164 0572 FFF7FEFF 		bl	free
 1165              	.LVL175:
ARM GAS  C:\Users\Phuong\AppData\Local\Temp\ccU7OqD6.s 			page 26


 252:Source\azure_iot_sdk\uamqp\src/amqpvalue_to_string.c ****                 result = NULL;
 1166              		.loc 1 252 0
 1167 0576 0023     		movs	r3, #0
 1168 0578 0F93     		str	r3, [sp, #60]
 1169 057a 00F089FD 		bl	.L10	@ far jump
 1170              	.LVL176:
 1171              	.L82:
 1172              	.LBB35:
 253:Source\azure_iot_sdk\uamqp\src/amqpvalue_to_string.c ****             }
 254:Source\azure_iot_sdk\uamqp\src/amqpvalue_to_string.c ****             else
 255:Source\azure_iot_sdk\uamqp\src/amqpvalue_to_string.c ****             {
 256:Source\azure_iot_sdk\uamqp\src/amqpvalue_to_string.c ****                 char str_value[25];
 257:Source\azure_iot_sdk\uamqp\src/amqpvalue_to_string.c ****                 if ((snprintf(str_value, sizeof(str_value), "%.02f", float_value) < 0) ||
 1173              		.loc 1 257 0
 1174 057e 0698     		ldr	r0, [sp, #24]
 1175 0580 FFF7FEFF 		bl	__aeabi_f2d
 1176              	.LVL177:
 1177 0584 0090     		str	r0, [sp]
 1178 0586 0191     		str	r1, [sp, #4]
 1179 0588 734A     		ldr	r2, .L202+40
 1180 058a 1921     		movs	r1, #25
 1181 058c 08A8     		add	r0, sp, #32
 1182 058e FFF7FEFF 		bl	snprintf
 1183              	.LVL178:
 1184 0592 0028     		cmp	r0, #0
 1185 0594 07DB     		blt	.L85
 258:Source\azure_iot_sdk\uamqp\src/amqpvalue_to_string.c ****                     (string_concat(&result, str_value) != 0))
 1186              		.loc 1 258 0 discriminator 1
 1187 0596 08A9     		add	r1, sp, #32
 1188 0598 0FA8     		add	r0, sp, #60
 1189 059a FFF7FEFF 		bl	string_concat
 1190              	.LVL179:
 257:Source\azure_iot_sdk\uamqp\src/amqpvalue_to_string.c ****                     (string_concat(&result, str_value) != 0))
 1191              		.loc 1 257 0 discriminator 1
 1192 059e 0028     		cmp	r0, #0
 1193 05a0 01D1     		bne	.LCB1136
 1194 05a2 00F075FD 		bl	.L10	@far jump
 1195              	.LCB1136:
 1196              	.L85:
 1197              	.LBB36:
 259:Source\azure_iot_sdk\uamqp\src/amqpvalue_to_string.c ****                 {
 260:Source\azure_iot_sdk\uamqp\src/amqpvalue_to_string.c ****                     LogError("Failure building amqp value string");
 1198              		.loc 1 260 0 discriminator 3
 1199 05a6 FFF7FEFF 		bl	xlogging_get_log_function
 1200              	.LVL180:
 1201 05aa 041E     		subs	r4, r0, #0
 1202              	.LVL181:
 1203 05ac 0AD0     		beq	.L87
 1204              		.loc 1 260 0 is_stmt 0 discriminator 4
 1205 05ae 644B     		ldr	r3, .L202+16
 1206 05b0 0193     		str	r3, [sp, #4]
 1207 05b2 0123     		movs	r3, #1
 1208 05b4 0093     		str	r3, [sp]
 1209 05b6 0433     		adds	r3, r3, #4
 1210 05b8 FF33     		adds	r3, r3, #255
 1211 05ba 5E4A     		ldr	r2, .L202+4
 1212 05bc 1032     		adds	r2, r2, #16
ARM GAS  C:\Users\Phuong\AppData\Local\Temp\ccU7OqD6.s 			page 27


 1213 05be 5E49     		ldr	r1, .L202+8
 1214 05c0 0020     		movs	r0, #0
 1215              	.LVL182:
 1216 05c2 A047     		blx	r4
 1217              	.LVL183:
 1218              	.L87:
 1219              	.LBE36:
 261:Source\azure_iot_sdk\uamqp\src/amqpvalue_to_string.c ****                     free(result);
 1220              		.loc 1 261 0 is_stmt 1
 1221 05c4 0F98     		ldr	r0, [sp, #60]
 1222 05c6 FFF7FEFF 		bl	free
 1223              	.LVL184:
 262:Source\azure_iot_sdk\uamqp\src/amqpvalue_to_string.c ****                     result = NULL;
 1224              		.loc 1 262 0
 1225 05ca 0023     		movs	r3, #0
 1226 05cc 0F93     		str	r3, [sp, #60]
 1227 05ce 00F05FFD 		bl	.L10	@ far jump
 1228              	.LVL185:
 1229              	.L24:
 1230              	.LBE35:
 1231              	.LBE33:
 1232              	.LBB37:
 263:Source\azure_iot_sdk\uamqp\src/amqpvalue_to_string.c ****                 }
 264:Source\azure_iot_sdk\uamqp\src/amqpvalue_to_string.c ****             }
 265:Source\azure_iot_sdk\uamqp\src/amqpvalue_to_string.c ****             break;
 266:Source\azure_iot_sdk\uamqp\src/amqpvalue_to_string.c ****         }
 267:Source\azure_iot_sdk\uamqp\src/amqpvalue_to_string.c ****         case AMQP_TYPE_DOUBLE:
 268:Source\azure_iot_sdk\uamqp\src/amqpvalue_to_string.c ****         {
 269:Source\azure_iot_sdk\uamqp\src/amqpvalue_to_string.c ****             double double_value;
 270:Source\azure_iot_sdk\uamqp\src/amqpvalue_to_string.c ****             if (amqpvalue_get_double(amqp_value, &double_value) != 0)
 1233              		.loc 1 270 0
 1234 05d2 06A9     		add	r1, sp, #24
 1235 05d4 2000     		movs	r0, r4
 1236 05d6 FFF7FEFF 		bl	amqpvalue_get_double
 1237              	.LVL186:
 1238 05da 0028     		cmp	r0, #0
 1239 05dc 15D0     		beq	.L88
 1240              	.LBB38:
 271:Source\azure_iot_sdk\uamqp\src/amqpvalue_to_string.c ****             {
 272:Source\azure_iot_sdk\uamqp\src/amqpvalue_to_string.c ****                 LogError("Failure getting double value");
 1241              		.loc 1 272 0 discriminator 3
 1242 05de FFF7FEFF 		bl	xlogging_get_log_function
 1243              	.LVL187:
 1244 05e2 041E     		subs	r4, r0, #0
 1245              	.LVL188:
 1246 05e4 0AD0     		beq	.L89
 1247              		.loc 1 272 0 is_stmt 0 discriminator 4
 1248 05e6 5D4B     		ldr	r3, .L202+44
 1249 05e8 0193     		str	r3, [sp, #4]
 1250 05ea 0123     		movs	r3, #1
 1251 05ec 0093     		str	r3, [sp]
 1252 05ee 1033     		adds	r3, r3, #16
 1253 05f0 FF33     		adds	r3, r3, #255
 1254 05f2 504A     		ldr	r2, .L202+4
 1255 05f4 1032     		adds	r2, r2, #16
 1256 05f6 5049     		ldr	r1, .L202+8
 1257 05f8 0020     		movs	r0, #0
ARM GAS  C:\Users\Phuong\AppData\Local\Temp\ccU7OqD6.s 			page 28


 1258              	.LVL189:
 1259 05fa A047     		blx	r4
 1260              	.LVL190:
 1261              	.L89:
 1262              	.LBE38:
 273:Source\azure_iot_sdk\uamqp\src/amqpvalue_to_string.c ****                 free(result);
 1263              		.loc 1 273 0 is_stmt 1
 1264 05fc 0F98     		ldr	r0, [sp, #60]
 1265 05fe FFF7FEFF 		bl	free
 1266              	.LVL191:
 274:Source\azure_iot_sdk\uamqp\src/amqpvalue_to_string.c ****                 result = NULL;
 1267              		.loc 1 274 0
 1268 0602 0023     		movs	r3, #0
 1269 0604 0F93     		str	r3, [sp, #60]
 1270 0606 00F043FD 		bl	.L10	@ far jump
 1271              	.LVL192:
 1272              	.L88:
 1273              	.LBB39:
 275:Source\azure_iot_sdk\uamqp\src/amqpvalue_to_string.c ****             }
 276:Source\azure_iot_sdk\uamqp\src/amqpvalue_to_string.c ****             else
 277:Source\azure_iot_sdk\uamqp\src/amqpvalue_to_string.c ****             {
 278:Source\azure_iot_sdk\uamqp\src/amqpvalue_to_string.c ****                 char str_value[25];
 279:Source\azure_iot_sdk\uamqp\src/amqpvalue_to_string.c ****                 if ((snprintf(str_value, sizeof(str_value), "%.02lf", double_value) < 0) ||
 1274              		.loc 1 279 0
 1275 060a 069B     		ldr	r3, [sp, #24]
 1276 060c 079C     		ldr	r4, [sp, #28]
 1277 060e 0093     		str	r3, [sp]
 1278 0610 0194     		str	r4, [sp, #4]
 1279 0612 534A     		ldr	r2, .L202+48
 1280 0614 1921     		movs	r1, #25
 1281 0616 08A8     		add	r0, sp, #32
 1282 0618 FFF7FEFF 		bl	snprintf
 1283              	.LVL193:
 1284 061c 0028     		cmp	r0, #0
 1285 061e 07DB     		blt	.L91
 280:Source\azure_iot_sdk\uamqp\src/amqpvalue_to_string.c ****                     (string_concat(&result, str_value) != 0))
 1286              		.loc 1 280 0 discriminator 1
 1287 0620 08A9     		add	r1, sp, #32
 1288 0622 0FA8     		add	r0, sp, #60
 1289 0624 FFF7FEFF 		bl	string_concat
 1290              	.LVL194:
 279:Source\azure_iot_sdk\uamqp\src/amqpvalue_to_string.c ****                     (string_concat(&result, str_value) != 0))
 1291              		.loc 1 279 0 discriminator 1
 1292 0628 0028     		cmp	r0, #0
 1293 062a 01D1     		bne	.LCB1233
 1294 062c 00F030FD 		bl	.L10	@far jump
 1295              	.LCB1233:
 1296              	.L91:
 1297              	.LBB40:
 281:Source\azure_iot_sdk\uamqp\src/amqpvalue_to_string.c ****                 {
 282:Source\azure_iot_sdk\uamqp\src/amqpvalue_to_string.c ****                     LogError("Failure building amqp value string");
 1298              		.loc 1 282 0 discriminator 3
 1299 0630 FFF7FEFF 		bl	xlogging_get_log_function
 1300              	.LVL195:
 1301 0634 041E     		subs	r4, r0, #0
 1302              	.LVL196:
 1303 0636 0AD0     		beq	.L93
ARM GAS  C:\Users\Phuong\AppData\Local\Temp\ccU7OqD6.s 			page 29


 1304              		.loc 1 282 0 is_stmt 0 discriminator 4
 1305 0638 414B     		ldr	r3, .L202+16
 1306 063a 0193     		str	r3, [sp, #4]
 1307 063c 0123     		movs	r3, #1
 1308 063e 0093     		str	r3, [sp]
 1309 0640 1A33     		adds	r3, r3, #26
 1310 0642 FF33     		adds	r3, r3, #255
 1311 0644 3B4A     		ldr	r2, .L202+4
 1312 0646 1032     		adds	r2, r2, #16
 1313 0648 3B49     		ldr	r1, .L202+8
 1314 064a 0020     		movs	r0, #0
 1315              	.LVL197:
 1316 064c A047     		blx	r4
 1317              	.LVL198:
 1318              	.L93:
 1319              	.LBE40:
 283:Source\azure_iot_sdk\uamqp\src/amqpvalue_to_string.c ****                     free(result);
 1320              		.loc 1 283 0 is_stmt 1
 1321 064e 0F98     		ldr	r0, [sp, #60]
 1322 0650 FFF7FEFF 		bl	free
 1323              	.LVL199:
 284:Source\azure_iot_sdk\uamqp\src/amqpvalue_to_string.c ****                     result = NULL;
 1324              		.loc 1 284 0
 1325 0654 0023     		movs	r3, #0
 1326 0656 0F93     		str	r3, [sp, #60]
 1327 0658 00F01AFD 		bl	.L10	@ far jump
 1328              	.LVL200:
 1329              	.L25:
 1330              	.LBE39:
 1331              	.LBE37:
 1332              	.LBB41:
 285:Source\azure_iot_sdk\uamqp\src/amqpvalue_to_string.c ****                 }
 286:Source\azure_iot_sdk\uamqp\src/amqpvalue_to_string.c ****             }
 287:Source\azure_iot_sdk\uamqp\src/amqpvalue_to_string.c ****             break;
 288:Source\azure_iot_sdk\uamqp\src/amqpvalue_to_string.c ****         }
 289:Source\azure_iot_sdk\uamqp\src/amqpvalue_to_string.c ****         case AMQP_TYPE_CHAR:
 290:Source\azure_iot_sdk\uamqp\src/amqpvalue_to_string.c ****         {
 291:Source\azure_iot_sdk\uamqp\src/amqpvalue_to_string.c ****             uint32_t char_code;
 292:Source\azure_iot_sdk\uamqp\src/amqpvalue_to_string.c ****             if (amqpvalue_get_char(amqp_value, &char_code) != 0)
 1333              		.loc 1 292 0
 1334 065c 06A9     		add	r1, sp, #24
 1335 065e 2000     		movs	r0, r4
 1336 0660 FFF7FEFF 		bl	amqpvalue_get_char
 1337              	.LVL201:
 1338 0664 0028     		cmp	r0, #0
 1339 0666 15D0     		beq	.L94
 1340              	.LBB42:
 293:Source\azure_iot_sdk\uamqp\src/amqpvalue_to_string.c ****             {
 294:Source\azure_iot_sdk\uamqp\src/amqpvalue_to_string.c ****                 LogError("Failure getting char value");
 1341              		.loc 1 294 0 discriminator 3
 1342 0668 FFF7FEFF 		bl	xlogging_get_log_function
 1343              	.LVL202:
 1344 066c 041E     		subs	r4, r0, #0
 1345              	.LVL203:
 1346 066e 0AD0     		beq	.L95
 1347              		.loc 1 294 0 is_stmt 0 discriminator 4
 1348 0670 3C4B     		ldr	r3, .L202+52
ARM GAS  C:\Users\Phuong\AppData\Local\Temp\ccU7OqD6.s 			page 30


 1349 0672 0193     		str	r3, [sp, #4]
 1350 0674 0123     		movs	r3, #1
 1351 0676 0093     		str	r3, [sp]
 1352 0678 2633     		adds	r3, r3, #38
 1353 067a FF33     		adds	r3, r3, #255
 1354 067c 2D4A     		ldr	r2, .L202+4
 1355 067e 1032     		adds	r2, r2, #16
 1356 0680 2D49     		ldr	r1, .L202+8
 1357 0682 0020     		movs	r0, #0
 1358              	.LVL204:
 1359 0684 A047     		blx	r4
 1360              	.LVL205:
 1361              	.L95:
 1362              	.LBE42:
 295:Source\azure_iot_sdk\uamqp\src/amqpvalue_to_string.c ****                 free(result);
 1363              		.loc 1 295 0 is_stmt 1
 1364 0686 0F98     		ldr	r0, [sp, #60]
 1365 0688 FFF7FEFF 		bl	free
 1366              	.LVL206:
 296:Source\azure_iot_sdk\uamqp\src/amqpvalue_to_string.c ****                 result = NULL;
 1367              		.loc 1 296 0
 1368 068c 0023     		movs	r3, #0
 1369 068e 0F93     		str	r3, [sp, #60]
 1370 0690 00F0FEFC 		bl	.L10	@ far jump
 1371              	.LVL207:
 1372              	.L94:
 1373              	.LBB43:
 297:Source\azure_iot_sdk\uamqp\src/amqpvalue_to_string.c ****             }
 298:Source\azure_iot_sdk\uamqp\src/amqpvalue_to_string.c ****             else
 299:Source\azure_iot_sdk\uamqp\src/amqpvalue_to_string.c ****             {
 300:Source\azure_iot_sdk\uamqp\src/amqpvalue_to_string.c ****                 char str_value[25];
 301:Source\azure_iot_sdk\uamqp\src/amqpvalue_to_string.c ****                 if ((snprintf(str_value, sizeof(str_value), "U%02X%02X%02X%02X", char_code >> 24, (
 1374              		.loc 1 301 0
 1375 0694 069A     		ldr	r2, [sp, #24]
 1376 0696 110C     		lsrs	r1, r2, #16
 1377 0698 140A     		lsrs	r4, r2, #8
 1378              	.LVL208:
 1379 069a 130E     		lsrs	r3, r2, #24
 1380 069c FF20     		movs	r0, #255
 1381 069e 0240     		ands	r2, r0
 1382 06a0 0292     		str	r2, [sp, #8]
 1383 06a2 2200     		movs	r2, r4
 1384 06a4 0240     		ands	r2, r0
 1385 06a6 0192     		str	r2, [sp, #4]
 1386 06a8 0200     		movs	r2, r0
 1387 06aa 0A40     		ands	r2, r1
 1388 06ac 0092     		str	r2, [sp]
 1389 06ae 2E4A     		ldr	r2, .L202+56
 1390 06b0 1921     		movs	r1, #25
 1391 06b2 08A8     		add	r0, sp, #32
 1392 06b4 FFF7FEFF 		bl	snprintf
 1393              	.LVL209:
 1394 06b8 0028     		cmp	r0, #0
 1395 06ba 07DB     		blt	.L97
 302:Source\azure_iot_sdk\uamqp\src/amqpvalue_to_string.c ****                     (string_concat(&result, str_value) != 0))
 1396              		.loc 1 302 0 discriminator 1
 1397 06bc 08A9     		add	r1, sp, #32
ARM GAS  C:\Users\Phuong\AppData\Local\Temp\ccU7OqD6.s 			page 31


 1398 06be 0FA8     		add	r0, sp, #60
 1399 06c0 FFF7FEFF 		bl	string_concat
 1400              	.LVL210:
 301:Source\azure_iot_sdk\uamqp\src/amqpvalue_to_string.c ****                     (string_concat(&result, str_value) != 0))
 1401              		.loc 1 301 0 discriminator 1
 1402 06c4 0028     		cmp	r0, #0
 1403 06c6 01D1     		bne	.LCB1341
 1404 06c8 00F0E2FC 		bl	.L10	@far jump
 1405              	.LCB1341:
 1406              	.L97:
 1407              	.LBB44:
 303:Source\azure_iot_sdk\uamqp\src/amqpvalue_to_string.c ****                 {
 304:Source\azure_iot_sdk\uamqp\src/amqpvalue_to_string.c ****                     LogError("Failure building amqp value string");
 1408              		.loc 1 304 0 discriminator 3
 1409 06cc FFF7FEFF 		bl	xlogging_get_log_function
 1410              	.LVL211:
 1411 06d0 041E     		subs	r4, r0, #0
 1412              	.LVL212:
 1413 06d2 0AD0     		beq	.L99
 1414              		.loc 1 304 0 is_stmt 0 discriminator 4
 1415 06d4 1A4B     		ldr	r3, .L202+16
 1416 06d6 0193     		str	r3, [sp, #4]
 1417 06d8 0123     		movs	r3, #1
 1418 06da 0093     		str	r3, [sp]
 1419 06dc 3033     		adds	r3, r3, #48
 1420 06de FF33     		adds	r3, r3, #255
 1421 06e0 144A     		ldr	r2, .L202+4
 1422 06e2 1032     		adds	r2, r2, #16
 1423 06e4 1449     		ldr	r1, .L202+8
 1424 06e6 0020     		movs	r0, #0
 1425              	.LVL213:
 1426 06e8 A047     		blx	r4
 1427              	.LVL214:
 1428              	.L99:
 1429              	.LBE44:
 305:Source\azure_iot_sdk\uamqp\src/amqpvalue_to_string.c ****                     free(result);
 1430              		.loc 1 305 0 is_stmt 1
 1431 06ea 0F98     		ldr	r0, [sp, #60]
 1432 06ec FFF7FEFF 		bl	free
 1433              	.LVL215:
 306:Source\azure_iot_sdk\uamqp\src/amqpvalue_to_string.c ****                     result = NULL;
 1434              		.loc 1 306 0
 1435 06f0 0023     		movs	r3, #0
 1436 06f2 0F93     		str	r3, [sp, #60]
 1437 06f4 00F0CCFC 		bl	.L10	@ far jump
 1438              	.LVL216:
 1439              	.L26:
 1440              	.LBE43:
 1441              	.LBE41:
 1442              	.LBB45:
 307:Source\azure_iot_sdk\uamqp\src/amqpvalue_to_string.c ****                 }
 308:Source\azure_iot_sdk\uamqp\src/amqpvalue_to_string.c ****             }
 309:Source\azure_iot_sdk\uamqp\src/amqpvalue_to_string.c ****             break;
 310:Source\azure_iot_sdk\uamqp\src/amqpvalue_to_string.c ****         }
 311:Source\azure_iot_sdk\uamqp\src/amqpvalue_to_string.c ****         case AMQP_TYPE_TIMESTAMP:
 312:Source\azure_iot_sdk\uamqp\src/amqpvalue_to_string.c ****         {
 313:Source\azure_iot_sdk\uamqp\src/amqpvalue_to_string.c ****             char str_value[21];
ARM GAS  C:\Users\Phuong\AppData\Local\Temp\ccU7OqD6.s 			page 32


 314:Source\azure_iot_sdk\uamqp\src/amqpvalue_to_string.c ****             int64_t value;
 315:Source\azure_iot_sdk\uamqp\src/amqpvalue_to_string.c ****             if (amqpvalue_get_timestamp(amqp_value, &value) != 0)
 1443              		.loc 1 315 0
 1444 06f8 06A9     		add	r1, sp, #24
 1445 06fa 2000     		movs	r0, r4
 1446 06fc FFF7FEFF 		bl	amqpvalue_get_timestamp
 1447              	.LVL217:
 1448 0700 0028     		cmp	r0, #0
 1449 0702 35D0     		beq	.L100
 1450              	.LBB46:
 316:Source\azure_iot_sdk\uamqp\src/amqpvalue_to_string.c ****             {
 317:Source\azure_iot_sdk\uamqp\src/amqpvalue_to_string.c ****                 LogError("Failure getting timestamp value");
 1451              		.loc 1 317 0 discriminator 3
 1452 0704 FFF7FEFF 		bl	xlogging_get_log_function
 1453              	.LVL218:
 1454 0708 041E     		subs	r4, r0, #0
 1455              	.LVL219:
 1456 070a 0AD0     		beq	.L101
 1457              		.loc 1 317 0 is_stmt 0 discriminator 4
 1458 070c 174B     		ldr	r3, .L202+60
 1459 070e 0193     		str	r3, [sp, #4]
 1460 0710 0123     		movs	r3, #1
 1461 0712 0093     		str	r3, [sp]
 1462 0714 3E23     		movs	r3, #62
 1463 0716 FF33     		adds	r3, r3, #255
 1464 0718 064A     		ldr	r2, .L202+4
 1465 071a 1032     		adds	r2, r2, #16
 1466 071c 0649     		ldr	r1, .L202+8
 1467 071e 0020     		movs	r0, #0
 1468              	.LVL220:
 1469 0720 A047     		blx	r4
 1470              	.LVL221:
 1471              	.L101:
 1472              	.LBE46:
 318:Source\azure_iot_sdk\uamqp\src/amqpvalue_to_string.c ****                 free(result);
 1473              		.loc 1 318 0 is_stmt 1
 1474 0722 0F98     		ldr	r0, [sp, #60]
 1475 0724 FFF7FEFF 		bl	free
 1476              	.LVL222:
 319:Source\azure_iot_sdk\uamqp\src/amqpvalue_to_string.c ****                 result = NULL;
 1477              		.loc 1 319 0
 1478 0728 0023     		movs	r3, #0
 1479 072a 0F93     		str	r3, [sp, #60]
 1480 072c 00F0B0FC 		bl	.L10	@ far jump
 1481              	.L203:
 1482              		.align	2
 1483              	.L202:
 1484 0730 88010000 		.word	.LC44
 1485 0734 5C000000 		.word	.LANCHOR0
 1486 0738 00000000 		.word	.LC1
 1487 073c A4010000 		.word	.LC46
 1488 0740 98000000 		.word	.LC20
 1489 0744 A8010000 		.word	.LC48
 1490 0748 C4010000 		.word	.LC50
 1491 074c C8010000 		.word	.LC52
 1492 0750 E4010000 		.word	.LC54
 1493 0754 EC010000 		.word	.LC56
ARM GAS  C:\Users\Phuong\AppData\Local\Temp\ccU7OqD6.s 			page 33


 1494 0758 08020000 		.word	.LC58
 1495 075c 10020000 		.word	.LC60
 1496 0760 30020000 		.word	.LC62
 1497 0764 38020000 		.word	.LC64
 1498 0768 54020000 		.word	.LC66
 1499 076c 68020000 		.word	.LC68
 1500              	.LVL223:
 1501              	.L100:
 320:Source\azure_iot_sdk\uamqp\src/amqpvalue_to_string.c ****             }
 321:Source\azure_iot_sdk\uamqp\src/amqpvalue_to_string.c ****             else if ((sprintf(str_value, "%" PRId64, value) < 0) ||
 1502              		.loc 1 321 0
 1503 0770 069A     		ldr	r2, [sp, #24]
 1504 0772 079B     		ldr	r3, [sp, #28]
 1505 0774 CD49     		ldr	r1, .L204
 1506 0776 08A8     		add	r0, sp, #32
 1507 0778 FFF7FEFF 		bl	sprintf
 1508              	.LVL224:
 1509 077c 0028     		cmp	r0, #0
 1510 077e 07DB     		blt	.L103
 322:Source\azure_iot_sdk\uamqp\src/amqpvalue_to_string.c ****                      (string_concat(&result, str_value) != 0))
 1511              		.loc 1 322 0 discriminator 1
 1512 0780 08A9     		add	r1, sp, #32
 1513 0782 0FA8     		add	r0, sp, #60
 1514 0784 FFF7FEFF 		bl	string_concat
 1515              	.LVL225:
 321:Source\azure_iot_sdk\uamqp\src/amqpvalue_to_string.c ****                      (string_concat(&result, str_value) != 0))
 1516              		.loc 1 321 0 discriminator 1
 1517 0788 0028     		cmp	r0, #0
 1518 078a 01D1     		bne	.LCB1454
 1519 078c 00F080FC 		bl	.L10	@far jump
 1520              	.LCB1454:
 1521              	.L103:
 1522              	.LBB47:
 323:Source\azure_iot_sdk\uamqp\src/amqpvalue_to_string.c ****             {
 324:Source\azure_iot_sdk\uamqp\src/amqpvalue_to_string.c ****                 LogError("Failure building amqp value string");
 1523              		.loc 1 324 0 discriminator 3
 1524 0790 FFF7FEFF 		bl	xlogging_get_log_function
 1525              	.LVL226:
 1526 0794 041E     		subs	r4, r0, #0
 1527              	.LVL227:
 1528 0796 0AD0     		beq	.L104
 1529              		.loc 1 324 0 is_stmt 0 discriminator 4
 1530 0798 C54B     		ldr	r3, .L204+4
 1531 079a 0193     		str	r3, [sp, #4]
 1532 079c 0123     		movs	r3, #1
 1533 079e 0093     		str	r3, [sp]
 1534 07a0 4433     		adds	r3, r3, #68
 1535 07a2 FF33     		adds	r3, r3, #255
 1536 07a4 C34A     		ldr	r2, .L204+8
 1537 07a6 1032     		adds	r2, r2, #16
 1538 07a8 C349     		ldr	r1, .L204+12
 1539 07aa 0020     		movs	r0, #0
 1540              	.LVL228:
 1541 07ac A047     		blx	r4
 1542              	.LVL229:
 1543              	.L104:
 1544              	.LBE47:
ARM GAS  C:\Users\Phuong\AppData\Local\Temp\ccU7OqD6.s 			page 34


 325:Source\azure_iot_sdk\uamqp\src/amqpvalue_to_string.c ****                 free(result);
 1545              		.loc 1 325 0 is_stmt 1
 1546 07ae 0F98     		ldr	r0, [sp, #60]
 1547 07b0 FFF7FEFF 		bl	free
 1548              	.LVL230:
 326:Source\azure_iot_sdk\uamqp\src/amqpvalue_to_string.c ****                 result = NULL;
 1549              		.loc 1 326 0
 1550 07b4 0023     		movs	r3, #0
 1551 07b6 0F93     		str	r3, [sp, #60]
 1552 07b8 00F06AFC 		bl	.L10	@ far jump
 1553              	.LVL231:
 1554              	.L27:
 1555              	.LBE45:
 1556              	.LBB48:
 327:Source\azure_iot_sdk\uamqp\src/amqpvalue_to_string.c ****             }
 328:Source\azure_iot_sdk\uamqp\src/amqpvalue_to_string.c ****             break;
 329:Source\azure_iot_sdk\uamqp\src/amqpvalue_to_string.c ****         }
 330:Source\azure_iot_sdk\uamqp\src/amqpvalue_to_string.c ****         case AMQP_TYPE_UUID:
 331:Source\azure_iot_sdk\uamqp\src/amqpvalue_to_string.c ****         {
 332:Source\azure_iot_sdk\uamqp\src/amqpvalue_to_string.c ****             uuid uuid_value;
 333:Source\azure_iot_sdk\uamqp\src/amqpvalue_to_string.c ****             if (amqpvalue_get_uuid(amqp_value, &uuid_value) != 0)
 1557              		.loc 1 333 0
 1558 07bc 08A9     		add	r1, sp, #32
 1559 07be 2000     		movs	r0, r4
 1560 07c0 FFF7FEFF 		bl	amqpvalue_get_uuid
 1561              	.LVL232:
 1562 07c4 0028     		cmp	r0, #0
 1563 07c6 15D0     		beq	.L105
 1564              	.LBB49:
 334:Source\azure_iot_sdk\uamqp\src/amqpvalue_to_string.c ****             {
 335:Source\azure_iot_sdk\uamqp\src/amqpvalue_to_string.c ****                 LogError("Failure getting uuid value");
 1565              		.loc 1 335 0 discriminator 3
 1566 07c8 FFF7FEFF 		bl	xlogging_get_log_function
 1567              	.LVL233:
 1568 07cc 041E     		subs	r4, r0, #0
 1569              	.LVL234:
 1570 07ce 0AD0     		beq	.L106
 1571              		.loc 1 335 0 is_stmt 0 discriminator 4
 1572 07d0 BA4B     		ldr	r3, .L204+16
 1573 07d2 0193     		str	r3, [sp, #4]
 1574 07d4 0123     		movs	r3, #1
 1575 07d6 0093     		str	r3, [sp]
 1576 07d8 5023     		movs	r3, #80
 1577 07da FF33     		adds	r3, r3, #255
 1578 07dc B54A     		ldr	r2, .L204+8
 1579 07de 1032     		adds	r2, r2, #16
 1580 07e0 B549     		ldr	r1, .L204+12
 1581 07e2 0020     		movs	r0, #0
 1582              	.LVL235:
 1583 07e4 A047     		blx	r4
 1584              	.LVL236:
 1585              	.L106:
 1586              	.LBE49:
 336:Source\azure_iot_sdk\uamqp\src/amqpvalue_to_string.c ****                 free(result);
 1587              		.loc 1 336 0 is_stmt 1
 1588 07e6 0F98     		ldr	r0, [sp, #60]
 1589 07e8 FFF7FEFF 		bl	free
ARM GAS  C:\Users\Phuong\AppData\Local\Temp\ccU7OqD6.s 			page 35


 1590              	.LVL237:
 337:Source\azure_iot_sdk\uamqp\src/amqpvalue_to_string.c ****                 result = NULL;
 1591              		.loc 1 337 0
 1592 07ec 0023     		movs	r3, #0
 1593 07ee 0F93     		str	r3, [sp, #60]
 1594 07f0 00F04EFC 		bl	.L10	@ far jump
 1595              	.LVL238:
 1596              	.L105:
 1597              	.LBB50:
 338:Source\azure_iot_sdk\uamqp\src/amqpvalue_to_string.c ****             }
 339:Source\azure_iot_sdk\uamqp\src/amqpvalue_to_string.c ****             else
 340:Source\azure_iot_sdk\uamqp\src/amqpvalue_to_string.c ****             {
 341:Source\azure_iot_sdk\uamqp\src/amqpvalue_to_string.c ****                 char* uuid_string_value = UUID_to_string((const UUID_T *)&uuid_value);
 1598              		.loc 1 341 0
 1599 07f4 08A8     		add	r0, sp, #32
 1600 07f6 FFF7FEFF 		bl	UUID_to_string
 1601              	.LVL239:
 1602 07fa 041E     		subs	r4, r0, #0
 1603              	.LVL240:
 342:Source\azure_iot_sdk\uamqp\src/amqpvalue_to_string.c ****                 if (uuid_string_value == NULL)
 1604              		.loc 1 342 0
 1605 07fc 15D1     		bne	.L108
 1606              	.LBB51:
 343:Source\azure_iot_sdk\uamqp\src/amqpvalue_to_string.c ****                 {
 344:Source\azure_iot_sdk\uamqp\src/amqpvalue_to_string.c ****                     LogError("Failure getting UUID stringified value");
 1607              		.loc 1 344 0 discriminator 3
 1608 07fe FFF7FEFF 		bl	xlogging_get_log_function
 1609              	.LVL241:
 1610 0802 041E     		subs	r4, r0, #0
 1611              	.LVL242:
 1612 0804 0AD0     		beq	.L109
 1613              		.loc 1 344 0 is_stmt 0 discriminator 4
 1614 0806 AE4B     		ldr	r3, .L204+20
 1615 0808 0193     		str	r3, [sp, #4]
 1616 080a 0123     		movs	r3, #1
 1617 080c 0093     		str	r3, [sp]
 1618 080e 5833     		adds	r3, r3, #88
 1619 0810 FF33     		adds	r3, r3, #255
 1620 0812 A84A     		ldr	r2, .L204+8
 1621 0814 1032     		adds	r2, r2, #16
 1622 0816 A849     		ldr	r1, .L204+12
 1623 0818 0020     		movs	r0, #0
 1624              	.LVL243:
 1625 081a A047     		blx	r4
 1626              	.LVL244:
 1627              	.L109:
 1628              	.LBE51:
 345:Source\azure_iot_sdk\uamqp\src/amqpvalue_to_string.c ****                     free(result);
 1629              		.loc 1 345 0 is_stmt 1
 1630 081c 0F98     		ldr	r0, [sp, #60]
 1631 081e FFF7FEFF 		bl	free
 1632              	.LVL245:
 346:Source\azure_iot_sdk\uamqp\src/amqpvalue_to_string.c ****                     result = NULL;
 1633              		.loc 1 346 0
 1634 0822 0023     		movs	r3, #0
 1635 0824 0F93     		str	r3, [sp, #60]
 1636 0826 00F033FC 		bl	.L10	@ far jump
ARM GAS  C:\Users\Phuong\AppData\Local\Temp\ccU7OqD6.s 			page 36


 1637              	.LVL246:
 1638              	.L108:
 347:Source\azure_iot_sdk\uamqp\src/amqpvalue_to_string.c ****                 }
 348:Source\azure_iot_sdk\uamqp\src/amqpvalue_to_string.c ****                 else
 349:Source\azure_iot_sdk\uamqp\src/amqpvalue_to_string.c ****                 {
 350:Source\azure_iot_sdk\uamqp\src/amqpvalue_to_string.c ****                     if (string_concat(&result, uuid_string_value) != 0)
 1639              		.loc 1 350 0
 1640 082a 0100     		movs	r1, r0
 1641 082c 0FA8     		add	r0, sp, #60
 1642              	.LVL247:
 1643 082e FFF7FEFF 		bl	string_concat
 1644              	.LVL248:
 1645 0832 0028     		cmp	r0, #0
 1646 0834 13D0     		beq	.L110
 1647              	.LBB52:
 351:Source\azure_iot_sdk\uamqp\src/amqpvalue_to_string.c ****                     {
 352:Source\azure_iot_sdk\uamqp\src/amqpvalue_to_string.c ****                         LogError("Failure building amqp value string");
 1648              		.loc 1 352 0 discriminator 3
 1649 0836 FFF7FEFF 		bl	xlogging_get_log_function
 1650              	.LVL249:
 1651 083a 051E     		subs	r5, r0, #0
 1652              	.LVL250:
 1653 083c 0AD0     		beq	.L111
 1654              		.loc 1 352 0 is_stmt 0 discriminator 4
 1655 083e 9C4B     		ldr	r3, .L204+4
 1656 0840 0193     		str	r3, [sp, #4]
 1657 0842 0123     		movs	r3, #1
 1658 0844 0093     		str	r3, [sp]
 1659 0846 6033     		adds	r3, r3, #96
 1660 0848 FF33     		adds	r3, r3, #255
 1661 084a 9A4A     		ldr	r2, .L204+8
 1662 084c 1032     		adds	r2, r2, #16
 1663 084e 9A49     		ldr	r1, .L204+12
 1664 0850 0020     		movs	r0, #0
 1665              	.LVL251:
 1666 0852 A847     		blx	r5
 1667              	.LVL252:
 1668              	.L111:
 1669              	.LBE52:
 353:Source\azure_iot_sdk\uamqp\src/amqpvalue_to_string.c ****                         free(result);
 1670              		.loc 1 353 0 is_stmt 1
 1671 0854 0F98     		ldr	r0, [sp, #60]
 1672 0856 FFF7FEFF 		bl	free
 1673              	.LVL253:
 354:Source\azure_iot_sdk\uamqp\src/amqpvalue_to_string.c ****                         result = NULL;
 1674              		.loc 1 354 0
 1675 085a 0023     		movs	r3, #0
 1676 085c 0F93     		str	r3, [sp, #60]
 1677              	.LVL254:
 1678              	.L110:
 355:Source\azure_iot_sdk\uamqp\src/amqpvalue_to_string.c ****                     }
 356:Source\azure_iot_sdk\uamqp\src/amqpvalue_to_string.c **** 
 357:Source\azure_iot_sdk\uamqp\src/amqpvalue_to_string.c ****                     free(uuid_string_value);
 1679              		.loc 1 357 0
 1680 085e 2000     		movs	r0, r4
 1681 0860 FFF7FEFF 		bl	free
 1682              	.LVL255:
ARM GAS  C:\Users\Phuong\AppData\Local\Temp\ccU7OqD6.s 			page 37


 1683 0864 00F014FC 		bl	.L10	@ far jump
 1684              	.LVL256:
 1685              	.L28:
 1686              	.LBE50:
 1687              	.LBE48:
 1688              	.LBB53:
 358:Source\azure_iot_sdk\uamqp\src/amqpvalue_to_string.c ****                 }
 359:Source\azure_iot_sdk\uamqp\src/amqpvalue_to_string.c ****             }
 360:Source\azure_iot_sdk\uamqp\src/amqpvalue_to_string.c **** 
 361:Source\azure_iot_sdk\uamqp\src/amqpvalue_to_string.c ****             break;
 362:Source\azure_iot_sdk\uamqp\src/amqpvalue_to_string.c ****         }
 363:Source\azure_iot_sdk\uamqp\src/amqpvalue_to_string.c **** 
 364:Source\azure_iot_sdk\uamqp\src/amqpvalue_to_string.c ****         case AMQP_TYPE_BINARY:
 365:Source\azure_iot_sdk\uamqp\src/amqpvalue_to_string.c ****         {
 366:Source\azure_iot_sdk\uamqp\src/amqpvalue_to_string.c ****             amqp_binary binary_value;
 367:Source\azure_iot_sdk\uamqp\src/amqpvalue_to_string.c ****             if (amqpvalue_get_binary(amqp_value, &binary_value) != 0)
 1689              		.loc 1 367 0
 1690 0868 08A9     		add	r1, sp, #32
 1691 086a 2000     		movs	r0, r4
 1692 086c FFF7FEFF 		bl	amqpvalue_get_binary
 1693              	.LVL257:
 1694 0870 0028     		cmp	r0, #0
 1695 0872 15D0     		beq	.L112
 1696              	.LBB54:
 368:Source\azure_iot_sdk\uamqp\src/amqpvalue_to_string.c ****             {
 369:Source\azure_iot_sdk\uamqp\src/amqpvalue_to_string.c ****                 LogError("Failure getting binary value");
 1697              		.loc 1 369 0 discriminator 3
 1698 0874 FFF7FEFF 		bl	xlogging_get_log_function
 1699              	.LVL258:
 1700 0878 041E     		subs	r4, r0, #0
 1701              	.LVL259:
 1702 087a 0AD0     		beq	.L113
 1703              		.loc 1 369 0 is_stmt 0 discriminator 4
 1704 087c 914B     		ldr	r3, .L204+24
 1705 087e 0193     		str	r3, [sp, #4]
 1706 0880 0123     		movs	r3, #1
 1707 0882 0093     		str	r3, [sp]
 1708 0884 7223     		movs	r3, #114
 1709 0886 FF33     		adds	r3, r3, #255
 1710 0888 8A4A     		ldr	r2, .L204+8
 1711 088a 1032     		adds	r2, r2, #16
 1712 088c 8A49     		ldr	r1, .L204+12
 1713 088e 0020     		movs	r0, #0
 1714              	.LVL260:
 1715 0890 A047     		blx	r4
 1716              	.LVL261:
 1717              	.L113:
 1718              	.LBE54:
 370:Source\azure_iot_sdk\uamqp\src/amqpvalue_to_string.c ****                 free(result);
 1719              		.loc 1 370 0 is_stmt 1
 1720 0892 0F98     		ldr	r0, [sp, #60]
 1721 0894 FFF7FEFF 		bl	free
 1722              	.LVL262:
 371:Source\azure_iot_sdk\uamqp\src/amqpvalue_to_string.c ****                 result = NULL;
 1723              		.loc 1 371 0
 1724 0898 0023     		movs	r3, #0
 1725 089a 0F93     		str	r3, [sp, #60]
ARM GAS  C:\Users\Phuong\AppData\Local\Temp\ccU7OqD6.s 			page 38


 1726 089c 00F0F8FB 		bl	.L10	@ far jump
 1727              	.LVL263:
 1728              	.L112:
 372:Source\azure_iot_sdk\uamqp\src/amqpvalue_to_string.c ****             }
 373:Source\azure_iot_sdk\uamqp\src/amqpvalue_to_string.c ****             else
 374:Source\azure_iot_sdk\uamqp\src/amqpvalue_to_string.c ****             {
 375:Source\azure_iot_sdk\uamqp\src/amqpvalue_to_string.c ****                 if (string_concat(&result, "<") != 0)
 1729              		.loc 1 375 0
 1730 08a0 8949     		ldr	r1, .L204+28
 1731 08a2 0FA8     		add	r0, sp, #60
 1732 08a4 FFF7FEFF 		bl	string_concat
 1733              	.LVL264:
 1734 08a8 0028     		cmp	r0, #0
 1735 08aa 31D0     		beq	.L194
 1736              	.LBB55:
 376:Source\azure_iot_sdk\uamqp\src/amqpvalue_to_string.c ****                 {
 377:Source\azure_iot_sdk\uamqp\src/amqpvalue_to_string.c ****                     LogError("Failure building amqp value string");
 1737              		.loc 1 377 0 discriminator 3
 1738 08ac FFF7FEFF 		bl	xlogging_get_log_function
 1739              	.LVL265:
 1740 08b0 041E     		subs	r4, r0, #0
 1741              	.LVL266:
 1742 08b2 0AD0     		beq	.L116
 1743              		.loc 1 377 0 is_stmt 0 discriminator 4
 1744 08b4 7E4B     		ldr	r3, .L204+4
 1745 08b6 0193     		str	r3, [sp, #4]
 1746 08b8 0123     		movs	r3, #1
 1747 08ba 0093     		str	r3, [sp]
 1748 08bc 7A23     		movs	r3, #122
 1749 08be FF33     		adds	r3, r3, #255
 1750 08c0 7C4A     		ldr	r2, .L204+8
 1751 08c2 1032     		adds	r2, r2, #16
 1752 08c4 7C49     		ldr	r1, .L204+12
 1753 08c6 0020     		movs	r0, #0
 1754              	.LVL267:
 1755 08c8 A047     		blx	r4
 1756              	.LVL268:
 1757              	.L116:
 1758              	.LBE55:
 378:Source\azure_iot_sdk\uamqp\src/amqpvalue_to_string.c ****                     free(result);
 1759              		.loc 1 378 0 is_stmt 1
 1760 08ca 0F98     		ldr	r0, [sp, #60]
 1761 08cc FFF7FEFF 		bl	free
 1762              	.LVL269:
 379:Source\azure_iot_sdk\uamqp\src/amqpvalue_to_string.c ****                     result = NULL;
 1763              		.loc 1 379 0
 1764 08d0 0023     		movs	r3, #0
 1765 08d2 0F93     		str	r3, [sp, #60]
 1766 08d4 00F0DCFB 		bl	.L10	@ far jump
 1767              	.LVL270:
 1768              	.L121:
 1769              	.LBB56:
 1770              	.LBB57:
 380:Source\azure_iot_sdk\uamqp\src/amqpvalue_to_string.c ****                 }
 381:Source\azure_iot_sdk\uamqp\src/amqpvalue_to_string.c ****                 else
 382:Source\azure_iot_sdk\uamqp\src/amqpvalue_to_string.c ****                 {
 383:Source\azure_iot_sdk\uamqp\src/amqpvalue_to_string.c ****                     uint64_t i;
ARM GAS  C:\Users\Phuong\AppData\Local\Temp\ccU7OqD6.s 			page 39


 384:Source\azure_iot_sdk\uamqp\src/amqpvalue_to_string.c **** 
 385:Source\azure_iot_sdk\uamqp\src/amqpvalue_to_string.c ****                     for (i = 0; i < binary_value.length; i++)
 386:Source\azure_iot_sdk\uamqp\src/amqpvalue_to_string.c ****                     {
 387:Source\azure_iot_sdk\uamqp\src/amqpvalue_to_string.c ****                         char str_value[4];
 388:Source\azure_iot_sdk\uamqp\src/amqpvalue_to_string.c ****                         if ((snprintf(str_value, sizeof(str_value), "%s%02X", (i > 0) ? " " : "", (
 1771              		.loc 1 388 0
 1772 08d8 2300     		movs	r3, r4
 1773 08da 2B43     		orrs	r3, r5
 1774 08dc 01D0     		beq	.L195
 1775 08de 7B4B     		ldr	r3, .L204+32
 1776 08e0 00E0     		b	.L117
 1777              	.L195:
 1778 08e2 7B4B     		ldr	r3, .L204+36
 1779              	.L117:
 1780              		.loc 1 388 0 is_stmt 0 discriminator 4
 1781 08e4 089A     		ldr	r2, [sp, #32]
 1782 08e6 1219     		adds	r2, r2, r4
 1783 08e8 1278     		ldrb	r2, [r2]
 1784 08ea 0092     		str	r2, [sp]
 1785 08ec 794A     		ldr	r2, .L204+40
 1786 08ee 0421     		movs	r1, #4
 1787 08f0 06A8     		add	r0, sp, #24
 1788 08f2 FFF7FEFF 		bl	snprintf
 1789              	.LVL271:
 1790 08f6 0028     		cmp	r0, #0
 1791 08f8 11DB     		blt	.L120
 389:Source\azure_iot_sdk\uamqp\src/amqpvalue_to_string.c ****                             (string_concat(&result, str_value) != 0))
 1792              		.loc 1 389 0 is_stmt 1 discriminator 5
 1793 08fa 06A9     		add	r1, sp, #24
 1794 08fc 0FA8     		add	r0, sp, #60
 1795 08fe FFF7FEFF 		bl	string_concat
 1796              	.LVL272:
 388:Source\azure_iot_sdk\uamqp\src/amqpvalue_to_string.c ****                             (string_concat(&result, str_value) != 0))
 1797              		.loc 1 388 0 discriminator 5
 1798 0902 0028     		cmp	r0, #0
 1799 0904 0BD1     		bne	.L120
 1800              	.LBE57:
 385:Source\azure_iot_sdk\uamqp\src/amqpvalue_to_string.c ****                     {
 1801              		.loc 1 385 0
 1802 0906 0122     		movs	r2, #1
 1803 0908 0023     		movs	r3, #0
 1804 090a A418     		adds	r4, r4, r2
 1805 090c 5D41     		adcs	r5, r5, r3
 1806              	.LVL273:
 1807 090e 01E0     		b	.L115
 1808              	.LVL274:
 1809              	.L194:
 1810              	.LBE56:
 1811 0910 0024     		movs	r4, #0
 1812              	.LVL275:
 1813 0912 0025     		movs	r5, #0
 1814              	.L115:
 1815              	.LVL276:
 1816              	.LBB59:
 385:Source\azure_iot_sdk\uamqp\src/amqpvalue_to_string.c ****                     {
 1817              		.loc 1 385 0 is_stmt 0 discriminator 1
 1818 0914 099B     		ldr	r3, [sp, #36]
ARM GAS  C:\Users\Phuong\AppData\Local\Temp\ccU7OqD6.s 			page 40


 1819 0916 002D     		cmp	r5, #0
 1820 0918 01D1     		bne	.L120
 1821 091a A342     		cmp	r3, r4
 1822 091c DCD8     		bhi	.L121
 1823              	.L120:
 390:Source\azure_iot_sdk\uamqp\src/amqpvalue_to_string.c ****                         {
 391:Source\azure_iot_sdk\uamqp\src/amqpvalue_to_string.c ****                             break;
 392:Source\azure_iot_sdk\uamqp\src/amqpvalue_to_string.c ****                         }
 393:Source\azure_iot_sdk\uamqp\src/amqpvalue_to_string.c ****                     }
 394:Source\azure_iot_sdk\uamqp\src/amqpvalue_to_string.c **** 
 395:Source\azure_iot_sdk\uamqp\src/amqpvalue_to_string.c ****                     if ((i < binary_value.length) ||
 1824              		.loc 1 395 0 is_stmt 1
 1825 091e 099B     		ldr	r3, [sp, #36]
 1826 0920 002D     		cmp	r5, #0
 1827 0922 01D1     		bne	.L199
 1828 0924 A342     		cmp	r3, r4
 1829 0926 06D8     		bhi	.L123
 1830              	.L199:
 396:Source\azure_iot_sdk\uamqp\src/amqpvalue_to_string.c ****                         (string_concat(&result, ">") != 0))
 1831              		.loc 1 396 0 discriminator 1
 1832 0928 6B49     		ldr	r1, .L204+44
 1833 092a 0FA8     		add	r0, sp, #60
 1834 092c FFF7FEFF 		bl	string_concat
 1835              	.LVL277:
 395:Source\azure_iot_sdk\uamqp\src/amqpvalue_to_string.c ****                         (string_concat(&result, ">") != 0))
 1836              		.loc 1 395 0 discriminator 1
 1837 0930 0028     		cmp	r0, #0
 1838 0932 00D1     		bne	.LCB1784
 1839 0934 ACE3     		b	.L10	@long jump
 1840              	.LCB1784:
 1841              	.L123:
 1842              	.LBB58:
 397:Source\azure_iot_sdk\uamqp\src/amqpvalue_to_string.c ****                     {
 398:Source\azure_iot_sdk\uamqp\src/amqpvalue_to_string.c ****                         LogError("Failure building amqp value string");
 1843              		.loc 1 398 0 discriminator 3
 1844 0936 FFF7FEFF 		bl	xlogging_get_log_function
 1845              	.LVL278:
 1846 093a 041E     		subs	r4, r0, #0
 1847              	.LVL279:
 1848 093c 0AD0     		beq	.L125
 1849              		.loc 1 398 0 is_stmt 0 discriminator 4
 1850 093e 5C4B     		ldr	r3, .L204+4
 1851 0940 0193     		str	r3, [sp, #4]
 1852 0942 0123     		movs	r3, #1
 1853 0944 0093     		str	r3, [sp]
 1854 0946 8E33     		adds	r3, r3, #142
 1855 0948 FF33     		adds	r3, r3, #255
 1856 094a 5A4A     		ldr	r2, .L204+8
 1857 094c 1032     		adds	r2, r2, #16
 1858 094e 5A49     		ldr	r1, .L204+12
 1859 0950 0020     		movs	r0, #0
 1860              	.LVL280:
 1861 0952 A047     		blx	r4
 1862              	.LVL281:
 1863              	.L125:
 1864              	.LBE58:
 399:Source\azure_iot_sdk\uamqp\src/amqpvalue_to_string.c ****                         free(result);
ARM GAS  C:\Users\Phuong\AppData\Local\Temp\ccU7OqD6.s 			page 41


 1865              		.loc 1 399 0 is_stmt 1
 1866 0954 0F98     		ldr	r0, [sp, #60]
 1867 0956 FFF7FEFF 		bl	free
 1868              	.LVL282:
 400:Source\azure_iot_sdk\uamqp\src/amqpvalue_to_string.c ****                         result = NULL;
 1869              		.loc 1 400 0
 1870 095a 0023     		movs	r3, #0
 1871 095c 0F93     		str	r3, [sp, #60]
 1872 095e 97E3     		b	.L10
 1873              	.LVL283:
 1874              	.L29:
 1875              	.LBE59:
 1876              	.LBE53:
 1877              	.LBB60:
 401:Source\azure_iot_sdk\uamqp\src/amqpvalue_to_string.c ****                     }
 402:Source\azure_iot_sdk\uamqp\src/amqpvalue_to_string.c ****                 }
 403:Source\azure_iot_sdk\uamqp\src/amqpvalue_to_string.c ****             }
 404:Source\azure_iot_sdk\uamqp\src/amqpvalue_to_string.c ****             break;
 405:Source\azure_iot_sdk\uamqp\src/amqpvalue_to_string.c ****         }
 406:Source\azure_iot_sdk\uamqp\src/amqpvalue_to_string.c ****         case AMQP_TYPE_STRING:
 407:Source\azure_iot_sdk\uamqp\src/amqpvalue_to_string.c ****         {
 408:Source\azure_iot_sdk\uamqp\src/amqpvalue_to_string.c ****             const char* string_value;
 409:Source\azure_iot_sdk\uamqp\src/amqpvalue_to_string.c ****             if (amqpvalue_get_string(amqp_value, &string_value) != 0)
 1878              		.loc 1 409 0
 1879 0960 08A9     		add	r1, sp, #32
 1880 0962 2000     		movs	r0, r4
 1881 0964 FFF7FEFF 		bl	amqpvalue_get_string
 1882              	.LVL284:
 1883 0968 0028     		cmp	r0, #0
 1884 096a 14D0     		beq	.L126
 1885              	.LBB61:
 410:Source\azure_iot_sdk\uamqp\src/amqpvalue_to_string.c ****             {
 411:Source\azure_iot_sdk\uamqp\src/amqpvalue_to_string.c ****                 LogError("Failure getting string value");
 1886              		.loc 1 411 0 discriminator 3
 1887 096c FFF7FEFF 		bl	xlogging_get_log_function
 1888              	.LVL285:
 1889 0970 041E     		subs	r4, r0, #0
 1890              	.LVL286:
 1891 0972 0AD0     		beq	.L127
 1892              		.loc 1 411 0 is_stmt 0 discriminator 4
 1893 0974 594B     		ldr	r3, .L204+48
 1894 0976 0193     		str	r3, [sp, #4]
 1895 0978 0123     		movs	r3, #1
 1896 097a 0093     		str	r3, [sp]
 1897 097c 9C23     		movs	r3, #156
 1898 097e FF33     		adds	r3, r3, #255
 1899 0980 4C4A     		ldr	r2, .L204+8
 1900 0982 1032     		adds	r2, r2, #16
 1901 0984 4C49     		ldr	r1, .L204+12
 1902 0986 0020     		movs	r0, #0
 1903              	.LVL287:
 1904 0988 A047     		blx	r4
 1905              	.LVL288:
 1906              	.L127:
 1907              	.LBE61:
 412:Source\azure_iot_sdk\uamqp\src/amqpvalue_to_string.c ****                 free(result);
 1908              		.loc 1 412 0 is_stmt 1
ARM GAS  C:\Users\Phuong\AppData\Local\Temp\ccU7OqD6.s 			page 42


 1909 098a 0F98     		ldr	r0, [sp, #60]
 1910 098c FFF7FEFF 		bl	free
 1911              	.LVL289:
 413:Source\azure_iot_sdk\uamqp\src/amqpvalue_to_string.c ****                 result = NULL;
 1912              		.loc 1 413 0
 1913 0990 0023     		movs	r3, #0
 1914 0992 0F93     		str	r3, [sp, #60]
 1915 0994 7CE3     		b	.L10
 1916              	.LVL290:
 1917              	.L126:
 414:Source\azure_iot_sdk\uamqp\src/amqpvalue_to_string.c ****             }
 415:Source\azure_iot_sdk\uamqp\src/amqpvalue_to_string.c ****             else
 416:Source\azure_iot_sdk\uamqp\src/amqpvalue_to_string.c ****             {
 417:Source\azure_iot_sdk\uamqp\src/amqpvalue_to_string.c ****                 if (string_concat(&result, string_value) != 0)
 1918              		.loc 1 417 0
 1919 0996 0899     		ldr	r1, [sp, #32]
 1920 0998 0FA8     		add	r0, sp, #60
 1921 099a FFF7FEFF 		bl	string_concat
 1922              	.LVL291:
 1923 099e 0028     		cmp	r0, #0
 1924 09a0 00D1     		bne	.LCB1871
 1925 09a2 75E3     		b	.L10	@long jump
 1926              	.LCB1871:
 1927              	.LBB62:
 418:Source\azure_iot_sdk\uamqp\src/amqpvalue_to_string.c ****                 {
 419:Source\azure_iot_sdk\uamqp\src/amqpvalue_to_string.c ****                     LogError("Failure building amqp value string");
 1928              		.loc 1 419 0 discriminator 3
 1929 09a4 FFF7FEFF 		bl	xlogging_get_log_function
 1930              	.LVL292:
 1931 09a8 041E     		subs	r4, r0, #0
 1932              	.LVL293:
 1933 09aa 0AD0     		beq	.L129
 1934              		.loc 1 419 0 is_stmt 0 discriminator 4
 1935 09ac 404B     		ldr	r3, .L204+4
 1936 09ae 0193     		str	r3, [sp, #4]
 1937 09b0 0123     		movs	r3, #1
 1938 09b2 0093     		str	r3, [sp]
 1939 09b4 A423     		movs	r3, #164
 1940 09b6 FF33     		adds	r3, r3, #255
 1941 09b8 3E4A     		ldr	r2, .L204+8
 1942 09ba 1032     		adds	r2, r2, #16
 1943 09bc 3E49     		ldr	r1, .L204+12
 1944 09be 0020     		movs	r0, #0
 1945              	.LVL294:
 1946 09c0 A047     		blx	r4
 1947              	.LVL295:
 1948              	.L129:
 1949              	.LBE62:
 420:Source\azure_iot_sdk\uamqp\src/amqpvalue_to_string.c ****                     free(result);
 1950              		.loc 1 420 0 is_stmt 1
 1951 09c2 0F98     		ldr	r0, [sp, #60]
 1952 09c4 FFF7FEFF 		bl	free
 1953              	.LVL296:
 421:Source\azure_iot_sdk\uamqp\src/amqpvalue_to_string.c ****                     result = NULL;
 1954              		.loc 1 421 0
 1955 09c8 0023     		movs	r3, #0
 1956 09ca 0F93     		str	r3, [sp, #60]
ARM GAS  C:\Users\Phuong\AppData\Local\Temp\ccU7OqD6.s 			page 43


 1957 09cc 60E3     		b	.L10
 1958              	.LVL297:
 1959              	.L30:
 1960              	.LBE60:
 1961              	.LBB63:
 422:Source\azure_iot_sdk\uamqp\src/amqpvalue_to_string.c ****                 }
 423:Source\azure_iot_sdk\uamqp\src/amqpvalue_to_string.c ****             }
 424:Source\azure_iot_sdk\uamqp\src/amqpvalue_to_string.c ****             break;
 425:Source\azure_iot_sdk\uamqp\src/amqpvalue_to_string.c ****         }
 426:Source\azure_iot_sdk\uamqp\src/amqpvalue_to_string.c ****         case AMQP_TYPE_SYMBOL:
 427:Source\azure_iot_sdk\uamqp\src/amqpvalue_to_string.c ****         {
 428:Source\azure_iot_sdk\uamqp\src/amqpvalue_to_string.c ****             const char* string_value;
 429:Source\azure_iot_sdk\uamqp\src/amqpvalue_to_string.c ****             if (amqpvalue_get_symbol(amqp_value, &string_value) != 0)
 1962              		.loc 1 429 0
 1963 09ce 08A9     		add	r1, sp, #32
 1964 09d0 2000     		movs	r0, r4
 1965 09d2 FFF7FEFF 		bl	amqpvalue_get_symbol
 1966              	.LVL298:
 1967 09d6 0028     		cmp	r0, #0
 1968 09d8 14D0     		beq	.L130
 1969              	.LBB64:
 430:Source\azure_iot_sdk\uamqp\src/amqpvalue_to_string.c ****             {
 431:Source\azure_iot_sdk\uamqp\src/amqpvalue_to_string.c ****                 LogError("Failure getting symbol value");
 1970              		.loc 1 431 0 discriminator 3
 1971 09da FFF7FEFF 		bl	xlogging_get_log_function
 1972              	.LVL299:
 1973 09de 041E     		subs	r4, r0, #0
 1974              	.LVL300:
 1975 09e0 0AD0     		beq	.L131
 1976              		.loc 1 431 0 is_stmt 0 discriminator 4
 1977 09e2 3F4B     		ldr	r3, .L204+52
 1978 09e4 0193     		str	r3, [sp, #4]
 1979 09e6 0123     		movs	r3, #1
 1980 09e8 0093     		str	r3, [sp]
 1981 09ea B023     		movs	r3, #176
 1982 09ec FF33     		adds	r3, r3, #255
 1983 09ee 314A     		ldr	r2, .L204+8
 1984 09f0 1032     		adds	r2, r2, #16
 1985 09f2 3149     		ldr	r1, .L204+12
 1986 09f4 0020     		movs	r0, #0
 1987              	.LVL301:
 1988 09f6 A047     		blx	r4
 1989              	.LVL302:
 1990              	.L131:
 1991              	.LBE64:
 432:Source\azure_iot_sdk\uamqp\src/amqpvalue_to_string.c ****                 free(result);
 1992              		.loc 1 432 0 is_stmt 1
 1993 09f8 0F98     		ldr	r0, [sp, #60]
 1994 09fa FFF7FEFF 		bl	free
 1995              	.LVL303:
 433:Source\azure_iot_sdk\uamqp\src/amqpvalue_to_string.c ****                 result = NULL;
 1996              		.loc 1 433 0
 1997 09fe 0023     		movs	r3, #0
 1998 0a00 0F93     		str	r3, [sp, #60]
 1999 0a02 45E3     		b	.L10
 2000              	.LVL304:
 2001              	.L130:
ARM GAS  C:\Users\Phuong\AppData\Local\Temp\ccU7OqD6.s 			page 44


 434:Source\azure_iot_sdk\uamqp\src/amqpvalue_to_string.c ****             }
 435:Source\azure_iot_sdk\uamqp\src/amqpvalue_to_string.c ****             else
 436:Source\azure_iot_sdk\uamqp\src/amqpvalue_to_string.c ****             {
 437:Source\azure_iot_sdk\uamqp\src/amqpvalue_to_string.c ****                 if (string_concat(&result, string_value) != 0)
 2002              		.loc 1 437 0
 2003 0a04 0899     		ldr	r1, [sp, #32]
 2004 0a06 0FA8     		add	r0, sp, #60
 2005 0a08 FFF7FEFF 		bl	string_concat
 2006              	.LVL305:
 2007 0a0c 0028     		cmp	r0, #0
 2008 0a0e 00D1     		bne	.LCB1955
 2009 0a10 3EE3     		b	.L10	@long jump
 2010              	.LCB1955:
 2011              	.LBB65:
 438:Source\azure_iot_sdk\uamqp\src/amqpvalue_to_string.c ****                 {
 439:Source\azure_iot_sdk\uamqp\src/amqpvalue_to_string.c ****                     LogError("Failure building amqp value string");
 2012              		.loc 1 439 0 discriminator 3
 2013 0a12 FFF7FEFF 		bl	xlogging_get_log_function
 2014              	.LVL306:
 2015 0a16 041E     		subs	r4, r0, #0
 2016              	.LVL307:
 2017 0a18 0AD0     		beq	.L133
 2018              		.loc 1 439 0 is_stmt 0 discriminator 4
 2019 0a1a 254B     		ldr	r3, .L204+4
 2020 0a1c 0193     		str	r3, [sp, #4]
 2021 0a1e 0123     		movs	r3, #1
 2022 0a20 0093     		str	r3, [sp]
 2023 0a22 B823     		movs	r3, #184
 2024 0a24 FF33     		adds	r3, r3, #255
 2025 0a26 234A     		ldr	r2, .L204+8
 2026 0a28 1032     		adds	r2, r2, #16
 2027 0a2a 2349     		ldr	r1, .L204+12
 2028 0a2c 0020     		movs	r0, #0
 2029              	.LVL308:
 2030 0a2e A047     		blx	r4
 2031              	.LVL309:
 2032              	.L133:
 2033              	.LBE65:
 440:Source\azure_iot_sdk\uamqp\src/amqpvalue_to_string.c ****                     free(result);
 2034              		.loc 1 440 0 is_stmt 1
 2035 0a30 0F98     		ldr	r0, [sp, #60]
 2036 0a32 FFF7FEFF 		bl	free
 2037              	.LVL310:
 441:Source\azure_iot_sdk\uamqp\src/amqpvalue_to_string.c ****                     result = NULL;
 2038              		.loc 1 441 0
 2039 0a36 0023     		movs	r3, #0
 2040 0a38 0F93     		str	r3, [sp, #60]
 2041 0a3a 29E3     		b	.L10
 2042              	.LVL311:
 2043              	.L31:
 2044              	.LBE63:
 2045              	.LBB66:
 442:Source\azure_iot_sdk\uamqp\src/amqpvalue_to_string.c ****                 }
 443:Source\azure_iot_sdk\uamqp\src/amqpvalue_to_string.c ****             }
 444:Source\azure_iot_sdk\uamqp\src/amqpvalue_to_string.c ****             break;
 445:Source\azure_iot_sdk\uamqp\src/amqpvalue_to_string.c ****         }
 446:Source\azure_iot_sdk\uamqp\src/amqpvalue_to_string.c ****         case AMQP_TYPE_LIST:
ARM GAS  C:\Users\Phuong\AppData\Local\Temp\ccU7OqD6.s 			page 45


 447:Source\azure_iot_sdk\uamqp\src/amqpvalue_to_string.c ****         {
 448:Source\azure_iot_sdk\uamqp\src/amqpvalue_to_string.c ****             uint32_t count;
 449:Source\azure_iot_sdk\uamqp\src/amqpvalue_to_string.c ****             if (amqpvalue_get_list_item_count(amqp_value, &count) != 0)
 2046              		.loc 1 449 0
 2047 0a3c 08A9     		add	r1, sp, #32
 2048 0a3e 2000     		movs	r0, r4
 2049 0a40 FFF7FEFF 		bl	amqpvalue_get_list_item_count
 2050              	.LVL312:
 2051 0a44 0028     		cmp	r0, #0
 2052 0a46 14D0     		beq	.L134
 2053              	.LBB67:
 450:Source\azure_iot_sdk\uamqp\src/amqpvalue_to_string.c ****             {
 451:Source\azure_iot_sdk\uamqp\src/amqpvalue_to_string.c ****                 LogError("Failure getting list item count value");
 2054              		.loc 1 451 0 discriminator 3
 2055 0a48 FFF7FEFF 		bl	xlogging_get_log_function
 2056              	.LVL313:
 2057 0a4c 041E     		subs	r4, r0, #0
 2058              	.LVL314:
 2059 0a4e 0AD0     		beq	.L135
 2060              		.loc 1 451 0 is_stmt 0 discriminator 4
 2061 0a50 244B     		ldr	r3, .L204+56
 2062 0a52 0193     		str	r3, [sp, #4]
 2063 0a54 0123     		movs	r3, #1
 2064 0a56 0093     		str	r3, [sp]
 2065 0a58 C423     		movs	r3, #196
 2066 0a5a FF33     		adds	r3, r3, #255
 2067 0a5c 154A     		ldr	r2, .L204+8
 2068 0a5e 1032     		adds	r2, r2, #16
 2069 0a60 1549     		ldr	r1, .L204+12
 2070 0a62 0020     		movs	r0, #0
 2071              	.LVL315:
 2072 0a64 A047     		blx	r4
 2073              	.LVL316:
 2074              	.L135:
 2075              	.LBE67:
 452:Source\azure_iot_sdk\uamqp\src/amqpvalue_to_string.c ****                 free(result);
 2076              		.loc 1 452 0 is_stmt 1
 2077 0a66 0F98     		ldr	r0, [sp, #60]
 2078 0a68 FFF7FEFF 		bl	free
 2079              	.LVL317:
 453:Source\azure_iot_sdk\uamqp\src/amqpvalue_to_string.c ****                 result = NULL;
 2080              		.loc 1 453 0
 2081 0a6c 0023     		movs	r3, #0
 2082 0a6e 0F93     		str	r3, [sp, #60]
 2083 0a70 0EE3     		b	.L10
 2084              	.LVL318:
 2085              	.L134:
 454:Source\azure_iot_sdk\uamqp\src/amqpvalue_to_string.c ****             }
 455:Source\azure_iot_sdk\uamqp\src/amqpvalue_to_string.c ****             else if (string_concat(&result, "{") != 0)
 2086              		.loc 1 455 0
 2087 0a72 1D49     		ldr	r1, .L204+60
 2088 0a74 0FA8     		add	r0, sp, #60
 2089 0a76 FFF7FEFF 		bl	string_concat
 2090              	.LVL319:
 2091 0a7a 0028     		cmp	r0, #0
 2092 0a7c 00D1     		bne	.LCB2039
 2093 0a7e 8FE0     		b	.L196	@long jump
ARM GAS  C:\Users\Phuong\AppData\Local\Temp\ccU7OqD6.s 			page 46


 2094              	.LCB2039:
 2095              	.LBB68:
 456:Source\azure_iot_sdk\uamqp\src/amqpvalue_to_string.c ****             {
 457:Source\azure_iot_sdk\uamqp\src/amqpvalue_to_string.c ****                 LogError("Failure building amqp value string");
 2096              		.loc 1 457 0 discriminator 3
 2097 0a80 FFF7FEFF 		bl	xlogging_get_log_function
 2098              	.LVL320:
 2099 0a84 041E     		subs	r4, r0, #0
 2100              	.LVL321:
 2101 0a86 0AD0     		beq	.L138
 2102              		.loc 1 457 0 is_stmt 0 discriminator 4
 2103 0a88 094B     		ldr	r3, .L204+4
 2104 0a8a 0193     		str	r3, [sp, #4]
 2105 0a8c 0123     		movs	r3, #1
 2106 0a8e 0093     		str	r3, [sp]
 2107 0a90 CA23     		movs	r3, #202
 2108 0a92 FF33     		adds	r3, r3, #255
 2109 0a94 074A     		ldr	r2, .L204+8
 2110 0a96 1032     		adds	r2, r2, #16
 2111 0a98 0749     		ldr	r1, .L204+12
 2112 0a9a 0020     		movs	r0, #0
 2113              	.LVL322:
 2114 0a9c A047     		blx	r4
 2115              	.LVL323:
 2116              	.L138:
 2117              	.LBE68:
 458:Source\azure_iot_sdk\uamqp\src/amqpvalue_to_string.c ****                 free(result);
 2118              		.loc 1 458 0 is_stmt 1
 2119 0a9e 0F98     		ldr	r0, [sp, #60]
 2120 0aa0 FFF7FEFF 		bl	free
 2121              	.LVL324:
 459:Source\azure_iot_sdk\uamqp\src/amqpvalue_to_string.c ****                 result = NULL;
 2122              		.loc 1 459 0
 2123 0aa4 0023     		movs	r3, #0
 2124 0aa6 0F93     		str	r3, [sp, #60]
 2125 0aa8 F2E2     		b	.L10
 2126              	.L205:
 2127 0aaa C046     		.align	2
 2128              	.L204:
 2129 0aac E4010000 		.word	.LC54
 2130 0ab0 98000000 		.word	.LC20
 2131 0ab4 5C000000 		.word	.LANCHOR0
 2132 0ab8 00000000 		.word	.LC1
 2133 0abc 88020000 		.word	.LC70
 2134 0ac0 A4020000 		.word	.LC72
 2135 0ac4 CC020000 		.word	.LC74
 2136 0ac8 EC020000 		.word	.LC76
 2137 0acc 74000000 		.word	.LC9
 2138 0ad0 78000000 		.word	.LC11
 2139 0ad4 F0020000 		.word	.LC78
 2140 0ad8 F8020000 		.word	.LC80
 2141 0adc FC020000 		.word	.LC82
 2142 0ae0 1C030000 		.word	.LC84
 2143 0ae4 3C030000 		.word	.LC86
 2144 0ae8 64030000 		.word	.LC88
 2145              	.LVL325:
 2146              	.L147:
ARM GAS  C:\Users\Phuong\AppData\Local\Temp\ccU7OqD6.s 			page 47


 2147              	.LBB69:
 2148              	.LBB70:
 460:Source\azure_iot_sdk\uamqp\src/amqpvalue_to_string.c ****             }
 461:Source\azure_iot_sdk\uamqp\src/amqpvalue_to_string.c ****             else
 462:Source\azure_iot_sdk\uamqp\src/amqpvalue_to_string.c ****             {
 463:Source\azure_iot_sdk\uamqp\src/amqpvalue_to_string.c ****                 size_t i;
 464:Source\azure_iot_sdk\uamqp\src/amqpvalue_to_string.c ****                 for (i = 0; i < count; i++)
 465:Source\azure_iot_sdk\uamqp\src/amqpvalue_to_string.c ****                 {
 466:Source\azure_iot_sdk\uamqp\src/amqpvalue_to_string.c ****                     AMQP_VALUE item = amqpvalue_get_list_item(amqp_value, i);
 2149              		.loc 1 466 0
 2150 0aec 2900     		movs	r1, r5
 2151 0aee 2000     		movs	r0, r4
 2152 0af0 FFF7FEFF 		bl	amqpvalue_get_list_item
 2153              	.LVL326:
 2154 0af4 061E     		subs	r6, r0, #0
 2155              	.LVL327:
 467:Source\azure_iot_sdk\uamqp\src/amqpvalue_to_string.c ****                     if (item == NULL)
 2156              		.loc 1 467 0
 2157 0af6 10D1     		bne	.L139
 2158              	.LBB71:
 468:Source\azure_iot_sdk\uamqp\src/amqpvalue_to_string.c ****                     {
 469:Source\azure_iot_sdk\uamqp\src/amqpvalue_to_string.c ****                         LogError("Failure getting item %u from list", (unsigned int)i);
 2159              		.loc 1 469 0 discriminator 3
 2160 0af8 FFF7FEFF 		bl	xlogging_get_log_function
 2161              	.LVL328:
 2162 0afc 041E     		subs	r4, r0, #0
 2163              	.LVL329:
 2164 0afe 53D0     		beq	.L140
 2165              		.loc 1 469 0 is_stmt 0 discriminator 4
 2166 0b00 0295     		str	r5, [sp, #8]
 2167 0b02 C94B     		ldr	r3, .L206
 2168 0b04 0193     		str	r3, [sp, #4]
 2169 0b06 0123     		movs	r3, #1
 2170 0b08 0093     		str	r3, [sp]
 2171 0b0a D623     		movs	r3, #214
 2172 0b0c FF33     		adds	r3, r3, #255
 2173 0b0e C74A     		ldr	r2, .L206+4
 2174 0b10 1032     		adds	r2, r2, #16
 2175 0b12 C749     		ldr	r1, .L206+8
 2176 0b14 0020     		movs	r0, #0
 2177              	.LVL330:
 2178 0b16 A047     		blx	r4
 2179              	.LVL331:
 2180 0b18 46E0     		b	.L140
 2181              	.LVL332:
 2182              	.L139:
 2183              	.LBE71:
 2184              	.LBB72:
 470:Source\azure_iot_sdk\uamqp\src/amqpvalue_to_string.c ****                         break;
 471:Source\azure_iot_sdk\uamqp\src/amqpvalue_to_string.c ****                     }
 472:Source\azure_iot_sdk\uamqp\src/amqpvalue_to_string.c ****                     else
 473:Source\azure_iot_sdk\uamqp\src/amqpvalue_to_string.c ****                     {
 474:Source\azure_iot_sdk\uamqp\src/amqpvalue_to_string.c ****                         char* item_string = amqpvalue_to_string(item);
 2185              		.loc 1 474 0 is_stmt 1
 2186 0b1a FFF7FEFF 		bl	amqpvalue_to_string
 2187              	.LVL333:
 2188 0b1e 071E     		subs	r7, r0, #0
ARM GAS  C:\Users\Phuong\AppData\Local\Temp\ccU7OqD6.s 			page 48


 2189              	.LVL334:
 475:Source\azure_iot_sdk\uamqp\src/amqpvalue_to_string.c ****                         if (item_string == NULL)
 2190              		.loc 1 475 0
 2191 0b20 13D1     		bne	.L141
 2192              	.LBB73:
 476:Source\azure_iot_sdk\uamqp\src/amqpvalue_to_string.c ****                         {
 477:Source\azure_iot_sdk\uamqp\src/amqpvalue_to_string.c ****                             LogError("Failure converting item %u to string", (unsigned int)i);
 2193              		.loc 1 477 0 discriminator 3
 2194 0b22 FFF7FEFF 		bl	xlogging_get_log_function
 2195              	.LVL335:
 2196 0b26 041E     		subs	r4, r0, #0
 2197              	.LVL336:
 2198 0b28 0BD0     		beq	.L142
 2199              		.loc 1 477 0 is_stmt 0 discriminator 4
 2200 0b2a 0295     		str	r5, [sp, #8]
 2201 0b2c C14B     		ldr	r3, .L206+12
 2202 0b2e 0193     		str	r3, [sp, #4]
 2203 0b30 0123     		movs	r3, #1
 2204 0b32 0093     		str	r3, [sp]
 2205 0b34 DE23     		movs	r3, #222
 2206 0b36 FF33     		adds	r3, r3, #255
 2207 0b38 BC4A     		ldr	r2, .L206+4
 2208 0b3a 1032     		adds	r2, r2, #16
 2209 0b3c BC49     		ldr	r1, .L206+8
 2210 0b3e 0020     		movs	r0, #0
 2211              	.LVL337:
 2212 0b40 A047     		blx	r4
 2213              	.LVL338:
 2214              	.L142:
 2215              	.LBE73:
 478:Source\azure_iot_sdk\uamqp\src/amqpvalue_to_string.c ****                             amqpvalue_destroy(item);
 2216              		.loc 1 478 0 is_stmt 1
 2217 0b42 3000     		movs	r0, r6
 2218 0b44 FFF7FEFF 		bl	amqpvalue_destroy
 2219              	.LVL339:
 479:Source\azure_iot_sdk\uamqp\src/amqpvalue_to_string.c ****                             break;
 2220              		.loc 1 479 0
 2221 0b48 2EE0     		b	.L140
 2222              	.LVL340:
 2223              	.L141:
 480:Source\azure_iot_sdk\uamqp\src/amqpvalue_to_string.c ****                         }
 481:Source\azure_iot_sdk\uamqp\src/amqpvalue_to_string.c ****                         else
 482:Source\azure_iot_sdk\uamqp\src/amqpvalue_to_string.c ****                         {
 483:Source\azure_iot_sdk\uamqp\src/amqpvalue_to_string.c ****                             if (((i > 0) && (string_concat(&result, ",") != 0)) ||
 2224              		.loc 1 483 0
 2225 0b4a 002D     		cmp	r5, #0
 2226 0b4c 05D0     		beq	.L143
 2227              		.loc 1 483 0 is_stmt 0 discriminator 1
 2228 0b4e BA49     		ldr	r1, .L206+16
 2229 0b50 0FA8     		add	r0, sp, #60
 2230              	.LVL341:
 2231 0b52 FFF7FEFF 		bl	string_concat
 2232              	.LVL342:
 2233 0b56 0028     		cmp	r0, #0
 2234 0b58 05D1     		bne	.L144
 2235              	.L143:
 484:Source\azure_iot_sdk\uamqp\src/amqpvalue_to_string.c ****                                  (string_concat(&result, item_string) != 0))
ARM GAS  C:\Users\Phuong\AppData\Local\Temp\ccU7OqD6.s 			page 49


 2236              		.loc 1 484 0 is_stmt 1 discriminator 3
 2237 0b5a 3900     		movs	r1, r7
 2238 0b5c 0FA8     		add	r0, sp, #60
 2239 0b5e FFF7FEFF 		bl	string_concat
 2240              	.LVL343:
 483:Source\azure_iot_sdk\uamqp\src/amqpvalue_to_string.c ****                                  (string_concat(&result, item_string) != 0))
 2241              		.loc 1 483 0 discriminator 3
 2242 0b62 0028     		cmp	r0, #0
 2243 0b64 14D0     		beq	.L145
 2244              	.L144:
 2245              	.LBB74:
 485:Source\azure_iot_sdk\uamqp\src/amqpvalue_to_string.c ****                             {
 486:Source\azure_iot_sdk\uamqp\src/amqpvalue_to_string.c ****                                 LogError("Failure building amqp value string");
 2246              		.loc 1 486 0 discriminator 3
 2247 0b66 FFF7FEFF 		bl	xlogging_get_log_function
 2248              	.LVL344:
 2249 0b6a 041E     		subs	r4, r0, #0
 2250              	.LVL345:
 2251 0b6c 0AD0     		beq	.L146
 2252              		.loc 1 486 0 is_stmt 0 discriminator 4
 2253 0b6e B34B     		ldr	r3, .L206+20
 2254 0b70 0193     		str	r3, [sp, #4]
 2255 0b72 0123     		movs	r3, #1
 2256 0b74 0093     		str	r3, [sp]
 2257 0b76 E633     		adds	r3, r3, #230
 2258 0b78 FF33     		adds	r3, r3, #255
 2259 0b7a AC4A     		ldr	r2, .L206+4
 2260 0b7c 1032     		adds	r2, r2, #16
 2261 0b7e AC49     		ldr	r1, .L206+8
 2262 0b80 0020     		movs	r0, #0
 2263              	.LVL346:
 2264 0b82 A047     		blx	r4
 2265              	.LVL347:
 2266              	.L146:
 2267              	.LBE74:
 487:Source\azure_iot_sdk\uamqp\src/amqpvalue_to_string.c ****                                 free(result);
 2268              		.loc 1 487 0 is_stmt 1
 2269 0b84 0F98     		ldr	r0, [sp, #60]
 2270 0b86 FFF7FEFF 		bl	free
 2271              	.LVL348:
 488:Source\azure_iot_sdk\uamqp\src/amqpvalue_to_string.c ****                                 result = NULL;
 2272              		.loc 1 488 0
 2273 0b8a 0023     		movs	r3, #0
 2274 0b8c 0F93     		str	r3, [sp, #60]
 489:Source\azure_iot_sdk\uamqp\src/amqpvalue_to_string.c ****                                 break;
 2275              		.loc 1 489 0
 2276 0b8e 0BE0     		b	.L140
 2277              	.LVL349:
 2278              	.L145:
 490:Source\azure_iot_sdk\uamqp\src/amqpvalue_to_string.c ****                             }
 491:Source\azure_iot_sdk\uamqp\src/amqpvalue_to_string.c **** 
 492:Source\azure_iot_sdk\uamqp\src/amqpvalue_to_string.c ****                             free(item_string);
 2279              		.loc 1 492 0 discriminator 2
 2280 0b90 3800     		movs	r0, r7
 2281 0b92 FFF7FEFF 		bl	free
 2282              	.LVL350:
 493:Source\azure_iot_sdk\uamqp\src/amqpvalue_to_string.c ****                         }
ARM GAS  C:\Users\Phuong\AppData\Local\Temp\ccU7OqD6.s 			page 50


 494:Source\azure_iot_sdk\uamqp\src/amqpvalue_to_string.c **** 
 495:Source\azure_iot_sdk\uamqp\src/amqpvalue_to_string.c ****                         amqpvalue_destroy(item);
 2283              		.loc 1 495 0 discriminator 2
 2284 0b96 3000     		movs	r0, r6
 2285 0b98 FFF7FEFF 		bl	amqpvalue_destroy
 2286              	.LVL351:
 2287              	.LBE72:
 2288              	.LBE70:
 464:Source\azure_iot_sdk\uamqp\src/amqpvalue_to_string.c ****                 {
 2289              		.loc 1 464 0 discriminator 2
 2290 0b9c 0135     		adds	r5, r5, #1
 2291              	.LVL352:
 2292 0b9e 00E0     		b	.L137
 2293              	.LVL353:
 2294              	.L196:
 2295              	.LBE69:
 2296 0ba0 0025     		movs	r5, #0
 2297              	.L137:
 2298              	.LVL354:
 2299              	.LBB76:
 464:Source\azure_iot_sdk\uamqp\src/amqpvalue_to_string.c ****                 {
 2300              		.loc 1 464 0 is_stmt 0 discriminator 1
 2301 0ba2 089B     		ldr	r3, [sp, #32]
 2302 0ba4 9D42     		cmp	r5, r3
 2303 0ba6 A1D3     		bcc	.L147
 2304              	.LVL355:
 2305              	.L140:
 496:Source\azure_iot_sdk\uamqp\src/amqpvalue_to_string.c ****                     }
 497:Source\azure_iot_sdk\uamqp\src/amqpvalue_to_string.c ****                 }
 498:Source\azure_iot_sdk\uamqp\src/amqpvalue_to_string.c **** 
 499:Source\azure_iot_sdk\uamqp\src/amqpvalue_to_string.c ****                 if (i < count)
 2306              		.loc 1 499 0 is_stmt 1
 2307 0ba8 089B     		ldr	r3, [sp, #32]
 2308 0baa 9D42     		cmp	r5, r3
 2309 0bac 05D2     		bcs	.L148
 500:Source\azure_iot_sdk\uamqp\src/amqpvalue_to_string.c ****                 {
 501:Source\azure_iot_sdk\uamqp\src/amqpvalue_to_string.c ****                     // no log here, we already logged the error
 502:Source\azure_iot_sdk\uamqp\src/amqpvalue_to_string.c ****                     free(result);
 2310              		.loc 1 502 0
 2311 0bae 0F98     		ldr	r0, [sp, #60]
 2312 0bb0 FFF7FEFF 		bl	free
 2313              	.LVL356:
 503:Source\azure_iot_sdk\uamqp\src/amqpvalue_to_string.c ****                     result = NULL;
 2314              		.loc 1 503 0
 2315 0bb4 0023     		movs	r3, #0
 2316 0bb6 0F93     		str	r3, [sp, #60]
 2317 0bb8 6AE2     		b	.L10
 2318              	.L148:
 504:Source\azure_iot_sdk\uamqp\src/amqpvalue_to_string.c ****                 }
 505:Source\azure_iot_sdk\uamqp\src/amqpvalue_to_string.c ****                 else if (string_concat(&result, "}") != 0)
 2319              		.loc 1 505 0
 2320 0bba A149     		ldr	r1, .L206+24
 2321 0bbc 0FA8     		add	r0, sp, #60
 2322 0bbe FFF7FEFF 		bl	string_concat
 2323              	.LVL357:
 2324 0bc2 0028     		cmp	r0, #0
 2325 0bc4 00D1     		bne	.LCB2290
ARM GAS  C:\Users\Phuong\AppData\Local\Temp\ccU7OqD6.s 			page 51


 2326 0bc6 63E2     		b	.L10	@long jump
 2327              	.LCB2290:
 2328              	.LBB75:
 506:Source\azure_iot_sdk\uamqp\src/amqpvalue_to_string.c ****                 {
 507:Source\azure_iot_sdk\uamqp\src/amqpvalue_to_string.c ****                     LogError("Failure building amqp value string");
 2329              		.loc 1 507 0 discriminator 3
 2330 0bc8 FFF7FEFF 		bl	xlogging_get_log_function
 2331              	.LVL358:
 2332 0bcc 041E     		subs	r4, r0, #0
 2333              	.LVL359:
 2334 0bce 0AD0     		beq	.L149
 2335              		.loc 1 507 0 is_stmt 0 discriminator 4
 2336 0bd0 9A4B     		ldr	r3, .L206+20
 2337 0bd2 0193     		str	r3, [sp, #4]
 2338 0bd4 0123     		movs	r3, #1
 2339 0bd6 0093     		str	r3, [sp]
 2340 0bd8 FC23     		movs	r3, #252
 2341 0bda FF33     		adds	r3, r3, #255
 2342 0bdc 934A     		ldr	r2, .L206+4
 2343 0bde 1032     		adds	r2, r2, #16
 2344 0be0 9349     		ldr	r1, .L206+8
 2345 0be2 0020     		movs	r0, #0
 2346              	.LVL360:
 2347 0be4 A047     		blx	r4
 2348              	.LVL361:
 2349              	.L149:
 2350              	.LBE75:
 508:Source\azure_iot_sdk\uamqp\src/amqpvalue_to_string.c ****                     free(result);
 2351              		.loc 1 508 0 is_stmt 1
 2352 0be6 0F98     		ldr	r0, [sp, #60]
 2353 0be8 FFF7FEFF 		bl	free
 2354              	.LVL362:
 509:Source\azure_iot_sdk\uamqp\src/amqpvalue_to_string.c ****                     result = NULL;
 2355              		.loc 1 509 0
 2356 0bec 0023     		movs	r3, #0
 2357 0bee 0F93     		str	r3, [sp, #60]
 2358 0bf0 4EE2     		b	.L10
 2359              	.LVL363:
 2360              	.L32:
 2361              	.LBE76:
 2362              	.LBE66:
 2363              	.LBB77:
 510:Source\azure_iot_sdk\uamqp\src/amqpvalue_to_string.c ****                 }
 511:Source\azure_iot_sdk\uamqp\src/amqpvalue_to_string.c ****             }
 512:Source\azure_iot_sdk\uamqp\src/amqpvalue_to_string.c ****             break;
 513:Source\azure_iot_sdk\uamqp\src/amqpvalue_to_string.c ****         }
 514:Source\azure_iot_sdk\uamqp\src/amqpvalue_to_string.c ****         case AMQP_TYPE_MAP:
 515:Source\azure_iot_sdk\uamqp\src/amqpvalue_to_string.c ****         {
 516:Source\azure_iot_sdk\uamqp\src/amqpvalue_to_string.c ****             uint32_t count;
 517:Source\azure_iot_sdk\uamqp\src/amqpvalue_to_string.c ****             if (amqpvalue_get_map_pair_count(amqp_value, &count) != 0)
 2364              		.loc 1 517 0
 2365 0bf2 05A9     		add	r1, sp, #20
 2366 0bf4 2000     		movs	r0, r4
 2367 0bf6 FFF7FEFF 		bl	amqpvalue_get_map_pair_count
 2368              	.LVL364:
 2369 0bfa 0028     		cmp	r0, #0
 2370 0bfc 13D0     		beq	.L150
ARM GAS  C:\Users\Phuong\AppData\Local\Temp\ccU7OqD6.s 			page 52


 2371              	.LBB78:
 518:Source\azure_iot_sdk\uamqp\src/amqpvalue_to_string.c ****             {
 519:Source\azure_iot_sdk\uamqp\src/amqpvalue_to_string.c ****                 LogError("Failure getting map pair count");
 2372              		.loc 1 519 0 discriminator 3
 2373 0bfe FFF7FEFF 		bl	xlogging_get_log_function
 2374              	.LVL365:
 2375 0c02 041E     		subs	r4, r0, #0
 2376              	.LVL366:
 2377 0c04 09D0     		beq	.L151
 2378              		.loc 1 519 0 is_stmt 0 discriminator 4
 2379 0c06 8F4B     		ldr	r3, .L206+28
 2380 0c08 0193     		str	r3, [sp, #4]
 2381 0c0a 0123     		movs	r3, #1
 2382 0c0c 0093     		str	r3, [sp]
 2383 0c0e 8E4B     		ldr	r3, .L206+32
 2384 0c10 864A     		ldr	r2, .L206+4
 2385 0c12 1032     		adds	r2, r2, #16
 2386 0c14 8649     		ldr	r1, .L206+8
 2387 0c16 0020     		movs	r0, #0
 2388              	.LVL367:
 2389 0c18 A047     		blx	r4
 2390              	.LVL368:
 2391              	.L151:
 2392              	.LBE78:
 520:Source\azure_iot_sdk\uamqp\src/amqpvalue_to_string.c ****                 free(result);
 2393              		.loc 1 520 0 is_stmt 1
 2394 0c1a 0F98     		ldr	r0, [sp, #60]
 2395 0c1c FFF7FEFF 		bl	free
 2396              	.LVL369:
 521:Source\azure_iot_sdk\uamqp\src/amqpvalue_to_string.c ****                 result = NULL;
 2397              		.loc 1 521 0
 2398 0c20 0023     		movs	r3, #0
 2399 0c22 0F93     		str	r3, [sp, #60]
 2400 0c24 34E2     		b	.L10
 2401              	.LVL370:
 2402              	.L150:
 522:Source\azure_iot_sdk\uamqp\src/amqpvalue_to_string.c ****             }
 523:Source\azure_iot_sdk\uamqp\src/amqpvalue_to_string.c ****             else if (string_concat(&result, "{") != 0)
 2403              		.loc 1 523 0
 2404 0c26 8949     		ldr	r1, .L206+36
 2405 0c28 0FA8     		add	r0, sp, #60
 2406 0c2a FFF7FEFF 		bl	string_concat
 2407              	.LVL371:
 2408 0c2e 0028     		cmp	r0, #0
 2409 0c30 00D1     		bne	.LCB2374
 2410 0c32 B6E0     		b	.L197	@long jump
 2411              	.LCB2374:
 2412              	.LBB79:
 524:Source\azure_iot_sdk\uamqp\src/amqpvalue_to_string.c ****             {
 525:Source\azure_iot_sdk\uamqp\src/amqpvalue_to_string.c ****                 LogError("Failure building amqp value string");
 2413              		.loc 1 525 0 discriminator 3
 2414 0c34 FFF7FEFF 		bl	xlogging_get_log_function
 2415              	.LVL372:
 2416 0c38 041E     		subs	r4, r0, #0
 2417              	.LVL373:
 2418 0c3a 09D0     		beq	.L154
 2419              		.loc 1 525 0 is_stmt 0 discriminator 4
ARM GAS  C:\Users\Phuong\AppData\Local\Temp\ccU7OqD6.s 			page 53


 2420 0c3c 7F4B     		ldr	r3, .L206+20
 2421 0c3e 0193     		str	r3, [sp, #4]
 2422 0c40 0123     		movs	r3, #1
 2423 0c42 0093     		str	r3, [sp]
 2424 0c44 824B     		ldr	r3, .L206+40
 2425 0c46 794A     		ldr	r2, .L206+4
 2426 0c48 1032     		adds	r2, r2, #16
 2427 0c4a 7949     		ldr	r1, .L206+8
 2428 0c4c 0020     		movs	r0, #0
 2429              	.LVL374:
 2430 0c4e A047     		blx	r4
 2431              	.LVL375:
 2432              	.L154:
 2433              	.LBE79:
 526:Source\azure_iot_sdk\uamqp\src/amqpvalue_to_string.c ****                 free(result);
 2434              		.loc 1 526 0 is_stmt 1
 2435 0c50 0F98     		ldr	r0, [sp, #60]
 2436 0c52 FFF7FEFF 		bl	free
 2437              	.LVL376:
 527:Source\azure_iot_sdk\uamqp\src/amqpvalue_to_string.c ****                 result = NULL;
 2438              		.loc 1 527 0
 2439 0c56 0023     		movs	r3, #0
 2440 0c58 0F93     		str	r3, [sp, #60]
 2441 0c5a 19E2     		b	.L10
 2442              	.LVL377:
 2443              	.L166:
 2444              	.LBB80:
 2445              	.LBB81:
 528:Source\azure_iot_sdk\uamqp\src/amqpvalue_to_string.c ****             }
 529:Source\azure_iot_sdk\uamqp\src/amqpvalue_to_string.c ****             else
 530:Source\azure_iot_sdk\uamqp\src/amqpvalue_to_string.c ****             {
 531:Source\azure_iot_sdk\uamqp\src/amqpvalue_to_string.c ****                 uint32_t i;
 532:Source\azure_iot_sdk\uamqp\src/amqpvalue_to_string.c ****                 for (i = 0; i < count; i++)
 533:Source\azure_iot_sdk\uamqp\src/amqpvalue_to_string.c ****                 {
 534:Source\azure_iot_sdk\uamqp\src/amqpvalue_to_string.c ****                     AMQP_VALUE key;
 535:Source\azure_iot_sdk\uamqp\src/amqpvalue_to_string.c ****                     AMQP_VALUE value;
 536:Source\azure_iot_sdk\uamqp\src/amqpvalue_to_string.c ****                     if (amqpvalue_get_map_key_value_pair(amqp_value, i, &key, &value) != 0)
 2446              		.loc 1 536 0
 2447 0c5c 08AB     		add	r3, sp, #32
 2448 0c5e 06AA     		add	r2, sp, #24
 2449 0c60 2900     		movs	r1, r5
 2450 0c62 2000     		movs	r0, r4
 2451 0c64 FFF7FEFF 		bl	amqpvalue_get_map_key_value_pair
 2452              	.LVL378:
 2453 0c68 0028     		cmp	r0, #0
 2454 0c6a 10D0     		beq	.L155
 2455              	.LBB82:
 537:Source\azure_iot_sdk\uamqp\src/amqpvalue_to_string.c ****                     {
 538:Source\azure_iot_sdk\uamqp\src/amqpvalue_to_string.c ****                         LogError("Failure getting key/value pair index %u", (unsigned int)i);
 2456              		.loc 1 538 0 discriminator 3
 2457 0c6c FFF7FEFF 		bl	xlogging_get_log_function
 2458              	.LVL379:
 2459 0c70 041E     		subs	r4, r0, #0
 2460              	.LVL380:
 2461 0c72 00D1     		bne	.LCB2428
 2462 0c74 9AE0     		b	.L165	@long jump
 2463              	.LCB2428:
ARM GAS  C:\Users\Phuong\AppData\Local\Temp\ccU7OqD6.s 			page 54


 2464              		.loc 1 538 0 is_stmt 0 discriminator 4
 2465 0c76 0295     		str	r5, [sp, #8]
 2466 0c78 764B     		ldr	r3, .L206+44
 2467 0c7a 0193     		str	r3, [sp, #4]
 2468 0c7c 0123     		movs	r3, #1
 2469 0c7e 0093     		str	r3, [sp]
 2470 0c80 754B     		ldr	r3, .L206+48
 2471 0c82 6A4A     		ldr	r2, .L206+4
 2472 0c84 1032     		adds	r2, r2, #16
 2473 0c86 6A49     		ldr	r1, .L206+8
 2474 0c88 0020     		movs	r0, #0
 2475              	.LVL381:
 2476 0c8a A047     		blx	r4
 2477              	.LVL382:
 2478 0c8c 8EE0     		b	.L165
 2479              	.LVL383:
 2480              	.L155:
 2481              	.LBE82:
 2482              	.LBB83:
 539:Source\azure_iot_sdk\uamqp\src/amqpvalue_to_string.c ****                         break;
 540:Source\azure_iot_sdk\uamqp\src/amqpvalue_to_string.c ****                     }
 541:Source\azure_iot_sdk\uamqp\src/amqpvalue_to_string.c ****                     else
 542:Source\azure_iot_sdk\uamqp\src/amqpvalue_to_string.c ****                     {
 543:Source\azure_iot_sdk\uamqp\src/amqpvalue_to_string.c ****                         char* key_string = amqpvalue_to_string(key);
 2483              		.loc 1 543 0 is_stmt 1
 2484 0c8e 0698     		ldr	r0, [sp, #24]
 2485 0c90 FFF7FEFF 		bl	amqpvalue_to_string
 2486              	.LVL384:
 2487 0c94 061E     		subs	r6, r0, #0
 2488              	.LVL385:
 544:Source\azure_iot_sdk\uamqp\src/amqpvalue_to_string.c ****                         if (key_string == NULL)
 2489              		.loc 1 544 0
 2490 0c96 15D1     		bne	.L157
 2491              	.LBB84:
 545:Source\azure_iot_sdk\uamqp\src/amqpvalue_to_string.c ****                         {
 546:Source\azure_iot_sdk\uamqp\src/amqpvalue_to_string.c ****                             LogError("Failure getting stringified key value for index %u", (unsigne
 2492              		.loc 1 546 0 discriminator 3
 2493 0c98 FFF7FEFF 		bl	xlogging_get_log_function
 2494              	.LVL386:
 2495 0c9c 041E     		subs	r4, r0, #0
 2496              	.LVL387:
 2497 0c9e 0AD0     		beq	.L158
 2498              		.loc 1 546 0 is_stmt 0 discriminator 4
 2499 0ca0 0295     		str	r5, [sp, #8]
 2500 0ca2 6E4B     		ldr	r3, .L206+52
 2501 0ca4 0193     		str	r3, [sp, #4]
 2502 0ca6 0123     		movs	r3, #1
 2503 0ca8 0093     		str	r3, [sp]
 2504 0caa 6D4B     		ldr	r3, .L206+56
 2505 0cac 5F4A     		ldr	r2, .L206+4
 2506 0cae 1032     		adds	r2, r2, #16
 2507 0cb0 5F49     		ldr	r1, .L206+8
 2508 0cb2 0020     		movs	r0, #0
 2509              	.LVL388:
 2510 0cb4 A047     		blx	r4
 2511              	.LVL389:
 2512              	.L158:
ARM GAS  C:\Users\Phuong\AppData\Local\Temp\ccU7OqD6.s 			page 55


 2513              	.LBE84:
 547:Source\azure_iot_sdk\uamqp\src/amqpvalue_to_string.c ****                             amqpvalue_destroy(key);
 2514              		.loc 1 547 0 is_stmt 1
 2515 0cb6 0698     		ldr	r0, [sp, #24]
 2516 0cb8 FFF7FEFF 		bl	amqpvalue_destroy
 2517              	.LVL390:
 548:Source\azure_iot_sdk\uamqp\src/amqpvalue_to_string.c ****                             amqpvalue_destroy(value);
 2518              		.loc 1 548 0
 2519 0cbc 0898     		ldr	r0, [sp, #32]
 2520 0cbe FFF7FEFF 		bl	amqpvalue_destroy
 2521              	.LVL391:
 549:Source\azure_iot_sdk\uamqp\src/amqpvalue_to_string.c ****                             break;
 2522              		.loc 1 549 0
 2523 0cc2 73E0     		b	.L165
 2524              	.LVL392:
 2525              	.L157:
 2526              	.LBB85:
 550:Source\azure_iot_sdk\uamqp\src/amqpvalue_to_string.c ****                         }
 551:Source\azure_iot_sdk\uamqp\src/amqpvalue_to_string.c ****                         else
 552:Source\azure_iot_sdk\uamqp\src/amqpvalue_to_string.c ****                         {
 553:Source\azure_iot_sdk\uamqp\src/amqpvalue_to_string.c ****                             char* value_string = amqpvalue_to_string(value);
 2527              		.loc 1 553 0
 2528 0cc4 0898     		ldr	r0, [sp, #32]
 2529              	.LVL393:
 2530 0cc6 FFF7FEFF 		bl	amqpvalue_to_string
 2531              	.LVL394:
 2532 0cca 0700     		movs	r7, r0
 2533              	.LVL395:
 554:Source\azure_iot_sdk\uamqp\src/amqpvalue_to_string.c ****                             if (key_string == NULL)
 2534              		.loc 1 554 0
 2535 0ccc 002E     		cmp	r6, #0
 2536 0cce 19D1     		bne	.L159
 2537              	.LBB86:
 555:Source\azure_iot_sdk\uamqp\src/amqpvalue_to_string.c ****                             {
 556:Source\azure_iot_sdk\uamqp\src/amqpvalue_to_string.c ****                                 LogError("Failure getting stringified value for index %u", (unsigne
 2538              		.loc 1 556 0 discriminator 3
 2539 0cd0 FFF7FEFF 		bl	xlogging_get_log_function
 2540              	.LVL396:
 2541 0cd4 041E     		subs	r4, r0, #0
 2542              	.LVL397:
 2543 0cd6 0BD0     		beq	.L160
 2544              		.loc 1 556 0 is_stmt 0 discriminator 4
 2545 0cd8 0295     		str	r5, [sp, #8]
 2546 0cda 624B     		ldr	r3, .L206+60
 2547 0cdc 0193     		str	r3, [sp, #4]
 2548 0cde 0123     		movs	r3, #1
 2549 0ce0 0093     		str	r3, [sp]
 2550 0ce2 8B23     		movs	r3, #139
 2551 0ce4 9B00     		lsls	r3, r3, #2
 2552 0ce6 514A     		ldr	r2, .L206+4
 2553 0ce8 1032     		adds	r2, r2, #16
 2554 0cea 5149     		ldr	r1, .L206+8
 2555 0cec 0020     		movs	r0, #0
 2556              	.LVL398:
 2557 0cee A047     		blx	r4
 2558              	.LVL399:
 2559              	.L160:
ARM GAS  C:\Users\Phuong\AppData\Local\Temp\ccU7OqD6.s 			page 56


 2560              	.LBE86:
 557:Source\azure_iot_sdk\uamqp\src/amqpvalue_to_string.c ****                                 free(key_string);
 2561              		.loc 1 557 0 is_stmt 1
 2562 0cf0 3000     		movs	r0, r6
 2563 0cf2 FFF7FEFF 		bl	free
 2564              	.LVL400:
 558:Source\azure_iot_sdk\uamqp\src/amqpvalue_to_string.c ****                                 amqpvalue_destroy(key);
 2565              		.loc 1 558 0
 2566 0cf6 0698     		ldr	r0, [sp, #24]
 2567 0cf8 FFF7FEFF 		bl	amqpvalue_destroy
 2568              	.LVL401:
 559:Source\azure_iot_sdk\uamqp\src/amqpvalue_to_string.c ****                                 amqpvalue_destroy(value);
 2569              		.loc 1 559 0
 2570 0cfc 0898     		ldr	r0, [sp, #32]
 2571 0cfe FFF7FEFF 		bl	amqpvalue_destroy
 2572              	.LVL402:
 560:Source\azure_iot_sdk\uamqp\src/amqpvalue_to_string.c ****                                 break;
 2573              		.loc 1 560 0
 2574 0d02 53E0     		b	.L165
 2575              	.LVL403:
 2576              	.L159:
 561:Source\azure_iot_sdk\uamqp\src/amqpvalue_to_string.c ****                             }
 562:Source\azure_iot_sdk\uamqp\src/amqpvalue_to_string.c ****                             else
 563:Source\azure_iot_sdk\uamqp\src/amqpvalue_to_string.c ****                             {
 564:Source\azure_iot_sdk\uamqp\src/amqpvalue_to_string.c ****                                 if (((i > 0) && (string_concat(&result, ",") != 0)) ||
 2577              		.loc 1 564 0
 2578 0d04 002D     		cmp	r5, #0
 2579 0d06 05D0     		beq	.L161
 2580              		.loc 1 564 0 is_stmt 0 discriminator 1
 2581 0d08 4B49     		ldr	r1, .L206+16
 2582 0d0a 0FA8     		add	r0, sp, #60
 2583              	.LVL404:
 2584 0d0c FFF7FEFF 		bl	string_concat
 2585              	.LVL405:
 2586 0d10 0028     		cmp	r0, #0
 2587 0d12 1DD1     		bne	.L162
 2588              	.L161:
 565:Source\azure_iot_sdk\uamqp\src/amqpvalue_to_string.c ****                                     (string_concat(&result, "[") != 0) ||
 2589              		.loc 1 565 0 is_stmt 1 discriminator 3
 2590 0d14 5449     		ldr	r1, .L206+64
 2591 0d16 0FA8     		add	r0, sp, #60
 2592 0d18 FFF7FEFF 		bl	string_concat
 2593              	.LVL406:
 564:Source\azure_iot_sdk\uamqp\src/amqpvalue_to_string.c ****                                     (string_concat(&result, "[") != 0) ||
 2594              		.loc 1 564 0 discriminator 3
 2595 0d1c 0028     		cmp	r0, #0
 2596 0d1e 17D1     		bne	.L162
 566:Source\azure_iot_sdk\uamqp\src/amqpvalue_to_string.c ****                                     (string_concat(&result, key_string) != 0) ||
 2597              		.loc 1 566 0
 2598 0d20 3100     		movs	r1, r6
 2599 0d22 0FA8     		add	r0, sp, #60
 2600 0d24 FFF7FEFF 		bl	string_concat
 2601              	.LVL407:
 565:Source\azure_iot_sdk\uamqp\src/amqpvalue_to_string.c ****                                     (string_concat(&result, "[") != 0) ||
 2602              		.loc 1 565 0
 2603 0d28 0028     		cmp	r0, #0
 2604 0d2a 11D1     		bne	.L162
ARM GAS  C:\Users\Phuong\AppData\Local\Temp\ccU7OqD6.s 			page 57


 567:Source\azure_iot_sdk\uamqp\src/amqpvalue_to_string.c ****                                     (string_concat(&result, ":") != 0) ||
 2605              		.loc 1 567 0
 2606 0d2c 4F49     		ldr	r1, .L206+68
 2607 0d2e 0FA8     		add	r0, sp, #60
 2608 0d30 FFF7FEFF 		bl	string_concat
 2609              	.LVL408:
 566:Source\azure_iot_sdk\uamqp\src/amqpvalue_to_string.c ****                                     (string_concat(&result, key_string) != 0) ||
 2610              		.loc 1 566 0
 2611 0d34 0028     		cmp	r0, #0
 2612 0d36 0BD1     		bne	.L162
 568:Source\azure_iot_sdk\uamqp\src/amqpvalue_to_string.c ****                                     (string_concat(&result, value_string) != 0) ||
 2613              		.loc 1 568 0
 2614 0d38 3900     		movs	r1, r7
 2615 0d3a 0FA8     		add	r0, sp, #60
 2616 0d3c FFF7FEFF 		bl	string_concat
 2617              	.LVL409:
 567:Source\azure_iot_sdk\uamqp\src/amqpvalue_to_string.c ****                                     (string_concat(&result, ":") != 0) ||
 2618              		.loc 1 567 0
 2619 0d40 0028     		cmp	r0, #0
 2620 0d42 05D1     		bne	.L162
 569:Source\azure_iot_sdk\uamqp\src/amqpvalue_to_string.c ****                                     (string_concat(&result, "]") != 0))
 2621              		.loc 1 569 0
 2622 0d44 4A49     		ldr	r1, .L206+72
 2623 0d46 0FA8     		add	r0, sp, #60
 2624 0d48 FFF7FEFF 		bl	string_concat
 2625              	.LVL410:
 568:Source\azure_iot_sdk\uamqp\src/amqpvalue_to_string.c ****                                     (string_concat(&result, value_string) != 0) ||
 2626              		.loc 1 568 0
 2627 0d4c 0028     		cmp	r0, #0
 2628 0d4e 1AD0     		beq	.L163
 2629              	.L162:
 2630              	.LBB87:
 570:Source\azure_iot_sdk\uamqp\src/amqpvalue_to_string.c ****                                 {
 571:Source\azure_iot_sdk\uamqp\src/amqpvalue_to_string.c ****                                     LogError("Failure building amqp value string");
 2631              		.loc 1 571 0 discriminator 3
 2632 0d50 FFF7FEFF 		bl	xlogging_get_log_function
 2633              	.LVL411:
 2634 0d54 041E     		subs	r4, r0, #0
 2635              	.LVL412:
 2636 0d56 09D0     		beq	.L164
 2637              		.loc 1 571 0 is_stmt 0 discriminator 4
 2638 0d58 384B     		ldr	r3, .L206+20
 2639 0d5a 0193     		str	r3, [sp, #4]
 2640 0d5c 0123     		movs	r3, #1
 2641 0d5e 0093     		str	r3, [sp]
 2642 0d60 444B     		ldr	r3, .L206+76
 2643 0d62 324A     		ldr	r2, .L206+4
 2644 0d64 1032     		adds	r2, r2, #16
 2645 0d66 3249     		ldr	r1, .L206+8
 2646 0d68 0020     		movs	r0, #0
 2647              	.LVL413:
 2648 0d6a A047     		blx	r4
 2649              	.LVL414:
 2650              	.L164:
 2651              	.LBE87:
 572:Source\azure_iot_sdk\uamqp\src/amqpvalue_to_string.c ****                                     free(key_string);
 2652              		.loc 1 572 0 is_stmt 1
ARM GAS  C:\Users\Phuong\AppData\Local\Temp\ccU7OqD6.s 			page 58


 2653 0d6c 3000     		movs	r0, r6
 2654 0d6e FFF7FEFF 		bl	free
 2655              	.LVL415:
 573:Source\azure_iot_sdk\uamqp\src/amqpvalue_to_string.c ****                                     free(value_string);
 2656              		.loc 1 573 0
 2657 0d72 3800     		movs	r0, r7
 2658 0d74 FFF7FEFF 		bl	free
 2659              	.LVL416:
 574:Source\azure_iot_sdk\uamqp\src/amqpvalue_to_string.c ****                                     amqpvalue_destroy(key);
 2660              		.loc 1 574 0
 2661 0d78 0698     		ldr	r0, [sp, #24]
 2662 0d7a FFF7FEFF 		bl	amqpvalue_destroy
 2663              	.LVL417:
 575:Source\azure_iot_sdk\uamqp\src/amqpvalue_to_string.c ****                                     amqpvalue_destroy(value);
 2664              		.loc 1 575 0
 2665 0d7e 0898     		ldr	r0, [sp, #32]
 2666 0d80 FFF7FEFF 		bl	amqpvalue_destroy
 2667              	.LVL418:
 576:Source\azure_iot_sdk\uamqp\src/amqpvalue_to_string.c ****                                     break;
 2668              		.loc 1 576 0
 2669 0d84 12E0     		b	.L165
 2670              	.LVL419:
 2671              	.L163:
 577:Source\azure_iot_sdk\uamqp\src/amqpvalue_to_string.c ****                                 }
 578:Source\azure_iot_sdk\uamqp\src/amqpvalue_to_string.c **** 
 579:Source\azure_iot_sdk\uamqp\src/amqpvalue_to_string.c ****                                 free(value_string);
 2672              		.loc 1 579 0
 2673 0d86 3800     		movs	r0, r7
 2674 0d88 FFF7FEFF 		bl	free
 2675              	.LVL420:
 580:Source\azure_iot_sdk\uamqp\src/amqpvalue_to_string.c ****                             }
 581:Source\azure_iot_sdk\uamqp\src/amqpvalue_to_string.c **** 
 582:Source\azure_iot_sdk\uamqp\src/amqpvalue_to_string.c ****                             free(key_string);
 2676              		.loc 1 582 0
 2677 0d8c 3000     		movs	r0, r6
 2678 0d8e FFF7FEFF 		bl	free
 2679              	.LVL421:
 2680              	.LBE85:
 583:Source\azure_iot_sdk\uamqp\src/amqpvalue_to_string.c ****                         }
 584:Source\azure_iot_sdk\uamqp\src/amqpvalue_to_string.c **** 
 585:Source\azure_iot_sdk\uamqp\src/amqpvalue_to_string.c ****                         amqpvalue_destroy(key);
 2681              		.loc 1 585 0
 2682 0d92 0698     		ldr	r0, [sp, #24]
 2683 0d94 FFF7FEFF 		bl	amqpvalue_destroy
 2684              	.LVL422:
 586:Source\azure_iot_sdk\uamqp\src/amqpvalue_to_string.c ****                         amqpvalue_destroy(value);
 2685              		.loc 1 586 0
 2686 0d98 0898     		ldr	r0, [sp, #32]
 2687 0d9a FFF7FEFF 		bl	amqpvalue_destroy
 2688              	.LVL423:
 2689              	.LBE83:
 2690              	.LBE81:
 532:Source\azure_iot_sdk\uamqp\src/amqpvalue_to_string.c ****                 {
 2691              		.loc 1 532 0
 2692 0d9e 0135     		adds	r5, r5, #1
 2693              	.LVL424:
 2694 0da0 00E0     		b	.L153
ARM GAS  C:\Users\Phuong\AppData\Local\Temp\ccU7OqD6.s 			page 59


 2695              	.LVL425:
 2696              	.L197:
 2697              	.LBE80:
 2698 0da2 0025     		movs	r5, #0
 2699              	.L153:
 2700              	.LVL426:
 2701              	.LBB89:
 532:Source\azure_iot_sdk\uamqp\src/amqpvalue_to_string.c ****                 {
 2702              		.loc 1 532 0 is_stmt 0 discriminator 1
 2703 0da4 059B     		ldr	r3, [sp, #20]
 2704 0da6 9D42     		cmp	r5, r3
 2705 0da8 00D2     		bcs	.LCB2673
 2706 0daa 57E7     		b	.L166	@long jump
 2707              	.LCB2673:
 2708              	.LVL427:
 2709              	.L165:
 587:Source\azure_iot_sdk\uamqp\src/amqpvalue_to_string.c ****                     }
 588:Source\azure_iot_sdk\uamqp\src/amqpvalue_to_string.c ****                 }
 589:Source\azure_iot_sdk\uamqp\src/amqpvalue_to_string.c **** 
 590:Source\azure_iot_sdk\uamqp\src/amqpvalue_to_string.c ****                 if (i < count)
 2710              		.loc 1 590 0 is_stmt 1
 2711 0dac 059B     		ldr	r3, [sp, #20]
 2712 0dae 9D42     		cmp	r5, r3
 2713 0db0 05D2     		bcs	.L167
 591:Source\azure_iot_sdk\uamqp\src/amqpvalue_to_string.c ****                 {
 592:Source\azure_iot_sdk\uamqp\src/amqpvalue_to_string.c ****                     // no log here, we already logged the error
 593:Source\azure_iot_sdk\uamqp\src/amqpvalue_to_string.c ****                     free(result);
 2714              		.loc 1 593 0
 2715 0db2 0F98     		ldr	r0, [sp, #60]
 2716 0db4 FFF7FEFF 		bl	free
 2717              	.LVL428:
 594:Source\azure_iot_sdk\uamqp\src/amqpvalue_to_string.c ****                     result = NULL;
 2718              		.loc 1 594 0
 2719 0db8 0023     		movs	r3, #0
 2720 0dba 0F93     		str	r3, [sp, #60]
 2721 0dbc 68E1     		b	.L10
 2722              	.L167:
 595:Source\azure_iot_sdk\uamqp\src/amqpvalue_to_string.c ****                 }
 596:Source\azure_iot_sdk\uamqp\src/amqpvalue_to_string.c ****                 else if (string_concat(&result, "}") != 0)
 2723              		.loc 1 596 0
 2724 0dbe 2049     		ldr	r1, .L206+24
 2725 0dc0 0FA8     		add	r0, sp, #60
 2726 0dc2 FFF7FEFF 		bl	string_concat
 2727              	.LVL429:
 2728 0dc6 0028     		cmp	r0, #0
 2729 0dc8 00D1     		bne	.LCB2694
 2730 0dca 61E1     		b	.L10	@long jump
 2731              	.LCB2694:
 2732              	.LBB88:
 597:Source\azure_iot_sdk\uamqp\src/amqpvalue_to_string.c ****                 {
 598:Source\azure_iot_sdk\uamqp\src/amqpvalue_to_string.c ****                     LogError("Failure building amqp value string");
 2733              		.loc 1 598 0 discriminator 3
 2734 0dcc FFF7FEFF 		bl	xlogging_get_log_function
 2735              	.LVL430:
 2736 0dd0 041E     		subs	r4, r0, #0
 2737              	.LVL431:
 2738 0dd2 09D0     		beq	.L168
ARM GAS  C:\Users\Phuong\AppData\Local\Temp\ccU7OqD6.s 			page 60


 2739              		.loc 1 598 0 is_stmt 0 discriminator 4
 2740 0dd4 194B     		ldr	r3, .L206+20
 2741 0dd6 0193     		str	r3, [sp, #4]
 2742 0dd8 0123     		movs	r3, #1
 2743 0dda 0093     		str	r3, [sp]
 2744 0ddc 264B     		ldr	r3, .L206+80
 2745 0dde 134A     		ldr	r2, .L206+4
 2746 0de0 1032     		adds	r2, r2, #16
 2747 0de2 1349     		ldr	r1, .L206+8
 2748 0de4 0020     		movs	r0, #0
 2749              	.LVL432:
 2750 0de6 A047     		blx	r4
 2751              	.LVL433:
 2752              	.L168:
 2753              	.LBE88:
 599:Source\azure_iot_sdk\uamqp\src/amqpvalue_to_string.c ****                     free(result);
 2754              		.loc 1 599 0 is_stmt 1
 2755 0de8 0F98     		ldr	r0, [sp, #60]
 2756 0dea FFF7FEFF 		bl	free
 2757              	.LVL434:
 600:Source\azure_iot_sdk\uamqp\src/amqpvalue_to_string.c ****                     result = NULL;
 2758              		.loc 1 600 0
 2759 0dee 0023     		movs	r3, #0
 2760 0df0 0F93     		str	r3, [sp, #60]
 2761 0df2 4DE1     		b	.L10
 2762              	.LVL435:
 2763              	.L33:
 2764              	.LBE89:
 2765              	.LBE77:
 2766              	.LBB90:
 601:Source\azure_iot_sdk\uamqp\src/amqpvalue_to_string.c ****                 }
 602:Source\azure_iot_sdk\uamqp\src/amqpvalue_to_string.c ****             }
 603:Source\azure_iot_sdk\uamqp\src/amqpvalue_to_string.c ****             break;
 604:Source\azure_iot_sdk\uamqp\src/amqpvalue_to_string.c ****         }
 605:Source\azure_iot_sdk\uamqp\src/amqpvalue_to_string.c ****         case AMQP_TYPE_ARRAY:
 606:Source\azure_iot_sdk\uamqp\src/amqpvalue_to_string.c ****         {
 607:Source\azure_iot_sdk\uamqp\src/amqpvalue_to_string.c ****             uint32_t count;
 608:Source\azure_iot_sdk\uamqp\src/amqpvalue_to_string.c ****             if (amqpvalue_get_array_item_count(amqp_value, &count) != 0)
 2767              		.loc 1 608 0
 2768 0df4 08A9     		add	r1, sp, #32
 2769 0df6 2000     		movs	r0, r4
 2770 0df8 FFF7FEFF 		bl	amqpvalue_get_array_item_count
 2771              	.LVL436:
 2772 0dfc 0028     		cmp	r0, #0
 2773 0dfe 41D0     		beq	.L169
 2774              	.LBB91:
 609:Source\azure_iot_sdk\uamqp\src/amqpvalue_to_string.c ****             {
 610:Source\azure_iot_sdk\uamqp\src/amqpvalue_to_string.c ****                 LogError("Failure getting array item count");
 2775              		.loc 1 610 0 discriminator 3
 2776 0e00 FFF7FEFF 		bl	xlogging_get_log_function
 2777              	.LVL437:
 2778 0e04 041E     		subs	r4, r0, #0
 2779              	.LVL438:
 2780 0e06 09D0     		beq	.L170
 2781              		.loc 1 610 0 is_stmt 0 discriminator 4
 2782 0e08 1C4B     		ldr	r3, .L206+84
 2783 0e0a 0193     		str	r3, [sp, #4]
ARM GAS  C:\Users\Phuong\AppData\Local\Temp\ccU7OqD6.s 			page 61


 2784 0e0c 0123     		movs	r3, #1
 2785 0e0e 0093     		str	r3, [sp]
 2786 0e10 1B4B     		ldr	r3, .L206+88
 2787 0e12 064A     		ldr	r2, .L206+4
 2788 0e14 1032     		adds	r2, r2, #16
 2789 0e16 0649     		ldr	r1, .L206+8
 2790 0e18 0020     		movs	r0, #0
 2791              	.LVL439:
 2792 0e1a A047     		blx	r4
 2793              	.LVL440:
 2794              	.L170:
 2795              	.LBE91:
 611:Source\azure_iot_sdk\uamqp\src/amqpvalue_to_string.c ****                 free(result);
 2796              		.loc 1 611 0 is_stmt 1
 2797 0e1c 0F98     		ldr	r0, [sp, #60]
 2798 0e1e FFF7FEFF 		bl	free
 2799              	.LVL441:
 612:Source\azure_iot_sdk\uamqp\src/amqpvalue_to_string.c ****                 result = NULL;
 2800              		.loc 1 612 0
 2801 0e22 0023     		movs	r3, #0
 2802 0e24 0F93     		str	r3, [sp, #60]
 2803 0e26 33E1     		b	.L10
 2804              	.L207:
 2805              		.align	2
 2806              	.L206:
 2807 0e28 68030000 		.word	.LC90
 2808 0e2c 5C000000 		.word	.LANCHOR0
 2809 0e30 00000000 		.word	.LC1
 2810 0e34 8C030000 		.word	.LC92
 2811 0e38 B4030000 		.word	.LC94
 2812 0e3c 98000000 		.word	.LC20
 2813 0e40 B8030000 		.word	.LC96
 2814 0e44 BC030000 		.word	.LC98
 2815 0e48 07020000 		.word	519
 2816 0e4c 64030000 		.word	.LC88
 2817 0e50 0D020000 		.word	525
 2818 0e54 DC030000 		.word	.LC100
 2819 0e58 1A020000 		.word	538
 2820 0e5c 04040000 		.word	.LC102
 2821 0e60 22020000 		.word	546
 2822 0e64 38040000 		.word	.LC104
 2823 0e68 68040000 		.word	.LC106
 2824 0e6c 6C040000 		.word	.LC108
 2825 0e70 70040000 		.word	.LC110
 2826 0e74 3B020000 		.word	571
 2827 0e78 56020000 		.word	598
 2828 0e7c 74040000 		.word	.LC112
 2829 0e80 62020000 		.word	610
 2830              	.LVL442:
 2831              	.L169:
 613:Source\azure_iot_sdk\uamqp\src/amqpvalue_to_string.c ****             }
 614:Source\azure_iot_sdk\uamqp\src/amqpvalue_to_string.c ****             else if (string_concat(&result, "{") != 0)
 2832              		.loc 1 614 0
 2833 0e84 8449     		ldr	r1, .L208
 2834 0e86 0FA8     		add	r0, sp, #60
 2835 0e88 FFF7FEFF 		bl	string_concat
 2836              	.LVL443:
ARM GAS  C:\Users\Phuong\AppData\Local\Temp\ccU7OqD6.s 			page 62


 2837 0e8c 0028     		cmp	r0, #0
 2838 0e8e 6DD0     		beq	.L198
 2839              	.LBB92:
 615:Source\azure_iot_sdk\uamqp\src/amqpvalue_to_string.c ****             {
 616:Source\azure_iot_sdk\uamqp\src/amqpvalue_to_string.c ****                 LogError("Failure building amqp value string");
 2840              		.loc 1 616 0 discriminator 3
 2841 0e90 FFF7FEFF 		bl	xlogging_get_log_function
 2842              	.LVL444:
 2843 0e94 041E     		subs	r4, r0, #0
 2844              	.LVL445:
 2845 0e96 0AD0     		beq	.L173
 2846              		.loc 1 616 0 is_stmt 0 discriminator 4
 2847 0e98 804B     		ldr	r3, .L208+4
 2848 0e9a 0193     		str	r3, [sp, #4]
 2849 0e9c 0123     		movs	r3, #1
 2850 0e9e 0093     		str	r3, [sp]
 2851 0ea0 9A23     		movs	r3, #154
 2852 0ea2 9B00     		lsls	r3, r3, #2
 2853 0ea4 7E4A     		ldr	r2, .L208+8
 2854 0ea6 1032     		adds	r2, r2, #16
 2855 0ea8 7E49     		ldr	r1, .L208+12
 2856 0eaa 0020     		movs	r0, #0
 2857              	.LVL446:
 2858 0eac A047     		blx	r4
 2859              	.LVL447:
 2860              	.L173:
 2861              	.LBE92:
 617:Source\azure_iot_sdk\uamqp\src/amqpvalue_to_string.c ****                 free(result);
 2862              		.loc 1 617 0 is_stmt 1
 2863 0eae 0F98     		ldr	r0, [sp, #60]
 2864 0eb0 FFF7FEFF 		bl	free
 2865              	.LVL448:
 618:Source\azure_iot_sdk\uamqp\src/amqpvalue_to_string.c ****                 result = NULL;
 2866              		.loc 1 618 0
 2867 0eb4 0023     		movs	r3, #0
 2868 0eb6 0F93     		str	r3, [sp, #60]
 2869 0eb8 EAE0     		b	.L10
 2870              	.LVL449:
 2871              	.L182:
 2872              	.LBB93:
 2873              	.LBB94:
 619:Source\azure_iot_sdk\uamqp\src/amqpvalue_to_string.c ****             }
 620:Source\azure_iot_sdk\uamqp\src/amqpvalue_to_string.c ****             else
 621:Source\azure_iot_sdk\uamqp\src/amqpvalue_to_string.c ****             {
 622:Source\azure_iot_sdk\uamqp\src/amqpvalue_to_string.c ****                 uint32_t i;
 623:Source\azure_iot_sdk\uamqp\src/amqpvalue_to_string.c ****                 for (i = 0; i < count; i++)
 624:Source\azure_iot_sdk\uamqp\src/amqpvalue_to_string.c ****                 {
 625:Source\azure_iot_sdk\uamqp\src/amqpvalue_to_string.c ****                     AMQP_VALUE item = amqpvalue_get_array_item(amqp_value, i);
 2874              		.loc 1 625 0
 2875 0eba 2900     		movs	r1, r5
 2876 0ebc 2000     		movs	r0, r4
 2877 0ebe FFF7FEFF 		bl	amqpvalue_get_array_item
 2878              	.LVL450:
 2879 0ec2 061E     		subs	r6, r0, #0
 2880              	.LVL451:
 626:Source\azure_iot_sdk\uamqp\src/amqpvalue_to_string.c ****                     if (item == NULL)
 2881              		.loc 1 626 0
ARM GAS  C:\Users\Phuong\AppData\Local\Temp\ccU7OqD6.s 			page 63


 2882 0ec4 10D1     		bne	.L174
 2883              	.LBB95:
 627:Source\azure_iot_sdk\uamqp\src/amqpvalue_to_string.c ****                     {
 628:Source\azure_iot_sdk\uamqp\src/amqpvalue_to_string.c ****                         LogError("Failure getting array item for index %u", (unsigned int)i);
 2884              		.loc 1 628 0 discriminator 3
 2885 0ec6 FFF7FEFF 		bl	xlogging_get_log_function
 2886              	.LVL452:
 2887 0eca 041E     		subs	r4, r0, #0
 2888              	.LVL453:
 2889 0ecc 52D0     		beq	.L175
 2890              		.loc 1 628 0 is_stmt 0 discriminator 4
 2891 0ece 0295     		str	r5, [sp, #8]
 2892 0ed0 754B     		ldr	r3, .L208+16
 2893 0ed2 0193     		str	r3, [sp, #4]
 2894 0ed4 0123     		movs	r3, #1
 2895 0ed6 0093     		str	r3, [sp]
 2896 0ed8 9D23     		movs	r3, #157
 2897 0eda 9B00     		lsls	r3, r3, #2
 2898 0edc 704A     		ldr	r2, .L208+8
 2899 0ede 1032     		adds	r2, r2, #16
 2900 0ee0 7049     		ldr	r1, .L208+12
 2901 0ee2 0020     		movs	r0, #0
 2902              	.LVL454:
 2903 0ee4 A047     		blx	r4
 2904              	.LVL455:
 2905 0ee6 45E0     		b	.L175
 2906              	.LVL456:
 2907              	.L174:
 2908              	.LBE95:
 2909              	.LBB96:
 629:Source\azure_iot_sdk\uamqp\src/amqpvalue_to_string.c ****                         break;
 630:Source\azure_iot_sdk\uamqp\src/amqpvalue_to_string.c ****                     }
 631:Source\azure_iot_sdk\uamqp\src/amqpvalue_to_string.c ****                     else
 632:Source\azure_iot_sdk\uamqp\src/amqpvalue_to_string.c ****                     {
 633:Source\azure_iot_sdk\uamqp\src/amqpvalue_to_string.c ****                         char* item_string = amqpvalue_to_string(item);
 2910              		.loc 1 633 0 is_stmt 1
 2911 0ee8 FFF7FEFF 		bl	amqpvalue_to_string
 2912              	.LVL457:
 2913 0eec 071E     		subs	r7, r0, #0
 2914              	.LVL458:
 634:Source\azure_iot_sdk\uamqp\src/amqpvalue_to_string.c ****                         if (item_string == NULL)
 2915              		.loc 1 634 0
 2916 0eee 13D1     		bne	.L176
 2917              	.LBB97:
 635:Source\azure_iot_sdk\uamqp\src/amqpvalue_to_string.c ****                         {
 636:Source\azure_iot_sdk\uamqp\src/amqpvalue_to_string.c ****                             LogError("Failure getting stringified array item value for index %u", (
 2918              		.loc 1 636 0 discriminator 3
 2919 0ef0 FFF7FEFF 		bl	xlogging_get_log_function
 2920              	.LVL459:
 2921 0ef4 041E     		subs	r4, r0, #0
 2922              	.LVL460:
 2923 0ef6 0BD0     		beq	.L177
 2924              		.loc 1 636 0 is_stmt 0 discriminator 4
 2925 0ef8 0295     		str	r5, [sp, #8]
 2926 0efa 6C4B     		ldr	r3, .L208+20
 2927 0efc 0193     		str	r3, [sp, #4]
 2928 0efe 0123     		movs	r3, #1
ARM GAS  C:\Users\Phuong\AppData\Local\Temp\ccU7OqD6.s 			page 64


 2929 0f00 0093     		str	r3, [sp]
 2930 0f02 9F23     		movs	r3, #159
 2931 0f04 9B00     		lsls	r3, r3, #2
 2932 0f06 664A     		ldr	r2, .L208+8
 2933 0f08 1032     		adds	r2, r2, #16
 2934 0f0a 6649     		ldr	r1, .L208+12
 2935 0f0c 0020     		movs	r0, #0
 2936              	.LVL461:
 2937 0f0e A047     		blx	r4
 2938              	.LVL462:
 2939              	.L177:
 2940              	.LBE97:
 637:Source\azure_iot_sdk\uamqp\src/amqpvalue_to_string.c ****                             amqpvalue_destroy(item);
 2941              		.loc 1 637 0 is_stmt 1
 2942 0f10 3000     		movs	r0, r6
 2943 0f12 FFF7FEFF 		bl	amqpvalue_destroy
 2944              	.LVL463:
 638:Source\azure_iot_sdk\uamqp\src/amqpvalue_to_string.c ****                             break;
 2945              		.loc 1 638 0
 2946 0f16 2DE0     		b	.L175
 2947              	.LVL464:
 2948              	.L176:
 639:Source\azure_iot_sdk\uamqp\src/amqpvalue_to_string.c ****                         }
 640:Source\azure_iot_sdk\uamqp\src/amqpvalue_to_string.c ****                         else
 641:Source\azure_iot_sdk\uamqp\src/amqpvalue_to_string.c ****                         {
 642:Source\azure_iot_sdk\uamqp\src/amqpvalue_to_string.c ****                             if (((i > 0) && (string_concat(&result, ",") != 0)) ||
 2949              		.loc 1 642 0
 2950 0f18 002D     		cmp	r5, #0
 2951 0f1a 05D0     		beq	.L178
 2952              		.loc 1 642 0 is_stmt 0 discriminator 1
 2953 0f1c 6449     		ldr	r1, .L208+24
 2954 0f1e 0FA8     		add	r0, sp, #60
 2955              	.LVL465:
 2956 0f20 FFF7FEFF 		bl	string_concat
 2957              	.LVL466:
 2958 0f24 0028     		cmp	r0, #0
 2959 0f26 05D1     		bne	.L179
 2960              	.L178:
 643:Source\azure_iot_sdk\uamqp\src/amqpvalue_to_string.c ****                                  (string_concat(&result, item_string) != 0))
 2961              		.loc 1 643 0 is_stmt 1 discriminator 3
 2962 0f28 3900     		movs	r1, r7
 2963 0f2a 0FA8     		add	r0, sp, #60
 2964 0f2c FFF7FEFF 		bl	string_concat
 2965              	.LVL467:
 642:Source\azure_iot_sdk\uamqp\src/amqpvalue_to_string.c ****                                  (string_concat(&result, item_string) != 0))
 2966              		.loc 1 642 0 discriminator 3
 2967 0f30 0028     		cmp	r0, #0
 2968 0f32 13D0     		beq	.L180
 2969              	.L179:
 2970              	.LBB98:
 644:Source\azure_iot_sdk\uamqp\src/amqpvalue_to_string.c ****                             {
 645:Source\azure_iot_sdk\uamqp\src/amqpvalue_to_string.c ****                                 LogError("Failure building amqp value string");
 2971              		.loc 1 645 0 discriminator 3
 2972 0f34 FFF7FEFF 		bl	xlogging_get_log_function
 2973              	.LVL468:
 2974 0f38 041E     		subs	r4, r0, #0
 2975              	.LVL469:
ARM GAS  C:\Users\Phuong\AppData\Local\Temp\ccU7OqD6.s 			page 65


 2976 0f3a 09D0     		beq	.L181
 2977              		.loc 1 645 0 is_stmt 0 discriminator 4
 2978 0f3c 574B     		ldr	r3, .L208+4
 2979 0f3e 0193     		str	r3, [sp, #4]
 2980 0f40 0123     		movs	r3, #1
 2981 0f42 0093     		str	r3, [sp]
 2982 0f44 5B4B     		ldr	r3, .L208+28
 2983 0f46 564A     		ldr	r2, .L208+8
 2984 0f48 1032     		adds	r2, r2, #16
 2985 0f4a 5649     		ldr	r1, .L208+12
 2986 0f4c 0020     		movs	r0, #0
 2987              	.LVL470:
 2988 0f4e A047     		blx	r4
 2989              	.LVL471:
 2990              	.L181:
 2991              	.LBE98:
 646:Source\azure_iot_sdk\uamqp\src/amqpvalue_to_string.c ****                                 free(result);
 2992              		.loc 1 646 0 is_stmt 1
 2993 0f50 0F98     		ldr	r0, [sp, #60]
 2994 0f52 FFF7FEFF 		bl	free
 2995              	.LVL472:
 647:Source\azure_iot_sdk\uamqp\src/amqpvalue_to_string.c ****                                 result = NULL;
 2996              		.loc 1 647 0
 2997 0f56 0023     		movs	r3, #0
 2998 0f58 0F93     		str	r3, [sp, #60]
 648:Source\azure_iot_sdk\uamqp\src/amqpvalue_to_string.c ****                                 break;
 2999              		.loc 1 648 0
 3000 0f5a 0BE0     		b	.L175
 3001              	.LVL473:
 3002              	.L180:
 649:Source\azure_iot_sdk\uamqp\src/amqpvalue_to_string.c ****                             }
 650:Source\azure_iot_sdk\uamqp\src/amqpvalue_to_string.c **** 
 651:Source\azure_iot_sdk\uamqp\src/amqpvalue_to_string.c ****                             free(item_string);
 3003              		.loc 1 651 0 discriminator 2
 3004 0f5c 3800     		movs	r0, r7
 3005 0f5e FFF7FEFF 		bl	free
 3006              	.LVL474:
 652:Source\azure_iot_sdk\uamqp\src/amqpvalue_to_string.c ****                         }
 653:Source\azure_iot_sdk\uamqp\src/amqpvalue_to_string.c **** 
 654:Source\azure_iot_sdk\uamqp\src/amqpvalue_to_string.c ****                         amqpvalue_destroy(item);
 3007              		.loc 1 654 0 discriminator 2
 3008 0f62 3000     		movs	r0, r6
 3009 0f64 FFF7FEFF 		bl	amqpvalue_destroy
 3010              	.LVL475:
 3011              	.LBE96:
 3012              	.LBE94:
 623:Source\azure_iot_sdk\uamqp\src/amqpvalue_to_string.c ****                 {
 3013              		.loc 1 623 0 discriminator 2
 3014 0f68 0135     		adds	r5, r5, #1
 3015              	.LVL476:
 3016 0f6a 00E0     		b	.L172
 3017              	.LVL477:
 3018              	.L198:
 3019              	.LBE93:
 3020 0f6c 0025     		movs	r5, #0
 3021              	.L172:
 3022              	.LVL478:
ARM GAS  C:\Users\Phuong\AppData\Local\Temp\ccU7OqD6.s 			page 66


 3023              	.LBB100:
 623:Source\azure_iot_sdk\uamqp\src/amqpvalue_to_string.c ****                 {
 3024              		.loc 1 623 0 is_stmt 0 discriminator 1
 3025 0f6e 089B     		ldr	r3, [sp, #32]
 3026 0f70 9D42     		cmp	r5, r3
 3027 0f72 A2D3     		bcc	.L182
 3028              	.LVL479:
 3029              	.L175:
 655:Source\azure_iot_sdk\uamqp\src/amqpvalue_to_string.c ****                     }
 656:Source\azure_iot_sdk\uamqp\src/amqpvalue_to_string.c ****                 }
 657:Source\azure_iot_sdk\uamqp\src/amqpvalue_to_string.c **** 
 658:Source\azure_iot_sdk\uamqp\src/amqpvalue_to_string.c ****                 if (i < count)
 3030              		.loc 1 658 0 is_stmt 1
 3031 0f74 089B     		ldr	r3, [sp, #32]
 3032 0f76 9D42     		cmp	r5, r3
 3033 0f78 05D2     		bcs	.L183
 659:Source\azure_iot_sdk\uamqp\src/amqpvalue_to_string.c ****                 {
 660:Source\azure_iot_sdk\uamqp\src/amqpvalue_to_string.c ****                     // no log here, we already logged the error
 661:Source\azure_iot_sdk\uamqp\src/amqpvalue_to_string.c ****                     free(result);
 3034              		.loc 1 661 0
 3035 0f7a 0F98     		ldr	r0, [sp, #60]
 3036 0f7c FFF7FEFF 		bl	free
 3037              	.LVL480:
 662:Source\azure_iot_sdk\uamqp\src/amqpvalue_to_string.c ****                     result = NULL;
 3038              		.loc 1 662 0
 3039 0f80 0023     		movs	r3, #0
 3040 0f82 0F93     		str	r3, [sp, #60]
 3041 0f84 84E0     		b	.L10
 3042              	.L183:
 663:Source\azure_iot_sdk\uamqp\src/amqpvalue_to_string.c ****                 }
 664:Source\azure_iot_sdk\uamqp\src/amqpvalue_to_string.c ****                 else if (string_concat(&result, "}") != 0)
 3043              		.loc 1 664 0
 3044 0f86 4C49     		ldr	r1, .L208+32
 3045 0f88 0FA8     		add	r0, sp, #60
 3046 0f8a FFF7FEFF 		bl	string_concat
 3047              	.LVL481:
 3048 0f8e 0028     		cmp	r0, #0
 3049 0f90 00D1     		bne	.LCB3034
 3050 0f92 7DE0     		b	.L10	@long jump
 3051              	.LCB3034:
 3052              	.LBB99:
 665:Source\azure_iot_sdk\uamqp\src/amqpvalue_to_string.c ****                 {
 666:Source\azure_iot_sdk\uamqp\src/amqpvalue_to_string.c ****                     LogError("Failure building amqp value string");
 3053              		.loc 1 666 0 discriminator 3
 3054 0f94 FFF7FEFF 		bl	xlogging_get_log_function
 3055              	.LVL482:
 3056 0f98 041E     		subs	r4, r0, #0
 3057              	.LVL483:
 3058 0f9a 09D0     		beq	.L184
 3059              		.loc 1 666 0 is_stmt 0 discriminator 4
 3060 0f9c 3F4B     		ldr	r3, .L208+4
 3061 0f9e 0193     		str	r3, [sp, #4]
 3062 0fa0 0123     		movs	r3, #1
 3063 0fa2 0093     		str	r3, [sp]
 3064 0fa4 454B     		ldr	r3, .L208+36
 3065 0fa6 3E4A     		ldr	r2, .L208+8
 3066 0fa8 1032     		adds	r2, r2, #16
ARM GAS  C:\Users\Phuong\AppData\Local\Temp\ccU7OqD6.s 			page 67


 3067 0faa 3E49     		ldr	r1, .L208+12
 3068 0fac 0020     		movs	r0, #0
 3069              	.LVL484:
 3070 0fae A047     		blx	r4
 3071              	.LVL485:
 3072              	.L184:
 3073              	.LBE99:
 667:Source\azure_iot_sdk\uamqp\src/amqpvalue_to_string.c ****                     free(result);
 3074              		.loc 1 667 0 is_stmt 1
 3075 0fb0 0F98     		ldr	r0, [sp, #60]
 3076 0fb2 FFF7FEFF 		bl	free
 3077              	.LVL486:
 668:Source\azure_iot_sdk\uamqp\src/amqpvalue_to_string.c ****                     result = NULL;
 3078              		.loc 1 668 0
 3079 0fb6 0023     		movs	r3, #0
 3080 0fb8 0F93     		str	r3, [sp, #60]
 3081 0fba 69E0     		b	.L10
 3082              	.LVL487:
 3083              	.L34:
 3084              	.LBE100:
 3085              	.LBE90:
 3086              	.LBB101:
 669:Source\azure_iot_sdk\uamqp\src/amqpvalue_to_string.c ****                 }
 670:Source\azure_iot_sdk\uamqp\src/amqpvalue_to_string.c ****             }
 671:Source\azure_iot_sdk\uamqp\src/amqpvalue_to_string.c ****             break;
 672:Source\azure_iot_sdk\uamqp\src/amqpvalue_to_string.c ****         }
 673:Source\azure_iot_sdk\uamqp\src/amqpvalue_to_string.c ****         case AMQP_TYPE_COMPOSITE:
 674:Source\azure_iot_sdk\uamqp\src/amqpvalue_to_string.c ****         case AMQP_TYPE_DESCRIBED:
 675:Source\azure_iot_sdk\uamqp\src/amqpvalue_to_string.c ****         {
 676:Source\azure_iot_sdk\uamqp\src/amqpvalue_to_string.c ****             AMQP_VALUE described_value = amqpvalue_get_inplace_described_value(amqp_value);
 3087              		.loc 1 676 0
 3088 0fbc 2000     		movs	r0, r4
 3089 0fbe FFF7FEFF 		bl	amqpvalue_get_inplace_described_value
 3090              	.LVL488:
 3091 0fc2 041E     		subs	r4, r0, #0
 3092              	.LVL489:
 677:Source\azure_iot_sdk\uamqp\src/amqpvalue_to_string.c ****             if (described_value == NULL)
 3093              		.loc 1 677 0
 3094 0fc4 13D1     		bne	.L185
 3095              	.LBB102:
 678:Source\azure_iot_sdk\uamqp\src/amqpvalue_to_string.c ****             {
 679:Source\azure_iot_sdk\uamqp\src/amqpvalue_to_string.c ****                 LogError("Failure getting described value");
 3096              		.loc 1 679 0 discriminator 3
 3097 0fc6 FFF7FEFF 		bl	xlogging_get_log_function
 3098              	.LVL490:
 3099 0fca 041E     		subs	r4, r0, #0
 3100              	.LVL491:
 3101 0fcc 09D0     		beq	.L186
 3102              		.loc 1 679 0 is_stmt 0 discriminator 4
 3103 0fce 3C4B     		ldr	r3, .L208+40
 3104 0fd0 0193     		str	r3, [sp, #4]
 3105 0fd2 0123     		movs	r3, #1
 3106 0fd4 0093     		str	r3, [sp]
 3107 0fd6 3B4B     		ldr	r3, .L208+44
 3108 0fd8 314A     		ldr	r2, .L208+8
 3109 0fda 1032     		adds	r2, r2, #16
 3110 0fdc 3149     		ldr	r1, .L208+12
ARM GAS  C:\Users\Phuong\AppData\Local\Temp\ccU7OqD6.s 			page 68


 3111 0fde 0020     		movs	r0, #0
 3112              	.LVL492:
 3113 0fe0 A047     		blx	r4
 3114              	.LVL493:
 3115              	.L186:
 3116              	.LBE102:
 680:Source\azure_iot_sdk\uamqp\src/amqpvalue_to_string.c ****                 free(result);
 3117              		.loc 1 680 0 is_stmt 1
 3118 0fe2 0F98     		ldr	r0, [sp, #60]
 3119 0fe4 FFF7FEFF 		bl	free
 3120              	.LVL494:
 681:Source\azure_iot_sdk\uamqp\src/amqpvalue_to_string.c ****                 result = NULL;
 3121              		.loc 1 681 0
 3122 0fe8 0023     		movs	r3, #0
 3123 0fea 0F93     		str	r3, [sp, #60]
 3124 0fec 50E0     		b	.L10
 3125              	.LVL495:
 3126              	.L185:
 682:Source\azure_iot_sdk\uamqp\src/amqpvalue_to_string.c ****             }
 683:Source\azure_iot_sdk\uamqp\src/amqpvalue_to_string.c ****             else
 684:Source\azure_iot_sdk\uamqp\src/amqpvalue_to_string.c ****             {
 685:Source\azure_iot_sdk\uamqp\src/amqpvalue_to_string.c ****                 if (string_concat(&result, "* ") != 0)
 3127              		.loc 1 685 0
 3128 0fee 3649     		ldr	r1, .L208+48
 3129 0ff0 0FA8     		add	r0, sp, #60
 3130              	.LVL496:
 3131 0ff2 FFF7FEFF 		bl	string_concat
 3132              	.LVL497:
 3133 0ff6 0028     		cmp	r0, #0
 3134 0ff8 13D0     		beq	.L187
 3135              	.LBB103:
 686:Source\azure_iot_sdk\uamqp\src/amqpvalue_to_string.c ****                 {
 687:Source\azure_iot_sdk\uamqp\src/amqpvalue_to_string.c ****                     LogError("Failure building amqp value string");
 3136              		.loc 1 687 0 discriminator 3
 3137 0ffa FFF7FEFF 		bl	xlogging_get_log_function
 3138              	.LVL498:
 3139 0ffe 041E     		subs	r4, r0, #0
 3140              	.LVL499:
 3141 1000 09D0     		beq	.L188
 3142              		.loc 1 687 0 is_stmt 0 discriminator 4
 3143 1002 264B     		ldr	r3, .L208+4
 3144 1004 0193     		str	r3, [sp, #4]
 3145 1006 0123     		movs	r3, #1
 3146 1008 0093     		str	r3, [sp]
 3147 100a 304B     		ldr	r3, .L208+52
 3148 100c 244A     		ldr	r2, .L208+8
 3149 100e 1032     		adds	r2, r2, #16
 3150 1010 2449     		ldr	r1, .L208+12
 3151 1012 0020     		movs	r0, #0
 3152              	.LVL500:
 3153 1014 A047     		blx	r4
 3154              	.LVL501:
 3155              	.L188:
 3156              	.LBE103:
 688:Source\azure_iot_sdk\uamqp\src/amqpvalue_to_string.c ****                     free(result);
 3157              		.loc 1 688 0 is_stmt 1
 3158 1016 0F98     		ldr	r0, [sp, #60]
ARM GAS  C:\Users\Phuong\AppData\Local\Temp\ccU7OqD6.s 			page 69


 3159 1018 FFF7FEFF 		bl	free
 3160              	.LVL502:
 689:Source\azure_iot_sdk\uamqp\src/amqpvalue_to_string.c ****                     result = NULL;
 3161              		.loc 1 689 0
 3162 101c 0023     		movs	r3, #0
 3163 101e 0F93     		str	r3, [sp, #60]
 3164 1020 36E0     		b	.L10
 3165              	.LVL503:
 3166              	.L187:
 3167              	.LBB104:
 690:Source\azure_iot_sdk\uamqp\src/amqpvalue_to_string.c ****                 }
 691:Source\azure_iot_sdk\uamqp\src/amqpvalue_to_string.c ****                 else
 692:Source\azure_iot_sdk\uamqp\src/amqpvalue_to_string.c ****                 {
 693:Source\azure_iot_sdk\uamqp\src/amqpvalue_to_string.c ****                     char* described_value_string = amqpvalue_to_string(described_value);
 3168              		.loc 1 693 0
 3169 1022 2000     		movs	r0, r4
 3170 1024 FFF7FEFF 		bl	amqpvalue_to_string
 3171              	.LVL504:
 3172 1028 041E     		subs	r4, r0, #0
 3173              	.LVL505:
 694:Source\azure_iot_sdk\uamqp\src/amqpvalue_to_string.c ****                     if (described_value_string == NULL)
 3174              		.loc 1 694 0
 3175 102a 14D1     		bne	.L189
 3176              	.LBB105:
 695:Source\azure_iot_sdk\uamqp\src/amqpvalue_to_string.c ****                     {
 696:Source\azure_iot_sdk\uamqp\src/amqpvalue_to_string.c ****                         LogError("Failure getting stringified described value");
 3177              		.loc 1 696 0 discriminator 3
 3178 102c FFF7FEFF 		bl	xlogging_get_log_function
 3179              	.LVL506:
 3180 1030 041E     		subs	r4, r0, #0
 3181              	.LVL507:
 3182 1032 0AD0     		beq	.L190
 3183              		.loc 1 696 0 is_stmt 0 discriminator 4
 3184 1034 264B     		ldr	r3, .L208+56
 3185 1036 0193     		str	r3, [sp, #4]
 3186 1038 0123     		movs	r3, #1
 3187 103a 0093     		str	r3, [sp]
 3188 103c AE23     		movs	r3, #174
 3189 103e 9B00     		lsls	r3, r3, #2
 3190 1040 174A     		ldr	r2, .L208+8
 3191 1042 1032     		adds	r2, r2, #16
 3192 1044 1749     		ldr	r1, .L208+12
 3193 1046 0020     		movs	r0, #0
 3194              	.LVL508:
 3195 1048 A047     		blx	r4
 3196              	.LVL509:
 3197              	.L190:
 3198              	.LBE105:
 697:Source\azure_iot_sdk\uamqp\src/amqpvalue_to_string.c ****                         free(result);
 3199              		.loc 1 697 0 is_stmt 1
 3200 104a 0F98     		ldr	r0, [sp, #60]
 3201 104c FFF7FEFF 		bl	free
 3202              	.LVL510:
 698:Source\azure_iot_sdk\uamqp\src/amqpvalue_to_string.c ****                         result = NULL;
 3203              		.loc 1 698 0
 3204 1050 0023     		movs	r3, #0
 3205 1052 0F93     		str	r3, [sp, #60]
ARM GAS  C:\Users\Phuong\AppData\Local\Temp\ccU7OqD6.s 			page 70


 3206 1054 1CE0     		b	.L10
 3207              	.LVL511:
 3208              	.L189:
 699:Source\azure_iot_sdk\uamqp\src/amqpvalue_to_string.c ****                     }
 700:Source\azure_iot_sdk\uamqp\src/amqpvalue_to_string.c ****                     else
 701:Source\azure_iot_sdk\uamqp\src/amqpvalue_to_string.c ****                     {
 702:Source\azure_iot_sdk\uamqp\src/amqpvalue_to_string.c ****                         if (string_concat(&result, described_value_string) != 0)
 3209              		.loc 1 702 0
 3210 1056 0100     		movs	r1, r0
 3211 1058 0FA8     		add	r0, sp, #60
 3212              	.LVL512:
 3213 105a FFF7FEFF 		bl	string_concat
 3214              	.LVL513:
 3215 105e 0028     		cmp	r0, #0
 3216 1060 13D0     		beq	.L191
 3217              	.LBB106:
 703:Source\azure_iot_sdk\uamqp\src/amqpvalue_to_string.c ****                         {
 704:Source\azure_iot_sdk\uamqp\src/amqpvalue_to_string.c ****                             LogError("Failure building amqp value string");
 3218              		.loc 1 704 0 discriminator 3
 3219 1062 FFF7FEFF 		bl	xlogging_get_log_function
 3220              	.LVL514:
 3221 1066 051E     		subs	r5, r0, #0
 3222              	.LVL515:
 3223 1068 0AD0     		beq	.L192
 3224              		.loc 1 704 0 is_stmt 0 discriminator 4
 3225 106a 0C4B     		ldr	r3, .L208+4
 3226 106c 0193     		str	r3, [sp, #4]
 3227 106e 0123     		movs	r3, #1
 3228 1070 0093     		str	r3, [sp]
 3229 1072 B023     		movs	r3, #176
 3230 1074 9B00     		lsls	r3, r3, #2
 3231 1076 0A4A     		ldr	r2, .L208+8
 3232 1078 1032     		adds	r2, r2, #16
 3233 107a 0A49     		ldr	r1, .L208+12
 3234 107c 0020     		movs	r0, #0
 3235              	.LVL516:
 3236 107e A847     		blx	r5
 3237              	.LVL517:
 3238              	.L192:
 3239              	.LBE106:
 705:Source\azure_iot_sdk\uamqp\src/amqpvalue_to_string.c ****                             free(result);
 3240              		.loc 1 705 0 is_stmt 1
 3241 1080 0F98     		ldr	r0, [sp, #60]
 3242 1082 FFF7FEFF 		bl	free
 3243              	.LVL518:
 706:Source\azure_iot_sdk\uamqp\src/amqpvalue_to_string.c ****                             result = NULL;
 3244              		.loc 1 706 0
 3245 1086 0023     		movs	r3, #0
 3246 1088 0F93     		str	r3, [sp, #60]
 3247              	.LVL519:
 3248              	.L191:
 707:Source\azure_iot_sdk\uamqp\src/amqpvalue_to_string.c ****                         }
 708:Source\azure_iot_sdk\uamqp\src/amqpvalue_to_string.c **** 
 709:Source\azure_iot_sdk\uamqp\src/amqpvalue_to_string.c ****                         free(described_value_string);
 3249              		.loc 1 709 0
 3250 108a 2000     		movs	r0, r4
 3251 108c FFF7FEFF 		bl	free
ARM GAS  C:\Users\Phuong\AppData\Local\Temp\ccU7OqD6.s 			page 71


 3252              	.LVL520:
 3253              	.L10:
 3254              	.LBE104:
 3255              	.LBE101:
 3256              	.LBE3:
 710:Source\azure_iot_sdk\uamqp\src/amqpvalue_to_string.c ****                     }
 711:Source\azure_iot_sdk\uamqp\src/amqpvalue_to_string.c ****                 }
 712:Source\azure_iot_sdk\uamqp\src/amqpvalue_to_string.c ****             }
 713:Source\azure_iot_sdk\uamqp\src/amqpvalue_to_string.c ****             break;
 714:Source\azure_iot_sdk\uamqp\src/amqpvalue_to_string.c ****         }
 715:Source\azure_iot_sdk\uamqp\src/amqpvalue_to_string.c ****         }
 716:Source\azure_iot_sdk\uamqp\src/amqpvalue_to_string.c ****     }
 717:Source\azure_iot_sdk\uamqp\src/amqpvalue_to_string.c **** 
 718:Source\azure_iot_sdk\uamqp\src/amqpvalue_to_string.c ****     return result;
 719:Source\azure_iot_sdk\uamqp\src/amqpvalue_to_string.c **** }
 3257              		.loc 1 719 0
 3258 1090 0F98     		ldr	r0, [sp, #60]
 3259 1092 11B0     		add	sp, sp, #68
 3260              		@ sp needed
 3261 1094 F0BD     		pop	{r4, r5, r6, r7, pc}
 3262              	.L209:
 3263 1096 C046     		.align	2
 3264              	.L208:
 3265 1098 64030000 		.word	.LC88
 3266 109c 98000000 		.word	.LC20
 3267 10a0 5C000000 		.word	.LANCHOR0
 3268 10a4 00000000 		.word	.LC1
 3269 10a8 98040000 		.word	.LC114
 3270 10ac C0040000 		.word	.LC116
 3271 10b0 B4030000 		.word	.LC94
 3272 10b4 85020000 		.word	645
 3273 10b8 B8030000 		.word	.LC96
 3274 10bc 9A020000 		.word	666
 3275 10c0 FC040000 		.word	.LC118
 3276 10c4 A7020000 		.word	679
 3277 10c8 1C050000 		.word	.LC120
 3278 10cc AF020000 		.word	687
 3279 10d0 20050000 		.word	.LC122
 3280              		.cfi_endproc
 3281              	.LFE2:
 3282              		.size	amqpvalue_to_string, .-amqpvalue_to_string
 3283              		.section	.rodata
 3284              		.align	2
 3285              		.set	.LANCHOR0,. + 0
 3286              		.type	__func__.6133, %object
 3287              		.size	__func__.6133, 14
 3288              	__func__.6133:
 3289 005c 73747269 		.ascii	"string_concat\000"
 3289      6E675F63 
 3289      6F6E6361 
 3289      7400
 3290 006a 0000     		.space	2
 3291              		.type	__func__.6143, %object
 3292              		.size	__func__.6143, 20
 3293              	__func__.6143:
 3294 006c 616D7170 		.ascii	"amqpvalue_to_string\000"
 3294      76616C75 
ARM GAS  C:\Users\Phuong\AppData\Local\Temp\ccU7OqD6.s 			page 72


 3294      655F746F 
 3294      5F737472 
 3294      696E6700 
 3295              		.section	.rodata.str1.4,"aMS",%progbits,1
 3296              		.align	2
 3297              	.LC1:
 3298 0000 536F7572 		.ascii	"Source\\azure_iot_sdk\\uamqp\\src\\amqpvalue_to_str"
 3298      63655C61 
 3298      7A757265 
 3298      5F696F74 
 3298      5F73646B 
 3299 002f 696E672E 		.ascii	"ing.c\000"
 3299      6300
 3300 0035 000000   		.space	3
 3301              	.LC3:
 3302 0038 43616E6E 		.ascii	"Cannot allocate memory for the new string\000"
 3302      6F742061 
 3302      6C6C6F63 
 3302      61746520 
 3302      6D656D6F 
 3303 0062 0000     		.space	2
 3304              	.LC5:
 3305 0064 74727565 		.ascii	"true\000"
 3305      00
 3306 0069 000000   		.space	3
 3307              	.LC7:
 3308 006c 66616C73 		.ascii	"false\000"
 3308      6500
 3309 0072 0000     		.space	2
 3310              	.LC9:
 3311 0074 2000     		.ascii	" \000"
 3312 0076 0000     		.space	2
 3313              	.LC11:
 3314 0078 00       		.ascii	"\000"
 3315 0079 000000   		.space	3
 3316              	.LC16:
 3317 007c 556E6B6E 		.ascii	"Unknown AMQP type\000"
 3317      6F776E20 
 3317      414D5150 
 3317      20747970 
 3317      6500
 3318 008e 0000     		.space	2
 3319              	.LC18:
 3320 0090 4E554C4C 		.ascii	"NULL\000"
 3320      00
 3321 0095 000000   		.space	3
 3322              	.LC20:
 3323 0098 4661696C 		.ascii	"Failure building amqp value string\000"
 3323      75726520 
 3323      6275696C 
 3323      64696E67 
 3323      20616D71 
 3324 00bb 00       		.space	1
 3325              	.LC22:
 3326 00bc 4661696C 		.ascii	"Failure getting bool value\000"
 3326      75726520 
 3326      67657474 
ARM GAS  C:\Users\Phuong\AppData\Local\Temp\ccU7OqD6.s 			page 73


 3326      696E6720 
 3326      626F6F6C 
 3327 00d7 00       		.space	1
 3328              	.LC24:
 3329 00d8 4661696C 		.ascii	"Failure getting ubyte value\000"
 3329      75726520 
 3329      67657474 
 3329      696E6720 
 3329      75627974 
 3330              	.LC26:
 3331 00f4 25686875 		.ascii	"%hhu\000"
 3331      00
 3332 00f9 000000   		.space	3
 3333              	.LC28:
 3334 00fc 4661696C 		.ascii	"Failure getting ushort value\000"
 3334      75726520 
 3334      67657474 
 3334      696E6720 
 3334      7573686F 
 3335 0119 000000   		.space	3
 3336              	.LC30:
 3337 011c 25687500 		.ascii	"%hu\000"
 3338              	.LC32:
 3339 0120 4661696C 		.ascii	"Failure getting uint value\000"
 3339      75726520 
 3339      67657474 
 3339      696E6720 
 3339      75696E74 
 3340 013b 00       		.space	1
 3341              	.LC34:
 3342 013c 256C7500 		.ascii	"%lu\000"
 3343              	.LC36:
 3344 0140 4661696C 		.ascii	"Failure getting ulong value\000"
 3344      75726520 
 3344      67657474 
 3344      696E6720 
 3344      756C6F6E 
 3345              	.LC38:
 3346 015c 256C6C75 		.ascii	"%llu\000"
 3346      00
 3347 0161 000000   		.space	3
 3348              	.LC40:
 3349 0164 4661696C 		.ascii	"Failure getting byte value\000"
 3349      75726520 
 3349      67657474 
 3349      696E6720 
 3349      62797465 
 3350 017f 00       		.space	1
 3351              	.LC42:
 3352 0180 25686864 		.ascii	"%hhd\000"
 3352      00
 3353 0185 000000   		.space	3
 3354              	.LC44:
 3355 0188 4661696C 		.ascii	"Failure getting short value\000"
 3355      75726520 
 3355      67657474 
 3355      696E6720 
ARM GAS  C:\Users\Phuong\AppData\Local\Temp\ccU7OqD6.s 			page 74


 3355      73686F72 
 3356              	.LC46:
 3357 01a4 25686400 		.ascii	"%hd\000"
 3358              	.LC48:
 3359 01a8 4661696C 		.ascii	"Failure getting int value\000"
 3359      75726520 
 3359      67657474 
 3359      696E6720 
 3359      696E7420 
 3360 01c2 0000     		.space	2
 3361              	.LC50:
 3362 01c4 256C6400 		.ascii	"%ld\000"
 3363              	.LC52:
 3364 01c8 4661696C 		.ascii	"Failure getting long value\000"
 3364      75726520 
 3364      67657474 
 3364      696E6720 
 3364      6C6F6E67 
 3365 01e3 00       		.space	1
 3366              	.LC54:
 3367 01e4 256C6C64 		.ascii	"%lld\000"
 3367      00
 3368 01e9 000000   		.space	3
 3369              	.LC56:
 3370 01ec 4661696C 		.ascii	"Failure getting float value\000"
 3370      75726520 
 3370      67657474 
 3370      696E6720 
 3370      666C6F61 
 3371              	.LC58:
 3372 0208 252E3032 		.ascii	"%.02f\000"
 3372      6600
 3373 020e 0000     		.space	2
 3374              	.LC60:
 3375 0210 4661696C 		.ascii	"Failure getting double value\000"
 3375      75726520 
 3375      67657474 
 3375      696E6720 
 3375      646F7562 
 3376 022d 000000   		.space	3
 3377              	.LC62:
 3378 0230 252E3032 		.ascii	"%.02lf\000"
 3378      6C6600
 3379 0237 00       		.space	1
 3380              	.LC64:
 3381 0238 4661696C 		.ascii	"Failure getting char value\000"
 3381      75726520 
 3381      67657474 
 3381      696E6720 
 3381      63686172 
 3382 0253 00       		.space	1
 3383              	.LC66:
 3384 0254 55253032 		.ascii	"U%02X%02X%02X%02X\000"
 3384      58253032 
 3384      58253032 
 3384      58253032 
 3384      5800
ARM GAS  C:\Users\Phuong\AppData\Local\Temp\ccU7OqD6.s 			page 75


 3385 0266 0000     		.space	2
 3386              	.LC68:
 3387 0268 4661696C 		.ascii	"Failure getting timestamp value\000"
 3387      75726520 
 3387      67657474 
 3387      696E6720 
 3387      74696D65 
 3388              	.LC70:
 3389 0288 4661696C 		.ascii	"Failure getting uuid value\000"
 3389      75726520 
 3389      67657474 
 3389      696E6720 
 3389      75756964 
 3390 02a3 00       		.space	1
 3391              	.LC72:
 3392 02a4 4661696C 		.ascii	"Failure getting UUID stringified value\000"
 3392      75726520 
 3392      67657474 
 3392      696E6720 
 3392      55554944 
 3393 02cb 00       		.space	1
 3394              	.LC74:
 3395 02cc 4661696C 		.ascii	"Failure getting binary value\000"
 3395      75726520 
 3395      67657474 
 3395      696E6720 
 3395      62696E61 
 3396 02e9 000000   		.space	3
 3397              	.LC76:
 3398 02ec 3C00     		.ascii	"<\000"
 3399 02ee 0000     		.space	2
 3400              	.LC78:
 3401 02f0 25732530 		.ascii	"%s%02X\000"
 3401      325800
 3402 02f7 00       		.space	1
 3403              	.LC80:
 3404 02f8 3E00     		.ascii	">\000"
 3405 02fa 0000     		.space	2
 3406              	.LC82:
 3407 02fc 4661696C 		.ascii	"Failure getting string value\000"
 3407      75726520 
 3407      67657474 
 3407      696E6720 
 3407      73747269 
 3408 0319 000000   		.space	3
 3409              	.LC84:
 3410 031c 4661696C 		.ascii	"Failure getting symbol value\000"
 3410      75726520 
 3410      67657474 
 3410      696E6720 
 3410      73796D62 
 3411 0339 000000   		.space	3
 3412              	.LC86:
 3413 033c 4661696C 		.ascii	"Failure getting list item count value\000"
 3413      75726520 
 3413      67657474 
 3413      696E6720 
ARM GAS  C:\Users\Phuong\AppData\Local\Temp\ccU7OqD6.s 			page 76


 3413      6C697374 
 3414 0362 0000     		.space	2
 3415              	.LC88:
 3416 0364 7B00     		.ascii	"{\000"
 3417 0366 0000     		.space	2
 3418              	.LC90:
 3419 0368 4661696C 		.ascii	"Failure getting item %u from list\000"
 3419      75726520 
 3419      67657474 
 3419      696E6720 
 3419      6974656D 
 3420 038a 0000     		.space	2
 3421              	.LC92:
 3422 038c 4661696C 		.ascii	"Failure converting item %u to string\000"
 3422      75726520 
 3422      636F6E76 
 3422      65727469 
 3422      6E672069 
 3423 03b1 000000   		.space	3
 3424              	.LC94:
 3425 03b4 2C00     		.ascii	",\000"
 3426 03b6 0000     		.space	2
 3427              	.LC96:
 3428 03b8 7D00     		.ascii	"}\000"
 3429 03ba 0000     		.space	2
 3430              	.LC98:
 3431 03bc 4661696C 		.ascii	"Failure getting map pair count\000"
 3431      75726520 
 3431      67657474 
 3431      696E6720 
 3431      6D617020 
 3432 03db 00       		.space	1
 3433              	.LC100:
 3434 03dc 4661696C 		.ascii	"Failure getting key/value pair index %u\000"
 3434      75726520 
 3434      67657474 
 3434      696E6720 
 3434      6B65792F 
 3435              	.LC102:
 3436 0404 4661696C 		.ascii	"Failure getting stringified key value for index %u\000"
 3436      75726520 
 3436      67657474 
 3436      696E6720 
 3436      73747269 
 3437 0437 00       		.space	1
 3438              	.LC104:
 3439 0438 4661696C 		.ascii	"Failure getting stringified value for index %u\000"
 3439      75726520 
 3439      67657474 
 3439      696E6720 
 3439      73747269 
 3440 0467 00       		.space	1
 3441              	.LC106:
 3442 0468 5B00     		.ascii	"[\000"
 3443 046a 0000     		.space	2
 3444              	.LC108:
 3445 046c 3A00     		.ascii	":\000"
ARM GAS  C:\Users\Phuong\AppData\Local\Temp\ccU7OqD6.s 			page 77


 3446 046e 0000     		.space	2
 3447              	.LC110:
 3448 0470 5D00     		.ascii	"]\000"
 3449 0472 0000     		.space	2
 3450              	.LC112:
 3451 0474 4661696C 		.ascii	"Failure getting array item count\000"
 3451      75726520 
 3451      67657474 
 3451      696E6720 
 3451      61727261 
 3452 0495 000000   		.space	3
 3453              	.LC114:
 3454 0498 4661696C 		.ascii	"Failure getting array item for index %u\000"
 3454      75726520 
 3454      67657474 
 3454      696E6720 
 3454      61727261 
 3455              	.LC116:
 3456 04c0 4661696C 		.ascii	"Failure getting stringified array item value for in"
 3456      75726520 
 3456      67657474 
 3456      696E6720 
 3456      73747269 
 3457 04f3 64657820 		.ascii	"dex %u\000"
 3457      257500
 3458 04fa 0000     		.space	2
 3459              	.LC118:
 3460 04fc 4661696C 		.ascii	"Failure getting described value\000"
 3460      75726520 
 3460      67657474 
 3460      696E6720 
 3460      64657363 
 3461              	.LC120:
 3462 051c 2A2000   		.ascii	"* \000"
 3463 051f 00       		.space	1
 3464              	.LC122:
 3465 0520 4661696C 		.ascii	"Failure getting stringified described value\000"
 3465      75726520 
 3465      67657474 
 3465      696E6720 
 3465      73747269 
 3466              		.text
 3467              	.Letext0:
 3468              		.file 2 "c:\\program files (x86)\\cypress\\psoc creator\\4.2\\psoc creator\\import\\gnu\\arm\\5.4.
 3469              		.file 3 "c:\\program files (x86)\\cypress\\psoc creator\\4.2\\psoc creator\\import\\gnu\\arm\\5.4.
 3470              		.file 4 "c:\\program files (x86)\\cypress\\psoc creator\\4.2\\psoc creator\\import\\gnu\\arm\\5.4.
 3471              		.file 5 ".\\Source\\azure_iot_sdk\\c-utility\\inc/azure_c_shared_utility/xlogging.h"
 3472              		.file 6 ".\\Source\\azure_iot_sdk\\c-utility\\inc/azure_c_shared_utility/uuid.h"
 3473              		.file 7 ".\\Source\\azure_iot_sdk\\uamqp\\inc/azure_uamqp_c/amqp_types.h"
 3474              		.file 8 ".\\Source\\azure_iot_sdk\\uamqp\\inc/azure_uamqp_c/amqpvalue.h"
 3475              		.file 9 "c:\\program files (x86)\\cypress\\psoc creator\\4.2\\psoc creator\\import\\gnu\\arm\\5.4.
 3476              		.file 10 "c:\\program files (x86)\\cypress\\psoc creator\\4.2\\psoc creator\\import\\gnu\\arm\\5.4
 3477              		.file 11 "c:\\program files (x86)\\cypress\\psoc creator\\4.2\\psoc creator\\import\\gnu\\arm\\5.4