ARM GAS  C:\Users\Phuong\AppData\Local\Temp\cczJKlkA.s 			page 1


   1              		.syntax unified
   2              		.cpu cortex-m0plus
   3              		.fpu softvfp
   4              		.eabi_attribute 20, 1
   5              		.eabi_attribute 21, 1
   6              		.eabi_attribute 23, 3
   7              		.eabi_attribute 24, 1
   8              		.eabi_attribute 25, 1
   9              		.eabi_attribute 26, 1
  10              		.eabi_attribute 30, 1
  11              		.eabi_attribute 34, 0
  12              		.eabi_attribute 18, 4
  13              		.thumb
  14              		.syntax unified
  15              		.file	"amqp_definitions.c"
  16              		.text
  17              	.Ltext0:
  18              		.cfi_sections	.debug_frame
  19              		.section	.text.error_create_internal,"ax",%progbits
  20              		.align	2
  21              		.code	16
  22              		.thumb_func
  23              		.type	error_create_internal, %function
  24              	error_create_internal:
  25              	.LFB13:
  26              		.file 1 "Source\\azure_iot_sdk\\uamqp\\src\\amqp_definitions.c"
   1:Source\azure_iot_sdk\uamqp\src/amqp_definitions.c **** 
   2:Source\azure_iot_sdk\uamqp\src/amqp_definitions.c **** 
   3:Source\azure_iot_sdk\uamqp\src/amqp_definitions.c **** // Copyright (c) Microsoft. All rights reserved.
   4:Source\azure_iot_sdk\uamqp\src/amqp_definitions.c **** // Licensed under the MIT license. See LICENSE file in the project root for full license informatio
   5:Source\azure_iot_sdk\uamqp\src/amqp_definitions.c **** 
   6:Source\azure_iot_sdk\uamqp\src/amqp_definitions.c **** // This file is generated. DO NOT EDIT it manually.
   7:Source\azure_iot_sdk\uamqp\src/amqp_definitions.c **** // The generator that produces it is located at /uamqp_generator/uamqp_generator.sln
   8:Source\azure_iot_sdk\uamqp\src/amqp_definitions.c **** 
   9:Source\azure_iot_sdk\uamqp\src/amqp_definitions.c **** #include <stdlib.h>
  10:Source\azure_iot_sdk\uamqp\src/amqp_definitions.c **** #include "azure_c_shared_utility/optimize_size.h"
  11:Source\azure_iot_sdk\uamqp\src/amqp_definitions.c **** #include "azure_c_shared_utility/gballoc.h"
  12:Source\azure_iot_sdk\uamqp\src/amqp_definitions.c **** #include "azure_uamqp_c/amqpvalue.h"
  13:Source\azure_iot_sdk\uamqp\src/amqp_definitions.c **** #include "azure_uamqp_c/amqp_definitions.h"
  14:Source\azure_iot_sdk\uamqp\src/amqp_definitions.c **** #include <stdlib.h>
  15:Source\azure_iot_sdk\uamqp\src/amqp_definitions.c **** #include <stdbool.h>
  16:Source\azure_iot_sdk\uamqp\src/amqp_definitions.c **** 
  17:Source\azure_iot_sdk\uamqp\src/amqp_definitions.c **** /* role */
  18:Source\azure_iot_sdk\uamqp\src/amqp_definitions.c **** 
  19:Source\azure_iot_sdk\uamqp\src/amqp_definitions.c **** AMQP_VALUE amqpvalue_create_role(role value)
  20:Source\azure_iot_sdk\uamqp\src/amqp_definitions.c **** {
  21:Source\azure_iot_sdk\uamqp\src/amqp_definitions.c ****     return amqpvalue_create_boolean(value);
  22:Source\azure_iot_sdk\uamqp\src/amqp_definitions.c **** }
  23:Source\azure_iot_sdk\uamqp\src/amqp_definitions.c **** 
  24:Source\azure_iot_sdk\uamqp\src/amqp_definitions.c **** /* sender-settle-mode */
  25:Source\azure_iot_sdk\uamqp\src/amqp_definitions.c **** 
  26:Source\azure_iot_sdk\uamqp\src/amqp_definitions.c **** AMQP_VALUE amqpvalue_create_sender_settle_mode(sender_settle_mode value)
  27:Source\azure_iot_sdk\uamqp\src/amqp_definitions.c **** {
  28:Source\azure_iot_sdk\uamqp\src/amqp_definitions.c ****     return amqpvalue_create_ubyte(value);
  29:Source\azure_iot_sdk\uamqp\src/amqp_definitions.c **** }
  30:Source\azure_iot_sdk\uamqp\src/amqp_definitions.c **** 
  31:Source\azure_iot_sdk\uamqp\src/amqp_definitions.c **** /* receiver-settle-mode */
ARM GAS  C:\Users\Phuong\AppData\Local\Temp\cczJKlkA.s 			page 2


  32:Source\azure_iot_sdk\uamqp\src/amqp_definitions.c **** 
  33:Source\azure_iot_sdk\uamqp\src/amqp_definitions.c **** AMQP_VALUE amqpvalue_create_receiver_settle_mode(receiver_settle_mode value)
  34:Source\azure_iot_sdk\uamqp\src/amqp_definitions.c **** {
  35:Source\azure_iot_sdk\uamqp\src/amqp_definitions.c ****     return amqpvalue_create_ubyte(value);
  36:Source\azure_iot_sdk\uamqp\src/amqp_definitions.c **** }
  37:Source\azure_iot_sdk\uamqp\src/amqp_definitions.c **** 
  38:Source\azure_iot_sdk\uamqp\src/amqp_definitions.c **** /* handle */
  39:Source\azure_iot_sdk\uamqp\src/amqp_definitions.c **** 
  40:Source\azure_iot_sdk\uamqp\src/amqp_definitions.c **** AMQP_VALUE amqpvalue_create_handle(handle value)
  41:Source\azure_iot_sdk\uamqp\src/amqp_definitions.c **** {
  42:Source\azure_iot_sdk\uamqp\src/amqp_definitions.c ****     return amqpvalue_create_uint(value);
  43:Source\azure_iot_sdk\uamqp\src/amqp_definitions.c **** }
  44:Source\azure_iot_sdk\uamqp\src/amqp_definitions.c **** 
  45:Source\azure_iot_sdk\uamqp\src/amqp_definitions.c **** /* seconds */
  46:Source\azure_iot_sdk\uamqp\src/amqp_definitions.c **** 
  47:Source\azure_iot_sdk\uamqp\src/amqp_definitions.c **** AMQP_VALUE amqpvalue_create_seconds(seconds value)
  48:Source\azure_iot_sdk\uamqp\src/amqp_definitions.c **** {
  49:Source\azure_iot_sdk\uamqp\src/amqp_definitions.c ****     return amqpvalue_create_uint(value);
  50:Source\azure_iot_sdk\uamqp\src/amqp_definitions.c **** }
  51:Source\azure_iot_sdk\uamqp\src/amqp_definitions.c **** 
  52:Source\azure_iot_sdk\uamqp\src/amqp_definitions.c **** /* milliseconds */
  53:Source\azure_iot_sdk\uamqp\src/amqp_definitions.c **** 
  54:Source\azure_iot_sdk\uamqp\src/amqp_definitions.c **** AMQP_VALUE amqpvalue_create_milliseconds(milliseconds value)
  55:Source\azure_iot_sdk\uamqp\src/amqp_definitions.c **** {
  56:Source\azure_iot_sdk\uamqp\src/amqp_definitions.c ****     return amqpvalue_create_uint(value);
  57:Source\azure_iot_sdk\uamqp\src/amqp_definitions.c **** }
  58:Source\azure_iot_sdk\uamqp\src/amqp_definitions.c **** 
  59:Source\azure_iot_sdk\uamqp\src/amqp_definitions.c **** /* delivery-tag */
  60:Source\azure_iot_sdk\uamqp\src/amqp_definitions.c **** 
  61:Source\azure_iot_sdk\uamqp\src/amqp_definitions.c **** AMQP_VALUE amqpvalue_create_delivery_tag(delivery_tag value)
  62:Source\azure_iot_sdk\uamqp\src/amqp_definitions.c **** {
  63:Source\azure_iot_sdk\uamqp\src/amqp_definitions.c ****     return amqpvalue_create_binary(value);
  64:Source\azure_iot_sdk\uamqp\src/amqp_definitions.c **** }
  65:Source\azure_iot_sdk\uamqp\src/amqp_definitions.c **** 
  66:Source\azure_iot_sdk\uamqp\src/amqp_definitions.c **** /* sequence-no */
  67:Source\azure_iot_sdk\uamqp\src/amqp_definitions.c **** 
  68:Source\azure_iot_sdk\uamqp\src/amqp_definitions.c **** AMQP_VALUE amqpvalue_create_sequence_no(sequence_no value)
  69:Source\azure_iot_sdk\uamqp\src/amqp_definitions.c **** {
  70:Source\azure_iot_sdk\uamqp\src/amqp_definitions.c ****     return amqpvalue_create_uint(value);
  71:Source\azure_iot_sdk\uamqp\src/amqp_definitions.c **** }
  72:Source\azure_iot_sdk\uamqp\src/amqp_definitions.c **** 
  73:Source\azure_iot_sdk\uamqp\src/amqp_definitions.c **** /* delivery-number */
  74:Source\azure_iot_sdk\uamqp\src/amqp_definitions.c **** 
  75:Source\azure_iot_sdk\uamqp\src/amqp_definitions.c **** AMQP_VALUE amqpvalue_create_delivery_number(delivery_number value)
  76:Source\azure_iot_sdk\uamqp\src/amqp_definitions.c **** {
  77:Source\azure_iot_sdk\uamqp\src/amqp_definitions.c ****     return amqpvalue_create_sequence_no(value);
  78:Source\azure_iot_sdk\uamqp\src/amqp_definitions.c **** }
  79:Source\azure_iot_sdk\uamqp\src/amqp_definitions.c **** 
  80:Source\azure_iot_sdk\uamqp\src/amqp_definitions.c **** /* transfer-number */
  81:Source\azure_iot_sdk\uamqp\src/amqp_definitions.c **** 
  82:Source\azure_iot_sdk\uamqp\src/amqp_definitions.c **** AMQP_VALUE amqpvalue_create_transfer_number(transfer_number value)
  83:Source\azure_iot_sdk\uamqp\src/amqp_definitions.c **** {
  84:Source\azure_iot_sdk\uamqp\src/amqp_definitions.c ****     return amqpvalue_create_sequence_no(value);
  85:Source\azure_iot_sdk\uamqp\src/amqp_definitions.c **** }
  86:Source\azure_iot_sdk\uamqp\src/amqp_definitions.c **** 
  87:Source\azure_iot_sdk\uamqp\src/amqp_definitions.c **** /* message-format */
  88:Source\azure_iot_sdk\uamqp\src/amqp_definitions.c **** 
ARM GAS  C:\Users\Phuong\AppData\Local\Temp\cczJKlkA.s 			page 3


  89:Source\azure_iot_sdk\uamqp\src/amqp_definitions.c **** AMQP_VALUE amqpvalue_create_message_format(message_format value)
  90:Source\azure_iot_sdk\uamqp\src/amqp_definitions.c **** {
  91:Source\azure_iot_sdk\uamqp\src/amqp_definitions.c ****     return amqpvalue_create_uint(value);
  92:Source\azure_iot_sdk\uamqp\src/amqp_definitions.c **** }
  93:Source\azure_iot_sdk\uamqp\src/amqp_definitions.c **** 
  94:Source\azure_iot_sdk\uamqp\src/amqp_definitions.c **** /* ietf-language-tag */
  95:Source\azure_iot_sdk\uamqp\src/amqp_definitions.c **** 
  96:Source\azure_iot_sdk\uamqp\src/amqp_definitions.c **** AMQP_VALUE amqpvalue_create_ietf_language_tag(ietf_language_tag value)
  97:Source\azure_iot_sdk\uamqp\src/amqp_definitions.c **** {
  98:Source\azure_iot_sdk\uamqp\src/amqp_definitions.c ****     return amqpvalue_create_symbol(value);
  99:Source\azure_iot_sdk\uamqp\src/amqp_definitions.c **** }
 100:Source\azure_iot_sdk\uamqp\src/amqp_definitions.c **** 
 101:Source\azure_iot_sdk\uamqp\src/amqp_definitions.c **** /* fields */
 102:Source\azure_iot_sdk\uamqp\src/amqp_definitions.c **** 
 103:Source\azure_iot_sdk\uamqp\src/amqp_definitions.c **** AMQP_VALUE amqpvalue_create_fields(AMQP_VALUE value)
 104:Source\azure_iot_sdk\uamqp\src/amqp_definitions.c **** {
 105:Source\azure_iot_sdk\uamqp\src/amqp_definitions.c ****     return amqpvalue_clone(value);
 106:Source\azure_iot_sdk\uamqp\src/amqp_definitions.c **** }
 107:Source\azure_iot_sdk\uamqp\src/amqp_definitions.c **** 
 108:Source\azure_iot_sdk\uamqp\src/amqp_definitions.c **** /* error */
 109:Source\azure_iot_sdk\uamqp\src/amqp_definitions.c **** 
 110:Source\azure_iot_sdk\uamqp\src/amqp_definitions.c **** typedef struct ERROR_INSTANCE_TAG
 111:Source\azure_iot_sdk\uamqp\src/amqp_definitions.c **** {
 112:Source\azure_iot_sdk\uamqp\src/amqp_definitions.c ****     AMQP_VALUE composite_value;
 113:Source\azure_iot_sdk\uamqp\src/amqp_definitions.c **** } ERROR_INSTANCE;
 114:Source\azure_iot_sdk\uamqp\src/amqp_definitions.c **** 
 115:Source\azure_iot_sdk\uamqp\src/amqp_definitions.c **** static ERROR_HANDLE error_create_internal(void)
 116:Source\azure_iot_sdk\uamqp\src/amqp_definitions.c **** {
  27              		.loc 1 116 0
  28              		.cfi_startproc
  29              		@ args = 0, pretend = 0, frame = 0
  30              		@ frame_needed = 0, uses_anonymous_args = 0
  31 0000 10B5     		push	{r4, lr}
  32              		.cfi_def_cfa_offset 8
  33              		.cfi_offset 4, -8
  34              		.cfi_offset 14, -4
 117:Source\azure_iot_sdk\uamqp\src/amqp_definitions.c ****     ERROR_INSTANCE* error_instance = (ERROR_INSTANCE*)malloc(sizeof(ERROR_INSTANCE));
  35              		.loc 1 117 0
  36 0002 0420     		movs	r0, #4
  37 0004 FFF7FEFF 		bl	malloc
  38              	.LVL0:
 118:Source\azure_iot_sdk\uamqp\src/amqp_definitions.c ****     if (error_instance != NULL)
  39              		.loc 1 118 0
  40 0008 0028     		cmp	r0, #0
  41 000a 01D0     		beq	.L2
 119:Source\azure_iot_sdk\uamqp\src/amqp_definitions.c ****     {
 120:Source\azure_iot_sdk\uamqp\src/amqp_definitions.c ****         error_instance->composite_value = NULL;
  42              		.loc 1 120 0
  43 000c 0023     		movs	r3, #0
  44 000e 0360     		str	r3, [r0]
  45              	.L2:
 121:Source\azure_iot_sdk\uamqp\src/amqp_definitions.c ****     }
 122:Source\azure_iot_sdk\uamqp\src/amqp_definitions.c **** 
 123:Source\azure_iot_sdk\uamqp\src/amqp_definitions.c ****     return error_instance;
 124:Source\azure_iot_sdk\uamqp\src/amqp_definitions.c **** }
  46              		.loc 1 124 0
  47              		@ sp needed
ARM GAS  C:\Users\Phuong\AppData\Local\Temp\cczJKlkA.s 			page 4


  48 0010 10BD     		pop	{r4, pc}
  49              		.cfi_endproc
  50              	.LFE13:
  51              		.size	error_create_internal, .-error_create_internal
  52 0012 C046     		.section	.text.open_create_internal,"ax",%progbits
  53              		.align	2
  54              		.code	16
  55              		.thumb_func
  56              		.type	open_create_internal, %function
  57              	open_create_internal:
  58              	.LFB30:
 125:Source\azure_iot_sdk\uamqp\src/amqp_definitions.c **** 
 126:Source\azure_iot_sdk\uamqp\src/amqp_definitions.c **** ERROR_HANDLE error_create(const char* condition_value)
 127:Source\azure_iot_sdk\uamqp\src/amqp_definitions.c **** {
 128:Source\azure_iot_sdk\uamqp\src/amqp_definitions.c ****     ERROR_INSTANCE* error_instance = (ERROR_INSTANCE*)malloc(sizeof(ERROR_INSTANCE));
 129:Source\azure_iot_sdk\uamqp\src/amqp_definitions.c ****     if (error_instance != NULL)
 130:Source\azure_iot_sdk\uamqp\src/amqp_definitions.c ****     {
 131:Source\azure_iot_sdk\uamqp\src/amqp_definitions.c ****         error_instance->composite_value = amqpvalue_create_composite_with_ulong_descriptor(29);
 132:Source\azure_iot_sdk\uamqp\src/amqp_definitions.c ****         if (error_instance->composite_value == NULL)
 133:Source\azure_iot_sdk\uamqp\src/amqp_definitions.c ****         {
 134:Source\azure_iot_sdk\uamqp\src/amqp_definitions.c ****             free(error_instance);
 135:Source\azure_iot_sdk\uamqp\src/amqp_definitions.c ****             error_instance = NULL;
 136:Source\azure_iot_sdk\uamqp\src/amqp_definitions.c ****         }
 137:Source\azure_iot_sdk\uamqp\src/amqp_definitions.c ****         else
 138:Source\azure_iot_sdk\uamqp\src/amqp_definitions.c ****         {
 139:Source\azure_iot_sdk\uamqp\src/amqp_definitions.c ****             AMQP_VALUE condition_amqp_value;
 140:Source\azure_iot_sdk\uamqp\src/amqp_definitions.c ****             int result = 0;
 141:Source\azure_iot_sdk\uamqp\src/amqp_definitions.c **** 
 142:Source\azure_iot_sdk\uamqp\src/amqp_definitions.c ****             condition_amqp_value = amqpvalue_create_symbol(condition_value);
 143:Source\azure_iot_sdk\uamqp\src/amqp_definitions.c ****             if ((result == 0) && (amqpvalue_set_composite_item(error_instance->composite_value, 0, 
 144:Source\azure_iot_sdk\uamqp\src/amqp_definitions.c ****             {
 145:Source\azure_iot_sdk\uamqp\src/amqp_definitions.c ****                 result = __FAILURE__;
 146:Source\azure_iot_sdk\uamqp\src/amqp_definitions.c ****             }
 147:Source\azure_iot_sdk\uamqp\src/amqp_definitions.c **** 
 148:Source\azure_iot_sdk\uamqp\src/amqp_definitions.c ****             amqpvalue_destroy(condition_amqp_value);
 149:Source\azure_iot_sdk\uamqp\src/amqp_definitions.c ****         }
 150:Source\azure_iot_sdk\uamqp\src/amqp_definitions.c ****     }
 151:Source\azure_iot_sdk\uamqp\src/amqp_definitions.c **** 
 152:Source\azure_iot_sdk\uamqp\src/amqp_definitions.c ****     return error_instance;
 153:Source\azure_iot_sdk\uamqp\src/amqp_definitions.c **** }
 154:Source\azure_iot_sdk\uamqp\src/amqp_definitions.c **** 
 155:Source\azure_iot_sdk\uamqp\src/amqp_definitions.c **** ERROR_HANDLE error_clone(ERROR_HANDLE value)
 156:Source\azure_iot_sdk\uamqp\src/amqp_definitions.c **** {
 157:Source\azure_iot_sdk\uamqp\src/amqp_definitions.c ****     ERROR_INSTANCE* error_instance = (ERROR_INSTANCE*)malloc(sizeof(ERROR_INSTANCE));
 158:Source\azure_iot_sdk\uamqp\src/amqp_definitions.c ****     if (error_instance != NULL)
 159:Source\azure_iot_sdk\uamqp\src/amqp_definitions.c ****     {
 160:Source\azure_iot_sdk\uamqp\src/amqp_definitions.c ****         error_instance->composite_value = amqpvalue_clone(((ERROR_INSTANCE*)value)->composite_value
 161:Source\azure_iot_sdk\uamqp\src/amqp_definitions.c ****         if (error_instance->composite_value == NULL)
 162:Source\azure_iot_sdk\uamqp\src/amqp_definitions.c ****         {
 163:Source\azure_iot_sdk\uamqp\src/amqp_definitions.c ****             free(error_instance);
 164:Source\azure_iot_sdk\uamqp\src/amqp_definitions.c ****             error_instance = NULL;
 165:Source\azure_iot_sdk\uamqp\src/amqp_definitions.c ****         }
 166:Source\azure_iot_sdk\uamqp\src/amqp_definitions.c ****     }
 167:Source\azure_iot_sdk\uamqp\src/amqp_definitions.c **** 
 168:Source\azure_iot_sdk\uamqp\src/amqp_definitions.c ****     return error_instance;
 169:Source\azure_iot_sdk\uamqp\src/amqp_definitions.c **** }
 170:Source\azure_iot_sdk\uamqp\src/amqp_definitions.c **** 
ARM GAS  C:\Users\Phuong\AppData\Local\Temp\cczJKlkA.s 			page 5


 171:Source\azure_iot_sdk\uamqp\src/amqp_definitions.c **** void error_destroy(ERROR_HANDLE error)
 172:Source\azure_iot_sdk\uamqp\src/amqp_definitions.c **** {
 173:Source\azure_iot_sdk\uamqp\src/amqp_definitions.c ****     if (error != NULL)
 174:Source\azure_iot_sdk\uamqp\src/amqp_definitions.c ****     {
 175:Source\azure_iot_sdk\uamqp\src/amqp_definitions.c ****         ERROR_INSTANCE* error_instance = (ERROR_INSTANCE*)error;
 176:Source\azure_iot_sdk\uamqp\src/amqp_definitions.c ****         amqpvalue_destroy(error_instance->composite_value);
 177:Source\azure_iot_sdk\uamqp\src/amqp_definitions.c ****         free(error_instance);
 178:Source\azure_iot_sdk\uamqp\src/amqp_definitions.c ****     }
 179:Source\azure_iot_sdk\uamqp\src/amqp_definitions.c **** }
 180:Source\azure_iot_sdk\uamqp\src/amqp_definitions.c **** 
 181:Source\azure_iot_sdk\uamqp\src/amqp_definitions.c **** AMQP_VALUE amqpvalue_create_error(ERROR_HANDLE error)
 182:Source\azure_iot_sdk\uamqp\src/amqp_definitions.c **** {
 183:Source\azure_iot_sdk\uamqp\src/amqp_definitions.c ****     AMQP_VALUE result;
 184:Source\azure_iot_sdk\uamqp\src/amqp_definitions.c **** 
 185:Source\azure_iot_sdk\uamqp\src/amqp_definitions.c ****     if (error == NULL)
 186:Source\azure_iot_sdk\uamqp\src/amqp_definitions.c ****     {
 187:Source\azure_iot_sdk\uamqp\src/amqp_definitions.c ****         result = NULL;
 188:Source\azure_iot_sdk\uamqp\src/amqp_definitions.c ****     }
 189:Source\azure_iot_sdk\uamqp\src/amqp_definitions.c ****     else
 190:Source\azure_iot_sdk\uamqp\src/amqp_definitions.c ****     {
 191:Source\azure_iot_sdk\uamqp\src/amqp_definitions.c ****         ERROR_INSTANCE* error_instance = (ERROR_INSTANCE*)error;
 192:Source\azure_iot_sdk\uamqp\src/amqp_definitions.c ****         result = amqpvalue_clone(error_instance->composite_value);
 193:Source\azure_iot_sdk\uamqp\src/amqp_definitions.c ****     }
 194:Source\azure_iot_sdk\uamqp\src/amqp_definitions.c **** 
 195:Source\azure_iot_sdk\uamqp\src/amqp_definitions.c ****     return result;
 196:Source\azure_iot_sdk\uamqp\src/amqp_definitions.c **** }
 197:Source\azure_iot_sdk\uamqp\src/amqp_definitions.c **** 
 198:Source\azure_iot_sdk\uamqp\src/amqp_definitions.c **** bool is_error_type_by_descriptor(AMQP_VALUE descriptor)
 199:Source\azure_iot_sdk\uamqp\src/amqp_definitions.c **** {
 200:Source\azure_iot_sdk\uamqp\src/amqp_definitions.c ****     bool result;
 201:Source\azure_iot_sdk\uamqp\src/amqp_definitions.c **** 
 202:Source\azure_iot_sdk\uamqp\src/amqp_definitions.c ****     uint64_t descriptor_ulong;
 203:Source\azure_iot_sdk\uamqp\src/amqp_definitions.c ****     if ((amqpvalue_get_ulong(descriptor, &descriptor_ulong) == 0) &&
 204:Source\azure_iot_sdk\uamqp\src/amqp_definitions.c ****         (descriptor_ulong == 29))
 205:Source\azure_iot_sdk\uamqp\src/amqp_definitions.c ****     {
 206:Source\azure_iot_sdk\uamqp\src/amqp_definitions.c ****         result = true;
 207:Source\azure_iot_sdk\uamqp\src/amqp_definitions.c ****     }
 208:Source\azure_iot_sdk\uamqp\src/amqp_definitions.c ****     else
 209:Source\azure_iot_sdk\uamqp\src/amqp_definitions.c ****     {
 210:Source\azure_iot_sdk\uamqp\src/amqp_definitions.c ****         result = false;
 211:Source\azure_iot_sdk\uamqp\src/amqp_definitions.c ****     }
 212:Source\azure_iot_sdk\uamqp\src/amqp_definitions.c **** 
 213:Source\azure_iot_sdk\uamqp\src/amqp_definitions.c ****     return result;
 214:Source\azure_iot_sdk\uamqp\src/amqp_definitions.c **** }
 215:Source\azure_iot_sdk\uamqp\src/amqp_definitions.c **** 
 216:Source\azure_iot_sdk\uamqp\src/amqp_definitions.c **** 
 217:Source\azure_iot_sdk\uamqp\src/amqp_definitions.c **** int amqpvalue_get_error(AMQP_VALUE value, ERROR_HANDLE* error_handle)
 218:Source\azure_iot_sdk\uamqp\src/amqp_definitions.c **** {
 219:Source\azure_iot_sdk\uamqp\src/amqp_definitions.c ****     int result;
 220:Source\azure_iot_sdk\uamqp\src/amqp_definitions.c ****     ERROR_INSTANCE* error_instance = (ERROR_INSTANCE*)error_create_internal();
 221:Source\azure_iot_sdk\uamqp\src/amqp_definitions.c ****     *error_handle = error_instance;
 222:Source\azure_iot_sdk\uamqp\src/amqp_definitions.c ****     if (*error_handle == NULL)
 223:Source\azure_iot_sdk\uamqp\src/amqp_definitions.c ****     {
 224:Source\azure_iot_sdk\uamqp\src/amqp_definitions.c ****         result = __FAILURE__;
 225:Source\azure_iot_sdk\uamqp\src/amqp_definitions.c ****     }
 226:Source\azure_iot_sdk\uamqp\src/amqp_definitions.c ****     else
 227:Source\azure_iot_sdk\uamqp\src/amqp_definitions.c ****     {
ARM GAS  C:\Users\Phuong\AppData\Local\Temp\cczJKlkA.s 			page 6


 228:Source\azure_iot_sdk\uamqp\src/amqp_definitions.c ****         AMQP_VALUE list_value = amqpvalue_get_inplace_described_value(value);
 229:Source\azure_iot_sdk\uamqp\src/amqp_definitions.c ****         if (list_value == NULL)
 230:Source\azure_iot_sdk\uamqp\src/amqp_definitions.c ****         {
 231:Source\azure_iot_sdk\uamqp\src/amqp_definitions.c ****             error_destroy(*error_handle);
 232:Source\azure_iot_sdk\uamqp\src/amqp_definitions.c ****             result = __FAILURE__;
 233:Source\azure_iot_sdk\uamqp\src/amqp_definitions.c ****         }
 234:Source\azure_iot_sdk\uamqp\src/amqp_definitions.c ****         else
 235:Source\azure_iot_sdk\uamqp\src/amqp_definitions.c ****         {
 236:Source\azure_iot_sdk\uamqp\src/amqp_definitions.c ****             uint32_t list_item_count;
 237:Source\azure_iot_sdk\uamqp\src/amqp_definitions.c ****             if (amqpvalue_get_list_item_count(list_value, &list_item_count) != 0)
 238:Source\azure_iot_sdk\uamqp\src/amqp_definitions.c ****             {
 239:Source\azure_iot_sdk\uamqp\src/amqp_definitions.c ****                 result = __FAILURE__;
 240:Source\azure_iot_sdk\uamqp\src/amqp_definitions.c ****             }
 241:Source\azure_iot_sdk\uamqp\src/amqp_definitions.c ****             else
 242:Source\azure_iot_sdk\uamqp\src/amqp_definitions.c ****             {
 243:Source\azure_iot_sdk\uamqp\src/amqp_definitions.c ****                 do
 244:Source\azure_iot_sdk\uamqp\src/amqp_definitions.c ****                 {
 245:Source\azure_iot_sdk\uamqp\src/amqp_definitions.c ****                     AMQP_VALUE item_value;
 246:Source\azure_iot_sdk\uamqp\src/amqp_definitions.c ****                     /* condition */
 247:Source\azure_iot_sdk\uamqp\src/amqp_definitions.c ****                     if (list_item_count > 0)
 248:Source\azure_iot_sdk\uamqp\src/amqp_definitions.c ****                     {
 249:Source\azure_iot_sdk\uamqp\src/amqp_definitions.c ****                         item_value = amqpvalue_get_list_item(list_value, 0);
 250:Source\azure_iot_sdk\uamqp\src/amqp_definitions.c ****                         if (item_value == NULL)
 251:Source\azure_iot_sdk\uamqp\src/amqp_definitions.c ****                         {
 252:Source\azure_iot_sdk\uamqp\src/amqp_definitions.c ****                             {
 253:Source\azure_iot_sdk\uamqp\src/amqp_definitions.c ****                                 error_destroy(*error_handle);
 254:Source\azure_iot_sdk\uamqp\src/amqp_definitions.c ****                                 result = __FAILURE__;
 255:Source\azure_iot_sdk\uamqp\src/amqp_definitions.c ****                                 break;
 256:Source\azure_iot_sdk\uamqp\src/amqp_definitions.c ****                             }
 257:Source\azure_iot_sdk\uamqp\src/amqp_definitions.c ****                         }
 258:Source\azure_iot_sdk\uamqp\src/amqp_definitions.c ****                         else
 259:Source\azure_iot_sdk\uamqp\src/amqp_definitions.c ****                         {
 260:Source\azure_iot_sdk\uamqp\src/amqp_definitions.c ****                             if (amqpvalue_get_type(item_value) == AMQP_TYPE_NULL)
 261:Source\azure_iot_sdk\uamqp\src/amqp_definitions.c ****                             {
 262:Source\azure_iot_sdk\uamqp\src/amqp_definitions.c ****                                 amqpvalue_destroy(item_value);
 263:Source\azure_iot_sdk\uamqp\src/amqp_definitions.c ****                                 error_destroy(*error_handle);
 264:Source\azure_iot_sdk\uamqp\src/amqp_definitions.c ****                                 result = __FAILURE__;
 265:Source\azure_iot_sdk\uamqp\src/amqp_definitions.c ****                                 break;
 266:Source\azure_iot_sdk\uamqp\src/amqp_definitions.c ****                             }
 267:Source\azure_iot_sdk\uamqp\src/amqp_definitions.c ****                             else
 268:Source\azure_iot_sdk\uamqp\src/amqp_definitions.c ****                             {
 269:Source\azure_iot_sdk\uamqp\src/amqp_definitions.c ****                                 const char* condition;
 270:Source\azure_iot_sdk\uamqp\src/amqp_definitions.c ****                                 if (amqpvalue_get_symbol(item_value, &condition) != 0)
 271:Source\azure_iot_sdk\uamqp\src/amqp_definitions.c ****                                 {
 272:Source\azure_iot_sdk\uamqp\src/amqp_definitions.c ****                                     amqpvalue_destroy(item_value);
 273:Source\azure_iot_sdk\uamqp\src/amqp_definitions.c ****                                     error_destroy(*error_handle);
 274:Source\azure_iot_sdk\uamqp\src/amqp_definitions.c ****                                     result = __FAILURE__;
 275:Source\azure_iot_sdk\uamqp\src/amqp_definitions.c ****                                     break;
 276:Source\azure_iot_sdk\uamqp\src/amqp_definitions.c ****                                 }
 277:Source\azure_iot_sdk\uamqp\src/amqp_definitions.c ****                             }
 278:Source\azure_iot_sdk\uamqp\src/amqp_definitions.c **** 
 279:Source\azure_iot_sdk\uamqp\src/amqp_definitions.c ****                             amqpvalue_destroy(item_value);
 280:Source\azure_iot_sdk\uamqp\src/amqp_definitions.c ****                         }
 281:Source\azure_iot_sdk\uamqp\src/amqp_definitions.c ****                     }
 282:Source\azure_iot_sdk\uamqp\src/amqp_definitions.c ****                     else
 283:Source\azure_iot_sdk\uamqp\src/amqp_definitions.c ****                     {
 284:Source\azure_iot_sdk\uamqp\src/amqp_definitions.c ****                         result = __FAILURE__;
ARM GAS  C:\Users\Phuong\AppData\Local\Temp\cczJKlkA.s 			page 7


 285:Source\azure_iot_sdk\uamqp\src/amqp_definitions.c ****                     }
 286:Source\azure_iot_sdk\uamqp\src/amqp_definitions.c ****                     /* description */
 287:Source\azure_iot_sdk\uamqp\src/amqp_definitions.c ****                     if (list_item_count > 1)
 288:Source\azure_iot_sdk\uamqp\src/amqp_definitions.c ****                     {
 289:Source\azure_iot_sdk\uamqp\src/amqp_definitions.c ****                         item_value = amqpvalue_get_list_item(list_value, 1);
 290:Source\azure_iot_sdk\uamqp\src/amqp_definitions.c ****                         if (item_value == NULL)
 291:Source\azure_iot_sdk\uamqp\src/amqp_definitions.c ****                         {
 292:Source\azure_iot_sdk\uamqp\src/amqp_definitions.c ****                             /* do nothing */
 293:Source\azure_iot_sdk\uamqp\src/amqp_definitions.c ****                         }
 294:Source\azure_iot_sdk\uamqp\src/amqp_definitions.c ****                         else
 295:Source\azure_iot_sdk\uamqp\src/amqp_definitions.c ****                         {
 296:Source\azure_iot_sdk\uamqp\src/amqp_definitions.c ****                             if (amqpvalue_get_type(item_value) == AMQP_TYPE_NULL)
 297:Source\azure_iot_sdk\uamqp\src/amqp_definitions.c ****                             {
 298:Source\azure_iot_sdk\uamqp\src/amqp_definitions.c ****                                 /* no error, field is not mandatory */
 299:Source\azure_iot_sdk\uamqp\src/amqp_definitions.c ****                             }
 300:Source\azure_iot_sdk\uamqp\src/amqp_definitions.c ****                             else
 301:Source\azure_iot_sdk\uamqp\src/amqp_definitions.c ****                             {
 302:Source\azure_iot_sdk\uamqp\src/amqp_definitions.c ****                                 const char* description;
 303:Source\azure_iot_sdk\uamqp\src/amqp_definitions.c ****                                 if (amqpvalue_get_string(item_value, &description) != 0)
 304:Source\azure_iot_sdk\uamqp\src/amqp_definitions.c ****                                 {
 305:Source\azure_iot_sdk\uamqp\src/amqp_definitions.c ****                                     amqpvalue_destroy(item_value);
 306:Source\azure_iot_sdk\uamqp\src/amqp_definitions.c ****                                     error_destroy(*error_handle);
 307:Source\azure_iot_sdk\uamqp\src/amqp_definitions.c ****                                     result = __FAILURE__;
 308:Source\azure_iot_sdk\uamqp\src/amqp_definitions.c ****                                     break;
 309:Source\azure_iot_sdk\uamqp\src/amqp_definitions.c ****                                 }
 310:Source\azure_iot_sdk\uamqp\src/amqp_definitions.c ****                             }
 311:Source\azure_iot_sdk\uamqp\src/amqp_definitions.c **** 
 312:Source\azure_iot_sdk\uamqp\src/amqp_definitions.c ****                             amqpvalue_destroy(item_value);
 313:Source\azure_iot_sdk\uamqp\src/amqp_definitions.c ****                         }
 314:Source\azure_iot_sdk\uamqp\src/amqp_definitions.c ****                     }
 315:Source\azure_iot_sdk\uamqp\src/amqp_definitions.c ****                     /* info */
 316:Source\azure_iot_sdk\uamqp\src/amqp_definitions.c ****                     if (list_item_count > 2)
 317:Source\azure_iot_sdk\uamqp\src/amqp_definitions.c ****                     {
 318:Source\azure_iot_sdk\uamqp\src/amqp_definitions.c ****                         item_value = amqpvalue_get_list_item(list_value, 2);
 319:Source\azure_iot_sdk\uamqp\src/amqp_definitions.c ****                         if (item_value == NULL)
 320:Source\azure_iot_sdk\uamqp\src/amqp_definitions.c ****                         {
 321:Source\azure_iot_sdk\uamqp\src/amqp_definitions.c ****                             /* do nothing */
 322:Source\azure_iot_sdk\uamqp\src/amqp_definitions.c ****                         }
 323:Source\azure_iot_sdk\uamqp\src/amqp_definitions.c ****                         else
 324:Source\azure_iot_sdk\uamqp\src/amqp_definitions.c ****                         {
 325:Source\azure_iot_sdk\uamqp\src/amqp_definitions.c ****                             if (amqpvalue_get_type(item_value) == AMQP_TYPE_NULL)
 326:Source\azure_iot_sdk\uamqp\src/amqp_definitions.c ****                             {
 327:Source\azure_iot_sdk\uamqp\src/amqp_definitions.c ****                                 /* no error, field is not mandatory */
 328:Source\azure_iot_sdk\uamqp\src/amqp_definitions.c ****                             }
 329:Source\azure_iot_sdk\uamqp\src/amqp_definitions.c ****                             else
 330:Source\azure_iot_sdk\uamqp\src/amqp_definitions.c ****                             {
 331:Source\azure_iot_sdk\uamqp\src/amqp_definitions.c ****                                 fields info;
 332:Source\azure_iot_sdk\uamqp\src/amqp_definitions.c ****                                 if (amqpvalue_get_fields(item_value, &info) != 0)
 333:Source\azure_iot_sdk\uamqp\src/amqp_definitions.c ****                                 {
 334:Source\azure_iot_sdk\uamqp\src/amqp_definitions.c ****                                     amqpvalue_destroy(item_value);
 335:Source\azure_iot_sdk\uamqp\src/amqp_definitions.c ****                                     error_destroy(*error_handle);
 336:Source\azure_iot_sdk\uamqp\src/amqp_definitions.c ****                                     result = __FAILURE__;
 337:Source\azure_iot_sdk\uamqp\src/amqp_definitions.c ****                                     break;
 338:Source\azure_iot_sdk\uamqp\src/amqp_definitions.c ****                                 }
 339:Source\azure_iot_sdk\uamqp\src/amqp_definitions.c ****                             }
 340:Source\azure_iot_sdk\uamqp\src/amqp_definitions.c **** 
 341:Source\azure_iot_sdk\uamqp\src/amqp_definitions.c ****                             amqpvalue_destroy(item_value);
ARM GAS  C:\Users\Phuong\AppData\Local\Temp\cczJKlkA.s 			page 8


 342:Source\azure_iot_sdk\uamqp\src/amqp_definitions.c ****                         }
 343:Source\azure_iot_sdk\uamqp\src/amqp_definitions.c ****                     }
 344:Source\azure_iot_sdk\uamqp\src/amqp_definitions.c **** 
 345:Source\azure_iot_sdk\uamqp\src/amqp_definitions.c ****                     error_instance->composite_value = amqpvalue_clone(value);
 346:Source\azure_iot_sdk\uamqp\src/amqp_definitions.c **** 
 347:Source\azure_iot_sdk\uamqp\src/amqp_definitions.c ****                     result = 0;
 348:Source\azure_iot_sdk\uamqp\src/amqp_definitions.c ****                 } while((void)0,0);
 349:Source\azure_iot_sdk\uamqp\src/amqp_definitions.c ****             }
 350:Source\azure_iot_sdk\uamqp\src/amqp_definitions.c ****         }
 351:Source\azure_iot_sdk\uamqp\src/amqp_definitions.c ****     }
 352:Source\azure_iot_sdk\uamqp\src/amqp_definitions.c **** 
 353:Source\azure_iot_sdk\uamqp\src/amqp_definitions.c ****     return result;
 354:Source\azure_iot_sdk\uamqp\src/amqp_definitions.c **** }
 355:Source\azure_iot_sdk\uamqp\src/amqp_definitions.c **** 
 356:Source\azure_iot_sdk\uamqp\src/amqp_definitions.c **** int error_get_condition(ERROR_HANDLE error, const char** condition_value)
 357:Source\azure_iot_sdk\uamqp\src/amqp_definitions.c **** {
 358:Source\azure_iot_sdk\uamqp\src/amqp_definitions.c ****     int result;
 359:Source\azure_iot_sdk\uamqp\src/amqp_definitions.c **** 
 360:Source\azure_iot_sdk\uamqp\src/amqp_definitions.c ****     if (error == NULL)
 361:Source\azure_iot_sdk\uamqp\src/amqp_definitions.c ****     {
 362:Source\azure_iot_sdk\uamqp\src/amqp_definitions.c ****         result = __FAILURE__;
 363:Source\azure_iot_sdk\uamqp\src/amqp_definitions.c ****     }
 364:Source\azure_iot_sdk\uamqp\src/amqp_definitions.c ****     else
 365:Source\azure_iot_sdk\uamqp\src/amqp_definitions.c ****     {
 366:Source\azure_iot_sdk\uamqp\src/amqp_definitions.c ****         uint32_t item_count;
 367:Source\azure_iot_sdk\uamqp\src/amqp_definitions.c ****         ERROR_INSTANCE* error_instance = (ERROR_INSTANCE*)error;
 368:Source\azure_iot_sdk\uamqp\src/amqp_definitions.c ****         if (amqpvalue_get_composite_item_count(error_instance->composite_value, &item_count) != 0)
 369:Source\azure_iot_sdk\uamqp\src/amqp_definitions.c ****         {
 370:Source\azure_iot_sdk\uamqp\src/amqp_definitions.c ****             result = __FAILURE__;
 371:Source\azure_iot_sdk\uamqp\src/amqp_definitions.c ****         }
 372:Source\azure_iot_sdk\uamqp\src/amqp_definitions.c ****         else
 373:Source\azure_iot_sdk\uamqp\src/amqp_definitions.c ****         {
 374:Source\azure_iot_sdk\uamqp\src/amqp_definitions.c ****             if (item_count <= 0)
 375:Source\azure_iot_sdk\uamqp\src/amqp_definitions.c ****             {
 376:Source\azure_iot_sdk\uamqp\src/amqp_definitions.c ****                 result = __FAILURE__;
 377:Source\azure_iot_sdk\uamqp\src/amqp_definitions.c ****             }
 378:Source\azure_iot_sdk\uamqp\src/amqp_definitions.c ****             else
 379:Source\azure_iot_sdk\uamqp\src/amqp_definitions.c ****             {
 380:Source\azure_iot_sdk\uamqp\src/amqp_definitions.c ****                 AMQP_VALUE item_value = amqpvalue_get_composite_item_in_place(error_instance->compo
 381:Source\azure_iot_sdk\uamqp\src/amqp_definitions.c ****                 if ((item_value == NULL) ||
 382:Source\azure_iot_sdk\uamqp\src/amqp_definitions.c ****                     (amqpvalue_get_type(item_value) == AMQP_TYPE_NULL))
 383:Source\azure_iot_sdk\uamqp\src/amqp_definitions.c ****                 {
 384:Source\azure_iot_sdk\uamqp\src/amqp_definitions.c ****                     result = __FAILURE__;
 385:Source\azure_iot_sdk\uamqp\src/amqp_definitions.c ****                 }
 386:Source\azure_iot_sdk\uamqp\src/amqp_definitions.c ****                 else
 387:Source\azure_iot_sdk\uamqp\src/amqp_definitions.c ****                 {
 388:Source\azure_iot_sdk\uamqp\src/amqp_definitions.c ****                     int get_single_value_result = amqpvalue_get_symbol(item_value, condition_value)
 389:Source\azure_iot_sdk\uamqp\src/amqp_definitions.c ****                     if (get_single_value_result != 0)
 390:Source\azure_iot_sdk\uamqp\src/amqp_definitions.c ****                     {
 391:Source\azure_iot_sdk\uamqp\src/amqp_definitions.c ****                         result = __FAILURE__;
 392:Source\azure_iot_sdk\uamqp\src/amqp_definitions.c ****                     }
 393:Source\azure_iot_sdk\uamqp\src/amqp_definitions.c ****                     else
 394:Source\azure_iot_sdk\uamqp\src/amqp_definitions.c ****                     {
 395:Source\azure_iot_sdk\uamqp\src/amqp_definitions.c ****                         result = 0;
 396:Source\azure_iot_sdk\uamqp\src/amqp_definitions.c ****                     }
 397:Source\azure_iot_sdk\uamqp\src/amqp_definitions.c ****                 }
 398:Source\azure_iot_sdk\uamqp\src/amqp_definitions.c ****             }
ARM GAS  C:\Users\Phuong\AppData\Local\Temp\cczJKlkA.s 			page 9


 399:Source\azure_iot_sdk\uamqp\src/amqp_definitions.c ****         }
 400:Source\azure_iot_sdk\uamqp\src/amqp_definitions.c ****     }
 401:Source\azure_iot_sdk\uamqp\src/amqp_definitions.c **** 
 402:Source\azure_iot_sdk\uamqp\src/amqp_definitions.c ****     return result;
 403:Source\azure_iot_sdk\uamqp\src/amqp_definitions.c **** }
 404:Source\azure_iot_sdk\uamqp\src/amqp_definitions.c **** 
 405:Source\azure_iot_sdk\uamqp\src/amqp_definitions.c **** int error_set_condition(ERROR_HANDLE error, const char* condition_value)
 406:Source\azure_iot_sdk\uamqp\src/amqp_definitions.c **** {
 407:Source\azure_iot_sdk\uamqp\src/amqp_definitions.c ****     int result;
 408:Source\azure_iot_sdk\uamqp\src/amqp_definitions.c **** 
 409:Source\azure_iot_sdk\uamqp\src/amqp_definitions.c ****     if (error == NULL)
 410:Source\azure_iot_sdk\uamqp\src/amqp_definitions.c ****     {
 411:Source\azure_iot_sdk\uamqp\src/amqp_definitions.c ****         result = __FAILURE__;
 412:Source\azure_iot_sdk\uamqp\src/amqp_definitions.c ****     }
 413:Source\azure_iot_sdk\uamqp\src/amqp_definitions.c ****     else
 414:Source\azure_iot_sdk\uamqp\src/amqp_definitions.c ****     {
 415:Source\azure_iot_sdk\uamqp\src/amqp_definitions.c ****         ERROR_INSTANCE* error_instance = (ERROR_INSTANCE*)error;
 416:Source\azure_iot_sdk\uamqp\src/amqp_definitions.c ****         AMQP_VALUE condition_amqp_value = amqpvalue_create_symbol(condition_value);
 417:Source\azure_iot_sdk\uamqp\src/amqp_definitions.c ****         if (condition_amqp_value == NULL)
 418:Source\azure_iot_sdk\uamqp\src/amqp_definitions.c ****         {
 419:Source\azure_iot_sdk\uamqp\src/amqp_definitions.c ****             result = __FAILURE__;
 420:Source\azure_iot_sdk\uamqp\src/amqp_definitions.c ****         }
 421:Source\azure_iot_sdk\uamqp\src/amqp_definitions.c ****         else
 422:Source\azure_iot_sdk\uamqp\src/amqp_definitions.c ****         {
 423:Source\azure_iot_sdk\uamqp\src/amqp_definitions.c ****             if (amqpvalue_set_composite_item(error_instance->composite_value, 0, condition_amqp_val
 424:Source\azure_iot_sdk\uamqp\src/amqp_definitions.c ****             {
 425:Source\azure_iot_sdk\uamqp\src/amqp_definitions.c ****                 result = __FAILURE__;
 426:Source\azure_iot_sdk\uamqp\src/amqp_definitions.c ****             }
 427:Source\azure_iot_sdk\uamqp\src/amqp_definitions.c ****             else
 428:Source\azure_iot_sdk\uamqp\src/amqp_definitions.c ****             {
 429:Source\azure_iot_sdk\uamqp\src/amqp_definitions.c ****                 result = 0;
 430:Source\azure_iot_sdk\uamqp\src/amqp_definitions.c ****             }
 431:Source\azure_iot_sdk\uamqp\src/amqp_definitions.c **** 
 432:Source\azure_iot_sdk\uamqp\src/amqp_definitions.c ****             amqpvalue_destroy(condition_amqp_value);
 433:Source\azure_iot_sdk\uamqp\src/amqp_definitions.c ****         }
 434:Source\azure_iot_sdk\uamqp\src/amqp_definitions.c ****     }
 435:Source\azure_iot_sdk\uamqp\src/amqp_definitions.c **** 
 436:Source\azure_iot_sdk\uamqp\src/amqp_definitions.c ****     return result;
 437:Source\azure_iot_sdk\uamqp\src/amqp_definitions.c **** }
 438:Source\azure_iot_sdk\uamqp\src/amqp_definitions.c **** 
 439:Source\azure_iot_sdk\uamqp\src/amqp_definitions.c **** int error_get_description(ERROR_HANDLE error, const char** description_value)
 440:Source\azure_iot_sdk\uamqp\src/amqp_definitions.c **** {
 441:Source\azure_iot_sdk\uamqp\src/amqp_definitions.c ****     int result;
 442:Source\azure_iot_sdk\uamqp\src/amqp_definitions.c **** 
 443:Source\azure_iot_sdk\uamqp\src/amqp_definitions.c ****     if (error == NULL)
 444:Source\azure_iot_sdk\uamqp\src/amqp_definitions.c ****     {
 445:Source\azure_iot_sdk\uamqp\src/amqp_definitions.c ****         result = __FAILURE__;
 446:Source\azure_iot_sdk\uamqp\src/amqp_definitions.c ****     }
 447:Source\azure_iot_sdk\uamqp\src/amqp_definitions.c ****     else
 448:Source\azure_iot_sdk\uamqp\src/amqp_definitions.c ****     {
 449:Source\azure_iot_sdk\uamqp\src/amqp_definitions.c ****         uint32_t item_count;
 450:Source\azure_iot_sdk\uamqp\src/amqp_definitions.c ****         ERROR_INSTANCE* error_instance = (ERROR_INSTANCE*)error;
 451:Source\azure_iot_sdk\uamqp\src/amqp_definitions.c ****         if (amqpvalue_get_composite_item_count(error_instance->composite_value, &item_count) != 0)
 452:Source\azure_iot_sdk\uamqp\src/amqp_definitions.c ****         {
 453:Source\azure_iot_sdk\uamqp\src/amqp_definitions.c ****             result = __FAILURE__;
 454:Source\azure_iot_sdk\uamqp\src/amqp_definitions.c ****         }
 455:Source\azure_iot_sdk\uamqp\src/amqp_definitions.c ****         else
ARM GAS  C:\Users\Phuong\AppData\Local\Temp\cczJKlkA.s 			page 10


 456:Source\azure_iot_sdk\uamqp\src/amqp_definitions.c ****         {
 457:Source\azure_iot_sdk\uamqp\src/amqp_definitions.c ****             if (item_count <= 1)
 458:Source\azure_iot_sdk\uamqp\src/amqp_definitions.c ****             {
 459:Source\azure_iot_sdk\uamqp\src/amqp_definitions.c ****                 result = __FAILURE__;
 460:Source\azure_iot_sdk\uamqp\src/amqp_definitions.c ****             }
 461:Source\azure_iot_sdk\uamqp\src/amqp_definitions.c ****             else
 462:Source\azure_iot_sdk\uamqp\src/amqp_definitions.c ****             {
 463:Source\azure_iot_sdk\uamqp\src/amqp_definitions.c ****                 AMQP_VALUE item_value = amqpvalue_get_composite_item_in_place(error_instance->compo
 464:Source\azure_iot_sdk\uamqp\src/amqp_definitions.c ****                 if ((item_value == NULL) ||
 465:Source\azure_iot_sdk\uamqp\src/amqp_definitions.c ****                     (amqpvalue_get_type(item_value) == AMQP_TYPE_NULL))
 466:Source\azure_iot_sdk\uamqp\src/amqp_definitions.c ****                 {
 467:Source\azure_iot_sdk\uamqp\src/amqp_definitions.c ****                     result = __FAILURE__;
 468:Source\azure_iot_sdk\uamqp\src/amqp_definitions.c ****                 }
 469:Source\azure_iot_sdk\uamqp\src/amqp_definitions.c ****                 else
 470:Source\azure_iot_sdk\uamqp\src/amqp_definitions.c ****                 {
 471:Source\azure_iot_sdk\uamqp\src/amqp_definitions.c ****                     int get_single_value_result = amqpvalue_get_string(item_value, description_valu
 472:Source\azure_iot_sdk\uamqp\src/amqp_definitions.c ****                     if (get_single_value_result != 0)
 473:Source\azure_iot_sdk\uamqp\src/amqp_definitions.c ****                     {
 474:Source\azure_iot_sdk\uamqp\src/amqp_definitions.c ****                         result = __FAILURE__;
 475:Source\azure_iot_sdk\uamqp\src/amqp_definitions.c ****                     }
 476:Source\azure_iot_sdk\uamqp\src/amqp_definitions.c ****                     else
 477:Source\azure_iot_sdk\uamqp\src/amqp_definitions.c ****                     {
 478:Source\azure_iot_sdk\uamqp\src/amqp_definitions.c ****                         result = 0;
 479:Source\azure_iot_sdk\uamqp\src/amqp_definitions.c ****                     }
 480:Source\azure_iot_sdk\uamqp\src/amqp_definitions.c ****                 }
 481:Source\azure_iot_sdk\uamqp\src/amqp_definitions.c ****             }
 482:Source\azure_iot_sdk\uamqp\src/amqp_definitions.c ****         }
 483:Source\azure_iot_sdk\uamqp\src/amqp_definitions.c ****     }
 484:Source\azure_iot_sdk\uamqp\src/amqp_definitions.c **** 
 485:Source\azure_iot_sdk\uamqp\src/amqp_definitions.c ****     return result;
 486:Source\azure_iot_sdk\uamqp\src/amqp_definitions.c **** }
 487:Source\azure_iot_sdk\uamqp\src/amqp_definitions.c **** 
 488:Source\azure_iot_sdk\uamqp\src/amqp_definitions.c **** int error_set_description(ERROR_HANDLE error, const char* description_value)
 489:Source\azure_iot_sdk\uamqp\src/amqp_definitions.c **** {
 490:Source\azure_iot_sdk\uamqp\src/amqp_definitions.c ****     int result;
 491:Source\azure_iot_sdk\uamqp\src/amqp_definitions.c **** 
 492:Source\azure_iot_sdk\uamqp\src/amqp_definitions.c ****     if (error == NULL)
 493:Source\azure_iot_sdk\uamqp\src/amqp_definitions.c ****     {
 494:Source\azure_iot_sdk\uamqp\src/amqp_definitions.c ****         result = __FAILURE__;
 495:Source\azure_iot_sdk\uamqp\src/amqp_definitions.c ****     }
 496:Source\azure_iot_sdk\uamqp\src/amqp_definitions.c ****     else
 497:Source\azure_iot_sdk\uamqp\src/amqp_definitions.c ****     {
 498:Source\azure_iot_sdk\uamqp\src/amqp_definitions.c ****         ERROR_INSTANCE* error_instance = (ERROR_INSTANCE*)error;
 499:Source\azure_iot_sdk\uamqp\src/amqp_definitions.c ****         AMQP_VALUE description_amqp_value = amqpvalue_create_string(description_value);
 500:Source\azure_iot_sdk\uamqp\src/amqp_definitions.c ****         if (description_amqp_value == NULL)
 501:Source\azure_iot_sdk\uamqp\src/amqp_definitions.c ****         {
 502:Source\azure_iot_sdk\uamqp\src/amqp_definitions.c ****             result = __FAILURE__;
 503:Source\azure_iot_sdk\uamqp\src/amqp_definitions.c ****         }
 504:Source\azure_iot_sdk\uamqp\src/amqp_definitions.c ****         else
 505:Source\azure_iot_sdk\uamqp\src/amqp_definitions.c ****         {
 506:Source\azure_iot_sdk\uamqp\src/amqp_definitions.c ****             if (amqpvalue_set_composite_item(error_instance->composite_value, 1, description_amqp_v
 507:Source\azure_iot_sdk\uamqp\src/amqp_definitions.c ****             {
 508:Source\azure_iot_sdk\uamqp\src/amqp_definitions.c ****                 result = __FAILURE__;
 509:Source\azure_iot_sdk\uamqp\src/amqp_definitions.c ****             }
 510:Source\azure_iot_sdk\uamqp\src/amqp_definitions.c ****             else
 511:Source\azure_iot_sdk\uamqp\src/amqp_definitions.c ****             {
 512:Source\azure_iot_sdk\uamqp\src/amqp_definitions.c ****                 result = 0;
ARM GAS  C:\Users\Phuong\AppData\Local\Temp\cczJKlkA.s 			page 11


 513:Source\azure_iot_sdk\uamqp\src/amqp_definitions.c ****             }
 514:Source\azure_iot_sdk\uamqp\src/amqp_definitions.c **** 
 515:Source\azure_iot_sdk\uamqp\src/amqp_definitions.c ****             amqpvalue_destroy(description_amqp_value);
 516:Source\azure_iot_sdk\uamqp\src/amqp_definitions.c ****         }
 517:Source\azure_iot_sdk\uamqp\src/amqp_definitions.c ****     }
 518:Source\azure_iot_sdk\uamqp\src/amqp_definitions.c **** 
 519:Source\azure_iot_sdk\uamqp\src/amqp_definitions.c ****     return result;
 520:Source\azure_iot_sdk\uamqp\src/amqp_definitions.c **** }
 521:Source\azure_iot_sdk\uamqp\src/amqp_definitions.c **** 
 522:Source\azure_iot_sdk\uamqp\src/amqp_definitions.c **** int error_get_info(ERROR_HANDLE error, fields* info_value)
 523:Source\azure_iot_sdk\uamqp\src/amqp_definitions.c **** {
 524:Source\azure_iot_sdk\uamqp\src/amqp_definitions.c ****     int result;
 525:Source\azure_iot_sdk\uamqp\src/amqp_definitions.c **** 
 526:Source\azure_iot_sdk\uamqp\src/amqp_definitions.c ****     if (error == NULL)
 527:Source\azure_iot_sdk\uamqp\src/amqp_definitions.c ****     {
 528:Source\azure_iot_sdk\uamqp\src/amqp_definitions.c ****         result = __FAILURE__;
 529:Source\azure_iot_sdk\uamqp\src/amqp_definitions.c ****     }
 530:Source\azure_iot_sdk\uamqp\src/amqp_definitions.c ****     else
 531:Source\azure_iot_sdk\uamqp\src/amqp_definitions.c ****     {
 532:Source\azure_iot_sdk\uamqp\src/amqp_definitions.c ****         uint32_t item_count;
 533:Source\azure_iot_sdk\uamqp\src/amqp_definitions.c ****         ERROR_INSTANCE* error_instance = (ERROR_INSTANCE*)error;
 534:Source\azure_iot_sdk\uamqp\src/amqp_definitions.c ****         if (amqpvalue_get_composite_item_count(error_instance->composite_value, &item_count) != 0)
 535:Source\azure_iot_sdk\uamqp\src/amqp_definitions.c ****         {
 536:Source\azure_iot_sdk\uamqp\src/amqp_definitions.c ****             result = __FAILURE__;
 537:Source\azure_iot_sdk\uamqp\src/amqp_definitions.c ****         }
 538:Source\azure_iot_sdk\uamqp\src/amqp_definitions.c ****         else
 539:Source\azure_iot_sdk\uamqp\src/amqp_definitions.c ****         {
 540:Source\azure_iot_sdk\uamqp\src/amqp_definitions.c ****             if (item_count <= 2)
 541:Source\azure_iot_sdk\uamqp\src/amqp_definitions.c ****             {
 542:Source\azure_iot_sdk\uamqp\src/amqp_definitions.c ****                 result = __FAILURE__;
 543:Source\azure_iot_sdk\uamqp\src/amqp_definitions.c ****             }
 544:Source\azure_iot_sdk\uamqp\src/amqp_definitions.c ****             else
 545:Source\azure_iot_sdk\uamqp\src/amqp_definitions.c ****             {
 546:Source\azure_iot_sdk\uamqp\src/amqp_definitions.c ****                 AMQP_VALUE item_value = amqpvalue_get_composite_item_in_place(error_instance->compo
 547:Source\azure_iot_sdk\uamqp\src/amqp_definitions.c ****                 if ((item_value == NULL) ||
 548:Source\azure_iot_sdk\uamqp\src/amqp_definitions.c ****                     (amqpvalue_get_type(item_value) == AMQP_TYPE_NULL))
 549:Source\azure_iot_sdk\uamqp\src/amqp_definitions.c ****                 {
 550:Source\azure_iot_sdk\uamqp\src/amqp_definitions.c ****                     result = __FAILURE__;
 551:Source\azure_iot_sdk\uamqp\src/amqp_definitions.c ****                 }
 552:Source\azure_iot_sdk\uamqp\src/amqp_definitions.c ****                 else
 553:Source\azure_iot_sdk\uamqp\src/amqp_definitions.c ****                 {
 554:Source\azure_iot_sdk\uamqp\src/amqp_definitions.c ****                     int get_single_value_result = amqpvalue_get_fields(item_value, info_value);
 555:Source\azure_iot_sdk\uamqp\src/amqp_definitions.c ****                     if (get_single_value_result != 0)
 556:Source\azure_iot_sdk\uamqp\src/amqp_definitions.c ****                     {
 557:Source\azure_iot_sdk\uamqp\src/amqp_definitions.c ****                         result = __FAILURE__;
 558:Source\azure_iot_sdk\uamqp\src/amqp_definitions.c ****                     }
 559:Source\azure_iot_sdk\uamqp\src/amqp_definitions.c ****                     else
 560:Source\azure_iot_sdk\uamqp\src/amqp_definitions.c ****                     {
 561:Source\azure_iot_sdk\uamqp\src/amqp_definitions.c ****                         result = 0;
 562:Source\azure_iot_sdk\uamqp\src/amqp_definitions.c ****                     }
 563:Source\azure_iot_sdk\uamqp\src/amqp_definitions.c ****                 }
 564:Source\azure_iot_sdk\uamqp\src/amqp_definitions.c ****             }
 565:Source\azure_iot_sdk\uamqp\src/amqp_definitions.c ****         }
 566:Source\azure_iot_sdk\uamqp\src/amqp_definitions.c ****     }
 567:Source\azure_iot_sdk\uamqp\src/amqp_definitions.c **** 
 568:Source\azure_iot_sdk\uamqp\src/amqp_definitions.c ****     return result;
 569:Source\azure_iot_sdk\uamqp\src/amqp_definitions.c **** }
ARM GAS  C:\Users\Phuong\AppData\Local\Temp\cczJKlkA.s 			page 12


 570:Source\azure_iot_sdk\uamqp\src/amqp_definitions.c **** 
 571:Source\azure_iot_sdk\uamqp\src/amqp_definitions.c **** int error_set_info(ERROR_HANDLE error, fields info_value)
 572:Source\azure_iot_sdk\uamqp\src/amqp_definitions.c **** {
 573:Source\azure_iot_sdk\uamqp\src/amqp_definitions.c ****     int result;
 574:Source\azure_iot_sdk\uamqp\src/amqp_definitions.c **** 
 575:Source\azure_iot_sdk\uamqp\src/amqp_definitions.c ****     if (error == NULL)
 576:Source\azure_iot_sdk\uamqp\src/amqp_definitions.c ****     {
 577:Source\azure_iot_sdk\uamqp\src/amqp_definitions.c ****         result = __FAILURE__;
 578:Source\azure_iot_sdk\uamqp\src/amqp_definitions.c ****     }
 579:Source\azure_iot_sdk\uamqp\src/amqp_definitions.c ****     else
 580:Source\azure_iot_sdk\uamqp\src/amqp_definitions.c ****     {
 581:Source\azure_iot_sdk\uamqp\src/amqp_definitions.c ****         ERROR_INSTANCE* error_instance = (ERROR_INSTANCE*)error;
 582:Source\azure_iot_sdk\uamqp\src/amqp_definitions.c ****         AMQP_VALUE info_amqp_value = amqpvalue_create_fields(info_value);
 583:Source\azure_iot_sdk\uamqp\src/amqp_definitions.c ****         if (info_amqp_value == NULL)
 584:Source\azure_iot_sdk\uamqp\src/amqp_definitions.c ****         {
 585:Source\azure_iot_sdk\uamqp\src/amqp_definitions.c ****             result = __FAILURE__;
 586:Source\azure_iot_sdk\uamqp\src/amqp_definitions.c ****         }
 587:Source\azure_iot_sdk\uamqp\src/amqp_definitions.c ****         else
 588:Source\azure_iot_sdk\uamqp\src/amqp_definitions.c ****         {
 589:Source\azure_iot_sdk\uamqp\src/amqp_definitions.c ****             if (amqpvalue_set_composite_item(error_instance->composite_value, 2, info_amqp_value) !
 590:Source\azure_iot_sdk\uamqp\src/amqp_definitions.c ****             {
 591:Source\azure_iot_sdk\uamqp\src/amqp_definitions.c ****                 result = __FAILURE__;
 592:Source\azure_iot_sdk\uamqp\src/amqp_definitions.c ****             }
 593:Source\azure_iot_sdk\uamqp\src/amqp_definitions.c ****             else
 594:Source\azure_iot_sdk\uamqp\src/amqp_definitions.c ****             {
 595:Source\azure_iot_sdk\uamqp\src/amqp_definitions.c ****                 result = 0;
 596:Source\azure_iot_sdk\uamqp\src/amqp_definitions.c ****             }
 597:Source\azure_iot_sdk\uamqp\src/amqp_definitions.c **** 
 598:Source\azure_iot_sdk\uamqp\src/amqp_definitions.c ****             amqpvalue_destroy(info_amqp_value);
 599:Source\azure_iot_sdk\uamqp\src/amqp_definitions.c ****         }
 600:Source\azure_iot_sdk\uamqp\src/amqp_definitions.c ****     }
 601:Source\azure_iot_sdk\uamqp\src/amqp_definitions.c **** 
 602:Source\azure_iot_sdk\uamqp\src/amqp_definitions.c ****     return result;
 603:Source\azure_iot_sdk\uamqp\src/amqp_definitions.c **** }
 604:Source\azure_iot_sdk\uamqp\src/amqp_definitions.c **** 
 605:Source\azure_iot_sdk\uamqp\src/amqp_definitions.c **** 
 606:Source\azure_iot_sdk\uamqp\src/amqp_definitions.c **** /* amqp-error */
 607:Source\azure_iot_sdk\uamqp\src/amqp_definitions.c **** 
 608:Source\azure_iot_sdk\uamqp\src/amqp_definitions.c **** AMQP_VALUE amqpvalue_create_amqp_error(amqp_error value)
 609:Source\azure_iot_sdk\uamqp\src/amqp_definitions.c **** {
 610:Source\azure_iot_sdk\uamqp\src/amqp_definitions.c ****     return amqpvalue_create_symbol(value);
 611:Source\azure_iot_sdk\uamqp\src/amqp_definitions.c **** }
 612:Source\azure_iot_sdk\uamqp\src/amqp_definitions.c **** 
 613:Source\azure_iot_sdk\uamqp\src/amqp_definitions.c **** /* connection-error */
 614:Source\azure_iot_sdk\uamqp\src/amqp_definitions.c **** 
 615:Source\azure_iot_sdk\uamqp\src/amqp_definitions.c **** AMQP_VALUE amqpvalue_create_connection_error(connection_error value)
 616:Source\azure_iot_sdk\uamqp\src/amqp_definitions.c **** {
 617:Source\azure_iot_sdk\uamqp\src/amqp_definitions.c ****     return amqpvalue_create_symbol(value);
 618:Source\azure_iot_sdk\uamqp\src/amqp_definitions.c **** }
 619:Source\azure_iot_sdk\uamqp\src/amqp_definitions.c **** 
 620:Source\azure_iot_sdk\uamqp\src/amqp_definitions.c **** /* session-error */
 621:Source\azure_iot_sdk\uamqp\src/amqp_definitions.c **** 
 622:Source\azure_iot_sdk\uamqp\src/amqp_definitions.c **** AMQP_VALUE amqpvalue_create_session_error(session_error value)
 623:Source\azure_iot_sdk\uamqp\src/amqp_definitions.c **** {
 624:Source\azure_iot_sdk\uamqp\src/amqp_definitions.c ****     return amqpvalue_create_symbol(value);
 625:Source\azure_iot_sdk\uamqp\src/amqp_definitions.c **** }
 626:Source\azure_iot_sdk\uamqp\src/amqp_definitions.c **** 
ARM GAS  C:\Users\Phuong\AppData\Local\Temp\cczJKlkA.s 			page 13


 627:Source\azure_iot_sdk\uamqp\src/amqp_definitions.c **** /* link-error */
 628:Source\azure_iot_sdk\uamqp\src/amqp_definitions.c **** 
 629:Source\azure_iot_sdk\uamqp\src/amqp_definitions.c **** AMQP_VALUE amqpvalue_create_link_error(link_error value)
 630:Source\azure_iot_sdk\uamqp\src/amqp_definitions.c **** {
 631:Source\azure_iot_sdk\uamqp\src/amqp_definitions.c ****     return amqpvalue_create_symbol(value);
 632:Source\azure_iot_sdk\uamqp\src/amqp_definitions.c **** }
 633:Source\azure_iot_sdk\uamqp\src/amqp_definitions.c **** 
 634:Source\azure_iot_sdk\uamqp\src/amqp_definitions.c **** /* open */
 635:Source\azure_iot_sdk\uamqp\src/amqp_definitions.c **** 
 636:Source\azure_iot_sdk\uamqp\src/amqp_definitions.c **** typedef struct OPEN_INSTANCE_TAG
 637:Source\azure_iot_sdk\uamqp\src/amqp_definitions.c **** {
 638:Source\azure_iot_sdk\uamqp\src/amqp_definitions.c ****     AMQP_VALUE composite_value;
 639:Source\azure_iot_sdk\uamqp\src/amqp_definitions.c **** } OPEN_INSTANCE;
 640:Source\azure_iot_sdk\uamqp\src/amqp_definitions.c **** 
 641:Source\azure_iot_sdk\uamqp\src/amqp_definitions.c **** static OPEN_HANDLE open_create_internal(void)
 642:Source\azure_iot_sdk\uamqp\src/amqp_definitions.c **** {
  59              		.loc 1 642 0
  60              		.cfi_startproc
  61              		@ args = 0, pretend = 0, frame = 0
  62              		@ frame_needed = 0, uses_anonymous_args = 0
  63 0000 10B5     		push	{r4, lr}
  64              		.cfi_def_cfa_offset 8
  65              		.cfi_offset 4, -8
  66              		.cfi_offset 14, -4
 643:Source\azure_iot_sdk\uamqp\src/amqp_definitions.c ****     OPEN_INSTANCE* open_instance = (OPEN_INSTANCE*)malloc(sizeof(OPEN_INSTANCE));
  67              		.loc 1 643 0
  68 0002 0420     		movs	r0, #4
  69 0004 FFF7FEFF 		bl	malloc
  70              	.LVL1:
 644:Source\azure_iot_sdk\uamqp\src/amqp_definitions.c ****     if (open_instance != NULL)
  71              		.loc 1 644 0
  72 0008 0028     		cmp	r0, #0
  73 000a 01D0     		beq	.L4
 645:Source\azure_iot_sdk\uamqp\src/amqp_definitions.c ****     {
 646:Source\azure_iot_sdk\uamqp\src/amqp_definitions.c ****         open_instance->composite_value = NULL;
  74              		.loc 1 646 0
  75 000c 0023     		movs	r3, #0
  76 000e 0360     		str	r3, [r0]
  77              	.L4:
 647:Source\azure_iot_sdk\uamqp\src/amqp_definitions.c ****     }
 648:Source\azure_iot_sdk\uamqp\src/amqp_definitions.c **** 
 649:Source\azure_iot_sdk\uamqp\src/amqp_definitions.c ****     return open_instance;
 650:Source\azure_iot_sdk\uamqp\src/amqp_definitions.c **** }
  78              		.loc 1 650 0
  79              		@ sp needed
  80 0010 10BD     		pop	{r4, pc}
  81              		.cfi_endproc
  82              	.LFE30:
  83              		.size	open_create_internal, .-open_create_internal
  84 0012 C046     		.section	.text.begin_create_internal,"ax",%progbits
  85              		.align	2
  86              		.code	16
  87              		.thumb_func
  88              		.type	begin_create_internal, %function
  89              	begin_create_internal:
  90              	.LFB57:
 651:Source\azure_iot_sdk\uamqp\src/amqp_definitions.c **** 
ARM GAS  C:\Users\Phuong\AppData\Local\Temp\cczJKlkA.s 			page 14


 652:Source\azure_iot_sdk\uamqp\src/amqp_definitions.c **** OPEN_HANDLE open_create(const char* container_id_value)
 653:Source\azure_iot_sdk\uamqp\src/amqp_definitions.c **** {
 654:Source\azure_iot_sdk\uamqp\src/amqp_definitions.c ****     OPEN_INSTANCE* open_instance = (OPEN_INSTANCE*)malloc(sizeof(OPEN_INSTANCE));
 655:Source\azure_iot_sdk\uamqp\src/amqp_definitions.c ****     if (open_instance != NULL)
 656:Source\azure_iot_sdk\uamqp\src/amqp_definitions.c ****     {
 657:Source\azure_iot_sdk\uamqp\src/amqp_definitions.c ****         open_instance->composite_value = amqpvalue_create_composite_with_ulong_descriptor(16);
 658:Source\azure_iot_sdk\uamqp\src/amqp_definitions.c ****         if (open_instance->composite_value == NULL)
 659:Source\azure_iot_sdk\uamqp\src/amqp_definitions.c ****         {
 660:Source\azure_iot_sdk\uamqp\src/amqp_definitions.c ****             free(open_instance);
 661:Source\azure_iot_sdk\uamqp\src/amqp_definitions.c ****             open_instance = NULL;
 662:Source\azure_iot_sdk\uamqp\src/amqp_definitions.c ****         }
 663:Source\azure_iot_sdk\uamqp\src/amqp_definitions.c ****         else
 664:Source\azure_iot_sdk\uamqp\src/amqp_definitions.c ****         {
 665:Source\azure_iot_sdk\uamqp\src/amqp_definitions.c ****             AMQP_VALUE container_id_amqp_value;
 666:Source\azure_iot_sdk\uamqp\src/amqp_definitions.c ****             int result = 0;
 667:Source\azure_iot_sdk\uamqp\src/amqp_definitions.c **** 
 668:Source\azure_iot_sdk\uamqp\src/amqp_definitions.c ****             container_id_amqp_value = amqpvalue_create_string(container_id_value);
 669:Source\azure_iot_sdk\uamqp\src/amqp_definitions.c ****             if ((result == 0) && (amqpvalue_set_composite_item(open_instance->composite_value, 0, c
 670:Source\azure_iot_sdk\uamqp\src/amqp_definitions.c ****             {
 671:Source\azure_iot_sdk\uamqp\src/amqp_definitions.c ****                 result = __FAILURE__;
 672:Source\azure_iot_sdk\uamqp\src/amqp_definitions.c ****             }
 673:Source\azure_iot_sdk\uamqp\src/amqp_definitions.c **** 
 674:Source\azure_iot_sdk\uamqp\src/amqp_definitions.c ****             amqpvalue_destroy(container_id_amqp_value);
 675:Source\azure_iot_sdk\uamqp\src/amqp_definitions.c ****         }
 676:Source\azure_iot_sdk\uamqp\src/amqp_definitions.c ****     }
 677:Source\azure_iot_sdk\uamqp\src/amqp_definitions.c **** 
 678:Source\azure_iot_sdk\uamqp\src/amqp_definitions.c ****     return open_instance;
 679:Source\azure_iot_sdk\uamqp\src/amqp_definitions.c **** }
 680:Source\azure_iot_sdk\uamqp\src/amqp_definitions.c **** 
 681:Source\azure_iot_sdk\uamqp\src/amqp_definitions.c **** OPEN_HANDLE open_clone(OPEN_HANDLE value)
 682:Source\azure_iot_sdk\uamqp\src/amqp_definitions.c **** {
 683:Source\azure_iot_sdk\uamqp\src/amqp_definitions.c ****     OPEN_INSTANCE* open_instance = (OPEN_INSTANCE*)malloc(sizeof(OPEN_INSTANCE));
 684:Source\azure_iot_sdk\uamqp\src/amqp_definitions.c ****     if (open_instance != NULL)
 685:Source\azure_iot_sdk\uamqp\src/amqp_definitions.c ****     {
 686:Source\azure_iot_sdk\uamqp\src/amqp_definitions.c ****         open_instance->composite_value = amqpvalue_clone(((OPEN_INSTANCE*)value)->composite_value);
 687:Source\azure_iot_sdk\uamqp\src/amqp_definitions.c ****         if (open_instance->composite_value == NULL)
 688:Source\azure_iot_sdk\uamqp\src/amqp_definitions.c ****         {
 689:Source\azure_iot_sdk\uamqp\src/amqp_definitions.c ****             free(open_instance);
 690:Source\azure_iot_sdk\uamqp\src/amqp_definitions.c ****             open_instance = NULL;
 691:Source\azure_iot_sdk\uamqp\src/amqp_definitions.c ****         }
 692:Source\azure_iot_sdk\uamqp\src/amqp_definitions.c ****     }
 693:Source\azure_iot_sdk\uamqp\src/amqp_definitions.c **** 
 694:Source\azure_iot_sdk\uamqp\src/amqp_definitions.c ****     return open_instance;
 695:Source\azure_iot_sdk\uamqp\src/amqp_definitions.c **** }
 696:Source\azure_iot_sdk\uamqp\src/amqp_definitions.c **** 
 697:Source\azure_iot_sdk\uamqp\src/amqp_definitions.c **** void open_destroy(OPEN_HANDLE open)
 698:Source\azure_iot_sdk\uamqp\src/amqp_definitions.c **** {
 699:Source\azure_iot_sdk\uamqp\src/amqp_definitions.c ****     if (open != NULL)
 700:Source\azure_iot_sdk\uamqp\src/amqp_definitions.c ****     {
 701:Source\azure_iot_sdk\uamqp\src/amqp_definitions.c ****         OPEN_INSTANCE* open_instance = (OPEN_INSTANCE*)open;
 702:Source\azure_iot_sdk\uamqp\src/amqp_definitions.c ****         amqpvalue_destroy(open_instance->composite_value);
 703:Source\azure_iot_sdk\uamqp\src/amqp_definitions.c ****         free(open_instance);
 704:Source\azure_iot_sdk\uamqp\src/amqp_definitions.c ****     }
 705:Source\azure_iot_sdk\uamqp\src/amqp_definitions.c **** }
 706:Source\azure_iot_sdk\uamqp\src/amqp_definitions.c **** 
 707:Source\azure_iot_sdk\uamqp\src/amqp_definitions.c **** AMQP_VALUE amqpvalue_create_open(OPEN_HANDLE open)
 708:Source\azure_iot_sdk\uamqp\src/amqp_definitions.c **** {
ARM GAS  C:\Users\Phuong\AppData\Local\Temp\cczJKlkA.s 			page 15


 709:Source\azure_iot_sdk\uamqp\src/amqp_definitions.c ****     AMQP_VALUE result;
 710:Source\azure_iot_sdk\uamqp\src/amqp_definitions.c **** 
 711:Source\azure_iot_sdk\uamqp\src/amqp_definitions.c ****     if (open == NULL)
 712:Source\azure_iot_sdk\uamqp\src/amqp_definitions.c ****     {
 713:Source\azure_iot_sdk\uamqp\src/amqp_definitions.c ****         result = NULL;
 714:Source\azure_iot_sdk\uamqp\src/amqp_definitions.c ****     }
 715:Source\azure_iot_sdk\uamqp\src/amqp_definitions.c ****     else
 716:Source\azure_iot_sdk\uamqp\src/amqp_definitions.c ****     {
 717:Source\azure_iot_sdk\uamqp\src/amqp_definitions.c ****         OPEN_INSTANCE* open_instance = (OPEN_INSTANCE*)open;
 718:Source\azure_iot_sdk\uamqp\src/amqp_definitions.c ****         result = amqpvalue_clone(open_instance->composite_value);
 719:Source\azure_iot_sdk\uamqp\src/amqp_definitions.c ****     }
 720:Source\azure_iot_sdk\uamqp\src/amqp_definitions.c **** 
 721:Source\azure_iot_sdk\uamqp\src/amqp_definitions.c ****     return result;
 722:Source\azure_iot_sdk\uamqp\src/amqp_definitions.c **** }
 723:Source\azure_iot_sdk\uamqp\src/amqp_definitions.c **** 
 724:Source\azure_iot_sdk\uamqp\src/amqp_definitions.c **** bool is_open_type_by_descriptor(AMQP_VALUE descriptor)
 725:Source\azure_iot_sdk\uamqp\src/amqp_definitions.c **** {
 726:Source\azure_iot_sdk\uamqp\src/amqp_definitions.c ****     bool result;
 727:Source\azure_iot_sdk\uamqp\src/amqp_definitions.c **** 
 728:Source\azure_iot_sdk\uamqp\src/amqp_definitions.c ****     uint64_t descriptor_ulong;
 729:Source\azure_iot_sdk\uamqp\src/amqp_definitions.c ****     if ((amqpvalue_get_ulong(descriptor, &descriptor_ulong) == 0) &&
 730:Source\azure_iot_sdk\uamqp\src/amqp_definitions.c ****         (descriptor_ulong == 16))
 731:Source\azure_iot_sdk\uamqp\src/amqp_definitions.c ****     {
 732:Source\azure_iot_sdk\uamqp\src/amqp_definitions.c ****         result = true;
 733:Source\azure_iot_sdk\uamqp\src/amqp_definitions.c ****     }
 734:Source\azure_iot_sdk\uamqp\src/amqp_definitions.c ****     else
 735:Source\azure_iot_sdk\uamqp\src/amqp_definitions.c ****     {
 736:Source\azure_iot_sdk\uamqp\src/amqp_definitions.c ****         result = false;
 737:Source\azure_iot_sdk\uamqp\src/amqp_definitions.c ****     }
 738:Source\azure_iot_sdk\uamqp\src/amqp_definitions.c **** 
 739:Source\azure_iot_sdk\uamqp\src/amqp_definitions.c ****     return result;
 740:Source\azure_iot_sdk\uamqp\src/amqp_definitions.c **** }
 741:Source\azure_iot_sdk\uamqp\src/amqp_definitions.c **** 
 742:Source\azure_iot_sdk\uamqp\src/amqp_definitions.c **** 
 743:Source\azure_iot_sdk\uamqp\src/amqp_definitions.c **** int amqpvalue_get_open(AMQP_VALUE value, OPEN_HANDLE* open_handle)
 744:Source\azure_iot_sdk\uamqp\src/amqp_definitions.c **** {
 745:Source\azure_iot_sdk\uamqp\src/amqp_definitions.c ****     int result;
 746:Source\azure_iot_sdk\uamqp\src/amqp_definitions.c ****     OPEN_INSTANCE* open_instance = (OPEN_INSTANCE*)open_create_internal();
 747:Source\azure_iot_sdk\uamqp\src/amqp_definitions.c ****     *open_handle = open_instance;
 748:Source\azure_iot_sdk\uamqp\src/amqp_definitions.c ****     if (*open_handle == NULL)
 749:Source\azure_iot_sdk\uamqp\src/amqp_definitions.c ****     {
 750:Source\azure_iot_sdk\uamqp\src/amqp_definitions.c ****         result = __FAILURE__;
 751:Source\azure_iot_sdk\uamqp\src/amqp_definitions.c ****     }
 752:Source\azure_iot_sdk\uamqp\src/amqp_definitions.c ****     else
 753:Source\azure_iot_sdk\uamqp\src/amqp_definitions.c ****     {
 754:Source\azure_iot_sdk\uamqp\src/amqp_definitions.c ****         AMQP_VALUE list_value = amqpvalue_get_inplace_described_value(value);
 755:Source\azure_iot_sdk\uamqp\src/amqp_definitions.c ****         if (list_value == NULL)
 756:Source\azure_iot_sdk\uamqp\src/amqp_definitions.c ****         {
 757:Source\azure_iot_sdk\uamqp\src/amqp_definitions.c ****             open_destroy(*open_handle);
 758:Source\azure_iot_sdk\uamqp\src/amqp_definitions.c ****             result = __FAILURE__;
 759:Source\azure_iot_sdk\uamqp\src/amqp_definitions.c ****         }
 760:Source\azure_iot_sdk\uamqp\src/amqp_definitions.c ****         else
 761:Source\azure_iot_sdk\uamqp\src/amqp_definitions.c ****         {
 762:Source\azure_iot_sdk\uamqp\src/amqp_definitions.c ****             uint32_t list_item_count;
 763:Source\azure_iot_sdk\uamqp\src/amqp_definitions.c ****             if (amqpvalue_get_list_item_count(list_value, &list_item_count) != 0)
 764:Source\azure_iot_sdk\uamqp\src/amqp_definitions.c ****             {
 765:Source\azure_iot_sdk\uamqp\src/amqp_definitions.c ****                 result = __FAILURE__;
ARM GAS  C:\Users\Phuong\AppData\Local\Temp\cczJKlkA.s 			page 16


 766:Source\azure_iot_sdk\uamqp\src/amqp_definitions.c ****             }
 767:Source\azure_iot_sdk\uamqp\src/amqp_definitions.c ****             else
 768:Source\azure_iot_sdk\uamqp\src/amqp_definitions.c ****             {
 769:Source\azure_iot_sdk\uamqp\src/amqp_definitions.c ****                 do
 770:Source\azure_iot_sdk\uamqp\src/amqp_definitions.c ****                 {
 771:Source\azure_iot_sdk\uamqp\src/amqp_definitions.c ****                     AMQP_VALUE item_value;
 772:Source\azure_iot_sdk\uamqp\src/amqp_definitions.c ****                     /* container-id */
 773:Source\azure_iot_sdk\uamqp\src/amqp_definitions.c ****                     if (list_item_count > 0)
 774:Source\azure_iot_sdk\uamqp\src/amqp_definitions.c ****                     {
 775:Source\azure_iot_sdk\uamqp\src/amqp_definitions.c ****                         item_value = amqpvalue_get_list_item(list_value, 0);
 776:Source\azure_iot_sdk\uamqp\src/amqp_definitions.c ****                         if (item_value == NULL)
 777:Source\azure_iot_sdk\uamqp\src/amqp_definitions.c ****                         {
 778:Source\azure_iot_sdk\uamqp\src/amqp_definitions.c ****                             {
 779:Source\azure_iot_sdk\uamqp\src/amqp_definitions.c ****                                 open_destroy(*open_handle);
 780:Source\azure_iot_sdk\uamqp\src/amqp_definitions.c ****                                 result = __FAILURE__;
 781:Source\azure_iot_sdk\uamqp\src/amqp_definitions.c ****                                 break;
 782:Source\azure_iot_sdk\uamqp\src/amqp_definitions.c ****                             }
 783:Source\azure_iot_sdk\uamqp\src/amqp_definitions.c ****                         }
 784:Source\azure_iot_sdk\uamqp\src/amqp_definitions.c ****                         else
 785:Source\azure_iot_sdk\uamqp\src/amqp_definitions.c ****                         {
 786:Source\azure_iot_sdk\uamqp\src/amqp_definitions.c ****                             if (amqpvalue_get_type(item_value) == AMQP_TYPE_NULL)
 787:Source\azure_iot_sdk\uamqp\src/amqp_definitions.c ****                             {
 788:Source\azure_iot_sdk\uamqp\src/amqp_definitions.c ****                                 amqpvalue_destroy(item_value);
 789:Source\azure_iot_sdk\uamqp\src/amqp_definitions.c ****                                 open_destroy(*open_handle);
 790:Source\azure_iot_sdk\uamqp\src/amqp_definitions.c ****                                 result = __FAILURE__;
 791:Source\azure_iot_sdk\uamqp\src/amqp_definitions.c ****                                 break;
 792:Source\azure_iot_sdk\uamqp\src/amqp_definitions.c ****                             }
 793:Source\azure_iot_sdk\uamqp\src/amqp_definitions.c ****                             else
 794:Source\azure_iot_sdk\uamqp\src/amqp_definitions.c ****                             {
 795:Source\azure_iot_sdk\uamqp\src/amqp_definitions.c ****                                 const char* container_id;
 796:Source\azure_iot_sdk\uamqp\src/amqp_definitions.c ****                                 if (amqpvalue_get_string(item_value, &container_id) != 0)
 797:Source\azure_iot_sdk\uamqp\src/amqp_definitions.c ****                                 {
 798:Source\azure_iot_sdk\uamqp\src/amqp_definitions.c ****                                     amqpvalue_destroy(item_value);
 799:Source\azure_iot_sdk\uamqp\src/amqp_definitions.c ****                                     open_destroy(*open_handle);
 800:Source\azure_iot_sdk\uamqp\src/amqp_definitions.c ****                                     result = __FAILURE__;
 801:Source\azure_iot_sdk\uamqp\src/amqp_definitions.c ****                                     break;
 802:Source\azure_iot_sdk\uamqp\src/amqp_definitions.c ****                                 }
 803:Source\azure_iot_sdk\uamqp\src/amqp_definitions.c ****                             }
 804:Source\azure_iot_sdk\uamqp\src/amqp_definitions.c **** 
 805:Source\azure_iot_sdk\uamqp\src/amqp_definitions.c ****                             amqpvalue_destroy(item_value);
 806:Source\azure_iot_sdk\uamqp\src/amqp_definitions.c ****                         }
 807:Source\azure_iot_sdk\uamqp\src/amqp_definitions.c ****                     }
 808:Source\azure_iot_sdk\uamqp\src/amqp_definitions.c ****                     else
 809:Source\azure_iot_sdk\uamqp\src/amqp_definitions.c ****                     {
 810:Source\azure_iot_sdk\uamqp\src/amqp_definitions.c ****                         result = __FAILURE__;
 811:Source\azure_iot_sdk\uamqp\src/amqp_definitions.c ****                     }
 812:Source\azure_iot_sdk\uamqp\src/amqp_definitions.c ****                     /* hostname */
 813:Source\azure_iot_sdk\uamqp\src/amqp_definitions.c ****                     if (list_item_count > 1)
 814:Source\azure_iot_sdk\uamqp\src/amqp_definitions.c ****                     {
 815:Source\azure_iot_sdk\uamqp\src/amqp_definitions.c ****                         item_value = amqpvalue_get_list_item(list_value, 1);
 816:Source\azure_iot_sdk\uamqp\src/amqp_definitions.c ****                         if (item_value == NULL)
 817:Source\azure_iot_sdk\uamqp\src/amqp_definitions.c ****                         {
 818:Source\azure_iot_sdk\uamqp\src/amqp_definitions.c ****                             /* do nothing */
 819:Source\azure_iot_sdk\uamqp\src/amqp_definitions.c ****                         }
 820:Source\azure_iot_sdk\uamqp\src/amqp_definitions.c ****                         else
 821:Source\azure_iot_sdk\uamqp\src/amqp_definitions.c ****                         {
 822:Source\azure_iot_sdk\uamqp\src/amqp_definitions.c ****                             if (amqpvalue_get_type(item_value) == AMQP_TYPE_NULL)
ARM GAS  C:\Users\Phuong\AppData\Local\Temp\cczJKlkA.s 			page 17


 823:Source\azure_iot_sdk\uamqp\src/amqp_definitions.c ****                             {
 824:Source\azure_iot_sdk\uamqp\src/amqp_definitions.c ****                                 /* no error, field is not mandatory */
 825:Source\azure_iot_sdk\uamqp\src/amqp_definitions.c ****                             }
 826:Source\azure_iot_sdk\uamqp\src/amqp_definitions.c ****                             else
 827:Source\azure_iot_sdk\uamqp\src/amqp_definitions.c ****                             {
 828:Source\azure_iot_sdk\uamqp\src/amqp_definitions.c ****                                 const char* hostname;
 829:Source\azure_iot_sdk\uamqp\src/amqp_definitions.c ****                                 if (amqpvalue_get_string(item_value, &hostname) != 0)
 830:Source\azure_iot_sdk\uamqp\src/amqp_definitions.c ****                                 {
 831:Source\azure_iot_sdk\uamqp\src/amqp_definitions.c ****                                     amqpvalue_destroy(item_value);
 832:Source\azure_iot_sdk\uamqp\src/amqp_definitions.c ****                                     open_destroy(*open_handle);
 833:Source\azure_iot_sdk\uamqp\src/amqp_definitions.c ****                                     result = __FAILURE__;
 834:Source\azure_iot_sdk\uamqp\src/amqp_definitions.c ****                                     break;
 835:Source\azure_iot_sdk\uamqp\src/amqp_definitions.c ****                                 }
 836:Source\azure_iot_sdk\uamqp\src/amqp_definitions.c ****                             }
 837:Source\azure_iot_sdk\uamqp\src/amqp_definitions.c **** 
 838:Source\azure_iot_sdk\uamqp\src/amqp_definitions.c ****                             amqpvalue_destroy(item_value);
 839:Source\azure_iot_sdk\uamqp\src/amqp_definitions.c ****                         }
 840:Source\azure_iot_sdk\uamqp\src/amqp_definitions.c ****                     }
 841:Source\azure_iot_sdk\uamqp\src/amqp_definitions.c ****                     /* max-frame-size */
 842:Source\azure_iot_sdk\uamqp\src/amqp_definitions.c ****                     if (list_item_count > 2)
 843:Source\azure_iot_sdk\uamqp\src/amqp_definitions.c ****                     {
 844:Source\azure_iot_sdk\uamqp\src/amqp_definitions.c ****                         item_value = amqpvalue_get_list_item(list_value, 2);
 845:Source\azure_iot_sdk\uamqp\src/amqp_definitions.c ****                         if (item_value == NULL)
 846:Source\azure_iot_sdk\uamqp\src/amqp_definitions.c ****                         {
 847:Source\azure_iot_sdk\uamqp\src/amqp_definitions.c ****                             /* do nothing */
 848:Source\azure_iot_sdk\uamqp\src/amqp_definitions.c ****                         }
 849:Source\azure_iot_sdk\uamqp\src/amqp_definitions.c ****                         else
 850:Source\azure_iot_sdk\uamqp\src/amqp_definitions.c ****                         {
 851:Source\azure_iot_sdk\uamqp\src/amqp_definitions.c ****                             if (amqpvalue_get_type(item_value) == AMQP_TYPE_NULL)
 852:Source\azure_iot_sdk\uamqp\src/amqp_definitions.c ****                             {
 853:Source\azure_iot_sdk\uamqp\src/amqp_definitions.c ****                                 /* no error, field is not mandatory */
 854:Source\azure_iot_sdk\uamqp\src/amqp_definitions.c ****                             }
 855:Source\azure_iot_sdk\uamqp\src/amqp_definitions.c ****                             else
 856:Source\azure_iot_sdk\uamqp\src/amqp_definitions.c ****                             {
 857:Source\azure_iot_sdk\uamqp\src/amqp_definitions.c ****                                 uint32_t max_frame_size;
 858:Source\azure_iot_sdk\uamqp\src/amqp_definitions.c ****                                 if (amqpvalue_get_uint(item_value, &max_frame_size) != 0)
 859:Source\azure_iot_sdk\uamqp\src/amqp_definitions.c ****                                 {
 860:Source\azure_iot_sdk\uamqp\src/amqp_definitions.c ****                                     amqpvalue_destroy(item_value);
 861:Source\azure_iot_sdk\uamqp\src/amqp_definitions.c ****                                     open_destroy(*open_handle);
 862:Source\azure_iot_sdk\uamqp\src/amqp_definitions.c ****                                     result = __FAILURE__;
 863:Source\azure_iot_sdk\uamqp\src/amqp_definitions.c ****                                     break;
 864:Source\azure_iot_sdk\uamqp\src/amqp_definitions.c ****                                 }
 865:Source\azure_iot_sdk\uamqp\src/amqp_definitions.c ****                             }
 866:Source\azure_iot_sdk\uamqp\src/amqp_definitions.c **** 
 867:Source\azure_iot_sdk\uamqp\src/amqp_definitions.c ****                             amqpvalue_destroy(item_value);
 868:Source\azure_iot_sdk\uamqp\src/amqp_definitions.c ****                         }
 869:Source\azure_iot_sdk\uamqp\src/amqp_definitions.c ****                     }
 870:Source\azure_iot_sdk\uamqp\src/amqp_definitions.c ****                     /* channel-max */
 871:Source\azure_iot_sdk\uamqp\src/amqp_definitions.c ****                     if (list_item_count > 3)
 872:Source\azure_iot_sdk\uamqp\src/amqp_definitions.c ****                     {
 873:Source\azure_iot_sdk\uamqp\src/amqp_definitions.c ****                         item_value = amqpvalue_get_list_item(list_value, 3);
 874:Source\azure_iot_sdk\uamqp\src/amqp_definitions.c ****                         if (item_value == NULL)
 875:Source\azure_iot_sdk\uamqp\src/amqp_definitions.c ****                         {
 876:Source\azure_iot_sdk\uamqp\src/amqp_definitions.c ****                             /* do nothing */
 877:Source\azure_iot_sdk\uamqp\src/amqp_definitions.c ****                         }
 878:Source\azure_iot_sdk\uamqp\src/amqp_definitions.c ****                         else
 879:Source\azure_iot_sdk\uamqp\src/amqp_definitions.c ****                         {
ARM GAS  C:\Users\Phuong\AppData\Local\Temp\cczJKlkA.s 			page 18


 880:Source\azure_iot_sdk\uamqp\src/amqp_definitions.c ****                             if (amqpvalue_get_type(item_value) == AMQP_TYPE_NULL)
 881:Source\azure_iot_sdk\uamqp\src/amqp_definitions.c ****                             {
 882:Source\azure_iot_sdk\uamqp\src/amqp_definitions.c ****                                 /* no error, field is not mandatory */
 883:Source\azure_iot_sdk\uamqp\src/amqp_definitions.c ****                             }
 884:Source\azure_iot_sdk\uamqp\src/amqp_definitions.c ****                             else
 885:Source\azure_iot_sdk\uamqp\src/amqp_definitions.c ****                             {
 886:Source\azure_iot_sdk\uamqp\src/amqp_definitions.c ****                                 uint16_t channel_max;
 887:Source\azure_iot_sdk\uamqp\src/amqp_definitions.c ****                                 if (amqpvalue_get_ushort(item_value, &channel_max) != 0)
 888:Source\azure_iot_sdk\uamqp\src/amqp_definitions.c ****                                 {
 889:Source\azure_iot_sdk\uamqp\src/amqp_definitions.c ****                                     amqpvalue_destroy(item_value);
 890:Source\azure_iot_sdk\uamqp\src/amqp_definitions.c ****                                     open_destroy(*open_handle);
 891:Source\azure_iot_sdk\uamqp\src/amqp_definitions.c ****                                     result = __FAILURE__;
 892:Source\azure_iot_sdk\uamqp\src/amqp_definitions.c ****                                     break;
 893:Source\azure_iot_sdk\uamqp\src/amqp_definitions.c ****                                 }
 894:Source\azure_iot_sdk\uamqp\src/amqp_definitions.c ****                             }
 895:Source\azure_iot_sdk\uamqp\src/amqp_definitions.c **** 
 896:Source\azure_iot_sdk\uamqp\src/amqp_definitions.c ****                             amqpvalue_destroy(item_value);
 897:Source\azure_iot_sdk\uamqp\src/amqp_definitions.c ****                         }
 898:Source\azure_iot_sdk\uamqp\src/amqp_definitions.c ****                     }
 899:Source\azure_iot_sdk\uamqp\src/amqp_definitions.c ****                     /* idle-time-out */
 900:Source\azure_iot_sdk\uamqp\src/amqp_definitions.c ****                     if (list_item_count > 4)
 901:Source\azure_iot_sdk\uamqp\src/amqp_definitions.c ****                     {
 902:Source\azure_iot_sdk\uamqp\src/amqp_definitions.c ****                         item_value = amqpvalue_get_list_item(list_value, 4);
 903:Source\azure_iot_sdk\uamqp\src/amqp_definitions.c ****                         if (item_value == NULL)
 904:Source\azure_iot_sdk\uamqp\src/amqp_definitions.c ****                         {
 905:Source\azure_iot_sdk\uamqp\src/amqp_definitions.c ****                             /* do nothing */
 906:Source\azure_iot_sdk\uamqp\src/amqp_definitions.c ****                         }
 907:Source\azure_iot_sdk\uamqp\src/amqp_definitions.c ****                         else
 908:Source\azure_iot_sdk\uamqp\src/amqp_definitions.c ****                         {
 909:Source\azure_iot_sdk\uamqp\src/amqp_definitions.c ****                             if (amqpvalue_get_type(item_value) == AMQP_TYPE_NULL)
 910:Source\azure_iot_sdk\uamqp\src/amqp_definitions.c ****                             {
 911:Source\azure_iot_sdk\uamqp\src/amqp_definitions.c ****                                 /* no error, field is not mandatory */
 912:Source\azure_iot_sdk\uamqp\src/amqp_definitions.c ****                             }
 913:Source\azure_iot_sdk\uamqp\src/amqp_definitions.c ****                             else
 914:Source\azure_iot_sdk\uamqp\src/amqp_definitions.c ****                             {
 915:Source\azure_iot_sdk\uamqp\src/amqp_definitions.c ****                                 milliseconds idle_time_out;
 916:Source\azure_iot_sdk\uamqp\src/amqp_definitions.c ****                                 if (amqpvalue_get_milliseconds(item_value, &idle_time_out) != 0)
 917:Source\azure_iot_sdk\uamqp\src/amqp_definitions.c ****                                 {
 918:Source\azure_iot_sdk\uamqp\src/amqp_definitions.c ****                                     amqpvalue_destroy(item_value);
 919:Source\azure_iot_sdk\uamqp\src/amqp_definitions.c ****                                     open_destroy(*open_handle);
 920:Source\azure_iot_sdk\uamqp\src/amqp_definitions.c ****                                     result = __FAILURE__;
 921:Source\azure_iot_sdk\uamqp\src/amqp_definitions.c ****                                     break;
 922:Source\azure_iot_sdk\uamqp\src/amqp_definitions.c ****                                 }
 923:Source\azure_iot_sdk\uamqp\src/amqp_definitions.c ****                             }
 924:Source\azure_iot_sdk\uamqp\src/amqp_definitions.c **** 
 925:Source\azure_iot_sdk\uamqp\src/amqp_definitions.c ****                             amqpvalue_destroy(item_value);
 926:Source\azure_iot_sdk\uamqp\src/amqp_definitions.c ****                         }
 927:Source\azure_iot_sdk\uamqp\src/amqp_definitions.c ****                     }
 928:Source\azure_iot_sdk\uamqp\src/amqp_definitions.c ****                     /* outgoing-locales */
 929:Source\azure_iot_sdk\uamqp\src/amqp_definitions.c ****                     if (list_item_count > 5)
 930:Source\azure_iot_sdk\uamqp\src/amqp_definitions.c ****                     {
 931:Source\azure_iot_sdk\uamqp\src/amqp_definitions.c ****                         item_value = amqpvalue_get_list_item(list_value, 5);
 932:Source\azure_iot_sdk\uamqp\src/amqp_definitions.c ****                         if (item_value == NULL)
 933:Source\azure_iot_sdk\uamqp\src/amqp_definitions.c ****                         {
 934:Source\azure_iot_sdk\uamqp\src/amqp_definitions.c ****                             /* do nothing */
 935:Source\azure_iot_sdk\uamqp\src/amqp_definitions.c ****                         }
 936:Source\azure_iot_sdk\uamqp\src/amqp_definitions.c ****                         else
ARM GAS  C:\Users\Phuong\AppData\Local\Temp\cczJKlkA.s 			page 19


 937:Source\azure_iot_sdk\uamqp\src/amqp_definitions.c ****                         {
 938:Source\azure_iot_sdk\uamqp\src/amqp_definitions.c ****                             if (amqpvalue_get_type(item_value) == AMQP_TYPE_NULL)
 939:Source\azure_iot_sdk\uamqp\src/amqp_definitions.c ****                             {
 940:Source\azure_iot_sdk\uamqp\src/amqp_definitions.c ****                                 /* no error, field is not mandatory */
 941:Source\azure_iot_sdk\uamqp\src/amqp_definitions.c ****                             }
 942:Source\azure_iot_sdk\uamqp\src/amqp_definitions.c ****                             else
 943:Source\azure_iot_sdk\uamqp\src/amqp_definitions.c ****                             {
 944:Source\azure_iot_sdk\uamqp\src/amqp_definitions.c ****                                 ietf_language_tag outgoing_locales = NULL;
 945:Source\azure_iot_sdk\uamqp\src/amqp_definitions.c ****                                 AMQP_VALUE outgoing_locales_array;
 946:Source\azure_iot_sdk\uamqp\src/amqp_definitions.c ****                                 if (((amqpvalue_get_type(item_value) != AMQP_TYPE_ARRAY) || (amqpva
 947:Source\azure_iot_sdk\uamqp\src/amqp_definitions.c ****                                     (amqpvalue_get_ietf_language_tag(item_value, &outgoing_locales)
 948:Source\azure_iot_sdk\uamqp\src/amqp_definitions.c ****                                 {
 949:Source\azure_iot_sdk\uamqp\src/amqp_definitions.c ****                                     amqpvalue_destroy(item_value);
 950:Source\azure_iot_sdk\uamqp\src/amqp_definitions.c ****                                     open_destroy(*open_handle);
 951:Source\azure_iot_sdk\uamqp\src/amqp_definitions.c ****                                     result = __FAILURE__;
 952:Source\azure_iot_sdk\uamqp\src/amqp_definitions.c ****                                     break;
 953:Source\azure_iot_sdk\uamqp\src/amqp_definitions.c ****                                 }
 954:Source\azure_iot_sdk\uamqp\src/amqp_definitions.c ****                             }
 955:Source\azure_iot_sdk\uamqp\src/amqp_definitions.c **** 
 956:Source\azure_iot_sdk\uamqp\src/amqp_definitions.c ****                             amqpvalue_destroy(item_value);
 957:Source\azure_iot_sdk\uamqp\src/amqp_definitions.c ****                         }
 958:Source\azure_iot_sdk\uamqp\src/amqp_definitions.c ****                     }
 959:Source\azure_iot_sdk\uamqp\src/amqp_definitions.c ****                     /* incoming-locales */
 960:Source\azure_iot_sdk\uamqp\src/amqp_definitions.c ****                     if (list_item_count > 6)
 961:Source\azure_iot_sdk\uamqp\src/amqp_definitions.c ****                     {
 962:Source\azure_iot_sdk\uamqp\src/amqp_definitions.c ****                         item_value = amqpvalue_get_list_item(list_value, 6);
 963:Source\azure_iot_sdk\uamqp\src/amqp_definitions.c ****                         if (item_value == NULL)
 964:Source\azure_iot_sdk\uamqp\src/amqp_definitions.c ****                         {
 965:Source\azure_iot_sdk\uamqp\src/amqp_definitions.c ****                             /* do nothing */
 966:Source\azure_iot_sdk\uamqp\src/amqp_definitions.c ****                         }
 967:Source\azure_iot_sdk\uamqp\src/amqp_definitions.c ****                         else
 968:Source\azure_iot_sdk\uamqp\src/amqp_definitions.c ****                         {
 969:Source\azure_iot_sdk\uamqp\src/amqp_definitions.c ****                             if (amqpvalue_get_type(item_value) == AMQP_TYPE_NULL)
 970:Source\azure_iot_sdk\uamqp\src/amqp_definitions.c ****                             {
 971:Source\azure_iot_sdk\uamqp\src/amqp_definitions.c ****                                 /* no error, field is not mandatory */
 972:Source\azure_iot_sdk\uamqp\src/amqp_definitions.c ****                             }
 973:Source\azure_iot_sdk\uamqp\src/amqp_definitions.c ****                             else
 974:Source\azure_iot_sdk\uamqp\src/amqp_definitions.c ****                             {
 975:Source\azure_iot_sdk\uamqp\src/amqp_definitions.c ****                                 ietf_language_tag incoming_locales = NULL;
 976:Source\azure_iot_sdk\uamqp\src/amqp_definitions.c ****                                 AMQP_VALUE incoming_locales_array;
 977:Source\azure_iot_sdk\uamqp\src/amqp_definitions.c ****                                 if (((amqpvalue_get_type(item_value) != AMQP_TYPE_ARRAY) || (amqpva
 978:Source\azure_iot_sdk\uamqp\src/amqp_definitions.c ****                                     (amqpvalue_get_ietf_language_tag(item_value, &incoming_locales)
 979:Source\azure_iot_sdk\uamqp\src/amqp_definitions.c ****                                 {
 980:Source\azure_iot_sdk\uamqp\src/amqp_definitions.c ****                                     amqpvalue_destroy(item_value);
 981:Source\azure_iot_sdk\uamqp\src/amqp_definitions.c ****                                     open_destroy(*open_handle);
 982:Source\azure_iot_sdk\uamqp\src/amqp_definitions.c ****                                     result = __FAILURE__;
 983:Source\azure_iot_sdk\uamqp\src/amqp_definitions.c ****                                     break;
 984:Source\azure_iot_sdk\uamqp\src/amqp_definitions.c ****                                 }
 985:Source\azure_iot_sdk\uamqp\src/amqp_definitions.c ****                             }
 986:Source\azure_iot_sdk\uamqp\src/amqp_definitions.c **** 
 987:Source\azure_iot_sdk\uamqp\src/amqp_definitions.c ****                             amqpvalue_destroy(item_value);
 988:Source\azure_iot_sdk\uamqp\src/amqp_definitions.c ****                         }
 989:Source\azure_iot_sdk\uamqp\src/amqp_definitions.c ****                     }
 990:Source\azure_iot_sdk\uamqp\src/amqp_definitions.c ****                     /* offered-capabilities */
 991:Source\azure_iot_sdk\uamqp\src/amqp_definitions.c ****                     if (list_item_count > 7)
 992:Source\azure_iot_sdk\uamqp\src/amqp_definitions.c ****                     {
 993:Source\azure_iot_sdk\uamqp\src/amqp_definitions.c ****                         item_value = amqpvalue_get_list_item(list_value, 7);
ARM GAS  C:\Users\Phuong\AppData\Local\Temp\cczJKlkA.s 			page 20


 994:Source\azure_iot_sdk\uamqp\src/amqp_definitions.c ****                         if (item_value == NULL)
 995:Source\azure_iot_sdk\uamqp\src/amqp_definitions.c ****                         {
 996:Source\azure_iot_sdk\uamqp\src/amqp_definitions.c ****                             /* do nothing */
 997:Source\azure_iot_sdk\uamqp\src/amqp_definitions.c ****                         }
 998:Source\azure_iot_sdk\uamqp\src/amqp_definitions.c ****                         else
 999:Source\azure_iot_sdk\uamqp\src/amqp_definitions.c ****                         {
1000:Source\azure_iot_sdk\uamqp\src/amqp_definitions.c ****                             if (amqpvalue_get_type(item_value) == AMQP_TYPE_NULL)
1001:Source\azure_iot_sdk\uamqp\src/amqp_definitions.c ****                             {
1002:Source\azure_iot_sdk\uamqp\src/amqp_definitions.c ****                                 /* no error, field is not mandatory */
1003:Source\azure_iot_sdk\uamqp\src/amqp_definitions.c ****                             }
1004:Source\azure_iot_sdk\uamqp\src/amqp_definitions.c ****                             else
1005:Source\azure_iot_sdk\uamqp\src/amqp_definitions.c ****                             {
1006:Source\azure_iot_sdk\uamqp\src/amqp_definitions.c ****                                 const char* offered_capabilities = NULL;
1007:Source\azure_iot_sdk\uamqp\src/amqp_definitions.c ****                                 AMQP_VALUE offered_capabilities_array;
1008:Source\azure_iot_sdk\uamqp\src/amqp_definitions.c ****                                 if (((amqpvalue_get_type(item_value) != AMQP_TYPE_ARRAY) || (amqpva
1009:Source\azure_iot_sdk\uamqp\src/amqp_definitions.c ****                                     (amqpvalue_get_symbol(item_value, &offered_capabilities) != 0))
1010:Source\azure_iot_sdk\uamqp\src/amqp_definitions.c ****                                 {
1011:Source\azure_iot_sdk\uamqp\src/amqp_definitions.c ****                                     amqpvalue_destroy(item_value);
1012:Source\azure_iot_sdk\uamqp\src/amqp_definitions.c ****                                     open_destroy(*open_handle);
1013:Source\azure_iot_sdk\uamqp\src/amqp_definitions.c ****                                     result = __FAILURE__;
1014:Source\azure_iot_sdk\uamqp\src/amqp_definitions.c ****                                     break;
1015:Source\azure_iot_sdk\uamqp\src/amqp_definitions.c ****                                 }
1016:Source\azure_iot_sdk\uamqp\src/amqp_definitions.c ****                             }
1017:Source\azure_iot_sdk\uamqp\src/amqp_definitions.c **** 
1018:Source\azure_iot_sdk\uamqp\src/amqp_definitions.c ****                             amqpvalue_destroy(item_value);
1019:Source\azure_iot_sdk\uamqp\src/amqp_definitions.c ****                         }
1020:Source\azure_iot_sdk\uamqp\src/amqp_definitions.c ****                     }
1021:Source\azure_iot_sdk\uamqp\src/amqp_definitions.c ****                     /* desired-capabilities */
1022:Source\azure_iot_sdk\uamqp\src/amqp_definitions.c ****                     if (list_item_count > 8)
1023:Source\azure_iot_sdk\uamqp\src/amqp_definitions.c ****                     {
1024:Source\azure_iot_sdk\uamqp\src/amqp_definitions.c ****                         item_value = amqpvalue_get_list_item(list_value, 8);
1025:Source\azure_iot_sdk\uamqp\src/amqp_definitions.c ****                         if (item_value == NULL)
1026:Source\azure_iot_sdk\uamqp\src/amqp_definitions.c ****                         {
1027:Source\azure_iot_sdk\uamqp\src/amqp_definitions.c ****                             /* do nothing */
1028:Source\azure_iot_sdk\uamqp\src/amqp_definitions.c ****                         }
1029:Source\azure_iot_sdk\uamqp\src/amqp_definitions.c ****                         else
1030:Source\azure_iot_sdk\uamqp\src/amqp_definitions.c ****                         {
1031:Source\azure_iot_sdk\uamqp\src/amqp_definitions.c ****                             if (amqpvalue_get_type(item_value) == AMQP_TYPE_NULL)
1032:Source\azure_iot_sdk\uamqp\src/amqp_definitions.c ****                             {
1033:Source\azure_iot_sdk\uamqp\src/amqp_definitions.c ****                                 /* no error, field is not mandatory */
1034:Source\azure_iot_sdk\uamqp\src/amqp_definitions.c ****                             }
1035:Source\azure_iot_sdk\uamqp\src/amqp_definitions.c ****                             else
1036:Source\azure_iot_sdk\uamqp\src/amqp_definitions.c ****                             {
1037:Source\azure_iot_sdk\uamqp\src/amqp_definitions.c ****                                 const char* desired_capabilities = NULL;
1038:Source\azure_iot_sdk\uamqp\src/amqp_definitions.c ****                                 AMQP_VALUE desired_capabilities_array;
1039:Source\azure_iot_sdk\uamqp\src/amqp_definitions.c ****                                 if (((amqpvalue_get_type(item_value) != AMQP_TYPE_ARRAY) || (amqpva
1040:Source\azure_iot_sdk\uamqp\src/amqp_definitions.c ****                                     (amqpvalue_get_symbol(item_value, &desired_capabilities) != 0))
1041:Source\azure_iot_sdk\uamqp\src/amqp_definitions.c ****                                 {
1042:Source\azure_iot_sdk\uamqp\src/amqp_definitions.c ****                                     amqpvalue_destroy(item_value);
1043:Source\azure_iot_sdk\uamqp\src/amqp_definitions.c ****                                     open_destroy(*open_handle);
1044:Source\azure_iot_sdk\uamqp\src/amqp_definitions.c ****                                     result = __FAILURE__;
1045:Source\azure_iot_sdk\uamqp\src/amqp_definitions.c ****                                     break;
1046:Source\azure_iot_sdk\uamqp\src/amqp_definitions.c ****                                 }
1047:Source\azure_iot_sdk\uamqp\src/amqp_definitions.c ****                             }
1048:Source\azure_iot_sdk\uamqp\src/amqp_definitions.c **** 
1049:Source\azure_iot_sdk\uamqp\src/amqp_definitions.c ****                             amqpvalue_destroy(item_value);
1050:Source\azure_iot_sdk\uamqp\src/amqp_definitions.c ****                         }
ARM GAS  C:\Users\Phuong\AppData\Local\Temp\cczJKlkA.s 			page 21


1051:Source\azure_iot_sdk\uamqp\src/amqp_definitions.c ****                     }
1052:Source\azure_iot_sdk\uamqp\src/amqp_definitions.c ****                     /* properties */
1053:Source\azure_iot_sdk\uamqp\src/amqp_definitions.c ****                     if (list_item_count > 9)
1054:Source\azure_iot_sdk\uamqp\src/amqp_definitions.c ****                     {
1055:Source\azure_iot_sdk\uamqp\src/amqp_definitions.c ****                         item_value = amqpvalue_get_list_item(list_value, 9);
1056:Source\azure_iot_sdk\uamqp\src/amqp_definitions.c ****                         if (item_value == NULL)
1057:Source\azure_iot_sdk\uamqp\src/amqp_definitions.c ****                         {
1058:Source\azure_iot_sdk\uamqp\src/amqp_definitions.c ****                             /* do nothing */
1059:Source\azure_iot_sdk\uamqp\src/amqp_definitions.c ****                         }
1060:Source\azure_iot_sdk\uamqp\src/amqp_definitions.c ****                         else
1061:Source\azure_iot_sdk\uamqp\src/amqp_definitions.c ****                         {
1062:Source\azure_iot_sdk\uamqp\src/amqp_definitions.c ****                             if (amqpvalue_get_type(item_value) == AMQP_TYPE_NULL)
1063:Source\azure_iot_sdk\uamqp\src/amqp_definitions.c ****                             {
1064:Source\azure_iot_sdk\uamqp\src/amqp_definitions.c ****                                 /* no error, field is not mandatory */
1065:Source\azure_iot_sdk\uamqp\src/amqp_definitions.c ****                             }
1066:Source\azure_iot_sdk\uamqp\src/amqp_definitions.c ****                             else
1067:Source\azure_iot_sdk\uamqp\src/amqp_definitions.c ****                             {
1068:Source\azure_iot_sdk\uamqp\src/amqp_definitions.c ****                                 fields properties;
1069:Source\azure_iot_sdk\uamqp\src/amqp_definitions.c ****                                 if (amqpvalue_get_fields(item_value, &properties) != 0)
1070:Source\azure_iot_sdk\uamqp\src/amqp_definitions.c ****                                 {
1071:Source\azure_iot_sdk\uamqp\src/amqp_definitions.c ****                                     amqpvalue_destroy(item_value);
1072:Source\azure_iot_sdk\uamqp\src/amqp_definitions.c ****                                     open_destroy(*open_handle);
1073:Source\azure_iot_sdk\uamqp\src/amqp_definitions.c ****                                     result = __FAILURE__;
1074:Source\azure_iot_sdk\uamqp\src/amqp_definitions.c ****                                     break;
1075:Source\azure_iot_sdk\uamqp\src/amqp_definitions.c ****                                 }
1076:Source\azure_iot_sdk\uamqp\src/amqp_definitions.c ****                             }
1077:Source\azure_iot_sdk\uamqp\src/amqp_definitions.c **** 
1078:Source\azure_iot_sdk\uamqp\src/amqp_definitions.c ****                             amqpvalue_destroy(item_value);
1079:Source\azure_iot_sdk\uamqp\src/amqp_definitions.c ****                         }
1080:Source\azure_iot_sdk\uamqp\src/amqp_definitions.c ****                     }
1081:Source\azure_iot_sdk\uamqp\src/amqp_definitions.c **** 
1082:Source\azure_iot_sdk\uamqp\src/amqp_definitions.c ****                     open_instance->composite_value = amqpvalue_clone(value);
1083:Source\azure_iot_sdk\uamqp\src/amqp_definitions.c **** 
1084:Source\azure_iot_sdk\uamqp\src/amqp_definitions.c ****                     result = 0;
1085:Source\azure_iot_sdk\uamqp\src/amqp_definitions.c ****                 } while((void)0,0);
1086:Source\azure_iot_sdk\uamqp\src/amqp_definitions.c ****             }
1087:Source\azure_iot_sdk\uamqp\src/amqp_definitions.c ****         }
1088:Source\azure_iot_sdk\uamqp\src/amqp_definitions.c ****     }
1089:Source\azure_iot_sdk\uamqp\src/amqp_definitions.c **** 
1090:Source\azure_iot_sdk\uamqp\src/amqp_definitions.c ****     return result;
1091:Source\azure_iot_sdk\uamqp\src/amqp_definitions.c **** }
1092:Source\azure_iot_sdk\uamqp\src/amqp_definitions.c **** 
1093:Source\azure_iot_sdk\uamqp\src/amqp_definitions.c **** int open_get_container_id(OPEN_HANDLE open, const char** container_id_value)
1094:Source\azure_iot_sdk\uamqp\src/amqp_definitions.c **** {
1095:Source\azure_iot_sdk\uamqp\src/amqp_definitions.c ****     int result;
1096:Source\azure_iot_sdk\uamqp\src/amqp_definitions.c **** 
1097:Source\azure_iot_sdk\uamqp\src/amqp_definitions.c ****     if (open == NULL)
1098:Source\azure_iot_sdk\uamqp\src/amqp_definitions.c ****     {
1099:Source\azure_iot_sdk\uamqp\src/amqp_definitions.c ****         result = __FAILURE__;
1100:Source\azure_iot_sdk\uamqp\src/amqp_definitions.c ****     }
1101:Source\azure_iot_sdk\uamqp\src/amqp_definitions.c ****     else
1102:Source\azure_iot_sdk\uamqp\src/amqp_definitions.c ****     {
1103:Source\azure_iot_sdk\uamqp\src/amqp_definitions.c ****         uint32_t item_count;
1104:Source\azure_iot_sdk\uamqp\src/amqp_definitions.c ****         OPEN_INSTANCE* open_instance = (OPEN_INSTANCE*)open;
1105:Source\azure_iot_sdk\uamqp\src/amqp_definitions.c ****         if (amqpvalue_get_composite_item_count(open_instance->composite_value, &item_count) != 0)
1106:Source\azure_iot_sdk\uamqp\src/amqp_definitions.c ****         {
1107:Source\azure_iot_sdk\uamqp\src/amqp_definitions.c ****             result = __FAILURE__;
ARM GAS  C:\Users\Phuong\AppData\Local\Temp\cczJKlkA.s 			page 22


1108:Source\azure_iot_sdk\uamqp\src/amqp_definitions.c ****         }
1109:Source\azure_iot_sdk\uamqp\src/amqp_definitions.c ****         else
1110:Source\azure_iot_sdk\uamqp\src/amqp_definitions.c ****         {
1111:Source\azure_iot_sdk\uamqp\src/amqp_definitions.c ****             if (item_count <= 0)
1112:Source\azure_iot_sdk\uamqp\src/amqp_definitions.c ****             {
1113:Source\azure_iot_sdk\uamqp\src/amqp_definitions.c ****                 result = __FAILURE__;
1114:Source\azure_iot_sdk\uamqp\src/amqp_definitions.c ****             }
1115:Source\azure_iot_sdk\uamqp\src/amqp_definitions.c ****             else
1116:Source\azure_iot_sdk\uamqp\src/amqp_definitions.c ****             {
1117:Source\azure_iot_sdk\uamqp\src/amqp_definitions.c ****                 AMQP_VALUE item_value = amqpvalue_get_composite_item_in_place(open_instance->compos
1118:Source\azure_iot_sdk\uamqp\src/amqp_definitions.c ****                 if ((item_value == NULL) ||
1119:Source\azure_iot_sdk\uamqp\src/amqp_definitions.c ****                     (amqpvalue_get_type(item_value) == AMQP_TYPE_NULL))
1120:Source\azure_iot_sdk\uamqp\src/amqp_definitions.c ****                 {
1121:Source\azure_iot_sdk\uamqp\src/amqp_definitions.c ****                     result = __FAILURE__;
1122:Source\azure_iot_sdk\uamqp\src/amqp_definitions.c ****                 }
1123:Source\azure_iot_sdk\uamqp\src/amqp_definitions.c ****                 else
1124:Source\azure_iot_sdk\uamqp\src/amqp_definitions.c ****                 {
1125:Source\azure_iot_sdk\uamqp\src/amqp_definitions.c ****                     int get_single_value_result = amqpvalue_get_string(item_value, container_id_val
1126:Source\azure_iot_sdk\uamqp\src/amqp_definitions.c ****                     if (get_single_value_result != 0)
1127:Source\azure_iot_sdk\uamqp\src/amqp_definitions.c ****                     {
1128:Source\azure_iot_sdk\uamqp\src/amqp_definitions.c ****                         result = __FAILURE__;
1129:Source\azure_iot_sdk\uamqp\src/amqp_definitions.c ****                     }
1130:Source\azure_iot_sdk\uamqp\src/amqp_definitions.c ****                     else
1131:Source\azure_iot_sdk\uamqp\src/amqp_definitions.c ****                     {
1132:Source\azure_iot_sdk\uamqp\src/amqp_definitions.c ****                         result = 0;
1133:Source\azure_iot_sdk\uamqp\src/amqp_definitions.c ****                     }
1134:Source\azure_iot_sdk\uamqp\src/amqp_definitions.c ****                 }
1135:Source\azure_iot_sdk\uamqp\src/amqp_definitions.c ****             }
1136:Source\azure_iot_sdk\uamqp\src/amqp_definitions.c ****         }
1137:Source\azure_iot_sdk\uamqp\src/amqp_definitions.c ****     }
1138:Source\azure_iot_sdk\uamqp\src/amqp_definitions.c **** 
1139:Source\azure_iot_sdk\uamqp\src/amqp_definitions.c ****     return result;
1140:Source\azure_iot_sdk\uamqp\src/amqp_definitions.c **** }
1141:Source\azure_iot_sdk\uamqp\src/amqp_definitions.c **** 
1142:Source\azure_iot_sdk\uamqp\src/amqp_definitions.c **** int open_set_container_id(OPEN_HANDLE open, const char* container_id_value)
1143:Source\azure_iot_sdk\uamqp\src/amqp_definitions.c **** {
1144:Source\azure_iot_sdk\uamqp\src/amqp_definitions.c ****     int result;
1145:Source\azure_iot_sdk\uamqp\src/amqp_definitions.c **** 
1146:Source\azure_iot_sdk\uamqp\src/amqp_definitions.c ****     if (open == NULL)
1147:Source\azure_iot_sdk\uamqp\src/amqp_definitions.c ****     {
1148:Source\azure_iot_sdk\uamqp\src/amqp_definitions.c ****         result = __FAILURE__;
1149:Source\azure_iot_sdk\uamqp\src/amqp_definitions.c ****     }
1150:Source\azure_iot_sdk\uamqp\src/amqp_definitions.c ****     else
1151:Source\azure_iot_sdk\uamqp\src/amqp_definitions.c ****     {
1152:Source\azure_iot_sdk\uamqp\src/amqp_definitions.c ****         OPEN_INSTANCE* open_instance = (OPEN_INSTANCE*)open;
1153:Source\azure_iot_sdk\uamqp\src/amqp_definitions.c ****         AMQP_VALUE container_id_amqp_value = amqpvalue_create_string(container_id_value);
1154:Source\azure_iot_sdk\uamqp\src/amqp_definitions.c ****         if (container_id_amqp_value == NULL)
1155:Source\azure_iot_sdk\uamqp\src/amqp_definitions.c ****         {
1156:Source\azure_iot_sdk\uamqp\src/amqp_definitions.c ****             result = __FAILURE__;
1157:Source\azure_iot_sdk\uamqp\src/amqp_definitions.c ****         }
1158:Source\azure_iot_sdk\uamqp\src/amqp_definitions.c ****         else
1159:Source\azure_iot_sdk\uamqp\src/amqp_definitions.c ****         {
1160:Source\azure_iot_sdk\uamqp\src/amqp_definitions.c ****             if (amqpvalue_set_composite_item(open_instance->composite_value, 0, container_id_amqp_v
1161:Source\azure_iot_sdk\uamqp\src/amqp_definitions.c ****             {
1162:Source\azure_iot_sdk\uamqp\src/amqp_definitions.c ****                 result = __FAILURE__;
1163:Source\azure_iot_sdk\uamqp\src/amqp_definitions.c ****             }
1164:Source\azure_iot_sdk\uamqp\src/amqp_definitions.c ****             else
ARM GAS  C:\Users\Phuong\AppData\Local\Temp\cczJKlkA.s 			page 23


1165:Source\azure_iot_sdk\uamqp\src/amqp_definitions.c ****             {
1166:Source\azure_iot_sdk\uamqp\src/amqp_definitions.c ****                 result = 0;
1167:Source\azure_iot_sdk\uamqp\src/amqp_definitions.c ****             }
1168:Source\azure_iot_sdk\uamqp\src/amqp_definitions.c **** 
1169:Source\azure_iot_sdk\uamqp\src/amqp_definitions.c ****             amqpvalue_destroy(container_id_amqp_value);
1170:Source\azure_iot_sdk\uamqp\src/amqp_definitions.c ****         }
1171:Source\azure_iot_sdk\uamqp\src/amqp_definitions.c ****     }
1172:Source\azure_iot_sdk\uamqp\src/amqp_definitions.c **** 
1173:Source\azure_iot_sdk\uamqp\src/amqp_definitions.c ****     return result;
1174:Source\azure_iot_sdk\uamqp\src/amqp_definitions.c **** }
1175:Source\azure_iot_sdk\uamqp\src/amqp_definitions.c **** 
1176:Source\azure_iot_sdk\uamqp\src/amqp_definitions.c **** int open_get_hostname(OPEN_HANDLE open, const char** hostname_value)
1177:Source\azure_iot_sdk\uamqp\src/amqp_definitions.c **** {
1178:Source\azure_iot_sdk\uamqp\src/amqp_definitions.c ****     int result;
1179:Source\azure_iot_sdk\uamqp\src/amqp_definitions.c **** 
1180:Source\azure_iot_sdk\uamqp\src/amqp_definitions.c ****     if (open == NULL)
1181:Source\azure_iot_sdk\uamqp\src/amqp_definitions.c ****     {
1182:Source\azure_iot_sdk\uamqp\src/amqp_definitions.c ****         result = __FAILURE__;
1183:Source\azure_iot_sdk\uamqp\src/amqp_definitions.c ****     }
1184:Source\azure_iot_sdk\uamqp\src/amqp_definitions.c ****     else
1185:Source\azure_iot_sdk\uamqp\src/amqp_definitions.c ****     {
1186:Source\azure_iot_sdk\uamqp\src/amqp_definitions.c ****         uint32_t item_count;
1187:Source\azure_iot_sdk\uamqp\src/amqp_definitions.c ****         OPEN_INSTANCE* open_instance = (OPEN_INSTANCE*)open;
1188:Source\azure_iot_sdk\uamqp\src/amqp_definitions.c ****         if (amqpvalue_get_composite_item_count(open_instance->composite_value, &item_count) != 0)
1189:Source\azure_iot_sdk\uamqp\src/amqp_definitions.c ****         {
1190:Source\azure_iot_sdk\uamqp\src/amqp_definitions.c ****             result = __FAILURE__;
1191:Source\azure_iot_sdk\uamqp\src/amqp_definitions.c ****         }
1192:Source\azure_iot_sdk\uamqp\src/amqp_definitions.c ****         else
1193:Source\azure_iot_sdk\uamqp\src/amqp_definitions.c ****         {
1194:Source\azure_iot_sdk\uamqp\src/amqp_definitions.c ****             if (item_count <= 1)
1195:Source\azure_iot_sdk\uamqp\src/amqp_definitions.c ****             {
1196:Source\azure_iot_sdk\uamqp\src/amqp_definitions.c ****                 result = __FAILURE__;
1197:Source\azure_iot_sdk\uamqp\src/amqp_definitions.c ****             }
1198:Source\azure_iot_sdk\uamqp\src/amqp_definitions.c ****             else
1199:Source\azure_iot_sdk\uamqp\src/amqp_definitions.c ****             {
1200:Source\azure_iot_sdk\uamqp\src/amqp_definitions.c ****                 AMQP_VALUE item_value = amqpvalue_get_composite_item_in_place(open_instance->compos
1201:Source\azure_iot_sdk\uamqp\src/amqp_definitions.c ****                 if ((item_value == NULL) ||
1202:Source\azure_iot_sdk\uamqp\src/amqp_definitions.c ****                     (amqpvalue_get_type(item_value) == AMQP_TYPE_NULL))
1203:Source\azure_iot_sdk\uamqp\src/amqp_definitions.c ****                 {
1204:Source\azure_iot_sdk\uamqp\src/amqp_definitions.c ****                     result = __FAILURE__;
1205:Source\azure_iot_sdk\uamqp\src/amqp_definitions.c ****                 }
1206:Source\azure_iot_sdk\uamqp\src/amqp_definitions.c ****                 else
1207:Source\azure_iot_sdk\uamqp\src/amqp_definitions.c ****                 {
1208:Source\azure_iot_sdk\uamqp\src/amqp_definitions.c ****                     int get_single_value_result = amqpvalue_get_string(item_value, hostname_value);
1209:Source\azure_iot_sdk\uamqp\src/amqp_definitions.c ****                     if (get_single_value_result != 0)
1210:Source\azure_iot_sdk\uamqp\src/amqp_definitions.c ****                     {
1211:Source\azure_iot_sdk\uamqp\src/amqp_definitions.c ****                         result = __FAILURE__;
1212:Source\azure_iot_sdk\uamqp\src/amqp_definitions.c ****                     }
1213:Source\azure_iot_sdk\uamqp\src/amqp_definitions.c ****                     else
1214:Source\azure_iot_sdk\uamqp\src/amqp_definitions.c ****                     {
1215:Source\azure_iot_sdk\uamqp\src/amqp_definitions.c ****                         result = 0;
1216:Source\azure_iot_sdk\uamqp\src/amqp_definitions.c ****                     }
1217:Source\azure_iot_sdk\uamqp\src/amqp_definitions.c ****                 }
1218:Source\azure_iot_sdk\uamqp\src/amqp_definitions.c ****             }
1219:Source\azure_iot_sdk\uamqp\src/amqp_definitions.c ****         }
1220:Source\azure_iot_sdk\uamqp\src/amqp_definitions.c ****     }
1221:Source\azure_iot_sdk\uamqp\src/amqp_definitions.c **** 
ARM GAS  C:\Users\Phuong\AppData\Local\Temp\cczJKlkA.s 			page 24


1222:Source\azure_iot_sdk\uamqp\src/amqp_definitions.c ****     return result;
1223:Source\azure_iot_sdk\uamqp\src/amqp_definitions.c **** }
1224:Source\azure_iot_sdk\uamqp\src/amqp_definitions.c **** 
1225:Source\azure_iot_sdk\uamqp\src/amqp_definitions.c **** int open_set_hostname(OPEN_HANDLE open, const char* hostname_value)
1226:Source\azure_iot_sdk\uamqp\src/amqp_definitions.c **** {
1227:Source\azure_iot_sdk\uamqp\src/amqp_definitions.c ****     int result;
1228:Source\azure_iot_sdk\uamqp\src/amqp_definitions.c **** 
1229:Source\azure_iot_sdk\uamqp\src/amqp_definitions.c ****     if (open == NULL)
1230:Source\azure_iot_sdk\uamqp\src/amqp_definitions.c ****     {
1231:Source\azure_iot_sdk\uamqp\src/amqp_definitions.c ****         result = __FAILURE__;
1232:Source\azure_iot_sdk\uamqp\src/amqp_definitions.c ****     }
1233:Source\azure_iot_sdk\uamqp\src/amqp_definitions.c ****     else
1234:Source\azure_iot_sdk\uamqp\src/amqp_definitions.c ****     {
1235:Source\azure_iot_sdk\uamqp\src/amqp_definitions.c ****         OPEN_INSTANCE* open_instance = (OPEN_INSTANCE*)open;
1236:Source\azure_iot_sdk\uamqp\src/amqp_definitions.c ****         AMQP_VALUE hostname_amqp_value = amqpvalue_create_string(hostname_value);
1237:Source\azure_iot_sdk\uamqp\src/amqp_definitions.c ****         if (hostname_amqp_value == NULL)
1238:Source\azure_iot_sdk\uamqp\src/amqp_definitions.c ****         {
1239:Source\azure_iot_sdk\uamqp\src/amqp_definitions.c ****             result = __FAILURE__;
1240:Source\azure_iot_sdk\uamqp\src/amqp_definitions.c ****         }
1241:Source\azure_iot_sdk\uamqp\src/amqp_definitions.c ****         else
1242:Source\azure_iot_sdk\uamqp\src/amqp_definitions.c ****         {
1243:Source\azure_iot_sdk\uamqp\src/amqp_definitions.c ****             if (amqpvalue_set_composite_item(open_instance->composite_value, 1, hostname_amqp_value
1244:Source\azure_iot_sdk\uamqp\src/amqp_definitions.c ****             {
1245:Source\azure_iot_sdk\uamqp\src/amqp_definitions.c ****                 result = __FAILURE__;
1246:Source\azure_iot_sdk\uamqp\src/amqp_definitions.c ****             }
1247:Source\azure_iot_sdk\uamqp\src/amqp_definitions.c ****             else
1248:Source\azure_iot_sdk\uamqp\src/amqp_definitions.c ****             {
1249:Source\azure_iot_sdk\uamqp\src/amqp_definitions.c ****                 result = 0;
1250:Source\azure_iot_sdk\uamqp\src/amqp_definitions.c ****             }
1251:Source\azure_iot_sdk\uamqp\src/amqp_definitions.c **** 
1252:Source\azure_iot_sdk\uamqp\src/amqp_definitions.c ****             amqpvalue_destroy(hostname_amqp_value);
1253:Source\azure_iot_sdk\uamqp\src/amqp_definitions.c ****         }
1254:Source\azure_iot_sdk\uamqp\src/amqp_definitions.c ****     }
1255:Source\azure_iot_sdk\uamqp\src/amqp_definitions.c **** 
1256:Source\azure_iot_sdk\uamqp\src/amqp_definitions.c ****     return result;
1257:Source\azure_iot_sdk\uamqp\src/amqp_definitions.c **** }
1258:Source\azure_iot_sdk\uamqp\src/amqp_definitions.c **** 
1259:Source\azure_iot_sdk\uamqp\src/amqp_definitions.c **** int open_get_max_frame_size(OPEN_HANDLE open, uint32_t* max_frame_size_value)
1260:Source\azure_iot_sdk\uamqp\src/amqp_definitions.c **** {
1261:Source\azure_iot_sdk\uamqp\src/amqp_definitions.c ****     int result;
1262:Source\azure_iot_sdk\uamqp\src/amqp_definitions.c **** 
1263:Source\azure_iot_sdk\uamqp\src/amqp_definitions.c ****     if (open == NULL)
1264:Source\azure_iot_sdk\uamqp\src/amqp_definitions.c ****     {
1265:Source\azure_iot_sdk\uamqp\src/amqp_definitions.c ****         result = __FAILURE__;
1266:Source\azure_iot_sdk\uamqp\src/amqp_definitions.c ****     }
1267:Source\azure_iot_sdk\uamqp\src/amqp_definitions.c ****     else
1268:Source\azure_iot_sdk\uamqp\src/amqp_definitions.c ****     {
1269:Source\azure_iot_sdk\uamqp\src/amqp_definitions.c ****         uint32_t item_count;
1270:Source\azure_iot_sdk\uamqp\src/amqp_definitions.c ****         OPEN_INSTANCE* open_instance = (OPEN_INSTANCE*)open;
1271:Source\azure_iot_sdk\uamqp\src/amqp_definitions.c ****         if (amqpvalue_get_composite_item_count(open_instance->composite_value, &item_count) != 0)
1272:Source\azure_iot_sdk\uamqp\src/amqp_definitions.c ****         {
1273:Source\azure_iot_sdk\uamqp\src/amqp_definitions.c ****             result = __FAILURE__;
1274:Source\azure_iot_sdk\uamqp\src/amqp_definitions.c ****         }
1275:Source\azure_iot_sdk\uamqp\src/amqp_definitions.c ****         else
1276:Source\azure_iot_sdk\uamqp\src/amqp_definitions.c ****         {
1277:Source\azure_iot_sdk\uamqp\src/amqp_definitions.c ****             if (item_count <= 2)
1278:Source\azure_iot_sdk\uamqp\src/amqp_definitions.c ****             {
ARM GAS  C:\Users\Phuong\AppData\Local\Temp\cczJKlkA.s 			page 25


1279:Source\azure_iot_sdk\uamqp\src/amqp_definitions.c ****                 *max_frame_size_value = 4294967295u;
1280:Source\azure_iot_sdk\uamqp\src/amqp_definitions.c ****                 result = 0;
1281:Source\azure_iot_sdk\uamqp\src/amqp_definitions.c ****             }
1282:Source\azure_iot_sdk\uamqp\src/amqp_definitions.c ****             else
1283:Source\azure_iot_sdk\uamqp\src/amqp_definitions.c ****             {
1284:Source\azure_iot_sdk\uamqp\src/amqp_definitions.c ****                 AMQP_VALUE item_value = amqpvalue_get_composite_item_in_place(open_instance->compos
1285:Source\azure_iot_sdk\uamqp\src/amqp_definitions.c ****                 if ((item_value == NULL) ||
1286:Source\azure_iot_sdk\uamqp\src/amqp_definitions.c ****                     (amqpvalue_get_type(item_value) == AMQP_TYPE_NULL))
1287:Source\azure_iot_sdk\uamqp\src/amqp_definitions.c ****                 {
1288:Source\azure_iot_sdk\uamqp\src/amqp_definitions.c ****                     *max_frame_size_value = 4294967295u;
1289:Source\azure_iot_sdk\uamqp\src/amqp_definitions.c ****                     result = 0;
1290:Source\azure_iot_sdk\uamqp\src/amqp_definitions.c ****                 }
1291:Source\azure_iot_sdk\uamqp\src/amqp_definitions.c ****                 else
1292:Source\azure_iot_sdk\uamqp\src/amqp_definitions.c ****                 {
1293:Source\azure_iot_sdk\uamqp\src/amqp_definitions.c ****                     int get_single_value_result = amqpvalue_get_uint(item_value, max_frame_size_val
1294:Source\azure_iot_sdk\uamqp\src/amqp_definitions.c ****                     if (get_single_value_result != 0)
1295:Source\azure_iot_sdk\uamqp\src/amqp_definitions.c ****                     {
1296:Source\azure_iot_sdk\uamqp\src/amqp_definitions.c ****                         if (amqpvalue_get_type(item_value) != AMQP_TYPE_NULL)
1297:Source\azure_iot_sdk\uamqp\src/amqp_definitions.c ****                         {
1298:Source\azure_iot_sdk\uamqp\src/amqp_definitions.c ****                             result = __FAILURE__;
1299:Source\azure_iot_sdk\uamqp\src/amqp_definitions.c ****                         }
1300:Source\azure_iot_sdk\uamqp\src/amqp_definitions.c ****                         else
1301:Source\azure_iot_sdk\uamqp\src/amqp_definitions.c ****                         {
1302:Source\azure_iot_sdk\uamqp\src/amqp_definitions.c ****                             *max_frame_size_value = 4294967295u;
1303:Source\azure_iot_sdk\uamqp\src/amqp_definitions.c ****                             result = 0;
1304:Source\azure_iot_sdk\uamqp\src/amqp_definitions.c ****                         }
1305:Source\azure_iot_sdk\uamqp\src/amqp_definitions.c ****                     }
1306:Source\azure_iot_sdk\uamqp\src/amqp_definitions.c ****                     else
1307:Source\azure_iot_sdk\uamqp\src/amqp_definitions.c ****                     {
1308:Source\azure_iot_sdk\uamqp\src/amqp_definitions.c ****                         result = 0;
1309:Source\azure_iot_sdk\uamqp\src/amqp_definitions.c ****                     }
1310:Source\azure_iot_sdk\uamqp\src/amqp_definitions.c ****                 }
1311:Source\azure_iot_sdk\uamqp\src/amqp_definitions.c ****             }
1312:Source\azure_iot_sdk\uamqp\src/amqp_definitions.c ****         }
1313:Source\azure_iot_sdk\uamqp\src/amqp_definitions.c ****     }
1314:Source\azure_iot_sdk\uamqp\src/amqp_definitions.c **** 
1315:Source\azure_iot_sdk\uamqp\src/amqp_definitions.c ****     return result;
1316:Source\azure_iot_sdk\uamqp\src/amqp_definitions.c **** }
1317:Source\azure_iot_sdk\uamqp\src/amqp_definitions.c **** 
1318:Source\azure_iot_sdk\uamqp\src/amqp_definitions.c **** int open_set_max_frame_size(OPEN_HANDLE open, uint32_t max_frame_size_value)
1319:Source\azure_iot_sdk\uamqp\src/amqp_definitions.c **** {
1320:Source\azure_iot_sdk\uamqp\src/amqp_definitions.c ****     int result;
1321:Source\azure_iot_sdk\uamqp\src/amqp_definitions.c **** 
1322:Source\azure_iot_sdk\uamqp\src/amqp_definitions.c ****     if (open == NULL)
1323:Source\azure_iot_sdk\uamqp\src/amqp_definitions.c ****     {
1324:Source\azure_iot_sdk\uamqp\src/amqp_definitions.c ****         result = __FAILURE__;
1325:Source\azure_iot_sdk\uamqp\src/amqp_definitions.c ****     }
1326:Source\azure_iot_sdk\uamqp\src/amqp_definitions.c ****     else
1327:Source\azure_iot_sdk\uamqp\src/amqp_definitions.c ****     {
1328:Source\azure_iot_sdk\uamqp\src/amqp_definitions.c ****         OPEN_INSTANCE* open_instance = (OPEN_INSTANCE*)open;
1329:Source\azure_iot_sdk\uamqp\src/amqp_definitions.c ****         AMQP_VALUE max_frame_size_amqp_value = amqpvalue_create_uint(max_frame_size_value);
1330:Source\azure_iot_sdk\uamqp\src/amqp_definitions.c ****         if (max_frame_size_amqp_value == NULL)
1331:Source\azure_iot_sdk\uamqp\src/amqp_definitions.c ****         {
1332:Source\azure_iot_sdk\uamqp\src/amqp_definitions.c ****             result = __FAILURE__;
1333:Source\azure_iot_sdk\uamqp\src/amqp_definitions.c ****         }
1334:Source\azure_iot_sdk\uamqp\src/amqp_definitions.c ****         else
1335:Source\azure_iot_sdk\uamqp\src/amqp_definitions.c ****         {
ARM GAS  C:\Users\Phuong\AppData\Local\Temp\cczJKlkA.s 			page 26


1336:Source\azure_iot_sdk\uamqp\src/amqp_definitions.c ****             if (amqpvalue_set_composite_item(open_instance->composite_value, 2, max_frame_size_amqp
1337:Source\azure_iot_sdk\uamqp\src/amqp_definitions.c ****             {
1338:Source\azure_iot_sdk\uamqp\src/amqp_definitions.c ****                 result = __FAILURE__;
1339:Source\azure_iot_sdk\uamqp\src/amqp_definitions.c ****             }
1340:Source\azure_iot_sdk\uamqp\src/amqp_definitions.c ****             else
1341:Source\azure_iot_sdk\uamqp\src/amqp_definitions.c ****             {
1342:Source\azure_iot_sdk\uamqp\src/amqp_definitions.c ****                 result = 0;
1343:Source\azure_iot_sdk\uamqp\src/amqp_definitions.c ****             }
1344:Source\azure_iot_sdk\uamqp\src/amqp_definitions.c **** 
1345:Source\azure_iot_sdk\uamqp\src/amqp_definitions.c ****             amqpvalue_destroy(max_frame_size_amqp_value);
1346:Source\azure_iot_sdk\uamqp\src/amqp_definitions.c ****         }
1347:Source\azure_iot_sdk\uamqp\src/amqp_definitions.c ****     }
1348:Source\azure_iot_sdk\uamqp\src/amqp_definitions.c **** 
1349:Source\azure_iot_sdk\uamqp\src/amqp_definitions.c ****     return result;
1350:Source\azure_iot_sdk\uamqp\src/amqp_definitions.c **** }
1351:Source\azure_iot_sdk\uamqp\src/amqp_definitions.c **** 
1352:Source\azure_iot_sdk\uamqp\src/amqp_definitions.c **** int open_get_channel_max(OPEN_HANDLE open, uint16_t* channel_max_value)
1353:Source\azure_iot_sdk\uamqp\src/amqp_definitions.c **** {
1354:Source\azure_iot_sdk\uamqp\src/amqp_definitions.c ****     int result;
1355:Source\azure_iot_sdk\uamqp\src/amqp_definitions.c **** 
1356:Source\azure_iot_sdk\uamqp\src/amqp_definitions.c ****     if (open == NULL)
1357:Source\azure_iot_sdk\uamqp\src/amqp_definitions.c ****     {
1358:Source\azure_iot_sdk\uamqp\src/amqp_definitions.c ****         result = __FAILURE__;
1359:Source\azure_iot_sdk\uamqp\src/amqp_definitions.c ****     }
1360:Source\azure_iot_sdk\uamqp\src/amqp_definitions.c ****     else
1361:Source\azure_iot_sdk\uamqp\src/amqp_definitions.c ****     {
1362:Source\azure_iot_sdk\uamqp\src/amqp_definitions.c ****         uint32_t item_count;
1363:Source\azure_iot_sdk\uamqp\src/amqp_definitions.c ****         OPEN_INSTANCE* open_instance = (OPEN_INSTANCE*)open;
1364:Source\azure_iot_sdk\uamqp\src/amqp_definitions.c ****         if (amqpvalue_get_composite_item_count(open_instance->composite_value, &item_count) != 0)
1365:Source\azure_iot_sdk\uamqp\src/amqp_definitions.c ****         {
1366:Source\azure_iot_sdk\uamqp\src/amqp_definitions.c ****             result = __FAILURE__;
1367:Source\azure_iot_sdk\uamqp\src/amqp_definitions.c ****         }
1368:Source\azure_iot_sdk\uamqp\src/amqp_definitions.c ****         else
1369:Source\azure_iot_sdk\uamqp\src/amqp_definitions.c ****         {
1370:Source\azure_iot_sdk\uamqp\src/amqp_definitions.c ****             if (item_count <= 3)
1371:Source\azure_iot_sdk\uamqp\src/amqp_definitions.c ****             {
1372:Source\azure_iot_sdk\uamqp\src/amqp_definitions.c ****                 *channel_max_value = 65535;
1373:Source\azure_iot_sdk\uamqp\src/amqp_definitions.c ****                 result = 0;
1374:Source\azure_iot_sdk\uamqp\src/amqp_definitions.c ****             }
1375:Source\azure_iot_sdk\uamqp\src/amqp_definitions.c ****             else
1376:Source\azure_iot_sdk\uamqp\src/amqp_definitions.c ****             {
1377:Source\azure_iot_sdk\uamqp\src/amqp_definitions.c ****                 AMQP_VALUE item_value = amqpvalue_get_composite_item_in_place(open_instance->compos
1378:Source\azure_iot_sdk\uamqp\src/amqp_definitions.c ****                 if ((item_value == NULL) ||
1379:Source\azure_iot_sdk\uamqp\src/amqp_definitions.c ****                     (amqpvalue_get_type(item_value) == AMQP_TYPE_NULL))
1380:Source\azure_iot_sdk\uamqp\src/amqp_definitions.c ****                 {
1381:Source\azure_iot_sdk\uamqp\src/amqp_definitions.c ****                     *channel_max_value = 65535;
1382:Source\azure_iot_sdk\uamqp\src/amqp_definitions.c ****                     result = 0;
1383:Source\azure_iot_sdk\uamqp\src/amqp_definitions.c ****                 }
1384:Source\azure_iot_sdk\uamqp\src/amqp_definitions.c ****                 else
1385:Source\azure_iot_sdk\uamqp\src/amqp_definitions.c ****                 {
1386:Source\azure_iot_sdk\uamqp\src/amqp_definitions.c ****                     int get_single_value_result = amqpvalue_get_ushort(item_value, channel_max_valu
1387:Source\azure_iot_sdk\uamqp\src/amqp_definitions.c ****                     if (get_single_value_result != 0)
1388:Source\azure_iot_sdk\uamqp\src/amqp_definitions.c ****                     {
1389:Source\azure_iot_sdk\uamqp\src/amqp_definitions.c ****                         if (amqpvalue_get_type(item_value) != AMQP_TYPE_NULL)
1390:Source\azure_iot_sdk\uamqp\src/amqp_definitions.c ****                         {
1391:Source\azure_iot_sdk\uamqp\src/amqp_definitions.c ****                             result = __FAILURE__;
1392:Source\azure_iot_sdk\uamqp\src/amqp_definitions.c ****                         }
ARM GAS  C:\Users\Phuong\AppData\Local\Temp\cczJKlkA.s 			page 27


1393:Source\azure_iot_sdk\uamqp\src/amqp_definitions.c ****                         else
1394:Source\azure_iot_sdk\uamqp\src/amqp_definitions.c ****                         {
1395:Source\azure_iot_sdk\uamqp\src/amqp_definitions.c ****                             *channel_max_value = 65535;
1396:Source\azure_iot_sdk\uamqp\src/amqp_definitions.c ****                             result = 0;
1397:Source\azure_iot_sdk\uamqp\src/amqp_definitions.c ****                         }
1398:Source\azure_iot_sdk\uamqp\src/amqp_definitions.c ****                     }
1399:Source\azure_iot_sdk\uamqp\src/amqp_definitions.c ****                     else
1400:Source\azure_iot_sdk\uamqp\src/amqp_definitions.c ****                     {
1401:Source\azure_iot_sdk\uamqp\src/amqp_definitions.c ****                         result = 0;
1402:Source\azure_iot_sdk\uamqp\src/amqp_definitions.c ****                     }
1403:Source\azure_iot_sdk\uamqp\src/amqp_definitions.c ****                 }
1404:Source\azure_iot_sdk\uamqp\src/amqp_definitions.c ****             }
1405:Source\azure_iot_sdk\uamqp\src/amqp_definitions.c ****         }
1406:Source\azure_iot_sdk\uamqp\src/amqp_definitions.c ****     }
1407:Source\azure_iot_sdk\uamqp\src/amqp_definitions.c **** 
1408:Source\azure_iot_sdk\uamqp\src/amqp_definitions.c ****     return result;
1409:Source\azure_iot_sdk\uamqp\src/amqp_definitions.c **** }
1410:Source\azure_iot_sdk\uamqp\src/amqp_definitions.c **** 
1411:Source\azure_iot_sdk\uamqp\src/amqp_definitions.c **** int open_set_channel_max(OPEN_HANDLE open, uint16_t channel_max_value)
1412:Source\azure_iot_sdk\uamqp\src/amqp_definitions.c **** {
1413:Source\azure_iot_sdk\uamqp\src/amqp_definitions.c ****     int result;
1414:Source\azure_iot_sdk\uamqp\src/amqp_definitions.c **** 
1415:Source\azure_iot_sdk\uamqp\src/amqp_definitions.c ****     if (open == NULL)
1416:Source\azure_iot_sdk\uamqp\src/amqp_definitions.c ****     {
1417:Source\azure_iot_sdk\uamqp\src/amqp_definitions.c ****         result = __FAILURE__;
1418:Source\azure_iot_sdk\uamqp\src/amqp_definitions.c ****     }
1419:Source\azure_iot_sdk\uamqp\src/amqp_definitions.c ****     else
1420:Source\azure_iot_sdk\uamqp\src/amqp_definitions.c ****     {
1421:Source\azure_iot_sdk\uamqp\src/amqp_definitions.c ****         OPEN_INSTANCE* open_instance = (OPEN_INSTANCE*)open;
1422:Source\azure_iot_sdk\uamqp\src/amqp_definitions.c ****         AMQP_VALUE channel_max_amqp_value = amqpvalue_create_ushort(channel_max_value);
1423:Source\azure_iot_sdk\uamqp\src/amqp_definitions.c ****         if (channel_max_amqp_value == NULL)
1424:Source\azure_iot_sdk\uamqp\src/amqp_definitions.c ****         {
1425:Source\azure_iot_sdk\uamqp\src/amqp_definitions.c ****             result = __FAILURE__;
1426:Source\azure_iot_sdk\uamqp\src/amqp_definitions.c ****         }
1427:Source\azure_iot_sdk\uamqp\src/amqp_definitions.c ****         else
1428:Source\azure_iot_sdk\uamqp\src/amqp_definitions.c ****         {
1429:Source\azure_iot_sdk\uamqp\src/amqp_definitions.c ****             if (amqpvalue_set_composite_item(open_instance->composite_value, 3, channel_max_amqp_va
1430:Source\azure_iot_sdk\uamqp\src/amqp_definitions.c ****             {
1431:Source\azure_iot_sdk\uamqp\src/amqp_definitions.c ****                 result = __FAILURE__;
1432:Source\azure_iot_sdk\uamqp\src/amqp_definitions.c ****             }
1433:Source\azure_iot_sdk\uamqp\src/amqp_definitions.c ****             else
1434:Source\azure_iot_sdk\uamqp\src/amqp_definitions.c ****             {
1435:Source\azure_iot_sdk\uamqp\src/amqp_definitions.c ****                 result = 0;
1436:Source\azure_iot_sdk\uamqp\src/amqp_definitions.c ****             }
1437:Source\azure_iot_sdk\uamqp\src/amqp_definitions.c **** 
1438:Source\azure_iot_sdk\uamqp\src/amqp_definitions.c ****             amqpvalue_destroy(channel_max_amqp_value);
1439:Source\azure_iot_sdk\uamqp\src/amqp_definitions.c ****         }
1440:Source\azure_iot_sdk\uamqp\src/amqp_definitions.c ****     }
1441:Source\azure_iot_sdk\uamqp\src/amqp_definitions.c **** 
1442:Source\azure_iot_sdk\uamqp\src/amqp_definitions.c ****     return result;
1443:Source\azure_iot_sdk\uamqp\src/amqp_definitions.c **** }
1444:Source\azure_iot_sdk\uamqp\src/amqp_definitions.c **** 
1445:Source\azure_iot_sdk\uamqp\src/amqp_definitions.c **** int open_get_idle_time_out(OPEN_HANDLE open, milliseconds* idle_time_out_value)
1446:Source\azure_iot_sdk\uamqp\src/amqp_definitions.c **** {
1447:Source\azure_iot_sdk\uamqp\src/amqp_definitions.c ****     int result;
1448:Source\azure_iot_sdk\uamqp\src/amqp_definitions.c **** 
1449:Source\azure_iot_sdk\uamqp\src/amqp_definitions.c ****     if (open == NULL)
ARM GAS  C:\Users\Phuong\AppData\Local\Temp\cczJKlkA.s 			page 28


1450:Source\azure_iot_sdk\uamqp\src/amqp_definitions.c ****     {
1451:Source\azure_iot_sdk\uamqp\src/amqp_definitions.c ****         result = __FAILURE__;
1452:Source\azure_iot_sdk\uamqp\src/amqp_definitions.c ****     }
1453:Source\azure_iot_sdk\uamqp\src/amqp_definitions.c ****     else
1454:Source\azure_iot_sdk\uamqp\src/amqp_definitions.c ****     {
1455:Source\azure_iot_sdk\uamqp\src/amqp_definitions.c ****         uint32_t item_count;
1456:Source\azure_iot_sdk\uamqp\src/amqp_definitions.c ****         OPEN_INSTANCE* open_instance = (OPEN_INSTANCE*)open;
1457:Source\azure_iot_sdk\uamqp\src/amqp_definitions.c ****         if (amqpvalue_get_composite_item_count(open_instance->composite_value, &item_count) != 0)
1458:Source\azure_iot_sdk\uamqp\src/amqp_definitions.c ****         {
1459:Source\azure_iot_sdk\uamqp\src/amqp_definitions.c ****             result = __FAILURE__;
1460:Source\azure_iot_sdk\uamqp\src/amqp_definitions.c ****         }
1461:Source\azure_iot_sdk\uamqp\src/amqp_definitions.c ****         else
1462:Source\azure_iot_sdk\uamqp\src/amqp_definitions.c ****         {
1463:Source\azure_iot_sdk\uamqp\src/amqp_definitions.c ****             if (item_count <= 4)
1464:Source\azure_iot_sdk\uamqp\src/amqp_definitions.c ****             {
1465:Source\azure_iot_sdk\uamqp\src/amqp_definitions.c ****                 result = __FAILURE__;
1466:Source\azure_iot_sdk\uamqp\src/amqp_definitions.c ****             }
1467:Source\azure_iot_sdk\uamqp\src/amqp_definitions.c ****             else
1468:Source\azure_iot_sdk\uamqp\src/amqp_definitions.c ****             {
1469:Source\azure_iot_sdk\uamqp\src/amqp_definitions.c ****                 AMQP_VALUE item_value = amqpvalue_get_composite_item_in_place(open_instance->compos
1470:Source\azure_iot_sdk\uamqp\src/amqp_definitions.c ****                 if ((item_value == NULL) ||
1471:Source\azure_iot_sdk\uamqp\src/amqp_definitions.c ****                     (amqpvalue_get_type(item_value) == AMQP_TYPE_NULL))
1472:Source\azure_iot_sdk\uamqp\src/amqp_definitions.c ****                 {
1473:Source\azure_iot_sdk\uamqp\src/amqp_definitions.c ****                     result = __FAILURE__;
1474:Source\azure_iot_sdk\uamqp\src/amqp_definitions.c ****                 }
1475:Source\azure_iot_sdk\uamqp\src/amqp_definitions.c ****                 else
1476:Source\azure_iot_sdk\uamqp\src/amqp_definitions.c ****                 {
1477:Source\azure_iot_sdk\uamqp\src/amqp_definitions.c ****                     int get_single_value_result = amqpvalue_get_milliseconds(item_value, idle_time_
1478:Source\azure_iot_sdk\uamqp\src/amqp_definitions.c ****                     if (get_single_value_result != 0)
1479:Source\azure_iot_sdk\uamqp\src/amqp_definitions.c ****                     {
1480:Source\azure_iot_sdk\uamqp\src/amqp_definitions.c ****                         result = __FAILURE__;
1481:Source\azure_iot_sdk\uamqp\src/amqp_definitions.c ****                     }
1482:Source\azure_iot_sdk\uamqp\src/amqp_definitions.c ****                     else
1483:Source\azure_iot_sdk\uamqp\src/amqp_definitions.c ****                     {
1484:Source\azure_iot_sdk\uamqp\src/amqp_definitions.c ****                         result = 0;
1485:Source\azure_iot_sdk\uamqp\src/amqp_definitions.c ****                     }
1486:Source\azure_iot_sdk\uamqp\src/amqp_definitions.c ****                 }
1487:Source\azure_iot_sdk\uamqp\src/amqp_definitions.c ****             }
1488:Source\azure_iot_sdk\uamqp\src/amqp_definitions.c ****         }
1489:Source\azure_iot_sdk\uamqp\src/amqp_definitions.c ****     }
1490:Source\azure_iot_sdk\uamqp\src/amqp_definitions.c **** 
1491:Source\azure_iot_sdk\uamqp\src/amqp_definitions.c ****     return result;
1492:Source\azure_iot_sdk\uamqp\src/amqp_definitions.c **** }
1493:Source\azure_iot_sdk\uamqp\src/amqp_definitions.c **** 
1494:Source\azure_iot_sdk\uamqp\src/amqp_definitions.c **** int open_set_idle_time_out(OPEN_HANDLE open, milliseconds idle_time_out_value)
1495:Source\azure_iot_sdk\uamqp\src/amqp_definitions.c **** {
1496:Source\azure_iot_sdk\uamqp\src/amqp_definitions.c ****     int result;
1497:Source\azure_iot_sdk\uamqp\src/amqp_definitions.c **** 
1498:Source\azure_iot_sdk\uamqp\src/amqp_definitions.c ****     if (open == NULL)
1499:Source\azure_iot_sdk\uamqp\src/amqp_definitions.c ****     {
1500:Source\azure_iot_sdk\uamqp\src/amqp_definitions.c ****         result = __FAILURE__;
1501:Source\azure_iot_sdk\uamqp\src/amqp_definitions.c ****     }
1502:Source\azure_iot_sdk\uamqp\src/amqp_definitions.c ****     else
1503:Source\azure_iot_sdk\uamqp\src/amqp_definitions.c ****     {
1504:Source\azure_iot_sdk\uamqp\src/amqp_definitions.c ****         OPEN_INSTANCE* open_instance = (OPEN_INSTANCE*)open;
1505:Source\azure_iot_sdk\uamqp\src/amqp_definitions.c ****         AMQP_VALUE idle_time_out_amqp_value = amqpvalue_create_milliseconds(idle_time_out_value);
1506:Source\azure_iot_sdk\uamqp\src/amqp_definitions.c ****         if (idle_time_out_amqp_value == NULL)
ARM GAS  C:\Users\Phuong\AppData\Local\Temp\cczJKlkA.s 			page 29


1507:Source\azure_iot_sdk\uamqp\src/amqp_definitions.c ****         {
1508:Source\azure_iot_sdk\uamqp\src/amqp_definitions.c ****             result = __FAILURE__;
1509:Source\azure_iot_sdk\uamqp\src/amqp_definitions.c ****         }
1510:Source\azure_iot_sdk\uamqp\src/amqp_definitions.c ****         else
1511:Source\azure_iot_sdk\uamqp\src/amqp_definitions.c ****         {
1512:Source\azure_iot_sdk\uamqp\src/amqp_definitions.c ****             if (amqpvalue_set_composite_item(open_instance->composite_value, 4, idle_time_out_amqp_
1513:Source\azure_iot_sdk\uamqp\src/amqp_definitions.c ****             {
1514:Source\azure_iot_sdk\uamqp\src/amqp_definitions.c ****                 result = __FAILURE__;
1515:Source\azure_iot_sdk\uamqp\src/amqp_definitions.c ****             }
1516:Source\azure_iot_sdk\uamqp\src/amqp_definitions.c ****             else
1517:Source\azure_iot_sdk\uamqp\src/amqp_definitions.c ****             {
1518:Source\azure_iot_sdk\uamqp\src/amqp_definitions.c ****                 result = 0;
1519:Source\azure_iot_sdk\uamqp\src/amqp_definitions.c ****             }
1520:Source\azure_iot_sdk\uamqp\src/amqp_definitions.c **** 
1521:Source\azure_iot_sdk\uamqp\src/amqp_definitions.c ****             amqpvalue_destroy(idle_time_out_amqp_value);
1522:Source\azure_iot_sdk\uamqp\src/amqp_definitions.c ****         }
1523:Source\azure_iot_sdk\uamqp\src/amqp_definitions.c ****     }
1524:Source\azure_iot_sdk\uamqp\src/amqp_definitions.c **** 
1525:Source\azure_iot_sdk\uamqp\src/amqp_definitions.c ****     return result;
1526:Source\azure_iot_sdk\uamqp\src/amqp_definitions.c **** }
1527:Source\azure_iot_sdk\uamqp\src/amqp_definitions.c **** 
1528:Source\azure_iot_sdk\uamqp\src/amqp_definitions.c **** int open_get_outgoing_locales(OPEN_HANDLE open, AMQP_VALUE* outgoing_locales_value)
1529:Source\azure_iot_sdk\uamqp\src/amqp_definitions.c **** {
1530:Source\azure_iot_sdk\uamqp\src/amqp_definitions.c ****     int result;
1531:Source\azure_iot_sdk\uamqp\src/amqp_definitions.c **** 
1532:Source\azure_iot_sdk\uamqp\src/amqp_definitions.c ****     if (open == NULL)
1533:Source\azure_iot_sdk\uamqp\src/amqp_definitions.c ****     {
1534:Source\azure_iot_sdk\uamqp\src/amqp_definitions.c ****         result = __FAILURE__;
1535:Source\azure_iot_sdk\uamqp\src/amqp_definitions.c ****     }
1536:Source\azure_iot_sdk\uamqp\src/amqp_definitions.c ****     else
1537:Source\azure_iot_sdk\uamqp\src/amqp_definitions.c ****     {
1538:Source\azure_iot_sdk\uamqp\src/amqp_definitions.c ****         uint32_t item_count;
1539:Source\azure_iot_sdk\uamqp\src/amqp_definitions.c ****         OPEN_INSTANCE* open_instance = (OPEN_INSTANCE*)open;
1540:Source\azure_iot_sdk\uamqp\src/amqp_definitions.c ****         if (amqpvalue_get_composite_item_count(open_instance->composite_value, &item_count) != 0)
1541:Source\azure_iot_sdk\uamqp\src/amqp_definitions.c ****         {
1542:Source\azure_iot_sdk\uamqp\src/amqp_definitions.c ****             result = __FAILURE__;
1543:Source\azure_iot_sdk\uamqp\src/amqp_definitions.c ****         }
1544:Source\azure_iot_sdk\uamqp\src/amqp_definitions.c ****         else
1545:Source\azure_iot_sdk\uamqp\src/amqp_definitions.c ****         {
1546:Source\azure_iot_sdk\uamqp\src/amqp_definitions.c ****             if (item_count <= 5)
1547:Source\azure_iot_sdk\uamqp\src/amqp_definitions.c ****             {
1548:Source\azure_iot_sdk\uamqp\src/amqp_definitions.c ****                 result = __FAILURE__;
1549:Source\azure_iot_sdk\uamqp\src/amqp_definitions.c ****             }
1550:Source\azure_iot_sdk\uamqp\src/amqp_definitions.c ****             else
1551:Source\azure_iot_sdk\uamqp\src/amqp_definitions.c ****             {
1552:Source\azure_iot_sdk\uamqp\src/amqp_definitions.c ****                 AMQP_VALUE item_value = amqpvalue_get_composite_item_in_place(open_instance->compos
1553:Source\azure_iot_sdk\uamqp\src/amqp_definitions.c ****                 if ((item_value == NULL) ||
1554:Source\azure_iot_sdk\uamqp\src/amqp_definitions.c ****                     (amqpvalue_get_type(item_value) == AMQP_TYPE_NULL))
1555:Source\azure_iot_sdk\uamqp\src/amqp_definitions.c ****                 {
1556:Source\azure_iot_sdk\uamqp\src/amqp_definitions.c ****                     result = __FAILURE__;
1557:Source\azure_iot_sdk\uamqp\src/amqp_definitions.c ****                 }
1558:Source\azure_iot_sdk\uamqp\src/amqp_definitions.c ****                 else
1559:Source\azure_iot_sdk\uamqp\src/amqp_definitions.c ****                 {
1560:Source\azure_iot_sdk\uamqp\src/amqp_definitions.c ****                     ietf_language_tag outgoing_locales_single_value;
1561:Source\azure_iot_sdk\uamqp\src/amqp_definitions.c ****                     int get_single_value_result;
1562:Source\azure_iot_sdk\uamqp\src/amqp_definitions.c ****                     if (amqpvalue_get_type(item_value) != AMQP_TYPE_ARRAY)
1563:Source\azure_iot_sdk\uamqp\src/amqp_definitions.c ****                     {
ARM GAS  C:\Users\Phuong\AppData\Local\Temp\cczJKlkA.s 			page 30


1564:Source\azure_iot_sdk\uamqp\src/amqp_definitions.c ****                         get_single_value_result = amqpvalue_get_ietf_language_tag(item_value, &outg
1565:Source\azure_iot_sdk\uamqp\src/amqp_definitions.c ****                     }
1566:Source\azure_iot_sdk\uamqp\src/amqp_definitions.c ****                     else
1567:Source\azure_iot_sdk\uamqp\src/amqp_definitions.c ****                     {
1568:Source\azure_iot_sdk\uamqp\src/amqp_definitions.c ****                         (void)memset((void*)&outgoing_locales_single_value, 0, sizeof(outgoing_loca
1569:Source\azure_iot_sdk\uamqp\src/amqp_definitions.c ****                         get_single_value_result = 1;
1570:Source\azure_iot_sdk\uamqp\src/amqp_definitions.c ****                     }
1571:Source\azure_iot_sdk\uamqp\src/amqp_definitions.c **** 
1572:Source\azure_iot_sdk\uamqp\src/amqp_definitions.c ****                     if (((amqpvalue_get_type(item_value) != AMQP_TYPE_ARRAY) || (amqpvalue_get_arra
1573:Source\azure_iot_sdk\uamqp\src/amqp_definitions.c ****                         (get_single_value_result != 0))
1574:Source\azure_iot_sdk\uamqp\src/amqp_definitions.c ****                     {
1575:Source\azure_iot_sdk\uamqp\src/amqp_definitions.c ****                         result = __FAILURE__;
1576:Source\azure_iot_sdk\uamqp\src/amqp_definitions.c ****                     }
1577:Source\azure_iot_sdk\uamqp\src/amqp_definitions.c ****                     else
1578:Source\azure_iot_sdk\uamqp\src/amqp_definitions.c ****                     {
1579:Source\azure_iot_sdk\uamqp\src/amqp_definitions.c ****                         if (amqpvalue_get_type(item_value) != AMQP_TYPE_ARRAY)
1580:Source\azure_iot_sdk\uamqp\src/amqp_definitions.c ****                         {
1581:Source\azure_iot_sdk\uamqp\src/amqp_definitions.c ****                             *outgoing_locales_value = amqpvalue_create_array();
1582:Source\azure_iot_sdk\uamqp\src/amqp_definitions.c ****                             if (*outgoing_locales_value == NULL)
1583:Source\azure_iot_sdk\uamqp\src/amqp_definitions.c ****                             {
1584:Source\azure_iot_sdk\uamqp\src/amqp_definitions.c ****                                 result = __FAILURE__;
1585:Source\azure_iot_sdk\uamqp\src/amqp_definitions.c ****                             }
1586:Source\azure_iot_sdk\uamqp\src/amqp_definitions.c ****                             else
1587:Source\azure_iot_sdk\uamqp\src/amqp_definitions.c ****                             {
1588:Source\azure_iot_sdk\uamqp\src/amqp_definitions.c ****                                 AMQP_VALUE single_amqp_value = amqpvalue_create_ietf_language_tag(o
1589:Source\azure_iot_sdk\uamqp\src/amqp_definitions.c ****                                 if (single_amqp_value == NULL)
1590:Source\azure_iot_sdk\uamqp\src/amqp_definitions.c ****                                 {
1591:Source\azure_iot_sdk\uamqp\src/amqp_definitions.c ****                                     amqpvalue_destroy(*outgoing_locales_value);
1592:Source\azure_iot_sdk\uamqp\src/amqp_definitions.c ****                                     result = __FAILURE__;
1593:Source\azure_iot_sdk\uamqp\src/amqp_definitions.c ****                                 }
1594:Source\azure_iot_sdk\uamqp\src/amqp_definitions.c ****                                 else
1595:Source\azure_iot_sdk\uamqp\src/amqp_definitions.c ****                                 {
1596:Source\azure_iot_sdk\uamqp\src/amqp_definitions.c ****                                     if (amqpvalue_add_array_item(*outgoing_locales_value, single_am
1597:Source\azure_iot_sdk\uamqp\src/amqp_definitions.c ****                                     {
1598:Source\azure_iot_sdk\uamqp\src/amqp_definitions.c ****                                         amqpvalue_destroy(*outgoing_locales_value);
1599:Source\azure_iot_sdk\uamqp\src/amqp_definitions.c ****                                         amqpvalue_destroy(single_amqp_value);
1600:Source\azure_iot_sdk\uamqp\src/amqp_definitions.c ****                                         result = __FAILURE__;
1601:Source\azure_iot_sdk\uamqp\src/amqp_definitions.c ****                                     }
1602:Source\azure_iot_sdk\uamqp\src/amqp_definitions.c ****                                     else
1603:Source\azure_iot_sdk\uamqp\src/amqp_definitions.c ****                                     {
1604:Source\azure_iot_sdk\uamqp\src/amqp_definitions.c ****                                         if (amqpvalue_set_composite_item(open_instance->composite_v
1605:Source\azure_iot_sdk\uamqp\src/amqp_definitions.c ****                                         {
1606:Source\azure_iot_sdk\uamqp\src/amqp_definitions.c ****                                             amqpvalue_destroy(*outgoing_locales_value);
1607:Source\azure_iot_sdk\uamqp\src/amqp_definitions.c ****                                             result = __FAILURE__;
1608:Source\azure_iot_sdk\uamqp\src/amqp_definitions.c ****                                         }
1609:Source\azure_iot_sdk\uamqp\src/amqp_definitions.c ****                                         else
1610:Source\azure_iot_sdk\uamqp\src/amqp_definitions.c ****                                         {
1611:Source\azure_iot_sdk\uamqp\src/amqp_definitions.c ****                                             result = 0;
1612:Source\azure_iot_sdk\uamqp\src/amqp_definitions.c ****                                         }
1613:Source\azure_iot_sdk\uamqp\src/amqp_definitions.c ****                                     }
1614:Source\azure_iot_sdk\uamqp\src/amqp_definitions.c **** 
1615:Source\azure_iot_sdk\uamqp\src/amqp_definitions.c ****                                     amqpvalue_destroy(single_amqp_value);
1616:Source\azure_iot_sdk\uamqp\src/amqp_definitions.c ****                                 }
1617:Source\azure_iot_sdk\uamqp\src/amqp_definitions.c ****                                 amqpvalue_destroy(*outgoing_locales_value);
1618:Source\azure_iot_sdk\uamqp\src/amqp_definitions.c ****                             }
1619:Source\azure_iot_sdk\uamqp\src/amqp_definitions.c ****                         }
1620:Source\azure_iot_sdk\uamqp\src/amqp_definitions.c ****                         else
ARM GAS  C:\Users\Phuong\AppData\Local\Temp\cczJKlkA.s 			page 31


1621:Source\azure_iot_sdk\uamqp\src/amqp_definitions.c ****                         {
1622:Source\azure_iot_sdk\uamqp\src/amqp_definitions.c ****                             result = 0;
1623:Source\azure_iot_sdk\uamqp\src/amqp_definitions.c ****                         }
1624:Source\azure_iot_sdk\uamqp\src/amqp_definitions.c ****                     }
1625:Source\azure_iot_sdk\uamqp\src/amqp_definitions.c ****                 }
1626:Source\azure_iot_sdk\uamqp\src/amqp_definitions.c ****             }
1627:Source\azure_iot_sdk\uamqp\src/amqp_definitions.c ****         }
1628:Source\azure_iot_sdk\uamqp\src/amqp_definitions.c ****     }
1629:Source\azure_iot_sdk\uamqp\src/amqp_definitions.c **** 
1630:Source\azure_iot_sdk\uamqp\src/amqp_definitions.c ****     return result;
1631:Source\azure_iot_sdk\uamqp\src/amqp_definitions.c **** }
1632:Source\azure_iot_sdk\uamqp\src/amqp_definitions.c **** 
1633:Source\azure_iot_sdk\uamqp\src/amqp_definitions.c **** int open_set_outgoing_locales(OPEN_HANDLE open, AMQP_VALUE outgoing_locales_value)
1634:Source\azure_iot_sdk\uamqp\src/amqp_definitions.c **** {
1635:Source\azure_iot_sdk\uamqp\src/amqp_definitions.c ****     int result;
1636:Source\azure_iot_sdk\uamqp\src/amqp_definitions.c **** 
1637:Source\azure_iot_sdk\uamqp\src/amqp_definitions.c ****     if (open == NULL)
1638:Source\azure_iot_sdk\uamqp\src/amqp_definitions.c ****     {
1639:Source\azure_iot_sdk\uamqp\src/amqp_definitions.c ****         result = __FAILURE__;
1640:Source\azure_iot_sdk\uamqp\src/amqp_definitions.c ****     }
1641:Source\azure_iot_sdk\uamqp\src/amqp_definitions.c ****     else
1642:Source\azure_iot_sdk\uamqp\src/amqp_definitions.c ****     {
1643:Source\azure_iot_sdk\uamqp\src/amqp_definitions.c ****         OPEN_INSTANCE* open_instance = (OPEN_INSTANCE*)open;
1644:Source\azure_iot_sdk\uamqp\src/amqp_definitions.c ****         AMQP_VALUE outgoing_locales_amqp_value;
1645:Source\azure_iot_sdk\uamqp\src/amqp_definitions.c ****         if (outgoing_locales_value == NULL)
1646:Source\azure_iot_sdk\uamqp\src/amqp_definitions.c ****         {
1647:Source\azure_iot_sdk\uamqp\src/amqp_definitions.c ****             outgoing_locales_amqp_value = NULL;
1648:Source\azure_iot_sdk\uamqp\src/amqp_definitions.c ****         }
1649:Source\azure_iot_sdk\uamqp\src/amqp_definitions.c ****         else
1650:Source\azure_iot_sdk\uamqp\src/amqp_definitions.c ****         {
1651:Source\azure_iot_sdk\uamqp\src/amqp_definitions.c ****             outgoing_locales_amqp_value = amqpvalue_clone(outgoing_locales_value);
1652:Source\azure_iot_sdk\uamqp\src/amqp_definitions.c ****         }
1653:Source\azure_iot_sdk\uamqp\src/amqp_definitions.c ****         if (outgoing_locales_amqp_value == NULL)
1654:Source\azure_iot_sdk\uamqp\src/amqp_definitions.c ****         {
1655:Source\azure_iot_sdk\uamqp\src/amqp_definitions.c ****             result = __FAILURE__;
1656:Source\azure_iot_sdk\uamqp\src/amqp_definitions.c ****         }
1657:Source\azure_iot_sdk\uamqp\src/amqp_definitions.c ****         else
1658:Source\azure_iot_sdk\uamqp\src/amqp_definitions.c ****         {
1659:Source\azure_iot_sdk\uamqp\src/amqp_definitions.c ****             if (amqpvalue_set_composite_item(open_instance->composite_value, 5, outgoing_locales_am
1660:Source\azure_iot_sdk\uamqp\src/amqp_definitions.c ****             {
1661:Source\azure_iot_sdk\uamqp\src/amqp_definitions.c ****                 result = __FAILURE__;
1662:Source\azure_iot_sdk\uamqp\src/amqp_definitions.c ****             }
1663:Source\azure_iot_sdk\uamqp\src/amqp_definitions.c ****             else
1664:Source\azure_iot_sdk\uamqp\src/amqp_definitions.c ****             {
1665:Source\azure_iot_sdk\uamqp\src/amqp_definitions.c ****                 result = 0;
1666:Source\azure_iot_sdk\uamqp\src/amqp_definitions.c ****             }
1667:Source\azure_iot_sdk\uamqp\src/amqp_definitions.c **** 
1668:Source\azure_iot_sdk\uamqp\src/amqp_definitions.c ****             amqpvalue_destroy(outgoing_locales_amqp_value);
1669:Source\azure_iot_sdk\uamqp\src/amqp_definitions.c ****         }
1670:Source\azure_iot_sdk\uamqp\src/amqp_definitions.c ****     }
1671:Source\azure_iot_sdk\uamqp\src/amqp_definitions.c **** 
1672:Source\azure_iot_sdk\uamqp\src/amqp_definitions.c ****     return result;
1673:Source\azure_iot_sdk\uamqp\src/amqp_definitions.c **** }
1674:Source\azure_iot_sdk\uamqp\src/amqp_definitions.c **** 
1675:Source\azure_iot_sdk\uamqp\src/amqp_definitions.c **** int open_get_incoming_locales(OPEN_HANDLE open, AMQP_VALUE* incoming_locales_value)
1676:Source\azure_iot_sdk\uamqp\src/amqp_definitions.c **** {
1677:Source\azure_iot_sdk\uamqp\src/amqp_definitions.c ****     int result;
ARM GAS  C:\Users\Phuong\AppData\Local\Temp\cczJKlkA.s 			page 32


1678:Source\azure_iot_sdk\uamqp\src/amqp_definitions.c **** 
1679:Source\azure_iot_sdk\uamqp\src/amqp_definitions.c ****     if (open == NULL)
1680:Source\azure_iot_sdk\uamqp\src/amqp_definitions.c ****     {
1681:Source\azure_iot_sdk\uamqp\src/amqp_definitions.c ****         result = __FAILURE__;
1682:Source\azure_iot_sdk\uamqp\src/amqp_definitions.c ****     }
1683:Source\azure_iot_sdk\uamqp\src/amqp_definitions.c ****     else
1684:Source\azure_iot_sdk\uamqp\src/amqp_definitions.c ****     {
1685:Source\azure_iot_sdk\uamqp\src/amqp_definitions.c ****         uint32_t item_count;
1686:Source\azure_iot_sdk\uamqp\src/amqp_definitions.c ****         OPEN_INSTANCE* open_instance = (OPEN_INSTANCE*)open;
1687:Source\azure_iot_sdk\uamqp\src/amqp_definitions.c ****         if (amqpvalue_get_composite_item_count(open_instance->composite_value, &item_count) != 0)
1688:Source\azure_iot_sdk\uamqp\src/amqp_definitions.c ****         {
1689:Source\azure_iot_sdk\uamqp\src/amqp_definitions.c ****             result = __FAILURE__;
1690:Source\azure_iot_sdk\uamqp\src/amqp_definitions.c ****         }
1691:Source\azure_iot_sdk\uamqp\src/amqp_definitions.c ****         else
1692:Source\azure_iot_sdk\uamqp\src/amqp_definitions.c ****         {
1693:Source\azure_iot_sdk\uamqp\src/amqp_definitions.c ****             if (item_count <= 6)
1694:Source\azure_iot_sdk\uamqp\src/amqp_definitions.c ****             {
1695:Source\azure_iot_sdk\uamqp\src/amqp_definitions.c ****                 result = __FAILURE__;
1696:Source\azure_iot_sdk\uamqp\src/amqp_definitions.c ****             }
1697:Source\azure_iot_sdk\uamqp\src/amqp_definitions.c ****             else
1698:Source\azure_iot_sdk\uamqp\src/amqp_definitions.c ****             {
1699:Source\azure_iot_sdk\uamqp\src/amqp_definitions.c ****                 AMQP_VALUE item_value = amqpvalue_get_composite_item_in_place(open_instance->compos
1700:Source\azure_iot_sdk\uamqp\src/amqp_definitions.c ****                 if ((item_value == NULL) ||
1701:Source\azure_iot_sdk\uamqp\src/amqp_definitions.c ****                     (amqpvalue_get_type(item_value) == AMQP_TYPE_NULL))
1702:Source\azure_iot_sdk\uamqp\src/amqp_definitions.c ****                 {
1703:Source\azure_iot_sdk\uamqp\src/amqp_definitions.c ****                     result = __FAILURE__;
1704:Source\azure_iot_sdk\uamqp\src/amqp_definitions.c ****                 }
1705:Source\azure_iot_sdk\uamqp\src/amqp_definitions.c ****                 else
1706:Source\azure_iot_sdk\uamqp\src/amqp_definitions.c ****                 {
1707:Source\azure_iot_sdk\uamqp\src/amqp_definitions.c ****                     ietf_language_tag incoming_locales_single_value;
1708:Source\azure_iot_sdk\uamqp\src/amqp_definitions.c ****                     int get_single_value_result;
1709:Source\azure_iot_sdk\uamqp\src/amqp_definitions.c ****                     if (amqpvalue_get_type(item_value) != AMQP_TYPE_ARRAY)
1710:Source\azure_iot_sdk\uamqp\src/amqp_definitions.c ****                     {
1711:Source\azure_iot_sdk\uamqp\src/amqp_definitions.c ****                         get_single_value_result = amqpvalue_get_ietf_language_tag(item_value, &inco
1712:Source\azure_iot_sdk\uamqp\src/amqp_definitions.c ****                     }
1713:Source\azure_iot_sdk\uamqp\src/amqp_definitions.c ****                     else
1714:Source\azure_iot_sdk\uamqp\src/amqp_definitions.c ****                     {
1715:Source\azure_iot_sdk\uamqp\src/amqp_definitions.c ****                         (void)memset((void*)&incoming_locales_single_value, 0, sizeof(incoming_loca
1716:Source\azure_iot_sdk\uamqp\src/amqp_definitions.c ****                         get_single_value_result = 1;
1717:Source\azure_iot_sdk\uamqp\src/amqp_definitions.c ****                     }
1718:Source\azure_iot_sdk\uamqp\src/amqp_definitions.c **** 
1719:Source\azure_iot_sdk\uamqp\src/amqp_definitions.c ****                     if (((amqpvalue_get_type(item_value) != AMQP_TYPE_ARRAY) || (amqpvalue_get_arra
1720:Source\azure_iot_sdk\uamqp\src/amqp_definitions.c ****                         (get_single_value_result != 0))
1721:Source\azure_iot_sdk\uamqp\src/amqp_definitions.c ****                     {
1722:Source\azure_iot_sdk\uamqp\src/amqp_definitions.c ****                         result = __FAILURE__;
1723:Source\azure_iot_sdk\uamqp\src/amqp_definitions.c ****                     }
1724:Source\azure_iot_sdk\uamqp\src/amqp_definitions.c ****                     else
1725:Source\azure_iot_sdk\uamqp\src/amqp_definitions.c ****                     {
1726:Source\azure_iot_sdk\uamqp\src/amqp_definitions.c ****                         if (amqpvalue_get_type(item_value) != AMQP_TYPE_ARRAY)
1727:Source\azure_iot_sdk\uamqp\src/amqp_definitions.c ****                         {
1728:Source\azure_iot_sdk\uamqp\src/amqp_definitions.c ****                             *incoming_locales_value = amqpvalue_create_array();
1729:Source\azure_iot_sdk\uamqp\src/amqp_definitions.c ****                             if (*incoming_locales_value == NULL)
1730:Source\azure_iot_sdk\uamqp\src/amqp_definitions.c ****                             {
1731:Source\azure_iot_sdk\uamqp\src/amqp_definitions.c ****                                 result = __FAILURE__;
1732:Source\azure_iot_sdk\uamqp\src/amqp_definitions.c ****                             }
1733:Source\azure_iot_sdk\uamqp\src/amqp_definitions.c ****                             else
1734:Source\azure_iot_sdk\uamqp\src/amqp_definitions.c ****                             {
ARM GAS  C:\Users\Phuong\AppData\Local\Temp\cczJKlkA.s 			page 33


1735:Source\azure_iot_sdk\uamqp\src/amqp_definitions.c ****                                 AMQP_VALUE single_amqp_value = amqpvalue_create_ietf_language_tag(i
1736:Source\azure_iot_sdk\uamqp\src/amqp_definitions.c ****                                 if (single_amqp_value == NULL)
1737:Source\azure_iot_sdk\uamqp\src/amqp_definitions.c ****                                 {
1738:Source\azure_iot_sdk\uamqp\src/amqp_definitions.c ****                                     amqpvalue_destroy(*incoming_locales_value);
1739:Source\azure_iot_sdk\uamqp\src/amqp_definitions.c ****                                     result = __FAILURE__;
1740:Source\azure_iot_sdk\uamqp\src/amqp_definitions.c ****                                 }
1741:Source\azure_iot_sdk\uamqp\src/amqp_definitions.c ****                                 else
1742:Source\azure_iot_sdk\uamqp\src/amqp_definitions.c ****                                 {
1743:Source\azure_iot_sdk\uamqp\src/amqp_definitions.c ****                                     if (amqpvalue_add_array_item(*incoming_locales_value, single_am
1744:Source\azure_iot_sdk\uamqp\src/amqp_definitions.c ****                                     {
1745:Source\azure_iot_sdk\uamqp\src/amqp_definitions.c ****                                         amqpvalue_destroy(*incoming_locales_value);
1746:Source\azure_iot_sdk\uamqp\src/amqp_definitions.c ****                                         amqpvalue_destroy(single_amqp_value);
1747:Source\azure_iot_sdk\uamqp\src/amqp_definitions.c ****                                         result = __FAILURE__;
1748:Source\azure_iot_sdk\uamqp\src/amqp_definitions.c ****                                     }
1749:Source\azure_iot_sdk\uamqp\src/amqp_definitions.c ****                                     else
1750:Source\azure_iot_sdk\uamqp\src/amqp_definitions.c ****                                     {
1751:Source\azure_iot_sdk\uamqp\src/amqp_definitions.c ****                                         if (amqpvalue_set_composite_item(open_instance->composite_v
1752:Source\azure_iot_sdk\uamqp\src/amqp_definitions.c ****                                         {
1753:Source\azure_iot_sdk\uamqp\src/amqp_definitions.c ****                                             amqpvalue_destroy(*incoming_locales_value);
1754:Source\azure_iot_sdk\uamqp\src/amqp_definitions.c ****                                             result = __FAILURE__;
1755:Source\azure_iot_sdk\uamqp\src/amqp_definitions.c ****                                         }
1756:Source\azure_iot_sdk\uamqp\src/amqp_definitions.c ****                                         else
1757:Source\azure_iot_sdk\uamqp\src/amqp_definitions.c ****                                         {
1758:Source\azure_iot_sdk\uamqp\src/amqp_definitions.c ****                                             result = 0;
1759:Source\azure_iot_sdk\uamqp\src/amqp_definitions.c ****                                         }
1760:Source\azure_iot_sdk\uamqp\src/amqp_definitions.c ****                                     }
1761:Source\azure_iot_sdk\uamqp\src/amqp_definitions.c **** 
1762:Source\azure_iot_sdk\uamqp\src/amqp_definitions.c ****                                     amqpvalue_destroy(single_amqp_value);
1763:Source\azure_iot_sdk\uamqp\src/amqp_definitions.c ****                                 }
1764:Source\azure_iot_sdk\uamqp\src/amqp_definitions.c ****                                 amqpvalue_destroy(*incoming_locales_value);
1765:Source\azure_iot_sdk\uamqp\src/amqp_definitions.c ****                             }
1766:Source\azure_iot_sdk\uamqp\src/amqp_definitions.c ****                         }
1767:Source\azure_iot_sdk\uamqp\src/amqp_definitions.c ****                         else
1768:Source\azure_iot_sdk\uamqp\src/amqp_definitions.c ****                         {
1769:Source\azure_iot_sdk\uamqp\src/amqp_definitions.c ****                             result = 0;
1770:Source\azure_iot_sdk\uamqp\src/amqp_definitions.c ****                         }
1771:Source\azure_iot_sdk\uamqp\src/amqp_definitions.c ****                     }
1772:Source\azure_iot_sdk\uamqp\src/amqp_definitions.c ****                 }
1773:Source\azure_iot_sdk\uamqp\src/amqp_definitions.c ****             }
1774:Source\azure_iot_sdk\uamqp\src/amqp_definitions.c ****         }
1775:Source\azure_iot_sdk\uamqp\src/amqp_definitions.c ****     }
1776:Source\azure_iot_sdk\uamqp\src/amqp_definitions.c **** 
1777:Source\azure_iot_sdk\uamqp\src/amqp_definitions.c ****     return result;
1778:Source\azure_iot_sdk\uamqp\src/amqp_definitions.c **** }
1779:Source\azure_iot_sdk\uamqp\src/amqp_definitions.c **** 
1780:Source\azure_iot_sdk\uamqp\src/amqp_definitions.c **** int open_set_incoming_locales(OPEN_HANDLE open, AMQP_VALUE incoming_locales_value)
1781:Source\azure_iot_sdk\uamqp\src/amqp_definitions.c **** {
1782:Source\azure_iot_sdk\uamqp\src/amqp_definitions.c ****     int result;
1783:Source\azure_iot_sdk\uamqp\src/amqp_definitions.c **** 
1784:Source\azure_iot_sdk\uamqp\src/amqp_definitions.c ****     if (open == NULL)
1785:Source\azure_iot_sdk\uamqp\src/amqp_definitions.c ****     {
1786:Source\azure_iot_sdk\uamqp\src/amqp_definitions.c ****         result = __FAILURE__;
1787:Source\azure_iot_sdk\uamqp\src/amqp_definitions.c ****     }
1788:Source\azure_iot_sdk\uamqp\src/amqp_definitions.c ****     else
1789:Source\azure_iot_sdk\uamqp\src/amqp_definitions.c ****     {
1790:Source\azure_iot_sdk\uamqp\src/amqp_definitions.c ****         OPEN_INSTANCE* open_instance = (OPEN_INSTANCE*)open;
1791:Source\azure_iot_sdk\uamqp\src/amqp_definitions.c ****         AMQP_VALUE incoming_locales_amqp_value;
ARM GAS  C:\Users\Phuong\AppData\Local\Temp\cczJKlkA.s 			page 34


1792:Source\azure_iot_sdk\uamqp\src/amqp_definitions.c ****         if (incoming_locales_value == NULL)
1793:Source\azure_iot_sdk\uamqp\src/amqp_definitions.c ****         {
1794:Source\azure_iot_sdk\uamqp\src/amqp_definitions.c ****             incoming_locales_amqp_value = NULL;
1795:Source\azure_iot_sdk\uamqp\src/amqp_definitions.c ****         }
1796:Source\azure_iot_sdk\uamqp\src/amqp_definitions.c ****         else
1797:Source\azure_iot_sdk\uamqp\src/amqp_definitions.c ****         {
1798:Source\azure_iot_sdk\uamqp\src/amqp_definitions.c ****             incoming_locales_amqp_value = amqpvalue_clone(incoming_locales_value);
1799:Source\azure_iot_sdk\uamqp\src/amqp_definitions.c ****         }
1800:Source\azure_iot_sdk\uamqp\src/amqp_definitions.c ****         if (incoming_locales_amqp_value == NULL)
1801:Source\azure_iot_sdk\uamqp\src/amqp_definitions.c ****         {
1802:Source\azure_iot_sdk\uamqp\src/amqp_definitions.c ****             result = __FAILURE__;
1803:Source\azure_iot_sdk\uamqp\src/amqp_definitions.c ****         }
1804:Source\azure_iot_sdk\uamqp\src/amqp_definitions.c ****         else
1805:Source\azure_iot_sdk\uamqp\src/amqp_definitions.c ****         {
1806:Source\azure_iot_sdk\uamqp\src/amqp_definitions.c ****             if (amqpvalue_set_composite_item(open_instance->composite_value, 6, incoming_locales_am
1807:Source\azure_iot_sdk\uamqp\src/amqp_definitions.c ****             {
1808:Source\azure_iot_sdk\uamqp\src/amqp_definitions.c ****                 result = __FAILURE__;
1809:Source\azure_iot_sdk\uamqp\src/amqp_definitions.c ****             }
1810:Source\azure_iot_sdk\uamqp\src/amqp_definitions.c ****             else
1811:Source\azure_iot_sdk\uamqp\src/amqp_definitions.c ****             {
1812:Source\azure_iot_sdk\uamqp\src/amqp_definitions.c ****                 result = 0;
1813:Source\azure_iot_sdk\uamqp\src/amqp_definitions.c ****             }
1814:Source\azure_iot_sdk\uamqp\src/amqp_definitions.c **** 
1815:Source\azure_iot_sdk\uamqp\src/amqp_definitions.c ****             amqpvalue_destroy(incoming_locales_amqp_value);
1816:Source\azure_iot_sdk\uamqp\src/amqp_definitions.c ****         }
1817:Source\azure_iot_sdk\uamqp\src/amqp_definitions.c ****     }
1818:Source\azure_iot_sdk\uamqp\src/amqp_definitions.c **** 
1819:Source\azure_iot_sdk\uamqp\src/amqp_definitions.c ****     return result;
1820:Source\azure_iot_sdk\uamqp\src/amqp_definitions.c **** }
1821:Source\azure_iot_sdk\uamqp\src/amqp_definitions.c **** 
1822:Source\azure_iot_sdk\uamqp\src/amqp_definitions.c **** int open_get_offered_capabilities(OPEN_HANDLE open, AMQP_VALUE* offered_capabilities_value)
1823:Source\azure_iot_sdk\uamqp\src/amqp_definitions.c **** {
1824:Source\azure_iot_sdk\uamqp\src/amqp_definitions.c ****     int result;
1825:Source\azure_iot_sdk\uamqp\src/amqp_definitions.c **** 
1826:Source\azure_iot_sdk\uamqp\src/amqp_definitions.c ****     if (open == NULL)
1827:Source\azure_iot_sdk\uamqp\src/amqp_definitions.c ****     {
1828:Source\azure_iot_sdk\uamqp\src/amqp_definitions.c ****         result = __FAILURE__;
1829:Source\azure_iot_sdk\uamqp\src/amqp_definitions.c ****     }
1830:Source\azure_iot_sdk\uamqp\src/amqp_definitions.c ****     else
1831:Source\azure_iot_sdk\uamqp\src/amqp_definitions.c ****     {
1832:Source\azure_iot_sdk\uamqp\src/amqp_definitions.c ****         uint32_t item_count;
1833:Source\azure_iot_sdk\uamqp\src/amqp_definitions.c ****         OPEN_INSTANCE* open_instance = (OPEN_INSTANCE*)open;
1834:Source\azure_iot_sdk\uamqp\src/amqp_definitions.c ****         if (amqpvalue_get_composite_item_count(open_instance->composite_value, &item_count) != 0)
1835:Source\azure_iot_sdk\uamqp\src/amqp_definitions.c ****         {
1836:Source\azure_iot_sdk\uamqp\src/amqp_definitions.c ****             result = __FAILURE__;
1837:Source\azure_iot_sdk\uamqp\src/amqp_definitions.c ****         }
1838:Source\azure_iot_sdk\uamqp\src/amqp_definitions.c ****         else
1839:Source\azure_iot_sdk\uamqp\src/amqp_definitions.c ****         {
1840:Source\azure_iot_sdk\uamqp\src/amqp_definitions.c ****             if (item_count <= 7)
1841:Source\azure_iot_sdk\uamqp\src/amqp_definitions.c ****             {
1842:Source\azure_iot_sdk\uamqp\src/amqp_definitions.c ****                 result = __FAILURE__;
1843:Source\azure_iot_sdk\uamqp\src/amqp_definitions.c ****             }
1844:Source\azure_iot_sdk\uamqp\src/amqp_definitions.c ****             else
1845:Source\azure_iot_sdk\uamqp\src/amqp_definitions.c ****             {
1846:Source\azure_iot_sdk\uamqp\src/amqp_definitions.c ****                 AMQP_VALUE item_value = amqpvalue_get_composite_item_in_place(open_instance->compos
1847:Source\azure_iot_sdk\uamqp\src/amqp_definitions.c ****                 if ((item_value == NULL) ||
1848:Source\azure_iot_sdk\uamqp\src/amqp_definitions.c ****                     (amqpvalue_get_type(item_value) == AMQP_TYPE_NULL))
ARM GAS  C:\Users\Phuong\AppData\Local\Temp\cczJKlkA.s 			page 35


1849:Source\azure_iot_sdk\uamqp\src/amqp_definitions.c ****                 {
1850:Source\azure_iot_sdk\uamqp\src/amqp_definitions.c ****                     result = __FAILURE__;
1851:Source\azure_iot_sdk\uamqp\src/amqp_definitions.c ****                 }
1852:Source\azure_iot_sdk\uamqp\src/amqp_definitions.c ****                 else
1853:Source\azure_iot_sdk\uamqp\src/amqp_definitions.c ****                 {
1854:Source\azure_iot_sdk\uamqp\src/amqp_definitions.c ****                     const char* offered_capabilities_single_value;
1855:Source\azure_iot_sdk\uamqp\src/amqp_definitions.c ****                     int get_single_value_result;
1856:Source\azure_iot_sdk\uamqp\src/amqp_definitions.c ****                     if (amqpvalue_get_type(item_value) != AMQP_TYPE_ARRAY)
1857:Source\azure_iot_sdk\uamqp\src/amqp_definitions.c ****                     {
1858:Source\azure_iot_sdk\uamqp\src/amqp_definitions.c ****                         get_single_value_result = amqpvalue_get_symbol(item_value, &offered_capabil
1859:Source\azure_iot_sdk\uamqp\src/amqp_definitions.c ****                     }
1860:Source\azure_iot_sdk\uamqp\src/amqp_definitions.c ****                     else
1861:Source\azure_iot_sdk\uamqp\src/amqp_definitions.c ****                     {
1862:Source\azure_iot_sdk\uamqp\src/amqp_definitions.c ****                         (void)memset((void*)&offered_capabilities_single_value, 0, sizeof(offered_c
1863:Source\azure_iot_sdk\uamqp\src/amqp_definitions.c ****                         get_single_value_result = 1;
1864:Source\azure_iot_sdk\uamqp\src/amqp_definitions.c ****                     }
1865:Source\azure_iot_sdk\uamqp\src/amqp_definitions.c **** 
1866:Source\azure_iot_sdk\uamqp\src/amqp_definitions.c ****                     if (((amqpvalue_get_type(item_value) != AMQP_TYPE_ARRAY) || (amqpvalue_get_arra
1867:Source\azure_iot_sdk\uamqp\src/amqp_definitions.c ****                         (get_single_value_result != 0))
1868:Source\azure_iot_sdk\uamqp\src/amqp_definitions.c ****                     {
1869:Source\azure_iot_sdk\uamqp\src/amqp_definitions.c ****                         result = __FAILURE__;
1870:Source\azure_iot_sdk\uamqp\src/amqp_definitions.c ****                     }
1871:Source\azure_iot_sdk\uamqp\src/amqp_definitions.c ****                     else
1872:Source\azure_iot_sdk\uamqp\src/amqp_definitions.c ****                     {
1873:Source\azure_iot_sdk\uamqp\src/amqp_definitions.c ****                         if (amqpvalue_get_type(item_value) != AMQP_TYPE_ARRAY)
1874:Source\azure_iot_sdk\uamqp\src/amqp_definitions.c ****                         {
1875:Source\azure_iot_sdk\uamqp\src/amqp_definitions.c ****                             *offered_capabilities_value = amqpvalue_create_array();
1876:Source\azure_iot_sdk\uamqp\src/amqp_definitions.c ****                             if (*offered_capabilities_value == NULL)
1877:Source\azure_iot_sdk\uamqp\src/amqp_definitions.c ****                             {
1878:Source\azure_iot_sdk\uamqp\src/amqp_definitions.c ****                                 result = __FAILURE__;
1879:Source\azure_iot_sdk\uamqp\src/amqp_definitions.c ****                             }
1880:Source\azure_iot_sdk\uamqp\src/amqp_definitions.c ****                             else
1881:Source\azure_iot_sdk\uamqp\src/amqp_definitions.c ****                             {
1882:Source\azure_iot_sdk\uamqp\src/amqp_definitions.c ****                                 AMQP_VALUE single_amqp_value = amqpvalue_create_symbol(offered_capa
1883:Source\azure_iot_sdk\uamqp\src/amqp_definitions.c ****                                 if (single_amqp_value == NULL)
1884:Source\azure_iot_sdk\uamqp\src/amqp_definitions.c ****                                 {
1885:Source\azure_iot_sdk\uamqp\src/amqp_definitions.c ****                                     amqpvalue_destroy(*offered_capabilities_value);
1886:Source\azure_iot_sdk\uamqp\src/amqp_definitions.c ****                                     result = __FAILURE__;
1887:Source\azure_iot_sdk\uamqp\src/amqp_definitions.c ****                                 }
1888:Source\azure_iot_sdk\uamqp\src/amqp_definitions.c ****                                 else
1889:Source\azure_iot_sdk\uamqp\src/amqp_definitions.c ****                                 {
1890:Source\azure_iot_sdk\uamqp\src/amqp_definitions.c ****                                     if (amqpvalue_add_array_item(*offered_capabilities_value, singl
1891:Source\azure_iot_sdk\uamqp\src/amqp_definitions.c ****                                     {
1892:Source\azure_iot_sdk\uamqp\src/amqp_definitions.c ****                                         amqpvalue_destroy(*offered_capabilities_value);
1893:Source\azure_iot_sdk\uamqp\src/amqp_definitions.c ****                                         amqpvalue_destroy(single_amqp_value);
1894:Source\azure_iot_sdk\uamqp\src/amqp_definitions.c ****                                         result = __FAILURE__;
1895:Source\azure_iot_sdk\uamqp\src/amqp_definitions.c ****                                     }
1896:Source\azure_iot_sdk\uamqp\src/amqp_definitions.c ****                                     else
1897:Source\azure_iot_sdk\uamqp\src/amqp_definitions.c ****                                     {
1898:Source\azure_iot_sdk\uamqp\src/amqp_definitions.c ****                                         if (amqpvalue_set_composite_item(open_instance->composite_v
1899:Source\azure_iot_sdk\uamqp\src/amqp_definitions.c ****                                         {
1900:Source\azure_iot_sdk\uamqp\src/amqp_definitions.c ****                                             amqpvalue_destroy(*offered_capabilities_value);
1901:Source\azure_iot_sdk\uamqp\src/amqp_definitions.c ****                                             result = __FAILURE__;
1902:Source\azure_iot_sdk\uamqp\src/amqp_definitions.c ****                                         }
1903:Source\azure_iot_sdk\uamqp\src/amqp_definitions.c ****                                         else
1904:Source\azure_iot_sdk\uamqp\src/amqp_definitions.c ****                                         {
1905:Source\azure_iot_sdk\uamqp\src/amqp_definitions.c ****                                             result = 0;
ARM GAS  C:\Users\Phuong\AppData\Local\Temp\cczJKlkA.s 			page 36


1906:Source\azure_iot_sdk\uamqp\src/amqp_definitions.c ****                                         }
1907:Source\azure_iot_sdk\uamqp\src/amqp_definitions.c ****                                     }
1908:Source\azure_iot_sdk\uamqp\src/amqp_definitions.c **** 
1909:Source\azure_iot_sdk\uamqp\src/amqp_definitions.c ****                                     amqpvalue_destroy(single_amqp_value);
1910:Source\azure_iot_sdk\uamqp\src/amqp_definitions.c ****                                 }
1911:Source\azure_iot_sdk\uamqp\src/amqp_definitions.c ****                                 amqpvalue_destroy(*offered_capabilities_value);
1912:Source\azure_iot_sdk\uamqp\src/amqp_definitions.c ****                             }
1913:Source\azure_iot_sdk\uamqp\src/amqp_definitions.c ****                         }
1914:Source\azure_iot_sdk\uamqp\src/amqp_definitions.c ****                         else
1915:Source\azure_iot_sdk\uamqp\src/amqp_definitions.c ****                         {
1916:Source\azure_iot_sdk\uamqp\src/amqp_definitions.c ****                             result = 0;
1917:Source\azure_iot_sdk\uamqp\src/amqp_definitions.c ****                         }
1918:Source\azure_iot_sdk\uamqp\src/amqp_definitions.c ****                     }
1919:Source\azure_iot_sdk\uamqp\src/amqp_definitions.c ****                 }
1920:Source\azure_iot_sdk\uamqp\src/amqp_definitions.c ****             }
1921:Source\azure_iot_sdk\uamqp\src/amqp_definitions.c ****         }
1922:Source\azure_iot_sdk\uamqp\src/amqp_definitions.c ****     }
1923:Source\azure_iot_sdk\uamqp\src/amqp_definitions.c **** 
1924:Source\azure_iot_sdk\uamqp\src/amqp_definitions.c ****     return result;
1925:Source\azure_iot_sdk\uamqp\src/amqp_definitions.c **** }
1926:Source\azure_iot_sdk\uamqp\src/amqp_definitions.c **** 
1927:Source\azure_iot_sdk\uamqp\src/amqp_definitions.c **** int open_set_offered_capabilities(OPEN_HANDLE open, AMQP_VALUE offered_capabilities_value)
1928:Source\azure_iot_sdk\uamqp\src/amqp_definitions.c **** {
1929:Source\azure_iot_sdk\uamqp\src/amqp_definitions.c ****     int result;
1930:Source\azure_iot_sdk\uamqp\src/amqp_definitions.c **** 
1931:Source\azure_iot_sdk\uamqp\src/amqp_definitions.c ****     if (open == NULL)
1932:Source\azure_iot_sdk\uamqp\src/amqp_definitions.c ****     {
1933:Source\azure_iot_sdk\uamqp\src/amqp_definitions.c ****         result = __FAILURE__;
1934:Source\azure_iot_sdk\uamqp\src/amqp_definitions.c ****     }
1935:Source\azure_iot_sdk\uamqp\src/amqp_definitions.c ****     else
1936:Source\azure_iot_sdk\uamqp\src/amqp_definitions.c ****     {
1937:Source\azure_iot_sdk\uamqp\src/amqp_definitions.c ****         OPEN_INSTANCE* open_instance = (OPEN_INSTANCE*)open;
1938:Source\azure_iot_sdk\uamqp\src/amqp_definitions.c ****         AMQP_VALUE offered_capabilities_amqp_value;
1939:Source\azure_iot_sdk\uamqp\src/amqp_definitions.c ****         if (offered_capabilities_value == NULL)
1940:Source\azure_iot_sdk\uamqp\src/amqp_definitions.c ****         {
1941:Source\azure_iot_sdk\uamqp\src/amqp_definitions.c ****             offered_capabilities_amqp_value = NULL;
1942:Source\azure_iot_sdk\uamqp\src/amqp_definitions.c ****         }
1943:Source\azure_iot_sdk\uamqp\src/amqp_definitions.c ****         else
1944:Source\azure_iot_sdk\uamqp\src/amqp_definitions.c ****         {
1945:Source\azure_iot_sdk\uamqp\src/amqp_definitions.c ****             offered_capabilities_amqp_value = amqpvalue_clone(offered_capabilities_value);
1946:Source\azure_iot_sdk\uamqp\src/amqp_definitions.c ****         }
1947:Source\azure_iot_sdk\uamqp\src/amqp_definitions.c ****         if (offered_capabilities_amqp_value == NULL)
1948:Source\azure_iot_sdk\uamqp\src/amqp_definitions.c ****         {
1949:Source\azure_iot_sdk\uamqp\src/amqp_definitions.c ****             result = __FAILURE__;
1950:Source\azure_iot_sdk\uamqp\src/amqp_definitions.c ****         }
1951:Source\azure_iot_sdk\uamqp\src/amqp_definitions.c ****         else
1952:Source\azure_iot_sdk\uamqp\src/amqp_definitions.c ****         {
1953:Source\azure_iot_sdk\uamqp\src/amqp_definitions.c ****             if (amqpvalue_set_composite_item(open_instance->composite_value, 7, offered_capabilitie
1954:Source\azure_iot_sdk\uamqp\src/amqp_definitions.c ****             {
1955:Source\azure_iot_sdk\uamqp\src/amqp_definitions.c ****                 result = __FAILURE__;
1956:Source\azure_iot_sdk\uamqp\src/amqp_definitions.c ****             }
1957:Source\azure_iot_sdk\uamqp\src/amqp_definitions.c ****             else
1958:Source\azure_iot_sdk\uamqp\src/amqp_definitions.c ****             {
1959:Source\azure_iot_sdk\uamqp\src/amqp_definitions.c ****                 result = 0;
1960:Source\azure_iot_sdk\uamqp\src/amqp_definitions.c ****             }
1961:Source\azure_iot_sdk\uamqp\src/amqp_definitions.c **** 
1962:Source\azure_iot_sdk\uamqp\src/amqp_definitions.c ****             amqpvalue_destroy(offered_capabilities_amqp_value);
ARM GAS  C:\Users\Phuong\AppData\Local\Temp\cczJKlkA.s 			page 37


1963:Source\azure_iot_sdk\uamqp\src/amqp_definitions.c ****         }
1964:Source\azure_iot_sdk\uamqp\src/amqp_definitions.c ****     }
1965:Source\azure_iot_sdk\uamqp\src/amqp_definitions.c **** 
1966:Source\azure_iot_sdk\uamqp\src/amqp_definitions.c ****     return result;
1967:Source\azure_iot_sdk\uamqp\src/amqp_definitions.c **** }
1968:Source\azure_iot_sdk\uamqp\src/amqp_definitions.c **** 
1969:Source\azure_iot_sdk\uamqp\src/amqp_definitions.c **** int open_get_desired_capabilities(OPEN_HANDLE open, AMQP_VALUE* desired_capabilities_value)
1970:Source\azure_iot_sdk\uamqp\src/amqp_definitions.c **** {
1971:Source\azure_iot_sdk\uamqp\src/amqp_definitions.c ****     int result;
1972:Source\azure_iot_sdk\uamqp\src/amqp_definitions.c **** 
1973:Source\azure_iot_sdk\uamqp\src/amqp_definitions.c ****     if (open == NULL)
1974:Source\azure_iot_sdk\uamqp\src/amqp_definitions.c ****     {
1975:Source\azure_iot_sdk\uamqp\src/amqp_definitions.c ****         result = __FAILURE__;
1976:Source\azure_iot_sdk\uamqp\src/amqp_definitions.c ****     }
1977:Source\azure_iot_sdk\uamqp\src/amqp_definitions.c ****     else
1978:Source\azure_iot_sdk\uamqp\src/amqp_definitions.c ****     {
1979:Source\azure_iot_sdk\uamqp\src/amqp_definitions.c ****         uint32_t item_count;
1980:Source\azure_iot_sdk\uamqp\src/amqp_definitions.c ****         OPEN_INSTANCE* open_instance = (OPEN_INSTANCE*)open;
1981:Source\azure_iot_sdk\uamqp\src/amqp_definitions.c ****         if (amqpvalue_get_composite_item_count(open_instance->composite_value, &item_count) != 0)
1982:Source\azure_iot_sdk\uamqp\src/amqp_definitions.c ****         {
1983:Source\azure_iot_sdk\uamqp\src/amqp_definitions.c ****             result = __FAILURE__;
1984:Source\azure_iot_sdk\uamqp\src/amqp_definitions.c ****         }
1985:Source\azure_iot_sdk\uamqp\src/amqp_definitions.c ****         else
1986:Source\azure_iot_sdk\uamqp\src/amqp_definitions.c ****         {
1987:Source\azure_iot_sdk\uamqp\src/amqp_definitions.c ****             if (item_count <= 8)
1988:Source\azure_iot_sdk\uamqp\src/amqp_definitions.c ****             {
1989:Source\azure_iot_sdk\uamqp\src/amqp_definitions.c ****                 result = __FAILURE__;
1990:Source\azure_iot_sdk\uamqp\src/amqp_definitions.c ****             }
1991:Source\azure_iot_sdk\uamqp\src/amqp_definitions.c ****             else
1992:Source\azure_iot_sdk\uamqp\src/amqp_definitions.c ****             {
1993:Source\azure_iot_sdk\uamqp\src/amqp_definitions.c ****                 AMQP_VALUE item_value = amqpvalue_get_composite_item_in_place(open_instance->compos
1994:Source\azure_iot_sdk\uamqp\src/amqp_definitions.c ****                 if ((item_value == NULL) ||
1995:Source\azure_iot_sdk\uamqp\src/amqp_definitions.c ****                     (amqpvalue_get_type(item_value) == AMQP_TYPE_NULL))
1996:Source\azure_iot_sdk\uamqp\src/amqp_definitions.c ****                 {
1997:Source\azure_iot_sdk\uamqp\src/amqp_definitions.c ****                     result = __FAILURE__;
1998:Source\azure_iot_sdk\uamqp\src/amqp_definitions.c ****                 }
1999:Source\azure_iot_sdk\uamqp\src/amqp_definitions.c ****                 else
2000:Source\azure_iot_sdk\uamqp\src/amqp_definitions.c ****                 {
2001:Source\azure_iot_sdk\uamqp\src/amqp_definitions.c ****                     const char* desired_capabilities_single_value;
2002:Source\azure_iot_sdk\uamqp\src/amqp_definitions.c ****                     int get_single_value_result;
2003:Source\azure_iot_sdk\uamqp\src/amqp_definitions.c ****                     if (amqpvalue_get_type(item_value) != AMQP_TYPE_ARRAY)
2004:Source\azure_iot_sdk\uamqp\src/amqp_definitions.c ****                     {
2005:Source\azure_iot_sdk\uamqp\src/amqp_definitions.c ****                         get_single_value_result = amqpvalue_get_symbol(item_value, &desired_capabil
2006:Source\azure_iot_sdk\uamqp\src/amqp_definitions.c ****                     }
2007:Source\azure_iot_sdk\uamqp\src/amqp_definitions.c ****                     else
2008:Source\azure_iot_sdk\uamqp\src/amqp_definitions.c ****                     {
2009:Source\azure_iot_sdk\uamqp\src/amqp_definitions.c ****                         (void)memset((void*)&desired_capabilities_single_value, 0, sizeof(desired_c
2010:Source\azure_iot_sdk\uamqp\src/amqp_definitions.c ****                         get_single_value_result = 1;
2011:Source\azure_iot_sdk\uamqp\src/amqp_definitions.c ****                     }
2012:Source\azure_iot_sdk\uamqp\src/amqp_definitions.c **** 
2013:Source\azure_iot_sdk\uamqp\src/amqp_definitions.c ****                     if (((amqpvalue_get_type(item_value) != AMQP_TYPE_ARRAY) || (amqpvalue_get_arra
2014:Source\azure_iot_sdk\uamqp\src/amqp_definitions.c ****                         (get_single_value_result != 0))
2015:Source\azure_iot_sdk\uamqp\src/amqp_definitions.c ****                     {
2016:Source\azure_iot_sdk\uamqp\src/amqp_definitions.c ****                         result = __FAILURE__;
2017:Source\azure_iot_sdk\uamqp\src/amqp_definitions.c ****                     }
2018:Source\azure_iot_sdk\uamqp\src/amqp_definitions.c ****                     else
2019:Source\azure_iot_sdk\uamqp\src/amqp_definitions.c ****                     {
ARM GAS  C:\Users\Phuong\AppData\Local\Temp\cczJKlkA.s 			page 38


2020:Source\azure_iot_sdk\uamqp\src/amqp_definitions.c ****                         if (amqpvalue_get_type(item_value) != AMQP_TYPE_ARRAY)
2021:Source\azure_iot_sdk\uamqp\src/amqp_definitions.c ****                         {
2022:Source\azure_iot_sdk\uamqp\src/amqp_definitions.c ****                             *desired_capabilities_value = amqpvalue_create_array();
2023:Source\azure_iot_sdk\uamqp\src/amqp_definitions.c ****                             if (*desired_capabilities_value == NULL)
2024:Source\azure_iot_sdk\uamqp\src/amqp_definitions.c ****                             {
2025:Source\azure_iot_sdk\uamqp\src/amqp_definitions.c ****                                 result = __FAILURE__;
2026:Source\azure_iot_sdk\uamqp\src/amqp_definitions.c ****                             }
2027:Source\azure_iot_sdk\uamqp\src/amqp_definitions.c ****                             else
2028:Source\azure_iot_sdk\uamqp\src/amqp_definitions.c ****                             {
2029:Source\azure_iot_sdk\uamqp\src/amqp_definitions.c ****                                 AMQP_VALUE single_amqp_value = amqpvalue_create_symbol(desired_capa
2030:Source\azure_iot_sdk\uamqp\src/amqp_definitions.c ****                                 if (single_amqp_value == NULL)
2031:Source\azure_iot_sdk\uamqp\src/amqp_definitions.c ****                                 {
2032:Source\azure_iot_sdk\uamqp\src/amqp_definitions.c ****                                     amqpvalue_destroy(*desired_capabilities_value);
2033:Source\azure_iot_sdk\uamqp\src/amqp_definitions.c ****                                     result = __FAILURE__;
2034:Source\azure_iot_sdk\uamqp\src/amqp_definitions.c ****                                 }
2035:Source\azure_iot_sdk\uamqp\src/amqp_definitions.c ****                                 else
2036:Source\azure_iot_sdk\uamqp\src/amqp_definitions.c ****                                 {
2037:Source\azure_iot_sdk\uamqp\src/amqp_definitions.c ****                                     if (amqpvalue_add_array_item(*desired_capabilities_value, singl
2038:Source\azure_iot_sdk\uamqp\src/amqp_definitions.c ****                                     {
2039:Source\azure_iot_sdk\uamqp\src/amqp_definitions.c ****                                         amqpvalue_destroy(*desired_capabilities_value);
2040:Source\azure_iot_sdk\uamqp\src/amqp_definitions.c ****                                         amqpvalue_destroy(single_amqp_value);
2041:Source\azure_iot_sdk\uamqp\src/amqp_definitions.c ****                                         result = __FAILURE__;
2042:Source\azure_iot_sdk\uamqp\src/amqp_definitions.c ****                                     }
2043:Source\azure_iot_sdk\uamqp\src/amqp_definitions.c ****                                     else
2044:Source\azure_iot_sdk\uamqp\src/amqp_definitions.c ****                                     {
2045:Source\azure_iot_sdk\uamqp\src/amqp_definitions.c ****                                         if (amqpvalue_set_composite_item(open_instance->composite_v
2046:Source\azure_iot_sdk\uamqp\src/amqp_definitions.c ****                                         {
2047:Source\azure_iot_sdk\uamqp\src/amqp_definitions.c ****                                             amqpvalue_destroy(*desired_capabilities_value);
2048:Source\azure_iot_sdk\uamqp\src/amqp_definitions.c ****                                             result = __FAILURE__;
2049:Source\azure_iot_sdk\uamqp\src/amqp_definitions.c ****                                         }
2050:Source\azure_iot_sdk\uamqp\src/amqp_definitions.c ****                                         else
2051:Source\azure_iot_sdk\uamqp\src/amqp_definitions.c ****                                         {
2052:Source\azure_iot_sdk\uamqp\src/amqp_definitions.c ****                                             result = 0;
2053:Source\azure_iot_sdk\uamqp\src/amqp_definitions.c ****                                         }
2054:Source\azure_iot_sdk\uamqp\src/amqp_definitions.c ****                                     }
2055:Source\azure_iot_sdk\uamqp\src/amqp_definitions.c **** 
2056:Source\azure_iot_sdk\uamqp\src/amqp_definitions.c ****                                     amqpvalue_destroy(single_amqp_value);
2057:Source\azure_iot_sdk\uamqp\src/amqp_definitions.c ****                                 }
2058:Source\azure_iot_sdk\uamqp\src/amqp_definitions.c ****                                 amqpvalue_destroy(*desired_capabilities_value);
2059:Source\azure_iot_sdk\uamqp\src/amqp_definitions.c ****                             }
2060:Source\azure_iot_sdk\uamqp\src/amqp_definitions.c ****                         }
2061:Source\azure_iot_sdk\uamqp\src/amqp_definitions.c ****                         else
2062:Source\azure_iot_sdk\uamqp\src/amqp_definitions.c ****                         {
2063:Source\azure_iot_sdk\uamqp\src/amqp_definitions.c ****                             result = 0;
2064:Source\azure_iot_sdk\uamqp\src/amqp_definitions.c ****                         }
2065:Source\azure_iot_sdk\uamqp\src/amqp_definitions.c ****                     }
2066:Source\azure_iot_sdk\uamqp\src/amqp_definitions.c ****                 }
2067:Source\azure_iot_sdk\uamqp\src/amqp_definitions.c ****             }
2068:Source\azure_iot_sdk\uamqp\src/amqp_definitions.c ****         }
2069:Source\azure_iot_sdk\uamqp\src/amqp_definitions.c ****     }
2070:Source\azure_iot_sdk\uamqp\src/amqp_definitions.c **** 
2071:Source\azure_iot_sdk\uamqp\src/amqp_definitions.c ****     return result;
2072:Source\azure_iot_sdk\uamqp\src/amqp_definitions.c **** }
2073:Source\azure_iot_sdk\uamqp\src/amqp_definitions.c **** 
2074:Source\azure_iot_sdk\uamqp\src/amqp_definitions.c **** int open_set_desired_capabilities(OPEN_HANDLE open, AMQP_VALUE desired_capabilities_value)
2075:Source\azure_iot_sdk\uamqp\src/amqp_definitions.c **** {
2076:Source\azure_iot_sdk\uamqp\src/amqp_definitions.c ****     int result;
ARM GAS  C:\Users\Phuong\AppData\Local\Temp\cczJKlkA.s 			page 39


2077:Source\azure_iot_sdk\uamqp\src/amqp_definitions.c **** 
2078:Source\azure_iot_sdk\uamqp\src/amqp_definitions.c ****     if (open == NULL)
2079:Source\azure_iot_sdk\uamqp\src/amqp_definitions.c ****     {
2080:Source\azure_iot_sdk\uamqp\src/amqp_definitions.c ****         result = __FAILURE__;
2081:Source\azure_iot_sdk\uamqp\src/amqp_definitions.c ****     }
2082:Source\azure_iot_sdk\uamqp\src/amqp_definitions.c ****     else
2083:Source\azure_iot_sdk\uamqp\src/amqp_definitions.c ****     {
2084:Source\azure_iot_sdk\uamqp\src/amqp_definitions.c ****         OPEN_INSTANCE* open_instance = (OPEN_INSTANCE*)open;
2085:Source\azure_iot_sdk\uamqp\src/amqp_definitions.c ****         AMQP_VALUE desired_capabilities_amqp_value;
2086:Source\azure_iot_sdk\uamqp\src/amqp_definitions.c ****         if (desired_capabilities_value == NULL)
2087:Source\azure_iot_sdk\uamqp\src/amqp_definitions.c ****         {
2088:Source\azure_iot_sdk\uamqp\src/amqp_definitions.c ****             desired_capabilities_amqp_value = NULL;
2089:Source\azure_iot_sdk\uamqp\src/amqp_definitions.c ****         }
2090:Source\azure_iot_sdk\uamqp\src/amqp_definitions.c ****         else
2091:Source\azure_iot_sdk\uamqp\src/amqp_definitions.c ****         {
2092:Source\azure_iot_sdk\uamqp\src/amqp_definitions.c ****             desired_capabilities_amqp_value = amqpvalue_clone(desired_capabilities_value);
2093:Source\azure_iot_sdk\uamqp\src/amqp_definitions.c ****         }
2094:Source\azure_iot_sdk\uamqp\src/amqp_definitions.c ****         if (desired_capabilities_amqp_value == NULL)
2095:Source\azure_iot_sdk\uamqp\src/amqp_definitions.c ****         {
2096:Source\azure_iot_sdk\uamqp\src/amqp_definitions.c ****             result = __FAILURE__;
2097:Source\azure_iot_sdk\uamqp\src/amqp_definitions.c ****         }
2098:Source\azure_iot_sdk\uamqp\src/amqp_definitions.c ****         else
2099:Source\azure_iot_sdk\uamqp\src/amqp_definitions.c ****         {
2100:Source\azure_iot_sdk\uamqp\src/amqp_definitions.c ****             if (amqpvalue_set_composite_item(open_instance->composite_value, 8, desired_capabilitie
2101:Source\azure_iot_sdk\uamqp\src/amqp_definitions.c ****             {
2102:Source\azure_iot_sdk\uamqp\src/amqp_definitions.c ****                 result = __FAILURE__;
2103:Source\azure_iot_sdk\uamqp\src/amqp_definitions.c ****             }
2104:Source\azure_iot_sdk\uamqp\src/amqp_definitions.c ****             else
2105:Source\azure_iot_sdk\uamqp\src/amqp_definitions.c ****             {
2106:Source\azure_iot_sdk\uamqp\src/amqp_definitions.c ****                 result = 0;
2107:Source\azure_iot_sdk\uamqp\src/amqp_definitions.c ****             }
2108:Source\azure_iot_sdk\uamqp\src/amqp_definitions.c **** 
2109:Source\azure_iot_sdk\uamqp\src/amqp_definitions.c ****             amqpvalue_destroy(desired_capabilities_amqp_value);
2110:Source\azure_iot_sdk\uamqp\src/amqp_definitions.c ****         }
2111:Source\azure_iot_sdk\uamqp\src/amqp_definitions.c ****     }
2112:Source\azure_iot_sdk\uamqp\src/amqp_definitions.c **** 
2113:Source\azure_iot_sdk\uamqp\src/amqp_definitions.c ****     return result;
2114:Source\azure_iot_sdk\uamqp\src/amqp_definitions.c **** }
2115:Source\azure_iot_sdk\uamqp\src/amqp_definitions.c **** 
2116:Source\azure_iot_sdk\uamqp\src/amqp_definitions.c **** int open_get_properties(OPEN_HANDLE open, fields* properties_value)
2117:Source\azure_iot_sdk\uamqp\src/amqp_definitions.c **** {
2118:Source\azure_iot_sdk\uamqp\src/amqp_definitions.c ****     int result;
2119:Source\azure_iot_sdk\uamqp\src/amqp_definitions.c **** 
2120:Source\azure_iot_sdk\uamqp\src/amqp_definitions.c ****     if (open == NULL)
2121:Source\azure_iot_sdk\uamqp\src/amqp_definitions.c ****     {
2122:Source\azure_iot_sdk\uamqp\src/amqp_definitions.c ****         result = __FAILURE__;
2123:Source\azure_iot_sdk\uamqp\src/amqp_definitions.c ****     }
2124:Source\azure_iot_sdk\uamqp\src/amqp_definitions.c ****     else
2125:Source\azure_iot_sdk\uamqp\src/amqp_definitions.c ****     {
2126:Source\azure_iot_sdk\uamqp\src/amqp_definitions.c ****         uint32_t item_count;
2127:Source\azure_iot_sdk\uamqp\src/amqp_definitions.c ****         OPEN_INSTANCE* open_instance = (OPEN_INSTANCE*)open;
2128:Source\azure_iot_sdk\uamqp\src/amqp_definitions.c ****         if (amqpvalue_get_composite_item_count(open_instance->composite_value, &item_count) != 0)
2129:Source\azure_iot_sdk\uamqp\src/amqp_definitions.c ****         {
2130:Source\azure_iot_sdk\uamqp\src/amqp_definitions.c ****             result = __FAILURE__;
2131:Source\azure_iot_sdk\uamqp\src/amqp_definitions.c ****         }
2132:Source\azure_iot_sdk\uamqp\src/amqp_definitions.c ****         else
2133:Source\azure_iot_sdk\uamqp\src/amqp_definitions.c ****         {
ARM GAS  C:\Users\Phuong\AppData\Local\Temp\cczJKlkA.s 			page 40


2134:Source\azure_iot_sdk\uamqp\src/amqp_definitions.c ****             if (item_count <= 9)
2135:Source\azure_iot_sdk\uamqp\src/amqp_definitions.c ****             {
2136:Source\azure_iot_sdk\uamqp\src/amqp_definitions.c ****                 result = __FAILURE__;
2137:Source\azure_iot_sdk\uamqp\src/amqp_definitions.c ****             }
2138:Source\azure_iot_sdk\uamqp\src/amqp_definitions.c ****             else
2139:Source\azure_iot_sdk\uamqp\src/amqp_definitions.c ****             {
2140:Source\azure_iot_sdk\uamqp\src/amqp_definitions.c ****                 AMQP_VALUE item_value = amqpvalue_get_composite_item_in_place(open_instance->compos
2141:Source\azure_iot_sdk\uamqp\src/amqp_definitions.c ****                 if ((item_value == NULL) ||
2142:Source\azure_iot_sdk\uamqp\src/amqp_definitions.c ****                     (amqpvalue_get_type(item_value) == AMQP_TYPE_NULL))
2143:Source\azure_iot_sdk\uamqp\src/amqp_definitions.c ****                 {
2144:Source\azure_iot_sdk\uamqp\src/amqp_definitions.c ****                     result = __FAILURE__;
2145:Source\azure_iot_sdk\uamqp\src/amqp_definitions.c ****                 }
2146:Source\azure_iot_sdk\uamqp\src/amqp_definitions.c ****                 else
2147:Source\azure_iot_sdk\uamqp\src/amqp_definitions.c ****                 {
2148:Source\azure_iot_sdk\uamqp\src/amqp_definitions.c ****                     int get_single_value_result = amqpvalue_get_fields(item_value, properties_value
2149:Source\azure_iot_sdk\uamqp\src/amqp_definitions.c ****                     if (get_single_value_result != 0)
2150:Source\azure_iot_sdk\uamqp\src/amqp_definitions.c ****                     {
2151:Source\azure_iot_sdk\uamqp\src/amqp_definitions.c ****                         result = __FAILURE__;
2152:Source\azure_iot_sdk\uamqp\src/amqp_definitions.c ****                     }
2153:Source\azure_iot_sdk\uamqp\src/amqp_definitions.c ****                     else
2154:Source\azure_iot_sdk\uamqp\src/amqp_definitions.c ****                     {
2155:Source\azure_iot_sdk\uamqp\src/amqp_definitions.c ****                         result = 0;
2156:Source\azure_iot_sdk\uamqp\src/amqp_definitions.c ****                     }
2157:Source\azure_iot_sdk\uamqp\src/amqp_definitions.c ****                 }
2158:Source\azure_iot_sdk\uamqp\src/amqp_definitions.c ****             }
2159:Source\azure_iot_sdk\uamqp\src/amqp_definitions.c ****         }
2160:Source\azure_iot_sdk\uamqp\src/amqp_definitions.c ****     }
2161:Source\azure_iot_sdk\uamqp\src/amqp_definitions.c **** 
2162:Source\azure_iot_sdk\uamqp\src/amqp_definitions.c ****     return result;
2163:Source\azure_iot_sdk\uamqp\src/amqp_definitions.c **** }
2164:Source\azure_iot_sdk\uamqp\src/amqp_definitions.c **** 
2165:Source\azure_iot_sdk\uamqp\src/amqp_definitions.c **** int open_set_properties(OPEN_HANDLE open, fields properties_value)
2166:Source\azure_iot_sdk\uamqp\src/amqp_definitions.c **** {
2167:Source\azure_iot_sdk\uamqp\src/amqp_definitions.c ****     int result;
2168:Source\azure_iot_sdk\uamqp\src/amqp_definitions.c **** 
2169:Source\azure_iot_sdk\uamqp\src/amqp_definitions.c ****     if (open == NULL)
2170:Source\azure_iot_sdk\uamqp\src/amqp_definitions.c ****     {
2171:Source\azure_iot_sdk\uamqp\src/amqp_definitions.c ****         result = __FAILURE__;
2172:Source\azure_iot_sdk\uamqp\src/amqp_definitions.c ****     }
2173:Source\azure_iot_sdk\uamqp\src/amqp_definitions.c ****     else
2174:Source\azure_iot_sdk\uamqp\src/amqp_definitions.c ****     {
2175:Source\azure_iot_sdk\uamqp\src/amqp_definitions.c ****         OPEN_INSTANCE* open_instance = (OPEN_INSTANCE*)open;
2176:Source\azure_iot_sdk\uamqp\src/amqp_definitions.c ****         AMQP_VALUE properties_amqp_value = amqpvalue_create_fields(properties_value);
2177:Source\azure_iot_sdk\uamqp\src/amqp_definitions.c ****         if (properties_amqp_value == NULL)
2178:Source\azure_iot_sdk\uamqp\src/amqp_definitions.c ****         {
2179:Source\azure_iot_sdk\uamqp\src/amqp_definitions.c ****             result = __FAILURE__;
2180:Source\azure_iot_sdk\uamqp\src/amqp_definitions.c ****         }
2181:Source\azure_iot_sdk\uamqp\src/amqp_definitions.c ****         else
2182:Source\azure_iot_sdk\uamqp\src/amqp_definitions.c ****         {
2183:Source\azure_iot_sdk\uamqp\src/amqp_definitions.c ****             if (amqpvalue_set_composite_item(open_instance->composite_value, 9, properties_amqp_val
2184:Source\azure_iot_sdk\uamqp\src/amqp_definitions.c ****             {
2185:Source\azure_iot_sdk\uamqp\src/amqp_definitions.c ****                 result = __FAILURE__;
2186:Source\azure_iot_sdk\uamqp\src/amqp_definitions.c ****             }
2187:Source\azure_iot_sdk\uamqp\src/amqp_definitions.c ****             else
2188:Source\azure_iot_sdk\uamqp\src/amqp_definitions.c ****             {
2189:Source\azure_iot_sdk\uamqp\src/amqp_definitions.c ****                 result = 0;
2190:Source\azure_iot_sdk\uamqp\src/amqp_definitions.c ****             }
ARM GAS  C:\Users\Phuong\AppData\Local\Temp\cczJKlkA.s 			page 41


2191:Source\azure_iot_sdk\uamqp\src/amqp_definitions.c **** 
2192:Source\azure_iot_sdk\uamqp\src/amqp_definitions.c ****             amqpvalue_destroy(properties_amqp_value);
2193:Source\azure_iot_sdk\uamqp\src/amqp_definitions.c ****         }
2194:Source\azure_iot_sdk\uamqp\src/amqp_definitions.c ****     }
2195:Source\azure_iot_sdk\uamqp\src/amqp_definitions.c **** 
2196:Source\azure_iot_sdk\uamqp\src/amqp_definitions.c ****     return result;
2197:Source\azure_iot_sdk\uamqp\src/amqp_definitions.c **** }
2198:Source\azure_iot_sdk\uamqp\src/amqp_definitions.c **** 
2199:Source\azure_iot_sdk\uamqp\src/amqp_definitions.c **** 
2200:Source\azure_iot_sdk\uamqp\src/amqp_definitions.c **** /* begin */
2201:Source\azure_iot_sdk\uamqp\src/amqp_definitions.c **** 
2202:Source\azure_iot_sdk\uamqp\src/amqp_definitions.c **** typedef struct BEGIN_INSTANCE_TAG
2203:Source\azure_iot_sdk\uamqp\src/amqp_definitions.c **** {
2204:Source\azure_iot_sdk\uamqp\src/amqp_definitions.c ****     AMQP_VALUE composite_value;
2205:Source\azure_iot_sdk\uamqp\src/amqp_definitions.c **** } BEGIN_INSTANCE;
2206:Source\azure_iot_sdk\uamqp\src/amqp_definitions.c **** 
2207:Source\azure_iot_sdk\uamqp\src/amqp_definitions.c **** static BEGIN_HANDLE begin_create_internal(void)
2208:Source\azure_iot_sdk\uamqp\src/amqp_definitions.c **** {
  91              		.loc 1 2208 0
  92              		.cfi_startproc
  93              		@ args = 0, pretend = 0, frame = 0
  94              		@ frame_needed = 0, uses_anonymous_args = 0
  95 0000 10B5     		push	{r4, lr}
  96              		.cfi_def_cfa_offset 8
  97              		.cfi_offset 4, -8
  98              		.cfi_offset 14, -4
2209:Source\azure_iot_sdk\uamqp\src/amqp_definitions.c ****     BEGIN_INSTANCE* begin_instance = (BEGIN_INSTANCE*)malloc(sizeof(BEGIN_INSTANCE));
  99              		.loc 1 2209 0
 100 0002 0420     		movs	r0, #4
 101 0004 FFF7FEFF 		bl	malloc
 102              	.LVL2:
2210:Source\azure_iot_sdk\uamqp\src/amqp_definitions.c ****     if (begin_instance != NULL)
 103              		.loc 1 2210 0
 104 0008 0028     		cmp	r0, #0
 105 000a 01D0     		beq	.L6
2211:Source\azure_iot_sdk\uamqp\src/amqp_definitions.c ****     {
2212:Source\azure_iot_sdk\uamqp\src/amqp_definitions.c ****         begin_instance->composite_value = NULL;
 106              		.loc 1 2212 0
 107 000c 0023     		movs	r3, #0
 108 000e 0360     		str	r3, [r0]
 109              	.L6:
2213:Source\azure_iot_sdk\uamqp\src/amqp_definitions.c ****     }
2214:Source\azure_iot_sdk\uamqp\src/amqp_definitions.c **** 
2215:Source\azure_iot_sdk\uamqp\src/amqp_definitions.c ****     return begin_instance;
2216:Source\azure_iot_sdk\uamqp\src/amqp_definitions.c **** }
 110              		.loc 1 2216 0
 111              		@ sp needed
 112 0010 10BD     		pop	{r4, pc}
 113              		.cfi_endproc
 114              	.LFE57:
 115              		.size	begin_create_internal, .-begin_create_internal
 116 0012 C046     		.section	.text.attach_create_internal,"ax",%progbits
 117              		.align	2
 118              		.code	16
 119              		.thumb_func
 120              		.type	attach_create_internal, %function
 121              	attach_create_internal:
ARM GAS  C:\Users\Phuong\AppData\Local\Temp\cczJKlkA.s 			page 42


 122              	.LFB80:
2217:Source\azure_iot_sdk\uamqp\src/amqp_definitions.c **** 
2218:Source\azure_iot_sdk\uamqp\src/amqp_definitions.c **** BEGIN_HANDLE begin_create(transfer_number next_outgoing_id_value, uint32_t incoming_window_value, u
2219:Source\azure_iot_sdk\uamqp\src/amqp_definitions.c **** {
2220:Source\azure_iot_sdk\uamqp\src/amqp_definitions.c ****     BEGIN_INSTANCE* begin_instance = (BEGIN_INSTANCE*)malloc(sizeof(BEGIN_INSTANCE));
2221:Source\azure_iot_sdk\uamqp\src/amqp_definitions.c ****     if (begin_instance != NULL)
2222:Source\azure_iot_sdk\uamqp\src/amqp_definitions.c ****     {
2223:Source\azure_iot_sdk\uamqp\src/amqp_definitions.c ****         begin_instance->composite_value = amqpvalue_create_composite_with_ulong_descriptor(17);
2224:Source\azure_iot_sdk\uamqp\src/amqp_definitions.c ****         if (begin_instance->composite_value == NULL)
2225:Source\azure_iot_sdk\uamqp\src/amqp_definitions.c ****         {
2226:Source\azure_iot_sdk\uamqp\src/amqp_definitions.c ****             free(begin_instance);
2227:Source\azure_iot_sdk\uamqp\src/amqp_definitions.c ****             begin_instance = NULL;
2228:Source\azure_iot_sdk\uamqp\src/amqp_definitions.c ****         }
2229:Source\azure_iot_sdk\uamqp\src/amqp_definitions.c ****         else
2230:Source\azure_iot_sdk\uamqp\src/amqp_definitions.c ****         {
2231:Source\azure_iot_sdk\uamqp\src/amqp_definitions.c ****             AMQP_VALUE next_outgoing_id_amqp_value;
2232:Source\azure_iot_sdk\uamqp\src/amqp_definitions.c ****             AMQP_VALUE incoming_window_amqp_value;
2233:Source\azure_iot_sdk\uamqp\src/amqp_definitions.c ****             AMQP_VALUE outgoing_window_amqp_value;
2234:Source\azure_iot_sdk\uamqp\src/amqp_definitions.c ****             int result = 0;
2235:Source\azure_iot_sdk\uamqp\src/amqp_definitions.c **** 
2236:Source\azure_iot_sdk\uamqp\src/amqp_definitions.c ****             next_outgoing_id_amqp_value = amqpvalue_create_transfer_number(next_outgoing_id_value);
2237:Source\azure_iot_sdk\uamqp\src/amqp_definitions.c ****             if ((result == 0) && (amqpvalue_set_composite_item(begin_instance->composite_value, 1, 
2238:Source\azure_iot_sdk\uamqp\src/amqp_definitions.c ****             {
2239:Source\azure_iot_sdk\uamqp\src/amqp_definitions.c ****                 result = __FAILURE__;
2240:Source\azure_iot_sdk\uamqp\src/amqp_definitions.c ****             }
2241:Source\azure_iot_sdk\uamqp\src/amqp_definitions.c ****             incoming_window_amqp_value = amqpvalue_create_uint(incoming_window_value);
2242:Source\azure_iot_sdk\uamqp\src/amqp_definitions.c ****             if ((result == 0) && (amqpvalue_set_composite_item(begin_instance->composite_value, 2, 
2243:Source\azure_iot_sdk\uamqp\src/amqp_definitions.c ****             {
2244:Source\azure_iot_sdk\uamqp\src/amqp_definitions.c ****                 result = __FAILURE__;
2245:Source\azure_iot_sdk\uamqp\src/amqp_definitions.c ****             }
2246:Source\azure_iot_sdk\uamqp\src/amqp_definitions.c ****             outgoing_window_amqp_value = amqpvalue_create_uint(outgoing_window_value);
2247:Source\azure_iot_sdk\uamqp\src/amqp_definitions.c ****             if ((result == 0) && (amqpvalue_set_composite_item(begin_instance->composite_value, 3, 
2248:Source\azure_iot_sdk\uamqp\src/amqp_definitions.c ****             {
2249:Source\azure_iot_sdk\uamqp\src/amqp_definitions.c ****                 result = __FAILURE__;
2250:Source\azure_iot_sdk\uamqp\src/amqp_definitions.c ****             }
2251:Source\azure_iot_sdk\uamqp\src/amqp_definitions.c **** 
2252:Source\azure_iot_sdk\uamqp\src/amqp_definitions.c ****             amqpvalue_destroy(next_outgoing_id_amqp_value);
2253:Source\azure_iot_sdk\uamqp\src/amqp_definitions.c ****             amqpvalue_destroy(incoming_window_amqp_value);
2254:Source\azure_iot_sdk\uamqp\src/amqp_definitions.c ****             amqpvalue_destroy(outgoing_window_amqp_value);
2255:Source\azure_iot_sdk\uamqp\src/amqp_definitions.c ****         }
2256:Source\azure_iot_sdk\uamqp\src/amqp_definitions.c ****     }
2257:Source\azure_iot_sdk\uamqp\src/amqp_definitions.c **** 
2258:Source\azure_iot_sdk\uamqp\src/amqp_definitions.c ****     return begin_instance;
2259:Source\azure_iot_sdk\uamqp\src/amqp_definitions.c **** }
2260:Source\azure_iot_sdk\uamqp\src/amqp_definitions.c **** 
2261:Source\azure_iot_sdk\uamqp\src/amqp_definitions.c **** BEGIN_HANDLE begin_clone(BEGIN_HANDLE value)
2262:Source\azure_iot_sdk\uamqp\src/amqp_definitions.c **** {
2263:Source\azure_iot_sdk\uamqp\src/amqp_definitions.c ****     BEGIN_INSTANCE* begin_instance = (BEGIN_INSTANCE*)malloc(sizeof(BEGIN_INSTANCE));
2264:Source\azure_iot_sdk\uamqp\src/amqp_definitions.c ****     if (begin_instance != NULL)
2265:Source\azure_iot_sdk\uamqp\src/amqp_definitions.c ****     {
2266:Source\azure_iot_sdk\uamqp\src/amqp_definitions.c ****         begin_instance->composite_value = amqpvalue_clone(((BEGIN_INSTANCE*)value)->composite_value
2267:Source\azure_iot_sdk\uamqp\src/amqp_definitions.c ****         if (begin_instance->composite_value == NULL)
2268:Source\azure_iot_sdk\uamqp\src/amqp_definitions.c ****         {
2269:Source\azure_iot_sdk\uamqp\src/amqp_definitions.c ****             free(begin_instance);
2270:Source\azure_iot_sdk\uamqp\src/amqp_definitions.c ****             begin_instance = NULL;
2271:Source\azure_iot_sdk\uamqp\src/amqp_definitions.c ****         }
2272:Source\azure_iot_sdk\uamqp\src/amqp_definitions.c ****     }
ARM GAS  C:\Users\Phuong\AppData\Local\Temp\cczJKlkA.s 			page 43


2273:Source\azure_iot_sdk\uamqp\src/amqp_definitions.c **** 
2274:Source\azure_iot_sdk\uamqp\src/amqp_definitions.c ****     return begin_instance;
2275:Source\azure_iot_sdk\uamqp\src/amqp_definitions.c **** }
2276:Source\azure_iot_sdk\uamqp\src/amqp_definitions.c **** 
2277:Source\azure_iot_sdk\uamqp\src/amqp_definitions.c **** void begin_destroy(BEGIN_HANDLE begin)
2278:Source\azure_iot_sdk\uamqp\src/amqp_definitions.c **** {
2279:Source\azure_iot_sdk\uamqp\src/amqp_definitions.c ****     if (begin != NULL)
2280:Source\azure_iot_sdk\uamqp\src/amqp_definitions.c ****     {
2281:Source\azure_iot_sdk\uamqp\src/amqp_definitions.c ****         BEGIN_INSTANCE* begin_instance = (BEGIN_INSTANCE*)begin;
2282:Source\azure_iot_sdk\uamqp\src/amqp_definitions.c ****         amqpvalue_destroy(begin_instance->composite_value);
2283:Source\azure_iot_sdk\uamqp\src/amqp_definitions.c ****         free(begin_instance);
2284:Source\azure_iot_sdk\uamqp\src/amqp_definitions.c ****     }
2285:Source\azure_iot_sdk\uamqp\src/amqp_definitions.c **** }
2286:Source\azure_iot_sdk\uamqp\src/amqp_definitions.c **** 
2287:Source\azure_iot_sdk\uamqp\src/amqp_definitions.c **** AMQP_VALUE amqpvalue_create_begin(BEGIN_HANDLE begin)
2288:Source\azure_iot_sdk\uamqp\src/amqp_definitions.c **** {
2289:Source\azure_iot_sdk\uamqp\src/amqp_definitions.c ****     AMQP_VALUE result;
2290:Source\azure_iot_sdk\uamqp\src/amqp_definitions.c **** 
2291:Source\azure_iot_sdk\uamqp\src/amqp_definitions.c ****     if (begin == NULL)
2292:Source\azure_iot_sdk\uamqp\src/amqp_definitions.c ****     {
2293:Source\azure_iot_sdk\uamqp\src/amqp_definitions.c ****         result = NULL;
2294:Source\azure_iot_sdk\uamqp\src/amqp_definitions.c ****     }
2295:Source\azure_iot_sdk\uamqp\src/amqp_definitions.c ****     else
2296:Source\azure_iot_sdk\uamqp\src/amqp_definitions.c ****     {
2297:Source\azure_iot_sdk\uamqp\src/amqp_definitions.c ****         BEGIN_INSTANCE* begin_instance = (BEGIN_INSTANCE*)begin;
2298:Source\azure_iot_sdk\uamqp\src/amqp_definitions.c ****         result = amqpvalue_clone(begin_instance->composite_value);
2299:Source\azure_iot_sdk\uamqp\src/amqp_definitions.c ****     }
2300:Source\azure_iot_sdk\uamqp\src/amqp_definitions.c **** 
2301:Source\azure_iot_sdk\uamqp\src/amqp_definitions.c ****     return result;
2302:Source\azure_iot_sdk\uamqp\src/amqp_definitions.c **** }
2303:Source\azure_iot_sdk\uamqp\src/amqp_definitions.c **** 
2304:Source\azure_iot_sdk\uamqp\src/amqp_definitions.c **** bool is_begin_type_by_descriptor(AMQP_VALUE descriptor)
2305:Source\azure_iot_sdk\uamqp\src/amqp_definitions.c **** {
2306:Source\azure_iot_sdk\uamqp\src/amqp_definitions.c ****     bool result;
2307:Source\azure_iot_sdk\uamqp\src/amqp_definitions.c **** 
2308:Source\azure_iot_sdk\uamqp\src/amqp_definitions.c ****     uint64_t descriptor_ulong;
2309:Source\azure_iot_sdk\uamqp\src/amqp_definitions.c ****     if ((amqpvalue_get_ulong(descriptor, &descriptor_ulong) == 0) &&
2310:Source\azure_iot_sdk\uamqp\src/amqp_definitions.c ****         (descriptor_ulong == 17))
2311:Source\azure_iot_sdk\uamqp\src/amqp_definitions.c ****     {
2312:Source\azure_iot_sdk\uamqp\src/amqp_definitions.c ****         result = true;
2313:Source\azure_iot_sdk\uamqp\src/amqp_definitions.c ****     }
2314:Source\azure_iot_sdk\uamqp\src/amqp_definitions.c ****     else
2315:Source\azure_iot_sdk\uamqp\src/amqp_definitions.c ****     {
2316:Source\azure_iot_sdk\uamqp\src/amqp_definitions.c ****         result = false;
2317:Source\azure_iot_sdk\uamqp\src/amqp_definitions.c ****     }
2318:Source\azure_iot_sdk\uamqp\src/amqp_definitions.c **** 
2319:Source\azure_iot_sdk\uamqp\src/amqp_definitions.c ****     return result;
2320:Source\azure_iot_sdk\uamqp\src/amqp_definitions.c **** }
2321:Source\azure_iot_sdk\uamqp\src/amqp_definitions.c **** 
2322:Source\azure_iot_sdk\uamqp\src/amqp_definitions.c **** 
2323:Source\azure_iot_sdk\uamqp\src/amqp_definitions.c **** int amqpvalue_get_begin(AMQP_VALUE value, BEGIN_HANDLE* begin_handle)
2324:Source\azure_iot_sdk\uamqp\src/amqp_definitions.c **** {
2325:Source\azure_iot_sdk\uamqp\src/amqp_definitions.c ****     int result;
2326:Source\azure_iot_sdk\uamqp\src/amqp_definitions.c ****     BEGIN_INSTANCE* begin_instance = (BEGIN_INSTANCE*)begin_create_internal();
2327:Source\azure_iot_sdk\uamqp\src/amqp_definitions.c ****     *begin_handle = begin_instance;
2328:Source\azure_iot_sdk\uamqp\src/amqp_definitions.c ****     if (*begin_handle == NULL)
2329:Source\azure_iot_sdk\uamqp\src/amqp_definitions.c ****     {
ARM GAS  C:\Users\Phuong\AppData\Local\Temp\cczJKlkA.s 			page 44


2330:Source\azure_iot_sdk\uamqp\src/amqp_definitions.c ****         result = __FAILURE__;
2331:Source\azure_iot_sdk\uamqp\src/amqp_definitions.c ****     }
2332:Source\azure_iot_sdk\uamqp\src/amqp_definitions.c ****     else
2333:Source\azure_iot_sdk\uamqp\src/amqp_definitions.c ****     {
2334:Source\azure_iot_sdk\uamqp\src/amqp_definitions.c ****         AMQP_VALUE list_value = amqpvalue_get_inplace_described_value(value);
2335:Source\azure_iot_sdk\uamqp\src/amqp_definitions.c ****         if (list_value == NULL)
2336:Source\azure_iot_sdk\uamqp\src/amqp_definitions.c ****         {
2337:Source\azure_iot_sdk\uamqp\src/amqp_definitions.c ****             begin_destroy(*begin_handle);
2338:Source\azure_iot_sdk\uamqp\src/amqp_definitions.c ****             result = __FAILURE__;
2339:Source\azure_iot_sdk\uamqp\src/amqp_definitions.c ****         }
2340:Source\azure_iot_sdk\uamqp\src/amqp_definitions.c ****         else
2341:Source\azure_iot_sdk\uamqp\src/amqp_definitions.c ****         {
2342:Source\azure_iot_sdk\uamqp\src/amqp_definitions.c ****             uint32_t list_item_count;
2343:Source\azure_iot_sdk\uamqp\src/amqp_definitions.c ****             if (amqpvalue_get_list_item_count(list_value, &list_item_count) != 0)
2344:Source\azure_iot_sdk\uamqp\src/amqp_definitions.c ****             {
2345:Source\azure_iot_sdk\uamqp\src/amqp_definitions.c ****                 result = __FAILURE__;
2346:Source\azure_iot_sdk\uamqp\src/amqp_definitions.c ****             }
2347:Source\azure_iot_sdk\uamqp\src/amqp_definitions.c ****             else
2348:Source\azure_iot_sdk\uamqp\src/amqp_definitions.c ****             {
2349:Source\azure_iot_sdk\uamqp\src/amqp_definitions.c ****                 do
2350:Source\azure_iot_sdk\uamqp\src/amqp_definitions.c ****                 {
2351:Source\azure_iot_sdk\uamqp\src/amqp_definitions.c ****                     AMQP_VALUE item_value;
2352:Source\azure_iot_sdk\uamqp\src/amqp_definitions.c ****                     /* remote-channel */
2353:Source\azure_iot_sdk\uamqp\src/amqp_definitions.c ****                     if (list_item_count > 0)
2354:Source\azure_iot_sdk\uamqp\src/amqp_definitions.c ****                     {
2355:Source\azure_iot_sdk\uamqp\src/amqp_definitions.c ****                         item_value = amqpvalue_get_list_item(list_value, 0);
2356:Source\azure_iot_sdk\uamqp\src/amqp_definitions.c ****                         if (item_value == NULL)
2357:Source\azure_iot_sdk\uamqp\src/amqp_definitions.c ****                         {
2358:Source\azure_iot_sdk\uamqp\src/amqp_definitions.c ****                             /* do nothing */
2359:Source\azure_iot_sdk\uamqp\src/amqp_definitions.c ****                         }
2360:Source\azure_iot_sdk\uamqp\src/amqp_definitions.c ****                         else
2361:Source\azure_iot_sdk\uamqp\src/amqp_definitions.c ****                         {
2362:Source\azure_iot_sdk\uamqp\src/amqp_definitions.c ****                             if (amqpvalue_get_type(item_value) == AMQP_TYPE_NULL)
2363:Source\azure_iot_sdk\uamqp\src/amqp_definitions.c ****                             {
2364:Source\azure_iot_sdk\uamqp\src/amqp_definitions.c ****                                 /* no error, field is not mandatory */
2365:Source\azure_iot_sdk\uamqp\src/amqp_definitions.c ****                             }
2366:Source\azure_iot_sdk\uamqp\src/amqp_definitions.c ****                             else
2367:Source\azure_iot_sdk\uamqp\src/amqp_definitions.c ****                             {
2368:Source\azure_iot_sdk\uamqp\src/amqp_definitions.c ****                                 uint16_t remote_channel;
2369:Source\azure_iot_sdk\uamqp\src/amqp_definitions.c ****                                 if (amqpvalue_get_ushort(item_value, &remote_channel) != 0)
2370:Source\azure_iot_sdk\uamqp\src/amqp_definitions.c ****                                 {
2371:Source\azure_iot_sdk\uamqp\src/amqp_definitions.c ****                                     amqpvalue_destroy(item_value);
2372:Source\azure_iot_sdk\uamqp\src/amqp_definitions.c ****                                     begin_destroy(*begin_handle);
2373:Source\azure_iot_sdk\uamqp\src/amqp_definitions.c ****                                     result = __FAILURE__;
2374:Source\azure_iot_sdk\uamqp\src/amqp_definitions.c ****                                     break;
2375:Source\azure_iot_sdk\uamqp\src/amqp_definitions.c ****                                 }
2376:Source\azure_iot_sdk\uamqp\src/amqp_definitions.c ****                             }
2377:Source\azure_iot_sdk\uamqp\src/amqp_definitions.c **** 
2378:Source\azure_iot_sdk\uamqp\src/amqp_definitions.c ****                             amqpvalue_destroy(item_value);
2379:Source\azure_iot_sdk\uamqp\src/amqp_definitions.c ****                         }
2380:Source\azure_iot_sdk\uamqp\src/amqp_definitions.c ****                     }
2381:Source\azure_iot_sdk\uamqp\src/amqp_definitions.c ****                     /* next-outgoing-id */
2382:Source\azure_iot_sdk\uamqp\src/amqp_definitions.c ****                     if (list_item_count > 1)
2383:Source\azure_iot_sdk\uamqp\src/amqp_definitions.c ****                     {
2384:Source\azure_iot_sdk\uamqp\src/amqp_definitions.c ****                         item_value = amqpvalue_get_list_item(list_value, 1);
2385:Source\azure_iot_sdk\uamqp\src/amqp_definitions.c ****                         if (item_value == NULL)
2386:Source\azure_iot_sdk\uamqp\src/amqp_definitions.c ****                         {
ARM GAS  C:\Users\Phuong\AppData\Local\Temp\cczJKlkA.s 			page 45


2387:Source\azure_iot_sdk\uamqp\src/amqp_definitions.c ****                             {
2388:Source\azure_iot_sdk\uamqp\src/amqp_definitions.c ****                                 begin_destroy(*begin_handle);
2389:Source\azure_iot_sdk\uamqp\src/amqp_definitions.c ****                                 result = __FAILURE__;
2390:Source\azure_iot_sdk\uamqp\src/amqp_definitions.c ****                                 break;
2391:Source\azure_iot_sdk\uamqp\src/amqp_definitions.c ****                             }
2392:Source\azure_iot_sdk\uamqp\src/amqp_definitions.c ****                         }
2393:Source\azure_iot_sdk\uamqp\src/amqp_definitions.c ****                         else
2394:Source\azure_iot_sdk\uamqp\src/amqp_definitions.c ****                         {
2395:Source\azure_iot_sdk\uamqp\src/amqp_definitions.c ****                             if (amqpvalue_get_type(item_value) == AMQP_TYPE_NULL)
2396:Source\azure_iot_sdk\uamqp\src/amqp_definitions.c ****                             {
2397:Source\azure_iot_sdk\uamqp\src/amqp_definitions.c ****                                 amqpvalue_destroy(item_value);
2398:Source\azure_iot_sdk\uamqp\src/amqp_definitions.c ****                                 begin_destroy(*begin_handle);
2399:Source\azure_iot_sdk\uamqp\src/amqp_definitions.c ****                                 result = __FAILURE__;
2400:Source\azure_iot_sdk\uamqp\src/amqp_definitions.c ****                                 break;
2401:Source\azure_iot_sdk\uamqp\src/amqp_definitions.c ****                             }
2402:Source\azure_iot_sdk\uamqp\src/amqp_definitions.c ****                             else
2403:Source\azure_iot_sdk\uamqp\src/amqp_definitions.c ****                             {
2404:Source\azure_iot_sdk\uamqp\src/amqp_definitions.c ****                                 transfer_number next_outgoing_id;
2405:Source\azure_iot_sdk\uamqp\src/amqp_definitions.c ****                                 if (amqpvalue_get_transfer_number(item_value, &next_outgoing_id) !=
2406:Source\azure_iot_sdk\uamqp\src/amqp_definitions.c ****                                 {
2407:Source\azure_iot_sdk\uamqp\src/amqp_definitions.c ****                                     amqpvalue_destroy(item_value);
2408:Source\azure_iot_sdk\uamqp\src/amqp_definitions.c ****                                     begin_destroy(*begin_handle);
2409:Source\azure_iot_sdk\uamqp\src/amqp_definitions.c ****                                     result = __FAILURE__;
2410:Source\azure_iot_sdk\uamqp\src/amqp_definitions.c ****                                     break;
2411:Source\azure_iot_sdk\uamqp\src/amqp_definitions.c ****                                 }
2412:Source\azure_iot_sdk\uamqp\src/amqp_definitions.c ****                             }
2413:Source\azure_iot_sdk\uamqp\src/amqp_definitions.c **** 
2414:Source\azure_iot_sdk\uamqp\src/amqp_definitions.c ****                             amqpvalue_destroy(item_value);
2415:Source\azure_iot_sdk\uamqp\src/amqp_definitions.c ****                         }
2416:Source\azure_iot_sdk\uamqp\src/amqp_definitions.c ****                     }
2417:Source\azure_iot_sdk\uamqp\src/amqp_definitions.c ****                     else
2418:Source\azure_iot_sdk\uamqp\src/amqp_definitions.c ****                     {
2419:Source\azure_iot_sdk\uamqp\src/amqp_definitions.c ****                         result = __FAILURE__;
2420:Source\azure_iot_sdk\uamqp\src/amqp_definitions.c ****                     }
2421:Source\azure_iot_sdk\uamqp\src/amqp_definitions.c ****                     /* incoming-window */
2422:Source\azure_iot_sdk\uamqp\src/amqp_definitions.c ****                     if (list_item_count > 2)
2423:Source\azure_iot_sdk\uamqp\src/amqp_definitions.c ****                     {
2424:Source\azure_iot_sdk\uamqp\src/amqp_definitions.c ****                         item_value = amqpvalue_get_list_item(list_value, 2);
2425:Source\azure_iot_sdk\uamqp\src/amqp_definitions.c ****                         if (item_value == NULL)
2426:Source\azure_iot_sdk\uamqp\src/amqp_definitions.c ****                         {
2427:Source\azure_iot_sdk\uamqp\src/amqp_definitions.c ****                             {
2428:Source\azure_iot_sdk\uamqp\src/amqp_definitions.c ****                                 begin_destroy(*begin_handle);
2429:Source\azure_iot_sdk\uamqp\src/amqp_definitions.c ****                                 result = __FAILURE__;
2430:Source\azure_iot_sdk\uamqp\src/amqp_definitions.c ****                                 break;
2431:Source\azure_iot_sdk\uamqp\src/amqp_definitions.c ****                             }
2432:Source\azure_iot_sdk\uamqp\src/amqp_definitions.c ****                         }
2433:Source\azure_iot_sdk\uamqp\src/amqp_definitions.c ****                         else
2434:Source\azure_iot_sdk\uamqp\src/amqp_definitions.c ****                         {
2435:Source\azure_iot_sdk\uamqp\src/amqp_definitions.c ****                             if (amqpvalue_get_type(item_value) == AMQP_TYPE_NULL)
2436:Source\azure_iot_sdk\uamqp\src/amqp_definitions.c ****                             {
2437:Source\azure_iot_sdk\uamqp\src/amqp_definitions.c ****                                 amqpvalue_destroy(item_value);
2438:Source\azure_iot_sdk\uamqp\src/amqp_definitions.c ****                                 begin_destroy(*begin_handle);
2439:Source\azure_iot_sdk\uamqp\src/amqp_definitions.c ****                                 result = __FAILURE__;
2440:Source\azure_iot_sdk\uamqp\src/amqp_definitions.c ****                                 break;
2441:Source\azure_iot_sdk\uamqp\src/amqp_definitions.c ****                             }
2442:Source\azure_iot_sdk\uamqp\src/amqp_definitions.c ****                             else
2443:Source\azure_iot_sdk\uamqp\src/amqp_definitions.c ****                             {
ARM GAS  C:\Users\Phuong\AppData\Local\Temp\cczJKlkA.s 			page 46


2444:Source\azure_iot_sdk\uamqp\src/amqp_definitions.c ****                                 uint32_t incoming_window;
2445:Source\azure_iot_sdk\uamqp\src/amqp_definitions.c ****                                 if (amqpvalue_get_uint(item_value, &incoming_window) != 0)
2446:Source\azure_iot_sdk\uamqp\src/amqp_definitions.c ****                                 {
2447:Source\azure_iot_sdk\uamqp\src/amqp_definitions.c ****                                     amqpvalue_destroy(item_value);
2448:Source\azure_iot_sdk\uamqp\src/amqp_definitions.c ****                                     begin_destroy(*begin_handle);
2449:Source\azure_iot_sdk\uamqp\src/amqp_definitions.c ****                                     result = __FAILURE__;
2450:Source\azure_iot_sdk\uamqp\src/amqp_definitions.c ****                                     break;
2451:Source\azure_iot_sdk\uamqp\src/amqp_definitions.c ****                                 }
2452:Source\azure_iot_sdk\uamqp\src/amqp_definitions.c ****                             }
2453:Source\azure_iot_sdk\uamqp\src/amqp_definitions.c **** 
2454:Source\azure_iot_sdk\uamqp\src/amqp_definitions.c ****                             amqpvalue_destroy(item_value);
2455:Source\azure_iot_sdk\uamqp\src/amqp_definitions.c ****                         }
2456:Source\azure_iot_sdk\uamqp\src/amqp_definitions.c ****                     }
2457:Source\azure_iot_sdk\uamqp\src/amqp_definitions.c ****                     else
2458:Source\azure_iot_sdk\uamqp\src/amqp_definitions.c ****                     {
2459:Source\azure_iot_sdk\uamqp\src/amqp_definitions.c ****                         result = __FAILURE__;
2460:Source\azure_iot_sdk\uamqp\src/amqp_definitions.c ****                     }
2461:Source\azure_iot_sdk\uamqp\src/amqp_definitions.c ****                     /* outgoing-window */
2462:Source\azure_iot_sdk\uamqp\src/amqp_definitions.c ****                     if (list_item_count > 3)
2463:Source\azure_iot_sdk\uamqp\src/amqp_definitions.c ****                     {
2464:Source\azure_iot_sdk\uamqp\src/amqp_definitions.c ****                         item_value = amqpvalue_get_list_item(list_value, 3);
2465:Source\azure_iot_sdk\uamqp\src/amqp_definitions.c ****                         if (item_value == NULL)
2466:Source\azure_iot_sdk\uamqp\src/amqp_definitions.c ****                         {
2467:Source\azure_iot_sdk\uamqp\src/amqp_definitions.c ****                             {
2468:Source\azure_iot_sdk\uamqp\src/amqp_definitions.c ****                                 begin_destroy(*begin_handle);
2469:Source\azure_iot_sdk\uamqp\src/amqp_definitions.c ****                                 result = __FAILURE__;
2470:Source\azure_iot_sdk\uamqp\src/amqp_definitions.c ****                                 break;
2471:Source\azure_iot_sdk\uamqp\src/amqp_definitions.c ****                             }
2472:Source\azure_iot_sdk\uamqp\src/amqp_definitions.c ****                         }
2473:Source\azure_iot_sdk\uamqp\src/amqp_definitions.c ****                         else
2474:Source\azure_iot_sdk\uamqp\src/amqp_definitions.c ****                         {
2475:Source\azure_iot_sdk\uamqp\src/amqp_definitions.c ****                             if (amqpvalue_get_type(item_value) == AMQP_TYPE_NULL)
2476:Source\azure_iot_sdk\uamqp\src/amqp_definitions.c ****                             {
2477:Source\azure_iot_sdk\uamqp\src/amqp_definitions.c ****                                 amqpvalue_destroy(item_value);
2478:Source\azure_iot_sdk\uamqp\src/amqp_definitions.c ****                                 begin_destroy(*begin_handle);
2479:Source\azure_iot_sdk\uamqp\src/amqp_definitions.c ****                                 result = __FAILURE__;
2480:Source\azure_iot_sdk\uamqp\src/amqp_definitions.c ****                                 break;
2481:Source\azure_iot_sdk\uamqp\src/amqp_definitions.c ****                             }
2482:Source\azure_iot_sdk\uamqp\src/amqp_definitions.c ****                             else
2483:Source\azure_iot_sdk\uamqp\src/amqp_definitions.c ****                             {
2484:Source\azure_iot_sdk\uamqp\src/amqp_definitions.c ****                                 uint32_t outgoing_window;
2485:Source\azure_iot_sdk\uamqp\src/amqp_definitions.c ****                                 if (amqpvalue_get_uint(item_value, &outgoing_window) != 0)
2486:Source\azure_iot_sdk\uamqp\src/amqp_definitions.c ****                                 {
2487:Source\azure_iot_sdk\uamqp\src/amqp_definitions.c ****                                     amqpvalue_destroy(item_value);
2488:Source\azure_iot_sdk\uamqp\src/amqp_definitions.c ****                                     begin_destroy(*begin_handle);
2489:Source\azure_iot_sdk\uamqp\src/amqp_definitions.c ****                                     result = __FAILURE__;
2490:Source\azure_iot_sdk\uamqp\src/amqp_definitions.c ****                                     break;
2491:Source\azure_iot_sdk\uamqp\src/amqp_definitions.c ****                                 }
2492:Source\azure_iot_sdk\uamqp\src/amqp_definitions.c ****                             }
2493:Source\azure_iot_sdk\uamqp\src/amqp_definitions.c **** 
2494:Source\azure_iot_sdk\uamqp\src/amqp_definitions.c ****                             amqpvalue_destroy(item_value);
2495:Source\azure_iot_sdk\uamqp\src/amqp_definitions.c ****                         }
2496:Source\azure_iot_sdk\uamqp\src/amqp_definitions.c ****                     }
2497:Source\azure_iot_sdk\uamqp\src/amqp_definitions.c ****                     else
2498:Source\azure_iot_sdk\uamqp\src/amqp_definitions.c ****                     {
2499:Source\azure_iot_sdk\uamqp\src/amqp_definitions.c ****                         result = __FAILURE__;
2500:Source\azure_iot_sdk\uamqp\src/amqp_definitions.c ****                     }
ARM GAS  C:\Users\Phuong\AppData\Local\Temp\cczJKlkA.s 			page 47


2501:Source\azure_iot_sdk\uamqp\src/amqp_definitions.c ****                     /* handle-max */
2502:Source\azure_iot_sdk\uamqp\src/amqp_definitions.c ****                     if (list_item_count > 4)
2503:Source\azure_iot_sdk\uamqp\src/amqp_definitions.c ****                     {
2504:Source\azure_iot_sdk\uamqp\src/amqp_definitions.c ****                         item_value = amqpvalue_get_list_item(list_value, 4);
2505:Source\azure_iot_sdk\uamqp\src/amqp_definitions.c ****                         if (item_value == NULL)
2506:Source\azure_iot_sdk\uamqp\src/amqp_definitions.c ****                         {
2507:Source\azure_iot_sdk\uamqp\src/amqp_definitions.c ****                             /* do nothing */
2508:Source\azure_iot_sdk\uamqp\src/amqp_definitions.c ****                         }
2509:Source\azure_iot_sdk\uamqp\src/amqp_definitions.c ****                         else
2510:Source\azure_iot_sdk\uamqp\src/amqp_definitions.c ****                         {
2511:Source\azure_iot_sdk\uamqp\src/amqp_definitions.c ****                             if (amqpvalue_get_type(item_value) == AMQP_TYPE_NULL)
2512:Source\azure_iot_sdk\uamqp\src/amqp_definitions.c ****                             {
2513:Source\azure_iot_sdk\uamqp\src/amqp_definitions.c ****                                 /* no error, field is not mandatory */
2514:Source\azure_iot_sdk\uamqp\src/amqp_definitions.c ****                             }
2515:Source\azure_iot_sdk\uamqp\src/amqp_definitions.c ****                             else
2516:Source\azure_iot_sdk\uamqp\src/amqp_definitions.c ****                             {
2517:Source\azure_iot_sdk\uamqp\src/amqp_definitions.c ****                                 handle handle_max;
2518:Source\azure_iot_sdk\uamqp\src/amqp_definitions.c ****                                 if (amqpvalue_get_handle(item_value, &handle_max) != 0)
2519:Source\azure_iot_sdk\uamqp\src/amqp_definitions.c ****                                 {
2520:Source\azure_iot_sdk\uamqp\src/amqp_definitions.c ****                                     amqpvalue_destroy(item_value);
2521:Source\azure_iot_sdk\uamqp\src/amqp_definitions.c ****                                     begin_destroy(*begin_handle);
2522:Source\azure_iot_sdk\uamqp\src/amqp_definitions.c ****                                     result = __FAILURE__;
2523:Source\azure_iot_sdk\uamqp\src/amqp_definitions.c ****                                     break;
2524:Source\azure_iot_sdk\uamqp\src/amqp_definitions.c ****                                 }
2525:Source\azure_iot_sdk\uamqp\src/amqp_definitions.c ****                             }
2526:Source\azure_iot_sdk\uamqp\src/amqp_definitions.c **** 
2527:Source\azure_iot_sdk\uamqp\src/amqp_definitions.c ****                             amqpvalue_destroy(item_value);
2528:Source\azure_iot_sdk\uamqp\src/amqp_definitions.c ****                         }
2529:Source\azure_iot_sdk\uamqp\src/amqp_definitions.c ****                     }
2530:Source\azure_iot_sdk\uamqp\src/amqp_definitions.c ****                     /* offered-capabilities */
2531:Source\azure_iot_sdk\uamqp\src/amqp_definitions.c ****                     if (list_item_count > 5)
2532:Source\azure_iot_sdk\uamqp\src/amqp_definitions.c ****                     {
2533:Source\azure_iot_sdk\uamqp\src/amqp_definitions.c ****                         item_value = amqpvalue_get_list_item(list_value, 5);
2534:Source\azure_iot_sdk\uamqp\src/amqp_definitions.c ****                         if (item_value == NULL)
2535:Source\azure_iot_sdk\uamqp\src/amqp_definitions.c ****                         {
2536:Source\azure_iot_sdk\uamqp\src/amqp_definitions.c ****                             /* do nothing */
2537:Source\azure_iot_sdk\uamqp\src/amqp_definitions.c ****                         }
2538:Source\azure_iot_sdk\uamqp\src/amqp_definitions.c ****                         else
2539:Source\azure_iot_sdk\uamqp\src/amqp_definitions.c ****                         {
2540:Source\azure_iot_sdk\uamqp\src/amqp_definitions.c ****                             if (amqpvalue_get_type(item_value) == AMQP_TYPE_NULL)
2541:Source\azure_iot_sdk\uamqp\src/amqp_definitions.c ****                             {
2542:Source\azure_iot_sdk\uamqp\src/amqp_definitions.c ****                                 /* no error, field is not mandatory */
2543:Source\azure_iot_sdk\uamqp\src/amqp_definitions.c ****                             }
2544:Source\azure_iot_sdk\uamqp\src/amqp_definitions.c ****                             else
2545:Source\azure_iot_sdk\uamqp\src/amqp_definitions.c ****                             {
2546:Source\azure_iot_sdk\uamqp\src/amqp_definitions.c ****                                 const char* offered_capabilities = NULL;
2547:Source\azure_iot_sdk\uamqp\src/amqp_definitions.c ****                                 AMQP_VALUE offered_capabilities_array;
2548:Source\azure_iot_sdk\uamqp\src/amqp_definitions.c ****                                 if (((amqpvalue_get_type(item_value) != AMQP_TYPE_ARRAY) || (amqpva
2549:Source\azure_iot_sdk\uamqp\src/amqp_definitions.c ****                                     (amqpvalue_get_symbol(item_value, &offered_capabilities) != 0))
2550:Source\azure_iot_sdk\uamqp\src/amqp_definitions.c ****                                 {
2551:Source\azure_iot_sdk\uamqp\src/amqp_definitions.c ****                                     amqpvalue_destroy(item_value);
2552:Source\azure_iot_sdk\uamqp\src/amqp_definitions.c ****                                     begin_destroy(*begin_handle);
2553:Source\azure_iot_sdk\uamqp\src/amqp_definitions.c ****                                     result = __FAILURE__;
2554:Source\azure_iot_sdk\uamqp\src/amqp_definitions.c ****                                     break;
2555:Source\azure_iot_sdk\uamqp\src/amqp_definitions.c ****                                 }
2556:Source\azure_iot_sdk\uamqp\src/amqp_definitions.c ****                             }
2557:Source\azure_iot_sdk\uamqp\src/amqp_definitions.c **** 
ARM GAS  C:\Users\Phuong\AppData\Local\Temp\cczJKlkA.s 			page 48


2558:Source\azure_iot_sdk\uamqp\src/amqp_definitions.c ****                             amqpvalue_destroy(item_value);
2559:Source\azure_iot_sdk\uamqp\src/amqp_definitions.c ****                         }
2560:Source\azure_iot_sdk\uamqp\src/amqp_definitions.c ****                     }
2561:Source\azure_iot_sdk\uamqp\src/amqp_definitions.c ****                     /* desired-capabilities */
2562:Source\azure_iot_sdk\uamqp\src/amqp_definitions.c ****                     if (list_item_count > 6)
2563:Source\azure_iot_sdk\uamqp\src/amqp_definitions.c ****                     {
2564:Source\azure_iot_sdk\uamqp\src/amqp_definitions.c ****                         item_value = amqpvalue_get_list_item(list_value, 6);
2565:Source\azure_iot_sdk\uamqp\src/amqp_definitions.c ****                         if (item_value == NULL)
2566:Source\azure_iot_sdk\uamqp\src/amqp_definitions.c ****                         {
2567:Source\azure_iot_sdk\uamqp\src/amqp_definitions.c ****                             /* do nothing */
2568:Source\azure_iot_sdk\uamqp\src/amqp_definitions.c ****                         }
2569:Source\azure_iot_sdk\uamqp\src/amqp_definitions.c ****                         else
2570:Source\azure_iot_sdk\uamqp\src/amqp_definitions.c ****                         {
2571:Source\azure_iot_sdk\uamqp\src/amqp_definitions.c ****                             if (amqpvalue_get_type(item_value) == AMQP_TYPE_NULL)
2572:Source\azure_iot_sdk\uamqp\src/amqp_definitions.c ****                             {
2573:Source\azure_iot_sdk\uamqp\src/amqp_definitions.c ****                                 /* no error, field is not mandatory */
2574:Source\azure_iot_sdk\uamqp\src/amqp_definitions.c ****                             }
2575:Source\azure_iot_sdk\uamqp\src/amqp_definitions.c ****                             else
2576:Source\azure_iot_sdk\uamqp\src/amqp_definitions.c ****                             {
2577:Source\azure_iot_sdk\uamqp\src/amqp_definitions.c ****                                 const char* desired_capabilities = NULL;
2578:Source\azure_iot_sdk\uamqp\src/amqp_definitions.c ****                                 AMQP_VALUE desired_capabilities_array;
2579:Source\azure_iot_sdk\uamqp\src/amqp_definitions.c ****                                 if (((amqpvalue_get_type(item_value) != AMQP_TYPE_ARRAY) || (amqpva
2580:Source\azure_iot_sdk\uamqp\src/amqp_definitions.c ****                                     (amqpvalue_get_symbol(item_value, &desired_capabilities) != 0))
2581:Source\azure_iot_sdk\uamqp\src/amqp_definitions.c ****                                 {
2582:Source\azure_iot_sdk\uamqp\src/amqp_definitions.c ****                                     amqpvalue_destroy(item_value);
2583:Source\azure_iot_sdk\uamqp\src/amqp_definitions.c ****                                     begin_destroy(*begin_handle);
2584:Source\azure_iot_sdk\uamqp\src/amqp_definitions.c ****                                     result = __FAILURE__;
2585:Source\azure_iot_sdk\uamqp\src/amqp_definitions.c ****                                     break;
2586:Source\azure_iot_sdk\uamqp\src/amqp_definitions.c ****                                 }
2587:Source\azure_iot_sdk\uamqp\src/amqp_definitions.c ****                             }
2588:Source\azure_iot_sdk\uamqp\src/amqp_definitions.c **** 
2589:Source\azure_iot_sdk\uamqp\src/amqp_definitions.c ****                             amqpvalue_destroy(item_value);
2590:Source\azure_iot_sdk\uamqp\src/amqp_definitions.c ****                         }
2591:Source\azure_iot_sdk\uamqp\src/amqp_definitions.c ****                     }
2592:Source\azure_iot_sdk\uamqp\src/amqp_definitions.c ****                     /* properties */
2593:Source\azure_iot_sdk\uamqp\src/amqp_definitions.c ****                     if (list_item_count > 7)
2594:Source\azure_iot_sdk\uamqp\src/amqp_definitions.c ****                     {
2595:Source\azure_iot_sdk\uamqp\src/amqp_definitions.c ****                         item_value = amqpvalue_get_list_item(list_value, 7);
2596:Source\azure_iot_sdk\uamqp\src/amqp_definitions.c ****                         if (item_value == NULL)
2597:Source\azure_iot_sdk\uamqp\src/amqp_definitions.c ****                         {
2598:Source\azure_iot_sdk\uamqp\src/amqp_definitions.c ****                             /* do nothing */
2599:Source\azure_iot_sdk\uamqp\src/amqp_definitions.c ****                         }
2600:Source\azure_iot_sdk\uamqp\src/amqp_definitions.c ****                         else
2601:Source\azure_iot_sdk\uamqp\src/amqp_definitions.c ****                         {
2602:Source\azure_iot_sdk\uamqp\src/amqp_definitions.c ****                             if (amqpvalue_get_type(item_value) == AMQP_TYPE_NULL)
2603:Source\azure_iot_sdk\uamqp\src/amqp_definitions.c ****                             {
