ARM GAS  C:\Users\Phuong\AppData\Local\Temp\ccdTtd1y.s 			page 1


   1              		.syntax unified
   2              		.cpu cortex-m0plus
   3              		.fpu softvfp
   4              		.eabi_attribute 20, 1
   5              		.eabi_attribute 21, 1
   6              		.eabi_attribute 23, 3
   7              		.eabi_attribute 24, 1
   8              		.eabi_attribute 25, 1
   9              		.eabi_attribute 26, 1
  10              		.eabi_attribute 30, 1
  11              		.eabi_attribute 34, 0
  12              		.eabi_attribute 18, 4
  13              		.thumb
  14              		.syntax unified
  15              		.file	"amqp_management.c"
  16              		.text
  17              	.Ltext0:
  18              		.cfi_sections	.debug_frame
  19              		.section	.text.on_message_receiver_state_changed,"ax",%progbits
  20              		.align	2
  21              		.code	16
  22              		.thumb_func
  23              		.type	on_message_receiver_state_changed, %function
  24              	on_message_receiver_state_changed:
  25              	.LFB4:
  26              		.file 1 "Source\\azure_iot_sdk\\uamqp\\src\\amqp_management.c"
   1:Source\azure_iot_sdk\uamqp\src/amqp_management.c **** // Copyright (c) Microsoft. All rights reserved.
   2:Source\azure_iot_sdk\uamqp\src/amqp_management.c **** // Licensed under the MIT license. See LICENSE file in the project root for full license informatio
   3:Source\azure_iot_sdk\uamqp\src/amqp_management.c **** 
   4:Source\azure_iot_sdk\uamqp\src/amqp_management.c **** #include <stdlib.h>
   5:Source\azure_iot_sdk\uamqp\src/amqp_management.c **** #include <stdio.h>
   6:Source\azure_iot_sdk\uamqp\src/amqp_management.c **** #include <stdbool.h>
   7:Source\azure_iot_sdk\uamqp\src/amqp_management.c **** #include <string.h>
   8:Source\azure_iot_sdk\uamqp\src/amqp_management.c **** #include "azure_c_shared_utility/optimize_size.h"
   9:Source\azure_iot_sdk\uamqp\src/amqp_management.c **** #include "azure_c_shared_utility/gballoc.h"
  10:Source\azure_iot_sdk\uamqp\src/amqp_management.c **** #include "azure_c_shared_utility/singlylinkedlist.h"
  11:Source\azure_iot_sdk\uamqp\src/amqp_management.c **** #include "azure_c_shared_utility/xlogging.h"
  12:Source\azure_iot_sdk\uamqp\src/amqp_management.c **** #include "azure_c_shared_utility/crt_abstractions.h"
  13:Source\azure_iot_sdk\uamqp\src/amqp_management.c **** #include "azure_uamqp_c/amqp_management.h"
  14:Source\azure_iot_sdk\uamqp\src/amqp_management.c **** #include "azure_uamqp_c/link.h"
  15:Source\azure_iot_sdk\uamqp\src/amqp_management.c **** #include "azure_uamqp_c/message_sender.h"
  16:Source\azure_iot_sdk\uamqp\src/amqp_management.c **** #include "azure_uamqp_c/message_receiver.h"
  17:Source\azure_iot_sdk\uamqp\src/amqp_management.c **** #include "azure_uamqp_c/messaging.h"
  18:Source\azure_iot_sdk\uamqp\src/amqp_management.c **** #include "azure_uamqp_c/amqp_definitions.h"
  19:Source\azure_iot_sdk\uamqp\src/amqp_management.c **** 
  20:Source\azure_iot_sdk\uamqp\src/amqp_management.c **** static const char sender_suffix[] = "-sender";
  21:Source\azure_iot_sdk\uamqp\src/amqp_management.c **** static const char receiver_suffix[] = "-receiver";
  22:Source\azure_iot_sdk\uamqp\src/amqp_management.c **** 
  23:Source\azure_iot_sdk\uamqp\src/amqp_management.c **** #define COUNT_CHARS(str) (sizeof(str) / sizeof((str)[0]) - 1)
  24:Source\azure_iot_sdk\uamqp\src/amqp_management.c **** 
  25:Source\azure_iot_sdk\uamqp\src/amqp_management.c **** typedef struct OPERATION_MESSAGE_INSTANCE_TAG
  26:Source\azure_iot_sdk\uamqp\src/amqp_management.c **** {
  27:Source\azure_iot_sdk\uamqp\src/amqp_management.c ****     ON_AMQP_MANAGEMENT_EXECUTE_OPERATION_COMPLETE on_execute_operation_complete;
  28:Source\azure_iot_sdk\uamqp\src/amqp_management.c ****     void* callback_context;
  29:Source\azure_iot_sdk\uamqp\src/amqp_management.c ****     uint64_t message_id;
  30:Source\azure_iot_sdk\uamqp\src/amqp_management.c ****     AMQP_MANAGEMENT_HANDLE amqp_management;
  31:Source\azure_iot_sdk\uamqp\src/amqp_management.c **** } OPERATION_MESSAGE_INSTANCE;
ARM GAS  C:\Users\Phuong\AppData\Local\Temp\ccdTtd1y.s 			page 2


  32:Source\azure_iot_sdk\uamqp\src/amqp_management.c **** 
  33:Source\azure_iot_sdk\uamqp\src/amqp_management.c **** typedef enum AMQP_MANAGEMENT_STATE_TAG
  34:Source\azure_iot_sdk\uamqp\src/amqp_management.c **** {
  35:Source\azure_iot_sdk\uamqp\src/amqp_management.c ****     AMQP_MANAGEMENT_STATE_IDLE,
  36:Source\azure_iot_sdk\uamqp\src/amqp_management.c ****     AMQP_MANAGEMENT_STATE_OPENING,
  37:Source\azure_iot_sdk\uamqp\src/amqp_management.c ****     AMQP_MANAGEMENT_STATE_CLOSING,
  38:Source\azure_iot_sdk\uamqp\src/amqp_management.c ****     AMQP_MANAGEMENT_STATE_OPEN,
  39:Source\azure_iot_sdk\uamqp\src/amqp_management.c ****     AMQP_MANAGEMENT_STATE_ERROR
  40:Source\azure_iot_sdk\uamqp\src/amqp_management.c **** } AMQP_MANAGEMENT_STATE;
  41:Source\azure_iot_sdk\uamqp\src/amqp_management.c **** 
  42:Source\azure_iot_sdk\uamqp\src/amqp_management.c **** typedef struct AMQP_MANAGEMENT_INSTANCE_TAG
  43:Source\azure_iot_sdk\uamqp\src/amqp_management.c **** {
  44:Source\azure_iot_sdk\uamqp\src/amqp_management.c ****     LINK_HANDLE sender_link;
  45:Source\azure_iot_sdk\uamqp\src/amqp_management.c ****     LINK_HANDLE receiver_link;
  46:Source\azure_iot_sdk\uamqp\src/amqp_management.c ****     MESSAGE_SENDER_HANDLE message_sender;
  47:Source\azure_iot_sdk\uamqp\src/amqp_management.c ****     MESSAGE_RECEIVER_HANDLE message_receiver;
  48:Source\azure_iot_sdk\uamqp\src/amqp_management.c ****     SINGLYLINKEDLIST_HANDLE pending_operations;
  49:Source\azure_iot_sdk\uamqp\src/amqp_management.c ****     uint64_t next_message_id;
  50:Source\azure_iot_sdk\uamqp\src/amqp_management.c ****     ON_AMQP_MANAGEMENT_OPEN_COMPLETE on_amqp_management_open_complete;
  51:Source\azure_iot_sdk\uamqp\src/amqp_management.c ****     void* on_amqp_management_open_complete_context;
  52:Source\azure_iot_sdk\uamqp\src/amqp_management.c ****     ON_AMQP_MANAGEMENT_ERROR on_amqp_management_error;
  53:Source\azure_iot_sdk\uamqp\src/amqp_management.c ****     void* on_amqp_management_error_context;
  54:Source\azure_iot_sdk\uamqp\src/amqp_management.c ****     AMQP_MANAGEMENT_STATE amqp_management_state;
  55:Source\azure_iot_sdk\uamqp\src/amqp_management.c ****     char* status_code_key_name;
  56:Source\azure_iot_sdk\uamqp\src/amqp_management.c ****     char* status_description_key_name;
  57:Source\azure_iot_sdk\uamqp\src/amqp_management.c ****     unsigned int sender_connected : 1;
  58:Source\azure_iot_sdk\uamqp\src/amqp_management.c ****     unsigned int receiver_connected : 1;
  59:Source\azure_iot_sdk\uamqp\src/amqp_management.c **** } AMQP_MANAGEMENT_INSTANCE;
  60:Source\azure_iot_sdk\uamqp\src/amqp_management.c **** 
  61:Source\azure_iot_sdk\uamqp\src/amqp_management.c **** static AMQP_VALUE on_message_received(const void* context, MESSAGE_HANDLE message)
  62:Source\azure_iot_sdk\uamqp\src/amqp_management.c **** {
  63:Source\azure_iot_sdk\uamqp\src/amqp_management.c ****     AMQP_VALUE result;
  64:Source\azure_iot_sdk\uamqp\src/amqp_management.c **** 
  65:Source\azure_iot_sdk\uamqp\src/amqp_management.c ****     if (context == NULL)
  66:Source\azure_iot_sdk\uamqp\src/amqp_management.c ****     {
  67:Source\azure_iot_sdk\uamqp\src/amqp_management.c ****         /* Codes_SRS_AMQP_MANAGEMENT_01_108: [ When `on_message_received` is called with a NULL con
  68:Source\azure_iot_sdk\uamqp\src/amqp_management.c ****         LogError("NULL context in on_message_received");
  69:Source\azure_iot_sdk\uamqp\src/amqp_management.c ****         result = NULL;
  70:Source\azure_iot_sdk\uamqp\src/amqp_management.c ****     }
  71:Source\azure_iot_sdk\uamqp\src/amqp_management.c ****     else
  72:Source\azure_iot_sdk\uamqp\src/amqp_management.c ****     {
  73:Source\azure_iot_sdk\uamqp\src/amqp_management.c ****         AMQP_MANAGEMENT_HANDLE amqp_management = (AMQP_MANAGEMENT_HANDLE)context;
  74:Source\azure_iot_sdk\uamqp\src/amqp_management.c ****         AMQP_VALUE application_properties;
  75:Source\azure_iot_sdk\uamqp\src/amqp_management.c **** 
  76:Source\azure_iot_sdk\uamqp\src/amqp_management.c ****         /* Codes_SRS_AMQP_MANAGEMENT_01_109: [ `on_message_received` shall obtain the application p
  77:Source\azure_iot_sdk\uamqp\src/amqp_management.c ****         if (message_get_application_properties(message, &application_properties) != 0)
  78:Source\azure_iot_sdk\uamqp\src/amqp_management.c ****         {
  79:Source\azure_iot_sdk\uamqp\src/amqp_management.c ****             /* Codes_SRS_AMQP_MANAGEMENT_01_113: [ If obtaining the application properties or messa
  80:Source\azure_iot_sdk\uamqp\src/amqp_management.c ****             LogError("Could not retrieve application properties");
  81:Source\azure_iot_sdk\uamqp\src/amqp_management.c ****             amqp_management->on_amqp_management_error(amqp_management->on_amqp_management_error_con
  82:Source\azure_iot_sdk\uamqp\src/amqp_management.c ****             /* Codes_SRS_AMQP_MANAGEMENT_01_136: [ When `on_message_received` fails due to errors i
  83:Source\azure_iot_sdk\uamqp\src/amqp_management.c ****             result = messaging_delivery_rejected("amqp:internal-error", "Could not get application 
  84:Source\azure_iot_sdk\uamqp\src/amqp_management.c ****         }
  85:Source\azure_iot_sdk\uamqp\src/amqp_management.c ****         else
  86:Source\azure_iot_sdk\uamqp\src/amqp_management.c ****         {
  87:Source\azure_iot_sdk\uamqp\src/amqp_management.c ****             PROPERTIES_HANDLE response_properties;
  88:Source\azure_iot_sdk\uamqp\src/amqp_management.c **** 
ARM GAS  C:\Users\Phuong\AppData\Local\Temp\ccdTtd1y.s 			page 3


  89:Source\azure_iot_sdk\uamqp\src/amqp_management.c ****             /* Codes_SRS_AMQP_MANAGEMENT_01_110: [ `on_message_received` shall obtain the message p
  90:Source\azure_iot_sdk\uamqp\src/amqp_management.c ****             if (message_get_properties(message, &response_properties) != 0)
  91:Source\azure_iot_sdk\uamqp\src/amqp_management.c ****             {
  92:Source\azure_iot_sdk\uamqp\src/amqp_management.c ****                 /* Codes_SRS_AMQP_MANAGEMENT_01_113: [ If obtaining the application properties or m
  93:Source\azure_iot_sdk\uamqp\src/amqp_management.c ****                 LogError("Could not retrieve message properties");
  94:Source\azure_iot_sdk\uamqp\src/amqp_management.c ****                 amqp_management->on_amqp_management_error(amqp_management->on_amqp_management_error
  95:Source\azure_iot_sdk\uamqp\src/amqp_management.c ****                 /* Codes_SRS_AMQP_MANAGEMENT_01_136: [ When `on_message_received` fails due to erro
  96:Source\azure_iot_sdk\uamqp\src/amqp_management.c ****                 result = messaging_delivery_rejected("amqp:internal-error", "Could not get message 
  97:Source\azure_iot_sdk\uamqp\src/amqp_management.c ****             }
  98:Source\azure_iot_sdk\uamqp\src/amqp_management.c ****             else
  99:Source\azure_iot_sdk\uamqp\src/amqp_management.c ****             {
 100:Source\azure_iot_sdk\uamqp\src/amqp_management.c ****                 AMQP_VALUE key;
 101:Source\azure_iot_sdk\uamqp\src/amqp_management.c ****                 AMQP_VALUE value;
 102:Source\azure_iot_sdk\uamqp\src/amqp_management.c ****                 AMQP_VALUE desc_key;
 103:Source\azure_iot_sdk\uamqp\src/amqp_management.c ****                 AMQP_VALUE desc_value;
 104:Source\azure_iot_sdk\uamqp\src/amqp_management.c ****                 AMQP_VALUE map;
 105:Source\azure_iot_sdk\uamqp\src/amqp_management.c ****                 AMQP_VALUE correlation_id_value;
 106:Source\azure_iot_sdk\uamqp\src/amqp_management.c ****                 uint64_t correlation_id;
 107:Source\azure_iot_sdk\uamqp\src/amqp_management.c **** 
 108:Source\azure_iot_sdk\uamqp\src/amqp_management.c ****                 /* Codes_SRS_AMQP_MANAGEMENT_01_111: [ `on_message_received` shall obtain the corre
 109:Source\azure_iot_sdk\uamqp\src/amqp_management.c ****                 if (properties_get_correlation_id(response_properties, &correlation_id_value) != 0)
 110:Source\azure_iot_sdk\uamqp\src/amqp_management.c ****                 {
 111:Source\azure_iot_sdk\uamqp\src/amqp_management.c ****                     /* Codes_SRS_AMQP_MANAGEMENT_01_114: [ If obtaining the correlation Id fails, a
 112:Source\azure_iot_sdk\uamqp\src/amqp_management.c ****                     LogError("Could not retrieve correlation Id");
 113:Source\azure_iot_sdk\uamqp\src/amqp_management.c ****                     amqp_management->on_amqp_management_error(amqp_management->on_amqp_management_e
 114:Source\azure_iot_sdk\uamqp\src/amqp_management.c ****                     /* Codes_SRS_AMQP_MANAGEMENT_01_136: [ When `on_message_received` fails due to 
 115:Source\azure_iot_sdk\uamqp\src/amqp_management.c ****                     result = messaging_delivery_rejected("amqp:internal-error", "Could not get corr
 116:Source\azure_iot_sdk\uamqp\src/amqp_management.c ****                 }
 117:Source\azure_iot_sdk\uamqp\src/amqp_management.c ****                 else
 118:Source\azure_iot_sdk\uamqp\src/amqp_management.c ****                 {
 119:Source\azure_iot_sdk\uamqp\src/amqp_management.c ****                     if (amqpvalue_get_ulong(correlation_id_value, &correlation_id) != 0)
 120:Source\azure_iot_sdk\uamqp\src/amqp_management.c ****                     {
 121:Source\azure_iot_sdk\uamqp\src/amqp_management.c ****                         /* Codes_SRS_AMQP_MANAGEMENT_01_132: [ If any functions manipulating AMQP v
 122:Source\azure_iot_sdk\uamqp\src/amqp_management.c ****                         LogError("Could not retrieve correlation Id ulong value");
 123:Source\azure_iot_sdk\uamqp\src/amqp_management.c ****                         amqp_management->on_amqp_management_error(amqp_management->on_amqp_manageme
 124:Source\azure_iot_sdk\uamqp\src/amqp_management.c ****                         /* Codes_SRS_AMQP_MANAGEMENT_01_136: [ When `on_message_received` fails due
 125:Source\azure_iot_sdk\uamqp\src/amqp_management.c ****                         result = messaging_delivery_rejected("amqp:internal-error", "Could not get 
 126:Source\azure_iot_sdk\uamqp\src/amqp_management.c ****                     }
 127:Source\azure_iot_sdk\uamqp\src/amqp_management.c ****                     else
 128:Source\azure_iot_sdk\uamqp\src/amqp_management.c ****                     {
 129:Source\azure_iot_sdk\uamqp\src/amqp_management.c ****                         /* Codes_SRS_AMQP_MANAGEMENT_01_119: [ `on_message_received` shall obtain t
 130:Source\azure_iot_sdk\uamqp\src/amqp_management.c ****                         /* Codes_SRS_AMQP_MANAGEMENT_01_070: [ Response messages have the following
 131:Source\azure_iot_sdk\uamqp\src/amqp_management.c ****                         map = amqpvalue_get_inplace_described_value(application_properties);
 132:Source\azure_iot_sdk\uamqp\src/amqp_management.c ****                         if (map == NULL)
 133:Source\azure_iot_sdk\uamqp\src/amqp_management.c ****                         {
 134:Source\azure_iot_sdk\uamqp\src/amqp_management.c ****                             /* Codes_SRS_AMQP_MANAGEMENT_01_132: [ If any functions manipulating AM
 135:Source\azure_iot_sdk\uamqp\src/amqp_management.c ****                             LogError("Could not retrieve application property map");
 136:Source\azure_iot_sdk\uamqp\src/amqp_management.c ****                             amqp_management->on_amqp_management_error(amqp_management->on_amqp_mana
 137:Source\azure_iot_sdk\uamqp\src/amqp_management.c ****                             /* Codes_SRS_AMQP_MANAGEMENT_01_136: [ When `on_message_received` fails
 138:Source\azure_iot_sdk\uamqp\src/amqp_management.c ****                             result = messaging_delivery_rejected("amqp:internal-error", "Could not 
 139:Source\azure_iot_sdk\uamqp\src/amqp_management.c ****                         }
 140:Source\azure_iot_sdk\uamqp\src/amqp_management.c ****                         else
 141:Source\azure_iot_sdk\uamqp\src/amqp_management.c ****                         {
 142:Source\azure_iot_sdk\uamqp\src/amqp_management.c ****                             /* Codes_SRS_AMQP_MANAGEMENT_01_120: [ An AMQP value used to lookup the
 143:Source\azure_iot_sdk\uamqp\src/amqp_management.c ****                             /* Codes_SRS_AMQP_MANAGEMENT_01_071: [ statusCode integer Yes HTTP resp
 144:Source\azure_iot_sdk\uamqp\src/amqp_management.c ****                             key = amqpvalue_create_string(amqp_management->status_code_key_name);
 145:Source\azure_iot_sdk\uamqp\src/amqp_management.c ****                             if (key == NULL)
ARM GAS  C:\Users\Phuong\AppData\Local\Temp\ccdTtd1y.s 			page 4


 146:Source\azure_iot_sdk\uamqp\src/amqp_management.c ****                             {
 147:Source\azure_iot_sdk\uamqp\src/amqp_management.c ****                                 /* Codes_SRS_AMQP_MANAGEMENT_01_132: [ If any functions manipulatin
 148:Source\azure_iot_sdk\uamqp\src/amqp_management.c ****                                 LogError("Could not create status-code amqp value");
 149:Source\azure_iot_sdk\uamqp\src/amqp_management.c ****                                 amqp_management->on_amqp_management_error(amqp_management->on_amqp_
 150:Source\azure_iot_sdk\uamqp\src/amqp_management.c ****                                 /* Codes_SRS_AMQP_MANAGEMENT_01_135: [ When an error occurs in crea
 151:Source\azure_iot_sdk\uamqp\src/amqp_management.c ****                                 result = messaging_delivery_released();
 152:Source\azure_iot_sdk\uamqp\src/amqp_management.c ****                             }
 153:Source\azure_iot_sdk\uamqp\src/amqp_management.c ****                             else
 154:Source\azure_iot_sdk\uamqp\src/amqp_management.c ****                             {
 155:Source\azure_iot_sdk\uamqp\src/amqp_management.c ****                                 /* Codes_SRS_AMQP_MANAGEMENT_01_121: [ The status code shall be loo
 156:Source\azure_iot_sdk\uamqp\src/amqp_management.c ****                                 value = amqpvalue_get_map_value(map, key);
 157:Source\azure_iot_sdk\uamqp\src/amqp_management.c ****                                 if (value == NULL)
 158:Source\azure_iot_sdk\uamqp\src/amqp_management.c ****                                 {
 159:Source\azure_iot_sdk\uamqp\src/amqp_management.c ****                                     /* Codes_SRS_AMQP_MANAGEMENT_01_122: [ If status code is not fo
 160:Source\azure_iot_sdk\uamqp\src/amqp_management.c ****                                     LogError("Could not retrieve status code from application prope
 161:Source\azure_iot_sdk\uamqp\src/amqp_management.c ****                                     amqp_management->on_amqp_management_error(amqp_management->on_a
 162:Source\azure_iot_sdk\uamqp\src/amqp_management.c ****                                     /* Codes_SRS_AMQP_MANAGEMENT_01_136: [ When `on_message_receive
 163:Source\azure_iot_sdk\uamqp\src/amqp_management.c ****                                     result = messaging_delivery_rejected("amqp:internal-error", "Co
 164:Source\azure_iot_sdk\uamqp\src/amqp_management.c ****                                 }
 165:Source\azure_iot_sdk\uamqp\src/amqp_management.c ****                                 else
 166:Source\azure_iot_sdk\uamqp\src/amqp_management.c ****                                 {
 167:Source\azure_iot_sdk\uamqp\src/amqp_management.c ****                                     int32_t status_code;
 168:Source\azure_iot_sdk\uamqp\src/amqp_management.c ****                                     /* Codes_SRS_AMQP_MANAGEMENT_01_133: [ The status code value sh
 169:Source\azure_iot_sdk\uamqp\src/amqp_management.c ****                                     if (amqpvalue_get_int(value, &status_code) != 0)
 170:Source\azure_iot_sdk\uamqp\src/amqp_management.c ****                                     {
 171:Source\azure_iot_sdk\uamqp\src/amqp_management.c ****                                         /* Codes_SRS_AMQP_MANAGEMENT_01_132: [ If any functions man
 172:Source\azure_iot_sdk\uamqp\src/amqp_management.c ****                                         LogError("Could not retrieve status code int value");
 173:Source\azure_iot_sdk\uamqp\src/amqp_management.c ****                                         amqp_management->on_amqp_management_error(amqp_management->
 174:Source\azure_iot_sdk\uamqp\src/amqp_management.c ****                                         /* Codes_SRS_AMQP_MANAGEMENT_01_136: [ When `on_message_rec
 175:Source\azure_iot_sdk\uamqp\src/amqp_management.c ****                                         result = messaging_delivery_rejected("amqp:internal-error",
 176:Source\azure_iot_sdk\uamqp\src/amqp_management.c ****                                     }
 177:Source\azure_iot_sdk\uamqp\src/amqp_management.c ****                                     else
 178:Source\azure_iot_sdk\uamqp\src/amqp_management.c ****                                     {
 179:Source\azure_iot_sdk\uamqp\src/amqp_management.c ****                                         /* Codes_SRS_AMQP_MANAGEMENT_01_123: [ An AMQP value used t
 180:Source\azure_iot_sdk\uamqp\src/amqp_management.c ****                                         /* Codes_SRS_AMQP_MANAGEMENT_01_072: [ statusDescription st
 181:Source\azure_iot_sdk\uamqp\src/amqp_management.c ****                                         desc_key = amqpvalue_create_string(amqp_management->status_
 182:Source\azure_iot_sdk\uamqp\src/amqp_management.c ****                                         if (desc_key == NULL)
 183:Source\azure_iot_sdk\uamqp\src/amqp_management.c ****                                         {
 184:Source\azure_iot_sdk\uamqp\src/amqp_management.c ****                                             /* Codes_SRS_AMQP_MANAGEMENT_01_132: [ If any functions
 185:Source\azure_iot_sdk\uamqp\src/amqp_management.c ****                                             LogError("Could not create status-description amqp valu
 186:Source\azure_iot_sdk\uamqp\src/amqp_management.c ****                                             amqp_management->on_amqp_management_error(amqp_manageme
 187:Source\azure_iot_sdk\uamqp\src/amqp_management.c ****                                             /* Codes_SRS_AMQP_MANAGEMENT_01_135: [ When an error oc
 188:Source\azure_iot_sdk\uamqp\src/amqp_management.c ****                                             result = messaging_delivery_released();
 189:Source\azure_iot_sdk\uamqp\src/amqp_management.c ****                                         }
 190:Source\azure_iot_sdk\uamqp\src/amqp_management.c ****                                         else
 191:Source\azure_iot_sdk\uamqp\src/amqp_management.c ****                                         {
 192:Source\azure_iot_sdk\uamqp\src/amqp_management.c ****                                             const char* status_description = NULL;
 193:Source\azure_iot_sdk\uamqp\src/amqp_management.c ****                                             LIST_ITEM_HANDLE list_item_handle;
 194:Source\azure_iot_sdk\uamqp\src/amqp_management.c ****                                             bool found = false;
 195:Source\azure_iot_sdk\uamqp\src/amqp_management.c ****                                             bool is_error = false;
 196:Source\azure_iot_sdk\uamqp\src/amqp_management.c **** 
 197:Source\azure_iot_sdk\uamqp\src/amqp_management.c ****                                             /* Codes_SRS_AMQP_MANAGEMENT_01_124: [ The status descr
 198:Source\azure_iot_sdk\uamqp\src/amqp_management.c ****                                             desc_value = amqpvalue_get_map_value(map, desc_key);
 199:Source\azure_iot_sdk\uamqp\src/amqp_management.c ****                                             if (desc_value != NULL)
 200:Source\azure_iot_sdk\uamqp\src/amqp_management.c ****                                             {
 201:Source\azure_iot_sdk\uamqp\src/amqp_management.c ****                                                 /* Codes_SRS_AMQP_MANAGEMENT_01_134: [ The status d
 202:Source\azure_iot_sdk\uamqp\src/amqp_management.c ****                                                 if (amqpvalue_get_string(desc_value, &status_descri
ARM GAS  C:\Users\Phuong\AppData\Local\Temp\ccdTtd1y.s 			page 5


 203:Source\azure_iot_sdk\uamqp\src/amqp_management.c ****                                                 {
 204:Source\azure_iot_sdk\uamqp\src/amqp_management.c ****                                                     /* Codes_SRS_AMQP_MANAGEMENT_01_125: [ If statu
 205:Source\azure_iot_sdk\uamqp\src/amqp_management.c ****                                                     status_description = NULL;
 206:Source\azure_iot_sdk\uamqp\src/amqp_management.c ****                                                 }
 207:Source\azure_iot_sdk\uamqp\src/amqp_management.c ****                                             }
 208:Source\azure_iot_sdk\uamqp\src/amqp_management.c ****                                             else
 209:Source\azure_iot_sdk\uamqp\src/amqp_management.c ****                                             {
 210:Source\azure_iot_sdk\uamqp\src/amqp_management.c ****                                                 /* Codes_SRS_AMQP_MANAGEMENT_01_125: [ If status de
 211:Source\azure_iot_sdk\uamqp\src/amqp_management.c ****                                                 status_description = NULL;
 212:Source\azure_iot_sdk\uamqp\src/amqp_management.c ****                                             }
 213:Source\azure_iot_sdk\uamqp\src/amqp_management.c **** 
 214:Source\azure_iot_sdk\uamqp\src/amqp_management.c ****                                             list_item_handle = singlylinkedlist_get_head_item(amqp_
 215:Source\azure_iot_sdk\uamqp\src/amqp_management.c ****                                             while (list_item_handle != NULL)
 216:Source\azure_iot_sdk\uamqp\src/amqp_management.c ****                                             {
 217:Source\azure_iot_sdk\uamqp\src/amqp_management.c ****                                                 /* Codes_SRS_AMQP_MANAGEMENT_01_116: [ Each pending
 218:Source\azure_iot_sdk\uamqp\src/amqp_management.c ****                                                 OPERATION_MESSAGE_INSTANCE* operation_message = (OP
 219:Source\azure_iot_sdk\uamqp\src/amqp_management.c ****                                                 if (operation_message == NULL)
 220:Source\azure_iot_sdk\uamqp\src/amqp_management.c ****                                                 {
 221:Source\azure_iot_sdk\uamqp\src/amqp_management.c ****                                                     /* Codes_SRS_AMQP_MANAGEMENT_01_117: [ If itera
 222:Source\azure_iot_sdk\uamqp\src/amqp_management.c ****                                                     LogError("Could not create status-description a
 223:Source\azure_iot_sdk\uamqp\src/amqp_management.c ****                                                     amqp_management->on_amqp_management_error(amqp_
 224:Source\azure_iot_sdk\uamqp\src/amqp_management.c ****                                                     /* Codes_SRS_AMQP_MANAGEMENT_01_135: [ When an 
 225:Source\azure_iot_sdk\uamqp\src/amqp_management.c ****                                                     result = messaging_delivery_released();
 226:Source\azure_iot_sdk\uamqp\src/amqp_management.c ****                                                     break;
 227:Source\azure_iot_sdk\uamqp\src/amqp_management.c ****                                                 }
 228:Source\azure_iot_sdk\uamqp\src/amqp_management.c ****                                                 else
 229:Source\azure_iot_sdk\uamqp\src/amqp_management.c ****                                                 {
 230:Source\azure_iot_sdk\uamqp\src/amqp_management.c ****                                                     AMQP_MANAGEMENT_EXECUTE_OPERATION_RESULT execut
 231:Source\azure_iot_sdk\uamqp\src/amqp_management.c **** 
 232:Source\azure_iot_sdk\uamqp\src/amqp_management.c ****                                                     /* Codes_SRS_AMQP_MANAGEMENT_01_112: [ `on_mess
 233:Source\azure_iot_sdk\uamqp\src/amqp_management.c ****                                                     /* Codes_SRS_AMQP_MANAGEMENT_01_068: [ The corr
 234:Source\azure_iot_sdk\uamqp\src/amqp_management.c ****                                                     /* Codes_SRS_AMQP_MANAGEMENT_01_069: [ else the
 235:Source\azure_iot_sdk\uamqp\src/amqp_management.c ****                                                     if (correlation_id == operation_message->messag
 236:Source\azure_iot_sdk\uamqp\src/amqp_management.c ****                                                     {
 237:Source\azure_iot_sdk\uamqp\src/amqp_management.c ****                                                         /* Codes_SRS_AMQP_MANAGEMENT_01_074: [ Succ
 238:Source\azure_iot_sdk\uamqp\src/amqp_management.c ****                                                         if ((status_code < 200) || (status_code > 2
 239:Source\azure_iot_sdk\uamqp\src/amqp_management.c ****                                                         {
 240:Source\azure_iot_sdk\uamqp\src/amqp_management.c ****                                                             /* Codes_SRS_AMQP_MANAGEMENT_01_128: [ 
 241:Source\azure_iot_sdk\uamqp\src/amqp_management.c ****                                                             /* Codes_SRS_AMQP_MANAGEMENT_01_075: [ 
 242:Source\azure_iot_sdk\uamqp\src/amqp_management.c ****                                                             execute_operation_result = AMQP_MANAGEM
 243:Source\azure_iot_sdk\uamqp\src/amqp_management.c ****                                                         }
 244:Source\azure_iot_sdk\uamqp\src/amqp_management.c ****                                                         else
 245:Source\azure_iot_sdk\uamqp\src/amqp_management.c ****                                                         {
 246:Source\azure_iot_sdk\uamqp\src/amqp_management.c ****                                                             /* Codes_SRS_AMQP_MANAGEMENT_01_127: [ 
 247:Source\azure_iot_sdk\uamqp\src/amqp_management.c ****                                                             execute_operation_result = AMQP_MANAGEM
 248:Source\azure_iot_sdk\uamqp\src/amqp_management.c ****                                                         }
 249:Source\azure_iot_sdk\uamqp\src/amqp_management.c **** 
 250:Source\azure_iot_sdk\uamqp\src/amqp_management.c ****                                                         /* Codes_SRS_AMQP_MANAGEMENT_01_126: [ If a
 251:Source\azure_iot_sdk\uamqp\src/amqp_management.c ****                                                         /* Codes_SRS_AMQP_MANAGEMENT_01_166: [ The 
 252:Source\azure_iot_sdk\uamqp\src/amqp_management.c ****                                                         operation_message->on_execute_operation_com
 253:Source\azure_iot_sdk\uamqp\src/amqp_management.c **** 
 254:Source\azure_iot_sdk\uamqp\src/amqp_management.c ****                                                         free(operation_message);
 255:Source\azure_iot_sdk\uamqp\src/amqp_management.c **** 
 256:Source\azure_iot_sdk\uamqp\src/amqp_management.c ****                                                         /* Codes_SRS_AMQP_MANAGEMENT_01_129: [ Afte
 257:Source\azure_iot_sdk\uamqp\src/amqp_management.c ****                                                         if (singlylinkedlist_remove(amqp_management
 258:Source\azure_iot_sdk\uamqp\src/amqp_management.c ****                                                         {
 259:Source\azure_iot_sdk\uamqp\src/amqp_management.c ****                                                             LogError("Cannot remove pending operati
ARM GAS  C:\Users\Phuong\AppData\Local\Temp\ccdTtd1y.s 			page 6


 260:Source\azure_iot_sdk\uamqp\src/amqp_management.c ****                                                             is_error = true;
 261:Source\azure_iot_sdk\uamqp\src/amqp_management.c ****                                                             break;
 262:Source\azure_iot_sdk\uamqp\src/amqp_management.c ****                                                         }
 263:Source\azure_iot_sdk\uamqp\src/amqp_management.c ****                                                         else
 264:Source\azure_iot_sdk\uamqp\src/amqp_management.c ****                                                         {
 265:Source\azure_iot_sdk\uamqp\src/amqp_management.c ****                                                             found = true;
 266:Source\azure_iot_sdk\uamqp\src/amqp_management.c ****                                                         }
 267:Source\azure_iot_sdk\uamqp\src/amqp_management.c **** 
 268:Source\azure_iot_sdk\uamqp\src/amqp_management.c ****                                                         break;
 269:Source\azure_iot_sdk\uamqp\src/amqp_management.c ****                                                     }
 270:Source\azure_iot_sdk\uamqp\src/amqp_management.c ****                                                 }
 271:Source\azure_iot_sdk\uamqp\src/amqp_management.c **** 
 272:Source\azure_iot_sdk\uamqp\src/amqp_management.c ****                                                 /* Codes_SRS_AMQP_MANAGEMENT_01_115: [ Iterating th
 273:Source\azure_iot_sdk\uamqp\src/amqp_management.c ****                                                 /* Codes_SRS_AMQP_MANAGEMENT_01_117: [ If iterating
 274:Source\azure_iot_sdk\uamqp\src/amqp_management.c ****                                                 list_item_handle = singlylinkedlist_get_next_item(l
 275:Source\azure_iot_sdk\uamqp\src/amqp_management.c ****                                             }
 276:Source\azure_iot_sdk\uamqp\src/amqp_management.c **** 
 277:Source\azure_iot_sdk\uamqp\src/amqp_management.c ****                                             if (is_error)
 278:Source\azure_iot_sdk\uamqp\src/amqp_management.c ****                                             {
 279:Source\azure_iot_sdk\uamqp\src/amqp_management.c ****                                                 /* Codes_SRS_AMQP_MANAGEMENT_01_117: [ If iterating
 280:Source\azure_iot_sdk\uamqp\src/amqp_management.c ****                                                 amqp_management->on_amqp_management_error(amqp_mana
 281:Source\azure_iot_sdk\uamqp\src/amqp_management.c ****                                                 /* Codes_SRS_AMQP_MANAGEMENT_01_135: [ When an erro
 282:Source\azure_iot_sdk\uamqp\src/amqp_management.c ****                                                 result = messaging_delivery_released();
 283:Source\azure_iot_sdk\uamqp\src/amqp_management.c ****                                             }
 284:Source\azure_iot_sdk\uamqp\src/amqp_management.c ****                                             else
 285:Source\azure_iot_sdk\uamqp\src/amqp_management.c ****                                             {
 286:Source\azure_iot_sdk\uamqp\src/amqp_management.c ****                                                 if (!found)
 287:Source\azure_iot_sdk\uamqp\src/amqp_management.c ****                                                 {
 288:Source\azure_iot_sdk\uamqp\src/amqp_management.c ****                                                     /* Codes_SRS_AMQP_MANAGEMENT_01_118: [ If no pe
 289:Source\azure_iot_sdk\uamqp\src/amqp_management.c ****                                                     LogError("Could not match AMQP management respo
 290:Source\azure_iot_sdk\uamqp\src/amqp_management.c ****                                                     amqp_management->on_amqp_management_error(amqp_
 291:Source\azure_iot_sdk\uamqp\src/amqp_management.c ****                                                     /* Codes_SRS_AMQP_MANAGEMENT_01_135: [ When an 
 292:Source\azure_iot_sdk\uamqp\src/amqp_management.c ****                                                     result = messaging_delivery_rejected("amqp:inte
 293:Source\azure_iot_sdk\uamqp\src/amqp_management.c ****                                                 }
 294:Source\azure_iot_sdk\uamqp\src/amqp_management.c ****                                                 else
 295:Source\azure_iot_sdk\uamqp\src/amqp_management.c ****                                                 {
 296:Source\azure_iot_sdk\uamqp\src/amqp_management.c ****                                                     /* Codes_SRS_AMQP_MANAGEMENT_01_130: [ The `on_
 297:Source\azure_iot_sdk\uamqp\src/amqp_management.c ****                                                     result = messaging_delivery_accepted();
 298:Source\azure_iot_sdk\uamqp\src/amqp_management.c ****                                                 }
 299:Source\azure_iot_sdk\uamqp\src/amqp_management.c ****                                             }
 300:Source\azure_iot_sdk\uamqp\src/amqp_management.c **** 
 301:Source\azure_iot_sdk\uamqp\src/amqp_management.c ****                                             if (desc_value != NULL)
 302:Source\azure_iot_sdk\uamqp\src/amqp_management.c ****                                             {
 303:Source\azure_iot_sdk\uamqp\src/amqp_management.c ****                                                 /* Codes_SRS_AMQP_MANAGEMENT_01_131: [ All temporar
 304:Source\azure_iot_sdk\uamqp\src/amqp_management.c ****                                                 amqpvalue_destroy(desc_value);
 305:Source\azure_iot_sdk\uamqp\src/amqp_management.c ****                                             }
 306:Source\azure_iot_sdk\uamqp\src/amqp_management.c **** 
 307:Source\azure_iot_sdk\uamqp\src/amqp_management.c ****                                             /* Codes_SRS_AMQP_MANAGEMENT_01_131: [ All temporary va
 308:Source\azure_iot_sdk\uamqp\src/amqp_management.c ****                                             amqpvalue_destroy(desc_key);
 309:Source\azure_iot_sdk\uamqp\src/amqp_management.c ****                                         }
 310:Source\azure_iot_sdk\uamqp\src/amqp_management.c ****                                     }
 311:Source\azure_iot_sdk\uamqp\src/amqp_management.c **** 
 312:Source\azure_iot_sdk\uamqp\src/amqp_management.c ****                                     /* Codes_SRS_AMQP_MANAGEMENT_01_131: [ All temporary values lik
 313:Source\azure_iot_sdk\uamqp\src/amqp_management.c ****                                     amqpvalue_destroy(value);
 314:Source\azure_iot_sdk\uamqp\src/amqp_management.c ****                                 }
 315:Source\azure_iot_sdk\uamqp\src/amqp_management.c **** 
 316:Source\azure_iot_sdk\uamqp\src/amqp_management.c ****                                 /* Codes_SRS_AMQP_MANAGEMENT_01_131: [ All temporary values like AM
ARM GAS  C:\Users\Phuong\AppData\Local\Temp\ccdTtd1y.s 			page 7


 317:Source\azure_iot_sdk\uamqp\src/amqp_management.c ****                                 amqpvalue_destroy(key);
 318:Source\azure_iot_sdk\uamqp\src/amqp_management.c ****                             }
 319:Source\azure_iot_sdk\uamqp\src/amqp_management.c ****                         }
 320:Source\azure_iot_sdk\uamqp\src/amqp_management.c ****                     }
 321:Source\azure_iot_sdk\uamqp\src/amqp_management.c ****                 }
 322:Source\azure_iot_sdk\uamqp\src/amqp_management.c **** 
 323:Source\azure_iot_sdk\uamqp\src/amqp_management.c ****                 /* Codes_SRS_AMQP_MANAGEMENT_01_131: [ All temporary values like AMQP values used a
 324:Source\azure_iot_sdk\uamqp\src/amqp_management.c ****                 properties_destroy(response_properties);
 325:Source\azure_iot_sdk\uamqp\src/amqp_management.c ****             }
 326:Source\azure_iot_sdk\uamqp\src/amqp_management.c **** 
 327:Source\azure_iot_sdk\uamqp\src/amqp_management.c ****             /* Codes_SRS_AMQP_MANAGEMENT_01_131: [ All temporary values like AMQP values used as ke
 328:Source\azure_iot_sdk\uamqp\src/amqp_management.c ****             application_properties_destroy(application_properties);
 329:Source\azure_iot_sdk\uamqp\src/amqp_management.c ****         }
 330:Source\azure_iot_sdk\uamqp\src/amqp_management.c ****     }
 331:Source\azure_iot_sdk\uamqp\src/amqp_management.c **** 
 332:Source\azure_iot_sdk\uamqp\src/amqp_management.c ****     return result;
 333:Source\azure_iot_sdk\uamqp\src/amqp_management.c **** }
 334:Source\azure_iot_sdk\uamqp\src/amqp_management.c **** 
 335:Source\azure_iot_sdk\uamqp\src/amqp_management.c **** static void on_message_send_complete(void* context, MESSAGE_SEND_RESULT send_result, AMQP_VALUE del
 336:Source\azure_iot_sdk\uamqp\src/amqp_management.c **** {
 337:Source\azure_iot_sdk\uamqp\src/amqp_management.c ****     (void)delivery_state;
 338:Source\azure_iot_sdk\uamqp\src/amqp_management.c **** 
 339:Source\azure_iot_sdk\uamqp\src/amqp_management.c ****     if (context == NULL)
 340:Source\azure_iot_sdk\uamqp\src/amqp_management.c ****     {
 341:Source\azure_iot_sdk\uamqp\src/amqp_management.c ****         /* Codes_SRS_AMQP_MANAGEMENT_01_167: [ When `on_message_send_complete` is called with a NUL
 342:Source\azure_iot_sdk\uamqp\src/amqp_management.c ****         LogError("NULL context");
 343:Source\azure_iot_sdk\uamqp\src/amqp_management.c ****     }
 344:Source\azure_iot_sdk\uamqp\src/amqp_management.c ****     else
 345:Source\azure_iot_sdk\uamqp\src/amqp_management.c ****     {
 346:Source\azure_iot_sdk\uamqp\src/amqp_management.c ****         if (send_result == MESSAGE_SEND_OK)
 347:Source\azure_iot_sdk\uamqp\src/amqp_management.c ****         {
 348:Source\azure_iot_sdk\uamqp\src/amqp_management.c ****             /* Codes_SRS_AMQP_MANAGEMENT_01_170: [ If `send_result` is `MESSAGE_SEND_OK`, `on_messa
 349:Source\azure_iot_sdk\uamqp\src/amqp_management.c ****         }
 350:Source\azure_iot_sdk\uamqp\src/amqp_management.c ****         else
 351:Source\azure_iot_sdk\uamqp\src/amqp_management.c ****         {
 352:Source\azure_iot_sdk\uamqp\src/amqp_management.c ****             /* Codes_SRS_AMQP_MANAGEMENT_01_172: [ If `send_result` is different then `MESSAGE_SEND
 353:Source\azure_iot_sdk\uamqp\src/amqp_management.c ****             /* Codes_SRS_AMQP_MANAGEMENT_01_168: [ - `context` shall be used as a LIST_ITEM_HANDLE 
 354:Source\azure_iot_sdk\uamqp\src/amqp_management.c ****             LIST_ITEM_HANDLE pending_operation_list_item_handle = (LIST_ITEM_HANDLE)context;
 355:Source\azure_iot_sdk\uamqp\src/amqp_management.c **** 
 356:Source\azure_iot_sdk\uamqp\src/amqp_management.c ****             /* Codes_SRS_AMQP_MANAGEMENT_01_169: [ - `on_message_send_complete` shall obtain the pe
 357:Source\azure_iot_sdk\uamqp\src/amqp_management.c ****             OPERATION_MESSAGE_INSTANCE* pending_operation_message = (OPERATION_MESSAGE_INSTANCE*)si
 358:Source\azure_iot_sdk\uamqp\src/amqp_management.c ****             AMQP_MANAGEMENT_HANDLE amqp_management = pending_operation_message->amqp_management;
 359:Source\azure_iot_sdk\uamqp\src/amqp_management.c **** 
 360:Source\azure_iot_sdk\uamqp\src/amqp_management.c ****             /* Codes_SRS_AMQP_MANAGEMENT_01_171: [ - `on_message_send_complete` shall removed the p
 361:Source\azure_iot_sdk\uamqp\src/amqp_management.c ****             if (singlylinkedlist_remove(amqp_management->pending_operations, pending_operation_list
 362:Source\azure_iot_sdk\uamqp\src/amqp_management.c ****             {
 363:Source\azure_iot_sdk\uamqp\src/amqp_management.c ****                 /* Tests_SRS_AMQP_MANAGEMENT_01_174: [ If any error occurs in removing the pending 
 364:Source\azure_iot_sdk\uamqp\src/amqp_management.c ****                 amqp_management->on_amqp_management_error(amqp_management->on_amqp_management_error
 365:Source\azure_iot_sdk\uamqp\src/amqp_management.c ****                 LogError("Cannot remove pending operation");
 366:Source\azure_iot_sdk\uamqp\src/amqp_management.c ****             }
 367:Source\azure_iot_sdk\uamqp\src/amqp_management.c ****             else
 368:Source\azure_iot_sdk\uamqp\src/amqp_management.c ****             {
 369:Source\azure_iot_sdk\uamqp\src/amqp_management.c ****                 /* Codes_SRS_AMQP_MANAGEMENT_01_173: [ - The callback associated with the pending o
 370:Source\azure_iot_sdk\uamqp\src/amqp_management.c ****                 pending_operation_message->on_execute_operation_complete(pending_operation_message-
 371:Source\azure_iot_sdk\uamqp\src/amqp_management.c ****                 free(pending_operation_message);
 372:Source\azure_iot_sdk\uamqp\src/amqp_management.c ****             }
 373:Source\azure_iot_sdk\uamqp\src/amqp_management.c ****         }
ARM GAS  C:\Users\Phuong\AppData\Local\Temp\ccdTtd1y.s 			page 8


 374:Source\azure_iot_sdk\uamqp\src/amqp_management.c ****     }
 375:Source\azure_iot_sdk\uamqp\src/amqp_management.c **** }
 376:Source\azure_iot_sdk\uamqp\src/amqp_management.c **** 
 377:Source\azure_iot_sdk\uamqp\src/amqp_management.c **** static void on_message_sender_state_changed(void* context, MESSAGE_SENDER_STATE new_state, MESSAGE_
 378:Source\azure_iot_sdk\uamqp\src/amqp_management.c **** {
 379:Source\azure_iot_sdk\uamqp\src/amqp_management.c ****     if (context == NULL)
 380:Source\azure_iot_sdk\uamqp\src/amqp_management.c ****     {
 381:Source\azure_iot_sdk\uamqp\src/amqp_management.c ****         /* Codes_SRS_AMQP_MANAGEMENT_01_137: [ When `on_message_sender_state_changed` is called wit
 382:Source\azure_iot_sdk\uamqp\src/amqp_management.c ****         LogError("on_message_sender_state_changed called with NULL context");
 383:Source\azure_iot_sdk\uamqp\src/amqp_management.c ****     }
 384:Source\azure_iot_sdk\uamqp\src/amqp_management.c ****     else
 385:Source\azure_iot_sdk\uamqp\src/amqp_management.c ****     {
 386:Source\azure_iot_sdk\uamqp\src/amqp_management.c ****         /* Codes_SRS_AMQP_MANAGEMENT_01_138: [ When `on_message_sender_state_changed` is called and
 387:Source\azure_iot_sdk\uamqp\src/amqp_management.c ****         /* Codes_SRS_AMQP_MANAGEMENT_01_148: [ When no state change is detected, `on_message_sender
 388:Source\azure_iot_sdk\uamqp\src/amqp_management.c ****         if (new_state != previous_state)
 389:Source\azure_iot_sdk\uamqp\src/amqp_management.c ****         {
 390:Source\azure_iot_sdk\uamqp\src/amqp_management.c ****             AMQP_MANAGEMENT_INSTANCE* amqp_management_instance = (AMQP_MANAGEMENT_INSTANCE*)context
 391:Source\azure_iot_sdk\uamqp\src/amqp_management.c ****             switch (amqp_management_instance->amqp_management_state)
 392:Source\azure_iot_sdk\uamqp\src/amqp_management.c ****             {
 393:Source\azure_iot_sdk\uamqp\src/amqp_management.c ****             default:
 394:Source\azure_iot_sdk\uamqp\src/amqp_management.c ****                 break;
 395:Source\azure_iot_sdk\uamqp\src/amqp_management.c **** 
 396:Source\azure_iot_sdk\uamqp\src/amqp_management.c ****             /* Codes_SRS_AMQP_MANAGEMENT_01_139: [ For the current state of AMQP management being `
 397:Source\azure_iot_sdk\uamqp\src/amqp_management.c ****             case AMQP_MANAGEMENT_STATE_OPENING:
 398:Source\azure_iot_sdk\uamqp\src/amqp_management.c ****             {
 399:Source\azure_iot_sdk\uamqp\src/amqp_management.c ****                 switch (new_state)
 400:Source\azure_iot_sdk\uamqp\src/amqp_management.c ****                 {
 401:Source\azure_iot_sdk\uamqp\src/amqp_management.c ****                 case MESSAGE_SENDER_STATE_OPENING:
 402:Source\azure_iot_sdk\uamqp\src/amqp_management.c ****                     /* Codes_SRS_AMQP_MANAGEMENT_01_165: [ - If `new_state` is `MESSAGE_SENDER_STAT
 403:Source\azure_iot_sdk\uamqp\src/amqp_management.c ****                     break;
 404:Source\azure_iot_sdk\uamqp\src/amqp_management.c **** 
 405:Source\azure_iot_sdk\uamqp\src/amqp_management.c ****                 default:
 406:Source\azure_iot_sdk\uamqp\src/amqp_management.c ****                 /* Codes_SRS_AMQP_MANAGEMENT_01_140: [ - If `new_state` is `MESSAGE_SENDER_STATE_ID
 407:Source\azure_iot_sdk\uamqp\src/amqp_management.c ****                 case MESSAGE_SENDER_STATE_IDLE:
 408:Source\azure_iot_sdk\uamqp\src/amqp_management.c ****                 case MESSAGE_SENDER_STATE_CLOSING:
 409:Source\azure_iot_sdk\uamqp\src/amqp_management.c ****                 case MESSAGE_SENDER_STATE_ERROR:
 410:Source\azure_iot_sdk\uamqp\src/amqp_management.c ****                     amqp_management_instance->amqp_management_state = AMQP_MANAGEMENT_STATE_IDLE;
 411:Source\azure_iot_sdk\uamqp\src/amqp_management.c ****                     amqp_management_instance->on_amqp_management_open_complete(amqp_management_inst
 412:Source\azure_iot_sdk\uamqp\src/amqp_management.c ****                     break;
 413:Source\azure_iot_sdk\uamqp\src/amqp_management.c **** 
 414:Source\azure_iot_sdk\uamqp\src/amqp_management.c ****                 case MESSAGE_SENDER_STATE_OPEN:
 415:Source\azure_iot_sdk\uamqp\src/amqp_management.c ****                     amqp_management_instance->sender_connected = 1;
 416:Source\azure_iot_sdk\uamqp\src/amqp_management.c ****                     /* Codes_SRS_AMQP_MANAGEMENT_01_142: [ - If `new_state` is `MESSAGE_SENDER_STAT
 417:Source\azure_iot_sdk\uamqp\src/amqp_management.c ****                     if (amqp_management_instance->receiver_connected != 0)
 418:Source\azure_iot_sdk\uamqp\src/amqp_management.c ****                     {
 419:Source\azure_iot_sdk\uamqp\src/amqp_management.c ****                         /* Codes_SRS_AMQP_MANAGEMENT_01_141: [ - If `new_state` is `MESSAGE_SENDER_
 420:Source\azure_iot_sdk\uamqp\src/amqp_management.c ****                         amqp_management_instance->amqp_management_state = AMQP_MANAGEMENT_STATE_OPE
 421:Source\azure_iot_sdk\uamqp\src/amqp_management.c ****                         amqp_management_instance->on_amqp_management_open_complete(amqp_management_
 422:Source\azure_iot_sdk\uamqp\src/amqp_management.c ****                     }
 423:Source\azure_iot_sdk\uamqp\src/amqp_management.c ****                     break;
 424:Source\azure_iot_sdk\uamqp\src/amqp_management.c ****                 }
 425:Source\azure_iot_sdk\uamqp\src/amqp_management.c ****                 break;
 426:Source\azure_iot_sdk\uamqp\src/amqp_management.c ****             }
 427:Source\azure_iot_sdk\uamqp\src/amqp_management.c ****             /* Codes_SRS_AMQP_MANAGEMENT_01_144: [ For the current state of AMQP management being `
 428:Source\azure_iot_sdk\uamqp\src/amqp_management.c ****             case AMQP_MANAGEMENT_STATE_OPEN:
 429:Source\azure_iot_sdk\uamqp\src/amqp_management.c ****             {
 430:Source\azure_iot_sdk\uamqp\src/amqp_management.c ****                 switch (new_state)
ARM GAS  C:\Users\Phuong\AppData\Local\Temp\ccdTtd1y.s 			page 9


 431:Source\azure_iot_sdk\uamqp\src/amqp_management.c ****                 {
 432:Source\azure_iot_sdk\uamqp\src/amqp_management.c ****                 default:
 433:Source\azure_iot_sdk\uamqp\src/amqp_management.c ****                 /* Codes_SRS_AMQP_MANAGEMENT_01_143: [ - If `new_state` is `MESSAGE_SENDER_STATE_ID
 434:Source\azure_iot_sdk\uamqp\src/amqp_management.c ****                 case MESSAGE_SENDER_STATE_IDLE:
 435:Source\azure_iot_sdk\uamqp\src/amqp_management.c ****                 case MESSAGE_SENDER_STATE_CLOSING:
 436:Source\azure_iot_sdk\uamqp\src/amqp_management.c ****                 case MESSAGE_SENDER_STATE_ERROR:
 437:Source\azure_iot_sdk\uamqp\src/amqp_management.c ****                     amqp_management_instance->amqp_management_state = AMQP_MANAGEMENT_STATE_ERROR;
 438:Source\azure_iot_sdk\uamqp\src/amqp_management.c ****                     amqp_management_instance->on_amqp_management_error(amqp_management_instance->on
 439:Source\azure_iot_sdk\uamqp\src/amqp_management.c ****                     break;
 440:Source\azure_iot_sdk\uamqp\src/amqp_management.c **** 
 441:Source\azure_iot_sdk\uamqp\src/amqp_management.c ****                 case MESSAGE_SENDER_STATE_OPEN:
 442:Source\azure_iot_sdk\uamqp\src/amqp_management.c ****                     /* Codes_SRS_AMQP_MANAGEMENT_01_145: [ - If `new_state` is `MESSAGE_SENDER_STAT
 443:Source\azure_iot_sdk\uamqp\src/amqp_management.c ****                     break;
 444:Source\azure_iot_sdk\uamqp\src/amqp_management.c ****                 }
 445:Source\azure_iot_sdk\uamqp\src/amqp_management.c ****                 break;
 446:Source\azure_iot_sdk\uamqp\src/amqp_management.c ****             }
 447:Source\azure_iot_sdk\uamqp\src/amqp_management.c ****             /* Codes_SRS_AMQP_MANAGEMENT_09_001: [ For the current state of AMQP management being `
 448:Source\azure_iot_sdk\uamqp\src/amqp_management.c ****             case AMQP_MANAGEMENT_STATE_CLOSING:
 449:Source\azure_iot_sdk\uamqp\src/amqp_management.c ****             {
 450:Source\azure_iot_sdk\uamqp\src/amqp_management.c ****                 switch (new_state)
 451:Source\azure_iot_sdk\uamqp\src/amqp_management.c ****                 {
 452:Source\azure_iot_sdk\uamqp\src/amqp_management.c ****                 default:
 453:Source\azure_iot_sdk\uamqp\src/amqp_management.c ****                     /* Codes_SRS_AMQP_MANAGEMENT_09_002: [ - If `new_state` is `MESSAGE_SENDER_STAT
 454:Source\azure_iot_sdk\uamqp\src/amqp_management.c ****                 case MESSAGE_SENDER_STATE_OPEN:
 455:Source\azure_iot_sdk\uamqp\src/amqp_management.c ****                 case MESSAGE_SENDER_STATE_OPENING:
 456:Source\azure_iot_sdk\uamqp\src/amqp_management.c ****                 case MESSAGE_SENDER_STATE_ERROR:
 457:Source\azure_iot_sdk\uamqp\src/amqp_management.c ****                     amqp_management_instance->amqp_management_state = AMQP_MANAGEMENT_STATE_ERROR;
 458:Source\azure_iot_sdk\uamqp\src/amqp_management.c ****                     amqp_management_instance->on_amqp_management_error(amqp_management_instance->on
 459:Source\azure_iot_sdk\uamqp\src/amqp_management.c ****                     break;
 460:Source\azure_iot_sdk\uamqp\src/amqp_management.c ****                 case MESSAGE_SENDER_STATE_IDLE:
 461:Source\azure_iot_sdk\uamqp\src/amqp_management.c ****                 case MESSAGE_SENDER_STATE_CLOSING:
 462:Source\azure_iot_sdk\uamqp\src/amqp_management.c ****                     /* Codes_SRS_AMQP_MANAGEMENT_09_003: [ - If `new_state` is `MESSAGE_SENDER_STAT
 463:Source\azure_iot_sdk\uamqp\src/amqp_management.c ****                     break;
 464:Source\azure_iot_sdk\uamqp\src/amqp_management.c ****                 }
 465:Source\azure_iot_sdk\uamqp\src/amqp_management.c ****                 break;
 466:Source\azure_iot_sdk\uamqp\src/amqp_management.c ****             }
 467:Source\azure_iot_sdk\uamqp\src/amqp_management.c ****             /* Codes_SRS_AMQP_MANAGEMENT_01_146: [ For the current state of AMQP management being `
 468:Source\azure_iot_sdk\uamqp\src/amqp_management.c ****             case AMQP_MANAGEMENT_STATE_ERROR:
 469:Source\azure_iot_sdk\uamqp\src/amqp_management.c ****                 /* Codes_SRS_AMQP_MANAGEMENT_01_147: [ - All state transitions shall be ignored. ]*
 470:Source\azure_iot_sdk\uamqp\src/amqp_management.c ****                 break;
 471:Source\azure_iot_sdk\uamqp\src/amqp_management.c ****             }
 472:Source\azure_iot_sdk\uamqp\src/amqp_management.c ****         }
 473:Source\azure_iot_sdk\uamqp\src/amqp_management.c ****     }
 474:Source\azure_iot_sdk\uamqp\src/amqp_management.c **** }
 475:Source\azure_iot_sdk\uamqp\src/amqp_management.c **** 
 476:Source\azure_iot_sdk\uamqp\src/amqp_management.c **** static void on_message_receiver_state_changed(const void* context, MESSAGE_RECEIVER_STATE new_state
 477:Source\azure_iot_sdk\uamqp\src/amqp_management.c **** {
  27              		.loc 1 477 0
  28              		.cfi_startproc
  29              		@ args = 0, pretend = 0, frame = 0
  30              		@ frame_needed = 0, uses_anonymous_args = 0
  31              	.LVL0:
  32 0000 10B5     		push	{r4, lr}
  33              		.cfi_def_cfa_offset 8
  34              		.cfi_offset 4, -8
  35              		.cfi_offset 14, -4
  36 0002 82B0     		sub	sp, sp, #8
ARM GAS  C:\Users\Phuong\AppData\Local\Temp\ccdTtd1y.s 			page 10


  37              		.cfi_def_cfa_offset 16
 478:Source\azure_iot_sdk\uamqp\src/amqp_management.c ****     if (context == NULL)
  38              		.loc 1 478 0
  39 0004 0028     		cmp	r0, #0
  40 0006 0ED1     		bne	.L2
  41              	.LBB2:
 479:Source\azure_iot_sdk\uamqp\src/amqp_management.c ****     {
 480:Source\azure_iot_sdk\uamqp\src/amqp_management.c ****         /* Codes_SRS_AMQP_MANAGEMENT_01_149: [ When `on_message_receiver_state_changed` is called w
 481:Source\azure_iot_sdk\uamqp\src/amqp_management.c ****         LogError("on_message_receiver_state_changed called with NULL context");
  42              		.loc 1 481 0 discriminator 3
  43 0008 FFF7FEFF 		bl	xlogging_get_log_function
  44              	.LVL1:
  45 000c 041E     		subs	r4, r0, #0
  46              	.LVL2:
  47 000e 36D0     		beq	.L1
  48              		.loc 1 481 0 is_stmt 0 discriminator 4
  49 0010 1C4B     		ldr	r3, .L9
  50 0012 0193     		str	r3, [sp, #4]
  51 0014 0123     		movs	r3, #1
  52 0016 0093     		str	r3, [sp]
  53 0018 E223     		movs	r3, #226
  54 001a FF33     		adds	r3, r3, #255
  55 001c 1A4A     		ldr	r2, .L9+4
  56 001e 1B49     		ldr	r1, .L9+8
  57 0020 0020     		movs	r0, #0
  58              	.LVL3:
  59 0022 A047     		blx	r4
  60              	.LVL4:
  61 0024 2BE0     		b	.L1
  62              	.LVL5:
  63              	.L2:
  64              	.LBE2:
 482:Source\azure_iot_sdk\uamqp\src/amqp_management.c ****     }
 483:Source\azure_iot_sdk\uamqp\src/amqp_management.c ****     else
 484:Source\azure_iot_sdk\uamqp\src/amqp_management.c ****     {
 485:Source\azure_iot_sdk\uamqp\src/amqp_management.c ****         /* Codes_SRS_AMQP_MANAGEMENT_01_150: [ When `on_message_receiver_state_changed` is called a
 486:Source\azure_iot_sdk\uamqp\src/amqp_management.c ****         /* Codes_SRS_AMQP_MANAGEMENT_01_160: [ When no state change is detected, `on_message_receiv
 487:Source\azure_iot_sdk\uamqp\src/amqp_management.c ****         if (new_state != previous_state)
  65              		.loc 1 487 0 is_stmt 1
  66 0026 9142     		cmp	r1, r2
  67 0028 29D0     		beq	.L1
  68              	.LVL6:
  69              	.LBB3:
 488:Source\azure_iot_sdk\uamqp\src/amqp_management.c ****         {
 489:Source\azure_iot_sdk\uamqp\src/amqp_management.c ****             AMQP_MANAGEMENT_INSTANCE* amqp_management_instance = (AMQP_MANAGEMENT_INSTANCE*)context
 490:Source\azure_iot_sdk\uamqp\src/amqp_management.c ****             switch (amqp_management_instance->amqp_management_state)
  70              		.loc 1 490 0
  71 002a 3023     		movs	r3, #48
  72 002c C35C     		ldrb	r3, [r0, r3]
  73 002e 012B     		cmp	r3, #1
  74 0030 02D0     		beq	.L4
  75 0032 032B     		cmp	r3, #3
  76 0034 1BD0     		beq	.L5
  77 0036 22E0     		b	.L1
  78              	.L4:
 491:Source\azure_iot_sdk\uamqp\src/amqp_management.c ****             {
 492:Source\azure_iot_sdk\uamqp\src/amqp_management.c ****             default:
ARM GAS  C:\Users\Phuong\AppData\Local\Temp\ccdTtd1y.s 			page 11


 493:Source\azure_iot_sdk\uamqp\src/amqp_management.c ****                 break;
 494:Source\azure_iot_sdk\uamqp\src/amqp_management.c **** 
 495:Source\azure_iot_sdk\uamqp\src/amqp_management.c ****             /* Codes_SRS_AMQP_MANAGEMENT_01_151: [ For the current state of AMQP management being `
 496:Source\azure_iot_sdk\uamqp\src/amqp_management.c ****             case AMQP_MANAGEMENT_STATE_OPENING:
 497:Source\azure_iot_sdk\uamqp\src/amqp_management.c ****             {
 498:Source\azure_iot_sdk\uamqp\src/amqp_management.c ****                 switch (new_state)
  79              		.loc 1 498 0
  80 0038 0129     		cmp	r1, #1
  81 003a 20D0     		beq	.L1
  82 003c 0229     		cmp	r1, #2
  83 003e 07D0     		beq	.L7
 499:Source\azure_iot_sdk\uamqp\src/amqp_management.c ****                 {
 500:Source\azure_iot_sdk\uamqp\src/amqp_management.c ****                 case MESSAGE_RECEIVER_STATE_OPENING:
 501:Source\azure_iot_sdk\uamqp\src/amqp_management.c ****                     /* Codes_SRS_AMQP_MANAGEMENT_01_164: [ - If `new_state` is `MESSAGE_RECEIVER_ST
 502:Source\azure_iot_sdk\uamqp\src/amqp_management.c ****                     break;
 503:Source\azure_iot_sdk\uamqp\src/amqp_management.c **** 
 504:Source\azure_iot_sdk\uamqp\src/amqp_management.c ****                 default:
 505:Source\azure_iot_sdk\uamqp\src/amqp_management.c ****                 /* Codes_SRS_AMQP_MANAGEMENT_01_152: [ - If `new_state` is `MESSAGE_RECEIVER_STATE_
 506:Source\azure_iot_sdk\uamqp\src/amqp_management.c ****                 case MESSAGE_RECEIVER_STATE_IDLE:
 507:Source\azure_iot_sdk\uamqp\src/amqp_management.c ****                 case MESSAGE_RECEIVER_STATE_CLOSING:
 508:Source\azure_iot_sdk\uamqp\src/amqp_management.c ****                 case MESSAGE_RECEIVER_STATE_ERROR:
 509:Source\azure_iot_sdk\uamqp\src/amqp_management.c ****                     amqp_management_instance->amqp_management_state = AMQP_MANAGEMENT_STATE_IDLE;
  84              		.loc 1 509 0
  85 0040 0022     		movs	r2, #0
  86              	.LVL7:
  87 0042 3023     		movs	r3, #48
  88 0044 C254     		strb	r2, [r0, r3]
 510:Source\azure_iot_sdk\uamqp\src/amqp_management.c ****                     amqp_management_instance->on_amqp_management_open_complete(amqp_management_inst
  89              		.loc 1 510 0
  90 0046 036A     		ldr	r3, [r0, #32]
  91 0048 406A     		ldr	r0, [r0, #36]
  92              	.LVL8:
  93 004a 0121     		movs	r1, #1
  94              	.LVL9:
  95 004c 9847     		blx	r3
  96              	.LVL10:
 511:Source\azure_iot_sdk\uamqp\src/amqp_management.c ****                     break;
  97              		.loc 1 511 0
  98 004e 16E0     		b	.L1
  99              	.LVL11:
 100              	.L7:
 512:Source\azure_iot_sdk\uamqp\src/amqp_management.c **** 
 513:Source\azure_iot_sdk\uamqp\src/amqp_management.c ****                 case MESSAGE_RECEIVER_STATE_OPEN:
 514:Source\azure_iot_sdk\uamqp\src/amqp_management.c ****                     amqp_management_instance->receiver_connected = 1;
 101              		.loc 1 514 0
 102 0050 3C22     		movs	r2, #60
 103              	.LVL12:
 104 0052 815C     		ldrb	r1, [r0, r2]
 105              	.LVL13:
 106 0054 0223     		movs	r3, #2
 107 0056 0B43     		orrs	r3, r1
 108 0058 8354     		strb	r3, [r0, r2]
 515:Source\azure_iot_sdk\uamqp\src/amqp_management.c ****                     /* Codes_SRS_AMQP_MANAGEMENT_01_154: [ - If `new_state` is `MESSAGE_RECEIVER_ST
 516:Source\azure_iot_sdk\uamqp\src/amqp_management.c ****                     if (amqp_management_instance->sender_connected != 0)
 109              		.loc 1 516 0
 110 005a DB07     		lsls	r3, r3, #31
 111 005c 0FD5     		bpl	.L1
ARM GAS  C:\Users\Phuong\AppData\Local\Temp\ccdTtd1y.s 			page 12


 517:Source\azure_iot_sdk\uamqp\src/amqp_management.c ****                     {
 518:Source\azure_iot_sdk\uamqp\src/amqp_management.c ****                         /* Codes_SRS_AMQP_MANAGEMENT_01_153: [ - If `new_state` is `MESSAGE_RECEIVE
 519:Source\azure_iot_sdk\uamqp\src/amqp_management.c ****                         amqp_management_instance->amqp_management_state = AMQP_MANAGEMENT_STATE_OPE
 112              		.loc 1 519 0
 113 005e 393A     		subs	r2, r2, #57
 114 0060 3023     		movs	r3, #48
 115 0062 C254     		strb	r2, [r0, r3]
 520:Source\azure_iot_sdk\uamqp\src/amqp_management.c ****                         amqp_management_instance->on_amqp_management_open_complete(amqp_management_
 116              		.loc 1 520 0
 117 0064 036A     		ldr	r3, [r0, #32]
 118 0066 406A     		ldr	r0, [r0, #36]
 119              	.LVL14:
 120 0068 0021     		movs	r1, #0
 121 006a 9847     		blx	r3
 122              	.LVL15:
 123 006c 07E0     		b	.L1
 124              	.LVL16:
 125              	.L5:
 521:Source\azure_iot_sdk\uamqp\src/amqp_management.c ****                     }
 522:Source\azure_iot_sdk\uamqp\src/amqp_management.c ****                     break;
 523:Source\azure_iot_sdk\uamqp\src/amqp_management.c ****                 }
 524:Source\azure_iot_sdk\uamqp\src/amqp_management.c ****                 break;
 525:Source\azure_iot_sdk\uamqp\src/amqp_management.c ****             }
 526:Source\azure_iot_sdk\uamqp\src/amqp_management.c ****             /* Codes_SRS_AMQP_MANAGEMENT_01_155: [ For the current state of AMQP management being `
 527:Source\azure_iot_sdk\uamqp\src/amqp_management.c ****             case AMQP_MANAGEMENT_STATE_OPEN:
 528:Source\azure_iot_sdk\uamqp\src/amqp_management.c ****             {
 529:Source\azure_iot_sdk\uamqp\src/amqp_management.c ****                 switch (new_state)
 126              		.loc 1 529 0
 127 006e 0229     		cmp	r1, #2
 128 0070 05D0     		beq	.L1
 530:Source\azure_iot_sdk\uamqp\src/amqp_management.c ****                 {
 531:Source\azure_iot_sdk\uamqp\src/amqp_management.c ****                 default:
 532:Source\azure_iot_sdk\uamqp\src/amqp_management.c ****                 /* Codes_SRS_AMQP_MANAGEMENT_01_156: [ - If `new_state` is `MESSAGE_RECEIVER_STATE_
 533:Source\azure_iot_sdk\uamqp\src/amqp_management.c ****                 case MESSAGE_RECEIVER_STATE_IDLE:
 534:Source\azure_iot_sdk\uamqp\src/amqp_management.c ****                 case MESSAGE_RECEIVER_STATE_CLOSING:
 535:Source\azure_iot_sdk\uamqp\src/amqp_management.c ****                 case MESSAGE_RECEIVER_STATE_ERROR:
 536:Source\azure_iot_sdk\uamqp\src/amqp_management.c ****                     amqp_management_instance->amqp_management_state = AMQP_MANAGEMENT_STATE_ERROR;
 129              		.loc 1 536 0
 130 0072 0422     		movs	r2, #4
 131              	.LVL17:
 132 0074 3023     		movs	r3, #48
 133 0076 C254     		strb	r2, [r0, r3]
 537:Source\azure_iot_sdk\uamqp\src/amqp_management.c ****                     amqp_management_instance->on_amqp_management_error(amqp_management_instance->on
 134              		.loc 1 537 0
 135 0078 836A     		ldr	r3, [r0, #40]
 136 007a C06A     		ldr	r0, [r0, #44]
 137              	.LVL18:
 138 007c 9847     		blx	r3
 139              	.LVL19:
 140              	.L1:
 141              	.LBE3:
 538:Source\azure_iot_sdk\uamqp\src/amqp_management.c ****                     break;
 539:Source\azure_iot_sdk\uamqp\src/amqp_management.c **** 
 540:Source\azure_iot_sdk\uamqp\src/amqp_management.c ****                 case MESSAGE_RECEIVER_STATE_OPEN:
 541:Source\azure_iot_sdk\uamqp\src/amqp_management.c ****                     /* Codes_SRS_AMQP_MANAGEMENT_01_157: [ - If `new_state` is `MESSAGE_RECEIVER_ST
 542:Source\azure_iot_sdk\uamqp\src/amqp_management.c ****                     break;
 543:Source\azure_iot_sdk\uamqp\src/amqp_management.c ****                 }
ARM GAS  C:\Users\Phuong\AppData\Local\Temp\ccdTtd1y.s 			page 13


 544:Source\azure_iot_sdk\uamqp\src/amqp_management.c ****                 break;
 545:Source\azure_iot_sdk\uamqp\src/amqp_management.c ****             }
 546:Source\azure_iot_sdk\uamqp\src/amqp_management.c ****             /* Codes_SRS_AMQP_MANAGEMENT_01_158: [ For the current state of AMQP management being `
 547:Source\azure_iot_sdk\uamqp\src/amqp_management.c ****             case AMQP_MANAGEMENT_STATE_ERROR:
 548:Source\azure_iot_sdk\uamqp\src/amqp_management.c ****                 /* Codes_SRS_AMQP_MANAGEMENT_01_159: [ - All state transitions shall be ignored. ]*
 549:Source\azure_iot_sdk\uamqp\src/amqp_management.c ****                 break;
 550:Source\azure_iot_sdk\uamqp\src/amqp_management.c ****             }
 551:Source\azure_iot_sdk\uamqp\src/amqp_management.c ****         }
 552:Source\azure_iot_sdk\uamqp\src/amqp_management.c ****     }
 553:Source\azure_iot_sdk\uamqp\src/amqp_management.c **** }
 142              		.loc 1 553 0
 143 007e 02B0     		add	sp, sp, #8
 144              		@ sp needed
 145 0080 10BD     		pop	{r4, pc}
 146              	.L10:
 147 0082 C046     		.align	2
 148              	.L9:
 149 0084 34000000 		.word	.LC3
 150 0088 00000000 		.word	.LANCHOR0
 151 008c 00000000 		.word	.LC1
 152              		.cfi_endproc
 153              	.LFE4:
 154              		.size	on_message_receiver_state_changed, .-on_message_receiver_state_changed
 155              		.section	.text.on_message_sender_state_changed,"ax",%progbits
 156              		.align	2
 157              		.code	16
 158              		.thumb_func
 159              		.type	on_message_sender_state_changed, %function
 160              	on_message_sender_state_changed:
 161              	.LFB3:
 378:Source\azure_iot_sdk\uamqp\src/amqp_management.c ****     if (context == NULL)
 162              		.loc 1 378 0
 163              		.cfi_startproc
 164              		@ args = 0, pretend = 0, frame = 0
 165              		@ frame_needed = 0, uses_anonymous_args = 0
 166              	.LVL20:
 167 0000 10B5     		push	{r4, lr}
 168              		.cfi_def_cfa_offset 8
 169              		.cfi_offset 4, -8
 170              		.cfi_offset 14, -4
 171 0002 82B0     		sub	sp, sp, #8
 172              		.cfi_def_cfa_offset 16
 379:Source\azure_iot_sdk\uamqp\src/amqp_management.c ****     {
 173              		.loc 1 379 0
 174 0004 0028     		cmp	r0, #0
 175 0006 0FD1     		bne	.L12
 176              	.LBB4:
 382:Source\azure_iot_sdk\uamqp\src/amqp_management.c ****     }
 177              		.loc 1 382 0 discriminator 3
 178 0008 FFF7FEFF 		bl	xlogging_get_log_function
 179              	.LVL21:
 180 000c 041E     		subs	r4, r0, #0
 181              	.LVL22:
 182 000e 43D0     		beq	.L11
 382:Source\azure_iot_sdk\uamqp\src/amqp_management.c ****     }
 183              		.loc 1 382 0 is_stmt 0 discriminator 4
 184 0010 224B     		ldr	r3, .L21
ARM GAS  C:\Users\Phuong\AppData\Local\Temp\ccdTtd1y.s 			page 14


 185 0012 0193     		str	r3, [sp, #4]
 186 0014 0123     		movs	r3, #1
 187 0016 0093     		str	r3, [sp]
 188 0018 7E33     		adds	r3, r3, #126
 189 001a FF33     		adds	r3, r3, #255
 190 001c 204A     		ldr	r2, .L21+4
 191 001e 2432     		adds	r2, r2, #36
 192 0020 2049     		ldr	r1, .L21+8
 193 0022 0020     		movs	r0, #0
 194              	.LVL23:
 195 0024 A047     		blx	r4
 196              	.LVL24:
 197 0026 37E0     		b	.L11
 198              	.LVL25:
 199              	.L12:
 200              	.LBE4:
 388:Source\azure_iot_sdk\uamqp\src/amqp_management.c ****         {
 201              		.loc 1 388 0 is_stmt 1
 202 0028 9142     		cmp	r1, r2
 203 002a 35D0     		beq	.L11
 204              	.LVL26:
 205              	.LBB5:
 391:Source\azure_iot_sdk\uamqp\src/amqp_management.c ****             {
 206              		.loc 1 391 0
 207 002c 3023     		movs	r3, #48
 208 002e C35C     		ldrb	r3, [r0, r3]
 209 0030 022B     		cmp	r3, #2
 210 0032 27D0     		beq	.L14
 211 0034 032B     		cmp	r3, #3
 212 0036 1CD0     		beq	.L15
 213 0038 012B     		cmp	r3, #1
 214 003a 2DD1     		bne	.L11
 399:Source\azure_iot_sdk\uamqp\src/amqp_management.c ****                 {
 215              		.loc 1 399 0
 216 003c 0129     		cmp	r1, #1
 217 003e 2BD0     		beq	.L11
 218 0040 0229     		cmp	r1, #2
 219 0042 07D0     		beq	.L18
 410:Source\azure_iot_sdk\uamqp\src/amqp_management.c ****                     amqp_management_instance->on_amqp_management_open_complete(amqp_management_inst
 220              		.loc 1 410 0
 221 0044 0022     		movs	r2, #0
 222              	.LVL27:
 223 0046 2F33     		adds	r3, r3, #47
 224 0048 C254     		strb	r2, [r0, r3]
 411:Source\azure_iot_sdk\uamqp\src/amqp_management.c ****                     break;
 225              		.loc 1 411 0
 226 004a 036A     		ldr	r3, [r0, #32]
 227 004c 406A     		ldr	r0, [r0, #36]
 228              	.LVL28:
 229 004e 0121     		movs	r1, #1
 230              	.LVL29:
 231 0050 9847     		blx	r3
 232              	.LVL30:
 412:Source\azure_iot_sdk\uamqp\src/amqp_management.c **** 
 233              		.loc 1 412 0
 234 0052 21E0     		b	.L11
 235              	.LVL31:
ARM GAS  C:\Users\Phuong\AppData\Local\Temp\ccdTtd1y.s 			page 15


 236              	.L18:
 415:Source\azure_iot_sdk\uamqp\src/amqp_management.c ****                     /* Codes_SRS_AMQP_MANAGEMENT_01_142: [ - If `new_state` is `MESSAGE_SENDER_STAT
 237              		.loc 1 415 0
 238 0054 3C22     		movs	r2, #60
 239              	.LVL32:
 240 0056 815C     		ldrb	r1, [r0, r2]
 241              	.LVL33:
 242 0058 0123     		movs	r3, #1
 243 005a 0B43     		orrs	r3, r1
 244 005c 8354     		strb	r3, [r0, r2]
 417:Source\azure_iot_sdk\uamqp\src/amqp_management.c ****                     {
 245              		.loc 1 417 0
 246 005e 9B07     		lsls	r3, r3, #30
 247 0060 1AD5     		bpl	.L11
 420:Source\azure_iot_sdk\uamqp\src/amqp_management.c ****                         amqp_management_instance->on_amqp_management_open_complete(amqp_management_
 248              		.loc 1 420 0
 249 0062 393A     		subs	r2, r2, #57
 250 0064 3023     		movs	r3, #48
 251 0066 C254     		strb	r2, [r0, r3]
 421:Source\azure_iot_sdk\uamqp\src/amqp_management.c ****                     }
 252              		.loc 1 421 0
 253 0068 036A     		ldr	r3, [r0, #32]
 254 006a 406A     		ldr	r0, [r0, #36]
 255              	.LVL34:
 256 006c 0021     		movs	r1, #0
 257 006e 9847     		blx	r3
 258              	.LVL35:
 259 0070 12E0     		b	.L11
 260              	.LVL36:
 261              	.L15:
 430:Source\azure_iot_sdk\uamqp\src/amqp_management.c ****                 {
 262              		.loc 1 430 0
 263 0072 0229     		cmp	r1, #2
 264 0074 10D0     		beq	.L11
 437:Source\azure_iot_sdk\uamqp\src/amqp_management.c ****                     amqp_management_instance->on_amqp_management_error(amqp_management_instance->on
 265              		.loc 1 437 0
 266 0076 0422     		movs	r2, #4
 267              	.LVL37:
 268 0078 3023     		movs	r3, #48
 269 007a C254     		strb	r2, [r0, r3]
 438:Source\azure_iot_sdk\uamqp\src/amqp_management.c ****                     break;
 270              		.loc 1 438 0
 271 007c 836A     		ldr	r3, [r0, #40]
 272 007e C06A     		ldr	r0, [r0, #44]
 273              	.LVL38:
 274 0080 9847     		blx	r3
 275              	.LVL39:
 439:Source\azure_iot_sdk\uamqp\src/amqp_management.c **** 
 276              		.loc 1 439 0
 277 0082 09E0     		b	.L11
 278              	.LVL40:
 279              	.L14:
 450:Source\azure_iot_sdk\uamqp\src/amqp_management.c ****                 {
 280              		.loc 1 450 0
 281 0084 0029     		cmp	r1, #0
 282 0086 07D0     		beq	.L11
 283 0088 0329     		cmp	r1, #3
ARM GAS  C:\Users\Phuong\AppData\Local\Temp\ccdTtd1y.s 			page 16


 284 008a 05D0     		beq	.L11
 457:Source\azure_iot_sdk\uamqp\src/amqp_management.c ****                     amqp_management_instance->on_amqp_management_error(amqp_management_instance->on
 285              		.loc 1 457 0
 286 008c 0422     		movs	r2, #4
 287              	.LVL41:
 288 008e 3023     		movs	r3, #48
 289 0090 C254     		strb	r2, [r0, r3]
 458:Source\azure_iot_sdk\uamqp\src/amqp_management.c ****                     break;
 290              		.loc 1 458 0
 291 0092 836A     		ldr	r3, [r0, #40]
 292 0094 C06A     		ldr	r0, [r0, #44]
 293              	.LVL42:
 294 0096 9847     		blx	r3
 295              	.LVL43:
 296              	.L11:
 297              	.LBE5:
 474:Source\azure_iot_sdk\uamqp\src/amqp_management.c **** 
 298              		.loc 1 474 0
 299 0098 02B0     		add	sp, sp, #8
 300              		@ sp needed
 301 009a 10BD     		pop	{r4, pc}
 302              	.L22:
 303              		.align	2
 304              	.L21:
 305 009c 70000000 		.word	.LC7
 306 00a0 00000000 		.word	.LANCHOR0
 307 00a4 00000000 		.word	.LC1
 308              		.cfi_endproc
 309              	.LFE3:
 310              		.size	on_message_sender_state_changed, .-on_message_sender_state_changed
 311              		.section	.text.internal_set_status_code_key_name,"ax",%progbits
 312              		.align	2
 313              		.code	16
 314              		.thumb_func
 315              		.type	internal_set_status_code_key_name, %function
 316              	internal_set_status_code_key_name:
 317              	.LFB7:
 554:Source\azure_iot_sdk\uamqp\src/amqp_management.c **** 
 555:Source\azure_iot_sdk\uamqp\src/amqp_management.c **** static int set_message_id(MESSAGE_HANDLE message, uint64_t next_message_id)
 556:Source\azure_iot_sdk\uamqp\src/amqp_management.c **** {
 557:Source\azure_iot_sdk\uamqp\src/amqp_management.c ****     int result;
 558:Source\azure_iot_sdk\uamqp\src/amqp_management.c ****     PROPERTIES_HANDLE properties;
 559:Source\azure_iot_sdk\uamqp\src/amqp_management.c **** 
 560:Source\azure_iot_sdk\uamqp\src/amqp_management.c ****     /* Codes_SRS_AMQP_MANAGEMENT_01_094: [ In order to set the message Id on the message, the prope
 561:Source\azure_iot_sdk\uamqp\src/amqp_management.c ****     if (message_get_properties(message, &properties) != 0)
 562:Source\azure_iot_sdk\uamqp\src/amqp_management.c ****     {
 563:Source\azure_iot_sdk\uamqp\src/amqp_management.c ****         /* Codes_SRS_AMQP_MANAGEMENT_01_098: [ If any API fails while setting the message Id, `amqp
 564:Source\azure_iot_sdk\uamqp\src/amqp_management.c ****         LogError("Could not retrieve message properties");
 565:Source\azure_iot_sdk\uamqp\src/amqp_management.c ****         result = __FAILURE__;
 566:Source\azure_iot_sdk\uamqp\src/amqp_management.c ****     }
 567:Source\azure_iot_sdk\uamqp\src/amqp_management.c ****     else
 568:Source\azure_iot_sdk\uamqp\src/amqp_management.c ****     {
 569:Source\azure_iot_sdk\uamqp\src/amqp_management.c ****         /* Codes_SRS_AMQP_MANAGEMENT_01_099: [ If the properties were not set on the message, a new
 570:Source\azure_iot_sdk\uamqp\src/amqp_management.c ****         if (properties == NULL)
 571:Source\azure_iot_sdk\uamqp\src/amqp_management.c ****         {
 572:Source\azure_iot_sdk\uamqp\src/amqp_management.c ****             properties = properties_create();
 573:Source\azure_iot_sdk\uamqp\src/amqp_management.c ****         }
ARM GAS  C:\Users\Phuong\AppData\Local\Temp\ccdTtd1y.s 			page 17


 574:Source\azure_iot_sdk\uamqp\src/amqp_management.c **** 
 575:Source\azure_iot_sdk\uamqp\src/amqp_management.c ****         if (properties == NULL)
 576:Source\azure_iot_sdk\uamqp\src/amqp_management.c ****         {
 577:Source\azure_iot_sdk\uamqp\src/amqp_management.c ****             /* Codes_SRS_AMQP_MANAGEMENT_01_098: [ If any API fails while setting the message Id, `
 578:Source\azure_iot_sdk\uamqp\src/amqp_management.c ****             LogError("Could not create message properties");
 579:Source\azure_iot_sdk\uamqp\src/amqp_management.c ****             result = __FAILURE__;
 580:Source\azure_iot_sdk\uamqp\src/amqp_management.c ****         }
 581:Source\azure_iot_sdk\uamqp\src/amqp_management.c ****         else
 582:Source\azure_iot_sdk\uamqp\src/amqp_management.c ****         {
 583:Source\azure_iot_sdk\uamqp\src/amqp_management.c ****             /* Codes_SRS_AMQP_MANAGEMENT_01_095: [ A message Id with the next ulong value to be use
 584:Source\azure_iot_sdk\uamqp\src/amqp_management.c ****             AMQP_VALUE message_id = amqpvalue_create_message_id_ulong(next_message_id);
 585:Source\azure_iot_sdk\uamqp\src/amqp_management.c ****             if (message_id == NULL)
 586:Source\azure_iot_sdk\uamqp\src/amqp_management.c ****             {
 587:Source\azure_iot_sdk\uamqp\src/amqp_management.c ****                 /* Codes_SRS_AMQP_MANAGEMENT_01_098: [ If any API fails while setting the message I
 588:Source\azure_iot_sdk\uamqp\src/amqp_management.c ****                 LogError("Could not create message id value");
 589:Source\azure_iot_sdk\uamqp\src/amqp_management.c ****                 result = __FAILURE__;
 590:Source\azure_iot_sdk\uamqp\src/amqp_management.c ****             }
 591:Source\azure_iot_sdk\uamqp\src/amqp_management.c ****             else
 592:Source\azure_iot_sdk\uamqp\src/amqp_management.c ****             {
 593:Source\azure_iot_sdk\uamqp\src/amqp_management.c ****                 /* Codes_SRS_AMQP_MANAGEMENT_01_096: [ The message Id value shall be set on the pro
 594:Source\azure_iot_sdk\uamqp\src/amqp_management.c ****                 if (properties_set_message_id(properties, message_id) != 0)
 595:Source\azure_iot_sdk\uamqp\src/amqp_management.c ****                 {
 596:Source\azure_iot_sdk\uamqp\src/amqp_management.c ****                     /* Codes_SRS_AMQP_MANAGEMENT_01_098: [ If any API fails while setting the messa
 597:Source\azure_iot_sdk\uamqp\src/amqp_management.c ****                     LogError("Could not set message Id on the properties");
 598:Source\azure_iot_sdk\uamqp\src/amqp_management.c ****                     result = __FAILURE__;
 599:Source\azure_iot_sdk\uamqp\src/amqp_management.c ****                 }
 600:Source\azure_iot_sdk\uamqp\src/amqp_management.c ****                 /* Codes_SRS_AMQP_MANAGEMENT_01_097: [ The properties thus modified to contain the 
 601:Source\azure_iot_sdk\uamqp\src/amqp_management.c ****                 else if (message_set_properties(message, properties) != 0)
 602:Source\azure_iot_sdk\uamqp\src/amqp_management.c ****                 {
 603:Source\azure_iot_sdk\uamqp\src/amqp_management.c ****                     /* Codes_SRS_AMQP_MANAGEMENT_01_098: [ If any API fails while setting the messa
 604:Source\azure_iot_sdk\uamqp\src/amqp_management.c ****                     LogError("Could not set message properties");
 605:Source\azure_iot_sdk\uamqp\src/amqp_management.c ****                     result = __FAILURE__;
 606:Source\azure_iot_sdk\uamqp\src/amqp_management.c ****                 }
 607:Source\azure_iot_sdk\uamqp\src/amqp_management.c ****                 else
 608:Source\azure_iot_sdk\uamqp\src/amqp_management.c ****                 {
 609:Source\azure_iot_sdk\uamqp\src/amqp_management.c ****                     result = 0;
 610:Source\azure_iot_sdk\uamqp\src/amqp_management.c ****                 }
 611:Source\azure_iot_sdk\uamqp\src/amqp_management.c **** 
 612:Source\azure_iot_sdk\uamqp\src/amqp_management.c ****                 amqpvalue_destroy(message_id);
 613:Source\azure_iot_sdk\uamqp\src/amqp_management.c ****             }
 614:Source\azure_iot_sdk\uamqp\src/amqp_management.c **** 
 615:Source\azure_iot_sdk\uamqp\src/amqp_management.c ****             /* Codes_SRS_AMQP_MANAGEMENT_01_100: [ After setting the properties, the properties ins
 616:Source\azure_iot_sdk\uamqp\src/amqp_management.c ****             properties_destroy(properties);
 617:Source\azure_iot_sdk\uamqp\src/amqp_management.c ****         }
 618:Source\azure_iot_sdk\uamqp\src/amqp_management.c ****     }
 619:Source\azure_iot_sdk\uamqp\src/amqp_management.c **** 
 620:Source\azure_iot_sdk\uamqp\src/amqp_management.c ****     return result;
 621:Source\azure_iot_sdk\uamqp\src/amqp_management.c **** }
 622:Source\azure_iot_sdk\uamqp\src/amqp_management.c **** 
 623:Source\azure_iot_sdk\uamqp\src/amqp_management.c **** static int add_string_key_value_pair_to_map(AMQP_VALUE map, const char* key, const char* value)
 624:Source\azure_iot_sdk\uamqp\src/amqp_management.c **** {
 625:Source\azure_iot_sdk\uamqp\src/amqp_management.c ****     int result;
 626:Source\azure_iot_sdk\uamqp\src/amqp_management.c **** 
 627:Source\azure_iot_sdk\uamqp\src/amqp_management.c ****     /* Codes_SRS_AMQP_MANAGEMENT_01_084: [ For each of the arguments `operation`, `type` and `local
 628:Source\azure_iot_sdk\uamqp\src/amqp_management.c ****     AMQP_VALUE key_value = amqpvalue_create_string(key);
 629:Source\azure_iot_sdk\uamqp\src/amqp_management.c ****     if (key_value == NULL)
 630:Source\azure_iot_sdk\uamqp\src/amqp_management.c ****     {
ARM GAS  C:\Users\Phuong\AppData\Local\Temp\ccdTtd1y.s 			page 18


 631:Source\azure_iot_sdk\uamqp\src/amqp_management.c ****         /* Codes_SRS_AMQP_MANAGEMENT_01_090: [ If any APIs used to create and set the application p
 632:Source\azure_iot_sdk\uamqp\src/amqp_management.c ****         LogError("Could not create key value for %s", key);
 633:Source\azure_iot_sdk\uamqp\src/amqp_management.c ****         result = __FAILURE__;
 634:Source\azure_iot_sdk\uamqp\src/amqp_management.c ****     }
 635:Source\azure_iot_sdk\uamqp\src/amqp_management.c ****     else
 636:Source\azure_iot_sdk\uamqp\src/amqp_management.c ****     {
 637:Source\azure_iot_sdk\uamqp\src/amqp_management.c ****         /* Codes_SRS_AMQP_MANAGEMENT_01_085: [ For each of the arguments `operation`, `type` and `l
 638:Source\azure_iot_sdk\uamqp\src/amqp_management.c ****         AMQP_VALUE value_value = amqpvalue_create_string(value);
 639:Source\azure_iot_sdk\uamqp\src/amqp_management.c ****         if (value_value == NULL)
 640:Source\azure_iot_sdk\uamqp\src/amqp_management.c ****         {
 641:Source\azure_iot_sdk\uamqp\src/amqp_management.c ****             /* Codes_SRS_AMQP_MANAGEMENT_01_090: [ If any APIs used to create and set the applicati
 642:Source\azure_iot_sdk\uamqp\src/amqp_management.c ****             LogError("Could not create value for key %s", key);
 643:Source\azure_iot_sdk\uamqp\src/amqp_management.c ****             result = __FAILURE__;
 644:Source\azure_iot_sdk\uamqp\src/amqp_management.c ****         }
 645:Source\azure_iot_sdk\uamqp\src/amqp_management.c ****         else
 646:Source\azure_iot_sdk\uamqp\src/amqp_management.c ****         {
 647:Source\azure_iot_sdk\uamqp\src/amqp_management.c ****             /* Codes_SRS_AMQP_MANAGEMENT_01_086: [ The key/value pairs for `operation`, `type` and 
 648:Source\azure_iot_sdk\uamqp\src/amqp_management.c ****             if (amqpvalue_set_map_value(map, key_value, value_value) != 0)
 649:Source\azure_iot_sdk\uamqp\src/amqp_management.c ****             {
 650:Source\azure_iot_sdk\uamqp\src/amqp_management.c ****                 /* Codes_SRS_AMQP_MANAGEMENT_01_090: [ If any APIs used to create and set the appli
 651:Source\azure_iot_sdk\uamqp\src/amqp_management.c ****                 LogError("Could not set the value in the map for key %s", key);
 652:Source\azure_iot_sdk\uamqp\src/amqp_management.c ****                 result = __FAILURE__;
 653:Source\azure_iot_sdk\uamqp\src/amqp_management.c ****             }
 654:Source\azure_iot_sdk\uamqp\src/amqp_management.c ****             else
 655:Source\azure_iot_sdk\uamqp\src/amqp_management.c ****             {
 656:Source\azure_iot_sdk\uamqp\src/amqp_management.c ****                 result = 0;
 657:Source\azure_iot_sdk\uamqp\src/amqp_management.c ****             }
 658:Source\azure_iot_sdk\uamqp\src/amqp_management.c **** 
 659:Source\azure_iot_sdk\uamqp\src/amqp_management.c ****             amqpvalue_destroy(value_value);
 660:Source\azure_iot_sdk\uamqp\src/amqp_management.c ****         }
 661:Source\azure_iot_sdk\uamqp\src/amqp_management.c **** 
 662:Source\azure_iot_sdk\uamqp\src/amqp_management.c ****         amqpvalue_destroy(key_value);
 663:Source\azure_iot_sdk\uamqp\src/amqp_management.c ****     }
 664:Source\azure_iot_sdk\uamqp\src/amqp_management.c **** 
 665:Source\azure_iot_sdk\uamqp\src/amqp_management.c ****     return result;
 666:Source\azure_iot_sdk\uamqp\src/amqp_management.c **** }
 667:Source\azure_iot_sdk\uamqp\src/amqp_management.c **** 
 668:Source\azure_iot_sdk\uamqp\src/amqp_management.c **** static int internal_set_status_code_key_name(AMQP_MANAGEMENT_HANDLE amqp_management, const char* st
 669:Source\azure_iot_sdk\uamqp\src/amqp_management.c **** {
 318              		.loc 1 669 0
 319              		.cfi_startproc
 320              		@ args = 0, pretend = 0, frame = 8
 321              		@ frame_needed = 0, uses_anonymous_args = 0
 322              	.LVL44:
 323 0000 10B5     		push	{r4, lr}
 324              		.cfi_def_cfa_offset 8
 325              		.cfi_offset 4, -8
 326              		.cfi_offset 14, -4
 327 0002 84B0     		sub	sp, sp, #16
 328              		.cfi_def_cfa_offset 24
 329 0004 0400     		movs	r4, r0
 670:Source\azure_iot_sdk\uamqp\src/amqp_management.c ****     int result;
 671:Source\azure_iot_sdk\uamqp\src/amqp_management.c ****     char* copied_status_code_key_name;
 672:Source\azure_iot_sdk\uamqp\src/amqp_management.c ****     if (mallocAndStrcpy_s(&copied_status_code_key_name, status_code_key_name) != 0)
 330              		.loc 1 672 0
 331 0006 03A8     		add	r0, sp, #12
 332              	.LVL45:
ARM GAS  C:\Users\Phuong\AppData\Local\Temp\ccdTtd1y.s 			page 19


 333 0008 FFF7FEFF 		bl	mallocAndStrcpy_s
 334              	.LVL46:
 335 000c 0028     		cmp	r0, #0
 336 000e 0FD0     		beq	.L24
 337              	.LBB6:
 673:Source\azure_iot_sdk\uamqp\src/amqp_management.c ****     {
 674:Source\azure_iot_sdk\uamqp\src/amqp_management.c ****         LogError("Cannot copy status code key name");
 338              		.loc 1 674 0 discriminator 3
 339 0010 FFF7FEFF 		bl	xlogging_get_log_function
 340              	.LVL47:
 341 0014 041E     		subs	r4, r0, #0
 342              	.LVL48:
 343 0016 14D0     		beq	.L27
 344              		.loc 1 674 0 is_stmt 0 discriminator 4
 345 0018 0B4B     		ldr	r3, .L28
 346 001a 0193     		str	r3, [sp, #4]
 347 001c 0123     		movs	r3, #1
 348 001e 0093     		str	r3, [sp]
 349 0020 0A4B     		ldr	r3, .L28+4
 350 0022 0B4A     		ldr	r2, .L28+8
 351 0024 4432     		adds	r2, r2, #68
 352 0026 0B49     		ldr	r1, .L28+12
 353 0028 0020     		movs	r0, #0
 354              	.LVL49:
 355 002a A047     		blx	r4
 356              	.LVL50:
 357              	.LBE6:
 675:Source\azure_iot_sdk\uamqp\src/amqp_management.c ****         result = __FAILURE__;
 358              		.loc 1 675 0 is_stmt 1 discriminator 4
 359 002c 0A48     		ldr	r0, .L28+16
 360 002e 09E0     		b	.L25
 361              	.LVL51:
 362              	.L24:
 676:Source\azure_iot_sdk\uamqp\src/amqp_management.c ****     }
 677:Source\azure_iot_sdk\uamqp\src/amqp_management.c ****     else
 678:Source\azure_iot_sdk\uamqp\src/amqp_management.c ****     {
 679:Source\azure_iot_sdk\uamqp\src/amqp_management.c ****         if (amqp_management->status_code_key_name != NULL)
 363              		.loc 1 679 0
 364 0030 606B     		ldr	r0, [r4, #52]
 365 0032 0028     		cmp	r0, #0
 366 0034 01D0     		beq	.L26
 680:Source\azure_iot_sdk\uamqp\src/amqp_management.c ****         {
 681:Source\azure_iot_sdk\uamqp\src/amqp_management.c ****             free(amqp_management->status_code_key_name);
 367              		.loc 1 681 0
 368 0036 FFF7FEFF 		bl	free
 369              	.LVL52:
 370              	.L26:
 682:Source\azure_iot_sdk\uamqp\src/amqp_management.c ****         }
 683:Source\azure_iot_sdk\uamqp\src/amqp_management.c **** 
 684:Source\azure_iot_sdk\uamqp\src/amqp_management.c ****         amqp_management->status_code_key_name = copied_status_code_key_name;
 371              		.loc 1 684 0
 372 003a 039B     		ldr	r3, [sp, #12]
 373 003c 6363     		str	r3, [r4, #52]
 374              	.LVL53:
 685:Source\azure_iot_sdk\uamqp\src/amqp_management.c ****         result = 0;
 375              		.loc 1 685 0
 376 003e 0020     		movs	r0, #0
ARM GAS  C:\Users\Phuong\AppData\Local\Temp\ccdTtd1y.s 			page 20


 377 0040 00E0     		b	.L25
 378              	.LVL54:
 379              	.L27:
 675:Source\azure_iot_sdk\uamqp\src/amqp_management.c ****     }
 380              		.loc 1 675 0
 381 0042 0548     		ldr	r0, .L28+16
 382              	.LVL55:
 383              	.L25:
 686:Source\azure_iot_sdk\uamqp\src/amqp_management.c ****     }
 687:Source\azure_iot_sdk\uamqp\src/amqp_management.c **** 
 688:Source\azure_iot_sdk\uamqp\src/amqp_management.c ****     return result;
 689:Source\azure_iot_sdk\uamqp\src/amqp_management.c **** }
 384              		.loc 1 689 0
 385 0044 04B0     		add	sp, sp, #16
 386              		@ sp needed
 387 0046 10BD     		pop	{r4, pc}
 388              	.L29:
 389              		.align	2
 390              	.L28:
 391 0048 AC000000 		.word	.LC11
 392 004c A2020000 		.word	674
 393 0050 00000000 		.word	.LANCHOR0
 394 0054 00000000 		.word	.LC1
 395 0058 A3020000 		.word	675
 396              		.cfi_endproc
 397              	.LFE7:
 398              		.size	internal_set_status_code_key_name, .-internal_set_status_code_key_name
 399              		.section	.text.internal_set_status_description_key_name,"ax",%progbits
 400              		.align	2
 401              		.code	16
 402              		.thumb_func
 403              		.type	internal_set_status_description_key_name, %function
 404              	internal_set_status_description_key_name:
 405              	.LFB8:
 690:Source\azure_iot_sdk\uamqp\src/amqp_management.c **** 
 691:Source\azure_iot_sdk\uamqp\src/amqp_management.c **** static int internal_set_status_description_key_name(AMQP_MANAGEMENT_HANDLE amqp_management, const c
 692:Source\azure_iot_sdk\uamqp\src/amqp_management.c **** {
 406              		.loc 1 692 0
 407              		.cfi_startproc
 408              		@ args = 0, pretend = 0, frame = 8
 409              		@ frame_needed = 0, uses_anonymous_args = 0
 410              	.LVL56:
 411 0000 10B5     		push	{r4, lr}
 412              		.cfi_def_cfa_offset 8
 413              		.cfi_offset 4, -8
 414              		.cfi_offset 14, -4
 415 0002 84B0     		sub	sp, sp, #16
 416              		.cfi_def_cfa_offset 24
 417 0004 0400     		movs	r4, r0
 693:Source\azure_iot_sdk\uamqp\src/amqp_management.c ****     int result;
 694:Source\azure_iot_sdk\uamqp\src/amqp_management.c ****     char* copied_status_description_key_name;
 695:Source\azure_iot_sdk\uamqp\src/amqp_management.c ****     if (mallocAndStrcpy_s(&copied_status_description_key_name, status_description_key_name) != 0)
 418              		.loc 1 695 0
 419 0006 03A8     		add	r0, sp, #12
 420              	.LVL57:
 421 0008 FFF7FEFF 		bl	mallocAndStrcpy_s
 422              	.LVL58:
ARM GAS  C:\Users\Phuong\AppData\Local\Temp\ccdTtd1y.s 			page 21


 423 000c 0028     		cmp	r0, #0
 424 000e 0FD0     		beq	.L31
 425              	.LBB7:
 696:Source\azure_iot_sdk\uamqp\src/amqp_management.c ****     {
 697:Source\azure_iot_sdk\uamqp\src/amqp_management.c ****         LogError("Cannot copy status description key name");
 426              		.loc 1 697 0 discriminator 3
 427 0010 FFF7FEFF 		bl	xlogging_get_log_function
 428              	.LVL59:
 429 0014 041E     		subs	r4, r0, #0
 430              	.LVL60:
 431 0016 14D0     		beq	.L34
 432              		.loc 1 697 0 is_stmt 0 discriminator 4
 433 0018 0B4B     		ldr	r3, .L35
 434 001a 0193     		str	r3, [sp, #4]
 435 001c 0123     		movs	r3, #1
 436 001e 0093     		str	r3, [sp]
 437 0020 0A4B     		ldr	r3, .L35+4
 438 0022 0B4A     		ldr	r2, .L35+8
 439 0024 6832     		adds	r2, r2, #104
 440 0026 0B49     		ldr	r1, .L35+12
 441 0028 0020     		movs	r0, #0
 442              	.LVL61:
 443 002a A047     		blx	r4
 444              	.LVL62:
 445              	.LBE7:
 698:Source\azure_iot_sdk\uamqp\src/amqp_management.c ****         result = __FAILURE__;
 446              		.loc 1 698 0 is_stmt 1 discriminator 4
 447 002c 0A48     		ldr	r0, .L35+16
 448 002e 09E0     		b	.L32
 449              	.LVL63:
 450              	.L31:
 699:Source\azure_iot_sdk\uamqp\src/amqp_management.c ****     }
 700:Source\azure_iot_sdk\uamqp\src/amqp_management.c ****     else
 701:Source\azure_iot_sdk\uamqp\src/amqp_management.c ****     {
 702:Source\azure_iot_sdk\uamqp\src/amqp_management.c ****         if (amqp_management->status_description_key_name != NULL)
 451              		.loc 1 702 0
 452 0030 A06B     		ldr	r0, [r4, #56]
 453 0032 0028     		cmp	r0, #0
 454 0034 01D0     		beq	.L33
 703:Source\azure_iot_sdk\uamqp\src/amqp_management.c ****         {
 704:Source\azure_iot_sdk\uamqp\src/amqp_management.c ****             free(amqp_management->status_description_key_name);
 455              		.loc 1 704 0
 456 0036 FFF7FEFF 		bl	free
 457              	.LVL64:
 458              	.L33:
 705:Source\azure_iot_sdk\uamqp\src/amqp_management.c ****         }
 706:Source\azure_iot_sdk\uamqp\src/amqp_management.c **** 
 707:Source\azure_iot_sdk\uamqp\src/amqp_management.c ****         amqp_management->status_description_key_name = copied_status_description_key_name;
 459              		.loc 1 707 0
 460 003a 039B     		ldr	r3, [sp, #12]
 461 003c A363     		str	r3, [r4, #56]
 462              	.LVL65:
 708:Source\azure_iot_sdk\uamqp\src/amqp_management.c ****         result = 0;
 463              		.loc 1 708 0
 464 003e 0020     		movs	r0, #0
 465 0040 00E0     		b	.L32
 466              	.LVL66:
ARM GAS  C:\Users\Phuong\AppData\Local\Temp\ccdTtd1y.s 			page 22


 467              	.L34:
 698:Source\azure_iot_sdk\uamqp\src/amqp_management.c ****     }
 468              		.loc 1 698 0
 469 0042 0548     		ldr	r0, .L35+16
 470              	.LVL67:
 471              	.L32:
 709:Source\azure_iot_sdk\uamqp\src/amqp_management.c ****     }
 710:Source\azure_iot_sdk\uamqp\src/amqp_management.c **** 
 711:Source\azure_iot_sdk\uamqp\src/amqp_management.c ****     return result;
 712:Source\azure_iot_sdk\uamqp\src/amqp_management.c **** }
 472              		.loc 1 712 0
 473 0044 04B0     		add	sp, sp, #16
 474              		@ sp needed
 475 0046 10BD     		pop	{r4, pc}
 476              	.L36:
 477              		.align	2
 478              	.L35:
 479 0048 D0000000 		.word	.LC15
 480 004c B9020000 		.word	697
 481 0050 00000000 		.word	.LANCHOR0
 482 0054 00000000 		.word	.LC1
 483 0058 BA020000 		.word	698
 484              		.cfi_endproc
 485              	.LFE8:
 486              		.size	internal_set_status_description_key_name, .-internal_set_status_description_key_name
 487              		.section	.text.on_message_send_complete,"ax",%progbits
 488              		.align	2
 489              		.code	16
 490              		.thumb_func
 491              		.type	on_message_send_complete, %function
 492              	on_message_send_complete:
 493              	.LFB2:
 336:Source\azure_iot_sdk\uamqp\src/amqp_management.c ****     (void)delivery_state;
 494              		.loc 1 336 0
 495              		.cfi_startproc
 496              		@ args = 0, pretend = 0, frame = 0
 497              		@ frame_needed = 0, uses_anonymous_args = 0
 498              	.LVL68:
 499 0000 70B5     		push	{r4, r5, r6, lr}
 500              		.cfi_def_cfa_offset 16
 501              		.cfi_offset 4, -16
 502              		.cfi_offset 5, -12
 503              		.cfi_offset 6, -8
 504              		.cfi_offset 14, -4
 505 0002 82B0     		sub	sp, sp, #8
 506              		.cfi_def_cfa_offset 24
 507 0004 041E     		subs	r4, r0, #0
 339:Source\azure_iot_sdk\uamqp\src/amqp_management.c ****     {
 508              		.loc 1 339 0
 509 0006 0FD1     		bne	.L38
 510              	.LBB8:
 342:Source\azure_iot_sdk\uamqp\src/amqp_management.c ****     }
 511              		.loc 1 342 0 discriminator 3
 512 0008 FFF7FEFF 		bl	xlogging_get_log_function
 513              	.LVL69:
 514 000c 041E     		subs	r4, r0, #0
 515              	.LVL70:
ARM GAS  C:\Users\Phuong\AppData\Local\Temp\ccdTtd1y.s 			page 23


 516 000e 34D0     		beq	.L37
 342:Source\azure_iot_sdk\uamqp\src/amqp_management.c ****     }
 517              		.loc 1 342 0 is_stmt 0 discriminator 4
 518 0010 1B4B     		ldr	r3, .L41
 519 0012 0193     		str	r3, [sp, #4]
 520 0014 0123     		movs	r3, #1
 521 0016 0093     		str	r3, [sp]
 522 0018 5633     		adds	r3, r3, #86
 523 001a FF33     		adds	r3, r3, #255
 524 001c 194A     		ldr	r2, .L41+4
 525 001e 1432     		adds	r2, r2, #20
 526 0020 1949     		ldr	r1, .L41+8
 527 0022 0020     		movs	r0, #0
 528              	.LVL71:
 529 0024 A047     		blx	r4
 530              	.LVL72:
 531 0026 28E0     		b	.L37
 532              	.LVL73:
 533              	.L38:
 534              	.LBE8:
 346:Source\azure_iot_sdk\uamqp\src/amqp_management.c ****         {
 535              		.loc 1 346 0 is_stmt 1
 536 0028 0029     		cmp	r1, #0
 537 002a 26D0     		beq	.L37
 538              	.LVL74:
 539              	.LBB9:
 357:Source\azure_iot_sdk\uamqp\src/amqp_management.c ****             AMQP_MANAGEMENT_HANDLE amqp_management = pending_operation_message->amqp_management;
 540              		.loc 1 357 0
 541 002c FFF7FEFF 		bl	singlylinkedlist_item_get_value
 542              	.LVL75:
 543 0030 0500     		movs	r5, r0
 544              	.LVL76:
 358:Source\azure_iot_sdk\uamqp\src/amqp_management.c **** 
 545              		.loc 1 358 0
 546 0032 0669     		ldr	r6, [r0, #16]
 547              	.LVL77:
 361:Source\azure_iot_sdk\uamqp\src/amqp_management.c ****             {
 548              		.loc 1 361 0
 549 0034 2100     		movs	r1, r4
 550 0036 3069     		ldr	r0, [r6, #16]
 551              	.LVL78:
 552 0038 FFF7FEFF 		bl	singlylinkedlist_remove
 553              	.LVL79:
 554 003c 0028     		cmp	r0, #0
 555 003e 12D0     		beq	.L40
 364:Source\azure_iot_sdk\uamqp\src/amqp_management.c ****                 LogError("Cannot remove pending operation");
 556              		.loc 1 364 0
 557 0040 B36A     		ldr	r3, [r6, #40]
 558 0042 F06A     		ldr	r0, [r6, #44]
 559 0044 9847     		blx	r3
 560              	.LVL80:
 561              	.LBB10:
 365:Source\azure_iot_sdk\uamqp\src/amqp_management.c ****             }
 562              		.loc 1 365 0
 563 0046 FFF7FEFF 		bl	xlogging_get_log_function
 564              	.LVL81:
 565 004a 041E     		subs	r4, r0, #0
ARM GAS  C:\Users\Phuong\AppData\Local\Temp\ccdTtd1y.s 			page 24


 566              	.LVL82:
 567 004c 15D0     		beq	.L37
 365:Source\azure_iot_sdk\uamqp\src/amqp_management.c ****             }
 568              		.loc 1 365 0 is_stmt 0 discriminator 4
 569 004e 0F4B     		ldr	r3, .L41+12
 570 0050 0193     		str	r3, [sp, #4]
 571 0052 0123     		movs	r3, #1
 572 0054 0093     		str	r3, [sp]
 573 0056 6E23     		movs	r3, #110
 574 0058 FF33     		adds	r3, r3, #255
 575 005a 0A4A     		ldr	r2, .L41+4
 576 005c 1432     		adds	r2, r2, #20
 577 005e 0A49     		ldr	r1, .L41+8
 578 0060 0020     		movs	r0, #0
 579              	.LVL83:
 580 0062 A047     		blx	r4
 581              	.LVL84:
 582 0064 09E0     		b	.L37
 583              	.LVL85:
 584              	.L40:
 585              	.LBE10:
 370:Source\azure_iot_sdk\uamqp\src/amqp_management.c ****                 free(pending_operation_message);
 586              		.loc 1 370 0 is_stmt 1
 587 0066 2C68     		ldr	r4, [r5]
 588              	.LVL86:
 589 0068 6868     		ldr	r0, [r5, #4]
 590 006a 0023     		movs	r3, #0
 591 006c 0093     		str	r3, [sp]
 592 006e 0022     		movs	r2, #0
 593 0070 0121     		movs	r1, #1
 594 0072 A047     		blx	r4
 595              	.LVL87:
 371:Source\azure_iot_sdk\uamqp\src/amqp_management.c ****             }
 596              		.loc 1 371 0
 597 0074 2800     		movs	r0, r5
 598 0076 FFF7FEFF 		bl	free
 599              	.LVL88:
 600              	.L37:
 601              	.LBE9:
 375:Source\azure_iot_sdk\uamqp\src/amqp_management.c **** 
 602              		.loc 1 375 0
 603 007a 02B0     		add	sp, sp, #8
 604              		@ sp needed
 605 007c 70BD     		pop	{r4, r5, r6, pc}
 606              	.L42:
 607 007e C046     		.align	2
 608              	.L41:
 609 0080 F8000000 		.word	.LC19
 610 0084 80000000 		.word	.LANCHOR1
 611 0088 00000000 		.word	.LC1
 612 008c 08010000 		.word	.LC21
 613              		.cfi_endproc
 614              	.LFE2:
 615              		.size	on_message_send_complete, .-on_message_send_complete
 616              		.section	.text.on_message_received,"ax",%progbits
 617              		.align	2
 618              		.code	16
ARM GAS  C:\Users\Phuong\AppData\Local\Temp\ccdTtd1y.s 			page 25


 619              		.thumb_func
 620              		.type	on_message_received, %function
 621              	on_message_received:
 622              	.LFB1:
  62:Source\azure_iot_sdk\uamqp\src/amqp_management.c ****     AMQP_VALUE result;
 623              		.loc 1 62 0
 624              		.cfi_startproc
 625              		@ args = 0, pretend = 0, frame = 48
 626              		@ frame_needed = 0, uses_anonymous_args = 0
 627              	.LVL89:
 628 0000 F0B5     		push	{r4, r5, r6, r7, lr}
 629              		.cfi_def_cfa_offset 20
 630              		.cfi_offset 4, -20
 631              		.cfi_offset 5, -16
 632              		.cfi_offset 6, -12
 633              		.cfi_offset 7, -8
 634              		.cfi_offset 14, -4
 635 0002 5F46     		mov	r7, fp
 636 0004 5646     		mov	r6, r10
 637 0006 C0B4     		push	{r6, r7}
 638              		.cfi_def_cfa_offset 28
 639              		.cfi_offset 10, -28
 640              		.cfi_offset 11, -24
 641 0008 8FB0     		sub	sp, sp, #60
 642              		.cfi_def_cfa_offset 88
 643 000a 0700     		movs	r7, r0
 644 000c 0C00     		movs	r4, r1
  65:Source\azure_iot_sdk\uamqp\src/amqp_management.c ****     {
 645              		.loc 1 65 0
 646 000e 0028     		cmp	r0, #0
 647 0010 10D1     		bne	.L44
 648              	.LBB11:
  68:Source\azure_iot_sdk\uamqp\src/amqp_management.c ****         result = NULL;
 649              		.loc 1 68 0 discriminator 3
 650 0012 FFF7FEFF 		bl	xlogging_get_log_function
 651              	.LVL90:
 652 0016 041E     		subs	r4, r0, #0
 653              	.LVL91:
 654 0018 00D1     		bne	.LCB686
 655 001a E2E1     		b	.L83	@long jump
 656              	.LCB686:
  68:Source\azure_iot_sdk\uamqp\src/amqp_management.c ****         result = NULL;
 657              		.loc 1 68 0 is_stmt 0 discriminator 4
 658 001c C34B     		ldr	r3, .L87
 659 001e 0193     		str	r3, [sp, #4]
 660 0020 0123     		movs	r3, #1
 661 0022 0093     		str	r3, [sp]
 662 0024 4333     		adds	r3, r3, #67
 663 0026 C24A     		ldr	r2, .L87+4
 664 0028 3032     		adds	r2, r2, #48
 665 002a C249     		ldr	r1, .L87+8
 666 002c 0020     		movs	r0, #0
 667              	.LVL92:
 668 002e A047     		blx	r4
 669              	.LVL93:
 670              	.LBE11:
  69:Source\azure_iot_sdk\uamqp\src/amqp_management.c ****     }
ARM GAS  C:\Users\Phuong\AppData\Local\Temp\ccdTtd1y.s 			page 26


 671              		.loc 1 69 0 is_stmt 1 discriminator 4
 672 0030 0024     		movs	r4, #0
 673              	.LVL94:
 674 0032 D7E1     		b	.L45
 675              	.LVL95:
 676              	.L44:
 677              	.LBB12:
  77:Source\azure_iot_sdk\uamqp\src/amqp_management.c ****         {
 678              		.loc 1 77 0
 679 0034 07A9     		add	r1, sp, #28
 680              	.LVL96:
 681 0036 2000     		movs	r0, r4
 682              	.LVL97:
 683 0038 FFF7FEFF 		bl	message_get_application_properties
 684              	.LVL98:
 685 003c 0028     		cmp	r0, #0
 686 003e 16D0     		beq	.L46
 687              	.LBB13:
  80:Source\azure_iot_sdk\uamqp\src/amqp_management.c ****             amqp_management->on_amqp_management_error(amqp_management->on_amqp_management_error_con
 688              		.loc 1 80 0 discriminator 3
 689 0040 FFF7FEFF 		bl	xlogging_get_log_function
 690              	.LVL99:
 691 0044 041E     		subs	r4, r0, #0
 692              	.LVL100:
 693 0046 09D0     		beq	.L47
  80:Source\azure_iot_sdk\uamqp\src/amqp_management.c ****             amqp_management->on_amqp_management_error(amqp_management->on_amqp_management_error_con
 694              		.loc 1 80 0 is_stmt 0 discriminator 4
 695 0048 BB4B     		ldr	r3, .L87+12
 696 004a 0193     		str	r3, [sp, #4]
 697 004c 0123     		movs	r3, #1
 698 004e 0093     		str	r3, [sp]
 699 0050 4F33     		adds	r3, r3, #79
 700 0052 B74A     		ldr	r2, .L87+4
 701 0054 3032     		adds	r2, r2, #48
 702 0056 B749     		ldr	r1, .L87+8
 703 0058 0020     		movs	r0, #0
 704              	.LVL101:
 705 005a A047     		blx	r4
 706              	.LVL102:
 707              	.L47:
 708              	.LBE13:
  81:Source\azure_iot_sdk\uamqp\src/amqp_management.c ****             /* Codes_SRS_AMQP_MANAGEMENT_01_136: [ When `on_message_received` fails due to errors i
 709              		.loc 1 81 0 is_stmt 1
 710 005c BB6A     		ldr	r3, [r7, #40]
 711 005e F86A     		ldr	r0, [r7, #44]
 712 0060 9847     		blx	r3
 713              	.LVL103:
  83:Source\azure_iot_sdk\uamqp\src/amqp_management.c ****         }
 714              		.loc 1 83 0
 715 0062 B649     		ldr	r1, .L87+16
 716 0064 B648     		ldr	r0, .L87+20
 717 0066 FFF7FEFF 		bl	messaging_delivery_rejected
 718              	.LVL104:
 719 006a 0400     		movs	r4, r0
 720              	.LVL105:
 721 006c BAE1     		b	.L45
 722              	.LVL106:
ARM GAS  C:\Users\Phuong\AppData\Local\Temp\ccdTtd1y.s 			page 27


 723              	.L46:
 724              	.LBB14:
  90:Source\azure_iot_sdk\uamqp\src/amqp_management.c ****             {
 725              		.loc 1 90 0
 726 006e 08A9     		add	r1, sp, #32
 727 0070 2000     		movs	r0, r4
 728 0072 FFF7FEFF 		bl	message_get_properties
 729              	.LVL107:
 730 0076 0028     		cmp	r0, #0
 731 0078 16D0     		beq	.L49
 732              	.LBB15:
  93:Source\azure_iot_sdk\uamqp\src/amqp_management.c ****                 amqp_management->on_amqp_management_error(amqp_management->on_amqp_management_error
 733              		.loc 1 93 0 discriminator 3
 734 007a FFF7FEFF 		bl	xlogging_get_log_function
 735              	.LVL108:
 736 007e 041E     		subs	r4, r0, #0
 737              	.LVL109:
 738 0080 09D0     		beq	.L50
  93:Source\azure_iot_sdk\uamqp\src/amqp_management.c ****                 amqp_management->on_amqp_management_error(amqp_management->on_amqp_management_error
 739              		.loc 1 93 0 is_stmt 0 discriminator 4
 740 0082 B04B     		ldr	r3, .L87+24
 741 0084 0193     		str	r3, [sp, #4]
 742 0086 0123     		movs	r3, #1
 743 0088 0093     		str	r3, [sp]
 744 008a 5C33     		adds	r3, r3, #92
 745 008c A84A     		ldr	r2, .L87+4
 746 008e 3032     		adds	r2, r2, #48
 747 0090 A849     		ldr	r1, .L87+8
 748 0092 0020     		movs	r0, #0
 749              	.LVL110:
 750 0094 A047     		blx	r4
 751              	.LVL111:
 752              	.L50:
 753              	.LBE15:
  94:Source\azure_iot_sdk\uamqp\src/amqp_management.c ****                 /* Codes_SRS_AMQP_MANAGEMENT_01_136: [ When `on_message_received` fails due to erro
 754              		.loc 1 94 0 is_stmt 1
 755 0096 BB6A     		ldr	r3, [r7, #40]
 756 0098 F86A     		ldr	r0, [r7, #44]
 757 009a 9847     		blx	r3
 758              	.LVL112:
  96:Source\azure_iot_sdk\uamqp\src/amqp_management.c ****             }
 759              		.loc 1 96 0
 760 009c AA49     		ldr	r1, .L87+28
 761 009e A848     		ldr	r0, .L87+20
 762 00a0 FFF7FEFF 		bl	messaging_delivery_rejected
 763              	.LVL113:
 764 00a4 0400     		movs	r4, r0
 765              	.LVL114:
 766 00a6 98E1     		b	.L51
 767              	.LVL115:
 768              	.L49:
 769              	.LBB16:
 109:Source\azure_iot_sdk\uamqp\src/amqp_management.c ****                 {
 770              		.loc 1 109 0
 771 00a8 09A9     		add	r1, sp, #36
 772 00aa 0898     		ldr	r0, [sp, #32]
 773 00ac FFF7FEFF 		bl	properties_get_correlation_id
ARM GAS  C:\Users\Phuong\AppData\Local\Temp\ccdTtd1y.s 			page 28


 774              	.LVL116:
 775 00b0 0028     		cmp	r0, #0
 776 00b2 16D0     		beq	.L52
 777              	.LBB17:
 112:Source\azure_iot_sdk\uamqp\src/amqp_management.c ****                     amqp_management->on_amqp_management_error(amqp_management->on_amqp_management_e
 778              		.loc 1 112 0 discriminator 3
 779 00b4 FFF7FEFF 		bl	xlogging_get_log_function
 780              	.LVL117:
 781 00b8 041E     		subs	r4, r0, #0
 782              	.LVL118:
 783 00ba 09D0     		beq	.L53
 112:Source\azure_iot_sdk\uamqp\src/amqp_management.c ****                     amqp_management->on_amqp_management_error(amqp_management->on_amqp_management_e
 784              		.loc 1 112 0 is_stmt 0 discriminator 4
 785 00bc A34B     		ldr	r3, .L87+32
 786 00be 0193     		str	r3, [sp, #4]
 787 00c0 0123     		movs	r3, #1
 788 00c2 0093     		str	r3, [sp]
 789 00c4 6F33     		adds	r3, r3, #111
 790 00c6 9A4A     		ldr	r2, .L87+4
 791 00c8 3032     		adds	r2, r2, #48
 792 00ca 9A49     		ldr	r1, .L87+8
 793 00cc 0020     		movs	r0, #0
 794              	.LVL119:
 795 00ce A047     		blx	r4
 796              	.LVL120:
 797              	.L53:
 798              	.LBE17:
 113:Source\azure_iot_sdk\uamqp\src/amqp_management.c ****                     /* Codes_SRS_AMQP_MANAGEMENT_01_136: [ When `on_message_received` fails due to 
 799              		.loc 1 113 0 is_stmt 1
 800 00d0 BB6A     		ldr	r3, [r7, #40]
 801 00d2 F86A     		ldr	r0, [r7, #44]
 802 00d4 9847     		blx	r3
 803              	.LVL121:
 115:Source\azure_iot_sdk\uamqp\src/amqp_management.c ****                 }
 804              		.loc 1 115 0
 805 00d6 9E49     		ldr	r1, .L87+36
 806 00d8 9948     		ldr	r0, .L87+20
 807 00da FFF7FEFF 		bl	messaging_delivery_rejected
 808              	.LVL122:
 809 00de 0400     		movs	r4, r0
 810              	.LVL123:
 811 00e0 78E1     		b	.L54
 812              	.LVL124:
 813              	.L52:
 119:Source\azure_iot_sdk\uamqp\src/amqp_management.c ****                     {
 814              		.loc 1 119 0
 815 00e2 0CA9     		add	r1, sp, #48
 816 00e4 0998     		ldr	r0, [sp, #36]
 817 00e6 FFF7FEFF 		bl	amqpvalue_get_ulong
 818              	.LVL125:
 819 00ea 0028     		cmp	r0, #0
 820 00ec 16D0     		beq	.L55
 821              	.LBB18:
 122:Source\azure_iot_sdk\uamqp\src/amqp_management.c ****                         amqp_management->on_amqp_management_error(amqp_management->on_amqp_manageme
 822              		.loc 1 122 0 discriminator 3
 823 00ee FFF7FEFF 		bl	xlogging_get_log_function
 824              	.LVL126:
ARM GAS  C:\Users\Phuong\AppData\Local\Temp\ccdTtd1y.s 			page 29


 825 00f2 041E     		subs	r4, r0, #0
 826              	.LVL127:
 827 00f4 09D0     		beq	.L56
 122:Source\azure_iot_sdk\uamqp\src/amqp_management.c ****                         amqp_management->on_amqp_management_error(amqp_management->on_amqp_manageme
 828              		.loc 1 122 0 is_stmt 0 discriminator 4
 829 00f6 974B     		ldr	r3, .L87+40
 830 00f8 0193     		str	r3, [sp, #4]
 831 00fa 0123     		movs	r3, #1
 832 00fc 0093     		str	r3, [sp]
 833 00fe 7933     		adds	r3, r3, #121
 834 0100 8B4A     		ldr	r2, .L87+4
 835 0102 3032     		adds	r2, r2, #48
 836 0104 8B49     		ldr	r1, .L87+8
 837 0106 0020     		movs	r0, #0
 838              	.LVL128:
 839 0108 A047     		blx	r4
 840              	.LVL129:
 841              	.L56:
 842              	.LBE18:
 123:Source\azure_iot_sdk\uamqp\src/amqp_management.c ****                         /* Codes_SRS_AMQP_MANAGEMENT_01_136: [ When `on_message_received` fails due
 843              		.loc 1 123 0 is_stmt 1
 844 010a BB6A     		ldr	r3, [r7, #40]
 845 010c F86A     		ldr	r0, [r7, #44]
 846 010e 9847     		blx	r3
 847              	.LVL130:
 125:Source\azure_iot_sdk\uamqp\src/amqp_management.c ****                     }
 848              		.loc 1 125 0
 849 0110 8F49     		ldr	r1, .L87+36
 850 0112 8B48     		ldr	r0, .L87+20
 851 0114 FFF7FEFF 		bl	messaging_delivery_rejected
 852              	.LVL131:
 853 0118 0400     		movs	r4, r0
 854              	.LVL132:
 855 011a 5BE1     		b	.L54
 856              	.LVL133:
 857              	.L55:
 131:Source\azure_iot_sdk\uamqp\src/amqp_management.c ****                         if (map == NULL)
 858              		.loc 1 131 0
 859 011c 0798     		ldr	r0, [sp, #28]
 860 011e FFF7FEFF 		bl	amqpvalue_get_inplace_described_value
 861              	.LVL134:
 862 0122 051E     		subs	r5, r0, #0
 863              	.LVL135:
 132:Source\azure_iot_sdk\uamqp\src/amqp_management.c ****                         {
 864              		.loc 1 132 0
 865 0124 16D1     		bne	.L57
 866              	.LBB19:
 135:Source\azure_iot_sdk\uamqp\src/amqp_management.c ****                             amqp_management->on_amqp_management_error(amqp_management->on_amqp_mana
 867              		.loc 1 135 0 discriminator 3
 868 0126 FFF7FEFF 		bl	xlogging_get_log_function
 869              	.LVL136:
 870 012a 041E     		subs	r4, r0, #0
 871              	.LVL137:
 872 012c 09D0     		beq	.L58
 135:Source\azure_iot_sdk\uamqp\src/amqp_management.c ****                             amqp_management->on_amqp_management_error(amqp_management->on_amqp_mana
 873              		.loc 1 135 0 is_stmt 0 discriminator 4
 874 012e 8A4B     		ldr	r3, .L87+44
ARM GAS  C:\Users\Phuong\AppData\Local\Temp\ccdTtd1y.s 			page 30


 875 0130 0193     		str	r3, [sp, #4]
 876 0132 0123     		movs	r3, #1
 877 0134 0093     		str	r3, [sp]
 878 0136 8633     		adds	r3, r3, #134
 879 0138 7D4A     		ldr	r2, .L87+4
 880 013a 3032     		adds	r2, r2, #48
 881 013c 7D49     		ldr	r1, .L87+8
 882 013e 0020     		movs	r0, #0
 883              	.LVL138:
 884 0140 A047     		blx	r4
 885              	.LVL139:
 886              	.L58:
 887              	.LBE19:
 136:Source\azure_iot_sdk\uamqp\src/amqp_management.c ****                             /* Codes_SRS_AMQP_MANAGEMENT_01_136: [ When `on_message_received` fails
 888              		.loc 1 136 0 is_stmt 1
 889 0142 BB6A     		ldr	r3, [r7, #40]
 890 0144 F86A     		ldr	r0, [r7, #44]
 891 0146 9847     		blx	r3
 892              	.LVL140:
 138:Source\azure_iot_sdk\uamqp\src/amqp_management.c ****                         }
 893              		.loc 1 138 0
 894 0148 8449     		ldr	r1, .L87+48
 895 014a 7D48     		ldr	r0, .L87+20
 896 014c FFF7FEFF 		bl	messaging_delivery_rejected
 897              	.LVL141:
 898 0150 0400     		movs	r4, r0
 899              	.LVL142:
 900 0152 3FE1     		b	.L54
 901              	.LVL143:
 902              	.L57:
 144:Source\azure_iot_sdk\uamqp\src/amqp_management.c ****                             if (key == NULL)
 903              		.loc 1 144 0
 904 0154 786B     		ldr	r0, [r7, #52]
 905              	.LVL144:
 906 0156 FFF7FEFF 		bl	amqpvalue_create_string
 907              	.LVL145:
 908 015a 0390     		str	r0, [sp, #12]
 909              	.LVL146:
 145:Source\azure_iot_sdk\uamqp\src/amqp_management.c ****                             {
 910              		.loc 1 145 0
 911 015c 0028     		cmp	r0, #0
 912 015e 14D1     		bne	.L59
 913              	.LBB20:
 148:Source\azure_iot_sdk\uamqp\src/amqp_management.c ****                                 amqp_management->on_amqp_management_error(amqp_management->on_amqp_
 914              		.loc 1 148 0 discriminator 3
 915 0160 FFF7FEFF 		bl	xlogging_get_log_function
 916              	.LVL147:
 917 0164 041E     		subs	r4, r0, #0
 918              	.LVL148:
 919 0166 09D0     		beq	.L60
 148:Source\azure_iot_sdk\uamqp\src/amqp_management.c ****                                 amqp_management->on_amqp_management_error(amqp_management->on_amqp_
 920              		.loc 1 148 0 is_stmt 0 discriminator 4
 921 0168 7D4B     		ldr	r3, .L87+52
 922 016a 0193     		str	r3, [sp, #4]
 923 016c 0123     		movs	r3, #1
 924 016e 0093     		str	r3, [sp]
 925 0170 9333     		adds	r3, r3, #147
ARM GAS  C:\Users\Phuong\AppData\Local\Temp\ccdTtd1y.s 			page 31


 926 0172 6F4A     		ldr	r2, .L87+4
 927 0174 3032     		adds	r2, r2, #48
 928 0176 6F49     		ldr	r1, .L87+8
 929 0178 0020     		movs	r0, #0
 930              	.LVL149:
 931 017a A047     		blx	r4
 932              	.LVL150:
 933              	.L60:
 934              	.LBE20:
 149:Source\azure_iot_sdk\uamqp\src/amqp_management.c ****                                 /* Codes_SRS_AMQP_MANAGEMENT_01_135: [ When an error occurs in crea
 935              		.loc 1 149 0 is_stmt 1
 936 017c BB6A     		ldr	r3, [r7, #40]
 937 017e F86A     		ldr	r0, [r7, #44]
 938 0180 9847     		blx	r3
 939              	.LVL151:
 151:Source\azure_iot_sdk\uamqp\src/amqp_management.c ****                             }
 940              		.loc 1 151 0
 941 0182 FFF7FEFF 		bl	messaging_delivery_released
 942              	.LVL152:
 943 0186 0400     		movs	r4, r0
 944              	.LVL153:
 945 0188 24E1     		b	.L54
 946              	.LVL154:
 947              	.L59:
 156:Source\azure_iot_sdk\uamqp\src/amqp_management.c ****                                 if (value == NULL)
 948              		.loc 1 156 0
 949 018a 0399     		ldr	r1, [sp, #12]
 950 018c 2800     		movs	r0, r5
 951              	.LVL155:
 952 018e FFF7FEFF 		bl	amqpvalue_get_map_value
 953              	.LVL156:
 954 0192 0490     		str	r0, [sp, #16]
 955              	.LVL157:
 157:Source\azure_iot_sdk\uamqp\src/amqp_management.c ****                                 {
 956              		.loc 1 157 0
 957 0194 0028     		cmp	r0, #0
 958 0196 16D1     		bne	.L61
 959              	.LBB21:
 160:Source\azure_iot_sdk\uamqp\src/amqp_management.c ****                                     amqp_management->on_amqp_management_error(amqp_management->on_a
 960              		.loc 1 160 0 discriminator 3
 961 0198 FFF7FEFF 		bl	xlogging_get_log_function
 962              	.LVL158:
 963 019c 041E     		subs	r4, r0, #0
 964              	.LVL159:
 965 019e 09D0     		beq	.L62
 160:Source\azure_iot_sdk\uamqp\src/amqp_management.c ****                                     amqp_management->on_amqp_management_error(amqp_management->on_a
 966              		.loc 1 160 0 is_stmt 0 discriminator 4
 967 01a0 704B     		ldr	r3, .L87+56
 968 01a2 0193     		str	r3, [sp, #4]
 969 01a4 0123     		movs	r3, #1
 970 01a6 0093     		str	r3, [sp]
 971 01a8 9F33     		adds	r3, r3, #159
 972 01aa 614A     		ldr	r2, .L87+4
 973 01ac 3032     		adds	r2, r2, #48
 974 01ae 6149     		ldr	r1, .L87+8
 975 01b0 0020     		movs	r0, #0
 976              	.LVL160:
ARM GAS  C:\Users\Phuong\AppData\Local\Temp\ccdTtd1y.s 			page 32


 977 01b2 A047     		blx	r4
 978              	.LVL161:
 979              	.L62:
 980              	.LBE21:
 161:Source\azure_iot_sdk\uamqp\src/amqp_management.c ****                                     /* Codes_SRS_AMQP_MANAGEMENT_01_136: [ When `on_message_receive
 981              		.loc 1 161 0 is_stmt 1
 982 01b4 BB6A     		ldr	r3, [r7, #40]
 983 01b6 F86A     		ldr	r0, [r7, #44]
 984 01b8 9847     		blx	r3
 985              	.LVL162:
 163:Source\azure_iot_sdk\uamqp\src/amqp_management.c ****                                 }
 986              		.loc 1 163 0
 987 01ba 6B49     		ldr	r1, .L87+60
 988 01bc 6048     		ldr	r0, .L87+20
 989 01be FFF7FEFF 		bl	messaging_delivery_rejected
 990              	.LVL163:
 991 01c2 0400     		movs	r4, r0
 992              	.LVL164:
 993 01c4 03E1     		b	.L63
 994              	.LVL165:
 995              	.L61:
 996              	.LBB22:
 169:Source\azure_iot_sdk\uamqp\src/amqp_management.c ****                                     {
 997              		.loc 1 169 0
 998 01c6 0AA9     		add	r1, sp, #40
 999 01c8 0498     		ldr	r0, [sp, #16]
 1000              	.LVL166:
 1001 01ca FFF7FEFF 		bl	amqpvalue_get_int
 1002              	.LVL167:
 1003 01ce 0028     		cmp	r0, #0
 1004 01d0 16D0     		beq	.L64
 1005              	.LBB23:
 172:Source\azure_iot_sdk\uamqp\src/amqp_management.c ****                                         amqp_management->on_amqp_management_error(amqp_management->
 1006              		.loc 1 172 0 discriminator 3
 1007 01d2 FFF7FEFF 		bl	xlogging_get_log_function
 1008              	.LVL168:
 1009 01d6 041E     		subs	r4, r0, #0
 1010              	.LVL169:
 1011 01d8 09D0     		beq	.L65
 172:Source\azure_iot_sdk\uamqp\src/amqp_management.c ****                                         amqp_management->on_amqp_management_error(amqp_management->
 1012              		.loc 1 172 0 is_stmt 0 discriminator 4
 1013 01da 644B     		ldr	r3, .L87+64
 1014 01dc 0193     		str	r3, [sp, #4]
 1015 01de 0123     		movs	r3, #1
 1016 01e0 0093     		str	r3, [sp]
 1017 01e2 AB33     		adds	r3, r3, #171
 1018 01e4 524A     		ldr	r2, .L87+4
 1019 01e6 3032     		adds	r2, r2, #48
 1020 01e8 5249     		ldr	r1, .L87+8
 1021 01ea 0020     		movs	r0, #0
 1022              	.LVL170:
 1023 01ec A047     		blx	r4
 1024              	.LVL171:
 1025              	.L65:
 1026              	.LBE23:
 173:Source\azure_iot_sdk\uamqp\src/amqp_management.c ****                                         /* Codes_SRS_AMQP_MANAGEMENT_01_136: [ When `on_message_rec
 1027              		.loc 1 173 0 is_stmt 1
ARM GAS  C:\Users\Phuong\AppData\Local\Temp\ccdTtd1y.s 			page 33


 1028 01ee BB6A     		ldr	r3, [r7, #40]
 1029 01f0 F86A     		ldr	r0, [r7, #44]
 1030 01f2 9847     		blx	r3
 1031              	.LVL172:
 175:Source\azure_iot_sdk\uamqp\src/amqp_management.c ****                                     }
 1032              		.loc 1 175 0
 1033 01f4 5E49     		ldr	r1, .L87+68
 1034 01f6 5248     		ldr	r0, .L87+20
 1035 01f8 FFF7FEFF 		bl	messaging_delivery_rejected
 1036              	.LVL173:
 1037 01fc 0400     		movs	r4, r0
 1038              	.LVL174:
 1039 01fe E3E0     		b	.L66
 1040              	.LVL175:
 1041              	.L64:
 181:Source\azure_iot_sdk\uamqp\src/amqp_management.c ****                                         if (desc_key == NULL)
 1042              		.loc 1 181 0
 1043 0200 B86B     		ldr	r0, [r7, #56]
 1044 0202 FFF7FEFF 		bl	amqpvalue_create_string
 1045              	.LVL176:
 1046 0206 0590     		str	r0, [sp, #20]
 1047              	.LVL177:
 182:Source\azure_iot_sdk\uamqp\src/amqp_management.c ****                                         {
 1048              		.loc 1 182 0
 1049 0208 0028     		cmp	r0, #0
 1050 020a 14D1     		bne	.L67
 1051              	.LBB24:
 185:Source\azure_iot_sdk\uamqp\src/amqp_management.c ****                                             amqp_management->on_amqp_management_error(amqp_manageme
 1052              		.loc 1 185 0 discriminator 3
 1053 020c FFF7FEFF 		bl	xlogging_get_log_function
 1054              	.LVL178:
 1055 0210 041E     		subs	r4, r0, #0
 1056              	.LVL179:
 1057 0212 09D0     		beq	.L68
 185:Source\azure_iot_sdk\uamqp\src/amqp_management.c ****                                             amqp_management->on_amqp_management_error(amqp_manageme
 1058              		.loc 1 185 0 is_stmt 0 discriminator 4
 1059 0214 574B     		ldr	r3, .L87+72
 1060 0216 0193     		str	r3, [sp, #4]
 1061 0218 0123     		movs	r3, #1
 1062 021a 0093     		str	r3, [sp]
 1063 021c B833     		adds	r3, r3, #184
 1064 021e 444A     		ldr	r2, .L87+4
 1065 0220 3032     		adds	r2, r2, #48
 1066 0222 4449     		ldr	r1, .L87+8
 1067 0224 0020     		movs	r0, #0
 1068              	.LVL180:
 1069 0226 A047     		blx	r4
 1070              	.LVL181:
 1071              	.L68:
 1072              	.LBE24:
 186:Source\azure_iot_sdk\uamqp\src/amqp_management.c ****                                             /* Codes_SRS_AMQP_MANAGEMENT_01_135: [ When an error oc
 1073              		.loc 1 186 0 is_stmt 1
 1074 0228 BB6A     		ldr	r3, [r7, #40]
 1075 022a F86A     		ldr	r0, [r7, #44]
 1076 022c 9847     		blx	r3
 1077              	.LVL182:
 188:Source\azure_iot_sdk\uamqp\src/amqp_management.c ****                                         }
ARM GAS  C:\Users\Phuong\AppData\Local\Temp\ccdTtd1y.s 			page 34


 1078              		.loc 1 188 0
 1079 022e FFF7FEFF 		bl	messaging_delivery_released
 1080              	.LVL183:
 1081 0232 0400     		movs	r4, r0
 1082              	.LVL184:
 1083 0234 C8E0     		b	.L66
 1084              	.LVL185:
 1085              	.L67:
 1086              	.LBB25:
 192:Source\azure_iot_sdk\uamqp\src/amqp_management.c ****                                             LIST_ITEM_HANDLE list_item_handle;
 1087              		.loc 1 192 0
 1088 0236 0023     		movs	r3, #0
 1089 0238 0B93     		str	r3, [sp, #44]
 1090              	.LVL186:
 198:Source\azure_iot_sdk\uamqp\src/amqp_management.c ****                                             if (desc_value != NULL)
 1091              		.loc 1 198 0
 1092 023a 0599     		ldr	r1, [sp, #20]
 1093 023c 2800     		movs	r0, r5
 1094              	.LVL187:
 1095 023e FFF7FEFF 		bl	amqpvalue_get_map_value
 1096              	.LVL188:
 1097 0242 8246     		mov	r10, r0
 1098              	.LVL189:
 199:Source\azure_iot_sdk\uamqp\src/amqp_management.c ****                                             {
 1099              		.loc 1 199 0
 1100 0244 0028     		cmp	r0, #0
 1101 0246 07D0     		beq	.L69
 202:Source\azure_iot_sdk\uamqp\src/amqp_management.c ****                                                 {
 1102              		.loc 1 202 0
 1103 0248 0BA9     		add	r1, sp, #44
 1104 024a FFF7FEFF 		bl	amqpvalue_get_string
 1105              	.LVL190:
 1106 024e 0028     		cmp	r0, #0
 1107 0250 04D0     		beq	.L70
 205:Source\azure_iot_sdk\uamqp\src/amqp_management.c ****                                                 }
 1108              		.loc 1 205 0
 1109 0252 0023     		movs	r3, #0
 1110 0254 0B93     		str	r3, [sp, #44]
 1111 0256 01E0     		b	.L70
 1112              	.LVL191:
 1113              	.L69:
 211:Source\azure_iot_sdk\uamqp\src/amqp_management.c ****                                             }
 1114              		.loc 1 211 0
 1115 0258 0023     		movs	r3, #0
 1116 025a 0B93     		str	r3, [sp, #44]
 1117              	.LVL192:
 1118              	.L70:
 214:Source\azure_iot_sdk\uamqp\src/amqp_management.c ****                                             while (list_item_handle != NULL)
 1119              		.loc 1 214 0
 1120 025c 3869     		ldr	r0, [r7, #16]
 1121 025e FFF7FEFF 		bl	singlylinkedlist_get_head_item
 1122              	.LVL193:
 1123 0262 0500     		movs	r5, r0
 1124              	.LVL194:
 215:Source\azure_iot_sdk\uamqp\src/amqp_management.c ****                                             {
 1125              		.loc 1 215 0
 1126 0264 4FE0     		b	.L71
ARM GAS  C:\Users\Phuong\AppData\Local\Temp\ccdTtd1y.s 			page 35


 1127              	.L77:
 1128              	.LBB26:
 218:Source\azure_iot_sdk\uamqp\src/amqp_management.c ****                                                 if (operation_message == NULL)
 1129              		.loc 1 218 0
 1130 0266 2800     		movs	r0, r5
 1131              	.LVL195:
 1132 0268 FFF7FEFF 		bl	singlylinkedlist_item_get_value
 1133              	.LVL196:
 1134 026c 061E     		subs	r6, r0, #0
 1135              	.LVL197:
 219:Source\azure_iot_sdk\uamqp\src/amqp_management.c ****                                                 {
 1136              		.loc 1 219 0
 1137 026e 15D1     		bne	.L72
 1138              	.LBB27:
 222:Source\azure_iot_sdk\uamqp\src/amqp_management.c ****                                                     amqp_management->on_amqp_management_error(amqp_
 1139              		.loc 1 222 0 discriminator 3
 1140 0270 FFF7FEFF 		bl	xlogging_get_log_function
 1141              	.LVL198:
 1142 0274 041E     		subs	r4, r0, #0
 1143              	.LVL199:
 1144 0276 09D0     		beq	.L73
 222:Source\azure_iot_sdk\uamqp\src/amqp_management.c ****                                                     amqp_management->on_amqp_management_error(amqp_
 1145              		.loc 1 222 0 is_stmt 0 discriminator 4
 1146 0278 3E4B     		ldr	r3, .L87+72
 1147 027a 0193     		str	r3, [sp, #4]
 1148 027c 0123     		movs	r3, #1
 1149 027e 0093     		str	r3, [sp]
 1150 0280 DD33     		adds	r3, r3, #221
 1151 0282 2B4A     		ldr	r2, .L87+4
 1152 0284 3032     		adds	r2, r2, #48
 1153 0286 2B49     		ldr	r1, .L87+8
 1154 0288 0020     		movs	r0, #0
 1155              	.LVL200:
 1156 028a A047     		blx	r4
 1157              	.LVL201:
 1158              	.L73:
 1159              	.LBE27:
 223:Source\azure_iot_sdk\uamqp\src/amqp_management.c ****                                                     /* Codes_SRS_AMQP_MANAGEMENT_01_135: [ When an 
 1160              		.loc 1 223 0 is_stmt 1
 1161 028c F86A     		ldr	r0, [r7, #44]
 1162 028e BB6A     		ldr	r3, [r7, #40]
 1163 0290 9847     		blx	r3
 1164              	.LVL202:
 225:Source\azure_iot_sdk\uamqp\src/amqp_management.c ****                                                     break;
 1165              		.loc 1 225 0
 1166 0292 FFF7FEFF 		bl	messaging_delivery_released
 1167              	.LVL203:
 1168              	.LBE26:
 195:Source\azure_iot_sdk\uamqp\src/amqp_management.c **** 
 1169              		.loc 1 195 0
 1170 0296 0023     		movs	r3, #0
 194:Source\azure_iot_sdk\uamqp\src/amqp_management.c ****                                             bool is_error = false;
 1171              		.loc 1 194 0
 1172 0298 0022     		movs	r2, #0
 1173              	.LBB31:
 226:Source\azure_iot_sdk\uamqp\src/amqp_management.c ****                                                 }
 1174              		.loc 1 226 0
ARM GAS  C:\Users\Phuong\AppData\Local\Temp\ccdTtd1y.s 			page 36


 1175 029a 3EE0     		b	.L74
 1176              	.LVL204:
 1177              	.L72:
 1178              	.LBB28:
 235:Source\azure_iot_sdk\uamqp\src/amqp_management.c ****                                                     {
 1179              		.loc 1 235 0
 1180 029c C268     		ldr	r2, [r0, #12]
 1181 029e 0D9B     		ldr	r3, [sp, #52]
 1182 02a0 8168     		ldr	r1, [r0, #8]
 1183 02a2 0C98     		ldr	r0, [sp, #48]
 1184              	.LVL205:
 1185 02a4 8142     		cmp	r1, r0
 1186 02a6 2AD1     		bne	.L75
 1187 02a8 9A42     		cmp	r2, r3
 1188 02aa 28D1     		bne	.L75
 238:Source\azure_iot_sdk\uamqp\src/amqp_management.c ****                                                         {
 1189              		.loc 1 238 0
 1190 02ac 0A9A     		ldr	r2, [sp, #40]
 1191 02ae 1300     		movs	r3, r2
 1192 02b0 C83B     		subs	r3, r3, #200
 1193 02b2 632B     		cmp	r3, #99
 1194 02b4 01D9     		bls	.L84
 242:Source\azure_iot_sdk\uamqp\src/amqp_management.c ****                                                         }
 1195              		.loc 1 242 0
 1196 02b6 0221     		movs	r1, #2
 1197 02b8 00E0     		b	.L76
 1198              	.L84:
 247:Source\azure_iot_sdk\uamqp\src/amqp_management.c ****                                                         }
 1199              		.loc 1 247 0
 1200 02ba 0021     		movs	r1, #0
 1201              	.L76:
 1202              	.LVL206:
 252:Source\azure_iot_sdk\uamqp\src/amqp_management.c **** 
 1203              		.loc 1 252 0
 1204 02bc 3368     		ldr	r3, [r6]
 1205 02be 9B46     		mov	fp, r3
 1206 02c0 7068     		ldr	r0, [r6, #4]
 1207 02c2 0094     		str	r4, [sp]
 1208 02c4 0B9B     		ldr	r3, [sp, #44]
 1209 02c6 D847     		blx	fp
 1210              	.LVL207:
 254:Source\azure_iot_sdk\uamqp\src/amqp_management.c **** 
 1211              		.loc 1 254 0
 1212 02c8 3000     		movs	r0, r6
 1213 02ca FFF7FEFF 		bl	free
 1214              	.LVL208:
 257:Source\azure_iot_sdk\uamqp\src/amqp_management.c ****                                                         {
 1215              		.loc 1 257 0
 1216 02ce 2900     		movs	r1, r5
 1217 02d0 3869     		ldr	r0, [r7, #16]
 1218 02d2 FFF7FEFF 		bl	singlylinkedlist_remove
 1219              	.LVL209:
 1220 02d6 0028     		cmp	r0, #0
 1221 02d8 1AD0     		beq	.L85
 1222              	.LBB29:
 259:Source\azure_iot_sdk\uamqp\src/amqp_management.c ****                                                             is_error = true;
 1223              		.loc 1 259 0 discriminator 3
ARM GAS  C:\Users\Phuong\AppData\Local\Temp\ccdTtd1y.s 			page 37


 1224 02da FFF7FEFF 		bl	xlogging_get_log_function
 1225              	.LVL210:
 1226 02de 051E     		subs	r5, r0, #0
 1227              	.LVL211:
 1228 02e0 19D0     		beq	.L86
 259:Source\azure_iot_sdk\uamqp\src/amqp_management.c ****                                                             is_error = true;
 1229              		.loc 1 259 0 is_stmt 0 discriminator 4
 1230 02e2 254B     		ldr	r3, .L87+76
 1231 02e4 0193     		str	r3, [sp, #4]
 1232 02e6 0124     		movs	r4, #1
 1233              	.LVL212:
 1234 02e8 0094     		str	r4, [sp]
 1235 02ea 0423     		movs	r3, #4
 1236 02ec FF33     		adds	r3, r3, #255
 1237 02ee 104A     		ldr	r2, .L87+4
 1238 02f0 3032     		adds	r2, r2, #48
 1239 02f2 1049     		ldr	r1, .L87+8
 1240 02f4 0020     		movs	r0, #0
 1241              	.LVL213:
 1242 02f6 A847     		blx	r5
 1243              	.LVL214:
 1244              	.LBE29:
 260:Source\azure_iot_sdk\uamqp\src/amqp_management.c ****                                                             break;
 1245              		.loc 1 260 0 is_stmt 1 discriminator 4
 1246 02f8 2300     		movs	r3, r4
 1247              	.LBE28:
 1248              	.LBE31:
 194:Source\azure_iot_sdk\uamqp\src/amqp_management.c ****                                             bool is_error = false;
 1249              		.loc 1 194 0 discriminator 4
 1250 02fa 0022     		movs	r2, #0
 1251 02fc 0DE0     		b	.L74
 1252              	.LVL215:
 1253              	.L75:
 1254              	.LBB32:
 274:Source\azure_iot_sdk\uamqp\src/amqp_management.c ****                                             }
 1255              		.loc 1 274 0
 1256 02fe 2800     		movs	r0, r5
 1257 0300 FFF7FEFF 		bl	singlylinkedlist_get_next_item
 1258              	.LVL216:
 1259 0304 0500     		movs	r5, r0
 1260              	.LVL217:
 1261              	.L71:
 1262              	.LBE32:
 215:Source\azure_iot_sdk\uamqp\src/amqp_management.c ****                                             {
 1263              		.loc 1 215 0
 1264 0306 002D     		cmp	r5, #0
 1265 0308 ADD1     		bne	.L77
 195:Source\azure_iot_sdk\uamqp\src/amqp_management.c **** 
 1266              		.loc 1 195 0
 1267 030a 0023     		movs	r3, #0
 194:Source\azure_iot_sdk\uamqp\src/amqp_management.c ****                                             bool is_error = false;
 1268              		.loc 1 194 0
 1269 030c 0022     		movs	r2, #0
 1270 030e 04E0     		b	.L74
 1271              	.LVL218:
 1272              	.L85:
 195:Source\azure_iot_sdk\uamqp\src/amqp_management.c **** 
ARM GAS  C:\Users\Phuong\AppData\Local\Temp\ccdTtd1y.s 			page 38


 1273              		.loc 1 195 0
 1274 0310 0023     		movs	r3, #0
 1275              	.LBB33:
 1276              	.LBB30:
 265:Source\azure_iot_sdk\uamqp\src/amqp_management.c ****                                                         }
 1277              		.loc 1 265 0
 1278 0312 0122     		movs	r2, #1
 1279 0314 01E0     		b	.L74
 1280              	.LVL219:
 1281              	.L86:
 260:Source\azure_iot_sdk\uamqp\src/amqp_management.c ****                                                             break;
 1282              		.loc 1 260 0
 1283 0316 0123     		movs	r3, #1
 1284              	.LBE30:
 1285              	.LBE33:
 194:Source\azure_iot_sdk\uamqp\src/amqp_management.c ****                                             bool is_error = false;
 1286              		.loc 1 194 0
 1287 0318 0022     		movs	r2, #0
 1288              	.LVL220:
 1289              	.L74:
 277:Source\azure_iot_sdk\uamqp\src/amqp_management.c ****                                             {
 1290              		.loc 1 277 0
 1291 031a 002B     		cmp	r3, #0
 1292 031c 2ED0     		beq	.L78
 280:Source\azure_iot_sdk\uamqp\src/amqp_management.c ****                                                 /* Codes_SRS_AMQP_MANAGEMENT_01_135: [ When an erro
 1293              		.loc 1 280 0
 1294 031e BB6A     		ldr	r3, [r7, #40]
 1295              	.LVL221:
 1296 0320 F86A     		ldr	r0, [r7, #44]
 1297 0322 9847     		blx	r3
 1298              	.LVL222:
 282:Source\azure_iot_sdk\uamqp\src/amqp_management.c ****                                             }
 1299              		.loc 1 282 0
 1300 0324 FFF7FEFF 		bl	messaging_delivery_released
 1301              	.LVL223:
 1302 0328 0400     		movs	r4, r0
 1303              	.LVL224:
 1304 032a 44E0     		b	.L79
 1305              	.L88:
 1306              		.align	2
 1307              	.L87:
 1308 032c 28010000 		.word	.LC25
 1309 0330 80000000 		.word	.LANCHOR1
 1310 0334 00000000 		.word	.LC1
 1311 0338 4C010000 		.word	.LC27
 1312 033c 78010000 		.word	.LC29
 1313 0340 BC010000 		.word	.LC31
 1314 0344 D0010000 		.word	.LC33
 1315 0348 F8010000 		.word	.LC35
 1316 034c 38020000 		.word	.LC37
 1317 0350 5C020000 		.word	.LC39
 1318 0354 98020000 		.word	.LC41
 1319 0358 C8020000 		.word	.LC43
 1320 035c F4020000 		.word	.LC45
 1321 0360 5C030000 		.word	.LC47
 1322 0364 84030000 		.word	.LC49
 1323 0368 C0030000 		.word	.LC51
ARM GAS  C:\Users\Phuong\AppData\Local\Temp\ccdTtd1y.s 			page 39


 1324 036c 20040000 		.word	.LC53
 1325 0370 4C040000 		.word	.LC55
 1326 0374 B4040000 		.word	.LC57
 1327 0378 08010000 		.word	.LC21
 1328              	.LVL225:
 1329              	.L78:
 286:Source\azure_iot_sdk\uamqp\src/amqp_management.c ****                                                 {
 1330              		.loc 1 286 0
 1331 037c 002A     		cmp	r2, #0
 1332 037e 17D1     		bne	.L80
 1333              	.LBB34:
 289:Source\azure_iot_sdk\uamqp\src/amqp_management.c ****                                                     amqp_management->on_amqp_management_error(amqp_
 1334              		.loc 1 289 0 discriminator 3
 1335 0380 FFF7FEFF 		bl	xlogging_get_log_function
 1336              	.LVL226:
 1337 0384 041E     		subs	r4, r0, #0
 1338              	.LVL227:
 1339 0386 0AD0     		beq	.L81
 289:Source\azure_iot_sdk\uamqp\src/amqp_management.c ****                                                     amqp_management->on_amqp_management_error(amqp_
 1340              		.loc 1 289 0 is_stmt 0 discriminator 4
 1341 0388 194B     		ldr	r3, .L89
 1342 038a 0193     		str	r3, [sp, #4]
 1343 038c 0123     		movs	r3, #1
 1344 038e 0093     		str	r3, [sp]
 1345 0390 2223     		movs	r3, #34
 1346 0392 FF33     		adds	r3, r3, #255
 1347 0394 174A     		ldr	r2, .L89+4
 1348 0396 3032     		adds	r2, r2, #48
 1349 0398 1749     		ldr	r1, .L89+8
 1350 039a 0020     		movs	r0, #0
 1351              	.LVL228:
 1352 039c A047     		blx	r4
 1353              	.LVL229:
 1354              	.L81:
 1355              	.LBE34:
 290:Source\azure_iot_sdk\uamqp\src/amqp_management.c ****                                                     /* Codes_SRS_AMQP_MANAGEMENT_01_135: [ When an 
 1356              		.loc 1 290 0 is_stmt 1
 1357 039e BB6A     		ldr	r3, [r7, #40]
 1358 03a0 F86A     		ldr	r0, [r7, #44]
 1359 03a2 9847     		blx	r3
 1360              	.LVL230:
 292:Source\azure_iot_sdk\uamqp\src/amqp_management.c ****                                                 }
 1361              		.loc 1 292 0
 1362 03a4 1249     		ldr	r1, .L89
 1363 03a6 1548     		ldr	r0, .L89+12
 1364 03a8 FFF7FEFF 		bl	messaging_delivery_rejected
 1365              	.LVL231:
 1366 03ac 0400     		movs	r4, r0
 1367              	.LVL232:
 1368 03ae 02E0     		b	.L79
 1369              	.LVL233:
 1370              	.L80:
 297:Source\azure_iot_sdk\uamqp\src/amqp_management.c ****                                                 }
 1371              		.loc 1 297 0
 1372 03b0 FFF7FEFF 		bl	messaging_delivery_accepted
 1373              	.LVL234:
 1374 03b4 0400     		movs	r4, r0
ARM GAS  C:\Users\Phuong\AppData\Local\Temp\ccdTtd1y.s 			page 40


 1375              	.LVL235:
 1376              	.L79:
 301:Source\azure_iot_sdk\uamqp\src/amqp_management.c ****                                             {
 1377              		.loc 1 301 0
 1378 03b6 5346     		mov	r3, r10
 1379 03b8 002B     		cmp	r3, #0
 1380 03ba 02D0     		beq	.L82
 1381              	.LVL236:
 304:Source\azure_iot_sdk\uamqp\src/amqp_management.c ****                                             }
 1382              		.loc 1 304 0
 1383 03bc 5046     		mov	r0, r10
 1384              	.LVL237:
 1385 03be FFF7FEFF 		bl	amqpvalue_destroy
 1386              	.LVL238:
 1387              	.L82:
 308:Source\azure_iot_sdk\uamqp\src/amqp_management.c ****                                         }
 1388              		.loc 1 308 0
 1389 03c2 0598     		ldr	r0, [sp, #20]
 1390 03c4 FFF7FEFF 		bl	amqpvalue_destroy
 1391              	.LVL239:
 1392              	.L66:
 1393              	.LBE25:
 313:Source\azure_iot_sdk\uamqp\src/amqp_management.c ****                                 }
 1394              		.loc 1 313 0 discriminator 1
 1395 03c8 0498     		ldr	r0, [sp, #16]
 1396 03ca FFF7FEFF 		bl	amqpvalue_destroy
 1397              	.LVL240:
 1398              	.L63:
 1399              	.LBE22:
 317:Source\azure_iot_sdk\uamqp\src/amqp_management.c ****                             }
 1400              		.loc 1 317 0
 1401 03ce 0398     		ldr	r0, [sp, #12]
 1402 03d0 FFF7FEFF 		bl	amqpvalue_destroy
 1403              	.LVL241:
 1404              	.L54:
 324:Source\azure_iot_sdk\uamqp\src/amqp_management.c ****             }
 1405              		.loc 1 324 0
 1406 03d4 0898     		ldr	r0, [sp, #32]
 1407 03d6 FFF7FEFF 		bl	properties_destroy
 1408              	.LVL242:
 1409              	.L51:
 1410              	.LBE16:
 328:Source\azure_iot_sdk\uamqp\src/amqp_management.c ****         }
 1411              		.loc 1 328 0 discriminator 2
 1412 03da 0798     		ldr	r0, [sp, #28]
 1413 03dc FFF7FEFF 		bl	amqpvalue_destroy
 1414              	.LVL243:
 1415 03e0 00E0     		b	.L45
 1416              	.LVL244:
 1417              	.L83:
 1418              	.LBE14:
 1419              	.LBE12:
  69:Source\azure_iot_sdk\uamqp\src/amqp_management.c ****     }
 1420              		.loc 1 69 0
 1421 03e2 0024     		movs	r4, #0
 1422              	.LVL245:
 1423              	.L45:
ARM GAS  C:\Users\Phuong\AppData\Local\Temp\ccdTtd1y.s 			page 41


 333:Source\azure_iot_sdk\uamqp\src/amqp_management.c **** 
 1424              		.loc 1 333 0
 1425 03e4 2000     		movs	r0, r4
 1426 03e6 0FB0     		add	sp, sp, #60
 1427              		@ sp needed
 1428              	.LVL246:
 1429              	.LVL247:
 1430 03e8 0CBC     		pop	{r2, r3}
 1431 03ea 9246     		mov	r10, r2
 1432 03ec 9B46     		mov	fp, r3
 1433 03ee F0BD     		pop	{r4, r5, r6, r7, pc}
 1434              	.L90:
 1435              		.align	2
 1436              	.L89:
 1437 03f0 E4040000 		.word	.LC60
 1438 03f4 80000000 		.word	.LANCHOR1
 1439 03f8 00000000 		.word	.LC1
 1440 03fc BC010000 		.word	.LC31
 1441              		.cfi_endproc
 1442              	.LFE1:
 1443              		.size	on_message_received, .-on_message_received
 1444              		.section	.text.add_string_key_value_pair_to_map,"ax",%progbits
 1445              		.align	2
 1446              		.code	16
 1447              		.thumb_func
 1448              		.type	add_string_key_value_pair_to_map, %function
 1449              	add_string_key_value_pair_to_map:
 1450              	.LFB6:
 624:Source\azure_iot_sdk\uamqp\src/amqp_management.c ****     int result;
 1451              		.loc 1 624 0
 1452              		.cfi_startproc
 1453              		@ args = 0, pretend = 0, frame = 0
 1454              		@ frame_needed = 0, uses_anonymous_args = 0
 1455              	.LVL248:
 1456 0000 F0B5     		push	{r4, r5, r6, r7, lr}
 1457              		.cfi_def_cfa_offset 20
 1458              		.cfi_offset 4, -20
 1459              		.cfi_offset 5, -16
 1460              		.cfi_offset 6, -12
 1461              		.cfi_offset 7, -8
 1462              		.cfi_offset 14, -4
 1463 0002 85B0     		sub	sp, sp, #20
 1464              		.cfi_def_cfa_offset 40
 1465 0004 0700     		movs	r7, r0
 1466 0006 0E00     		movs	r6, r1
 1467 0008 1500     		movs	r5, r2
 628:Source\azure_iot_sdk\uamqp\src/amqp_management.c ****     if (key_value == NULL)
 1468              		.loc 1 628 0
 1469 000a 0800     		movs	r0, r1
 1470              	.LVL249:
 1471 000c FFF7FEFF 		bl	amqpvalue_create_string
 1472              	.LVL250:
 1473 0010 041E     		subs	r4, r0, #0
 1474              	.LVL251:
 629:Source\azure_iot_sdk\uamqp\src/amqp_management.c ****     {
 1475              		.loc 1 629 0
 1476 0012 11D1     		bne	.L92
ARM GAS  C:\Users\Phuong\AppData\Local\Temp\ccdTtd1y.s 			page 42


 1477              	.LBB35:
 632:Source\azure_iot_sdk\uamqp\src/amqp_management.c ****         result = __FAILURE__;
 1478              		.loc 1 632 0 discriminator 3
 1479 0014 FFF7FEFF 		bl	xlogging_get_log_function
 1480              	.LVL252:
 1481 0018 041E     		subs	r4, r0, #0
 1482              	.LVL253:
 1483 001a 49D0     		beq	.L97
 632:Source\azure_iot_sdk\uamqp\src/amqp_management.c ****         result = __FAILURE__;
 1484              		.loc 1 632 0 is_stmt 0 discriminator 4
 1485 001c 0296     		str	r6, [sp, #8]
 1486 001e 264B     		ldr	r3, .L101
 1487 0020 0193     		str	r3, [sp, #4]
 1488 0022 0123     		movs	r3, #1
 1489 0024 0093     		str	r3, [sp]
 1490 0026 9E23     		movs	r3, #158
 1491 0028 9B00     		lsls	r3, r3, #2
 1492 002a 244A     		ldr	r2, .L101+4
 1493 002c 4432     		adds	r2, r2, #68
 1494 002e 2449     		ldr	r1, .L101+8
 1495 0030 0020     		movs	r0, #0
 1496              	.LVL254:
 1497 0032 A047     		blx	r4
 1498              	.LVL255:
 1499              	.LBE35:
 633:Source\azure_iot_sdk\uamqp\src/amqp_management.c ****     }
 1500              		.loc 1 633 0 is_stmt 1 discriminator 4
 1501 0034 234E     		ldr	r6, .L101+12
 1502              	.LVL256:
 1503 0036 3CE0     		b	.L93
 1504              	.LVL257:
 1505              	.L92:
 1506              	.LBB36:
 638:Source\azure_iot_sdk\uamqp\src/amqp_management.c ****         if (value_value == NULL)
 1507              		.loc 1 638 0
 1508 0038 2800     		movs	r0, r5
 1509              	.LVL258:
 1510 003a FFF7FEFF 		bl	amqpvalue_create_string
 1511              	.LVL259:
 1512 003e 051E     		subs	r5, r0, #0
 1513              	.LVL260:
 639:Source\azure_iot_sdk\uamqp\src/amqp_management.c ****         {
 1514              		.loc 1 639 0
 1515 0040 10D1     		bne	.L94
 1516              	.LBB37:
 642:Source\azure_iot_sdk\uamqp\src/amqp_management.c ****             result = __FAILURE__;
 1517              		.loc 1 642 0 discriminator 3
 1518 0042 FFF7FEFF 		bl	xlogging_get_log_function
 1519              	.LVL261:
 1520 0046 051E     		subs	r5, r0, #0
 1521              	.LVL262:
 1522 0048 2DD0     		beq	.L98
 642:Source\azure_iot_sdk\uamqp\src/amqp_management.c ****             result = __FAILURE__;
 1523              		.loc 1 642 0 is_stmt 0 discriminator 4
 1524 004a 0296     		str	r6, [sp, #8]
 1525 004c 1E4B     		ldr	r3, .L101+16
 1526 004e 0193     		str	r3, [sp, #4]
ARM GAS  C:\Users\Phuong\AppData\Local\Temp\ccdTtd1y.s 			page 43


 1527 0050 0123     		movs	r3, #1
 1528 0052 0093     		str	r3, [sp]
 1529 0054 1D4B     		ldr	r3, .L101+20
 1530 0056 194A     		ldr	r2, .L101+4
 1531 0058 4432     		adds	r2, r2, #68
 1532 005a 1949     		ldr	r1, .L101+8
 1533 005c 0020     		movs	r0, #0
 1534              	.LVL263:
 1535 005e A847     		blx	r5
 1536              	.LVL264:
 1537              	.LBE37:
 643:Source\azure_iot_sdk\uamqp\src/amqp_management.c ****         }
 1538              		.loc 1 643 0 is_stmt 1 discriminator 4
 1539 0060 1B4E     		ldr	r6, .L101+24
 1540              	.LVL265:
 1541 0062 21E0     		b	.L95
 1542              	.LVL266:
 1543              	.L94:
 648:Source\azure_iot_sdk\uamqp\src/amqp_management.c ****             {
 1544              		.loc 1 648 0
 1545 0064 0200     		movs	r2, r0
 1546 0066 2100     		movs	r1, r4
 1547 0068 3800     		movs	r0, r7
 1548              	.LVL267:
 1549 006a FFF7FEFF 		bl	amqpvalue_set_map_value
 1550              	.LVL268:
 1551 006e 0028     		cmp	r0, #0
 1552 0070 11D0     		beq	.L99
 1553              	.LBB38:
 651:Source\azure_iot_sdk\uamqp\src/amqp_management.c ****                 result = __FAILURE__;
 1554              		.loc 1 651 0 discriminator 3
 1555 0072 FFF7FEFF 		bl	xlogging_get_log_function
 1556              	.LVL269:
 1557 0076 071E     		subs	r7, r0, #0
 1558              	.LVL270:
 1559 0078 0FD0     		beq	.L100
 651:Source\azure_iot_sdk\uamqp\src/amqp_management.c ****                 result = __FAILURE__;
 1560              		.loc 1 651 0 is_stmt 0 discriminator 4
 1561 007a 0296     		str	r6, [sp, #8]
 1562 007c 154B     		ldr	r3, .L101+28
 1563 007e 0193     		str	r3, [sp, #4]
 1564 0080 0123     		movs	r3, #1
 1565 0082 0093     		str	r3, [sp]
 1566 0084 144B     		ldr	r3, .L101+32
 1567 0086 0D4A     		ldr	r2, .L101+4
 1568 0088 4432     		adds	r2, r2, #68
 1569 008a 0D49     		ldr	r1, .L101+8
 1570 008c 0020     		movs	r0, #0
 1571              	.LVL271:
 1572 008e B847     		blx	r7
 1573              	.LVL272:
 1574              	.LBE38:
 652:Source\azure_iot_sdk\uamqp\src/amqp_management.c ****             }
 1575              		.loc 1 652 0 is_stmt 1 discriminator 4
 1576 0090 A326     		movs	r6, #163
 1577              	.LVL273:
 1578 0092 B600     		lsls	r6, r6, #2
ARM GAS  C:\Users\Phuong\AppData\Local\Temp\ccdTtd1y.s 			page 44


 1579 0094 03E0     		b	.L96
 1580              	.LVL274:
 1581              	.L99:
 656:Source\azure_iot_sdk\uamqp\src/amqp_management.c ****             }
 1582              		.loc 1 656 0
 1583 0096 0026     		movs	r6, #0
 1584              	.LVL275:
 1585 0098 01E0     		b	.L96
 1586              	.LVL276:
 1587              	.L100:
 652:Source\azure_iot_sdk\uamqp\src/amqp_management.c ****             }
 1588              		.loc 1 652 0
 1589 009a A326     		movs	r6, #163
 1590              	.LVL277:
 1591 009c B600     		lsls	r6, r6, #2
 1592              	.LVL278:
 1593              	.L96:
 659:Source\azure_iot_sdk\uamqp\src/amqp_management.c ****         }
 1594              		.loc 1 659 0
 1595 009e 2800     		movs	r0, r5
 1596 00a0 FFF7FEFF 		bl	amqpvalue_destroy
 1597              	.LVL279:
 1598 00a4 00E0     		b	.L95
 1599              	.LVL280:
 1600              	.L98:
 643:Source\azure_iot_sdk\uamqp\src/amqp_management.c ****         }
 1601              		.loc 1 643 0
 1602 00a6 0A4E     		ldr	r6, .L101+24
 1603              	.LVL281:
 1604              	.L95:
 662:Source\azure_iot_sdk\uamqp\src/amqp_management.c ****     }
 1605              		.loc 1 662 0
 1606 00a8 2000     		movs	r0, r4
 1607 00aa FFF7FEFF 		bl	amqpvalue_destroy
 1608              	.LVL282:
 1609 00ae 00E0     		b	.L93
 1610              	.LVL283:
 1611              	.L97:
 1612              	.LBE36:
 633:Source\azure_iot_sdk\uamqp\src/amqp_management.c ****     }
 1613              		.loc 1 633 0
 1614 00b0 044E     		ldr	r6, .L101+12
 1615              	.LVL284:
 1616              	.L93:
 666:Source\azure_iot_sdk\uamqp\src/amqp_management.c **** 
 1617              		.loc 1 666 0
 1618 00b2 3000     		movs	r0, r6
 1619 00b4 05B0     		add	sp, sp, #20
 1620              		@ sp needed
 1621              	.LVL285:
 1622 00b6 F0BD     		pop	{r4, r5, r6, r7, pc}
 1623              	.L102:
 1624              		.align	2
 1625              	.L101:
 1626 00b8 18050000 		.word	.LC64
 1627 00bc 80000000 		.word	.LANCHOR1
 1628 00c0 00000000 		.word	.LC1
ARM GAS  C:\Users\Phuong\AppData\Local\Temp\ccdTtd1y.s 			page 45


 1629 00c4 79020000 		.word	633
 1630 00c8 3C050000 		.word	.LC66
 1631 00cc 82020000 		.word	642
 1632 00d0 83020000 		.word	643
 1633 00d4 60050000 		.word	.LC68
 1634 00d8 8B020000 		.word	651
 1635              		.cfi_endproc
 1636              	.LFE6:
 1637              		.size	add_string_key_value_pair_to_map, .-add_string_key_value_pair_to_map
 1638              		.section	.text.set_message_id,"ax",%progbits
 1639              		.align	2
 1640              		.code	16
 1641              		.thumb_func
 1642              		.type	set_message_id, %function
 1643              	set_message_id:
 1644              	.LFB5:
 556:Source\azure_iot_sdk\uamqp\src/amqp_management.c ****     int result;
 1645              		.loc 1 556 0
 1646              		.cfi_startproc
 1647              		@ args = 0, pretend = 0, frame = 8
 1648              		@ frame_needed = 0, uses_anonymous_args = 0
 1649              	.LVL286:
 1650 0000 F0B5     		push	{r4, r5, r6, r7, lr}
 1651              		.cfi_def_cfa_offset 20
 1652              		.cfi_offset 4, -20
 1653              		.cfi_offset 5, -16
 1654              		.cfi_offset 6, -12
 1655              		.cfi_offset 7, -8
 1656              		.cfi_offset 14, -4
 1657 0002 85B0     		sub	sp, sp, #20
 1658              		.cfi_def_cfa_offset 40
 1659 0004 0400     		movs	r4, r0
 1660 0006 1600     		movs	r6, r2
 1661 0008 1F00     		movs	r7, r3
 561:Source\azure_iot_sdk\uamqp\src/amqp_management.c ****     {
 1662              		.loc 1 561 0
 1663 000a 03A9     		add	r1, sp, #12
 1664 000c FFF7FEFF 		bl	message_get_properties
 1665              	.LVL287:
 1666 0010 0028     		cmp	r0, #0
 1667 0012 10D0     		beq	.L104
 1668              	.LBB39:
 564:Source\azure_iot_sdk\uamqp\src/amqp_management.c ****         result = __FAILURE__;
 1669              		.loc 1 564 0 discriminator 3
 1670 0014 FFF7FEFF 		bl	xlogging_get_log_function
 1671              	.LVL288:
 1672 0018 041E     		subs	r4, r0, #0
 1673              	.LVL289:
 1674 001a 77D0     		beq	.L112
 564:Source\azure_iot_sdk\uamqp\src/amqp_management.c ****         result = __FAILURE__;
 1675              		.loc 1 564 0 is_stmt 0 discriminator 4
 1676 001c 3E4B     		ldr	r3, .L118
 1677 001e 0193     		str	r3, [sp, #4]
 1678 0020 0123     		movs	r3, #1
 1679 0022 0093     		str	r3, [sp]
 1680 0024 8D23     		movs	r3, #141
 1681 0026 9B00     		lsls	r3, r3, #2
ARM GAS  C:\Users\Phuong\AppData\Local\Temp\ccdTtd1y.s 			page 46


 1682 0028 3C4A     		ldr	r2, .L118+4
 1683 002a 6832     		adds	r2, r2, #104
 1684 002c 3C49     		ldr	r1, .L118+8
 1685 002e 0020     		movs	r0, #0
 1686              	.LVL290:
 1687 0030 A047     		blx	r4
 1688              	.LVL291:
 1689              	.LBE39:
 565:Source\azure_iot_sdk\uamqp\src/amqp_management.c ****     }
 1690              		.loc 1 565 0 is_stmt 1 discriminator 4
 1691 0032 3C4C     		ldr	r4, .L118+12
 1692              	.LVL292:
 1693 0034 6DE0     		b	.L105
 1694              	.LVL293:
 1695              	.L104:
 570:Source\azure_iot_sdk\uamqp\src/amqp_management.c ****         {
 1696              		.loc 1 570 0
 1697 0036 039B     		ldr	r3, [sp, #12]
 1698 0038 002B     		cmp	r3, #0
 1699 003a 02D1     		bne	.L106
 572:Source\azure_iot_sdk\uamqp\src/amqp_management.c ****         }
 1700              		.loc 1 572 0
 1701 003c FFF7FEFF 		bl	properties_create
 1702              	.LVL294:
 1703 0040 0390     		str	r0, [sp, #12]
 1704              	.L106:
 575:Source\azure_iot_sdk\uamqp\src/amqp_management.c ****         {
 1705              		.loc 1 575 0
 1706 0042 039B     		ldr	r3, [sp, #12]
 1707 0044 002B     		cmp	r3, #0
 1708 0046 0FD1     		bne	.L107
 1709              	.LBB40:
 578:Source\azure_iot_sdk\uamqp\src/amqp_management.c ****             result = __FAILURE__;
 1710              		.loc 1 578 0 discriminator 3
 1711 0048 FFF7FEFF 		bl	xlogging_get_log_function
 1712              	.LVL295:
 1713 004c 041E     		subs	r4, r0, #0
 1714              	.LVL296:
 1715 004e 5FD0     		beq	.L113
 578:Source\azure_iot_sdk\uamqp\src/amqp_management.c ****             result = __FAILURE__;
 1716              		.loc 1 578 0 is_stmt 0 discriminator 4
 1717 0050 354B     		ldr	r3, .L118+16
 1718 0052 0193     		str	r3, [sp, #4]
 1719 0054 0123     		movs	r3, #1
 1720 0056 0093     		str	r3, [sp]
 1721 0058 344B     		ldr	r3, .L118+20
 1722 005a 304A     		ldr	r2, .L118+4
 1723 005c 6832     		adds	r2, r2, #104
 1724 005e 3049     		ldr	r1, .L118+8
 1725 0060 0020     		movs	r0, #0
 1726              	.LVL297:
 1727 0062 A047     		blx	r4
 1728              	.LVL298:
 1729              	.LBE40:
 579:Source\azure_iot_sdk\uamqp\src/amqp_management.c ****         }
 1730              		.loc 1 579 0 is_stmt 1 discriminator 4
 1731 0064 324C     		ldr	r4, .L118+24
ARM GAS  C:\Users\Phuong\AppData\Local\Temp\ccdTtd1y.s 			page 47


 1732              	.LVL299:
 1733 0066 54E0     		b	.L105
 1734              	.LVL300:
 1735              	.L107:
 1736              	.LBB41:
 584:Source\azure_iot_sdk\uamqp\src/amqp_management.c ****             if (message_id == NULL)
 1737              		.loc 1 584 0
 1738 0068 3000     		movs	r0, r6
 1739 006a 3900     		movs	r1, r7
 1740 006c FFF7FEFF 		bl	amqpvalue_create_message_id_ulong
 1741              	.LVL301:
 1742 0070 051E     		subs	r5, r0, #0
 1743              	.LVL302:
 585:Source\azure_iot_sdk\uamqp\src/amqp_management.c ****             {
 1744              		.loc 1 585 0
 1745 0072 10D1     		bne	.L108
 1746              	.LBB42:
 588:Source\azure_iot_sdk\uamqp\src/amqp_management.c ****                 result = __FAILURE__;
 1747              		.loc 1 588 0 discriminator 3
 1748 0074 FFF7FEFF 		bl	xlogging_get_log_function
 1749              	.LVL303:
 1750 0078 041E     		subs	r4, r0, #0
 1751              	.LVL304:
 1752 007a 42D0     		beq	.L114
 588:Source\azure_iot_sdk\uamqp\src/amqp_management.c ****                 result = __FAILURE__;
 1753              		.loc 1 588 0 is_stmt 0 discriminator 4
 1754 007c 2D4B     		ldr	r3, .L118+28
 1755 007e 0193     		str	r3, [sp, #4]
 1756 0080 0123     		movs	r3, #1
 1757 0082 0093     		str	r3, [sp]
 1758 0084 9323     		movs	r3, #147
 1759 0086 9B00     		lsls	r3, r3, #2
 1760 0088 244A     		ldr	r2, .L118+4
 1761 008a 6832     		adds	r2, r2, #104
 1762 008c 2449     		ldr	r1, .L118+8
 1763 008e 0020     		movs	r0, #0
 1764              	.LVL305:
 1765 0090 A047     		blx	r4
 1766              	.LVL306:
 1767              	.LBE42:
 589:Source\azure_iot_sdk\uamqp\src/amqp_management.c ****             }
 1768              		.loc 1 589 0 is_stmt 1 discriminator 4
 1769 0092 294C     		ldr	r4, .L118+32
 1770              	.LVL307:
 1771 0094 36E0     		b	.L109
 1772              	.LVL308:
 1773              	.L108:
 594:Source\azure_iot_sdk\uamqp\src/amqp_management.c ****                 {
 1774              		.loc 1 594 0
 1775 0096 0100     		movs	r1, r0
 1776 0098 0398     		ldr	r0, [sp, #12]
 1777              	.LVL309:
 1778 009a FFF7FEFF 		bl	properties_set_message_id
 1779              	.LVL310:
 1780 009e 0028     		cmp	r0, #0
 1781 00a0 0FD0     		beq	.L110
 1782              	.LBB43:
ARM GAS  C:\Users\Phuong\AppData\Local\Temp\ccdTtd1y.s 			page 48


 597:Source\azure_iot_sdk\uamqp\src/amqp_management.c ****                     result = __FAILURE__;
 1783              		.loc 1 597 0 discriminator 3
 1784 00a2 FFF7FEFF 		bl	xlogging_get_log_function
 1785              	.LVL311:
 1786 00a6 041E     		subs	r4, r0, #0
 1787              	.LVL312:
 1788 00a8 22D0     		beq	.L115
 597:Source\azure_iot_sdk\uamqp\src/amqp_management.c ****                     result = __FAILURE__;
 1789              		.loc 1 597 0 is_stmt 0 discriminator 4
 1790 00aa 244B     		ldr	r3, .L118+36
 1791 00ac 0193     		str	r3, [sp, #4]
 1792 00ae 0123     		movs	r3, #1
 1793 00b0 0093     		str	r3, [sp]
 1794 00b2 234B     		ldr	r3, .L118+40
 1795 00b4 194A     		ldr	r2, .L118+4
 1796 00b6 6832     		adds	r2, r2, #104
 1797 00b8 1949     		ldr	r1, .L118+8
 1798 00ba 0020     		movs	r0, #0
 1799              	.LVL313:
 1800 00bc A047     		blx	r4
 1801              	.LVL314:
 1802              	.LBE43:
 598:Source\azure_iot_sdk\uamqp\src/amqp_management.c ****                 }
 1803              		.loc 1 598 0 is_stmt 1 discriminator 4
 1804 00be 214C     		ldr	r4, .L118+44
 1805              	.LVL315:
 1806 00c0 1BE0     		b	.L111
 1807              	.LVL316:
 1808              	.L110:
 601:Source\azure_iot_sdk\uamqp\src/amqp_management.c ****                 {
 1809              		.loc 1 601 0
 1810 00c2 0399     		ldr	r1, [sp, #12]
 1811 00c4 2000     		movs	r0, r4
 1812 00c6 FFF7FEFF 		bl	message_set_properties
 1813              	.LVL317:
 1814 00ca 0028     		cmp	r0, #0
 1815 00cc 12D0     		beq	.L116
 1816              	.LBB44:
 604:Source\azure_iot_sdk\uamqp\src/amqp_management.c ****                     result = __FAILURE__;
 1817              		.loc 1 604 0 discriminator 3
 1818 00ce FFF7FEFF 		bl	xlogging_get_log_function
 1819              	.LVL318:
 1820 00d2 041E     		subs	r4, r0, #0
 1821              	.LVL319:
 1822 00d4 10D0     		beq	.L117
 604:Source\azure_iot_sdk\uamqp\src/amqp_management.c ****                     result = __FAILURE__;
 1823              		.loc 1 604 0 is_stmt 0 discriminator 4
 1824 00d6 1C4B     		ldr	r3, .L118+48
 1825 00d8 0193     		str	r3, [sp, #4]
 1826 00da 0123     		movs	r3, #1
 1827 00dc 0093     		str	r3, [sp]
 1828 00de 9723     		movs	r3, #151
 1829 00e0 9B00     		lsls	r3, r3, #2
 1830 00e2 0E4A     		ldr	r2, .L118+4
 1831 00e4 6832     		adds	r2, r2, #104
 1832 00e6 0E49     		ldr	r1, .L118+8
 1833 00e8 0020     		movs	r0, #0
ARM GAS  C:\Users\Phuong\AppData\Local\Temp\ccdTtd1y.s 			page 49


 1834              	.LVL320:
 1835 00ea A047     		blx	r4
 1836              	.LVL321:
 1837              	.LBE44:
 605:Source\azure_iot_sdk\uamqp\src/amqp_management.c ****                 }
 1838              		.loc 1 605 0 is_stmt 1 discriminator 4
 1839 00ec 174C     		ldr	r4, .L118+52
 1840              	.LVL322:
 1841 00ee 04E0     		b	.L111
 1842              	.LVL323:
 1843              	.L115:
 598:Source\azure_iot_sdk\uamqp\src/amqp_management.c ****                 }
 1844              		.loc 1 598 0
 1845 00f0 144C     		ldr	r4, .L118+44
 1846 00f2 02E0     		b	.L111
 1847              	.LVL324:
 1848              	.L116:
 609:Source\azure_iot_sdk\uamqp\src/amqp_management.c ****                 }
 1849              		.loc 1 609 0
 1850 00f4 0024     		movs	r4, #0
 1851              	.LVL325:
 1852 00f6 00E0     		b	.L111
 1853              	.LVL326:
 1854              	.L117:
 605:Source\azure_iot_sdk\uamqp\src/amqp_management.c ****                 }
 1855              		.loc 1 605 0
 1856 00f8 144C     		ldr	r4, .L118+52
 1857              	.LVL327:
 1858              	.L111:
 612:Source\azure_iot_sdk\uamqp\src/amqp_management.c ****             }
 1859              		.loc 1 612 0
 1860 00fa 2800     		movs	r0, r5
 1861 00fc FFF7FEFF 		bl	amqpvalue_destroy
 1862              	.LVL328:
 1863 0100 00E0     		b	.L109
 1864              	.LVL329:
 1865              	.L114:
 589:Source\azure_iot_sdk\uamqp\src/amqp_management.c ****             }
 1866              		.loc 1 589 0
 1867 0102 0D4C     		ldr	r4, .L118+32
 1868              	.LVL330:
 1869              	.L109:
 616:Source\azure_iot_sdk\uamqp\src/amqp_management.c ****         }
 1870              		.loc 1 616 0
 1871 0104 0398     		ldr	r0, [sp, #12]
 1872 0106 FFF7FEFF 		bl	properties_destroy
 1873              	.LVL331:
 1874 010a 02E0     		b	.L105
 1875              	.LVL332:
 1876              	.L112:
 1877              	.LBE41:
 565:Source\azure_iot_sdk\uamqp\src/amqp_management.c ****     }
 1878              		.loc 1 565 0
 1879 010c 054C     		ldr	r4, .L118+12
 1880 010e 00E0     		b	.L105
 1881              	.LVL333:
 1882              	.L113:
ARM GAS  C:\Users\Phuong\AppData\Local\Temp\ccdTtd1y.s 			page 50


 579:Source\azure_iot_sdk\uamqp\src/amqp_management.c ****         }
 1883              		.loc 1 579 0
 1884 0110 074C     		ldr	r4, .L118+24
 1885              	.LVL334:
 1886              	.L105:
 621:Source\azure_iot_sdk\uamqp\src/amqp_management.c **** 
 1887              		.loc 1 621 0
 1888 0112 2000     		movs	r0, r4
 1889 0114 05B0     		add	sp, sp, #20
 1890              		@ sp needed
 1891              	.LVL335:
 1892 0116 F0BD     		pop	{r4, r5, r6, r7, pc}
 1893              	.L119:
 1894              		.align	2
 1895              	.L118:
 1896 0118 D0010000 		.word	.LC33
 1897 011c 80000000 		.word	.LANCHOR1
 1898 0120 00000000 		.word	.LC1
 1899 0124 35020000 		.word	565
 1900 0128 90050000 		.word	.LC73
 1901 012c 42020000 		.word	578
 1902 0130 43020000 		.word	579
 1903 0134 B4050000 		.word	.LC75
 1904 0138 4D020000 		.word	589
 1905 013c D8050000 		.word	.LC77
 1906 0140 55020000 		.word	597
 1907 0144 56020000 		.word	598
 1908 0148 04060000 		.word	.LC79
 1909 014c 5D020000 		.word	605
 1910              		.cfi_endproc
 1911              	.LFE5:
 1912              		.size	set_message_id, .-set_message_id
 1913              		.section	.text.amqp_management_create,"ax",%progbits
 1914              		.align	2
 1915              		.global	amqp_management_create
 1916              		.code	16
 1917              		.thumb_func
 1918              		.type	amqp_management_create, %function
 1919              	amqp_management_create:
 1920              	.LFB9:
 713:Source\azure_iot_sdk\uamqp\src/amqp_management.c **** 
 714:Source\azure_iot_sdk\uamqp\src/amqp_management.c **** AMQP_MANAGEMENT_HANDLE amqp_management_create(SESSION_HANDLE session, const char* management_node)
 715:Source\azure_iot_sdk\uamqp\src/amqp_management.c **** {
 1921              		.loc 1 715 0
 1922              		.cfi_startproc
 1923              		@ args = 0, pretend = 0, frame = 16
 1924              		@ frame_needed = 0, uses_anonymous_args = 0
 1925              	.LVL336:
 1926 0000 F0B5     		push	{r4, r5, r6, r7, lr}
 1927              		.cfi_def_cfa_offset 20
 1928              		.cfi_offset 4, -20
 1929              		.cfi_offset 5, -16
 1930              		.cfi_offset 6, -12
 1931              		.cfi_offset 7, -8
 1932              		.cfi_offset 14, -4
 1933 0002 4F46     		mov	r7, r9
 1934 0004 4646     		mov	r6, r8
ARM GAS  C:\Users\Phuong\AppData\Local\Temp\ccdTtd1y.s 			page 51


 1935 0006 C0B4     		push	{r6, r7}
 1936              		.cfi_def_cfa_offset 28
 1937              		.cfi_offset 8, -28
 1938              		.cfi_offset 9, -24
 1939 0008 89B0     		sub	sp, sp, #36
 1940              		.cfi_def_cfa_offset 64
 1941 000a 0600     		movs	r6, r0
 1942 000c 0F00     		movs	r7, r1
 716:Source\azure_iot_sdk\uamqp\src/amqp_management.c ****     AMQP_MANAGEMENT_INSTANCE* amqp_management;
 717:Source\azure_iot_sdk\uamqp\src/amqp_management.c **** 
 718:Source\azure_iot_sdk\uamqp\src/amqp_management.c ****     if ((session == NULL) ||
 1943              		.loc 1 718 0
 1944 000e 0028     		cmp	r0, #0
 1945 0010 01D0     		beq	.L121
 1946              		.loc 1 718 0 is_stmt 0 discriminator 1
 1947 0012 0029     		cmp	r1, #0
 1948 0014 12D1     		bne	.L122
 1949              	.L121:
 1950              	.LBB45:
 719:Source\azure_iot_sdk\uamqp\src/amqp_management.c ****         (management_node == NULL))
 720:Source\azure_iot_sdk\uamqp\src/amqp_management.c ****     {
 721:Source\azure_iot_sdk\uamqp\src/amqp_management.c ****         /* Codes_SRS_AMQP_MANAGEMENT_01_002: [ If `session` or `management_node` is NULL then `amqp
 722:Source\azure_iot_sdk\uamqp\src/amqp_management.c ****         LogError("Bad arguments: session = %p, management_node = %p", session, management_node);
 1951              		.loc 1 722 0 is_stmt 1 discriminator 3
 1952 0016 FFF7FEFF 		bl	xlogging_get_log_function
 1953              	.LVL337:
 1954 001a 041E     		subs	r4, r0, #0
 1955              	.LVL338:
 1956 001c 00D1     		bne	.LCB2194
 1957 001e 9BE1     		b	.L148	@long jump
 1958              	.LCB2194:
 1959              		.loc 1 722 0 is_stmt 0 discriminator 4
 1960 0020 0397     		str	r7, [sp, #12]
 1961 0022 0296     		str	r6, [sp, #8]
 1962 0024 D14B     		ldr	r3, .L150
 1963 0026 0193     		str	r3, [sp, #4]
 1964 0028 0123     		movs	r3, #1
 1965 002a 0093     		str	r3, [sp]
 1966 002c D04B     		ldr	r3, .L150+4
 1967 002e D14A     		ldr	r2, .L150+8
 1968 0030 7832     		adds	r2, r2, #120
 1969 0032 D149     		ldr	r1, .L150+12
 1970 0034 0020     		movs	r0, #0
 1971              	.LVL339:
 1972 0036 A047     		blx	r4
 1973              	.LVL340:
 1974              	.LBE45:
 723:Source\azure_iot_sdk\uamqp\src/amqp_management.c ****         amqp_management = NULL;
 1975              		.loc 1 723 0 is_stmt 1 discriminator 4
 1976 0038 0024     		movs	r4, #0
 1977              	.LVL341:
 1978 003a 90E1     		b	.L123
 1979              	.LVL342:
 1980              	.L122:
 724:Source\azure_iot_sdk\uamqp\src/amqp_management.c ****     }
 725:Source\azure_iot_sdk\uamqp\src/amqp_management.c ****     else if (strlen(management_node) == 0)
 1981              		.loc 1 725 0
ARM GAS  C:\Users\Phuong\AppData\Local\Temp\ccdTtd1y.s 			page 52


 1982 003c 0B78     		ldrb	r3, [r1]
 1983 003e 002B     		cmp	r3, #0
 1984 0040 11D1     		bne	.L124
 1985              	.LBB46:
 726:Source\azure_iot_sdk\uamqp\src/amqp_management.c ****     {
 727:Source\azure_iot_sdk\uamqp\src/amqp_management.c ****         /* Codes_SRS_AMQP_MANAGEMENT_01_030: [ If `management_node` is an empty string, then `amqp_
 728:Source\azure_iot_sdk\uamqp\src/amqp_management.c ****         LogError("Empty string management node");
 1986              		.loc 1 728 0 discriminator 3
 1987 0042 FFF7FEFF 		bl	xlogging_get_log_function
 1988              	.LVL343:
 1989 0046 041E     		subs	r4, r0, #0
 1990              	.LVL344:
 1991 0048 00D1     		bne	.LCB2230
 1992 004a 87E1     		b	.L149	@long jump
 1993              	.LCB2230:
 1994              		.loc 1 728 0 is_stmt 0 discriminator 4
 1995 004c CB4B     		ldr	r3, .L150+16
 1996 004e 0193     		str	r3, [sp, #4]
 1997 0050 0123     		movs	r3, #1
 1998 0052 0093     		str	r3, [sp]
 1999 0054 B623     		movs	r3, #182
 2000 0056 9B00     		lsls	r3, r3, #2
 2001 0058 C64A     		ldr	r2, .L150+8
 2002 005a 7832     		adds	r2, r2, #120
 2003 005c C649     		ldr	r1, .L150+12
 2004 005e 0020     		movs	r0, #0
 2005              	.LVL345:
 2006 0060 A047     		blx	r4
 2007              	.LVL346:
 2008              	.LBE46:
 729:Source\azure_iot_sdk\uamqp\src/amqp_management.c ****         amqp_management = NULL;
 2009              		.loc 1 729 0 is_stmt 1 discriminator 4
 2010 0062 0024     		movs	r4, #0
 2011              	.LVL347:
 2012 0064 7BE1     		b	.L123
 2013              	.LVL348:
 2014              	.L124:
 730:Source\azure_iot_sdk\uamqp\src/amqp_management.c ****     }
 731:Source\azure_iot_sdk\uamqp\src/amqp_management.c ****     else
 732:Source\azure_iot_sdk\uamqp\src/amqp_management.c ****     {
 733:Source\azure_iot_sdk\uamqp\src/amqp_management.c ****         /* Codes_SRS_AMQP_MANAGEMENT_01_001: [ `amqp_management_create` shall create a new CBS inst
 734:Source\azure_iot_sdk\uamqp\src/amqp_management.c ****         amqp_management = (AMQP_MANAGEMENT_INSTANCE*)malloc(sizeof(AMQP_MANAGEMENT_INSTANCE));
 2015              		.loc 1 734 0
 2016 0066 4020     		movs	r0, #64
 2017              	.LVL349:
 2018 0068 FFF7FEFF 		bl	malloc
 2019              	.LVL350:
 2020 006c 041E     		subs	r4, r0, #0
 2021              	.LVL351:
 735:Source\azure_iot_sdk\uamqp\src/amqp_management.c ****         if (amqp_management == NULL)
 2022              		.loc 1 735 0
 2023 006e 0FD1     		bne	.L125
 2024              	.LBB47:
 736:Source\azure_iot_sdk\uamqp\src/amqp_management.c ****         {
 737:Source\azure_iot_sdk\uamqp\src/amqp_management.c ****             /* Codes_SRS_AMQP_MANAGEMENT_01_005: [ If allocating memory for the new handle fails, `
 738:Source\azure_iot_sdk\uamqp\src/amqp_management.c ****             LogError("Cannot allocate memory for AMQP management handle");
 2025              		.loc 1 738 0 discriminator 3
ARM GAS  C:\Users\Phuong\AppData\Local\Temp\ccdTtd1y.s 			page 53


 2026 0070 FFF7FEFF 		bl	xlogging_get_log_function
 2027              	.LVL352:
 2028 0074 051E     		subs	r5, r0, #0
 2029              	.LVL353:
 2030 0076 00D1     		bne	.LCB2270
 2031 0078 71E1     		b	.L123	@long jump
 2032              	.LCB2270:
 2033              		.loc 1 738 0 is_stmt 0 discriminator 4
 2034 007a C14B     		ldr	r3, .L150+20
 2035 007c 0193     		str	r3, [sp, #4]
 2036 007e 0123     		movs	r3, #1
 2037 0080 0093     		str	r3, [sp]
 2038 0082 C04B     		ldr	r3, .L150+24
 2039 0084 BB4A     		ldr	r2, .L150+8
 2040 0086 7832     		adds	r2, r2, #120
 2041 0088 BB49     		ldr	r1, .L150+12
 2042 008a 0020     		movs	r0, #0
 2043              	.LVL354:
 2044 008c A847     		blx	r5
 2045              	.LVL355:
 2046 008e 66E1     		b	.L123
 2047              	.LVL356:
 2048              	.L125:
 2049              	.LBE47:
 739:Source\azure_iot_sdk\uamqp\src/amqp_management.c ****         }
 740:Source\azure_iot_sdk\uamqp\src/amqp_management.c ****         else
 741:Source\azure_iot_sdk\uamqp\src/amqp_management.c ****         {
 742:Source\azure_iot_sdk\uamqp\src/amqp_management.c ****             amqp_management->sender_connected = 0;
 2050              		.loc 1 742 0 is_stmt 1
 2051 0090 3C22     		movs	r2, #60
 2052 0092 835C     		ldrb	r3, [r0, r2]
 743:Source\azure_iot_sdk\uamqp\src/amqp_management.c ****             amqp_management->receiver_connected = 0;
 2053              		.loc 1 743 0
 2054 0094 0121     		movs	r1, #1
 2055 0096 8B43     		bics	r3, r1
 2056 0098 0131     		adds	r1, r1, #1
 2057 009a 8B43     		bics	r3, r1
 2058 009c 8354     		strb	r3, [r0, r2]
 744:Source\azure_iot_sdk\uamqp\src/amqp_management.c ****             amqp_management->on_amqp_management_open_complete = NULL;
 2059              		.loc 1 744 0
 2060 009e 0023     		movs	r3, #0
 2061 00a0 0362     		str	r3, [r0, #32]
 745:Source\azure_iot_sdk\uamqp\src/amqp_management.c ****             amqp_management->on_amqp_management_open_complete_context = NULL;
 2062              		.loc 1 745 0
 2063 00a2 4362     		str	r3, [r0, #36]
 746:Source\azure_iot_sdk\uamqp\src/amqp_management.c ****             amqp_management->on_amqp_management_error = NULL;
 2064              		.loc 1 746 0
 2065 00a4 8362     		str	r3, [r0, #40]
 747:Source\azure_iot_sdk\uamqp\src/amqp_management.c ****             amqp_management->on_amqp_management_error_context = NULL;
 2066              		.loc 1 747 0
 2067 00a6 C362     		str	r3, [r0, #44]
 748:Source\azure_iot_sdk\uamqp\src/amqp_management.c ****             amqp_management->amqp_management_state = AMQP_MANAGEMENT_STATE_IDLE;
 2068              		.loc 1 748 0
 2069 00a8 0C3A     		subs	r2, r2, #12
 2070 00aa 8354     		strb	r3, [r0, r2]
 749:Source\azure_iot_sdk\uamqp\src/amqp_management.c ****             amqp_management->status_code_key_name = NULL;
 2071              		.loc 1 749 0
ARM GAS  C:\Users\Phuong\AppData\Local\Temp\ccdTtd1y.s 			page 54


 2072 00ac 4363     		str	r3, [r0, #52]
 750:Source\azure_iot_sdk\uamqp\src/amqp_management.c ****             amqp_management->status_description_key_name = NULL;
 2073              		.loc 1 750 0
 2074 00ae 8363     		str	r3, [r0, #56]
 751:Source\azure_iot_sdk\uamqp\src/amqp_management.c **** 
 752:Source\azure_iot_sdk\uamqp\src/amqp_management.c ****             /* Codes_SRS_AMQP_MANAGEMENT_01_003: [ `amqp_management_create` shall create a singly l
 753:Source\azure_iot_sdk\uamqp\src/amqp_management.c ****             amqp_management->pending_operations = singlylinkedlist_create();
 2075              		.loc 1 753 0
 2076 00b0 FFF7FEFF 		bl	singlylinkedlist_create
 2077              	.LVL357:
 2078 00b4 2061     		str	r0, [r4, #16]
 754:Source\azure_iot_sdk\uamqp\src/amqp_management.c ****             if (amqp_management->pending_operations == NULL)
 2079              		.loc 1 754 0
 2080 00b6 0028     		cmp	r0, #0
 2081 00b8 0FD1     		bne	.L126
 2082              	.LBB48:
 755:Source\azure_iot_sdk\uamqp\src/amqp_management.c ****             {
 756:Source\azure_iot_sdk\uamqp\src/amqp_management.c ****                 /* Codes_SRS_AMQP_MANAGEMENT_01_004: [ If `singlylinkedlist_create` fails, `amqp_ma
 757:Source\azure_iot_sdk\uamqp\src/amqp_management.c ****                 LogError("Cannot create pending operations list");
 2083              		.loc 1 757 0 discriminator 3
 2084 00ba FFF7FEFF 		bl	xlogging_get_log_function
 2085              	.LVL358:
 2086 00be 051E     		subs	r5, r0, #0
 2087              	.LVL359:
 2088 00c0 00D1     		bne	.LCB2320
 2089 00c2 44E1     		b	.L127	@long jump
 2090              	.LCB2320:
 2091              		.loc 1 757 0 is_stmt 0 discriminator 4
 2092 00c4 B04B     		ldr	r3, .L150+28
 2093 00c6 0193     		str	r3, [sp, #4]
 2094 00c8 0123     		movs	r3, #1
 2095 00ca 0093     		str	r3, [sp]
 2096 00cc AF4B     		ldr	r3, .L150+32
 2097 00ce A94A     		ldr	r2, .L150+8
 2098 00d0 7832     		adds	r2, r2, #120
 2099 00d2 A949     		ldr	r1, .L150+12
 2100 00d4 0020     		movs	r0, #0
 2101              	.LVL360:
 2102 00d6 A847     		blx	r5
 2103              	.LVL361:
 2104 00d8 39E1     		b	.L127
 2105              	.LVL362:
 2106              	.L126:
 2107              	.LBE48:
 758:Source\azure_iot_sdk\uamqp\src/amqp_management.c ****             }
 759:Source\azure_iot_sdk\uamqp\src/amqp_management.c ****             else
 760:Source\azure_iot_sdk\uamqp\src/amqp_management.c ****             {
 761:Source\azure_iot_sdk\uamqp\src/amqp_management.c ****                 /* Codes_SRS_AMQP_MANAGEMENT_01_181: [ `amqp_management_create` shall set the statu
 762:Source\azure_iot_sdk\uamqp\src/amqp_management.c ****                 if (internal_set_status_code_key_name(amqp_management, "statusCode") != 0)
 2108              		.loc 1 762 0 is_stmt 1
 2109 00da AD49     		ldr	r1, .L150+36
 2110 00dc 2000     		movs	r0, r4
 2111 00de FFF7FEFF 		bl	internal_set_status_code_key_name
 2112              	.LVL363:
 2113 00e2 0028     		cmp	r0, #0
 2114 00e4 10D0     		beq	.L128
 2115              	.LBB49:
ARM GAS  C:\Users\Phuong\AppData\Local\Temp\ccdTtd1y.s 			page 55


 763:Source\azure_iot_sdk\uamqp\src/amqp_management.c ****                 {
 764:Source\azure_iot_sdk\uamqp\src/amqp_management.c ****                     LogError("Cannot set status code key name");
 2116              		.loc 1 764 0 discriminator 3
 2117 00e6 FFF7FEFF 		bl	xlogging_get_log_function
 2118              	.LVL364:
 2119 00ea 051E     		subs	r5, r0, #0
 2120              	.LVL365:
 2121 00ec 00D1     		bne	.LCB2351
 2122 00ee 2BE1     		b	.L129	@long jump
 2123              	.LCB2351:
 2124              		.loc 1 764 0 is_stmt 0 discriminator 4
 2125 00f0 A84B     		ldr	r3, .L150+40
 2126 00f2 0193     		str	r3, [sp, #4]
 2127 00f4 0123     		movs	r3, #1
 2128 00f6 0093     		str	r3, [sp]
 2129 00f8 BF23     		movs	r3, #191
 2130 00fa 9B00     		lsls	r3, r3, #2
 2131 00fc 9D4A     		ldr	r2, .L150+8
 2132 00fe 7832     		adds	r2, r2, #120
 2133 0100 9D49     		ldr	r1, .L150+12
 2134 0102 0020     		movs	r0, #0
 2135              	.LVL366:
 2136 0104 A847     		blx	r5
 2137              	.LVL367:
 2138 0106 1FE1     		b	.L129
 2139              	.LVL368:
 2140              	.L128:
 2141              	.LBE49:
 765:Source\azure_iot_sdk\uamqp\src/amqp_management.c ****                 }
 766:Source\azure_iot_sdk\uamqp\src/amqp_management.c ****                 else
 767:Source\azure_iot_sdk\uamqp\src/amqp_management.c ****                 {
 768:Source\azure_iot_sdk\uamqp\src/amqp_management.c ****                     /* Codes_SRS_AMQP_MANAGEMENT_01_182: [ `amqp_management_create` shall set the s
 769:Source\azure_iot_sdk\uamqp\src/amqp_management.c ****                     if (internal_set_status_description_key_name(amqp_management, "statusDescriptio
 2142              		.loc 1 769 0 is_stmt 1
 2143 0108 A349     		ldr	r1, .L150+44
 2144 010a 2000     		movs	r0, r4
 2145 010c FFF7FEFF 		bl	internal_set_status_description_key_name
 2146              	.LVL369:
 2147 0110 0028     		cmp	r0, #0
 2148 0112 0FD0     		beq	.L130
 2149              	.LBB50:
 770:Source\azure_iot_sdk\uamqp\src/amqp_management.c ****                     {
 771:Source\azure_iot_sdk\uamqp\src/amqp_management.c ****                         LogError("Cannot set status description key name");
 2150              		.loc 1 771 0 discriminator 3
 2151 0114 FFF7FEFF 		bl	xlogging_get_log_function
 2152              	.LVL370:
 2153 0118 051E     		subs	r5, r0, #0
 2154              	.LVL371:
 2155 011a 00D1     		bne	.LCB2383
 2156 011c 11E1     		b	.L131	@long jump
 2157              	.LCB2383:
 2158              		.loc 1 771 0 is_stmt 0 discriminator 4
 2159 011e 9F4B     		ldr	r3, .L150+48
 2160 0120 0193     		str	r3, [sp, #4]
 2161 0122 0123     		movs	r3, #1
 2162 0124 0093     		str	r3, [sp]
 2163 0126 9E4B     		ldr	r3, .L150+52
ARM GAS  C:\Users\Phuong\AppData\Local\Temp\ccdTtd1y.s 			page 56


 2164 0128 924A     		ldr	r2, .L150+8
 2165 012a 7832     		adds	r2, r2, #120
 2166 012c 9249     		ldr	r1, .L150+12
 2167 012e 0020     		movs	r0, #0
 2168              	.LVL372:
 2169 0130 A847     		blx	r5
 2170              	.LVL373:
 2171 0132 06E1     		b	.L131
 2172              	.LVL374:
 2173              	.L130:
 2174              	.LBE50:
 2175              	.LBB51:
 772:Source\azure_iot_sdk\uamqp\src/amqp_management.c ****                     }
 773:Source\azure_iot_sdk\uamqp\src/amqp_management.c ****                     else
 774:Source\azure_iot_sdk\uamqp\src/amqp_management.c ****                     {
 775:Source\azure_iot_sdk\uamqp\src/amqp_management.c ****                         /* Codes_SRS_AMQP_MANAGEMENT_01_010: [ The `source` argument shall be a val
 776:Source\azure_iot_sdk\uamqp\src/amqp_management.c ****                         AMQP_VALUE source = messaging_create_source(management_node);
 2176              		.loc 1 776 0 is_stmt 1
 2177 0134 3800     		movs	r0, r7
 2178 0136 FFF7FEFF 		bl	messaging_create_source
 2179              	.LVL375:
 2180 013a 0690     		str	r0, [sp, #24]
 2181              	.LVL376:
 777:Source\azure_iot_sdk\uamqp\src/amqp_management.c ****                         if (source == NULL)
 2182              		.loc 1 777 0
 2183 013c 0028     		cmp	r0, #0
 2184 013e 10D1     		bne	.L132
 2185              	.LBB52:
 778:Source\azure_iot_sdk\uamqp\src/amqp_management.c ****                         {
 779:Source\azure_iot_sdk\uamqp\src/amqp_management.c ****                             /* Codes_SRS_AMQP_MANAGEMENT_01_012: [ If `messaging_create_source` fai
 780:Source\azure_iot_sdk\uamqp\src/amqp_management.c ****                             LogError("Failed creating source AMQP value");
 2186              		.loc 1 780 0 discriminator 3
 2187 0140 FFF7FEFF 		bl	xlogging_get_log_function
 2188              	.LVL377:
 2189 0144 051E     		subs	r5, r0, #0
 2190              	.LVL378:
 2191 0146 00D1     		bne	.LCB2417
 2192 0148 F8E0     		b	.L133	@long jump
 2193              	.LCB2417:
 2194              		.loc 1 780 0 is_stmt 0 discriminator 4
 2195 014a 964B     		ldr	r3, .L150+56
 2196 014c 0193     		str	r3, [sp, #4]
 2197 014e 0123     		movs	r3, #1
 2198 0150 0093     		str	r3, [sp]
 2199 0152 C323     		movs	r3, #195
 2200 0154 9B00     		lsls	r3, r3, #2
 2201 0156 874A     		ldr	r2, .L150+8
 2202 0158 7832     		adds	r2, r2, #120
 2203 015a 8749     		ldr	r1, .L150+12
 2204 015c 0020     		movs	r0, #0
 2205              	.LVL379:
 2206 015e A847     		blx	r5
 2207              	.LVL380:
 2208 0160 ECE0     		b	.L133
 2209              	.LVL381:
 2210              	.L132:
 2211              	.LBE52:
ARM GAS  C:\Users\Phuong\AppData\Local\Temp\ccdTtd1y.s 			page 57


 2212              	.LBB53:
 781:Source\azure_iot_sdk\uamqp\src/amqp_management.c ****                         }
 782:Source\azure_iot_sdk\uamqp\src/amqp_management.c ****                         else
 783:Source\azure_iot_sdk\uamqp\src/amqp_management.c ****                         {
 784:Source\azure_iot_sdk\uamqp\src/amqp_management.c ****                             /* Codes_SRS_AMQP_MANAGEMENT_01_011: [ The `target` argument shall be a
 785:Source\azure_iot_sdk\uamqp\src/amqp_management.c ****                             AMQP_VALUE target = messaging_create_target(management_node);
 2213              		.loc 1 785 0 is_stmt 1
 2214 0162 3800     		movs	r0, r7
 2215              	.LVL382:
 2216 0164 FFF7FEFF 		bl	messaging_create_target
 2217              	.LVL383:
 2218 0168 8146     		mov	r9, r0
 2219              	.LVL384:
 786:Source\azure_iot_sdk\uamqp\src/amqp_management.c ****                             if (target == NULL)
 2220              		.loc 1 786 0
 2221 016a 0028     		cmp	r0, #0
 2222 016c 0FD1     		bne	.L134
 2223              	.LBB54:
 787:Source\azure_iot_sdk\uamqp\src/amqp_management.c ****                             {
 788:Source\azure_iot_sdk\uamqp\src/amqp_management.c ****                                 /* Codes_SRS_AMQP_MANAGEMENT_01_013: [ If `messaging_create_target`
 789:Source\azure_iot_sdk\uamqp\src/amqp_management.c ****                                 LogError("Failed creating target AMQP value");
 2224              		.loc 1 789 0 discriminator 3
 2225 016e FFF7FEFF 		bl	xlogging_get_log_function
 2226              	.LVL385:
 2227 0172 051E     		subs	r5, r0, #0
 2228              	.LVL386:
 2229 0174 00D1     		bne	.LCB2454
 2230 0176 DEE0     		b	.L135	@long jump
 2231              	.LCB2454:
 2232              		.loc 1 789 0 is_stmt 0 discriminator 4
 2233 0178 8B4B     		ldr	r3, .L150+60
 2234 017a 0193     		str	r3, [sp, #4]
 2235 017c 0123     		movs	r3, #1
 2236 017e 0093     		str	r3, [sp]
 2237 0180 8A4B     		ldr	r3, .L150+64
 2238 0182 7C4A     		ldr	r2, .L150+8
 2239 0184 7832     		adds	r2, r2, #120
 2240 0186 7C49     		ldr	r1, .L150+12
 2241 0188 0020     		movs	r0, #0
 2242              	.LVL387:
 2243 018a A847     		blx	r5
 2244              	.LVL388:
 2245 018c D3E0     		b	.L135
 2246              	.LVL389:
 2247              	.L134:
 2248              	.LBE54:
 2249              	.LBB55:
 790:Source\azure_iot_sdk\uamqp\src/amqp_management.c ****                             }
 791:Source\azure_iot_sdk\uamqp\src/amqp_management.c ****                             else
 792:Source\azure_iot_sdk\uamqp\src/amqp_management.c ****                             {
 793:Source\azure_iot_sdk\uamqp\src/amqp_management.c ****                                 size_t management_node_length = strlen(management_node);
 2250              		.loc 1 793 0 is_stmt 1
 2251 018e 3800     		movs	r0, r7
 2252              	.LVL390:
 2253 0190 FFF7FEFF 		bl	strlen
 2254              	.LVL391:
 2255 0194 0500     		movs	r5, r0
ARM GAS  C:\Users\Phuong\AppData\Local\Temp\ccdTtd1y.s 			page 58


 2256              	.LVL392:
 794:Source\azure_iot_sdk\uamqp\src/amqp_management.c **** 
 795:Source\azure_iot_sdk\uamqp\src/amqp_management.c ****                                 char* sender_link_name = (char*)malloc(management_node_length + COU
 2257              		.loc 1 795 0
 2258 0196 0830     		adds	r0, r0, #8
 2259              	.LVL393:
 2260 0198 FFF7FEFF 		bl	malloc
 2261              	.LVL394:
 2262 019c 0590     		str	r0, [sp, #20]
 2263              	.LVL395:
 796:Source\azure_iot_sdk\uamqp\src/amqp_management.c ****                                 if (sender_link_name == NULL)
 2264              		.loc 1 796 0
 2265 019e 0028     		cmp	r0, #0
 2266 01a0 0FD1     		bne	.L136
 2267              	.LBB56:
 797:Source\azure_iot_sdk\uamqp\src/amqp_management.c ****                                 {
 798:Source\azure_iot_sdk\uamqp\src/amqp_management.c ****                                     /* Codes_SRS_AMQP_MANAGEMENT_01_033: [ If any other error occur
 799:Source\azure_iot_sdk\uamqp\src/amqp_management.c ****                                     LogError("Failed allocating memory for sender link name");
 2268              		.loc 1 799 0 discriminator 3
 2269 01a2 FFF7FEFF 		bl	xlogging_get_log_function
 2270              	.LVL396:
 2271 01a6 051E     		subs	r5, r0, #0
 2272              	.LVL397:
 2273 01a8 00D1     		bne	.LCB2497
 2274 01aa C1E0     		b	.L137	@long jump
 2275              	.LCB2497:
 2276              		.loc 1 799 0 is_stmt 0 discriminator 4
 2277 01ac 804B     		ldr	r3, .L150+68
 2278 01ae 0193     		str	r3, [sp, #4]
 2279 01b0 0123     		movs	r3, #1
 2280 01b2 0093     		str	r3, [sp]
 2281 01b4 7F4B     		ldr	r3, .L150+72
 2282 01b6 6F4A     		ldr	r2, .L150+8
 2283 01b8 7832     		adds	r2, r2, #120
 2284 01ba 6F49     		ldr	r1, .L150+12
 2285 01bc 0020     		movs	r0, #0
 2286              	.LVL398:
 2287 01be A847     		blx	r5
 2288              	.LVL399:
 2289 01c0 B6E0     		b	.L137
 2290              	.LVL400:
 2291              	.L136:
 2292              	.LBE56:
 2293              	.LBB57:
 800:Source\azure_iot_sdk\uamqp\src/amqp_management.c ****                                 }
 801:Source\azure_iot_sdk\uamqp\src/amqp_management.c ****                                 else
 802:Source\azure_iot_sdk\uamqp\src/amqp_management.c ****                                 {
 803:Source\azure_iot_sdk\uamqp\src/amqp_management.c ****                                     char* receiver_link_name;
 804:Source\azure_iot_sdk\uamqp\src/amqp_management.c **** 
 805:Source\azure_iot_sdk\uamqp\src/amqp_management.c ****                                     (void)memcpy(sender_link_name, management_node, management_node
 2294              		.loc 1 805 0 is_stmt 1
 2295 01c2 2A00     		movs	r2, r5
 2296 01c4 3900     		movs	r1, r7
 2297 01c6 0598     		ldr	r0, [sp, #20]
 2298              	.LVL401:
 2299 01c8 FFF7FEFF 		bl	memcpy
 2300              	.LVL402:
ARM GAS  C:\Users\Phuong\AppData\Local\Temp\ccdTtd1y.s 			page 59


 806:Source\azure_iot_sdk\uamqp\src/amqp_management.c ****                                     (void)memcpy(sender_link_name + management_node_length, sender_
 2301              		.loc 1 806 0
 2302 01cc 059B     		ldr	r3, [sp, #20]
 2303 01ce 5819     		adds	r0, r3, r5
 2304 01d0 0822     		movs	r2, #8
 2305 01d2 7949     		ldr	r1, .L150+76
 2306 01d4 FFF7FEFF 		bl	memcpy
 2307              	.LVL403:
 807:Source\azure_iot_sdk\uamqp\src/amqp_management.c **** 
 808:Source\azure_iot_sdk\uamqp\src/amqp_management.c ****                                     receiver_link_name = (char*)malloc(management_node_length + COU
 2308              		.loc 1 808 0
 2309 01d8 2800     		movs	r0, r5
 2310 01da 0A30     		adds	r0, r0, #10
 2311 01dc FFF7FEFF 		bl	malloc
 2312              	.LVL404:
 2313 01e0 0790     		str	r0, [sp, #28]
 2314              	.LVL405:
 809:Source\azure_iot_sdk\uamqp\src/amqp_management.c ****                                     if (receiver_link_name == NULL)
 2315              		.loc 1 809 0
 2316 01e2 0028     		cmp	r0, #0
 2317 01e4 10D1     		bne	.L138
 2318              	.LBB58:
 810:Source\azure_iot_sdk\uamqp\src/amqp_management.c ****                                     {
 811:Source\azure_iot_sdk\uamqp\src/amqp_management.c ****                                         /* Codes_SRS_AMQP_MANAGEMENT_01_033: [ If any other error o
 812:Source\azure_iot_sdk\uamqp\src/amqp_management.c ****                                         LogError("Failed allocating memory for receiver link name")
 2319              		.loc 1 812 0 discriminator 3
 2320 01e6 FFF7FEFF 		bl	xlogging_get_log_function
 2321              	.LVL406:
 2322 01ea 061E     		subs	r6, r0, #0
 2323              	.LVL407:
 2324 01ec 00D1     		bne	.LCB2548
 2325 01ee 9CE0     		b	.L139	@long jump
 2326              	.LCB2548:
 2327              		.loc 1 812 0 is_stmt 0 discriminator 4
 2328 01f0 724B     		ldr	r3, .L150+80
 2329 01f2 0193     		str	r3, [sp, #4]
 2330 01f4 0123     		movs	r3, #1
 2331 01f6 0093     		str	r3, [sp]
 2332 01f8 CB23     		movs	r3, #203
 2333 01fa 9B00     		lsls	r3, r3, #2
 2334 01fc 5D4A     		ldr	r2, .L150+8
 2335 01fe 7832     		adds	r2, r2, #120
 2336 0200 5D49     		ldr	r1, .L150+12
 2337 0202 0020     		movs	r0, #0
 2338              	.LVL408:
 2339 0204 B047     		blx	r6
 2340              	.LVL409:
 2341 0206 90E0     		b	.L139
 2342              	.LVL410:
 2343              	.L138:
 2344              	.LBE58:
 813:Source\azure_iot_sdk\uamqp\src/amqp_management.c ****                                     }
 814:Source\azure_iot_sdk\uamqp\src/amqp_management.c ****                                     else
 815:Source\azure_iot_sdk\uamqp\src/amqp_management.c ****                                     {
 816:Source\azure_iot_sdk\uamqp\src/amqp_management.c ****                                         (void)memcpy(receiver_link_name, management_node, managemen
 2345              		.loc 1 816 0 is_stmt 1
 2346 0208 2A00     		movs	r2, r5
ARM GAS  C:\Users\Phuong\AppData\Local\Temp\ccdTtd1y.s 			page 60


 2347 020a 3900     		movs	r1, r7
 2348 020c 079F     		ldr	r7, [sp, #28]
 2349              	.LVL411:
 2350 020e 3800     		movs	r0, r7
 2351              	.LVL412:
 2352 0210 FFF7FEFF 		bl	memcpy
 2353              	.LVL413:
 817:Source\azure_iot_sdk\uamqp\src/amqp_management.c ****                                         (void)memcpy(receiver_link_name + management_node_length, r
 2354              		.loc 1 817 0
 2355 0214 7819     		adds	r0, r7, r5
 2356 0216 0A22     		movs	r2, #10
 2357 0218 6949     		ldr	r1, .L150+84
 2358 021a FFF7FEFF 		bl	memcpy
 2359              	.LVL414:
 818:Source\azure_iot_sdk\uamqp\src/amqp_management.c **** 
 819:Source\azure_iot_sdk\uamqp\src/amqp_management.c ****                                         /* Codes_SRS_AMQP_MANAGEMENT_01_006: [ `amqp_management_cre
 820:Source\azure_iot_sdk\uamqp\src/amqp_management.c ****                                         /* Codes_SRS_AMQP_MANAGEMENT_01_007: [ The `session` argume
 821:Source\azure_iot_sdk\uamqp\src/amqp_management.c ****                                         /* Codes_SRS_AMQP_MANAGEMENT_01_008: [ The `name` argument 
 822:Source\azure_iot_sdk\uamqp\src/amqp_management.c ****                                         /* Codes_SRS_AMQP_MANAGEMENT_01_009: [ The `role` argument 
 823:Source\azure_iot_sdk\uamqp\src/amqp_management.c ****                                         /* Codes_SRS_AMQP_MANAGEMENT_01_019: [ The `source` argumen
 824:Source\azure_iot_sdk\uamqp\src/amqp_management.c ****                                         /* Codes_SRS_AMQP_MANAGEMENT_01_020: [ The `target` argumen
 825:Source\azure_iot_sdk\uamqp\src/amqp_management.c ****                                         amqp_management->sender_link = link_create(session, sender_
 2360              		.loc 1 825 0
 2361 021e 4B46     		mov	r3, r9
 2362 0220 0093     		str	r3, [sp]
 2363 0222 069B     		ldr	r3, [sp, #24]
 2364 0224 0022     		movs	r2, #0
 2365 0226 0599     		ldr	r1, [sp, #20]
 2366 0228 3000     		movs	r0, r6
 2367 022a FFF7FEFF 		bl	link_create
 2368              	.LVL415:
 2369 022e 2060     		str	r0, [r4]
 826:Source\azure_iot_sdk\uamqp\src/amqp_management.c ****                                         if (amqp_management->sender_link == NULL)
 2370              		.loc 1 826 0
 2371 0230 0028     		cmp	r0, #0
 2372 0232 0ED1     		bne	.L140
 2373              	.LBB59:
 827:Source\azure_iot_sdk\uamqp\src/amqp_management.c ****                                         {
 828:Source\azure_iot_sdk\uamqp\src/amqp_management.c ****                                             /* Codes_SRS_AMQP_MANAGEMENT_01_014: [ If `link_create`
 829:Source\azure_iot_sdk\uamqp\src/amqp_management.c ****                                             LogError("Failed creating sender link");
 2374              		.loc 1 829 0 discriminator 3
 2375 0234 FFF7FEFF 		bl	xlogging_get_log_function
 2376              	.LVL416:
 2377 0238 061E     		subs	r6, r0, #0
 2378              	.LVL417:
 2379 023a 73D0     		beq	.L141
 2380              		.loc 1 829 0 is_stmt 0 discriminator 4
 2381 023c 614B     		ldr	r3, .L150+88
 2382 023e 0193     		str	r3, [sp, #4]
 2383 0240 0123     		movs	r3, #1
 2384 0242 0093     		str	r3, [sp]
 2385 0244 604B     		ldr	r3, .L150+92
 2386 0246 4B4A     		ldr	r2, .L150+8
 2387 0248 7832     		adds	r2, r2, #120
 2388 024a 4B49     		ldr	r1, .L150+12
 2389 024c 0020     		movs	r0, #0
 2390              	.LVL418:
ARM GAS  C:\Users\Phuong\AppData\Local\Temp\ccdTtd1y.s 			page 61


 2391 024e B047     		blx	r6
 2392              	.LVL419:
 2393 0250 68E0     		b	.L141
 2394              	.LVL420:
 2395              	.L140:
 2396              	.LBE59:
 830:Source\azure_iot_sdk\uamqp\src/amqp_management.c ****                                         }
 831:Source\azure_iot_sdk\uamqp\src/amqp_management.c ****                                         else
 832:Source\azure_iot_sdk\uamqp\src/amqp_management.c ****                                         {
 833:Source\azure_iot_sdk\uamqp\src/amqp_management.c ****                                             /* Codes_SRS_AMQP_MANAGEMENT_01_015: [ `amqp_management
 834:Source\azure_iot_sdk\uamqp\src/amqp_management.c ****                                             /* Codes_SRS_AMQP_MANAGEMENT_01_016: [ The `session` ar
 835:Source\azure_iot_sdk\uamqp\src/amqp_management.c ****                                             /* Codes_SRS_AMQP_MANAGEMENT_01_017: [ The `name` argum
 836:Source\azure_iot_sdk\uamqp\src/amqp_management.c ****                                             /* Codes_SRS_AMQP_MANAGEMENT_01_018: [ The `role` argum
 837:Source\azure_iot_sdk\uamqp\src/amqp_management.c ****                                             /* Codes_SRS_AMQP_MANAGEMENT_01_019: [ The `source` arg
 838:Source\azure_iot_sdk\uamqp\src/amqp_management.c ****                                             /* Codes_SRS_AMQP_MANAGEMENT_01_020: [ The `target` arg
 839:Source\azure_iot_sdk\uamqp\src/amqp_management.c ****                                             amqp_management->receiver_link = link_create(session, r
 2397              		.loc 1 839 0 is_stmt 1
 2398 0252 4B46     		mov	r3, r9
 2399 0254 0093     		str	r3, [sp]
 2400 0256 069B     		ldr	r3, [sp, #24]
 2401 0258 0122     		movs	r2, #1
 2402 025a 0799     		ldr	r1, [sp, #28]
 2403 025c 3000     		movs	r0, r6
 2404 025e FFF7FEFF 		bl	link_create
 2405              	.LVL421:
 2406 0262 6060     		str	r0, [r4, #4]
 840:Source\azure_iot_sdk\uamqp\src/amqp_management.c ****                                             if (amqp_management->receiver_link == NULL)
 2407              		.loc 1 840 0
 2408 0264 0028     		cmp	r0, #0
 2409 0266 0FD1     		bne	.L142
 2410              	.LBB60:
 841:Source\azure_iot_sdk\uamqp\src/amqp_management.c ****                                             {
 842:Source\azure_iot_sdk\uamqp\src/amqp_management.c ****                                                 /* Codes_SRS_AMQP_MANAGEMENT_01_021: [ If `link_cre
 843:Source\azure_iot_sdk\uamqp\src/amqp_management.c ****                                                 LogError("Failed creating receiver link");
 2411              		.loc 1 843 0 discriminator 3
 2412 0268 FFF7FEFF 		bl	xlogging_get_log_function
 2413              	.LVL422:
 2414 026c 8046     		mov	r8, r0
 2415              	.LVL423:
 2416 026e 0028     		cmp	r0, #0
 2417 0270 55D0     		beq	.L143
 2418              		.loc 1 843 0 is_stmt 0 discriminator 4
 2419 0272 564B     		ldr	r3, .L150+96
 2420 0274 0193     		str	r3, [sp, #4]
 2421 0276 0123     		movs	r3, #1
 2422 0278 0093     		str	r3, [sp]
 2423 027a 554B     		ldr	r3, .L150+100
 2424 027c 3D4A     		ldr	r2, .L150+8
 2425 027e 7832     		adds	r2, r2, #120
 2426 0280 3D49     		ldr	r1, .L150+12
 2427 0282 0020     		movs	r0, #0
 2428              	.LVL424:
 2429 0284 C047     		blx	r8
 2430              	.LVL425:
 2431 0286 4AE0     		b	.L143
 2432              	.LVL426:
 2433              	.L142:
ARM GAS  C:\Users\Phuong\AppData\Local\Temp\ccdTtd1y.s 			page 62


 2434              	.LBE60:
 844:Source\azure_iot_sdk\uamqp\src/amqp_management.c ****                                             }
 845:Source\azure_iot_sdk\uamqp\src/amqp_management.c ****                                             else
 846:Source\azure_iot_sdk\uamqp\src/amqp_management.c ****                                             {
 847:Source\azure_iot_sdk\uamqp\src/amqp_management.c ****                                                 /* Codes_SRS_AMQP_MANAGEMENT_01_022: [ `amqp_manage
 848:Source\azure_iot_sdk\uamqp\src/amqp_management.c ****                                                 amqp_management->message_sender = messagesender_cre
 2435              		.loc 1 848 0 is_stmt 1
 2436 0288 2200     		movs	r2, r4
 2437 028a 5249     		ldr	r1, .L150+104
 2438 028c 2068     		ldr	r0, [r4]
 2439 028e FFF7FEFF 		bl	messagesender_create
 2440              	.LVL427:
 2441 0292 A060     		str	r0, [r4, #8]
 849:Source\azure_iot_sdk\uamqp\src/amqp_management.c ****                                                 if (amqp_management->message_sender == NULL)
 2442              		.loc 1 849 0
 2443 0294 0028     		cmp	r0, #0
 2444 0296 10D1     		bne	.L144
 2445              	.LBB61:
 850:Source\azure_iot_sdk\uamqp\src/amqp_management.c ****                                                 {
 851:Source\azure_iot_sdk\uamqp\src/amqp_management.c ****                                                     /* Codes_SRS_AMQP_MANAGEMENT_01_031: [ If `mess
 852:Source\azure_iot_sdk\uamqp\src/amqp_management.c ****                                                     LogError("Failed creating message sender");
 2446              		.loc 1 852 0 discriminator 3
 2447 0298 FFF7FEFF 		bl	xlogging_get_log_function
 2448              	.LVL428:
 2449 029c 8046     		mov	r8, r0
 2450              	.LVL429:
 2451 029e 0028     		cmp	r0, #0
 2452 02a0 3AD0     		beq	.L145
 2453              		.loc 1 852 0 is_stmt 0 discriminator 4
 2454 02a2 4D4B     		ldr	r3, .L150+108
 2455 02a4 0193     		str	r3, [sp, #4]
 2456 02a6 0123     		movs	r3, #1
 2457 02a8 0093     		str	r3, [sp]
 2458 02aa D523     		movs	r3, #213
 2459 02ac 9B00     		lsls	r3, r3, #2
 2460 02ae 314A     		ldr	r2, .L150+8
 2461 02b0 7832     		adds	r2, r2, #120
 2462 02b2 3149     		ldr	r1, .L150+12
 2463 02b4 0020     		movs	r0, #0
 2464              	.LVL430:
 2465 02b6 C047     		blx	r8
 2466              	.LVL431:
 2467 02b8 2EE0     		b	.L145
 2468              	.LVL432:
 2469              	.L144:
 2470              	.LBE61:
 853:Source\azure_iot_sdk\uamqp\src/amqp_management.c ****                                                 }
 854:Source\azure_iot_sdk\uamqp\src/amqp_management.c ****                                                 else
 855:Source\azure_iot_sdk\uamqp\src/amqp_management.c ****                                                 {
 856:Source\azure_iot_sdk\uamqp\src/amqp_management.c ****                                                     /* Codes_SRS_AMQP_MANAGEMENT_01_023: [ `amqp_ma
 857:Source\azure_iot_sdk\uamqp\src/amqp_management.c ****                                                     amqp_management->message_receiver = messagerece
 2471              		.loc 1 857 0 is_stmt 1
 2472 02ba 2200     		movs	r2, r4
 2473 02bc 4749     		ldr	r1, .L150+112
 2474 02be 6068     		ldr	r0, [r4, #4]
 2475 02c0 FFF7FEFF 		bl	messagereceiver_create
 2476              	.LVL433:
ARM GAS  C:\Users\Phuong\AppData\Local\Temp\ccdTtd1y.s 			page 63


 2477 02c4 E060     		str	r0, [r4, #12]
 858:Source\azure_iot_sdk\uamqp\src/amqp_management.c ****                                                     if (amqp_management->message_receiver == NULL)
 2478              		.loc 1 858 0
 2479 02c6 0028     		cmp	r0, #0
 2480 02c8 15D1     		bne	.L146
 2481              	.LBB62:
 859:Source\azure_iot_sdk\uamqp\src/amqp_management.c ****                                                     {
 860:Source\azure_iot_sdk\uamqp\src/amqp_management.c ****                                                         /* Codes_SRS_AMQP_MANAGEMENT_01_032: [ If `
 861:Source\azure_iot_sdk\uamqp\src/amqp_management.c ****                                                         LogError("Failed creating message receiver"
 2482              		.loc 1 861 0 discriminator 3
 2483 02ca FFF7FEFF 		bl	xlogging_get_log_function
 2484              	.LVL434:
 2485 02ce 8046     		mov	r8, r0
 2486              	.LVL435:
 2487 02d0 0028     		cmp	r0, #0
 2488 02d2 09D0     		beq	.L147
 2489              		.loc 1 861 0 is_stmt 0 discriminator 4
 2490 02d4 424B     		ldr	r3, .L150+116
 2491 02d6 0193     		str	r3, [sp, #4]
 2492 02d8 0123     		movs	r3, #1
 2493 02da 0093     		str	r3, [sp]
 2494 02dc 414B     		ldr	r3, .L150+120
 2495 02de 254A     		ldr	r2, .L150+8
 2496 02e0 7832     		adds	r2, r2, #120
 2497 02e2 2549     		ldr	r1, .L150+12
 2498 02e4 0020     		movs	r0, #0
 2499              	.LVL436:
 2500 02e6 C047     		blx	r8
 2501              	.LVL437:
 2502              	.L147:
 2503              	.LBE62:
 862:Source\azure_iot_sdk\uamqp\src/amqp_management.c ****                                                         link_destroy(amqp_management->receiver_link
 2504              		.loc 1 862 0 is_stmt 1
 2505 02e8 6068     		ldr	r0, [r4, #4]
 2506 02ea FFF7FEFF 		bl	link_destroy
 2507              	.LVL438:
 863:Source\azure_iot_sdk\uamqp\src/amqp_management.c ****                                                     }
 864:Source\azure_iot_sdk\uamqp\src/amqp_management.c ****                                                     else
 865:Source\azure_iot_sdk\uamqp\src/amqp_management.c ****                                                     {
 866:Source\azure_iot_sdk\uamqp\src/amqp_management.c ****                                                         free(receiver_link_name);
 867:Source\azure_iot_sdk\uamqp\src/amqp_management.c ****                                                         free(sender_link_name);
 868:Source\azure_iot_sdk\uamqp\src/amqp_management.c ****                                                         amqpvalue_destroy(target);
 869:Source\azure_iot_sdk\uamqp\src/amqp_management.c ****                                                         amqpvalue_destroy(source);
 870:Source\azure_iot_sdk\uamqp\src/amqp_management.c **** 
 871:Source\azure_iot_sdk\uamqp\src/amqp_management.c ****                                                         /* Codes_SRS_AMQP_MANAGEMENT_01_106: [ The 
 872:Source\azure_iot_sdk\uamqp\src/amqp_management.c ****                                                         amqp_management->next_message_id = 0;
 873:Source\azure_iot_sdk\uamqp\src/amqp_management.c **** 
 874:Source\azure_iot_sdk\uamqp\src/amqp_management.c ****                                                         goto all_ok;
 875:Source\azure_iot_sdk\uamqp\src/amqp_management.c ****                                                     }
 876:Source\azure_iot_sdk\uamqp\src/amqp_management.c **** 
 877:Source\azure_iot_sdk\uamqp\src/amqp_management.c ****                                                     messagesender_destroy(amqp_management->message_
 2508              		.loc 1 877 0
 2509 02ee A068     		ldr	r0, [r4, #8]
 2510 02f0 FFF7FEFF 		bl	messagesender_destroy
 2511              	.LVL439:
 2512 02f4 10E0     		b	.L145
 2513              	.LVL440:
ARM GAS  C:\Users\Phuong\AppData\Local\Temp\ccdTtd1y.s 			page 64


 2514              	.L146:
 866:Source\azure_iot_sdk\uamqp\src/amqp_management.c ****                                                         free(sender_link_name);
 2515              		.loc 1 866 0
 2516 02f6 0798     		ldr	r0, [sp, #28]
 2517 02f8 FFF7FEFF 		bl	free
 2518              	.LVL441:
 867:Source\azure_iot_sdk\uamqp\src/amqp_management.c ****                                                         amqpvalue_destroy(target);
 2519              		.loc 1 867 0
 2520 02fc 0598     		ldr	r0, [sp, #20]
 2521 02fe FFF7FEFF 		bl	free
 2522              	.LVL442:
 868:Source\azure_iot_sdk\uamqp\src/amqp_management.c ****                                                         amqpvalue_destroy(source);
 2523              		.loc 1 868 0
 2524 0302 4846     		mov	r0, r9
 2525 0304 FFF7FEFF 		bl	amqpvalue_destroy
 2526              	.LVL443:
 869:Source\azure_iot_sdk\uamqp\src/amqp_management.c **** 
 2527              		.loc 1 869 0
 2528 0308 0698     		ldr	r0, [sp, #24]
 2529 030a FFF7FEFF 		bl	amqpvalue_destroy
 2530              	.LVL444:
 872:Source\azure_iot_sdk\uamqp\src/amqp_management.c **** 
 2531              		.loc 1 872 0
 2532 030e 0022     		movs	r2, #0
 2533 0310 0023     		movs	r3, #0
 2534 0312 A261     		str	r2, [r4, #24]
 2535 0314 E361     		str	r3, [r4, #28]
 874:Source\azure_iot_sdk\uamqp\src/amqp_management.c ****                                                     }
 2536              		.loc 1 874 0
 2537 0316 22E0     		b	.L123
 2538              	.L145:
 878:Source\azure_iot_sdk\uamqp\src/amqp_management.c ****                                                 }
 879:Source\azure_iot_sdk\uamqp\src/amqp_management.c **** 
 880:Source\azure_iot_sdk\uamqp\src/amqp_management.c ****                                                 link_destroy(amqp_management->receiver_link);
 2539              		.loc 1 880 0
 2540 0318 6068     		ldr	r0, [r4, #4]
 2541 031a FFF7FEFF 		bl	link_destroy
 2542              	.LVL445:
 2543              	.L143:
 881:Source\azure_iot_sdk\uamqp\src/amqp_management.c ****                                             }
 882:Source\azure_iot_sdk\uamqp\src/amqp_management.c **** 
 883:Source\azure_iot_sdk\uamqp\src/amqp_management.c ****                                             link_destroy(amqp_management->sender_link);
 2544              		.loc 1 883 0
 2545 031e 2068     		ldr	r0, [r4]
 2546 0320 FFF7FEFF 		bl	link_destroy
 2547              	.LVL446:
 2548              	.L141:
 884:Source\azure_iot_sdk\uamqp\src/amqp_management.c ****                                         }
 885:Source\azure_iot_sdk\uamqp\src/amqp_management.c **** 
 886:Source\azure_iot_sdk\uamqp\src/amqp_management.c ****                                         free(receiver_link_name);
 2549              		.loc 1 886 0
 2550 0324 0798     		ldr	r0, [sp, #28]
 2551 0326 FFF7FEFF 		bl	free
 2552              	.LVL447:
 2553              	.L139:
 887:Source\azure_iot_sdk\uamqp\src/amqp_management.c ****                                     }
 888:Source\azure_iot_sdk\uamqp\src/amqp_management.c **** 
ARM GAS  C:\Users\Phuong\AppData\Local\Temp\ccdTtd1y.s 			page 65


 889:Source\azure_iot_sdk\uamqp\src/amqp_management.c ****                                     free(sender_link_name);
 2554              		.loc 1 889 0
 2555 032a 0598     		ldr	r0, [sp, #20]
 2556 032c FFF7FEFF 		bl	free
 2557              	.LVL448:
 2558              	.L137:
 2559              	.LBE57:
 890:Source\azure_iot_sdk\uamqp\src/amqp_management.c ****                                 }
 891:Source\azure_iot_sdk\uamqp\src/amqp_management.c **** 
 892:Source\azure_iot_sdk\uamqp\src/amqp_management.c ****                                 amqpvalue_destroy(target);
 2560              		.loc 1 892 0
 2561 0330 4846     		mov	r0, r9
 2562 0332 FFF7FEFF 		bl	amqpvalue_destroy
 2563              	.LVL449:
 2564              	.L135:
 2565              	.LBE55:
 893:Source\azure_iot_sdk\uamqp\src/amqp_management.c ****                             }
 894:Source\azure_iot_sdk\uamqp\src/amqp_management.c **** 
 895:Source\azure_iot_sdk\uamqp\src/amqp_management.c ****                             amqpvalue_destroy(source);
 2566              		.loc 1 895 0
 2567 0336 0698     		ldr	r0, [sp, #24]
 2568 0338 FFF7FEFF 		bl	amqpvalue_destroy
 2569              	.LVL450:
 2570              	.L133:
 2571              	.LBE53:
 896:Source\azure_iot_sdk\uamqp\src/amqp_management.c ****                         }
 897:Source\azure_iot_sdk\uamqp\src/amqp_management.c **** 
 898:Source\azure_iot_sdk\uamqp\src/amqp_management.c ****                         free(amqp_management->status_description_key_name);
 2572              		.loc 1 898 0
 2573 033c A06B     		ldr	r0, [r4, #56]
 2574 033e FFF7FEFF 		bl	free
 2575              	.LVL451:
 2576              	.L131:
 2577              	.LBE51:
 899:Source\azure_iot_sdk\uamqp\src/amqp_management.c ****                     }
 900:Source\azure_iot_sdk\uamqp\src/amqp_management.c **** 
 901:Source\azure_iot_sdk\uamqp\src/amqp_management.c ****                     free(amqp_management->status_code_key_name);
 2578              		.loc 1 901 0
 2579 0342 606B     		ldr	r0, [r4, #52]
 2580 0344 FFF7FEFF 		bl	free
 2581              	.LVL452:
 2582              	.L129:
 902:Source\azure_iot_sdk\uamqp\src/amqp_management.c ****                 }
 903:Source\azure_iot_sdk\uamqp\src/amqp_management.c **** 
 904:Source\azure_iot_sdk\uamqp\src/amqp_management.c ****                 singlylinkedlist_destroy(amqp_management->pending_operations);
 2583              		.loc 1 904 0
 2584 0348 2069     		ldr	r0, [r4, #16]
 2585 034a FFF7FEFF 		bl	singlylinkedlist_destroy
 2586              	.LVL453:
 2587              	.L127:
 905:Source\azure_iot_sdk\uamqp\src/amqp_management.c ****             }
 906:Source\azure_iot_sdk\uamqp\src/amqp_management.c **** 
 907:Source\azure_iot_sdk\uamqp\src/amqp_management.c ****             free(amqp_management);
 2588              		.loc 1 907 0
 2589 034e 2000     		movs	r0, r4
 2590 0350 FFF7FEFF 		bl	free
 2591              	.LVL454:
ARM GAS  C:\Users\Phuong\AppData\Local\Temp\ccdTtd1y.s 			page 66


 908:Source\azure_iot_sdk\uamqp\src/amqp_management.c ****             amqp_management = NULL;
 2592              		.loc 1 908 0
 2593 0354 0024     		movs	r4, #0
 2594 0356 02E0     		b	.L123
 2595              	.LVL455:
 2596              	.L148:
 723:Source\azure_iot_sdk\uamqp\src/amqp_management.c ****     }
 2597              		.loc 1 723 0
 2598 0358 0024     		movs	r4, #0
 2599 035a 00E0     		b	.L123
 2600              	.LVL456:
 2601              	.L149:
 729:Source\azure_iot_sdk\uamqp\src/amqp_management.c ****     }
 2602              		.loc 1 729 0
 2603 035c 0024     		movs	r4, #0
 2604              	.LVL457:
 2605              	.L123:
 909:Source\azure_iot_sdk\uamqp\src/amqp_management.c ****         }
 910:Source\azure_iot_sdk\uamqp\src/amqp_management.c ****     }
 911:Source\azure_iot_sdk\uamqp\src/amqp_management.c **** 
 912:Source\azure_iot_sdk\uamqp\src/amqp_management.c **** all_ok:
 913:Source\azure_iot_sdk\uamqp\src/amqp_management.c ****     return amqp_management;
 914:Source\azure_iot_sdk\uamqp\src/amqp_management.c **** }
 2606              		.loc 1 914 0
 2607 035e 2000     		movs	r0, r4
 2608 0360 09B0     		add	sp, sp, #36
 2609              		@ sp needed
 2610              	.LVL458:
 2611 0362 0CBC     		pop	{r2, r3}
 2612 0364 9046     		mov	r8, r2
 2613 0366 9946     		mov	r9, r3
 2614 0368 F0BD     		pop	{r4, r5, r6, r7, pc}
 2615              	.L151:
 2616 036a C046     		.align	2
 2617              	.L150:
 2618 036c 28060000 		.word	.LC83
 2619 0370 D2020000 		.word	722
 2620 0374 80000000 		.word	.LANCHOR1
 2621 0378 00000000 		.word	.LC1
 2622 037c 5C060000 		.word	.LC85
 2623 0380 7C060000 		.word	.LC87
 2624 0384 E2020000 		.word	738
 2625 0388 B0060000 		.word	.LC89
 2626 038c F5020000 		.word	757
 2627 0390 D8060000 		.word	.LC91
 2628 0394 E4060000 		.word	.LC93
 2629 0398 04070000 		.word	.LC95
 2630 039c 18070000 		.word	.LC97
 2631 03a0 03030000 		.word	771
 2632 03a4 40070000 		.word	.LC99
 2633 03a8 64070000 		.word	.LC101
 2634 03ac 15030000 		.word	789
 2635 03b0 88070000 		.word	.LC103
 2636 03b4 1F030000 		.word	799
 2637 03b8 68080000 		.word	.LC105
 2638 03bc B8070000 		.word	.LC107
 2639 03c0 70080000 		.word	.LC109
ARM GAS  C:\Users\Phuong\AppData\Local\Temp\ccdTtd1y.s 			page 67


 2640 03c4 E8070000 		.word	.LC111
 2641 03c8 3D030000 		.word	829
 2642 03cc 04080000 		.word	.LC113
 2643 03d0 4B030000 		.word	843
 2644 03d4 00000000 		.word	on_message_sender_state_changed
 2645 03d8 24080000 		.word	.LC116
 2646 03dc 00000000 		.word	on_message_receiver_state_changed
 2647 03e0 44080000 		.word	.LC119
 2648 03e4 5D030000 		.word	861
 2649              		.cfi_endproc
 2650              	.LFE9:
 2651              		.size	amqp_management_create, .-amqp_management_create
 2652              		.section	.text.amqp_management_open_async,"ax",%progbits
 2653              		.align	2
 2654              		.global	amqp_management_open_async
 2655              		.code	16
 2656              		.thumb_func
 2657              		.type	amqp_management_open_async, %function
 2658              	amqp_management_open_async:
 2659              	.LFB11:
 915:Source\azure_iot_sdk\uamqp\src/amqp_management.c **** 
 916:Source\azure_iot_sdk\uamqp\src/amqp_management.c **** void amqp_management_destroy(AMQP_MANAGEMENT_HANDLE amqp_management)
 917:Source\azure_iot_sdk\uamqp\src/amqp_management.c **** {
 918:Source\azure_iot_sdk\uamqp\src/amqp_management.c ****     if (amqp_management == NULL)
 919:Source\azure_iot_sdk\uamqp\src/amqp_management.c ****     {
 920:Source\azure_iot_sdk\uamqp\src/amqp_management.c ****         /* Codes_SRS_AMQP_MANAGEMENT_01_025: [ If `amqp_management` is NULL, `amqp_management_destr
 921:Source\azure_iot_sdk\uamqp\src/amqp_management.c ****         LogError("NULL amqp_management");
 922:Source\azure_iot_sdk\uamqp\src/amqp_management.c ****     }
 923:Source\azure_iot_sdk\uamqp\src/amqp_management.c ****     else
 924:Source\azure_iot_sdk\uamqp\src/amqp_management.c ****     {
 925:Source\azure_iot_sdk\uamqp\src/amqp_management.c ****         /* Codes_SRS_AMQP_MANAGEMENT_01_024: [ `amqp_management_destroy` shall free all the resourc
 926:Source\azure_iot_sdk\uamqp\src/amqp_management.c ****         if (amqp_management->amqp_management_state != AMQP_MANAGEMENT_STATE_IDLE)
 927:Source\azure_iot_sdk\uamqp\src/amqp_management.c ****         {
 928:Source\azure_iot_sdk\uamqp\src/amqp_management.c ****             (void)amqp_management_close(amqp_management);
 929:Source\azure_iot_sdk\uamqp\src/amqp_management.c ****         }
 930:Source\azure_iot_sdk\uamqp\src/amqp_management.c **** 
 931:Source\azure_iot_sdk\uamqp\src/amqp_management.c ****         /* Codes_SRS_AMQP_MANAGEMENT_01_028: [ `amqp_management_destroy` shall free the message sen
 932:Source\azure_iot_sdk\uamqp\src/amqp_management.c ****         messagesender_destroy(amqp_management->message_sender);
 933:Source\azure_iot_sdk\uamqp\src/amqp_management.c ****         /* Codes_SRS_AMQP_MANAGEMENT_01_029: [ `amqp_management_destroy` shall free the message rec
 934:Source\azure_iot_sdk\uamqp\src/amqp_management.c ****         messagereceiver_destroy(amqp_management->message_receiver);
 935:Source\azure_iot_sdk\uamqp\src/amqp_management.c ****         /* Codes_SRS_AMQP_MANAGEMENT_01_027: [ `amqp_management_destroy` shall free the sender and 
 936:Source\azure_iot_sdk\uamqp\src/amqp_management.c ****         link_destroy(amqp_management->sender_link);
 937:Source\azure_iot_sdk\uamqp\src/amqp_management.c ****         link_destroy(amqp_management->receiver_link);
 938:Source\azure_iot_sdk\uamqp\src/amqp_management.c ****         free(amqp_management->status_code_key_name);
 939:Source\azure_iot_sdk\uamqp\src/amqp_management.c ****         free(amqp_management->status_description_key_name);
 940:Source\azure_iot_sdk\uamqp\src/amqp_management.c ****         /* Codes_SRS_AMQP_MANAGEMENT_01_026: [ `amqp_management_destroy` shall free the singly link
 941:Source\azure_iot_sdk\uamqp\src/amqp_management.c ****         singlylinkedlist_destroy(amqp_management->pending_operations);
 942:Source\azure_iot_sdk\uamqp\src/amqp_management.c ****         free(amqp_management);
 943:Source\azure_iot_sdk\uamqp\src/amqp_management.c ****     }
 944:Source\azure_iot_sdk\uamqp\src/amqp_management.c **** }
 945:Source\azure_iot_sdk\uamqp\src/amqp_management.c **** 
 946:Source\azure_iot_sdk\uamqp\src/amqp_management.c **** int amqp_management_open_async(AMQP_MANAGEMENT_HANDLE amqp_management, ON_AMQP_MANAGEMENT_OPEN_COMP
 947:Source\azure_iot_sdk\uamqp\src/amqp_management.c **** {
 2660              		.loc 1 947 0
 2661              		.cfi_startproc
 2662              		@ args = 4, pretend = 0, frame = 8
 2663              		@ frame_needed = 0, uses_anonymous_args = 0
ARM GAS  C:\Users\Phuong\AppData\Local\Temp\ccdTtd1y.s 			page 68


 2664              	.LVL459:
 2665 0000 F0B5     		push	{r4, r5, r6, r7, lr}
 2666              		.cfi_def_cfa_offset 20
 2667              		.cfi_offset 4, -20
 2668              		.cfi_offset 5, -16
 2669              		.cfi_offset 6, -12
 2670              		.cfi_offset 7, -8
 2671              		.cfi_offset 14, -4
 2672 0002 89B0     		sub	sp, sp, #36
 2673              		.cfi_def_cfa_offset 56
 2674 0004 0400     		movs	r4, r0
 2675 0006 0E00     		movs	r6, r1
 2676 0008 0792     		str	r2, [sp, #28]
 2677 000a 1F00     		movs	r7, r3
 2678              	.LBB63:
 948:Source\azure_iot_sdk\uamqp\src/amqp_management.c ****     int result;
 949:Source\azure_iot_sdk\uamqp\src/amqp_management.c ****     LogError("PSOC6---DEBUGGING_amqp_management_open_async---PSOC6");
 2679              		.loc 1 949 0
 2680 000c FFF7FEFF 		bl	xlogging_get_log_function
 2681              	.LVL460:
 2682 0010 051E     		subs	r5, r0, #0
 2683              	.LVL461:
 2684 0012 09D0     		beq	.L153
 2685              		.loc 1 949 0 is_stmt 0 discriminator 4
 2686 0014 464B     		ldr	r3, .L165
 2687 0016 0193     		str	r3, [sp, #4]
 2688 0018 0123     		movs	r3, #1
 2689 001a 0093     		str	r3, [sp]
 2690 001c 454B     		ldr	r3, .L165+4
 2691 001e 464A     		ldr	r2, .L165+8
 2692 0020 1032     		adds	r2, r2, #16
 2693 0022 4649     		ldr	r1, .L165+12
 2694 0024 0020     		movs	r0, #0
 2695              	.LVL462:
 2696 0026 A847     		blx	r5
 2697              	.LVL463:
 2698              	.L153:
 2699              	.LBE63:
 950:Source\azure_iot_sdk\uamqp\src/amqp_management.c ****     /* Codes_SRS_AMQP_MANAGEMENT_01_044: [ `on_amqp_management_open_complete_context` and `on_amqp_
 951:Source\azure_iot_sdk\uamqp\src/amqp_management.c ****     if ((amqp_management == NULL) ||
 2700              		.loc 1 951 0 is_stmt 1
 2701 0028 002C     		cmp	r4, #0
 2702 002a 03D0     		beq	.L154
 2703              		.loc 1 951 0 is_stmt 0 discriminator 1
 2704 002c 002E     		cmp	r6, #0
 2705 002e 01D0     		beq	.L154
 952:Source\azure_iot_sdk\uamqp\src/amqp_management.c ****         (on_amqp_management_open_complete == NULL) ||
 2706              		.loc 1 952 0 is_stmt 1
 2707 0030 002F     		cmp	r7, #0
 2708 0032 13D1     		bne	.L155
 2709              	.L154:
 2710              	.LBB64:
 953:Source\azure_iot_sdk\uamqp\src/amqp_management.c ****         (on_amqp_management_error == NULL))
 954:Source\azure_iot_sdk\uamqp\src/amqp_management.c ****     {
 955:Source\azure_iot_sdk\uamqp\src/amqp_management.c ****         /* Codes_SRS_AMQP_MANAGEMENT_01_038: [ If `amqp_management`, `on_amqp_management_open_compl
 956:Source\azure_iot_sdk\uamqp\src/amqp_management.c ****         LogError("Bad arguments: amqp_management = %p, on_amqp_management_open_complete = %p, on_am
 2711              		.loc 1 956 0 discriminator 3
ARM GAS  C:\Users\Phuong\AppData\Local\Temp\ccdTtd1y.s 			page 69


 2712 0034 FFF7FEFF 		bl	xlogging_get_log_function
 2713              	.LVL464:
 2714 0038 051E     		subs	r5, r0, #0
 2715              	.LVL465:
 2716 003a 71D0     		beq	.L162
 2717              		.loc 1 956 0 is_stmt 0 discriminator 4
 2718 003c 0497     		str	r7, [sp, #16]
 2719 003e 0396     		str	r6, [sp, #12]
 2720 0040 0294     		str	r4, [sp, #8]
 2721 0042 3F4B     		ldr	r3, .L165+16
 2722 0044 0193     		str	r3, [sp, #4]
 2723 0046 0123     		movs	r3, #1
 2724 0048 0093     		str	r3, [sp]
 2725 004a 3E4B     		ldr	r3, .L165+20
 2726 004c 3A4A     		ldr	r2, .L165+8
 2727 004e 1032     		adds	r2, r2, #16
 2728 0050 3A49     		ldr	r1, .L165+12
 2729 0052 0020     		movs	r0, #0
 2730              	.LVL466:
 2731 0054 A847     		blx	r5
 2732              	.LVL467:
 2733              	.LBE64:
 957:Source\azure_iot_sdk\uamqp\src/amqp_management.c ****             amqp_management,
 958:Source\azure_iot_sdk\uamqp\src/amqp_management.c ****             on_amqp_management_open_complete,
 959:Source\azure_iot_sdk\uamqp\src/amqp_management.c ****             on_amqp_management_error);
 960:Source\azure_iot_sdk\uamqp\src/amqp_management.c ****         result = __FAILURE__;
 2734              		.loc 1 960 0 is_stmt 1 discriminator 4
 2735 0056 F020     		movs	r0, #240
 2736 0058 8000     		lsls	r0, r0, #2
 2737 005a 67E0     		b	.L156
 2738              	.LVL468:
 2739              	.L155:
 961:Source\azure_iot_sdk\uamqp\src/amqp_management.c ****     }
 962:Source\azure_iot_sdk\uamqp\src/amqp_management.c ****     else if (amqp_management->amqp_management_state != AMQP_MANAGEMENT_STATE_IDLE)
 2740              		.loc 1 962 0
 2741 005c 3023     		movs	r3, #48
 2742 005e E35C     		ldrb	r3, [r4, r3]
 2743 0060 002B     		cmp	r3, #0
 2744 0062 0FD0     		beq	.L157
 2745              	.LBB65:
 963:Source\azure_iot_sdk\uamqp\src/amqp_management.c ****     {
 964:Source\azure_iot_sdk\uamqp\src/amqp_management.c ****         /* Codes_SRS_AMQP_MANAGEMENT_01_043: [ If the AMQP management instance is already OPEN or O
 965:Source\azure_iot_sdk\uamqp\src/amqp_management.c ****         LogError("PSOC6---AMQP management instance already OPEN---PSOC6");
 2746              		.loc 1 965 0 discriminator 3
 2747 0064 FFF7FEFF 		bl	xlogging_get_log_function
 2748              	.LVL469:
 2749 0068 041E     		subs	r4, r0, #0
 2750              	.LVL470:
 2751 006a 5CD0     		beq	.L163
 2752              		.loc 1 965 0 is_stmt 0 discriminator 4
 2753 006c 364B     		ldr	r3, .L165+24
 2754 006e 0193     		str	r3, [sp, #4]
 2755 0070 0123     		movs	r3, #1
 2756 0072 0093     		str	r3, [sp]
 2757 0074 354B     		ldr	r3, .L165+28
 2758 0076 304A     		ldr	r2, .L165+8
 2759 0078 1032     		adds	r2, r2, #16
ARM GAS  C:\Users\Phuong\AppData\Local\Temp\ccdTtd1y.s 			page 70


 2760 007a 3049     		ldr	r1, .L165+12
 2761 007c 0020     		movs	r0, #0
 2762              	.LVL471:
 2763 007e A047     		blx	r4
 2764              	.LVL472:
 2765              	.LBE65:
 966:Source\azure_iot_sdk\uamqp\src/amqp_management.c ****         result = __FAILURE__;
 2766              		.loc 1 966 0 is_stmt 1 discriminator 4
 2767 0080 3348     		ldr	r0, .L165+32
 2768 0082 53E0     		b	.L156
 2769              	.LVL473:
 2770              	.L157:
 967:Source\azure_iot_sdk\uamqp\src/amqp_management.c ****     }
 968:Source\azure_iot_sdk\uamqp\src/amqp_management.c ****     else
 969:Source\azure_iot_sdk\uamqp\src/amqp_management.c ****     {
 970:Source\azure_iot_sdk\uamqp\src/amqp_management.c ****         /* Codes_SRS_AMQP_MANAGEMENT_01_036: [ `amqp_management_open_async` shall start opening the
 971:Source\azure_iot_sdk\uamqp\src/amqp_management.c ****         amqp_management->on_amqp_management_open_complete = on_amqp_management_open_complete;
 2771              		.loc 1 971 0
 2772 0084 2662     		str	r6, [r4, #32]
 972:Source\azure_iot_sdk\uamqp\src/amqp_management.c ****         amqp_management->on_amqp_management_open_complete_context = on_amqp_management_open_complet
 2773              		.loc 1 972 0
 2774 0086 079B     		ldr	r3, [sp, #28]
 2775 0088 6362     		str	r3, [r4, #36]
 973:Source\azure_iot_sdk\uamqp\src/amqp_management.c ****         amqp_management->on_amqp_management_error = on_amqp_management_error;
 2776              		.loc 1 973 0
 2777 008a A762     		str	r7, [r4, #40]
 974:Source\azure_iot_sdk\uamqp\src/amqp_management.c ****         amqp_management->on_amqp_management_error_context = on_amqp_management_error_context;
 2778              		.loc 1 974 0
 2779 008c 0E9B     		ldr	r3, [sp, #56]
 2780 008e E362     		str	r3, [r4, #44]
 975:Source\azure_iot_sdk\uamqp\src/amqp_management.c ****         amqp_management->amqp_management_state = AMQP_MANAGEMENT_STATE_OPENING;
 2781              		.loc 1 975 0
 2782 0090 0122     		movs	r2, #1
 2783 0092 3023     		movs	r3, #48
 2784 0094 E254     		strb	r2, [r4, r3]
 976:Source\azure_iot_sdk\uamqp\src/amqp_management.c **** 
 977:Source\azure_iot_sdk\uamqp\src/amqp_management.c ****         /* Codes_SRS_AMQP_MANAGEMENT_01_040: [ `amqp_management_open_async` shall open the message 
 978:Source\azure_iot_sdk\uamqp\src/amqp_management.c ****         if (messagereceiver_open(amqp_management->message_receiver, on_message_received, amqp_manag
 2785              		.loc 1 978 0
 2786 0096 2200     		movs	r2, r4
 2787 0098 2E49     		ldr	r1, .L165+36
 2788 009a E068     		ldr	r0, [r4, #12]
 2789 009c FFF7FEFF 		bl	messagereceiver_open
 2790              	.LVL474:
 2791 00a0 0028     		cmp	r0, #0
 2792 00a2 12D0     		beq	.L158
 2793              	.LBB66:
 979:Source\azure_iot_sdk\uamqp\src/amqp_management.c ****         {
 980:Source\azure_iot_sdk\uamqp\src/amqp_management.c ****             /* Codes_SRS_AMQP_MANAGEMENT_01_042: [ If `messagereceiver_open` fails, `amqp_managemen
 981:Source\azure_iot_sdk\uamqp\src/amqp_management.c ****             LogError("PSOC6---Failed opening message receiver---PSOC6");
 2794              		.loc 1 981 0 discriminator 3
 2795 00a4 FFF7FEFF 		bl	xlogging_get_log_function
 2796              	.LVL475:
 2797 00a8 051E     		subs	r5, r0, #0
 2798              	.LVL476:
 2799 00aa 09D0     		beq	.L159
 2800              		.loc 1 981 0 is_stmt 0 discriminator 4
ARM GAS  C:\Users\Phuong\AppData\Local\Temp\ccdTtd1y.s 			page 71


 2801 00ac 2A4B     		ldr	r3, .L165+40
 2802 00ae 0193     		str	r3, [sp, #4]
 2803 00b0 0123     		movs	r3, #1
 2804 00b2 0093     		str	r3, [sp]
 2805 00b4 294B     		ldr	r3, .L165+44
 2806 00b6 204A     		ldr	r2, .L165+8
 2807 00b8 1032     		adds	r2, r2, #16
 2808 00ba 2049     		ldr	r1, .L165+12
 2809 00bc 0020     		movs	r0, #0
 2810              	.LVL477:
 2811 00be A847     		blx	r5
 2812              	.LVL478:
 2813              	.L159:
 2814              	.LBE66:
 982:Source\azure_iot_sdk\uamqp\src/amqp_management.c ****             amqp_management->amqp_management_state = AMQP_MANAGEMENT_STATE_IDLE;
 2815              		.loc 1 982 0 is_stmt 1
 2816 00c0 0022     		movs	r2, #0
 2817 00c2 3023     		movs	r3, #48
 2818 00c4 E254     		strb	r2, [r4, r3]
 2819              	.LVL479:
 983:Source\azure_iot_sdk\uamqp\src/amqp_management.c ****             result = __FAILURE__;
 2820              		.loc 1 983 0
 2821 00c6 2648     		ldr	r0, .L165+48
 2822 00c8 30E0     		b	.L156
 2823              	.LVL480:
 2824              	.L158:
 984:Source\azure_iot_sdk\uamqp\src/amqp_management.c ****         }
 985:Source\azure_iot_sdk\uamqp\src/amqp_management.c ****         else
 986:Source\azure_iot_sdk\uamqp\src/amqp_management.c ****         {
 987:Source\azure_iot_sdk\uamqp\src/amqp_management.c ****             /* Codes_SRS_AMQP_MANAGEMENT_01_039: [ `amqp_management_open_async` shall open the mess
 988:Source\azure_iot_sdk\uamqp\src/amqp_management.c ****             if (messagesender_open(amqp_management->message_sender) != 0)
 2825              		.loc 1 988 0
 2826 00ca A068     		ldr	r0, [r4, #8]
 2827 00cc FFF7FEFF 		bl	messagesender_open
 2828              	.LVL481:
 2829 00d0 0028     		cmp	r0, #0
 2830 00d2 15D0     		beq	.L160
 2831              	.LBB67:
 989:Source\azure_iot_sdk\uamqp\src/amqp_management.c ****             {
 990:Source\azure_iot_sdk\uamqp\src/amqp_management.c ****                 /* Codes_SRS_AMQP_MANAGEMENT_01_041: [ If `messagesender_open` fails, `amqp_managem
 991:Source\azure_iot_sdk\uamqp\src/amqp_management.c ****                 LogError("PSOC6---Failed opening message sender---PSOC6");
 2832              		.loc 1 991 0 discriminator 3
 2833 00d4 FFF7FEFF 		bl	xlogging_get_log_function
 2834              	.LVL482:
 2835 00d8 051E     		subs	r5, r0, #0
 2836              	.LVL483:
 2837 00da 09D0     		beq	.L161
 2838              		.loc 1 991 0 is_stmt 0 discriminator 4
 2839 00dc 214B     		ldr	r3, .L165+52
 2840 00de 0193     		str	r3, [sp, #4]
 2841 00e0 0123     		movs	r3, #1
 2842 00e2 0093     		str	r3, [sp]
 2843 00e4 204B     		ldr	r3, .L165+56
 2844 00e6 144A     		ldr	r2, .L165+8
 2845 00e8 1032     		adds	r2, r2, #16
 2846 00ea 1449     		ldr	r1, .L165+12
 2847 00ec 0020     		movs	r0, #0
ARM GAS  C:\Users\Phuong\AppData\Local\Temp\ccdTtd1y.s 			page 72


 2848              	.LVL484:
 2849 00ee A847     		blx	r5
 2850              	.LVL485:
 2851              	.L161:
 2852              	.LBE67:
 992:Source\azure_iot_sdk\uamqp\src/amqp_management.c ****                 amqp_management->amqp_management_state = AMQP_MANAGEMENT_STATE_IDLE;
 2853              		.loc 1 992 0 is_stmt 1
 2854 00f0 0022     		movs	r2, #0
 2855 00f2 3023     		movs	r3, #48
 2856 00f4 E254     		strb	r2, [r4, r3]
 993:Source\azure_iot_sdk\uamqp\src/amqp_management.c ****                 (void)messagereceiver_close(amqp_management->message_receiver);
 2857              		.loc 1 993 0
 2858 00f6 E068     		ldr	r0, [r4, #12]
 2859 00f8 FFF7FEFF 		bl	messagereceiver_close
 2860              	.LVL486:
 994:Source\azure_iot_sdk\uamqp\src/amqp_management.c ****                 result = __FAILURE__;
 2861              		.loc 1 994 0
 2862 00fc 1B48     		ldr	r0, .L165+60
 2863 00fe 15E0     		b	.L156
 2864              	.LVL487:
 2865              	.L160:
 2866              	.LBB68:
 995:Source\azure_iot_sdk\uamqp\src/amqp_management.c ****             }
 996:Source\azure_iot_sdk\uamqp\src/amqp_management.c ****             else
 997:Source\azure_iot_sdk\uamqp\src/amqp_management.c ****             {
 998:Source\azure_iot_sdk\uamqp\src/amqp_management.c ****                 LogError("PSOC6---Opening_message_sender_successfully---PSOC6");
 2867              		.loc 1 998 0 discriminator 3
 2868 0100 FFF7FEFF 		bl	xlogging_get_log_function
 2869              	.LVL488:
 2870 0104 041E     		subs	r4, r0, #0
 2871              	.LVL489:
 2872 0106 10D0     		beq	.L164
 2873              		.loc 1 998 0 is_stmt 0 discriminator 4
 2874 0108 194B     		ldr	r3, .L165+64
 2875 010a 0193     		str	r3, [sp, #4]
 2876 010c 0123     		movs	r3, #1
 2877 010e 0093     		str	r3, [sp]
 2878 0110 184B     		ldr	r3, .L165+68
 2879 0112 094A     		ldr	r2, .L165+8
 2880 0114 1032     		adds	r2, r2, #16
 2881 0116 0949     		ldr	r1, .L165+12
 2882 0118 0020     		movs	r0, #0
 2883              	.LVL490:
 2884 011a A047     		blx	r4
 2885              	.LVL491:
 2886              	.LBE68:
 999:Source\azure_iot_sdk\uamqp\src/amqp_management.c ****                 /* Codes_SRS_AMQP_MANAGEMENT_01_037: [ On success it shall return 0. ]*/
1000:Source\azure_iot_sdk\uamqp\src/amqp_management.c ****                 result = 0;
 2887              		.loc 1 1000 0 is_stmt 1 discriminator 4
 2888 011c 0020     		movs	r0, #0
 2889 011e 05E0     		b	.L156
 2890              	.LVL492:
 2891              	.L162:
 960:Source\azure_iot_sdk\uamqp\src/amqp_management.c ****     }
 2892              		.loc 1 960 0
 2893 0120 F020     		movs	r0, #240
 2894              	.LVL493:
ARM GAS  C:\Users\Phuong\AppData\Local\Temp\ccdTtd1y.s 			page 73


 2895 0122 8000     		lsls	r0, r0, #2
 2896 0124 02E0     		b	.L156
 2897              	.LVL494:
 2898              	.L163:
 966:Source\azure_iot_sdk\uamqp\src/amqp_management.c ****     }
 2899              		.loc 1 966 0
 2900 0126 0A48     		ldr	r0, .L165+32
 2901              	.LVL495:
 2902 0128 00E0     		b	.L156
 2903              	.LVL496:
 2904              	.L164:
 2905              		.loc 1 1000 0
 2906 012a 0020     		movs	r0, #0
 2907              	.LVL497:
 2908              	.L156:
1001:Source\azure_iot_sdk\uamqp\src/amqp_management.c ****             }
1002:Source\azure_iot_sdk\uamqp\src/amqp_management.c ****         }
1003:Source\azure_iot_sdk\uamqp\src/amqp_management.c ****     }
1004:Source\azure_iot_sdk\uamqp\src/amqp_management.c **** 
1005:Source\azure_iot_sdk\uamqp\src/amqp_management.c ****     return result;
1006:Source\azure_iot_sdk\uamqp\src/amqp_management.c **** }
 2909              		.loc 1 1006 0
 2910 012c 09B0     		add	sp, sp, #36
 2911              		@ sp needed
 2912              	.LVL498:
 2913              	.LVL499:
 2914 012e F0BD     		pop	{r4, r5, r6, r7, pc}
 2915              	.L166:
 2916              		.align	2
 2917              	.L165:
 2918 0130 7C080000 		.word	.LC123
 2919 0134 B5030000 		.word	949
 2920 0138 00010000 		.word	.LANCHOR2
 2921 013c 00000000 		.word	.LC1
 2922 0140 B4080000 		.word	.LC125
 2923 0144 BF030000 		.word	959
 2924 0148 20090000 		.word	.LC127
 2925 014c C5030000 		.word	965
 2926 0150 C6030000 		.word	966
 2927 0154 00000000 		.word	on_message_received
 2928 0158 58090000 		.word	.LC130
 2929 015c D5030000 		.word	981
 2930 0160 D7030000 		.word	983
 2931 0164 88090000 		.word	.LC132
 2932 0168 DF030000 		.word	991
 2933 016c E2030000 		.word	994
 2934 0170 B8090000 		.word	.LC134
 2935 0174 E6030000 		.word	998
 2936              		.cfi_endproc
 2937              	.LFE11:
 2938              		.size	amqp_management_open_async, .-amqp_management_open_async
 2939              		.section	.text.amqp_management_close,"ax",%progbits
 2940              		.align	2
 2941              		.global	amqp_management_close
 2942              		.code	16
 2943              		.thumb_func
 2944              		.type	amqp_management_close, %function
ARM GAS  C:\Users\Phuong\AppData\Local\Temp\ccdTtd1y.s 			page 74


 2945              	amqp_management_close:
 2946              	.LFB12:
1007:Source\azure_iot_sdk\uamqp\src/amqp_management.c **** 
1008:Source\azure_iot_sdk\uamqp\src/amqp_management.c **** int amqp_management_close(AMQP_MANAGEMENT_HANDLE amqp_management)
1009:Source\azure_iot_sdk\uamqp\src/amqp_management.c **** {
 2947              		.loc 1 1009 0
 2948              		.cfi_startproc
 2949              		@ args = 0, pretend = 0, frame = 0
 2950              		@ frame_needed = 0, uses_anonymous_args = 0
 2951              	.LVL500:
 2952 0000 F0B5     		push	{r4, r5, r6, r7, lr}
 2953              		.cfi_def_cfa_offset 20
 2954              		.cfi_offset 4, -20
 2955              		.cfi_offset 5, -16
 2956              		.cfi_offset 6, -12
 2957              		.cfi_offset 7, -8
 2958              		.cfi_offset 14, -4
 2959 0002 83B0     		sub	sp, sp, #12
 2960              		.cfi_def_cfa_offset 32
 2961 0004 041E     		subs	r4, r0, #0
1010:Source\azure_iot_sdk\uamqp\src/amqp_management.c ****     int result;
1011:Source\azure_iot_sdk\uamqp\src/amqp_management.c **** 
1012:Source\azure_iot_sdk\uamqp\src/amqp_management.c ****     if (amqp_management == NULL)
 2962              		.loc 1 1012 0
 2963 0006 11D1     		bne	.L168
 2964              	.LBB69:
1013:Source\azure_iot_sdk\uamqp\src/amqp_management.c ****     {
1014:Source\azure_iot_sdk\uamqp\src/amqp_management.c ****         /* Codes_SRS_AMQP_MANAGEMENT_01_047: [ If `amqp_management` is NULL, `amqp_management_close
1015:Source\azure_iot_sdk\uamqp\src/amqp_management.c ****         LogError("NULL amqp_management");
 2965              		.loc 1 1015 0 discriminator 3
 2966 0008 FFF7FEFF 		bl	xlogging_get_log_function
 2967              	.LVL501:
 2968 000c 041E     		subs	r4, r0, #0
 2969              	.LVL502:
 2970 000e 00D1     		bne	.LCB3263
 2971 0010 95E0     		b	.L179	@long jump
 2972              	.LCB3263:
 2973              		.loc 1 1015 0 is_stmt 0 discriminator 4
 2974 0012 504B     		ldr	r3, .L183
 2975 0014 0193     		str	r3, [sp, #4]
 2976 0016 0123     		movs	r3, #1
 2977 0018 0093     		str	r3, [sp]
 2978 001a 4F4B     		ldr	r3, .L183+4
 2979 001c 4F4A     		ldr	r2, .L183+8
 2980 001e 2C32     		adds	r2, r2, #44
 2981 0020 4F49     		ldr	r1, .L183+12
 2982 0022 0020     		movs	r0, #0
 2983              	.LVL503:
 2984 0024 A047     		blx	r4
 2985              	.LVL504:
 2986              	.LBE69:
1016:Source\azure_iot_sdk\uamqp\src/amqp_management.c ****         result = __FAILURE__;
 2987              		.loc 1 1016 0 is_stmt 1 discriminator 4
 2988 0026 FE20     		movs	r0, #254
 2989 0028 8000     		lsls	r0, r0, #2
 2990 002a 90E0     		b	.L169
 2991              	.LVL505:
ARM GAS  C:\Users\Phuong\AppData\Local\Temp\ccdTtd1y.s 			page 75


 2992              	.L168:
1017:Source\azure_iot_sdk\uamqp\src/amqp_management.c ****     }
1018:Source\azure_iot_sdk\uamqp\src/amqp_management.c ****     else if (amqp_management->amqp_management_state == AMQP_MANAGEMENT_STATE_IDLE)
 2993              		.loc 1 1018 0
 2994 002c 3023     		movs	r3, #48
 2995 002e C35C     		ldrb	r3, [r0, r3]
 2996 0030 002B     		cmp	r3, #0
 2997 0032 10D1     		bne	.L170
 2998              	.LBB70:
1019:Source\azure_iot_sdk\uamqp\src/amqp_management.c ****     {
1020:Source\azure_iot_sdk\uamqp\src/amqp_management.c ****         /* Codes_SRS_AMQP_MANAGEMENT_01_049: [ `amqp_management_close` on an AMQP management instan
1021:Source\azure_iot_sdk\uamqp\src/amqp_management.c ****         LogError("PSOC6---AMQP management instance not open---PSOC6");
 2999              		.loc 1 1021 0 discriminator 3
 3000 0034 FFF7FEFF 		bl	xlogging_get_log_function
 3001              	.LVL506:
 3002 0038 041E     		subs	r4, r0, #0
 3003              	.LVL507:
 3004 003a 00D1     		bne	.LCB3297
 3005 003c 82E0     		b	.L180	@long jump
 3006              	.LCB3297:
 3007              		.loc 1 1021 0 is_stmt 0 discriminator 4
 3008 003e 494B     		ldr	r3, .L183+16
 3009 0040 0193     		str	r3, [sp, #4]
 3010 0042 0123     		movs	r3, #1
 3011 0044 0093     		str	r3, [sp]
 3012 0046 484B     		ldr	r3, .L183+20
 3013 0048 444A     		ldr	r2, .L183+8
 3014 004a 2C32     		adds	r2, r2, #44
 3015 004c 4449     		ldr	r1, .L183+12
 3016 004e 0020     		movs	r0, #0
 3017              	.LVL508:
 3018 0050 A047     		blx	r4
 3019              	.LVL509:
 3020              	.LBE70:
1022:Source\azure_iot_sdk\uamqp\src/amqp_management.c ****         result = __FAILURE__;
 3021              		.loc 1 1022 0 is_stmt 1 discriminator 4
 3022 0052 4648     		ldr	r0, .L183+24
 3023 0054 7BE0     		b	.L169
 3024              	.LVL510:
 3025              	.L170:
 3026              	.LBB71:
1023:Source\azure_iot_sdk\uamqp\src/amqp_management.c ****     }
1024:Source\azure_iot_sdk\uamqp\src/amqp_management.c ****     else
1025:Source\azure_iot_sdk\uamqp\src/amqp_management.c ****     {
1026:Source\azure_iot_sdk\uamqp\src/amqp_management.c ****         AMQP_MANAGEMENT_STATE previous_state = amqp_management->amqp_management_state;
1027:Source\azure_iot_sdk\uamqp\src/amqp_management.c **** 
1028:Source\azure_iot_sdk\uamqp\src/amqp_management.c ****         amqp_management->amqp_management_state = AMQP_MANAGEMENT_STATE_CLOSING;
 3027              		.loc 1 1028 0
 3028 0056 0221     		movs	r1, #2
 3029 0058 3022     		movs	r2, #48
 3030 005a 8154     		strb	r1, [r0, r2]
1029:Source\azure_iot_sdk\uamqp\src/amqp_management.c **** 
1030:Source\azure_iot_sdk\uamqp\src/amqp_management.c ****         if (previous_state == AMQP_MANAGEMENT_STATE_OPENING)
 3031              		.loc 1 1030 0
 3032 005c 012B     		cmp	r3, #1
 3033 005e 02D1     		bne	.L171
1031:Source\azure_iot_sdk\uamqp\src/amqp_management.c ****         {
ARM GAS  C:\Users\Phuong\AppData\Local\Temp\ccdTtd1y.s 			page 76


1032:Source\azure_iot_sdk\uamqp\src/amqp_management.c ****             /* Codes_SRS_AMQP_MANAGEMENT_01_048: [ `amqp_management_close` on an AMQP management in
1033:Source\azure_iot_sdk\uamqp\src/amqp_management.c ****             amqp_management->on_amqp_management_open_complete(amqp_management->on_amqp_management_o
 3034              		.loc 1 1033 0
 3035 0060 406A     		ldr	r0, [r0, #36]
 3036              	.LVL511:
 3037 0062 236A     		ldr	r3, [r4, #32]
 3038              	.LVL512:
 3039 0064 9847     		blx	r3
 3040              	.LVL513:
 3041              	.L171:
1034:Source\azure_iot_sdk\uamqp\src/amqp_management.c ****         }
1035:Source\azure_iot_sdk\uamqp\src/amqp_management.c **** 
1036:Source\azure_iot_sdk\uamqp\src/amqp_management.c **** 
1037:Source\azure_iot_sdk\uamqp\src/amqp_management.c ****         /* Codes_SRS_AMQP_MANAGEMENT_01_045: [ `amqp_management_close` shall close the AMQP managem
1038:Source\azure_iot_sdk\uamqp\src/amqp_management.c ****         /* Codes_SRS_AMQP_MANAGEMENT_01_050: [ `amqp_management_close` shall close the message send
1039:Source\azure_iot_sdk\uamqp\src/amqp_management.c ****         if (messagesender_close(amqp_management->message_sender) != 0)
 3042              		.loc 1 1039 0
 3043 0066 A068     		ldr	r0, [r4, #8]
 3044 0068 FFF7FEFF 		bl	messagesender_close
 3045              	.LVL514:
 3046 006c 0028     		cmp	r0, #0
 3047 006e 0FD0     		beq	.L172
 3048              	.LBB72:
1040:Source\azure_iot_sdk\uamqp\src/amqp_management.c ****         {
1041:Source\azure_iot_sdk\uamqp\src/amqp_management.c ****             /* Codes_SRS_AMQP_MANAGEMENT_01_052: [ If `messagesender_close` fails, `amqp_management
1042:Source\azure_iot_sdk\uamqp\src/amqp_management.c ****             LogError("messagesender_close failed");
 3049              		.loc 1 1042 0 discriminator 3
 3050 0070 FFF7FEFF 		bl	xlogging_get_log_function
 3051              	.LVL515:
 3052 0074 041E     		subs	r4, r0, #0
 3053              	.LVL516:
 3054 0076 67D0     		beq	.L181
 3055              		.loc 1 1042 0 is_stmt 0 discriminator 4
 3056 0078 3D4B     		ldr	r3, .L183+28
 3057 007a 0193     		str	r3, [sp, #4]
 3058 007c 0123     		movs	r3, #1
 3059 007e 0093     		str	r3, [sp]
 3060 0080 3C4B     		ldr	r3, .L183+32
 3061 0082 364A     		ldr	r2, .L183+8
 3062 0084 2C32     		adds	r2, r2, #44
 3063 0086 3649     		ldr	r1, .L183+12
 3064 0088 0020     		movs	r0, #0
 3065              	.LVL517:
 3066 008a A047     		blx	r4
 3067              	.LVL518:
 3068              	.LBE72:
1043:Source\azure_iot_sdk\uamqp\src/amqp_management.c ****             result = __FAILURE__;
 3069              		.loc 1 1043 0 is_stmt 1 discriminator 4
 3070 008c 3A48     		ldr	r0, .L183+36
 3071 008e 5EE0     		b	.L169
 3072              	.LVL519:
 3073              	.L172:
1044:Source\azure_iot_sdk\uamqp\src/amqp_management.c ****         }
1045:Source\azure_iot_sdk\uamqp\src/amqp_management.c ****         /* Codes_SRS_AMQP_MANAGEMENT_01_051: [ `amqp_management_close` shall close the message rece
1046:Source\azure_iot_sdk\uamqp\src/amqp_management.c ****         else if (messagereceiver_close(amqp_management->message_receiver) != 0)
 3074              		.loc 1 1046 0
 3075 0090 E068     		ldr	r0, [r4, #12]
ARM GAS  C:\Users\Phuong\AppData\Local\Temp\ccdTtd1y.s 			page 77


 3076 0092 FFF7FEFF 		bl	messagereceiver_close
 3077              	.LVL520:
 3078 0096 0028     		cmp	r0, #0
 3079 0098 0FD0     		beq	.L173
 3080              	.LBB73:
1047:Source\azure_iot_sdk\uamqp\src/amqp_management.c ****         {
1048:Source\azure_iot_sdk\uamqp\src/amqp_management.c ****             /* Codes_SRS_AMQP_MANAGEMENT_01_053: [ If `messagereceiver_close` fails, `amqp_manageme
1049:Source\azure_iot_sdk\uamqp\src/amqp_management.c ****             LogError("messagereceiver_close failed");
 3081              		.loc 1 1049 0 discriminator 3
 3082 009a FFF7FEFF 		bl	xlogging_get_log_function
 3083              	.LVL521:
 3084 009e 041E     		subs	r4, r0, #0
 3085              	.LVL522:
 3086 00a0 54D0     		beq	.L182
 3087              		.loc 1 1049 0 is_stmt 0 discriminator 4
 3088 00a2 364B     		ldr	r3, .L183+40
 3089 00a4 0193     		str	r3, [sp, #4]
 3090 00a6 0123     		movs	r3, #1
 3091 00a8 0093     		str	r3, [sp]
 3092 00aa 354B     		ldr	r3, .L183+44
 3093 00ac 2B4A     		ldr	r2, .L183+8
 3094 00ae 2C32     		adds	r2, r2, #44
 3095 00b0 2B49     		ldr	r1, .L183+12
 3096 00b2 0020     		movs	r0, #0
 3097              	.LVL523:
 3098 00b4 A047     		blx	r4
 3099              	.LVL524:
 3100              	.LBE73:
1050:Source\azure_iot_sdk\uamqp\src/amqp_management.c ****             result = __FAILURE__;
 3101              		.loc 1 1050 0 is_stmt 1 discriminator 4
 3102 00b6 3348     		ldr	r0, .L183+48
 3103 00b8 49E0     		b	.L169
 3104              	.LVL525:
 3105              	.L173:
 3106              	.LBB74:
1051:Source\azure_iot_sdk\uamqp\src/amqp_management.c ****         }
1052:Source\azure_iot_sdk\uamqp\src/amqp_management.c ****         else
1053:Source\azure_iot_sdk\uamqp\src/amqp_management.c ****         {
1054:Source\azure_iot_sdk\uamqp\src/amqp_management.c ****             LIST_ITEM_HANDLE list_item_handle = singlylinkedlist_get_head_item(amqp_management->pen
 3107              		.loc 1 1054 0
 3108 00ba 2069     		ldr	r0, [r4, #16]
 3109 00bc FFF7FEFF 		bl	singlylinkedlist_get_head_item
 3110              	.LVL526:
 3111 00c0 0600     		movs	r6, r0
 3112              	.LVL527:
1055:Source\azure_iot_sdk\uamqp\src/amqp_management.c ****             while (list_item_handle != NULL)
 3113              		.loc 1 1055 0
 3114 00c2 35E0     		b	.L174
 3115              	.L178:
 3116              	.LBB75:
1056:Source\azure_iot_sdk\uamqp\src/amqp_management.c ****             {
1057:Source\azure_iot_sdk\uamqp\src/amqp_management.c ****                 OPERATION_MESSAGE_INSTANCE* operation_message = (OPERATION_MESSAGE_INSTANCE*)singly
 3117              		.loc 1 1057 0
 3118 00c4 3000     		movs	r0, r6
 3119              	.LVL528:
 3120 00c6 FFF7FEFF 		bl	singlylinkedlist_item_get_value
 3121              	.LVL529:
ARM GAS  C:\Users\Phuong\AppData\Local\Temp\ccdTtd1y.s 			page 78


 3122 00ca 051E     		subs	r5, r0, #0
 3123              	.LVL530:
1058:Source\azure_iot_sdk\uamqp\src/amqp_management.c ****                 if (operation_message == NULL)
 3124              		.loc 1 1058 0
 3125 00cc 0ED1     		bne	.L175
 3126              	.LBB76:
1059:Source\azure_iot_sdk\uamqp\src/amqp_management.c ****                 {
1060:Source\azure_iot_sdk\uamqp\src/amqp_management.c ****                     LogError("Cannot obtain pending operation");
 3127              		.loc 1 1060 0 discriminator 3
 3128 00ce FFF7FEFF 		bl	xlogging_get_log_function
 3129              	.LVL531:
 3130 00d2 051E     		subs	r5, r0, #0
 3131              	.LVL532:
 3132 00d4 14D0     		beq	.L176
 3133              		.loc 1 1060 0 is_stmt 0 discriminator 4
 3134 00d6 2C4B     		ldr	r3, .L183+52
 3135 00d8 0193     		str	r3, [sp, #4]
 3136 00da 0123     		movs	r3, #1
 3137 00dc 0093     		str	r3, [sp]
 3138 00de 2B4B     		ldr	r3, .L183+56
 3139 00e0 1E4A     		ldr	r2, .L183+8
 3140 00e2 2C32     		adds	r2, r2, #44
 3141 00e4 1E49     		ldr	r1, .L183+12
 3142 00e6 0020     		movs	r0, #0
 3143              	.LVL533:
 3144 00e8 A847     		blx	r5
 3145              	.LVL534:
 3146 00ea 09E0     		b	.L176
 3147              	.LVL535:
 3148              	.L175:
 3149              	.LBE76:
1061:Source\azure_iot_sdk\uamqp\src/amqp_management.c ****                 }
1062:Source\azure_iot_sdk\uamqp\src/amqp_management.c ****                 else
1063:Source\azure_iot_sdk\uamqp\src/amqp_management.c ****                 {
1064:Source\azure_iot_sdk\uamqp\src/amqp_management.c ****                     /* Codes_SRS_AMQP_MANAGEMENT_01_054: [ All pending operations shall be indicate
1065:Source\azure_iot_sdk\uamqp\src/amqp_management.c ****                     operation_message->on_execute_operation_complete(operation_message->callback_co
 3150              		.loc 1 1065 0 is_stmt 1
 3151 00ec 0768     		ldr	r7, [r0]
 3152 00ee 4068     		ldr	r0, [r0, #4]
 3153              	.LVL536:
 3154 00f0 0023     		movs	r3, #0
 3155 00f2 0093     		str	r3, [sp]
 3156 00f4 0022     		movs	r2, #0
 3157 00f6 0321     		movs	r1, #3
 3158 00f8 B847     		blx	r7
 3159              	.LVL537:
1066:Source\azure_iot_sdk\uamqp\src/amqp_management.c ****                     free(operation_message);
 3160              		.loc 1 1066 0
 3161 00fa 2800     		movs	r0, r5
 3162 00fc FFF7FEFF 		bl	free
 3163              	.LVL538:
 3164              	.L176:
1067:Source\azure_iot_sdk\uamqp\src/amqp_management.c ****                 }
1068:Source\azure_iot_sdk\uamqp\src/amqp_management.c **** 
1069:Source\azure_iot_sdk\uamqp\src/amqp_management.c ****                 if (singlylinkedlist_remove(amqp_management->pending_operations, list_item_handle) 
 3165              		.loc 1 1069 0
 3166 0100 3100     		movs	r1, r6
ARM GAS  C:\Users\Phuong\AppData\Local\Temp\ccdTtd1y.s 			page 79


 3167 0102 2069     		ldr	r0, [r4, #16]
 3168 0104 FFF7FEFF 		bl	singlylinkedlist_remove
 3169              	.LVL539:
 3170 0108 0028     		cmp	r0, #0
 3171 010a 0DD0     		beq	.L177
 3172              	.LBB77:
1070:Source\azure_iot_sdk\uamqp\src/amqp_management.c ****                 {
1071:Source\azure_iot_sdk\uamqp\src/amqp_management.c ****                     LogError("Cannot remove item");
 3173              		.loc 1 1071 0 discriminator 3
 3174 010c FFF7FEFF 		bl	xlogging_get_log_function
 3175              	.LVL540:
 3176 0110 051E     		subs	r5, r0, #0
 3177              	.LVL541:
 3178 0112 09D0     		beq	.L177
 3179              		.loc 1 1071 0 is_stmt 0 discriminator 4
 3180 0114 1E4B     		ldr	r3, .L183+60
 3181 0116 0193     		str	r3, [sp, #4]
 3182 0118 0123     		movs	r3, #1
 3183 011a 0093     		str	r3, [sp]
 3184 011c 1D4B     		ldr	r3, .L183+64
 3185 011e 0F4A     		ldr	r2, .L183+8
 3186 0120 2C32     		adds	r2, r2, #44
 3187 0122 0F49     		ldr	r1, .L183+12
 3188 0124 0020     		movs	r0, #0
 3189              	.LVL542:
 3190 0126 A847     		blx	r5
 3191              	.LVL543:
 3192              	.L177:
 3193              	.LBE77:
1072:Source\azure_iot_sdk\uamqp\src/amqp_management.c ****                 }
1073:Source\azure_iot_sdk\uamqp\src/amqp_management.c **** 
1074:Source\azure_iot_sdk\uamqp\src/amqp_management.c ****                 list_item_handle = singlylinkedlist_get_head_item(amqp_management->pending_operatio
 3194              		.loc 1 1074 0 is_stmt 1
 3195 0128 2069     		ldr	r0, [r4, #16]
 3196 012a FFF7FEFF 		bl	singlylinkedlist_get_head_item
 3197              	.LVL544:
 3198 012e 0600     		movs	r6, r0
 3199              	.LVL545:
 3200              	.L174:
 3201              	.LBE75:
1055:Source\azure_iot_sdk\uamqp\src/amqp_management.c ****             {
 3202              		.loc 1 1055 0
 3203 0130 002E     		cmp	r6, #0
 3204 0132 C7D1     		bne	.L178
1075:Source\azure_iot_sdk\uamqp\src/amqp_management.c ****             }
1076:Source\azure_iot_sdk\uamqp\src/amqp_management.c **** 
1077:Source\azure_iot_sdk\uamqp\src/amqp_management.c ****             amqp_management->amqp_management_state = AMQP_MANAGEMENT_STATE_IDLE;
 3205              		.loc 1 1077 0
 3206 0134 0022     		movs	r2, #0
 3207 0136 3023     		movs	r3, #48
 3208 0138 E254     		strb	r2, [r4, r3]
 3209              	.LVL546:
1078:Source\azure_iot_sdk\uamqp\src/amqp_management.c **** 
1079:Source\azure_iot_sdk\uamqp\src/amqp_management.c ****             /* Codes_SRS_AMQP_MANAGEMENT_01_046: [ On success it shall return 0. ]*/
1080:Source\azure_iot_sdk\uamqp\src/amqp_management.c ****             result = 0;
 3210              		.loc 1 1080 0
 3211 013a 0020     		movs	r0, #0
ARM GAS  C:\Users\Phuong\AppData\Local\Temp\ccdTtd1y.s 			page 80


 3212              	.LVL547:
 3213 013c 07E0     		b	.L169
 3214              	.LVL548:
 3215              	.L179:
 3216              	.LBE74:
 3217              	.LBE71:
1016:Source\azure_iot_sdk\uamqp\src/amqp_management.c ****     }
 3218              		.loc 1 1016 0
 3219 013e FE20     		movs	r0, #254
 3220              	.LVL549:
 3221 0140 8000     		lsls	r0, r0, #2
 3222 0142 04E0     		b	.L169
 3223              	.LVL550:
 3224              	.L180:
1022:Source\azure_iot_sdk\uamqp\src/amqp_management.c ****     }
 3225              		.loc 1 1022 0
 3226 0144 0948     		ldr	r0, .L183+24
 3227              	.LVL551:
 3228 0146 02E0     		b	.L169
 3229              	.LVL552:
 3230              	.L181:
 3231              	.LBB78:
1043:Source\azure_iot_sdk\uamqp\src/amqp_management.c ****         }
 3232              		.loc 1 1043 0
 3233 0148 0B48     		ldr	r0, .L183+36
 3234              	.LVL553:
 3235 014a 00E0     		b	.L169
 3236              	.LVL554:
 3237              	.L182:
1050:Source\azure_iot_sdk\uamqp\src/amqp_management.c ****         }
 3238              		.loc 1 1050 0
 3239 014c 0D48     		ldr	r0, .L183+48
 3240              	.LVL555:
 3241              	.L169:
 3242              	.LBE78:
1081:Source\azure_iot_sdk\uamqp\src/amqp_management.c ****         }
1082:Source\azure_iot_sdk\uamqp\src/amqp_management.c ****     }
1083:Source\azure_iot_sdk\uamqp\src/amqp_management.c **** 
1084:Source\azure_iot_sdk\uamqp\src/amqp_management.c ****     return result;
1085:Source\azure_iot_sdk\uamqp\src/amqp_management.c **** }
 3243              		.loc 1 1085 0
 3244 014e 03B0     		add	sp, sp, #12
 3245              		@ sp needed
 3246 0150 F0BD     		pop	{r4, r5, r6, r7, pc}
 3247              	.L184:
 3248 0152 C046     		.align	2
 3249              	.L183:
 3250 0154 EC090000 		.word	.LC138
 3251 0158 F7030000 		.word	1015
 3252 015c 00010000 		.word	.LANCHOR2
 3253 0160 00000000 		.word	.LC1
 3254 0164 040A0000 		.word	.LC140
 3255 0168 FD030000 		.word	1021
 3256 016c FE030000 		.word	1022
 3257 0170 380A0000 		.word	.LC142
 3258 0174 12040000 		.word	1042
 3259 0178 13040000 		.word	1043
ARM GAS  C:\Users\Phuong\AppData\Local\Temp\ccdTtd1y.s 			page 81


 3260 017c 540A0000 		.word	.LC144
 3261 0180 19040000 		.word	1049
 3262 0184 1A040000 		.word	1050
 3263 0188 740A0000 		.word	.LC146
 3264 018c 24040000 		.word	1060
 3265 0190 940A0000 		.word	.LC148
 3266 0194 2F040000 		.word	1071
 3267              		.cfi_endproc
 3268              	.LFE12:
 3269              		.size	amqp_management_close, .-amqp_management_close
 3270              		.section	.text.amqp_management_destroy,"ax",%progbits
 3271              		.align	2
 3272              		.global	amqp_management_destroy
 3273              		.code	16
 3274              		.thumb_func
 3275              		.type	amqp_management_destroy, %function
 3276              	amqp_management_destroy:
 3277              	.LFB10:
 917:Source\azure_iot_sdk\uamqp\src/amqp_management.c ****     if (amqp_management == NULL)
 3278              		.loc 1 917 0
 3279              		.cfi_startproc
 3280              		@ args = 0, pretend = 0, frame = 0
 3281              		@ frame_needed = 0, uses_anonymous_args = 0
 3282              	.LVL556:
 3283 0000 10B5     		push	{r4, lr}
 3284              		.cfi_def_cfa_offset 8
 3285              		.cfi_offset 4, -8
 3286              		.cfi_offset 14, -4
 3287 0002 82B0     		sub	sp, sp, #8
 3288              		.cfi_def_cfa_offset 16
 3289 0004 041E     		subs	r4, r0, #0
 918:Source\azure_iot_sdk\uamqp\src/amqp_management.c ****     {
 3290              		.loc 1 918 0
 3291 0006 0ED1     		bne	.L186
 3292              	.LBB79:
 921:Source\azure_iot_sdk\uamqp\src/amqp_management.c ****     }
 3293              		.loc 1 921 0 discriminator 3
 3294 0008 FFF7FEFF 		bl	xlogging_get_log_function
 3295              	.LVL557:
 3296 000c 041E     		subs	r4, r0, #0
 3297              	.LVL558:
 3298 000e 28D0     		beq	.L185
 921:Source\azure_iot_sdk\uamqp\src/amqp_management.c ****     }
 3299              		.loc 1 921 0 is_stmt 0 discriminator 4
 3300 0010 154B     		ldr	r3, .L189
 3301 0012 0193     		str	r3, [sp, #4]
 3302 0014 0123     		movs	r3, #1
 3303 0016 0093     		str	r3, [sp]
 3304 0018 144B     		ldr	r3, .L189+4
 3305 001a 154A     		ldr	r2, .L189+8
 3306 001c 4432     		adds	r2, r2, #68
 3307 001e 1549     		ldr	r1, .L189+12
 3308 0020 0020     		movs	r0, #0
 3309              	.LVL559:
 3310 0022 A047     		blx	r4
 3311              	.LVL560:
 3312 0024 1DE0     		b	.L185
ARM GAS  C:\Users\Phuong\AppData\Local\Temp\ccdTtd1y.s 			page 82


 3313              	.LVL561:
 3314              	.L186:
 3315              	.LBE79:
 926:Source\azure_iot_sdk\uamqp\src/amqp_management.c ****         {
 3316              		.loc 1 926 0 is_stmt 1
 3317 0026 3023     		movs	r3, #48
 3318 0028 C35C     		ldrb	r3, [r0, r3]
 3319 002a 002B     		cmp	r3, #0
 3320 002c 01D0     		beq	.L188
 928:Source\azure_iot_sdk\uamqp\src/amqp_management.c ****         }
 3321              		.loc 1 928 0
 3322 002e FFF7FEFF 		bl	amqp_management_close
 3323              	.LVL562:
 3324              	.L188:
 932:Source\azure_iot_sdk\uamqp\src/amqp_management.c ****         /* Codes_SRS_AMQP_MANAGEMENT_01_029: [ `amqp_management_destroy` shall free the message rec
 3325              		.loc 1 932 0
 3326 0032 A068     		ldr	r0, [r4, #8]
 3327 0034 FFF7FEFF 		bl	messagesender_destroy
 3328              	.LVL563:
 934:Source\azure_iot_sdk\uamqp\src/amqp_management.c ****         /* Codes_SRS_AMQP_MANAGEMENT_01_027: [ `amqp_management_destroy` shall free the sender and 
 3329              		.loc 1 934 0
 3330 0038 E068     		ldr	r0, [r4, #12]
 3331 003a FFF7FEFF 		bl	messagereceiver_destroy
 3332              	.LVL564:
 936:Source\azure_iot_sdk\uamqp\src/amqp_management.c ****         link_destroy(amqp_management->receiver_link);
 3333              		.loc 1 936 0
 3334 003e 2068     		ldr	r0, [r4]
 3335 0040 FFF7FEFF 		bl	link_destroy
 3336              	.LVL565:
 937:Source\azure_iot_sdk\uamqp\src/amqp_management.c ****         free(amqp_management->status_code_key_name);
 3337              		.loc 1 937 0
 3338 0044 6068     		ldr	r0, [r4, #4]
 3339 0046 FFF7FEFF 		bl	link_destroy
 3340              	.LVL566:
 938:Source\azure_iot_sdk\uamqp\src/amqp_management.c ****         free(amqp_management->status_description_key_name);
 3341              		.loc 1 938 0
 3342 004a 606B     		ldr	r0, [r4, #52]
 3343 004c FFF7FEFF 		bl	free
 3344              	.LVL567:
 939:Source\azure_iot_sdk\uamqp\src/amqp_management.c ****         /* Codes_SRS_AMQP_MANAGEMENT_01_026: [ `amqp_management_destroy` shall free the singly link
 3345              		.loc 1 939 0
 3346 0050 A06B     		ldr	r0, [r4, #56]
 3347 0052 FFF7FEFF 		bl	free
 3348              	.LVL568:
 941:Source\azure_iot_sdk\uamqp\src/amqp_management.c ****         free(amqp_management);
 3349              		.loc 1 941 0
 3350 0056 2069     		ldr	r0, [r4, #16]
 3351 0058 FFF7FEFF 		bl	singlylinkedlist_destroy
 3352              	.LVL569:
 942:Source\azure_iot_sdk\uamqp\src/amqp_management.c ****     }
 3353              		.loc 1 942 0
 3354 005c 2000     		movs	r0, r4
 3355 005e FFF7FEFF 		bl	free
 3356              	.LVL570:
 3357              	.L185:
 944:Source\azure_iot_sdk\uamqp\src/amqp_management.c **** 
 3358              		.loc 1 944 0
ARM GAS  C:\Users\Phuong\AppData\Local\Temp\ccdTtd1y.s 			page 83


 3359 0062 02B0     		add	sp, sp, #8
 3360              		@ sp needed
 3361 0064 10BD     		pop	{r4, pc}
 3362              	.L190:
 3363 0066 C046     		.align	2
 3364              	.L189:
 3365 0068 EC090000 		.word	.LC138
 3366 006c 99030000 		.word	921
 3367 0070 00010000 		.word	.LANCHOR2
 3368 0074 00000000 		.word	.LC1
 3369              		.cfi_endproc
 3370              	.LFE10:
 3371              		.size	amqp_management_destroy, .-amqp_management_destroy
 3372              		.section	.text.amqp_management_execute_operation_async,"ax",%progbits
 3373              		.align	2
 3374              		.global	amqp_management_execute_operation_async
 3375              		.code	16
 3376              		.thumb_func
 3377              		.type	amqp_management_execute_operation_async, %function
 3378              	amqp_management_execute_operation_async:
 3379              	.LFB13:
1086:Source\azure_iot_sdk\uamqp\src/amqp_management.c **** 
1087:Source\azure_iot_sdk\uamqp\src/amqp_management.c **** int amqp_management_execute_operation_async(AMQP_MANAGEMENT_HANDLE amqp_management, const char* ope
1088:Source\azure_iot_sdk\uamqp\src/amqp_management.c **** {
 3380              		.loc 1 1088 0
 3381              		.cfi_startproc
 3382              		@ args = 12, pretend = 0, frame = 16
 3383              		@ frame_needed = 0, uses_anonymous_args = 0
 3384              	.LVL571:
 3385 0000 F0B5     		push	{r4, r5, r6, r7, lr}
 3386              		.cfi_def_cfa_offset 20
 3387              		.cfi_offset 4, -20
 3388              		.cfi_offset 5, -16
 3389              		.cfi_offset 6, -12
 3390              		.cfi_offset 7, -8
 3391              		.cfi_offset 14, -4
 3392 0002 4F46     		mov	r7, r9
 3393 0004 80B4     		push	{r7}
 3394              		.cfi_def_cfa_offset 24
 3395              		.cfi_offset 9, -24
 3396 0006 8AB0     		sub	sp, sp, #40
 3397              		.cfi_def_cfa_offset 64
 3398 0008 0400     		movs	r4, r0
 3399 000a 0D00     		movs	r5, r1
 3400 000c 1600     		movs	r6, r2
 3401 000e 0793     		str	r3, [sp, #28]
1089:Source\azure_iot_sdk\uamqp\src/amqp_management.c ****     int result;
1090:Source\azure_iot_sdk\uamqp\src/amqp_management.c **** 
1091:Source\azure_iot_sdk\uamqp\src/amqp_management.c ****     if ((amqp_management == NULL) ||
 3402              		.loc 1 1091 0
 3403 0010 0028     		cmp	r0, #0
 3404 0012 06D0     		beq	.L192
 3405              		.loc 1 1091 0 is_stmt 0 discriminator 1
 3406 0014 0029     		cmp	r1, #0
 3407 0016 04D0     		beq	.L192
1092:Source\azure_iot_sdk\uamqp\src/amqp_management.c ****         (operation == NULL) ||
 3408              		.loc 1 1092 0 is_stmt 1
ARM GAS  C:\Users\Phuong\AppData\Local\Temp\ccdTtd1y.s 			page 84


 3409 0018 002A     		cmp	r2, #0
 3410 001a 02D0     		beq	.L192
1093:Source\azure_iot_sdk\uamqp\src/amqp_management.c ****         (type == NULL) ||
 3411              		.loc 1 1093 0
 3412 001c 119B     		ldr	r3, [sp, #68]
 3413              	.LVL572:
 3414 001e 002B     		cmp	r3, #0
 3415 0020 13D1     		bne	.L193
 3416              	.L192:
 3417              	.LBB80:
1094:Source\azure_iot_sdk\uamqp\src/amqp_management.c ****         (on_execute_operation_complete == NULL))
1095:Source\azure_iot_sdk\uamqp\src/amqp_management.c ****     {
1096:Source\azure_iot_sdk\uamqp\src/amqp_management.c ****         /* Codes_SRS_AMQP_MANAGEMENT_01_057: [ If `amqp_management`, `operation`, `type` or `on_exe
1097:Source\azure_iot_sdk\uamqp\src/amqp_management.c ****         LogError("Bad arguments: amqp_management = %p, operation = %p, type = %p",
 3418              		.loc 1 1097 0 discriminator 3
 3419 0022 FFF7FEFF 		bl	xlogging_get_log_function
 3420              	.LVL573:
 3421 0026 071E     		subs	r7, r0, #0
 3422              	.LVL574:
 3423 0028 00D1     		bne	.LCB3759
 3424 002a 18E1     		b	.L210	@long jump
 3425              	.LCB3759:
 3426              		.loc 1 1097 0 is_stmt 0 discriminator 4
 3427 002c 0496     		str	r6, [sp, #16]
 3428 002e 0395     		str	r5, [sp, #12]
 3429 0030 0294     		str	r4, [sp, #8]
 3430 0032 8F4B     		ldr	r3, .L221
 3431 0034 0193     		str	r3, [sp, #4]
 3432 0036 0123     		movs	r3, #1
 3433 0038 0093     		str	r3, [sp]
 3434 003a 8E4B     		ldr	r3, .L221+4
 3435 003c 8E4A     		ldr	r2, .L221+8
 3436 003e 5C32     		adds	r2, r2, #92
 3437 0040 8E49     		ldr	r1, .L221+12
 3438 0042 0020     		movs	r0, #0
 3439              	.LVL575:
 3440 0044 B847     		blx	r7
 3441              	.LVL576:
 3442              	.LBE80:
1098:Source\azure_iot_sdk\uamqp\src/amqp_management.c ****             amqp_management, operation, type);
1099:Source\azure_iot_sdk\uamqp\src/amqp_management.c ****         result = __FAILURE__;
 3443              		.loc 1 1099 0 is_stmt 1 discriminator 4
 3444 0046 8E4C     		ldr	r4, .L221+16
 3445              	.LVL577:
 3446 0048 0CE1     		b	.L194
 3447              	.LVL578:
 3448              	.L193:
1100:Source\azure_iot_sdk\uamqp\src/amqp_management.c ****     }
1101:Source\azure_iot_sdk\uamqp\src/amqp_management.c ****     /* Codes_SRS_AMQP_MANAGEMENT_01_081: [ If `amqp_management_execute_operation_async` is called w
1102:Source\azure_iot_sdk\uamqp\src/amqp_management.c ****     else if ((amqp_management->amqp_management_state == AMQP_MANAGEMENT_STATE_IDLE) ||
 3449              		.loc 1 1102 0
 3450 004a 3023     		movs	r3, #48
 3451 004c C35C     		ldrb	r3, [r0, r3]
 3452 004e 002B     		cmp	r3, #0
 3453 0050 01D0     		beq	.L195
 3454              		.loc 1 1102 0 is_stmt 0 discriminator 1
 3455 0052 042B     		cmp	r3, #4
ARM GAS  C:\Users\Phuong\AppData\Local\Temp\ccdTtd1y.s 			page 85


 3456 0054 10D1     		bne	.L196
 3457              	.L195:
 3458              	.LBB81:
1103:Source\azure_iot_sdk\uamqp\src/amqp_management.c ****         /* Codes_SRS_AMQP_MANAGEMENT_01_104: [ If `amqp_management_execute_operation_async` is call
1104:Source\azure_iot_sdk\uamqp\src/amqp_management.c ****         (amqp_management->amqp_management_state == AMQP_MANAGEMENT_STATE_ERROR))
1105:Source\azure_iot_sdk\uamqp\src/amqp_management.c ****     {
1106:Source\azure_iot_sdk\uamqp\src/amqp_management.c ****         LogError("amqp_management_execute_operation_async called while not open or in error");
 3459              		.loc 1 1106 0 is_stmt 1 discriminator 3
 3460 0056 FFF7FEFF 		bl	xlogging_get_log_function
 3461              	.LVL579:
 3462 005a 041E     		subs	r4, r0, #0
 3463              	.LVL580:
 3464 005c 00D1     		bne	.LCB3806
 3465 005e 00E1     		b	.L211	@long jump
 3466              	.LCB3806:
 3467              		.loc 1 1106 0 is_stmt 0 discriminator 4
 3468 0060 884B     		ldr	r3, .L221+20
 3469 0062 0193     		str	r3, [sp, #4]
 3470 0064 0123     		movs	r3, #1
 3471 0066 0093     		str	r3, [sp]
 3472 0068 874B     		ldr	r3, .L221+24
 3473 006a 834A     		ldr	r2, .L221+8
 3474 006c 5C32     		adds	r2, r2, #92
 3475 006e 8349     		ldr	r1, .L221+12
 3476 0070 0020     		movs	r0, #0
 3477              	.LVL581:
 3478 0072 A047     		blx	r4
 3479              	.LVL582:
 3480              	.LBE81:
1107:Source\azure_iot_sdk\uamqp\src/amqp_management.c ****         result = __FAILURE__;
 3481              		.loc 1 1107 0 is_stmt 1 discriminator 4
 3482 0074 854C     		ldr	r4, .L221+28
 3483              	.LVL583:
 3484 0076 F5E0     		b	.L194
 3485              	.LVL584:
 3486              	.L196:
 3487              	.LBB82:
1108:Source\azure_iot_sdk\uamqp\src/amqp_management.c ****     }
1109:Source\azure_iot_sdk\uamqp\src/amqp_management.c ****     else
1110:Source\azure_iot_sdk\uamqp\src/amqp_management.c ****     {
1111:Source\azure_iot_sdk\uamqp\src/amqp_management.c ****         AMQP_VALUE application_properties;
1112:Source\azure_iot_sdk\uamqp\src/amqp_management.c ****         MESSAGE_HANDLE cloned_message;
1113:Source\azure_iot_sdk\uamqp\src/amqp_management.c **** 
1114:Source\azure_iot_sdk\uamqp\src/amqp_management.c ****         if (message == NULL)
 3488              		.loc 1 1114 0
 3489 0078 109B     		ldr	r3, [sp, #64]
 3490 007a 002B     		cmp	r3, #0
 3491 007c 03D1     		bne	.L197
1115:Source\azure_iot_sdk\uamqp\src/amqp_management.c ****         {
1116:Source\azure_iot_sdk\uamqp\src/amqp_management.c ****             /* Codes_SRS_AMQP_MANAGEMENT_01_102: [ If `message` is NULL, a new message shall be cre
1117:Source\azure_iot_sdk\uamqp\src/amqp_management.c ****             cloned_message = message_create();
 3492              		.loc 1 1117 0
 3493 007e FFF7FEFF 		bl	message_create
 3494              	.LVL585:
 3495 0082 0700     		movs	r7, r0
 3496              	.LVL586:
 3497 0084 13E0     		b	.L198
ARM GAS  C:\Users\Phuong\AppData\Local\Temp\ccdTtd1y.s 			page 86


 3498              	.LVL587:
 3499              	.L197:
1118:Source\azure_iot_sdk\uamqp\src/amqp_management.c ****         }
1119:Source\azure_iot_sdk\uamqp\src/amqp_management.c ****         else
1120:Source\azure_iot_sdk\uamqp\src/amqp_management.c ****         {
1121:Source\azure_iot_sdk\uamqp\src/amqp_management.c ****             /* Codes_SRS_AMQP_MANAGEMENT_01_103: [ Otherwise the existing message shall be cloned b
1122:Source\azure_iot_sdk\uamqp\src/amqp_management.c ****             cloned_message = message_clone(message);
 3500              		.loc 1 1122 0
 3501 0086 1098     		ldr	r0, [sp, #64]
 3502              	.LVL588:
 3503 0088 FFF7FEFF 		bl	message_clone
 3504              	.LVL589:
 3505 008c 071E     		subs	r7, r0, #0
 3506              	.LVL590:
1123:Source\azure_iot_sdk\uamqp\src/amqp_management.c ****             if (cloned_message == NULL)
 3507              		.loc 1 1123 0
 3508 008e 0ED1     		bne	.L198
 3509              	.LBB83:
1124:Source\azure_iot_sdk\uamqp\src/amqp_management.c ****             {
1125:Source\azure_iot_sdk\uamqp\src/amqp_management.c ****                 LogError("Could not clone message");
 3510              		.loc 1 1125 0 discriminator 3
 3511 0090 FFF7FEFF 		bl	xlogging_get_log_function
 3512              	.LVL591:
 3513 0094 8146     		mov	r9, r0
 3514              	.LVL592:
 3515 0096 0028     		cmp	r0, #0
 3516 0098 09D0     		beq	.L198
 3517              		.loc 1 1125 0 is_stmt 0 discriminator 4
 3518 009a 7D4B     		ldr	r3, .L221+32
 3519 009c 0193     		str	r3, [sp, #4]
 3520 009e 0123     		movs	r3, #1
 3521 00a0 0093     		str	r3, [sp]
 3522 00a2 7C4B     		ldr	r3, .L221+36
 3523 00a4 744A     		ldr	r2, .L221+8
 3524 00a6 5C32     		adds	r2, r2, #92
 3525 00a8 7449     		ldr	r1, .L221+12
 3526 00aa 0020     		movs	r0, #0
 3527              	.LVL593:
 3528 00ac C847     		blx	r9
 3529              	.LVL594:
 3530              	.L198:
 3531              	.LBE83:
1126:Source\azure_iot_sdk\uamqp\src/amqp_management.c ****             }
1127:Source\azure_iot_sdk\uamqp\src/amqp_management.c ****         }
1128:Source\azure_iot_sdk\uamqp\src/amqp_management.c **** 
1129:Source\azure_iot_sdk\uamqp\src/amqp_management.c ****         if (cloned_message == NULL)
 3532              		.loc 1 1129 0 is_stmt 1
 3533 00ae 002F     		cmp	r7, #0
 3534 00b0 00D1     		bne	.LCB3892
 3535 00b2 D2E0     		b	.L212	@long jump
 3536              	.LCB3892:
1130:Source\azure_iot_sdk\uamqp\src/amqp_management.c ****         {
1131:Source\azure_iot_sdk\uamqp\src/amqp_management.c ****             result = __FAILURE__;
1132:Source\azure_iot_sdk\uamqp\src/amqp_management.c ****         }
1133:Source\azure_iot_sdk\uamqp\src/amqp_management.c ****         else
1134:Source\azure_iot_sdk\uamqp\src/amqp_management.c ****         {
1135:Source\azure_iot_sdk\uamqp\src/amqp_management.c ****             /* Codes_SRS_AMQP_MANAGEMENT_01_055: [ `amqp_management_execute_operation_async` shall 
ARM GAS  C:\Users\Phuong\AppData\Local\Temp\ccdTtd1y.s 			page 87


1136:Source\azure_iot_sdk\uamqp\src/amqp_management.c ****             /* Codes_SRS_AMQP_MANAGEMENT_01_082: [ `amqp_management_execute_operation_async` shall 
1137:Source\azure_iot_sdk\uamqp\src/amqp_management.c ****             if (message_get_application_properties(cloned_message, &application_properties) != 0)
 3537              		.loc 1 1137 0
 3538 00b4 09A9     		add	r1, sp, #36
 3539 00b6 3800     		movs	r0, r7
 3540 00b8 FFF7FEFF 		bl	message_get_application_properties
 3541              	.LVL595:
 3542 00bc 0028     		cmp	r0, #0
 3543 00be 10D0     		beq	.L200
 3544              	.LBB84:
1138:Source\azure_iot_sdk\uamqp\src/amqp_management.c ****             {
1139:Source\azure_iot_sdk\uamqp\src/amqp_management.c ****                 LogError("Could not get application properties");
 3545              		.loc 1 1139 0 discriminator 3
 3546 00c0 FFF7FEFF 		bl	xlogging_get_log_function
 3547              	.LVL596:
 3548 00c4 041E     		subs	r4, r0, #0
 3549              	.LVL597:
 3550 00c6 00D1     		bne	.LCB3907
 3551 00c8 C0E0     		b	.L213	@long jump
 3552              	.LCB3907:
 3553              		.loc 1 1139 0 is_stmt 0 discriminator 4
 3554 00ca 734B     		ldr	r3, .L221+40
 3555 00cc 0193     		str	r3, [sp, #4]
 3556 00ce 0123     		movs	r3, #1
 3557 00d0 0093     		str	r3, [sp]
 3558 00d2 724B     		ldr	r3, .L221+44
 3559 00d4 684A     		ldr	r2, .L221+8
 3560 00d6 5C32     		adds	r2, r2, #92
 3561 00d8 6849     		ldr	r1, .L221+12
 3562 00da 0020     		movs	r0, #0
 3563              	.LVL598:
 3564 00dc A047     		blx	r4
 3565              	.LVL599:
 3566              	.LBE84:
1140:Source\azure_iot_sdk\uamqp\src/amqp_management.c ****                 result = __FAILURE__;
 3567              		.loc 1 1140 0 is_stmt 1 discriminator 4
 3568 00de 704C     		ldr	r4, .L221+48
 3569              	.LVL600:
 3570 00e0 B7E0     		b	.L201
 3571              	.LVL601:
 3572              	.L200:
1141:Source\azure_iot_sdk\uamqp\src/amqp_management.c ****             }
1142:Source\azure_iot_sdk\uamqp\src/amqp_management.c ****             else
1143:Source\azure_iot_sdk\uamqp\src/amqp_management.c ****             {
1144:Source\azure_iot_sdk\uamqp\src/amqp_management.c ****                 if (application_properties == NULL)
 3573              		.loc 1 1144 0
 3574 00e2 099B     		ldr	r3, [sp, #36]
 3575 00e4 002B     		cmp	r3, #0
 3576 00e6 13D1     		bne	.L202
1145:Source\azure_iot_sdk\uamqp\src/amqp_management.c ****                 {
1146:Source\azure_iot_sdk\uamqp\src/amqp_management.c ****                     /* Codes_SRS_AMQP_MANAGEMENT_01_083: [ If no application properties were set on
1147:Source\azure_iot_sdk\uamqp\src/amqp_management.c ****                     application_properties = amqpvalue_create_map();
 3577              		.loc 1 1147 0
 3578 00e8 FFF7FEFF 		bl	amqpvalue_create_map
 3579              	.LVL602:
 3580 00ec 0990     		str	r0, [sp, #36]
1148:Source\azure_iot_sdk\uamqp\src/amqp_management.c ****                     if (application_properties == NULL)
ARM GAS  C:\Users\Phuong\AppData\Local\Temp\ccdTtd1y.s 			page 88


 3581              		.loc 1 1148 0
 3582 00ee 0028     		cmp	r0, #0
 3583 00f0 0ED1     		bne	.L202
 3584              	.LBB85:
1149:Source\azure_iot_sdk\uamqp\src/amqp_management.c ****                     {
1150:Source\azure_iot_sdk\uamqp\src/amqp_management.c ****                         LogError("Could not create application properties");
 3585              		.loc 1 1150 0 discriminator 3
 3586 00f2 FFF7FEFF 		bl	xlogging_get_log_function
 3587              	.LVL603:
 3588 00f6 8146     		mov	r9, r0
 3589              	.LVL604:
 3590 00f8 0028     		cmp	r0, #0
 3591 00fa 09D0     		beq	.L202
 3592              		.loc 1 1150 0 is_stmt 0 discriminator 4
 3593 00fc 694B     		ldr	r3, .L221+52
 3594 00fe 0193     		str	r3, [sp, #4]
 3595 0100 0123     		movs	r3, #1
 3596 0102 0093     		str	r3, [sp]
 3597 0104 684B     		ldr	r3, .L221+56
 3598 0106 5C4A     		ldr	r2, .L221+8
 3599 0108 5C32     		adds	r2, r2, #92
 3600 010a 5C49     		ldr	r1, .L221+12
 3601 010c 0020     		movs	r0, #0
 3602              	.LVL605:
 3603 010e C847     		blx	r9
 3604              	.LVL606:
 3605              	.L202:
 3606              	.LBE85:
1151:Source\azure_iot_sdk\uamqp\src/amqp_management.c ****                     }
1152:Source\azure_iot_sdk\uamqp\src/amqp_management.c ****                 }
1153:Source\azure_iot_sdk\uamqp\src/amqp_management.c **** 
1154:Source\azure_iot_sdk\uamqp\src/amqp_management.c ****                 if (application_properties == NULL)
 3607              		.loc 1 1154 0 is_stmt 1
 3608 0110 0998     		ldr	r0, [sp, #36]
 3609 0112 0028     		cmp	r0, #0
 3610 0114 00D1     		bne	.LCB3963
 3611 0116 9BE0     		b	.L214	@long jump
 3612              	.LCB3963:
1155:Source\azure_iot_sdk\uamqp\src/amqp_management.c ****                 {
1156:Source\azure_iot_sdk\uamqp\src/amqp_management.c ****                     result = __FAILURE__;
1157:Source\azure_iot_sdk\uamqp\src/amqp_management.c ****                 }
1158:Source\azure_iot_sdk\uamqp\src/amqp_management.c ****                 else
1159:Source\azure_iot_sdk\uamqp\src/amqp_management.c ****                 {
1160:Source\azure_iot_sdk\uamqp\src/amqp_management.c ****                     /* Codes_SRS_AMQP_MANAGEMENT_01_084: [ For each of the arguments `operation`, `
1161:Source\azure_iot_sdk\uamqp\src/amqp_management.c ****                     /* Codes_SRS_AMQP_MANAGEMENT_01_085: [ For each of the arguments `operation`, `
1162:Source\azure_iot_sdk\uamqp\src/amqp_management.c ****                     /* Codes_SRS_AMQP_MANAGEMENT_01_058: [ Request messages have the following appl
1163:Source\azure_iot_sdk\uamqp\src/amqp_management.c ****                     /* Codes_SRS_AMQP_MANAGEMENT_01_059: [ operation string Yes The management oper
1164:Source\azure_iot_sdk\uamqp\src/amqp_management.c ****                     if ((add_string_key_value_pair_to_map(application_properties, "operation", oper
 3613              		.loc 1 1164 0
 3614 0118 2A00     		movs	r2, r5
 3615 011a 6449     		ldr	r1, .L221+60
 3616 011c FFF7FEFF 		bl	add_string_key_value_pair_to_map
 3617              	.LVL607:
 3618 0120 0028     		cmp	r0, #0
 3619 0122 00D0     		beq	.LCB3969
 3620 0124 82E0     		b	.L215	@long jump
 3621              	.LCB3969:
ARM GAS  C:\Users\Phuong\AppData\Local\Temp\ccdTtd1y.s 			page 89


1165:Source\azure_iot_sdk\uamqp\src/amqp_management.c ****                         /* Codes_SRS_AMQP_MANAGEMENT_01_061: [ type string Yes The Manageable Entit
1166:Source\azure_iot_sdk\uamqp\src/amqp_management.c ****                         (add_string_key_value_pair_to_map(application_properties, "type", type) != 
 3622              		.loc 1 1166 0 discriminator 1
 3623 0126 3200     		movs	r2, r6
 3624 0128 6149     		ldr	r1, .L221+64
 3625 012a 0998     		ldr	r0, [sp, #36]
 3626 012c FFF7FEFF 		bl	add_string_key_value_pair_to_map
 3627              	.LVL608:
1164:Source\azure_iot_sdk\uamqp\src/amqp_management.c ****                         /* Codes_SRS_AMQP_MANAGEMENT_01_061: [ type string Yes The Manageable Entit
 3628              		.loc 1 1164 0 discriminator 1
 3629 0130 0028     		cmp	r0, #0
 3630 0132 00D0     		beq	.LCB3976
 3631 0134 7CE0     		b	.L216	@long jump
 3632              	.LCB3976:
 3633              		.loc 1 1166 0
 3634 0136 079B     		ldr	r3, [sp, #28]
 3635 0138 002B     		cmp	r3, #0
 3636 013a 06D0     		beq	.L204
1167:Source\azure_iot_sdk\uamqp\src/amqp_management.c ****                         /* Codes_SRS_AMQP_MANAGEMENT_01_093: [ If `locales` is NULL, no key/value p
1168:Source\azure_iot_sdk\uamqp\src/amqp_management.c ****                         /* Codes_SRS_AMQP_MANAGEMENT_01_063: [ locales string No A list of locales 
1169:Source\azure_iot_sdk\uamqp\src/amqp_management.c ****                         ((locales != NULL) && (add_string_key_value_pair_to_map(application_propert
 3637              		.loc 1 1169 0
 3638 013c 1A00     		movs	r2, r3
 3639 013e 5D49     		ldr	r1, .L221+68
 3640 0140 0998     		ldr	r0, [sp, #36]
 3641 0142 FFF7FEFF 		bl	add_string_key_value_pair_to_map
 3642              	.LVL609:
 3643 0146 0028     		cmp	r0, #0
 3644 0148 74D1     		bne	.L217
 3645              	.L204:
1170:Source\azure_iot_sdk\uamqp\src/amqp_management.c ****                     {
1171:Source\azure_iot_sdk\uamqp\src/amqp_management.c ****                         result = __FAILURE__;
1172:Source\azure_iot_sdk\uamqp\src/amqp_management.c ****                     }
1173:Source\azure_iot_sdk\uamqp\src/amqp_management.c ****                     else
1174:Source\azure_iot_sdk\uamqp\src/amqp_management.c ****                     {
1175:Source\azure_iot_sdk\uamqp\src/amqp_management.c ****                         /* Codes_SRS_AMQP_MANAGEMENT_01_087: [ The application properties obtained 
1176:Source\azure_iot_sdk\uamqp\src/amqp_management.c ****                         if (message_set_application_properties(cloned_message, application_properti
 3646              		.loc 1 1176 0
 3647 014a 0999     		ldr	r1, [sp, #36]
 3648 014c 3800     		movs	r0, r7
 3649 014e FFF7FEFF 		bl	message_set_application_properties
 3650              	.LVL610:
 3651 0152 0028     		cmp	r0, #0
 3652 0154 0FD0     		beq	.L205
 3653              	.LBB86:
1177:Source\azure_iot_sdk\uamqp\src/amqp_management.c ****                         {
1178:Source\azure_iot_sdk\uamqp\src/amqp_management.c ****                             /* Codes_SRS_AMQP_MANAGEMENT_01_090: [ If any APIs used to create and s
1179:Source\azure_iot_sdk\uamqp\src/amqp_management.c ****                             LogError("Could not set application properties");
 3654              		.loc 1 1179 0 discriminator 3
 3655 0156 FFF7FEFF 		bl	xlogging_get_log_function
 3656              	.LVL611:
 3657 015a 041E     		subs	r4, r0, #0
 3658              	.LVL612:
 3659 015c 6CD0     		beq	.L218
 3660              		.loc 1 1179 0 is_stmt 0 discriminator 4
 3661 015e 564B     		ldr	r3, .L221+72
 3662 0160 0193     		str	r3, [sp, #4]
ARM GAS  C:\Users\Phuong\AppData\Local\Temp\ccdTtd1y.s 			page 90


 3663 0162 0123     		movs	r3, #1
 3664 0164 0093     		str	r3, [sp]
 3665 0166 554B     		ldr	r3, .L221+76
 3666 0168 434A     		ldr	r2, .L221+8
 3667 016a 5C32     		adds	r2, r2, #92
 3668 016c 4349     		ldr	r1, .L221+12
 3669 016e 0020     		movs	r0, #0
 3670              	.LVL613:
 3671 0170 A047     		blx	r4
 3672              	.LVL614:
 3673              	.LBE86:
1180:Source\azure_iot_sdk\uamqp\src/amqp_management.c ****                             result = __FAILURE__;
 3674              		.loc 1 1180 0 is_stmt 1 discriminator 4
 3675 0172 534C     		ldr	r4, .L221+80
 3676              	.LVL615:
 3677 0174 66E0     		b	.L203
 3678              	.LVL616:
 3679              	.L205:
1181:Source\azure_iot_sdk\uamqp\src/amqp_management.c ****                         }
1182:Source\azure_iot_sdk\uamqp\src/amqp_management.c ****                         else if (set_message_id(cloned_message, amqp_management->next_message_id) !
 3680              		.loc 1 1182 0
 3681 0176 A269     		ldr	r2, [r4, #24]
 3682 0178 E369     		ldr	r3, [r4, #28]
 3683 017a 3800     		movs	r0, r7
 3684 017c FFF7FEFF 		bl	set_message_id
 3685              	.LVL617:
 3686 0180 0028     		cmp	r0, #0
 3687 0182 5BD1     		bne	.L219
 3688              	.LBB87:
1183:Source\azure_iot_sdk\uamqp\src/amqp_management.c ****                         {
1184:Source\azure_iot_sdk\uamqp\src/amqp_management.c ****                             result = __FAILURE__;
1185:Source\azure_iot_sdk\uamqp\src/amqp_management.c ****                         }
1186:Source\azure_iot_sdk\uamqp\src/amqp_management.c ****                         else
1187:Source\azure_iot_sdk\uamqp\src/amqp_management.c ****                         {
1188:Source\azure_iot_sdk\uamqp\src/amqp_management.c ****                             OPERATION_MESSAGE_INSTANCE* pending_operation_message = (OPERATION_MESS
 3689              		.loc 1 1188 0
 3690 0184 1830     		adds	r0, r0, #24
 3691 0186 FFF7FEFF 		bl	malloc
 3692              	.LVL618:
 3693 018a 051E     		subs	r5, r0, #0
 3694              	.LVL619:
1189:Source\azure_iot_sdk\uamqp\src/amqp_management.c ****                             if (pending_operation_message == NULL)
 3695              		.loc 1 1189 0
 3696 018c 59D0     		beq	.L220
 3697              	.LBB88:
1190:Source\azure_iot_sdk\uamqp\src/amqp_management.c ****                             {
1191:Source\azure_iot_sdk\uamqp\src/amqp_management.c ****                                 result = __FAILURE__;
1192:Source\azure_iot_sdk\uamqp\src/amqp_management.c ****                             }
1193:Source\azure_iot_sdk\uamqp\src/amqp_management.c ****                             else
1194:Source\azure_iot_sdk\uamqp\src/amqp_management.c ****                             {
1195:Source\azure_iot_sdk\uamqp\src/amqp_management.c ****                                 LIST_ITEM_HANDLE added_item;
1196:Source\azure_iot_sdk\uamqp\src/amqp_management.c ****                                 pending_operation_message->callback_context = on_execute_operation_
 3698              		.loc 1 1196 0
 3699 018e 129B     		ldr	r3, [sp, #72]
 3700 0190 4360     		str	r3, [r0, #4]
1197:Source\azure_iot_sdk\uamqp\src/amqp_management.c ****                                 pending_operation_message->on_execute_operation_complete = on_execu
 3701              		.loc 1 1197 0
ARM GAS  C:\Users\Phuong\AppData\Local\Temp\ccdTtd1y.s 			page 91


 3702 0192 119B     		ldr	r3, [sp, #68]
 3703 0194 0360     		str	r3, [r0]
1198:Source\azure_iot_sdk\uamqp\src/amqp_management.c ****                                 pending_operation_message->message_id = amqp_management->next_messa
 3704              		.loc 1 1198 0
 3705 0196 A269     		ldr	r2, [r4, #24]
 3706 0198 E369     		ldr	r3, [r4, #28]
 3707 019a 8260     		str	r2, [r0, #8]
 3708 019c C360     		str	r3, [r0, #12]
1199:Source\azure_iot_sdk\uamqp\src/amqp_management.c ****                                 pending_operation_message->amqp_management = amqp_management;
 3709              		.loc 1 1199 0
 3710 019e 0461     		str	r4, [r0, #16]
1200:Source\azure_iot_sdk\uamqp\src/amqp_management.c **** 
1201:Source\azure_iot_sdk\uamqp\src/amqp_management.c ****                                 /* Codes_SRS_AMQP_MANAGEMENT_01_091: [ Once the request message has
1202:Source\azure_iot_sdk\uamqp\src/amqp_management.c ****                                 added_item = singlylinkedlist_add(amqp_management->pending_operatio
 3711              		.loc 1 1202 0
 3712 01a0 0100     		movs	r1, r0
 3713 01a2 2069     		ldr	r0, [r4, #16]
 3714              	.LVL620:
 3715 01a4 FFF7FEFF 		bl	singlylinkedlist_add
 3716              	.LVL621:
 3717 01a8 0790     		str	r0, [sp, #28]
 3718              	.LVL622:
1203:Source\azure_iot_sdk\uamqp\src/amqp_management.c ****                                 if (added_item == NULL)
 3719              		.loc 1 1203 0
 3720 01aa 0028     		cmp	r0, #0
 3721 01ac 13D1     		bne	.L206
 3722              	.LBB89:
1204:Source\azure_iot_sdk\uamqp\src/amqp_management.c ****                                 {
1205:Source\azure_iot_sdk\uamqp\src/amqp_management.c ****                                     /* Codes_SRS_AMQP_MANAGEMENT_01_092: [ If `singlylinkedlist_add
1206:Source\azure_iot_sdk\uamqp\src/amqp_management.c ****                                     LogError("Could not add the operation to the pending operations
 3723              		.loc 1 1206 0 discriminator 3
 3724 01ae FFF7FEFF 		bl	xlogging_get_log_function
 3725              	.LVL623:
 3726 01b2 041E     		subs	r4, r0, #0
 3727              	.LVL624:
 3728 01b4 09D0     		beq	.L207
 3729              		.loc 1 1206 0 is_stmt 0 discriminator 4
 3730 01b6 434B     		ldr	r3, .L221+84
 3731 01b8 0193     		str	r3, [sp, #4]
 3732 01ba 0123     		movs	r3, #1
 3733 01bc 0093     		str	r3, [sp]
 3734 01be 424B     		ldr	r3, .L221+88
 3735 01c0 2D4A     		ldr	r2, .L221+8
 3736 01c2 5C32     		adds	r2, r2, #92
 3737 01c4 2D49     		ldr	r1, .L221+12
 3738 01c6 0020     		movs	r0, #0
 3739              	.LVL625:
 3740 01c8 A047     		blx	r4
 3741              	.LVL626:
 3742              	.L207:
 3743              	.LBE89:
1207:Source\azure_iot_sdk\uamqp\src/amqp_management.c ****                                     free(pending_operation_message);
 3744              		.loc 1 1207 0 is_stmt 1
 3745 01ca 2800     		movs	r0, r5
 3746 01cc FFF7FEFF 		bl	free
 3747              	.LVL627:
1208:Source\azure_iot_sdk\uamqp\src/amqp_management.c ****                                     result = __FAILURE__;
ARM GAS  C:\Users\Phuong\AppData\Local\Temp\ccdTtd1y.s 			page 92


 3748              		.loc 1 1208 0
 3749 01d0 9724     		movs	r4, #151
 3750              	.LVL628:
 3751 01d2 E400     		lsls	r4, r4, #3
 3752 01d4 36E0     		b	.L203
 3753              	.LVL629:
 3754              	.L206:
1209:Source\azure_iot_sdk\uamqp\src/amqp_management.c ****                                 }
1210:Source\azure_iot_sdk\uamqp\src/amqp_management.c ****                                 else
1211:Source\azure_iot_sdk\uamqp\src/amqp_management.c ****                                 {
1212:Source\azure_iot_sdk\uamqp\src/amqp_management.c ****                                     /* Codes_SRS_AMQP_MANAGEMENT_01_088: [ `amqp_management_execute
1213:Source\azure_iot_sdk\uamqp\src/amqp_management.c ****                                     /* Codes_SRS_AMQP_MANAGEMENT_01_166: [ The `on_message_send_com
1214:Source\azure_iot_sdk\uamqp\src/amqp_management.c ****                                     if (messagesender_send_async(amqp_management->message_sender, c
 3755              		.loc 1 1214 0
 3756 01d6 0023     		movs	r3, #0
 3757 01d8 0093     		str	r3, [sp]
 3758 01da 079B     		ldr	r3, [sp, #28]
 3759 01dc 3B4A     		ldr	r2, .L221+92
 3760 01de 3900     		movs	r1, r7
 3761 01e0 A068     		ldr	r0, [r4, #8]
 3762              	.LVL630:
 3763 01e2 FFF7FEFF 		bl	messagesender_send_async
 3764              	.LVL631:
 3765 01e6 0028     		cmp	r0, #0
 3766 01e8 16D1     		bne	.L208
 3767              	.LBB90:
1215:Source\azure_iot_sdk\uamqp\src/amqp_management.c ****                                     {
1216:Source\azure_iot_sdk\uamqp\src/amqp_management.c ****                                         /* Codes_SRS_AMQP_MANAGEMENT_01_089: [ If `messagesender_se
1217:Source\azure_iot_sdk\uamqp\src/amqp_management.c ****                                         LogError("Could not send request message");
 3768              		.loc 1 1217 0 discriminator 3
 3769 01ea FFF7FEFF 		bl	xlogging_get_log_function
 3770              	.LVL632:
 3771 01ee 061E     		subs	r6, r0, #0
 3772              	.LVL633:
 3773 01f0 09D0     		beq	.L209
 3774              		.loc 1 1217 0 is_stmt 0 discriminator 4
 3775 01f2 374B     		ldr	r3, .L221+96
 3776 01f4 0193     		str	r3, [sp, #4]
 3777 01f6 0123     		movs	r3, #1
 3778 01f8 0093     		str	r3, [sp]
 3779 01fa 364B     		ldr	r3, .L221+100
 3780 01fc 1E4A     		ldr	r2, .L221+8
 3781 01fe 5C32     		adds	r2, r2, #92
 3782 0200 1E49     		ldr	r1, .L221+12
 3783 0202 0020     		movs	r0, #0
 3784              	.LVL634:
 3785 0204 B047     		blx	r6
 3786              	.LVL635:
 3787              	.L209:
 3788              	.LBE90:
1218:Source\azure_iot_sdk\uamqp\src/amqp_management.c ****                                         (void)singlylinkedlist_remove(amqp_management->pending_oper
 3789              		.loc 1 1218 0 is_stmt 1
 3790 0206 2069     		ldr	r0, [r4, #16]
 3791 0208 0799     		ldr	r1, [sp, #28]
 3792 020a FFF7FEFF 		bl	singlylinkedlist_remove
 3793              	.LVL636:
1219:Source\azure_iot_sdk\uamqp\src/amqp_management.c ****                                         free(pending_operation_message);
ARM GAS  C:\Users\Phuong\AppData\Local\Temp\ccdTtd1y.s 			page 93


 3794              		.loc 1 1219 0
 3795 020e 2800     		movs	r0, r5
 3796 0210 FFF7FEFF 		bl	free
 3797              	.LVL637:
1220:Source\azure_iot_sdk\uamqp\src/amqp_management.c ****                                         result = __FAILURE__;
 3798              		.loc 1 1220 0
 3799 0214 304C     		ldr	r4, .L221+104
 3800              	.LVL638:
 3801 0216 15E0     		b	.L203
 3802              	.LVL639:
 3803              	.L208:
1221:Source\azure_iot_sdk\uamqp\src/amqp_management.c ****                                     }
1222:Source\azure_iot_sdk\uamqp\src/amqp_management.c ****                                     else
1223:Source\azure_iot_sdk\uamqp\src/amqp_management.c ****                                     {
1224:Source\azure_iot_sdk\uamqp\src/amqp_management.c ****                                         /* Codes_SRS_AMQP_MANAGEMENT_01_107: [ The message Id set o
1225:Source\azure_iot_sdk\uamqp\src/amqp_management.c ****                                         amqp_management->next_message_id++;
 3804              		.loc 1 1225 0
 3805 0218 0122     		movs	r2, #1
 3806 021a 0023     		movs	r3, #0
 3807 021c A069     		ldr	r0, [r4, #24]
 3808 021e E169     		ldr	r1, [r4, #28]
 3809 0220 1218     		adds	r2, r2, r0
 3810 0222 4B41     		adcs	r3, r3, r1
 3811 0224 A261     		str	r2, [r4, #24]
 3812 0226 E361     		str	r3, [r4, #28]
 3813              	.LVL640:
1226:Source\azure_iot_sdk\uamqp\src/amqp_management.c **** 
1227:Source\azure_iot_sdk\uamqp\src/amqp_management.c ****                                         /* Codes_SRS_AMQP_MANAGEMENT_01_056: [ On success it shall 
1228:Source\azure_iot_sdk\uamqp\src/amqp_management.c ****                                         result = 0;
 3814              		.loc 1 1228 0
 3815 0228 0024     		movs	r4, #0
 3816              	.LVL641:
 3817 022a 0BE0     		b	.L203
 3818              	.LVL642:
 3819              	.L215:
 3820              	.LBE88:
 3821              	.LBE87:
1171:Source\azure_iot_sdk\uamqp\src/amqp_management.c ****                     }
 3822              		.loc 1 1171 0
 3823 022c 2B4C     		ldr	r4, .L221+108
 3824              	.LVL643:
 3825 022e 09E0     		b	.L203
 3826              	.LVL644:
 3827              	.L216:
 3828 0230 2A4C     		ldr	r4, .L221+108
 3829              	.LVL645:
 3830 0232 07E0     		b	.L203
 3831              	.LVL646:
 3832              	.L217:
 3833 0234 294C     		ldr	r4, .L221+108
 3834              	.LVL647:
 3835 0236 05E0     		b	.L203
 3836              	.LVL648:
 3837              	.L218:
1180:Source\azure_iot_sdk\uamqp\src/amqp_management.c ****                         }
 3838              		.loc 1 1180 0
 3839 0238 214C     		ldr	r4, .L221+80
ARM GAS  C:\Users\Phuong\AppData\Local\Temp\ccdTtd1y.s 			page 94


 3840 023a 03E0     		b	.L203
 3841              	.LVL649:
 3842              	.L219:
1184:Source\azure_iot_sdk\uamqp\src/amqp_management.c ****                         }
 3843              		.loc 1 1184 0
 3844 023c 9424     		movs	r4, #148
 3845              	.LVL650:
 3846 023e E400     		lsls	r4, r4, #3
 3847 0240 00E0     		b	.L203
 3848              	.LVL651:
 3849              	.L220:
 3850              	.LBB91:
1191:Source\azure_iot_sdk\uamqp\src/amqp_management.c ****                             }
 3851              		.loc 1 1191 0
 3852 0242 274C     		ldr	r4, .L221+112
 3853              	.LVL652:
 3854              	.L203:
 3855              	.LBE91:
1229:Source\azure_iot_sdk\uamqp\src/amqp_management.c ****                                     }
1230:Source\azure_iot_sdk\uamqp\src/amqp_management.c ****                                 }
1231:Source\azure_iot_sdk\uamqp\src/amqp_management.c ****                             }
1232:Source\azure_iot_sdk\uamqp\src/amqp_management.c ****                         }
1233:Source\azure_iot_sdk\uamqp\src/amqp_management.c ****                     }
1234:Source\azure_iot_sdk\uamqp\src/amqp_management.c **** 
1235:Source\azure_iot_sdk\uamqp\src/amqp_management.c ****                     /* Codes_SRS_AMQP_MANAGEMENT_01_101: [ After setting the application properties
1236:Source\azure_iot_sdk\uamqp\src/amqp_management.c ****                     amqpvalue_destroy(application_properties);
 3856              		.loc 1 1236 0
 3857 0244 0998     		ldr	r0, [sp, #36]
 3858 0246 FFF7FEFF 		bl	amqpvalue_destroy
 3859              	.LVL653:
 3860 024a 02E0     		b	.L201
 3861              	.LVL654:
 3862              	.L213:
1140:Source\azure_iot_sdk\uamqp\src/amqp_management.c ****             }
 3863              		.loc 1 1140 0
 3864 024c 144C     		ldr	r4, .L221+48
 3865 024e 00E0     		b	.L201
 3866              	.LVL655:
 3867              	.L214:
1156:Source\azure_iot_sdk\uamqp\src/amqp_management.c ****                 }
 3868              		.loc 1 1156 0
 3869 0250 244C     		ldr	r4, .L221+116
 3870              	.LVL656:
 3871              	.L201:
1237:Source\azure_iot_sdk\uamqp\src/amqp_management.c ****                 }
1238:Source\azure_iot_sdk\uamqp\src/amqp_management.c ****             }
1239:Source\azure_iot_sdk\uamqp\src/amqp_management.c **** 
1240:Source\azure_iot_sdk\uamqp\src/amqp_management.c ****             message_destroy(cloned_message);
 3872              		.loc 1 1240 0
 3873 0252 3800     		movs	r0, r7
 3874 0254 FFF7FEFF 		bl	message_destroy
 3875              	.LVL657:
 3876 0258 04E0     		b	.L194
 3877              	.LVL658:
 3878              	.L212:
1131:Source\azure_iot_sdk\uamqp\src/amqp_management.c ****         }
 3879              		.loc 1 1131 0
ARM GAS  C:\Users\Phuong\AppData\Local\Temp\ccdTtd1y.s 			page 95


 3880 025a 234C     		ldr	r4, .L221+120
 3881              	.LVL659:
 3882 025c 02E0     		b	.L194
 3883              	.LVL660:
 3884              	.L210:
 3885              	.LBE82:
1099:Source\azure_iot_sdk\uamqp\src/amqp_management.c ****     }
 3886              		.loc 1 1099 0
 3887 025e 084C     		ldr	r4, .L221+16
 3888              	.LVL661:
 3889 0260 00E0     		b	.L194
 3890              	.LVL662:
 3891              	.L211:
1107:Source\azure_iot_sdk\uamqp\src/amqp_management.c ****     }
 3892              		.loc 1 1107 0
 3893 0262 0A4C     		ldr	r4, .L221+28
 3894              	.LVL663:
 3895              	.L194:
1241:Source\azure_iot_sdk\uamqp\src/amqp_management.c ****         }
1242:Source\azure_iot_sdk\uamqp\src/amqp_management.c ****     }
1243:Source\azure_iot_sdk\uamqp\src/amqp_management.c ****     return result;
1244:Source\azure_iot_sdk\uamqp\src/amqp_management.c **** }
 3896              		.loc 1 1244 0
 3897 0264 2000     		movs	r0, r4
 3898 0266 0AB0     		add	sp, sp, #40
 3899              		@ sp needed
 3900              	.LVL664:
 3901 0268 04BC     		pop	{r2}
 3902 026a 9146     		mov	r9, r2
 3903 026c F0BD     		pop	{r4, r5, r6, r7, pc}
 3904              	.L222:
 3905 026e C046     		.align	2
 3906              	.L221:
 3907 0270 A80A0000 		.word	.LC155
 3908 0274 4A040000 		.word	1098
 3909 0278 00010000 		.word	.LANCHOR2
 3910 027c 00000000 		.word	.LC1
 3911 0280 4B040000 		.word	1099
 3912 0284 E80A0000 		.word	.LC157
 3913 0288 52040000 		.word	1106
 3914 028c 53040000 		.word	1107
 3915 0290 340B0000 		.word	.LC159
 3916 0294 65040000 		.word	1125
 3917 0298 4C0B0000 		.word	.LC161
 3918 029c 73040000 		.word	1139
 3919 02a0 74040000 		.word	1140
 3920 02a4 740B0000 		.word	.LC163
 3921 02a8 7E040000 		.word	1150
 3922 02ac 9C0B0000 		.word	.LC165
 3923 02b0 A80B0000 		.word	.LC167
 3924 02b4 B00B0000 		.word	.LC169
 3925 02b8 B80B0000 		.word	.LC171
 3926 02bc 9B040000 		.word	1179
 3927 02c0 9C040000 		.word	1180
 3928 02c4 E00B0000 		.word	.LC173
 3929 02c8 B6040000 		.word	1206
 3930 02cc 00000000 		.word	on_message_send_complete
ARM GAS  C:\Users\Phuong\AppData\Local\Temp\ccdTtd1y.s 			page 96


 3931 02d0 1C0C0000 		.word	.LC176
 3932 02d4 C1040000 		.word	1217
 3933 02d8 C4040000 		.word	1220
 3934 02dc 93040000 		.word	1171
 3935 02e0 A7040000 		.word	1191
 3936 02e4 84040000 		.word	1156
 3937 02e8 6B040000 		.word	1131
 3938              		.cfi_endproc
 3939              	.LFE13:
 3940              		.size	amqp_management_execute_operation_async, .-amqp_management_execute_operation_async
 3941              		.section	.text.amqp_management_set_trace,"ax",%progbits
 3942              		.align	2
 3943              		.global	amqp_management_set_trace
 3944              		.code	16
 3945              		.thumb_func
 3946              		.type	amqp_management_set_trace, %function
 3947              	amqp_management_set_trace:
 3948              	.LFB14:
1245:Source\azure_iot_sdk\uamqp\src/amqp_management.c **** 
1246:Source\azure_iot_sdk\uamqp\src/amqp_management.c **** void amqp_management_set_trace(AMQP_MANAGEMENT_HANDLE amqp_management, bool trace_on)
1247:Source\azure_iot_sdk\uamqp\src/amqp_management.c **** {
 3949              		.loc 1 1247 0
 3950              		.cfi_startproc
 3951              		@ args = 0, pretend = 0, frame = 0
 3952              		@ frame_needed = 0, uses_anonymous_args = 0
 3953              	.LVL665:
 3954 0000 30B5     		push	{r4, r5, lr}
 3955              		.cfi_def_cfa_offset 12
 3956              		.cfi_offset 4, -12
 3957              		.cfi_offset 5, -8
 3958              		.cfi_offset 14, -4
 3959 0002 83B0     		sub	sp, sp, #12
 3960              		.cfi_def_cfa_offset 24
 3961 0004 0400     		movs	r4, r0
 3962 0006 0D00     		movs	r5, r1
1248:Source\azure_iot_sdk\uamqp\src/amqp_management.c ****     if (amqp_management == NULL)
 3963              		.loc 1 1248 0
 3964 0008 0028     		cmp	r0, #0
 3965 000a 0ED1     		bne	.L224
 3966              	.LBB92:
1249:Source\azure_iot_sdk\uamqp\src/amqp_management.c ****     {
1250:Source\azure_iot_sdk\uamqp\src/amqp_management.c ****         /* Codes_SRS_AMQP_MANAGEMENT_01_163: [ If `amqp_management` is NULL, `amqp_management_set_t
1251:Source\azure_iot_sdk\uamqp\src/amqp_management.c ****         LogError("NULL amqp_management");
 3967              		.loc 1 1251 0 discriminator 3
 3968 000c FFF7FEFF 		bl	xlogging_get_log_function
 3969              	.LVL666:
 3970 0010 041E     		subs	r4, r0, #0
 3971              	.LVL667:
 3972 0012 11D0     		beq	.L223
 3973              		.loc 1 1251 0 is_stmt 0 discriminator 4
 3974 0014 094B     		ldr	r3, .L226
 3975 0016 0193     		str	r3, [sp, #4]
 3976 0018 0123     		movs	r3, #1
 3977 001a 0093     		str	r3, [sp]
 3978 001c 084B     		ldr	r3, .L226+4
 3979 001e 094A     		ldr	r2, .L226+8
 3980 0020 0432     		adds	r2, r2, #4
ARM GAS  C:\Users\Phuong\AppData\Local\Temp\ccdTtd1y.s 			page 97


 3981 0022 0949     		ldr	r1, .L226+12
 3982 0024 0020     		movs	r0, #0
 3983              	.LVL668:
 3984 0026 A047     		blx	r4
 3985              	.LVL669:
 3986 0028 06E0     		b	.L223
 3987              	.LVL670:
 3988              	.L224:
 3989              	.LBE92:
1252:Source\azure_iot_sdk\uamqp\src/amqp_management.c ****     }
1253:Source\azure_iot_sdk\uamqp\src/amqp_management.c ****     else
1254:Source\azure_iot_sdk\uamqp\src/amqp_management.c ****     {
1255:Source\azure_iot_sdk\uamqp\src/amqp_management.c ****         /* Codes_SRS_AMQP_MANAGEMENT_01_161: [ `amqp_management_set_trace` shall call `messagesende
1256:Source\azure_iot_sdk\uamqp\src/amqp_management.c ****         messagesender_set_trace(amqp_management->message_sender, trace_on);
 3990              		.loc 1 1256 0 is_stmt 1
 3991 002a 8068     		ldr	r0, [r0, #8]
 3992              	.LVL671:
 3993 002c FFF7FEFF 		bl	messagesender_set_trace
 3994              	.LVL672:
1257:Source\azure_iot_sdk\uamqp\src/amqp_management.c ****         /* Codes_SRS_AMQP_MANAGEMENT_01_162: [ `amqp_management_set_trace` shall call `messagerecei
1258:Source\azure_iot_sdk\uamqp\src/amqp_management.c ****         messagereceiver_set_trace(amqp_management->message_receiver, trace_on);
 3995              		.loc 1 1258 0
 3996 0030 E068     		ldr	r0, [r4, #12]
 3997 0032 2900     		movs	r1, r5
 3998 0034 FFF7FEFF 		bl	messagereceiver_set_trace
 3999              	.LVL673:
 4000              	.L223:
1259:Source\azure_iot_sdk\uamqp\src/amqp_management.c ****     }
1260:Source\azure_iot_sdk\uamqp\src/amqp_management.c **** }
 4001              		.loc 1 1260 0
 4002 0038 03B0     		add	sp, sp, #12
 4003              		@ sp needed
 4004 003a 30BD     		pop	{r4, r5, pc}
 4005              	.L227:
 4006              		.align	2
 4007              	.L226:
 4008 003c EC090000 		.word	.LC138
 4009 0040 E3040000 		.word	1251
 4010 0044 80010000 		.word	.LANCHOR3
 4011 0048 00000000 		.word	.LC1
 4012              		.cfi_endproc
 4013              	.LFE14:
 4014              		.size	amqp_management_set_trace, .-amqp_management_set_trace
 4015              		.section	.text.amqp_management_set_override_status_code_key_name,"ax",%progbits
 4016              		.align	2
 4017              		.global	amqp_management_set_override_status_code_key_name
 4018              		.code	16
 4019              		.thumb_func
 4020              		.type	amqp_management_set_override_status_code_key_name, %function
 4021              	amqp_management_set_override_status_code_key_name:
 4022              	.LFB15:
1261:Source\azure_iot_sdk\uamqp\src/amqp_management.c **** 
1262:Source\azure_iot_sdk\uamqp\src/amqp_management.c **** int amqp_management_set_override_status_code_key_name(AMQP_MANAGEMENT_HANDLE amqp_management, const
1263:Source\azure_iot_sdk\uamqp\src/amqp_management.c **** {
 4023              		.loc 1 1263 0
 4024              		.cfi_startproc
 4025              		@ args = 0, pretend = 0, frame = 0
ARM GAS  C:\Users\Phuong\AppData\Local\Temp\ccdTtd1y.s 			page 98


 4026              		@ frame_needed = 0, uses_anonymous_args = 0
 4027              	.LVL674:
 4028 0000 70B5     		push	{r4, r5, r6, lr}
 4029              		.cfi_def_cfa_offset 16
 4030              		.cfi_offset 4, -16
 4031              		.cfi_offset 5, -12
 4032              		.cfi_offset 6, -8
 4033              		.cfi_offset 14, -4
 4034 0002 84B0     		sub	sp, sp, #16
 4035              		.cfi_def_cfa_offset 32
 4036 0004 0500     		movs	r5, r0
 4037 0006 0C00     		movs	r4, r1
1264:Source\azure_iot_sdk\uamqp\src/amqp_management.c ****     int result;
1265:Source\azure_iot_sdk\uamqp\src/amqp_management.c **** 
1266:Source\azure_iot_sdk\uamqp\src/amqp_management.c ****     /* Codes_SRS_AMQP_MANAGEMENT_01_171: [ If `amqp_management` is NULL, `amqp_management_set_overr
1267:Source\azure_iot_sdk\uamqp\src/amqp_management.c ****     if ((amqp_management == NULL) ||
 4038              		.loc 1 1267 0
 4039 0008 0028     		cmp	r0, #0
 4040 000a 01D0     		beq	.L229
 4041              		.loc 1 1267 0 is_stmt 0 discriminator 1
 4042 000c 0029     		cmp	r1, #0
 4043 000e 15D1     		bne	.L230
 4044              	.L229:
 4045              	.LBB93:
1268:Source\azure_iot_sdk\uamqp\src/amqp_management.c ****         /* Codes_SRS_AMQP_MANAGEMENT_01_172: [ If `override_status_code_key_name` is NULL, `amqp_ma
1269:Source\azure_iot_sdk\uamqp\src/amqp_management.c ****         (override_status_code_key_name == NULL))
1270:Source\azure_iot_sdk\uamqp\src/amqp_management.c ****     {
1271:Source\azure_iot_sdk\uamqp\src/amqp_management.c ****         LogError("Bad arguments: amqp_management = %p, override_status_code_key_name = %s",
 4046              		.loc 1 1271 0 is_stmt 1 discriminator 7
 4047 0010 FFF7FEFF 		bl	xlogging_get_log_function
 4048              	.LVL675:
 4049 0014 061E     		subs	r6, r0, #0
 4050              	.LVL676:
 4051 0016 25D0     		beq	.L233
 4052              		.loc 1 1271 0 is_stmt 0 discriminator 8
 4053 0018 002C     		cmp	r4, #0
 4054 001a 00D1     		bne	.L232
 4055              		.loc 1 1271 0
 4056 001c 154C     		ldr	r4, .L237
 4057              	.LVL677:
 4058              	.L232:
 4059              		.loc 1 1271 0 discriminator 13
 4060 001e 0394     		str	r4, [sp, #12]
 4061 0020 0295     		str	r5, [sp, #8]
 4062 0022 154B     		ldr	r3, .L237+4
 4063 0024 0193     		str	r3, [sp, #4]
 4064 0026 0123     		movs	r3, #1
 4065 0028 0093     		str	r3, [sp]
 4066 002a 9F23     		movs	r3, #159
 4067 002c DB00     		lsls	r3, r3, #3
 4068 002e 134A     		ldr	r2, .L237+8
 4069 0030 2032     		adds	r2, r2, #32
 4070 0032 1349     		ldr	r1, .L237+12
 4071 0034 0020     		movs	r0, #0
 4072              	.LVL678:
 4073 0036 B047     		blx	r6
 4074              	.LVL679:
ARM GAS  C:\Users\Phuong\AppData\Local\Temp\ccdTtd1y.s 			page 99


 4075              	.LBE93:
1272:Source\azure_iot_sdk\uamqp\src/amqp_management.c ****             amqp_management, P_OR_NULL(override_status_code_key_name));
1273:Source\azure_iot_sdk\uamqp\src/amqp_management.c ****         result = __FAILURE__;
 4076              		.loc 1 1273 0 is_stmt 1 discriminator 13
 4077 0038 1248     		ldr	r0, .L237+16
 4078 003a 18E0     		b	.L231
 4079              	.LVL680:
 4080              	.L230:
1274:Source\azure_iot_sdk\uamqp\src/amqp_management.c ****     }
1275:Source\azure_iot_sdk\uamqp\src/amqp_management.c ****     else
1276:Source\azure_iot_sdk\uamqp\src/amqp_management.c ****     {
1277:Source\azure_iot_sdk\uamqp\src/amqp_management.c ****         /* Codes_SRS_AMQP_MANAGEMENT_01_167: [ `amqp_management_set_override_status_code_key_name` 
1278:Source\azure_iot_sdk\uamqp\src/amqp_management.c ****         /* Codes_SRS_AMQP_MANAGEMENT_01_168: [ `amqp_management_set_override_status_code_key_name` 
1279:Source\azure_iot_sdk\uamqp\src/amqp_management.c ****         /* Codes_SRS_AMQP_MANAGEMENT_01_169: [ `amqp_management_set_override_status_code_key_name` 
1280:Source\azure_iot_sdk\uamqp\src/amqp_management.c ****         if (internal_set_status_code_key_name(amqp_management, override_status_code_key_name) != 0)
 4081              		.loc 1 1280 0
 4082 003c FFF7FEFF 		bl	internal_set_status_code_key_name
 4083              	.LVL681:
 4084 0040 0028     		cmp	r0, #0
 4085 0042 11D0     		beq	.L235
 4086              	.LBB94:
1281:Source\azure_iot_sdk\uamqp\src/amqp_management.c ****         {
1282:Source\azure_iot_sdk\uamqp\src/amqp_management.c ****             /* Codes_SRS_AMQP_MANAGEMENT_01_173: [ If any error occurs in copying the `override_sta
1283:Source\azure_iot_sdk\uamqp\src/amqp_management.c ****             LogError("Cannot set status code key name");
 4087              		.loc 1 1283 0 discriminator 3
 4088 0044 FFF7FEFF 		bl	xlogging_get_log_function
 4089              	.LVL682:
 4090 0048 041E     		subs	r4, r0, #0
 4091              	.LVL683:
 4092 004a 0FD0     		beq	.L236
 4093              		.loc 1 1283 0 is_stmt 0 discriminator 4
 4094 004c 0E4B     		ldr	r3, .L237+20
 4095 004e 0193     		str	r3, [sp, #4]
 4096 0050 0123     		movs	r3, #1
 4097 0052 0093     		str	r3, [sp]
 4098 0054 0D4B     		ldr	r3, .L237+24
 4099 0056 094A     		ldr	r2, .L237+8
 4100 0058 2032     		adds	r2, r2, #32
 4101 005a 0949     		ldr	r1, .L237+12
 4102 005c 0020     		movs	r0, #0
 4103              	.LVL684:
 4104 005e A047     		blx	r4
 4105              	.LVL685:
 4106              	.LBE94:
1284:Source\azure_iot_sdk\uamqp\src/amqp_management.c ****             result = __FAILURE__;
 4107              		.loc 1 1284 0 is_stmt 1 discriminator 4
 4108 0060 0B48     		ldr	r0, .L237+28
 4109 0062 04E0     		b	.L231
 4110              	.LVL686:
 4111              	.L233:
1273:Source\azure_iot_sdk\uamqp\src/amqp_management.c ****     }
 4112              		.loc 1 1273 0
 4113 0064 0748     		ldr	r0, .L237+16
 4114              	.LVL687:
 4115 0066 02E0     		b	.L231
 4116              	.LVL688:
 4117              	.L235:
ARM GAS  C:\Users\Phuong\AppData\Local\Temp\ccdTtd1y.s 			page 100


1285:Source\azure_iot_sdk\uamqp\src/amqp_management.c ****         }
1286:Source\azure_iot_sdk\uamqp\src/amqp_management.c ****         else
1287:Source\azure_iot_sdk\uamqp\src/amqp_management.c ****         {
1288:Source\azure_iot_sdk\uamqp\src/amqp_management.c ****             /* Codes_SRS_AMQP_MANAGEMENT_01_170: [ On success, `amqp_management_set_override_status
1289:Source\azure_iot_sdk\uamqp\src/amqp_management.c ****             result = 0;
 4118              		.loc 1 1289 0
 4119 0068 0020     		movs	r0, #0
 4120 006a 00E0     		b	.L231
 4121              	.LVL689:
 4122              	.L236:
1284:Source\azure_iot_sdk\uamqp\src/amqp_management.c ****         }
 4123              		.loc 1 1284 0
 4124 006c 0848     		ldr	r0, .L237+28
 4125              	.LVL690:
 4126              	.L231:
1290:Source\azure_iot_sdk\uamqp\src/amqp_management.c ****         }
1291:Source\azure_iot_sdk\uamqp\src/amqp_management.c ****     }
1292:Source\azure_iot_sdk\uamqp\src/amqp_management.c **** 
1293:Source\azure_iot_sdk\uamqp\src/amqp_management.c ****     return result;
1294:Source\azure_iot_sdk\uamqp\src/amqp_management.c **** }
 4127              		.loc 1 1294 0
 4128 006e 04B0     		add	sp, sp, #16
 4129              		@ sp needed
 4130              	.LVL691:
 4131 0070 70BD     		pop	{r4, r5, r6, pc}
 4132              	.L238:
 4133 0072 C046     		.align	2
 4134              	.L237:
 4135 0074 3C0C0000 		.word	.LC181
 4136 0078 440C0000 		.word	.LC185
 4137 007c 80010000 		.word	.LANCHOR3
 4138 0080 00000000 		.word	.LC1
 4139 0084 F9040000 		.word	1273
 4140 0088 E4060000 		.word	.LC93
 4141 008c 03050000 		.word	1283
 4142 0090 04050000 		.word	1284
 4143              		.cfi_endproc
 4144              	.LFE15:
 4145              		.size	amqp_management_set_override_status_code_key_name, .-amqp_management_set_override_status_cod
 4146              		.section	.text.amqp_management_set_override_status_description_key_name,"ax",%progbits
 4147              		.align	2
 4148              		.global	amqp_management_set_override_status_description_key_name
 4149              		.code	16
 4150              		.thumb_func
 4151              		.type	amqp_management_set_override_status_description_key_name, %function
 4152              	amqp_management_set_override_status_description_key_name:
 4153              	.LFB16:
1295:Source\azure_iot_sdk\uamqp\src/amqp_management.c **** 
1296:Source\azure_iot_sdk\uamqp\src/amqp_management.c **** int amqp_management_set_override_status_description_key_name(AMQP_MANAGEMENT_HANDLE amqp_management
1297:Source\azure_iot_sdk\uamqp\src/amqp_management.c **** {
 4154              		.loc 1 1297 0
 4155              		.cfi_startproc
 4156              		@ args = 0, pretend = 0, frame = 0
 4157              		@ frame_needed = 0, uses_anonymous_args = 0
 4158              	.LVL692:
 4159 0000 70B5     		push	{r4, r5, r6, lr}
 4160              		.cfi_def_cfa_offset 16
ARM GAS  C:\Users\Phuong\AppData\Local\Temp\ccdTtd1y.s 			page 101


 4161              		.cfi_offset 4, -16
 4162              		.cfi_offset 5, -12
 4163              		.cfi_offset 6, -8
 4164              		.cfi_offset 14, -4
 4165 0002 84B0     		sub	sp, sp, #16
 4166              		.cfi_def_cfa_offset 32
 4167 0004 0500     		movs	r5, r0
 4168 0006 0C00     		movs	r4, r1
1298:Source\azure_iot_sdk\uamqp\src/amqp_management.c ****     int result;
1299:Source\azure_iot_sdk\uamqp\src/amqp_management.c **** 
1300:Source\azure_iot_sdk\uamqp\src/amqp_management.c ****     /* Codes_SRS_AMQP_MANAGEMENT_01_178: [ If `amqp_management` is NULL, `amqp_management_set_overr
1301:Source\azure_iot_sdk\uamqp\src/amqp_management.c ****     if ((amqp_management == NULL) ||
 4169              		.loc 1 1301 0
 4170 0008 0028     		cmp	r0, #0
 4171 000a 01D0     		beq	.L240
 4172              		.loc 1 1301 0 is_stmt 0 discriminator 1
 4173 000c 0029     		cmp	r1, #0
 4174 000e 14D1     		bne	.L241
 4175              	.L240:
 4176              	.LBB95:
1302:Source\azure_iot_sdk\uamqp\src/amqp_management.c ****         /* Tests_SRS_AMQP_MANAGEMENT_01_179: [ If `override_status_description_key_name` is NULL, `
1303:Source\azure_iot_sdk\uamqp\src/amqp_management.c ****         (override_status_description_key_name == NULL))
1304:Source\azure_iot_sdk\uamqp\src/amqp_management.c ****     {
1305:Source\azure_iot_sdk\uamqp\src/amqp_management.c ****         LogError("Bad arguments: amqp_management = %p, override_status_description_key_name = %s",
 4177              		.loc 1 1305 0 is_stmt 1 discriminator 7
 4178 0010 FFF7FEFF 		bl	xlogging_get_log_function
 4179              	.LVL693:
 4180 0014 061E     		subs	r6, r0, #0
 4181              	.LVL694:
 4182 0016 24D0     		beq	.L244
 4183              		.loc 1 1305 0 is_stmt 0 discriminator 8
 4184 0018 002C     		cmp	r4, #0
 4185 001a 00D1     		bne	.L243
 4186              		.loc 1 1305 0
 4187 001c 144C     		ldr	r4, .L248
 4188              	.LVL695:
 4189              	.L243:
 4190              		.loc 1 1305 0 discriminator 13
 4191 001e 0394     		str	r4, [sp, #12]
 4192 0020 0295     		str	r5, [sp, #8]
 4193 0022 144B     		ldr	r3, .L248+4
 4194 0024 0193     		str	r3, [sp, #4]
 4195 0026 0123     		movs	r3, #1
 4196 0028 0093     		str	r3, [sp]
 4197 002a 134B     		ldr	r3, .L248+8
 4198 002c 134A     		ldr	r2, .L248+12
 4199 002e 5432     		adds	r2, r2, #84
 4200 0030 1349     		ldr	r1, .L248+16
 4201 0032 0020     		movs	r0, #0
 4202              	.LVL696:
 4203 0034 B047     		blx	r6
 4204              	.LVL697:
 4205              	.LBE95:
1306:Source\azure_iot_sdk\uamqp\src/amqp_management.c ****             amqp_management, P_OR_NULL(override_status_description_key_name));
1307:Source\azure_iot_sdk\uamqp\src/amqp_management.c ****         result = __FAILURE__;
 4206              		.loc 1 1307 0 is_stmt 1 discriminator 13
 4207 0036 1348     		ldr	r0, .L248+20
ARM GAS  C:\Users\Phuong\AppData\Local\Temp\ccdTtd1y.s 			page 102


 4208 0038 18E0     		b	.L242
 4209              	.LVL698:
 4210              	.L241:
1308:Source\azure_iot_sdk\uamqp\src/amqp_management.c ****     }
1309:Source\azure_iot_sdk\uamqp\src/amqp_management.c ****     else
1310:Source\azure_iot_sdk\uamqp\src/amqp_management.c ****     {
1311:Source\azure_iot_sdk\uamqp\src/amqp_management.c ****         /* Codes_SRS_AMQP_MANAGEMENT_01_174: [ `amqp_management_set_override_status_description_key
1312:Source\azure_iot_sdk\uamqp\src/amqp_management.c ****         /* Codes_SRS_AMQP_MANAGEMENT_01_175: [ `amqp_management_set_override_status_description_key
1313:Source\azure_iot_sdk\uamqp\src/amqp_management.c ****         /* Codes_SRS_AMQP_MANAGEMENT_01_176: [ `amqp_management_set_override_status_description_key
1314:Source\azure_iot_sdk\uamqp\src/amqp_management.c ****         /* Codes_SRS_AMQP_MANAGEMENT_01_177: [ On success, `amqp_management_set_override_status_des
1315:Source\azure_iot_sdk\uamqp\src/amqp_management.c ****         if (internal_set_status_description_key_name(amqp_management, override_status_description_k
 4211              		.loc 1 1315 0
 4212 003a FFF7FEFF 		bl	internal_set_status_description_key_name
 4213              	.LVL699:
 4214 003e 0028     		cmp	r0, #0
 4215 0040 11D0     		beq	.L246
 4216              	.LBB96:
1316:Source\azure_iot_sdk\uamqp\src/amqp_management.c ****         {
1317:Source\azure_iot_sdk\uamqp\src/amqp_management.c ****             /* Codes_SRS_AMQP_MANAGEMENT_01_180: [ If any error occurs in copying the `override_sta
1318:Source\azure_iot_sdk\uamqp\src/amqp_management.c ****             LogError("Cannot set status description key name");
 4217              		.loc 1 1318 0 discriminator 3
 4218 0042 FFF7FEFF 		bl	xlogging_get_log_function
 4219              	.LVL700:
 4220 0046 041E     		subs	r4, r0, #0
 4221              	.LVL701:
 4222 0048 0FD0     		beq	.L247
 4223              		.loc 1 1318 0 is_stmt 0 discriminator 4
 4224 004a 0F4B     		ldr	r3, .L248+24
 4225 004c 0193     		str	r3, [sp, #4]
 4226 004e 0123     		movs	r3, #1
 4227 0050 0093     		str	r3, [sp]
 4228 0052 0E4B     		ldr	r3, .L248+28
 4229 0054 094A     		ldr	r2, .L248+12
 4230 0056 5432     		adds	r2, r2, #84
 4231 0058 0949     		ldr	r1, .L248+16
 4232 005a 0020     		movs	r0, #0
 4233              	.LVL702:
 4234 005c A047     		blx	r4
 4235              	.LVL703:
 4236              	.LBE96:
1319:Source\azure_iot_sdk\uamqp\src/amqp_management.c ****             result = __FAILURE__;
 4237              		.loc 1 1319 0 is_stmt 1 discriminator 4
 4238 005e 0C48     		ldr	r0, .L248+32
 4239 0060 04E0     		b	.L242
 4240              	.LVL704:
 4241              	.L244:
1307:Source\azure_iot_sdk\uamqp\src/amqp_management.c ****     }
 4242              		.loc 1 1307 0
 4243 0062 0848     		ldr	r0, .L248+20
 4244              	.LVL705:
 4245 0064 02E0     		b	.L242
 4246              	.LVL706:
 4247              	.L246:
1320:Source\azure_iot_sdk\uamqp\src/amqp_management.c ****         }
1321:Source\azure_iot_sdk\uamqp\src/amqp_management.c ****         else
1322:Source\azure_iot_sdk\uamqp\src/amqp_management.c ****         {
1323:Source\azure_iot_sdk\uamqp\src/amqp_management.c ****             result = 0;
ARM GAS  C:\Users\Phuong\AppData\Local\Temp\ccdTtd1y.s 			page 103


 4248              		.loc 1 1323 0
 4249 0066 0020     		movs	r0, #0
 4250 0068 00E0     		b	.L242
 4251              	.LVL707:
 4252              	.L247:
1319:Source\azure_iot_sdk\uamqp\src/amqp_management.c ****         }
 4253              		.loc 1 1319 0
 4254 006a 0948     		ldr	r0, .L248+32
 4255              	.LVL708:
 4256              	.L242:
1324:Source\azure_iot_sdk\uamqp\src/amqp_management.c ****         }
1325:Source\azure_iot_sdk\uamqp\src/amqp_management.c ****     }
1326:Source\azure_iot_sdk\uamqp\src/amqp_management.c **** 
1327:Source\azure_iot_sdk\uamqp\src/amqp_management.c ****     return result;
1328:Source\azure_iot_sdk\uamqp\src/amqp_management.c **** }
 4257              		.loc 1 1328 0
 4258 006c 04B0     		add	sp, sp, #16
 4259              		@ sp needed
 4260              	.LVL709:
 4261 006e 70BD     		pop	{r4, r5, r6, pc}
 4262              	.L249:
 4263              		.align	2
 4264              	.L248:
 4265 0070 3C0C0000 		.word	.LC181
 4266 0074 8C0C0000 		.word	.LC191
 4267 0078 1A050000 		.word	1306
 4268 007c 80010000 		.word	.LANCHOR3
 4269 0080 00000000 		.word	.LC1
 4270 0084 1B050000 		.word	1307
 4271 0088 18070000 		.word	.LC97
 4272 008c 26050000 		.word	1318
 4273 0090 27050000 		.word	1319
 4274              		.cfi_endproc
 4275              	.LFE16:
 4276              		.size	amqp_management_set_override_status_description_key_name, .-amqp_management_set_override_sta
 4277              		.section	.rodata
 4278              		.align	2
 4279              		.set	.LANCHOR0,. + 0
 4280              		.set	.LANCHOR1,. + 128
 4281              		.set	.LANCHOR2,. + 256
 4282              		.set	.LANCHOR3,. + 384
 4283              		.type	__func__.8433, %object
 4284              		.size	__func__.8433, 34
 4285              	__func__.8433:
 4286 0000 6F6E5F6D 		.ascii	"on_message_receiver_state_changed\000"
 4286      65737361 
 4286      67655F72 
 4286      65636569 
 4286      7665725F 
 4287 0022 0000     		.space	2
 4288              		.type	__func__.8397, %object
 4289              		.size	__func__.8397, 32
 4290              	__func__.8397:
 4291 0024 6F6E5F6D 		.ascii	"on_message_sender_state_changed\000"
 4291      65737361 
 4291      67655F73 
 4291      656E6465 
ARM GAS  C:\Users\Phuong\AppData\Local\Temp\ccdTtd1y.s 			page 104


 4291      725F7374 
 4292              		.type	__func__.8503, %object
 4293              		.size	__func__.8503, 34
 4294              	__func__.8503:
 4295 0044 696E7465 		.ascii	"internal_set_status_code_key_name\000"
 4295      726E616C 
 4295      5F736574 
 4295      5F737461 
 4295      7475735F 
 4296 0066 0000     		.space	2
 4297              		.type	__func__.8513, %object
 4298              		.size	__func__.8513, 41
 4299              	__func__.8513:
 4300 0068 696E7465 		.ascii	"internal_set_status_description_key_name\000"
 4300      726E616C 
 4300      5F736574 
 4300      5F737461 
 4300      7475735F 
 4301 0091 000000   		.space	3
 4302              		.type	__func__.8382, %object
 4303              		.size	__func__.8382, 25
 4304              	__func__.8382:
 4305 0094 6F6E5F6D 		.ascii	"on_message_send_complete\000"
 4305      65737361 
 4305      67655F73 
 4305      656E645F 
 4305      636F6D70 
 4306 00ad 000000   		.space	3
 4307              		.type	__func__.8317, %object
 4308              		.size	__func__.8317, 20
 4309              	__func__.8317:
 4310 00b0 6F6E5F6D 		.ascii	"on_message_received\000"
 4310      65737361 
 4310      67655F72 
 4310      65636569 
 4310      76656400 
 4311              		.type	__func__.8486, %object
 4312              		.size	__func__.8486, 33
 4313              	__func__.8486:
 4314 00c4 6164645F 		.ascii	"add_string_key_value_pair_to_map\000"
 4314      73747269 
 4314      6E675F6B 
 4314      65795F76 
 4314      616C7565 
 4315 00e5 000000   		.space	3
 4316              		.type	__func__.8462, %object
 4317              		.size	__func__.8462, 15
 4318              	__func__.8462:
 4319 00e8 7365745F 		.ascii	"set_message_id\000"
 4319      6D657373 
 4319      6167655F 
 4319      696400
 4320 00f7 00       		.space	1
 4321              		.type	__func__.8522, %object
 4322              		.size	__func__.8522, 23
 4323              	__func__.8522:
 4324 00f8 616D7170 		.ascii	"amqp_management_create\000"
ARM GAS  C:\Users\Phuong\AppData\Local\Temp\ccdTtd1y.s 			page 105


 4324      5F6D616E 
 4324      6167656D 
 4324      656E745F 
 4324      63726561 
 4325 010f 00       		.space	1
 4326              		.type	__func__.8586, %object
 4327              		.size	__func__.8586, 27
 4328              	__func__.8586:
 4329 0110 616D7170 		.ascii	"amqp_management_open_async\000"
 4329      5F6D616E 
 4329      6167656D 
 4329      656E745F 
 4329      6F70656E 
 4330 012b 00       		.space	1
 4331              		.type	__func__.8609, %object
 4332              		.size	__func__.8609, 22
 4333              	__func__.8609:
 4334 012c 616D7170 		.ascii	"amqp_management_close\000"
 4334      5F6D616E 
 4334      6167656D 
 4334      656E745F 
 4334      636C6F73 
 4335 0142 0000     		.space	2
 4336              		.type	__func__.8574, %object
 4337              		.size	__func__.8574, 24
 4338              	__func__.8574:
 4339 0144 616D7170 		.ascii	"amqp_management_destroy\000"
 4339      5F6D616E 
 4339      6167656D 
 4339      656E745F 
 4339      64657374 
 4340              		.type	__func__.8644, %object
 4341              		.size	__func__.8644, 40
 4342              	__func__.8644:
 4343 015c 616D7170 		.ascii	"amqp_management_execute_operation_async\000"
 4343      5F6D616E 
 4343      6167656D 
 4343      656E745F 
 4343      65786563 
 4344              		.type	__func__.8677, %object
 4345              		.size	__func__.8677, 26
 4346              	__func__.8677:
 4347 0184 616D7170 		.ascii	"amqp_management_set_trace\000"
 4347      5F6D616E 
 4347      6167656D 
 4347      656E745F 
 4347      7365745F 
 4348 019e 0000     		.space	2
 4349              		.type	__func__.8686, %object
 4350              		.size	__func__.8686, 50
 4351              	__func__.8686:
 4352 01a0 616D7170 		.ascii	"amqp_management_set_override_status_code_key_name\000"
 4352      5F6D616E 
 4352      6167656D 
 4352      656E745F 
 4352      7365745F 
 4353 01d2 0000     		.space	2
ARM GAS  C:\Users\Phuong\AppData\Local\Temp\ccdTtd1y.s 			page 106


 4354              		.type	__func__.8698, %object
 4355              		.size	__func__.8698, 57
 4356              	__func__.8698:
 4357 01d4 616D7170 		.ascii	"amqp_management_set_override_status_description_key"
 4357      5F6D616E 
 4357      6167656D 
 4357      656E745F 
 4357      7365745F 
 4358 0207 5F6E616D 		.ascii	"_name\000"
 4358      6500
 4359              		.section	.rodata.str1.4,"aMS",%progbits,1
 4360              		.align	2
 4361              	.LC1:
 4362 0000 536F7572 		.ascii	"Source\\azure_iot_sdk\\uamqp\\src\\amqp_management."
 4362      63655C61 
 4362      7A757265 
 4362      5F696F74 
 4362      5F73646B 
 4363 002f 6300     		.ascii	"c\000"
 4364 0031 000000   		.space	3
 4365              	.LC3:
 4366 0034 6F6E5F6D 		.ascii	"on_message_receiver_state_changed called with NULL "
 4366      65737361 
 4366      67655F72 
 4366      65636569 
 4366      7665725F 
 4367 0067 636F6E74 		.ascii	"context\000"
 4367      65787400 
 4368 006f 00       		.space	1
 4369              	.LC7:
 4370 0070 6F6E5F6D 		.ascii	"on_message_sender_state_changed called with NULL co"
 4370      65737361 
 4370      67655F73 
 4370      656E6465 
 4370      725F7374 
 4371 00a3 6E746578 		.ascii	"ntext\000"
 4371      7400
 4372 00a9 000000   		.space	3
 4373              	.LC11:
 4374 00ac 43616E6E 		.ascii	"Cannot copy status code key name\000"
 4374      6F742063 
 4374      6F707920 
 4374      73746174 
 4374      75732063 
 4375 00cd 000000   		.space	3
 4376              	.LC15:
 4377 00d0 43616E6E 		.ascii	"Cannot copy status description key name\000"
 4377      6F742063 
 4377      6F707920 
 4377      73746174 
 4377      75732064 
 4378              	.LC19:
 4379 00f8 4E554C4C 		.ascii	"NULL context\000"
 4379      20636F6E 
 4379      74657874 
 4379      00
 4380 0105 000000   		.space	3
ARM GAS  C:\Users\Phuong\AppData\Local\Temp\ccdTtd1y.s 			page 107


 4381              	.LC21:
 4382 0108 43616E6E 		.ascii	"Cannot remove pending operation\000"
 4382      6F742072 
 4382      656D6F76 
 4382      65207065 
 4382      6E64696E 
 4383              	.LC25:
 4384 0128 4E554C4C 		.ascii	"NULL context in on_message_received\000"
 4384      20636F6E 
 4384      74657874 
 4384      20696E20 
 4384      6F6E5F6D 
 4385              	.LC27:
 4386 014c 436F756C 		.ascii	"Could not retrieve application properties\000"
 4386      64206E6F 
 4386      74207265 
 4386      74726965 
 4386      76652061 
 4387 0176 0000     		.space	2
 4388              	.LC29:
 4389 0178 436F756C 		.ascii	"Could not get application properties on AMQP manage"
 4389      64206E6F 
 4389      74206765 
 4389      74206170 
 4389      706C6963 
 4390 01ab 6D656E74 		.ascii	"ment response.\000"
 4390      20726573 
 4390      706F6E73 
 4390      652E00
 4391 01ba 0000     		.space	2
 4392              	.LC31:
 4393 01bc 616D7170 		.ascii	"amqp:internal-error\000"
 4393      3A696E74 
 4393      65726E61 
 4393      6C2D6572 
 4393      726F7200 
 4394              	.LC33:
 4395 01d0 436F756C 		.ascii	"Could not retrieve message properties\000"
 4395      64206E6F 
 4395      74207265 
 4395      74726965 
 4395      7665206D 
 4396 01f6 0000     		.space	2
 4397              	.LC35:
 4398 01f8 436F756C 		.ascii	"Could not get message properties on AMQP management"
 4398      64206E6F 
 4398      74206765 
 4398      74206D65 
 4398      73736167 
 4399 022b 20726573 		.ascii	" response.\000"
 4399      706F6E73 
 4399      652E00
 4400 0236 0000     		.space	2
 4401              	.LC37:
 4402 0238 436F756C 		.ascii	"Could not retrieve correlation Id\000"
 4402      64206E6F 
 4402      74207265 
ARM GAS  C:\Users\Phuong\AppData\Local\Temp\ccdTtd1y.s 			page 108


 4402      74726965 
 4402      76652063 
 4403 025a 0000     		.space	2
 4404              	.LC39:
 4405 025c 436F756C 		.ascii	"Could not get correlation Id from AMQP management r"
 4405      64206E6F 
 4405      74206765 
 4405      7420636F 
 4405      7272656C 
 4406 028f 6573706F 		.ascii	"esponse.\000"
 4406      6E73652E 
 4406      00
 4407              	.LC41:
 4408 0298 436F756C 		.ascii	"Could not retrieve correlation Id ulong value\000"
 4408      64206E6F 
 4408      74207265 
 4408      74726965 
 4408      76652063 
 4409 02c6 0000     		.space	2
 4410              	.LC43:
 4411 02c8 436F756C 		.ascii	"Could not retrieve application property map\000"
 4411      64206E6F 
 4411      74207265 
 4411      74726965 
 4411      76652061 
 4412              	.LC45:
 4413 02f4 436F756C 		.ascii	"Could not get application property map from the app"
 4413      64206E6F 
 4413      74206765 
 4413      74206170 
 4413      706C6963 
 4414 0327 6C696361 		.ascii	"lication properties in the AMQP management response"
 4414      74696F6E 
 4414      2070726F 
 4414      70657274 
 4414      69657320 
 4415 035a 2E00     		.ascii	".\000"
 4416              	.LC47:
 4417 035c 436F756C 		.ascii	"Could not create status-code amqp value\000"
 4417      64206E6F 
 4417      74206372 
 4417      65617465 
 4417      20737461 
 4418              	.LC49:
 4419 0384 436F756C 		.ascii	"Could not retrieve status code from application pro"
 4419      64206E6F 
 4419      74207265 
 4419      74726965 
 4419      76652073 
 4420 03b7 70657274 		.ascii	"perties\000"
 4420      69657300 
 4421 03bf 00       		.space	1
 4422              	.LC51:
 4423 03c0 436F756C 		.ascii	"Could not retrieve status code from the application"
 4423      64206E6F 
 4423      74207265 
 4423      74726965 
ARM GAS  C:\Users\Phuong\AppData\Local\Temp\ccdTtd1y.s 			page 109


 4423      76652073 
 4424 03f3 2070726F 		.ascii	" properties in the AMQP management response.\000"
 4424      70657274 
 4424      69657320 
 4424      696E2074 
 4424      68652041 
 4425              	.LC53:
 4426 0420 436F756C 		.ascii	"Could not retrieve status code int value\000"
 4426      64206E6F 
 4426      74207265 
 4426      74726965 
 4426      76652073 
 4427 0449 000000   		.space	3
 4428              	.LC55:
 4429 044c 436F756C 		.ascii	"Could not retrieve status code value from the appli"
 4429      64206E6F 
 4429      74207265 
 4429      74726965 
 4429      76652073 
 4430 047f 63617469 		.ascii	"cation properties in the AMQP management response.\000"
 4430      6F6E2070 
 4430      726F7065 
 4430      72746965 
 4430      7320696E 
 4431 04b2 0000     		.space	2
 4432              	.LC57:
 4433 04b4 436F756C 		.ascii	"Could not create status-description amqp value\000"
 4433      64206E6F 
 4433      74206372 
 4433      65617465 
 4433      20737461 
 4434 04e3 00       		.space	1
 4435              	.LC60:
 4436 04e4 436F756C 		.ascii	"Could not match AMQP management response to request"
 4436      64206E6F 
 4436      74206D61 
 4436      74636820 
 4436      414D5150 
 4437 0517 00       		.ascii	"\000"
 4438              	.LC64:
 4439 0518 436F756C 		.ascii	"Could not create key value for %s\000"
 4439      64206E6F 
 4439      74206372 
 4439      65617465 
 4439      206B6579 
 4440 053a 0000     		.space	2
 4441              	.LC66:
 4442 053c 436F756C 		.ascii	"Could not create value for key %s\000"
 4442      64206E6F 
 4442      74206372 
 4442      65617465 
 4442      2076616C 
 4443 055e 0000     		.space	2
 4444              	.LC68:
 4445 0560 436F756C 		.ascii	"Could not set the value in the map for key %s\000"
 4445      64206E6F 
 4445      74207365 
ARM GAS  C:\Users\Phuong\AppData\Local\Temp\ccdTtd1y.s 			page 110


 4445      74207468 
 4445      65207661 
 4446 058e 0000     		.space	2
 4447              	.LC73:
 4448 0590 436F756C 		.ascii	"Could not create message properties\000"
 4448      64206E6F 
 4448      74206372 
 4448      65617465 
 4448      206D6573 
 4449              	.LC75:
 4450 05b4 436F756C 		.ascii	"Could not create message id value\000"
 4450      64206E6F 
 4450      74206372 
 4450      65617465 
 4450      206D6573 
 4451 05d6 0000     		.space	2
 4452              	.LC77:
 4453 05d8 436F756C 		.ascii	"Could not set message Id on the properties\000"
 4453      64206E6F 
 4453      74207365 
 4453      74206D65 
 4453      73736167 
 4454 0603 00       		.space	1
 4455              	.LC79:
 4456 0604 436F756C 		.ascii	"Could not set message properties\000"
 4456      64206E6F 
 4456      74207365 
 4456      74206D65 
 4456      73736167 
 4457 0625 000000   		.space	3
 4458              	.LC83:
 4459 0628 42616420 		.ascii	"Bad arguments: session = %p, management_node = %p\000"
 4459      61726775 
 4459      6D656E74 
 4459      733A2073 
 4459      65737369 
 4460 065a 0000     		.space	2
 4461              	.LC85:
 4462 065c 456D7074 		.ascii	"Empty string management node\000"
 4462      79207374 
 4462      72696E67 
 4462      206D616E 
 4462      6167656D 
 4463 0679 000000   		.space	3
 4464              	.LC87:
 4465 067c 43616E6E 		.ascii	"Cannot allocate memory for AMQP management handle\000"
 4465      6F742061 
 4465      6C6C6F63 
 4465      61746520 
 4465      6D656D6F 
 4466 06ae 0000     		.space	2
 4467              	.LC89:
 4468 06b0 43616E6E 		.ascii	"Cannot create pending operations list\000"
 4468      6F742063 
 4468      72656174 
 4468      65207065 
 4468      6E64696E 
ARM GAS  C:\Users\Phuong\AppData\Local\Temp\ccdTtd1y.s 			page 111


 4469 06d6 0000     		.space	2
 4470              	.LC91:
 4471 06d8 73746174 		.ascii	"statusCode\000"
 4471      7573436F 
 4471      646500
 4472 06e3 00       		.space	1
 4473              	.LC93:
 4474 06e4 43616E6E 		.ascii	"Cannot set status code key name\000"
 4474      6F742073 
 4474      65742073 
 4474      74617475 
 4474      7320636F 
 4475              	.LC95:
 4476 0704 73746174 		.ascii	"statusDescription\000"
 4476      75734465 
 4476      73637269 
 4476      7074696F 
 4476      6E00
 4477 0716 0000     		.space	2
 4478              	.LC97:
 4479 0718 43616E6E 		.ascii	"Cannot set status description key name\000"
 4479      6F742073 
 4479      65742073 
 4479      74617475 
 4479      73206465 
 4480 073f 00       		.space	1
 4481              	.LC99:
 4482 0740 4661696C 		.ascii	"Failed creating source AMQP value\000"
 4482      65642063 
 4482      72656174 
 4482      696E6720 
 4482      736F7572 
 4483 0762 0000     		.space	2
 4484              	.LC101:
 4485 0764 4661696C 		.ascii	"Failed creating target AMQP value\000"
 4485      65642063 
 4485      72656174 
 4485      696E6720 
 4485      74617267 
 4486 0786 0000     		.space	2
 4487              	.LC103:
 4488 0788 4661696C 		.ascii	"Failed allocating memory for sender link name\000"
 4488      65642061 
 4488      6C6C6F63 
 4488      6174696E 
 4488      67206D65 
 4489 07b6 0000     		.space	2
 4490              	.LC107:
 4491 07b8 4661696C 		.ascii	"Failed allocating memory for receiver link name\000"
 4491      65642061 
 4491      6C6C6F63 
 4491      6174696E 
 4491      67206D65 
 4492              	.LC111:
 4493 07e8 4661696C 		.ascii	"Failed creating sender link\000"
 4493      65642063 
 4493      72656174 
ARM GAS  C:\Users\Phuong\AppData\Local\Temp\ccdTtd1y.s 			page 112


 4493      696E6720 
 4493      73656E64 
 4494              	.LC113:
 4495 0804 4661696C 		.ascii	"Failed creating receiver link\000"
 4495      65642063 
 4495      72656174 
 4495      696E6720 
 4495      72656365 
 4496 0822 0000     		.space	2
 4497              	.LC116:
 4498 0824 4661696C 		.ascii	"Failed creating message sender\000"
 4498      65642063 
 4498      72656174 
 4498      696E6720 
 4498      6D657373 
 4499 0843 00       		.space	1
 4500              	.LC119:
 4501 0844 4661696C 		.ascii	"Failed creating message receiver\000"
 4501      65642063 
 4501      72656174 
 4501      696E6720 
 4501      6D657373 
 4502 0865 000000   		.space	3
 4503              	.LC105:
 4504 0868 2D73656E 		.ascii	"-sender\000"
 4504      64657200 
 4505              	.LC109:
 4506 0870 2D726563 		.ascii	"-receiver\000"
 4506      65697665 
 4506      7200
 4507 087a 0000     		.space	2
 4508              	.LC123:
 4509 087c 50534F43 		.ascii	"PSOC6---DEBUGGING_amqp_management_open_async---PSOC"
 4509      362D2D2D 
 4509      44454255 
 4509      4747494E 
 4509      475F616D 
 4510 08af 3600     		.ascii	"6\000"
 4511 08b1 000000   		.space	3
 4512              	.LC125:
 4513 08b4 42616420 		.ascii	"Bad arguments: amqp_management = %p, on_amqp_manage"
 4513      61726775 
 4513      6D656E74 
 4513      733A2061 
 4513      6D71705F 
 4514 08e7 6D656E74 		.ascii	"ment_open_complete = %p, on_amqp_management_error ="
 4514      5F6F7065 
 4514      6E5F636F 
 4514      6D706C65 
 4514      7465203D 
 4515 091a 20257000 		.ascii	" %p\000"
 4516 091e 0000     		.space	2
 4517              	.LC127:
 4518 0920 50534F43 		.ascii	"PSOC6---AMQP management instance already OPEN---PSO"
 4518      362D2D2D 
 4518      414D5150 
 4518      206D616E 
ARM GAS  C:\Users\Phuong\AppData\Local\Temp\ccdTtd1y.s 			page 113


 4518      6167656D 
 4519 0953 433600   		.ascii	"C6\000"
 4520 0956 0000     		.space	2
 4521              	.LC130:
 4522 0958 50534F43 		.ascii	"PSOC6---Failed opening message receiver---PSOC6\000"
 4522      362D2D2D 
 4522      4661696C 
 4522      6564206F 
 4522      70656E69 
 4523              	.LC132:
 4524 0988 50534F43 		.ascii	"PSOC6---Failed opening message sender---PSOC6\000"
 4524      362D2D2D 
 4524      4661696C 
 4524      6564206F 
 4524      70656E69 
 4525 09b6 0000     		.space	2
 4526              	.LC134:
 4527 09b8 50534F43 		.ascii	"PSOC6---Opening_message_sender_successfully---PSOC6"
 4527      362D2D2D 
 4527      4F70656E 
 4527      696E675F 
 4527      6D657373 
 4528 09eb 00       		.ascii	"\000"
 4529              	.LC138:
 4530 09ec 4E554C4C 		.ascii	"NULL amqp_management\000"
 4530      20616D71 
 4530      705F6D61 
 4530      6E616765 
 4530      6D656E74 
 4531 0a01 000000   		.space	3
 4532              	.LC140:
 4533 0a04 50534F43 		.ascii	"PSOC6---AMQP management instance not open---PSOC6\000"
 4533      362D2D2D 
 4533      414D5150 
 4533      206D616E 
 4533      6167656D 
 4534 0a36 0000     		.space	2
 4535              	.LC142:
 4536 0a38 6D657373 		.ascii	"messagesender_close failed\000"
 4536      61676573 
 4536      656E6465 
 4536      725F636C 
 4536      6F736520 
 4537 0a53 00       		.space	1
 4538              	.LC144:
 4539 0a54 6D657373 		.ascii	"messagereceiver_close failed\000"
 4539      61676572 
 4539      65636569 
 4539      7665725F 
 4539      636C6F73 
 4540 0a71 000000   		.space	3
 4541              	.LC146:
 4542 0a74 43616E6E 		.ascii	"Cannot obtain pending operation\000"
 4542      6F74206F 
 4542      62746169 
 4542      6E207065 
 4542      6E64696E 
ARM GAS  C:\Users\Phuong\AppData\Local\Temp\ccdTtd1y.s 			page 114


 4543              	.LC148:
 4544 0a94 43616E6E 		.ascii	"Cannot remove item\000"
 4544      6F742072 
 4544      656D6F76 
 4544      65206974 
 4544      656D00
 4545 0aa7 00       		.space	1
 4546              	.LC155:
 4547 0aa8 42616420 		.ascii	"Bad arguments: amqp_management = %p, operation = %p"
 4547      61726775 
 4547      6D656E74 
 4547      733A2061 
 4547      6D71705F 
 4548 0adb 2C207479 		.ascii	", type = %p\000"
 4548      7065203D 
 4548      20257000 
 4549 0ae7 00       		.space	1
 4550              	.LC157:
 4551 0ae8 616D7170 		.ascii	"amqp_management_execute_operation_async called whil"
 4551      5F6D616E 
 4551      6167656D 
 4551      656E745F 
 4551      65786563 
 4552 0b1b 65206E6F 		.ascii	"e not open or in error\000"
 4552      74206F70 
 4552      656E206F 
 4552      7220696E 
 4552      20657272 
 4553 0b32 0000     		.space	2
 4554              	.LC159:
 4555 0b34 436F756C 		.ascii	"Could not clone message\000"
 4555      64206E6F 
 4555      7420636C 
 4555      6F6E6520 
 4555      6D657373 
 4556              	.LC161:
 4557 0b4c 436F756C 		.ascii	"Could not get application properties\000"
 4557      64206E6F 
 4557      74206765 
 4557      74206170 
 4557      706C6963 
 4558 0b71 000000   		.space	3
 4559              	.LC163:
 4560 0b74 436F756C 		.ascii	"Could not create application properties\000"
 4560      64206E6F 
 4560      74206372 
 4560      65617465 
 4560      20617070 
 4561              	.LC165:
 4562 0b9c 6F706572 		.ascii	"operation\000"
 4562      6174696F 
 4562      6E00
 4563 0ba6 0000     		.space	2
 4564              	.LC167:
 4565 0ba8 74797065 		.ascii	"type\000"
 4565      00
 4566 0bad 000000   		.space	3
ARM GAS  C:\Users\Phuong\AppData\Local\Temp\ccdTtd1y.s 			page 115


 4567              	.LC169:
 4568 0bb0 6C6F6361 		.ascii	"locales\000"
 4568      6C657300 
 4569              	.LC171:
 4570 0bb8 436F756C 		.ascii	"Could not set application properties\000"
 4570      64206E6F 
 4570      74207365 
 4570      74206170 
 4570      706C6963 
 4571 0bdd 000000   		.space	3
 4572              	.LC173:
 4573 0be0 436F756C 		.ascii	"Could not add the operation to the pending operatio"
 4573      64206E6F 
 4573      74206164 
 4573      64207468 
 4573      65206F70 
 4574 0c13 6E73206C 		.ascii	"ns list.\000"
 4574      6973742E 
 4574      00
 4575              	.LC176:
 4576 0c1c 436F756C 		.ascii	"Could not send request message\000"
 4576      64206E6F 
 4576      74207365 
 4576      6E642072 
 4576      65717565 
 4577 0c3b 00       		.space	1
 4578              	.LC181:
 4579 0c3c 4E554C4C 		.ascii	"NULL\000"
 4579      00
 4580 0c41 000000   		.space	3
 4581              	.LC185:
 4582 0c44 42616420 		.ascii	"Bad arguments: amqp_management = %p, override_statu"
 4582      61726775 
 4582      6D656E74 
 4582      733A2061 
 4582      6D71705F 
 4583 0c77 735F636F 		.ascii	"s_code_key_name = %s\000"
 4583      64655F6B 
 4583      65795F6E 
 4583      616D6520 
 4583      3D202573 
 4584              	.LC191:
 4585 0c8c 42616420 		.ascii	"Bad arguments: amqp_management = %p, override_statu"
 4585      61726775 
 4585      6D656E74 
 4585      733A2061 
 4585      6D71705F 
 4586 0cbf 735F6465 		.ascii	"s_description_key_name = %s\000"
 4586      73637269 
 4586      7074696F 
 4586      6E5F6B65 
 4586      795F6E61 
 4587              		.text
 4588              	.Letext0:
 4589              		.file 2 "c:\\program files (x86)\\cypress\\psoc creator\\4.2\\psoc creator\\import\\gnu\\arm\\5.4.
 4590              		.file 3 "c:\\program files (x86)\\cypress\\psoc creator\\4.2\\psoc creator\\import\\gnu\\arm\\5.4.
 4591              		.file 4 "c:\\program files (x86)\\cypress\\psoc creator\\4.2\\psoc creator\\import\\gnu\\arm\\5.4.
ARM GAS  C:\Users\Phuong\AppData\Local\Temp\ccdTtd1y.s 			page 116


 4592              		.file 5 ".\\Source\\azure_iot_sdk\\c-utility\\inc/azure_c_shared_utility/singlylinkedlist.h"
 4593              		.file 6 ".\\Source\\azure_iot_sdk\\c-utility\\inc/azure_c_shared_utility/xlogging.h"
 4594              		.file 7 ".\\Source\\azure_iot_sdk\\uamqp\\inc/azure_uamqp_c/amqpvalue.h"
 4595              		.file 8 ".\\Source\\azure_iot_sdk\\uamqp\\inc/azure_uamqp_c/session.h"
 4596              		.file 9 ".\\Source\\azure_iot_sdk\\uamqp\\inc/azure_uamqp_c/amqp_definitions_properties.h"
 4597              		.file 10 ".\\Source\\azure_iot_sdk\\uamqp\\inc/azure_uamqp_c/message.h"
 4598              		.file 11 ".\\Source\\azure_iot_sdk\\uamqp\\inc/azure_uamqp_c/amqp_management.h"
 4599              		.file 12 ".\\Source\\azure_iot_sdk\\uamqp\\inc/azure_uamqp_c/link.h"
 4600              		.file 13 ".\\Source\\azure_iot_sdk\\uamqp\\inc/azure_uamqp_c/message_sender.h"
 4601              		.file 14 ".\\Source\\azure_iot_sdk\\uamqp\\inc/azure_uamqp_c/message_receiver.h"
 4602              		.file 15 ".\\Source\\azure_iot_sdk\\c-utility\\inc/azure_c_shared_utility/crt_abstractions.h"
 4603              		.file 16 "c:\\program files (x86)\\cypress\\psoc creator\\4.2\\psoc creator\\import\\gnu\\arm\\5.4
 4604              		.file 17 ".\\Source\\azure_iot_sdk\\uamqp\\inc/azure_uamqp_c/messaging.h"
 4605              		.file 18 ".\\Source\\azure_iot_sdk\\uamqp\\inc/azure_uamqp_c/amqp_definitions_message_id_ulong.h"
 4606              		.file 19 "c:\\program files (x86)\\cypress\\psoc creator\\4.2\\psoc creator\\import\\gnu\\arm\\5.4
 4607              		.section	.debug_info,"",%progbits
 4608              	.Ldebug_info0:
 4609 0000 4D340000 		.4byte	0x344d
 4610 0004 0400     		.2byte	0x4
 4611 0006 00000000 		.4byte	.Ldebug_abbrev0
 4612 000a 04       		.byte	0x4
 4613 000b 01       		.uleb128 0x1
 4614 000c 460E0000 		.4byte	.LASF222
 4615 0010 0C       		.byte	0xc
 4616 0011 BB050000 		.4byte	.LASF223
 4617 0015 6B040000 		.4byte	.LASF224
 4618 0019 70000000 		.4byte	.Ldebug_ranges0+0x70
 4619 001d 00000000 		.4byte	0
 4620 0021 00000000 		.4byte	.Ldebug_line0
 4621 0025 02       		.uleb128 0x2
 4622 0026 08       		.byte	0x8
 4623 0027 07       		.byte	0x7
 4624 0028 2D030000 		.4byte	.LASF0
 4625 002c 03       		.uleb128 0x3
 4626 002d 85000000 		.4byte	.LASF8
 4627 0031 02       		.byte	0x2
 4628 0032 D8       		.byte	0xd8
 4629 0033 37000000 		.4byte	0x37
 4630 0037 02       		.uleb128 0x2
 4631 0038 04       		.byte	0x4
 4632 0039 07       		.byte	0x7
 4633 003a B4060000 		.4byte	.LASF1
 4634 003e 04       		.uleb128 0x4
 4635 003f 04       		.byte	0x4
 4636 0040 05       		.byte	0x5
 4637 0041 696E7400 		.ascii	"int\000"
 4638 0045 02       		.uleb128 0x2
 4639 0046 08       		.byte	0x8
 4640 0047 05       		.byte	0x5
 4641 0048 FC020000 		.4byte	.LASF2
 4642 004c 02       		.uleb128 0x2
 4643 004d 08       		.byte	0x8
 4644 004e 04       		.byte	0x4
 4645 004f E60E0000 		.4byte	.LASF3
 4646 0053 02       		.uleb128 0x2
 4647 0054 01       		.byte	0x1
 4648 0055 06       		.byte	0x6
ARM GAS  C:\Users\Phuong\AppData\Local\Temp\ccdTtd1y.s 			page 117


 4649 0056 0A030000 		.4byte	.LASF4
 4650 005a 02       		.uleb128 0x2
 4651 005b 01       		.byte	0x1
 4652 005c 08       		.byte	0x8
 4653 005d BE0B0000 		.4byte	.LASF5
 4654 0061 02       		.uleb128 0x2
 4655 0062 02       		.byte	0x2
 4656 0063 05       		.byte	0x5
 4657 0064 300C0000 		.4byte	.LASF6
 4658 0068 02       		.uleb128 0x2
 4659 0069 02       		.byte	0x2
 4660 006a 07       		.byte	0x7
 4661 006b 75070000 		.4byte	.LASF7
 4662 006f 03       		.uleb128 0x3
 4663 0070 12100000 		.4byte	.LASF9
 4664 0074 03       		.byte	0x3
 4665 0075 3F       		.byte	0x3f
 4666 0076 7A000000 		.4byte	0x7a
 4667 007a 02       		.uleb128 0x2
 4668 007b 04       		.byte	0x4
 4669 007c 05       		.byte	0x5
 4670 007d 0B040000 		.4byte	.LASF10
 4671 0081 02       		.uleb128 0x2
 4672 0082 04       		.byte	0x4
 4673 0083 07       		.byte	0x7
 4674 0084 21070000 		.4byte	.LASF11
 4675 0088 03       		.uleb128 0x3
 4676 0089 450B0000 		.4byte	.LASF12
 4677 008d 03       		.byte	0x3
 4678 008e 5B       		.byte	0x5b
 4679 008f 25000000 		.4byte	0x25
 4680 0093 02       		.uleb128 0x2
 4681 0094 04       		.byte	0x4
 4682 0095 07       		.byte	0x7
 4683 0096 8F090000 		.4byte	.LASF13
 4684 009a 05       		.uleb128 0x5
 4685 009b 04       		.byte	0x4
 4686 009c 06       		.uleb128 0x6
 4687 009d 04       		.byte	0x4
 4688 009e A2000000 		.4byte	0xa2
 4689 00a2 02       		.uleb128 0x2
 4690 00a3 01       		.byte	0x1
 4691 00a4 08       		.byte	0x8
 4692 00a5 1F0F0000 		.4byte	.LASF14
 4693 00a9 06       		.uleb128 0x6
 4694 00aa 04       		.byte	0x4
 4695 00ab AF000000 		.4byte	0xaf
 4696 00af 07       		.uleb128 0x7
 4697 00b0 A2000000 		.4byte	0xa2
 4698 00b4 06       		.uleb128 0x6
 4699 00b5 04       		.byte	0x4
 4700 00b6 BA000000 		.4byte	0xba
 4701 00ba 08       		.uleb128 0x8
 4702 00bb 03       		.uleb128 0x3
 4703 00bc B60B0000 		.4byte	.LASF15
 4704 00c0 04       		.byte	0x4
 4705 00c1 2C       		.byte	0x2c
ARM GAS  C:\Users\Phuong\AppData\Local\Temp\ccdTtd1y.s 			page 118


 4706 00c2 6F000000 		.4byte	0x6f
 4707 00c6 03       		.uleb128 0x3
 4708 00c7 A4000000 		.4byte	.LASF16
 4709 00cb 04       		.byte	0x4
 4710 00cc 3C       		.byte	0x3c
 4711 00cd 88000000 		.4byte	0x88
 4712 00d1 03       		.uleb128 0x3
 4713 00d2 90020000 		.4byte	.LASF17
 4714 00d6 05       		.byte	0x5
 4715 00d7 0F       		.byte	0xf
 4716 00d8 DC000000 		.4byte	0xdc
 4717 00dc 06       		.uleb128 0x6
 4718 00dd 04       		.byte	0x4
 4719 00de E2000000 		.4byte	0xe2
 4720 00e2 09       		.uleb128 0x9
 4721 00e3 4C070000 		.4byte	.LASF19
 4722 00e7 03       		.uleb128 0x3
 4723 00e8 D9060000 		.4byte	.LASF18
 4724 00ec 05       		.byte	0x5
 4725 00ed 10       		.byte	0x10
 4726 00ee F2000000 		.4byte	0xf2
 4727 00f2 06       		.uleb128 0x6
 4728 00f3 04       		.byte	0x4
 4729 00f4 F8000000 		.4byte	0xf8
 4730 00f8 09       		.uleb128 0x9
 4731 00f9 1B090000 		.4byte	.LASF20
 4732 00fd 02       		.uleb128 0x2
 4733 00fe 01       		.byte	0x1
 4734 00ff 02       		.byte	0x2
 4735 0100 B00B0000 		.4byte	.LASF21
 4736 0104 0A       		.uleb128 0xa
 4737 0105 C4130000 		.4byte	.LASF35
 4738 0109 01       		.byte	0x1
 4739 010a 5A000000 		.4byte	0x5a
 4740 010e 06       		.byte	0x6
 4741 010f 22       		.byte	0x22
 4742 0110 27010000 		.4byte	0x127
 4743 0114 0B       		.uleb128 0xb
 4744 0115 380B0000 		.4byte	.LASF22
 4745 0119 00       		.byte	0
 4746 011a 0B       		.uleb128 0xb
 4747 011b 45140000 		.4byte	.LASF23
 4748 011f 01       		.byte	0x1
 4749 0120 0B       		.uleb128 0xb
 4750 0121 78000000 		.4byte	.LASF24
 4751 0125 02       		.byte	0x2
 4752 0126 00       		.byte	0
 4753 0127 03       		.uleb128 0x3
 4754 0128 500B0000 		.4byte	.LASF25
 4755 012c 06       		.byte	0x6
 4756 012d 27       		.byte	0x27
 4757 012e 04010000 		.4byte	0x104
 4758 0132 03       		.uleb128 0x3
 4759 0133 6A070000 		.4byte	.LASF26
 4760 0137 06       		.byte	0x6
 4761 0138 2F       		.byte	0x2f
 4762 0139 3D010000 		.4byte	0x13d
ARM GAS  C:\Users\Phuong\AppData\Local\Temp\ccdTtd1y.s 			page 119


 4763 013d 06       		.uleb128 0x6
 4764 013e 04       		.byte	0x4
 4765 013f 43010000 		.4byte	0x143
 4766 0143 0C       		.uleb128 0xc
 4767 0144 68010000 		.4byte	0x168
 4768 0148 0D       		.uleb128 0xd
 4769 0149 27010000 		.4byte	0x127
 4770 014d 0D       		.uleb128 0xd
 4771 014e A9000000 		.4byte	0xa9
 4772 0152 0D       		.uleb128 0xd
 4773 0153 A9000000 		.4byte	0xa9
 4774 0157 0D       		.uleb128 0xd
 4775 0158 3E000000 		.4byte	0x3e
 4776 015c 0D       		.uleb128 0xd
 4777 015d 37000000 		.4byte	0x37
 4778 0161 0D       		.uleb128 0xd
 4779 0162 A9000000 		.4byte	0xa9
 4780 0166 0E       		.uleb128 0xe
 4781 0167 00       		.byte	0
 4782 0168 03       		.uleb128 0x3
 4783 0169 040A0000 		.4byte	.LASF27
 4784 016d 07       		.byte	0x7
 4785 016e 15       		.byte	0x15
 4786 016f 73010000 		.4byte	0x173
 4787 0173 06       		.uleb128 0x6
 4788 0174 04       		.byte	0x4
 4789 0175 79010000 		.4byte	0x179
 4790 0179 09       		.uleb128 0x9
 4791 017a 78130000 		.4byte	.LASF28
 4792 017e 06       		.uleb128 0x6
 4793 017f 04       		.byte	0x4
 4794 0180 84010000 		.4byte	0x184
 4795 0184 0C       		.uleb128 0xc
 4796 0185 8F010000 		.4byte	0x18f
 4797 0189 0D       		.uleb128 0xd
 4798 018a 9A000000 		.4byte	0x9a
 4799 018e 00       		.byte	0
 4800 018f 03       		.uleb128 0x3
 4801 0190 FC030000 		.4byte	.LASF29
 4802 0194 08       		.byte	0x8
 4803 0195 26       		.byte	0x26
 4804 0196 9A010000 		.4byte	0x19a
 4805 019a 06       		.uleb128 0x6
 4806 019b 04       		.byte	0x4
 4807 019c A0010000 		.4byte	0x1a0
 4808 01a0 09       		.uleb128 0x9
 4809 01a1 E7030000 		.4byte	.LASF30
 4810 01a5 03       		.uleb128 0x3
 4811 01a6 250A0000 		.4byte	.LASF31
 4812 01aa 09       		.byte	0x9
 4813 01ab 18       		.byte	0x18
 4814 01ac B0010000 		.4byte	0x1b0
 4815 01b0 06       		.uleb128 0x6
 4816 01b1 04       		.byte	0x4
 4817 01b2 B6010000 		.4byte	0x1b6
 4818 01b6 09       		.uleb128 0x9
 4819 01b7 98090000 		.4byte	.LASF32
ARM GAS  C:\Users\Phuong\AppData\Local\Temp\ccdTtd1y.s 			page 120


 4820 01bb 03       		.uleb128 0x3
 4821 01bc C4120000 		.4byte	.LASF33
 4822 01c0 0A       		.byte	0xa
 4823 01c1 24       		.byte	0x24
 4824 01c2 C6010000 		.4byte	0x1c6
 4825 01c6 06       		.uleb128 0x6
 4826 01c7 04       		.byte	0x4
 4827 01c8 CC010000 		.4byte	0x1cc
 4828 01cc 09       		.uleb128 0x9
 4829 01cd 60060000 		.4byte	.LASF34
 4830 01d1 0A       		.uleb128 0xa
 4831 01d2 18140000 		.4byte	.LASF36
 4832 01d6 01       		.byte	0x1
 4833 01d7 5A000000 		.4byte	0x5a
 4834 01db 0B       		.byte	0xb
 4835 01dc 18       		.byte	0x18
 4836 01dd FA010000 		.4byte	0x1fa
 4837 01e1 0B       		.uleb128 0xb
 4838 01e2 3E020000 		.4byte	.LASF37
 4839 01e6 00       		.byte	0
 4840 01e7 0B       		.uleb128 0xb
 4841 01e8 88070000 		.4byte	.LASF38
 4842 01ec 01       		.byte	0x1
 4843 01ed 0B       		.uleb128 0xb
 4844 01ee 1C000000 		.4byte	.LASF39
 4845 01f2 02       		.byte	0x2
 4846 01f3 0B       		.uleb128 0xb
 4847 01f4 C3000000 		.4byte	.LASF40
 4848 01f8 03       		.byte	0x3
 4849 01f9 00       		.byte	0
 4850 01fa 03       		.uleb128 0x3
 4851 01fb E2010000 		.4byte	.LASF41
 4852 01ff 0B       		.byte	0xb
 4853 0200 18       		.byte	0x18
 4854 0201 D1010000 		.4byte	0x1d1
 4855 0205 0A       		.uleb128 0xa
 4856 0206 38120000 		.4byte	.LASF42
 4857 020a 01       		.byte	0x1
 4858 020b 5A000000 		.4byte	0x5a
 4859 020f 0B       		.byte	0xb
 4860 0210 1F       		.byte	0x1f
 4861 0211 28020000 		.4byte	0x228
 4862 0215 0B       		.uleb128 0xb
 4863 0216 8C000000 		.4byte	.LASF43
 4864 021a 00       		.byte	0
 4865 021b 0B       		.uleb128 0xb
 4866 021c 75010000 		.4byte	.LASF44
 4867 0220 01       		.byte	0x1
 4868 0221 0B       		.uleb128 0xb
 4869 0222 7F0C0000 		.4byte	.LASF45
 4870 0226 02       		.byte	0x2
 4871 0227 00       		.byte	0
 4872 0228 03       		.uleb128 0x3
 4873 0229 DA100000 		.4byte	.LASF46
 4874 022d 0B       		.byte	0xb
 4875 022e 1F       		.byte	0x1f
 4876 022f 05020000 		.4byte	0x205
ARM GAS  C:\Users\Phuong\AppData\Local\Temp\ccdTtd1y.s 			page 121


 4877 0233 03       		.uleb128 0x3
 4878 0234 97080000 		.4byte	.LASF47
 4879 0238 0B       		.byte	0xb
 4880 0239 21       		.byte	0x21
 4881 023a 3E020000 		.4byte	0x23e
 4882 023e 06       		.uleb128 0x6
 4883 023f 04       		.byte	0x4
 4884 0240 44020000 		.4byte	0x244
 4885 0244 0F       		.uleb128 0xf
 4886 0245 04060000 		.4byte	.LASF92
 4887 0249 40       		.byte	0x40
 4888 024a 01       		.byte	0x1
 4889 024b 2A       		.byte	0x2a
 4890 024c 0B030000 		.4byte	0x30b
 4891 0250 10       		.uleb128 0x10
 4892 0251 EC050000 		.4byte	.LASF48
 4893 0255 01       		.byte	0x1
 4894 0256 2C       		.byte	0x2c
 4895 0257 67030000 		.4byte	0x367
 4896 025b 00       		.byte	0
 4897 025c 10       		.uleb128 0x10
 4898 025d D80E0000 		.4byte	.LASF49
 4899 0261 01       		.byte	0x1
 4900 0262 2D       		.byte	0x2d
 4901 0263 67030000 		.4byte	0x367
 4902 0267 04       		.byte	0x4
 4903 0268 10       		.uleb128 0x10
 4904 0269 3A0C0000 		.4byte	.LASF50
 4905 026d 01       		.byte	0x1
 4906 026e 2E       		.byte	0x2e
 4907 026f EB030000 		.4byte	0x3eb
 4908 0273 08       		.byte	0x8
 4909 0274 10       		.uleb128 0x10
 4910 0275 750B0000 		.4byte	.LASF51
 4911 0279 01       		.byte	0x1
 4912 027a 2F       		.byte	0x2f
 4913 027b 3B040000 		.4byte	0x43b
 4914 027f 0C       		.byte	0xc
 4915 0280 10       		.uleb128 0x10
 4916 0281 6C050000 		.4byte	.LASF52
 4917 0285 01       		.byte	0x1
 4918 0286 30       		.byte	0x30
 4919 0287 D1000000 		.4byte	0xd1
 4920 028b 10       		.byte	0x10
 4921 028c 10       		.uleb128 0x10
 4922 028d D7030000 		.4byte	.LASF53
 4923 0291 01       		.byte	0x1
 4924 0292 31       		.byte	0x31
 4925 0293 C6000000 		.4byte	0xc6
 4926 0297 18       		.byte	0x18
 4927 0298 10       		.uleb128 0x10
 4928 0299 9D0A0000 		.4byte	.LASF54
 4929 029d 01       		.byte	0x1
 4930 029e 32       		.byte	0x32
 4931 029f 0B030000 		.4byte	0x30b
 4932 02a3 20       		.byte	0x20
 4933 02a4 10       		.uleb128 0x10
ARM GAS  C:\Users\Phuong\AppData\Local\Temp\ccdTtd1y.s 			page 122


 4934 02a5 110E0000 		.4byte	.LASF55
 4935 02a9 01       		.byte	0x1
 4936 02aa 33       		.byte	0x33
 4937 02ab 9A000000 		.4byte	0x9a
 4938 02af 24       		.byte	0x24
 4939 02b0 10       		.uleb128 0x10
 4940 02b1 970B0000 		.4byte	.LASF56
 4941 02b5 01       		.byte	0x1
 4942 02b6 34       		.byte	0x34
 4943 02b7 2C030000 		.4byte	0x32c
 4944 02bb 28       		.byte	0x28
 4945 02bc 10       		.uleb128 0x10
 4946 02bd 5A110000 		.4byte	.LASF57
 4947 02c1 01       		.byte	0x1
 4948 02c2 35       		.byte	0x35
 4949 02c3 9A000000 		.4byte	0x9a
 4950 02c7 2C       		.byte	0x2c
 4951 02c8 10       		.uleb128 0x10
 4952 02c9 FC0C0000 		.4byte	.LASF58
 4953 02cd 01       		.byte	0x1
 4954 02ce 36       		.byte	0x36
 4955 02cf C8040000 		.4byte	0x4c8
 4956 02d3 30       		.byte	0x30
 4957 02d4 10       		.uleb128 0x10
 4958 02d5 79100000 		.4byte	.LASF59
 4959 02d9 01       		.byte	0x1
 4960 02da 37       		.byte	0x37
 4961 02db 9C000000 		.4byte	0x9c
 4962 02df 34       		.byte	0x34
 4963 02e0 10       		.uleb128 0x10
 4964 02e1 37080000 		.4byte	.LASF60
 4965 02e5 01       		.byte	0x1
 4966 02e6 38       		.byte	0x38
 4967 02e7 9C000000 		.4byte	0x9c
 4968 02eb 38       		.byte	0x38
 4969 02ec 11       		.uleb128 0x11
 4970 02ed 26110000 		.4byte	.LASF61
 4971 02f1 01       		.byte	0x1
 4972 02f2 39       		.byte	0x39
 4973 02f3 37000000 		.4byte	0x37
 4974 02f7 04       		.byte	0x4
 4975 02f8 01       		.byte	0x1
 4976 02f9 1F       		.byte	0x1f
 4977 02fa 3C       		.byte	0x3c
 4978 02fb 11       		.uleb128 0x11
 4979 02fc 41110000 		.4byte	.LASF62
 4980 0300 01       		.byte	0x1
 4981 0301 3A       		.byte	0x3a
 4982 0302 37000000 		.4byte	0x37
 4983 0306 04       		.byte	0x4
 4984 0307 01       		.byte	0x1
 4985 0308 1E       		.byte	0x1e
 4986 0309 3C       		.byte	0x3c
 4987 030a 00       		.byte	0
 4988 030b 03       		.uleb128 0x3
 4989 030c 9A050000 		.4byte	.LASF63
 4990 0310 0B       		.byte	0xb
ARM GAS  C:\Users\Phuong\AppData\Local\Temp\ccdTtd1y.s 			page 123


 4991 0311 22       		.byte	0x22
 4992 0312 16030000 		.4byte	0x316
 4993 0316 06       		.uleb128 0x6
 4994 0317 04       		.byte	0x4
 4995 0318 1C030000 		.4byte	0x31c
 4996 031c 0C       		.uleb128 0xc
 4997 031d 2C030000 		.4byte	0x32c
 4998 0321 0D       		.uleb128 0xd
 4999 0322 9A000000 		.4byte	0x9a
 5000 0326 0D       		.uleb128 0xd
 5001 0327 28020000 		.4byte	0x228
 5002 032b 00       		.byte	0
 5003 032c 03       		.uleb128 0x3
 5004 032d FF130000 		.4byte	.LASF64
 5005 0331 0B       		.byte	0xb
 5006 0332 23       		.byte	0x23
 5007 0333 7E010000 		.4byte	0x17e
 5008 0337 03       		.uleb128 0x3
 5009 0338 CA0D0000 		.4byte	.LASF65
 5010 033c 0B       		.byte	0xb
 5011 033d 24       		.byte	0x24
 5012 033e 42030000 		.4byte	0x342
 5013 0342 06       		.uleb128 0x6
 5014 0343 04       		.byte	0x4
 5015 0344 48030000 		.4byte	0x348
 5016 0348 0C       		.uleb128 0xc
 5017 0349 67030000 		.4byte	0x367
 5018 034d 0D       		.uleb128 0xd
 5019 034e 9A000000 		.4byte	0x9a
 5020 0352 0D       		.uleb128 0xd
 5021 0353 FA010000 		.4byte	0x1fa
 5022 0357 0D       		.uleb128 0xd
 5023 0358 37000000 		.4byte	0x37
 5024 035c 0D       		.uleb128 0xd
 5025 035d A9000000 		.4byte	0xa9
 5026 0361 0D       		.uleb128 0xd
 5027 0362 BB010000 		.4byte	0x1bb
 5028 0366 00       		.byte	0
 5029 0367 03       		.uleb128 0x3
 5030 0368 B8130000 		.4byte	.LASF66
 5031 036c 0C       		.byte	0xc
 5032 036d 17       		.byte	0x17
 5033 036e 72030000 		.4byte	0x372
 5034 0372 06       		.uleb128 0x6
 5035 0373 04       		.byte	0x4
 5036 0374 78030000 		.4byte	0x378
 5037 0378 09       		.uleb128 0x9
 5038 0379 6D080000 		.4byte	.LASF67
 5039 037d 0A       		.uleb128 0xa
 5040 037e 53040000 		.4byte	.LASF68
 5041 0382 01       		.byte	0x1
 5042 0383 5A000000 		.4byte	0x5a
 5043 0387 0D       		.byte	0xd
 5044 0388 1A       		.byte	0x1a
 5045 0389 A6030000 		.4byte	0x3a6
 5046 038d 0B       		.uleb128 0xb
 5047 038e 03080000 		.4byte	.LASF69
ARM GAS  C:\Users\Phuong\AppData\Local\Temp\ccdTtd1y.s 			page 124


 5048 0392 00       		.byte	0
 5049 0393 0B       		.uleb128 0xb
 5050 0394 4D060000 		.4byte	.LASF70
 5051 0398 01       		.byte	0x1
 5052 0399 0B       		.uleb128 0xb
 5053 039a 00000000 		.4byte	.LASF71
 5054 039e 02       		.byte	0x2
 5055 039f 0B       		.uleb128 0xb
 5056 03a0 E80A0000 		.4byte	.LASF72
 5057 03a4 03       		.byte	0x3
 5058 03a5 00       		.byte	0
 5059 03a6 03       		.uleb128 0x3
 5060 03a7 6E0D0000 		.4byte	.LASF73
 5061 03ab 0D       		.byte	0xd
 5062 03ac 1A       		.byte	0x1a
 5063 03ad 7D030000 		.4byte	0x37d
 5064 03b1 0A       		.uleb128 0xa
 5065 03b2 75060000 		.4byte	.LASF74
 5066 03b6 01       		.byte	0x1
 5067 03b7 5A000000 		.4byte	0x5a
 5068 03bb 0D       		.byte	0xd
 5069 03bc 23       		.byte	0x23
 5070 03bd E0030000 		.4byte	0x3e0
 5071 03c1 0B       		.uleb128 0xb
 5072 03c2 2C050000 		.4byte	.LASF75
 5073 03c6 00       		.byte	0
 5074 03c7 0B       		.uleb128 0xb
 5075 03c8 13080000 		.4byte	.LASF76
 5076 03cc 01       		.byte	0x1
 5077 03cd 0B       		.uleb128 0xb
 5078 03ce C3080000 		.4byte	.LASF77
 5079 03d2 02       		.byte	0x2
 5080 03d3 0B       		.uleb128 0xb
 5081 03d4 EE110000 		.4byte	.LASF78
 5082 03d8 03       		.byte	0x3
 5083 03d9 0B       		.uleb128 0xb
 5084 03da C30C0000 		.4byte	.LASF79
 5085 03de 04       		.byte	0x4
 5086 03df 00       		.byte	0
 5087 03e0 03       		.uleb128 0x3
 5088 03e1 46050000 		.4byte	.LASF80
 5089 03e5 0D       		.byte	0xd
 5090 03e6 23       		.byte	0x23
 5091 03e7 B1030000 		.4byte	0x3b1
 5092 03eb 03       		.uleb128 0x3
 5093 03ec ED070000 		.4byte	.LASF81
 5094 03f0 0D       		.byte	0xd
 5095 03f1 25       		.byte	0x25
 5096 03f2 F6030000 		.4byte	0x3f6
 5097 03f6 06       		.uleb128 0x6
 5098 03f7 04       		.byte	0x4
 5099 03f8 FC030000 		.4byte	0x3fc
 5100 03fc 09       		.uleb128 0x9
 5101 03fd 10050000 		.4byte	.LASF82
 5102 0401 0A       		.uleb128 0xa
 5103 0402 C0110000 		.4byte	.LASF83
 5104 0406 01       		.byte	0x1
ARM GAS  C:\Users\Phuong\AppData\Local\Temp\ccdTtd1y.s 			page 125


 5105 0407 5A000000 		.4byte	0x5a
 5106 040b 0E       		.byte	0xe
 5107 040c 1A       		.byte	0x1a
 5108 040d 30040000 		.4byte	0x430
 5109 0411 0B       		.uleb128 0xb
 5110 0412 330D0000 		.4byte	.LASF84
 5111 0416 00       		.byte	0
 5112 0417 0B       		.uleb128 0xb
 5113 0418 4F0D0000 		.4byte	.LASF85
 5114 041c 01       		.byte	0x1
 5115 041d 0B       		.uleb128 0xb
 5116 041e CC0B0000 		.4byte	.LASF86
 5117 0422 02       		.byte	0x2
 5118 0423 0B       		.uleb128 0xb
 5119 0424 B8030000 		.4byte	.LASF87
 5120 0428 03       		.byte	0x3
 5121 0429 0B       		.uleb128 0xb
 5122 042a 9B120000 		.4byte	.LASF88
 5123 042e 04       		.byte	0x4
 5124 042f 00       		.byte	0
 5125 0430 03       		.uleb128 0x3
 5126 0431 21060000 		.4byte	.LASF89
 5127 0435 0E       		.byte	0xe
 5128 0436 1A       		.byte	0x1a
 5129 0437 01040000 		.4byte	0x401
 5130 043b 03       		.uleb128 0x3
 5131 043c 63020000 		.4byte	.LASF90
 5132 0440 0E       		.byte	0xe
 5133 0441 1C       		.byte	0x1c
 5134 0442 46040000 		.4byte	0x446
 5135 0446 06       		.uleb128 0x6
 5136 0447 04       		.byte	0x4
 5137 0448 4C040000 		.4byte	0x44c
 5138 044c 09       		.uleb128 0x9
 5139 044d 5A130000 		.4byte	.LASF91
 5140 0451 0F       		.uleb128 0xf
 5141 0452 1C100000 		.4byte	.LASF93
 5142 0456 18       		.byte	0x18
 5143 0457 01       		.byte	0x1
 5144 0458 19       		.byte	0x19
 5145 0459 8E040000 		.4byte	0x48e
 5146 045d 10       		.uleb128 0x10
 5147 045e 3F010000 		.4byte	.LASF94
 5148 0462 01       		.byte	0x1
 5149 0463 1B       		.byte	0x1b
 5150 0464 37030000 		.4byte	0x337
 5151 0468 00       		.byte	0
 5152 0469 10       		.uleb128 0x10
 5153 046a A3060000 		.4byte	.LASF95
 5154 046e 01       		.byte	0x1
 5155 046f 1C       		.byte	0x1c
 5156 0470 9A000000 		.4byte	0x9a
 5157 0474 04       		.byte	0x4
 5158 0475 10       		.uleb128 0x10
 5159 0476 33070000 		.4byte	.LASF96
 5160 047a 01       		.byte	0x1
 5161 047b 1D       		.byte	0x1d
ARM GAS  C:\Users\Phuong\AppData\Local\Temp\ccdTtd1y.s 			page 126


 5162 047c C6000000 		.4byte	0xc6
 5163 0480 08       		.byte	0x8
 5164 0481 10       		.uleb128 0x10
 5165 0482 7B020000 		.4byte	.LASF97
 5166 0486 01       		.byte	0x1
 5167 0487 1E       		.byte	0x1e
 5168 0488 33020000 		.4byte	0x233
 5169 048c 10       		.byte	0x10
 5170 048d 00       		.byte	0
 5171 048e 03       		.uleb128 0x3
 5172 048f 8B030000 		.4byte	.LASF98
 5173 0493 01       		.byte	0x1
 5174 0494 1F       		.byte	0x1f
 5175 0495 51040000 		.4byte	0x451
 5176 0499 0A       		.uleb128 0xa
 5177 049a B0090000 		.4byte	.LASF99
 5178 049e 01       		.byte	0x1
 5179 049f 5A000000 		.4byte	0x5a
 5180 04a3 01       		.byte	0x1
 5181 04a4 21       		.byte	0x21
 5182 04a5 C8040000 		.4byte	0x4c8
 5183 04a9 0B       		.uleb128 0xb
 5184 04aa 6C0A0000 		.4byte	.LASF100
 5185 04ae 00       		.byte	0
 5186 04af 0B       		.uleb128 0xb
 5187 04b0 DE0C0000 		.4byte	.LASF101
 5188 04b4 01       		.byte	0x1
 5189 04b5 0B       		.uleb128 0xb
 5190 04b6 44030000 		.4byte	.LASF102
 5191 04ba 02       		.byte	0x2
 5192 04bb 0B       		.uleb128 0xb
 5193 04bc 48090000 		.4byte	.LASF103
 5194 04c0 03       		.byte	0x3
 5195 04c1 0B       		.uleb128 0xb
 5196 04c2 9E0C0000 		.4byte	.LASF104
 5197 04c6 04       		.byte	0x4
 5198 04c7 00       		.byte	0
 5199 04c8 03       		.uleb128 0x3
 5200 04c9 870A0000 		.4byte	.LASF105
 5201 04cd 01       		.byte	0x1
 5202 04ce 28       		.byte	0x28
 5203 04cf 99040000 		.4byte	0x499
 5204 04d3 03       		.uleb128 0x3
 5205 04d4 EA060000 		.4byte	.LASF106
 5206 04d8 01       		.byte	0x1
 5207 04d9 3B       		.byte	0x3b
 5208 04da 44020000 		.4byte	0x244
 5209 04de 12       		.uleb128 0x12
 5210 04df F9080000 		.4byte	.LASF111
 5211 04e3 01       		.byte	0x1
 5212 04e4 DC01     		.2byte	0x1dc
 5213 04e6 00000000 		.4byte	.LFB4
 5214 04ea 90000000 		.4byte	.LFE4-.LFB4
 5215 04ee 01       		.uleb128 0x1
 5216 04ef 9C       		.byte	0x9c
 5217 04f0 C4050000 		.4byte	0x5c4
 5218 04f4 13       		.uleb128 0x13
ARM GAS  C:\Users\Phuong\AppData\Local\Temp\ccdTtd1y.s 			page 127


 5219 04f5 D2100000 		.4byte	.LASF107
 5220 04f9 01       		.byte	0x1
 5221 04fa DC01     		.2byte	0x1dc
 5222 04fc B4000000 		.4byte	0xb4
 5223 0500 00000000 		.4byte	.LLST0
 5224 0504 13       		.uleb128 0x13
 5225 0505 8D0B0000 		.4byte	.LASF108
 5226 0509 01       		.byte	0x1
 5227 050a DC01     		.2byte	0x1dc
 5228 050c 30040000 		.4byte	0x430
 5229 0510 6C000000 		.4byte	.LLST1
 5230 0514 13       		.uleb128 0x13
 5231 0515 8E060000 		.4byte	.LASF109
 5232 0519 01       		.byte	0x1
 5233 051a DC01     		.2byte	0x1dc
 5234 051c 30040000 		.4byte	0x430
 5235 0520 D8000000 		.4byte	.LLST2
 5236 0524 14       		.uleb128 0x14
 5237 0525 BA0C0000 		.4byte	.LASF113
 5238 0529 D4050000 		.4byte	0x5d4
 5239 052d 05       		.uleb128 0x5
 5240 052e 03       		.byte	0x3
 5241 052f 00000000 		.4byte	__func__.8433
 5242 0533 15       		.uleb128 0x15
 5243 0534 08000000 		.4byte	.LBB2
 5244 0538 1E000000 		.4byte	.LBE2-.LBB2
 5245 053c 8F050000 		.4byte	0x58f
 5246 0540 16       		.uleb128 0x16
 5247 0541 6C00     		.ascii	"l\000"
 5248 0543 01       		.byte	0x1
 5249 0544 E101     		.2byte	0x1e1
 5250 0546 32010000 		.4byte	0x132
 5251 054a 44010000 		.4byte	.LLST3
 5252 054e 17       		.uleb128 0x17
 5253 054f 0C000000 		.4byte	.LVL1
 5254 0553 16320000 		.4byte	0x3216
 5255 0557 18       		.uleb128 0x18
 5256 0558 24000000 		.4byte	.LVL4
 5257 055c 02       		.uleb128 0x2
 5258 055d 74       		.byte	0x74
 5259 055e 00       		.sleb128 0
 5260 055f 19       		.uleb128 0x19
 5261 0560 01       		.uleb128 0x1
 5262 0561 50       		.byte	0x50
 5263 0562 01       		.uleb128 0x1
 5264 0563 30       		.byte	0x30
 5265 0564 19       		.uleb128 0x19
 5266 0565 01       		.uleb128 0x1
 5267 0566 51       		.byte	0x51
 5268 0567 05       		.uleb128 0x5
 5269 0568 03       		.byte	0x3
 5270 0569 00000000 		.4byte	.LC1
 5271 056d 19       		.uleb128 0x19
 5272 056e 01       		.uleb128 0x1
 5273 056f 52       		.byte	0x52
 5274 0570 05       		.uleb128 0x5
 5275 0571 03       		.byte	0x3
ARM GAS  C:\Users\Phuong\AppData\Local\Temp\ccdTtd1y.s 			page 128


 5276 0572 00000000 		.4byte	.LANCHOR0
 5277 0576 19       		.uleb128 0x19
 5278 0577 01       		.uleb128 0x1
 5279 0578 53       		.byte	0x53
 5280 0579 03       		.uleb128 0x3
 5281 057a 0A       		.byte	0xa
 5282 057b E101     		.2byte	0x1e1
 5283 057d 19       		.uleb128 0x19
 5284 057e 02       		.uleb128 0x2
 5285 057f 7D       		.byte	0x7d
 5286 0580 00       		.sleb128 0
 5287 0581 01       		.uleb128 0x1
 5288 0582 31       		.byte	0x31
 5289 0583 19       		.uleb128 0x19
 5290 0584 02       		.uleb128 0x2
 5291 0585 7D       		.byte	0x7d
 5292 0586 04       		.sleb128 4
 5293 0587 05       		.uleb128 0x5
 5294 0588 03       		.byte	0x3
 5295 0589 34000000 		.4byte	.LC3
 5296 058d 00       		.byte	0
 5297 058e 00       		.byte	0
 5298 058f 1A       		.uleb128 0x1a
 5299 0590 2A000000 		.4byte	.LBB3
 5300 0594 54000000 		.4byte	.LBE3-.LBB3
 5301 0598 1B       		.uleb128 0x1b
 5302 0599 530A0000 		.4byte	.LASF110
 5303 059d 01       		.byte	0x1
 5304 059e E901     		.2byte	0x1e9
 5305 05a0 D9050000 		.4byte	0x5d9
 5306 05a4 62010000 		.4byte	.LLST4
 5307 05a8 1C       		.uleb128 0x1c
 5308 05a9 4E000000 		.4byte	.LVL10
 5309 05ad B7050000 		.4byte	0x5b7
 5310 05b1 19       		.uleb128 0x19
 5311 05b2 01       		.uleb128 0x1
 5312 05b3 51       		.byte	0x51
 5313 05b4 01       		.uleb128 0x1
 5314 05b5 31       		.byte	0x31
 5315 05b6 00       		.byte	0
 5316 05b7 1D       		.uleb128 0x1d
 5317 05b8 6C000000 		.4byte	.LVL15
 5318 05bc 19       		.uleb128 0x19
 5319 05bd 01       		.uleb128 0x1
 5320 05be 51       		.byte	0x51
 5321 05bf 01       		.uleb128 0x1
 5322 05c0 30       		.byte	0x30
 5323 05c1 00       		.byte	0
 5324 05c2 00       		.byte	0
 5325 05c3 00       		.byte	0
 5326 05c4 1E       		.uleb128 0x1e
 5327 05c5 AF000000 		.4byte	0xaf
 5328 05c9 D4050000 		.4byte	0x5d4
 5329 05cd 1F       		.uleb128 0x1f
 5330 05ce 93000000 		.4byte	0x93
 5331 05d2 21       		.byte	0x21
 5332 05d3 00       		.byte	0
ARM GAS  C:\Users\Phuong\AppData\Local\Temp\ccdTtd1y.s 			page 129


 5333 05d4 07       		.uleb128 0x7
 5334 05d5 C4050000 		.4byte	0x5c4
 5335 05d9 06       		.uleb128 0x6
 5336 05da 04       		.byte	0x4
 5337 05db D3040000 		.4byte	0x4d3
 5338 05df 12       		.uleb128 0x12
 5339 05e0 5E0F0000 		.4byte	.LASF112
 5340 05e4 01       		.byte	0x1
 5341 05e5 7901     		.2byte	0x179
 5342 05e7 00000000 		.4byte	.LFB3
 5343 05eb A8000000 		.4byte	.LFE3-.LFB3
 5344 05ef 01       		.uleb128 0x1
 5345 05f0 9C       		.byte	0x9c
 5346 05f1 C5060000 		.4byte	0x6c5
 5347 05f5 13       		.uleb128 0x13
 5348 05f6 D2100000 		.4byte	.LASF107
 5349 05fa 01       		.byte	0x1
 5350 05fb 7901     		.2byte	0x179
 5351 05fd 9A000000 		.4byte	0x9a
 5352 0601 B5010000 		.4byte	.LLST5
 5353 0605 13       		.uleb128 0x13
 5354 0606 8D0B0000 		.4byte	.LASF108
 5355 060a 01       		.byte	0x1
 5356 060b 7901     		.2byte	0x179
 5357 060d E0030000 		.4byte	0x3e0
 5358 0611 3A020000 		.4byte	.LLST6
 5359 0615 13       		.uleb128 0x13
 5360 0616 8E060000 		.4byte	.LASF109
 5361 061a 01       		.byte	0x1
 5362 061b 7901     		.2byte	0x179
 5363 061d E0030000 		.4byte	0x3e0
 5364 0621 BF020000 		.4byte	.LLST7
 5365 0625 14       		.uleb128 0x14
 5366 0626 BA0C0000 		.4byte	.LASF113
 5367 062a D5060000 		.4byte	0x6d5
 5368 062e 05       		.uleb128 0x5
 5369 062f 03       		.byte	0x3
 5370 0630 24000000 		.4byte	__func__.8397
 5371 0634 15       		.uleb128 0x15
 5372 0635 08000000 		.4byte	.LBB4
 5373 0639 20000000 		.4byte	.LBE4-.LBB4
 5374 063d 90060000 		.4byte	0x690
 5375 0641 16       		.uleb128 0x16
 5376 0642 6C00     		.ascii	"l\000"
 5377 0644 01       		.byte	0x1
 5378 0645 7E01     		.2byte	0x17e
 5379 0647 32010000 		.4byte	0x132
 5380 064b 44030000 		.4byte	.LLST8
 5381 064f 17       		.uleb128 0x17
 5382 0650 0C000000 		.4byte	.LVL21
 5383 0654 16320000 		.4byte	0x3216
 5384 0658 18       		.uleb128 0x18
 5385 0659 26000000 		.4byte	.LVL24
 5386 065d 02       		.uleb128 0x2
 5387 065e 74       		.byte	0x74
 5388 065f 00       		.sleb128 0
 5389 0660 19       		.uleb128 0x19
ARM GAS  C:\Users\Phuong\AppData\Local\Temp\ccdTtd1y.s 			page 130


 5390 0661 01       		.uleb128 0x1
 5391 0662 50       		.byte	0x50
 5392 0663 01       		.uleb128 0x1
 5393 0664 30       		.byte	0x30
 5394 0665 19       		.uleb128 0x19
 5395 0666 01       		.uleb128 0x1
 5396 0667 51       		.byte	0x51
 5397 0668 05       		.uleb128 0x5
 5398 0669 03       		.byte	0x3
 5399 066a 00000000 		.4byte	.LC1
 5400 066e 19       		.uleb128 0x19
 5401 066f 01       		.uleb128 0x1
 5402 0670 52       		.byte	0x52
 5403 0671 05       		.uleb128 0x5
 5404 0672 03       		.byte	0x3
 5405 0673 24000000 		.4byte	.LANCHOR0+36
 5406 0677 19       		.uleb128 0x19
 5407 0678 01       		.uleb128 0x1
 5408 0679 53       		.byte	0x53
 5409 067a 03       		.uleb128 0x3
 5410 067b 0A       		.byte	0xa
 5411 067c 7E01     		.2byte	0x17e
 5412 067e 19       		.uleb128 0x19
 5413 067f 02       		.uleb128 0x2
 5414 0680 7D       		.byte	0x7d
 5415 0681 00       		.sleb128 0
 5416 0682 01       		.uleb128 0x1
 5417 0683 31       		.byte	0x31
 5418 0684 19       		.uleb128 0x19
 5419 0685 02       		.uleb128 0x2
 5420 0686 7D       		.byte	0x7d
 5421 0687 04       		.sleb128 4
 5422 0688 05       		.uleb128 0x5
 5423 0689 03       		.byte	0x3
 5424 068a 70000000 		.4byte	.LC7
 5425 068e 00       		.byte	0
 5426 068f 00       		.byte	0
 5427 0690 1A       		.uleb128 0x1a
 5428 0691 2C000000 		.4byte	.LBB5
 5429 0695 6C000000 		.4byte	.LBE5-.LBB5
 5430 0699 1B       		.uleb128 0x1b
 5431 069a 530A0000 		.4byte	.LASF110
 5432 069e 01       		.byte	0x1
 5433 069f 8601     		.2byte	0x186
 5434 06a1 D9050000 		.4byte	0x5d9
 5435 06a5 62030000 		.4byte	.LLST9
 5436 06a9 1C       		.uleb128 0x1c
 5437 06aa 52000000 		.4byte	.LVL30
 5438 06ae B8060000 		.4byte	0x6b8
 5439 06b2 19       		.uleb128 0x19
 5440 06b3 01       		.uleb128 0x1
 5441 06b4 51       		.byte	0x51
 5442 06b5 01       		.uleb128 0x1
 5443 06b6 31       		.byte	0x31
 5444 06b7 00       		.byte	0
 5445 06b8 1D       		.uleb128 0x1d
 5446 06b9 70000000 		.4byte	.LVL35
ARM GAS  C:\Users\Phuong\AppData\Local\Temp\ccdTtd1y.s 			page 131


 5447 06bd 19       		.uleb128 0x19
 5448 06be 01       		.uleb128 0x1
 5449 06bf 51       		.byte	0x51
 5450 06c0 01       		.uleb128 0x1
 5451 06c1 30       		.byte	0x30
 5452 06c2 00       		.byte	0
 5453 06c3 00       		.byte	0
 5454 06c4 00       		.byte	0
 5455 06c5 1E       		.uleb128 0x1e
 5456 06c6 AF000000 		.4byte	0xaf
 5457 06ca D5060000 		.4byte	0x6d5
 5458 06ce 1F       		.uleb128 0x1f
 5459 06cf 93000000 		.4byte	0x93
 5460 06d3 1F       		.byte	0x1f
 5461 06d4 00       		.byte	0
 5462 06d5 07       		.uleb128 0x7
 5463 06d6 C5060000 		.4byte	0x6c5
 5464 06da 20       		.uleb128 0x20
 5465 06db 00130000 		.4byte	.LASF116
 5466 06df 01       		.byte	0x1
 5467 06e0 9C02     		.2byte	0x29c
 5468 06e2 3E000000 		.4byte	0x3e
 5469 06e6 00000000 		.4byte	.LFB7
 5470 06ea 5C000000 		.4byte	.LFE7-.LFB7
 5471 06ee 01       		.uleb128 0x1
 5472 06ef 9C       		.byte	0x9c
 5473 06f0 C3070000 		.4byte	0x7c3
 5474 06f4 13       		.uleb128 0x13
 5475 06f5 7B020000 		.4byte	.LASF97
 5476 06f9 01       		.byte	0x1
 5477 06fa 9C02     		.2byte	0x29c
 5478 06fc 33020000 		.4byte	0x233
 5479 0700 CE030000 		.4byte	.LLST10
 5480 0704 13       		.uleb128 0x13
 5481 0705 79100000 		.4byte	.LASF59
 5482 0709 01       		.byte	0x1
 5483 070a 9C02     		.2byte	0x29c
 5484 070c A9000000 		.4byte	0xa9
 5485 0710 13040000 		.4byte	.LLST11
 5486 0714 1B       		.uleb128 0x1b
 5487 0715 F8130000 		.4byte	.LASF114
 5488 0719 01       		.byte	0x1
 5489 071a 9E02     		.2byte	0x29e
 5490 071c 3E000000 		.4byte	0x3e
 5491 0720 34040000 		.4byte	.LLST12
 5492 0724 21       		.uleb128 0x21
 5493 0725 DD080000 		.4byte	.LASF115
 5494 0729 01       		.byte	0x1
 5495 072a 9F02     		.2byte	0x29f
 5496 072c 9C000000 		.4byte	0x9c
 5497 0730 02       		.uleb128 0x2
 5498 0731 91       		.byte	0x91
 5499 0732 74       		.sleb128 -12
 5500 0733 14       		.uleb128 0x14
 5501 0734 BA0C0000 		.4byte	.LASF113
 5502 0738 C3070000 		.4byte	0x7c3
 5503 073c 05       		.uleb128 0x5
ARM GAS  C:\Users\Phuong\AppData\Local\Temp\ccdTtd1y.s 			page 132


 5504 073d 03       		.byte	0x3
 5505 073e 44000000 		.4byte	__func__.8503
 5506 0742 15       		.uleb128 0x15
 5507 0743 10000000 		.4byte	.LBB6
 5508 0747 1C000000 		.4byte	.LBE6-.LBB6
 5509 074b 9E070000 		.4byte	0x79e
 5510 074f 16       		.uleb128 0x16
 5511 0750 6C00     		.ascii	"l\000"
 5512 0752 01       		.byte	0x1
 5513 0753 A202     		.2byte	0x2a2
 5514 0755 32010000 		.4byte	0x132
 5515 0759 53040000 		.4byte	.LLST13
 5516 075d 17       		.uleb128 0x17
 5517 075e 14000000 		.4byte	.LVL47
 5518 0762 16320000 		.4byte	0x3216
 5519 0766 18       		.uleb128 0x18
 5520 0767 2C000000 		.4byte	.LVL50
 5521 076b 02       		.uleb128 0x2
 5522 076c 74       		.byte	0x74
 5523 076d 00       		.sleb128 0
 5524 076e 19       		.uleb128 0x19
 5525 076f 01       		.uleb128 0x1
 5526 0770 50       		.byte	0x50
 5527 0771 01       		.uleb128 0x1
 5528 0772 30       		.byte	0x30
 5529 0773 19       		.uleb128 0x19
 5530 0774 01       		.uleb128 0x1
 5531 0775 51       		.byte	0x51
 5532 0776 05       		.uleb128 0x5
 5533 0777 03       		.byte	0x3
 5534 0778 00000000 		.4byte	.LC1
 5535 077c 19       		.uleb128 0x19
 5536 077d 01       		.uleb128 0x1
 5537 077e 52       		.byte	0x52
 5538 077f 05       		.uleb128 0x5
 5539 0780 03       		.byte	0x3
 5540 0781 44000000 		.4byte	.LANCHOR0+68
 5541 0785 19       		.uleb128 0x19
 5542 0786 01       		.uleb128 0x1
 5543 0787 53       		.byte	0x53
 5544 0788 03       		.uleb128 0x3
 5545 0789 0A       		.byte	0xa
 5546 078a A202     		.2byte	0x2a2
 5547 078c 19       		.uleb128 0x19
 5548 078d 02       		.uleb128 0x2
 5549 078e 7D       		.byte	0x7d
 5550 078f 00       		.sleb128 0
 5551 0790 01       		.uleb128 0x1
 5552 0791 31       		.byte	0x31
 5553 0792 19       		.uleb128 0x19
 5554 0793 02       		.uleb128 0x2
 5555 0794 7D       		.byte	0x7d
 5556 0795 04       		.sleb128 4
 5557 0796 05       		.uleb128 0x5
 5558 0797 03       		.byte	0x3
 5559 0798 AC000000 		.4byte	.LC11
 5560 079c 00       		.byte	0
ARM GAS  C:\Users\Phuong\AppData\Local\Temp\ccdTtd1y.s 			page 133


 5561 079d 00       		.byte	0
 5562 079e 22       		.uleb128 0x22
 5563 079f 0C000000 		.4byte	.LVL46
 5564 07a3 21320000 		.4byte	0x3221
 5565 07a7 B9070000 		.4byte	0x7b9
 5566 07ab 19       		.uleb128 0x19
 5567 07ac 01       		.uleb128 0x1
 5568 07ad 50       		.byte	0x50
 5569 07ae 02       		.uleb128 0x2
 5570 07af 91       		.byte	0x91
 5571 07b0 74       		.sleb128 -12
 5572 07b1 19       		.uleb128 0x19
 5573 07b2 01       		.uleb128 0x1
 5574 07b3 51       		.byte	0x51
 5575 07b4 03       		.uleb128 0x3
 5576 07b5 F3       		.byte	0xf3
 5577 07b6 01       		.uleb128 0x1
 5578 07b7 51       		.byte	0x51
 5579 07b8 00       		.byte	0
 5580 07b9 17       		.uleb128 0x17
 5581 07ba 3A000000 		.4byte	.LVL52
 5582 07be 2C320000 		.4byte	0x322c
 5583 07c2 00       		.byte	0
 5584 07c3 07       		.uleb128 0x7
 5585 07c4 C4050000 		.4byte	0x5c4
 5586 07c8 20       		.uleb128 0x20
 5587 07c9 A10D0000 		.4byte	.LASF117
 5588 07cd 01       		.byte	0x1
 5589 07ce B302     		.2byte	0x2b3
 5590 07d0 3E000000 		.4byte	0x3e
 5591 07d4 00000000 		.4byte	.LFB8
 5592 07d8 5C000000 		.4byte	.LFE8-.LFB8
 5593 07dc 01       		.uleb128 0x1
 5594 07dd 9C       		.byte	0x9c
 5595 07de B1080000 		.4byte	0x8b1
 5596 07e2 13       		.uleb128 0x13
 5597 07e3 7B020000 		.4byte	.LASF97
 5598 07e7 01       		.byte	0x1
 5599 07e8 B302     		.2byte	0x2b3
 5600 07ea 33020000 		.4byte	0x233
 5601 07ee 7C040000 		.4byte	.LLST14
 5602 07f2 13       		.uleb128 0x13
 5603 07f3 37080000 		.4byte	.LASF60
 5604 07f7 01       		.byte	0x1
 5605 07f8 B302     		.2byte	0x2b3
 5606 07fa A9000000 		.4byte	0xa9
 5607 07fe C1040000 		.4byte	.LLST15
 5608 0802 1B       		.uleb128 0x1b
 5609 0803 F8130000 		.4byte	.LASF114
 5610 0807 01       		.byte	0x1
 5611 0808 B502     		.2byte	0x2b5
 5612 080a 3E000000 		.4byte	0x3e
 5613 080e E2040000 		.4byte	.LLST16
 5614 0812 21       		.uleb128 0x21
 5615 0813 B0070000 		.4byte	.LASF118
 5616 0817 01       		.byte	0x1
 5617 0818 B602     		.2byte	0x2b6
ARM GAS  C:\Users\Phuong\AppData\Local\Temp\ccdTtd1y.s 			page 134


 5618 081a 9C000000 		.4byte	0x9c
 5619 081e 02       		.uleb128 0x2
 5620 081f 91       		.byte	0x91
 5621 0820 74       		.sleb128 -12
 5622 0821 14       		.uleb128 0x14
 5623 0822 BA0C0000 		.4byte	.LASF113
 5624 0826 C1080000 		.4byte	0x8c1
 5625 082a 05       		.uleb128 0x5
 5626 082b 03       		.byte	0x3
 5627 082c 68000000 		.4byte	__func__.8513
 5628 0830 15       		.uleb128 0x15
 5629 0831 10000000 		.4byte	.LBB7
 5630 0835 1C000000 		.4byte	.LBE7-.LBB7
 5631 0839 8C080000 		.4byte	0x88c
 5632 083d 16       		.uleb128 0x16
 5633 083e 6C00     		.ascii	"l\000"
 5634 0840 01       		.byte	0x1
 5635 0841 B902     		.2byte	0x2b9
 5636 0843 32010000 		.4byte	0x132
 5637 0847 01050000 		.4byte	.LLST17
 5638 084b 17       		.uleb128 0x17
 5639 084c 14000000 		.4byte	.LVL59
 5640 0850 16320000 		.4byte	0x3216
 5641 0854 18       		.uleb128 0x18
 5642 0855 2C000000 		.4byte	.LVL62
 5643 0859 02       		.uleb128 0x2
 5644 085a 74       		.byte	0x74
 5645 085b 00       		.sleb128 0
 5646 085c 19       		.uleb128 0x19
 5647 085d 01       		.uleb128 0x1
 5648 085e 50       		.byte	0x50
 5649 085f 01       		.uleb128 0x1
 5650 0860 30       		.byte	0x30
 5651 0861 19       		.uleb128 0x19
 5652 0862 01       		.uleb128 0x1
 5653 0863 51       		.byte	0x51
 5654 0864 05       		.uleb128 0x5
 5655 0865 03       		.byte	0x3
 5656 0866 00000000 		.4byte	.LC1
 5657 086a 19       		.uleb128 0x19
 5658 086b 01       		.uleb128 0x1
 5659 086c 52       		.byte	0x52
 5660 086d 05       		.uleb128 0x5
 5661 086e 03       		.byte	0x3
 5662 086f 68000000 		.4byte	.LANCHOR0+104
 5663 0873 19       		.uleb128 0x19
 5664 0874 01       		.uleb128 0x1
 5665 0875 53       		.byte	0x53
 5666 0876 03       		.uleb128 0x3
 5667 0877 0A       		.byte	0xa
 5668 0878 B902     		.2byte	0x2b9
 5669 087a 19       		.uleb128 0x19
 5670 087b 02       		.uleb128 0x2
 5671 087c 7D       		.byte	0x7d
 5672 087d 00       		.sleb128 0
 5673 087e 01       		.uleb128 0x1
 5674 087f 31       		.byte	0x31
ARM GAS  C:\Users\Phuong\AppData\Local\Temp\ccdTtd1y.s 			page 135


 5675 0880 19       		.uleb128 0x19
 5676 0881 02       		.uleb128 0x2
 5677 0882 7D       		.byte	0x7d
 5678 0883 04       		.sleb128 4
 5679 0884 05       		.uleb128 0x5
 5680 0885 03       		.byte	0x3
 5681 0886 D0000000 		.4byte	.LC15
 5682 088a 00       		.byte	0
 5683 088b 00       		.byte	0
 5684 088c 22       		.uleb128 0x22
 5685 088d 0C000000 		.4byte	.LVL58
 5686 0891 21320000 		.4byte	0x3221
 5687 0895 A7080000 		.4byte	0x8a7
 5688 0899 19       		.uleb128 0x19
 5689 089a 01       		.uleb128 0x1
 5690 089b 50       		.byte	0x50
 5691 089c 02       		.uleb128 0x2
 5692 089d 91       		.byte	0x91
 5693 089e 74       		.sleb128 -12
 5694 089f 19       		.uleb128 0x19
 5695 08a0 01       		.uleb128 0x1
 5696 08a1 51       		.byte	0x51
 5697 08a2 03       		.uleb128 0x3
 5698 08a3 F3       		.byte	0xf3
 5699 08a4 01       		.uleb128 0x1
 5700 08a5 51       		.byte	0x51
 5701 08a6 00       		.byte	0
 5702 08a7 17       		.uleb128 0x17
 5703 08a8 3A000000 		.4byte	.LVL64
 5704 08ac 2C320000 		.4byte	0x322c
 5705 08b0 00       		.byte	0
 5706 08b1 1E       		.uleb128 0x1e
 5707 08b2 AF000000 		.4byte	0xaf
 5708 08b6 C1080000 		.4byte	0x8c1
 5709 08ba 1F       		.uleb128 0x1f
 5710 08bb 93000000 		.4byte	0x93
 5711 08bf 28       		.byte	0x28
 5712 08c0 00       		.byte	0
 5713 08c1 07       		.uleb128 0x7
 5714 08c2 B1080000 		.4byte	0x8b1
 5715 08c6 12       		.uleb128 0x12
 5716 08c7 25020000 		.4byte	.LASF119
 5717 08cb 01       		.byte	0x1
 5718 08cc 4F01     		.2byte	0x14f
 5719 08ce 00000000 		.4byte	.LFB2
 5720 08d2 90000000 		.4byte	.LFE2-.LFB2
 5721 08d6 01       		.uleb128 0x1
 5722 08d7 9C       		.byte	0x9c
 5723 08d8 680A0000 		.4byte	0xa68
 5724 08dc 13       		.uleb128 0x13
 5725 08dd D2100000 		.4byte	.LASF107
 5726 08e1 01       		.byte	0x1
 5727 08e2 4F01     		.2byte	0x14f
 5728 08e4 9A000000 		.4byte	0x9a
 5729 08e8 2A050000 		.4byte	.LLST18
 5730 08ec 13       		.uleb128 0x13
 5731 08ed 3A0E0000 		.4byte	.LASF120
ARM GAS  C:\Users\Phuong\AppData\Local\Temp\ccdTtd1y.s 			page 136


 5732 08f1 01       		.byte	0x1
 5733 08f2 4F01     		.2byte	0x14f
 5734 08f4 A6030000 		.4byte	0x3a6
 5735 08f8 93050000 		.4byte	.LLST19
 5736 08fc 13       		.uleb128 0x13
 5737 08fd D3120000 		.4byte	.LASF121
 5738 0901 01       		.byte	0x1
 5739 0902 4F01     		.2byte	0x14f
 5740 0904 68010000 		.4byte	0x168
 5741 0908 CD050000 		.4byte	.LLST20
 5742 090c 14       		.uleb128 0x14
 5743 090d BA0C0000 		.4byte	.LASF113
 5744 0911 780A0000 		.4byte	0xa78
 5745 0915 05       		.uleb128 0x5
 5746 0916 03       		.byte	0x3
 5747 0917 94000000 		.4byte	__func__.8382
 5748 091b 15       		.uleb128 0x15
 5749 091c 08000000 		.4byte	.LBB8
 5750 0920 20000000 		.4byte	.LBE8-.LBB8
 5751 0924 77090000 		.4byte	0x977
 5752 0928 16       		.uleb128 0x16
 5753 0929 6C00     		.ascii	"l\000"
 5754 092b 01       		.byte	0x1
 5755 092c 5601     		.2byte	0x156
 5756 092e 32010000 		.4byte	0x132
 5757 0932 07060000 		.4byte	.LLST21
 5758 0936 17       		.uleb128 0x17
 5759 0937 0C000000 		.4byte	.LVL69
 5760 093b 16320000 		.4byte	0x3216
 5761 093f 18       		.uleb128 0x18
 5762 0940 26000000 		.4byte	.LVL72
 5763 0944 02       		.uleb128 0x2
 5764 0945 74       		.byte	0x74
 5765 0946 00       		.sleb128 0
 5766 0947 19       		.uleb128 0x19
 5767 0948 01       		.uleb128 0x1
 5768 0949 50       		.byte	0x50
 5769 094a 01       		.uleb128 0x1
 5770 094b 30       		.byte	0x30
 5771 094c 19       		.uleb128 0x19
 5772 094d 01       		.uleb128 0x1
 5773 094e 51       		.byte	0x51
 5774 094f 05       		.uleb128 0x5
 5775 0950 03       		.byte	0x3
 5776 0951 00000000 		.4byte	.LC1
 5777 0955 19       		.uleb128 0x19
 5778 0956 01       		.uleb128 0x1
 5779 0957 52       		.byte	0x52
 5780 0958 05       		.uleb128 0x5
 5781 0959 03       		.byte	0x3
 5782 095a 94000000 		.4byte	.LANCHOR1+20
 5783 095e 19       		.uleb128 0x19
 5784 095f 01       		.uleb128 0x1
 5785 0960 53       		.byte	0x53
 5786 0961 03       		.uleb128 0x3
 5787 0962 0A       		.byte	0xa
 5788 0963 5601     		.2byte	0x156
ARM GAS  C:\Users\Phuong\AppData\Local\Temp\ccdTtd1y.s 			page 137


 5789 0965 19       		.uleb128 0x19
 5790 0966 02       		.uleb128 0x2
 5791 0967 7D       		.byte	0x7d
 5792 0968 00       		.sleb128 0
 5793 0969 01       		.uleb128 0x1
 5794 096a 31       		.byte	0x31
 5795 096b 19       		.uleb128 0x19
 5796 096c 02       		.uleb128 0x2
 5797 096d 7D       		.byte	0x7d
 5798 096e 04       		.sleb128 4
 5799 096f 05       		.uleb128 0x5
 5800 0970 03       		.byte	0x3
 5801 0971 F8000000 		.4byte	.LC19
 5802 0975 00       		.byte	0
 5803 0976 00       		.byte	0
 5804 0977 1A       		.uleb128 0x1a
 5805 0978 2C000000 		.4byte	.LBB9
 5806 097c 4E000000 		.4byte	.LBE9-.LBB9
 5807 0980 1B       		.uleb128 0x1b
 5808 0981 3B0F0000 		.4byte	.LASF122
 5809 0985 01       		.byte	0x1
 5810 0986 6201     		.2byte	0x162
 5811 0988 E7000000 		.4byte	0xe7
 5812 098c 25060000 		.4byte	.LLST22
 5813 0990 1B       		.uleb128 0x1b
 5814 0991 0B020000 		.4byte	.LASF123
 5815 0995 01       		.byte	0x1
 5816 0996 6501     		.2byte	0x165
 5817 0998 7D0A0000 		.4byte	0xa7d
 5818 099c 6A060000 		.4byte	.LLST23
 5819 09a0 1B       		.uleb128 0x1b
 5820 09a1 7B020000 		.4byte	.LASF97
 5821 09a5 01       		.byte	0x1
 5822 09a6 6601     		.2byte	0x166
 5823 09a8 33020000 		.4byte	0x233
 5824 09ac 88060000 		.4byte	.LLST24
 5825 09b0 15       		.uleb128 0x15
 5826 09b1 46000000 		.4byte	.LBB10
 5827 09b5 20000000 		.4byte	.LBE10-.LBB10
 5828 09b9 0C0A0000 		.4byte	0xa0c
 5829 09bd 16       		.uleb128 0x16
 5830 09be 6C00     		.ascii	"l\000"
 5831 09c0 01       		.byte	0x1
 5832 09c1 6D01     		.2byte	0x16d
 5833 09c3 32010000 		.4byte	0x132
 5834 09c7 9B060000 		.4byte	.LLST25
 5835 09cb 17       		.uleb128 0x17
 5836 09cc 4A000000 		.4byte	.LVL81
 5837 09d0 16320000 		.4byte	0x3216
 5838 09d4 18       		.uleb128 0x18
 5839 09d5 64000000 		.4byte	.LVL84
 5840 09d9 02       		.uleb128 0x2
 5841 09da 74       		.byte	0x74
 5842 09db 00       		.sleb128 0
 5843 09dc 19       		.uleb128 0x19
 5844 09dd 01       		.uleb128 0x1
 5845 09de 50       		.byte	0x50
ARM GAS  C:\Users\Phuong\AppData\Local\Temp\ccdTtd1y.s 			page 138


 5846 09df 01       		.uleb128 0x1
 5847 09e0 30       		.byte	0x30
 5848 09e1 19       		.uleb128 0x19
 5849 09e2 01       		.uleb128 0x1
 5850 09e3 51       		.byte	0x51
 5851 09e4 05       		.uleb128 0x5
 5852 09e5 03       		.byte	0x3
 5853 09e6 00000000 		.4byte	.LC1
 5854 09ea 19       		.uleb128 0x19
 5855 09eb 01       		.uleb128 0x1
 5856 09ec 52       		.byte	0x52
 5857 09ed 05       		.uleb128 0x5
 5858 09ee 03       		.byte	0x3
 5859 09ef 94000000 		.4byte	.LANCHOR1+20
 5860 09f3 19       		.uleb128 0x19
 5861 09f4 01       		.uleb128 0x1
 5862 09f5 53       		.byte	0x53
 5863 09f6 03       		.uleb128 0x3
 5864 09f7 0A       		.byte	0xa
 5865 09f8 6D01     		.2byte	0x16d
 5866 09fa 19       		.uleb128 0x19
 5867 09fb 02       		.uleb128 0x2
 5868 09fc 7D       		.byte	0x7d
 5869 09fd 00       		.sleb128 0
 5870 09fe 01       		.uleb128 0x1
 5871 09ff 31       		.byte	0x31
 5872 0a00 19       		.uleb128 0x19
 5873 0a01 02       		.uleb128 0x2
 5874 0a02 7D       		.byte	0x7d
 5875 0a03 04       		.sleb128 4
 5876 0a04 05       		.uleb128 0x5
 5877 0a05 03       		.byte	0x3
 5878 0a06 08010000 		.4byte	.LC21
 5879 0a0a 00       		.byte	0
 5880 0a0b 00       		.byte	0
 5881 0a0c 22       		.uleb128 0x22
 5882 0a0d 30000000 		.4byte	.LVL75
 5883 0a11 37320000 		.4byte	0x3237
 5884 0a15 200A0000 		.4byte	0xa20
 5885 0a19 19       		.uleb128 0x19
 5886 0a1a 01       		.uleb128 0x1
 5887 0a1b 50       		.byte	0x50
 5888 0a1c 02       		.uleb128 0x2
 5889 0a1d 74       		.byte	0x74
 5890 0a1e 00       		.sleb128 0
 5891 0a1f 00       		.byte	0
 5892 0a20 22       		.uleb128 0x22
 5893 0a21 3C000000 		.4byte	.LVL79
 5894 0a25 42320000 		.4byte	0x3242
 5895 0a29 340A0000 		.4byte	0xa34
 5896 0a2d 19       		.uleb128 0x19
 5897 0a2e 01       		.uleb128 0x1
 5898 0a2f 51       		.byte	0x51
 5899 0a30 02       		.uleb128 0x2
 5900 0a31 74       		.byte	0x74
 5901 0a32 00       		.sleb128 0
 5902 0a33 00       		.byte	0
ARM GAS  C:\Users\Phuong\AppData\Local\Temp\ccdTtd1y.s 			page 139


 5903 0a34 23       		.uleb128 0x23
 5904 0a35 74000000 		.4byte	.LVL87
 5905 0a39 02       		.uleb128 0x2
 5906 0a3a 74       		.byte	0x74
 5907 0a3b 00       		.sleb128 0
 5908 0a3c 560A0000 		.4byte	0xa56
 5909 0a40 19       		.uleb128 0x19
 5910 0a41 01       		.uleb128 0x1
 5911 0a42 51       		.byte	0x51
 5912 0a43 01       		.uleb128 0x1
 5913 0a44 31       		.byte	0x31
 5914 0a45 19       		.uleb128 0x19
 5915 0a46 01       		.uleb128 0x1
 5916 0a47 52       		.byte	0x52
 5917 0a48 01       		.uleb128 0x1
 5918 0a49 30       		.byte	0x30
 5919 0a4a 19       		.uleb128 0x19
 5920 0a4b 01       		.uleb128 0x1
 5921 0a4c 53       		.byte	0x53
 5922 0a4d 01       		.uleb128 0x1
 5923 0a4e 30       		.byte	0x30
 5924 0a4f 19       		.uleb128 0x19
 5925 0a50 02       		.uleb128 0x2
 5926 0a51 7D       		.byte	0x7d
 5927 0a52 00       		.sleb128 0
 5928 0a53 01       		.uleb128 0x1
 5929 0a54 30       		.byte	0x30
 5930 0a55 00       		.byte	0
 5931 0a56 24       		.uleb128 0x24
 5932 0a57 7A000000 		.4byte	.LVL88
 5933 0a5b 2C320000 		.4byte	0x322c
 5934 0a5f 19       		.uleb128 0x19
 5935 0a60 01       		.uleb128 0x1
 5936 0a61 50       		.byte	0x50
 5937 0a62 02       		.uleb128 0x2
 5938 0a63 75       		.byte	0x75
 5939 0a64 00       		.sleb128 0
 5940 0a65 00       		.byte	0
 5941 0a66 00       		.byte	0
 5942 0a67 00       		.byte	0
 5943 0a68 1E       		.uleb128 0x1e
 5944 0a69 AF000000 		.4byte	0xaf
 5945 0a6d 780A0000 		.4byte	0xa78
 5946 0a71 1F       		.uleb128 0x1f
 5947 0a72 93000000 		.4byte	0x93
 5948 0a76 18       		.byte	0x18
 5949 0a77 00       		.byte	0
 5950 0a78 07       		.uleb128 0x7
 5951 0a79 680A0000 		.4byte	0xa68
 5952 0a7d 06       		.uleb128 0x6
 5953 0a7e 04       		.byte	0x4
 5954 0a7f 8E040000 		.4byte	0x48e
 5955 0a83 25       		.uleb128 0x25
 5956 0a84 8C130000 		.4byte	.LASF124
 5957 0a88 01       		.byte	0x1
 5958 0a89 3D       		.byte	0x3d
 5959 0a8a 68010000 		.4byte	0x168
ARM GAS  C:\Users\Phuong\AppData\Local\Temp\ccdTtd1y.s 			page 140


 5960 0a8e 00000000 		.4byte	.LFB1
 5961 0a92 00040000 		.4byte	.LFE1-.LFB1
 5962 0a96 01       		.uleb128 0x1
 5963 0a97 9C       		.byte	0x9c
 5964 0a98 92130000 		.4byte	0x1392
 5965 0a9c 26       		.uleb128 0x26
 5966 0a9d D2100000 		.4byte	.LASF107
 5967 0aa1 01       		.byte	0x1
 5968 0aa2 3D       		.byte	0x3d
 5969 0aa3 B4000000 		.4byte	0xb4
 5970 0aa7 B9060000 		.4byte	.LLST26
 5971 0aab 26       		.uleb128 0x26
 5972 0aac D10A0000 		.4byte	.LASF125
 5973 0ab0 01       		.byte	0x1
 5974 0ab1 3D       		.byte	0x3d
 5975 0ab2 BB010000 		.4byte	0x1bb
 5976 0ab6 FB060000 		.4byte	.LLST27
 5977 0aba 27       		.uleb128 0x27
 5978 0abb F8130000 		.4byte	.LASF114
 5979 0abf 01       		.byte	0x1
 5980 0ac0 3F       		.byte	0x3f
 5981 0ac1 68010000 		.4byte	0x168
 5982 0ac5 5E080000 		.4byte	.LLST28
 5983 0ac9 14       		.uleb128 0x14
 5984 0aca BA0C0000 		.4byte	.LASF113
 5985 0ace A2130000 		.4byte	0x13a2
 5986 0ad2 05       		.uleb128 0x5
 5987 0ad3 03       		.byte	0x3
 5988 0ad4 B0000000 		.4byte	__func__.8317
 5989 0ad8 15       		.uleb128 0x15
 5990 0ad9 12000000 		.4byte	.LBB11
 5991 0add 1E000000 		.4byte	.LBE11-.LBB11
 5992 0ae1 320B0000 		.4byte	0xb32
 5993 0ae5 28       		.uleb128 0x28
 5994 0ae6 6C00     		.ascii	"l\000"
 5995 0ae8 01       		.byte	0x1
 5996 0ae9 44       		.byte	0x44
 5997 0aea 32010000 		.4byte	0x132
 5998 0aee 0B090000 		.4byte	.LLST29
 5999 0af2 17       		.uleb128 0x17
 6000 0af3 16000000 		.4byte	.LVL90
 6001 0af7 16320000 		.4byte	0x3216
 6002 0afb 18       		.uleb128 0x18
 6003 0afc 30000000 		.4byte	.LVL93
 6004 0b00 02       		.uleb128 0x2
 6005 0b01 74       		.byte	0x74
 6006 0b02 00       		.sleb128 0
 6007 0b03 19       		.uleb128 0x19
 6008 0b04 01       		.uleb128 0x1
 6009 0b05 50       		.byte	0x50
 6010 0b06 01       		.uleb128 0x1
 6011 0b07 30       		.byte	0x30
 6012 0b08 19       		.uleb128 0x19
 6013 0b09 01       		.uleb128 0x1
 6014 0b0a 51       		.byte	0x51
 6015 0b0b 05       		.uleb128 0x5
 6016 0b0c 03       		.byte	0x3
ARM GAS  C:\Users\Phuong\AppData\Local\Temp\ccdTtd1y.s 			page 141


 6017 0b0d 00000000 		.4byte	.LC1
 6018 0b11 19       		.uleb128 0x19
 6019 0b12 01       		.uleb128 0x1
 6020 0b13 52       		.byte	0x52
 6021 0b14 05       		.uleb128 0x5
 6022 0b15 03       		.byte	0x3
 6023 0b16 B0000000 		.4byte	.LANCHOR1+48
 6024 0b1a 19       		.uleb128 0x19
 6025 0b1b 01       		.uleb128 0x1
 6026 0b1c 53       		.byte	0x53
 6027 0b1d 02       		.uleb128 0x2
 6028 0b1e 08       		.byte	0x8
 6029 0b1f 44       		.byte	0x44
 6030 0b20 19       		.uleb128 0x19
 6031 0b21 02       		.uleb128 0x2
 6032 0b22 7D       		.byte	0x7d
 6033 0b23 00       		.sleb128 0
 6034 0b24 01       		.uleb128 0x1
 6035 0b25 31       		.byte	0x31
 6036 0b26 19       		.uleb128 0x19
 6037 0b27 02       		.uleb128 0x2
 6038 0b28 7D       		.byte	0x7d
 6039 0b29 04       		.sleb128 4
 6040 0b2a 05       		.uleb128 0x5
 6041 0b2b 03       		.byte	0x3
 6042 0b2c 28010000 		.4byte	.LC25
 6043 0b30 00       		.byte	0
 6044 0b31 00       		.byte	0
 6045 0b32 1A       		.uleb128 0x1a
 6046 0b33 34000000 		.4byte	.LBB12
 6047 0b37 AE030000 		.4byte	.LBE12-.LBB12
 6048 0b3b 27       		.uleb128 0x27
 6049 0b3c 7B020000 		.4byte	.LASF97
 6050 0b40 01       		.byte	0x1
 6051 0b41 49       		.byte	0x49
 6052 0b42 33020000 		.4byte	0x233
 6053 0b46 34090000 		.4byte	.LLST30
 6054 0b4a 29       		.uleb128 0x29
 6055 0b4b 0A070000 		.4byte	.LASF126
 6056 0b4f 01       		.byte	0x1
 6057 0b50 4A       		.byte	0x4a
 6058 0b51 68010000 		.4byte	0x168
 6059 0b55 02       		.uleb128 0x2
 6060 0b56 91       		.byte	0x91
 6061 0b57 44       		.sleb128 -60
 6062 0b58 15       		.uleb128 0x15
 6063 0b59 40000000 		.4byte	.LBB13
 6064 0b5d 1C000000 		.4byte	.LBE13-.LBB13
 6065 0b61 B20B0000 		.4byte	0xbb2
 6066 0b65 28       		.uleb128 0x28
 6067 0b66 6C00     		.ascii	"l\000"
 6068 0b68 01       		.byte	0x1
 6069 0b69 50       		.byte	0x50
 6070 0b6a 32010000 		.4byte	0x132
 6071 0b6e 52090000 		.4byte	.LLST31
 6072 0b72 17       		.uleb128 0x17
 6073 0b73 44000000 		.4byte	.LVL99
ARM GAS  C:\Users\Phuong\AppData\Local\Temp\ccdTtd1y.s 			page 142


 6074 0b77 16320000 		.4byte	0x3216
 6075 0b7b 18       		.uleb128 0x18
 6076 0b7c 5C000000 		.4byte	.LVL102
 6077 0b80 02       		.uleb128 0x2
 6078 0b81 74       		.byte	0x74
 6079 0b82 00       		.sleb128 0
 6080 0b83 19       		.uleb128 0x19
 6081 0b84 01       		.uleb128 0x1
 6082 0b85 50       		.byte	0x50
 6083 0b86 01       		.uleb128 0x1
 6084 0b87 30       		.byte	0x30
 6085 0b88 19       		.uleb128 0x19
 6086 0b89 01       		.uleb128 0x1
 6087 0b8a 51       		.byte	0x51
 6088 0b8b 05       		.uleb128 0x5
 6089 0b8c 03       		.byte	0x3
 6090 0b8d 00000000 		.4byte	.LC1
 6091 0b91 19       		.uleb128 0x19
 6092 0b92 01       		.uleb128 0x1
 6093 0b93 52       		.byte	0x52
 6094 0b94 05       		.uleb128 0x5
 6095 0b95 03       		.byte	0x3
 6096 0b96 B0000000 		.4byte	.LANCHOR1+48
 6097 0b9a 19       		.uleb128 0x19
 6098 0b9b 01       		.uleb128 0x1
 6099 0b9c 53       		.byte	0x53
 6100 0b9d 02       		.uleb128 0x2
 6101 0b9e 08       		.byte	0x8
 6102 0b9f 50       		.byte	0x50
 6103 0ba0 19       		.uleb128 0x19
 6104 0ba1 02       		.uleb128 0x2
 6105 0ba2 7D       		.byte	0x7d
 6106 0ba3 00       		.sleb128 0
 6107 0ba4 01       		.uleb128 0x1
 6108 0ba5 31       		.byte	0x31
 6109 0ba6 19       		.uleb128 0x19
 6110 0ba7 02       		.uleb128 0x2
 6111 0ba8 7D       		.byte	0x7d
 6112 0ba9 04       		.sleb128 4
 6113 0baa 05       		.uleb128 0x5
 6114 0bab 03       		.byte	0x3
 6115 0bac 4C010000 		.4byte	.LC27
 6116 0bb0 00       		.byte	0
 6117 0bb1 00       		.byte	0
 6118 0bb2 15       		.uleb128 0x15
 6119 0bb3 6E000000 		.4byte	.LBB14
 6120 0bb7 74030000 		.4byte	.LBE14-.LBB14
 6121 0bbb 5A130000 		.4byte	0x135a
 6122 0bbf 29       		.uleb128 0x29
 6123 0bc0 820D0000 		.4byte	.LASF127
 6124 0bc4 01       		.byte	0x1
 6125 0bc5 57       		.byte	0x57
 6126 0bc6 A5010000 		.4byte	0x1a5
 6127 0bca 02       		.uleb128 0x2
 6128 0bcb 91       		.byte	0x91
 6129 0bcc 48       		.sleb128 -56
 6130 0bcd 15       		.uleb128 0x15
ARM GAS  C:\Users\Phuong\AppData\Local\Temp\ccdTtd1y.s 			page 143


 6131 0bce 7A000000 		.4byte	.LBB15
 6132 0bd2 1C000000 		.4byte	.LBE15-.LBB15
 6133 0bd6 270C0000 		.4byte	0xc27
 6134 0bda 28       		.uleb128 0x28
 6135 0bdb 6C00     		.ascii	"l\000"
 6136 0bdd 01       		.byte	0x1
 6137 0bde 5D       		.byte	0x5d
 6138 0bdf 32010000 		.4byte	0x132
 6139 0be3 70090000 		.4byte	.LLST32
 6140 0be7 17       		.uleb128 0x17
 6141 0be8 7E000000 		.4byte	.LVL108
 6142 0bec 16320000 		.4byte	0x3216
 6143 0bf0 18       		.uleb128 0x18
 6144 0bf1 96000000 		.4byte	.LVL111
 6145 0bf5 02       		.uleb128 0x2
 6146 0bf6 74       		.byte	0x74
 6147 0bf7 00       		.sleb128 0
 6148 0bf8 19       		.uleb128 0x19
 6149 0bf9 01       		.uleb128 0x1
 6150 0bfa 50       		.byte	0x50
 6151 0bfb 01       		.uleb128 0x1
 6152 0bfc 30       		.byte	0x30
 6153 0bfd 19       		.uleb128 0x19
 6154 0bfe 01       		.uleb128 0x1
 6155 0bff 51       		.byte	0x51
 6156 0c00 05       		.uleb128 0x5
 6157 0c01 03       		.byte	0x3
 6158 0c02 00000000 		.4byte	.LC1
 6159 0c06 19       		.uleb128 0x19
 6160 0c07 01       		.uleb128 0x1
 6161 0c08 52       		.byte	0x52
 6162 0c09 05       		.uleb128 0x5
 6163 0c0a 03       		.byte	0x3
 6164 0c0b B0000000 		.4byte	.LANCHOR1+48
 6165 0c0f 19       		.uleb128 0x19
 6166 0c10 01       		.uleb128 0x1
 6167 0c11 53       		.byte	0x53
 6168 0c12 02       		.uleb128 0x2
 6169 0c13 08       		.byte	0x8
 6170 0c14 5D       		.byte	0x5d
 6171 0c15 19       		.uleb128 0x19
 6172 0c16 02       		.uleb128 0x2
 6173 0c17 7D       		.byte	0x7d
 6174 0c18 00       		.sleb128 0
 6175 0c19 01       		.uleb128 0x1
 6176 0c1a 31       		.byte	0x31
 6177 0c1b 19       		.uleb128 0x19
 6178 0c1c 02       		.uleb128 0x2
 6179 0c1d 7D       		.byte	0x7d
 6180 0c1e 04       		.sleb128 4
 6181 0c1f 05       		.uleb128 0x5
 6182 0c20 03       		.byte	0x3
 6183 0c21 D0010000 		.4byte	.LC33
 6184 0c25 00       		.byte	0
 6185 0c26 00       		.byte	0
 6186 0c27 15       		.uleb128 0x15
 6187 0c28 A8000000 		.4byte	.LBB16
ARM GAS  C:\Users\Phuong\AppData\Local\Temp\ccdTtd1y.s 			page 144


 6188 0c2c 32030000 		.4byte	.LBE16-.LBB16
 6189 0c30 16130000 		.4byte	0x1316
 6190 0c34 28       		.uleb128 0x28
 6191 0c35 6B657900 		.ascii	"key\000"
 6192 0c39 01       		.byte	0x1
 6193 0c3a 64       		.byte	0x64
 6194 0c3b 68010000 		.4byte	0x168
 6195 0c3f 8E090000 		.4byte	.LLST33
 6196 0c43 27       		.uleb128 0x27
 6197 0c44 9D060000 		.4byte	.LASF128
 6198 0c48 01       		.byte	0x1
 6199 0c49 65       		.byte	0x65
 6200 0c4a 68010000 		.4byte	0x168
 6201 0c4e C6090000 		.4byte	.LLST34
 6202 0c52 27       		.uleb128 0x27
 6203 0c53 D9010000 		.4byte	.LASF129
 6204 0c57 01       		.byte	0x1
 6205 0c58 66       		.byte	0x66
 6206 0c59 68010000 		.4byte	0x168
 6207 0c5d FE090000 		.4byte	.LLST35
 6208 0c61 27       		.uleb128 0x27
 6209 0c62 E80B0000 		.4byte	.LASF130
 6210 0c66 01       		.byte	0x1
 6211 0c67 67       		.byte	0x67
 6212 0c68 68010000 		.4byte	0x168
 6213 0c6c 360A0000 		.4byte	.LLST36
 6214 0c70 28       		.uleb128 0x28
 6215 0c71 6D617000 		.ascii	"map\000"
 6216 0c75 01       		.byte	0x1
 6217 0c76 68       		.byte	0x68
 6218 0c77 68010000 		.4byte	0x168
 6219 0c7b 800A0000 		.4byte	.LLST37
 6220 0c7f 29       		.uleb128 0x29
 6221 0c80 38060000 		.4byte	.LASF131
 6222 0c84 01       		.byte	0x1
 6223 0c85 69       		.byte	0x69
 6224 0c86 68010000 		.4byte	0x168
 6225 0c8a 02       		.uleb128 0x2
 6226 0c8b 91       		.byte	0x91
 6227 0c8c 4C       		.sleb128 -52
 6228 0c8d 29       		.uleb128 0x29
 6229 0c8e 69000000 		.4byte	.LASF132
 6230 0c92 01       		.byte	0x1
 6231 0c93 6A       		.byte	0x6a
 6232 0c94 C6000000 		.4byte	0xc6
 6233 0c98 02       		.uleb128 0x2
 6234 0c99 91       		.byte	0x91
 6235 0c9a 58       		.sleb128 -40
 6236 0c9b 15       		.uleb128 0x15
 6237 0c9c B4000000 		.4byte	.LBB17
 6238 0ca0 1C000000 		.4byte	.LBE17-.LBB17
 6239 0ca4 F50C0000 		.4byte	0xcf5
 6240 0ca8 28       		.uleb128 0x28
 6241 0ca9 6C00     		.ascii	"l\000"
 6242 0cab 01       		.byte	0x1
 6243 0cac 70       		.byte	0x70
 6244 0cad 32010000 		.4byte	0x132
ARM GAS  C:\Users\Phuong\AppData\Local\Temp\ccdTtd1y.s 			page 145


 6245 0cb1 B40A0000 		.4byte	.LLST38
 6246 0cb5 17       		.uleb128 0x17
 6247 0cb6 B8000000 		.4byte	.LVL117
 6248 0cba 16320000 		.4byte	0x3216
 6249 0cbe 18       		.uleb128 0x18
 6250 0cbf D0000000 		.4byte	.LVL120
 6251 0cc3 02       		.uleb128 0x2
 6252 0cc4 74       		.byte	0x74
 6253 0cc5 00       		.sleb128 0
 6254 0cc6 19       		.uleb128 0x19
 6255 0cc7 01       		.uleb128 0x1
 6256 0cc8 50       		.byte	0x50
 6257 0cc9 01       		.uleb128 0x1
 6258 0cca 30       		.byte	0x30
 6259 0ccb 19       		.uleb128 0x19
 6260 0ccc 01       		.uleb128 0x1
 6261 0ccd 51       		.byte	0x51
 6262 0cce 05       		.uleb128 0x5
 6263 0ccf 03       		.byte	0x3
 6264 0cd0 00000000 		.4byte	.LC1
 6265 0cd4 19       		.uleb128 0x19
 6266 0cd5 01       		.uleb128 0x1
 6267 0cd6 52       		.byte	0x52
 6268 0cd7 05       		.uleb128 0x5
 6269 0cd8 03       		.byte	0x3
 6270 0cd9 B0000000 		.4byte	.LANCHOR1+48
 6271 0cdd 19       		.uleb128 0x19
 6272 0cde 01       		.uleb128 0x1
 6273 0cdf 53       		.byte	0x53
 6274 0ce0 02       		.uleb128 0x2
 6275 0ce1 08       		.byte	0x8
 6276 0ce2 70       		.byte	0x70
 6277 0ce3 19       		.uleb128 0x19
 6278 0ce4 02       		.uleb128 0x2
 6279 0ce5 7D       		.byte	0x7d
 6280 0ce6 00       		.sleb128 0
 6281 0ce7 01       		.uleb128 0x1
 6282 0ce8 31       		.byte	0x31
 6283 0ce9 19       		.uleb128 0x19
 6284 0cea 02       		.uleb128 0x2
 6285 0ceb 7D       		.byte	0x7d
 6286 0cec 04       		.sleb128 4
 6287 0ced 05       		.uleb128 0x5
 6288 0cee 03       		.byte	0x3
 6289 0cef 38020000 		.4byte	.LC37
 6290 0cf3 00       		.byte	0
 6291 0cf4 00       		.byte	0
 6292 0cf5 15       		.uleb128 0x15
 6293 0cf6 EE000000 		.4byte	.LBB18
 6294 0cfa 1C000000 		.4byte	.LBE18-.LBB18
 6295 0cfe 4F0D0000 		.4byte	0xd4f
 6296 0d02 28       		.uleb128 0x28
 6297 0d03 6C00     		.ascii	"l\000"
 6298 0d05 01       		.byte	0x1
 6299 0d06 7A       		.byte	0x7a
 6300 0d07 32010000 		.4byte	0x132
 6301 0d0b D20A0000 		.4byte	.LLST39
ARM GAS  C:\Users\Phuong\AppData\Local\Temp\ccdTtd1y.s 			page 146


 6302 0d0f 17       		.uleb128 0x17
 6303 0d10 F2000000 		.4byte	.LVL126
 6304 0d14 16320000 		.4byte	0x3216
 6305 0d18 18       		.uleb128 0x18
 6306 0d19 0A010000 		.4byte	.LVL129
 6307 0d1d 02       		.uleb128 0x2
 6308 0d1e 74       		.byte	0x74
 6309 0d1f 00       		.sleb128 0
 6310 0d20 19       		.uleb128 0x19
 6311 0d21 01       		.uleb128 0x1
 6312 0d22 50       		.byte	0x50
 6313 0d23 01       		.uleb128 0x1
 6314 0d24 30       		.byte	0x30
 6315 0d25 19       		.uleb128 0x19
 6316 0d26 01       		.uleb128 0x1
 6317 0d27 51       		.byte	0x51
 6318 0d28 05       		.uleb128 0x5
 6319 0d29 03       		.byte	0x3
 6320 0d2a 00000000 		.4byte	.LC1
 6321 0d2e 19       		.uleb128 0x19
 6322 0d2f 01       		.uleb128 0x1
 6323 0d30 52       		.byte	0x52
 6324 0d31 05       		.uleb128 0x5
 6325 0d32 03       		.byte	0x3
 6326 0d33 B0000000 		.4byte	.LANCHOR1+48
 6327 0d37 19       		.uleb128 0x19
 6328 0d38 01       		.uleb128 0x1
 6329 0d39 53       		.byte	0x53
 6330 0d3a 02       		.uleb128 0x2
 6331 0d3b 08       		.byte	0x8
 6332 0d3c 7A       		.byte	0x7a
 6333 0d3d 19       		.uleb128 0x19
 6334 0d3e 02       		.uleb128 0x2
 6335 0d3f 7D       		.byte	0x7d
 6336 0d40 00       		.sleb128 0
 6337 0d41 01       		.uleb128 0x1
 6338 0d42 31       		.byte	0x31
 6339 0d43 19       		.uleb128 0x19
 6340 0d44 02       		.uleb128 0x2
 6341 0d45 7D       		.byte	0x7d
 6342 0d46 04       		.sleb128 4
 6343 0d47 05       		.uleb128 0x5
 6344 0d48 03       		.byte	0x3
 6345 0d49 98020000 		.4byte	.LC41
 6346 0d4d 00       		.byte	0
 6347 0d4e 00       		.byte	0
 6348 0d4f 15       		.uleb128 0x15
 6349 0d50 26010000 		.4byte	.LBB19
 6350 0d54 1C000000 		.4byte	.LBE19-.LBB19
 6351 0d58 A90D0000 		.4byte	0xda9
 6352 0d5c 28       		.uleb128 0x28
 6353 0d5d 6C00     		.ascii	"l\000"
 6354 0d5f 01       		.byte	0x1
 6355 0d60 87       		.byte	0x87
 6356 0d61 32010000 		.4byte	0x132
 6357 0d65 F00A0000 		.4byte	.LLST40
 6358 0d69 17       		.uleb128 0x17
ARM GAS  C:\Users\Phuong\AppData\Local\Temp\ccdTtd1y.s 			page 147


 6359 0d6a 2A010000 		.4byte	.LVL136
 6360 0d6e 16320000 		.4byte	0x3216
 6361 0d72 18       		.uleb128 0x18
 6362 0d73 42010000 		.4byte	.LVL139
 6363 0d77 02       		.uleb128 0x2
 6364 0d78 74       		.byte	0x74
 6365 0d79 00       		.sleb128 0
 6366 0d7a 19       		.uleb128 0x19
 6367 0d7b 01       		.uleb128 0x1
 6368 0d7c 50       		.byte	0x50
 6369 0d7d 01       		.uleb128 0x1
 6370 0d7e 30       		.byte	0x30
 6371 0d7f 19       		.uleb128 0x19
 6372 0d80 01       		.uleb128 0x1
 6373 0d81 51       		.byte	0x51
 6374 0d82 05       		.uleb128 0x5
 6375 0d83 03       		.byte	0x3
 6376 0d84 00000000 		.4byte	.LC1
 6377 0d88 19       		.uleb128 0x19
 6378 0d89 01       		.uleb128 0x1
 6379 0d8a 52       		.byte	0x52
 6380 0d8b 05       		.uleb128 0x5
 6381 0d8c 03       		.byte	0x3
 6382 0d8d B0000000 		.4byte	.LANCHOR1+48
 6383 0d91 19       		.uleb128 0x19
 6384 0d92 01       		.uleb128 0x1
 6385 0d93 53       		.byte	0x53
 6386 0d94 02       		.uleb128 0x2
 6387 0d95 08       		.byte	0x8
 6388 0d96 87       		.byte	0x87
 6389 0d97 19       		.uleb128 0x19
 6390 0d98 02       		.uleb128 0x2
 6391 0d99 7D       		.byte	0x7d
 6392 0d9a 00       		.sleb128 0
 6393 0d9b 01       		.uleb128 0x1
 6394 0d9c 31       		.byte	0x31
 6395 0d9d 19       		.uleb128 0x19
 6396 0d9e 02       		.uleb128 0x2
 6397 0d9f 7D       		.byte	0x7d
 6398 0da0 04       		.sleb128 4
 6399 0da1 05       		.uleb128 0x5
 6400 0da2 03       		.byte	0x3
 6401 0da3 C8020000 		.4byte	.LC43
 6402 0da7 00       		.byte	0
 6403 0da8 00       		.byte	0
 6404 0da9 15       		.uleb128 0x15
 6405 0daa 60010000 		.4byte	.LBB20
 6406 0dae 1C000000 		.4byte	.LBE20-.LBB20
 6407 0db2 030E0000 		.4byte	0xe03
 6408 0db6 28       		.uleb128 0x28
 6409 0db7 6C00     		.ascii	"l\000"
 6410 0db9 01       		.byte	0x1
 6411 0dba 94       		.byte	0x94
 6412 0dbb 32010000 		.4byte	0x132
 6413 0dbf 0E0B0000 		.4byte	.LLST41
 6414 0dc3 17       		.uleb128 0x17
 6415 0dc4 64010000 		.4byte	.LVL147
ARM GAS  C:\Users\Phuong\AppData\Local\Temp\ccdTtd1y.s 			page 148


 6416 0dc8 16320000 		.4byte	0x3216
 6417 0dcc 18       		.uleb128 0x18
 6418 0dcd 7C010000 		.4byte	.LVL150
 6419 0dd1 02       		.uleb128 0x2
 6420 0dd2 74       		.byte	0x74
 6421 0dd3 00       		.sleb128 0
 6422 0dd4 19       		.uleb128 0x19
 6423 0dd5 01       		.uleb128 0x1
 6424 0dd6 50       		.byte	0x50
 6425 0dd7 01       		.uleb128 0x1
 6426 0dd8 30       		.byte	0x30
 6427 0dd9 19       		.uleb128 0x19
 6428 0dda 01       		.uleb128 0x1
 6429 0ddb 51       		.byte	0x51
 6430 0ddc 05       		.uleb128 0x5
 6431 0ddd 03       		.byte	0x3
 6432 0dde 00000000 		.4byte	.LC1
 6433 0de2 19       		.uleb128 0x19
 6434 0de3 01       		.uleb128 0x1
 6435 0de4 52       		.byte	0x52
 6436 0de5 05       		.uleb128 0x5
 6437 0de6 03       		.byte	0x3
 6438 0de7 B0000000 		.4byte	.LANCHOR1+48
 6439 0deb 19       		.uleb128 0x19
 6440 0dec 01       		.uleb128 0x1
 6441 0ded 53       		.byte	0x53
 6442 0dee 02       		.uleb128 0x2
 6443 0def 08       		.byte	0x8
 6444 0df0 94       		.byte	0x94
 6445 0df1 19       		.uleb128 0x19
 6446 0df2 02       		.uleb128 0x2
 6447 0df3 7D       		.byte	0x7d
 6448 0df4 00       		.sleb128 0
 6449 0df5 01       		.uleb128 0x1
 6450 0df6 31       		.byte	0x31
 6451 0df7 19       		.uleb128 0x19
 6452 0df8 02       		.uleb128 0x2
 6453 0df9 7D       		.byte	0x7d
 6454 0dfa 04       		.sleb128 4
 6455 0dfb 05       		.uleb128 0x5
 6456 0dfc 03       		.byte	0x3
 6457 0dfd 5C030000 		.4byte	.LC47
 6458 0e01 00       		.byte	0
 6459 0e02 00       		.byte	0
 6460 0e03 15       		.uleb128 0x15
 6461 0e04 98010000 		.4byte	.LBB21
 6462 0e08 1C000000 		.4byte	.LBE21-.LBB21
 6463 0e0c 5D0E0000 		.4byte	0xe5d
 6464 0e10 28       		.uleb128 0x28
 6465 0e11 6C00     		.ascii	"l\000"
 6466 0e13 01       		.byte	0x1
 6467 0e14 A0       		.byte	0xa0
 6468 0e15 32010000 		.4byte	0x132
 6469 0e19 2C0B0000 		.4byte	.LLST42
 6470 0e1d 17       		.uleb128 0x17
 6471 0e1e 9C010000 		.4byte	.LVL158
 6472 0e22 16320000 		.4byte	0x3216
ARM GAS  C:\Users\Phuong\AppData\Local\Temp\ccdTtd1y.s 			page 149


 6473 0e26 18       		.uleb128 0x18
 6474 0e27 B4010000 		.4byte	.LVL161
 6475 0e2b 02       		.uleb128 0x2
 6476 0e2c 74       		.byte	0x74
 6477 0e2d 00       		.sleb128 0
 6478 0e2e 19       		.uleb128 0x19
 6479 0e2f 01       		.uleb128 0x1
 6480 0e30 50       		.byte	0x50
 6481 0e31 01       		.uleb128 0x1
 6482 0e32 30       		.byte	0x30
 6483 0e33 19       		.uleb128 0x19
 6484 0e34 01       		.uleb128 0x1
 6485 0e35 51       		.byte	0x51
 6486 0e36 05       		.uleb128 0x5
 6487 0e37 03       		.byte	0x3
 6488 0e38 00000000 		.4byte	.LC1
 6489 0e3c 19       		.uleb128 0x19
 6490 0e3d 01       		.uleb128 0x1
 6491 0e3e 52       		.byte	0x52
 6492 0e3f 05       		.uleb128 0x5
 6493 0e40 03       		.byte	0x3
 6494 0e41 B0000000 		.4byte	.LANCHOR1+48
 6495 0e45 19       		.uleb128 0x19
 6496 0e46 01       		.uleb128 0x1
 6497 0e47 53       		.byte	0x53
 6498 0e48 02       		.uleb128 0x2
 6499 0e49 08       		.byte	0x8
 6500 0e4a A0       		.byte	0xa0
 6501 0e4b 19       		.uleb128 0x19
 6502 0e4c 02       		.uleb128 0x2
 6503 0e4d 7D       		.byte	0x7d
 6504 0e4e 00       		.sleb128 0
 6505 0e4f 01       		.uleb128 0x1
 6506 0e50 31       		.byte	0x31
 6507 0e51 19       		.uleb128 0x19
 6508 0e52 02       		.uleb128 0x2
 6509 0e53 7D       		.byte	0x7d
 6510 0e54 04       		.sleb128 4
 6511 0e55 05       		.uleb128 0x5
 6512 0e56 03       		.byte	0x3
 6513 0e57 84030000 		.4byte	.LC49
 6514 0e5b 00       		.byte	0
 6515 0e5c 00       		.byte	0
 6516 0e5d 15       		.uleb128 0x15
 6517 0e5e C6010000 		.4byte	.LBB22
 6518 0e62 08020000 		.4byte	.LBE22-.LBB22
 6519 0e66 17120000 		.4byte	0x1217
 6520 0e6a 29       		.uleb128 0x29
 6521 0e6b 2E010000 		.4byte	.LASF133
 6522 0e6f 01       		.byte	0x1
 6523 0e70 A7       		.byte	0xa7
 6524 0e71 BB000000 		.4byte	0xbb
 6525 0e75 02       		.uleb128 0x2
 6526 0e76 91       		.byte	0x91
 6527 0e77 50       		.sleb128 -48
 6528 0e78 15       		.uleb128 0x15
 6529 0e79 D2010000 		.4byte	.LBB23
ARM GAS  C:\Users\Phuong\AppData\Local\Temp\ccdTtd1y.s 			page 150


 6530 0e7d 1C000000 		.4byte	.LBE23-.LBB23
 6531 0e81 D20E0000 		.4byte	0xed2
 6532 0e85 28       		.uleb128 0x28
 6533 0e86 6C00     		.ascii	"l\000"
 6534 0e88 01       		.byte	0x1
 6535 0e89 AC       		.byte	0xac
 6536 0e8a 32010000 		.4byte	0x132
 6537 0e8e 4A0B0000 		.4byte	.LLST43
 6538 0e92 17       		.uleb128 0x17
 6539 0e93 D6010000 		.4byte	.LVL168
 6540 0e97 16320000 		.4byte	0x3216
 6541 0e9b 18       		.uleb128 0x18
 6542 0e9c EE010000 		.4byte	.LVL171
 6543 0ea0 02       		.uleb128 0x2
 6544 0ea1 74       		.byte	0x74
 6545 0ea2 00       		.sleb128 0
 6546 0ea3 19       		.uleb128 0x19
 6547 0ea4 01       		.uleb128 0x1
 6548 0ea5 50       		.byte	0x50
 6549 0ea6 01       		.uleb128 0x1
 6550 0ea7 30       		.byte	0x30
 6551 0ea8 19       		.uleb128 0x19
 6552 0ea9 01       		.uleb128 0x1
 6553 0eaa 51       		.byte	0x51
 6554 0eab 05       		.uleb128 0x5
 6555 0eac 03       		.byte	0x3
 6556 0ead 00000000 		.4byte	.LC1
 6557 0eb1 19       		.uleb128 0x19
 6558 0eb2 01       		.uleb128 0x1
 6559 0eb3 52       		.byte	0x52
 6560 0eb4 05       		.uleb128 0x5
 6561 0eb5 03       		.byte	0x3
 6562 0eb6 B0000000 		.4byte	.LANCHOR1+48
 6563 0eba 19       		.uleb128 0x19
 6564 0ebb 01       		.uleb128 0x1
 6565 0ebc 53       		.byte	0x53
 6566 0ebd 02       		.uleb128 0x2
 6567 0ebe 08       		.byte	0x8
 6568 0ebf AC       		.byte	0xac
 6569 0ec0 19       		.uleb128 0x19
 6570 0ec1 02       		.uleb128 0x2
 6571 0ec2 7D       		.byte	0x7d
 6572 0ec3 00       		.sleb128 0
 6573 0ec4 01       		.uleb128 0x1
 6574 0ec5 31       		.byte	0x31
 6575 0ec6 19       		.uleb128 0x19
 6576 0ec7 02       		.uleb128 0x2
 6577 0ec8 7D       		.byte	0x7d
 6578 0ec9 04       		.sleb128 4
 6579 0eca 05       		.uleb128 0x5
 6580 0ecb 03       		.byte	0x3
 6581 0ecc 20040000 		.4byte	.LC53
 6582 0ed0 00       		.byte	0
 6583 0ed1 00       		.byte	0
 6584 0ed2 15       		.uleb128 0x15
 6585 0ed3 0C020000 		.4byte	.LBB24
 6586 0ed7 1C000000 		.4byte	.LBE24-.LBB24
ARM GAS  C:\Users\Phuong\AppData\Local\Temp\ccdTtd1y.s 			page 151


 6587 0edb 2C0F0000 		.4byte	0xf2c
 6588 0edf 28       		.uleb128 0x28
 6589 0ee0 6C00     		.ascii	"l\000"
 6590 0ee2 01       		.byte	0x1
 6591 0ee3 B9       		.byte	0xb9
 6592 0ee4 32010000 		.4byte	0x132
 6593 0ee8 680B0000 		.4byte	.LLST44
 6594 0eec 17       		.uleb128 0x17
 6595 0eed 10020000 		.4byte	.LVL178
 6596 0ef1 16320000 		.4byte	0x3216
 6597 0ef5 18       		.uleb128 0x18
 6598 0ef6 28020000 		.4byte	.LVL181
 6599 0efa 02       		.uleb128 0x2
 6600 0efb 74       		.byte	0x74
 6601 0efc 00       		.sleb128 0
 6602 0efd 19       		.uleb128 0x19
 6603 0efe 01       		.uleb128 0x1
 6604 0eff 50       		.byte	0x50
 6605 0f00 01       		.uleb128 0x1
 6606 0f01 30       		.byte	0x30
 6607 0f02 19       		.uleb128 0x19
 6608 0f03 01       		.uleb128 0x1
 6609 0f04 51       		.byte	0x51
 6610 0f05 05       		.uleb128 0x5
 6611 0f06 03       		.byte	0x3
 6612 0f07 00000000 		.4byte	.LC1
 6613 0f0b 19       		.uleb128 0x19
 6614 0f0c 01       		.uleb128 0x1
 6615 0f0d 52       		.byte	0x52
 6616 0f0e 05       		.uleb128 0x5
 6617 0f0f 03       		.byte	0x3
 6618 0f10 B0000000 		.4byte	.LANCHOR1+48
 6619 0f14 19       		.uleb128 0x19
 6620 0f15 01       		.uleb128 0x1
 6621 0f16 53       		.byte	0x53
 6622 0f17 02       		.uleb128 0x2
 6623 0f18 08       		.byte	0x8
 6624 0f19 B9       		.byte	0xb9
 6625 0f1a 19       		.uleb128 0x19
 6626 0f1b 02       		.uleb128 0x2
 6627 0f1c 7D       		.byte	0x7d
 6628 0f1d 00       		.sleb128 0
 6629 0f1e 01       		.uleb128 0x1
 6630 0f1f 31       		.byte	0x31
 6631 0f20 19       		.uleb128 0x19
 6632 0f21 02       		.uleb128 0x2
 6633 0f22 7D       		.byte	0x7d
 6634 0f23 04       		.sleb128 4
 6635 0f24 05       		.uleb128 0x5
 6636 0f25 03       		.byte	0x3
 6637 0f26 B4040000 		.4byte	.LC57
 6638 0f2a 00       		.byte	0
 6639 0f2b 00       		.byte	0
 6640 0f2c 15       		.uleb128 0x15
 6641 0f2d 36020000 		.4byte	.LBB25
 6642 0f31 92010000 		.4byte	.LBE25-.LBB25
 6643 0f35 B6110000 		.4byte	0x11b6
ARM GAS  C:\Users\Phuong\AppData\Local\Temp\ccdTtd1y.s 			page 152


 6644 0f39 29       		.uleb128 0x29
 6645 0f3a DB110000 		.4byte	.LASF134
 6646 0f3e 01       		.byte	0x1
 6647 0f3f C0       		.byte	0xc0
 6648 0f40 A9000000 		.4byte	0xa9
 6649 0f44 02       		.uleb128 0x2
 6650 0f45 91       		.byte	0x91
 6651 0f46 54       		.sleb128 -44
 6652 0f47 27       		.uleb128 0x27
 6653 0f48 5B050000 		.4byte	.LASF135
 6654 0f4c 01       		.byte	0x1
 6655 0f4d C1       		.byte	0xc1
 6656 0f4e E7000000 		.4byte	0xe7
 6657 0f52 860B0000 		.4byte	.LLST45
 6658 0f56 27       		.uleb128 0x27
 6659 0f57 54110000 		.4byte	.LASF136
 6660 0f5b 01       		.byte	0x1
 6661 0f5c C2       		.byte	0xc2
 6662 0f5d FD000000 		.4byte	0xfd
 6663 0f61 C50B0000 		.4byte	.LLST46
 6664 0f65 27       		.uleb128 0x27
 6665 0f66 AD000000 		.4byte	.LASF137
 6666 0f6a 01       		.byte	0x1
 6667 0f6b C3       		.byte	0xc3
 6668 0f6c FD000000 		.4byte	0xfd
 6669 0f70 FA0B0000 		.4byte	.LLST47
 6670 0f74 2A       		.uleb128 0x2a
 6671 0f75 00000000 		.4byte	.Ldebug_ranges0+0
 6672 0f79 C2100000 		.4byte	0x10c2
 6673 0f7d 27       		.uleb128 0x27
 6674 0f7e FF0A0000 		.4byte	.LASF138
 6675 0f82 01       		.byte	0x1
 6676 0f83 DA       		.byte	0xda
 6677 0f84 7D0A0000 		.4byte	0xa7d
 6678 0f88 2F0C0000 		.4byte	.LLST48
 6679 0f8c 15       		.uleb128 0x15
 6680 0f8d 70020000 		.4byte	.LBB27
 6681 0f91 1C000000 		.4byte	.LBE27-.LBB27
 6682 0f95 E60F0000 		.4byte	0xfe6
 6683 0f99 28       		.uleb128 0x28
 6684 0f9a 6C00     		.ascii	"l\000"
 6685 0f9c 01       		.byte	0x1
 6686 0f9d DE       		.byte	0xde
 6687 0f9e 32010000 		.4byte	0x132
 6688 0fa2 6E0C0000 		.4byte	.LLST49
 6689 0fa6 17       		.uleb128 0x17
 6690 0fa7 74020000 		.4byte	.LVL198
 6691 0fab 16320000 		.4byte	0x3216
 6692 0faf 18       		.uleb128 0x18
 6693 0fb0 8C020000 		.4byte	.LVL201
 6694 0fb4 02       		.uleb128 0x2
 6695 0fb5 74       		.byte	0x74
 6696 0fb6 00       		.sleb128 0
 6697 0fb7 19       		.uleb128 0x19
 6698 0fb8 01       		.uleb128 0x1
 6699 0fb9 50       		.byte	0x50
 6700 0fba 01       		.uleb128 0x1
ARM GAS  C:\Users\Phuong\AppData\Local\Temp\ccdTtd1y.s 			page 153


 6701 0fbb 30       		.byte	0x30
 6702 0fbc 19       		.uleb128 0x19
 6703 0fbd 01       		.uleb128 0x1
 6704 0fbe 51       		.byte	0x51
 6705 0fbf 05       		.uleb128 0x5
 6706 0fc0 03       		.byte	0x3
 6707 0fc1 00000000 		.4byte	.LC1
 6708 0fc5 19       		.uleb128 0x19
 6709 0fc6 01       		.uleb128 0x1
 6710 0fc7 52       		.byte	0x52
 6711 0fc8 05       		.uleb128 0x5
 6712 0fc9 03       		.byte	0x3
 6713 0fca B0000000 		.4byte	.LANCHOR1+48
 6714 0fce 19       		.uleb128 0x19
 6715 0fcf 01       		.uleb128 0x1
 6716 0fd0 53       		.byte	0x53
 6717 0fd1 02       		.uleb128 0x2
 6718 0fd2 08       		.byte	0x8
 6719 0fd3 DE       		.byte	0xde
 6720 0fd4 19       		.uleb128 0x19
 6721 0fd5 02       		.uleb128 0x2
 6722 0fd6 7D       		.byte	0x7d
 6723 0fd7 00       		.sleb128 0
 6724 0fd8 01       		.uleb128 0x1
 6725 0fd9 31       		.byte	0x31
 6726 0fda 19       		.uleb128 0x19
 6727 0fdb 02       		.uleb128 0x2
 6728 0fdc 7D       		.byte	0x7d
 6729 0fdd 04       		.sleb128 4
 6730 0fde 05       		.uleb128 0x5
 6731 0fdf 03       		.byte	0x3
 6732 0fe0 B4040000 		.4byte	.LC57
 6733 0fe4 00       		.byte	0
 6734 0fe5 00       		.byte	0
 6735 0fe6 2A       		.uleb128 0x2a
 6736 0fe7 28000000 		.4byte	.Ldebug_ranges0+0x28
 6737 0feb 94100000 		.4byte	0x1094
 6738 0fef 27       		.uleb128 0x27
 6739 0ff0 50000000 		.4byte	.LASF139
 6740 0ff4 01       		.byte	0x1
 6741 0ff5 E6       		.byte	0xe6
 6742 0ff6 FA010000 		.4byte	0x1fa
 6743 0ffa 8C0C0000 		.4byte	.LLST50
 6744 0ffe 15       		.uleb128 0x15
 6745 0fff DA020000 		.4byte	.LBB29
 6746 1003 1E000000 		.4byte	.LBE29-.LBB29
 6747 1007 5B100000 		.4byte	0x105b
 6748 100b 16       		.uleb128 0x16
 6749 100c 6C00     		.ascii	"l\000"
 6750 100e 01       		.byte	0x1
 6751 100f 0301     		.2byte	0x103
 6752 1011 32010000 		.4byte	0x132
 6753 1015 9F0C0000 		.4byte	.LLST51
 6754 1019 17       		.uleb128 0x17
 6755 101a DE020000 		.4byte	.LVL210
 6756 101e 16320000 		.4byte	0x3216
 6757 1022 18       		.uleb128 0x18
ARM GAS  C:\Users\Phuong\AppData\Local\Temp\ccdTtd1y.s 			page 154


 6758 1023 F8020000 		.4byte	.LVL214
 6759 1027 02       		.uleb128 0x2
 6760 1028 75       		.byte	0x75
 6761 1029 00       		.sleb128 0
 6762 102a 19       		.uleb128 0x19
 6763 102b 01       		.uleb128 0x1
 6764 102c 50       		.byte	0x50
 6765 102d 01       		.uleb128 0x1
 6766 102e 30       		.byte	0x30
 6767 102f 19       		.uleb128 0x19
 6768 1030 01       		.uleb128 0x1
 6769 1031 51       		.byte	0x51
 6770 1032 05       		.uleb128 0x5
 6771 1033 03       		.byte	0x3
 6772 1034 00000000 		.4byte	.LC1
 6773 1038 19       		.uleb128 0x19
 6774 1039 01       		.uleb128 0x1
 6775 103a 52       		.byte	0x52
 6776 103b 05       		.uleb128 0x5
 6777 103c 03       		.byte	0x3
 6778 103d B0000000 		.4byte	.LANCHOR1+48
 6779 1041 19       		.uleb128 0x19
 6780 1042 01       		.uleb128 0x1
 6781 1043 53       		.byte	0x53
 6782 1044 03       		.uleb128 0x3
 6783 1045 0A       		.byte	0xa
 6784 1046 0301     		.2byte	0x103
 6785 1048 19       		.uleb128 0x19
 6786 1049 02       		.uleb128 0x2
 6787 104a 7D       		.byte	0x7d
 6788 104b 00       		.sleb128 0
 6789 104c 02       		.uleb128 0x2
 6790 104d 74       		.byte	0x74
 6791 104e 00       		.sleb128 0
 6792 104f 19       		.uleb128 0x19
 6793 1050 02       		.uleb128 0x2
 6794 1051 7D       		.byte	0x7d
 6795 1052 04       		.sleb128 4
 6796 1053 05       		.uleb128 0x5
 6797 1054 03       		.byte	0x3
 6798 1055 08010000 		.4byte	.LC21
 6799 1059 00       		.byte	0
 6800 105a 00       		.byte	0
 6801 105b 23       		.uleb128 0x23
 6802 105c C8020000 		.4byte	.LVL207
 6803 1060 02       		.uleb128 0x2
 6804 1061 7B       		.byte	0x7b
 6805 1062 00       		.sleb128 0
 6806 1063 6F100000 		.4byte	0x106f
 6807 1067 19       		.uleb128 0x19
 6808 1068 02       		.uleb128 0x2
 6809 1069 7D       		.byte	0x7d
 6810 106a 00       		.sleb128 0
 6811 106b 02       		.uleb128 0x2
 6812 106c 74       		.byte	0x74
 6813 106d 00       		.sleb128 0
 6814 106e 00       		.byte	0
ARM GAS  C:\Users\Phuong\AppData\Local\Temp\ccdTtd1y.s 			page 155


 6815 106f 22       		.uleb128 0x22
 6816 1070 CE020000 		.4byte	.LVL208
 6817 1074 2C320000 		.4byte	0x322c
 6818 1078 83100000 		.4byte	0x1083
 6819 107c 19       		.uleb128 0x19
 6820 107d 01       		.uleb128 0x1
 6821 107e 50       		.byte	0x50
 6822 107f 02       		.uleb128 0x2
 6823 1080 76       		.byte	0x76
 6824 1081 00       		.sleb128 0
 6825 1082 00       		.byte	0
 6826 1083 24       		.uleb128 0x24
 6827 1084 D6020000 		.4byte	.LVL209
 6828 1088 42320000 		.4byte	0x3242
 6829 108c 19       		.uleb128 0x19
 6830 108d 01       		.uleb128 0x1
 6831 108e 51       		.byte	0x51
 6832 108f 02       		.uleb128 0x2
 6833 1090 75       		.byte	0x75
 6834 1091 00       		.sleb128 0
 6835 1092 00       		.byte	0
 6836 1093 00       		.byte	0
 6837 1094 22       		.uleb128 0x22
 6838 1095 6C020000 		.4byte	.LVL196
 6839 1099 37320000 		.4byte	0x3237
 6840 109d A8100000 		.4byte	0x10a8
 6841 10a1 19       		.uleb128 0x19
 6842 10a2 01       		.uleb128 0x1
 6843 10a3 50       		.byte	0x50
 6844 10a4 02       		.uleb128 0x2
 6845 10a5 75       		.byte	0x75
 6846 10a6 00       		.sleb128 0
 6847 10a7 00       		.byte	0
 6848 10a8 17       		.uleb128 0x17
 6849 10a9 96020000 		.4byte	.LVL203
 6850 10ad 4D320000 		.4byte	0x324d
 6851 10b1 24       		.uleb128 0x24
 6852 10b2 04030000 		.4byte	.LVL216
 6853 10b6 58320000 		.4byte	0x3258
 6854 10ba 19       		.uleb128 0x19
 6855 10bb 01       		.uleb128 0x1
 6856 10bc 50       		.byte	0x50
 6857 10bd 02       		.uleb128 0x2
 6858 10be 75       		.byte	0x75
 6859 10bf 00       		.sleb128 0
 6860 10c0 00       		.byte	0
 6861 10c1 00       		.byte	0
 6862 10c2 15       		.uleb128 0x15
 6863 10c3 80030000 		.4byte	.LBB34
 6864 10c7 1E000000 		.4byte	.LBE34-.LBB34
 6865 10cb 1E110000 		.4byte	0x111e
 6866 10cf 16       		.uleb128 0x16
 6867 10d0 6C00     		.ascii	"l\000"
 6868 10d2 01       		.byte	0x1
 6869 10d3 2101     		.2byte	0x121
 6870 10d5 32010000 		.4byte	0x132
 6871 10d9 C80C0000 		.4byte	.LLST52
ARM GAS  C:\Users\Phuong\AppData\Local\Temp\ccdTtd1y.s 			page 156


 6872 10dd 17       		.uleb128 0x17
 6873 10de 84030000 		.4byte	.LVL226
 6874 10e2 16320000 		.4byte	0x3216
 6875 10e6 18       		.uleb128 0x18
 6876 10e7 9E030000 		.4byte	.LVL229
 6877 10eb 02       		.uleb128 0x2
 6878 10ec 74       		.byte	0x74
 6879 10ed 00       		.sleb128 0
 6880 10ee 19       		.uleb128 0x19
 6881 10ef 01       		.uleb128 0x1
 6882 10f0 50       		.byte	0x50
 6883 10f1 01       		.uleb128 0x1
 6884 10f2 30       		.byte	0x30
 6885 10f3 19       		.uleb128 0x19
 6886 10f4 01       		.uleb128 0x1
 6887 10f5 51       		.byte	0x51
 6888 10f6 05       		.uleb128 0x5
 6889 10f7 03       		.byte	0x3
 6890 10f8 00000000 		.4byte	.LC1
 6891 10fc 19       		.uleb128 0x19
 6892 10fd 01       		.uleb128 0x1
 6893 10fe 52       		.byte	0x52
 6894 10ff 05       		.uleb128 0x5
 6895 1100 03       		.byte	0x3
 6896 1101 B0000000 		.4byte	.LANCHOR1+48
 6897 1105 19       		.uleb128 0x19
 6898 1106 01       		.uleb128 0x1
 6899 1107 53       		.byte	0x53
 6900 1108 03       		.uleb128 0x3
 6901 1109 0A       		.byte	0xa
 6902 110a 2101     		.2byte	0x121
 6903 110c 19       		.uleb128 0x19
 6904 110d 02       		.uleb128 0x2
 6905 110e 7D       		.byte	0x7d
 6906 110f 00       		.sleb128 0
 6907 1110 01       		.uleb128 0x1
 6908 1111 31       		.byte	0x31
 6909 1112 19       		.uleb128 0x19
 6910 1113 02       		.uleb128 0x2
 6911 1114 7D       		.byte	0x7d
 6912 1115 04       		.sleb128 4
 6913 1116 05       		.uleb128 0x5
 6914 1117 03       		.byte	0x3
 6915 1118 E4040000 		.4byte	.LC60
 6916 111c 00       		.byte	0
 6917 111d 00       		.byte	0
 6918 111e 22       		.uleb128 0x22
 6919 111f 42020000 		.4byte	.LVL188
 6920 1123 63320000 		.4byte	0x3263
 6921 1127 3A110000 		.4byte	0x113a
 6922 112b 19       		.uleb128 0x19
 6923 112c 01       		.uleb128 0x1
 6924 112d 50       		.byte	0x50
 6925 112e 02       		.uleb128 0x2
 6926 112f 75       		.byte	0x75
 6927 1130 00       		.sleb128 0
 6928 1131 19       		.uleb128 0x19
ARM GAS  C:\Users\Phuong\AppData\Local\Temp\ccdTtd1y.s 			page 157


 6929 1132 01       		.uleb128 0x1
 6930 1133 51       		.byte	0x51
 6931 1134 04       		.uleb128 0x4
 6932 1135 91       		.byte	0x91
 6933 1136 BC7F     		.sleb128 -68
 6934 1138 06       		.byte	0x6
 6935 1139 00       		.byte	0
 6936 113a 22       		.uleb128 0x22
 6937 113b 4E020000 		.4byte	.LVL190
 6938 113f 6E320000 		.4byte	0x326e
 6939 1143 54110000 		.4byte	0x1154
 6940 1147 19       		.uleb128 0x19
 6941 1148 01       		.uleb128 0x1
 6942 1149 50       		.byte	0x50
 6943 114a 02       		.uleb128 0x2
 6944 114b 7A       		.byte	0x7a
 6945 114c 00       		.sleb128 0
 6946 114d 19       		.uleb128 0x19
 6947 114e 01       		.uleb128 0x1
 6948 114f 51       		.byte	0x51
 6949 1150 02       		.uleb128 0x2
 6950 1151 91       		.byte	0x91
 6951 1152 54       		.sleb128 -44
 6952 1153 00       		.byte	0
 6953 1154 17       		.uleb128 0x17
 6954 1155 62020000 		.4byte	.LVL193
 6955 1159 79320000 		.4byte	0x3279
 6956 115d 17       		.uleb128 0x17
 6957 115e 28030000 		.4byte	.LVL223
 6958 1162 4D320000 		.4byte	0x324d
 6959 1166 22       		.uleb128 0x22
 6960 1167 AC030000 		.4byte	.LVL231
 6961 116b 84320000 		.4byte	0x3284
 6962 116f 86110000 		.4byte	0x1186
 6963 1173 19       		.uleb128 0x19
 6964 1174 01       		.uleb128 0x1
 6965 1175 50       		.byte	0x50
 6966 1176 05       		.uleb128 0x5
 6967 1177 03       		.byte	0x3
 6968 1178 BC010000 		.4byte	.LC31
 6969 117c 19       		.uleb128 0x19
 6970 117d 01       		.uleb128 0x1
 6971 117e 51       		.byte	0x51
 6972 117f 05       		.uleb128 0x5
 6973 1180 03       		.byte	0x3
 6974 1181 E4040000 		.4byte	.LC60
 6975 1185 00       		.byte	0
 6976 1186 17       		.uleb128 0x17
 6977 1187 B4030000 		.4byte	.LVL234
 6978 118b 8F320000 		.4byte	0x328f
 6979 118f 22       		.uleb128 0x22
 6980 1190 C2030000 		.4byte	.LVL238
 6981 1194 9A320000 		.4byte	0x329a
 6982 1198 A3110000 		.4byte	0x11a3
 6983 119c 19       		.uleb128 0x19
 6984 119d 01       		.uleb128 0x1
 6985 119e 50       		.byte	0x50
ARM GAS  C:\Users\Phuong\AppData\Local\Temp\ccdTtd1y.s 			page 158


 6986 119f 02       		.uleb128 0x2
 6987 11a0 7A       		.byte	0x7a
 6988 11a1 00       		.sleb128 0
 6989 11a2 00       		.byte	0
 6990 11a3 24       		.uleb128 0x24
 6991 11a4 C8030000 		.4byte	.LVL239
 6992 11a8 9A320000 		.4byte	0x329a
 6993 11ac 19       		.uleb128 0x19
 6994 11ad 01       		.uleb128 0x1
 6995 11ae 50       		.byte	0x50
 6996 11af 04       		.uleb128 0x4
 6997 11b0 91       		.byte	0x91
 6998 11b1 BC7F     		.sleb128 -68
 6999 11b3 06       		.byte	0x6
 7000 11b4 00       		.byte	0
 7001 11b5 00       		.byte	0
 7002 11b6 22       		.uleb128 0x22
 7003 11b7 CE010000 		.4byte	.LVL167
 7004 11bb A5320000 		.4byte	0x32a5
 7005 11bf D2110000 		.4byte	0x11d2
 7006 11c3 19       		.uleb128 0x19
 7007 11c4 01       		.uleb128 0x1
 7008 11c5 50       		.byte	0x50
 7009 11c6 04       		.uleb128 0x4
 7010 11c7 91       		.byte	0x91
 7011 11c8 B87F     		.sleb128 -72
 7012 11ca 06       		.byte	0x6
 7013 11cb 19       		.uleb128 0x19
 7014 11cc 01       		.uleb128 0x1
 7015 11cd 51       		.byte	0x51
 7016 11ce 02       		.uleb128 0x2
 7017 11cf 91       		.byte	0x91
 7018 11d0 50       		.sleb128 -48
 7019 11d1 00       		.byte	0
 7020 11d2 22       		.uleb128 0x22
 7021 11d3 FC010000 		.4byte	.LVL173
 7022 11d7 84320000 		.4byte	0x3284
 7023 11db F2110000 		.4byte	0x11f2
 7024 11df 19       		.uleb128 0x19
 7025 11e0 01       		.uleb128 0x1
 7026 11e1 50       		.byte	0x50
 7027 11e2 05       		.uleb128 0x5
 7028 11e3 03       		.byte	0x3
 7029 11e4 BC010000 		.4byte	.LC31
 7030 11e8 19       		.uleb128 0x19
 7031 11e9 01       		.uleb128 0x1
 7032 11ea 51       		.byte	0x51
 7033 11eb 05       		.uleb128 0x5
 7034 11ec 03       		.byte	0x3
 7035 11ed 4C040000 		.4byte	.LC55
 7036 11f1 00       		.byte	0
 7037 11f2 17       		.uleb128 0x17
 7038 11f3 06020000 		.4byte	.LVL176
 7039 11f7 B0320000 		.4byte	0x32b0
 7040 11fb 17       		.uleb128 0x17
 7041 11fc 32020000 		.4byte	.LVL183
 7042 1200 4D320000 		.4byte	0x324d
ARM GAS  C:\Users\Phuong\AppData\Local\Temp\ccdTtd1y.s 			page 159


 7043 1204 24       		.uleb128 0x24
 7044 1205 CE030000 		.4byte	.LVL240
 7045 1209 9A320000 		.4byte	0x329a
 7046 120d 19       		.uleb128 0x19
 7047 120e 01       		.uleb128 0x1
 7048 120f 50       		.byte	0x50
 7049 1210 04       		.uleb128 0x4
 7050 1211 91       		.byte	0x91
 7051 1212 B87F     		.sleb128 -72
 7052 1214 06       		.byte	0x6
 7053 1215 00       		.byte	0
 7054 1216 00       		.byte	0
 7055 1217 22       		.uleb128 0x22
 7056 1218 B0000000 		.4byte	.LVL116
 7057 121c BB320000 		.4byte	0x32bb
 7058 1220 2B120000 		.4byte	0x122b
 7059 1224 19       		.uleb128 0x19
 7060 1225 01       		.uleb128 0x1
 7061 1226 51       		.byte	0x51
 7062 1227 02       		.uleb128 0x2
 7063 1228 91       		.byte	0x91
 7064 1229 4C       		.sleb128 -52
 7065 122a 00       		.byte	0
 7066 122b 22       		.uleb128 0x22
 7067 122c DE000000 		.4byte	.LVL122
 7068 1230 84320000 		.4byte	0x3284
 7069 1234 4B120000 		.4byte	0x124b
 7070 1238 19       		.uleb128 0x19
 7071 1239 01       		.uleb128 0x1
 7072 123a 50       		.byte	0x50
 7073 123b 05       		.uleb128 0x5
 7074 123c 03       		.byte	0x3
 7075 123d BC010000 		.4byte	.LC31
 7076 1241 19       		.uleb128 0x19
 7077 1242 01       		.uleb128 0x1
 7078 1243 51       		.byte	0x51
 7079 1244 05       		.uleb128 0x5
 7080 1245 03       		.byte	0x3
 7081 1246 5C020000 		.4byte	.LC39
 7082 124a 00       		.byte	0
 7083 124b 22       		.uleb128 0x22
 7084 124c EA000000 		.4byte	.LVL125
 7085 1250 C6320000 		.4byte	0x32c6
 7086 1254 5F120000 		.4byte	0x125f
 7087 1258 19       		.uleb128 0x19
 7088 1259 01       		.uleb128 0x1
 7089 125a 51       		.byte	0x51
 7090 125b 02       		.uleb128 0x2
 7091 125c 91       		.byte	0x91
 7092 125d 58       		.sleb128 -40
 7093 125e 00       		.byte	0
 7094 125f 22       		.uleb128 0x22
 7095 1260 18010000 		.4byte	.LVL131
 7096 1264 84320000 		.4byte	0x3284
 7097 1268 7F120000 		.4byte	0x127f
 7098 126c 19       		.uleb128 0x19
 7099 126d 01       		.uleb128 0x1
ARM GAS  C:\Users\Phuong\AppData\Local\Temp\ccdTtd1y.s 			page 160


 7100 126e 50       		.byte	0x50
 7101 126f 05       		.uleb128 0x5
 7102 1270 03       		.byte	0x3
 7103 1271 BC010000 		.4byte	.LC31
 7104 1275 19       		.uleb128 0x19
 7105 1276 01       		.uleb128 0x1
 7106 1277 51       		.byte	0x51
 7107 1278 05       		.uleb128 0x5
 7108 1279 03       		.byte	0x3
 7109 127a 5C020000 		.4byte	.LC39
 7110 127e 00       		.byte	0
 7111 127f 17       		.uleb128 0x17
 7112 1280 22010000 		.4byte	.LVL134
 7113 1284 D1320000 		.4byte	0x32d1
 7114 1288 22       		.uleb128 0x22
 7115 1289 50010000 		.4byte	.LVL141
 7116 128d 84320000 		.4byte	0x3284
 7117 1291 A8120000 		.4byte	0x12a8
 7118 1295 19       		.uleb128 0x19
 7119 1296 01       		.uleb128 0x1
 7120 1297 50       		.byte	0x50
 7121 1298 05       		.uleb128 0x5
 7122 1299 03       		.byte	0x3
 7123 129a BC010000 		.4byte	.LC31
 7124 129e 19       		.uleb128 0x19
 7125 129f 01       		.uleb128 0x1
 7126 12a0 51       		.byte	0x51
 7127 12a1 05       		.uleb128 0x5
 7128 12a2 03       		.byte	0x3
 7129 12a3 F4020000 		.4byte	.LC45
 7130 12a7 00       		.byte	0
 7131 12a8 17       		.uleb128 0x17
 7132 12a9 5A010000 		.4byte	.LVL145
 7133 12ad B0320000 		.4byte	0x32b0
 7134 12b1 17       		.uleb128 0x17
 7135 12b2 86010000 		.4byte	.LVL152
 7136 12b6 4D320000 		.4byte	0x324d
 7137 12ba 22       		.uleb128 0x22
 7138 12bb 92010000 		.4byte	.LVL156
 7139 12bf 63320000 		.4byte	0x3263
 7140 12c3 D6120000 		.4byte	0x12d6
 7141 12c7 19       		.uleb128 0x19
 7142 12c8 01       		.uleb128 0x1
 7143 12c9 50       		.byte	0x50
 7144 12ca 02       		.uleb128 0x2
 7145 12cb 75       		.byte	0x75
 7146 12cc 00       		.sleb128 0
 7147 12cd 19       		.uleb128 0x19
 7148 12ce 01       		.uleb128 0x1
 7149 12cf 51       		.byte	0x51
 7150 12d0 04       		.uleb128 0x4
 7151 12d1 91       		.byte	0x91
 7152 12d2 B47F     		.sleb128 -76
 7153 12d4 06       		.byte	0x6
 7154 12d5 00       		.byte	0
 7155 12d6 22       		.uleb128 0x22
 7156 12d7 C2010000 		.4byte	.LVL163
ARM GAS  C:\Users\Phuong\AppData\Local\Temp\ccdTtd1y.s 			page 161


 7157 12db 84320000 		.4byte	0x3284
 7158 12df F6120000 		.4byte	0x12f6
 7159 12e3 19       		.uleb128 0x19
 7160 12e4 01       		.uleb128 0x1
 7161 12e5 50       		.byte	0x50
 7162 12e6 05       		.uleb128 0x5
 7163 12e7 03       		.byte	0x3
 7164 12e8 BC010000 		.4byte	.LC31
 7165 12ec 19       		.uleb128 0x19
 7166 12ed 01       		.uleb128 0x1
 7167 12ee 51       		.byte	0x51
 7168 12ef 05       		.uleb128 0x5
 7169 12f0 03       		.byte	0x3
 7170 12f1 C0030000 		.4byte	.LC51
 7171 12f5 00       		.byte	0
 7172 12f6 22       		.uleb128 0x22
 7173 12f7 D4030000 		.4byte	.LVL241
 7174 12fb 9A320000 		.4byte	0x329a
 7175 12ff 0C130000 		.4byte	0x130c
 7176 1303 19       		.uleb128 0x19
 7177 1304 01       		.uleb128 0x1
 7178 1305 50       		.byte	0x50
 7179 1306 04       		.uleb128 0x4
 7180 1307 91       		.byte	0x91
 7181 1308 B47F     		.sleb128 -76
 7182 130a 06       		.byte	0x6
 7183 130b 00       		.byte	0
 7184 130c 17       		.uleb128 0x17
 7185 130d DA030000 		.4byte	.LVL242
 7186 1311 DC320000 		.4byte	0x32dc
 7187 1315 00       		.byte	0
 7188 1316 22       		.uleb128 0x22
 7189 1317 76000000 		.4byte	.LVL107
 7190 131b E7320000 		.4byte	0x32e7
 7191 131f 30130000 		.4byte	0x1330
 7192 1323 19       		.uleb128 0x19
 7193 1324 01       		.uleb128 0x1
 7194 1325 50       		.byte	0x50
 7195 1326 02       		.uleb128 0x2
 7196 1327 74       		.byte	0x74
 7197 1328 00       		.sleb128 0
 7198 1329 19       		.uleb128 0x19
 7199 132a 01       		.uleb128 0x1
 7200 132b 51       		.byte	0x51
 7201 132c 02       		.uleb128 0x2
 7202 132d 91       		.byte	0x91
 7203 132e 48       		.sleb128 -56
 7204 132f 00       		.byte	0
 7205 1330 22       		.uleb128 0x22
 7206 1331 A4000000 		.4byte	.LVL113
 7207 1335 84320000 		.4byte	0x3284
 7208 1339 50130000 		.4byte	0x1350
 7209 133d 19       		.uleb128 0x19
 7210 133e 01       		.uleb128 0x1
 7211 133f 50       		.byte	0x50
 7212 1340 05       		.uleb128 0x5
 7213 1341 03       		.byte	0x3
ARM GAS  C:\Users\Phuong\AppData\Local\Temp\ccdTtd1y.s 			page 162


 7214 1342 BC010000 		.4byte	.LC31
 7215 1346 19       		.uleb128 0x19
 7216 1347 01       		.uleb128 0x1
 7217 1348 51       		.byte	0x51
 7218 1349 05       		.uleb128 0x5
 7219 134a 03       		.byte	0x3
 7220 134b F8010000 		.4byte	.LC35
 7221 134f 00       		.byte	0
 7222 1350 17       		.uleb128 0x17
 7223 1351 E0030000 		.4byte	.LVL243
 7224 1355 9A320000 		.4byte	0x329a
 7225 1359 00       		.byte	0
 7226 135a 22       		.uleb128 0x22
 7227 135b 3C000000 		.4byte	.LVL98
 7228 135f F2320000 		.4byte	0x32f2
 7229 1363 74130000 		.4byte	0x1374
 7230 1367 19       		.uleb128 0x19
 7231 1368 01       		.uleb128 0x1
 7232 1369 50       		.byte	0x50
 7233 136a 02       		.uleb128 0x2
 7234 136b 74       		.byte	0x74
 7235 136c 00       		.sleb128 0
 7236 136d 19       		.uleb128 0x19
 7237 136e 01       		.uleb128 0x1
 7238 136f 51       		.byte	0x51
 7239 1370 02       		.uleb128 0x2
 7240 1371 91       		.byte	0x91
 7241 1372 44       		.sleb128 -60
 7242 1373 00       		.byte	0
 7243 1374 24       		.uleb128 0x24
 7244 1375 6A000000 		.4byte	.LVL104
 7245 1379 84320000 		.4byte	0x3284
 7246 137d 19       		.uleb128 0x19
 7247 137e 01       		.uleb128 0x1
 7248 137f 50       		.byte	0x50
 7249 1380 05       		.uleb128 0x5
 7250 1381 03       		.byte	0x3
 7251 1382 BC010000 		.4byte	.LC31
 7252 1386 19       		.uleb128 0x19
 7253 1387 01       		.uleb128 0x1
 7254 1388 51       		.byte	0x51
 7255 1389 05       		.uleb128 0x5
 7256 138a 03       		.byte	0x3
 7257 138b 78010000 		.4byte	.LC29
 7258 138f 00       		.byte	0
 7259 1390 00       		.byte	0
 7260 1391 00       		.byte	0
 7261 1392 1E       		.uleb128 0x1e
 7262 1393 AF000000 		.4byte	0xaf
 7263 1397 A2130000 		.4byte	0x13a2
 7264 139b 1F       		.uleb128 0x1f
 7265 139c 93000000 		.4byte	0x93
 7266 13a0 13       		.byte	0x13
 7267 13a1 00       		.byte	0
 7268 13a2 07       		.uleb128 0x7
 7269 13a3 92130000 		.4byte	0x1392
 7270 13a7 20       		.uleb128 0x20
ARM GAS  C:\Users\Phuong\AppData\Local\Temp\ccdTtd1y.s 			page 163


 7271 13a8 120D0000 		.4byte	.LASF140
 7272 13ac 01       		.byte	0x1
 7273 13ad 6F02     		.2byte	0x26f
 7274 13af 3E000000 		.4byte	0x3e
 7275 13b3 00000000 		.4byte	.LFB6
 7276 13b7 DC000000 		.4byte	.LFE6-.LFB6
 7277 13bb 01       		.uleb128 0x1
 7278 13bc 9C       		.byte	0x9c
 7279 13bd D0150000 		.4byte	0x15d0
 7280 13c1 2B       		.uleb128 0x2b
 7281 13c2 6D617000 		.ascii	"map\000"
 7282 13c6 01       		.byte	0x1
 7283 13c7 6F02     		.2byte	0x26f
 7284 13c9 68010000 		.4byte	0x168
 7285 13cd E60C0000 		.4byte	.LLST53
 7286 13d1 2B       		.uleb128 0x2b
 7287 13d2 6B657900 		.ascii	"key\000"
 7288 13d6 01       		.byte	0x1
 7289 13d7 6F02     		.2byte	0x26f
 7290 13d9 A9000000 		.4byte	0xa9
 7291 13dd 5D0D0000 		.4byte	.LLST54
 7292 13e1 13       		.uleb128 0x13
 7293 13e2 9D060000 		.4byte	.LASF128
 7294 13e6 01       		.byte	0x1
 7295 13e7 6F02     		.2byte	0x26f
 7296 13e9 A9000000 		.4byte	0xa9
 7297 13ed 1F0E0000 		.4byte	.LLST55
 7298 13f1 1B       		.uleb128 0x1b
 7299 13f2 F8130000 		.4byte	.LASF114
 7300 13f6 01       		.byte	0x1
 7301 13f7 7102     		.2byte	0x271
 7302 13f9 3E000000 		.4byte	0x3e
 7303 13fd 640E0000 		.4byte	.LLST56
 7304 1401 1B       		.uleb128 0x1b
 7305 1402 37110000 		.4byte	.LASF141
 7306 1406 01       		.byte	0x1
 7307 1407 7402     		.2byte	0x274
 7308 1409 68010000 		.4byte	0x168
 7309 140d 980E0000 		.4byte	.LLST57
 7310 1411 14       		.uleb128 0x14
 7311 1412 BA0C0000 		.4byte	.LASF113
 7312 1416 E0150000 		.4byte	0x15e0
 7313 141a 05       		.uleb128 0x5
 7314 141b 03       		.byte	0x3
 7315 141c C4000000 		.4byte	__func__.8486
 7316 1420 15       		.uleb128 0x15
 7317 1421 14000000 		.4byte	.LBB35
 7318 1425 20000000 		.4byte	.LBE35-.LBB35
 7319 1429 83140000 		.4byte	0x1483
 7320 142d 16       		.uleb128 0x16
 7321 142e 6C00     		.ascii	"l\000"
 7322 1430 01       		.byte	0x1
 7323 1431 7802     		.2byte	0x278
 7324 1433 32010000 		.4byte	0x132
 7325 1437 CC0E0000 		.4byte	.LLST58
 7326 143b 17       		.uleb128 0x17
 7327 143c 18000000 		.4byte	.LVL252
ARM GAS  C:\Users\Phuong\AppData\Local\Temp\ccdTtd1y.s 			page 164


 7328 1440 16320000 		.4byte	0x3216
 7329 1444 18       		.uleb128 0x18
 7330 1445 34000000 		.4byte	.LVL255
 7331 1449 02       		.uleb128 0x2
 7332 144a 74       		.byte	0x74
 7333 144b 00       		.sleb128 0
 7334 144c 19       		.uleb128 0x19
 7335 144d 01       		.uleb128 0x1
 7336 144e 50       		.byte	0x50
 7337 144f 01       		.uleb128 0x1
 7338 1450 30       		.byte	0x30
 7339 1451 19       		.uleb128 0x19
 7340 1452 01       		.uleb128 0x1
 7341 1453 51       		.byte	0x51
 7342 1454 05       		.uleb128 0x5
 7343 1455 03       		.byte	0x3
 7344 1456 00000000 		.4byte	.LC1
 7345 145a 19       		.uleb128 0x19
 7346 145b 01       		.uleb128 0x1
 7347 145c 52       		.byte	0x52
 7348 145d 05       		.uleb128 0x5
 7349 145e 03       		.byte	0x3
 7350 145f C4000000 		.4byte	.LANCHOR1+68
 7351 1463 19       		.uleb128 0x19
 7352 1464 01       		.uleb128 0x1
 7353 1465 53       		.byte	0x53
 7354 1466 03       		.uleb128 0x3
 7355 1467 0A       		.byte	0xa
 7356 1468 7802     		.2byte	0x278
 7357 146a 19       		.uleb128 0x19
 7358 146b 02       		.uleb128 0x2
 7359 146c 7D       		.byte	0x7d
 7360 146d 00       		.sleb128 0
 7361 146e 01       		.uleb128 0x1
 7362 146f 31       		.byte	0x31
 7363 1470 19       		.uleb128 0x19
 7364 1471 02       		.uleb128 0x2
 7365 1472 7D       		.byte	0x7d
 7366 1473 04       		.sleb128 4
 7367 1474 05       		.uleb128 0x5
 7368 1475 03       		.byte	0x3
 7369 1476 18050000 		.4byte	.LC64
 7370 147a 19       		.uleb128 0x19
 7371 147b 02       		.uleb128 0x2
 7372 147c 7D       		.byte	0x7d
 7373 147d 08       		.sleb128 8
 7374 147e 02       		.uleb128 0x2
 7375 147f 76       		.byte	0x76
 7376 1480 00       		.sleb128 0
 7377 1481 00       		.byte	0
 7378 1482 00       		.byte	0
 7379 1483 15       		.uleb128 0x15
 7380 1484 38000000 		.4byte	.LBB36
 7381 1488 78000000 		.4byte	.LBE36-.LBB36
 7382 148c BF150000 		.4byte	0x15bf
 7383 1490 1B       		.uleb128 0x1b
 7384 1491 F8050000 		.4byte	.LASF142
ARM GAS  C:\Users\Phuong\AppData\Local\Temp\ccdTtd1y.s 			page 165


 7385 1495 01       		.byte	0x1
 7386 1496 7E02     		.2byte	0x27e
 7387 1498 68010000 		.4byte	0x168
 7388 149c F50E0000 		.4byte	.LLST59
 7389 14a0 15       		.uleb128 0x15
 7390 14a1 42000000 		.4byte	.LBB37
 7391 14a5 1E000000 		.4byte	.LBE37-.LBB37
 7392 14a9 03150000 		.4byte	0x1503
 7393 14ad 16       		.uleb128 0x16
 7394 14ae 6C00     		.ascii	"l\000"
 7395 14b0 01       		.byte	0x1
 7396 14b1 8202     		.2byte	0x282
 7397 14b3 32010000 		.4byte	0x132
 7398 14b7 290F0000 		.4byte	.LLST60
 7399 14bb 17       		.uleb128 0x17
 7400 14bc 46000000 		.4byte	.LVL261
 7401 14c0 16320000 		.4byte	0x3216
 7402 14c4 18       		.uleb128 0x18
 7403 14c5 60000000 		.4byte	.LVL264
 7404 14c9 02       		.uleb128 0x2
 7405 14ca 75       		.byte	0x75
 7406 14cb 00       		.sleb128 0
 7407 14cc 19       		.uleb128 0x19
 7408 14cd 01       		.uleb128 0x1
 7409 14ce 50       		.byte	0x50
 7410 14cf 01       		.uleb128 0x1
 7411 14d0 30       		.byte	0x30
 7412 14d1 19       		.uleb128 0x19
 7413 14d2 01       		.uleb128 0x1
 7414 14d3 51       		.byte	0x51
 7415 14d4 05       		.uleb128 0x5
 7416 14d5 03       		.byte	0x3
 7417 14d6 00000000 		.4byte	.LC1
 7418 14da 19       		.uleb128 0x19
 7419 14db 01       		.uleb128 0x1
 7420 14dc 52       		.byte	0x52
 7421 14dd 05       		.uleb128 0x5
 7422 14de 03       		.byte	0x3
 7423 14df C4000000 		.4byte	.LANCHOR1+68
 7424 14e3 19       		.uleb128 0x19
 7425 14e4 01       		.uleb128 0x1
 7426 14e5 53       		.byte	0x53
 7427 14e6 03       		.uleb128 0x3
 7428 14e7 0A       		.byte	0xa
 7429 14e8 8202     		.2byte	0x282
 7430 14ea 19       		.uleb128 0x19
 7431 14eb 02       		.uleb128 0x2
 7432 14ec 7D       		.byte	0x7d
 7433 14ed 00       		.sleb128 0
 7434 14ee 01       		.uleb128 0x1
 7435 14ef 31       		.byte	0x31
 7436 14f0 19       		.uleb128 0x19
 7437 14f1 02       		.uleb128 0x2
 7438 14f2 7D       		.byte	0x7d
 7439 14f3 04       		.sleb128 4
 7440 14f4 05       		.uleb128 0x5
 7441 14f5 03       		.byte	0x3
ARM GAS  C:\Users\Phuong\AppData\Local\Temp\ccdTtd1y.s 			page 166


 7442 14f6 3C050000 		.4byte	.LC66
 7443 14fa 19       		.uleb128 0x19
 7444 14fb 02       		.uleb128 0x2
 7445 14fc 7D       		.byte	0x7d
 7446 14fd 08       		.sleb128 8
 7447 14fe 02       		.uleb128 0x2
 7448 14ff 76       		.byte	0x76
 7449 1500 00       		.sleb128 0
 7450 1501 00       		.byte	0
 7451 1502 00       		.byte	0
 7452 1503 15       		.uleb128 0x15
 7453 1504 72000000 		.4byte	.LBB38
 7454 1508 1E000000 		.4byte	.LBE38-.LBB38
 7455 150c 66150000 		.4byte	0x1566
 7456 1510 16       		.uleb128 0x16
 7457 1511 6C00     		.ascii	"l\000"
 7458 1513 01       		.byte	0x1
 7459 1514 8B02     		.2byte	0x28b
 7460 1516 32010000 		.4byte	0x132
 7461 151a 520F0000 		.4byte	.LLST61
 7462 151e 17       		.uleb128 0x17
 7463 151f 76000000 		.4byte	.LVL269
 7464 1523 16320000 		.4byte	0x3216
 7465 1527 18       		.uleb128 0x18
 7466 1528 90000000 		.4byte	.LVL272
 7467 152c 02       		.uleb128 0x2
 7468 152d 77       		.byte	0x77
 7469 152e 00       		.sleb128 0
 7470 152f 19       		.uleb128 0x19
 7471 1530 01       		.uleb128 0x1
 7472 1531 50       		.byte	0x50
 7473 1532 01       		.uleb128 0x1
 7474 1533 30       		.byte	0x30
 7475 1534 19       		.uleb128 0x19
 7476 1535 01       		.uleb128 0x1
 7477 1536 51       		.byte	0x51
 7478 1537 05       		.uleb128 0x5
 7479 1538 03       		.byte	0x3
 7480 1539 00000000 		.4byte	.LC1
 7481 153d 19       		.uleb128 0x19
 7482 153e 01       		.uleb128 0x1
 7483 153f 52       		.byte	0x52
 7484 1540 05       		.uleb128 0x5
 7485 1541 03       		.byte	0x3
 7486 1542 C4000000 		.4byte	.LANCHOR1+68
 7487 1546 19       		.uleb128 0x19
 7488 1547 01       		.uleb128 0x1
 7489 1548 53       		.byte	0x53
 7490 1549 03       		.uleb128 0x3
 7491 154a 0A       		.byte	0xa
 7492 154b 8B02     		.2byte	0x28b
 7493 154d 19       		.uleb128 0x19
 7494 154e 02       		.uleb128 0x2
 7495 154f 7D       		.byte	0x7d
 7496 1550 00       		.sleb128 0
 7497 1551 01       		.uleb128 0x1
 7498 1552 31       		.byte	0x31
ARM GAS  C:\Users\Phuong\AppData\Local\Temp\ccdTtd1y.s 			page 167


 7499 1553 19       		.uleb128 0x19
 7500 1554 02       		.uleb128 0x2
 7501 1555 7D       		.byte	0x7d
 7502 1556 04       		.sleb128 4
 7503 1557 05       		.uleb128 0x5
 7504 1558 03       		.byte	0x3
 7505 1559 60050000 		.4byte	.LC68
 7506 155d 19       		.uleb128 0x19
 7507 155e 02       		.uleb128 0x2
 7508 155f 7D       		.byte	0x7d
 7509 1560 08       		.sleb128 8
 7510 1561 02       		.uleb128 0x2
 7511 1562 76       		.byte	0x76
 7512 1563 00       		.sleb128 0
 7513 1564 00       		.byte	0
 7514 1565 00       		.byte	0
 7515 1566 22       		.uleb128 0x22
 7516 1567 3E000000 		.4byte	.LVL259
 7517 156b B0320000 		.4byte	0x32b0
 7518 156f 7A150000 		.4byte	0x157a
 7519 1573 19       		.uleb128 0x19
 7520 1574 01       		.uleb128 0x1
 7521 1575 50       		.byte	0x50
 7522 1576 02       		.uleb128 0x2
 7523 1577 75       		.byte	0x75
 7524 1578 00       		.sleb128 0
 7525 1579 00       		.byte	0
 7526 157a 22       		.uleb128 0x22
 7527 157b 6E000000 		.4byte	.LVL268
 7528 157f FD320000 		.4byte	0x32fd
 7529 1583 9A150000 		.4byte	0x159a
 7530 1587 19       		.uleb128 0x19
 7531 1588 01       		.uleb128 0x1
 7532 1589 50       		.byte	0x50
 7533 158a 02       		.uleb128 0x2
 7534 158b 77       		.byte	0x77
 7535 158c 00       		.sleb128 0
 7536 158d 19       		.uleb128 0x19
 7537 158e 01       		.uleb128 0x1
 7538 158f 51       		.byte	0x51
 7539 1590 02       		.uleb128 0x2
 7540 1591 74       		.byte	0x74
 7541 1592 00       		.sleb128 0
 7542 1593 19       		.uleb128 0x19
 7543 1594 01       		.uleb128 0x1
 7544 1595 52       		.byte	0x52
 7545 1596 02       		.uleb128 0x2
 7546 1597 75       		.byte	0x75
 7547 1598 00       		.sleb128 0
 7548 1599 00       		.byte	0
 7549 159a 22       		.uleb128 0x22
 7550 159b A4000000 		.4byte	.LVL279
 7551 159f 9A320000 		.4byte	0x329a
 7552 15a3 AE150000 		.4byte	0x15ae
 7553 15a7 19       		.uleb128 0x19
 7554 15a8 01       		.uleb128 0x1
 7555 15a9 50       		.byte	0x50
ARM GAS  C:\Users\Phuong\AppData\Local\Temp\ccdTtd1y.s 			page 168


 7556 15aa 02       		.uleb128 0x2
 7557 15ab 75       		.byte	0x75
 7558 15ac 00       		.sleb128 0
 7559 15ad 00       		.byte	0
 7560 15ae 24       		.uleb128 0x24
 7561 15af AE000000 		.4byte	.LVL282
 7562 15b3 9A320000 		.4byte	0x329a
 7563 15b7 19       		.uleb128 0x19
 7564 15b8 01       		.uleb128 0x1
 7565 15b9 50       		.byte	0x50
 7566 15ba 02       		.uleb128 0x2
 7567 15bb 74       		.byte	0x74
 7568 15bc 00       		.sleb128 0
 7569 15bd 00       		.byte	0
 7570 15be 00       		.byte	0
 7571 15bf 24       		.uleb128 0x24
 7572 15c0 10000000 		.4byte	.LVL250
 7573 15c4 B0320000 		.4byte	0x32b0
 7574 15c8 19       		.uleb128 0x19
 7575 15c9 01       		.uleb128 0x1
 7576 15ca 50       		.byte	0x50
 7577 15cb 02       		.uleb128 0x2
 7578 15cc 76       		.byte	0x76
 7579 15cd 00       		.sleb128 0
 7580 15ce 00       		.byte	0
 7581 15cf 00       		.byte	0
 7582 15d0 1E       		.uleb128 0x1e
 7583 15d1 AF000000 		.4byte	0xaf
 7584 15d5 E0150000 		.4byte	0x15e0
 7585 15d9 1F       		.uleb128 0x1f
 7586 15da 93000000 		.4byte	0x93
 7587 15de 20       		.byte	0x20
 7588 15df 00       		.byte	0
 7589 15e0 07       		.uleb128 0x7
 7590 15e1 D0150000 		.4byte	0x15d0
 7591 15e5 20       		.uleb128 0x20
 7592 15e6 03100000 		.4byte	.LASF143
 7593 15ea 01       		.byte	0x1
 7594 15eb 2B02     		.2byte	0x22b
 7595 15ed 3E000000 		.4byte	0x3e
 7596 15f1 00000000 		.4byte	.LFB5
 7597 15f5 50010000 		.4byte	.LFE5-.LFB5
 7598 15f9 01       		.uleb128 0x1
 7599 15fa 9C       		.byte	0x9c
 7600 15fb A9180000 		.4byte	0x18a9
 7601 15ff 13       		.uleb128 0x13
 7602 1600 D10A0000 		.4byte	.LASF125
 7603 1604 01       		.byte	0x1
 7604 1605 2B02     		.2byte	0x22b
 7605 1607 BB010000 		.4byte	0x1bb
 7606 160b 7B0F0000 		.4byte	.LLST62
 7607 160f 13       		.uleb128 0x13
 7608 1610 D7030000 		.4byte	.LASF53
 7609 1614 01       		.byte	0x1
 7610 1615 2B02     		.2byte	0x22b
 7611 1617 C6000000 		.4byte	0xc6
 7612 161b 24100000 		.4byte	.LLST63
ARM GAS  C:\Users\Phuong\AppData\Local\Temp\ccdTtd1y.s 			page 169


 7613 161f 1B       		.uleb128 0x1b
 7614 1620 F8130000 		.4byte	.LASF114
 7615 1624 01       		.byte	0x1
 7616 1625 2D02     		.2byte	0x22d
 7617 1627 3E000000 		.4byte	0x3e
 7618 162b 4C100000 		.4byte	.LLST64
 7619 162f 21       		.uleb128 0x21
 7620 1630 960D0000 		.4byte	.LASF144
 7621 1634 01       		.byte	0x1
 7622 1635 2E02     		.2byte	0x22e
 7623 1637 A5010000 		.4byte	0x1a5
 7624 163b 02       		.uleb128 0x2
 7625 163c 91       		.byte	0x91
 7626 163d 64       		.sleb128 -28
 7627 163e 14       		.uleb128 0x14
 7628 163f BA0C0000 		.4byte	.LASF113
 7629 1643 B9180000 		.4byte	0x18b9
 7630 1647 05       		.uleb128 0x5
 7631 1648 03       		.byte	0x3
 7632 1649 E8000000 		.4byte	__func__.8462
 7633 164d 15       		.uleb128 0x15
 7634 164e 14000000 		.4byte	.LBB39
 7635 1652 1E000000 		.4byte	.LBE39-.LBB39
 7636 1656 A9160000 		.4byte	0x16a9
 7637 165a 16       		.uleb128 0x16
 7638 165b 6C00     		.ascii	"l\000"
 7639 165d 01       		.byte	0x1
 7640 165e 3402     		.2byte	0x234
 7641 1660 32010000 		.4byte	0x132
 7642 1664 80100000 		.4byte	.LLST65
 7643 1668 17       		.uleb128 0x17
 7644 1669 18000000 		.4byte	.LVL288
 7645 166d 16320000 		.4byte	0x3216
 7646 1671 18       		.uleb128 0x18
 7647 1672 32000000 		.4byte	.LVL291
 7648 1676 02       		.uleb128 0x2
 7649 1677 74       		.byte	0x74
 7650 1678 00       		.sleb128 0
 7651 1679 19       		.uleb128 0x19
 7652 167a 01       		.uleb128 0x1
 7653 167b 50       		.byte	0x50
 7654 167c 01       		.uleb128 0x1
 7655 167d 30       		.byte	0x30
 7656 167e 19       		.uleb128 0x19
 7657 167f 01       		.uleb128 0x1
 7658 1680 51       		.byte	0x51
 7659 1681 05       		.uleb128 0x5
 7660 1682 03       		.byte	0x3
 7661 1683 00000000 		.4byte	.LC1
 7662 1687 19       		.uleb128 0x19
 7663 1688 01       		.uleb128 0x1
 7664 1689 52       		.byte	0x52
 7665 168a 05       		.uleb128 0x5
 7666 168b 03       		.byte	0x3
 7667 168c E8000000 		.4byte	.LANCHOR1+104
 7668 1690 19       		.uleb128 0x19
 7669 1691 01       		.uleb128 0x1
ARM GAS  C:\Users\Phuong\AppData\Local\Temp\ccdTtd1y.s 			page 170


 7670 1692 53       		.byte	0x53
 7671 1693 03       		.uleb128 0x3
 7672 1694 0A       		.byte	0xa
 7673 1695 3402     		.2byte	0x234
 7674 1697 19       		.uleb128 0x19
 7675 1698 02       		.uleb128 0x2
 7676 1699 7D       		.byte	0x7d
 7677 169a 00       		.sleb128 0
 7678 169b 01       		.uleb128 0x1
 7679 169c 31       		.byte	0x31
 7680 169d 19       		.uleb128 0x19
 7681 169e 02       		.uleb128 0x2
 7682 169f 7D       		.byte	0x7d
 7683 16a0 04       		.sleb128 4
 7684 16a1 05       		.uleb128 0x5
 7685 16a2 03       		.byte	0x3
 7686 16a3 D0010000 		.4byte	.LC33
 7687 16a7 00       		.byte	0
 7688 16a8 00       		.byte	0
 7689 16a9 15       		.uleb128 0x15
 7690 16aa 48000000 		.4byte	.LBB40
 7691 16ae 1C000000 		.4byte	.LBE40-.LBB40
 7692 16b2 05170000 		.4byte	0x1705
 7693 16b6 16       		.uleb128 0x16
 7694 16b7 6C00     		.ascii	"l\000"
 7695 16b9 01       		.byte	0x1
 7696 16ba 4202     		.2byte	0x242
 7697 16bc 32010000 		.4byte	0x132
 7698 16c0 A9100000 		.4byte	.LLST66
 7699 16c4 17       		.uleb128 0x17
 7700 16c5 4C000000 		.4byte	.LVL295
 7701 16c9 16320000 		.4byte	0x3216
 7702 16cd 18       		.uleb128 0x18
 7703 16ce 64000000 		.4byte	.LVL298
 7704 16d2 02       		.uleb128 0x2
 7705 16d3 74       		.byte	0x74
 7706 16d4 00       		.sleb128 0
 7707 16d5 19       		.uleb128 0x19
 7708 16d6 01       		.uleb128 0x1
 7709 16d7 50       		.byte	0x50
 7710 16d8 01       		.uleb128 0x1
 7711 16d9 30       		.byte	0x30
 7712 16da 19       		.uleb128 0x19
 7713 16db 01       		.uleb128 0x1
 7714 16dc 51       		.byte	0x51
 7715 16dd 05       		.uleb128 0x5
 7716 16de 03       		.byte	0x3
 7717 16df 00000000 		.4byte	.LC1
 7718 16e3 19       		.uleb128 0x19
 7719 16e4 01       		.uleb128 0x1
 7720 16e5 52       		.byte	0x52
 7721 16e6 05       		.uleb128 0x5
 7722 16e7 03       		.byte	0x3
 7723 16e8 E8000000 		.4byte	.LANCHOR1+104
 7724 16ec 19       		.uleb128 0x19
 7725 16ed 01       		.uleb128 0x1
 7726 16ee 53       		.byte	0x53
ARM GAS  C:\Users\Phuong\AppData\Local\Temp\ccdTtd1y.s 			page 171


 7727 16ef 03       		.uleb128 0x3
 7728 16f0 0A       		.byte	0xa
 7729 16f1 4202     		.2byte	0x242
 7730 16f3 19       		.uleb128 0x19
 7731 16f4 02       		.uleb128 0x2
 7732 16f5 7D       		.byte	0x7d
 7733 16f6 00       		.sleb128 0
 7734 16f7 01       		.uleb128 0x1
 7735 16f8 31       		.byte	0x31
 7736 16f9 19       		.uleb128 0x19
 7737 16fa 02       		.uleb128 0x2
 7738 16fb 7D       		.byte	0x7d
 7739 16fc 04       		.sleb128 4
 7740 16fd 05       		.uleb128 0x5
 7741 16fe 03       		.byte	0x3
 7742 16ff 90050000 		.4byte	.LC73
 7743 1703 00       		.byte	0
 7744 1704 00       		.byte	0
 7745 1705 15       		.uleb128 0x15
 7746 1706 68000000 		.4byte	.LBB41
 7747 170a A4000000 		.4byte	.LBE41-.LBB41
 7748 170e 85180000 		.4byte	0x1885
 7749 1712 1B       		.uleb128 0x1b
 7750 1713 33070000 		.4byte	.LASF96
 7751 1717 01       		.byte	0x1
 7752 1718 4802     		.2byte	0x248
 7753 171a 68010000 		.4byte	0x168
 7754 171e D2100000 		.4byte	.LLST67
 7755 1722 15       		.uleb128 0x15
 7756 1723 74000000 		.4byte	.LBB42
 7757 1727 1E000000 		.4byte	.LBE42-.LBB42
 7758 172b 7E170000 		.4byte	0x177e
 7759 172f 16       		.uleb128 0x16
 7760 1730 6C00     		.ascii	"l\000"
 7761 1732 01       		.byte	0x1
 7762 1733 4C02     		.2byte	0x24c
 7763 1735 32010000 		.4byte	0x132
 7764 1739 06110000 		.4byte	.LLST68
 7765 173d 17       		.uleb128 0x17
 7766 173e 78000000 		.4byte	.LVL303
 7767 1742 16320000 		.4byte	0x3216
 7768 1746 18       		.uleb128 0x18
 7769 1747 92000000 		.4byte	.LVL306
 7770 174b 02       		.uleb128 0x2
 7771 174c 74       		.byte	0x74
 7772 174d 00       		.sleb128 0
 7773 174e 19       		.uleb128 0x19
 7774 174f 01       		.uleb128 0x1
 7775 1750 50       		.byte	0x50
 7776 1751 01       		.uleb128 0x1
 7777 1752 30       		.byte	0x30
 7778 1753 19       		.uleb128 0x19
 7779 1754 01       		.uleb128 0x1
 7780 1755 51       		.byte	0x51
 7781 1756 05       		.uleb128 0x5
 7782 1757 03       		.byte	0x3
 7783 1758 00000000 		.4byte	.LC1
ARM GAS  C:\Users\Phuong\AppData\Local\Temp\ccdTtd1y.s 			page 172


 7784 175c 19       		.uleb128 0x19
 7785 175d 01       		.uleb128 0x1
 7786 175e 52       		.byte	0x52
 7787 175f 05       		.uleb128 0x5
 7788 1760 03       		.byte	0x3
 7789 1761 E8000000 		.4byte	.LANCHOR1+104
 7790 1765 19       		.uleb128 0x19
 7791 1766 01       		.uleb128 0x1
 7792 1767 53       		.byte	0x53
 7793 1768 03       		.uleb128 0x3
 7794 1769 0A       		.byte	0xa
 7795 176a 4C02     		.2byte	0x24c
 7796 176c 19       		.uleb128 0x19
 7797 176d 02       		.uleb128 0x2
 7798 176e 7D       		.byte	0x7d
 7799 176f 00       		.sleb128 0
 7800 1770 01       		.uleb128 0x1
 7801 1771 31       		.byte	0x31
 7802 1772 19       		.uleb128 0x19
 7803 1773 02       		.uleb128 0x2
 7804 1774 7D       		.byte	0x7d
 7805 1775 04       		.sleb128 4
 7806 1776 05       		.uleb128 0x5
 7807 1777 03       		.byte	0x3
 7808 1778 B4050000 		.4byte	.LC75
 7809 177c 00       		.byte	0
 7810 177d 00       		.byte	0
 7811 177e 15       		.uleb128 0x15
 7812 177f A2000000 		.4byte	.LBB43
 7813 1783 1C000000 		.4byte	.LBE43-.LBB43
 7814 1787 DA170000 		.4byte	0x17da
 7815 178b 16       		.uleb128 0x16
 7816 178c 6C00     		.ascii	"l\000"
 7817 178e 01       		.byte	0x1
 7818 178f 5502     		.2byte	0x255
 7819 1791 32010000 		.4byte	0x132
 7820 1795 2F110000 		.4byte	.LLST69
 7821 1799 17       		.uleb128 0x17
 7822 179a A6000000 		.4byte	.LVL311
 7823 179e 16320000 		.4byte	0x3216
 7824 17a2 18       		.uleb128 0x18
 7825 17a3 BE000000 		.4byte	.LVL314
 7826 17a7 02       		.uleb128 0x2
 7827 17a8 74       		.byte	0x74
 7828 17a9 00       		.sleb128 0
 7829 17aa 19       		.uleb128 0x19
 7830 17ab 01       		.uleb128 0x1
 7831 17ac 50       		.byte	0x50
 7832 17ad 01       		.uleb128 0x1
 7833 17ae 30       		.byte	0x30
 7834 17af 19       		.uleb128 0x19
 7835 17b0 01       		.uleb128 0x1
 7836 17b1 51       		.byte	0x51
 7837 17b2 05       		.uleb128 0x5
 7838 17b3 03       		.byte	0x3
 7839 17b4 00000000 		.4byte	.LC1
 7840 17b8 19       		.uleb128 0x19
ARM GAS  C:\Users\Phuong\AppData\Local\Temp\ccdTtd1y.s 			page 173


 7841 17b9 01       		.uleb128 0x1
 7842 17ba 52       		.byte	0x52
 7843 17bb 05       		.uleb128 0x5
 7844 17bc 03       		.byte	0x3
 7845 17bd E8000000 		.4byte	.LANCHOR1+104
 7846 17c1 19       		.uleb128 0x19
 7847 17c2 01       		.uleb128 0x1
 7848 17c3 53       		.byte	0x53
 7849 17c4 03       		.uleb128 0x3
 7850 17c5 0A       		.byte	0xa
 7851 17c6 5502     		.2byte	0x255
 7852 17c8 19       		.uleb128 0x19
 7853 17c9 02       		.uleb128 0x2
 7854 17ca 7D       		.byte	0x7d
 7855 17cb 00       		.sleb128 0
 7856 17cc 01       		.uleb128 0x1
 7857 17cd 31       		.byte	0x31
 7858 17ce 19       		.uleb128 0x19
 7859 17cf 02       		.uleb128 0x2
 7860 17d0 7D       		.byte	0x7d
 7861 17d1 04       		.sleb128 4
 7862 17d2 05       		.uleb128 0x5
 7863 17d3 03       		.byte	0x3
 7864 17d4 D8050000 		.4byte	.LC77
 7865 17d8 00       		.byte	0
 7866 17d9 00       		.byte	0
 7867 17da 15       		.uleb128 0x15
 7868 17db CE000000 		.4byte	.LBB44
 7869 17df 1E000000 		.4byte	.LBE44-.LBB44
 7870 17e3 36180000 		.4byte	0x1836
 7871 17e7 16       		.uleb128 0x16
 7872 17e8 6C00     		.ascii	"l\000"
 7873 17ea 01       		.byte	0x1
 7874 17eb 5C02     		.2byte	0x25c
 7875 17ed 32010000 		.4byte	0x132
 7876 17f1 58110000 		.4byte	.LLST70
 7877 17f5 17       		.uleb128 0x17
 7878 17f6 D2000000 		.4byte	.LVL318
 7879 17fa 16320000 		.4byte	0x3216
 7880 17fe 18       		.uleb128 0x18
 7881 17ff EC000000 		.4byte	.LVL321
 7882 1803 02       		.uleb128 0x2
 7883 1804 74       		.byte	0x74
 7884 1805 00       		.sleb128 0
 7885 1806 19       		.uleb128 0x19
 7886 1807 01       		.uleb128 0x1
 7887 1808 50       		.byte	0x50
 7888 1809 01       		.uleb128 0x1
 7889 180a 30       		.byte	0x30
 7890 180b 19       		.uleb128 0x19
 7891 180c 01       		.uleb128 0x1
 7892 180d 51       		.byte	0x51
 7893 180e 05       		.uleb128 0x5
 7894 180f 03       		.byte	0x3
 7895 1810 00000000 		.4byte	.LC1
 7896 1814 19       		.uleb128 0x19
 7897 1815 01       		.uleb128 0x1
ARM GAS  C:\Users\Phuong\AppData\Local\Temp\ccdTtd1y.s 			page 174


 7898 1816 52       		.byte	0x52
 7899 1817 05       		.uleb128 0x5
 7900 1818 03       		.byte	0x3
 7901 1819 E8000000 		.4byte	.LANCHOR1+104
 7902 181d 19       		.uleb128 0x19
 7903 181e 01       		.uleb128 0x1
 7904 181f 53       		.byte	0x53
 7905 1820 03       		.uleb128 0x3
 7906 1821 0A       		.byte	0xa
 7907 1822 5C02     		.2byte	0x25c
 7908 1824 19       		.uleb128 0x19
 7909 1825 02       		.uleb128 0x2
 7910 1826 7D       		.byte	0x7d
 7911 1827 00       		.sleb128 0
 7912 1828 01       		.uleb128 0x1
 7913 1829 31       		.byte	0x31
 7914 182a 19       		.uleb128 0x19
 7915 182b 02       		.uleb128 0x2
 7916 182c 7D       		.byte	0x7d
 7917 182d 04       		.sleb128 4
 7918 182e 05       		.uleb128 0x5
 7919 182f 03       		.byte	0x3
 7920 1830 04060000 		.4byte	.LC79
 7921 1834 00       		.byte	0
 7922 1835 00       		.byte	0
 7923 1836 17       		.uleb128 0x17
 7924 1837 70000000 		.4byte	.LVL301
 7925 183b 08330000 		.4byte	0x3308
 7926 183f 22       		.uleb128 0x22
 7927 1840 9E000000 		.4byte	.LVL310
 7928 1844 13330000 		.4byte	0x3313
 7929 1848 53180000 		.4byte	0x1853
 7930 184c 19       		.uleb128 0x19
 7931 184d 01       		.uleb128 0x1
 7932 184e 51       		.byte	0x51
 7933 184f 02       		.uleb128 0x2
 7934 1850 75       		.byte	0x75
 7935 1851 00       		.sleb128 0
 7936 1852 00       		.byte	0
 7937 1853 22       		.uleb128 0x22
 7938 1854 CA000000 		.4byte	.LVL317
 7939 1858 1E330000 		.4byte	0x331e
 7940 185c 67180000 		.4byte	0x1867
 7941 1860 19       		.uleb128 0x19
 7942 1861 01       		.uleb128 0x1
 7943 1862 50       		.byte	0x50
 7944 1863 02       		.uleb128 0x2
 7945 1864 74       		.byte	0x74
 7946 1865 00       		.sleb128 0
 7947 1866 00       		.byte	0
 7948 1867 22       		.uleb128 0x22
 7949 1868 00010000 		.4byte	.LVL328
 7950 186c 9A320000 		.4byte	0x329a
 7951 1870 7B180000 		.4byte	0x187b
 7952 1874 19       		.uleb128 0x19
 7953 1875 01       		.uleb128 0x1
 7954 1876 50       		.byte	0x50
ARM GAS  C:\Users\Phuong\AppData\Local\Temp\ccdTtd1y.s 			page 175


 7955 1877 02       		.uleb128 0x2
 7956 1878 75       		.byte	0x75
 7957 1879 00       		.sleb128 0
 7958 187a 00       		.byte	0
 7959 187b 17       		.uleb128 0x17
 7960 187c 0A010000 		.4byte	.LVL331
 7961 1880 DC320000 		.4byte	0x32dc
 7962 1884 00       		.byte	0
 7963 1885 22       		.uleb128 0x22
 7964 1886 10000000 		.4byte	.LVL287
 7965 188a E7320000 		.4byte	0x32e7
 7966 188e 9F180000 		.4byte	0x189f
 7967 1892 19       		.uleb128 0x19
 7968 1893 01       		.uleb128 0x1
 7969 1894 50       		.byte	0x50
 7970 1895 02       		.uleb128 0x2
 7971 1896 74       		.byte	0x74
 7972 1897 00       		.sleb128 0
 7973 1898 19       		.uleb128 0x19
 7974 1899 01       		.uleb128 0x1
 7975 189a 51       		.byte	0x51
 7976 189b 02       		.uleb128 0x2
 7977 189c 91       		.byte	0x91
 7978 189d 64       		.sleb128 -28
 7979 189e 00       		.byte	0
 7980 189f 17       		.uleb128 0x17
 7981 18a0 40000000 		.4byte	.LVL294
 7982 18a4 29330000 		.4byte	0x3329
 7983 18a8 00       		.byte	0
 7984 18a9 1E       		.uleb128 0x1e
 7985 18aa AF000000 		.4byte	0xaf
 7986 18ae B9180000 		.4byte	0x18b9
 7987 18b2 1F       		.uleb128 0x1f
 7988 18b3 93000000 		.4byte	0x93
 7989 18b7 0E       		.byte	0xe
 7990 18b8 00       		.byte	0
 7991 18b9 07       		.uleb128 0x7
 7992 18ba A9180000 		.4byte	0x18a9
 7993 18be 2C       		.uleb128 0x2c
 7994 18bf A9110000 		.4byte	.LASF152
 7995 18c3 01       		.byte	0x1
 7996 18c4 CA02     		.2byte	0x2ca
 7997 18c6 33020000 		.4byte	0x233
 7998 18ca 00000000 		.4byte	.LFB9
 7999 18ce E8030000 		.4byte	.LFE9-.LFB9
 8000 18d2 01       		.uleb128 0x1
 8001 18d3 9C       		.byte	0x9c
 8002 18d4 89210000 		.4byte	0x2189
 8003 18d8 13       		.uleb128 0x13
 8004 18d9 110B0000 		.4byte	.LASF145
 8005 18dd 01       		.byte	0x1
 8006 18de CA02     		.2byte	0x2ca
 8007 18e0 8F010000 		.4byte	0x18f
 8008 18e4 81110000 		.4byte	.LLST71
 8009 18e8 13       		.uleb128 0x13
 8010 18e9 99110000 		.4byte	.LASF146
 8011 18ed 01       		.byte	0x1
ARM GAS  C:\Users\Phuong\AppData\Local\Temp\ccdTtd1y.s 			page 176


 8012 18ee CA02     		.2byte	0x2ca
 8013 18f0 A9000000 		.4byte	0xa9
 8014 18f4 24120000 		.4byte	.LLST72
 8015 18f8 1B       		.uleb128 0x1b
 8016 18f9 7B020000 		.4byte	.LASF97
 8017 18fd 01       		.byte	0x1
 8018 18fe CC02     		.2byte	0x2cc
 8019 1900 D9050000 		.4byte	0x5d9
 8020 1904 A0120000 		.4byte	.LLST73
 8021 1908 14       		.uleb128 0x14
 8022 1909 BA0C0000 		.4byte	.LASF113
 8023 190d 99210000 		.4byte	0x2199
 8024 1911 05       		.uleb128 0x5
 8025 1912 03       		.byte	0x3
 8026 1913 F8000000 		.4byte	__func__.8522
 8027 1917 2D       		.uleb128 0x2d
 8028 1918 860B0000 		.4byte	.LASF225
 8029 191c 01       		.byte	0x1
 8030 191d 9003     		.2byte	0x390
 8031 191f 5E030000 		.4byte	.L123
 8032 1923 15       		.uleb128 0x15
 8033 1924 16000000 		.4byte	.LBB45
 8034 1928 22000000 		.4byte	.LBE45-.LBB45
 8035 192c 8D190000 		.4byte	0x198d
 8036 1930 16       		.uleb128 0x16
 8037 1931 6C00     		.ascii	"l\000"
 8038 1933 01       		.byte	0x1
 8039 1934 D202     		.2byte	0x2d2
 8040 1936 32010000 		.4byte	0x132
 8041 193a F6120000 		.4byte	.LLST74
 8042 193e 17       		.uleb128 0x17
 8043 193f 1A000000 		.4byte	.LVL337
 8044 1943 16320000 		.4byte	0x3216
 8045 1947 18       		.uleb128 0x18
 8046 1948 38000000 		.4byte	.LVL340
 8047 194c 02       		.uleb128 0x2
 8048 194d 74       		.byte	0x74
 8049 194e 00       		.sleb128 0
 8050 194f 19       		.uleb128 0x19
 8051 1950 01       		.uleb128 0x1
 8052 1951 50       		.byte	0x50
 8053 1952 01       		.uleb128 0x1
 8054 1953 30       		.byte	0x30
 8055 1954 19       		.uleb128 0x19
 8056 1955 01       		.uleb128 0x1
 8057 1956 51       		.byte	0x51
 8058 1957 05       		.uleb128 0x5
 8059 1958 03       		.byte	0x3
 8060 1959 00000000 		.4byte	.LC1
 8061 195d 19       		.uleb128 0x19
 8062 195e 01       		.uleb128 0x1
 8063 195f 52       		.byte	0x52
 8064 1960 05       		.uleb128 0x5
 8065 1961 03       		.byte	0x3
 8066 1962 F8000000 		.4byte	.LANCHOR1+120
 8067 1966 19       		.uleb128 0x19
 8068 1967 01       		.uleb128 0x1
ARM GAS  C:\Users\Phuong\AppData\Local\Temp\ccdTtd1y.s 			page 177


 8069 1968 53       		.byte	0x53
 8070 1969 03       		.uleb128 0x3
 8071 196a 0A       		.byte	0xa
 8072 196b D202     		.2byte	0x2d2
 8073 196d 19       		.uleb128 0x19
 8074 196e 02       		.uleb128 0x2
 8075 196f 7D       		.byte	0x7d
 8076 1970 00       		.sleb128 0
 8077 1971 01       		.uleb128 0x1
 8078 1972 31       		.byte	0x31
 8079 1973 19       		.uleb128 0x19
 8080 1974 02       		.uleb128 0x2
 8081 1975 7D       		.byte	0x7d
 8082 1976 04       		.sleb128 4
 8083 1977 05       		.uleb128 0x5
 8084 1978 03       		.byte	0x3
 8085 1979 28060000 		.4byte	.LC83
 8086 197d 19       		.uleb128 0x19
 8087 197e 02       		.uleb128 0x2
 8088 197f 7D       		.byte	0x7d
 8089 1980 08       		.sleb128 8
 8090 1981 02       		.uleb128 0x2
 8091 1982 76       		.byte	0x76
 8092 1983 00       		.sleb128 0
 8093 1984 19       		.uleb128 0x19
 8094 1985 02       		.uleb128 0x2
 8095 1986 7D       		.byte	0x7d
 8096 1987 0C       		.sleb128 12
 8097 1988 02       		.uleb128 0x2
 8098 1989 77       		.byte	0x77
 8099 198a 00       		.sleb128 0
 8100 198b 00       		.byte	0
 8101 198c 00       		.byte	0
 8102 198d 15       		.uleb128 0x15
 8103 198e 42000000 		.4byte	.LBB46
 8104 1992 20000000 		.4byte	.LBE46-.LBB46
 8105 1996 E9190000 		.4byte	0x19e9
 8106 199a 16       		.uleb128 0x16
 8107 199b 6C00     		.ascii	"l\000"
 8108 199d 01       		.byte	0x1
 8109 199e D802     		.2byte	0x2d8
 8110 19a0 32010000 		.4byte	0x132
 8111 19a4 1F130000 		.4byte	.LLST75
 8112 19a8 17       		.uleb128 0x17
 8113 19a9 46000000 		.4byte	.LVL343
 8114 19ad 16320000 		.4byte	0x3216
 8115 19b1 18       		.uleb128 0x18
 8116 19b2 62000000 		.4byte	.LVL346
 8117 19b6 02       		.uleb128 0x2
 8118 19b7 74       		.byte	0x74
 8119 19b8 00       		.sleb128 0
 8120 19b9 19       		.uleb128 0x19
 8121 19ba 01       		.uleb128 0x1
 8122 19bb 50       		.byte	0x50
 8123 19bc 01       		.uleb128 0x1
 8124 19bd 30       		.byte	0x30
 8125 19be 19       		.uleb128 0x19
ARM GAS  C:\Users\Phuong\AppData\Local\Temp\ccdTtd1y.s 			page 178


 8126 19bf 01       		.uleb128 0x1
 8127 19c0 51       		.byte	0x51
 8128 19c1 05       		.uleb128 0x5
 8129 19c2 03       		.byte	0x3
 8130 19c3 00000000 		.4byte	.LC1
 8131 19c7 19       		.uleb128 0x19
 8132 19c8 01       		.uleb128 0x1
 8133 19c9 52       		.byte	0x52
 8134 19ca 05       		.uleb128 0x5
 8135 19cb 03       		.byte	0x3
 8136 19cc F8000000 		.4byte	.LANCHOR1+120
 8137 19d0 19       		.uleb128 0x19
 8138 19d1 01       		.uleb128 0x1
 8139 19d2 53       		.byte	0x53
 8140 19d3 03       		.uleb128 0x3
 8141 19d4 0A       		.byte	0xa
 8142 19d5 D802     		.2byte	0x2d8
 8143 19d7 19       		.uleb128 0x19
 8144 19d8 02       		.uleb128 0x2
 8145 19d9 7D       		.byte	0x7d
 8146 19da 00       		.sleb128 0
 8147 19db 01       		.uleb128 0x1
 8148 19dc 31       		.byte	0x31
 8149 19dd 19       		.uleb128 0x19
 8150 19de 02       		.uleb128 0x2
 8151 19df 7D       		.byte	0x7d
 8152 19e0 04       		.sleb128 4
 8153 19e1 05       		.uleb128 0x5
 8154 19e2 03       		.byte	0x3
 8155 19e3 5C060000 		.4byte	.LC85
 8156 19e7 00       		.byte	0
 8157 19e8 00       		.byte	0
 8158 19e9 15       		.uleb128 0x15
 8159 19ea 70000000 		.4byte	.LBB47
 8160 19ee 20000000 		.4byte	.LBE47-.LBB47
 8161 19f2 451A0000 		.4byte	0x1a45
 8162 19f6 16       		.uleb128 0x16
 8163 19f7 6C00     		.ascii	"l\000"
 8164 19f9 01       		.byte	0x1
 8165 19fa E202     		.2byte	0x2e2
 8166 19fc 32010000 		.4byte	0x132
 8167 1a00 48130000 		.4byte	.LLST76
 8168 1a04 17       		.uleb128 0x17
 8169 1a05 74000000 		.4byte	.LVL352
 8170 1a09 16320000 		.4byte	0x3216
 8171 1a0d 18       		.uleb128 0x18
 8172 1a0e 8E000000 		.4byte	.LVL355
 8173 1a12 02       		.uleb128 0x2
 8174 1a13 75       		.byte	0x75
 8175 1a14 00       		.sleb128 0
 8176 1a15 19       		.uleb128 0x19
 8177 1a16 01       		.uleb128 0x1
 8178 1a17 50       		.byte	0x50
 8179 1a18 01       		.uleb128 0x1
 8180 1a19 30       		.byte	0x30
 8181 1a1a 19       		.uleb128 0x19
 8182 1a1b 01       		.uleb128 0x1
ARM GAS  C:\Users\Phuong\AppData\Local\Temp\ccdTtd1y.s 			page 179


 8183 1a1c 51       		.byte	0x51
 8184 1a1d 05       		.uleb128 0x5
 8185 1a1e 03       		.byte	0x3
 8186 1a1f 00000000 		.4byte	.LC1
 8187 1a23 19       		.uleb128 0x19
 8188 1a24 01       		.uleb128 0x1
 8189 1a25 52       		.byte	0x52
 8190 1a26 05       		.uleb128 0x5
 8191 1a27 03       		.byte	0x3
 8192 1a28 F8000000 		.4byte	.LANCHOR1+120
 8193 1a2c 19       		.uleb128 0x19
 8194 1a2d 01       		.uleb128 0x1
 8195 1a2e 53       		.byte	0x53
 8196 1a2f 03       		.uleb128 0x3
 8197 1a30 0A       		.byte	0xa
 8198 1a31 E202     		.2byte	0x2e2
 8199 1a33 19       		.uleb128 0x19
 8200 1a34 02       		.uleb128 0x2
 8201 1a35 7D       		.byte	0x7d
 8202 1a36 00       		.sleb128 0
 8203 1a37 01       		.uleb128 0x1
 8204 1a38 31       		.byte	0x31
 8205 1a39 19       		.uleb128 0x19
 8206 1a3a 02       		.uleb128 0x2
 8207 1a3b 7D       		.byte	0x7d
 8208 1a3c 04       		.sleb128 4
 8209 1a3d 05       		.uleb128 0x5
 8210 1a3e 03       		.byte	0x3
 8211 1a3f 7C060000 		.4byte	.LC87
 8212 1a43 00       		.byte	0
 8213 1a44 00       		.byte	0
 8214 1a45 15       		.uleb128 0x15
 8215 1a46 BA000000 		.4byte	.LBB48
 8216 1a4a 20000000 		.4byte	.LBE48-.LBB48
 8217 1a4e A11A0000 		.4byte	0x1aa1
 8218 1a52 16       		.uleb128 0x16
 8219 1a53 6C00     		.ascii	"l\000"
 8220 1a55 01       		.byte	0x1
 8221 1a56 F502     		.2byte	0x2f5
 8222 1a58 32010000 		.4byte	0x132
 8223 1a5c 66130000 		.4byte	.LLST77
 8224 1a60 17       		.uleb128 0x17
 8225 1a61 BE000000 		.4byte	.LVL358
 8226 1a65 16320000 		.4byte	0x3216
 8227 1a69 18       		.uleb128 0x18
 8228 1a6a D8000000 		.4byte	.LVL361
 8229 1a6e 02       		.uleb128 0x2
 8230 1a6f 75       		.byte	0x75
 8231 1a70 00       		.sleb128 0
 8232 1a71 19       		.uleb128 0x19
 8233 1a72 01       		.uleb128 0x1
 8234 1a73 50       		.byte	0x50
 8235 1a74 01       		.uleb128 0x1
 8236 1a75 30       		.byte	0x30
 8237 1a76 19       		.uleb128 0x19
 8238 1a77 01       		.uleb128 0x1
 8239 1a78 51       		.byte	0x51
ARM GAS  C:\Users\Phuong\AppData\Local\Temp\ccdTtd1y.s 			page 180


 8240 1a79 05       		.uleb128 0x5
 8241 1a7a 03       		.byte	0x3
 8242 1a7b 00000000 		.4byte	.LC1
 8243 1a7f 19       		.uleb128 0x19
 8244 1a80 01       		.uleb128 0x1
 8245 1a81 52       		.byte	0x52
 8246 1a82 05       		.uleb128 0x5
 8247 1a83 03       		.byte	0x3
 8248 1a84 F8000000 		.4byte	.LANCHOR1+120
 8249 1a88 19       		.uleb128 0x19
 8250 1a89 01       		.uleb128 0x1
 8251 1a8a 53       		.byte	0x53
 8252 1a8b 03       		.uleb128 0x3
 8253 1a8c 0A       		.byte	0xa
 8254 1a8d F502     		.2byte	0x2f5
 8255 1a8f 19       		.uleb128 0x19
 8256 1a90 02       		.uleb128 0x2
 8257 1a91 7D       		.byte	0x7d
 8258 1a92 00       		.sleb128 0
 8259 1a93 01       		.uleb128 0x1
 8260 1a94 31       		.byte	0x31
 8261 1a95 19       		.uleb128 0x19
 8262 1a96 02       		.uleb128 0x2
 8263 1a97 7D       		.byte	0x7d
 8264 1a98 04       		.sleb128 4
 8265 1a99 05       		.uleb128 0x5
 8266 1a9a 03       		.byte	0x3
 8267 1a9b B0060000 		.4byte	.LC89
 8268 1a9f 00       		.byte	0
 8269 1aa0 00       		.byte	0
 8270 1aa1 15       		.uleb128 0x15
 8271 1aa2 E6000000 		.4byte	.LBB49
 8272 1aa6 22000000 		.4byte	.LBE49-.LBB49
 8273 1aaa FD1A0000 		.4byte	0x1afd
 8274 1aae 16       		.uleb128 0x16
 8275 1aaf 6C00     		.ascii	"l\000"
 8276 1ab1 01       		.byte	0x1
 8277 1ab2 FC02     		.2byte	0x2fc
 8278 1ab4 32010000 		.4byte	0x132
 8279 1ab8 84130000 		.4byte	.LLST78
 8280 1abc 17       		.uleb128 0x17
 8281 1abd EA000000 		.4byte	.LVL364
 8282 1ac1 16320000 		.4byte	0x3216
 8283 1ac5 18       		.uleb128 0x18
 8284 1ac6 06010000 		.4byte	.LVL367
 8285 1aca 02       		.uleb128 0x2
 8286 1acb 75       		.byte	0x75
 8287 1acc 00       		.sleb128 0
 8288 1acd 19       		.uleb128 0x19
 8289 1ace 01       		.uleb128 0x1
 8290 1acf 50       		.byte	0x50
 8291 1ad0 01       		.uleb128 0x1
 8292 1ad1 30       		.byte	0x30
 8293 1ad2 19       		.uleb128 0x19
 8294 1ad3 01       		.uleb128 0x1
 8295 1ad4 51       		.byte	0x51
 8296 1ad5 05       		.uleb128 0x5
ARM GAS  C:\Users\Phuong\AppData\Local\Temp\ccdTtd1y.s 			page 181


 8297 1ad6 03       		.byte	0x3
 8298 1ad7 00000000 		.4byte	.LC1
 8299 1adb 19       		.uleb128 0x19
 8300 1adc 01       		.uleb128 0x1
 8301 1add 52       		.byte	0x52
 8302 1ade 05       		.uleb128 0x5
 8303 1adf 03       		.byte	0x3
 8304 1ae0 F8000000 		.4byte	.LANCHOR1+120
 8305 1ae4 19       		.uleb128 0x19
 8306 1ae5 01       		.uleb128 0x1
 8307 1ae6 53       		.byte	0x53
 8308 1ae7 03       		.uleb128 0x3
 8309 1ae8 0A       		.byte	0xa
 8310 1ae9 FC02     		.2byte	0x2fc
 8311 1aeb 19       		.uleb128 0x19
 8312 1aec 02       		.uleb128 0x2
 8313 1aed 7D       		.byte	0x7d
 8314 1aee 00       		.sleb128 0
 8315 1aef 01       		.uleb128 0x1
 8316 1af0 31       		.byte	0x31
 8317 1af1 19       		.uleb128 0x19
 8318 1af2 02       		.uleb128 0x2
 8319 1af3 7D       		.byte	0x7d
 8320 1af4 04       		.sleb128 4
 8321 1af5 05       		.uleb128 0x5
 8322 1af6 03       		.byte	0x3
 8323 1af7 E4060000 		.4byte	.LC93
 8324 1afb 00       		.byte	0
 8325 1afc 00       		.byte	0
 8326 1afd 15       		.uleb128 0x15
 8327 1afe 14010000 		.4byte	.LBB50
 8328 1b02 20000000 		.4byte	.LBE50-.LBB50
 8329 1b06 591B0000 		.4byte	0x1b59
 8330 1b0a 16       		.uleb128 0x16
 8331 1b0b 6C00     		.ascii	"l\000"
 8332 1b0d 01       		.byte	0x1
 8333 1b0e 0303     		.2byte	0x303
 8334 1b10 32010000 		.4byte	0x132
 8335 1b14 A2130000 		.4byte	.LLST79
 8336 1b18 17       		.uleb128 0x17
 8337 1b19 18010000 		.4byte	.LVL370
 8338 1b1d 16320000 		.4byte	0x3216
 8339 1b21 18       		.uleb128 0x18
 8340 1b22 32010000 		.4byte	.LVL373
 8341 1b26 02       		.uleb128 0x2
 8342 1b27 75       		.byte	0x75
 8343 1b28 00       		.sleb128 0
 8344 1b29 19       		.uleb128 0x19
 8345 1b2a 01       		.uleb128 0x1
 8346 1b2b 50       		.byte	0x50
 8347 1b2c 01       		.uleb128 0x1
 8348 1b2d 30       		.byte	0x30
 8349 1b2e 19       		.uleb128 0x19
 8350 1b2f 01       		.uleb128 0x1
 8351 1b30 51       		.byte	0x51
 8352 1b31 05       		.uleb128 0x5
 8353 1b32 03       		.byte	0x3
ARM GAS  C:\Users\Phuong\AppData\Local\Temp\ccdTtd1y.s 			page 182


 8354 1b33 00000000 		.4byte	.LC1
 8355 1b37 19       		.uleb128 0x19
 8356 1b38 01       		.uleb128 0x1
 8357 1b39 52       		.byte	0x52
 8358 1b3a 05       		.uleb128 0x5
 8359 1b3b 03       		.byte	0x3
 8360 1b3c F8000000 		.4byte	.LANCHOR1+120
 8361 1b40 19       		.uleb128 0x19
 8362 1b41 01       		.uleb128 0x1
 8363 1b42 53       		.byte	0x53
 8364 1b43 03       		.uleb128 0x3
 8365 1b44 0A       		.byte	0xa
 8366 1b45 0303     		.2byte	0x303
 8367 1b47 19       		.uleb128 0x19
 8368 1b48 02       		.uleb128 0x2
 8369 1b49 7D       		.byte	0x7d
 8370 1b4a 00       		.sleb128 0
 8371 1b4b 01       		.uleb128 0x1
 8372 1b4c 31       		.byte	0x31
 8373 1b4d 19       		.uleb128 0x19
 8374 1b4e 02       		.uleb128 0x2
 8375 1b4f 7D       		.byte	0x7d
 8376 1b50 04       		.sleb128 4
 8377 1b51 05       		.uleb128 0x5
 8378 1b52 03       		.byte	0x3
 8379 1b53 18070000 		.4byte	.LC97
 8380 1b57 00       		.byte	0
 8381 1b58 00       		.byte	0
 8382 1b59 15       		.uleb128 0x15
 8383 1b5a 34010000 		.4byte	.LBB51
 8384 1b5e 0E020000 		.4byte	.LBE51-.LBB51
 8385 1b62 0F210000 		.4byte	0x210f
 8386 1b66 1B       		.uleb128 0x1b
 8387 1b67 88090000 		.4byte	.LASF147
 8388 1b6b 01       		.byte	0x1
 8389 1b6c 0803     		.2byte	0x308
 8390 1b6e 68010000 		.4byte	0x168
 8391 1b72 C0130000 		.4byte	.LLST80
 8392 1b76 15       		.uleb128 0x15
 8393 1b77 40010000 		.4byte	.LBB52
 8394 1b7b 22000000 		.4byte	.LBE52-.LBB52
 8395 1b7f D21B0000 		.4byte	0x1bd2
 8396 1b83 16       		.uleb128 0x16
 8397 1b84 6C00     		.ascii	"l\000"
 8398 1b86 01       		.byte	0x1
 8399 1b87 0C03     		.2byte	0x30c
 8400 1b89 32010000 		.4byte	0x132
 8401 1b8d F6130000 		.4byte	.LLST81
 8402 1b91 17       		.uleb128 0x17
 8403 1b92 44010000 		.4byte	.LVL377
 8404 1b96 16320000 		.4byte	0x3216
 8405 1b9a 18       		.uleb128 0x18
 8406 1b9b 60010000 		.4byte	.LVL380
 8407 1b9f 02       		.uleb128 0x2
 8408 1ba0 75       		.byte	0x75
 8409 1ba1 00       		.sleb128 0
 8410 1ba2 19       		.uleb128 0x19
ARM GAS  C:\Users\Phuong\AppData\Local\Temp\ccdTtd1y.s 			page 183


 8411 1ba3 01       		.uleb128 0x1
 8412 1ba4 50       		.byte	0x50
 8413 1ba5 01       		.uleb128 0x1
 8414 1ba6 30       		.byte	0x30
 8415 1ba7 19       		.uleb128 0x19
 8416 1ba8 01       		.uleb128 0x1
 8417 1ba9 51       		.byte	0x51
 8418 1baa 05       		.uleb128 0x5
 8419 1bab 03       		.byte	0x3
 8420 1bac 00000000 		.4byte	.LC1
 8421 1bb0 19       		.uleb128 0x19
 8422 1bb1 01       		.uleb128 0x1
 8423 1bb2 52       		.byte	0x52
 8424 1bb3 05       		.uleb128 0x5
 8425 1bb4 03       		.byte	0x3
 8426 1bb5 F8000000 		.4byte	.LANCHOR1+120
 8427 1bb9 19       		.uleb128 0x19
 8428 1bba 01       		.uleb128 0x1
 8429 1bbb 53       		.byte	0x53
 8430 1bbc 03       		.uleb128 0x3
 8431 1bbd 0A       		.byte	0xa
 8432 1bbe 0C03     		.2byte	0x30c
 8433 1bc0 19       		.uleb128 0x19
 8434 1bc1 02       		.uleb128 0x2
 8435 1bc2 7D       		.byte	0x7d
 8436 1bc3 00       		.sleb128 0
 8437 1bc4 01       		.uleb128 0x1
 8438 1bc5 31       		.byte	0x31
 8439 1bc6 19       		.uleb128 0x19
 8440 1bc7 02       		.uleb128 0x2
 8441 1bc8 7D       		.byte	0x7d
 8442 1bc9 04       		.sleb128 4
 8443 1bca 05       		.uleb128 0x5
 8444 1bcb 03       		.byte	0x3
 8445 1bcc 40070000 		.4byte	.LC99
 8446 1bd0 00       		.byte	0
 8447 1bd1 00       		.byte	0
 8448 1bd2 15       		.uleb128 0x15
 8449 1bd3 62010000 		.4byte	.LBB53
 8450 1bd7 DA010000 		.4byte	.LBE53-.LBB53
 8451 1bdb F1200000 		.4byte	0x20f1
 8452 1bdf 1B       		.uleb128 0x1b
 8453 1be0 66080000 		.4byte	.LASF148
 8454 1be4 01       		.byte	0x1
 8455 1be5 1103     		.2byte	0x311
 8456 1be7 68010000 		.4byte	0x168
 8457 1beb 14140000 		.4byte	.LLST82
 8458 1bef 15       		.uleb128 0x15
 8459 1bf0 6E010000 		.4byte	.LBB54
 8460 1bf4 20000000 		.4byte	.LBE54-.LBB54
 8461 1bf8 4B1C0000 		.4byte	0x1c4b
 8462 1bfc 16       		.uleb128 0x16
 8463 1bfd 6C00     		.ascii	"l\000"
 8464 1bff 01       		.byte	0x1
 8465 1c00 1503     		.2byte	0x315
 8466 1c02 32010000 		.4byte	0x132
 8467 1c06 48140000 		.4byte	.LLST83
ARM GAS  C:\Users\Phuong\AppData\Local\Temp\ccdTtd1y.s 			page 184


 8468 1c0a 17       		.uleb128 0x17
 8469 1c0b 72010000 		.4byte	.LVL385
 8470 1c0f 16320000 		.4byte	0x3216
 8471 1c13 18       		.uleb128 0x18
 8472 1c14 8C010000 		.4byte	.LVL388
 8473 1c18 02       		.uleb128 0x2
 8474 1c19 75       		.byte	0x75
 8475 1c1a 00       		.sleb128 0
 8476 1c1b 19       		.uleb128 0x19
 8477 1c1c 01       		.uleb128 0x1
 8478 1c1d 50       		.byte	0x50
 8479 1c1e 01       		.uleb128 0x1
 8480 1c1f 30       		.byte	0x30
 8481 1c20 19       		.uleb128 0x19
 8482 1c21 01       		.uleb128 0x1
 8483 1c22 51       		.byte	0x51
 8484 1c23 05       		.uleb128 0x5
 8485 1c24 03       		.byte	0x3
 8486 1c25 00000000 		.4byte	.LC1
 8487 1c29 19       		.uleb128 0x19
 8488 1c2a 01       		.uleb128 0x1
 8489 1c2b 52       		.byte	0x52
 8490 1c2c 05       		.uleb128 0x5
 8491 1c2d 03       		.byte	0x3
 8492 1c2e F8000000 		.4byte	.LANCHOR1+120
 8493 1c32 19       		.uleb128 0x19
 8494 1c33 01       		.uleb128 0x1
 8495 1c34 53       		.byte	0x53
 8496 1c35 03       		.uleb128 0x3
 8497 1c36 0A       		.byte	0xa
 8498 1c37 1503     		.2byte	0x315
 8499 1c39 19       		.uleb128 0x19
 8500 1c3a 02       		.uleb128 0x2
 8501 1c3b 7D       		.byte	0x7d
 8502 1c3c 00       		.sleb128 0
 8503 1c3d 01       		.uleb128 0x1
 8504 1c3e 31       		.byte	0x31
 8505 1c3f 19       		.uleb128 0x19
 8506 1c40 02       		.uleb128 0x2
 8507 1c41 7D       		.byte	0x7d
 8508 1c42 04       		.sleb128 4
 8509 1c43 05       		.uleb128 0x5
 8510 1c44 03       		.byte	0x3
 8511 1c45 64070000 		.4byte	.LC101
 8512 1c49 00       		.byte	0
 8513 1c4a 00       		.byte	0
 8514 1c4b 15       		.uleb128 0x15
 8515 1c4c 8E010000 		.4byte	.LBB55
 8516 1c50 A8010000 		.4byte	.LBE55-.LBB55
 8517 1c54 CB200000 		.4byte	0x20cb
 8518 1c58 1B       		.uleb128 0x1b
 8519 1c59 16030000 		.4byte	.LASF149
 8520 1c5d 01       		.byte	0x1
 8521 1c5e 1903     		.2byte	0x319
 8522 1c60 2C000000 		.4byte	0x2c
 8523 1c64 66140000 		.4byte	.LLST84
 8524 1c68 1B       		.uleb128 0x1b
ARM GAS  C:\Users\Phuong\AppData\Local\Temp\ccdTtd1y.s 			page 185


 8525 1c69 15110000 		.4byte	.LASF150
 8526 1c6d 01       		.byte	0x1
 8527 1c6e 1B03     		.2byte	0x31b
 8528 1c70 9C000000 		.4byte	0x9c
 8529 1c74 8F140000 		.4byte	.LLST85
 8530 1c78 15       		.uleb128 0x15
 8531 1c79 A2010000 		.4byte	.LBB56
 8532 1c7d 20000000 		.4byte	.LBE56-.LBB56
 8533 1c81 D41C0000 		.4byte	0x1cd4
 8534 1c85 16       		.uleb128 0x16
 8535 1c86 6C00     		.ascii	"l\000"
 8536 1c88 01       		.byte	0x1
 8537 1c89 1F03     		.2byte	0x31f
 8538 1c8b 32010000 		.4byte	0x132
 8539 1c8f C5140000 		.4byte	.LLST86
 8540 1c93 17       		.uleb128 0x17
 8541 1c94 A6010000 		.4byte	.LVL396
 8542 1c98 16320000 		.4byte	0x3216
 8543 1c9c 18       		.uleb128 0x18
 8544 1c9d C0010000 		.4byte	.LVL399
 8545 1ca1 02       		.uleb128 0x2
 8546 1ca2 75       		.byte	0x75
 8547 1ca3 00       		.sleb128 0
 8548 1ca4 19       		.uleb128 0x19
 8549 1ca5 01       		.uleb128 0x1
 8550 1ca6 50       		.byte	0x50
 8551 1ca7 01       		.uleb128 0x1
 8552 1ca8 30       		.byte	0x30
 8553 1ca9 19       		.uleb128 0x19
 8554 1caa 01       		.uleb128 0x1
 8555 1cab 51       		.byte	0x51
 8556 1cac 05       		.uleb128 0x5
 8557 1cad 03       		.byte	0x3
 8558 1cae 00000000 		.4byte	.LC1
 8559 1cb2 19       		.uleb128 0x19
 8560 1cb3 01       		.uleb128 0x1
 8561 1cb4 52       		.byte	0x52
 8562 1cb5 05       		.uleb128 0x5
 8563 1cb6 03       		.byte	0x3
 8564 1cb7 F8000000 		.4byte	.LANCHOR1+120
 8565 1cbb 19       		.uleb128 0x19
 8566 1cbc 01       		.uleb128 0x1
 8567 1cbd 53       		.byte	0x53
 8568 1cbe 03       		.uleb128 0x3
 8569 1cbf 0A       		.byte	0xa
 8570 1cc0 1F03     		.2byte	0x31f
 8571 1cc2 19       		.uleb128 0x19
 8572 1cc3 02       		.uleb128 0x2
 8573 1cc4 7D       		.byte	0x7d
 8574 1cc5 00       		.sleb128 0
 8575 1cc6 01       		.uleb128 0x1
 8576 1cc7 31       		.byte	0x31
 8577 1cc8 19       		.uleb128 0x19
 8578 1cc9 02       		.uleb128 0x2
 8579 1cca 7D       		.byte	0x7d
 8580 1ccb 04       		.sleb128 4
 8581 1ccc 05       		.uleb128 0x5
ARM GAS  C:\Users\Phuong\AppData\Local\Temp\ccdTtd1y.s 			page 186


 8582 1ccd 03       		.byte	0x3
 8583 1cce 88070000 		.4byte	.LC103
 8584 1cd2 00       		.byte	0
 8585 1cd3 00       		.byte	0
 8586 1cd4 15       		.uleb128 0x15
 8587 1cd5 C2010000 		.4byte	.LBB57
 8588 1cd9 6E010000 		.4byte	.LBE57-.LBB57
 8589 1cdd 92200000 		.4byte	0x2092
 8590 1ce1 1B       		.uleb128 0x1b
 8591 1ce2 BE0A0000 		.4byte	.LASF151
 8592 1ce6 01       		.byte	0x1
 8593 1ce7 2303     		.2byte	0x323
 8594 1ce9 9C000000 		.4byte	0x9c
 8595 1ced E3140000 		.4byte	.LLST87
 8596 1cf1 15       		.uleb128 0x15
 8597 1cf2 E6010000 		.4byte	.LBB58
 8598 1cf6 22000000 		.4byte	.LBE58-.LBB58
 8599 1cfa 4D1D0000 		.4byte	0x1d4d
 8600 1cfe 16       		.uleb128 0x16
 8601 1cff 6C00     		.ascii	"l\000"
 8602 1d01 01       		.byte	0x1
 8603 1d02 2C03     		.2byte	0x32c
 8604 1d04 32010000 		.4byte	0x132
 8605 1d08 19150000 		.4byte	.LLST88
 8606 1d0c 17       		.uleb128 0x17
 8607 1d0d EA010000 		.4byte	.LVL406
 8608 1d11 16320000 		.4byte	0x3216
 8609 1d15 18       		.uleb128 0x18
 8610 1d16 06020000 		.4byte	.LVL409
 8611 1d1a 02       		.uleb128 0x2
 8612 1d1b 76       		.byte	0x76
 8613 1d1c 00       		.sleb128 0
 8614 1d1d 19       		.uleb128 0x19
 8615 1d1e 01       		.uleb128 0x1
 8616 1d1f 50       		.byte	0x50
 8617 1d20 01       		.uleb128 0x1
 8618 1d21 30       		.byte	0x30
 8619 1d22 19       		.uleb128 0x19
 8620 1d23 01       		.uleb128 0x1
 8621 1d24 51       		.byte	0x51
 8622 1d25 05       		.uleb128 0x5
 8623 1d26 03       		.byte	0x3
 8624 1d27 00000000 		.4byte	.LC1
 8625 1d2b 19       		.uleb128 0x19
 8626 1d2c 01       		.uleb128 0x1
 8627 1d2d 52       		.byte	0x52
 8628 1d2e 05       		.uleb128 0x5
 8629 1d2f 03       		.byte	0x3
 8630 1d30 F8000000 		.4byte	.LANCHOR1+120
 8631 1d34 19       		.uleb128 0x19
 8632 1d35 01       		.uleb128 0x1
 8633 1d36 53       		.byte	0x53
 8634 1d37 03       		.uleb128 0x3
 8635 1d38 0A       		.byte	0xa
 8636 1d39 2C03     		.2byte	0x32c
 8637 1d3b 19       		.uleb128 0x19
 8638 1d3c 02       		.uleb128 0x2
ARM GAS  C:\Users\Phuong\AppData\Local\Temp\ccdTtd1y.s 			page 187


 8639 1d3d 7D       		.byte	0x7d
 8640 1d3e 00       		.sleb128 0
 8641 1d3f 01       		.uleb128 0x1
 8642 1d40 31       		.byte	0x31
 8643 1d41 19       		.uleb128 0x19
 8644 1d42 02       		.uleb128 0x2
 8645 1d43 7D       		.byte	0x7d
 8646 1d44 04       		.sleb128 4
 8647 1d45 05       		.uleb128 0x5
 8648 1d46 03       		.byte	0x3
 8649 1d47 B8070000 		.4byte	.LC107
 8650 1d4b 00       		.byte	0
 8651 1d4c 00       		.byte	0
 8652 1d4d 15       		.uleb128 0x15
 8653 1d4e 34020000 		.4byte	.LBB59
 8654 1d52 1E000000 		.4byte	.LBE59-.LBB59
 8655 1d56 A91D0000 		.4byte	0x1da9
 8656 1d5a 16       		.uleb128 0x16
 8657 1d5b 6C00     		.ascii	"l\000"
 8658 1d5d 01       		.byte	0x1
 8659 1d5e 3D03     		.2byte	0x33d
 8660 1d60 32010000 		.4byte	0x132
 8661 1d64 37150000 		.4byte	.LLST89
 8662 1d68 17       		.uleb128 0x17
 8663 1d69 38020000 		.4byte	.LVL416
 8664 1d6d 16320000 		.4byte	0x3216
 8665 1d71 18       		.uleb128 0x18
 8666 1d72 50020000 		.4byte	.LVL419
 8667 1d76 02       		.uleb128 0x2
 8668 1d77 76       		.byte	0x76
 8669 1d78 00       		.sleb128 0
 8670 1d79 19       		.uleb128 0x19
 8671 1d7a 01       		.uleb128 0x1
 8672 1d7b 50       		.byte	0x50
 8673 1d7c 01       		.uleb128 0x1
 8674 1d7d 30       		.byte	0x30
 8675 1d7e 19       		.uleb128 0x19
 8676 1d7f 01       		.uleb128 0x1
 8677 1d80 51       		.byte	0x51
 8678 1d81 05       		.uleb128 0x5
 8679 1d82 03       		.byte	0x3
 8680 1d83 00000000 		.4byte	.LC1
 8681 1d87 19       		.uleb128 0x19
 8682 1d88 01       		.uleb128 0x1
 8683 1d89 52       		.byte	0x52
 8684 1d8a 05       		.uleb128 0x5
 8685 1d8b 03       		.byte	0x3
 8686 1d8c F8000000 		.4byte	.LANCHOR1+120
 8687 1d90 19       		.uleb128 0x19
 8688 1d91 01       		.uleb128 0x1
 8689 1d92 53       		.byte	0x53
 8690 1d93 03       		.uleb128 0x3
 8691 1d94 0A       		.byte	0xa
 8692 1d95 3D03     		.2byte	0x33d
 8693 1d97 19       		.uleb128 0x19
 8694 1d98 02       		.uleb128 0x2
 8695 1d99 7D       		.byte	0x7d
ARM GAS  C:\Users\Phuong\AppData\Local\Temp\ccdTtd1y.s 			page 188


 8696 1d9a 00       		.sleb128 0
 8697 1d9b 01       		.uleb128 0x1
 8698 1d9c 31       		.byte	0x31
 8699 1d9d 19       		.uleb128 0x19
 8700 1d9e 02       		.uleb128 0x2
 8701 1d9f 7D       		.byte	0x7d
 8702 1da0 04       		.sleb128 4
 8703 1da1 05       		.uleb128 0x5
 8704 1da2 03       		.byte	0x3
 8705 1da3 E8070000 		.4byte	.LC111
 8706 1da7 00       		.byte	0
 8707 1da8 00       		.byte	0
 8708 1da9 15       		.uleb128 0x15
 8709 1daa 68020000 		.4byte	.LBB60
 8710 1dae 20000000 		.4byte	.LBE60-.LBB60
 8711 1db2 051E0000 		.4byte	0x1e05
 8712 1db6 16       		.uleb128 0x16
 8713 1db7 6C00     		.ascii	"l\000"
 8714 1db9 01       		.byte	0x1
 8715 1dba 4B03     		.2byte	0x34b
 8716 1dbc 32010000 		.4byte	0x132
 8717 1dc0 55150000 		.4byte	.LLST90
 8718 1dc4 17       		.uleb128 0x17
 8719 1dc5 6C020000 		.4byte	.LVL422
 8720 1dc9 16320000 		.4byte	0x3216
 8721 1dcd 18       		.uleb128 0x18
 8722 1dce 86020000 		.4byte	.LVL425
 8723 1dd2 02       		.uleb128 0x2
 8724 1dd3 78       		.byte	0x78
 8725 1dd4 00       		.sleb128 0
 8726 1dd5 19       		.uleb128 0x19
 8727 1dd6 01       		.uleb128 0x1
 8728 1dd7 50       		.byte	0x50
 8729 1dd8 01       		.uleb128 0x1
 8730 1dd9 30       		.byte	0x30
 8731 1dda 19       		.uleb128 0x19
 8732 1ddb 01       		.uleb128 0x1
 8733 1ddc 51       		.byte	0x51
 8734 1ddd 05       		.uleb128 0x5
 8735 1dde 03       		.byte	0x3
 8736 1ddf 00000000 		.4byte	.LC1
 8737 1de3 19       		.uleb128 0x19
 8738 1de4 01       		.uleb128 0x1
 8739 1de5 52       		.byte	0x52
 8740 1de6 05       		.uleb128 0x5
 8741 1de7 03       		.byte	0x3
 8742 1de8 F8000000 		.4byte	.LANCHOR1+120
 8743 1dec 19       		.uleb128 0x19
 8744 1ded 01       		.uleb128 0x1
 8745 1dee 53       		.byte	0x53
 8746 1def 03       		.uleb128 0x3
 8747 1df0 0A       		.byte	0xa
 8748 1df1 4B03     		.2byte	0x34b
 8749 1df3 19       		.uleb128 0x19
 8750 1df4 02       		.uleb128 0x2
 8751 1df5 7D       		.byte	0x7d
 8752 1df6 00       		.sleb128 0
ARM GAS  C:\Users\Phuong\AppData\Local\Temp\ccdTtd1y.s 			page 189


 8753 1df7 01       		.uleb128 0x1
 8754 1df8 31       		.byte	0x31
 8755 1df9 19       		.uleb128 0x19
 8756 1dfa 02       		.uleb128 0x2
 8757 1dfb 7D       		.byte	0x7d
 8758 1dfc 04       		.sleb128 4
 8759 1dfd 05       		.uleb128 0x5
 8760 1dfe 03       		.byte	0x3
 8761 1dff 04080000 		.4byte	.LC113
 8762 1e03 00       		.byte	0
 8763 1e04 00       		.byte	0
 8764 1e05 15       		.uleb128 0x15
 8765 1e06 98020000 		.4byte	.LBB61
 8766 1e0a 22000000 		.4byte	.LBE61-.LBB61
 8767 1e0e 611E0000 		.4byte	0x1e61
 8768 1e12 16       		.uleb128 0x16
 8769 1e13 6C00     		.ascii	"l\000"
 8770 1e15 01       		.byte	0x1
 8771 1e16 5403     		.2byte	0x354
 8772 1e18 32010000 		.4byte	0x132
 8773 1e1c 73150000 		.4byte	.LLST91
 8774 1e20 17       		.uleb128 0x17
 8775 1e21 9C020000 		.4byte	.LVL428
 8776 1e25 16320000 		.4byte	0x3216
 8777 1e29 18       		.uleb128 0x18
 8778 1e2a B8020000 		.4byte	.LVL431
 8779 1e2e 02       		.uleb128 0x2
 8780 1e2f 78       		.byte	0x78
 8781 1e30 00       		.sleb128 0
 8782 1e31 19       		.uleb128 0x19
 8783 1e32 01       		.uleb128 0x1
 8784 1e33 50       		.byte	0x50
 8785 1e34 01       		.uleb128 0x1
 8786 1e35 30       		.byte	0x30
 8787 1e36 19       		.uleb128 0x19
 8788 1e37 01       		.uleb128 0x1
 8789 1e38 51       		.byte	0x51
 8790 1e39 05       		.uleb128 0x5
 8791 1e3a 03       		.byte	0x3
 8792 1e3b 00000000 		.4byte	.LC1
 8793 1e3f 19       		.uleb128 0x19
 8794 1e40 01       		.uleb128 0x1
 8795 1e41 52       		.byte	0x52
 8796 1e42 05       		.uleb128 0x5
 8797 1e43 03       		.byte	0x3
 8798 1e44 F8000000 		.4byte	.LANCHOR1+120
 8799 1e48 19       		.uleb128 0x19
 8800 1e49 01       		.uleb128 0x1
 8801 1e4a 53       		.byte	0x53
 8802 1e4b 03       		.uleb128 0x3
 8803 1e4c 0A       		.byte	0xa
 8804 1e4d 5403     		.2byte	0x354
 8805 1e4f 19       		.uleb128 0x19
 8806 1e50 02       		.uleb128 0x2
 8807 1e51 7D       		.byte	0x7d
 8808 1e52 00       		.sleb128 0
 8809 1e53 01       		.uleb128 0x1
ARM GAS  C:\Users\Phuong\AppData\Local\Temp\ccdTtd1y.s 			page 190


 8810 1e54 31       		.byte	0x31
 8811 1e55 19       		.uleb128 0x19
 8812 1e56 02       		.uleb128 0x2
 8813 1e57 7D       		.byte	0x7d
 8814 1e58 04       		.sleb128 4
 8815 1e59 05       		.uleb128 0x5
 8816 1e5a 03       		.byte	0x3
 8817 1e5b 24080000 		.4byte	.LC116
 8818 1e5f 00       		.byte	0
 8819 1e60 00       		.byte	0
 8820 1e61 15       		.uleb128 0x15
 8821 1e62 CA020000 		.4byte	.LBB62
 8822 1e66 1E000000 		.4byte	.LBE62-.LBB62
 8823 1e6a BD1E0000 		.4byte	0x1ebd
 8824 1e6e 16       		.uleb128 0x16
 8825 1e6f 6C00     		.ascii	"l\000"
 8826 1e71 01       		.byte	0x1
 8827 1e72 5D03     		.2byte	0x35d
 8828 1e74 32010000 		.4byte	0x132
 8829 1e78 91150000 		.4byte	.LLST92
 8830 1e7c 17       		.uleb128 0x17
 8831 1e7d CE020000 		.4byte	.LVL434
 8832 1e81 16320000 		.4byte	0x3216
 8833 1e85 18       		.uleb128 0x18
 8834 1e86 E8020000 		.4byte	.LVL437
 8835 1e8a 02       		.uleb128 0x2
 8836 1e8b 78       		.byte	0x78
 8837 1e8c 00       		.sleb128 0
 8838 1e8d 19       		.uleb128 0x19
 8839 1e8e 01       		.uleb128 0x1
 8840 1e8f 50       		.byte	0x50
 8841 1e90 01       		.uleb128 0x1
 8842 1e91 30       		.byte	0x30
 8843 1e92 19       		.uleb128 0x19
 8844 1e93 01       		.uleb128 0x1
 8845 1e94 51       		.byte	0x51
 8846 1e95 05       		.uleb128 0x5
 8847 1e96 03       		.byte	0x3
 8848 1e97 00000000 		.4byte	.LC1
 8849 1e9b 19       		.uleb128 0x19
 8850 1e9c 01       		.uleb128 0x1
 8851 1e9d 52       		.byte	0x52
 8852 1e9e 05       		.uleb128 0x5
 8853 1e9f 03       		.byte	0x3
 8854 1ea0 F8000000 		.4byte	.LANCHOR1+120
 8855 1ea4 19       		.uleb128 0x19
 8856 1ea5 01       		.uleb128 0x1
 8857 1ea6 53       		.byte	0x53
 8858 1ea7 03       		.uleb128 0x3
 8859 1ea8 0A       		.byte	0xa
 8860 1ea9 5D03     		.2byte	0x35d
 8861 1eab 19       		.uleb128 0x19
 8862 1eac 02       		.uleb128 0x2
 8863 1ead 7D       		.byte	0x7d
 8864 1eae 00       		.sleb128 0
 8865 1eaf 01       		.uleb128 0x1
 8866 1eb0 31       		.byte	0x31
ARM GAS  C:\Users\Phuong\AppData\Local\Temp\ccdTtd1y.s 			page 191


 8867 1eb1 19       		.uleb128 0x19
 8868 1eb2 02       		.uleb128 0x2
 8869 1eb3 7D       		.byte	0x7d
 8870 1eb4 04       		.sleb128 4
 8871 1eb5 05       		.uleb128 0x5
 8872 1eb6 03       		.byte	0x3
 8873 1eb7 44080000 		.4byte	.LC119
 8874 1ebb 00       		.byte	0
 8875 1ebc 00       		.byte	0
 8876 1ebd 22       		.uleb128 0x22
 8877 1ebe CC010000 		.4byte	.LVL402
 8878 1ec2 34330000 		.4byte	0x3334
 8879 1ec6 DE1E0000 		.4byte	0x1ede
 8880 1eca 19       		.uleb128 0x19
 8881 1ecb 01       		.uleb128 0x1
 8882 1ecc 50       		.byte	0x50
 8883 1ecd 03       		.uleb128 0x3
 8884 1ece 91       		.byte	0x91
 8885 1ecf 54       		.sleb128 -44
 8886 1ed0 06       		.byte	0x6
 8887 1ed1 19       		.uleb128 0x19
 8888 1ed2 01       		.uleb128 0x1
 8889 1ed3 51       		.byte	0x51
 8890 1ed4 02       		.uleb128 0x2
 8891 1ed5 77       		.byte	0x77
 8892 1ed6 00       		.sleb128 0
 8893 1ed7 19       		.uleb128 0x19
 8894 1ed8 01       		.uleb128 0x1
 8895 1ed9 52       		.byte	0x52
 8896 1eda 02       		.uleb128 0x2
 8897 1edb 75       		.byte	0x75
 8898 1edc 00       		.sleb128 0
 8899 1edd 00       		.byte	0
 8900 1ede 22       		.uleb128 0x22
 8901 1edf D8010000 		.4byte	.LVL403
 8902 1ee3 34330000 		.4byte	0x3334
 8903 1ee7 041F0000 		.4byte	0x1f04
 8904 1eeb 19       		.uleb128 0x19
 8905 1eec 01       		.uleb128 0x1
 8906 1eed 50       		.byte	0x50
 8907 1eee 06       		.uleb128 0x6
 8908 1eef 91       		.byte	0x91
 8909 1ef0 54       		.sleb128 -44
 8910 1ef1 06       		.byte	0x6
 8911 1ef2 75       		.byte	0x75
 8912 1ef3 00       		.sleb128 0
 8913 1ef4 22       		.byte	0x22
 8914 1ef5 19       		.uleb128 0x19
 8915 1ef6 01       		.uleb128 0x1
 8916 1ef7 51       		.byte	0x51
 8917 1ef8 05       		.uleb128 0x5
 8918 1ef9 03       		.byte	0x3
 8919 1efa 68080000 		.4byte	.LC105
 8920 1efe 19       		.uleb128 0x19
 8921 1eff 01       		.uleb128 0x1
 8922 1f00 52       		.byte	0x52
 8923 1f01 01       		.uleb128 0x1
ARM GAS  C:\Users\Phuong\AppData\Local\Temp\ccdTtd1y.s 			page 192


 8924 1f02 38       		.byte	0x38
 8925 1f03 00       		.byte	0
 8926 1f04 22       		.uleb128 0x22
 8927 1f05 E0010000 		.4byte	.LVL404
 8928 1f09 3D330000 		.4byte	0x333d
 8929 1f0d 181F0000 		.4byte	0x1f18
 8930 1f11 19       		.uleb128 0x19
 8931 1f12 01       		.uleb128 0x1
 8932 1f13 50       		.byte	0x50
 8933 1f14 02       		.uleb128 0x2
 8934 1f15 75       		.byte	0x75
 8935 1f16 0A       		.sleb128 10
 8936 1f17 00       		.byte	0
 8937 1f18 22       		.uleb128 0x22
 8938 1f19 14020000 		.4byte	.LVL413
 8939 1f1d 34330000 		.4byte	0x3334
 8940 1f21 391F0000 		.4byte	0x1f39
 8941 1f25 19       		.uleb128 0x19
 8942 1f26 01       		.uleb128 0x1
 8943 1f27 50       		.byte	0x50
 8944 1f28 02       		.uleb128 0x2
 8945 1f29 77       		.byte	0x77
 8946 1f2a 00       		.sleb128 0
 8947 1f2b 19       		.uleb128 0x19
 8948 1f2c 01       		.uleb128 0x1
 8949 1f2d 51       		.byte	0x51
 8950 1f2e 03       		.uleb128 0x3
 8951 1f2f F3       		.byte	0xf3
 8952 1f30 01       		.uleb128 0x1
 8953 1f31 51       		.byte	0x51
 8954 1f32 19       		.uleb128 0x19
 8955 1f33 01       		.uleb128 0x1
 8956 1f34 52       		.byte	0x52
 8957 1f35 02       		.uleb128 0x2
 8958 1f36 75       		.byte	0x75
 8959 1f37 00       		.sleb128 0
 8960 1f38 00       		.byte	0
 8961 1f39 22       		.uleb128 0x22
 8962 1f3a 1E020000 		.4byte	.LVL414
 8963 1f3e 34330000 		.4byte	0x3334
 8964 1f42 5E1F0000 		.4byte	0x1f5e
 8965 1f46 19       		.uleb128 0x19
 8966 1f47 01       		.uleb128 0x1
 8967 1f48 50       		.byte	0x50
 8968 1f49 05       		.uleb128 0x5
 8969 1f4a 77       		.byte	0x77
 8970 1f4b 00       		.sleb128 0
 8971 1f4c 75       		.byte	0x75
 8972 1f4d 00       		.sleb128 0
 8973 1f4e 22       		.byte	0x22
 8974 1f4f 19       		.uleb128 0x19
 8975 1f50 01       		.uleb128 0x1
 8976 1f51 51       		.byte	0x51
 8977 1f52 05       		.uleb128 0x5
 8978 1f53 03       		.byte	0x3
 8979 1f54 70080000 		.4byte	.LC109
 8980 1f58 19       		.uleb128 0x19
ARM GAS  C:\Users\Phuong\AppData\Local\Temp\ccdTtd1y.s 			page 193


 8981 1f59 01       		.uleb128 0x1
 8982 1f5a 52       		.byte	0x52
 8983 1f5b 01       		.uleb128 0x1
 8984 1f5c 3A       		.byte	0x3a
 8985 1f5d 00       		.byte	0
 8986 1f5e 22       		.uleb128 0x22
 8987 1f5f 2E020000 		.4byte	.LVL415
 8988 1f63 48330000 		.4byte	0x3348
 8989 1f67 8C1F0000 		.4byte	0x1f8c
 8990 1f6b 19       		.uleb128 0x19
 8991 1f6c 01       		.uleb128 0x1
 8992 1f6d 50       		.byte	0x50
 8993 1f6e 02       		.uleb128 0x2
 8994 1f6f 76       		.byte	0x76
 8995 1f70 00       		.sleb128 0
 8996 1f71 19       		.uleb128 0x19
 8997 1f72 01       		.uleb128 0x1
 8998 1f73 51       		.byte	0x51
 8999 1f74 03       		.uleb128 0x3
 9000 1f75 91       		.byte	0x91
 9001 1f76 54       		.sleb128 -44
 9002 1f77 06       		.byte	0x6
 9003 1f78 19       		.uleb128 0x19
 9004 1f79 01       		.uleb128 0x1
 9005 1f7a 52       		.byte	0x52
 9006 1f7b 01       		.uleb128 0x1
 9007 1f7c 30       		.byte	0x30
 9008 1f7d 19       		.uleb128 0x19
 9009 1f7e 01       		.uleb128 0x1
 9010 1f7f 53       		.byte	0x53
 9011 1f80 03       		.uleb128 0x3
 9012 1f81 91       		.byte	0x91
 9013 1f82 58       		.sleb128 -40
 9014 1f83 06       		.byte	0x6
 9015 1f84 19       		.uleb128 0x19
 9016 1f85 02       		.uleb128 0x2
 9017 1f86 7D       		.byte	0x7d
 9018 1f87 00       		.sleb128 0
 9019 1f88 02       		.uleb128 0x2
 9020 1f89 79       		.byte	0x79
 9021 1f8a 00       		.sleb128 0
 9022 1f8b 00       		.byte	0
 9023 1f8c 22       		.uleb128 0x22
 9024 1f8d 62020000 		.4byte	.LVL421
 9025 1f91 48330000 		.4byte	0x3348
 9026 1f95 BA1F0000 		.4byte	0x1fba
 9027 1f99 19       		.uleb128 0x19
 9028 1f9a 01       		.uleb128 0x1
 9029 1f9b 50       		.byte	0x50
 9030 1f9c 02       		.uleb128 0x2
 9031 1f9d 76       		.byte	0x76
 9032 1f9e 00       		.sleb128 0
 9033 1f9f 19       		.uleb128 0x19
 9034 1fa0 01       		.uleb128 0x1
 9035 1fa1 51       		.byte	0x51
 9036 1fa2 03       		.uleb128 0x3
 9037 1fa3 91       		.byte	0x91
ARM GAS  C:\Users\Phuong\AppData\Local\Temp\ccdTtd1y.s 			page 194


 9038 1fa4 5C       		.sleb128 -36
 9039 1fa5 06       		.byte	0x6
 9040 1fa6 19       		.uleb128 0x19
 9041 1fa7 01       		.uleb128 0x1
 9042 1fa8 52       		.byte	0x52
 9043 1fa9 01       		.uleb128 0x1
 9044 1faa 31       		.byte	0x31
 9045 1fab 19       		.uleb128 0x19
 9046 1fac 01       		.uleb128 0x1
 9047 1fad 53       		.byte	0x53
 9048 1fae 03       		.uleb128 0x3
 9049 1faf 91       		.byte	0x91
 9050 1fb0 58       		.sleb128 -40
 9051 1fb1 06       		.byte	0x6
 9052 1fb2 19       		.uleb128 0x19
 9053 1fb3 02       		.uleb128 0x2
 9054 1fb4 7D       		.byte	0x7d
 9055 1fb5 00       		.sleb128 0
 9056 1fb6 02       		.uleb128 0x2
 9057 1fb7 79       		.byte	0x79
 9058 1fb8 00       		.sleb128 0
 9059 1fb9 00       		.byte	0
 9060 1fba 22       		.uleb128 0x22
 9061 1fbb 92020000 		.4byte	.LVL427
 9062 1fbf 53330000 		.4byte	0x3353
 9063 1fc3 D71F0000 		.4byte	0x1fd7
 9064 1fc7 19       		.uleb128 0x19
 9065 1fc8 01       		.uleb128 0x1
 9066 1fc9 51       		.byte	0x51
 9067 1fca 05       		.uleb128 0x5
 9068 1fcb 03       		.byte	0x3
 9069 1fcc 00000000 		.4byte	on_message_sender_state_changed
 9070 1fd0 19       		.uleb128 0x19
 9071 1fd1 01       		.uleb128 0x1
 9072 1fd2 52       		.byte	0x52
 9073 1fd3 02       		.uleb128 0x2
 9074 1fd4 74       		.byte	0x74
 9075 1fd5 00       		.sleb128 0
 9076 1fd6 00       		.byte	0
 9077 1fd7 22       		.uleb128 0x22
 9078 1fd8 C4020000 		.4byte	.LVL433
 9079 1fdc 5E330000 		.4byte	0x335e
 9080 1fe0 F41F0000 		.4byte	0x1ff4
 9081 1fe4 19       		.uleb128 0x19
 9082 1fe5 01       		.uleb128 0x1
 9083 1fe6 51       		.byte	0x51
 9084 1fe7 05       		.uleb128 0x5
 9085 1fe8 03       		.byte	0x3
 9086 1fe9 00000000 		.4byte	on_message_receiver_state_changed
 9087 1fed 19       		.uleb128 0x19
 9088 1fee 01       		.uleb128 0x1
 9089 1fef 52       		.byte	0x52
 9090 1ff0 02       		.uleb128 0x2
 9091 1ff1 74       		.byte	0x74
 9092 1ff2 00       		.sleb128 0
 9093 1ff3 00       		.byte	0
 9094 1ff4 17       		.uleb128 0x17
ARM GAS  C:\Users\Phuong\AppData\Local\Temp\ccdTtd1y.s 			page 195


 9095 1ff5 EE020000 		.4byte	.LVL438
 9096 1ff9 69330000 		.4byte	0x3369
 9097 1ffd 17       		.uleb128 0x17
 9098 1ffe F4020000 		.4byte	.LVL439
 9099 2002 74330000 		.4byte	0x3374
 9100 2006 22       		.uleb128 0x22
 9101 2007 FC020000 		.4byte	.LVL441
 9102 200b 2C320000 		.4byte	0x322c
 9103 200f 1B200000 		.4byte	0x201b
 9104 2013 19       		.uleb128 0x19
 9105 2014 01       		.uleb128 0x1
 9106 2015 50       		.byte	0x50
 9107 2016 03       		.uleb128 0x3
 9108 2017 91       		.byte	0x91
 9109 2018 5C       		.sleb128 -36
 9110 2019 06       		.byte	0x6
 9111 201a 00       		.byte	0
 9112 201b 22       		.uleb128 0x22
 9113 201c 02030000 		.4byte	.LVL442
 9114 2020 2C320000 		.4byte	0x322c
 9115 2024 30200000 		.4byte	0x2030
 9116 2028 19       		.uleb128 0x19
 9117 2029 01       		.uleb128 0x1
 9118 202a 50       		.byte	0x50
 9119 202b 03       		.uleb128 0x3
 9120 202c 91       		.byte	0x91
 9121 202d 54       		.sleb128 -44
 9122 202e 06       		.byte	0x6
 9123 202f 00       		.byte	0
 9124 2030 22       		.uleb128 0x22
 9125 2031 08030000 		.4byte	.LVL443
 9126 2035 9A320000 		.4byte	0x329a
 9127 2039 44200000 		.4byte	0x2044
 9128 203d 19       		.uleb128 0x19
 9129 203e 01       		.uleb128 0x1
 9130 203f 50       		.byte	0x50
 9131 2040 02       		.uleb128 0x2
 9132 2041 79       		.byte	0x79
 9133 2042 00       		.sleb128 0
 9134 2043 00       		.byte	0
 9135 2044 22       		.uleb128 0x22
 9136 2045 0E030000 		.4byte	.LVL444
 9137 2049 9A320000 		.4byte	0x329a
 9138 204d 59200000 		.4byte	0x2059
 9139 2051 19       		.uleb128 0x19
 9140 2052 01       		.uleb128 0x1
 9141 2053 50       		.byte	0x50
 9142 2054 03       		.uleb128 0x3
 9143 2055 91       		.byte	0x91
 9144 2056 58       		.sleb128 -40
 9145 2057 06       		.byte	0x6
 9146 2058 00       		.byte	0
 9147 2059 17       		.uleb128 0x17
 9148 205a 1E030000 		.4byte	.LVL445
 9149 205e 69330000 		.4byte	0x3369
 9150 2062 17       		.uleb128 0x17
 9151 2063 24030000 		.4byte	.LVL446
ARM GAS  C:\Users\Phuong\AppData\Local\Temp\ccdTtd1y.s 			page 196


 9152 2067 69330000 		.4byte	0x3369
 9153 206b 22       		.uleb128 0x22
 9154 206c 2A030000 		.4byte	.LVL447
 9155 2070 2C320000 		.4byte	0x322c
 9156 2074 80200000 		.4byte	0x2080
 9157 2078 19       		.uleb128 0x19
 9158 2079 01       		.uleb128 0x1
 9159 207a 50       		.byte	0x50
 9160 207b 03       		.uleb128 0x3
 9161 207c 91       		.byte	0x91
 9162 207d 5C       		.sleb128 -36
 9163 207e 06       		.byte	0x6
 9164 207f 00       		.byte	0
 9165 2080 24       		.uleb128 0x24
 9166 2081 30030000 		.4byte	.LVL448
 9167 2085 2C320000 		.4byte	0x322c
 9168 2089 19       		.uleb128 0x19
 9169 208a 01       		.uleb128 0x1
 9170 208b 50       		.byte	0x50
 9171 208c 03       		.uleb128 0x3
 9172 208d 91       		.byte	0x91
 9173 208e 54       		.sleb128 -44
 9174 208f 06       		.byte	0x6
 9175 2090 00       		.byte	0
 9176 2091 00       		.byte	0
 9177 2092 22       		.uleb128 0x22
 9178 2093 94010000 		.4byte	.LVL391
 9179 2097 7F330000 		.4byte	0x337f
 9180 209b A6200000 		.4byte	0x20a6
 9181 209f 19       		.uleb128 0x19
 9182 20a0 01       		.uleb128 0x1
 9183 20a1 50       		.byte	0x50
 9184 20a2 02       		.uleb128 0x2
 9185 20a3 77       		.byte	0x77
 9186 20a4 00       		.sleb128 0
 9187 20a5 00       		.byte	0
 9188 20a6 22       		.uleb128 0x22
 9189 20a7 9C010000 		.4byte	.LVL394
 9190 20ab 3D330000 		.4byte	0x333d
 9191 20af BA200000 		.4byte	0x20ba
 9192 20b3 19       		.uleb128 0x19
 9193 20b4 01       		.uleb128 0x1
 9194 20b5 50       		.byte	0x50
 9195 20b6 02       		.uleb128 0x2
 9196 20b7 75       		.byte	0x75
 9197 20b8 08       		.sleb128 8
 9198 20b9 00       		.byte	0
 9199 20ba 24       		.uleb128 0x24
 9200 20bb 36030000 		.4byte	.LVL449
 9201 20bf 9A320000 		.4byte	0x329a
 9202 20c3 19       		.uleb128 0x19
 9203 20c4 01       		.uleb128 0x1
 9204 20c5 50       		.byte	0x50
 9205 20c6 02       		.uleb128 0x2
 9206 20c7 79       		.byte	0x79
 9207 20c8 00       		.sleb128 0
 9208 20c9 00       		.byte	0
ARM GAS  C:\Users\Phuong\AppData\Local\Temp\ccdTtd1y.s 			page 197


 9209 20ca 00       		.byte	0
 9210 20cb 22       		.uleb128 0x22
 9211 20cc 68010000 		.4byte	.LVL383
 9212 20d0 8A330000 		.4byte	0x338a
 9213 20d4 DF200000 		.4byte	0x20df
 9214 20d8 19       		.uleb128 0x19
 9215 20d9 01       		.uleb128 0x1
 9216 20da 50       		.byte	0x50
 9217 20db 02       		.uleb128 0x2
 9218 20dc 77       		.byte	0x77
 9219 20dd 00       		.sleb128 0
 9220 20de 00       		.byte	0
 9221 20df 24       		.uleb128 0x24
 9222 20e0 3C030000 		.4byte	.LVL450
 9223 20e4 9A320000 		.4byte	0x329a
 9224 20e8 19       		.uleb128 0x19
 9225 20e9 01       		.uleb128 0x1
 9226 20ea 50       		.byte	0x50
 9227 20eb 03       		.uleb128 0x3
 9228 20ec 91       		.byte	0x91
 9229 20ed 58       		.sleb128 -40
 9230 20ee 06       		.byte	0x6
 9231 20ef 00       		.byte	0
 9232 20f0 00       		.byte	0
 9233 20f1 22       		.uleb128 0x22
 9234 20f2 3A010000 		.4byte	.LVL375
 9235 20f6 95330000 		.4byte	0x3395
 9236 20fa 05210000 		.4byte	0x2105
 9237 20fe 19       		.uleb128 0x19
 9238 20ff 01       		.uleb128 0x1
 9239 2100 50       		.byte	0x50
 9240 2101 02       		.uleb128 0x2
 9241 2102 77       		.byte	0x77
 9242 2103 00       		.sleb128 0
 9243 2104 00       		.byte	0
 9244 2105 17       		.uleb128 0x17
 9245 2106 42030000 		.4byte	.LVL451
 9246 210a 2C320000 		.4byte	0x322c
 9247 210e 00       		.byte	0
 9248 210f 22       		.uleb128 0x22
 9249 2110 6C000000 		.4byte	.LVL350
 9250 2114 3D330000 		.4byte	0x333d
 9251 2118 23210000 		.4byte	0x2123
 9252 211c 19       		.uleb128 0x19
 9253 211d 01       		.uleb128 0x1
 9254 211e 50       		.byte	0x50
 9255 211f 02       		.uleb128 0x2
 9256 2120 08       		.byte	0x8
 9257 2121 40       		.byte	0x40
 9258 2122 00       		.byte	0
 9259 2123 17       		.uleb128 0x17
 9260 2124 B4000000 		.4byte	.LVL357
 9261 2128 A0330000 		.4byte	0x33a0
 9262 212c 22       		.uleb128 0x22
 9263 212d E2000000 		.4byte	.LVL363
 9264 2131 DA060000 		.4byte	0x6da
 9265 2135 49210000 		.4byte	0x2149
ARM GAS  C:\Users\Phuong\AppData\Local\Temp\ccdTtd1y.s 			page 198


 9266 2139 19       		.uleb128 0x19
 9267 213a 01       		.uleb128 0x1
 9268 213b 50       		.byte	0x50
 9269 213c 02       		.uleb128 0x2
 9270 213d 74       		.byte	0x74
 9271 213e 00       		.sleb128 0
 9272 213f 19       		.uleb128 0x19
 9273 2140 01       		.uleb128 0x1
 9274 2141 51       		.byte	0x51
 9275 2142 05       		.uleb128 0x5
 9276 2143 03       		.byte	0x3
 9277 2144 D8060000 		.4byte	.LC91
 9278 2148 00       		.byte	0
 9279 2149 22       		.uleb128 0x22
 9280 214a 10010000 		.4byte	.LVL369
 9281 214e C8070000 		.4byte	0x7c8
 9282 2152 66210000 		.4byte	0x2166
 9283 2156 19       		.uleb128 0x19
 9284 2157 01       		.uleb128 0x1
 9285 2158 50       		.byte	0x50
 9286 2159 02       		.uleb128 0x2
 9287 215a 74       		.byte	0x74
 9288 215b 00       		.sleb128 0
 9289 215c 19       		.uleb128 0x19
 9290 215d 01       		.uleb128 0x1
 9291 215e 51       		.byte	0x51
 9292 215f 05       		.uleb128 0x5
 9293 2160 03       		.byte	0x3
 9294 2161 04070000 		.4byte	.LC95
 9295 2165 00       		.byte	0
 9296 2166 17       		.uleb128 0x17
 9297 2167 48030000 		.4byte	.LVL452
 9298 216b 2C320000 		.4byte	0x322c
 9299 216f 17       		.uleb128 0x17
 9300 2170 4E030000 		.4byte	.LVL453
 9301 2174 AB330000 		.4byte	0x33ab
 9302 2178 24       		.uleb128 0x24
 9303 2179 54030000 		.4byte	.LVL454
 9304 217d 2C320000 		.4byte	0x322c
 9305 2181 19       		.uleb128 0x19
 9306 2182 01       		.uleb128 0x1
 9307 2183 50       		.byte	0x50
 9308 2184 02       		.uleb128 0x2
 9309 2185 74       		.byte	0x74
 9310 2186 00       		.sleb128 0
 9311 2187 00       		.byte	0
 9312 2188 00       		.byte	0
 9313 2189 1E       		.uleb128 0x1e
 9314 218a AF000000 		.4byte	0xaf
 9315 218e 99210000 		.4byte	0x2199
 9316 2192 1F       		.uleb128 0x1f
 9317 2193 93000000 		.4byte	0x93
 9318 2197 16       		.byte	0x16
 9319 2198 00       		.byte	0
 9320 2199 07       		.uleb128 0x7
 9321 219a 89210000 		.4byte	0x2189
 9322 219e 2C       		.uleb128 0x2c
ARM GAS  C:\Users\Phuong\AppData\Local\Temp\ccdTtd1y.s 			page 199


 9323 219f 7F050000 		.4byte	.LASF153
 9324 21a3 01       		.byte	0x1
 9325 21a4 B203     		.2byte	0x3b2
 9326 21a6 3E000000 		.4byte	0x3e
 9327 21aa 00000000 		.4byte	.LFB11
 9328 21ae 78010000 		.4byte	.LFE11-.LFB11
 9329 21b2 01       		.uleb128 0x1
 9330 21b3 9C       		.byte	0x9c
 9331 21b4 93240000 		.4byte	0x2493
 9332 21b8 13       		.uleb128 0x13
 9333 21b9 7B020000 		.4byte	.LASF97
 9334 21bd 01       		.byte	0x1
 9335 21be B203     		.2byte	0x3b2
 9336 21c0 33020000 		.4byte	0x233
 9337 21c4 AF150000 		.4byte	.LLST93
 9338 21c8 13       		.uleb128 0x13
 9339 21c9 9D0A0000 		.4byte	.LASF54
 9340 21cd 01       		.byte	0x1
 9341 21ce B203     		.2byte	0x3b2
 9342 21d0 0B030000 		.4byte	0x30b
 9343 21d4 0D160000 		.4byte	.LLST94
 9344 21d8 13       		.uleb128 0x13
 9345 21d9 110E0000 		.4byte	.LASF55
 9346 21dd 01       		.byte	0x1
 9347 21de B203     		.2byte	0x3b2
 9348 21e0 9A000000 		.4byte	0x9a
 9349 21e4 39160000 		.4byte	.LLST95
 9350 21e8 13       		.uleb128 0x13
 9351 21e9 970B0000 		.4byte	.LASF56
 9352 21ed 01       		.byte	0x1
 9353 21ee B203     		.2byte	0x3b2
 9354 21f0 2C030000 		.4byte	0x32c
 9355 21f4 58160000 		.4byte	.LLST96
 9356 21f8 2E       		.uleb128 0x2e
 9357 21f9 5A110000 		.4byte	.LASF57
 9358 21fd 01       		.byte	0x1
 9359 21fe B203     		.2byte	0x3b2
 9360 2200 9A000000 		.4byte	0x9a
 9361 2204 02       		.uleb128 0x2
 9362 2205 91       		.byte	0x91
 9363 2206 00       		.sleb128 0
 9364 2207 1B       		.uleb128 0x1b
 9365 2208 F8130000 		.4byte	.LASF114
 9366 220c 01       		.byte	0x1
 9367 220d B403     		.2byte	0x3b4
 9368 220f 3E000000 		.4byte	0x3e
 9369 2213 84160000 		.4byte	.LLST97
 9370 2217 14       		.uleb128 0x14
 9371 2218 BA0C0000 		.4byte	.LASF113
 9372 221c A3240000 		.4byte	0x24a3
 9373 2220 05       		.uleb128 0x5
 9374 2221 03       		.byte	0x3
 9375 2222 10010000 		.4byte	__func__.8586
 9376 2226 15       		.uleb128 0x15
 9377 2227 0C000000 		.4byte	.LBB63
 9378 222b 1C000000 		.4byte	.LBE63-.LBB63
 9379 222f 82220000 		.4byte	0x2282
ARM GAS  C:\Users\Phuong\AppData\Local\Temp\ccdTtd1y.s 			page 200


 9380 2233 16       		.uleb128 0x16
 9381 2234 6C00     		.ascii	"l\000"
 9382 2236 01       		.byte	0x1
 9383 2237 B503     		.2byte	0x3b5
 9384 2239 32010000 		.4byte	0x132
 9385 223d B3160000 		.4byte	.LLST98
 9386 2241 17       		.uleb128 0x17
 9387 2242 10000000 		.4byte	.LVL460
 9388 2246 16320000 		.4byte	0x3216
 9389 224a 18       		.uleb128 0x18
 9390 224b 28000000 		.4byte	.LVL463
 9391 224f 02       		.uleb128 0x2
 9392 2250 75       		.byte	0x75
 9393 2251 00       		.sleb128 0
 9394 2252 19       		.uleb128 0x19
 9395 2253 01       		.uleb128 0x1
 9396 2254 50       		.byte	0x50
 9397 2255 01       		.uleb128 0x1
 9398 2256 30       		.byte	0x30
 9399 2257 19       		.uleb128 0x19
 9400 2258 01       		.uleb128 0x1
 9401 2259 51       		.byte	0x51
 9402 225a 05       		.uleb128 0x5
 9403 225b 03       		.byte	0x3
 9404 225c 00000000 		.4byte	.LC1
 9405 2260 19       		.uleb128 0x19
 9406 2261 01       		.uleb128 0x1
 9407 2262 52       		.byte	0x52
 9408 2263 05       		.uleb128 0x5
 9409 2264 03       		.byte	0x3
 9410 2265 10010000 		.4byte	.LANCHOR2+16
 9411 2269 19       		.uleb128 0x19
 9412 226a 01       		.uleb128 0x1
 9413 226b 53       		.byte	0x53
 9414 226c 03       		.uleb128 0x3
 9415 226d 0A       		.byte	0xa
 9416 226e B503     		.2byte	0x3b5
 9417 2270 19       		.uleb128 0x19
 9418 2271 02       		.uleb128 0x2
 9419 2272 7D       		.byte	0x7d
 9420 2273 00       		.sleb128 0
 9421 2274 01       		.uleb128 0x1
 9422 2275 31       		.byte	0x31
 9423 2276 19       		.uleb128 0x19
 9424 2277 02       		.uleb128 0x2
 9425 2278 7D       		.byte	0x7d
 9426 2279 04       		.sleb128 4
 9427 227a 05       		.uleb128 0x5
 9428 227b 03       		.byte	0x3
 9429 227c 7C080000 		.4byte	.LC123
 9430 2280 00       		.byte	0
 9431 2281 00       		.byte	0
 9432 2282 15       		.uleb128 0x15
 9433 2283 34000000 		.4byte	.LBB64
 9434 2287 22000000 		.4byte	.LBE64-.LBB64
 9435 228b F3220000 		.4byte	0x22f3
 9436 228f 16       		.uleb128 0x16
ARM GAS  C:\Users\Phuong\AppData\Local\Temp\ccdTtd1y.s 			page 201


 9437 2290 6C00     		.ascii	"l\000"
 9438 2292 01       		.byte	0x1
 9439 2293 BC03     		.2byte	0x3bc
 9440 2295 32010000 		.4byte	0x132
 9441 2299 FD160000 		.4byte	.LLST99
 9442 229d 17       		.uleb128 0x17
 9443 229e 38000000 		.4byte	.LVL464
 9444 22a2 16320000 		.4byte	0x3216
 9445 22a6 18       		.uleb128 0x18
 9446 22a7 56000000 		.4byte	.LVL467
 9447 22ab 02       		.uleb128 0x2
 9448 22ac 75       		.byte	0x75
 9449 22ad 00       		.sleb128 0
 9450 22ae 19       		.uleb128 0x19
 9451 22af 01       		.uleb128 0x1
 9452 22b0 50       		.byte	0x50
 9453 22b1 01       		.uleb128 0x1
 9454 22b2 30       		.byte	0x30
 9455 22b3 19       		.uleb128 0x19
 9456 22b4 01       		.uleb128 0x1
 9457 22b5 51       		.byte	0x51
 9458 22b6 05       		.uleb128 0x5
 9459 22b7 03       		.byte	0x3
 9460 22b8 00000000 		.4byte	.LC1
 9461 22bc 19       		.uleb128 0x19
 9462 22bd 01       		.uleb128 0x1
 9463 22be 52       		.byte	0x52
 9464 22bf 05       		.uleb128 0x5
 9465 22c0 03       		.byte	0x3
 9466 22c1 10010000 		.4byte	.LANCHOR2+16
 9467 22c5 19       		.uleb128 0x19
 9468 22c6 01       		.uleb128 0x1
 9469 22c7 53       		.byte	0x53
 9470 22c8 03       		.uleb128 0x3
 9471 22c9 0A       		.byte	0xa
 9472 22ca BF03     		.2byte	0x3bf
 9473 22cc 19       		.uleb128 0x19
 9474 22cd 02       		.uleb128 0x2
 9475 22ce 7D       		.byte	0x7d
 9476 22cf 00       		.sleb128 0
 9477 22d0 01       		.uleb128 0x1
 9478 22d1 31       		.byte	0x31
 9479 22d2 19       		.uleb128 0x19
 9480 22d3 02       		.uleb128 0x2
 9481 22d4 7D       		.byte	0x7d
 9482 22d5 04       		.sleb128 4
 9483 22d6 05       		.uleb128 0x5
 9484 22d7 03       		.byte	0x3
 9485 22d8 B4080000 		.4byte	.LC125
 9486 22dc 19       		.uleb128 0x19
 9487 22dd 02       		.uleb128 0x2
 9488 22de 7D       		.byte	0x7d
 9489 22df 08       		.sleb128 8
 9490 22e0 02       		.uleb128 0x2
 9491 22e1 74       		.byte	0x74
 9492 22e2 00       		.sleb128 0
 9493 22e3 19       		.uleb128 0x19
ARM GAS  C:\Users\Phuong\AppData\Local\Temp\ccdTtd1y.s 			page 202


 9494 22e4 02       		.uleb128 0x2
 9495 22e5 7D       		.byte	0x7d
 9496 22e6 0C       		.sleb128 12
 9497 22e7 02       		.uleb128 0x2
 9498 22e8 76       		.byte	0x76
 9499 22e9 00       		.sleb128 0
 9500 22ea 19       		.uleb128 0x19
 9501 22eb 02       		.uleb128 0x2
 9502 22ec 7D       		.byte	0x7d
 9503 22ed 10       		.sleb128 16
 9504 22ee 02       		.uleb128 0x2
 9505 22ef 77       		.byte	0x77
 9506 22f0 00       		.sleb128 0
 9507 22f1 00       		.byte	0
 9508 22f2 00       		.byte	0
 9509 22f3 15       		.uleb128 0x15
 9510 22f4 64000000 		.4byte	.LBB65
 9511 22f8 1C000000 		.4byte	.LBE65-.LBB65
 9512 22fc 4F230000 		.4byte	0x234f
 9513 2300 16       		.uleb128 0x16
 9514 2301 6C00     		.ascii	"l\000"
 9515 2303 01       		.byte	0x1
 9516 2304 C503     		.2byte	0x3c5
 9517 2306 32010000 		.4byte	0x132
 9518 230a 31170000 		.4byte	.LLST100
 9519 230e 17       		.uleb128 0x17
 9520 230f 68000000 		.4byte	.LVL469
 9521 2313 16320000 		.4byte	0x3216
 9522 2317 18       		.uleb128 0x18
 9523 2318 80000000 		.4byte	.LVL472
 9524 231c 02       		.uleb128 0x2
 9525 231d 74       		.byte	0x74
 9526 231e 00       		.sleb128 0
 9527 231f 19       		.uleb128 0x19
 9528 2320 01       		.uleb128 0x1
 9529 2321 50       		.byte	0x50
 9530 2322 01       		.uleb128 0x1
 9531 2323 30       		.byte	0x30
 9532 2324 19       		.uleb128 0x19
 9533 2325 01       		.uleb128 0x1
 9534 2326 51       		.byte	0x51
 9535 2327 05       		.uleb128 0x5
 9536 2328 03       		.byte	0x3
 9537 2329 00000000 		.4byte	.LC1
 9538 232d 19       		.uleb128 0x19
 9539 232e 01       		.uleb128 0x1
 9540 232f 52       		.byte	0x52
 9541 2330 05       		.uleb128 0x5
 9542 2331 03       		.byte	0x3
 9543 2332 10010000 		.4byte	.LANCHOR2+16
 9544 2336 19       		.uleb128 0x19
 9545 2337 01       		.uleb128 0x1
 9546 2338 53       		.byte	0x53
 9547 2339 03       		.uleb128 0x3
 9548 233a 0A       		.byte	0xa
 9549 233b C503     		.2byte	0x3c5
 9550 233d 19       		.uleb128 0x19
ARM GAS  C:\Users\Phuong\AppData\Local\Temp\ccdTtd1y.s 			page 203


 9551 233e 02       		.uleb128 0x2
 9552 233f 7D       		.byte	0x7d
 9553 2340 00       		.sleb128 0
 9554 2341 01       		.uleb128 0x1
 9555 2342 31       		.byte	0x31
 9556 2343 19       		.uleb128 0x19
 9557 2344 02       		.uleb128 0x2
 9558 2345 7D       		.byte	0x7d
 9559 2346 04       		.sleb128 4
 9560 2347 05       		.uleb128 0x5
 9561 2348 03       		.byte	0x3
 9562 2349 20090000 		.4byte	.LC127
 9563 234d 00       		.byte	0
 9564 234e 00       		.byte	0
 9565 234f 15       		.uleb128 0x15
 9566 2350 A4000000 		.4byte	.LBB66
 9567 2354 1C000000 		.4byte	.LBE66-.LBB66
 9568 2358 AB230000 		.4byte	0x23ab
 9569 235c 16       		.uleb128 0x16
 9570 235d 6C00     		.ascii	"l\000"
 9571 235f 01       		.byte	0x1
 9572 2360 D503     		.2byte	0x3d5
 9573 2362 32010000 		.4byte	0x132
 9574 2366 65170000 		.4byte	.LLST101
 9575 236a 17       		.uleb128 0x17
 9576 236b A8000000 		.4byte	.LVL475
 9577 236f 16320000 		.4byte	0x3216
 9578 2373 18       		.uleb128 0x18
 9579 2374 C0000000 		.4byte	.LVL478
 9580 2378 02       		.uleb128 0x2
 9581 2379 75       		.byte	0x75
 9582 237a 00       		.sleb128 0
 9583 237b 19       		.uleb128 0x19
 9584 237c 01       		.uleb128 0x1
 9585 237d 50       		.byte	0x50
 9586 237e 01       		.uleb128 0x1
 9587 237f 30       		.byte	0x30
 9588 2380 19       		.uleb128 0x19
 9589 2381 01       		.uleb128 0x1
 9590 2382 51       		.byte	0x51
 9591 2383 05       		.uleb128 0x5
 9592 2384 03       		.byte	0x3
 9593 2385 00000000 		.4byte	.LC1
 9594 2389 19       		.uleb128 0x19
 9595 238a 01       		.uleb128 0x1
 9596 238b 52       		.byte	0x52
 9597 238c 05       		.uleb128 0x5
 9598 238d 03       		.byte	0x3
 9599 238e 10010000 		.4byte	.LANCHOR2+16
 9600 2392 19       		.uleb128 0x19
 9601 2393 01       		.uleb128 0x1
 9602 2394 53       		.byte	0x53
 9603 2395 03       		.uleb128 0x3
 9604 2396 0A       		.byte	0xa
 9605 2397 D503     		.2byte	0x3d5
 9606 2399 19       		.uleb128 0x19
 9607 239a 02       		.uleb128 0x2
ARM GAS  C:\Users\Phuong\AppData\Local\Temp\ccdTtd1y.s 			page 204


 9608 239b 7D       		.byte	0x7d
 9609 239c 00       		.sleb128 0
 9610 239d 01       		.uleb128 0x1
 9611 239e 31       		.byte	0x31
 9612 239f 19       		.uleb128 0x19
 9613 23a0 02       		.uleb128 0x2
 9614 23a1 7D       		.byte	0x7d
 9615 23a2 04       		.sleb128 4
 9616 23a3 05       		.uleb128 0x5
 9617 23a4 03       		.byte	0x3
 9618 23a5 58090000 		.4byte	.LC130
 9619 23a9 00       		.byte	0
 9620 23aa 00       		.byte	0
 9621 23ab 15       		.uleb128 0x15
 9622 23ac D4000000 		.4byte	.LBB67
 9623 23b0 1C000000 		.4byte	.LBE67-.LBB67
 9624 23b4 07240000 		.4byte	0x2407
 9625 23b8 16       		.uleb128 0x16
 9626 23b9 6C00     		.ascii	"l\000"
 9627 23bb 01       		.byte	0x1
 9628 23bc DF03     		.2byte	0x3df
 9629 23be 32010000 		.4byte	0x132
 9630 23c2 83170000 		.4byte	.LLST102
 9631 23c6 17       		.uleb128 0x17
 9632 23c7 D8000000 		.4byte	.LVL482
 9633 23cb 16320000 		.4byte	0x3216
 9634 23cf 18       		.uleb128 0x18
 9635 23d0 F0000000 		.4byte	.LVL485
 9636 23d4 02       		.uleb128 0x2
 9637 23d5 75       		.byte	0x75
 9638 23d6 00       		.sleb128 0
 9639 23d7 19       		.uleb128 0x19
 9640 23d8 01       		.uleb128 0x1
 9641 23d9 50       		.byte	0x50
 9642 23da 01       		.uleb128 0x1
 9643 23db 30       		.byte	0x30
 9644 23dc 19       		.uleb128 0x19
 9645 23dd 01       		.uleb128 0x1
 9646 23de 51       		.byte	0x51
 9647 23df 05       		.uleb128 0x5
 9648 23e0 03       		.byte	0x3
 9649 23e1 00000000 		.4byte	.LC1
 9650 23e5 19       		.uleb128 0x19
 9651 23e6 01       		.uleb128 0x1
 9652 23e7 52       		.byte	0x52
 9653 23e8 05       		.uleb128 0x5
 9654 23e9 03       		.byte	0x3
 9655 23ea 10010000 		.4byte	.LANCHOR2+16
 9656 23ee 19       		.uleb128 0x19
 9657 23ef 01       		.uleb128 0x1
 9658 23f0 53       		.byte	0x53
 9659 23f1 03       		.uleb128 0x3
 9660 23f2 0A       		.byte	0xa
 9661 23f3 DF03     		.2byte	0x3df
 9662 23f5 19       		.uleb128 0x19
 9663 23f6 02       		.uleb128 0x2
 9664 23f7 7D       		.byte	0x7d
ARM GAS  C:\Users\Phuong\AppData\Local\Temp\ccdTtd1y.s 			page 205


 9665 23f8 00       		.sleb128 0
 9666 23f9 01       		.uleb128 0x1
 9667 23fa 31       		.byte	0x31
 9668 23fb 19       		.uleb128 0x19
 9669 23fc 02       		.uleb128 0x2
 9670 23fd 7D       		.byte	0x7d
 9671 23fe 04       		.sleb128 4
 9672 23ff 05       		.uleb128 0x5
 9673 2400 03       		.byte	0x3
 9674 2401 88090000 		.4byte	.LC132
 9675 2405 00       		.byte	0
 9676 2406 00       		.byte	0
 9677 2407 15       		.uleb128 0x15
 9678 2408 00010000 		.4byte	.LBB68
 9679 240c 1C000000 		.4byte	.LBE68-.LBB68
 9680 2410 63240000 		.4byte	0x2463
 9681 2414 16       		.uleb128 0x16
 9682 2415 6C00     		.ascii	"l\000"
 9683 2417 01       		.byte	0x1
 9684 2418 E603     		.2byte	0x3e6
 9685 241a 32010000 		.4byte	0x132
 9686 241e A1170000 		.4byte	.LLST103
 9687 2422 17       		.uleb128 0x17
 9688 2423 04010000 		.4byte	.LVL488
 9689 2427 16320000 		.4byte	0x3216
 9690 242b 18       		.uleb128 0x18
 9691 242c 1C010000 		.4byte	.LVL491
 9692 2430 02       		.uleb128 0x2
 9693 2431 74       		.byte	0x74
 9694 2432 00       		.sleb128 0
 9695 2433 19       		.uleb128 0x19
 9696 2434 01       		.uleb128 0x1
 9697 2435 50       		.byte	0x50
 9698 2436 01       		.uleb128 0x1
 9699 2437 30       		.byte	0x30
 9700 2438 19       		.uleb128 0x19
 9701 2439 01       		.uleb128 0x1
 9702 243a 51       		.byte	0x51
 9703 243b 05       		.uleb128 0x5
 9704 243c 03       		.byte	0x3
 9705 243d 00000000 		.4byte	.LC1
 9706 2441 19       		.uleb128 0x19
 9707 2442 01       		.uleb128 0x1
 9708 2443 52       		.byte	0x52
 9709 2444 05       		.uleb128 0x5
 9710 2445 03       		.byte	0x3
 9711 2446 10010000 		.4byte	.LANCHOR2+16
 9712 244a 19       		.uleb128 0x19
 9713 244b 01       		.uleb128 0x1
 9714 244c 53       		.byte	0x53
 9715 244d 03       		.uleb128 0x3
 9716 244e 0A       		.byte	0xa
 9717 244f E603     		.2byte	0x3e6
 9718 2451 19       		.uleb128 0x19
 9719 2452 02       		.uleb128 0x2
 9720 2453 7D       		.byte	0x7d
 9721 2454 00       		.sleb128 0
ARM GAS  C:\Users\Phuong\AppData\Local\Temp\ccdTtd1y.s 			page 206


 9722 2455 01       		.uleb128 0x1
 9723 2456 31       		.byte	0x31
 9724 2457 19       		.uleb128 0x19
 9725 2458 02       		.uleb128 0x2
 9726 2459 7D       		.byte	0x7d
 9727 245a 04       		.sleb128 4
 9728 245b 05       		.uleb128 0x5
 9729 245c 03       		.byte	0x3
 9730 245d B8090000 		.4byte	.LC134
 9731 2461 00       		.byte	0
 9732 2462 00       		.byte	0
 9733 2463 22       		.uleb128 0x22
 9734 2464 A0000000 		.4byte	.LVL474
 9735 2468 B6330000 		.4byte	0x33b6
 9736 246c 80240000 		.4byte	0x2480
 9737 2470 19       		.uleb128 0x19
 9738 2471 01       		.uleb128 0x1
 9739 2472 51       		.byte	0x51
 9740 2473 05       		.uleb128 0x5
 9741 2474 03       		.byte	0x3
 9742 2475 00000000 		.4byte	on_message_received
 9743 2479 19       		.uleb128 0x19
 9744 247a 01       		.uleb128 0x1
 9745 247b 52       		.byte	0x52
 9746 247c 02       		.uleb128 0x2
 9747 247d 74       		.byte	0x74
 9748 247e 00       		.sleb128 0
 9749 247f 00       		.byte	0
 9750 2480 17       		.uleb128 0x17
 9751 2481 D0000000 		.4byte	.LVL481
 9752 2485 C1330000 		.4byte	0x33c1
 9753 2489 17       		.uleb128 0x17
 9754 248a FC000000 		.4byte	.LVL486
 9755 248e CC330000 		.4byte	0x33cc
 9756 2492 00       		.byte	0
 9757 2493 1E       		.uleb128 0x1e
 9758 2494 AF000000 		.4byte	0xaf
 9759 2498 A3240000 		.4byte	0x24a3
 9760 249c 1F       		.uleb128 0x1f
 9761 249d 93000000 		.4byte	0x93
 9762 24a1 1A       		.byte	0x1a
 9763 24a2 00       		.byte	0
 9764 24a3 07       		.uleb128 0x7
 9765 24a4 93240000 		.4byte	0x2493
 9766 24a8 2C       		.uleb128 0x2c
 9767 24a9 7B110000 		.4byte	.LASF154
 9768 24ad 01       		.byte	0x1
 9769 24ae F003     		.2byte	0x3f0
 9770 24b0 3E000000 		.4byte	0x3e
 9771 24b4 00000000 		.4byte	.LFB12
 9772 24b8 98010000 		.4byte	.LFE12-.LFB12
 9773 24bc 01       		.uleb128 0x1
 9774 24bd 9C       		.byte	0x9c
 9775 24be FD270000 		.4byte	0x27fd
 9776 24c2 13       		.uleb128 0x13
 9777 24c3 7B020000 		.4byte	.LASF97
 9778 24c7 01       		.byte	0x1
ARM GAS  C:\Users\Phuong\AppData\Local\Temp\ccdTtd1y.s 			page 207


 9779 24c8 F003     		.2byte	0x3f0
 9780 24ca 33020000 		.4byte	0x233
 9781 24ce CA170000 		.4byte	.LLST104
 9782 24d2 1B       		.uleb128 0x1b
 9783 24d3 F8130000 		.4byte	.LASF114
 9784 24d7 01       		.byte	0x1
 9785 24d8 F203     		.2byte	0x3f2
 9786 24da 3E000000 		.4byte	0x3e
 9787 24de 70180000 		.4byte	.LLST105
 9788 24e2 14       		.uleb128 0x14
 9789 24e3 BA0C0000 		.4byte	.LASF113
 9790 24e7 0D280000 		.4byte	0x280d
 9791 24eb 05       		.uleb128 0x5
 9792 24ec 03       		.byte	0x3
 9793 24ed 2C010000 		.4byte	__func__.8609
 9794 24f1 15       		.uleb128 0x15
 9795 24f2 08000000 		.4byte	.LBB69
 9796 24f6 1E000000 		.4byte	.LBE69-.LBB69
 9797 24fa 4D250000 		.4byte	0x254d
 9798 24fe 16       		.uleb128 0x16
 9799 24ff 6C00     		.ascii	"l\000"
 9800 2501 01       		.byte	0x1
 9801 2502 F703     		.2byte	0x3f7
 9802 2504 32010000 		.4byte	0x132
 9803 2508 8F180000 		.4byte	.LLST106
 9804 250c 17       		.uleb128 0x17
 9805 250d 0C000000 		.4byte	.LVL501
 9806 2511 16320000 		.4byte	0x3216
 9807 2515 18       		.uleb128 0x18
 9808 2516 26000000 		.4byte	.LVL504
 9809 251a 02       		.uleb128 0x2
 9810 251b 74       		.byte	0x74
 9811 251c 00       		.sleb128 0
 9812 251d 19       		.uleb128 0x19
 9813 251e 01       		.uleb128 0x1
 9814 251f 50       		.byte	0x50
 9815 2520 01       		.uleb128 0x1
 9816 2521 30       		.byte	0x30
 9817 2522 19       		.uleb128 0x19
 9818 2523 01       		.uleb128 0x1
 9819 2524 51       		.byte	0x51
 9820 2525 05       		.uleb128 0x5
 9821 2526 03       		.byte	0x3
 9822 2527 00000000 		.4byte	.LC1
 9823 252b 19       		.uleb128 0x19
 9824 252c 01       		.uleb128 0x1
 9825 252d 52       		.byte	0x52
 9826 252e 05       		.uleb128 0x5
 9827 252f 03       		.byte	0x3
 9828 2530 2C010000 		.4byte	.LANCHOR2+44
 9829 2534 19       		.uleb128 0x19
 9830 2535 01       		.uleb128 0x1
 9831 2536 53       		.byte	0x53
 9832 2537 03       		.uleb128 0x3
 9833 2538 0A       		.byte	0xa
 9834 2539 F703     		.2byte	0x3f7
 9835 253b 19       		.uleb128 0x19
ARM GAS  C:\Users\Phuong\AppData\Local\Temp\ccdTtd1y.s 			page 208


 9836 253c 02       		.uleb128 0x2
 9837 253d 7D       		.byte	0x7d
 9838 253e 00       		.sleb128 0
 9839 253f 01       		.uleb128 0x1
 9840 2540 31       		.byte	0x31
 9841 2541 19       		.uleb128 0x19
 9842 2542 02       		.uleb128 0x2
 9843 2543 7D       		.byte	0x7d
 9844 2544 04       		.sleb128 4
 9845 2545 05       		.uleb128 0x5
 9846 2546 03       		.byte	0x3
 9847 2547 EC090000 		.4byte	.LC138
 9848 254b 00       		.byte	0
 9849 254c 00       		.byte	0
 9850 254d 15       		.uleb128 0x15
 9851 254e 34000000 		.4byte	.LBB70
 9852 2552 1E000000 		.4byte	.LBE70-.LBB70
 9853 2556 A9250000 		.4byte	0x25a9
 9854 255a 16       		.uleb128 0x16
 9855 255b 6C00     		.ascii	"l\000"
 9856 255d 01       		.byte	0x1
 9857 255e FD03     		.2byte	0x3fd
 9858 2560 32010000 		.4byte	0x132
 9859 2564 C3180000 		.4byte	.LLST107
 9860 2568 17       		.uleb128 0x17
 9861 2569 38000000 		.4byte	.LVL506
 9862 256d 16320000 		.4byte	0x3216
 9863 2571 18       		.uleb128 0x18
 9864 2572 52000000 		.4byte	.LVL509
 9865 2576 02       		.uleb128 0x2
 9866 2577 74       		.byte	0x74
 9867 2578 00       		.sleb128 0
 9868 2579 19       		.uleb128 0x19
 9869 257a 01       		.uleb128 0x1
 9870 257b 50       		.byte	0x50
 9871 257c 01       		.uleb128 0x1
 9872 257d 30       		.byte	0x30
 9873 257e 19       		.uleb128 0x19
 9874 257f 01       		.uleb128 0x1
 9875 2580 51       		.byte	0x51
 9876 2581 05       		.uleb128 0x5
 9877 2582 03       		.byte	0x3
 9878 2583 00000000 		.4byte	.LC1
 9879 2587 19       		.uleb128 0x19
 9880 2588 01       		.uleb128 0x1
 9881 2589 52       		.byte	0x52
 9882 258a 05       		.uleb128 0x5
 9883 258b 03       		.byte	0x3
 9884 258c 2C010000 		.4byte	.LANCHOR2+44
 9885 2590 19       		.uleb128 0x19
 9886 2591 01       		.uleb128 0x1
 9887 2592 53       		.byte	0x53
 9888 2593 03       		.uleb128 0x3
 9889 2594 0A       		.byte	0xa
 9890 2595 FD03     		.2byte	0x3fd
 9891 2597 19       		.uleb128 0x19
 9892 2598 02       		.uleb128 0x2
ARM GAS  C:\Users\Phuong\AppData\Local\Temp\ccdTtd1y.s 			page 209


 9893 2599 7D       		.byte	0x7d
 9894 259a 00       		.sleb128 0
 9895 259b 01       		.uleb128 0x1
 9896 259c 31       		.byte	0x31
 9897 259d 19       		.uleb128 0x19
 9898 259e 02       		.uleb128 0x2
 9899 259f 7D       		.byte	0x7d
 9900 25a0 04       		.sleb128 4
 9901 25a1 05       		.uleb128 0x5
 9902 25a2 03       		.byte	0x3
 9903 25a3 040A0000 		.4byte	.LC140
 9904 25a7 00       		.byte	0
 9905 25a8 00       		.byte	0
 9906 25a9 2F       		.uleb128 0x2f
 9907 25aa 40000000 		.4byte	.Ldebug_ranges0+0x40
 9908 25ae 1B       		.uleb128 0x1b
 9909 25af 8E060000 		.4byte	.LASF109
 9910 25b3 01       		.byte	0x1
 9911 25b4 0204     		.2byte	0x402
 9912 25b6 C8040000 		.4byte	0x4c8
 9913 25ba F7180000 		.4byte	.LLST108
 9914 25be 15       		.uleb128 0x15
 9915 25bf 70000000 		.4byte	.LBB72
 9916 25c3 1C000000 		.4byte	.LBE72-.LBB72
 9917 25c7 1A260000 		.4byte	0x261a
 9918 25cb 16       		.uleb128 0x16
 9919 25cc 6C00     		.ascii	"l\000"
 9920 25ce 01       		.byte	0x1
 9921 25cf 1204     		.2byte	0x412
 9922 25d1 32010000 		.4byte	0x132
 9923 25d5 0A190000 		.4byte	.LLST109
 9924 25d9 17       		.uleb128 0x17
 9925 25da 74000000 		.4byte	.LVL515
 9926 25de 16320000 		.4byte	0x3216
 9927 25e2 18       		.uleb128 0x18
 9928 25e3 8C000000 		.4byte	.LVL518
 9929 25e7 02       		.uleb128 0x2
 9930 25e8 74       		.byte	0x74
 9931 25e9 00       		.sleb128 0
 9932 25ea 19       		.uleb128 0x19
 9933 25eb 01       		.uleb128 0x1
 9934 25ec 50       		.byte	0x50
 9935 25ed 01       		.uleb128 0x1
 9936 25ee 30       		.byte	0x30
 9937 25ef 19       		.uleb128 0x19
 9938 25f0 01       		.uleb128 0x1
 9939 25f1 51       		.byte	0x51
 9940 25f2 05       		.uleb128 0x5
 9941 25f3 03       		.byte	0x3
 9942 25f4 00000000 		.4byte	.LC1
 9943 25f8 19       		.uleb128 0x19
 9944 25f9 01       		.uleb128 0x1
 9945 25fa 52       		.byte	0x52
 9946 25fb 05       		.uleb128 0x5
 9947 25fc 03       		.byte	0x3
 9948 25fd 2C010000 		.4byte	.LANCHOR2+44
 9949 2601 19       		.uleb128 0x19
ARM GAS  C:\Users\Phuong\AppData\Local\Temp\ccdTtd1y.s 			page 210


 9950 2602 01       		.uleb128 0x1
 9951 2603 53       		.byte	0x53
 9952 2604 03       		.uleb128 0x3
 9953 2605 0A       		.byte	0xa
 9954 2606 1204     		.2byte	0x412
 9955 2608 19       		.uleb128 0x19
 9956 2609 02       		.uleb128 0x2
 9957 260a 7D       		.byte	0x7d
 9958 260b 00       		.sleb128 0
 9959 260c 01       		.uleb128 0x1
 9960 260d 31       		.byte	0x31
 9961 260e 19       		.uleb128 0x19
 9962 260f 02       		.uleb128 0x2
 9963 2610 7D       		.byte	0x7d
 9964 2611 04       		.sleb128 4
 9965 2612 05       		.uleb128 0x5
 9966 2613 03       		.byte	0x3
 9967 2614 380A0000 		.4byte	.LC142
 9968 2618 00       		.byte	0
 9969 2619 00       		.byte	0
 9970 261a 15       		.uleb128 0x15
 9971 261b 9A000000 		.4byte	.LBB73
 9972 261f 1C000000 		.4byte	.LBE73-.LBB73
 9973 2623 76260000 		.4byte	0x2676
 9974 2627 16       		.uleb128 0x16
 9975 2628 6C00     		.ascii	"l\000"
 9976 262a 01       		.byte	0x1
 9977 262b 1904     		.2byte	0x419
 9978 262d 32010000 		.4byte	0x132
 9979 2631 3E190000 		.4byte	.LLST110
 9980 2635 17       		.uleb128 0x17
 9981 2636 9E000000 		.4byte	.LVL521
 9982 263a 16320000 		.4byte	0x3216
 9983 263e 18       		.uleb128 0x18
 9984 263f B6000000 		.4byte	.LVL524
 9985 2643 02       		.uleb128 0x2
 9986 2644 74       		.byte	0x74
 9987 2645 00       		.sleb128 0
 9988 2646 19       		.uleb128 0x19
 9989 2647 01       		.uleb128 0x1
 9990 2648 50       		.byte	0x50
 9991 2649 01       		.uleb128 0x1
 9992 264a 30       		.byte	0x30
 9993 264b 19       		.uleb128 0x19
 9994 264c 01       		.uleb128 0x1
 9995 264d 51       		.byte	0x51
 9996 264e 05       		.uleb128 0x5
 9997 264f 03       		.byte	0x3
 9998 2650 00000000 		.4byte	.LC1
 9999 2654 19       		.uleb128 0x19
 10000 2655 01       		.uleb128 0x1
 10001 2656 52       		.byte	0x52
 10002 2657 05       		.uleb128 0x5
 10003 2658 03       		.byte	0x3
 10004 2659 2C010000 		.4byte	.LANCHOR2+44
 10005 265d 19       		.uleb128 0x19
 10006 265e 01       		.uleb128 0x1
ARM GAS  C:\Users\Phuong\AppData\Local\Temp\ccdTtd1y.s 			page 211


 10007 265f 53       		.byte	0x53
 10008 2660 03       		.uleb128 0x3
 10009 2661 0A       		.byte	0xa
 10010 2662 1904     		.2byte	0x419
 10011 2664 19       		.uleb128 0x19
 10012 2665 02       		.uleb128 0x2
 10013 2666 7D       		.byte	0x7d
 10014 2667 00       		.sleb128 0
 10015 2668 01       		.uleb128 0x1
 10016 2669 31       		.byte	0x31
 10017 266a 19       		.uleb128 0x19
 10018 266b 02       		.uleb128 0x2
 10019 266c 7D       		.byte	0x7d
 10020 266d 04       		.sleb128 4
 10021 266e 05       		.uleb128 0x5
 10022 266f 03       		.byte	0x3
 10023 2670 540A0000 		.4byte	.LC144
 10024 2674 00       		.byte	0
 10025 2675 00       		.byte	0
 10026 2676 15       		.uleb128 0x15
 10027 2677 BA000000 		.4byte	.LBB74
 10028 267b 84000000 		.4byte	.LBE74-.LBB74
 10029 267f DA270000 		.4byte	0x27da
 10030 2683 1B       		.uleb128 0x1b
 10031 2684 5B050000 		.4byte	.LASF135
 10032 2688 01       		.byte	0x1
 10033 2689 1E04     		.2byte	0x41e
 10034 268b E7000000 		.4byte	0xe7
 10035 268f 67190000 		.4byte	.LLST111
 10036 2693 15       		.uleb128 0x15
 10037 2694 C4000000 		.4byte	.LBB75
 10038 2698 6C000000 		.4byte	.LBE75-.LBB75
 10039 269c D0270000 		.4byte	0x27d0
 10040 26a0 1B       		.uleb128 0x1b
 10041 26a1 FF0A0000 		.4byte	.LASF138
 10042 26a5 01       		.byte	0x1
 10043 26a6 2104     		.2byte	0x421
 10044 26a8 7D0A0000 		.4byte	0xa7d
 10045 26ac 9B190000 		.4byte	.LLST112
 10046 26b0 15       		.uleb128 0x15
 10047 26b1 CE000000 		.4byte	.LBB76
 10048 26b5 1E000000 		.4byte	.LBE76-.LBB76
 10049 26b9 0C270000 		.4byte	0x270c
 10050 26bd 16       		.uleb128 0x16
 10051 26be 6C00     		.ascii	"l\000"
 10052 26c0 01       		.byte	0x1
 10053 26c1 2404     		.2byte	0x424
 10054 26c3 32010000 		.4byte	0x132
 10055 26c7 CF190000 		.4byte	.LLST113
 10056 26cb 17       		.uleb128 0x17
 10057 26cc D2000000 		.4byte	.LVL531
 10058 26d0 16320000 		.4byte	0x3216
 10059 26d4 18       		.uleb128 0x18
 10060 26d5 EA000000 		.4byte	.LVL534
 10061 26d9 02       		.uleb128 0x2
 10062 26da 75       		.byte	0x75
 10063 26db 00       		.sleb128 0
ARM GAS  C:\Users\Phuong\AppData\Local\Temp\ccdTtd1y.s 			page 212


 10064 26dc 19       		.uleb128 0x19
 10065 26dd 01       		.uleb128 0x1
 10066 26de 50       		.byte	0x50
 10067 26df 01       		.uleb128 0x1
 10068 26e0 30       		.byte	0x30
 10069 26e1 19       		.uleb128 0x19
 10070 26e2 01       		.uleb128 0x1
 10071 26e3 51       		.byte	0x51
 10072 26e4 05       		.uleb128 0x5
 10073 26e5 03       		.byte	0x3
 10074 26e6 00000000 		.4byte	.LC1
 10075 26ea 19       		.uleb128 0x19
 10076 26eb 01       		.uleb128 0x1
 10077 26ec 52       		.byte	0x52
 10078 26ed 05       		.uleb128 0x5
 10079 26ee 03       		.byte	0x3
 10080 26ef 2C010000 		.4byte	.LANCHOR2+44
 10081 26f3 19       		.uleb128 0x19
 10082 26f4 01       		.uleb128 0x1
 10083 26f5 53       		.byte	0x53
 10084 26f6 03       		.uleb128 0x3
 10085 26f7 0A       		.byte	0xa
 10086 26f8 2404     		.2byte	0x424
 10087 26fa 19       		.uleb128 0x19
 10088 26fb 02       		.uleb128 0x2
 10089 26fc 7D       		.byte	0x7d
 10090 26fd 00       		.sleb128 0
 10091 26fe 01       		.uleb128 0x1
 10092 26ff 31       		.byte	0x31
 10093 2700 19       		.uleb128 0x19
 10094 2701 02       		.uleb128 0x2
 10095 2702 7D       		.byte	0x7d
 10096 2703 04       		.sleb128 4
 10097 2704 05       		.uleb128 0x5
 10098 2705 03       		.byte	0x3
 10099 2706 740A0000 		.4byte	.LC146
 10100 270a 00       		.byte	0
 10101 270b 00       		.byte	0
 10102 270c 15       		.uleb128 0x15
 10103 270d 0C010000 		.4byte	.LBB77
 10104 2711 1C000000 		.4byte	.LBE77-.LBB77
 10105 2715 68270000 		.4byte	0x2768
 10106 2719 16       		.uleb128 0x16
 10107 271a 6C00     		.ascii	"l\000"
 10108 271c 01       		.byte	0x1
 10109 271d 2F04     		.2byte	0x42f
 10110 271f 32010000 		.4byte	0x132
 10111 2723 ED190000 		.4byte	.LLST114
 10112 2727 17       		.uleb128 0x17
 10113 2728 10010000 		.4byte	.LVL540
 10114 272c 16320000 		.4byte	0x3216
 10115 2730 18       		.uleb128 0x18
 10116 2731 28010000 		.4byte	.LVL543
 10117 2735 02       		.uleb128 0x2
 10118 2736 75       		.byte	0x75
 10119 2737 00       		.sleb128 0
 10120 2738 19       		.uleb128 0x19
ARM GAS  C:\Users\Phuong\AppData\Local\Temp\ccdTtd1y.s 			page 213


 10121 2739 01       		.uleb128 0x1
 10122 273a 50       		.byte	0x50
 10123 273b 01       		.uleb128 0x1
 10124 273c 30       		.byte	0x30
 10125 273d 19       		.uleb128 0x19
 10126 273e 01       		.uleb128 0x1
 10127 273f 51       		.byte	0x51
 10128 2740 05       		.uleb128 0x5
 10129 2741 03       		.byte	0x3
 10130 2742 00000000 		.4byte	.LC1
 10131 2746 19       		.uleb128 0x19
 10132 2747 01       		.uleb128 0x1
 10133 2748 52       		.byte	0x52
 10134 2749 05       		.uleb128 0x5
 10135 274a 03       		.byte	0x3
 10136 274b 2C010000 		.4byte	.LANCHOR2+44
 10137 274f 19       		.uleb128 0x19
 10138 2750 01       		.uleb128 0x1
 10139 2751 53       		.byte	0x53
 10140 2752 03       		.uleb128 0x3
 10141 2753 0A       		.byte	0xa
 10142 2754 2F04     		.2byte	0x42f
 10143 2756 19       		.uleb128 0x19
 10144 2757 02       		.uleb128 0x2
 10145 2758 7D       		.byte	0x7d
 10146 2759 00       		.sleb128 0
 10147 275a 01       		.uleb128 0x1
 10148 275b 31       		.byte	0x31
 10149 275c 19       		.uleb128 0x19
 10150 275d 02       		.uleb128 0x2
 10151 275e 7D       		.byte	0x7d
 10152 275f 04       		.sleb128 4
 10153 2760 05       		.uleb128 0x5
 10154 2761 03       		.byte	0x3
 10155 2762 940A0000 		.4byte	.LC148
 10156 2766 00       		.byte	0
 10157 2767 00       		.byte	0
 10158 2768 22       		.uleb128 0x22
 10159 2769 CA000000 		.4byte	.LVL529
 10160 276d 37320000 		.4byte	0x3237
 10161 2771 7C270000 		.4byte	0x277c
 10162 2775 19       		.uleb128 0x19
 10163 2776 01       		.uleb128 0x1
 10164 2777 50       		.byte	0x50
 10165 2778 02       		.uleb128 0x2
 10166 2779 76       		.byte	0x76
 10167 277a 00       		.sleb128 0
 10168 277b 00       		.byte	0
 10169 277c 23       		.uleb128 0x23
 10170 277d FA000000 		.4byte	.LVL537
 10171 2781 02       		.uleb128 0x2
 10172 2782 77       		.byte	0x77
 10173 2783 00       		.sleb128 0
 10174 2784 9E270000 		.4byte	0x279e
 10175 2788 19       		.uleb128 0x19
 10176 2789 01       		.uleb128 0x1
 10177 278a 51       		.byte	0x51
ARM GAS  C:\Users\Phuong\AppData\Local\Temp\ccdTtd1y.s 			page 214


 10178 278b 01       		.uleb128 0x1
 10179 278c 33       		.byte	0x33
 10180 278d 19       		.uleb128 0x19
 10181 278e 01       		.uleb128 0x1
 10182 278f 52       		.byte	0x52
 10183 2790 01       		.uleb128 0x1
 10184 2791 30       		.byte	0x30
 10185 2792 19       		.uleb128 0x19
 10186 2793 01       		.uleb128 0x1
 10187 2794 53       		.byte	0x53
 10188 2795 01       		.uleb128 0x1
 10189 2796 30       		.byte	0x30
 10190 2797 19       		.uleb128 0x19
 10191 2798 02       		.uleb128 0x2
 10192 2799 7D       		.byte	0x7d
 10193 279a 00       		.sleb128 0
 10194 279b 01       		.uleb128 0x1
 10195 279c 30       		.byte	0x30
 10196 279d 00       		.byte	0
 10197 279e 22       		.uleb128 0x22
 10198 279f 00010000 		.4byte	.LVL538
 10199 27a3 2C320000 		.4byte	0x322c
 10200 27a7 B2270000 		.4byte	0x27b2
 10201 27ab 19       		.uleb128 0x19
 10202 27ac 01       		.uleb128 0x1
 10203 27ad 50       		.byte	0x50
 10204 27ae 02       		.uleb128 0x2
 10205 27af 75       		.byte	0x75
 10206 27b0 00       		.sleb128 0
 10207 27b1 00       		.byte	0
 10208 27b2 22       		.uleb128 0x22
 10209 27b3 08010000 		.4byte	.LVL539
 10210 27b7 42320000 		.4byte	0x3242
 10211 27bb C6270000 		.4byte	0x27c6
 10212 27bf 19       		.uleb128 0x19
 10213 27c0 01       		.uleb128 0x1
 10214 27c1 51       		.byte	0x51
 10215 27c2 02       		.uleb128 0x2
 10216 27c3 76       		.byte	0x76
 10217 27c4 00       		.sleb128 0
 10218 27c5 00       		.byte	0
 10219 27c6 17       		.uleb128 0x17
 10220 27c7 2E010000 		.4byte	.LVL544
 10221 27cb 79320000 		.4byte	0x3279
 10222 27cf 00       		.byte	0
 10223 27d0 17       		.uleb128 0x17
 10224 27d1 C0000000 		.4byte	.LVL526
 10225 27d5 79320000 		.4byte	0x3279
 10226 27d9 00       		.byte	0
 10227 27da 1C       		.uleb128 0x1c
 10228 27db 66000000 		.4byte	.LVL513
 10229 27df E9270000 		.4byte	0x27e9
 10230 27e3 19       		.uleb128 0x19
 10231 27e4 01       		.uleb128 0x1
 10232 27e5 51       		.byte	0x51
 10233 27e6 01       		.uleb128 0x1
 10234 27e7 32       		.byte	0x32
ARM GAS  C:\Users\Phuong\AppData\Local\Temp\ccdTtd1y.s 			page 215


 10235 27e8 00       		.byte	0
 10236 27e9 17       		.uleb128 0x17
 10237 27ea 6C000000 		.4byte	.LVL514
 10238 27ee D7330000 		.4byte	0x33d7
 10239 27f2 17       		.uleb128 0x17
 10240 27f3 96000000 		.4byte	.LVL520
 10241 27f7 CC330000 		.4byte	0x33cc
 10242 27fb 00       		.byte	0
 10243 27fc 00       		.byte	0
 10244 27fd 1E       		.uleb128 0x1e
 10245 27fe AF000000 		.4byte	0xaf
 10246 2802 0D280000 		.4byte	0x280d
 10247 2806 1F       		.uleb128 0x1f
 10248 2807 93000000 		.4byte	0x93
 10249 280b 15       		.byte	0x15
 10250 280c 00       		.byte	0
 10251 280d 07       		.uleb128 0x7
 10252 280e FD270000 		.4byte	0x27fd
 10253 2812 30       		.uleb128 0x30
 10254 2813 CA020000 		.4byte	.LASF162
 10255 2817 01       		.byte	0x1
 10256 2818 9403     		.2byte	0x394
 10257 281a 00000000 		.4byte	.LFB10
 10258 281e 78000000 		.4byte	.LFE10-.LFB10
 10259 2822 01       		.uleb128 0x1
 10260 2823 9C       		.byte	0x9c
 10261 2824 07290000 		.4byte	0x2907
 10262 2828 13       		.uleb128 0x13
 10263 2829 7B020000 		.4byte	.LASF97
 10264 282d 01       		.byte	0x1
 10265 282e 9403     		.2byte	0x394
 10266 2830 33020000 		.4byte	0x233
 10267 2834 0B1A0000 		.4byte	.LLST115
 10268 2838 14       		.uleb128 0x14
 10269 2839 BA0C0000 		.4byte	.LASF113
 10270 283d 17290000 		.4byte	0x2917
 10271 2841 05       		.uleb128 0x5
 10272 2842 03       		.byte	0x3
 10273 2843 44010000 		.4byte	__func__.8574
 10274 2847 15       		.uleb128 0x15
 10275 2848 08000000 		.4byte	.LBB79
 10276 284c 1E000000 		.4byte	.LBE79-.LBB79
 10277 2850 A3280000 		.4byte	0x28a3
 10278 2854 16       		.uleb128 0x16
 10279 2855 6C00     		.ascii	"l\000"
 10280 2857 01       		.byte	0x1
 10281 2858 9903     		.2byte	0x399
 10282 285a 32010000 		.4byte	0x132
 10283 285e 5B1A0000 		.4byte	.LLST116
 10284 2862 17       		.uleb128 0x17
 10285 2863 0C000000 		.4byte	.LVL557
 10286 2867 16320000 		.4byte	0x3216
 10287 286b 18       		.uleb128 0x18
 10288 286c 24000000 		.4byte	.LVL560
 10289 2870 02       		.uleb128 0x2
 10290 2871 74       		.byte	0x74
 10291 2872 00       		.sleb128 0
ARM GAS  C:\Users\Phuong\AppData\Local\Temp\ccdTtd1y.s 			page 216


 10292 2873 19       		.uleb128 0x19
 10293 2874 01       		.uleb128 0x1
 10294 2875 50       		.byte	0x50
 10295 2876 01       		.uleb128 0x1
 10296 2877 30       		.byte	0x30
 10297 2878 19       		.uleb128 0x19
 10298 2879 01       		.uleb128 0x1
 10299 287a 51       		.byte	0x51
 10300 287b 05       		.uleb128 0x5
 10301 287c 03       		.byte	0x3
 10302 287d 00000000 		.4byte	.LC1
 10303 2881 19       		.uleb128 0x19
 10304 2882 01       		.uleb128 0x1
 10305 2883 52       		.byte	0x52
 10306 2884 05       		.uleb128 0x5
 10307 2885 03       		.byte	0x3
 10308 2886 44010000 		.4byte	.LANCHOR2+68
 10309 288a 19       		.uleb128 0x19
 10310 288b 01       		.uleb128 0x1
 10311 288c 53       		.byte	0x53
 10312 288d 03       		.uleb128 0x3
 10313 288e 0A       		.byte	0xa
 10314 288f 9903     		.2byte	0x399
 10315 2891 19       		.uleb128 0x19
 10316 2892 02       		.uleb128 0x2
 10317 2893 7D       		.byte	0x7d
 10318 2894 00       		.sleb128 0
 10319 2895 01       		.uleb128 0x1
 10320 2896 31       		.byte	0x31
 10321 2897 19       		.uleb128 0x19
 10322 2898 02       		.uleb128 0x2
 10323 2899 7D       		.byte	0x7d
 10324 289a 04       		.sleb128 4
 10325 289b 05       		.uleb128 0x5
 10326 289c 03       		.byte	0x3
 10327 289d EC090000 		.4byte	.LC138
 10328 28a1 00       		.byte	0
 10329 28a2 00       		.byte	0
 10330 28a3 22       		.uleb128 0x22
 10331 28a4 32000000 		.4byte	.LVL562
 10332 28a8 A8240000 		.4byte	0x24a8
 10333 28ac B7280000 		.4byte	0x28b7
 10334 28b0 19       		.uleb128 0x19
 10335 28b1 01       		.uleb128 0x1
 10336 28b2 50       		.byte	0x50
 10337 28b3 02       		.uleb128 0x2
 10338 28b4 74       		.byte	0x74
 10339 28b5 00       		.sleb128 0
 10340 28b6 00       		.byte	0
 10341 28b7 17       		.uleb128 0x17
 10342 28b8 38000000 		.4byte	.LVL563
 10343 28bc 74330000 		.4byte	0x3374
 10344 28c0 17       		.uleb128 0x17
 10345 28c1 3E000000 		.4byte	.LVL564
 10346 28c5 E2330000 		.4byte	0x33e2
 10347 28c9 17       		.uleb128 0x17
 10348 28ca 44000000 		.4byte	.LVL565
ARM GAS  C:\Users\Phuong\AppData\Local\Temp\ccdTtd1y.s 			page 217


 10349 28ce 69330000 		.4byte	0x3369
 10350 28d2 17       		.uleb128 0x17
 10351 28d3 4A000000 		.4byte	.LVL566
 10352 28d7 69330000 		.4byte	0x3369
 10353 28db 17       		.uleb128 0x17
 10354 28dc 50000000 		.4byte	.LVL567
 10355 28e0 2C320000 		.4byte	0x322c
 10356 28e4 17       		.uleb128 0x17
 10357 28e5 56000000 		.4byte	.LVL568
 10358 28e9 2C320000 		.4byte	0x322c
 10359 28ed 17       		.uleb128 0x17
 10360 28ee 5C000000 		.4byte	.LVL569
 10361 28f2 AB330000 		.4byte	0x33ab
 10362 28f6 24       		.uleb128 0x24
 10363 28f7 62000000 		.4byte	.LVL570
 10364 28fb 2C320000 		.4byte	0x322c
 10365 28ff 19       		.uleb128 0x19
 10366 2900 01       		.uleb128 0x1
 10367 2901 50       		.byte	0x50
 10368 2902 02       		.uleb128 0x2
 10369 2903 74       		.byte	0x74
 10370 2904 00       		.sleb128 0
 10371 2905 00       		.byte	0
 10372 2906 00       		.byte	0
 10373 2907 1E       		.uleb128 0x1e
 10374 2908 AF000000 		.4byte	0xaf
 10375 290c 17290000 		.4byte	0x2917
 10376 2910 1F       		.uleb128 0x1f
 10377 2911 93000000 		.4byte	0x93
 10378 2915 17       		.byte	0x17
 10379 2916 00       		.byte	0
 10380 2917 07       		.uleb128 0x7
 10381 2918 07290000 		.4byte	0x2907
 10382 291c 2C       		.uleb128 0x2c
 10383 291d DC090000 		.4byte	.LASF155
 10384 2921 01       		.byte	0x1
 10385 2922 3F04     		.2byte	0x43f
 10386 2924 3E000000 		.4byte	0x3e
 10387 2928 00000000 		.4byte	.LFB13
 10388 292c EC020000 		.4byte	.LFE13-.LFB13
 10389 2930 01       		.uleb128 0x1
 10390 2931 9C       		.byte	0x9c
 10391 2932 732E0000 		.4byte	0x2e73
 10392 2936 13       		.uleb128 0x13
 10393 2937 7B020000 		.4byte	.LASF97
 10394 293b 01       		.byte	0x1
 10395 293c 3F04     		.2byte	0x43f
 10396 293e 33020000 		.4byte	0x233
 10397 2942 791A0000 		.4byte	.LLST117
 10398 2946 13       		.uleb128 0x13
 10399 2947 7F080000 		.4byte	.LASF156
 10400 294b 01       		.byte	0x1
 10401 294c 3F04     		.2byte	0x43f
 10402 294e A9000000 		.4byte	0xa9
 10403 2952 2F1C0000 		.4byte	.LLST118
 10404 2956 13       		.uleb128 0x13
 10405 2957 3A010000 		.4byte	.LASF157
ARM GAS  C:\Users\Phuong\AppData\Local\Temp\ccdTtd1y.s 			page 218


 10406 295b 01       		.byte	0x1
 10407 295c 3F04     		.2byte	0x43f
 10408 295e A9000000 		.4byte	0xa9
 10409 2962 E81C0000 		.4byte	.LLST119
 10410 2966 13       		.uleb128 0x13
 10411 2967 91110000 		.4byte	.LASF158
 10412 296b 01       		.byte	0x1
 10413 296c 3F04     		.2byte	0x43f
 10414 296e A9000000 		.4byte	0xa9
 10415 2972 A11D0000 		.4byte	.LLST120
 10416 2976 2E       		.uleb128 0x2e
 10417 2977 D10A0000 		.4byte	.LASF125
 10418 297b 01       		.byte	0x1
 10419 297c 3F04     		.2byte	0x43f
 10420 297e BB010000 		.4byte	0x1bb
 10421 2982 02       		.uleb128 0x2
 10422 2983 91       		.byte	0x91
 10423 2984 00       		.sleb128 0
 10424 2985 2E       		.uleb128 0x2e
 10425 2986 3F010000 		.4byte	.LASF94
 10426 298a 01       		.byte	0x1
 10427 298b 3F04     		.2byte	0x43f
 10428 298d 37030000 		.4byte	0x337
 10429 2991 02       		.uleb128 0x2
 10430 2992 91       		.byte	0x91
 10431 2993 04       		.sleb128 4
 10432 2994 2E       		.uleb128 0x2e
 10433 2995 14040000 		.4byte	.LASF159
 10434 2999 01       		.byte	0x1
 10435 299a 3F04     		.2byte	0x43f
 10436 299c 9A000000 		.4byte	0x9a
 10437 29a0 02       		.uleb128 0x2
 10438 29a1 91       		.byte	0x91
 10439 29a2 08       		.sleb128 8
 10440 29a3 1B       		.uleb128 0x1b
 10441 29a4 F8130000 		.4byte	.LASF114
 10442 29a8 01       		.byte	0x1
 10443 29a9 4104     		.2byte	0x441
 10444 29ab 3E000000 		.4byte	0x3e
 10445 29af 1C1E0000 		.4byte	.LLST121
 10446 29b3 14       		.uleb128 0x14
 10447 29b4 BA0C0000 		.4byte	.LASF113
 10448 29b8 832E0000 		.4byte	0x2e83
 10449 29bc 05       		.uleb128 0x5
 10450 29bd 03       		.byte	0x3
 10451 29be 5C010000 		.4byte	__func__.8644
 10452 29c2 15       		.uleb128 0x15
 10453 29c3 22000000 		.4byte	.LBB80
 10454 29c7 24000000 		.4byte	.LBE80-.LBB80
 10455 29cb 332A0000 		.4byte	0x2a33
 10456 29cf 16       		.uleb128 0x16
 10457 29d0 6C00     		.ascii	"l\000"
 10458 29d2 01       		.byte	0x1
 10459 29d3 4904     		.2byte	0x449
 10460 29d5 32010000 		.4byte	0x132
 10461 29d9 861E0000 		.4byte	.LLST122
 10462 29dd 17       		.uleb128 0x17
ARM GAS  C:\Users\Phuong\AppData\Local\Temp\ccdTtd1y.s 			page 219


 10463 29de 26000000 		.4byte	.LVL573
 10464 29e2 16320000 		.4byte	0x3216
 10465 29e6 18       		.uleb128 0x18
 10466 29e7 46000000 		.4byte	.LVL576
 10467 29eb 02       		.uleb128 0x2
 10468 29ec 77       		.byte	0x77
 10469 29ed 00       		.sleb128 0
 10470 29ee 19       		.uleb128 0x19
 10471 29ef 01       		.uleb128 0x1
 10472 29f0 50       		.byte	0x50
 10473 29f1 01       		.uleb128 0x1
 10474 29f2 30       		.byte	0x30
 10475 29f3 19       		.uleb128 0x19
 10476 29f4 01       		.uleb128 0x1
 10477 29f5 51       		.byte	0x51
 10478 29f6 05       		.uleb128 0x5
 10479 29f7 03       		.byte	0x3
 10480 29f8 00000000 		.4byte	.LC1
 10481 29fc 19       		.uleb128 0x19
 10482 29fd 01       		.uleb128 0x1
 10483 29fe 52       		.byte	0x52
 10484 29ff 05       		.uleb128 0x5
 10485 2a00 03       		.byte	0x3
 10486 2a01 5C010000 		.4byte	.LANCHOR2+92
 10487 2a05 19       		.uleb128 0x19
 10488 2a06 01       		.uleb128 0x1
 10489 2a07 53       		.byte	0x53
 10490 2a08 03       		.uleb128 0x3
 10491 2a09 0A       		.byte	0xa
 10492 2a0a 4A04     		.2byte	0x44a
 10493 2a0c 19       		.uleb128 0x19
 10494 2a0d 02       		.uleb128 0x2
 10495 2a0e 7D       		.byte	0x7d
 10496 2a0f 00       		.sleb128 0
 10497 2a10 01       		.uleb128 0x1
 10498 2a11 31       		.byte	0x31
 10499 2a12 19       		.uleb128 0x19
 10500 2a13 02       		.uleb128 0x2
 10501 2a14 7D       		.byte	0x7d
 10502 2a15 04       		.sleb128 4
 10503 2a16 05       		.uleb128 0x5
 10504 2a17 03       		.byte	0x3
 10505 2a18 A80A0000 		.4byte	.LC155
 10506 2a1c 19       		.uleb128 0x19
 10507 2a1d 02       		.uleb128 0x2
 10508 2a1e 7D       		.byte	0x7d
 10509 2a1f 08       		.sleb128 8
 10510 2a20 02       		.uleb128 0x2
 10511 2a21 74       		.byte	0x74
 10512 2a22 00       		.sleb128 0
 10513 2a23 19       		.uleb128 0x19
 10514 2a24 02       		.uleb128 0x2
 10515 2a25 7D       		.byte	0x7d
 10516 2a26 0C       		.sleb128 12
 10517 2a27 02       		.uleb128 0x2
 10518 2a28 75       		.byte	0x75
 10519 2a29 00       		.sleb128 0
ARM GAS  C:\Users\Phuong\AppData\Local\Temp\ccdTtd1y.s 			page 220


 10520 2a2a 19       		.uleb128 0x19
 10521 2a2b 02       		.uleb128 0x2
 10522 2a2c 7D       		.byte	0x7d
 10523 2a2d 10       		.sleb128 16
 10524 2a2e 02       		.uleb128 0x2
 10525 2a2f 76       		.byte	0x76
 10526 2a30 00       		.sleb128 0
 10527 2a31 00       		.byte	0
 10528 2a32 00       		.byte	0
 10529 2a33 15       		.uleb128 0x15
 10530 2a34 56000000 		.4byte	.LBB81
 10531 2a38 1E000000 		.4byte	.LBE81-.LBB81
 10532 2a3c 8F2A0000 		.4byte	0x2a8f
 10533 2a40 16       		.uleb128 0x16
 10534 2a41 6C00     		.ascii	"l\000"
 10535 2a43 01       		.byte	0x1
 10536 2a44 5204     		.2byte	0x452
 10537 2a46 32010000 		.4byte	0x132
 10538 2a4a AF1E0000 		.4byte	.LLST123
 10539 2a4e 17       		.uleb128 0x17
 10540 2a4f 5A000000 		.4byte	.LVL579
 10541 2a53 16320000 		.4byte	0x3216
 10542 2a57 18       		.uleb128 0x18
 10543 2a58 74000000 		.4byte	.LVL582
 10544 2a5c 02       		.uleb128 0x2
 10545 2a5d 74       		.byte	0x74
 10546 2a5e 00       		.sleb128 0
 10547 2a5f 19       		.uleb128 0x19
 10548 2a60 01       		.uleb128 0x1
 10549 2a61 50       		.byte	0x50
 10550 2a62 01       		.uleb128 0x1
 10551 2a63 30       		.byte	0x30
 10552 2a64 19       		.uleb128 0x19
 10553 2a65 01       		.uleb128 0x1
 10554 2a66 51       		.byte	0x51
 10555 2a67 05       		.uleb128 0x5
 10556 2a68 03       		.byte	0x3
 10557 2a69 00000000 		.4byte	.LC1
 10558 2a6d 19       		.uleb128 0x19
 10559 2a6e 01       		.uleb128 0x1
 10560 2a6f 52       		.byte	0x52
 10561 2a70 05       		.uleb128 0x5
 10562 2a71 03       		.byte	0x3
 10563 2a72 5C010000 		.4byte	.LANCHOR2+92
 10564 2a76 19       		.uleb128 0x19
 10565 2a77 01       		.uleb128 0x1
 10566 2a78 53       		.byte	0x53
 10567 2a79 03       		.uleb128 0x3
 10568 2a7a 0A       		.byte	0xa
 10569 2a7b 5204     		.2byte	0x452
 10570 2a7d 19       		.uleb128 0x19
 10571 2a7e 02       		.uleb128 0x2
 10572 2a7f 7D       		.byte	0x7d
 10573 2a80 00       		.sleb128 0
 10574 2a81 01       		.uleb128 0x1
 10575 2a82 31       		.byte	0x31
 10576 2a83 19       		.uleb128 0x19
ARM GAS  C:\Users\Phuong\AppData\Local\Temp\ccdTtd1y.s 			page 221


 10577 2a84 02       		.uleb128 0x2
 10578 2a85 7D       		.byte	0x7d
 10579 2a86 04       		.sleb128 4
 10580 2a87 05       		.uleb128 0x5
 10581 2a88 03       		.byte	0x3
 10582 2a89 E80A0000 		.4byte	.LC157
 10583 2a8d 00       		.byte	0
 10584 2a8e 00       		.byte	0
 10585 2a8f 1A       		.uleb128 0x1a
 10586 2a90 78000000 		.4byte	.LBB82
 10587 2a94 E6010000 		.4byte	.LBE82-.LBB82
 10588 2a98 21       		.uleb128 0x21
 10589 2a99 0A070000 		.4byte	.LASF126
 10590 2a9d 01       		.byte	0x1
 10591 2a9e 5704     		.2byte	0x457
 10592 2aa0 68010000 		.4byte	0x168
 10593 2aa4 02       		.uleb128 0x2
 10594 2aa5 91       		.byte	0x91
 10595 2aa6 64       		.sleb128 -28
 10596 2aa7 1B       		.uleb128 0x1b
 10597 2aa8 06110000 		.4byte	.LASF160
 10598 2aac 01       		.byte	0x1
 10599 2aad 5804     		.2byte	0x458
 10600 2aaf BB010000 		.4byte	0x1bb
 10601 2ab3 D81E0000 		.4byte	.LLST124
 10602 2ab7 15       		.uleb128 0x15
 10603 2ab8 90000000 		.4byte	.LBB83
 10604 2abc 1E000000 		.4byte	.LBE83-.LBB83
 10605 2ac0 132B0000 		.4byte	0x2b13
 10606 2ac4 16       		.uleb128 0x16
 10607 2ac5 6C00     		.ascii	"l\000"
 10608 2ac7 01       		.byte	0x1
 10609 2ac8 6504     		.2byte	0x465
 10610 2aca 32010000 		.4byte	0x132
 10611 2ace 011F0000 		.4byte	.LLST125
 10612 2ad2 17       		.uleb128 0x17
 10613 2ad3 94000000 		.4byte	.LVL591
 10614 2ad7 16320000 		.4byte	0x3216
 10615 2adb 18       		.uleb128 0x18
 10616 2adc AE000000 		.4byte	.LVL594
 10617 2ae0 02       		.uleb128 0x2
 10618 2ae1 79       		.byte	0x79
 10619 2ae2 00       		.sleb128 0
 10620 2ae3 19       		.uleb128 0x19
 10621 2ae4 01       		.uleb128 0x1
 10622 2ae5 50       		.byte	0x50
 10623 2ae6 01       		.uleb128 0x1
 10624 2ae7 30       		.byte	0x30
 10625 2ae8 19       		.uleb128 0x19
 10626 2ae9 01       		.uleb128 0x1
 10627 2aea 51       		.byte	0x51
 10628 2aeb 05       		.uleb128 0x5
 10629 2aec 03       		.byte	0x3
 10630 2aed 00000000 		.4byte	.LC1
 10631 2af1 19       		.uleb128 0x19
 10632 2af2 01       		.uleb128 0x1
 10633 2af3 52       		.byte	0x52
ARM GAS  C:\Users\Phuong\AppData\Local\Temp\ccdTtd1y.s 			page 222


 10634 2af4 05       		.uleb128 0x5
 10635 2af5 03       		.byte	0x3
 10636 2af6 5C010000 		.4byte	.LANCHOR2+92
 10637 2afa 19       		.uleb128 0x19
 10638 2afb 01       		.uleb128 0x1
 10639 2afc 53       		.byte	0x53
 10640 2afd 03       		.uleb128 0x3
 10641 2afe 0A       		.byte	0xa
 10642 2aff 6504     		.2byte	0x465
 10643 2b01 19       		.uleb128 0x19
 10644 2b02 02       		.uleb128 0x2
 10645 2b03 7D       		.byte	0x7d
 10646 2b04 00       		.sleb128 0
 10647 2b05 01       		.uleb128 0x1
 10648 2b06 31       		.byte	0x31
 10649 2b07 19       		.uleb128 0x19
 10650 2b08 02       		.uleb128 0x2
 10651 2b09 7D       		.byte	0x7d
 10652 2b0a 04       		.sleb128 4
 10653 2b0b 05       		.uleb128 0x5
 10654 2b0c 03       		.byte	0x3
 10655 2b0d 340B0000 		.4byte	.LC159
 10656 2b11 00       		.byte	0
 10657 2b12 00       		.byte	0
 10658 2b13 15       		.uleb128 0x15
 10659 2b14 C0000000 		.4byte	.LBB84
 10660 2b18 1E000000 		.4byte	.LBE84-.LBB84
 10661 2b1c 6F2B0000 		.4byte	0x2b6f
 10662 2b20 16       		.uleb128 0x16
 10663 2b21 6C00     		.ascii	"l\000"
 10664 2b23 01       		.byte	0x1
 10665 2b24 7304     		.2byte	0x473
 10666 2b26 32010000 		.4byte	0x132
 10667 2b2a 1F1F0000 		.4byte	.LLST126
 10668 2b2e 17       		.uleb128 0x17
 10669 2b2f C4000000 		.4byte	.LVL596
 10670 2b33 16320000 		.4byte	0x3216
 10671 2b37 18       		.uleb128 0x18
 10672 2b38 DE000000 		.4byte	.LVL599
 10673 2b3c 02       		.uleb128 0x2
 10674 2b3d 74       		.byte	0x74
 10675 2b3e 00       		.sleb128 0
 10676 2b3f 19       		.uleb128 0x19
 10677 2b40 01       		.uleb128 0x1
 10678 2b41 50       		.byte	0x50
 10679 2b42 01       		.uleb128 0x1
 10680 2b43 30       		.byte	0x30
 10681 2b44 19       		.uleb128 0x19
 10682 2b45 01       		.uleb128 0x1
 10683 2b46 51       		.byte	0x51
 10684 2b47 05       		.uleb128 0x5
 10685 2b48 03       		.byte	0x3
 10686 2b49 00000000 		.4byte	.LC1
 10687 2b4d 19       		.uleb128 0x19
 10688 2b4e 01       		.uleb128 0x1
 10689 2b4f 52       		.byte	0x52
 10690 2b50 05       		.uleb128 0x5
ARM GAS  C:\Users\Phuong\AppData\Local\Temp\ccdTtd1y.s 			page 223


 10691 2b51 03       		.byte	0x3
 10692 2b52 5C010000 		.4byte	.LANCHOR2+92
 10693 2b56 19       		.uleb128 0x19
 10694 2b57 01       		.uleb128 0x1
 10695 2b58 53       		.byte	0x53
 10696 2b59 03       		.uleb128 0x3
 10697 2b5a 0A       		.byte	0xa
 10698 2b5b 7304     		.2byte	0x473
 10699 2b5d 19       		.uleb128 0x19
 10700 2b5e 02       		.uleb128 0x2
 10701 2b5f 7D       		.byte	0x7d
 10702 2b60 00       		.sleb128 0
 10703 2b61 01       		.uleb128 0x1
 10704 2b62 31       		.byte	0x31
 10705 2b63 19       		.uleb128 0x19
 10706 2b64 02       		.uleb128 0x2
 10707 2b65 7D       		.byte	0x7d
 10708 2b66 04       		.sleb128 4
 10709 2b67 05       		.uleb128 0x5
 10710 2b68 03       		.byte	0x3
 10711 2b69 4C0B0000 		.4byte	.LC161
 10712 2b6d 00       		.byte	0
 10713 2b6e 00       		.byte	0
 10714 2b6f 15       		.uleb128 0x15
 10715 2b70 F2000000 		.4byte	.LBB85
 10716 2b74 1E000000 		.4byte	.LBE85-.LBB85
 10717 2b78 CB2B0000 		.4byte	0x2bcb
 10718 2b7c 16       		.uleb128 0x16
 10719 2b7d 6C00     		.ascii	"l\000"
 10720 2b7f 01       		.byte	0x1
 10721 2b80 7E04     		.2byte	0x47e
 10722 2b82 32010000 		.4byte	0x132
 10723 2b86 481F0000 		.4byte	.LLST127
 10724 2b8a 17       		.uleb128 0x17
 10725 2b8b F6000000 		.4byte	.LVL603
 10726 2b8f 16320000 		.4byte	0x3216
 10727 2b93 18       		.uleb128 0x18
 10728 2b94 10010000 		.4byte	.LVL606
 10729 2b98 02       		.uleb128 0x2
 10730 2b99 79       		.byte	0x79
 10731 2b9a 00       		.sleb128 0
 10732 2b9b 19       		.uleb128 0x19
 10733 2b9c 01       		.uleb128 0x1
 10734 2b9d 50       		.byte	0x50
 10735 2b9e 01       		.uleb128 0x1
 10736 2b9f 30       		.byte	0x30
 10737 2ba0 19       		.uleb128 0x19
 10738 2ba1 01       		.uleb128 0x1
 10739 2ba2 51       		.byte	0x51
 10740 2ba3 05       		.uleb128 0x5
 10741 2ba4 03       		.byte	0x3
 10742 2ba5 00000000 		.4byte	.LC1
 10743 2ba9 19       		.uleb128 0x19
 10744 2baa 01       		.uleb128 0x1
 10745 2bab 52       		.byte	0x52
 10746 2bac 05       		.uleb128 0x5
 10747 2bad 03       		.byte	0x3
ARM GAS  C:\Users\Phuong\AppData\Local\Temp\ccdTtd1y.s 			page 224


 10748 2bae 5C010000 		.4byte	.LANCHOR2+92
 10749 2bb2 19       		.uleb128 0x19
 10750 2bb3 01       		.uleb128 0x1
 10751 2bb4 53       		.byte	0x53
 10752 2bb5 03       		.uleb128 0x3
 10753 2bb6 0A       		.byte	0xa
 10754 2bb7 7E04     		.2byte	0x47e
 10755 2bb9 19       		.uleb128 0x19
 10756 2bba 02       		.uleb128 0x2
 10757 2bbb 7D       		.byte	0x7d
 10758 2bbc 00       		.sleb128 0
 10759 2bbd 01       		.uleb128 0x1
 10760 2bbe 31       		.byte	0x31
 10761 2bbf 19       		.uleb128 0x19
 10762 2bc0 02       		.uleb128 0x2
 10763 2bc1 7D       		.byte	0x7d
 10764 2bc2 04       		.sleb128 4
 10765 2bc3 05       		.uleb128 0x5
 10766 2bc4 03       		.byte	0x3
 10767 2bc5 740B0000 		.4byte	.LC163
 10768 2bc9 00       		.byte	0
 10769 2bca 00       		.byte	0
 10770 2bcb 15       		.uleb128 0x15
 10771 2bcc 56010000 		.4byte	.LBB86
 10772 2bd0 1C000000 		.4byte	.LBE86-.LBB86
 10773 2bd4 272C0000 		.4byte	0x2c27
 10774 2bd8 16       		.uleb128 0x16
 10775 2bd9 6C00     		.ascii	"l\000"
 10776 2bdb 01       		.byte	0x1
 10777 2bdc 9B04     		.2byte	0x49b
 10778 2bde 32010000 		.4byte	0x132
 10779 2be2 661F0000 		.4byte	.LLST128
 10780 2be6 17       		.uleb128 0x17
 10781 2be7 5A010000 		.4byte	.LVL611
 10782 2beb 16320000 		.4byte	0x3216
 10783 2bef 18       		.uleb128 0x18
 10784 2bf0 72010000 		.4byte	.LVL614
 10785 2bf4 02       		.uleb128 0x2
 10786 2bf5 74       		.byte	0x74
 10787 2bf6 00       		.sleb128 0
 10788 2bf7 19       		.uleb128 0x19
 10789 2bf8 01       		.uleb128 0x1
 10790 2bf9 50       		.byte	0x50
 10791 2bfa 01       		.uleb128 0x1
 10792 2bfb 30       		.byte	0x30
 10793 2bfc 19       		.uleb128 0x19
 10794 2bfd 01       		.uleb128 0x1
 10795 2bfe 51       		.byte	0x51
 10796 2bff 05       		.uleb128 0x5
 10797 2c00 03       		.byte	0x3
 10798 2c01 00000000 		.4byte	.LC1
 10799 2c05 19       		.uleb128 0x19
 10800 2c06 01       		.uleb128 0x1
 10801 2c07 52       		.byte	0x52
 10802 2c08 05       		.uleb128 0x5
 10803 2c09 03       		.byte	0x3
 10804 2c0a 5C010000 		.4byte	.LANCHOR2+92
ARM GAS  C:\Users\Phuong\AppData\Local\Temp\ccdTtd1y.s 			page 225


 10805 2c0e 19       		.uleb128 0x19
 10806 2c0f 01       		.uleb128 0x1
 10807 2c10 53       		.byte	0x53
 10808 2c11 03       		.uleb128 0x3
 10809 2c12 0A       		.byte	0xa
 10810 2c13 9B04     		.2byte	0x49b
 10811 2c15 19       		.uleb128 0x19
 10812 2c16 02       		.uleb128 0x2
 10813 2c17 7D       		.byte	0x7d
 10814 2c18 00       		.sleb128 0
 10815 2c19 01       		.uleb128 0x1
 10816 2c1a 31       		.byte	0x31
 10817 2c1b 19       		.uleb128 0x19
 10818 2c1c 02       		.uleb128 0x2
 10819 2c1d 7D       		.byte	0x7d
 10820 2c1e 04       		.sleb128 4
 10821 2c1f 05       		.uleb128 0x5
 10822 2c20 03       		.byte	0x3
 10823 2c21 B80B0000 		.4byte	.LC171
 10824 2c25 00       		.byte	0
 10825 2c26 00       		.byte	0
 10826 2c27 2A       		.uleb128 0x2a
 10827 2c28 58000000 		.4byte	.Ldebug_ranges0+0x58
 10828 2c2c 972D0000 		.4byte	0x2d97
 10829 2c30 1B       		.uleb128 0x1b
 10830 2c31 0B020000 		.4byte	.LASF123
 10831 2c35 01       		.byte	0x1
 10832 2c36 A404     		.2byte	0x4a4
 10833 2c38 7D0A0000 		.4byte	0xa7d
 10834 2c3c 8F1F0000 		.4byte	.LLST129
 10835 2c40 15       		.uleb128 0x15
 10836 2c41 8E010000 		.4byte	.LBB88
 10837 2c45 9E000000 		.4byte	.LBE88-.LBB88
 10838 2c49 8D2D0000 		.4byte	0x2d8d
 10839 2c4d 1B       		.uleb128 0x1b
 10840 2c4e DA0F0000 		.4byte	.LASF161
 10841 2c52 01       		.byte	0x1
 10842 2c53 AB04     		.2byte	0x4ab
 10843 2c55 E7000000 		.4byte	0xe7
 10844 2c59 C31F0000 		.4byte	.LLST130
 10845 2c5d 15       		.uleb128 0x15
 10846 2c5e AE010000 		.4byte	.LBB89
 10847 2c62 1C000000 		.4byte	.LBE89-.LBB89
 10848 2c66 B92C0000 		.4byte	0x2cb9
 10849 2c6a 16       		.uleb128 0x16
 10850 2c6b 6C00     		.ascii	"l\000"
 10851 2c6d 01       		.byte	0x1
 10852 2c6e B604     		.2byte	0x4b6
 10853 2c70 32010000 		.4byte	0x132
 10854 2c74 F91F0000 		.4byte	.LLST131
 10855 2c78 17       		.uleb128 0x17
 10856 2c79 B2010000 		.4byte	.LVL623
 10857 2c7d 16320000 		.4byte	0x3216
 10858 2c81 18       		.uleb128 0x18
 10859 2c82 CA010000 		.4byte	.LVL626
 10860 2c86 02       		.uleb128 0x2
 10861 2c87 74       		.byte	0x74
ARM GAS  C:\Users\Phuong\AppData\Local\Temp\ccdTtd1y.s 			page 226


 10862 2c88 00       		.sleb128 0
 10863 2c89 19       		.uleb128 0x19
 10864 2c8a 01       		.uleb128 0x1
 10865 2c8b 50       		.byte	0x50
 10866 2c8c 01       		.uleb128 0x1
 10867 2c8d 30       		.byte	0x30
 10868 2c8e 19       		.uleb128 0x19
 10869 2c8f 01       		.uleb128 0x1
 10870 2c90 51       		.byte	0x51
 10871 2c91 05       		.uleb128 0x5
 10872 2c92 03       		.byte	0x3
 10873 2c93 00000000 		.4byte	.LC1
 10874 2c97 19       		.uleb128 0x19
 10875 2c98 01       		.uleb128 0x1
 10876 2c99 52       		.byte	0x52
 10877 2c9a 05       		.uleb128 0x5
 10878 2c9b 03       		.byte	0x3
 10879 2c9c 5C010000 		.4byte	.LANCHOR2+92
 10880 2ca0 19       		.uleb128 0x19
 10881 2ca1 01       		.uleb128 0x1
 10882 2ca2 53       		.byte	0x53
 10883 2ca3 03       		.uleb128 0x3
 10884 2ca4 0A       		.byte	0xa
 10885 2ca5 B604     		.2byte	0x4b6
 10886 2ca7 19       		.uleb128 0x19
 10887 2ca8 02       		.uleb128 0x2
 10888 2ca9 7D       		.byte	0x7d
 10889 2caa 00       		.sleb128 0
 10890 2cab 01       		.uleb128 0x1
 10891 2cac 31       		.byte	0x31
 10892 2cad 19       		.uleb128 0x19
 10893 2cae 02       		.uleb128 0x2
 10894 2caf 7D       		.byte	0x7d
 10895 2cb0 04       		.sleb128 4
 10896 2cb1 05       		.uleb128 0x5
 10897 2cb2 03       		.byte	0x3
 10898 2cb3 E00B0000 		.4byte	.LC173
 10899 2cb7 00       		.byte	0
 10900 2cb8 00       		.byte	0
 10901 2cb9 15       		.uleb128 0x15
 10902 2cba EA010000 		.4byte	.LBB90
 10903 2cbe 1C000000 		.4byte	.LBE90-.LBB90
 10904 2cc2 152D0000 		.4byte	0x2d15
 10905 2cc6 16       		.uleb128 0x16
 10906 2cc7 6C00     		.ascii	"l\000"
 10907 2cc9 01       		.byte	0x1
 10908 2cca C104     		.2byte	0x4c1
 10909 2ccc 32010000 		.4byte	0x132
 10910 2cd0 17200000 		.4byte	.LLST132
 10911 2cd4 17       		.uleb128 0x17
 10912 2cd5 EE010000 		.4byte	.LVL632
 10913 2cd9 16320000 		.4byte	0x3216
 10914 2cdd 18       		.uleb128 0x18
 10915 2cde 06020000 		.4byte	.LVL635
 10916 2ce2 02       		.uleb128 0x2
 10917 2ce3 76       		.byte	0x76
 10918 2ce4 00       		.sleb128 0
ARM GAS  C:\Users\Phuong\AppData\Local\Temp\ccdTtd1y.s 			page 227


 10919 2ce5 19       		.uleb128 0x19
 10920 2ce6 01       		.uleb128 0x1
 10921 2ce7 50       		.byte	0x50
 10922 2ce8 01       		.uleb128 0x1
 10923 2ce9 30       		.byte	0x30
 10924 2cea 19       		.uleb128 0x19
 10925 2ceb 01       		.uleb128 0x1
 10926 2cec 51       		.byte	0x51
 10927 2ced 05       		.uleb128 0x5
 10928 2cee 03       		.byte	0x3
 10929 2cef 00000000 		.4byte	.LC1
 10930 2cf3 19       		.uleb128 0x19
 10931 2cf4 01       		.uleb128 0x1
 10932 2cf5 52       		.byte	0x52
 10933 2cf6 05       		.uleb128 0x5
 10934 2cf7 03       		.byte	0x3
 10935 2cf8 5C010000 		.4byte	.LANCHOR2+92
 10936 2cfc 19       		.uleb128 0x19
 10937 2cfd 01       		.uleb128 0x1
 10938 2cfe 53       		.byte	0x53
 10939 2cff 03       		.uleb128 0x3
 10940 2d00 0A       		.byte	0xa
 10941 2d01 C104     		.2byte	0x4c1
 10942 2d03 19       		.uleb128 0x19
 10943 2d04 02       		.uleb128 0x2
 10944 2d05 7D       		.byte	0x7d
 10945 2d06 00       		.sleb128 0
 10946 2d07 01       		.uleb128 0x1
 10947 2d08 31       		.byte	0x31
 10948 2d09 19       		.uleb128 0x19
 10949 2d0a 02       		.uleb128 0x2
 10950 2d0b 7D       		.byte	0x7d
 10951 2d0c 04       		.sleb128 4
 10952 2d0d 05       		.uleb128 0x5
 10953 2d0e 03       		.byte	0x3
 10954 2d0f 1C0C0000 		.4byte	.LC176
 10955 2d13 00       		.byte	0
 10956 2d14 00       		.byte	0
 10957 2d15 22       		.uleb128 0x22
 10958 2d16 A8010000 		.4byte	.LVL621
 10959 2d1a ED330000 		.4byte	0x33ed
 10960 2d1e 292D0000 		.4byte	0x2d29
 10961 2d22 19       		.uleb128 0x19
 10962 2d23 01       		.uleb128 0x1
 10963 2d24 51       		.byte	0x51
 10964 2d25 02       		.uleb128 0x2
 10965 2d26 75       		.byte	0x75
 10966 2d27 00       		.sleb128 0
 10967 2d28 00       		.byte	0
 10968 2d29 22       		.uleb128 0x22
 10969 2d2a D0010000 		.4byte	.LVL627
 10970 2d2e 2C320000 		.4byte	0x322c
 10971 2d32 3D2D0000 		.4byte	0x2d3d
 10972 2d36 19       		.uleb128 0x19
 10973 2d37 01       		.uleb128 0x1
 10974 2d38 50       		.byte	0x50
 10975 2d39 02       		.uleb128 0x2
ARM GAS  C:\Users\Phuong\AppData\Local\Temp\ccdTtd1y.s 			page 228


 10976 2d3a 75       		.byte	0x75
 10977 2d3b 00       		.sleb128 0
 10978 2d3c 00       		.byte	0
 10979 2d3d 22       		.uleb128 0x22
 10980 2d3e E6010000 		.4byte	.LVL631
 10981 2d42 F8330000 		.4byte	0x33f8
 10982 2d46 672D0000 		.4byte	0x2d67
 10983 2d4a 19       		.uleb128 0x19
 10984 2d4b 01       		.uleb128 0x1
 10985 2d4c 51       		.byte	0x51
 10986 2d4d 02       		.uleb128 0x2
 10987 2d4e 77       		.byte	0x77
 10988 2d4f 00       		.sleb128 0
 10989 2d50 19       		.uleb128 0x19
 10990 2d51 01       		.uleb128 0x1
 10991 2d52 52       		.byte	0x52
 10992 2d53 05       		.uleb128 0x5
 10993 2d54 03       		.byte	0x3
 10994 2d55 00000000 		.4byte	on_message_send_complete
 10995 2d59 19       		.uleb128 0x19
 10996 2d5a 01       		.uleb128 0x1
 10997 2d5b 53       		.byte	0x53
 10998 2d5c 03       		.uleb128 0x3
 10999 2d5d 91       		.byte	0x91
 11000 2d5e 5C       		.sleb128 -36
 11001 2d5f 06       		.byte	0x6
 11002 2d60 19       		.uleb128 0x19
 11003 2d61 02       		.uleb128 0x2
 11004 2d62 7D       		.byte	0x7d
 11005 2d63 00       		.sleb128 0
 11006 2d64 01       		.uleb128 0x1
 11007 2d65 30       		.byte	0x30
 11008 2d66 00       		.byte	0
 11009 2d67 22       		.uleb128 0x22
 11010 2d68 0E020000 		.4byte	.LVL636
 11011 2d6c 42320000 		.4byte	0x3242
 11012 2d70 7C2D0000 		.4byte	0x2d7c
 11013 2d74 19       		.uleb128 0x19
 11014 2d75 01       		.uleb128 0x1
 11015 2d76 51       		.byte	0x51
 11016 2d77 03       		.uleb128 0x3
 11017 2d78 91       		.byte	0x91
 11018 2d79 5C       		.sleb128 -36
 11019 2d7a 06       		.byte	0x6
 11020 2d7b 00       		.byte	0
 11021 2d7c 24       		.uleb128 0x24
 11022 2d7d 14020000 		.4byte	.LVL637
 11023 2d81 2C320000 		.4byte	0x322c
 11024 2d85 19       		.uleb128 0x19
 11025 2d86 01       		.uleb128 0x1
 11026 2d87 50       		.byte	0x50
 11027 2d88 02       		.uleb128 0x2
 11028 2d89 75       		.byte	0x75
 11029 2d8a 00       		.sleb128 0
 11030 2d8b 00       		.byte	0
 11031 2d8c 00       		.byte	0
 11032 2d8d 17       		.uleb128 0x17
ARM GAS  C:\Users\Phuong\AppData\Local\Temp\ccdTtd1y.s 			page 229


 11033 2d8e 8A010000 		.4byte	.LVL618
 11034 2d92 3D330000 		.4byte	0x333d
 11035 2d96 00       		.byte	0
 11036 2d97 17       		.uleb128 0x17
 11037 2d98 82000000 		.4byte	.LVL585
 11038 2d9c 03340000 		.4byte	0x3403
 11039 2da0 22       		.uleb128 0x22
 11040 2da1 8C000000 		.4byte	.LVL589
 11041 2da5 0E340000 		.4byte	0x340e
 11042 2da9 B52D0000 		.4byte	0x2db5
 11043 2dad 19       		.uleb128 0x19
 11044 2dae 01       		.uleb128 0x1
 11045 2daf 50       		.byte	0x50
 11046 2db0 03       		.uleb128 0x3
 11047 2db1 91       		.byte	0x91
 11048 2db2 00       		.sleb128 0
 11049 2db3 06       		.byte	0x6
 11050 2db4 00       		.byte	0
 11051 2db5 22       		.uleb128 0x22
 11052 2db6 BC000000 		.4byte	.LVL595
 11053 2dba F2320000 		.4byte	0x32f2
 11054 2dbe CF2D0000 		.4byte	0x2dcf
 11055 2dc2 19       		.uleb128 0x19
 11056 2dc3 01       		.uleb128 0x1
 11057 2dc4 50       		.byte	0x50
 11058 2dc5 02       		.uleb128 0x2
 11059 2dc6 77       		.byte	0x77
 11060 2dc7 00       		.sleb128 0
 11061 2dc8 19       		.uleb128 0x19
 11062 2dc9 01       		.uleb128 0x1
 11063 2dca 51       		.byte	0x51
 11064 2dcb 02       		.uleb128 0x2
 11065 2dcc 91       		.byte	0x91
 11066 2dcd 64       		.sleb128 -28
 11067 2dce 00       		.byte	0
 11068 2dcf 17       		.uleb128 0x17
 11069 2dd0 EC000000 		.4byte	.LVL602
 11070 2dd4 19340000 		.4byte	0x3419
 11071 2dd8 22       		.uleb128 0x22
 11072 2dd9 20010000 		.4byte	.LVL607
 11073 2ddd A7130000 		.4byte	0x13a7
 11074 2de1 F52D0000 		.4byte	0x2df5
 11075 2de5 19       		.uleb128 0x19
 11076 2de6 01       		.uleb128 0x1
 11077 2de7 51       		.byte	0x51
 11078 2de8 05       		.uleb128 0x5
 11079 2de9 03       		.byte	0x3
 11080 2dea 9C0B0000 		.4byte	.LC165
 11081 2dee 19       		.uleb128 0x19
 11082 2def 01       		.uleb128 0x1
 11083 2df0 52       		.byte	0x52
 11084 2df1 02       		.uleb128 0x2
 11085 2df2 75       		.byte	0x75
 11086 2df3 00       		.sleb128 0
 11087 2df4 00       		.byte	0
 11088 2df5 22       		.uleb128 0x22
 11089 2df6 30010000 		.4byte	.LVL608
ARM GAS  C:\Users\Phuong\AppData\Local\Temp\ccdTtd1y.s 			page 230


 11090 2dfa A7130000 		.4byte	0x13a7
 11091 2dfe 122E0000 		.4byte	0x2e12
 11092 2e02 19       		.uleb128 0x19
 11093 2e03 01       		.uleb128 0x1
 11094 2e04 51       		.byte	0x51
 11095 2e05 05       		.uleb128 0x5
 11096 2e06 03       		.byte	0x3
 11097 2e07 A80B0000 		.4byte	.LC167
 11098 2e0b 19       		.uleb128 0x19
 11099 2e0c 01       		.uleb128 0x1
 11100 2e0d 52       		.byte	0x52
 11101 2e0e 02       		.uleb128 0x2
 11102 2e0f 76       		.byte	0x76
 11103 2e10 00       		.sleb128 0
 11104 2e11 00       		.byte	0
 11105 2e12 22       		.uleb128 0x22
 11106 2e13 46010000 		.4byte	.LVL609
 11107 2e17 A7130000 		.4byte	0x13a7
 11108 2e1b 302E0000 		.4byte	0x2e30
 11109 2e1f 19       		.uleb128 0x19
 11110 2e20 01       		.uleb128 0x1
 11111 2e21 51       		.byte	0x51
 11112 2e22 05       		.uleb128 0x5
 11113 2e23 03       		.byte	0x3
 11114 2e24 B00B0000 		.4byte	.LC169
 11115 2e28 19       		.uleb128 0x19
 11116 2e29 01       		.uleb128 0x1
 11117 2e2a 52       		.byte	0x52
 11118 2e2b 03       		.uleb128 0x3
 11119 2e2c 91       		.byte	0x91
 11120 2e2d 5C       		.sleb128 -36
 11121 2e2e 06       		.byte	0x6
 11122 2e2f 00       		.byte	0
 11123 2e30 22       		.uleb128 0x22
 11124 2e31 52010000 		.4byte	.LVL610
 11125 2e35 24340000 		.4byte	0x3424
 11126 2e39 442E0000 		.4byte	0x2e44
 11127 2e3d 19       		.uleb128 0x19
 11128 2e3e 01       		.uleb128 0x1
 11129 2e3f 50       		.byte	0x50
 11130 2e40 02       		.uleb128 0x2
 11131 2e41 77       		.byte	0x77
 11132 2e42 00       		.sleb128 0
 11133 2e43 00       		.byte	0
 11134 2e44 22       		.uleb128 0x22
 11135 2e45 80010000 		.4byte	.LVL617
 11136 2e49 E5150000 		.4byte	0x15e5
 11137 2e4d 582E0000 		.4byte	0x2e58
 11138 2e51 19       		.uleb128 0x19
 11139 2e52 01       		.uleb128 0x1
 11140 2e53 50       		.byte	0x50
 11141 2e54 02       		.uleb128 0x2
 11142 2e55 77       		.byte	0x77
 11143 2e56 00       		.sleb128 0
 11144 2e57 00       		.byte	0
 11145 2e58 17       		.uleb128 0x17
 11146 2e59 4A020000 		.4byte	.LVL653
ARM GAS  C:\Users\Phuong\AppData\Local\Temp\ccdTtd1y.s 			page 231


 11147 2e5d 9A320000 		.4byte	0x329a
 11148 2e61 24       		.uleb128 0x24
 11149 2e62 58020000 		.4byte	.LVL657
 11150 2e66 2F340000 		.4byte	0x342f
 11151 2e6a 19       		.uleb128 0x19
 11152 2e6b 01       		.uleb128 0x1
 11153 2e6c 50       		.byte	0x50
 11154 2e6d 02       		.uleb128 0x2
 11155 2e6e 77       		.byte	0x77
 11156 2e6f 00       		.sleb128 0
 11157 2e70 00       		.byte	0
 11158 2e71 00       		.byte	0
 11159 2e72 00       		.byte	0
 11160 2e73 1E       		.uleb128 0x1e
 11161 2e74 AF000000 		.4byte	0xaf
 11162 2e78 832E0000 		.4byte	0x2e83
 11163 2e7c 1F       		.uleb128 0x1f
 11164 2e7d 93000000 		.4byte	0x93
 11165 2e81 27       		.byte	0x27
 11166 2e82 00       		.byte	0
 11167 2e83 07       		.uleb128 0x7
 11168 2e84 732E0000 		.4byte	0x2e73
 11169 2e88 30       		.uleb128 0x30
 11170 2e89 81120000 		.4byte	.LASF163
 11171 2e8d 01       		.byte	0x1
 11172 2e8e DE04     		.2byte	0x4de
 11173 2e90 00000000 		.4byte	.LFB14
 11174 2e94 4C000000 		.4byte	.LFE14-.LFB14
 11175 2e98 01       		.uleb128 0x1
 11176 2e99 9C       		.byte	0x9c
 11177 2e9a 432F0000 		.4byte	0x2f43
 11178 2e9e 13       		.uleb128 0x13
 11179 2e9f 7B020000 		.4byte	.LASF97
 11180 2ea3 01       		.byte	0x1
 11181 2ea4 DE04     		.2byte	0x4de
 11182 2ea6 33020000 		.4byte	0x233
 11183 2eaa 35200000 		.4byte	.LLST133
 11184 2eae 13       		.uleb128 0x13
 11185 2eaf 82030000 		.4byte	.LASF164
 11186 2eb3 01       		.byte	0x1
 11187 2eb4 DE04     		.2byte	0x4de
 11188 2eb6 FD000000 		.4byte	0xfd
 11189 2eba 85200000 		.4byte	.LLST134
 11190 2ebe 14       		.uleb128 0x14
 11191 2ebf BA0C0000 		.4byte	.LASF113
 11192 2ec3 532F0000 		.4byte	0x2f53
 11193 2ec7 05       		.uleb128 0x5
 11194 2ec8 03       		.byte	0x3
 11195 2ec9 84010000 		.4byte	__func__.8677
 11196 2ecd 15       		.uleb128 0x15
 11197 2ece 0C000000 		.4byte	.LBB92
 11198 2ed2 1E000000 		.4byte	.LBE92-.LBB92
 11199 2ed6 292F0000 		.4byte	0x2f29
 11200 2eda 16       		.uleb128 0x16
 11201 2edb 6C00     		.ascii	"l\000"
 11202 2edd 01       		.byte	0x1
 11203 2ede E304     		.2byte	0x4e3
ARM GAS  C:\Users\Phuong\AppData\Local\Temp\ccdTtd1y.s 			page 232


 11204 2ee0 32010000 		.4byte	0x132
 11205 2ee4 BF200000 		.4byte	.LLST135
 11206 2ee8 17       		.uleb128 0x17
 11207 2ee9 10000000 		.4byte	.LVL666
 11208 2eed 16320000 		.4byte	0x3216
 11209 2ef1 18       		.uleb128 0x18
 11210 2ef2 28000000 		.4byte	.LVL669
 11211 2ef6 02       		.uleb128 0x2
 11212 2ef7 74       		.byte	0x74
 11213 2ef8 00       		.sleb128 0
 11214 2ef9 19       		.uleb128 0x19
 11215 2efa 01       		.uleb128 0x1
 11216 2efb 50       		.byte	0x50
 11217 2efc 01       		.uleb128 0x1
 11218 2efd 30       		.byte	0x30
 11219 2efe 19       		.uleb128 0x19
 11220 2eff 01       		.uleb128 0x1
 11221 2f00 51       		.byte	0x51
 11222 2f01 05       		.uleb128 0x5
 11223 2f02 03       		.byte	0x3
 11224 2f03 00000000 		.4byte	.LC1
 11225 2f07 19       		.uleb128 0x19
 11226 2f08 01       		.uleb128 0x1
 11227 2f09 52       		.byte	0x52
 11228 2f0a 05       		.uleb128 0x5
 11229 2f0b 03       		.byte	0x3
 11230 2f0c 84010000 		.4byte	.LANCHOR3+4
 11231 2f10 19       		.uleb128 0x19
 11232 2f11 01       		.uleb128 0x1
 11233 2f12 53       		.byte	0x53
 11234 2f13 03       		.uleb128 0x3
 11235 2f14 0A       		.byte	0xa
 11236 2f15 E304     		.2byte	0x4e3
 11237 2f17 19       		.uleb128 0x19
 11238 2f18 02       		.uleb128 0x2
 11239 2f19 7D       		.byte	0x7d
 11240 2f1a 00       		.sleb128 0
 11241 2f1b 01       		.uleb128 0x1
 11242 2f1c 31       		.byte	0x31
 11243 2f1d 19       		.uleb128 0x19
 11244 2f1e 02       		.uleb128 0x2
 11245 2f1f 7D       		.byte	0x7d
 11246 2f20 04       		.sleb128 4
 11247 2f21 05       		.uleb128 0x5
 11248 2f22 03       		.byte	0x3
 11249 2f23 EC090000 		.4byte	.LC138
 11250 2f27 00       		.byte	0
 11251 2f28 00       		.byte	0
 11252 2f29 17       		.uleb128 0x17
 11253 2f2a 30000000 		.4byte	.LVL672
 11254 2f2e 3A340000 		.4byte	0x343a
 11255 2f32 24       		.uleb128 0x24
 11256 2f33 38000000 		.4byte	.LVL673
 11257 2f37 45340000 		.4byte	0x3445
 11258 2f3b 19       		.uleb128 0x19
 11259 2f3c 01       		.uleb128 0x1
 11260 2f3d 51       		.byte	0x51
ARM GAS  C:\Users\Phuong\AppData\Local\Temp\ccdTtd1y.s 			page 233


 11261 2f3e 02       		.uleb128 0x2
 11262 2f3f 75       		.byte	0x75
 11263 2f40 00       		.sleb128 0
 11264 2f41 00       		.byte	0
 11265 2f42 00       		.byte	0
 11266 2f43 1E       		.uleb128 0x1e
 11267 2f44 AF000000 		.4byte	0xaf
 11268 2f48 532F0000 		.4byte	0x2f53
 11269 2f4c 1F       		.uleb128 0x1f
 11270 2f4d 93000000 		.4byte	0x93
 11271 2f51 19       		.byte	0x19
 11272 2f52 00       		.byte	0
 11273 2f53 07       		.uleb128 0x7
 11274 2f54 432F0000 		.4byte	0x2f43
 11275 2f58 2C       		.uleb128 0x2c
 11276 2f59 A80F0000 		.4byte	.LASF165
 11277 2f5d 01       		.byte	0x1
 11278 2f5e EE04     		.2byte	0x4ee
 11279 2f60 3E000000 		.4byte	0x3e
 11280 2f64 00000000 		.4byte	.LFB15
 11281 2f68 94000000 		.4byte	.LFE15-.LFB15
 11282 2f6c 01       		.uleb128 0x1
 11283 2f6d 9C       		.byte	0x9c
 11284 2f6e 7C300000 		.4byte	0x307c
 11285 2f72 13       		.uleb128 0x13
 11286 2f73 7B020000 		.4byte	.LASF97
 11287 2f77 01       		.byte	0x1
 11288 2f78 EE04     		.2byte	0x4ee
 11289 2f7a 33020000 		.4byte	0x233
 11290 2f7e DD200000 		.4byte	.LLST136
 11291 2f82 13       		.uleb128 0x13
 11292 2f83 E50F0000 		.4byte	.LASF166
 11293 2f87 01       		.byte	0x1
 11294 2f88 EE04     		.2byte	0x4ee
 11295 2f8a A9000000 		.4byte	0xa9
 11296 2f8e 1F210000 		.4byte	.LLST137
 11297 2f92 21       		.uleb128 0x21
 11298 2f93 F8130000 		.4byte	.LASF114
 11299 2f97 01       		.byte	0x1
 11300 2f98 F004     		.2byte	0x4f0
 11301 2f9a 3E000000 		.4byte	0x3e
 11302 2f9e 01       		.uleb128 0x1
 11303 2f9f 50       		.byte	0x50
 11304 2fa0 14       		.uleb128 0x14
 11305 2fa1 BA0C0000 		.4byte	.LASF113
 11306 2fa5 8C300000 		.4byte	0x308c
 11307 2fa9 05       		.uleb128 0x5
 11308 2faa 03       		.byte	0x3
 11309 2fab A0010000 		.4byte	__func__.8686
 11310 2faf 15       		.uleb128 0x15
 11311 2fb0 10000000 		.4byte	.LBB93
 11312 2fb4 28000000 		.4byte	.LBE93-.LBB93
 11313 2fb8 16300000 		.4byte	0x3016
 11314 2fbc 16       		.uleb128 0x16
 11315 2fbd 6C00     		.ascii	"l\000"
 11316 2fbf 01       		.byte	0x1
 11317 2fc0 F704     		.2byte	0x4f7
ARM GAS  C:\Users\Phuong\AppData\Local\Temp\ccdTtd1y.s 			page 234


 11318 2fc2 32010000 		.4byte	0x132
 11319 2fc6 88210000 		.4byte	.LLST138
 11320 2fca 17       		.uleb128 0x17
 11321 2fcb 14000000 		.4byte	.LVL675
 11322 2fcf 16320000 		.4byte	0x3216
 11323 2fd3 1D       		.uleb128 0x1d
 11324 2fd4 38000000 		.4byte	.LVL679
 11325 2fd8 19       		.uleb128 0x19
 11326 2fd9 01       		.uleb128 0x1
 11327 2fda 50       		.byte	0x50
 11328 2fdb 01       		.uleb128 0x1
 11329 2fdc 30       		.byte	0x30
 11330 2fdd 19       		.uleb128 0x19
 11331 2fde 01       		.uleb128 0x1
 11332 2fdf 51       		.byte	0x51
 11333 2fe0 05       		.uleb128 0x5
 11334 2fe1 03       		.byte	0x3
 11335 2fe2 00000000 		.4byte	.LC1
 11336 2fe6 19       		.uleb128 0x19
 11337 2fe7 01       		.uleb128 0x1
 11338 2fe8 52       		.byte	0x52
 11339 2fe9 05       		.uleb128 0x5
 11340 2fea 03       		.byte	0x3
 11341 2feb A0010000 		.4byte	.LANCHOR3+32
 11342 2fef 19       		.uleb128 0x19
 11343 2ff0 01       		.uleb128 0x1
 11344 2ff1 53       		.byte	0x53
 11345 2ff2 03       		.uleb128 0x3
 11346 2ff3 0A       		.byte	0xa
 11347 2ff4 F804     		.2byte	0x4f8
 11348 2ff6 19       		.uleb128 0x19
 11349 2ff7 02       		.uleb128 0x2
 11350 2ff8 7D       		.byte	0x7d
 11351 2ff9 00       		.sleb128 0
 11352 2ffa 01       		.uleb128 0x1
 11353 2ffb 31       		.byte	0x31
 11354 2ffc 19       		.uleb128 0x19
 11355 2ffd 02       		.uleb128 0x2
 11356 2ffe 7D       		.byte	0x7d
 11357 2fff 04       		.sleb128 4
 11358 3000 05       		.uleb128 0x5
 11359 3001 03       		.byte	0x3
 11360 3002 440C0000 		.4byte	.LC185
 11361 3006 19       		.uleb128 0x19
 11362 3007 02       		.uleb128 0x2
 11363 3008 7D       		.byte	0x7d
 11364 3009 08       		.sleb128 8
 11365 300a 02       		.uleb128 0x2
 11366 300b 75       		.byte	0x75
 11367 300c 00       		.sleb128 0
 11368 300d 19       		.uleb128 0x19
 11369 300e 02       		.uleb128 0x2
 11370 300f 7D       		.byte	0x7d
 11371 3010 0C       		.sleb128 12
 11372 3011 02       		.uleb128 0x2
 11373 3012 74       		.byte	0x74
 11374 3013 00       		.sleb128 0
ARM GAS  C:\Users\Phuong\AppData\Local\Temp\ccdTtd1y.s 			page 235


 11375 3014 00       		.byte	0
 11376 3015 00       		.byte	0
 11377 3016 15       		.uleb128 0x15
 11378 3017 44000000 		.4byte	.LBB94
 11379 301b 1C000000 		.4byte	.LBE94-.LBB94
 11380 301f 72300000 		.4byte	0x3072
 11381 3023 16       		.uleb128 0x16
 11382 3024 6C00     		.ascii	"l\000"
 11383 3026 01       		.byte	0x1
 11384 3027 0305     		.2byte	0x503
 11385 3029 32010000 		.4byte	0x132
 11386 302d BC210000 		.4byte	.LLST139
 11387 3031 17       		.uleb128 0x17
 11388 3032 48000000 		.4byte	.LVL682
 11389 3036 16320000 		.4byte	0x3216
 11390 303a 18       		.uleb128 0x18
 11391 303b 60000000 		.4byte	.LVL685
 11392 303f 02       		.uleb128 0x2
 11393 3040 74       		.byte	0x74
 11394 3041 00       		.sleb128 0
 11395 3042 19       		.uleb128 0x19
 11396 3043 01       		.uleb128 0x1
 11397 3044 50       		.byte	0x50
 11398 3045 01       		.uleb128 0x1
 11399 3046 30       		.byte	0x30
 11400 3047 19       		.uleb128 0x19
 11401 3048 01       		.uleb128 0x1
 11402 3049 51       		.byte	0x51
 11403 304a 05       		.uleb128 0x5
 11404 304b 03       		.byte	0x3
 11405 304c 00000000 		.4byte	.LC1
 11406 3050 19       		.uleb128 0x19
 11407 3051 01       		.uleb128 0x1
 11408 3052 52       		.byte	0x52
 11409 3053 05       		.uleb128 0x5
 11410 3054 03       		.byte	0x3
 11411 3055 A0010000 		.4byte	.LANCHOR3+32
 11412 3059 19       		.uleb128 0x19
 11413 305a 01       		.uleb128 0x1
 11414 305b 53       		.byte	0x53
 11415 305c 03       		.uleb128 0x3
 11416 305d 0A       		.byte	0xa
 11417 305e 0305     		.2byte	0x503
 11418 3060 19       		.uleb128 0x19
 11419 3061 02       		.uleb128 0x2
 11420 3062 7D       		.byte	0x7d
 11421 3063 00       		.sleb128 0
 11422 3064 01       		.uleb128 0x1
 11423 3065 31       		.byte	0x31
 11424 3066 19       		.uleb128 0x19
 11425 3067 02       		.uleb128 0x2
 11426 3068 7D       		.byte	0x7d
 11427 3069 04       		.sleb128 4
 11428 306a 05       		.uleb128 0x5
 11429 306b 03       		.byte	0x3
 11430 306c E4060000 		.4byte	.LC93
 11431 3070 00       		.byte	0
ARM GAS  C:\Users\Phuong\AppData\Local\Temp\ccdTtd1y.s 			page 236


 11432 3071 00       		.byte	0
 11433 3072 17       		.uleb128 0x17
 11434 3073 40000000 		.4byte	.LVL681
 11435 3077 DA060000 		.4byte	0x6da
 11436 307b 00       		.byte	0
 11437 307c 1E       		.uleb128 0x1e
 11438 307d AF000000 		.4byte	0xaf
 11439 3081 8C300000 		.4byte	0x308c
 11440 3085 1F       		.uleb128 0x1f
 11441 3086 93000000 		.4byte	0x93
 11442 308a 31       		.byte	0x31
 11443 308b 00       		.byte	0
 11444 308c 07       		.uleb128 0x7
 11445 308d 7C300000 		.4byte	0x307c
 11446 3091 2C       		.uleb128 0x2c
 11447 3092 F5000000 		.4byte	.LASF167
 11448 3096 01       		.byte	0x1
 11449 3097 1005     		.2byte	0x510
 11450 3099 3E000000 		.4byte	0x3e
 11451 309d 00000000 		.4byte	.LFB16
 11452 30a1 94000000 		.4byte	.LFE16-.LFB16
 11453 30a5 01       		.uleb128 0x1
 11454 30a6 9C       		.byte	0x9c
 11455 30a7 B5310000 		.4byte	0x31b5
 11456 30ab 13       		.uleb128 0x13
 11457 30ac 7B020000 		.4byte	.LASF97
 11458 30b0 01       		.byte	0x1
 11459 30b1 1005     		.2byte	0x510
 11460 30b3 33020000 		.4byte	0x233
 11461 30b7 E5210000 		.4byte	.LLST140
 11462 30bb 13       		.uleb128 0x13
 11463 30bc 63090000 		.4byte	.LASF168
 11464 30c0 01       		.byte	0x1
 11465 30c1 1005     		.2byte	0x510
 11466 30c3 A9000000 		.4byte	0xa9
 11467 30c7 27220000 		.4byte	.LLST141
 11468 30cb 21       		.uleb128 0x21
 11469 30cc F8130000 		.4byte	.LASF114
 11470 30d0 01       		.byte	0x1
 11471 30d1 1205     		.2byte	0x512
 11472 30d3 3E000000 		.4byte	0x3e
 11473 30d7 01       		.uleb128 0x1
 11474 30d8 50       		.byte	0x50
 11475 30d9 14       		.uleb128 0x14
 11476 30da BA0C0000 		.4byte	.LASF113
 11477 30de C5310000 		.4byte	0x31c5
 11478 30e2 05       		.uleb128 0x5
 11479 30e3 03       		.byte	0x3
 11480 30e4 D4010000 		.4byte	__func__.8698
 11481 30e8 15       		.uleb128 0x15
 11482 30e9 10000000 		.4byte	.LBB95
 11483 30ed 26000000 		.4byte	.LBE95-.LBB95
 11484 30f1 4F310000 		.4byte	0x314f
 11485 30f5 16       		.uleb128 0x16
 11486 30f6 6C00     		.ascii	"l\000"
 11487 30f8 01       		.byte	0x1
 11488 30f9 1905     		.2byte	0x519
ARM GAS  C:\Users\Phuong\AppData\Local\Temp\ccdTtd1y.s 			page 237


 11489 30fb 32010000 		.4byte	0x132
 11490 30ff 90220000 		.4byte	.LLST142
 11491 3103 17       		.uleb128 0x17
 11492 3104 14000000 		.4byte	.LVL693
 11493 3108 16320000 		.4byte	0x3216
 11494 310c 1D       		.uleb128 0x1d
 11495 310d 36000000 		.4byte	.LVL697
 11496 3111 19       		.uleb128 0x19
 11497 3112 01       		.uleb128 0x1
 11498 3113 50       		.byte	0x50
 11499 3114 01       		.uleb128 0x1
 11500 3115 30       		.byte	0x30
 11501 3116 19       		.uleb128 0x19
 11502 3117 01       		.uleb128 0x1
 11503 3118 51       		.byte	0x51
 11504 3119 05       		.uleb128 0x5
 11505 311a 03       		.byte	0x3
 11506 311b 00000000 		.4byte	.LC1
 11507 311f 19       		.uleb128 0x19
 11508 3120 01       		.uleb128 0x1
 11509 3121 52       		.byte	0x52
 11510 3122 05       		.uleb128 0x5
 11511 3123 03       		.byte	0x3
 11512 3124 D4010000 		.4byte	.LANCHOR3+84
 11513 3128 19       		.uleb128 0x19
 11514 3129 01       		.uleb128 0x1
 11515 312a 53       		.byte	0x53
 11516 312b 03       		.uleb128 0x3
 11517 312c 0A       		.byte	0xa
 11518 312d 1A05     		.2byte	0x51a
 11519 312f 19       		.uleb128 0x19
 11520 3130 02       		.uleb128 0x2
 11521 3131 7D       		.byte	0x7d
 11522 3132 00       		.sleb128 0
 11523 3133 01       		.uleb128 0x1
 11524 3134 31       		.byte	0x31
 11525 3135 19       		.uleb128 0x19
 11526 3136 02       		.uleb128 0x2
 11527 3137 7D       		.byte	0x7d
 11528 3138 04       		.sleb128 4
 11529 3139 05       		.uleb128 0x5
 11530 313a 03       		.byte	0x3
 11531 313b 8C0C0000 		.4byte	.LC191
 11532 313f 19       		.uleb128 0x19
 11533 3140 02       		.uleb128 0x2
 11534 3141 7D       		.byte	0x7d
 11535 3142 08       		.sleb128 8
 11536 3143 02       		.uleb128 0x2
 11537 3144 75       		.byte	0x75
 11538 3145 00       		.sleb128 0
 11539 3146 19       		.uleb128 0x19
 11540 3147 02       		.uleb128 0x2
 11541 3148 7D       		.byte	0x7d
 11542 3149 0C       		.sleb128 12
 11543 314a 02       		.uleb128 0x2
 11544 314b 74       		.byte	0x74
 11545 314c 00       		.sleb128 0
ARM GAS  C:\Users\Phuong\AppData\Local\Temp\ccdTtd1y.s 			page 238


 11546 314d 00       		.byte	0
 11547 314e 00       		.byte	0
 11548 314f 15       		.uleb128 0x15
 11549 3150 42000000 		.4byte	.LBB96
 11550 3154 1C000000 		.4byte	.LBE96-.LBB96
 11551 3158 AB310000 		.4byte	0x31ab
 11552 315c 16       		.uleb128 0x16
 11553 315d 6C00     		.ascii	"l\000"
 11554 315f 01       		.byte	0x1
 11555 3160 2605     		.2byte	0x526
 11556 3162 32010000 		.4byte	0x132
 11557 3166 C4220000 		.4byte	.LLST143
 11558 316a 17       		.uleb128 0x17
 11559 316b 46000000 		.4byte	.LVL700
 11560 316f 16320000 		.4byte	0x3216
 11561 3173 18       		.uleb128 0x18
 11562 3174 5E000000 		.4byte	.LVL703
 11563 3178 02       		.uleb128 0x2
 11564 3179 74       		.byte	0x74
 11565 317a 00       		.sleb128 0
 11566 317b 19       		.uleb128 0x19
 11567 317c 01       		.uleb128 0x1
 11568 317d 50       		.byte	0x50
 11569 317e 01       		.uleb128 0x1
 11570 317f 30       		.byte	0x30
 11571 3180 19       		.uleb128 0x19
 11572 3181 01       		.uleb128 0x1
 11573 3182 51       		.byte	0x51
 11574 3183 05       		.uleb128 0x5
 11575 3184 03       		.byte	0x3
 11576 3185 00000000 		.4byte	.LC1
 11577 3189 19       		.uleb128 0x19
 11578 318a 01       		.uleb128 0x1
 11579 318b 52       		.byte	0x52
 11580 318c 05       		.uleb128 0x5
 11581 318d 03       		.byte	0x3
 11582 318e D4010000 		.4byte	.LANCHOR3+84
 11583 3192 19       		.uleb128 0x19
 11584 3193 01       		.uleb128 0x1
 11585 3194 53       		.byte	0x53
 11586 3195 03       		.uleb128 0x3
 11587 3196 0A       		.byte	0xa
 11588 3197 2605     		.2byte	0x526
 11589 3199 19       		.uleb128 0x19
 11590 319a 02       		.uleb128 0x2
 11591 319b 7D       		.byte	0x7d
 11592 319c 00       		.sleb128 0
 11593 319d 01       		.uleb128 0x1
 11594 319e 31       		.byte	0x31
 11595 319f 19       		.uleb128 0x19
 11596 31a0 02       		.uleb128 0x2
 11597 31a1 7D       		.byte	0x7d
 11598 31a2 04       		.sleb128 4
 11599 31a3 05       		.uleb128 0x5
 11600 31a4 03       		.byte	0x3
 11601 31a5 18070000 		.4byte	.LC97
 11602 31a9 00       		.byte	0
ARM GAS  C:\Users\Phuong\AppData\Local\Temp\ccdTtd1y.s 			page 239


 11603 31aa 00       		.byte	0
 11604 31ab 17       		.uleb128 0x17
 11605 31ac 3E000000 		.4byte	.LVL699
 11606 31b0 C8070000 		.4byte	0x7c8
 11607 31b4 00       		.byte	0
 11608 31b5 1E       		.uleb128 0x1e
 11609 31b6 AF000000 		.4byte	0xaf
 11610 31ba C5310000 		.4byte	0x31c5
 11611 31be 1F       		.uleb128 0x1f
 11612 31bf 93000000 		.4byte	0x93
 11613 31c3 38       		.byte	0x38
 11614 31c4 00       		.byte	0
 11615 31c5 07       		.uleb128 0x7
 11616 31c6 B5310000 		.4byte	0x31b5
 11617 31ca 1E       		.uleb128 0x1e
 11618 31cb AF000000 		.4byte	0xaf
 11619 31cf DA310000 		.4byte	0x31da
 11620 31d3 1F       		.uleb128 0x1f
 11621 31d4 93000000 		.4byte	0x93
 11622 31d8 07       		.byte	0x7
 11623 31d9 00       		.byte	0
 11624 31da 29       		.uleb128 0x29
 11625 31db 89080000 		.4byte	.LASF169
 11626 31df 01       		.byte	0x1
 11627 31e0 14       		.byte	0x14
 11628 31e1 EB310000 		.4byte	0x31eb
 11629 31e5 05       		.uleb128 0x5
 11630 31e6 03       		.byte	0x3
 11631 31e7 68080000 		.4byte	.LC105
 11632 31eb 07       		.uleb128 0x7
 11633 31ec CA310000 		.4byte	0x31ca
 11634 31f0 1E       		.uleb128 0x1e
 11635 31f1 AF000000 		.4byte	0xaf
 11636 31f5 00320000 		.4byte	0x3200
 11637 31f9 1F       		.uleb128 0x1f
 11638 31fa 93000000 		.4byte	0x93
 11639 31fe 09       		.byte	0x9
 11640 31ff 00       		.byte	0
 11641 3200 29       		.uleb128 0x29
 11642 3201 AF010000 		.4byte	.LASF170
 11643 3205 01       		.byte	0x1
 11644 3206 15       		.byte	0x15
 11645 3207 11320000 		.4byte	0x3211
 11646 320b 05       		.uleb128 0x5
 11647 320c 03       		.byte	0x3
 11648 320d 70080000 		.4byte	.LC109
 11649 3211 07       		.uleb128 0x7
 11650 3212 F0310000 		.4byte	0x31f0
 11651 3216 31       		.uleb128 0x31
 11652 3217 BF010000 		.4byte	.LASF171
 11653 321b BF010000 		.4byte	.LASF171
 11654 321f 06       		.byte	0x6
 11655 3220 9D       		.byte	0x9d
 11656 3221 31       		.uleb128 0x31
 11657 3222 CA090000 		.4byte	.LASF172
 11658 3226 CA090000 		.4byte	.LASF172
 11659 322a 0F       		.byte	0xf
ARM GAS  C:\Users\Phuong\AppData\Local\Temp\ccdTtd1y.s 			page 240


 11660 322b 6E       		.byte	0x6e
 11661 322c 31       		.uleb128 0x31
 11662 322d 8B020000 		.4byte	.LASF173
 11663 3231 8B020000 		.4byte	.LASF173
 11664 3235 10       		.byte	0x10
 11665 3236 59       		.byte	0x59
 11666 3237 31       		.uleb128 0x31
 11667 3238 62030000 		.4byte	.LASF174
 11668 323c 62030000 		.4byte	.LASF174
 11669 3240 05       		.byte	0x5
 11670 3241 31       		.byte	0x31
 11671 3242 31       		.uleb128 0x31
 11672 3243 C1060000 		.4byte	.LASF175
 11673 3247 C1060000 		.4byte	.LASF175
 11674 324b 05       		.byte	0x5
 11675 324c 2D       		.byte	0x2d
 11676 324d 31       		.uleb128 0x31
 11677 324e 3E130000 		.4byte	.LASF176
 11678 3252 3E130000 		.4byte	.LASF176
 11679 3256 11       		.byte	0x11
 11680 3257 18       		.byte	0x18
 11681 3258 31       		.uleb128 0x31
 11682 3259 90010000 		.4byte	.LASF177
 11683 325d 90010000 		.4byte	.LASF177
 11684 3261 05       		.byte	0x5
 11685 3262 2F       		.byte	0x2f
 11686 3263 31       		.uleb128 0x31
 11687 3264 5D010000 		.4byte	.LASF178
 11688 3268 5D010000 		.4byte	.LASF178
 11689 326c 07       		.byte	0x7
 11690 326d 4A       		.byte	0x4a
 11691 326e 31       		.uleb128 0x31
 11692 326f 23120000 		.4byte	.LASF179
 11693 3273 23120000 		.4byte	.LASF179
 11694 3277 07       		.byte	0x7
 11695 3278 40       		.byte	0x40
 11696 3279 31       		.uleb128 0x31
 11697 327a 190B0000 		.4byte	.LASF180
 11698 327e 190B0000 		.4byte	.LASF180
 11699 3282 05       		.byte	0x5
 11700 3283 2E       		.byte	0x2e
 11701 3284 31       		.uleb128 0x31
 11702 3285 370A0000 		.4byte	.LASF181
 11703 3289 370A0000 		.4byte	.LASF181
 11704 328d 11       		.byte	0x11
 11705 328e 17       		.byte	0x17
 11706 328f 31       		.uleb128 0x31
 11707 3290 22130000 		.4byte	.LASF182
 11708 3294 22130000 		.4byte	.LASF182
 11709 3298 11       		.byte	0x11
 11710 3299 16       		.byte	0x16
 11711 329a 31       		.uleb128 0x31
 11712 329b 58120000 		.4byte	.LASF183
 11713 329f 58120000 		.4byte	.LASF183
 11714 32a3 07       		.byte	0x7
 11715 32a4 55       		.byte	0x55
 11716 32a5 31       		.uleb128 0x31
ARM GAS  C:\Users\Phuong\AppData\Local\Temp\ccdTtd1y.s 			page 241


 11717 32a6 A6030000 		.4byte	.LASF184
 11718 32aa A6030000 		.4byte	.LASF184
 11719 32ae 07       		.byte	0x7
 11720 32af 30       		.byte	0x30
 11721 32b0 31       		.uleb128 0x31
 11722 32b1 3B100000 		.4byte	.LASF185
 11723 32b5 3B100000 		.4byte	.LASF185
 11724 32b9 07       		.byte	0x7
 11725 32ba 3F       		.byte	0x3f
 11726 32bb 31       		.uleb128 0x31
 11727 32bc E2120000 		.4byte	.LASF186
 11728 32c0 E2120000 		.4byte	.LASF186
 11729 32c4 09       		.byte	0x9
 11730 32c5 2B       		.byte	0x2b
 11731 32c6 31       		.uleb128 0x31
 11732 32c7 1C0C0000 		.4byte	.LASF187
 11733 32cb 1C0C0000 		.4byte	.LASF187
 11734 32cf 07       		.byte	0x7
 11735 32d0 2A       		.byte	0x2a
 11736 32d1 31       		.uleb128 0x31
 11737 32d2 53100000 		.4byte	.LASF188
 11738 32d6 53100000 		.4byte	.LASF188
 11739 32da 07       		.byte	0x7
 11740 32db 6A       		.byte	0x6a
 11741 32dc 31       		.uleb128 0x31
 11742 32dd 490C0000 		.4byte	.LASF189
 11743 32e1 490C0000 		.4byte	.LASF189
 11744 32e5 09       		.byte	0x9
 11745 32e6 1C       		.byte	0x1c
 11746 32e7 31       		.uleb128 0x31
 11747 32e8 050C0000 		.4byte	.LASF190
 11748 32ec 050C0000 		.4byte	.LASF190
 11749 32f0 0A       		.byte	0xa
 11750 32f1 35       		.byte	0x35
 11751 32f2 31       		.uleb128 0x31
 11752 32f3 D5130000 		.4byte	.LASF191
 11753 32f7 D5130000 		.4byte	.LASF191
 11754 32fb 0A       		.byte	0xa
 11755 32fc 37       		.byte	0x37
 11756 32fd 31       		.uleb128 0x31
 11757 32fe BA100000 		.4byte	.LASF192
 11758 3302 BA100000 		.4byte	.LASF192
 11759 3306 07       		.byte	0x7
 11760 3307 49       		.byte	0x49
 11761 3308 31       		.uleb128 0x31
 11762 3309 A8020000 		.4byte	.LASF193
 11763 330d A8020000 		.4byte	.LASF193
 11764 3311 12       		.byte	0x12
 11765 3312 1B       		.byte	0x1b
 11766 3313 31       		.uleb128 0x31
 11767 3314 D3070000 		.4byte	.LASF194
 11768 3318 D3070000 		.4byte	.LASF194
 11769 331c 09       		.byte	0x9
 11770 331d 22       		.byte	0x22
 11771 331e 31       		.uleb128 0x31
 11772 331f 6A120000 		.4byte	.LASF195
 11773 3323 6A120000 		.4byte	.LASF195
ARM GAS  C:\Users\Phuong\AppData\Local\Temp\ccdTtd1y.s 			page 242


 11774 3327 0A       		.byte	0xa
 11775 3328 34       		.byte	0x34
 11776 3329 31       		.uleb128 0x31
 11777 332a F30B0000 		.4byte	.LASF196
 11778 332e F30B0000 		.4byte	.LASF196
 11779 3332 09       		.byte	0x9
 11780 3333 1A       		.byte	0x1a
 11781 3334 32       		.uleb128 0x32
 11782 3335 30080000 		.4byte	.LASF226
 11783 3339 30080000 		.4byte	.LASF226
 11784 333d 31       		.uleb128 0x31
 11785 333e 15000000 		.4byte	.LASF197
 11786 3342 15000000 		.4byte	.LASF197
 11787 3346 10       		.byte	0x10
 11788 3347 64       		.byte	0x64
 11789 3348 31       		.uleb128 0x31
 11790 3349 B8120000 		.4byte	.LASF198
 11791 334d B8120000 		.4byte	.LASF198
 11792 3351 0C       		.byte	0xc
 11793 3352 39       		.byte	0x39
 11794 3353 31       		.uleb128 0x31
 11795 3354 F20E0000 		.4byte	.LASF199
 11796 3358 F20E0000 		.4byte	.LASF199
 11797 335c 0D       		.byte	0xd
 11798 335d 29       		.byte	0x29
 11799 335e 31       		.uleb128 0x31
 11800 335f 240F0000 		.4byte	.LASF200
 11801 3363 240F0000 		.4byte	.LASF200
 11802 3367 0E       		.byte	0xe
 11803 3368 20       		.byte	0x20
 11804 3369 31       		.uleb128 0x31
 11805 336a B6000000 		.4byte	.LASF201
 11806 336e B6000000 		.4byte	.LASF201
 11807 3372 0C       		.byte	0xc
 11808 3373 3B       		.byte	0x3b
 11809 3374 31       		.uleb128 0x31
 11810 3375 32090000 		.4byte	.LASF202
 11811 3379 32090000 		.4byte	.LASF202
 11812 337d 0D       		.byte	0xd
 11813 337e 2A       		.byte	0x2a
 11814 337f 31       		.uleb128 0x31
 11815 3380 03070000 		.4byte	.LASF203
 11816 3384 03070000 		.4byte	.LASF203
 11817 3388 13       		.byte	0x13
 11818 3389 21       		.byte	0x21
 11819 338a 31       		.uleb128 0x31
 11820 338b A2100000 		.4byte	.LASF204
 11821 338f A2100000 		.4byte	.LASF204
 11822 3393 11       		.byte	0x11
 11823 3394 13       		.byte	0x13
 11824 3395 31       		.uleb128 0x31
 11825 3396 0B120000 		.4byte	.LASF205
 11826 339a 0B120000 		.4byte	.LASF205
 11827 339e 11       		.byte	0x11
 11828 339f 12       		.byte	0x12
 11829 33a0 31       		.uleb128 0x31
 11830 33a1 5D0B0000 		.4byte	.LASF206
ARM GAS  C:\Users\Phuong\AppData\Local\Temp\ccdTtd1y.s 			page 243


 11831 33a5 5D0B0000 		.4byte	.LASF206
 11832 33a9 05       		.byte	0x5
 11833 33aa 29       		.byte	0x29
 11834 33ab 31       		.uleb128 0x31
 11835 33ac 3A040000 		.4byte	.LASF207
 11836 33b0 3A040000 		.4byte	.LASF207
 11837 33b4 05       		.byte	0x5
 11838 33b5 2A       		.byte	0x2a
 11839 33b6 31       		.uleb128 0x31
 11840 33b7 7E0F0000 		.4byte	.LASF208
 11841 33bb 7E0F0000 		.4byte	.LASF208
 11842 33bf 0E       		.byte	0xe
 11843 33c0 22       		.byte	0x22
 11844 33c1 31       		.uleb128 0x31
 11845 33c2 53080000 		.4byte	.LASF209
 11846 33c6 53080000 		.4byte	.LASF209
 11847 33ca 0D       		.byte	0xd
 11848 33cb 2B       		.byte	0x2b
 11849 33cc 31       		.uleb128 0x31
 11850 33cd 0F0A0000 		.4byte	.LASF210
 11851 33d1 0F0A0000 		.4byte	.LASF210
 11852 33d5 0E       		.byte	0xe
 11853 33d6 23       		.byte	0x23
 11854 33d7 31       		.uleb128 0x31
 11855 33d8 8E100000 		.4byte	.LASF211
 11856 33dc 8E100000 		.4byte	.LASF211
 11857 33e0 0D       		.byte	0xd
 11858 33e1 2C       		.byte	0x2c
 11859 33e2 31       		.uleb128 0x31
 11860 33e3 A0130000 		.4byte	.LASF212
 11861 33e7 A0130000 		.4byte	.LASF212
 11862 33eb 0E       		.byte	0xe
 11863 33ec 21       		.byte	0x21
 11864 33ed 31       		.uleb128 0x31
 11865 33ee 930F0000 		.4byte	.LASF213
 11866 33f2 930F0000 		.4byte	.LASF213
 11867 33f6 05       		.byte	0x5
 11868 33f7 2B       		.byte	0x2b
 11869 33f8 31       		.uleb128 0x31
 11870 33f9 F80D0000 		.4byte	.LASF214
 11871 33fd F80D0000 		.4byte	.LASF214
 11872 3401 0D       		.byte	0xd
 11873 3402 2D       		.byte	0x2d
 11874 3403 31       		.uleb128 0x31
 11875 3404 D90A0000 		.4byte	.LASF215
 11876 3408 D90A0000 		.4byte	.LASF215
 11877 340c 0A       		.byte	0xa
 11878 340d 2B       		.byte	0x2b
 11879 340e 31       		.uleb128 0x31
 11880 340f 3E070000 		.4byte	.LASF216
 11881 3413 3E070000 		.4byte	.LASF216
 11882 3417 0A       		.byte	0xa
 11883 3418 2C       		.byte	0x2c
 11884 3419 31       		.uleb128 0x31
 11885 341a AE080000 		.4byte	.LASF217
 11886 341e AE080000 		.4byte	.LASF217
 11887 3422 07       		.byte	0x7
ARM GAS  C:\Users\Phuong\AppData\Local\Temp\ccdTtd1y.s 			page 244


 11888 3423 48       		.byte	0x48
 11889 3424 31       		.uleb128 0x31
 11890 3425 5C0C0000 		.4byte	.LASF218
 11891 3429 5C0C0000 		.4byte	.LASF218
 11892 342d 0A       		.byte	0xa
 11893 342e 36       		.byte	0x36
 11894 342f 31       		.uleb128 0x31
 11895 3430 F6100000 		.4byte	.LASF219
 11896 3434 F6100000 		.4byte	.LASF219
 11897 3438 0A       		.byte	0xa
 11898 3439 2D       		.byte	0x2d
 11899 343a 31       		.uleb128 0x31
 11900 343b 070F0000 		.4byte	.LASF220
 11901 343f 070F0000 		.4byte	.LASF220
 11902 3443 0D       		.byte	0xd
 11903 3444 2E       		.byte	0x2e
 11904 3445 31       		.uleb128 0x31
 11905 3446 E2020000 		.4byte	.LASF221
 11906 344a E2020000 		.4byte	.LASF221
 11907 344e 0E       		.byte	0xe
 11908 344f 27       		.byte	0x27
 11909 3450 00       		.byte	0
 11910              		.section	.debug_abbrev,"",%progbits
 11911              	.Ldebug_abbrev0:
 11912 0000 01       		.uleb128 0x1
 11913 0001 11       		.uleb128 0x11
 11914 0002 01       		.byte	0x1
 11915 0003 25       		.uleb128 0x25
 11916 0004 0E       		.uleb128 0xe
 11917 0005 13       		.uleb128 0x13
 11918 0006 0B       		.uleb128 0xb
 11919 0007 03       		.uleb128 0x3
 11920 0008 0E       		.uleb128 0xe
 11921 0009 1B       		.uleb128 0x1b
 11922 000a 0E       		.uleb128 0xe
 11923 000b 55       		.uleb128 0x55
 11924 000c 17       		.uleb128 0x17
 11925 000d 11       		.uleb128 0x11
 11926 000e 01       		.uleb128 0x1
 11927 000f 10       		.uleb128 0x10
 11928 0010 17       		.uleb128 0x17
 11929 0011 00       		.byte	0
 11930 0012 00       		.byte	0
 11931 0013 02       		.uleb128 0x2
 11932 0014 24       		.uleb128 0x24
 11933 0015 00       		.byte	0
 11934 0016 0B       		.uleb128 0xb
 11935 0017 0B       		.uleb128 0xb
 11936 0018 3E       		.uleb128 0x3e
 11937 0019 0B       		.uleb128 0xb
 11938 001a 03       		.uleb128 0x3
 11939 001b 0E       		.uleb128 0xe
 11940 001c 00       		.byte	0
 11941 001d 00       		.byte	0
 11942 001e 03       		.uleb128 0x3
 11943 001f 16       		.uleb128 0x16
 11944 0020 00       		.byte	0
ARM GAS  C:\Users\Phuong\AppData\Local\Temp\ccdTtd1y.s 			page 245


 11945 0021 03       		.uleb128 0x3
 11946 0022 0E       		.uleb128 0xe
 11947 0023 3A       		.uleb128 0x3a
 11948 0024 0B       		.uleb128 0xb
 11949 0025 3B       		.uleb128 0x3b
 11950 0026 0B       		.uleb128 0xb
 11951 0027 49       		.uleb128 0x49
 11952 0028 13       		.uleb128 0x13
 11953 0029 00       		.byte	0
 11954 002a 00       		.byte	0
 11955 002b 04       		.uleb128 0x4
 11956 002c 24       		.uleb128 0x24
 11957 002d 00       		.byte	0
 11958 002e 0B       		.uleb128 0xb
 11959 002f 0B       		.uleb128 0xb
 11960 0030 3E       		.uleb128 0x3e
 11961 0031 0B       		.uleb128 0xb
 11962 0032 03       		.uleb128 0x3
 11963 0033 08       		.uleb128 0x8
 11964 0034 00       		.byte	0
 11965 0035 00       		.byte	0
 11966 0036 05       		.uleb128 0x5
 11967 0037 0F       		.uleb128 0xf
 11968 0038 00       		.byte	0
 11969 0039 0B       		.uleb128 0xb
 11970 003a 0B       		.uleb128 0xb
 11971 003b 00       		.byte	0
 11972 003c 00       		.byte	0
 11973 003d 06       		.uleb128 0x6
 11974 003e 0F       		.uleb128 0xf
 11975 003f 00       		.byte	0
 11976 0040 0B       		.uleb128 0xb
 11977 0041 0B       		.uleb128 0xb
 11978 0042 49       		.uleb128 0x49
 11979 0043 13       		.uleb128 0x13
 11980 0044 00       		.byte	0
 11981 0045 00       		.byte	0
 11982 0046 07       		.uleb128 0x7
 11983 0047 26       		.uleb128 0x26
 11984 0048 00       		.byte	0
 11985 0049 49       		.uleb128 0x49
 11986 004a 13       		.uleb128 0x13
 11987 004b 00       		.byte	0
 11988 004c 00       		.byte	0
 11989 004d 08       		.uleb128 0x8
 11990 004e 26       		.uleb128 0x26
 11991 004f 00       		.byte	0
 11992 0050 00       		.byte	0
 11993 0051 00       		.byte	0
 11994 0052 09       		.uleb128 0x9
 11995 0053 13       		.uleb128 0x13
 11996 0054 00       		.byte	0
 11997 0055 03       		.uleb128 0x3
 11998 0056 0E       		.uleb128 0xe
 11999 0057 3C       		.uleb128 0x3c
 12000 0058 19       		.uleb128 0x19
 12001 0059 00       		.byte	0
ARM GAS  C:\Users\Phuong\AppData\Local\Temp\ccdTtd1y.s 			page 246


 12002 005a 00       		.byte	0
 12003 005b 0A       		.uleb128 0xa
 12004 005c 04       		.uleb128 0x4
 12005 005d 01       		.byte	0x1
 12006 005e 03       		.uleb128 0x3
 12007 005f 0E       		.uleb128 0xe
 12008 0060 0B       		.uleb128 0xb
 12009 0061 0B       		.uleb128 0xb
 12010 0062 49       		.uleb128 0x49
 12011 0063 13       		.uleb128 0x13
 12012 0064 3A       		.uleb128 0x3a
 12013 0065 0B       		.uleb128 0xb
 12014 0066 3B       		.uleb128 0x3b
 12015 0067 0B       		.uleb128 0xb
 12016 0068 01       		.uleb128 0x1
 12017 0069 13       		.uleb128 0x13
 12018 006a 00       		.byte	0
 12019 006b 00       		.byte	0
 12020 006c 0B       		.uleb128 0xb
 12021 006d 28       		.uleb128 0x28
 12022 006e 00       		.byte	0
 12023 006f 03       		.uleb128 0x3
 12024 0070 0E       		.uleb128 0xe
 12025 0071 1C       		.uleb128 0x1c
 12026 0072 0B       		.uleb128 0xb
 12027 0073 00       		.byte	0
 12028 0074 00       		.byte	0
 12029 0075 0C       		.uleb128 0xc
 12030 0076 15       		.uleb128 0x15
 12031 0077 01       		.byte	0x1
 12032 0078 27       		.uleb128 0x27
 12033 0079 19       		.uleb128 0x19
 12034 007a 01       		.uleb128 0x1
 12035 007b 13       		.uleb128 0x13
 12036 007c 00       		.byte	0
 12037 007d 00       		.byte	0
 12038 007e 0D       		.uleb128 0xd
 12039 007f 05       		.uleb128 0x5
 12040 0080 00       		.byte	0
 12041 0081 49       		.uleb128 0x49
 12042 0082 13       		.uleb128 0x13
 12043 0083 00       		.byte	0
 12044 0084 00       		.byte	0
 12045 0085 0E       		.uleb128 0xe
 12046 0086 18       		.uleb128 0x18
 12047 0087 00       		.byte	0
 12048 0088 00       		.byte	0
 12049 0089 00       		.byte	0
 12050 008a 0F       		.uleb128 0xf
 12051 008b 13       		.uleb128 0x13
 12052 008c 01       		.byte	0x1
 12053 008d 03       		.uleb128 0x3
 12054 008e 0E       		.uleb128 0xe
 12055 008f 0B       		.uleb128 0xb
 12056 0090 0B       		.uleb128 0xb
 12057 0091 3A       		.uleb128 0x3a
 12058 0092 0B       		.uleb128 0xb
ARM GAS  C:\Users\Phuong\AppData\Local\Temp\ccdTtd1y.s 			page 247


 12059 0093 3B       		.uleb128 0x3b
 12060 0094 0B       		.uleb128 0xb
 12061 0095 01       		.uleb128 0x1
 12062 0096 13       		.uleb128 0x13
 12063 0097 00       		.byte	0
 12064 0098 00       		.byte	0
 12065 0099 10       		.uleb128 0x10
 12066 009a 0D       		.uleb128 0xd
 12067 009b 00       		.byte	0
 12068 009c 03       		.uleb128 0x3
 12069 009d 0E       		.uleb128 0xe
 12070 009e 3A       		.uleb128 0x3a
 12071 009f 0B       		.uleb128 0xb
 12072 00a0 3B       		.uleb128 0x3b
 12073 00a1 0B       		.uleb128 0xb
 12074 00a2 49       		.uleb128 0x49
 12075 00a3 13       		.uleb128 0x13
 12076 00a4 38       		.uleb128 0x38
 12077 00a5 0B       		.uleb128 0xb
 12078 00a6 00       		.byte	0
 12079 00a7 00       		.byte	0
 12080 00a8 11       		.uleb128 0x11
 12081 00a9 0D       		.uleb128 0xd
 12082 00aa 00       		.byte	0
 12083 00ab 03       		.uleb128 0x3
 12084 00ac 0E       		.uleb128 0xe
 12085 00ad 3A       		.uleb128 0x3a
 12086 00ae 0B       		.uleb128 0xb
 12087 00af 3B       		.uleb128 0x3b
 12088 00b0 0B       		.uleb128 0xb
 12089 00b1 49       		.uleb128 0x49
 12090 00b2 13       		.uleb128 0x13
 12091 00b3 0B       		.uleb128 0xb
 12092 00b4 0B       		.uleb128 0xb
 12093 00b5 0D       		.uleb128 0xd
 12094 00b6 0B       		.uleb128 0xb
 12095 00b7 0C       		.uleb128 0xc
 12096 00b8 0B       		.uleb128 0xb
 12097 00b9 38       		.uleb128 0x38
 12098 00ba 0B       		.uleb128 0xb
 12099 00bb 00       		.byte	0
 12100 00bc 00       		.byte	0
 12101 00bd 12       		.uleb128 0x12
 12102 00be 2E       		.uleb128 0x2e
 12103 00bf 01       		.byte	0x1
 12104 00c0 03       		.uleb128 0x3
 12105 00c1 0E       		.uleb128 0xe
 12106 00c2 3A       		.uleb128 0x3a
 12107 00c3 0B       		.uleb128 0xb
 12108 00c4 3B       		.uleb128 0x3b
 12109 00c5 05       		.uleb128 0x5
 12110 00c6 27       		.uleb128 0x27
 12111 00c7 19       		.uleb128 0x19
 12112 00c8 11       		.uleb128 0x11
 12113 00c9 01       		.uleb128 0x1
 12114 00ca 12       		.uleb128 0x12
 12115 00cb 06       		.uleb128 0x6
ARM GAS  C:\Users\Phuong\AppData\Local\Temp\ccdTtd1y.s 			page 248


 12116 00cc 40       		.uleb128 0x40
 12117 00cd 18       		.uleb128 0x18
 12118 00ce 9642     		.uleb128 0x2116
 12119 00d0 19       		.uleb128 0x19
 12120 00d1 01       		.uleb128 0x1
 12121 00d2 13       		.uleb128 0x13
 12122 00d3 00       		.byte	0
 12123 00d4 00       		.byte	0
 12124 00d5 13       		.uleb128 0x13
 12125 00d6 05       		.uleb128 0x5
 12126 00d7 00       		.byte	0
 12127 00d8 03       		.uleb128 0x3
 12128 00d9 0E       		.uleb128 0xe
 12129 00da 3A       		.uleb128 0x3a
 12130 00db 0B       		.uleb128 0xb
 12131 00dc 3B       		.uleb128 0x3b
 12132 00dd 05       		.uleb128 0x5
 12133 00de 49       		.uleb128 0x49
 12134 00df 13       		.uleb128 0x13
 12135 00e0 02       		.uleb128 0x2
 12136 00e1 17       		.uleb128 0x17
 12137 00e2 00       		.byte	0
 12138 00e3 00       		.byte	0
 12139 00e4 14       		.uleb128 0x14
 12140 00e5 34       		.uleb128 0x34
 12141 00e6 00       		.byte	0
 12142 00e7 03       		.uleb128 0x3
 12143 00e8 0E       		.uleb128 0xe
 12144 00e9 49       		.uleb128 0x49
 12145 00ea 13       		.uleb128 0x13
 12146 00eb 34       		.uleb128 0x34
 12147 00ec 19       		.uleb128 0x19
 12148 00ed 02       		.uleb128 0x2
 12149 00ee 18       		.uleb128 0x18
 12150 00ef 00       		.byte	0
 12151 00f0 00       		.byte	0
 12152 00f1 15       		.uleb128 0x15
 12153 00f2 0B       		.uleb128 0xb
 12154 00f3 01       		.byte	0x1
 12155 00f4 11       		.uleb128 0x11
 12156 00f5 01       		.uleb128 0x1
 12157 00f6 12       		.uleb128 0x12
 12158 00f7 06       		.uleb128 0x6
 12159 00f8 01       		.uleb128 0x1
 12160 00f9 13       		.uleb128 0x13
 12161 00fa 00       		.byte	0
 12162 00fb 00       		.byte	0
 12163 00fc 16       		.uleb128 0x16
 12164 00fd 34       		.uleb128 0x34
 12165 00fe 00       		.byte	0
 12166 00ff 03       		.uleb128 0x3
 12167 0100 08       		.uleb128 0x8
 12168 0101 3A       		.uleb128 0x3a
 12169 0102 0B       		.uleb128 0xb
 12170 0103 3B       		.uleb128 0x3b
 12171 0104 05       		.uleb128 0x5
 12172 0105 49       		.uleb128 0x49
ARM GAS  C:\Users\Phuong\AppData\Local\Temp\ccdTtd1y.s 			page 249


 12173 0106 13       		.uleb128 0x13
 12174 0107 02       		.uleb128 0x2
 12175 0108 17       		.uleb128 0x17
 12176 0109 00       		.byte	0
 12177 010a 00       		.byte	0
 12178 010b 17       		.uleb128 0x17
 12179 010c 898201   		.uleb128 0x4109
 12180 010f 00       		.byte	0
 12181 0110 11       		.uleb128 0x11
 12182 0111 01       		.uleb128 0x1
 12183 0112 31       		.uleb128 0x31
 12184 0113 13       		.uleb128 0x13
 12185 0114 00       		.byte	0
 12186 0115 00       		.byte	0
 12187 0116 18       		.uleb128 0x18
 12188 0117 898201   		.uleb128 0x4109
 12189 011a 01       		.byte	0x1
 12190 011b 11       		.uleb128 0x11
 12191 011c 01       		.uleb128 0x1
 12192 011d 9342     		.uleb128 0x2113
 12193 011f 18       		.uleb128 0x18
 12194 0120 00       		.byte	0
 12195 0121 00       		.byte	0
 12196 0122 19       		.uleb128 0x19
 12197 0123 8A8201   		.uleb128 0x410a
 12198 0126 00       		.byte	0
 12199 0127 02       		.uleb128 0x2
 12200 0128 18       		.uleb128 0x18
 12201 0129 9142     		.uleb128 0x2111
 12202 012b 18       		.uleb128 0x18
 12203 012c 00       		.byte	0
 12204 012d 00       		.byte	0
 12205 012e 1A       		.uleb128 0x1a
 12206 012f 0B       		.uleb128 0xb
 12207 0130 01       		.byte	0x1
 12208 0131 11       		.uleb128 0x11
 12209 0132 01       		.uleb128 0x1
 12210 0133 12       		.uleb128 0x12
 12211 0134 06       		.uleb128 0x6
 12212 0135 00       		.byte	0
 12213 0136 00       		.byte	0
 12214 0137 1B       		.uleb128 0x1b
 12215 0138 34       		.uleb128 0x34
 12216 0139 00       		.byte	0
 12217 013a 03       		.uleb128 0x3
 12218 013b 0E       		.uleb128 0xe
 12219 013c 3A       		.uleb128 0x3a
 12220 013d 0B       		.uleb128 0xb
 12221 013e 3B       		.uleb128 0x3b
 12222 013f 05       		.uleb128 0x5
 12223 0140 49       		.uleb128 0x49
 12224 0141 13       		.uleb128 0x13
 12225 0142 02       		.uleb128 0x2
 12226 0143 17       		.uleb128 0x17
 12227 0144 00       		.byte	0
 12228 0145 00       		.byte	0
 12229 0146 1C       		.uleb128 0x1c
ARM GAS  C:\Users\Phuong\AppData\Local\Temp\ccdTtd1y.s 			page 250


 12230 0147 898201   		.uleb128 0x4109
 12231 014a 01       		.byte	0x1
 12232 014b 11       		.uleb128 0x11
 12233 014c 01       		.uleb128 0x1
 12234 014d 01       		.uleb128 0x1
 12235 014e 13       		.uleb128 0x13
 12236 014f 00       		.byte	0
 12237 0150 00       		.byte	0
 12238 0151 1D       		.uleb128 0x1d
 12239 0152 898201   		.uleb128 0x4109
 12240 0155 01       		.byte	0x1
 12241 0156 11       		.uleb128 0x11
 12242 0157 01       		.uleb128 0x1
 12243 0158 00       		.byte	0
 12244 0159 00       		.byte	0
 12245 015a 1E       		.uleb128 0x1e
 12246 015b 01       		.uleb128 0x1
 12247 015c 01       		.byte	0x1
 12248 015d 49       		.uleb128 0x49
 12249 015e 13       		.uleb128 0x13
 12250 015f 01       		.uleb128 0x1
 12251 0160 13       		.uleb128 0x13
 12252 0161 00       		.byte	0
 12253 0162 00       		.byte	0
 12254 0163 1F       		.uleb128 0x1f
 12255 0164 21       		.uleb128 0x21
 12256 0165 00       		.byte	0
 12257 0166 49       		.uleb128 0x49
 12258 0167 13       		.uleb128 0x13
 12259 0168 2F       		.uleb128 0x2f
 12260 0169 0B       		.uleb128 0xb
 12261 016a 00       		.byte	0
 12262 016b 00       		.byte	0
 12263 016c 20       		.uleb128 0x20
 12264 016d 2E       		.uleb128 0x2e
 12265 016e 01       		.byte	0x1
 12266 016f 03       		.uleb128 0x3
 12267 0170 0E       		.uleb128 0xe
 12268 0171 3A       		.uleb128 0x3a
 12269 0172 0B       		.uleb128 0xb
 12270 0173 3B       		.uleb128 0x3b
 12271 0174 05       		.uleb128 0x5
 12272 0175 27       		.uleb128 0x27
 12273 0176 19       		.uleb128 0x19
 12274 0177 49       		.uleb128 0x49
 12275 0178 13       		.uleb128 0x13
 12276 0179 11       		.uleb128 0x11
 12277 017a 01       		.uleb128 0x1
 12278 017b 12       		.uleb128 0x12
 12279 017c 06       		.uleb128 0x6
 12280 017d 40       		.uleb128 0x40
 12281 017e 18       		.uleb128 0x18
 12282 017f 9742     		.uleb128 0x2117
 12283 0181 19       		.uleb128 0x19
 12284 0182 01       		.uleb128 0x1
 12285 0183 13       		.uleb128 0x13
 12286 0184 00       		.byte	0
ARM GAS  C:\Users\Phuong\AppData\Local\Temp\ccdTtd1y.s 			page 251


 12287 0185 00       		.byte	0
 12288 0186 21       		.uleb128 0x21
 12289 0187 34       		.uleb128 0x34
 12290 0188 00       		.byte	0
 12291 0189 03       		.uleb128 0x3
 12292 018a 0E       		.uleb128 0xe
 12293 018b 3A       		.uleb128 0x3a
 12294 018c 0B       		.uleb128 0xb
 12295 018d 3B       		.uleb128 0x3b
 12296 018e 05       		.uleb128 0x5
 12297 018f 49       		.uleb128 0x49
 12298 0190 13       		.uleb128 0x13
 12299 0191 02       		.uleb128 0x2
 12300 0192 18       		.uleb128 0x18
 12301 0193 00       		.byte	0
 12302 0194 00       		.byte	0
 12303 0195 22       		.uleb128 0x22
 12304 0196 898201   		.uleb128 0x4109
 12305 0199 01       		.byte	0x1
 12306 019a 11       		.uleb128 0x11
 12307 019b 01       		.uleb128 0x1
 12308 019c 31       		.uleb128 0x31
 12309 019d 13       		.uleb128 0x13
 12310 019e 01       		.uleb128 0x1
 12311 019f 13       		.uleb128 0x13
 12312 01a0 00       		.byte	0
 12313 01a1 00       		.byte	0
 12314 01a2 23       		.uleb128 0x23
 12315 01a3 898201   		.uleb128 0x4109
 12316 01a6 01       		.byte	0x1
 12317 01a7 11       		.uleb128 0x11
 12318 01a8 01       		.uleb128 0x1
 12319 01a9 9342     		.uleb128 0x2113
 12320 01ab 18       		.uleb128 0x18
 12321 01ac 01       		.uleb128 0x1
 12322 01ad 13       		.uleb128 0x13
 12323 01ae 00       		.byte	0
 12324 01af 00       		.byte	0
 12325 01b0 24       		.uleb128 0x24
 12326 01b1 898201   		.uleb128 0x4109
 12327 01b4 01       		.byte	0x1
 12328 01b5 11       		.uleb128 0x11
 12329 01b6 01       		.uleb128 0x1
 12330 01b7 31       		.uleb128 0x31
 12331 01b8 13       		.uleb128 0x13
 12332 01b9 00       		.byte	0
 12333 01ba 00       		.byte	0
 12334 01bb 25       		.uleb128 0x25
 12335 01bc 2E       		.uleb128 0x2e
 12336 01bd 01       		.byte	0x1
 12337 01be 03       		.uleb128 0x3
 12338 01bf 0E       		.uleb128 0xe
 12339 01c0 3A       		.uleb128 0x3a
 12340 01c1 0B       		.uleb128 0xb
 12341 01c2 3B       		.uleb128 0x3b
 12342 01c3 0B       		.uleb128 0xb
 12343 01c4 27       		.uleb128 0x27
ARM GAS  C:\Users\Phuong\AppData\Local\Temp\ccdTtd1y.s 			page 252


 12344 01c5 19       		.uleb128 0x19
 12345 01c6 49       		.uleb128 0x49
 12346 01c7 13       		.uleb128 0x13
 12347 01c8 11       		.uleb128 0x11
 12348 01c9 01       		.uleb128 0x1
 12349 01ca 12       		.uleb128 0x12
 12350 01cb 06       		.uleb128 0x6
 12351 01cc 40       		.uleb128 0x40
 12352 01cd 18       		.uleb128 0x18
 12353 01ce 9642     		.uleb128 0x2116
 12354 01d0 19       		.uleb128 0x19
 12355 01d1 01       		.uleb128 0x1
 12356 01d2 13       		.uleb128 0x13
 12357 01d3 00       		.byte	0
 12358 01d4 00       		.byte	0
 12359 01d5 26       		.uleb128 0x26
 12360 01d6 05       		.uleb128 0x5
 12361 01d7 00       		.byte	0
 12362 01d8 03       		.uleb128 0x3
 12363 01d9 0E       		.uleb128 0xe
 12364 01da 3A       		.uleb128 0x3a
 12365 01db 0B       		.uleb128 0xb
 12366 01dc 3B       		.uleb128 0x3b
 12367 01dd 0B       		.uleb128 0xb
 12368 01de 49       		.uleb128 0x49
 12369 01df 13       		.uleb128 0x13
 12370 01e0 02       		.uleb128 0x2
 12371 01e1 17       		.uleb128 0x17
 12372 01e2 00       		.byte	0
 12373 01e3 00       		.byte	0
 12374 01e4 27       		.uleb128 0x27
 12375 01e5 34       		.uleb128 0x34
 12376 01e6 00       		.byte	0
 12377 01e7 03       		.uleb128 0x3
 12378 01e8 0E       		.uleb128 0xe
 12379 01e9 3A       		.uleb128 0x3a
 12380 01ea 0B       		.uleb128 0xb
 12381 01eb 3B       		.uleb128 0x3b
 12382 01ec 0B       		.uleb128 0xb
 12383 01ed 49       		.uleb128 0x49
 12384 01ee 13       		.uleb128 0x13
 12385 01ef 02       		.uleb128 0x2
 12386 01f0 17       		.uleb128 0x17
 12387 01f1 00       		.byte	0
 12388 01f2 00       		.byte	0
 12389 01f3 28       		.uleb128 0x28
 12390 01f4 34       		.uleb128 0x34
 12391 01f5 00       		.byte	0
 12392 01f6 03       		.uleb128 0x3
 12393 01f7 08       		.uleb128 0x8
 12394 01f8 3A       		.uleb128 0x3a
 12395 01f9 0B       		.uleb128 0xb
 12396 01fa 3B       		.uleb128 0x3b
 12397 01fb 0B       		.uleb128 0xb
 12398 01fc 49       		.uleb128 0x49
 12399 01fd 13       		.uleb128 0x13
 12400 01fe 02       		.uleb128 0x2
ARM GAS  C:\Users\Phuong\AppData\Local\Temp\ccdTtd1y.s 			page 253


 12401 01ff 17       		.uleb128 0x17
 12402 0200 00       		.byte	0
 12403 0201 00       		.byte	0
 12404 0202 29       		.uleb128 0x29
 12405 0203 34       		.uleb128 0x34
 12406 0204 00       		.byte	0
 12407 0205 03       		.uleb128 0x3
 12408 0206 0E       		.uleb128 0xe
 12409 0207 3A       		.uleb128 0x3a
 12410 0208 0B       		.uleb128 0xb
 12411 0209 3B       		.uleb128 0x3b
 12412 020a 0B       		.uleb128 0xb
 12413 020b 49       		.uleb128 0x49
 12414 020c 13       		.uleb128 0x13
 12415 020d 02       		.uleb128 0x2
 12416 020e 18       		.uleb128 0x18
 12417 020f 00       		.byte	0
 12418 0210 00       		.byte	0
 12419 0211 2A       		.uleb128 0x2a
 12420 0212 0B       		.uleb128 0xb
 12421 0213 01       		.byte	0x1
 12422 0214 55       		.uleb128 0x55
 12423 0215 17       		.uleb128 0x17
 12424 0216 01       		.uleb128 0x1
 12425 0217 13       		.uleb128 0x13
 12426 0218 00       		.byte	0
 12427 0219 00       		.byte	0
 12428 021a 2B       		.uleb128 0x2b
 12429 021b 05       		.uleb128 0x5
 12430 021c 00       		.byte	0
 12431 021d 03       		.uleb128 0x3
 12432 021e 08       		.uleb128 0x8
 12433 021f 3A       		.uleb128 0x3a
 12434 0220 0B       		.uleb128 0xb
 12435 0221 3B       		.uleb128 0x3b
 12436 0222 05       		.uleb128 0x5
 12437 0223 49       		.uleb128 0x49
 12438 0224 13       		.uleb128 0x13
 12439 0225 02       		.uleb128 0x2
 12440 0226 17       		.uleb128 0x17
 12441 0227 00       		.byte	0
 12442 0228 00       		.byte	0
 12443 0229 2C       		.uleb128 0x2c
 12444 022a 2E       		.uleb128 0x2e
 12445 022b 01       		.byte	0x1
 12446 022c 3F       		.uleb128 0x3f
 12447 022d 19       		.uleb128 0x19
 12448 022e 03       		.uleb128 0x3
 12449 022f 0E       		.uleb128 0xe
 12450 0230 3A       		.uleb128 0x3a
 12451 0231 0B       		.uleb128 0xb
 12452 0232 3B       		.uleb128 0x3b
 12453 0233 05       		.uleb128 0x5
 12454 0234 27       		.uleb128 0x27
 12455 0235 19       		.uleb128 0x19
 12456 0236 49       		.uleb128 0x49
 12457 0237 13       		.uleb128 0x13
ARM GAS  C:\Users\Phuong\AppData\Local\Temp\ccdTtd1y.s 			page 254


 12458 0238 11       		.uleb128 0x11
 12459 0239 01       		.uleb128 0x1
 12460 023a 12       		.uleb128 0x12
 12461 023b 06       		.uleb128 0x6
 12462 023c 40       		.uleb128 0x40
 12463 023d 18       		.uleb128 0x18
 12464 023e 9742     		.uleb128 0x2117
 12465 0240 19       		.uleb128 0x19
 12466 0241 01       		.uleb128 0x1
 12467 0242 13       		.uleb128 0x13
 12468 0243 00       		.byte	0
 12469 0244 00       		.byte	0
 12470 0245 2D       		.uleb128 0x2d
 12471 0246 0A       		.uleb128 0xa
 12472 0247 00       		.byte	0
 12473 0248 03       		.uleb128 0x3
 12474 0249 0E       		.uleb128 0xe
 12475 024a 3A       		.uleb128 0x3a
 12476 024b 0B       		.uleb128 0xb
 12477 024c 3B       		.uleb128 0x3b
 12478 024d 05       		.uleb128 0x5
 12479 024e 11       		.uleb128 0x11
 12480 024f 01       		.uleb128 0x1
 12481 0250 00       		.byte	0
 12482 0251 00       		.byte	0
 12483 0252 2E       		.uleb128 0x2e
 12484 0253 05       		.uleb128 0x5
 12485 0254 00       		.byte	0
 12486 0255 03       		.uleb128 0x3
 12487 0256 0E       		.uleb128 0xe
 12488 0257 3A       		.uleb128 0x3a
 12489 0258 0B       		.uleb128 0xb
 12490 0259 3B       		.uleb128 0x3b
 12491 025a 05       		.uleb128 0x5
 12492 025b 49       		.uleb128 0x49
 12493 025c 13       		.uleb128 0x13
 12494 025d 02       		.uleb128 0x2
 12495 025e 18       		.uleb128 0x18
 12496 025f 00       		.byte	0
 12497 0260 00       		.byte	0
 12498 0261 2F       		.uleb128 0x2f
 12499 0262 0B       		.uleb128 0xb
 12500 0263 01       		.byte	0x1
 12501 0264 55       		.uleb128 0x55
 12502 0265 17       		.uleb128 0x17
 12503 0266 00       		.byte	0
 12504 0267 00       		.byte	0
 12505 0268 30       		.uleb128 0x30
 12506 0269 2E       		.uleb128 0x2e
 12507 026a 01       		.byte	0x1
 12508 026b 3F       		.uleb128 0x3f
 12509 026c 19       		.uleb128 0x19
 12510 026d 03       		.uleb128 0x3
 12511 026e 0E       		.uleb128 0xe
 12512 026f 3A       		.uleb128 0x3a
 12513 0270 0B       		.uleb128 0xb
 12514 0271 3B       		.uleb128 0x3b
ARM GAS  C:\Users\Phuong\AppData\Local\Temp\ccdTtd1y.s 			page 255


 12515 0272 05       		.uleb128 0x5
 12516 0273 27       		.uleb128 0x27
 12517 0274 19       		.uleb128 0x19
 12518 0275 11       		.uleb128 0x11
 12519 0276 01       		.uleb128 0x1
 12520 0277 12       		.uleb128 0x12
 12521 0278 06       		.uleb128 0x6
 12522 0279 40       		.uleb128 0x40
 12523 027a 18       		.uleb128 0x18
 12524 027b 9742     		.uleb128 0x2117
 12525 027d 19       		.uleb128 0x19
 12526 027e 01       		.uleb128 0x1
 12527 027f 13       		.uleb128 0x13
 12528 0280 00       		.byte	0
 12529 0281 00       		.byte	0
 12530 0282 31       		.uleb128 0x31
 12531 0283 2E       		.uleb128 0x2e
 12532 0284 00       		.byte	0
 12533 0285 3F       		.uleb128 0x3f
 12534 0286 19       		.uleb128 0x19
 12535 0287 3C       		.uleb128 0x3c
 12536 0288 19       		.uleb128 0x19
 12537 0289 6E       		.uleb128 0x6e
 12538 028a 0E       		.uleb128 0xe
 12539 028b 03       		.uleb128 0x3
 12540 028c 0E       		.uleb128 0xe
 12541 028d 3A       		.uleb128 0x3a
 12542 028e 0B       		.uleb128 0xb
 12543 028f 3B       		.uleb128 0x3b
 12544 0290 0B       		.uleb128 0xb
 12545 0291 00       		.byte	0
 12546 0292 00       		.byte	0
 12547 0293 32       		.uleb128 0x32
 12548 0294 2E       		.uleb128 0x2e
 12549 0295 00       		.byte	0
 12550 0296 3F       		.uleb128 0x3f
 12551 0297 19       		.uleb128 0x19
 12552 0298 3C       		.uleb128 0x3c
 12553 0299 19       		.uleb128 0x19
 12554 029a 6E       		.uleb128 0x6e
 12555 029b 0E       		.uleb128 0xe
 12556 029c 03       		.uleb128 0x3
 12557 029d 0E       		.uleb128 0xe
 12558 029e 00       		.byte	0
 12559 029f 00       		.byte	0
 12560 02a0 00       		.byte	0
 12561              		.section	.debug_loc,"",%progbits
 12562              	.Ldebug_loc0:
 12563              	.LLST0:
 12564 0000 00000000 		.4byte	.LVL0
 12565 0004 0B000000 		.4byte	.LVL1-1
 12566 0008 0100     		.2byte	0x1
 12567 000a 50       		.byte	0x50
 12568 000b 0B000000 		.4byte	.LVL1-1
 12569 000f 26000000 		.4byte	.LVL5
 12570 0013 0400     		.2byte	0x4
 12571 0015 F3       		.byte	0xf3
ARM GAS  C:\Users\Phuong\AppData\Local\Temp\ccdTtd1y.s 			page 256


 12572 0016 01       		.uleb128 0x1
 12573 0017 50       		.byte	0x50
 12574 0018 9F       		.byte	0x9f
 12575 0019 26000000 		.4byte	.LVL5
 12576 001d 4A000000 		.4byte	.LVL8
 12577 0021 0100     		.2byte	0x1
 12578 0023 50       		.byte	0x50
 12579 0024 4A000000 		.4byte	.LVL8
 12580 0028 50000000 		.4byte	.LVL11
 12581 002c 0400     		.2byte	0x4
 12582 002e F3       		.byte	0xf3
 12583 002f 01       		.uleb128 0x1
 12584 0030 50       		.byte	0x50
 12585 0031 9F       		.byte	0x9f
 12586 0032 50000000 		.4byte	.LVL11
 12587 0036 68000000 		.4byte	.LVL14
 12588 003a 0100     		.2byte	0x1
 12589 003c 50       		.byte	0x50
 12590 003d 68000000 		.4byte	.LVL14
 12591 0041 6E000000 		.4byte	.LVL16
 12592 0045 0400     		.2byte	0x4
 12593 0047 F3       		.byte	0xf3
 12594 0048 01       		.uleb128 0x1
 12595 0049 50       		.byte	0x50
 12596 004a 9F       		.byte	0x9f
 12597 004b 6E000000 		.4byte	.LVL16
 12598 004f 7C000000 		.4byte	.LVL18
 12599 0053 0100     		.2byte	0x1
 12600 0055 50       		.byte	0x50
 12601 0056 7C000000 		.4byte	.LVL18
 12602 005a 90000000 		.4byte	.LFE4
 12603 005e 0400     		.2byte	0x4
 12604 0060 F3       		.byte	0xf3
 12605 0061 01       		.uleb128 0x1
 12606 0062 50       		.byte	0x50
 12607 0063 9F       		.byte	0x9f
 12608 0064 00000000 		.4byte	0
 12609 0068 00000000 		.4byte	0
 12610              	.LLST1:
 12611 006c 00000000 		.4byte	.LVL0
 12612 0070 0B000000 		.4byte	.LVL1-1
 12613 0074 0100     		.2byte	0x1
 12614 0076 51       		.byte	0x51
 12615 0077 0B000000 		.4byte	.LVL1-1
 12616 007b 26000000 		.4byte	.LVL5
 12617 007f 0400     		.2byte	0x4
 12618 0081 F3       		.byte	0xf3
 12619 0082 01       		.uleb128 0x1
 12620 0083 51       		.byte	0x51
 12621 0084 9F       		.byte	0x9f
 12622 0085 26000000 		.4byte	.LVL5
 12623 0089 4C000000 		.4byte	.LVL9
 12624 008d 0100     		.2byte	0x1
 12625 008f 51       		.byte	0x51
 12626 0090 4C000000 		.4byte	.LVL9
 12627 0094 50000000 		.4byte	.LVL11
 12628 0098 0400     		.2byte	0x4
ARM GAS  C:\Users\Phuong\AppData\Local\Temp\ccdTtd1y.s 			page 257


 12629 009a F3       		.byte	0xf3
 12630 009b 01       		.uleb128 0x1
 12631 009c 51       		.byte	0x51
 12632 009d 9F       		.byte	0x9f
 12633 009e 50000000 		.4byte	.LVL11
 12634 00a2 54000000 		.4byte	.LVL13
 12635 00a6 0100     		.2byte	0x1
 12636 00a8 51       		.byte	0x51
 12637 00a9 54000000 		.4byte	.LVL13
 12638 00ad 6E000000 		.4byte	.LVL16
 12639 00b1 0400     		.2byte	0x4
 12640 00b3 F3       		.byte	0xf3
 12641 00b4 01       		.uleb128 0x1
 12642 00b5 51       		.byte	0x51
 12643 00b6 9F       		.byte	0x9f
 12644 00b7 6E000000 		.4byte	.LVL16
 12645 00bb 7D000000 		.4byte	.LVL19-1
 12646 00bf 0100     		.2byte	0x1
 12647 00c1 51       		.byte	0x51
 12648 00c2 7D000000 		.4byte	.LVL19-1
 12649 00c6 90000000 		.4byte	.LFE4
 12650 00ca 0400     		.2byte	0x4
 12651 00cc F3       		.byte	0xf3
 12652 00cd 01       		.uleb128 0x1
 12653 00ce 51       		.byte	0x51
 12654 00cf 9F       		.byte	0x9f
 12655 00d0 00000000 		.4byte	0
 12656 00d4 00000000 		.4byte	0
 12657              	.LLST2:
 12658 00d8 00000000 		.4byte	.LVL0
 12659 00dc 0B000000 		.4byte	.LVL1-1
 12660 00e0 0100     		.2byte	0x1
 12661 00e2 52       		.byte	0x52
 12662 00e3 0B000000 		.4byte	.LVL1-1
 12663 00e7 26000000 		.4byte	.LVL5
 12664 00eb 0400     		.2byte	0x4
 12665 00ed F3       		.byte	0xf3
 12666 00ee 01       		.uleb128 0x1
 12667 00ef 52       		.byte	0x52
 12668 00f0 9F       		.byte	0x9f
 12669 00f1 26000000 		.4byte	.LVL5
 12670 00f5 42000000 		.4byte	.LVL7
 12671 00f9 0100     		.2byte	0x1
 12672 00fb 52       		.byte	0x52
 12673 00fc 42000000 		.4byte	.LVL7
 12674 0100 50000000 		.4byte	.LVL11
 12675 0104 0400     		.2byte	0x4
 12676 0106 F3       		.byte	0xf3
 12677 0107 01       		.uleb128 0x1
 12678 0108 52       		.byte	0x52
 12679 0109 9F       		.byte	0x9f
 12680 010a 50000000 		.4byte	.LVL11
 12681 010e 52000000 		.4byte	.LVL12
 12682 0112 0100     		.2byte	0x1
 12683 0114 52       		.byte	0x52
 12684 0115 52000000 		.4byte	.LVL12
 12685 0119 6E000000 		.4byte	.LVL16
ARM GAS  C:\Users\Phuong\AppData\Local\Temp\ccdTtd1y.s 			page 258


 12686 011d 0400     		.2byte	0x4
 12687 011f F3       		.byte	0xf3
 12688 0120 01       		.uleb128 0x1
 12689 0121 52       		.byte	0x52
 12690 0122 9F       		.byte	0x9f
 12691 0123 6E000000 		.4byte	.LVL16
 12692 0127 74000000 		.4byte	.LVL17
 12693 012b 0100     		.2byte	0x1
 12694 012d 52       		.byte	0x52
 12695 012e 74000000 		.4byte	.LVL17
 12696 0132 90000000 		.4byte	.LFE4
 12697 0136 0400     		.2byte	0x4
 12698 0138 F3       		.byte	0xf3
 12699 0139 01       		.uleb128 0x1
 12700 013a 52       		.byte	0x52
 12701 013b 9F       		.byte	0x9f
 12702 013c 00000000 		.4byte	0
 12703 0140 00000000 		.4byte	0
 12704              	.LLST3:
 12705 0144 0E000000 		.4byte	.LVL2
 12706 0148 22000000 		.4byte	.LVL3
 12707 014c 0100     		.2byte	0x1
 12708 014e 50       		.byte	0x50
 12709 014f 22000000 		.4byte	.LVL3
 12710 0153 26000000 		.4byte	.LVL5
 12711 0157 0100     		.2byte	0x1
 12712 0159 54       		.byte	0x54
 12713 015a 00000000 		.4byte	0
 12714 015e 00000000 		.4byte	0
 12715              	.LLST4:
 12716 0162 2A000000 		.4byte	.LVL6
 12717 0166 4A000000 		.4byte	.LVL8
 12718 016a 0100     		.2byte	0x1
 12719 016c 50       		.byte	0x50
 12720 016d 4A000000 		.4byte	.LVL8
 12721 0171 50000000 		.4byte	.LVL11
 12722 0175 0400     		.2byte	0x4
 12723 0177 F3       		.byte	0xf3
 12724 0178 01       		.uleb128 0x1
 12725 0179 50       		.byte	0x50
 12726 017a 9F       		.byte	0x9f
 12727 017b 50000000 		.4byte	.LVL11
 12728 017f 68000000 		.4byte	.LVL14
 12729 0183 0100     		.2byte	0x1
 12730 0185 50       		.byte	0x50
 12731 0186 68000000 		.4byte	.LVL14
 12732 018a 6E000000 		.4byte	.LVL16
 12733 018e 0400     		.2byte	0x4
 12734 0190 F3       		.byte	0xf3
 12735 0191 01       		.uleb128 0x1
 12736 0192 50       		.byte	0x50
 12737 0193 9F       		.byte	0x9f
 12738 0194 6E000000 		.4byte	.LVL16
 12739 0198 7C000000 		.4byte	.LVL18
 12740 019c 0100     		.2byte	0x1
 12741 019e 50       		.byte	0x50
 12742 019f 7C000000 		.4byte	.LVL18
ARM GAS  C:\Users\Phuong\AppData\Local\Temp\ccdTtd1y.s 			page 259


 12743 01a3 7E000000 		.4byte	.LVL19
 12744 01a7 0400     		.2byte	0x4
 12745 01a9 F3       		.byte	0xf3
 12746 01aa 01       		.uleb128 0x1
 12747 01ab 50       		.byte	0x50
 12748 01ac 9F       		.byte	0x9f
 12749 01ad 00000000 		.4byte	0
 12750 01b1 00000000 		.4byte	0
 12751              	.LLST5:
 12752 01b5 00000000 		.4byte	.LVL20
 12753 01b9 0B000000 		.4byte	.LVL21-1
 12754 01bd 0100     		.2byte	0x1
 12755 01bf 50       		.byte	0x50
 12756 01c0 0B000000 		.4byte	.LVL21-1
 12757 01c4 28000000 		.4byte	.LVL25
 12758 01c8 0400     		.2byte	0x4
 12759 01ca F3       		.byte	0xf3
 12760 01cb 01       		.uleb128 0x1
 12761 01cc 50       		.byte	0x50
 12762 01cd 9F       		.byte	0x9f
 12763 01ce 28000000 		.4byte	.LVL25
 12764 01d2 4E000000 		.4byte	.LVL28
 12765 01d6 0100     		.2byte	0x1
 12766 01d8 50       		.byte	0x50
 12767 01d9 4E000000 		.4byte	.LVL28
 12768 01dd 54000000 		.4byte	.LVL31
 12769 01e1 0400     		.2byte	0x4
 12770 01e3 F3       		.byte	0xf3
 12771 01e4 01       		.uleb128 0x1
 12772 01e5 50       		.byte	0x50
 12773 01e6 9F       		.byte	0x9f
 12774 01e7 54000000 		.4byte	.LVL31
 12775 01eb 6C000000 		.4byte	.LVL34
 12776 01ef 0100     		.2byte	0x1
 12777 01f1 50       		.byte	0x50
 12778 01f2 6C000000 		.4byte	.LVL34
 12779 01f6 72000000 		.4byte	.LVL36
 12780 01fa 0400     		.2byte	0x4
 12781 01fc F3       		.byte	0xf3
 12782 01fd 01       		.uleb128 0x1
 12783 01fe 50       		.byte	0x50
 12784 01ff 9F       		.byte	0x9f
 12785 0200 72000000 		.4byte	.LVL36
 12786 0204 80000000 		.4byte	.LVL38
 12787 0208 0100     		.2byte	0x1
 12788 020a 50       		.byte	0x50
 12789 020b 80000000 		.4byte	.LVL38
 12790 020f 84000000 		.4byte	.LVL40
 12791 0213 0400     		.2byte	0x4
 12792 0215 F3       		.byte	0xf3
 12793 0216 01       		.uleb128 0x1
 12794 0217 50       		.byte	0x50
 12795 0218 9F       		.byte	0x9f
 12796 0219 84000000 		.4byte	.LVL40
 12797 021d 96000000 		.4byte	.LVL42
 12798 0221 0100     		.2byte	0x1
 12799 0223 50       		.byte	0x50
ARM GAS  C:\Users\Phuong\AppData\Local\Temp\ccdTtd1y.s 			page 260


 12800 0224 96000000 		.4byte	.LVL42
 12801 0228 A8000000 		.4byte	.LFE3
 12802 022c 0400     		.2byte	0x4
 12803 022e F3       		.byte	0xf3
 12804 022f 01       		.uleb128 0x1
 12805 0230 50       		.byte	0x50
 12806 0231 9F       		.byte	0x9f
 12807 0232 00000000 		.4byte	0
 12808 0236 00000000 		.4byte	0
 12809              	.LLST6:
 12810 023a 00000000 		.4byte	.LVL20
 12811 023e 0B000000 		.4byte	.LVL21-1
 12812 0242 0100     		.2byte	0x1
 12813 0244 51       		.byte	0x51
 12814 0245 0B000000 		.4byte	.LVL21-1
 12815 0249 28000000 		.4byte	.LVL25
 12816 024d 0400     		.2byte	0x4
 12817 024f F3       		.byte	0xf3
 12818 0250 01       		.uleb128 0x1
 12819 0251 51       		.byte	0x51
 12820 0252 9F       		.byte	0x9f
 12821 0253 28000000 		.4byte	.LVL25
 12822 0257 50000000 		.4byte	.LVL29
 12823 025b 0100     		.2byte	0x1
 12824 025d 51       		.byte	0x51
 12825 025e 50000000 		.4byte	.LVL29
 12826 0262 54000000 		.4byte	.LVL31
 12827 0266 0400     		.2byte	0x4
 12828 0268 F3       		.byte	0xf3
 12829 0269 01       		.uleb128 0x1
 12830 026a 51       		.byte	0x51
 12831 026b 9F       		.byte	0x9f
 12832 026c 54000000 		.4byte	.LVL31
 12833 0270 58000000 		.4byte	.LVL33
 12834 0274 0100     		.2byte	0x1
 12835 0276 51       		.byte	0x51
 12836 0277 58000000 		.4byte	.LVL33
 12837 027b 72000000 		.4byte	.LVL36
 12838 027f 0400     		.2byte	0x4
 12839 0281 F3       		.byte	0xf3
 12840 0282 01       		.uleb128 0x1
 12841 0283 51       		.byte	0x51
 12842 0284 9F       		.byte	0x9f
 12843 0285 72000000 		.4byte	.LVL36
 12844 0289 81000000 		.4byte	.LVL39-1
 12845 028d 0100     		.2byte	0x1
 12846 028f 51       		.byte	0x51
 12847 0290 81000000 		.4byte	.LVL39-1
 12848 0294 84000000 		.4byte	.LVL40
 12849 0298 0400     		.2byte	0x4
 12850 029a F3       		.byte	0xf3
 12851 029b 01       		.uleb128 0x1
 12852 029c 51       		.byte	0x51
 12853 029d 9F       		.byte	0x9f
 12854 029e 84000000 		.4byte	.LVL40
 12855 02a2 97000000 		.4byte	.LVL43-1
 12856 02a6 0100     		.2byte	0x1
ARM GAS  C:\Users\Phuong\AppData\Local\Temp\ccdTtd1y.s 			page 261


 12857 02a8 51       		.byte	0x51
 12858 02a9 97000000 		.4byte	.LVL43-1
 12859 02ad A8000000 		.4byte	.LFE3
 12860 02b1 0400     		.2byte	0x4
 12861 02b3 F3       		.byte	0xf3
 12862 02b4 01       		.uleb128 0x1
 12863 02b5 51       		.byte	0x51
 12864 02b6 9F       		.byte	0x9f
 12865 02b7 00000000 		.4byte	0
 12866 02bb 00000000 		.4byte	0
 12867              	.LLST7:
 12868 02bf 00000000 		.4byte	.LVL20
 12869 02c3 0B000000 		.4byte	.LVL21-1
 12870 02c7 0100     		.2byte	0x1
 12871 02c9 52       		.byte	0x52
 12872 02ca 0B000000 		.4byte	.LVL21-1
 12873 02ce 28000000 		.4byte	.LVL25
 12874 02d2 0400     		.2byte	0x4
 12875 02d4 F3       		.byte	0xf3
 12876 02d5 01       		.uleb128 0x1
 12877 02d6 52       		.byte	0x52
 12878 02d7 9F       		.byte	0x9f
 12879 02d8 28000000 		.4byte	.LVL25
 12880 02dc 46000000 		.4byte	.LVL27
 12881 02e0 0100     		.2byte	0x1
 12882 02e2 52       		.byte	0x52
 12883 02e3 46000000 		.4byte	.LVL27
 12884 02e7 54000000 		.4byte	.LVL31
 12885 02eb 0400     		.2byte	0x4
 12886 02ed F3       		.byte	0xf3
 12887 02ee 01       		.uleb128 0x1
 12888 02ef 52       		.byte	0x52
 12889 02f0 9F       		.byte	0x9f
 12890 02f1 54000000 		.4byte	.LVL31
 12891 02f5 56000000 		.4byte	.LVL32
 12892 02f9 0100     		.2byte	0x1
 12893 02fb 52       		.byte	0x52
 12894 02fc 56000000 		.4byte	.LVL32
 12895 0300 72000000 		.4byte	.LVL36
 12896 0304 0400     		.2byte	0x4
 12897 0306 F3       		.byte	0xf3
 12898 0307 01       		.uleb128 0x1
 12899 0308 52       		.byte	0x52
 12900 0309 9F       		.byte	0x9f
 12901 030a 72000000 		.4byte	.LVL36
 12902 030e 78000000 		.4byte	.LVL37
 12903 0312 0100     		.2byte	0x1
 12904 0314 52       		.byte	0x52
 12905 0315 78000000 		.4byte	.LVL37
 12906 0319 84000000 		.4byte	.LVL40
 12907 031d 0400     		.2byte	0x4
 12908 031f F3       		.byte	0xf3
 12909 0320 01       		.uleb128 0x1
 12910 0321 52       		.byte	0x52
 12911 0322 9F       		.byte	0x9f
 12912 0323 84000000 		.4byte	.LVL40
 12913 0327 8E000000 		.4byte	.LVL41
ARM GAS  C:\Users\Phuong\AppData\Local\Temp\ccdTtd1y.s 			page 262


 12914 032b 0100     		.2byte	0x1
 12915 032d 52       		.byte	0x52
 12916 032e 8E000000 		.4byte	.LVL41
 12917 0332 A8000000 		.4byte	.LFE3
 12918 0336 0400     		.2byte	0x4
 12919 0338 F3       		.byte	0xf3
 12920 0339 01       		.uleb128 0x1
 12921 033a 52       		.byte	0x52
 12922 033b 9F       		.byte	0x9f
 12923 033c 00000000 		.4byte	0
 12924 0340 00000000 		.4byte	0
 12925              	.LLST8:
 12926 0344 0E000000 		.4byte	.LVL22
 12927 0348 24000000 		.4byte	.LVL23
 12928 034c 0100     		.2byte	0x1
 12929 034e 50       		.byte	0x50
 12930 034f 24000000 		.4byte	.LVL23
 12931 0353 28000000 		.4byte	.LVL25
 12932 0357 0100     		.2byte	0x1
 12933 0359 54       		.byte	0x54
 12934 035a 00000000 		.4byte	0
 12935 035e 00000000 		.4byte	0
 12936              	.LLST9:
 12937 0362 2C000000 		.4byte	.LVL26
 12938 0366 4E000000 		.4byte	.LVL28
 12939 036a 0100     		.2byte	0x1
 12940 036c 50       		.byte	0x50
 12941 036d 4E000000 		.4byte	.LVL28
 12942 0371 54000000 		.4byte	.LVL31
 12943 0375 0400     		.2byte	0x4
 12944 0377 F3       		.byte	0xf3
 12945 0378 01       		.uleb128 0x1
 12946 0379 50       		.byte	0x50
 12947 037a 9F       		.byte	0x9f
 12948 037b 54000000 		.4byte	.LVL31
 12949 037f 6C000000 		.4byte	.LVL34
 12950 0383 0100     		.2byte	0x1
 12951 0385 50       		.byte	0x50
 12952 0386 6C000000 		.4byte	.LVL34
 12953 038a 72000000 		.4byte	.LVL36
 12954 038e 0400     		.2byte	0x4
 12955 0390 F3       		.byte	0xf3
 12956 0391 01       		.uleb128 0x1
 12957 0392 50       		.byte	0x50
 12958 0393 9F       		.byte	0x9f
 12959 0394 72000000 		.4byte	.LVL36
 12960 0398 80000000 		.4byte	.LVL38
 12961 039c 0100     		.2byte	0x1
 12962 039e 50       		.byte	0x50
 12963 039f 80000000 		.4byte	.LVL38
 12964 03a3 84000000 		.4byte	.LVL40
 12965 03a7 0400     		.2byte	0x4
 12966 03a9 F3       		.byte	0xf3
 12967 03aa 01       		.uleb128 0x1
 12968 03ab 50       		.byte	0x50
 12969 03ac 9F       		.byte	0x9f
 12970 03ad 84000000 		.4byte	.LVL40
ARM GAS  C:\Users\Phuong\AppData\Local\Temp\ccdTtd1y.s 			page 263


 12971 03b1 96000000 		.4byte	.LVL42
 12972 03b5 0100     		.2byte	0x1
 12973 03b7 50       		.byte	0x50
 12974 03b8 96000000 		.4byte	.LVL42
 12975 03bc 98000000 		.4byte	.LVL43
 12976 03c0 0400     		.2byte	0x4
 12977 03c2 F3       		.byte	0xf3
 12978 03c3 01       		.uleb128 0x1
 12979 03c4 50       		.byte	0x50
 12980 03c5 9F       		.byte	0x9f
 12981 03c6 00000000 		.4byte	0
 12982 03ca 00000000 		.4byte	0
 12983              	.LLST10:
 12984 03ce 00000000 		.4byte	.LVL44
 12985 03d2 08000000 		.4byte	.LVL45
 12986 03d6 0100     		.2byte	0x1
 12987 03d8 50       		.byte	0x50
 12988 03d9 08000000 		.4byte	.LVL45
 12989 03dd 16000000 		.4byte	.LVL48
 12990 03e1 0100     		.2byte	0x1
 12991 03e3 54       		.byte	0x54
 12992 03e4 16000000 		.4byte	.LVL48
 12993 03e8 30000000 		.4byte	.LVL51
 12994 03ec 0400     		.2byte	0x4
 12995 03ee F3       		.byte	0xf3
 12996 03ef 01       		.uleb128 0x1
 12997 03f0 50       		.byte	0x50
 12998 03f1 9F       		.byte	0x9f
 12999 03f2 30000000 		.4byte	.LVL51
 13000 03f6 42000000 		.4byte	.LVL54
 13001 03fa 0100     		.2byte	0x1
 13002 03fc 54       		.byte	0x54
 13003 03fd 42000000 		.4byte	.LVL54
 13004 0401 5C000000 		.4byte	.LFE7
 13005 0405 0400     		.2byte	0x4
 13006 0407 F3       		.byte	0xf3
 13007 0408 01       		.uleb128 0x1
 13008 0409 50       		.byte	0x50
 13009 040a 9F       		.byte	0x9f
 13010 040b 00000000 		.4byte	0
 13011 040f 00000000 		.4byte	0
 13012              	.LLST11:
 13013 0413 00000000 		.4byte	.LVL44
 13014 0417 0B000000 		.4byte	.LVL46-1
 13015 041b 0100     		.2byte	0x1
 13016 041d 51       		.byte	0x51
 13017 041e 0B000000 		.4byte	.LVL46-1
 13018 0422 5C000000 		.4byte	.LFE7
 13019 0426 0400     		.2byte	0x4
 13020 0428 F3       		.byte	0xf3
 13021 0429 01       		.uleb128 0x1
 13022 042a 51       		.byte	0x51
 13023 042b 9F       		.byte	0x9f
 13024 042c 00000000 		.4byte	0
 13025 0430 00000000 		.4byte	0
 13026              	.LLST12:
 13027 0434 3E000000 		.4byte	.LVL53
ARM GAS  C:\Users\Phuong\AppData\Local\Temp\ccdTtd1y.s 			page 264


 13028 0438 42000000 		.4byte	.LVL54
 13029 043c 0200     		.2byte	0x2
 13030 043e 30       		.byte	0x30
 13031 043f 9F       		.byte	0x9f
 13032 0440 44000000 		.4byte	.LVL55
 13033 0444 5C000000 		.4byte	.LFE7
 13034 0448 0100     		.2byte	0x1
 13035 044a 50       		.byte	0x50
 13036 044b 00000000 		.4byte	0
 13037 044f 00000000 		.4byte	0
 13038              	.LLST13:
 13039 0453 16000000 		.4byte	.LVL48
 13040 0457 2A000000 		.4byte	.LVL49
 13041 045b 0100     		.2byte	0x1
 13042 045d 50       		.byte	0x50
 13043 045e 2A000000 		.4byte	.LVL49
 13044 0462 30000000 		.4byte	.LVL51
 13045 0466 0100     		.2byte	0x1
 13046 0468 54       		.byte	0x54
 13047 0469 42000000 		.4byte	.LVL54
 13048 046d 44000000 		.4byte	.LVL55
 13049 0471 0100     		.2byte	0x1
 13050 0473 50       		.byte	0x50
 13051 0474 00000000 		.4byte	0
 13052 0478 00000000 		.4byte	0
 13053              	.LLST14:
 13054 047c 00000000 		.4byte	.LVL56
 13055 0480 08000000 		.4byte	.LVL57
 13056 0484 0100     		.2byte	0x1
 13057 0486 50       		.byte	0x50
 13058 0487 08000000 		.4byte	.LVL57
 13059 048b 16000000 		.4byte	.LVL60
 13060 048f 0100     		.2byte	0x1
 13061 0491 54       		.byte	0x54
 13062 0492 16000000 		.4byte	.LVL60
 13063 0496 30000000 		.4byte	.LVL63
 13064 049a 0400     		.2byte	0x4
 13065 049c F3       		.byte	0xf3
 13066 049d 01       		.uleb128 0x1
 13067 049e 50       		.byte	0x50
 13068 049f 9F       		.byte	0x9f
 13069 04a0 30000000 		.4byte	.LVL63
 13070 04a4 42000000 		.4byte	.LVL66
 13071 04a8 0100     		.2byte	0x1
 13072 04aa 54       		.byte	0x54
 13073 04ab 42000000 		.4byte	.LVL66
 13074 04af 5C000000 		.4byte	.LFE8
 13075 04b3 0400     		.2byte	0x4
 13076 04b5 F3       		.byte	0xf3
 13077 04b6 01       		.uleb128 0x1
 13078 04b7 50       		.byte	0x50
 13079 04b8 9F       		.byte	0x9f
 13080 04b9 00000000 		.4byte	0
 13081 04bd 00000000 		.4byte	0
 13082              	.LLST15:
 13083 04c1 00000000 		.4byte	.LVL56
 13084 04c5 0B000000 		.4byte	.LVL58-1
ARM GAS  C:\Users\Phuong\AppData\Local\Temp\ccdTtd1y.s 			page 265


 13085 04c9 0100     		.2byte	0x1
 13086 04cb 51       		.byte	0x51
 13087 04cc 0B000000 		.4byte	.LVL58-1
 13088 04d0 5C000000 		.4byte	.LFE8
 13089 04d4 0400     		.2byte	0x4
 13090 04d6 F3       		.byte	0xf3
 13091 04d7 01       		.uleb128 0x1
 13092 04d8 51       		.byte	0x51
 13093 04d9 9F       		.byte	0x9f
 13094 04da 00000000 		.4byte	0
 13095 04de 00000000 		.4byte	0
 13096              	.LLST16:
 13097 04e2 3E000000 		.4byte	.LVL65
 13098 04e6 42000000 		.4byte	.LVL66
 13099 04ea 0200     		.2byte	0x2
 13100 04ec 30       		.byte	0x30
 13101 04ed 9F       		.byte	0x9f
 13102 04ee 44000000 		.4byte	.LVL67
 13103 04f2 5C000000 		.4byte	.LFE8
 13104 04f6 0100     		.2byte	0x1
 13105 04f8 50       		.byte	0x50
 13106 04f9 00000000 		.4byte	0
 13107 04fd 00000000 		.4byte	0
 13108              	.LLST17:
 13109 0501 16000000 		.4byte	.LVL60
 13110 0505 2A000000 		.4byte	.LVL61
 13111 0509 0100     		.2byte	0x1
 13112 050b 50       		.byte	0x50
 13113 050c 2A000000 		.4byte	.LVL61
 13114 0510 30000000 		.4byte	.LVL63
 13115 0514 0100     		.2byte	0x1
 13116 0516 54       		.byte	0x54
 13117 0517 42000000 		.4byte	.LVL66
 13118 051b 44000000 		.4byte	.LVL67
 13119 051f 0100     		.2byte	0x1
 13120 0521 50       		.byte	0x50
 13121 0522 00000000 		.4byte	0
 13122 0526 00000000 		.4byte	0
 13123              	.LLST18:
 13124 052a 00000000 		.4byte	.LVL68
 13125 052e 0B000000 		.4byte	.LVL69-1
 13126 0532 0100     		.2byte	0x1
 13127 0534 50       		.byte	0x50
 13128 0535 0B000000 		.4byte	.LVL69-1
 13129 0539 0E000000 		.4byte	.LVL70
 13130 053d 0100     		.2byte	0x1
 13131 053f 54       		.byte	0x54
 13132 0540 0E000000 		.4byte	.LVL70
 13133 0544 28000000 		.4byte	.LVL73
 13134 0548 0400     		.2byte	0x4
 13135 054a F3       		.byte	0xf3
 13136 054b 01       		.uleb128 0x1
 13137 054c 50       		.byte	0x50
 13138 054d 9F       		.byte	0x9f
 13139 054e 28000000 		.4byte	.LVL73
 13140 0552 2F000000 		.4byte	.LVL75-1
 13141 0556 0100     		.2byte	0x1
ARM GAS  C:\Users\Phuong\AppData\Local\Temp\ccdTtd1y.s 			page 266


 13142 0558 50       		.byte	0x50
 13143 0559 2F000000 		.4byte	.LVL75-1
 13144 055d 4C000000 		.4byte	.LVL82
 13145 0561 0100     		.2byte	0x1
 13146 0563 54       		.byte	0x54
 13147 0564 4C000000 		.4byte	.LVL82
 13148 0568 66000000 		.4byte	.LVL85
 13149 056c 0400     		.2byte	0x4
 13150 056e F3       		.byte	0xf3
 13151 056f 01       		.uleb128 0x1
 13152 0570 50       		.byte	0x50
 13153 0571 9F       		.byte	0x9f
 13154 0572 66000000 		.4byte	.LVL85
 13155 0576 68000000 		.4byte	.LVL86
 13156 057a 0100     		.2byte	0x1
 13157 057c 54       		.byte	0x54
 13158 057d 68000000 		.4byte	.LVL86
 13159 0581 90000000 		.4byte	.LFE2
 13160 0585 0400     		.2byte	0x4
 13161 0587 F3       		.byte	0xf3
 13162 0588 01       		.uleb128 0x1
 13163 0589 50       		.byte	0x50
 13164 058a 9F       		.byte	0x9f
 13165 058b 00000000 		.4byte	0
 13166 058f 00000000 		.4byte	0
 13167              	.LLST19:
 13168 0593 00000000 		.4byte	.LVL68
 13169 0597 0B000000 		.4byte	.LVL69-1
 13170 059b 0100     		.2byte	0x1
 13171 059d 51       		.byte	0x51
 13172 059e 0B000000 		.4byte	.LVL69-1
 13173 05a2 28000000 		.4byte	.LVL73
 13174 05a6 0400     		.2byte	0x4
 13175 05a8 F3       		.byte	0xf3
 13176 05a9 01       		.uleb128 0x1
 13177 05aa 51       		.byte	0x51
 13178 05ab 9F       		.byte	0x9f
 13179 05ac 28000000 		.4byte	.LVL73
 13180 05b0 2F000000 		.4byte	.LVL75-1
 13181 05b4 0100     		.2byte	0x1
 13182 05b6 51       		.byte	0x51
 13183 05b7 2F000000 		.4byte	.LVL75-1
 13184 05bb 90000000 		.4byte	.LFE2
 13185 05bf 0400     		.2byte	0x4
 13186 05c1 F3       		.byte	0xf3
 13187 05c2 01       		.uleb128 0x1
 13188 05c3 51       		.byte	0x51
 13189 05c4 9F       		.byte	0x9f
 13190 05c5 00000000 		.4byte	0
 13191 05c9 00000000 		.4byte	0
 13192              	.LLST20:
 13193 05cd 00000000 		.4byte	.LVL68
 13194 05d1 0B000000 		.4byte	.LVL69-1
 13195 05d5 0100     		.2byte	0x1
 13196 05d7 52       		.byte	0x52
 13197 05d8 0B000000 		.4byte	.LVL69-1
 13198 05dc 28000000 		.4byte	.LVL73
ARM GAS  C:\Users\Phuong\AppData\Local\Temp\ccdTtd1y.s 			page 267


 13199 05e0 0400     		.2byte	0x4
 13200 05e2 F3       		.byte	0xf3
 13201 05e3 01       		.uleb128 0x1
 13202 05e4 52       		.byte	0x52
 13203 05e5 9F       		.byte	0x9f
 13204 05e6 28000000 		.4byte	.LVL73
 13205 05ea 2F000000 		.4byte	.LVL75-1
 13206 05ee 0100     		.2byte	0x1
 13207 05f0 52       		.byte	0x52
 13208 05f1 2F000000 		.4byte	.LVL75-1
 13209 05f5 90000000 		.4byte	.LFE2
 13210 05f9 0400     		.2byte	0x4
 13211 05fb F3       		.byte	0xf3
 13212 05fc 01       		.uleb128 0x1
 13213 05fd 52       		.byte	0x52
 13214 05fe 9F       		.byte	0x9f
 13215 05ff 00000000 		.4byte	0
 13216 0603 00000000 		.4byte	0
 13217              	.LLST21:
 13218 0607 0E000000 		.4byte	.LVL70
 13219 060b 24000000 		.4byte	.LVL71
 13220 060f 0100     		.2byte	0x1
 13221 0611 50       		.byte	0x50
 13222 0612 24000000 		.4byte	.LVL71
 13223 0616 28000000 		.4byte	.LVL73
 13224 061a 0100     		.2byte	0x1
 13225 061c 54       		.byte	0x54
 13226 061d 00000000 		.4byte	0
 13227 0621 00000000 		.4byte	0
 13228              	.LLST22:
 13229 0625 2C000000 		.4byte	.LVL74
 13230 0629 2F000000 		.4byte	.LVL75-1
 13231 062d 0100     		.2byte	0x1
 13232 062f 50       		.byte	0x50
 13233 0630 2F000000 		.4byte	.LVL75-1
 13234 0634 4C000000 		.4byte	.LVL82
 13235 0638 0100     		.2byte	0x1
 13236 063a 54       		.byte	0x54
 13237 063b 4C000000 		.4byte	.LVL82
 13238 063f 66000000 		.4byte	.LVL85
 13239 0643 0400     		.2byte	0x4
 13240 0645 F3       		.byte	0xf3
 13241 0646 01       		.uleb128 0x1
 13242 0647 50       		.byte	0x50
 13243 0648 9F       		.byte	0x9f
 13244 0649 66000000 		.4byte	.LVL85
 13245 064d 68000000 		.4byte	.LVL86
 13246 0651 0100     		.2byte	0x1
 13247 0653 54       		.byte	0x54
 13248 0654 68000000 		.4byte	.LVL86
 13249 0658 7A000000 		.4byte	.LVL88
 13250 065c 0400     		.2byte	0x4
 13251 065e F3       		.byte	0xf3
 13252 065f 01       		.uleb128 0x1
 13253 0660 50       		.byte	0x50
 13254 0661 9F       		.byte	0x9f
 13255 0662 00000000 		.4byte	0
ARM GAS  C:\Users\Phuong\AppData\Local\Temp\ccdTtd1y.s 			page 268


 13256 0666 00000000 		.4byte	0
 13257              	.LLST23:
 13258 066a 32000000 		.4byte	.LVL76
 13259 066e 38000000 		.4byte	.LVL78
 13260 0672 0100     		.2byte	0x1
 13261 0674 50       		.byte	0x50
 13262 0675 38000000 		.4byte	.LVL78
 13263 0679 7A000000 		.4byte	.LVL88
 13264 067d 0100     		.2byte	0x1
 13265 067f 55       		.byte	0x55
 13266 0680 00000000 		.4byte	0
 13267 0684 00000000 		.4byte	0
 13268              	.LLST24:
 13269 0688 34000000 		.4byte	.LVL77
 13270 068c 7A000000 		.4byte	.LVL88
 13271 0690 0100     		.2byte	0x1
 13272 0692 56       		.byte	0x56
 13273 0693 00000000 		.4byte	0
 13274 0697 00000000 		.4byte	0
 13275              	.LLST25:
 13276 069b 4C000000 		.4byte	.LVL82
 13277 069f 62000000 		.4byte	.LVL83
 13278 06a3 0100     		.2byte	0x1
 13279 06a5 50       		.byte	0x50
 13280 06a6 62000000 		.4byte	.LVL83
 13281 06aa 66000000 		.4byte	.LVL85
 13282 06ae 0100     		.2byte	0x1
 13283 06b0 54       		.byte	0x54
 13284 06b1 00000000 		.4byte	0
 13285 06b5 00000000 		.4byte	0
 13286              	.LLST26:
 13287 06b9 00000000 		.4byte	.LVL89
 13288 06bd 15000000 		.4byte	.LVL90-1
 13289 06c1 0100     		.2byte	0x1
 13290 06c3 50       		.byte	0x50
 13291 06c4 15000000 		.4byte	.LVL90-1
 13292 06c8 34000000 		.4byte	.LVL95
 13293 06cc 0100     		.2byte	0x1
 13294 06ce 57       		.byte	0x57
 13295 06cf 34000000 		.4byte	.LVL95
 13296 06d3 38000000 		.4byte	.LVL97
 13297 06d7 0100     		.2byte	0x1
 13298 06d9 50       		.byte	0x50
 13299 06da 38000000 		.4byte	.LVL97
 13300 06de E8030000 		.4byte	.LVL247
 13301 06e2 0100     		.2byte	0x1
 13302 06e4 57       		.byte	0x57
 13303 06e5 E8030000 		.4byte	.LVL247
 13304 06e9 00040000 		.4byte	.LFE1
 13305 06ed 0400     		.2byte	0x4
 13306 06ef F3       		.byte	0xf3
 13307 06f0 01       		.uleb128 0x1
 13308 06f1 50       		.byte	0x50
 13309 06f2 9F       		.byte	0x9f
 13310 06f3 00000000 		.4byte	0
 13311 06f7 00000000 		.4byte	0
 13312              	.LLST27:
ARM GAS  C:\Users\Phuong\AppData\Local\Temp\ccdTtd1y.s 			page 269


 13313 06fb 00000000 		.4byte	.LVL89
 13314 06ff 15000000 		.4byte	.LVL90-1
 13315 0703 0100     		.2byte	0x1
 13316 0705 51       		.byte	0x51
 13317 0706 15000000 		.4byte	.LVL90-1
 13318 070a 18000000 		.4byte	.LVL91
 13319 070e 0100     		.2byte	0x1
 13320 0710 54       		.byte	0x54
 13321 0711 18000000 		.4byte	.LVL91
 13322 0715 34000000 		.4byte	.LVL95
 13323 0719 0400     		.2byte	0x4
 13324 071b F3       		.byte	0xf3
 13325 071c 01       		.uleb128 0x1
 13326 071d 51       		.byte	0x51
 13327 071e 9F       		.byte	0x9f
 13328 071f 34000000 		.4byte	.LVL95
 13329 0723 36000000 		.4byte	.LVL96
 13330 0727 0100     		.2byte	0x1
 13331 0729 51       		.byte	0x51
 13332 072a 36000000 		.4byte	.LVL96
 13333 072e 46000000 		.4byte	.LVL100
 13334 0732 0100     		.2byte	0x1
 13335 0734 54       		.byte	0x54
 13336 0735 46000000 		.4byte	.LVL100
 13337 0739 6E000000 		.4byte	.LVL106
 13338 073d 0400     		.2byte	0x4
 13339 073f F3       		.byte	0xf3
 13340 0740 01       		.uleb128 0x1
 13341 0741 51       		.byte	0x51
 13342 0742 9F       		.byte	0x9f
 13343 0743 6E000000 		.4byte	.LVL106
 13344 0747 80000000 		.4byte	.LVL109
 13345 074b 0100     		.2byte	0x1
 13346 074d 54       		.byte	0x54
 13347 074e 80000000 		.4byte	.LVL109
 13348 0752 A8000000 		.4byte	.LVL115
 13349 0756 0400     		.2byte	0x4
 13350 0758 F3       		.byte	0xf3
 13351 0759 01       		.uleb128 0x1
 13352 075a 51       		.byte	0x51
 13353 075b 9F       		.byte	0x9f
 13354 075c A8000000 		.4byte	.LVL115
 13355 0760 BA000000 		.4byte	.LVL118
 13356 0764 0100     		.2byte	0x1
 13357 0766 54       		.byte	0x54
 13358 0767 BA000000 		.4byte	.LVL118
 13359 076b E2000000 		.4byte	.LVL124
 13360 076f 0400     		.2byte	0x4
 13361 0771 F3       		.byte	0xf3
 13362 0772 01       		.uleb128 0x1
 13363 0773 51       		.byte	0x51
 13364 0774 9F       		.byte	0x9f
 13365 0775 E2000000 		.4byte	.LVL124
 13366 0779 F4000000 		.4byte	.LVL127
 13367 077d 0100     		.2byte	0x1
 13368 077f 54       		.byte	0x54
 13369 0780 F4000000 		.4byte	.LVL127
ARM GAS  C:\Users\Phuong\AppData\Local\Temp\ccdTtd1y.s 			page 270


 13370 0784 1C010000 		.4byte	.LVL133
 13371 0788 0400     		.2byte	0x4
 13372 078a F3       		.byte	0xf3
 13373 078b 01       		.uleb128 0x1
 13374 078c 51       		.byte	0x51
 13375 078d 9F       		.byte	0x9f
 13376 078e 1C010000 		.4byte	.LVL133
 13377 0792 2C010000 		.4byte	.LVL137
 13378 0796 0100     		.2byte	0x1
 13379 0798 54       		.byte	0x54
 13380 0799 2C010000 		.4byte	.LVL137
 13381 079d 54010000 		.4byte	.LVL143
 13382 07a1 0400     		.2byte	0x4
 13383 07a3 F3       		.byte	0xf3
 13384 07a4 01       		.uleb128 0x1
 13385 07a5 51       		.byte	0x51
 13386 07a6 9F       		.byte	0x9f
 13387 07a7 54010000 		.4byte	.LVL143
 13388 07ab 66010000 		.4byte	.LVL148
 13389 07af 0100     		.2byte	0x1
 13390 07b1 54       		.byte	0x54
 13391 07b2 66010000 		.4byte	.LVL148
 13392 07b6 8A010000 		.4byte	.LVL154
 13393 07ba 0400     		.2byte	0x4
 13394 07bc F3       		.byte	0xf3
 13395 07bd 01       		.uleb128 0x1
 13396 07be 51       		.byte	0x51
 13397 07bf 9F       		.byte	0x9f
 13398 07c0 8A010000 		.4byte	.LVL154
 13399 07c4 9E010000 		.4byte	.LVL159
 13400 07c8 0100     		.2byte	0x1
 13401 07ca 54       		.byte	0x54
 13402 07cb 9E010000 		.4byte	.LVL159
 13403 07cf C6010000 		.4byte	.LVL165
 13404 07d3 0400     		.2byte	0x4
 13405 07d5 F3       		.byte	0xf3
 13406 07d6 01       		.uleb128 0x1
 13407 07d7 51       		.byte	0x51
 13408 07d8 9F       		.byte	0x9f
 13409 07d9 C6010000 		.4byte	.LVL165
 13410 07dd D8010000 		.4byte	.LVL169
 13411 07e1 0100     		.2byte	0x1
 13412 07e3 54       		.byte	0x54
 13413 07e4 D8010000 		.4byte	.LVL169
 13414 07e8 00020000 		.4byte	.LVL175
 13415 07ec 0400     		.2byte	0x4
 13416 07ee F3       		.byte	0xf3
 13417 07ef 01       		.uleb128 0x1
 13418 07f0 51       		.byte	0x51
 13419 07f1 9F       		.byte	0x9f
 13420 07f2 00020000 		.4byte	.LVL175
 13421 07f6 12020000 		.4byte	.LVL179
 13422 07fa 0100     		.2byte	0x1
 13423 07fc 54       		.byte	0x54
 13424 07fd 12020000 		.4byte	.LVL179
 13425 0801 36020000 		.4byte	.LVL185
 13426 0805 0400     		.2byte	0x4
ARM GAS  C:\Users\Phuong\AppData\Local\Temp\ccdTtd1y.s 			page 271


 13427 0807 F3       		.byte	0xf3
 13428 0808 01       		.uleb128 0x1
 13429 0809 51       		.byte	0x51
 13430 080a 9F       		.byte	0x9f
 13431 080b 36020000 		.4byte	.LVL185
 13432 080f 76020000 		.4byte	.LVL199
 13433 0813 0100     		.2byte	0x1
 13434 0815 54       		.byte	0x54
 13435 0816 76020000 		.4byte	.LVL199
 13436 081a 9C020000 		.4byte	.LVL204
 13437 081e 0400     		.2byte	0x4
 13438 0820 F3       		.byte	0xf3
 13439 0821 01       		.uleb128 0x1
 13440 0822 51       		.byte	0x51
 13441 0823 9F       		.byte	0x9f
 13442 0824 9C020000 		.4byte	.LVL204
 13443 0828 E8020000 		.4byte	.LVL212
 13444 082c 0100     		.2byte	0x1
 13445 082e 54       		.byte	0x54
 13446 082f E8020000 		.4byte	.LVL212
 13447 0833 FE020000 		.4byte	.LVL215
 13448 0837 0400     		.2byte	0x4
 13449 0839 F3       		.byte	0xf3
 13450 083a 01       		.uleb128 0x1
 13451 083b 51       		.byte	0x51
 13452 083c 9F       		.byte	0x9f
 13453 083d FE020000 		.4byte	.LVL215
 13454 0841 1A030000 		.4byte	.LVL220
 13455 0845 0100     		.2byte	0x1
 13456 0847 54       		.byte	0x54
 13457 0848 1A030000 		.4byte	.LVL220
 13458 084c 00040000 		.4byte	.LFE1
 13459 0850 0400     		.2byte	0x4
 13460 0852 F3       		.byte	0xf3
 13461 0853 01       		.uleb128 0x1
 13462 0854 51       		.byte	0x51
 13463 0855 9F       		.byte	0x9f
 13464 0856 00000000 		.4byte	0
 13465 085a 00000000 		.4byte	0
 13466              	.LLST28:
 13467 085e 6C000000 		.4byte	.LVL105
 13468 0862 6E000000 		.4byte	.LVL106
 13469 0866 0100     		.2byte	0x1
 13470 0868 50       		.byte	0x50
 13471 0869 A6000000 		.4byte	.LVL114
 13472 086d A8000000 		.4byte	.LVL115
 13473 0871 0100     		.2byte	0x1
 13474 0873 50       		.byte	0x50
 13475 0874 E0000000 		.4byte	.LVL123
 13476 0878 E2000000 		.4byte	.LVL124
 13477 087c 0100     		.2byte	0x1
 13478 087e 50       		.byte	0x50
 13479 087f 1A010000 		.4byte	.LVL132
 13480 0883 1C010000 		.4byte	.LVL133
 13481 0887 0100     		.2byte	0x1
 13482 0889 50       		.byte	0x50
 13483 088a 52010000 		.4byte	.LVL142
ARM GAS  C:\Users\Phuong\AppData\Local\Temp\ccdTtd1y.s 			page 272


 13484 088e 54010000 		.4byte	.LVL143
 13485 0892 0100     		.2byte	0x1
 13486 0894 50       		.byte	0x50
 13487 0895 88010000 		.4byte	.LVL153
 13488 0899 8A010000 		.4byte	.LVL154
 13489 089d 0100     		.2byte	0x1
 13490 089f 50       		.byte	0x50
 13491 08a0 C4010000 		.4byte	.LVL164
 13492 08a4 C6010000 		.4byte	.LVL165
 13493 08a8 0100     		.2byte	0x1
 13494 08aa 50       		.byte	0x50
 13495 08ab FE010000 		.4byte	.LVL174
 13496 08af 00020000 		.4byte	.LVL175
 13497 08b3 0100     		.2byte	0x1
 13498 08b5 50       		.byte	0x50
 13499 08b6 34020000 		.4byte	.LVL184
 13500 08ba 36020000 		.4byte	.LVL185
 13501 08be 0100     		.2byte	0x1
 13502 08c0 50       		.byte	0x50
 13503 08c1 2A030000 		.4byte	.LVL224
 13504 08c5 7C030000 		.4byte	.LVL225
 13505 08c9 0100     		.2byte	0x1
 13506 08cb 50       		.byte	0x50
 13507 08cc AE030000 		.4byte	.LVL232
 13508 08d0 B0030000 		.4byte	.LVL233
 13509 08d4 0100     		.2byte	0x1
 13510 08d6 50       		.byte	0x50
 13511 08d7 B6030000 		.4byte	.LVL235
 13512 08db BE030000 		.4byte	.LVL237
 13513 08df 0100     		.2byte	0x1
 13514 08e1 50       		.byte	0x50
 13515 08e2 BE030000 		.4byte	.LVL237
 13516 08e6 E2030000 		.4byte	.LVL244
 13517 08ea 0100     		.2byte	0x1
 13518 08ec 54       		.byte	0x54
 13519 08ed E4030000 		.4byte	.LVL245
 13520 08f1 E8030000 		.4byte	.LVL246
 13521 08f5 0100     		.2byte	0x1
 13522 08f7 54       		.byte	0x54
 13523 08f8 E8030000 		.4byte	.LVL246
 13524 08fc 00040000 		.4byte	.LFE1
 13525 0900 0100     		.2byte	0x1
 13526 0902 50       		.byte	0x50
 13527 0903 00000000 		.4byte	0
 13528 0907 00000000 		.4byte	0
 13529              	.LLST29:
 13530 090b 18000000 		.4byte	.LVL91
 13531 090f 2E000000 		.4byte	.LVL92
 13532 0913 0100     		.2byte	0x1
 13533 0915 50       		.byte	0x50
 13534 0916 2E000000 		.4byte	.LVL92
 13535 091a 32000000 		.4byte	.LVL94
 13536 091e 0100     		.2byte	0x1
 13537 0920 54       		.byte	0x54
 13538 0921 E2030000 		.4byte	.LVL244
 13539 0925 E4030000 		.4byte	.LVL245
 13540 0929 0100     		.2byte	0x1
ARM GAS  C:\Users\Phuong\AppData\Local\Temp\ccdTtd1y.s 			page 273


 13541 092b 50       		.byte	0x50
 13542 092c 00000000 		.4byte	0
 13543 0930 00000000 		.4byte	0
 13544              	.LLST30:
 13545 0934 34000000 		.4byte	.LVL95
 13546 0938 38000000 		.4byte	.LVL97
 13547 093c 0100     		.2byte	0x1
 13548 093e 50       		.byte	0x50
 13549 093f 38000000 		.4byte	.LVL97
 13550 0943 E2030000 		.4byte	.LVL244
 13551 0947 0100     		.2byte	0x1
 13552 0949 57       		.byte	0x57
 13553 094a 00000000 		.4byte	0
 13554 094e 00000000 		.4byte	0
 13555              	.LLST31:
 13556 0952 46000000 		.4byte	.LVL100
 13557 0956 5A000000 		.4byte	.LVL101
 13558 095a 0100     		.2byte	0x1
 13559 095c 50       		.byte	0x50
 13560 095d 5A000000 		.4byte	.LVL101
 13561 0961 6C000000 		.4byte	.LVL105
 13562 0965 0100     		.2byte	0x1
 13563 0967 54       		.byte	0x54
 13564 0968 00000000 		.4byte	0
 13565 096c 00000000 		.4byte	0
 13566              	.LLST32:
 13567 0970 80000000 		.4byte	.LVL109
 13568 0974 94000000 		.4byte	.LVL110
 13569 0978 0100     		.2byte	0x1
 13570 097a 50       		.byte	0x50
 13571 097b 94000000 		.4byte	.LVL110
 13572 097f A6000000 		.4byte	.LVL114
 13573 0983 0100     		.2byte	0x1
 13574 0985 54       		.byte	0x54
 13575 0986 00000000 		.4byte	0
 13576 098a 00000000 		.4byte	0
 13577              	.LLST33:
 13578 098e 5C010000 		.4byte	.LVL146
 13579 0992 63010000 		.4byte	.LVL147-1
 13580 0996 0100     		.2byte	0x1
 13581 0998 50       		.byte	0x50
 13582 0999 63010000 		.4byte	.LVL147-1
 13583 099d 8A010000 		.4byte	.LVL154
 13584 09a1 0300     		.2byte	0x3
 13585 09a3 91       		.byte	0x91
 13586 09a4 B47F     		.sleb128 -76
 13587 09a6 8A010000 		.4byte	.LVL154
 13588 09aa 8E010000 		.4byte	.LVL155
 13589 09ae 0100     		.2byte	0x1
 13590 09b0 50       		.byte	0x50
 13591 09b1 8E010000 		.4byte	.LVL155
 13592 09b5 D4030000 		.4byte	.LVL241
 13593 09b9 0300     		.2byte	0x3
 13594 09bb 91       		.byte	0x91
 13595 09bc B47F     		.sleb128 -76
 13596 09be 00000000 		.4byte	0
 13597 09c2 00000000 		.4byte	0
ARM GAS  C:\Users\Phuong\AppData\Local\Temp\ccdTtd1y.s 			page 274


 13598              	.LLST34:
 13599 09c6 94010000 		.4byte	.LVL157
 13600 09ca 9B010000 		.4byte	.LVL158-1
 13601 09ce 0100     		.2byte	0x1
 13602 09d0 50       		.byte	0x50
 13603 09d1 9B010000 		.4byte	.LVL158-1
 13604 09d5 C6010000 		.4byte	.LVL165
 13605 09d9 0300     		.2byte	0x3
 13606 09db 91       		.byte	0x91
 13607 09dc B87F     		.sleb128 -72
 13608 09de C6010000 		.4byte	.LVL165
 13609 09e2 CA010000 		.4byte	.LVL166
 13610 09e6 0100     		.2byte	0x1
 13611 09e8 50       		.byte	0x50
 13612 09e9 CA010000 		.4byte	.LVL166
 13613 09ed D4030000 		.4byte	.LVL241
 13614 09f1 0300     		.2byte	0x3
 13615 09f3 91       		.byte	0x91
 13616 09f4 B87F     		.sleb128 -72
 13617 09f6 00000000 		.4byte	0
 13618 09fa 00000000 		.4byte	0
 13619              	.LLST35:
 13620 09fe 08020000 		.4byte	.LVL177
 13621 0a02 0F020000 		.4byte	.LVL178-1
 13622 0a06 0100     		.2byte	0x1
 13623 0a08 50       		.byte	0x50
 13624 0a09 0F020000 		.4byte	.LVL178-1
 13625 0a0d 36020000 		.4byte	.LVL185
 13626 0a11 0300     		.2byte	0x3
 13627 0a13 91       		.byte	0x91
 13628 0a14 BC7F     		.sleb128 -68
 13629 0a16 36020000 		.4byte	.LVL185
 13630 0a1a 3E020000 		.4byte	.LVL187
 13631 0a1e 0100     		.2byte	0x1
 13632 0a20 50       		.byte	0x50
 13633 0a21 3E020000 		.4byte	.LVL187
 13634 0a25 C8030000 		.4byte	.LVL239
 13635 0a29 0300     		.2byte	0x3
 13636 0a2b 91       		.byte	0x91
 13637 0a2c BC7F     		.sleb128 -68
 13638 0a2e 00000000 		.4byte	0
 13639 0a32 00000000 		.4byte	0
 13640              	.LLST36:
 13641 0a36 44020000 		.4byte	.LVL189
 13642 0a3a 4D020000 		.4byte	.LVL190-1
 13643 0a3e 0100     		.2byte	0x1
 13644 0a40 50       		.byte	0x50
 13645 0a41 4D020000 		.4byte	.LVL190-1
 13646 0a45 58020000 		.4byte	.LVL191
 13647 0a49 0100     		.2byte	0x1
 13648 0a4b 5A       		.byte	0x5a
 13649 0a4c 58020000 		.4byte	.LVL191
 13650 0a50 5C020000 		.4byte	.LVL192
 13651 0a54 0100     		.2byte	0x1
 13652 0a56 50       		.byte	0x50
 13653 0a57 5C020000 		.4byte	.LVL192
 13654 0a5b BC030000 		.4byte	.LVL236
ARM GAS  C:\Users\Phuong\AppData\Local\Temp\ccdTtd1y.s 			page 275


 13655 0a5f 0100     		.2byte	0x1
 13656 0a61 5A       		.byte	0x5a
 13657 0a62 BC030000 		.4byte	.LVL236
 13658 0a66 C1030000 		.4byte	.LVL238-1
 13659 0a6a 0100     		.2byte	0x1
 13660 0a6c 53       		.byte	0x53
 13661 0a6d C1030000 		.4byte	.LVL238-1
 13662 0a71 C8030000 		.4byte	.LVL239
 13663 0a75 0100     		.2byte	0x1
 13664 0a77 5A       		.byte	0x5a
 13665 0a78 00000000 		.4byte	0
 13666 0a7c 00000000 		.4byte	0
 13667              	.LLST37:
 13668 0a80 24010000 		.4byte	.LVL135
 13669 0a84 29010000 		.4byte	.LVL136-1
 13670 0a88 0100     		.2byte	0x1
 13671 0a8a 50       		.byte	0x50
 13672 0a8b 29010000 		.4byte	.LVL136-1
 13673 0a8f 54010000 		.4byte	.LVL143
 13674 0a93 0100     		.2byte	0x1
 13675 0a95 55       		.byte	0x55
 13676 0a96 54010000 		.4byte	.LVL143
 13677 0a9a 56010000 		.4byte	.LVL144
 13678 0a9e 0100     		.2byte	0x1
 13679 0aa0 50       		.byte	0x50
 13680 0aa1 56010000 		.4byte	.LVL144
 13681 0aa5 64020000 		.4byte	.LVL194
 13682 0aa9 0100     		.2byte	0x1
 13683 0aab 55       		.byte	0x55
 13684 0aac 00000000 		.4byte	0
 13685 0ab0 00000000 		.4byte	0
 13686              	.LLST38:
 13687 0ab4 BA000000 		.4byte	.LVL118
 13688 0ab8 CE000000 		.4byte	.LVL119
 13689 0abc 0100     		.2byte	0x1
 13690 0abe 50       		.byte	0x50
 13691 0abf CE000000 		.4byte	.LVL119
 13692 0ac3 E0000000 		.4byte	.LVL123
 13693 0ac7 0100     		.2byte	0x1
 13694 0ac9 54       		.byte	0x54
 13695 0aca 00000000 		.4byte	0
 13696 0ace 00000000 		.4byte	0
 13697              	.LLST39:
 13698 0ad2 F4000000 		.4byte	.LVL127
 13699 0ad6 08010000 		.4byte	.LVL128
 13700 0ada 0100     		.2byte	0x1
 13701 0adc 50       		.byte	0x50
 13702 0add 08010000 		.4byte	.LVL128
 13703 0ae1 1A010000 		.4byte	.LVL132
 13704 0ae5 0100     		.2byte	0x1
 13705 0ae7 54       		.byte	0x54
 13706 0ae8 00000000 		.4byte	0
 13707 0aec 00000000 		.4byte	0
 13708              	.LLST40:
 13709 0af0 2C010000 		.4byte	.LVL137
 13710 0af4 40010000 		.4byte	.LVL138
 13711 0af8 0100     		.2byte	0x1
ARM GAS  C:\Users\Phuong\AppData\Local\Temp\ccdTtd1y.s 			page 276


 13712 0afa 50       		.byte	0x50
 13713 0afb 40010000 		.4byte	.LVL138
 13714 0aff 52010000 		.4byte	.LVL142
 13715 0b03 0100     		.2byte	0x1
 13716 0b05 54       		.byte	0x54
 13717 0b06 00000000 		.4byte	0
 13718 0b0a 00000000 		.4byte	0
 13719              	.LLST41:
 13720 0b0e 66010000 		.4byte	.LVL148
 13721 0b12 7A010000 		.4byte	.LVL149
 13722 0b16 0100     		.2byte	0x1
 13723 0b18 50       		.byte	0x50
 13724 0b19 7A010000 		.4byte	.LVL149
 13725 0b1d 88010000 		.4byte	.LVL153
 13726 0b21 0100     		.2byte	0x1
 13727 0b23 54       		.byte	0x54
 13728 0b24 00000000 		.4byte	0
 13729 0b28 00000000 		.4byte	0
 13730              	.LLST42:
 13731 0b2c 9E010000 		.4byte	.LVL159
 13732 0b30 B2010000 		.4byte	.LVL160
 13733 0b34 0100     		.2byte	0x1
 13734 0b36 50       		.byte	0x50
 13735 0b37 B2010000 		.4byte	.LVL160
 13736 0b3b C4010000 		.4byte	.LVL164
 13737 0b3f 0100     		.2byte	0x1
 13738 0b41 54       		.byte	0x54
 13739 0b42 00000000 		.4byte	0
 13740 0b46 00000000 		.4byte	0
 13741              	.LLST43:
 13742 0b4a D8010000 		.4byte	.LVL169
 13743 0b4e EC010000 		.4byte	.LVL170
 13744 0b52 0100     		.2byte	0x1
 13745 0b54 50       		.byte	0x50
 13746 0b55 EC010000 		.4byte	.LVL170
 13747 0b59 FE010000 		.4byte	.LVL174
 13748 0b5d 0100     		.2byte	0x1
 13749 0b5f 54       		.byte	0x54
 13750 0b60 00000000 		.4byte	0
 13751 0b64 00000000 		.4byte	0
 13752              	.LLST44:
 13753 0b68 12020000 		.4byte	.LVL179
 13754 0b6c 26020000 		.4byte	.LVL180
 13755 0b70 0100     		.2byte	0x1
 13756 0b72 50       		.byte	0x50
 13757 0b73 26020000 		.4byte	.LVL180
 13758 0b77 34020000 		.4byte	.LVL184
 13759 0b7b 0100     		.2byte	0x1
 13760 0b7d 54       		.byte	0x54
 13761 0b7e 00000000 		.4byte	0
 13762 0b82 00000000 		.4byte	0
 13763              	.LLST45:
 13764 0b86 64020000 		.4byte	.LVL194
 13765 0b8a 68020000 		.4byte	.LVL195
 13766 0b8e 0100     		.2byte	0x1
 13767 0b90 50       		.byte	0x50
 13768 0b91 68020000 		.4byte	.LVL195
ARM GAS  C:\Users\Phuong\AppData\Local\Temp\ccdTtd1y.s 			page 277


 13769 0b95 E0020000 		.4byte	.LVL211
 13770 0b99 0100     		.2byte	0x1
 13771 0b9b 55       		.byte	0x55
 13772 0b9c FE020000 		.4byte	.LVL215
 13773 0ba0 06030000 		.4byte	.LVL217
 13774 0ba4 0100     		.2byte	0x1
 13775 0ba6 55       		.byte	0x55
 13776 0ba7 06030000 		.4byte	.LVL217
 13777 0bab 10030000 		.4byte	.LVL218
 13778 0baf 0100     		.2byte	0x1
 13779 0bb1 50       		.byte	0x50
 13780 0bb2 10030000 		.4byte	.LVL218
 13781 0bb6 16030000 		.4byte	.LVL219
 13782 0bba 0100     		.2byte	0x1
 13783 0bbc 55       		.byte	0x55
 13784 0bbd 00000000 		.4byte	0
 13785 0bc1 00000000 		.4byte	0
 13786              	.LLST46:
 13787 0bc5 3A020000 		.4byte	.LVL186
 13788 0bc9 1A030000 		.4byte	.LVL220
 13789 0bcd 0200     		.2byte	0x2
 13790 0bcf 30       		.byte	0x30
 13791 0bd0 9F       		.byte	0x9f
 13792 0bd1 1A030000 		.4byte	.LVL220
 13793 0bd5 23030000 		.4byte	.LVL222-1
 13794 0bd9 0100     		.2byte	0x1
 13795 0bdb 52       		.byte	0x52
 13796 0bdc 7C030000 		.4byte	.LVL225
 13797 0be0 83030000 		.4byte	.LVL226-1
 13798 0be4 0100     		.2byte	0x1
 13799 0be6 52       		.byte	0x52
 13800 0be7 B0030000 		.4byte	.LVL233
 13801 0beb B3030000 		.4byte	.LVL234-1
 13802 0bef 0100     		.2byte	0x1
 13803 0bf1 52       		.byte	0x52
 13804 0bf2 00000000 		.4byte	0
 13805 0bf6 00000000 		.4byte	0
 13806              	.LLST47:
 13807 0bfa 3A020000 		.4byte	.LVL186
 13808 0bfe 1A030000 		.4byte	.LVL220
 13809 0c02 0200     		.2byte	0x2
 13810 0c04 30       		.byte	0x30
 13811 0c05 9F       		.byte	0x9f
 13812 0c06 1A030000 		.4byte	.LVL220
 13813 0c0a 20030000 		.4byte	.LVL221
 13814 0c0e 0100     		.2byte	0x1
 13815 0c10 53       		.byte	0x53
 13816 0c11 7C030000 		.4byte	.LVL225
 13817 0c15 83030000 		.4byte	.LVL226-1
 13818 0c19 0100     		.2byte	0x1
 13819 0c1b 53       		.byte	0x53
 13820 0c1c B0030000 		.4byte	.LVL233
 13821 0c20 B3030000 		.4byte	.LVL234-1
 13822 0c24 0100     		.2byte	0x1
 13823 0c26 53       		.byte	0x53
 13824 0c27 00000000 		.4byte	0
 13825 0c2b 00000000 		.4byte	0
ARM GAS  C:\Users\Phuong\AppData\Local\Temp\ccdTtd1y.s 			page 278


 13826              	.LLST48:
 13827 0c2f 6E020000 		.4byte	.LVL197
 13828 0c33 73020000 		.4byte	.LVL198-1
 13829 0c37 0100     		.2byte	0x1
 13830 0c39 50       		.byte	0x50
 13831 0c3a 73020000 		.4byte	.LVL198-1
 13832 0c3e 9C020000 		.4byte	.LVL204
 13833 0c42 0100     		.2byte	0x1
 13834 0c44 56       		.byte	0x56
 13835 0c45 9C020000 		.4byte	.LVL204
 13836 0c49 A4020000 		.4byte	.LVL205
 13837 0c4d 0100     		.2byte	0x1
 13838 0c4f 50       		.byte	0x50
 13839 0c50 A4020000 		.4byte	.LVL205
 13840 0c54 06030000 		.4byte	.LVL217
 13841 0c58 0100     		.2byte	0x1
 13842 0c5a 56       		.byte	0x56
 13843 0c5b 10030000 		.4byte	.LVL218
 13844 0c5f 1A030000 		.4byte	.LVL220
 13845 0c63 0100     		.2byte	0x1
 13846 0c65 56       		.byte	0x56
 13847 0c66 00000000 		.4byte	0
 13848 0c6a 00000000 		.4byte	0
 13849              	.LLST49:
 13850 0c6e 76020000 		.4byte	.LVL199
 13851 0c72 8A020000 		.4byte	.LVL200
 13852 0c76 0100     		.2byte	0x1
 13853 0c78 50       		.byte	0x50
 13854 0c79 8A020000 		.4byte	.LVL200
 13855 0c7d 9C020000 		.4byte	.LVL204
 13856 0c81 0100     		.2byte	0x1
 13857 0c83 54       		.byte	0x54
 13858 0c84 00000000 		.4byte	0
 13859 0c88 00000000 		.4byte	0
 13860              	.LLST50:
 13861 0c8c BC020000 		.4byte	.LVL206
 13862 0c90 C7020000 		.4byte	.LVL207-1
 13863 0c94 0100     		.2byte	0x1
 13864 0c96 51       		.byte	0x51
 13865 0c97 00000000 		.4byte	0
 13866 0c9b 00000000 		.4byte	0
 13867              	.LLST51:
 13868 0c9f E0020000 		.4byte	.LVL211
 13869 0ca3 F6020000 		.4byte	.LVL213
 13870 0ca7 0100     		.2byte	0x1
 13871 0ca9 50       		.byte	0x50
 13872 0caa F6020000 		.4byte	.LVL213
 13873 0cae FE020000 		.4byte	.LVL215
 13874 0cb2 0100     		.2byte	0x1
 13875 0cb4 55       		.byte	0x55
 13876 0cb5 16030000 		.4byte	.LVL219
 13877 0cb9 1A030000 		.4byte	.LVL220
 13878 0cbd 0100     		.2byte	0x1
 13879 0cbf 50       		.byte	0x50
 13880 0cc0 00000000 		.4byte	0
 13881 0cc4 00000000 		.4byte	0
 13882              	.LLST52:
ARM GAS  C:\Users\Phuong\AppData\Local\Temp\ccdTtd1y.s 			page 279


 13883 0cc8 86030000 		.4byte	.LVL227
 13884 0ccc 9C030000 		.4byte	.LVL228
 13885 0cd0 0100     		.2byte	0x1
 13886 0cd2 50       		.byte	0x50
 13887 0cd3 9C030000 		.4byte	.LVL228
 13888 0cd7 AE030000 		.4byte	.LVL232
 13889 0cdb 0100     		.2byte	0x1
 13890 0cdd 54       		.byte	0x54
 13891 0cde 00000000 		.4byte	0
 13892 0ce2 00000000 		.4byte	0
 13893              	.LLST53:
 13894 0ce6 00000000 		.4byte	.LVL248
 13895 0cea 0C000000 		.4byte	.LVL249
 13896 0cee 0100     		.2byte	0x1
 13897 0cf0 50       		.byte	0x50
 13898 0cf1 0C000000 		.4byte	.LVL249
 13899 0cf5 78000000 		.4byte	.LVL270
 13900 0cf9 0100     		.2byte	0x1
 13901 0cfb 57       		.byte	0x57
 13902 0cfc 78000000 		.4byte	.LVL270
 13903 0d00 96000000 		.4byte	.LVL274
 13904 0d04 0400     		.2byte	0x4
 13905 0d06 F3       		.byte	0xf3
 13906 0d07 01       		.uleb128 0x1
 13907 0d08 50       		.byte	0x50
 13908 0d09 9F       		.byte	0x9f
 13909 0d0a 96000000 		.4byte	.LVL274
 13910 0d0e 9A000000 		.4byte	.LVL276
 13911 0d12 0100     		.2byte	0x1
 13912 0d14 57       		.byte	0x57
 13913 0d15 9A000000 		.4byte	.LVL276
 13914 0d19 A6000000 		.4byte	.LVL280
 13915 0d1d 0400     		.2byte	0x4
 13916 0d1f F3       		.byte	0xf3
 13917 0d20 01       		.uleb128 0x1
 13918 0d21 50       		.byte	0x50
 13919 0d22 9F       		.byte	0x9f
 13920 0d23 A6000000 		.4byte	.LVL280
 13921 0d27 A8000000 		.4byte	.LVL281
 13922 0d2b 0100     		.2byte	0x1
 13923 0d2d 57       		.byte	0x57
 13924 0d2e A8000000 		.4byte	.LVL281
 13925 0d32 B0000000 		.4byte	.LVL283
 13926 0d36 0400     		.2byte	0x4
 13927 0d38 F3       		.byte	0xf3
 13928 0d39 01       		.uleb128 0x1
 13929 0d3a 50       		.byte	0x50
 13930 0d3b 9F       		.byte	0x9f
 13931 0d3c B0000000 		.4byte	.LVL283
 13932 0d40 B2000000 		.4byte	.LVL284
 13933 0d44 0100     		.2byte	0x1
 13934 0d46 57       		.byte	0x57
 13935 0d47 B2000000 		.4byte	.LVL284
 13936 0d4b DC000000 		.4byte	.LFE6
 13937 0d4f 0400     		.2byte	0x4
 13938 0d51 F3       		.byte	0xf3
 13939 0d52 01       		.uleb128 0x1
ARM GAS  C:\Users\Phuong\AppData\Local\Temp\ccdTtd1y.s 			page 280


 13940 0d53 50       		.byte	0x50
 13941 0d54 9F       		.byte	0x9f
 13942 0d55 00000000 		.4byte	0
 13943 0d59 00000000 		.4byte	0
 13944              	.LLST54:
 13945 0d5d 00000000 		.4byte	.LVL248
 13946 0d61 0F000000 		.4byte	.LVL250-1
 13947 0d65 0100     		.2byte	0x1
 13948 0d67 51       		.byte	0x51
 13949 0d68 0F000000 		.4byte	.LVL250-1
 13950 0d6c 36000000 		.4byte	.LVL256
 13951 0d70 0100     		.2byte	0x1
 13952 0d72 56       		.byte	0x56
 13953 0d73 36000000 		.4byte	.LVL256
 13954 0d77 38000000 		.4byte	.LVL257
 13955 0d7b 0400     		.2byte	0x4
 13956 0d7d F3       		.byte	0xf3
 13957 0d7e 01       		.uleb128 0x1
 13958 0d7f 51       		.byte	0x51
 13959 0d80 9F       		.byte	0x9f
 13960 0d81 38000000 		.4byte	.LVL257
 13961 0d85 62000000 		.4byte	.LVL265
 13962 0d89 0100     		.2byte	0x1
 13963 0d8b 56       		.byte	0x56
 13964 0d8c 62000000 		.4byte	.LVL265
 13965 0d90 64000000 		.4byte	.LVL266
 13966 0d94 0400     		.2byte	0x4
 13967 0d96 F3       		.byte	0xf3
 13968 0d97 01       		.uleb128 0x1
 13969 0d98 51       		.byte	0x51
 13970 0d99 9F       		.byte	0x9f
 13971 0d9a 64000000 		.4byte	.LVL266
 13972 0d9e 92000000 		.4byte	.LVL273
 13973 0da2 0100     		.2byte	0x1
 13974 0da4 56       		.byte	0x56
 13975 0da5 92000000 		.4byte	.LVL273
 13976 0da9 96000000 		.4byte	.LVL274
 13977 0dad 0400     		.2byte	0x4
 13978 0daf F3       		.byte	0xf3
 13979 0db0 01       		.uleb128 0x1
 13980 0db1 51       		.byte	0x51
 13981 0db2 9F       		.byte	0x9f
 13982 0db3 96000000 		.4byte	.LVL274
 13983 0db7 98000000 		.4byte	.LVL275
 13984 0dbb 0100     		.2byte	0x1
 13985 0dbd 56       		.byte	0x56
 13986 0dbe 98000000 		.4byte	.LVL275
 13987 0dc2 9A000000 		.4byte	.LVL276
 13988 0dc6 0400     		.2byte	0x4
 13989 0dc8 F3       		.byte	0xf3
 13990 0dc9 01       		.uleb128 0x1
 13991 0dca 51       		.byte	0x51
 13992 0dcb 9F       		.byte	0x9f
 13993 0dcc 9A000000 		.4byte	.LVL276
 13994 0dd0 9C000000 		.4byte	.LVL277
 13995 0dd4 0100     		.2byte	0x1
 13996 0dd6 56       		.byte	0x56
ARM GAS  C:\Users\Phuong\AppData\Local\Temp\ccdTtd1y.s 			page 281


 13997 0dd7 9C000000 		.4byte	.LVL277
 13998 0ddb A6000000 		.4byte	.LVL280
 13999 0ddf 0400     		.2byte	0x4
 14000 0de1 F3       		.byte	0xf3
 14001 0de2 01       		.uleb128 0x1
 14002 0de3 51       		.byte	0x51
 14003 0de4 9F       		.byte	0x9f
 14004 0de5 A6000000 		.4byte	.LVL280
 14005 0de9 A8000000 		.4byte	.LVL281
 14006 0ded 0100     		.2byte	0x1
 14007 0def 56       		.byte	0x56
 14008 0df0 A8000000 		.4byte	.LVL281
 14009 0df4 B0000000 		.4byte	.LVL283
 14010 0df8 0400     		.2byte	0x4
 14011 0dfa F3       		.byte	0xf3
 14012 0dfb 01       		.uleb128 0x1
 14013 0dfc 51       		.byte	0x51
 14014 0dfd 9F       		.byte	0x9f
 14015 0dfe B0000000 		.4byte	.LVL283
 14016 0e02 B2000000 		.4byte	.LVL284
 14017 0e06 0100     		.2byte	0x1
 14018 0e08 56       		.byte	0x56
 14019 0e09 B2000000 		.4byte	.LVL284
 14020 0e0d DC000000 		.4byte	.LFE6
 14021 0e11 0400     		.2byte	0x4
 14022 0e13 F3       		.byte	0xf3
 14023 0e14 01       		.uleb128 0x1
 14024 0e15 51       		.byte	0x51
 14025 0e16 9F       		.byte	0x9f
 14026 0e17 00000000 		.4byte	0
 14027 0e1b 00000000 		.4byte	0
 14028              	.LLST55:
 14029 0e1f 00000000 		.4byte	.LVL248
 14030 0e23 0F000000 		.4byte	.LVL250-1
 14031 0e27 0100     		.2byte	0x1
 14032 0e29 52       		.byte	0x52
 14033 0e2a 0F000000 		.4byte	.LVL250-1
 14034 0e2e 40000000 		.4byte	.LVL260
 14035 0e32 0100     		.2byte	0x1
 14036 0e34 55       		.byte	0x55
 14037 0e35 40000000 		.4byte	.LVL260
 14038 0e39 B0000000 		.4byte	.LVL283
 14039 0e3d 0400     		.2byte	0x4
 14040 0e3f F3       		.byte	0xf3
 14041 0e40 01       		.uleb128 0x1
 14042 0e41 52       		.byte	0x52
 14043 0e42 9F       		.byte	0x9f
 14044 0e43 B0000000 		.4byte	.LVL283
 14045 0e47 B2000000 		.4byte	.LVL284
 14046 0e4b 0100     		.2byte	0x1
 14047 0e4d 55       		.byte	0x55
 14048 0e4e B2000000 		.4byte	.LVL284
 14049 0e52 DC000000 		.4byte	.LFE6
 14050 0e56 0400     		.2byte	0x4
 14051 0e58 F3       		.byte	0xf3
 14052 0e59 01       		.uleb128 0x1
 14053 0e5a 52       		.byte	0x52
ARM GAS  C:\Users\Phuong\AppData\Local\Temp\ccdTtd1y.s 			page 282


 14054 0e5b 9F       		.byte	0x9f
 14055 0e5c 00000000 		.4byte	0
 14056 0e60 00000000 		.4byte	0
 14057              	.LLST56:
 14058 0e64 9E000000 		.4byte	.LVL278
 14059 0e68 A6000000 		.4byte	.LVL280
 14060 0e6c 0100     		.2byte	0x1
 14061 0e6e 56       		.byte	0x56
 14062 0e6f A8000000 		.4byte	.LVL281
 14063 0e73 B0000000 		.4byte	.LVL283
 14064 0e77 0100     		.2byte	0x1
 14065 0e79 56       		.byte	0x56
 14066 0e7a B2000000 		.4byte	.LVL284
 14067 0e7e B6000000 		.4byte	.LVL285
 14068 0e82 0100     		.2byte	0x1
 14069 0e84 56       		.byte	0x56
 14070 0e85 B6000000 		.4byte	.LVL285
 14071 0e89 DC000000 		.4byte	.LFE6
 14072 0e8d 0100     		.2byte	0x1
 14073 0e8f 50       		.byte	0x50
 14074 0e90 00000000 		.4byte	0
 14075 0e94 00000000 		.4byte	0
 14076              	.LLST57:
 14077 0e98 12000000 		.4byte	.LVL251
 14078 0e9c 17000000 		.4byte	.LVL252-1
 14079 0ea0 0100     		.2byte	0x1
 14080 0ea2 50       		.byte	0x50
 14081 0ea3 17000000 		.4byte	.LVL252-1
 14082 0ea7 1A000000 		.4byte	.LVL253
 14083 0eab 0100     		.2byte	0x1
 14084 0ead 54       		.byte	0x54
 14085 0eae 38000000 		.4byte	.LVL257
 14086 0eb2 3A000000 		.4byte	.LVL258
 14087 0eb6 0100     		.2byte	0x1
 14088 0eb8 50       		.byte	0x50
 14089 0eb9 3A000000 		.4byte	.LVL258
 14090 0ebd B0000000 		.4byte	.LVL283
 14091 0ec1 0100     		.2byte	0x1
 14092 0ec3 54       		.byte	0x54
 14093 0ec4 00000000 		.4byte	0
 14094 0ec8 00000000 		.4byte	0
 14095              	.LLST58:
 14096 0ecc 1A000000 		.4byte	.LVL253
 14097 0ed0 32000000 		.4byte	.LVL254
 14098 0ed4 0100     		.2byte	0x1
 14099 0ed6 50       		.byte	0x50
 14100 0ed7 32000000 		.4byte	.LVL254
 14101 0edb 38000000 		.4byte	.LVL257
 14102 0edf 0100     		.2byte	0x1
 14103 0ee1 54       		.byte	0x54
 14104 0ee2 B0000000 		.4byte	.LVL283
 14105 0ee6 B2000000 		.4byte	.LVL284
 14106 0eea 0100     		.2byte	0x1
 14107 0eec 50       		.byte	0x50
 14108 0eed 00000000 		.4byte	0
 14109 0ef1 00000000 		.4byte	0
 14110              	.LLST59:
ARM GAS  C:\Users\Phuong\AppData\Local\Temp\ccdTtd1y.s 			page 283


 14111 0ef5 40000000 		.4byte	.LVL260
 14112 0ef9 45000000 		.4byte	.LVL261-1
 14113 0efd 0100     		.2byte	0x1
 14114 0eff 50       		.byte	0x50
 14115 0f00 45000000 		.4byte	.LVL261-1
 14116 0f04 48000000 		.4byte	.LVL262
 14117 0f08 0100     		.2byte	0x1
 14118 0f0a 55       		.byte	0x55
 14119 0f0b 64000000 		.4byte	.LVL266
 14120 0f0f 6A000000 		.4byte	.LVL267
 14121 0f13 0100     		.2byte	0x1
 14122 0f15 50       		.byte	0x50
 14123 0f16 6A000000 		.4byte	.LVL267
 14124 0f1a A6000000 		.4byte	.LVL280
 14125 0f1e 0100     		.2byte	0x1
 14126 0f20 55       		.byte	0x55
 14127 0f21 00000000 		.4byte	0
 14128 0f25 00000000 		.4byte	0
 14129              	.LLST60:
 14130 0f29 48000000 		.4byte	.LVL262
 14131 0f2d 5E000000 		.4byte	.LVL263
 14132 0f31 0100     		.2byte	0x1
 14133 0f33 50       		.byte	0x50
 14134 0f34 5E000000 		.4byte	.LVL263
 14135 0f38 64000000 		.4byte	.LVL266
 14136 0f3c 0100     		.2byte	0x1
 14137 0f3e 55       		.byte	0x55
 14138 0f3f A6000000 		.4byte	.LVL280
 14139 0f43 A8000000 		.4byte	.LVL281
 14140 0f47 0100     		.2byte	0x1
 14141 0f49 50       		.byte	0x50
 14142 0f4a 00000000 		.4byte	0
 14143 0f4e 00000000 		.4byte	0
 14144              	.LLST61:
 14145 0f52 78000000 		.4byte	.LVL270
 14146 0f56 8E000000 		.4byte	.LVL271
 14147 0f5a 0100     		.2byte	0x1
 14148 0f5c 50       		.byte	0x50
 14149 0f5d 8E000000 		.4byte	.LVL271
 14150 0f61 96000000 		.4byte	.LVL274
 14151 0f65 0100     		.2byte	0x1
 14152 0f67 57       		.byte	0x57
 14153 0f68 9A000000 		.4byte	.LVL276
 14154 0f6c 9E000000 		.4byte	.LVL278
 14155 0f70 0100     		.2byte	0x1
 14156 0f72 50       		.byte	0x50
 14157 0f73 00000000 		.4byte	0
 14158 0f77 00000000 		.4byte	0
 14159              	.LLST62:
 14160 0f7b 00000000 		.4byte	.LVL286
 14161 0f7f 0F000000 		.4byte	.LVL287-1
 14162 0f83 0100     		.2byte	0x1
 14163 0f85 50       		.byte	0x50
 14164 0f86 0F000000 		.4byte	.LVL287-1
 14165 0f8a 1A000000 		.4byte	.LVL289
 14166 0f8e 0100     		.2byte	0x1
 14167 0f90 54       		.byte	0x54
ARM GAS  C:\Users\Phuong\AppData\Local\Temp\ccdTtd1y.s 			page 284


 14168 0f91 1A000000 		.4byte	.LVL289
 14169 0f95 36000000 		.4byte	.LVL293
 14170 0f99 0400     		.2byte	0x4
 14171 0f9b F3       		.byte	0xf3
 14172 0f9c 01       		.uleb128 0x1
 14173 0f9d 50       		.byte	0x50
 14174 0f9e 9F       		.byte	0x9f
 14175 0f9f 36000000 		.4byte	.LVL293
 14176 0fa3 4E000000 		.4byte	.LVL296
 14177 0fa7 0100     		.2byte	0x1
 14178 0fa9 54       		.byte	0x54
 14179 0faa 4E000000 		.4byte	.LVL296
 14180 0fae 68000000 		.4byte	.LVL300
 14181 0fb2 0400     		.2byte	0x4
 14182 0fb4 F3       		.byte	0xf3
 14183 0fb5 01       		.uleb128 0x1
 14184 0fb6 50       		.byte	0x50
 14185 0fb7 9F       		.byte	0x9f
 14186 0fb8 68000000 		.4byte	.LVL300
 14187 0fbc 7A000000 		.4byte	.LVL304
 14188 0fc0 0100     		.2byte	0x1
 14189 0fc2 54       		.byte	0x54
 14190 0fc3 7A000000 		.4byte	.LVL304
 14191 0fc7 96000000 		.4byte	.LVL308
 14192 0fcb 0400     		.2byte	0x4
 14193 0fcd F3       		.byte	0xf3
 14194 0fce 01       		.uleb128 0x1
 14195 0fcf 50       		.byte	0x50
 14196 0fd0 9F       		.byte	0x9f
 14197 0fd1 96000000 		.4byte	.LVL308
 14198 0fd5 A8000000 		.4byte	.LVL312
 14199 0fd9 0100     		.2byte	0x1
 14200 0fdb 54       		.byte	0x54
 14201 0fdc A8000000 		.4byte	.LVL312
 14202 0fe0 C2000000 		.4byte	.LVL316
 14203 0fe4 0400     		.2byte	0x4
 14204 0fe6 F3       		.byte	0xf3
 14205 0fe7 01       		.uleb128 0x1
 14206 0fe8 50       		.byte	0x50
 14207 0fe9 9F       		.byte	0x9f
 14208 0fea C2000000 		.4byte	.LVL316
 14209 0fee D4000000 		.4byte	.LVL319
 14210 0ff2 0100     		.2byte	0x1
 14211 0ff4 54       		.byte	0x54
 14212 0ff5 D4000000 		.4byte	.LVL319
 14213 0ff9 F4000000 		.4byte	.LVL324
 14214 0ffd 0400     		.2byte	0x4
 14215 0fff F3       		.byte	0xf3
 14216 1000 01       		.uleb128 0x1
 14217 1001 50       		.byte	0x50
 14218 1002 9F       		.byte	0x9f
 14219 1003 F4000000 		.4byte	.LVL324
 14220 1007 F6000000 		.4byte	.LVL325
 14221 100b 0100     		.2byte	0x1
 14222 100d 54       		.byte	0x54
 14223 100e F6000000 		.4byte	.LVL325
 14224 1012 50010000 		.4byte	.LFE5
ARM GAS  C:\Users\Phuong\AppData\Local\Temp\ccdTtd1y.s 			page 285


 14225 1016 0400     		.2byte	0x4
 14226 1018 F3       		.byte	0xf3
 14227 1019 01       		.uleb128 0x1
 14228 101a 50       		.byte	0x50
 14229 101b 9F       		.byte	0x9f
 14230 101c 00000000 		.4byte	0
 14231 1020 00000000 		.4byte	0
 14232              	.LLST63:
 14233 1024 00000000 		.4byte	.LVL286
 14234 1028 0F000000 		.4byte	.LVL287-1
 14235 102c 0600     		.2byte	0x6
 14236 102e 52       		.byte	0x52
 14237 102f 93       		.byte	0x93
 14238 1030 04       		.uleb128 0x4
 14239 1031 53       		.byte	0x53
 14240 1032 93       		.byte	0x93
 14241 1033 04       		.uleb128 0x4
 14242 1034 0F000000 		.4byte	.LVL287-1
 14243 1038 50010000 		.4byte	.LFE5
 14244 103c 0600     		.2byte	0x6
 14245 103e F3       		.byte	0xf3
 14246 103f 03       		.uleb128 0x3
 14247 1040 F5       		.byte	0xf5
 14248 1041 02       		.uleb128 0x2
 14249 1042 25       		.uleb128 0x25
 14250 1043 9F       		.byte	0x9f
 14251 1044 00000000 		.4byte	0
 14252 1048 00000000 		.4byte	0
 14253              	.LLST64:
 14254 104c FA000000 		.4byte	.LVL327
 14255 1050 02010000 		.4byte	.LVL329
 14256 1054 0100     		.2byte	0x1
 14257 1056 54       		.byte	0x54
 14258 1057 04010000 		.4byte	.LVL330
 14259 105b 0C010000 		.4byte	.LVL332
 14260 105f 0100     		.2byte	0x1
 14261 1061 54       		.byte	0x54
 14262 1062 12010000 		.4byte	.LVL334
 14263 1066 16010000 		.4byte	.LVL335
 14264 106a 0100     		.2byte	0x1
 14265 106c 54       		.byte	0x54
 14266 106d 16010000 		.4byte	.LVL335
 14267 1071 50010000 		.4byte	.LFE5
 14268 1075 0100     		.2byte	0x1
 14269 1077 50       		.byte	0x50
 14270 1078 00000000 		.4byte	0
 14271 107c 00000000 		.4byte	0
 14272              	.LLST65:
 14273 1080 1A000000 		.4byte	.LVL289
 14274 1084 30000000 		.4byte	.LVL290
 14275 1088 0100     		.2byte	0x1
 14276 108a 50       		.byte	0x50
 14277 108b 30000000 		.4byte	.LVL290
 14278 108f 34000000 		.4byte	.LVL292
 14279 1093 0100     		.2byte	0x1
 14280 1095 54       		.byte	0x54
 14281 1096 0C010000 		.4byte	.LVL332
ARM GAS  C:\Users\Phuong\AppData\Local\Temp\ccdTtd1y.s 			page 286


 14282 109a 10010000 		.4byte	.LVL333
 14283 109e 0100     		.2byte	0x1
 14284 10a0 50       		.byte	0x50
 14285 10a1 00000000 		.4byte	0
 14286 10a5 00000000 		.4byte	0
 14287              	.LLST66:
 14288 10a9 4E000000 		.4byte	.LVL296
 14289 10ad 62000000 		.4byte	.LVL297
 14290 10b1 0100     		.2byte	0x1
 14291 10b3 50       		.byte	0x50
 14292 10b4 62000000 		.4byte	.LVL297
 14293 10b8 66000000 		.4byte	.LVL299
 14294 10bc 0100     		.2byte	0x1
 14295 10be 54       		.byte	0x54
 14296 10bf 10010000 		.4byte	.LVL333
 14297 10c3 12010000 		.4byte	.LVL334
 14298 10c7 0100     		.2byte	0x1
 14299 10c9 50       		.byte	0x50
 14300 10ca 00000000 		.4byte	0
 14301 10ce 00000000 		.4byte	0
 14302              	.LLST67:
 14303 10d2 72000000 		.4byte	.LVL302
 14304 10d6 77000000 		.4byte	.LVL303-1
 14305 10da 0100     		.2byte	0x1
 14306 10dc 50       		.byte	0x50
 14307 10dd 77000000 		.4byte	.LVL303-1
 14308 10e1 96000000 		.4byte	.LVL308
 14309 10e5 0100     		.2byte	0x1
 14310 10e7 55       		.byte	0x55
 14311 10e8 96000000 		.4byte	.LVL308
 14312 10ec 9A000000 		.4byte	.LVL309
 14313 10f0 0100     		.2byte	0x1
 14314 10f2 50       		.byte	0x50
 14315 10f3 9A000000 		.4byte	.LVL309
 14316 10f7 0C010000 		.4byte	.LVL332
 14317 10fb 0100     		.2byte	0x1
 14318 10fd 55       		.byte	0x55
 14319 10fe 00000000 		.4byte	0
 14320 1102 00000000 		.4byte	0
 14321              	.LLST68:
 14322 1106 7A000000 		.4byte	.LVL304
 14323 110a 90000000 		.4byte	.LVL305
 14324 110e 0100     		.2byte	0x1
 14325 1110 50       		.byte	0x50
 14326 1111 90000000 		.4byte	.LVL305
 14327 1115 94000000 		.4byte	.LVL307
 14328 1119 0100     		.2byte	0x1
 14329 111b 54       		.byte	0x54
 14330 111c 02010000 		.4byte	.LVL329
 14331 1120 04010000 		.4byte	.LVL330
 14332 1124 0100     		.2byte	0x1
 14333 1126 50       		.byte	0x50
 14334 1127 00000000 		.4byte	0
 14335 112b 00000000 		.4byte	0
 14336              	.LLST69:
 14337 112f A8000000 		.4byte	.LVL312
 14338 1133 BC000000 		.4byte	.LVL313
ARM GAS  C:\Users\Phuong\AppData\Local\Temp\ccdTtd1y.s 			page 287


 14339 1137 0100     		.2byte	0x1
 14340 1139 50       		.byte	0x50
 14341 113a BC000000 		.4byte	.LVL313
 14342 113e C0000000 		.4byte	.LVL315
 14343 1142 0100     		.2byte	0x1
 14344 1144 54       		.byte	0x54
 14345 1145 F0000000 		.4byte	.LVL323
 14346 1149 F4000000 		.4byte	.LVL324
 14347 114d 0100     		.2byte	0x1
 14348 114f 50       		.byte	0x50
 14349 1150 00000000 		.4byte	0
 14350 1154 00000000 		.4byte	0
 14351              	.LLST70:
 14352 1158 D4000000 		.4byte	.LVL319
 14353 115c EA000000 		.4byte	.LVL320
 14354 1160 0100     		.2byte	0x1
 14355 1162 50       		.byte	0x50
 14356 1163 EA000000 		.4byte	.LVL320
 14357 1167 EE000000 		.4byte	.LVL322
 14358 116b 0100     		.2byte	0x1
 14359 116d 54       		.byte	0x54
 14360 116e F8000000 		.4byte	.LVL326
 14361 1172 FA000000 		.4byte	.LVL327
 14362 1176 0100     		.2byte	0x1
 14363 1178 50       		.byte	0x50
 14364 1179 00000000 		.4byte	0
 14365 117d 00000000 		.4byte	0
 14366              	.LLST71:
 14367 1181 00000000 		.4byte	.LVL336
 14368 1185 19000000 		.4byte	.LVL337-1
 14369 1189 0100     		.2byte	0x1
 14370 118b 50       		.byte	0x50
 14371 118c 19000000 		.4byte	.LVL337-1
 14372 1190 3C000000 		.4byte	.LVL342
 14373 1194 0100     		.2byte	0x1
 14374 1196 56       		.byte	0x56
 14375 1197 3C000000 		.4byte	.LVL342
 14376 119b 45000000 		.4byte	.LVL343-1
 14377 119f 0100     		.2byte	0x1
 14378 11a1 50       		.byte	0x50
 14379 11a2 45000000 		.4byte	.LVL343-1
 14380 11a6 66000000 		.4byte	.LVL348
 14381 11aa 0100     		.2byte	0x1
 14382 11ac 56       		.byte	0x56
 14383 11ad 66000000 		.4byte	.LVL348
 14384 11b1 68000000 		.4byte	.LVL349
 14385 11b5 0100     		.2byte	0x1
 14386 11b7 50       		.byte	0x50
 14387 11b8 68000000 		.4byte	.LVL349
 14388 11bc EC010000 		.4byte	.LVL407
 14389 11c0 0100     		.2byte	0x1
 14390 11c2 56       		.byte	0x56
 14391 11c3 EC010000 		.4byte	.LVL407
 14392 11c7 08020000 		.4byte	.LVL410
 14393 11cb 0400     		.2byte	0x4
 14394 11cd F3       		.byte	0xf3
 14395 11ce 01       		.uleb128 0x1
ARM GAS  C:\Users\Phuong\AppData\Local\Temp\ccdTtd1y.s 			page 288


 14396 11cf 50       		.byte	0x50
 14397 11d0 9F       		.byte	0x9f
 14398 11d1 08020000 		.4byte	.LVL410
 14399 11d5 3A020000 		.4byte	.LVL417
 14400 11d9 0100     		.2byte	0x1
 14401 11db 56       		.byte	0x56
 14402 11dc 3A020000 		.4byte	.LVL417
 14403 11e0 52020000 		.4byte	.LVL420
 14404 11e4 0400     		.2byte	0x4
 14405 11e6 F3       		.byte	0xf3
 14406 11e7 01       		.uleb128 0x1
 14407 11e8 50       		.byte	0x50
 14408 11e9 9F       		.byte	0x9f
 14409 11ea 52020000 		.4byte	.LVL420
 14410 11ee 24030000 		.4byte	.LVL446
 14411 11f2 0100     		.2byte	0x1
 14412 11f4 56       		.byte	0x56
 14413 11f5 24030000 		.4byte	.LVL446
 14414 11f9 58030000 		.4byte	.LVL455
 14415 11fd 0400     		.2byte	0x4
 14416 11ff F3       		.byte	0xf3
 14417 1200 01       		.uleb128 0x1
 14418 1201 50       		.byte	0x50
 14419 1202 9F       		.byte	0x9f
 14420 1203 58030000 		.4byte	.LVL455
 14421 1207 5E030000 		.4byte	.LVL457
 14422 120b 0100     		.2byte	0x1
 14423 120d 56       		.byte	0x56
 14424 120e 5E030000 		.4byte	.LVL457
 14425 1212 E8030000 		.4byte	.LFE9
 14426 1216 0400     		.2byte	0x4
 14427 1218 F3       		.byte	0xf3
 14428 1219 01       		.uleb128 0x1
 14429 121a 50       		.byte	0x50
 14430 121b 9F       		.byte	0x9f
 14431 121c 00000000 		.4byte	0
 14432 1220 00000000 		.4byte	0
 14433              	.LLST72:
 14434 1224 00000000 		.4byte	.LVL336
 14435 1228 19000000 		.4byte	.LVL337-1
 14436 122c 0100     		.2byte	0x1
 14437 122e 51       		.byte	0x51
 14438 122f 19000000 		.4byte	.LVL337-1
 14439 1233 3C000000 		.4byte	.LVL342
 14440 1237 0100     		.2byte	0x1
 14441 1239 57       		.byte	0x57
 14442 123a 3C000000 		.4byte	.LVL342
 14443 123e 45000000 		.4byte	.LVL343-1
 14444 1242 0100     		.2byte	0x1
 14445 1244 51       		.byte	0x51
 14446 1245 45000000 		.4byte	.LVL343-1
 14447 1249 66000000 		.4byte	.LVL348
 14448 124d 0100     		.2byte	0x1
 14449 124f 57       		.byte	0x57
 14450 1250 66000000 		.4byte	.LVL348
 14451 1254 6B000000 		.4byte	.LVL350-1
 14452 1258 0100     		.2byte	0x1
ARM GAS  C:\Users\Phuong\AppData\Local\Temp\ccdTtd1y.s 			page 289


 14453 125a 51       		.byte	0x51
 14454 125b 6B000000 		.4byte	.LVL350-1
 14455 125f 0E020000 		.4byte	.LVL411
 14456 1263 0100     		.2byte	0x1
 14457 1265 57       		.byte	0x57
 14458 1266 0E020000 		.4byte	.LVL411
 14459 126a 13020000 		.4byte	.LVL413-1
 14460 126e 0100     		.2byte	0x1
 14461 1270 51       		.byte	0x51
 14462 1271 13020000 		.4byte	.LVL413-1
 14463 1275 58030000 		.4byte	.LVL455
 14464 1279 0400     		.2byte	0x4
 14465 127b F3       		.byte	0xf3
 14466 127c 01       		.uleb128 0x1
 14467 127d 51       		.byte	0x51
 14468 127e 9F       		.byte	0x9f
 14469 127f 58030000 		.4byte	.LVL455
 14470 1283 5E030000 		.4byte	.LVL457
 14471 1287 0100     		.2byte	0x1
 14472 1289 57       		.byte	0x57
 14473 128a 5E030000 		.4byte	.LVL457
 14474 128e E8030000 		.4byte	.LFE9
 14475 1292 0400     		.2byte	0x4
 14476 1294 F3       		.byte	0xf3
 14477 1295 01       		.uleb128 0x1
 14478 1296 51       		.byte	0x51
 14479 1297 9F       		.byte	0x9f
 14480 1298 00000000 		.4byte	0
 14481 129c 00000000 		.4byte	0
 14482              	.LLST73:
 14483 12a0 6E000000 		.4byte	.LVL351
 14484 12a4 73000000 		.4byte	.LVL352-1
 14485 12a8 0100     		.2byte	0x1
 14486 12aa 50       		.byte	0x50
 14487 12ab 73000000 		.4byte	.LVL352-1
 14488 12af 90000000 		.4byte	.LVL356
 14489 12b3 0100     		.2byte	0x1
 14490 12b5 54       		.byte	0x54
 14491 12b6 90000000 		.4byte	.LVL356
 14492 12ba B3000000 		.4byte	.LVL357-1
 14493 12be 0100     		.2byte	0x1
 14494 12c0 50       		.byte	0x50
 14495 12c1 B3000000 		.4byte	.LVL357-1
 14496 12c5 54030000 		.4byte	.LVL454
 14497 12c9 0100     		.2byte	0x1
 14498 12cb 54       		.byte	0x54
 14499 12cc 54030000 		.4byte	.LVL454
 14500 12d0 58030000 		.4byte	.LVL455
 14501 12d4 0200     		.2byte	0x2
 14502 12d6 30       		.byte	0x30
 14503 12d7 9F       		.byte	0x9f
 14504 12d8 5E030000 		.4byte	.LVL457
 14505 12dc 62030000 		.4byte	.LVL458
 14506 12e0 0100     		.2byte	0x1
 14507 12e2 54       		.byte	0x54
 14508 12e3 62030000 		.4byte	.LVL458
 14509 12e7 E8030000 		.4byte	.LFE9
ARM GAS  C:\Users\Phuong\AppData\Local\Temp\ccdTtd1y.s 			page 290


 14510 12eb 0100     		.2byte	0x1
 14511 12ed 50       		.byte	0x50
 14512 12ee 00000000 		.4byte	0
 14513 12f2 00000000 		.4byte	0
 14514              	.LLST74:
 14515 12f6 1C000000 		.4byte	.LVL338
 14516 12fa 36000000 		.4byte	.LVL339
 14517 12fe 0100     		.2byte	0x1
 14518 1300 50       		.byte	0x50
 14519 1301 36000000 		.4byte	.LVL339
 14520 1305 3A000000 		.4byte	.LVL341
 14521 1309 0100     		.2byte	0x1
 14522 130b 54       		.byte	0x54
 14523 130c 58030000 		.4byte	.LVL455
 14524 1310 5C030000 		.4byte	.LVL456
 14525 1314 0100     		.2byte	0x1
 14526 1316 50       		.byte	0x50
 14527 1317 00000000 		.4byte	0
 14528 131b 00000000 		.4byte	0
 14529              	.LLST75:
 14530 131f 48000000 		.4byte	.LVL344
 14531 1323 60000000 		.4byte	.LVL345
 14532 1327 0100     		.2byte	0x1
 14533 1329 50       		.byte	0x50
 14534 132a 60000000 		.4byte	.LVL345
 14535 132e 64000000 		.4byte	.LVL347
 14536 1332 0100     		.2byte	0x1
 14537 1334 54       		.byte	0x54
 14538 1335 5C030000 		.4byte	.LVL456
 14539 1339 5E030000 		.4byte	.LVL457
 14540 133d 0100     		.2byte	0x1
 14541 133f 50       		.byte	0x50
 14542 1340 00000000 		.4byte	0
 14543 1344 00000000 		.4byte	0
 14544              	.LLST76:
 14545 1348 76000000 		.4byte	.LVL353
 14546 134c 8C000000 		.4byte	.LVL354
 14547 1350 0100     		.2byte	0x1
 14548 1352 50       		.byte	0x50
 14549 1353 8C000000 		.4byte	.LVL354
 14550 1357 90000000 		.4byte	.LVL356
 14551 135b 0100     		.2byte	0x1
 14552 135d 55       		.byte	0x55
 14553 135e 00000000 		.4byte	0
 14554 1362 00000000 		.4byte	0
 14555              	.LLST77:
 14556 1366 C0000000 		.4byte	.LVL359
 14557 136a D6000000 		.4byte	.LVL360
 14558 136e 0100     		.2byte	0x1
 14559 1370 50       		.byte	0x50
 14560 1371 D6000000 		.4byte	.LVL360
 14561 1375 DA000000 		.4byte	.LVL362
 14562 1379 0100     		.2byte	0x1
 14563 137b 55       		.byte	0x55
 14564 137c 00000000 		.4byte	0
 14565 1380 00000000 		.4byte	0
 14566              	.LLST78:
ARM GAS  C:\Users\Phuong\AppData\Local\Temp\ccdTtd1y.s 			page 291


 14567 1384 EC000000 		.4byte	.LVL365
 14568 1388 04010000 		.4byte	.LVL366
 14569 138c 0100     		.2byte	0x1
 14570 138e 50       		.byte	0x50
 14571 138f 04010000 		.4byte	.LVL366
 14572 1393 08010000 		.4byte	.LVL368
 14573 1397 0100     		.2byte	0x1
 14574 1399 55       		.byte	0x55
 14575 139a 00000000 		.4byte	0
 14576 139e 00000000 		.4byte	0
 14577              	.LLST79:
 14578 13a2 1A010000 		.4byte	.LVL371
 14579 13a6 30010000 		.4byte	.LVL372
 14580 13aa 0100     		.2byte	0x1
 14581 13ac 50       		.byte	0x50
 14582 13ad 30010000 		.4byte	.LVL372
 14583 13b1 34010000 		.4byte	.LVL374
 14584 13b5 0100     		.2byte	0x1
 14585 13b7 55       		.byte	0x55
 14586 13b8 00000000 		.4byte	0
 14587 13bc 00000000 		.4byte	0
 14588              	.LLST80:
 14589 13c0 3C010000 		.4byte	.LVL376
 14590 13c4 43010000 		.4byte	.LVL377-1
 14591 13c8 0100     		.2byte	0x1
 14592 13ca 50       		.byte	0x50
 14593 13cb 43010000 		.4byte	.LVL377-1
 14594 13cf 62010000 		.4byte	.LVL381
 14595 13d3 0200     		.2byte	0x2
 14596 13d5 91       		.byte	0x91
 14597 13d6 58       		.sleb128 -40
 14598 13d7 62010000 		.4byte	.LVL381
 14599 13db 64010000 		.4byte	.LVL382
 14600 13df 0100     		.2byte	0x1
 14601 13e1 50       		.byte	0x50
 14602 13e2 64010000 		.4byte	.LVL382
 14603 13e6 42030000 		.4byte	.LVL451
 14604 13ea 0200     		.2byte	0x2
 14605 13ec 91       		.byte	0x91
 14606 13ed 58       		.sleb128 -40
 14607 13ee 00000000 		.4byte	0
 14608 13f2 00000000 		.4byte	0
 14609              	.LLST81:
 14610 13f6 46010000 		.4byte	.LVL378
 14611 13fa 5E010000 		.4byte	.LVL379
 14612 13fe 0100     		.2byte	0x1
 14613 1400 50       		.byte	0x50
 14614 1401 5E010000 		.4byte	.LVL379
 14615 1405 62010000 		.4byte	.LVL381
 14616 1409 0100     		.2byte	0x1
 14617 140b 55       		.byte	0x55
 14618 140c 00000000 		.4byte	0
 14619 1410 00000000 		.4byte	0
 14620              	.LLST82:
 14621 1414 6A010000 		.4byte	.LVL384
 14622 1418 71010000 		.4byte	.LVL385-1
 14623 141c 0100     		.2byte	0x1
ARM GAS  C:\Users\Phuong\AppData\Local\Temp\ccdTtd1y.s 			page 292


 14624 141e 50       		.byte	0x50
 14625 141f 71010000 		.4byte	.LVL385-1
 14626 1423 8E010000 		.4byte	.LVL389
 14627 1427 0100     		.2byte	0x1
 14628 1429 59       		.byte	0x59
 14629 142a 8E010000 		.4byte	.LVL389
 14630 142e 90010000 		.4byte	.LVL390
 14631 1432 0100     		.2byte	0x1
 14632 1434 50       		.byte	0x50
 14633 1435 90010000 		.4byte	.LVL390
 14634 1439 3C030000 		.4byte	.LVL450
 14635 143d 0100     		.2byte	0x1
 14636 143f 59       		.byte	0x59
 14637 1440 00000000 		.4byte	0
 14638 1444 00000000 		.4byte	0
 14639              	.LLST83:
 14640 1448 74010000 		.4byte	.LVL386
 14641 144c 8A010000 		.4byte	.LVL387
 14642 1450 0100     		.2byte	0x1
 14643 1452 50       		.byte	0x50
 14644 1453 8A010000 		.4byte	.LVL387
 14645 1457 8E010000 		.4byte	.LVL389
 14646 145b 0100     		.2byte	0x1
 14647 145d 55       		.byte	0x55
 14648 145e 00000000 		.4byte	0
 14649 1462 00000000 		.4byte	0
 14650              	.LLST84:
 14651 1466 96010000 		.4byte	.LVL392
 14652 146a 98010000 		.4byte	.LVL393
 14653 146e 0100     		.2byte	0x1
 14654 1470 50       		.byte	0x50
 14655 1471 98010000 		.4byte	.LVL393
 14656 1475 A8010000 		.4byte	.LVL397
 14657 1479 0100     		.2byte	0x1
 14658 147b 55       		.byte	0x55
 14659 147c C2010000 		.4byte	.LVL400
 14660 1480 30030000 		.4byte	.LVL448
 14661 1484 0100     		.2byte	0x1
 14662 1486 55       		.byte	0x55
 14663 1487 00000000 		.4byte	0
 14664 148b 00000000 		.4byte	0
 14665              	.LLST85:
 14666 148f 9E010000 		.4byte	.LVL395
 14667 1493 A5010000 		.4byte	.LVL396-1
 14668 1497 0100     		.2byte	0x1
 14669 1499 50       		.byte	0x50
 14670 149a A5010000 		.4byte	.LVL396-1
 14671 149e C2010000 		.4byte	.LVL400
 14672 14a2 0200     		.2byte	0x2
 14673 14a4 91       		.byte	0x91
 14674 14a5 54       		.sleb128 -44
 14675 14a6 C2010000 		.4byte	.LVL400
 14676 14aa C8010000 		.4byte	.LVL401
 14677 14ae 0100     		.2byte	0x1
 14678 14b0 50       		.byte	0x50
 14679 14b1 C8010000 		.4byte	.LVL401
 14680 14b5 36030000 		.4byte	.LVL449
ARM GAS  C:\Users\Phuong\AppData\Local\Temp\ccdTtd1y.s 			page 293


 14681 14b9 0200     		.2byte	0x2
 14682 14bb 91       		.byte	0x91
 14683 14bc 54       		.sleb128 -44
 14684 14bd 00000000 		.4byte	0
 14685 14c1 00000000 		.4byte	0
 14686              	.LLST86:
 14687 14c5 A8010000 		.4byte	.LVL397
 14688 14c9 BE010000 		.4byte	.LVL398
 14689 14cd 0100     		.2byte	0x1
 14690 14cf 50       		.byte	0x50
 14691 14d0 BE010000 		.4byte	.LVL398
 14692 14d4 C2010000 		.4byte	.LVL400
 14693 14d8 0100     		.2byte	0x1
 14694 14da 55       		.byte	0x55
 14695 14db 00000000 		.4byte	0
 14696 14df 00000000 		.4byte	0
 14697              	.LLST87:
 14698 14e3 E2010000 		.4byte	.LVL405
 14699 14e7 E9010000 		.4byte	.LVL406-1
 14700 14eb 0100     		.2byte	0x1
 14701 14ed 50       		.byte	0x50
 14702 14ee E9010000 		.4byte	.LVL406-1
 14703 14f2 08020000 		.4byte	.LVL410
 14704 14f6 0200     		.2byte	0x2
 14705 14f8 91       		.byte	0x91
 14706 14f9 5C       		.sleb128 -36
 14707 14fa 08020000 		.4byte	.LVL410
 14708 14fe 10020000 		.4byte	.LVL412
 14709 1502 0100     		.2byte	0x1
 14710 1504 50       		.byte	0x50
 14711 1505 10020000 		.4byte	.LVL412
 14712 1509 30030000 		.4byte	.LVL448
 14713 150d 0200     		.2byte	0x2
 14714 150f 91       		.byte	0x91
 14715 1510 5C       		.sleb128 -36
 14716 1511 00000000 		.4byte	0
 14717 1515 00000000 		.4byte	0
 14718              	.LLST88:
 14719 1519 EC010000 		.4byte	.LVL407
 14720 151d 04020000 		.4byte	.LVL408
 14721 1521 0100     		.2byte	0x1
 14722 1523 50       		.byte	0x50
 14723 1524 04020000 		.4byte	.LVL408
 14724 1528 08020000 		.4byte	.LVL410
 14725 152c 0100     		.2byte	0x1
 14726 152e 56       		.byte	0x56
 14727 152f 00000000 		.4byte	0
 14728 1533 00000000 		.4byte	0
 14729              	.LLST89:
 14730 1537 3A020000 		.4byte	.LVL417
 14731 153b 4E020000 		.4byte	.LVL418
 14732 153f 0100     		.2byte	0x1
 14733 1541 50       		.byte	0x50
 14734 1542 4E020000 		.4byte	.LVL418
 14735 1546 52020000 		.4byte	.LVL420
 14736 154a 0100     		.2byte	0x1
 14737 154c 56       		.byte	0x56
ARM GAS  C:\Users\Phuong\AppData\Local\Temp\ccdTtd1y.s 			page 294


 14738 154d 00000000 		.4byte	0
 14739 1551 00000000 		.4byte	0
 14740              	.LLST90:
 14741 1555 6E020000 		.4byte	.LVL423
 14742 1559 84020000 		.4byte	.LVL424
 14743 155d 0100     		.2byte	0x1
 14744 155f 50       		.byte	0x50
 14745 1560 84020000 		.4byte	.LVL424
 14746 1564 88020000 		.4byte	.LVL426
 14747 1568 0100     		.2byte	0x1
 14748 156a 58       		.byte	0x58
 14749 156b 00000000 		.4byte	0
 14750 156f 00000000 		.4byte	0
 14751              	.LLST91:
 14752 1573 9E020000 		.4byte	.LVL429
 14753 1577 B6020000 		.4byte	.LVL430
 14754 157b 0100     		.2byte	0x1
 14755 157d 50       		.byte	0x50
 14756 157e B6020000 		.4byte	.LVL430
 14757 1582 BA020000 		.4byte	.LVL432
 14758 1586 0100     		.2byte	0x1
 14759 1588 58       		.byte	0x58
 14760 1589 00000000 		.4byte	0
 14761 158d 00000000 		.4byte	0
 14762              	.LLST92:
 14763 1591 D0020000 		.4byte	.LVL435
 14764 1595 E6020000 		.4byte	.LVL436
 14765 1599 0100     		.2byte	0x1
 14766 159b 50       		.byte	0x50
 14767 159c E6020000 		.4byte	.LVL436
 14768 15a0 F6020000 		.4byte	.LVL440
 14769 15a4 0100     		.2byte	0x1
 14770 15a6 58       		.byte	0x58
 14771 15a7 00000000 		.4byte	0
 14772 15ab 00000000 		.4byte	0
 14773              	.LLST93:
 14774 15af 00000000 		.4byte	.LVL459
 14775 15b3 0F000000 		.4byte	.LVL460-1
 14776 15b7 0100     		.2byte	0x1
 14777 15b9 50       		.byte	0x50
 14778 15ba 0F000000 		.4byte	.LVL460-1
 14779 15be 6A000000 		.4byte	.LVL470
 14780 15c2 0100     		.2byte	0x1
 14781 15c4 54       		.byte	0x54
 14782 15c5 6A000000 		.4byte	.LVL470
 14783 15c9 84000000 		.4byte	.LVL473
 14784 15cd 0400     		.2byte	0x4
 14785 15cf F3       		.byte	0xf3
 14786 15d0 01       		.uleb128 0x1
 14787 15d1 50       		.byte	0x50
 14788 15d2 9F       		.byte	0x9f
 14789 15d3 84000000 		.4byte	.LVL473
 14790 15d7 06010000 		.4byte	.LVL489
 14791 15db 0100     		.2byte	0x1
 14792 15dd 54       		.byte	0x54
 14793 15de 06010000 		.4byte	.LVL489
 14794 15e2 20010000 		.4byte	.LVL492
ARM GAS  C:\Users\Phuong\AppData\Local\Temp\ccdTtd1y.s 			page 295


 14795 15e6 0400     		.2byte	0x4
 14796 15e8 F3       		.byte	0xf3
 14797 15e9 01       		.uleb128 0x1
 14798 15ea 50       		.byte	0x50
 14799 15eb 9F       		.byte	0x9f
 14800 15ec 20010000 		.4byte	.LVL492
 14801 15f0 26010000 		.4byte	.LVL494
 14802 15f4 0100     		.2byte	0x1
 14803 15f6 54       		.byte	0x54
 14804 15f7 26010000 		.4byte	.LVL494
 14805 15fb 78010000 		.4byte	.LFE11
 14806 15ff 0400     		.2byte	0x4
 14807 1601 F3       		.byte	0xf3
 14808 1602 01       		.uleb128 0x1
 14809 1603 50       		.byte	0x50
 14810 1604 9F       		.byte	0x9f
 14811 1605 00000000 		.4byte	0
 14812 1609 00000000 		.4byte	0
 14813              	.LLST94:
 14814 160d 00000000 		.4byte	.LVL459
 14815 1611 0F000000 		.4byte	.LVL460-1
 14816 1615 0100     		.2byte	0x1
 14817 1617 51       		.byte	0x51
 14818 1618 0F000000 		.4byte	.LVL460-1
 14819 161c 2E010000 		.4byte	.LVL498
 14820 1620 0100     		.2byte	0x1
 14821 1622 56       		.byte	0x56
 14822 1623 2E010000 		.4byte	.LVL498
 14823 1627 78010000 		.4byte	.LFE11
 14824 162b 0400     		.2byte	0x4
 14825 162d F3       		.byte	0xf3
 14826 162e 01       		.uleb128 0x1
 14827 162f 51       		.byte	0x51
 14828 1630 9F       		.byte	0x9f
 14829 1631 00000000 		.4byte	0
 14830 1635 00000000 		.4byte	0
 14831              	.LLST95:
 14832 1639 00000000 		.4byte	.LVL459
 14833 163d 0F000000 		.4byte	.LVL460-1
 14834 1641 0100     		.2byte	0x1
 14835 1643 52       		.byte	0x52
 14836 1644 0F000000 		.4byte	.LVL460-1
 14837 1648 78010000 		.4byte	.LFE11
 14838 164c 0200     		.2byte	0x2
 14839 164e 91       		.byte	0x91
 14840 164f 64       		.sleb128 -28
 14841 1650 00000000 		.4byte	0
 14842 1654 00000000 		.4byte	0
 14843              	.LLST96:
 14844 1658 00000000 		.4byte	.LVL459
 14845 165c 0F000000 		.4byte	.LVL460-1
 14846 1660 0100     		.2byte	0x1
 14847 1662 53       		.byte	0x53
 14848 1663 0F000000 		.4byte	.LVL460-1
 14849 1667 2E010000 		.4byte	.LVL499
 14850 166b 0100     		.2byte	0x1
 14851 166d 57       		.byte	0x57
ARM GAS  C:\Users\Phuong\AppData\Local\Temp\ccdTtd1y.s 			page 296


 14852 166e 2E010000 		.4byte	.LVL499
 14853 1672 78010000 		.4byte	.LFE11
 14854 1676 0400     		.2byte	0x4
 14855 1678 F3       		.byte	0xf3
 14856 1679 01       		.uleb128 0x1
 14857 167a 53       		.byte	0x53
 14858 167b 9F       		.byte	0x9f
 14859 167c 00000000 		.4byte	0
 14860 1680 00000000 		.4byte	0
 14861              	.LLST97:
 14862 1684 C6000000 		.4byte	.LVL479
 14863 1688 CA000000 		.4byte	.LVL480
 14864 168c 0400     		.2byte	0x4
 14865 168e 0A       		.byte	0xa
 14866 168f D703     		.2byte	0x3d7
 14867 1691 9F       		.byte	0x9f
 14868 1692 FC000000 		.4byte	.LVL486
 14869 1696 00010000 		.4byte	.LVL487
 14870 169a 0400     		.2byte	0x4
 14871 169c 0A       		.byte	0xa
 14872 169d E203     		.2byte	0x3e2
 14873 169f 9F       		.byte	0x9f
 14874 16a0 2C010000 		.4byte	.LVL497
 14875 16a4 78010000 		.4byte	.LFE11
 14876 16a8 0100     		.2byte	0x1
 14877 16aa 50       		.byte	0x50
 14878 16ab 00000000 		.4byte	0
 14879 16af 00000000 		.4byte	0
 14880              	.LLST98:
 14881 16b3 12000000 		.4byte	.LVL461
 14882 16b7 26000000 		.4byte	.LVL462
 14883 16bb 0100     		.2byte	0x1
 14884 16bd 50       		.byte	0x50
 14885 16be 26000000 		.4byte	.LVL462
 14886 16c2 3A000000 		.4byte	.LVL465
 14887 16c6 0100     		.2byte	0x1
 14888 16c8 55       		.byte	0x55
 14889 16c9 5C000000 		.4byte	.LVL468
 14890 16cd AA000000 		.4byte	.LVL476
 14891 16d1 0100     		.2byte	0x1
 14892 16d3 55       		.byte	0x55
 14893 16d4 CA000000 		.4byte	.LVL480
 14894 16d8 DA000000 		.4byte	.LVL483
 14895 16dc 0100     		.2byte	0x1
 14896 16de 55       		.byte	0x55
 14897 16df 00010000 		.4byte	.LVL487
 14898 16e3 20010000 		.4byte	.LVL492
 14899 16e7 0100     		.2byte	0x1
 14900 16e9 55       		.byte	0x55
 14901 16ea 26010000 		.4byte	.LVL494
 14902 16ee 2C010000 		.4byte	.LVL497
 14903 16f2 0100     		.2byte	0x1
 14904 16f4 55       		.byte	0x55
 14905 16f5 00000000 		.4byte	0
 14906 16f9 00000000 		.4byte	0
 14907              	.LLST99:
 14908 16fd 3A000000 		.4byte	.LVL465
ARM GAS  C:\Users\Phuong\AppData\Local\Temp\ccdTtd1y.s 			page 297


 14909 1701 54000000 		.4byte	.LVL466
 14910 1705 0100     		.2byte	0x1
 14911 1707 50       		.byte	0x50
 14912 1708 54000000 		.4byte	.LVL466
 14913 170c 5C000000 		.4byte	.LVL468
 14914 1710 0100     		.2byte	0x1
 14915 1712 55       		.byte	0x55
 14916 1713 20010000 		.4byte	.LVL492
 14917 1717 22010000 		.4byte	.LVL493
 14918 171b 0100     		.2byte	0x1
 14919 171d 50       		.byte	0x50
 14920 171e 22010000 		.4byte	.LVL493
 14921 1722 26010000 		.4byte	.LVL494
 14922 1726 0100     		.2byte	0x1
 14923 1728 55       		.byte	0x55
 14924 1729 00000000 		.4byte	0
 14925 172d 00000000 		.4byte	0
 14926              	.LLST100:
 14927 1731 6A000000 		.4byte	.LVL470
 14928 1735 7E000000 		.4byte	.LVL471
 14929 1739 0100     		.2byte	0x1
 14930 173b 50       		.byte	0x50
 14931 173c 7E000000 		.4byte	.LVL471
 14932 1740 84000000 		.4byte	.LVL473
 14933 1744 0100     		.2byte	0x1
 14934 1746 54       		.byte	0x54
 14935 1747 26010000 		.4byte	.LVL494
 14936 174b 28010000 		.4byte	.LVL495
 14937 174f 0100     		.2byte	0x1
 14938 1751 50       		.byte	0x50
 14939 1752 28010000 		.4byte	.LVL495
 14940 1756 2A010000 		.4byte	.LVL496
 14941 175a 0100     		.2byte	0x1
 14942 175c 54       		.byte	0x54
 14943 175d 00000000 		.4byte	0
 14944 1761 00000000 		.4byte	0
 14945              	.LLST101:
 14946 1765 AA000000 		.4byte	.LVL476
 14947 1769 BE000000 		.4byte	.LVL477
 14948 176d 0100     		.2byte	0x1
 14949 176f 50       		.byte	0x50
 14950 1770 BE000000 		.4byte	.LVL477
 14951 1774 CA000000 		.4byte	.LVL480
 14952 1778 0100     		.2byte	0x1
 14953 177a 55       		.byte	0x55
 14954 177b 00000000 		.4byte	0
 14955 177f 00000000 		.4byte	0
 14956              	.LLST102:
 14957 1783 DA000000 		.4byte	.LVL483
 14958 1787 EE000000 		.4byte	.LVL484
 14959 178b 0100     		.2byte	0x1
 14960 178d 50       		.byte	0x50
 14961 178e EE000000 		.4byte	.LVL484
 14962 1792 00010000 		.4byte	.LVL487
 14963 1796 0100     		.2byte	0x1
 14964 1798 55       		.byte	0x55
 14965 1799 00000000 		.4byte	0
ARM GAS  C:\Users\Phuong\AppData\Local\Temp\ccdTtd1y.s 			page 298


 14966 179d 00000000 		.4byte	0
 14967              	.LLST103:
 14968 17a1 06010000 		.4byte	.LVL489
 14969 17a5 1A010000 		.4byte	.LVL490
 14970 17a9 0100     		.2byte	0x1
 14971 17ab 50       		.byte	0x50
 14972 17ac 1A010000 		.4byte	.LVL490
 14973 17b0 20010000 		.4byte	.LVL492
 14974 17b4 0100     		.2byte	0x1
 14975 17b6 54       		.byte	0x54
 14976 17b7 2A010000 		.4byte	.LVL496
 14977 17bb 2C010000 		.4byte	.LVL497
 14978 17bf 0100     		.2byte	0x1
 14979 17c1 50       		.byte	0x50
 14980 17c2 00000000 		.4byte	0
 14981 17c6 00000000 		.4byte	0
 14982              	.LLST104:
 14983 17ca 00000000 		.4byte	.LVL500
 14984 17ce 0B000000 		.4byte	.LVL501-1
 14985 17d2 0100     		.2byte	0x1
 14986 17d4 50       		.byte	0x50
 14987 17d5 0B000000 		.4byte	.LVL501-1
 14988 17d9 0E000000 		.4byte	.LVL502
 14989 17dd 0100     		.2byte	0x1
 14990 17df 54       		.byte	0x54
 14991 17e0 0E000000 		.4byte	.LVL502
 14992 17e4 2C000000 		.4byte	.LVL505
 14993 17e8 0400     		.2byte	0x4
 14994 17ea F3       		.byte	0xf3
 14995 17eb 01       		.uleb128 0x1
 14996 17ec 50       		.byte	0x50
 14997 17ed 9F       		.byte	0x9f
 14998 17ee 2C000000 		.4byte	.LVL505
 14999 17f2 37000000 		.4byte	.LVL506-1
 15000 17f6 0100     		.2byte	0x1
 15001 17f8 50       		.byte	0x50
 15002 17f9 37000000 		.4byte	.LVL506-1
 15003 17fd 3A000000 		.4byte	.LVL507
 15004 1801 0100     		.2byte	0x1
 15005 1803 54       		.byte	0x54
 15006 1804 3A000000 		.4byte	.LVL507
 15007 1808 56000000 		.4byte	.LVL510
 15008 180c 0400     		.2byte	0x4
 15009 180e F3       		.byte	0xf3
 15010 180f 01       		.uleb128 0x1
 15011 1810 50       		.byte	0x50
 15012 1811 9F       		.byte	0x9f
 15013 1812 56000000 		.4byte	.LVL510
 15014 1816 62000000 		.4byte	.LVL511
 15015 181a 0100     		.2byte	0x1
 15016 181c 50       		.byte	0x50
 15017 181d 62000000 		.4byte	.LVL511
 15018 1821 76000000 		.4byte	.LVL516
 15019 1825 0100     		.2byte	0x1
 15020 1827 54       		.byte	0x54
 15021 1828 76000000 		.4byte	.LVL516
 15022 182c 90000000 		.4byte	.LVL519
ARM GAS  C:\Users\Phuong\AppData\Local\Temp\ccdTtd1y.s 			page 299


 15023 1830 0400     		.2byte	0x4
 15024 1832 F3       		.byte	0xf3
 15025 1833 01       		.uleb128 0x1
 15026 1834 50       		.byte	0x50
 15027 1835 9F       		.byte	0x9f
 15028 1836 90000000 		.4byte	.LVL519
 15029 183a A0000000 		.4byte	.LVL522
 15030 183e 0100     		.2byte	0x1
 15031 1840 54       		.byte	0x54
 15032 1841 A0000000 		.4byte	.LVL522
 15033 1845 BA000000 		.4byte	.LVL525
 15034 1849 0400     		.2byte	0x4
 15035 184b F3       		.byte	0xf3
 15036 184c 01       		.uleb128 0x1
 15037 184d 50       		.byte	0x50
 15038 184e 9F       		.byte	0x9f
 15039 184f BA000000 		.4byte	.LVL525
 15040 1853 3E010000 		.4byte	.LVL548
 15041 1857 0100     		.2byte	0x1
 15042 1859 54       		.byte	0x54
 15043 185a 3E010000 		.4byte	.LVL548
 15044 185e 98010000 		.4byte	.LFE12
 15045 1862 0400     		.2byte	0x4
 15046 1864 F3       		.byte	0xf3
 15047 1865 01       		.uleb128 0x1
 15048 1866 50       		.byte	0x50
 15049 1867 9F       		.byte	0x9f
 15050 1868 00000000 		.4byte	0
 15051 186c 00000000 		.4byte	0
 15052              	.LLST105:
 15053 1870 3A010000 		.4byte	.LVL546
 15054 1874 3E010000 		.4byte	.LVL548
 15055 1878 0200     		.2byte	0x2
 15056 187a 30       		.byte	0x30
 15057 187b 9F       		.byte	0x9f
 15058 187c 4E010000 		.4byte	.LVL555
 15059 1880 98010000 		.4byte	.LFE12
 15060 1884 0100     		.2byte	0x1
 15061 1886 50       		.byte	0x50
 15062 1887 00000000 		.4byte	0
 15063 188b 00000000 		.4byte	0
 15064              	.LLST106:
 15065 188f 0E000000 		.4byte	.LVL502
 15066 1893 24000000 		.4byte	.LVL503
 15067 1897 0100     		.2byte	0x1
 15068 1899 50       		.byte	0x50
 15069 189a 24000000 		.4byte	.LVL503
 15070 189e 2C000000 		.4byte	.LVL505
 15071 18a2 0100     		.2byte	0x1
 15072 18a4 54       		.byte	0x54
 15073 18a5 3E010000 		.4byte	.LVL548
 15074 18a9 40010000 		.4byte	.LVL549
 15075 18ad 0100     		.2byte	0x1
 15076 18af 50       		.byte	0x50
 15077 18b0 40010000 		.4byte	.LVL549
 15078 18b4 44010000 		.4byte	.LVL550
 15079 18b8 0100     		.2byte	0x1
ARM GAS  C:\Users\Phuong\AppData\Local\Temp\ccdTtd1y.s 			page 300


 15080 18ba 54       		.byte	0x54
 15081 18bb 00000000 		.4byte	0
 15082 18bf 00000000 		.4byte	0
 15083              	.LLST107:
 15084 18c3 3A000000 		.4byte	.LVL507
 15085 18c7 50000000 		.4byte	.LVL508
 15086 18cb 0100     		.2byte	0x1
 15087 18cd 50       		.byte	0x50
 15088 18ce 50000000 		.4byte	.LVL508
 15089 18d2 56000000 		.4byte	.LVL510
 15090 18d6 0100     		.2byte	0x1
 15091 18d8 54       		.byte	0x54
 15092 18d9 44010000 		.4byte	.LVL550
 15093 18dd 46010000 		.4byte	.LVL551
 15094 18e1 0100     		.2byte	0x1
 15095 18e3 50       		.byte	0x50
 15096 18e4 46010000 		.4byte	.LVL551
 15097 18e8 48010000 		.4byte	.LVL552
 15098 18ec 0100     		.2byte	0x1
 15099 18ee 54       		.byte	0x54
 15100 18ef 00000000 		.4byte	0
 15101 18f3 00000000 		.4byte	0
 15102              	.LLST108:
 15103 18f7 56000000 		.4byte	.LVL510
 15104 18fb 64000000 		.4byte	.LVL512
 15105 18ff 0100     		.2byte	0x1
 15106 1901 53       		.byte	0x53
 15107 1902 00000000 		.4byte	0
 15108 1906 00000000 		.4byte	0
 15109              	.LLST109:
 15110 190a 76000000 		.4byte	.LVL516
 15111 190e 8A000000 		.4byte	.LVL517
 15112 1912 0100     		.2byte	0x1
 15113 1914 50       		.byte	0x50
 15114 1915 8A000000 		.4byte	.LVL517
 15115 1919 90000000 		.4byte	.LVL519
 15116 191d 0100     		.2byte	0x1
 15117 191f 54       		.byte	0x54
 15118 1920 48010000 		.4byte	.LVL552
 15119 1924 4A010000 		.4byte	.LVL553
 15120 1928 0100     		.2byte	0x1
 15121 192a 50       		.byte	0x50
 15122 192b 4A010000 		.4byte	.LVL553
 15123 192f 4C010000 		.4byte	.LVL554
 15124 1933 0100     		.2byte	0x1
 15125 1935 54       		.byte	0x54
 15126 1936 00000000 		.4byte	0
 15127 193a 00000000 		.4byte	0
 15128              	.LLST110:
 15129 193e A0000000 		.4byte	.LVL522
 15130 1942 B4000000 		.4byte	.LVL523
 15131 1946 0100     		.2byte	0x1
 15132 1948 50       		.byte	0x50
 15133 1949 B4000000 		.4byte	.LVL523
 15134 194d BA000000 		.4byte	.LVL525
 15135 1951 0100     		.2byte	0x1
 15136 1953 54       		.byte	0x54
ARM GAS  C:\Users\Phuong\AppData\Local\Temp\ccdTtd1y.s 			page 301


 15137 1954 4C010000 		.4byte	.LVL554
 15138 1958 4E010000 		.4byte	.LVL555
 15139 195c 0100     		.2byte	0x1
 15140 195e 50       		.byte	0x50
 15141 195f 00000000 		.4byte	0
 15142 1963 00000000 		.4byte	0
 15143              	.LLST111:
 15144 1967 C2000000 		.4byte	.LVL527
 15145 196b C6000000 		.4byte	.LVL528
 15146 196f 0100     		.2byte	0x1
 15147 1971 50       		.byte	0x50
 15148 1972 C6000000 		.4byte	.LVL528
 15149 1976 30010000 		.4byte	.LVL545
 15150 197a 0100     		.2byte	0x1
 15151 197c 56       		.byte	0x56
 15152 197d 30010000 		.4byte	.LVL545
 15153 1981 3C010000 		.4byte	.LVL547
 15154 1985 0100     		.2byte	0x1
 15155 1987 50       		.byte	0x50
 15156 1988 3C010000 		.4byte	.LVL547
 15157 198c 3E010000 		.4byte	.LVL548
 15158 1990 0100     		.2byte	0x1
 15159 1992 56       		.byte	0x56
 15160 1993 00000000 		.4byte	0
 15161 1997 00000000 		.4byte	0
 15162              	.LLST112:
 15163 199b CC000000 		.4byte	.LVL530
 15164 199f D1000000 		.4byte	.LVL531-1
 15165 19a3 0100     		.2byte	0x1
 15166 19a5 50       		.byte	0x50
 15167 19a6 D1000000 		.4byte	.LVL531-1
 15168 19aa D4000000 		.4byte	.LVL532
 15169 19ae 0100     		.2byte	0x1
 15170 19b0 55       		.byte	0x55
 15171 19b1 EC000000 		.4byte	.LVL535
 15172 19b5 F0000000 		.4byte	.LVL536
 15173 19b9 0100     		.2byte	0x1
 15174 19bb 50       		.byte	0x50
 15175 19bc F0000000 		.4byte	.LVL536
 15176 19c0 00010000 		.4byte	.LVL538
 15177 19c4 0100     		.2byte	0x1
 15178 19c6 55       		.byte	0x55
 15179 19c7 00000000 		.4byte	0
 15180 19cb 00000000 		.4byte	0
 15181              	.LLST113:
 15182 19cf D4000000 		.4byte	.LVL532
 15183 19d3 E8000000 		.4byte	.LVL533
 15184 19d7 0100     		.2byte	0x1
 15185 19d9 50       		.byte	0x50
 15186 19da E8000000 		.4byte	.LVL533
 15187 19de EC000000 		.4byte	.LVL535
 15188 19e2 0100     		.2byte	0x1
 15189 19e4 55       		.byte	0x55
 15190 19e5 00000000 		.4byte	0
 15191 19e9 00000000 		.4byte	0
 15192              	.LLST114:
 15193 19ed 12010000 		.4byte	.LVL541
ARM GAS  C:\Users\Phuong\AppData\Local\Temp\ccdTtd1y.s 			page 302


 15194 19f1 26010000 		.4byte	.LVL542
 15195 19f5 0100     		.2byte	0x1
 15196 19f7 50       		.byte	0x50
 15197 19f8 26010000 		.4byte	.LVL542
 15198 19fc 28010000 		.4byte	.LVL543
 15199 1a00 0100     		.2byte	0x1
 15200 1a02 55       		.byte	0x55
 15201 1a03 00000000 		.4byte	0
 15202 1a07 00000000 		.4byte	0
 15203              	.LLST115:
 15204 1a0b 00000000 		.4byte	.LVL556
 15205 1a0f 0B000000 		.4byte	.LVL557-1
 15206 1a13 0100     		.2byte	0x1
 15207 1a15 50       		.byte	0x50
 15208 1a16 0B000000 		.4byte	.LVL557-1
 15209 1a1a 0E000000 		.4byte	.LVL558
 15210 1a1e 0100     		.2byte	0x1
 15211 1a20 54       		.byte	0x54
 15212 1a21 0E000000 		.4byte	.LVL558
 15213 1a25 26000000 		.4byte	.LVL561
 15214 1a29 0400     		.2byte	0x4
 15215 1a2b F3       		.byte	0xf3
 15216 1a2c 01       		.uleb128 0x1
 15217 1a2d 50       		.byte	0x50
 15218 1a2e 9F       		.byte	0x9f
 15219 1a2f 26000000 		.4byte	.LVL561
 15220 1a33 31000000 		.4byte	.LVL562-1
 15221 1a37 0100     		.2byte	0x1
 15222 1a39 50       		.byte	0x50
 15223 1a3a 31000000 		.4byte	.LVL562-1
 15224 1a3e 62000000 		.4byte	.LVL570
 15225 1a42 0100     		.2byte	0x1
 15226 1a44 54       		.byte	0x54
 15227 1a45 62000000 		.4byte	.LVL570
 15228 1a49 78000000 		.4byte	.LFE10
 15229 1a4d 0400     		.2byte	0x4
 15230 1a4f F3       		.byte	0xf3
 15231 1a50 01       		.uleb128 0x1
 15232 1a51 50       		.byte	0x50
 15233 1a52 9F       		.byte	0x9f
 15234 1a53 00000000 		.4byte	0
 15235 1a57 00000000 		.4byte	0
 15236              	.LLST116:
 15237 1a5b 0E000000 		.4byte	.LVL558
 15238 1a5f 22000000 		.4byte	.LVL559
 15239 1a63 0100     		.2byte	0x1
 15240 1a65 50       		.byte	0x50
 15241 1a66 22000000 		.4byte	.LVL559
 15242 1a6a 26000000 		.4byte	.LVL561
 15243 1a6e 0100     		.2byte	0x1
 15244 1a70 54       		.byte	0x54
 15245 1a71 00000000 		.4byte	0
 15246 1a75 00000000 		.4byte	0
 15247              	.LLST117:
 15248 1a79 00000000 		.4byte	.LVL571
 15249 1a7d 25000000 		.4byte	.LVL573-1
 15250 1a81 0100     		.2byte	0x1
ARM GAS  C:\Users\Phuong\AppData\Local\Temp\ccdTtd1y.s 			page 303


 15251 1a83 50       		.byte	0x50
 15252 1a84 25000000 		.4byte	.LVL573-1
 15253 1a88 48000000 		.4byte	.LVL577
 15254 1a8c 0100     		.2byte	0x1
 15255 1a8e 54       		.byte	0x54
 15256 1a8f 48000000 		.4byte	.LVL577
 15257 1a93 4A000000 		.4byte	.LVL578
 15258 1a97 0400     		.2byte	0x4
 15259 1a99 F3       		.byte	0xf3
 15260 1a9a 01       		.uleb128 0x1
 15261 1a9b 50       		.byte	0x50
 15262 1a9c 9F       		.byte	0x9f
 15263 1a9d 4A000000 		.4byte	.LVL578
 15264 1aa1 59000000 		.4byte	.LVL579-1
 15265 1aa5 0100     		.2byte	0x1
 15266 1aa7 50       		.byte	0x50
 15267 1aa8 59000000 		.4byte	.LVL579-1
 15268 1aac 5C000000 		.4byte	.LVL580
 15269 1ab0 0100     		.2byte	0x1
 15270 1ab2 54       		.byte	0x54
 15271 1ab3 5C000000 		.4byte	.LVL580
 15272 1ab7 78000000 		.4byte	.LVL584
 15273 1abb 0400     		.2byte	0x4
 15274 1abd F3       		.byte	0xf3
 15275 1abe 01       		.uleb128 0x1
 15276 1abf 50       		.byte	0x50
 15277 1ac0 9F       		.byte	0x9f
 15278 1ac1 78000000 		.4byte	.LVL584
 15279 1ac5 81000000 		.4byte	.LVL585-1
 15280 1ac9 0100     		.2byte	0x1
 15281 1acb 50       		.byte	0x50
 15282 1acc 81000000 		.4byte	.LVL585-1
 15283 1ad0 86000000 		.4byte	.LVL587
 15284 1ad4 0100     		.2byte	0x1
 15285 1ad6 54       		.byte	0x54
 15286 1ad7 86000000 		.4byte	.LVL587
 15287 1adb 88000000 		.4byte	.LVL588
 15288 1adf 0100     		.2byte	0x1
 15289 1ae1 50       		.byte	0x50
 15290 1ae2 88000000 		.4byte	.LVL588
 15291 1ae6 C6000000 		.4byte	.LVL597
 15292 1aea 0100     		.2byte	0x1
 15293 1aec 54       		.byte	0x54
 15294 1aed C6000000 		.4byte	.LVL597
 15295 1af1 E2000000 		.4byte	.LVL601
 15296 1af5 0400     		.2byte	0x4
 15297 1af7 F3       		.byte	0xf3
 15298 1af8 01       		.uleb128 0x1
 15299 1af9 50       		.byte	0x50
 15300 1afa 9F       		.byte	0x9f
 15301 1afb E2000000 		.4byte	.LVL601
 15302 1aff 5C010000 		.4byte	.LVL612
 15303 1b03 0100     		.2byte	0x1
 15304 1b05 54       		.byte	0x54
 15305 1b06 5C010000 		.4byte	.LVL612
 15306 1b0a 76010000 		.4byte	.LVL616
 15307 1b0e 0400     		.2byte	0x4
ARM GAS  C:\Users\Phuong\AppData\Local\Temp\ccdTtd1y.s 			page 304


 15308 1b10 F3       		.byte	0xf3
 15309 1b11 01       		.uleb128 0x1
 15310 1b12 50       		.byte	0x50
 15311 1b13 9F       		.byte	0x9f
 15312 1b14 76010000 		.4byte	.LVL616
 15313 1b18 B4010000 		.4byte	.LVL624
 15314 1b1c 0100     		.2byte	0x1
 15315 1b1e 54       		.byte	0x54
 15316 1b1f B4010000 		.4byte	.LVL624
 15317 1b23 D6010000 		.4byte	.LVL629
 15318 1b27 0400     		.2byte	0x4
 15319 1b29 F3       		.byte	0xf3
 15320 1b2a 01       		.uleb128 0x1
 15321 1b2b 50       		.byte	0x50
 15322 1b2c 9F       		.byte	0x9f
 15323 1b2d D6010000 		.4byte	.LVL629
 15324 1b31 16020000 		.4byte	.LVL638
 15325 1b35 0100     		.2byte	0x1
 15326 1b37 54       		.byte	0x54
 15327 1b38 16020000 		.4byte	.LVL638
 15328 1b3c 18020000 		.4byte	.LVL639
 15329 1b40 0400     		.2byte	0x4
 15330 1b42 F3       		.byte	0xf3
 15331 1b43 01       		.uleb128 0x1
 15332 1b44 50       		.byte	0x50
 15333 1b45 9F       		.byte	0x9f
 15334 1b46 18020000 		.4byte	.LVL639
 15335 1b4a 2A020000 		.4byte	.LVL641
 15336 1b4e 0100     		.2byte	0x1
 15337 1b50 54       		.byte	0x54
 15338 1b51 2A020000 		.4byte	.LVL641
 15339 1b55 2C020000 		.4byte	.LVL642
 15340 1b59 0400     		.2byte	0x4
 15341 1b5b F3       		.byte	0xf3
 15342 1b5c 01       		.uleb128 0x1
 15343 1b5d 50       		.byte	0x50
 15344 1b5e 9F       		.byte	0x9f
 15345 1b5f 2C020000 		.4byte	.LVL642
 15346 1b63 2E020000 		.4byte	.LVL643
 15347 1b67 0100     		.2byte	0x1
 15348 1b69 54       		.byte	0x54
 15349 1b6a 2E020000 		.4byte	.LVL643
 15350 1b6e 30020000 		.4byte	.LVL644
 15351 1b72 0400     		.2byte	0x4
 15352 1b74 F3       		.byte	0xf3
 15353 1b75 01       		.uleb128 0x1
 15354 1b76 50       		.byte	0x50
 15355 1b77 9F       		.byte	0x9f
 15356 1b78 30020000 		.4byte	.LVL644
 15357 1b7c 32020000 		.4byte	.LVL645
 15358 1b80 0100     		.2byte	0x1
 15359 1b82 54       		.byte	0x54
 15360 1b83 32020000 		.4byte	.LVL645
 15361 1b87 34020000 		.4byte	.LVL646
 15362 1b8b 0400     		.2byte	0x4
 15363 1b8d F3       		.byte	0xf3
 15364 1b8e 01       		.uleb128 0x1
ARM GAS  C:\Users\Phuong\AppData\Local\Temp\ccdTtd1y.s 			page 305


 15365 1b8f 50       		.byte	0x50
 15366 1b90 9F       		.byte	0x9f
 15367 1b91 34020000 		.4byte	.LVL646
 15368 1b95 36020000 		.4byte	.LVL647
 15369 1b99 0100     		.2byte	0x1
 15370 1b9b 54       		.byte	0x54
 15371 1b9c 36020000 		.4byte	.LVL647
 15372 1ba0 3C020000 		.4byte	.LVL649
 15373 1ba4 0400     		.2byte	0x4
 15374 1ba6 F3       		.byte	0xf3
 15375 1ba7 01       		.uleb128 0x1
 15376 1ba8 50       		.byte	0x50
 15377 1ba9 9F       		.byte	0x9f
 15378 1baa 3C020000 		.4byte	.LVL649
 15379 1bae 3E020000 		.4byte	.LVL650
 15380 1bb2 0100     		.2byte	0x1
 15381 1bb4 54       		.byte	0x54
 15382 1bb5 3E020000 		.4byte	.LVL650
 15383 1bb9 42020000 		.4byte	.LVL651
 15384 1bbd 0400     		.2byte	0x4
 15385 1bbf F3       		.byte	0xf3
 15386 1bc0 01       		.uleb128 0x1
 15387 1bc1 50       		.byte	0x50
 15388 1bc2 9F       		.byte	0x9f
 15389 1bc3 42020000 		.4byte	.LVL651
 15390 1bc7 44020000 		.4byte	.LVL652
 15391 1bcb 0100     		.2byte	0x1
 15392 1bcd 54       		.byte	0x54
 15393 1bce 44020000 		.4byte	.LVL652
 15394 1bd2 50020000 		.4byte	.LVL655
 15395 1bd6 0400     		.2byte	0x4
 15396 1bd8 F3       		.byte	0xf3
 15397 1bd9 01       		.uleb128 0x1
 15398 1bda 50       		.byte	0x50
 15399 1bdb 9F       		.byte	0x9f
 15400 1bdc 50020000 		.4byte	.LVL655
 15401 1be0 52020000 		.4byte	.LVL656
 15402 1be4 0100     		.2byte	0x1
 15403 1be6 54       		.byte	0x54
 15404 1be7 52020000 		.4byte	.LVL656
 15405 1beb 5A020000 		.4byte	.LVL658
 15406 1bef 0400     		.2byte	0x4
 15407 1bf1 F3       		.byte	0xf3
 15408 1bf2 01       		.uleb128 0x1
 15409 1bf3 50       		.byte	0x50
 15410 1bf4 9F       		.byte	0x9f
 15411 1bf5 5A020000 		.4byte	.LVL658
 15412 1bf9 5C020000 		.4byte	.LVL659
 15413 1bfd 0100     		.2byte	0x1
 15414 1bff 54       		.byte	0x54
 15415 1c00 5C020000 		.4byte	.LVL659
 15416 1c04 5E020000 		.4byte	.LVL660
 15417 1c08 0400     		.2byte	0x4
 15418 1c0a F3       		.byte	0xf3
 15419 1c0b 01       		.uleb128 0x1
 15420 1c0c 50       		.byte	0x50
 15421 1c0d 9F       		.byte	0x9f
ARM GAS  C:\Users\Phuong\AppData\Local\Temp\ccdTtd1y.s 			page 306


 15422 1c0e 5E020000 		.4byte	.LVL660
 15423 1c12 60020000 		.4byte	.LVL661
 15424 1c16 0100     		.2byte	0x1
 15425 1c18 54       		.byte	0x54
 15426 1c19 60020000 		.4byte	.LVL661
 15427 1c1d EC020000 		.4byte	.LFE13
 15428 1c21 0400     		.2byte	0x4
 15429 1c23 F3       		.byte	0xf3
 15430 1c24 01       		.uleb128 0x1
 15431 1c25 50       		.byte	0x50
 15432 1c26 9F       		.byte	0x9f
 15433 1c27 00000000 		.4byte	0
 15434 1c2b 00000000 		.4byte	0
 15435              	.LLST118:
 15436 1c2f 00000000 		.4byte	.LVL571
 15437 1c33 25000000 		.4byte	.LVL573-1
 15438 1c37 0100     		.2byte	0x1
 15439 1c39 51       		.byte	0x51
 15440 1c3a 25000000 		.4byte	.LVL573-1
 15441 1c3e 4A000000 		.4byte	.LVL578
 15442 1c42 0100     		.2byte	0x1
 15443 1c44 55       		.byte	0x55
 15444 1c45 4A000000 		.4byte	.LVL578
 15445 1c49 59000000 		.4byte	.LVL579-1
 15446 1c4d 0100     		.2byte	0x1
 15447 1c4f 51       		.byte	0x51
 15448 1c50 59000000 		.4byte	.LVL579-1
 15449 1c54 78000000 		.4byte	.LVL584
 15450 1c58 0100     		.2byte	0x1
 15451 1c5a 55       		.byte	0x55
 15452 1c5b 78000000 		.4byte	.LVL584
 15453 1c5f 81000000 		.4byte	.LVL585-1
 15454 1c63 0100     		.2byte	0x1
 15455 1c65 51       		.byte	0x51
 15456 1c66 81000000 		.4byte	.LVL585-1
 15457 1c6a 86000000 		.4byte	.LVL587
 15458 1c6e 0100     		.2byte	0x1
 15459 1c70 55       		.byte	0x55
 15460 1c71 86000000 		.4byte	.LVL587
 15461 1c75 8B000000 		.4byte	.LVL589-1
 15462 1c79 0100     		.2byte	0x1
 15463 1c7b 51       		.byte	0x51
 15464 1c7c 8B000000 		.4byte	.LVL589-1
 15465 1c80 8C010000 		.4byte	.LVL619
 15466 1c84 0100     		.2byte	0x1
 15467 1c86 55       		.byte	0x55
 15468 1c87 8C010000 		.4byte	.LVL619
 15469 1c8b 2C020000 		.4byte	.LVL642
 15470 1c8f 0400     		.2byte	0x4
 15471 1c91 F3       		.byte	0xf3
 15472 1c92 01       		.uleb128 0x1
 15473 1c93 51       		.byte	0x51
 15474 1c94 9F       		.byte	0x9f
 15475 1c95 2C020000 		.4byte	.LVL642
 15476 1c99 42020000 		.4byte	.LVL651
 15477 1c9d 0100     		.2byte	0x1
 15478 1c9f 55       		.byte	0x55
ARM GAS  C:\Users\Phuong\AppData\Local\Temp\ccdTtd1y.s 			page 307


 15479 1ca0 42020000 		.4byte	.LVL651
 15480 1ca4 4C020000 		.4byte	.LVL654
 15481 1ca8 0400     		.2byte	0x4
 15482 1caa F3       		.byte	0xf3
 15483 1cab 01       		.uleb128 0x1
 15484 1cac 51       		.byte	0x51
 15485 1cad 9F       		.byte	0x9f
 15486 1cae 4C020000 		.4byte	.LVL654
 15487 1cb2 52020000 		.4byte	.LVL656
 15488 1cb6 0100     		.2byte	0x1
 15489 1cb8 55       		.byte	0x55
 15490 1cb9 52020000 		.4byte	.LVL656
 15491 1cbd 5A020000 		.4byte	.LVL658
 15492 1cc1 0400     		.2byte	0x4
 15493 1cc3 F3       		.byte	0xf3
 15494 1cc4 01       		.uleb128 0x1
 15495 1cc5 51       		.byte	0x51
 15496 1cc6 9F       		.byte	0x9f
 15497 1cc7 5A020000 		.4byte	.LVL658
 15498 1ccb 64020000 		.4byte	.LVL663
 15499 1ccf 0100     		.2byte	0x1
 15500 1cd1 55       		.byte	0x55
 15501 1cd2 64020000 		.4byte	.LVL663
 15502 1cd6 EC020000 		.4byte	.LFE13
 15503 1cda 0400     		.2byte	0x4
 15504 1cdc F3       		.byte	0xf3
 15505 1cdd 01       		.uleb128 0x1
 15506 1cde 51       		.byte	0x51
 15507 1cdf 9F       		.byte	0x9f
 15508 1ce0 00000000 		.4byte	0
 15509 1ce4 00000000 		.4byte	0
 15510              	.LLST119:
 15511 1ce8 00000000 		.4byte	.LVL571
 15512 1cec 25000000 		.4byte	.LVL573-1
 15513 1cf0 0100     		.2byte	0x1
 15514 1cf2 52       		.byte	0x52
 15515 1cf3 25000000 		.4byte	.LVL573-1
 15516 1cf7 4A000000 		.4byte	.LVL578
 15517 1cfb 0100     		.2byte	0x1
 15518 1cfd 56       		.byte	0x56
 15519 1cfe 4A000000 		.4byte	.LVL578
 15520 1d02 59000000 		.4byte	.LVL579-1
 15521 1d06 0100     		.2byte	0x1
 15522 1d08 52       		.byte	0x52
 15523 1d09 59000000 		.4byte	.LVL579-1
 15524 1d0d 78000000 		.4byte	.LVL584
 15525 1d11 0100     		.2byte	0x1
 15526 1d13 56       		.byte	0x56
 15527 1d14 78000000 		.4byte	.LVL584
 15528 1d18 81000000 		.4byte	.LVL585-1
 15529 1d1c 0100     		.2byte	0x1
 15530 1d1e 52       		.byte	0x52
 15531 1d1f 81000000 		.4byte	.LVL585-1
 15532 1d23 86000000 		.4byte	.LVL587
 15533 1d27 0100     		.2byte	0x1
 15534 1d29 56       		.byte	0x56
 15535 1d2a 86000000 		.4byte	.LVL587
ARM GAS  C:\Users\Phuong\AppData\Local\Temp\ccdTtd1y.s 			page 308


 15536 1d2e 8B000000 		.4byte	.LVL589-1
 15537 1d32 0100     		.2byte	0x1
 15538 1d34 52       		.byte	0x52
 15539 1d35 8B000000 		.4byte	.LVL589-1
 15540 1d39 F0010000 		.4byte	.LVL633
 15541 1d3d 0100     		.2byte	0x1
 15542 1d3f 56       		.byte	0x56
 15543 1d40 F0010000 		.4byte	.LVL633
 15544 1d44 18020000 		.4byte	.LVL639
 15545 1d48 0400     		.2byte	0x4
 15546 1d4a F3       		.byte	0xf3
 15547 1d4b 01       		.uleb128 0x1
 15548 1d4c 52       		.byte	0x52
 15549 1d4d 9F       		.byte	0x9f
 15550 1d4e 18020000 		.4byte	.LVL639
 15551 1d52 44020000 		.4byte	.LVL652
 15552 1d56 0100     		.2byte	0x1
 15553 1d58 56       		.byte	0x56
 15554 1d59 44020000 		.4byte	.LVL652
 15555 1d5d 4C020000 		.4byte	.LVL654
 15556 1d61 0400     		.2byte	0x4
 15557 1d63 F3       		.byte	0xf3
 15558 1d64 01       		.uleb128 0x1
 15559 1d65 52       		.byte	0x52
 15560 1d66 9F       		.byte	0x9f
 15561 1d67 4C020000 		.4byte	.LVL654
 15562 1d6b 52020000 		.4byte	.LVL656
 15563 1d6f 0100     		.2byte	0x1
 15564 1d71 56       		.byte	0x56
 15565 1d72 52020000 		.4byte	.LVL656
 15566 1d76 5A020000 		.4byte	.LVL658
 15567 1d7a 0400     		.2byte	0x4
 15568 1d7c F3       		.byte	0xf3
 15569 1d7d 01       		.uleb128 0x1
 15570 1d7e 52       		.byte	0x52
 15571 1d7f 9F       		.byte	0x9f
 15572 1d80 5A020000 		.4byte	.LVL658
 15573 1d84 64020000 		.4byte	.LVL663
 15574 1d88 0100     		.2byte	0x1
 15575 1d8a 56       		.byte	0x56
 15576 1d8b 64020000 		.4byte	.LVL663
 15577 1d8f EC020000 		.4byte	.LFE13
 15578 1d93 0400     		.2byte	0x4
 15579 1d95 F3       		.byte	0xf3
 15580 1d96 01       		.uleb128 0x1
 15581 1d97 52       		.byte	0x52
 15582 1d98 9F       		.byte	0x9f
 15583 1d99 00000000 		.4byte	0
 15584 1d9d 00000000 		.4byte	0
 15585              	.LLST120:
 15586 1da1 00000000 		.4byte	.LVL571
 15587 1da5 1E000000 		.4byte	.LVL572
 15588 1da9 0100     		.2byte	0x1
 15589 1dab 53       		.byte	0x53
 15590 1dac 1E000000 		.4byte	.LVL572
 15591 1db0 AA010000 		.4byte	.LVL622
 15592 1db4 0200     		.2byte	0x2
ARM GAS  C:\Users\Phuong\AppData\Local\Temp\ccdTtd1y.s 			page 309


 15593 1db6 91       		.byte	0x91
 15594 1db7 5C       		.sleb128 -36
 15595 1db8 AA010000 		.4byte	.LVL622
 15596 1dbc 2C020000 		.4byte	.LVL642
 15597 1dc0 0400     		.2byte	0x4
 15598 1dc2 F3       		.byte	0xf3
 15599 1dc3 01       		.uleb128 0x1
 15600 1dc4 53       		.byte	0x53
 15601 1dc5 9F       		.byte	0x9f
 15602 1dc6 2C020000 		.4byte	.LVL642
 15603 1dca 44020000 		.4byte	.LVL652
 15604 1dce 0200     		.2byte	0x2
 15605 1dd0 91       		.byte	0x91
 15606 1dd1 5C       		.sleb128 -36
 15607 1dd2 44020000 		.4byte	.LVL652
 15608 1dd6 4C020000 		.4byte	.LVL654
 15609 1dda 0400     		.2byte	0x4
 15610 1ddc F3       		.byte	0xf3
 15611 1ddd 01       		.uleb128 0x1
 15612 1dde 53       		.byte	0x53
 15613 1ddf 9F       		.byte	0x9f
 15614 1de0 4C020000 		.4byte	.LVL654
 15615 1de4 52020000 		.4byte	.LVL656
 15616 1de8 0200     		.2byte	0x2
 15617 1dea 91       		.byte	0x91
 15618 1deb 5C       		.sleb128 -36
 15619 1dec 52020000 		.4byte	.LVL656
 15620 1df0 5A020000 		.4byte	.LVL658
 15621 1df4 0400     		.2byte	0x4
 15622 1df6 F3       		.byte	0xf3
 15623 1df7 01       		.uleb128 0x1
 15624 1df8 53       		.byte	0x53
 15625 1df9 9F       		.byte	0x9f
 15626 1dfa 5A020000 		.4byte	.LVL658
 15627 1dfe 64020000 		.4byte	.LVL663
 15628 1e02 0200     		.2byte	0x2
 15629 1e04 91       		.byte	0x91
 15630 1e05 5C       		.sleb128 -36
 15631 1e06 64020000 		.4byte	.LVL663
 15632 1e0a EC020000 		.4byte	.LFE13
 15633 1e0e 0400     		.2byte	0x4
 15634 1e10 F3       		.byte	0xf3
 15635 1e11 01       		.uleb128 0x1
 15636 1e12 53       		.byte	0x53
 15637 1e13 9F       		.byte	0x9f
 15638 1e14 00000000 		.4byte	0
 15639 1e18 00000000 		.4byte	0
 15640              	.LLST121:
 15641 1e1c D0010000 		.4byte	.LVL627
 15642 1e20 D6010000 		.4byte	.LVL629
 15643 1e24 0400     		.2byte	0x4
 15644 1e26 0A       		.byte	0xa
 15645 1e27 B804     		.2byte	0x4b8
 15646 1e29 9F       		.byte	0x9f
 15647 1e2a 14020000 		.4byte	.LVL637
 15648 1e2e 18020000 		.4byte	.LVL639
 15649 1e32 0400     		.2byte	0x4
ARM GAS  C:\Users\Phuong\AppData\Local\Temp\ccdTtd1y.s 			page 310


 15650 1e34 0A       		.byte	0xa
 15651 1e35 C404     		.2byte	0x4c4
 15652 1e37 9F       		.byte	0x9f
 15653 1e38 28020000 		.4byte	.LVL640
 15654 1e3c 2C020000 		.4byte	.LVL642
 15655 1e40 0200     		.2byte	0x2
 15656 1e42 30       		.byte	0x30
 15657 1e43 9F       		.byte	0x9f
 15658 1e44 44020000 		.4byte	.LVL652
 15659 1e48 4C020000 		.4byte	.LVL654
 15660 1e4c 0100     		.2byte	0x1
 15661 1e4e 54       		.byte	0x54
 15662 1e4f 52020000 		.4byte	.LVL656
 15663 1e53 5A020000 		.4byte	.LVL658
 15664 1e57 0100     		.2byte	0x1
 15665 1e59 54       		.byte	0x54
 15666 1e5a 5C020000 		.4byte	.LVL659
 15667 1e5e 5E020000 		.4byte	.LVL660
 15668 1e62 0400     		.2byte	0x4
 15669 1e64 0A       		.byte	0xa
 15670 1e65 6B04     		.2byte	0x46b
 15671 1e67 9F       		.byte	0x9f
 15672 1e68 64020000 		.4byte	.LVL663
 15673 1e6c 68020000 		.4byte	.LVL664
 15674 1e70 0100     		.2byte	0x1
 15675 1e72 54       		.byte	0x54
 15676 1e73 68020000 		.4byte	.LVL664
 15677 1e77 EC020000 		.4byte	.LFE13
 15678 1e7b 0100     		.2byte	0x1
 15679 1e7d 50       		.byte	0x50
 15680 1e7e 00000000 		.4byte	0
 15681 1e82 00000000 		.4byte	0
 15682              	.LLST122:
 15683 1e86 28000000 		.4byte	.LVL574
 15684 1e8a 44000000 		.4byte	.LVL575
 15685 1e8e 0100     		.2byte	0x1
 15686 1e90 50       		.byte	0x50
 15687 1e91 44000000 		.4byte	.LVL575
 15688 1e95 4A000000 		.4byte	.LVL578
 15689 1e99 0100     		.2byte	0x1
 15690 1e9b 57       		.byte	0x57
 15691 1e9c 5E020000 		.4byte	.LVL660
 15692 1ea0 62020000 		.4byte	.LVL662
 15693 1ea4 0100     		.2byte	0x1
 15694 1ea6 50       		.byte	0x50
 15695 1ea7 00000000 		.4byte	0
 15696 1eab 00000000 		.4byte	0
 15697              	.LLST123:
 15698 1eaf 5C000000 		.4byte	.LVL580
 15699 1eb3 72000000 		.4byte	.LVL581
 15700 1eb7 0100     		.2byte	0x1
 15701 1eb9 50       		.byte	0x50
 15702 1eba 72000000 		.4byte	.LVL581
 15703 1ebe 76000000 		.4byte	.LVL583
 15704 1ec2 0100     		.2byte	0x1
 15705 1ec4 54       		.byte	0x54
 15706 1ec5 62020000 		.4byte	.LVL662
ARM GAS  C:\Users\Phuong\AppData\Local\Temp\ccdTtd1y.s 			page 311


 15707 1ec9 64020000 		.4byte	.LVL663
 15708 1ecd 0100     		.2byte	0x1
 15709 1ecf 50       		.byte	0x50
 15710 1ed0 00000000 		.4byte	0
 15711 1ed4 00000000 		.4byte	0
 15712              	.LLST124:
 15713 1ed8 84000000 		.4byte	.LVL586
 15714 1edc 86000000 		.4byte	.LVL587
 15715 1ee0 0100     		.2byte	0x1
 15716 1ee2 50       		.byte	0x50
 15717 1ee3 8E000000 		.4byte	.LVL590
 15718 1ee7 93000000 		.4byte	.LVL591-1
 15719 1eeb 0100     		.2byte	0x1
 15720 1eed 50       		.byte	0x50
 15721 1eee 93000000 		.4byte	.LVL591-1
 15722 1ef2 5E020000 		.4byte	.LVL660
 15723 1ef6 0100     		.2byte	0x1
 15724 1ef8 57       		.byte	0x57
 15725 1ef9 00000000 		.4byte	0
 15726 1efd 00000000 		.4byte	0
 15727              	.LLST125:
 15728 1f01 96000000 		.4byte	.LVL592
 15729 1f05 AC000000 		.4byte	.LVL593
 15730 1f09 0100     		.2byte	0x1
 15731 1f0b 50       		.byte	0x50
 15732 1f0c AC000000 		.4byte	.LVL593
 15733 1f10 AE000000 		.4byte	.LVL594
 15734 1f14 0100     		.2byte	0x1
 15735 1f16 59       		.byte	0x59
 15736 1f17 00000000 		.4byte	0
 15737 1f1b 00000000 		.4byte	0
 15738              	.LLST126:
 15739 1f1f C6000000 		.4byte	.LVL597
 15740 1f23 DC000000 		.4byte	.LVL598
 15741 1f27 0100     		.2byte	0x1
 15742 1f29 50       		.byte	0x50
 15743 1f2a DC000000 		.4byte	.LVL598
 15744 1f2e E0000000 		.4byte	.LVL600
 15745 1f32 0100     		.2byte	0x1
 15746 1f34 54       		.byte	0x54
 15747 1f35 4C020000 		.4byte	.LVL654
 15748 1f39 50020000 		.4byte	.LVL655
 15749 1f3d 0100     		.2byte	0x1
 15750 1f3f 50       		.byte	0x50
 15751 1f40 00000000 		.4byte	0
 15752 1f44 00000000 		.4byte	0
 15753              	.LLST127:
 15754 1f48 F8000000 		.4byte	.LVL604
 15755 1f4c 0E010000 		.4byte	.LVL605
 15756 1f50 0100     		.2byte	0x1
 15757 1f52 50       		.byte	0x50
 15758 1f53 0E010000 		.4byte	.LVL605
 15759 1f57 10010000 		.4byte	.LVL606
 15760 1f5b 0100     		.2byte	0x1
 15761 1f5d 59       		.byte	0x59
 15762 1f5e 00000000 		.4byte	0
 15763 1f62 00000000 		.4byte	0
ARM GAS  C:\Users\Phuong\AppData\Local\Temp\ccdTtd1y.s 			page 312


 15764              	.LLST128:
 15765 1f66 5C010000 		.4byte	.LVL612
 15766 1f6a 70010000 		.4byte	.LVL613
 15767 1f6e 0100     		.2byte	0x1
 15768 1f70 50       		.byte	0x50
 15769 1f71 70010000 		.4byte	.LVL613
 15770 1f75 74010000 		.4byte	.LVL615
 15771 1f79 0100     		.2byte	0x1
 15772 1f7b 54       		.byte	0x54
 15773 1f7c 38020000 		.4byte	.LVL648
 15774 1f80 3C020000 		.4byte	.LVL649
 15775 1f84 0100     		.2byte	0x1
 15776 1f86 50       		.byte	0x50
 15777 1f87 00000000 		.4byte	0
 15778 1f8b 00000000 		.4byte	0
 15779              	.LLST129:
 15780 1f8f 8C010000 		.4byte	.LVL619
 15781 1f93 A4010000 		.4byte	.LVL620
 15782 1f97 0100     		.2byte	0x1
 15783 1f99 50       		.byte	0x50
 15784 1f9a A4010000 		.4byte	.LVL620
 15785 1f9e A7010000 		.4byte	.LVL621-1
 15786 1fa2 0100     		.2byte	0x1
 15787 1fa4 51       		.byte	0x51
 15788 1fa5 A7010000 		.4byte	.LVL621-1
 15789 1fa9 2C020000 		.4byte	.LVL642
 15790 1fad 0100     		.2byte	0x1
 15791 1faf 55       		.byte	0x55
 15792 1fb0 42020000 		.4byte	.LVL651
 15793 1fb4 44020000 		.4byte	.LVL652
 15794 1fb8 0100     		.2byte	0x1
 15795 1fba 50       		.byte	0x50
 15796 1fbb 00000000 		.4byte	0
 15797 1fbf 00000000 		.4byte	0
 15798              	.LLST130:
 15799 1fc3 AA010000 		.4byte	.LVL622
 15800 1fc7 B1010000 		.4byte	.LVL623-1
 15801 1fcb 0100     		.2byte	0x1
 15802 1fcd 50       		.byte	0x50
 15803 1fce B1010000 		.4byte	.LVL623-1
 15804 1fd2 D6010000 		.4byte	.LVL629
 15805 1fd6 0200     		.2byte	0x2
 15806 1fd8 91       		.byte	0x91
 15807 1fd9 5C       		.sleb128 -36
 15808 1fda D6010000 		.4byte	.LVL629
 15809 1fde E2010000 		.4byte	.LVL630
 15810 1fe2 0100     		.2byte	0x1
 15811 1fe4 50       		.byte	0x50
 15812 1fe5 E2010000 		.4byte	.LVL630
 15813 1fe9 2C020000 		.4byte	.LVL642
 15814 1fed 0200     		.2byte	0x2
 15815 1fef 91       		.byte	0x91
 15816 1ff0 5C       		.sleb128 -36
 15817 1ff1 00000000 		.4byte	0
 15818 1ff5 00000000 		.4byte	0
 15819              	.LLST131:
 15820 1ff9 B4010000 		.4byte	.LVL624
ARM GAS  C:\Users\Phuong\AppData\Local\Temp\ccdTtd1y.s 			page 313


 15821 1ffd C8010000 		.4byte	.LVL625
 15822 2001 0100     		.2byte	0x1
 15823 2003 50       		.byte	0x50
 15824 2004 C8010000 		.4byte	.LVL625
 15825 2008 D2010000 		.4byte	.LVL628
 15826 200c 0100     		.2byte	0x1
 15827 200e 54       		.byte	0x54
 15828 200f 00000000 		.4byte	0
 15829 2013 00000000 		.4byte	0
 15830              	.LLST132:
 15831 2017 F0010000 		.4byte	.LVL633
 15832 201b 04020000 		.4byte	.LVL634
 15833 201f 0100     		.2byte	0x1
 15834 2021 50       		.byte	0x50
 15835 2022 04020000 		.4byte	.LVL634
 15836 2026 18020000 		.4byte	.LVL639
 15837 202a 0100     		.2byte	0x1
 15838 202c 56       		.byte	0x56
 15839 202d 00000000 		.4byte	0
 15840 2031 00000000 		.4byte	0
 15841              	.LLST133:
 15842 2035 00000000 		.4byte	.LVL665
 15843 2039 0F000000 		.4byte	.LVL666-1
 15844 203d 0100     		.2byte	0x1
 15845 203f 50       		.byte	0x50
 15846 2040 0F000000 		.4byte	.LVL666-1
 15847 2044 12000000 		.4byte	.LVL667
 15848 2048 0100     		.2byte	0x1
 15849 204a 54       		.byte	0x54
 15850 204b 12000000 		.4byte	.LVL667
 15851 204f 2A000000 		.4byte	.LVL670
 15852 2053 0400     		.2byte	0x4
 15853 2055 F3       		.byte	0xf3
 15854 2056 01       		.uleb128 0x1
 15855 2057 50       		.byte	0x50
 15856 2058 9F       		.byte	0x9f
 15857 2059 2A000000 		.4byte	.LVL670
 15858 205d 2C000000 		.4byte	.LVL671
 15859 2061 0100     		.2byte	0x1
 15860 2063 50       		.byte	0x50
 15861 2064 2C000000 		.4byte	.LVL671
 15862 2068 38000000 		.4byte	.LVL673
 15863 206c 0100     		.2byte	0x1
 15864 206e 54       		.byte	0x54
 15865 206f 38000000 		.4byte	.LVL673
 15866 2073 4C000000 		.4byte	.LFE14
 15867 2077 0400     		.2byte	0x4
 15868 2079 F3       		.byte	0xf3
 15869 207a 01       		.uleb128 0x1
 15870 207b 50       		.byte	0x50
 15871 207c 9F       		.byte	0x9f
 15872 207d 00000000 		.4byte	0
 15873 2081 00000000 		.4byte	0
 15874              	.LLST134:
 15875 2085 00000000 		.4byte	.LVL665
 15876 2089 0F000000 		.4byte	.LVL666-1
 15877 208d 0100     		.2byte	0x1
ARM GAS  C:\Users\Phuong\AppData\Local\Temp\ccdTtd1y.s 			page 314


 15878 208f 51       		.byte	0x51
 15879 2090 0F000000 		.4byte	.LVL666-1
 15880 2094 2A000000 		.4byte	.LVL670
 15881 2098 0400     		.2byte	0x4
 15882 209a F3       		.byte	0xf3
 15883 209b 01       		.uleb128 0x1
 15884 209c 51       		.byte	0x51
 15885 209d 9F       		.byte	0x9f
 15886 209e 2A000000 		.4byte	.LVL670
 15887 20a2 2F000000 		.4byte	.LVL672-1
 15888 20a6 0100     		.2byte	0x1
 15889 20a8 51       		.byte	0x51
 15890 20a9 2F000000 		.4byte	.LVL672-1
 15891 20ad 4C000000 		.4byte	.LFE14
 15892 20b1 0400     		.2byte	0x4
 15893 20b3 F3       		.byte	0xf3
 15894 20b4 01       		.uleb128 0x1
 15895 20b5 51       		.byte	0x51
 15896 20b6 9F       		.byte	0x9f
 15897 20b7 00000000 		.4byte	0
 15898 20bb 00000000 		.4byte	0
 15899              	.LLST135:
 15900 20bf 12000000 		.4byte	.LVL667
 15901 20c3 26000000 		.4byte	.LVL668
 15902 20c7 0100     		.2byte	0x1
 15903 20c9 50       		.byte	0x50
 15904 20ca 26000000 		.4byte	.LVL668
 15905 20ce 2A000000 		.4byte	.LVL670
 15906 20d2 0100     		.2byte	0x1
 15907 20d4 54       		.byte	0x54
 15908 20d5 00000000 		.4byte	0
 15909 20d9 00000000 		.4byte	0
 15910              	.LLST136:
 15911 20dd 00000000 		.4byte	.LVL674
 15912 20e1 13000000 		.4byte	.LVL675-1
 15913 20e5 0100     		.2byte	0x1
 15914 20e7 50       		.byte	0x50
 15915 20e8 13000000 		.4byte	.LVL675-1
 15916 20ec 3C000000 		.4byte	.LVL680
 15917 20f0 0100     		.2byte	0x1
 15918 20f2 55       		.byte	0x55
 15919 20f3 3C000000 		.4byte	.LVL680
 15920 20f7 3F000000 		.4byte	.LVL681-1
 15921 20fb 0100     		.2byte	0x1
 15922 20fd 50       		.byte	0x50
 15923 20fe 3F000000 		.4byte	.LVL681-1
 15924 2102 70000000 		.4byte	.LVL691
 15925 2106 0100     		.2byte	0x1
 15926 2108 55       		.byte	0x55
 15927 2109 70000000 		.4byte	.LVL691
 15928 210d 94000000 		.4byte	.LFE15
 15929 2111 0400     		.2byte	0x4
 15930 2113 F3       		.byte	0xf3
 15931 2114 01       		.uleb128 0x1
 15932 2115 50       		.byte	0x50
 15933 2116 9F       		.byte	0x9f
 15934 2117 00000000 		.4byte	0
ARM GAS  C:\Users\Phuong\AppData\Local\Temp\ccdTtd1y.s 			page 315


 15935 211b 00000000 		.4byte	0
 15936              	.LLST137:
 15937 211f 00000000 		.4byte	.LVL674
 15938 2123 13000000 		.4byte	.LVL675-1
 15939 2127 0100     		.2byte	0x1
 15940 2129 51       		.byte	0x51
 15941 212a 13000000 		.4byte	.LVL675-1
 15942 212e 1E000000 		.4byte	.LVL677
 15943 2132 0100     		.2byte	0x1
 15944 2134 54       		.byte	0x54
 15945 2135 1E000000 		.4byte	.LVL677
 15946 2139 3C000000 		.4byte	.LVL680
 15947 213d 0400     		.2byte	0x4
 15948 213f F3       		.byte	0xf3
 15949 2140 01       		.uleb128 0x1
 15950 2141 51       		.byte	0x51
 15951 2142 9F       		.byte	0x9f
 15952 2143 3C000000 		.4byte	.LVL680
 15953 2147 3F000000 		.4byte	.LVL681-1
 15954 214b 0100     		.2byte	0x1
 15955 214d 51       		.byte	0x51
 15956 214e 3F000000 		.4byte	.LVL681-1
 15957 2152 4A000000 		.4byte	.LVL683
 15958 2156 0100     		.2byte	0x1
 15959 2158 54       		.byte	0x54
 15960 2159 4A000000 		.4byte	.LVL683
 15961 215d 64000000 		.4byte	.LVL686
 15962 2161 0400     		.2byte	0x4
 15963 2163 F3       		.byte	0xf3
 15964 2164 01       		.uleb128 0x1
 15965 2165 51       		.byte	0x51
 15966 2166 9F       		.byte	0x9f
 15967 2167 64000000 		.4byte	.LVL686
 15968 216b 6C000000 		.4byte	.LVL689
 15969 216f 0100     		.2byte	0x1
 15970 2171 54       		.byte	0x54
 15971 2172 6C000000 		.4byte	.LVL689
 15972 2176 94000000 		.4byte	.LFE15
 15973 217a 0400     		.2byte	0x4
 15974 217c F3       		.byte	0xf3
 15975 217d 01       		.uleb128 0x1
 15976 217e 51       		.byte	0x51
 15977 217f 9F       		.byte	0x9f
 15978 2180 00000000 		.4byte	0
 15979 2184 00000000 		.4byte	0
 15980              	.LLST138:
 15981 2188 16000000 		.4byte	.LVL676
 15982 218c 36000000 		.4byte	.LVL678
 15983 2190 0100     		.2byte	0x1
 15984 2192 50       		.byte	0x50
 15985 2193 36000000 		.4byte	.LVL678
 15986 2197 3C000000 		.4byte	.LVL680
 15987 219b 0100     		.2byte	0x1
 15988 219d 56       		.byte	0x56
 15989 219e 64000000 		.4byte	.LVL686
 15990 21a2 66000000 		.4byte	.LVL687
 15991 21a6 0100     		.2byte	0x1
ARM GAS  C:\Users\Phuong\AppData\Local\Temp\ccdTtd1y.s 			page 316


 15992 21a8 50       		.byte	0x50
 15993 21a9 66000000 		.4byte	.LVL687
 15994 21ad 68000000 		.4byte	.LVL688
 15995 21b1 0100     		.2byte	0x1
 15996 21b3 56       		.byte	0x56
 15997 21b4 00000000 		.4byte	0
 15998 21b8 00000000 		.4byte	0
 15999              	.LLST139:
 16000 21bc 4A000000 		.4byte	.LVL683
 16001 21c0 5E000000 		.4byte	.LVL684
 16002 21c4 0100     		.2byte	0x1
 16003 21c6 50       		.byte	0x50
 16004 21c7 5E000000 		.4byte	.LVL684
 16005 21cb 64000000 		.4byte	.LVL686
 16006 21cf 0100     		.2byte	0x1
 16007 21d1 54       		.byte	0x54
 16008 21d2 6C000000 		.4byte	.LVL689
 16009 21d6 6E000000 		.4byte	.LVL690
 16010 21da 0100     		.2byte	0x1
 16011 21dc 50       		.byte	0x50
 16012 21dd 00000000 		.4byte	0
 16013 21e1 00000000 		.4byte	0
 16014              	.LLST140:
 16015 21e5 00000000 		.4byte	.LVL692
 16016 21e9 13000000 		.4byte	.LVL693-1
 16017 21ed 0100     		.2byte	0x1
 16018 21ef 50       		.byte	0x50
 16019 21f0 13000000 		.4byte	.LVL693-1
 16020 21f4 3A000000 		.4byte	.LVL698
 16021 21f8 0100     		.2byte	0x1
 16022 21fa 55       		.byte	0x55
 16023 21fb 3A000000 		.4byte	.LVL698
 16024 21ff 3D000000 		.4byte	.LVL699-1
 16025 2203 0100     		.2byte	0x1
 16026 2205 50       		.byte	0x50
 16027 2206 3D000000 		.4byte	.LVL699-1
 16028 220a 6E000000 		.4byte	.LVL709
 16029 220e 0100     		.2byte	0x1
 16030 2210 55       		.byte	0x55
 16031 2211 6E000000 		.4byte	.LVL709
 16032 2215 94000000 		.4byte	.LFE16
 16033 2219 0400     		.2byte	0x4
 16034 221b F3       		.byte	0xf3
 16035 221c 01       		.uleb128 0x1
 16036 221d 50       		.byte	0x50
 16037 221e 9F       		.byte	0x9f
 16038 221f 00000000 		.4byte	0
 16039 2223 00000000 		.4byte	0
 16040              	.LLST141:
 16041 2227 00000000 		.4byte	.LVL692
 16042 222b 13000000 		.4byte	.LVL693-1
 16043 222f 0100     		.2byte	0x1
 16044 2231 51       		.byte	0x51
 16045 2232 13000000 		.4byte	.LVL693-1
 16046 2236 1E000000 		.4byte	.LVL695
 16047 223a 0100     		.2byte	0x1
 16048 223c 54       		.byte	0x54
ARM GAS  C:\Users\Phuong\AppData\Local\Temp\ccdTtd1y.s 			page 317


 16049 223d 1E000000 		.4byte	.LVL695
 16050 2241 3A000000 		.4byte	.LVL698
 16051 2245 0400     		.2byte	0x4
 16052 2247 F3       		.byte	0xf3
 16053 2248 01       		.uleb128 0x1
 16054 2249 51       		.byte	0x51
 16055 224a 9F       		.byte	0x9f
 16056 224b 3A000000 		.4byte	.LVL698
 16057 224f 3D000000 		.4byte	.LVL699-1
 16058 2253 0100     		.2byte	0x1
 16059 2255 51       		.byte	0x51
 16060 2256 3D000000 		.4byte	.LVL699-1
 16061 225a 48000000 		.4byte	.LVL701
 16062 225e 0100     		.2byte	0x1
 16063 2260 54       		.byte	0x54
 16064 2261 48000000 		.4byte	.LVL701
 16065 2265 62000000 		.4byte	.LVL704
 16066 2269 0400     		.2byte	0x4
 16067 226b F3       		.byte	0xf3
 16068 226c 01       		.uleb128 0x1
 16069 226d 51       		.byte	0x51
 16070 226e 9F       		.byte	0x9f
 16071 226f 62000000 		.4byte	.LVL704
 16072 2273 6A000000 		.4byte	.LVL707
 16073 2277 0100     		.2byte	0x1
 16074 2279 54       		.byte	0x54
 16075 227a 6A000000 		.4byte	.LVL707
 16076 227e 94000000 		.4byte	.LFE16
 16077 2282 0400     		.2byte	0x4
 16078 2284 F3       		.byte	0xf3
 16079 2285 01       		.uleb128 0x1
 16080 2286 51       		.byte	0x51
 16081 2287 9F       		.byte	0x9f
 16082 2288 00000000 		.4byte	0
 16083 228c 00000000 		.4byte	0
 16084              	.LLST142:
 16085 2290 16000000 		.4byte	.LVL694
 16086 2294 34000000 		.4byte	.LVL696
 16087 2298 0100     		.2byte	0x1
 16088 229a 50       		.byte	0x50
 16089 229b 34000000 		.4byte	.LVL696
 16090 229f 3A000000 		.4byte	.LVL698
 16091 22a3 0100     		.2byte	0x1
 16092 22a5 56       		.byte	0x56
 16093 22a6 62000000 		.4byte	.LVL704
 16094 22aa 64000000 		.4byte	.LVL705
 16095 22ae 0100     		.2byte	0x1
 16096 22b0 50       		.byte	0x50
 16097 22b1 64000000 		.4byte	.LVL705
 16098 22b5 66000000 		.4byte	.LVL706
 16099 22b9 0100     		.2byte	0x1
 16100 22bb 56       		.byte	0x56
 16101 22bc 00000000 		.4byte	0
 16102 22c0 00000000 		.4byte	0
 16103              	.LLST143:
 16104 22c4 48000000 		.4byte	.LVL701
 16105 22c8 5C000000 		.4byte	.LVL702
ARM GAS  C:\Users\Phuong\AppData\Local\Temp\ccdTtd1y.s 			page 318


 16106 22cc 0100     		.2byte	0x1
 16107 22ce 50       		.byte	0x50
 16108 22cf 5C000000 		.4byte	.LVL702
 16109 22d3 62000000 		.4byte	.LVL704
 16110 22d7 0100     		.2byte	0x1
 16111 22d9 54       		.byte	0x54
 16112 22da 6A000000 		.4byte	.LVL707
 16113 22de 6C000000 		.4byte	.LVL708
 16114 22e2 0100     		.2byte	0x1
 16115 22e4 50       		.byte	0x50
 16116 22e5 00000000 		.4byte	0
 16117 22e9 00000000 		.4byte	0
 16118              		.section	.debug_aranges,"",%progbits
 16119 0000 94000000 		.4byte	0x94
 16120 0004 0200     		.2byte	0x2
 16121 0006 00000000 		.4byte	.Ldebug_info0
 16122 000a 04       		.byte	0x4
 16123 000b 00       		.byte	0
 16124 000c 0000     		.2byte	0
 16125 000e 0000     		.2byte	0
 16126 0010 00000000 		.4byte	.LFB4
 16127 0014 90000000 		.4byte	.LFE4-.LFB4
 16128 0018 00000000 		.4byte	.LFB3
 16129 001c A8000000 		.4byte	.LFE3-.LFB3
 16130 0020 00000000 		.4byte	.LFB7
 16131 0024 5C000000 		.4byte	.LFE7-.LFB7
 16132 0028 00000000 		.4byte	.LFB8
 16133 002c 5C000000 		.4byte	.LFE8-.LFB8
 16134 0030 00000000 		.4byte	.LFB2
 16135 0034 90000000 		.4byte	.LFE2-.LFB2
 16136 0038 00000000 		.4byte	.LFB1
 16137 003c 00040000 		.4byte	.LFE1-.LFB1
 16138 0040 00000000 		.4byte	.LFB6
 16139 0044 DC000000 		.4byte	.LFE6-.LFB6
 16140 0048 00000000 		.4byte	.LFB5
 16141 004c 50010000 		.4byte	.LFE5-.LFB5
 16142 0050 00000000 		.4byte	.LFB9
 16143 0054 E8030000 		.4byte	.LFE9-.LFB9
 16144 0058 00000000 		.4byte	.LFB11
 16145 005c 78010000 		.4byte	.LFE11-.LFB11
 16146 0060 00000000 		.4byte	.LFB12
 16147 0064 98010000 		.4byte	.LFE12-.LFB12
 16148 0068 00000000 		.4byte	.LFB10
 16149 006c 78000000 		.4byte	.LFE10-.LFB10
 16150 0070 00000000 		.4byte	.LFB13
 16151 0074 EC020000 		.4byte	.LFE13-.LFB13
 16152 0078 00000000 		.4byte	.LFB14
 16153 007c 4C000000 		.4byte	.LFE14-.LFB14
 16154 0080 00000000 		.4byte	.LFB15
 16155 0084 94000000 		.4byte	.LFE15-.LFB15
 16156 0088 00000000 		.4byte	.LFB16
 16157 008c 94000000 		.4byte	.LFE16-.LFB16
 16158 0090 00000000 		.4byte	0
 16159 0094 00000000 		.4byte	0
 16160              		.section	.debug_ranges,"",%progbits
 16161              	.Ldebug_ranges0:
 16162 0000 66020000 		.4byte	.LBB26
ARM GAS  C:\Users\Phuong\AppData\Local\Temp\ccdTtd1y.s 			page 319


 16163 0004 96020000 		.4byte	.LBE26
 16164 0008 9A020000 		.4byte	.LBB31
 16165 000c FA020000 		.4byte	.LBE31
 16166 0010 FE020000 		.4byte	.LBB32
 16167 0014 06030000 		.4byte	.LBE32
 16168 0018 12030000 		.4byte	.LBB33
 16169 001c 18030000 		.4byte	.LBE33
 16170 0020 00000000 		.4byte	0
 16171 0024 00000000 		.4byte	0
 16172 0028 9C020000 		.4byte	.LBB28
 16173 002c FA020000 		.4byte	.LBE28
 16174 0030 12030000 		.4byte	.LBB30
 16175 0034 18030000 		.4byte	.LBE30
 16176 0038 00000000 		.4byte	0
 16177 003c 00000000 		.4byte	0
 16178 0040 56000000 		.4byte	.LBB71
 16179 0044 3E010000 		.4byte	.LBE71
 16180 0048 48010000 		.4byte	.LBB78
 16181 004c 4E010000 		.4byte	.LBE78
 16182 0050 00000000 		.4byte	0
 16183 0054 00000000 		.4byte	0
 16184 0058 84010000 		.4byte	.LBB87
 16185 005c 2C020000 		.4byte	.LBE87
 16186 0060 42020000 		.4byte	.LBB91
 16187 0064 44020000 		.4byte	.LBE91
 16188 0068 00000000 		.4byte	0
 16189 006c 00000000 		.4byte	0
 16190 0070 00000000 		.4byte	.LFB4
 16191 0074 90000000 		.4byte	.LFE4
 16192 0078 00000000 		.4byte	.LFB3
 16193 007c A8000000 		.4byte	.LFE3
 16194 0080 00000000 		.4byte	.LFB7
 16195 0084 5C000000 		.4byte	.LFE7
 16196 0088 00000000 		.4byte	.LFB8
 16197 008c 5C000000 		.4byte	.LFE8
 16198 0090 00000000 		.4byte	.LFB2
 16199 0094 90000000 		.4byte	.LFE2
 16200 0098 00000000 		.4byte	.LFB1
 16201 009c 00040000 		.4byte	.LFE1
 16202 00a0 00000000 		.4byte	.LFB6
 16203 00a4 DC000000 		.4byte	.LFE6
 16204 00a8 00000000 		.4byte	.LFB5
 16205 00ac 50010000 		.4byte	.LFE5
 16206 00b0 00000000 		.4byte	.LFB9
 16207 00b4 E8030000 		.4byte	.LFE9
 16208 00b8 00000000 		.4byte	.LFB11
 16209 00bc 78010000 		.4byte	.LFE11
 16210 00c0 00000000 		.4byte	.LFB12
 16211 00c4 98010000 		.4byte	.LFE12
 16212 00c8 00000000 		.4byte	.LFB10
 16213 00cc 78000000 		.4byte	.LFE10
 16214 00d0 00000000 		.4byte	.LFB13
 16215 00d4 EC020000 		.4byte	.LFE13
 16216 00d8 00000000 		.4byte	.LFB14
 16217 00dc 4C000000 		.4byte	.LFE14
 16218 00e0 00000000 		.4byte	.LFB15
 16219 00e4 94000000 		.4byte	.LFE15
ARM GAS  C:\Users\Phuong\AppData\Local\Temp\ccdTtd1y.s 			page 320


 16220 00e8 00000000 		.4byte	.LFB16
 16221 00ec 94000000 		.4byte	.LFE16
 16222 00f0 00000000 		.4byte	0
 16223 00f4 00000000 		.4byte	0
 16224              		.section	.debug_line,"",%progbits
 16225              	.Ldebug_line0:
 16226 0000 970A0000 		.section	.debug_str,"MS",%progbits,1
 16226      0200B403 
 16226      00000201 
 16226      FB0E0D00 
 16226      01010101 
 16227              	.LASF71:
 16228 0000 4D455353 		.ascii	"MESSAGE_SEND_TIMEOUT\000"
 16228      4147455F 
 16228      53454E44 
 16228      5F54494D 
 16228      454F5554 
 16229              	.LASF197:
 16230 0015 6D616C6C 		.ascii	"malloc\000"
 16230      6F6300
 16231              	.LASF39:
 16232 001c 414D5150 		.ascii	"AMQP_MANAGEMENT_EXECUTE_OPERATION_FAILED_BAD_STATUS"
 16232      5F4D414E 
 16232      4147454D 
 16232      454E545F 
 16232      45584543 
 16233 004f 00       		.ascii	"\000"
 16234              	.LASF139:
 16235 0050 65786563 		.ascii	"execute_operation_result\000"
 16235      7574655F 
 16235      6F706572 
 16235      6174696F 
 16235      6E5F7265 
 16236              	.LASF132:
 16237 0069 636F7272 		.ascii	"correlation_id\000"
 16237      656C6174 
 16237      696F6E5F 
 16237      696400
 16238              	.LASF24:
 16239 0078 415A5F4C 		.ascii	"AZ_LOG_TRACE\000"
 16239      4F475F54 
 16239      52414345 
 16239      00
 16240              	.LASF8:
 16241 0085 73697A65 		.ascii	"size_t\000"
 16241      5F7400
 16242              	.LASF43:
 16243 008c 414D5150 		.ascii	"AMQP_MANAGEMENT_OPEN_OK\000"
 16243      5F4D414E 
 16243      4147454D 
 16243      454E545F 
 16243      4F50454E 
 16244              	.LASF16:
 16245 00a4 75696E74 		.ascii	"uint64_t\000"
 16245      36345F74 
 16245      00
 16246              	.LASF137:
ARM GAS  C:\Users\Phuong\AppData\Local\Temp\ccdTtd1y.s 			page 321


 16247 00ad 69735F65 		.ascii	"is_error\000"
 16247      72726F72 
 16247      00
 16248              	.LASF201:
 16249 00b6 6C696E6B 		.ascii	"link_destroy\000"
 16249      5F646573 
 16249      74726F79 
 16249      00
 16250              	.LASF40:
 16251 00c3 414D5150 		.ascii	"AMQP_MANAGEMENT_EXECUTE_OPERATION_INSTANCE_CLOSED\000"
 16251      5F4D414E 
 16251      4147454D 
 16251      454E545F 
 16251      45584543 
 16252              	.LASF167:
 16253 00f5 616D7170 		.ascii	"amqp_management_set_override_status_description_key"
 16253      5F6D616E 
 16253      6167656D 
 16253      656E745F 
 16253      7365745F 
 16254 0128 5F6E616D 		.ascii	"_name\000"
 16254      6500
 16255              	.LASF133:
 16256 012e 73746174 		.ascii	"status_code\000"
 16256      75735F63 
 16256      6F646500 
 16257              	.LASF157:
 16258 013a 74797065 		.ascii	"type\000"
 16258      00
 16259              	.LASF94:
 16260 013f 6F6E5F65 		.ascii	"on_execute_operation_complete\000"
 16260      78656375 
 16260      74655F6F 
 16260      70657261 
 16260      74696F6E 
 16261              	.LASF178:
 16262 015d 616D7170 		.ascii	"amqpvalue_get_map_value\000"
 16262      76616C75 
 16262      655F6765 
 16262      745F6D61 
 16262      705F7661 
 16263              	.LASF44:
 16264 0175 414D5150 		.ascii	"AMQP_MANAGEMENT_OPEN_ERROR\000"
 16264      5F4D414E 
 16264      4147454D 
 16264      454E545F 
 16264      4F50454E 
 16265              	.LASF177:
 16266 0190 73696E67 		.ascii	"singlylinkedlist_get_next_item\000"
 16266      6C796C69 
 16266      6E6B6564 
 16266      6C697374 
 16266      5F676574 
 16267              	.LASF170:
 16268 01af 72656365 		.ascii	"receiver_suffix\000"
 16268      69766572 
 16268      5F737566 
ARM GAS  C:\Users\Phuong\AppData\Local\Temp\ccdTtd1y.s 			page 322


 16268      66697800 
 16269              	.LASF171:
 16270 01bf 786C6F67 		.ascii	"xlogging_get_log_function\000"
 16270      67696E67 
 16270      5F676574 
 16270      5F6C6F67 
 16270      5F66756E 
 16271              	.LASF129:
 16272 01d9 64657363 		.ascii	"desc_key\000"
 16272      5F6B6579 
 16272      00
 16273              	.LASF41:
 16274 01e2 414D5150 		.ascii	"AMQP_MANAGEMENT_EXECUTE_OPERATION_RESULT\000"
 16274      5F4D414E 
 16274      4147454D 
 16274      454E545F 
 16274      45584543 
 16275              	.LASF123:
 16276 020b 70656E64 		.ascii	"pending_operation_message\000"
 16276      696E675F 
 16276      6F706572 
 16276      6174696F 
 16276      6E5F6D65 
 16277              	.LASF119:
 16278 0225 6F6E5F6D 		.ascii	"on_message_send_complete\000"
 16278      65737361 
 16278      67655F73 
 16278      656E645F 
 16278      636F6D70 
 16279              	.LASF37:
 16280 023e 414D5150 		.ascii	"AMQP_MANAGEMENT_EXECUTE_OPERATION_OK\000"
 16280      5F4D414E 
 16280      4147454D 
 16280      454E545F 
 16280      45584543 
 16281              	.LASF90:
 16282 0263 4D455353 		.ascii	"MESSAGE_RECEIVER_HANDLE\000"
 16282      4147455F 
 16282      52454345 
 16282      49564552 
 16282      5F48414E 
 16283              	.LASF97:
 16284 027b 616D7170 		.ascii	"amqp_management\000"
 16284      5F6D616E 
 16284      6167656D 
 16284      656E7400 
 16285              	.LASF173:
 16286 028b 66726565 		.ascii	"free\000"
 16286      00
 16287              	.LASF17:
 16288 0290 53494E47 		.ascii	"SINGLYLINKEDLIST_HANDLE\000"
 16288      4C594C49 
 16288      4E4B4544 
 16288      4C495354 
 16288      5F48414E 
 16289              	.LASF193:
 16290 02a8 616D7170 		.ascii	"amqpvalue_create_message_id_ulong\000"
ARM GAS  C:\Users\Phuong\AppData\Local\Temp\ccdTtd1y.s 			page 323


 16290      76616C75 
 16290      655F6372 
 16290      65617465 
 16290      5F6D6573 
 16291              	.LASF162:
 16292 02ca 616D7170 		.ascii	"amqp_management_destroy\000"
 16292      5F6D616E 
 16292      6167656D 
 16292      656E745F 
 16292      64657374 
 16293              	.LASF221:
 16294 02e2 6D657373 		.ascii	"messagereceiver_set_trace\000"
 16294      61676572 
 16294      65636569 
 16294      7665725F 
 16294      7365745F 
 16295              	.LASF2:
 16296 02fc 6C6F6E67 		.ascii	"long long int\000"
 16296      206C6F6E 
 16296      6720696E 
 16296      7400
 16297              	.LASF4:
 16298 030a 7369676E 		.ascii	"signed char\000"
 16298      65642063 
 16298      68617200 
 16299              	.LASF149:
 16300 0316 6D616E61 		.ascii	"management_node_length\000"
 16300      67656D65 
 16300      6E745F6E 
 16300      6F64655F 
 16300      6C656E67 
 16301              	.LASF0:
 16302 032d 6C6F6E67 		.ascii	"long long unsigned int\000"
 16302      206C6F6E 
 16302      6720756E 
 16302      7369676E 
 16302      65642069 
 16303              	.LASF102:
 16304 0344 414D5150 		.ascii	"AMQP_MANAGEMENT_STATE_CLOSING\000"
 16304      5F4D414E 
 16304      4147454D 
 16304      454E545F 
 16304      53544154 
 16305              	.LASF174:
 16306 0362 73696E67 		.ascii	"singlylinkedlist_item_get_value\000"
 16306      6C796C69 
 16306      6E6B6564 
 16306      6C697374 
 16306      5F697465 
 16307              	.LASF164:
 16308 0382 74726163 		.ascii	"trace_on\000"
 16308      655F6F6E 
 16308      00
 16309              	.LASF98:
 16310 038b 4F504552 		.ascii	"OPERATION_MESSAGE_INSTANCE\000"
 16310      4154494F 
 16310      4E5F4D45 
ARM GAS  C:\Users\Phuong\AppData\Local\Temp\ccdTtd1y.s 			page 324


 16310      53534147 
 16310      455F494E 
 16311              	.LASF184:
 16312 03a6 616D7170 		.ascii	"amqpvalue_get_int\000"
 16312      76616C75 
 16312      655F6765 
 16312      745F696E 
 16312      7400
 16313              	.LASF87:
 16314 03b8 4D455353 		.ascii	"MESSAGE_RECEIVER_STATE_CLOSING\000"
 16314      4147455F 
 16314      52454345 
 16314      49564552 
 16314      5F535441 
 16315              	.LASF53:
 16316 03d7 6E657874 		.ascii	"next_message_id\000"
 16316      5F6D6573 
 16316      73616765 
 16316      5F696400 
 16317              	.LASF30:
 16318 03e7 53455353 		.ascii	"SESSION_INSTANCE_TAG\000"
 16318      494F4E5F 
 16318      494E5354 
 16318      414E4345 
 16318      5F544147 
 16319              	.LASF29:
 16320 03fc 53455353 		.ascii	"SESSION_HANDLE\000"
 16320      494F4E5F 
 16320      48414E44 
 16320      4C4500
 16321              	.LASF10:
 16322 040b 6C6F6E67 		.ascii	"long int\000"
 16322      20696E74 
 16322      00
 16323              	.LASF159:
 16324 0414 6F6E5F65 		.ascii	"on_execute_operation_complete_context\000"
 16324      78656375 
 16324      74655F6F 
 16324      70657261 
 16324      74696F6E 
 16325              	.LASF207:
 16326 043a 73696E67 		.ascii	"singlylinkedlist_destroy\000"
 16326      6C796C69 
 16326      6E6B6564 
 16326      6C697374 
 16326      5F646573 
 16327              	.LASF68:
 16328 0453 4D455353 		.ascii	"MESSAGE_SEND_RESULT_TAG\000"
 16328      4147455F 
 16328      53454E44 
 16328      5F524553 
 16328      554C545F 
 16329              	.LASF224:
 16330 046b 433A5C55 		.ascii	"C:\\Users\\Phuong\\Documents\\PSoC Creator\\Dec0820"
 16330      73657273 
 16330      5C506875 
 16330      6F6E675C 
ARM GAS  C:\Users\Phuong\AppData\Local\Temp\ccdTtd1y.s 			page 325


 16330      446F6375 
 16331 0499 31385C69 		.ascii	"18\\iot-sdk-iot-dev\\PSOC6_FreeRTOS+LwIP+MbedTLS_Az"
 16331      6F742D73 
 16331      646B2D69 
 16331      6F742D64 
 16331      65765C50 
 16332 04ca 7572652D 		.ascii	"ure-IOT-Hub-Demo\\PSOC6_FreeRTOS+LwIP+MbedTLS_Azure"
 16332      494F542D 
 16332      4875622D 
 16332      44656D6F 
 16332      5C50534F 
 16333 04fc 2D494F54 		.ascii	"-IOT-Hub-Demo.cydsn\000"
 16333      2D487562 
 16333      2D44656D 
 16333      6F2E6379 
 16333      64736E00 
 16334              	.LASF82:
 16335 0510 4D455353 		.ascii	"MESSAGE_SENDER_INSTANCE_TAG\000"
 16335      4147455F 
 16335      53454E44 
 16335      45525F49 
 16335      4E535441 
 16336              	.LASF75:
 16337 052c 4D455353 		.ascii	"MESSAGE_SENDER_STATE_IDLE\000"
 16337      4147455F 
 16337      53454E44 
 16337      45525F53 
 16337      54415445 
 16338              	.LASF80:
 16339 0546 4D455353 		.ascii	"MESSAGE_SENDER_STATE\000"
 16339      4147455F 
 16339      53454E44 
 16339      45525F53 
 16339      54415445 
 16340              	.LASF135:
 16341 055b 6C697374 		.ascii	"list_item_handle\000"
 16341      5F697465 
 16341      6D5F6861 
 16341      6E646C65 
 16341      00
 16342              	.LASF52:
 16343 056c 70656E64 		.ascii	"pending_operations\000"
 16343      696E675F 
 16343      6F706572 
 16343      6174696F 
 16343      6E7300
 16344              	.LASF153:
 16345 057f 616D7170 		.ascii	"amqp_management_open_async\000"
 16345      5F6D616E 
 16345      6167656D 
 16345      656E745F 
 16345      6F70656E 
 16346              	.LASF63:
 16347 059a 4F4E5F41 		.ascii	"ON_AMQP_MANAGEMENT_OPEN_COMPLETE\000"
 16347      4D51505F 
 16347      4D414E41 
 16347      47454D45 
ARM GAS  C:\Users\Phuong\AppData\Local\Temp\ccdTtd1y.s 			page 326


 16347      4E545F4F 
 16348              	.LASF223:
 16349 05bb 536F7572 		.ascii	"Source\\azure_iot_sdk\\uamqp\\src\\amqp_management."
 16349      63655C61 
 16349      7A757265 
 16349      5F696F74 
 16349      5F73646B 
 16350 05ea 6300     		.ascii	"c\000"
 16351              	.LASF48:
 16352 05ec 73656E64 		.ascii	"sender_link\000"
 16352      65725F6C 
 16352      696E6B00 
 16353              	.LASF142:
 16354 05f8 76616C75 		.ascii	"value_value\000"
 16354      655F7661 
 16354      6C756500 
 16355              	.LASF92:
 16356 0604 414D5150 		.ascii	"AMQP_MANAGEMENT_INSTANCE_TAG\000"
 16356      5F4D414E 
 16356      4147454D 
 16356      454E545F 
 16356      494E5354 
 16357              	.LASF89:
 16358 0621 4D455353 		.ascii	"MESSAGE_RECEIVER_STATE\000"
 16358      4147455F 
 16358      52454345 
 16358      49564552 
 16358      5F535441 
 16359              	.LASF131:
 16360 0638 636F7272 		.ascii	"correlation_id_value\000"
 16360      656C6174 
 16360      696F6E5F 
 16360      69645F76 
 16360      616C7565 
 16361              	.LASF70:
 16362 064d 4D455353 		.ascii	"MESSAGE_SEND_ERROR\000"
 16362      4147455F 
 16362      53454E44 
 16362      5F455252 
 16362      4F5200
 16363              	.LASF34:
 16364 0660 4D455353 		.ascii	"MESSAGE_INSTANCE_TAG\000"
 16364      4147455F 
 16364      494E5354 
 16364      414E4345 
 16364      5F544147 
 16365              	.LASF74:
 16366 0675 4D455353 		.ascii	"MESSAGE_SENDER_STATE_TAG\000"
 16366      4147455F 
 16366      53454E44 
 16366      45525F53 
 16366      54415445 
 16367              	.LASF109:
 16368 068e 70726576 		.ascii	"previous_state\000"
 16368      696F7573 
 16368      5F737461 
 16368      746500
ARM GAS  C:\Users\Phuong\AppData\Local\Temp\ccdTtd1y.s 			page 327


 16369              	.LASF128:
 16370 069d 76616C75 		.ascii	"value\000"
 16370      6500
 16371              	.LASF95:
 16372 06a3 63616C6C 		.ascii	"callback_context\000"
 16372      6261636B 
 16372      5F636F6E 
 16372      74657874 
 16372      00
 16373              	.LASF1:
 16374 06b4 756E7369 		.ascii	"unsigned int\000"
 16374      676E6564 
 16374      20696E74 
 16374      00
 16375              	.LASF175:
 16376 06c1 73696E67 		.ascii	"singlylinkedlist_remove\000"
 16376      6C796C69 
 16376      6E6B6564 
 16376      6C697374 
 16376      5F72656D 
 16377              	.LASF18:
 16378 06d9 4C495354 		.ascii	"LIST_ITEM_HANDLE\000"
 16378      5F495445 
 16378      4D5F4841 
 16378      4E444C45 
 16378      00
 16379              	.LASF106:
 16380 06ea 414D5150 		.ascii	"AMQP_MANAGEMENT_INSTANCE\000"
 16380      5F4D414E 
 16380      4147454D 
 16380      454E545F 
 16380      494E5354 
 16381              	.LASF203:
 16382 0703 7374726C 		.ascii	"strlen\000"
 16382      656E00
 16383              	.LASF126:
 16384 070a 6170706C 		.ascii	"application_properties\000"
 16384      69636174 
 16384      696F6E5F 
 16384      70726F70 
 16384      65727469 
 16385              	.LASF11:
 16386 0721 6C6F6E67 		.ascii	"long unsigned int\000"
 16386      20756E73 
 16386      69676E65 
 16386      6420696E 
 16386      7400
 16387              	.LASF96:
 16388 0733 6D657373 		.ascii	"message_id\000"
 16388      6167655F 
 16388      696400
 16389              	.LASF216:
 16390 073e 6D657373 		.ascii	"message_clone\000"
 16390      6167655F 
 16390      636C6F6E 
 16390      6500
 16391              	.LASF19:
ARM GAS  C:\Users\Phuong\AppData\Local\Temp\ccdTtd1y.s 			page 328


 16392 074c 53494E47 		.ascii	"SINGLYLINKEDLIST_INSTANCE_TAG\000"
 16392      4C594C49 
 16392      4E4B4544 
 16392      4C495354 
 16392      5F494E53 
 16393              	.LASF26:
 16394 076a 4C4F4747 		.ascii	"LOGGER_LOG\000"
 16394      45525F4C 
 16394      4F4700
 16395              	.LASF7:
 16396 0775 73686F72 		.ascii	"short unsigned int\000"
 16396      7420756E 
 16396      7369676E 
 16396      65642069 
 16396      6E7400
 16397              	.LASF38:
 16398 0788 414D5150 		.ascii	"AMQP_MANAGEMENT_EXECUTE_OPERATION_ERROR\000"
 16398      5F4D414E 
 16398      4147454D 
 16398      454E545F 
 16398      45584543 
 16399              	.LASF118:
 16400 07b0 636F7069 		.ascii	"copied_status_description_key_name\000"
 16400      65645F73 
 16400      74617475 
 16400      735F6465 
 16400      73637269 
 16401              	.LASF194:
 16402 07d3 70726F70 		.ascii	"properties_set_message_id\000"
 16402      65727469 
 16402      65735F73 
 16402      65745F6D 
 16402      65737361 
 16403              	.LASF81:
 16404 07ed 4D455353 		.ascii	"MESSAGE_SENDER_HANDLE\000"
 16404      4147455F 
 16404      53454E44 
 16404      45525F48 
 16404      414E444C 
 16405              	.LASF69:
 16406 0803 4D455353 		.ascii	"MESSAGE_SEND_OK\000"
 16406      4147455F 
 16406      53454E44 
 16406      5F4F4B00 
 16407              	.LASF76:
 16408 0813 4D455353 		.ascii	"MESSAGE_SENDER_STATE_OPENING\000"
 16408      4147455F 
 16408      53454E44 
 16408      45525F53 
 16408      54415445 
 16409              	.LASF226:
 16410 0830 6D656D63 		.ascii	"memcpy\000"
 16410      707900
 16411              	.LASF60:
 16412 0837 73746174 		.ascii	"status_description_key_name\000"
 16412      75735F64 
 16412      65736372 
ARM GAS  C:\Users\Phuong\AppData\Local\Temp\ccdTtd1y.s 			page 329


 16412      69707469 
 16412      6F6E5F6B 
 16413              	.LASF209:
 16414 0853 6D657373 		.ascii	"messagesender_open\000"
 16414      61676573 
 16414      656E6465 
 16414      725F6F70 
 16414      656E00
 16415              	.LASF148:
 16416 0866 74617267 		.ascii	"target\000"
 16416      657400
 16417              	.LASF67:
 16418 086d 4C494E4B 		.ascii	"LINK_INSTANCE_TAG\000"
 16418      5F494E53 
 16418      54414E43 
 16418      455F5441 
 16418      4700
 16419              	.LASF156:
 16420 087f 6F706572 		.ascii	"operation\000"
 16420      6174696F 
 16420      6E00
 16421              	.LASF169:
 16422 0889 73656E64 		.ascii	"sender_suffix\000"
 16422      65725F73 
 16422      75666669 
 16422      7800
 16423              	.LASF47:
 16424 0897 414D5150 		.ascii	"AMQP_MANAGEMENT_HANDLE\000"
 16424      5F4D414E 
 16424      4147454D 
 16424      454E545F 
 16424      48414E44 
 16425              	.LASF217:
 16426 08ae 616D7170 		.ascii	"amqpvalue_create_map\000"
 16426      76616C75 
 16426      655F6372 
 16426      65617465 
 16426      5F6D6170 
 16427              	.LASF77:
 16428 08c3 4D455353 		.ascii	"MESSAGE_SENDER_STATE_OPEN\000"
 16428      4147455F 
 16428      53454E44 
 16428      45525F53 
 16428      54415445 
 16429              	.LASF115:
 16430 08dd 636F7069 		.ascii	"copied_status_code_key_name\000"
 16430      65645F73 
 16430      74617475 
 16430      735F636F 
 16430      64655F6B 
 16431              	.LASF111:
 16432 08f9 6F6E5F6D 		.ascii	"on_message_receiver_state_changed\000"
 16432      65737361 
 16432      67655F72 
 16432      65636569 
 16432      7665725F 
 16433              	.LASF20:
ARM GAS  C:\Users\Phuong\AppData\Local\Temp\ccdTtd1y.s 			page 330


 16434 091b 4C495354 		.ascii	"LIST_ITEM_INSTANCE_TAG\000"
 16434      5F495445 
 16434      4D5F494E 
 16434      5354414E 
 16434      43455F54 
 16435              	.LASF202:
 16436 0932 6D657373 		.ascii	"messagesender_destroy\000"
 16436      61676573 
 16436      656E6465 
 16436      725F6465 
 16436      7374726F 
 16437              	.LASF103:
 16438 0948 414D5150 		.ascii	"AMQP_MANAGEMENT_STATE_OPEN\000"
 16438      5F4D414E 
 16438      4147454D 
 16438      454E545F 
 16438      53544154 
 16439              	.LASF168:
 16440 0963 6F766572 		.ascii	"override_status_description_key_name\000"
 16440      72696465 
 16440      5F737461 
 16440      7475735F 
 16440      64657363 
 16441              	.LASF147:
 16442 0988 736F7572 		.ascii	"source\000"
 16442      636500
 16443              	.LASF13:
 16444 098f 73697A65 		.ascii	"sizetype\000"
 16444      74797065 
 16444      00
 16445              	.LASF32:
 16446 0998 50524F50 		.ascii	"PROPERTIES_INSTANCE_TAG\000"
 16446      45525449 
 16446      45535F49 
 16446      4E535441 
 16446      4E43455F 
 16447              	.LASF99:
 16448 09b0 414D5150 		.ascii	"AMQP_MANAGEMENT_STATE_TAG\000"
 16448      5F4D414E 
 16448      4147454D 
 16448      454E545F 
 16448      53544154 
 16449              	.LASF172:
 16450 09ca 6D616C6C 		.ascii	"mallocAndStrcpy_s\000"
 16450      6F63416E 
 16450      64537472 
 16450      6370795F 
 16450      7300
 16451              	.LASF155:
 16452 09dc 616D7170 		.ascii	"amqp_management_execute_operation_async\000"
 16452      5F6D616E 
 16452      6167656D 
 16452      656E745F 
 16452      65786563 
 16453              	.LASF27:
 16454 0a04 414D5150 		.ascii	"AMQP_VALUE\000"
 16454      5F56414C 
ARM GAS  C:\Users\Phuong\AppData\Local\Temp\ccdTtd1y.s 			page 331


 16454      554500
 16455              	.LASF210:
 16456 0a0f 6D657373 		.ascii	"messagereceiver_close\000"
 16456      61676572 
 16456      65636569 
 16456      7665725F 
 16456      636C6F73 
 16457              	.LASF31:
 16458 0a25 50524F50 		.ascii	"PROPERTIES_HANDLE\000"
 16458      45525449 
 16458      45535F48 
 16458      414E444C 
 16458      4500
 16459              	.LASF181:
 16460 0a37 6D657373 		.ascii	"messaging_delivery_rejected\000"
 16460      6167696E 
 16460      675F6465 
 16460      6C697665 
 16460      72795F72 
 16461              	.LASF110:
 16462 0a53 616D7170 		.ascii	"amqp_management_instance\000"
 16462      5F6D616E 
 16462      6167656D 
 16462      656E745F 
 16462      696E7374 
 16463              	.LASF100:
 16464 0a6c 414D5150 		.ascii	"AMQP_MANAGEMENT_STATE_IDLE\000"
 16464      5F4D414E 
 16464      4147454D 
 16464      454E545F 
 16464      53544154 
 16465              	.LASF105:
 16466 0a87 414D5150 		.ascii	"AMQP_MANAGEMENT_STATE\000"
 16466      5F4D414E 
 16466      4147454D 
 16466      454E545F 
 16466      53544154 
 16467              	.LASF54:
 16468 0a9d 6F6E5F61 		.ascii	"on_amqp_management_open_complete\000"
 16468      6D71705F 
 16468      6D616E61 
 16468      67656D65 
 16468      6E745F6F 
 16469              	.LASF151:
 16470 0abe 72656365 		.ascii	"receiver_link_name\000"
 16470      69766572 
 16470      5F6C696E 
 16470      6B5F6E61 
 16470      6D6500
 16471              	.LASF125:
 16472 0ad1 6D657373 		.ascii	"message\000"
 16472      61676500 
 16473              	.LASF215:
 16474 0ad9 6D657373 		.ascii	"message_create\000"
 16474      6167655F 
 16474      63726561 
 16474      746500
ARM GAS  C:\Users\Phuong\AppData\Local\Temp\ccdTtd1y.s 			page 332


 16475              	.LASF72:
 16476 0ae8 4D455353 		.ascii	"MESSAGE_SEND_CANCELLED\000"
 16476      4147455F 
 16476      53454E44 
 16476      5F43414E 
 16476      43454C4C 
 16477              	.LASF138:
 16478 0aff 6F706572 		.ascii	"operation_message\000"
 16478      6174696F 
 16478      6E5F6D65 
 16478      73736167 
 16478      6500
 16479              	.LASF145:
 16480 0b11 73657373 		.ascii	"session\000"
 16480      696F6E00 
 16481              	.LASF180:
 16482 0b19 73696E67 		.ascii	"singlylinkedlist_get_head_item\000"
 16482      6C796C69 
 16482      6E6B6564 
 16482      6C697374 
 16482      5F676574 
 16483              	.LASF22:
 16484 0b38 415A5F4C 		.ascii	"AZ_LOG_ERROR\000"
 16484      4F475F45 
 16484      52524F52 
 16484      00
 16485              	.LASF12:
 16486 0b45 5F5F7569 		.ascii	"__uint64_t\000"
 16486      6E743634 
 16486      5F7400
 16487              	.LASF25:
 16488 0b50 4C4F475F 		.ascii	"LOG_CATEGORY\000"
 16488      43415445 
 16488      474F5259 
 16488      00
 16489              	.LASF206:
 16490 0b5d 73696E67 		.ascii	"singlylinkedlist_create\000"
 16490      6C796C69 
 16490      6E6B6564 
 16490      6C697374 
 16490      5F637265 
 16491              	.LASF51:
 16492 0b75 6D657373 		.ascii	"message_receiver\000"
 16492      6167655F 
 16492      72656365 
 16492      69766572 
 16492      00
 16493              	.LASF225:
 16494 0b86 616C6C5F 		.ascii	"all_ok\000"
 16494      6F6B00
 16495              	.LASF108:
 16496 0b8d 6E65775F 		.ascii	"new_state\000"
 16496      73746174 
 16496      6500
 16497              	.LASF56:
 16498 0b97 6F6E5F61 		.ascii	"on_amqp_management_error\000"
 16498      6D71705F 
ARM GAS  C:\Users\Phuong\AppData\Local\Temp\ccdTtd1y.s 			page 333


 16498      6D616E61 
 16498      67656D65 
 16498      6E745F65 
 16499              	.LASF21:
 16500 0bb0 5F426F6F 		.ascii	"_Bool\000"
 16500      6C00
 16501              	.LASF15:
 16502 0bb6 696E7433 		.ascii	"int32_t\000"
 16502      325F7400 
 16503              	.LASF5:
 16504 0bbe 756E7369 		.ascii	"unsigned char\000"
 16504      676E6564 
 16504      20636861 
 16504      7200
 16505              	.LASF86:
 16506 0bcc 4D455353 		.ascii	"MESSAGE_RECEIVER_STATE_OPEN\000"
 16506      4147455F 
 16506      52454345 
 16506      49564552 
 16506      5F535441 
 16507              	.LASF130:
 16508 0be8 64657363 		.ascii	"desc_value\000"
 16508      5F76616C 
 16508      756500
 16509              	.LASF196:
 16510 0bf3 70726F70 		.ascii	"properties_create\000"
 16510      65727469 
 16510      65735F63 
 16510      72656174 
 16510      6500
 16511              	.LASF190:
 16512 0c05 6D657373 		.ascii	"message_get_properties\000"
 16512      6167655F 
 16512      6765745F 
 16512      70726F70 
 16512      65727469 
 16513              	.LASF187:
 16514 0c1c 616D7170 		.ascii	"amqpvalue_get_ulong\000"
 16514      76616C75 
 16514      655F6765 
 16514      745F756C 
 16514      6F6E6700 
 16515              	.LASF6:
 16516 0c30 73686F72 		.ascii	"short int\000"
 16516      7420696E 
 16516      7400
 16517              	.LASF50:
 16518 0c3a 6D657373 		.ascii	"message_sender\000"
 16518      6167655F 
 16518      73656E64 
 16518      657200
 16519              	.LASF189:
 16520 0c49 70726F70 		.ascii	"properties_destroy\000"
 16520      65727469 
 16520      65735F64 
 16520      65737472 
 16520      6F7900
ARM GAS  C:\Users\Phuong\AppData\Local\Temp\ccdTtd1y.s 			page 334


 16521              	.LASF218:
 16522 0c5c 6D657373 		.ascii	"message_set_application_properties\000"
 16522      6167655F 
 16522      7365745F 
 16522      6170706C 
 16522      69636174 
 16523              	.LASF45:
 16524 0c7f 414D5150 		.ascii	"AMQP_MANAGEMENT_OPEN_CANCELLED\000"
 16524      5F4D414E 
 16524      4147454D 
 16524      454E545F 
 16524      4F50454E 
 16525              	.LASF104:
 16526 0c9e 414D5150 		.ascii	"AMQP_MANAGEMENT_STATE_ERROR\000"
 16526      5F4D414E 
 16526      4147454D 
 16526      454E545F 
 16526      53544154 
 16527              	.LASF113:
 16528 0cba 5F5F6675 		.ascii	"__func__\000"
 16528      6E635F5F 
 16528      00
 16529              	.LASF79:
 16530 0cc3 4D455353 		.ascii	"MESSAGE_SENDER_STATE_ERROR\000"
 16530      4147455F 
 16530      53454E44 
 16530      45525F53 
 16530      54415445 
 16531              	.LASF101:
 16532 0cde 414D5150 		.ascii	"AMQP_MANAGEMENT_STATE_OPENING\000"
 16532      5F4D414E 
 16532      4147454D 
 16532      454E545F 
 16532      53544154 
 16533              	.LASF58:
 16534 0cfc 616D7170 		.ascii	"amqp_management_state\000"
 16534      5F6D616E 
 16534      6167656D 
 16534      656E745F 
 16534      73746174 
 16535              	.LASF140:
 16536 0d12 6164645F 		.ascii	"add_string_key_value_pair_to_map\000"
 16536      73747269 
 16536      6E675F6B 
 16536      65795F76 
 16536      616C7565 
 16537              	.LASF84:
 16538 0d33 4D455353 		.ascii	"MESSAGE_RECEIVER_STATE_IDLE\000"
 16538      4147455F 
 16538      52454345 
 16538      49564552 
 16538      5F535441 
 16539              	.LASF85:
 16540 0d4f 4D455353 		.ascii	"MESSAGE_RECEIVER_STATE_OPENING\000"
 16540      4147455F 
 16540      52454345 
 16540      49564552 
ARM GAS  C:\Users\Phuong\AppData\Local\Temp\ccdTtd1y.s 			page 335


 16540      5F535441 
 16541              	.LASF73:
 16542 0d6e 4D455353 		.ascii	"MESSAGE_SEND_RESULT\000"
 16542      4147455F 
 16542      53454E44 
 16542      5F524553 
 16542      554C5400 
 16543              	.LASF127:
 16544 0d82 72657370 		.ascii	"response_properties\000"
 16544      6F6E7365 
 16544      5F70726F 
 16544      70657274 
 16544      69657300 
 16545              	.LASF144:
 16546 0d96 70726F70 		.ascii	"properties\000"
 16546      65727469 
 16546      657300
 16547              	.LASF117:
 16548 0da1 696E7465 		.ascii	"internal_set_status_description_key_name\000"
 16548      726E616C 
 16548      5F736574 
 16548      5F737461 
 16548      7475735F 
 16549              	.LASF65:
 16550 0dca 4F4E5F41 		.ascii	"ON_AMQP_MANAGEMENT_EXECUTE_OPERATION_COMPLETE\000"
 16550      4D51505F 
 16550      4D414E41 
 16550      47454D45 
 16550      4E545F45 
 16551              	.LASF214:
 16552 0df8 6D657373 		.ascii	"messagesender_send_async\000"
 16552      61676573 
 16552      656E6465 
 16552      725F7365 
 16552      6E645F61 
 16553              	.LASF55:
 16554 0e11 6F6E5F61 		.ascii	"on_amqp_management_open_complete_context\000"
 16554      6D71705F 
 16554      6D616E61 
 16554      67656D65 
 16554      6E745F6F 
 16555              	.LASF120:
 16556 0e3a 73656E64 		.ascii	"send_result\000"
 16556      5F726573 
 16556      756C7400 
 16557              	.LASF222:
 16558 0e46 474E5520 		.ascii	"GNU C11 5.4.1 20160609 (release) [ARM/embedded-5-br"
 16558      43313120 
 16558      352E342E 
 16558      31203230 
 16558      31363036 
 16559 0e79 616E6368 		.ascii	"anch revision 237715] -mcpu=cortex-m0plus -mthumb -"
 16559      20726576 
 16559      6973696F 
 16559      6E203233 
 16559      37373135 
 16560 0eac 67202D4F 		.ascii	"g -Og -ffunction-sections -ffat-lto-objects\000"
ARM GAS  C:\Users\Phuong\AppData\Local\Temp\ccdTtd1y.s 			page 336


 16560      67202D66 
 16560      66756E63 
 16560      74696F6E 
 16560      2D736563 
 16561              	.LASF49:
 16562 0ed8 72656365 		.ascii	"receiver_link\000"
 16562      69766572 
 16562      5F6C696E 
 16562      6B00
 16563              	.LASF3:
 16564 0ee6 6C6F6E67 		.ascii	"long double\000"
 16564      20646F75 
 16564      626C6500 
 16565              	.LASF199:
 16566 0ef2 6D657373 		.ascii	"messagesender_create\000"
 16566      61676573 
 16566      656E6465 
 16566      725F6372 
 16566      65617465 
 16567              	.LASF220:
 16568 0f07 6D657373 		.ascii	"messagesender_set_trace\000"
 16568      61676573 
 16568      656E6465 
 16568      725F7365 
 16568      745F7472 
 16569              	.LASF14:
 16570 0f1f 63686172 		.ascii	"char\000"
 16570      00
 16571              	.LASF200:
 16572 0f24 6D657373 		.ascii	"messagereceiver_create\000"
 16572      61676572 
 16572      65636569 
 16572      7665725F 
 16572      63726561 
 16573              	.LASF122:
 16574 0f3b 70656E64 		.ascii	"pending_operation_list_item_handle\000"
 16574      696E675F 
 16574      6F706572 
 16574      6174696F 
 16574      6E5F6C69 
 16575              	.LASF112:
 16576 0f5e 6F6E5F6D 		.ascii	"on_message_sender_state_changed\000"
 16576      65737361 
 16576      67655F73 
 16576      656E6465 
 16576      725F7374 
 16577              	.LASF208:
 16578 0f7e 6D657373 		.ascii	"messagereceiver_open\000"
 16578      61676572 
 16578      65636569 
 16578      7665725F 
 16578      6F70656E 
 16579              	.LASF213:
 16580 0f93 73696E67 		.ascii	"singlylinkedlist_add\000"
 16580      6C796C69 
 16580      6E6B6564 
 16580      6C697374 
ARM GAS  C:\Users\Phuong\AppData\Local\Temp\ccdTtd1y.s 			page 337


 16580      5F616464 
 16581              	.LASF165:
 16582 0fa8 616D7170 		.ascii	"amqp_management_set_override_status_code_key_name\000"
 16582      5F6D616E 
 16582      6167656D 
 16582      656E745F 
 16582      7365745F 
 16583              	.LASF161:
 16584 0fda 61646465 		.ascii	"added_item\000"
 16584      645F6974 
 16584      656D00
 16585              	.LASF166:
 16586 0fe5 6F766572 		.ascii	"override_status_code_key_name\000"
 16586      72696465 
 16586      5F737461 
 16586      7475735F 
 16586      636F6465 
 16587              	.LASF143:
 16588 1003 7365745F 		.ascii	"set_message_id\000"
 16588      6D657373 
 16588      6167655F 
 16588      696400
 16589              	.LASF9:
 16590 1012 5F5F696E 		.ascii	"__int32_t\000"
 16590      7433325F 
 16590      7400
 16591              	.LASF93:
 16592 101c 4F504552 		.ascii	"OPERATION_MESSAGE_INSTANCE_TAG\000"
 16592      4154494F 
 16592      4E5F4D45 
 16592      53534147 
 16592      455F494E 
 16593              	.LASF185:
 16594 103b 616D7170 		.ascii	"amqpvalue_create_string\000"
 16594      76616C75 
 16594      655F6372 
 16594      65617465 
 16594      5F737472 
 16595              	.LASF188:
 16596 1053 616D7170 		.ascii	"amqpvalue_get_inplace_described_value\000"
 16596      76616C75 
 16596      655F6765 
 16596      745F696E 
 16596      706C6163 
 16597              	.LASF59:
 16598 1079 73746174 		.ascii	"status_code_key_name\000"
 16598      75735F63 
 16598      6F64655F 
 16598      6B65795F 
 16598      6E616D65 
 16599              	.LASF211:
 16600 108e 6D657373 		.ascii	"messagesender_close\000"
 16600      61676573 
 16600      656E6465 
 16600      725F636C 
 16600      6F736500 
 16601              	.LASF204:
ARM GAS  C:\Users\Phuong\AppData\Local\Temp\ccdTtd1y.s 			page 338


 16602 10a2 6D657373 		.ascii	"messaging_create_target\000"
 16602      6167696E 
 16602      675F6372 
 16602      65617465 
 16602      5F746172 
 16603              	.LASF192:
 16604 10ba 616D7170 		.ascii	"amqpvalue_set_map_value\000"
 16604      76616C75 
 16604      655F7365 
 16604      745F6D61 
 16604      705F7661 
 16605              	.LASF107:
 16606 10d2 636F6E74 		.ascii	"context\000"
 16606      65787400 
 16607              	.LASF46:
 16608 10da 414D5150 		.ascii	"AMQP_MANAGEMENT_OPEN_RESULT\000"
 16608      5F4D414E 
 16608      4147454D 
 16608      454E545F 
 16608      4F50454E 
 16609              	.LASF219:
 16610 10f6 6D657373 		.ascii	"message_destroy\000"
 16610      6167655F 
 16610      64657374 
 16610      726F7900 
 16611              	.LASF160:
 16612 1106 636C6F6E 		.ascii	"cloned_message\000"
 16612      65645F6D 
 16612      65737361 
 16612      676500
 16613              	.LASF150:
 16614 1115 73656E64 		.ascii	"sender_link_name\000"
 16614      65725F6C 
 16614      696E6B5F 
 16614      6E616D65 
 16614      00
 16615              	.LASF61:
 16616 1126 73656E64 		.ascii	"sender_connected\000"
 16616      65725F63 
 16616      6F6E6E65 
 16616      63746564 
 16616      00
 16617              	.LASF141:
 16618 1137 6B65795F 		.ascii	"key_value\000"
 16618      76616C75 
 16618      6500
 16619              	.LASF62:
 16620 1141 72656365 		.ascii	"receiver_connected\000"
 16620      69766572 
 16620      5F636F6E 
 16620      6E656374 
 16620      656400
 16621              	.LASF136:
 16622 1154 666F756E 		.ascii	"found\000"
 16622      6400
 16623              	.LASF57:
 16624 115a 6F6E5F61 		.ascii	"on_amqp_management_error_context\000"
ARM GAS  C:\Users\Phuong\AppData\Local\Temp\ccdTtd1y.s 			page 339


 16624      6D71705F 
 16624      6D616E61 
 16624      67656D65 
 16624      6E745F65 
 16625              	.LASF154:
 16626 117b 616D7170 		.ascii	"amqp_management_close\000"
 16626      5F6D616E 
 16626      6167656D 
 16626      656E745F 
 16626      636C6F73 
 16627              	.LASF158:
 16628 1191 6C6F6361 		.ascii	"locales\000"
 16628      6C657300 
 16629              	.LASF146:
 16630 1199 6D616E61 		.ascii	"management_node\000"
 16630      67656D65 
 16630      6E745F6E 
 16630      6F646500 
 16631              	.LASF152:
 16632 11a9 616D7170 		.ascii	"amqp_management_create\000"
 16632      5F6D616E 
 16632      6167656D 
 16632      656E745F 
 16632      63726561 
 16633              	.LASF83:
 16634 11c0 4D455353 		.ascii	"MESSAGE_RECEIVER_STATE_TAG\000"
 16634      4147455F 
 16634      52454345 
 16634      49564552 
 16634      5F535441 
 16635              	.LASF134:
 16636 11db 73746174 		.ascii	"status_description\000"
 16636      75735F64 
 16636      65736372 
 16636      69707469 
 16636      6F6E00
 16637              	.LASF78:
 16638 11ee 4D455353 		.ascii	"MESSAGE_SENDER_STATE_CLOSING\000"
 16638      4147455F 
 16638      53454E44 
 16638      45525F53 
 16638      54415445 
 16639              	.LASF205:
 16640 120b 6D657373 		.ascii	"messaging_create_source\000"
 16640      6167696E 
 16640      675F6372 
 16640      65617465 
 16640      5F736F75 
 16641              	.LASF179:
 16642 1223 616D7170 		.ascii	"amqpvalue_get_string\000"
 16642      76616C75 
 16642      655F6765 
 16642      745F7374 
 16642      72696E67 
 16643              	.LASF42:
 16644 1238 414D5150 		.ascii	"AMQP_MANAGEMENT_OPEN_RESULT_TAG\000"
 16644      5F4D414E 
ARM GAS  C:\Users\Phuong\AppData\Local\Temp\ccdTtd1y.s 			page 340


 16644      4147454D 
 16644      454E545F 
 16644      4F50454E 
 16645              	.LASF183:
 16646 1258 616D7170 		.ascii	"amqpvalue_destroy\000"
 16646      76616C75 
 16646      655F6465 
 16646      7374726F 
 16646      7900
 16647              	.LASF195:
 16648 126a 6D657373 		.ascii	"message_set_properties\000"
 16648      6167655F 
 16648      7365745F 
 16648      70726F70 
 16648      65727469 
 16649              	.LASF163:
 16650 1281 616D7170 		.ascii	"amqp_management_set_trace\000"
 16650      5F6D616E 
 16650      6167656D 
 16650      656E745F 
 16650      7365745F 
 16651              	.LASF88:
 16652 129b 4D455353 		.ascii	"MESSAGE_RECEIVER_STATE_ERROR\000"
 16652      4147455F 
 16652      52454345 
 16652      49564552 
 16652      5F535441 
 16653              	.LASF198:
 16654 12b8 6C696E6B 		.ascii	"link_create\000"
 16654      5F637265 
 16654      61746500 
 16655              	.LASF33:
 16656 12c4 4D455353 		.ascii	"MESSAGE_HANDLE\000"
 16656      4147455F 
 16656      48414E44 
 16656      4C4500
 16657              	.LASF121:
 16658 12d3 64656C69 		.ascii	"delivery_state\000"
 16658      76657279 
 16658      5F737461 
 16658      746500
 16659              	.LASF186:
 16660 12e2 70726F70 		.ascii	"properties_get_correlation_id\000"
 16660      65727469 
 16660      65735F67 
 16660      65745F63 
 16660      6F727265 
 16661              	.LASF116:
 16662 1300 696E7465 		.ascii	"internal_set_status_code_key_name\000"
 16662      726E616C 
 16662      5F736574 
 16662      5F737461 
 16662      7475735F 
 16663              	.LASF182:
 16664 1322 6D657373 		.ascii	"messaging_delivery_accepted\000"
 16664      6167696E 
 16664      675F6465 
ARM GAS  C:\Users\Phuong\AppData\Local\Temp\ccdTtd1y.s 			page 341


 16664      6C697665 
 16664      72795F61 
 16665              	.LASF176:
 16666 133e 6D657373 		.ascii	"messaging_delivery_released\000"
 16666      6167696E 
 16666      675F6465 
 16666      6C697665 
 16666      72795F72 
 16667              	.LASF91:
 16668 135a 4D455353 		.ascii	"MESSAGE_RECEIVER_INSTANCE_TAG\000"
 16668      4147455F 
 16668      52454345 
 16668      49564552 
 16668      5F494E53 
 16669              	.LASF28:
 16670 1378 414D5150 		.ascii	"AMQP_VALUE_DATA_TAG\000"
 16670      5F56414C 
 16670      55455F44 
 16670      4154415F 
 16670      54414700 
 16671              	.LASF124:
 16672 138c 6F6E5F6D 		.ascii	"on_message_received\000"
 16672      65737361 
 16672      67655F72 
 16672      65636569 
 16672      76656400 
 16673              	.LASF212:
 16674 13a0 6D657373 		.ascii	"messagereceiver_destroy\000"
 16674      61676572 
 16674      65636569 
 16674      7665725F 
 16674      64657374 
 16675              	.LASF66:
 16676 13b8 4C494E4B 		.ascii	"LINK_HANDLE\000"
 16676      5F48414E 
 16676      444C4500 
 16677              	.LASF35:
 16678 13c4 4C4F475F 		.ascii	"LOG_CATEGORY_TAG\000"
 16678      43415445 
 16678      474F5259 
 16678      5F544147 
 16678      00
 16679              	.LASF191:
 16680 13d5 6D657373 		.ascii	"message_get_application_properties\000"
 16680      6167655F 
 16680      6765745F 
 16680      6170706C 
 16680      69636174 
 16681              	.LASF114:
 16682 13f8 72657375 		.ascii	"result\000"
 16682      6C7400
 16683              	.LASF64:
 16684 13ff 4F4E5F41 		.ascii	"ON_AMQP_MANAGEMENT_ERROR\000"
 16684      4D51505F 
 16684      4D414E41 
 16684      47454D45 
 16684      4E545F45 
ARM GAS  C:\Users\Phuong\AppData\Local\Temp\ccdTtd1y.s 			page 342


 16685              	.LASF36:
 16686 1418 414D5150 		.ascii	"AMQP_MANAGEMENT_EXECUTE_OPERATION_RESULT_TAG\000"
 16686      5F4D414E 
 16686      4147454D 
 16686      454E545F 
 16686      45584543 
 16687              	.LASF23:
 16688 1445 415A5F4C 		.ascii	"AZ_LOG_INFO\000"
 16688      4F475F49 
 16688      4E464F00 
 16689              		.ident	"GCC: (GNU Tools for ARM Embedded Processors) 5.4.1 20160609 (release) [ARM/embedded-5-bran
