ARM GAS  C:\Users\Phuong\AppData\Local\Temp\ccdTtd1y.s 			page 1


   1              		.syntax unified
   2              		.cpu cortex-m0plus
   3              		.fpu softvfp
   4              		.eabi_attribute 20, 1
   5              		.eabi_attribute 21, 1
   6              		.eabi_attribute 23, 3
   7              		.eabi_attribute 24, 1
   8              		.eabi_attribute 25, 1
   9              		.eabi_attribute 26, 1
  10              		.eabi_attribute 30, 1
  11              		.eabi_attribute 34, 0
  12              		.eabi_attribute 18, 4
  13              		.thumb
  14              		.syntax unified
  15              		.file	"amqp_management.c"
  16              		.text
  17              	.Ltext0:
  18              		.cfi_sections	.debug_frame
  19              		.section	.text.on_message_receiver_state_changed,"ax",%progbits
  20              		.align	2
  21              		.code	16
  22              		.thumb_func
  23              		.type	on_message_receiver_state_changed, %function
  24              	on_message_receiver_state_changed:
  25              	.LFB4:
  26              		.file 1 "Source\\azure_iot_sdk\\uamqp\\src\\amqp_management.c"
   1:Source\azure_iot_sdk\uamqp\src/amqp_management.c **** // Copyright (c) Microsoft. All rights reserved.
   2:Source\azure_iot_sdk\uamqp\src/amqp_management.c **** // Licensed under the MIT license. See LICENSE file in the project root for full license informatio
   3:Source\azure_iot_sdk\uamqp\src/amqp_management.c **** 
   4:Source\azure_iot_sdk\uamqp\src/amqp_management.c **** #include <stdlib.h>
   5:Source\azure_iot_sdk\uamqp\src/amqp_management.c **** #include <stdio.h>
   6:Source\azure_iot_sdk\uamqp\src/amqp_management.c **** #include <stdbool.h>
   7:Source\azure_iot_sdk\uamqp\src/amqp_management.c **** #include <string.h>
   8:Source\azure_iot_sdk\uamqp\src/amqp_management.c **** #include "azure_c_shared_utility/optimize_size.h"
   9:Source\azure_iot_sdk\uamqp\src/amqp_management.c **** #include "azure_c_shared_utility/gballoc.h"
  10:Source\azure_iot_sdk\uamqp\src/amqp_management.c **** #include "azure_c_shared_utility/singlylinkedlist.h"
  11:Source\azure_iot_sdk\uamqp\src/amqp_management.c **** #include "azure_c_shared_utility/xlogging.h"
  12:Source\azure_iot_sdk\uamqp\src/amqp_management.c **** #include "azure_c_shared_utility/crt_abstractions.h"
  13:Source\azure_iot_sdk\uamqp\src/amqp_management.c **** #include "azure_uamqp_c/amqp_management.h"
  14:Source\azure_iot_sdk\uamqp\src/amqp_management.c **** #include "azure_uamqp_c/link.h"
  15:Source\azure_iot_sdk\uamqp\src/amqp_management.c **** #include "azure_uamqp_c/message_sender.h"
  16:Source\azure_iot_sdk\uamqp\src/amqp_management.c **** #include "azure_uamqp_c/message_receiver.h"
  17:Source\azure_iot_sdk\uamqp\src/amqp_management.c **** #include "azure_uamqp_c/messaging.h"
  18:Source\azure_iot_sdk\uamqp\src/amqp_management.c **** #include "azure_uamqp_c/amqp_definitions.h"
  19:Source\azure_iot_sdk\uamqp\src/amqp_management.c **** 
  20:Source\azure_iot_sdk\uamqp\src/amqp_management.c **** static const char sender_suffix[] = "-sender";
  21:Source\azure_iot_sdk\uamqp\src/amqp_management.c **** static const char receiver_suffix[] = "-receiver";
  22:Source\azure_iot_sdk\uamqp\src/amqp_management.c **** 
  23:Source\azure_iot_sdk\uamqp\src/amqp_management.c **** #define COUNT_CHARS(str) (sizeof(str) / sizeof((str)[0]) - 1)
  24:Source\azure_iot_sdk\uamqp\src/amqp_management.c **** 
  25:Source\azure_iot_sdk\uamqp\src/amqp_management.c **** typedef struct OPERATION_MESSAGE_INSTANCE_TAG
  26:Source\azure_iot_sdk\uamqp\src/amqp_management.c **** {
  27:Source\azure_iot_sdk\uamqp\src/amqp_management.c ****     ON_AMQP_MANAGEMENT_EXECUTE_OPERATION_COMPLETE on_execute_operation_complete;
  28:Source\azure_iot_sdk\uamqp\src/amqp_management.c ****     void* callback_context;
  29:Source\azure_iot_sdk\uamqp\src/amqp_management.c ****     uint64_t message_id;
  30:Source\azure_iot_sdk\uamqp\src/amqp_management.c ****     AMQP_MANAGEMENT_HANDLE amqp_management;
  31:Source\azure_iot_sdk\uamqp\src/amqp_management.c **** } OPERATION_MESSAGE_INSTANCE;
ARM GAS  C:\Users\Phuong\AppData\Local\Temp\ccdTtd1y.s 			page 2


  32:Source\azure_iot_sdk\uamqp\src/amqp_management.c **** 
  33:Source\azure_iot_sdk\uamqp\src/amqp_management.c **** typedef enum AMQP_MANAGEMENT_STATE_TAG
  34:Source\azure_iot_sdk\uamqp\src/amqp_management.c **** {
  35:Source\azure_iot_sdk\uamqp\src/amqp_management.c ****     AMQP_MANAGEMENT_STATE_IDLE,
  36:Source\azure_iot_sdk\uamqp\src/amqp_management.c ****     AMQP_MANAGEMENT_STATE_OPENING,
  37:Source\azure_iot_sdk\uamqp\src/amqp_management.c ****     AMQP_MANAGEMENT_STATE_CLOSING,
  38:Source\azure_iot_sdk\uamqp\src/amqp_management.c ****     AMQP_MANAGEMENT_STATE_OPEN,
  39:Source\azure_iot_sdk\uamqp\src/amqp_management.c ****     AMQP_MANAGEMENT_STATE_ERROR
  40:Source\azure_iot_sdk\uamqp\src/amqp_management.c **** } AMQP_MANAGEMENT_STATE;
  41:Source\azure_iot_sdk\uamqp\src/amqp_management.c **** 
  42:Source\azure_iot_sdk\uamqp\src/amqp_management.c **** typedef struct AMQP_MANAGEMENT_INSTANCE_TAG
  43:Source\azure_iot_sdk\uamqp\src/amqp_management.c **** {
  44:Source\azure_iot_sdk\uamqp\src/amqp_management.c ****     LINK_HANDLE sender_link;
  45:Source\azure_iot_sdk\uamqp\src/amqp_management.c ****     LINK_HANDLE receiver_link;
  46:Source\azure_iot_sdk\uamqp\src/amqp_management.c ****     MESSAGE_SENDER_HANDLE message_sender;
  47:Source\azure_iot_sdk\uamqp\src/amqp_management.c ****     MESSAGE_RECEIVER_HANDLE message_receiver;
  48:Source\azure_iot_sdk\uamqp\src/amqp_management.c ****     SINGLYLINKEDLIST_HANDLE pending_operations;
  49:Source\azure_iot_sdk\uamqp\src/amqp_management.c ****     uint64_t next_message_id;
  50:Source\azure_iot_sdk\uamqp\src/amqp_management.c ****     ON_AMQP_MANAGEMENT_OPEN_COMPLETE on_amqp_management_open_complete;
  51:Source\azure_iot_sdk\uamqp\src/amqp_management.c ****     void* on_amqp_management_open_complete_context;
  52:Source\azure_iot_sdk\uamqp\src/amqp_management.c ****     ON_AMQP_MANAGEMENT_ERROR on_amqp_management_error;
  53:Source\azure_iot_sdk\uamqp\src/amqp_management.c ****     void* on_amqp_management_error_context;
  54:Source\azure_iot_sdk\uamqp\src/amqp_management.c ****     AMQP_MANAGEMENT_STATE amqp_management_state;
  55:Source\azure_iot_sdk\uamqp\src/amqp_management.c ****     char* status_code_key_name;
  56:Source\azure_iot_sdk\uamqp\src/amqp_management.c ****     char* status_description_key_name;
  57:Source\azure_iot_sdk\uamqp\src/amqp_management.c ****     unsigned int sender_connected : 1;
  58:Source\azure_iot_sdk\uamqp\src/amqp_management.c ****     unsigned int receiver_connected : 1;
  59:Source\azure_iot_sdk\uamqp\src/amqp_management.c **** } AMQP_MANAGEMENT_INSTANCE;
  60:Source\azure_iot_sdk\uamqp\src/amqp_management.c **** 
  61:Source\azure_iot_sdk\uamqp\src/amqp_management.c **** static AMQP_VALUE on_message_received(const void* context, MESSAGE_HANDLE message)
  62:Source\azure_iot_sdk\uamqp\src/amqp_management.c **** {
  63:Source\azure_iot_sdk\uamqp\src/amqp_management.c ****     AMQP_VALUE result;
  64:Source\azure_iot_sdk\uamqp\src/amqp_management.c **** 
  65:Source\azure_iot_sdk\uamqp\src/amqp_management.c ****     if (context == NULL)
  66:Source\azure_iot_sdk\uamqp\src/amqp_management.c ****     {
  67:Source\azure_iot_sdk\uamqp\src/amqp_management.c ****         /* Codes_SRS_AMQP_MANAGEMENT_01_108: [ When `on_message_received` is called with a NULL con
  68:Source\azure_iot_sdk\uamqp\src/amqp_management.c ****         LogError("NULL context in on_message_received");
  69:Source\azure_iot_sdk\uamqp\src/amqp_management.c ****         result = NULL;
  70:Source\azure_iot_sdk\uamqp\src/amqp_management.c ****     }
  71:Source\azure_iot_sdk\uamqp\src/amqp_management.c ****     else
  72:Source\azure_iot_sdk\uamqp\src/amqp_management.c ****     {
  73:Source\azure_iot_sdk\uamqp\src/amqp_management.c ****         AMQP_MANAGEMENT_HANDLE amqp_management = (AMQP_MANAGEMENT_HANDLE)context;
  74:Source\azure_iot_sdk\uamqp\src/amqp_management.c ****         AMQP_VALUE application_properties;
  75:Source\azure_iot_sdk\uamqp\src/amqp_management.c **** 
  76:Source\azure_iot_sdk\uamqp\src/amqp_management.c ****         /* Codes_SRS_AMQP_MANAGEMENT_01_109: [ `on_message_received` shall obtain the application p
  77:Source\azure_iot_sdk\uamqp\src/amqp_management.c ****         if (message_get_application_properties(message, &application_properties) != 0)
  78:Source\azure_iot_sdk\uamqp\src/amqp_management.c ****         {
  79:Source\azure_iot_sdk\uamqp\src/amqp_management.c ****             /* Codes_SRS_AMQP_MANAGEMENT_01_113: [ If obtaining the application properties or messa
  80:Source\azure_iot_sdk\uamqp\src/amqp_management.c ****             LogError("Could not retrieve application properties");
  81:Source\azure_iot_sdk\uamqp\src/amqp_management.c ****             amqp_management->on_amqp_management_error(amqp_management->on_amqp_management_error_con
  82:Source\azure_iot_sdk\uamqp\src/amqp_management.c ****             /* Codes_SRS_AMQP_MANAGEMENT_01_136: [ When `on_message_received` fails due to errors i
  83:Source\azure_iot_sdk\uamqp\src/amqp_management.c ****             result = messaging_delivery_rejected("amqp:internal-error", "Could not get application 
  84:Source\azure_iot_sdk\uamqp\src/amqp_management.c ****         }
  85:Source\azure_iot_sdk\uamqp\src/amqp_management.c ****         else
  86:Source\azure_iot_sdk\uamqp\src/amqp_management.c ****         {
  87:Source\azure_iot_sdk\uamqp\src/amqp_management.c ****             PROPERTIES_HANDLE response_properties;
  88:Source\azure_iot_sdk\uamqp\src/amqp_management.c **** 
ARM GAS  C:\Users\Phuong\AppData\Local\Temp\ccdTtd1y.s 			page 3


  89:Source\azure_iot_sdk\uamqp\src/amqp_management.c ****             /* Codes_SRS_AMQP_MANAGEMENT_01_110: [ `on_message_received` shall obtain the message p
  90:Source\azure_iot_sdk\uamqp\src/amqp_management.c ****             if (message_get_properties(message, &response_properties) != 0)
  91:Source\azure_iot_sdk\uamqp\src/amqp_management.c ****             {
  92:Source\azure_iot_sdk\uamqp\src/amqp_management.c ****                 /* Codes_SRS_AMQP_MANAGEMENT_01_113: [ If obtaining the application properties or m
  93:Source\azure_iot_sdk\uamqp\src/amqp_management.c ****                 LogError("Could not retrieve message properties");
  94:Source\azure_iot_sdk\uamqp\src/amqp_management.c ****                 amqp_management->on_amqp_management_error(amqp_management->on_amqp_management_error
  95:Source\azure_iot_sdk\uamqp\src/amqp_management.c ****                 /* Codes_SRS_AMQP_MANAGEMENT_01_136: [ When `on_message_received` fails due to erro
  96:Source\azure_iot_sdk\uamqp\src/amqp_management.c ****                 result = messaging_delivery_rejected("amqp:internal-error", "Could not get message 
  97:Source\azure_iot_sdk\uamqp\src/amqp_management.c ****             }
  98:Source\azure_iot_sdk\uamqp\src/amqp_management.c ****             else
  99:Source\azure_iot_sdk\uamqp\src/amqp_management.c ****             {
 100:Source\azure_iot_sdk\uamqp\src/amqp_management.c ****                 AMQP_VALUE key;
 101:Source\azure_iot_sdk\uamqp\src/amqp_management.c ****                 AMQP_VALUE value;
 102:Source\azure_iot_sdk\uamqp\src/amqp_management.c ****                 AMQP_VALUE desc_key;
 103:Source\azure_iot_sdk\uamqp\src/amqp_management.c ****                 AMQP_VALUE desc_value;
 104:Source\azure_iot_sdk\uamqp\src/amqp_management.c ****                 AMQP_VALUE map;
 105:Source\azure_iot_sdk\uamqp\src/amqp_management.c ****                 AMQP_VALUE correlation_id_value;
 106:Source\azure_iot_sdk\uamqp\src/amqp_management.c ****                 uint64_t correlation_id;
 107:Source\azure_iot_sdk\uamqp\src/amqp_management.c **** 
 108:Source\azure_iot_sdk\uamqp\src/amqp_management.c ****                 /* Codes_SRS_AMQP_MANAGEMENT_01_111: [ `on_message_received` shall obtain the corre
 109:Source\azure_iot_sdk\uamqp\src/amqp_management.c ****                 if (properties_get_correlation_id(response_properties, &correlation_id_value) != 0)
 110:Source\azure_iot_sdk\uamqp\src/amqp_management.c ****                 {
 111:Source\azure_iot_sdk\uamqp\src/amqp_management.c ****                     /* Codes_SRS_AMQP_MANAGEMENT_01_114: [ If obtaining the correlation Id fails, a
 112:Source\azure_iot_sdk\uamqp\src/amqp_management.c ****                     LogError("Could not retrieve correlation Id");
 113:Source\azure_iot_sdk\uamqp\src/amqp_management.c ****                     amqp_management->on_amqp_management_error(amqp_management->on_amqp_management_e
 114:Source\azure_iot_sdk\uamqp\src/amqp_management.c ****                     /* Codes_SRS_AMQP_MANAGEMENT_01_136: [ When `on_message_received` fails due to 
 115:Source\azure_iot_sdk\uamqp\src/amqp_management.c ****                     result = messaging_delivery_rejected("amqp:internal-error", "Could not get corr
 116:Source\azure_iot_sdk\uamqp\src/amqp_management.c ****                 }
 117:Source\azure_iot_sdk\uamqp\src/amqp_management.c ****                 else
 118:Source\azure_iot_sdk\uamqp\src/amqp_management.c ****                 {
 119:Source\azure_iot_sdk\uamqp\src/amqp_management.c ****                     if (amqpvalue_get_ulong(correlation_id_value, &correlation_id) != 0)
 120:Source\azure_iot_sdk\uamqp\src/amqp_management.c ****                     {
 121:Source\azure_iot_sdk\uamqp\src/amqp_management.c ****                         /* Codes_SRS_AMQP_MANAGEMENT_01_132: [ If any functions manipulating AMQP v
 122:Source\azure_iot_sdk\uamqp\src/amqp_management.c ****                         LogError("Could not retrieve correlation Id ulong value");
 123:Source\azure_iot_sdk\uamqp\src/amqp_management.c ****                         amqp_management->on_amqp_management_error(amqp_management->on_amqp_manageme
 124:Source\azure_iot_sdk\uamqp\src/amqp_management.c ****                         /* Codes_SRS_AMQP_MANAGEMENT_01_136: [ When `on_message_received` fails due
 125:Source\azure_iot_sdk\uamqp\src/amqp_management.c ****                         result = messaging_delivery_rejected("amqp:internal-error", "Could not get 
 126:Source\azure_iot_sdk\uamqp\src/amqp_management.c ****                     }
 127:Source\azure_iot_sdk\uamqp\src/amqp_management.c ****                     else
 128:Source\azure_iot_sdk\uamqp\src/amqp_management.c ****                     {
 129:Source\azure_iot_sdk\uamqp\src/amqp_management.c ****                         /* Codes_SRS_AMQP_MANAGEMENT_01_119: [ `on_message_received` shall obtain t
 130:Source\azure_iot_sdk\uamqp\src/amqp_management.c ****                         /* Codes_SRS_AMQP_MANAGEMENT_01_070: [ Response messages have the following
 131:Source\azure_iot_sdk\uamqp\src/amqp_management.c ****                         map = amqpvalue_get_inplace_described_value(application_properties);
 132:Source\azure_iot_sdk\uamqp\src/amqp_management.c ****                         if (map == NULL)
 133:Source\azure_iot_sdk\uamqp\src/amqp_management.c ****                         {
 134:Source\azure_iot_sdk\uamqp\src/amqp_management.c ****                             /* Codes_SRS_AMQP_MANAGEMENT_01_132: [ If any functions manipulating AM
 135:Source\azure_iot_sdk\uamqp\src/amqp_management.c ****                             LogError("Could not retrieve application property map");
 136:Source\azure_iot_sdk\uamqp\src/amqp_management.c ****                             amqp_management->on_amqp_management_error(amqp_management->on_amqp_mana
 137:Source\azure_iot_sdk\uamqp\src/amqp_management.c ****                             /* Codes_SRS_AMQP_MANAGEMENT_01_136: [ When `on_message_received` fails
 138:Source\azure_iot_sdk\uamqp\src/amqp_management.c ****                             result = messaging_delivery_rejected("amqp:internal-error", "Could not 
 139:Source\azure_iot_sdk\uamqp\src/amqp_management.c ****                         }
 140:Source\azure_iot_sdk\uamqp\src/amqp_management.c ****                         else
 141:Source\azure_iot_sdk\uamqp\src/amqp_management.c ****                         {
 142:Source\azure_iot_sdk\uamqp\src/amqp_management.c ****                             /* Codes_SRS_AMQP_MANAGEMENT_01_120: [ An AMQP value used to lookup the
 143:Source\azure_iot_sdk\uamqp\src/amqp_management.c ****                             /* Codes_SRS_AMQP_MANAGEMENT_01_071: [ statusCode integer Yes HTTP resp
 144:Source\azure_iot_sdk\uamqp\src/amqp_management.c ****                             key = amqpvalue_create_string(amqp_management->status_code_key_name);
 145:Source\azure_iot_sdk\uamqp\src/amqp_management.c ****                             if (key == NULL)
ARM GAS  C:\Users\Phuong\AppData\Local\Temp\ccdTtd1y.s 			page 4


 146:Source\azure_iot_sdk\uamqp\src/amqp_management.c ****                             {
 147:Source\azure_iot_sdk\uamqp\src/amqp_management.c ****                                 /* Codes_SRS_AMQP_MANAGEMENT_01_132: [ If any functions manipulatin
 148:Source\azure_iot_sdk\uamqp\src/amqp_management.c ****                                 LogError("Could not create status-code amqp value");
 149:Source\azure_iot_sdk\uamqp\src/amqp_management.c ****                                 amqp_management->on_amqp_management_error(amqp_management->on_amqp_
 150:Source\azure_iot_sdk\uamqp\src/amqp_management.c ****                                 /* Codes_SRS_AMQP_MANAGEMENT_01_135: [ When an error occurs in crea
 151:Source\azure_iot_sdk\uamqp\src/amqp_management.c ****                                 result = messaging_delivery_released();
 152:Source\azure_iot_sdk\uamqp\src/amqp_management.c ****                             }
 153:Source\azure_iot_sdk\uamqp\src/amqp_management.c ****                             else
 154:Source\azure_iot_sdk\uamqp\src/amqp_management.c ****                             {
 155:Source\azure_iot_sdk\uamqp\src/amqp_management.c ****                                 /* Codes_SRS_AMQP_MANAGEMENT_01_121: [ The status code shall be loo
 156:Source\azure_iot_sdk\uamqp\src/amqp_management.c ****                                 value = amqpvalue_get_map_value(map, key);
 157:Source\azure_iot_sdk\uamqp\src/amqp_management.c ****                                 if (value == NULL)
 158:Source\azure_iot_sdk\uamqp\src/amqp_management.c ****                                 {
 159:Source\azure_iot_sdk\uamqp\src/amqp_management.c ****                                     /* Codes_SRS_AMQP_MANAGEMENT_01_122: [ If status code is not fo
 160:Source\azure_iot_sdk\uamqp\src/amqp_management.c ****                                     LogError("Could not retrieve status code from application prope
 161:Source\azure_iot_sdk\uamqp\src/amqp_management.c ****                                     amqp_management->on_amqp_management_error(amqp_management->on_a
 162:Source\azure_iot_sdk\uamqp\src/amqp_management.c ****                                     /* Codes_SRS_AMQP_MANAGEMENT_01_136: [ When `on_message_receive
 163:Source\azure_iot_sdk\uamqp\src/amqp_management.c ****                                     result = messaging_delivery_rejected("amqp:internal-error", "Co
 164:Source\azure_iot_sdk\uamqp\src/amqp_management.c ****                                 }
 165:Source\azure_iot_sdk\uamqp\src/amqp_management.c ****                                 else
 166:Source\azure_iot_sdk\uamqp\src/amqp_management.c ****                                 {
 167:Source\azure_iot_sdk\uamqp\src/amqp_management.c ****                                     int32_t status_code;
 168:Source\azure_iot_sdk\uamqp\src/amqp_management.c ****                                     /* Codes_SRS_AMQP_MANAGEMENT_01_133: [ The status code value sh
 169:Source\azure_iot_sdk\uamqp\src/amqp_management.c ****                                     if (amqpvalue_get_int(value, &status_code) != 0)
 170:Source\azure_iot_sdk\uamqp\src/amqp_management.c ****                                     {
 171:Source\azure_iot_sdk\uamqp\src/amqp_management.c ****                                         /* Codes_SRS_AMQP_MANAGEMENT_01_132: [ If any functions man
 172:Source\azure_iot_sdk\uamqp\src/amqp_management.c ****                                         LogError("Could not retrieve status code int value");
 173:Source\azure_iot_sdk\uamqp\src/amqp_management.c ****                                         amqp_management->on_amqp_management_error(amqp_management->
 174:Source\azure_iot_sdk\uamqp\src/amqp_management.c ****                                         /* Codes_SRS_AMQP_MANAGEMENT_01_136: [ When `on_message_rec
 175:Source\azure_iot_sdk\uamqp\src/amqp_management.c ****                                         result = messaging_delivery_rejected("amqp:internal-error",
 176:Source\azure_iot_sdk\uamqp\src/amqp_management.c ****                                     }
 177:Source\azure_iot_sdk\uamqp\src/amqp_management.c ****                                     else
 178:Source\azure_iot_sdk\uamqp\src/amqp_management.c ****                                     {
 179:Source\azure_iot_sdk\uamqp\src/amqp_management.c ****                                         /* Codes_SRS_AMQP_MANAGEMENT_01_123: [ An AMQP value used t
 180:Source\azure_iot_sdk\uamqp\src/amqp_management.c ****                                         /* Codes_SRS_AMQP_MANAGEMENT_01_072: [ statusDescription st
 181:Source\azure_iot_sdk\uamqp\src/amqp_management.c ****                                         desc_key = amqpvalue_create_string(amqp_management->status_
 182:Source\azure_iot_sdk\uamqp\src/amqp_management.c ****                                         if (desc_key == NULL)
 183:Source\azure_iot_sdk\uamqp\src/amqp_management.c ****                                         {
 184:Source\azure_iot_sdk\uamqp\src/amqp_management.c ****                                             /* Codes_SRS_AMQP_MANAGEMENT_01_132: [ If any functions
 185:Source\azure_iot_sdk\uamqp\src/amqp_management.c ****                                             LogError("Could not create status-description amqp valu
 186:Source\azure_iot_sdk\uamqp\src/amqp_management.c ****                                             amqp_management->on_amqp_management_error(amqp_manageme
 187:Source\azure_iot_sdk\uamqp\src/amqp_management.c ****                                             /* Codes_SRS_AMQP_MANAGEMENT_01_135: [ When an error oc
 188:Source\azure_iot_sdk\uamqp\src/amqp_management.c ****                                             result = messaging_delivery_released();
 189:Source\azure_iot_sdk\uamqp\src/amqp_management.c ****                                         }
 190:Source\azure_iot_sdk\uamqp\src/amqp_management.c ****                                         else
 191:Source\azure_iot_sdk\uamqp\src/amqp_management.c ****                                         {
 192:Source\azure_iot_sdk\uamqp\src/amqp_management.c ****                                             const char* status_description = NULL;
 193:Source\azure_iot_sdk\uamqp\src/amqp_management.c ****                                             LIST_ITEM_HANDLE list_item_handle;
 194:Source\azure_iot_sdk\uamqp\src/amqp_management.c ****                                             bool found = false;
 195:Source\azure_iot_sdk\uamqp\src/amqp_management.c ****                                             bool is_error = false;
 196:Source\azure_iot_sdk\uamqp\src/amqp_management.c **** 
 197:Source\azure_iot_sdk\uamqp\src/amqp_management.c ****                                             /* Codes_SRS_AMQP_MANAGEMENT_01_124: [ The status descr
 198:Source\azure_iot_sdk\uamqp\src/amqp_management.c ****                                             desc_value = amqpvalue_get_map_value(map, desc_key);
 199:Source\azure_iot_sdk\uamqp\src/amqp_management.c ****                                             if (desc_value != NULL)
 200:Source\azure_iot_sdk\uamqp\src/amqp_management.c ****                                             {
 201:Source\azure_iot_sdk\uamqp\src/amqp_management.c ****                                                 /* Codes_SRS_AMQP_MANAGEMENT_01_134: [ The status d
 202:Source\azure_iot_sdk\uamqp\src/amqp_management.c ****                                                 if (amqpvalue_get_string(desc_value, &status_descri
ARM GAS  C:\Users\Phuong\AppData\Local\Temp\ccdTtd1y.s 			page 5


 203:Source\azure_iot_sdk\uamqp\src/amqp_management.c ****                                                 {
 204:Source\azure_iot_sdk\uamqp\src/amqp_management.c ****                                                     /* Codes_SRS_AMQP_MANAGEMENT_01_125: [ If statu
 205:Source\azure_iot_sdk\uamqp\src/amqp_management.c ****                                                     status_description = NULL;
 206:Source\azure_iot_sdk\uamqp\src/amqp_management.c ****                                                 }
 207:Source\azure_iot_sdk\uamqp\src/amqp_management.c ****                                             }
 208:Source\azure_iot_sdk\uamqp\src/amqp_management.c ****                                             else
 209:Source\azure_iot_sdk\uamqp\src/amqp_management.c ****                                             {
 210:Source\azure_iot_sdk\uamqp\src/amqp_management.c ****                                                 /* Codes_SRS_AMQP_MANAGEMENT_01_125: [ If status de
 211:Source\azure_iot_sdk\uamqp\src/amqp_management.c ****                                                 status_description = NULL;
 212:Source\azure_iot_sdk\uamqp\src/amqp_management.c ****                                             }
 213:Source\azure_iot_sdk\uamqp\src/amqp_management.c **** 
 214:Source\azure_iot_sdk\uamqp\src/amqp_management.c ****                                             list_item_handle = singlylinkedlist_get_head_item(amqp_
 215:Source\azure_iot_sdk\uamqp\src/amqp_management.c ****                                             while (list_item_handle != NULL)
 216:Source\azure_iot_sdk\uamqp\src/amqp_management.c ****                                             {
 217:Source\azure_iot_sdk\uamqp\src/amqp_management.c ****                                                 /* Codes_SRS_AMQP_MANAGEMENT_01_116: [ Each pending
 218:Source\azure_iot_sdk\uamqp\src/amqp_management.c ****                                                 OPERATION_MESSAGE_INSTANCE* operation_message = (OP
 219:Source\azure_iot_sdk\uamqp\src/amqp_management.c ****                                                 if (operation_message == NULL)
 220:Source\azure_iot_sdk\uamqp\src/amqp_management.c ****                                                 {
 221:Source\azure_iot_sdk\uamqp\src/amqp_management.c ****                                                     /* Codes_SRS_AMQP_MANAGEMENT_01_117: [ If itera
 222:Source\azure_iot_sdk\uamqp\src/amqp_management.c ****                                                     LogError("Could not create status-description a
 223:Source\azure_iot_sdk\uamqp\src/amqp_management.c ****                                                     amqp_management->on_amqp_management_error(amqp_
 224:Source\azure_iot_sdk\uamqp\src/amqp_management.c ****                                                     /* Codes_SRS_AMQP_MANAGEMENT_01_135: [ When an 
 225:Source\azure_iot_sdk\uamqp\src/amqp_management.c ****                                                     result = messaging_delivery_released();
 226:Source\azure_iot_sdk\uamqp\src/amqp_management.c ****                                                     break;
 227:Source\azure_iot_sdk\uamqp\src/amqp_management.c ****                                                 }
 228:Source\azure_iot_sdk\uamqp\src/amqp_management.c ****                                                 else
 229:Source\azure_iot_sdk\uamqp\src/amqp_management.c ****                                                 {
 230:Source\azure_iot_sdk\uamqp\src/amqp_management.c ****                                                     AMQP_MANAGEMENT_EXECUTE_OPERATION_RESULT execut
 231:Source\azure_iot_sdk\uamqp\src/amqp_management.c **** 
 232:Source\azure_iot_sdk\uamqp\src/amqp_management.c ****                                                     /* Codes_SRS_AMQP_MANAGEMENT_01_112: [ `on_mess
 233:Source\azure_iot_sdk\uamqp\src/amqp_management.c ****                                                     /* Codes_SRS_AMQP_MANAGEMENT_01_068: [ The corr
 234:Source\azure_iot_sdk\uamqp\src/amqp_management.c ****                                                     /* Codes_SRS_AMQP_MANAGEMENT_01_069: [ else the
 235:Source\azure_iot_sdk\uamqp\src/amqp_management.c ****                                                     if (correlation_id == operation_message->messag
 236:Source\azure_iot_sdk\uamqp\src/amqp_management.c ****                                                     {
 237:Source\azure_iot_sdk\uamqp\src/amqp_management.c ****                                                         /* Codes_SRS_AMQP_MANAGEMENT_01_074: [ Succ
 238:Source\azure_iot_sdk\uamqp\src/amqp_management.c ****                                                         if ((status_code < 200) || (status_code > 2
 239:Source\azure_iot_sdk\uamqp\src/amqp_management.c ****                                                         {
 240:Source\azure_iot_sdk\uamqp\src/amqp_management.c ****                                                             /* Codes_SRS_AMQP_MANAGEMENT_01_128: [ 
 241:Source\azure_iot_sdk\uamqp\src/amqp_management.c ****                                                             /* Codes_SRS_AMQP_MANAGEMENT_01_075: [ 
 242:Source\azure_iot_sdk\uamqp\src/amqp_management.c ****                                                             execute_operation_result = AMQP_MANAGEM
 243:Source\azure_iot_sdk\uamqp\src/amqp_management.c ****                                                         }
 244:Source\azure_iot_sdk\uamqp\src/amqp_management.c ****                                                         else
 245:Source\azure_iot_sdk\uamqp\src/amqp_management.c ****                                                         {
 246:Source\azure_iot_sdk\uamqp\src/amqp_management.c ****                                                             /* Codes_SRS_AMQP_MANAGEMENT_01_127: [ 
 247:Source\azure_iot_sdk\uamqp\src/amqp_management.c ****                                                             execute_operation_result = AMQP_MANAGEM
 248:Source\azure_iot_sdk\uamqp\src/amqp_management.c ****                                                         }
 249:Source\azure_iot_sdk\uamqp\src/amqp_management.c **** 
 250:Source\azure_iot_sdk\uamqp\src/amqp_management.c ****                                                         /* Codes_SRS_AMQP_MANAGEMENT_01_126: [ If a
 251:Source\azure_iot_sdk\uamqp\src/amqp_management.c ****                                                         /* Codes_SRS_AMQP_MANAGEMENT_01_166: [ The 
 252:Source\azure_iot_sdk\uamqp\src/amqp_management.c ****                                                         operation_message->on_execute_operation_com
 253:Source\azure_iot_sdk\uamqp\src/amqp_management.c **** 
 254:Source\azure_iot_sdk\uamqp\src/amqp_management.c ****                                                         free(operation_message);
 255:Source\azure_iot_sdk\uamqp\src/amqp_management.c **** 
 256:Source\azure_iot_sdk\uamqp\src/amqp_management.c ****                                                         /* Codes_SRS_AMQP_MANAGEMENT_01_129: [ Afte
 257:Source\azure_iot_sdk\uamqp\src/amqp_management.c ****                                                         if (singlylinkedlist_remove(amqp_management
 258:Source\azure_iot_sdk\uamqp\src/amqp_management.c ****                                                         {
 259:Source\azure_iot_sdk\uamqp\src/amqp_management.c ****                                                             LogError("Cannot remove pending operati
ARM GAS  C:\Users\Phuong\AppData\Local\Temp\ccdTtd1y.s 			page 6


 260:Source\azure_iot_sdk\uamqp\src/amqp_management.c ****                                                             is_error = true;
 261:Source\azure_iot_sdk\uamqp\src/amqp_management.c ****                                                             break;
 262:Source\azure_iot_sdk\uamqp\src/amqp_management.c ****                                                         }
 263:Source\azure_iot_sdk\uamqp\src/amqp_management.c ****                                                         else
 264:Source\azure_iot_sdk\uamqp\src/amqp_management.c ****                                                         {
 265:Source\azure_iot_sdk\uamqp\src/amqp_management.c ****                                                             found = true;
 266:Source\azure_iot_sdk\uamqp\src/amqp_management.c ****                                                         }
 267:Source\azure_iot_sdk\uamqp\src/amqp_management.c **** 
 268:Source\azure_iot_sdk\uamqp\src/amqp_management.c ****                                                         break;
 269:Source\azure_iot_sdk\uamqp\src/amqp_management.c ****                                                     }
 270:Source\azure_iot_sdk\uamqp\src/amqp_management.c ****                                                 }
 271:Source\azure_iot_sdk\uamqp\src/amqp_management.c **** 
 272:Source\azure_iot_sdk\uamqp\src/amqp_management.c ****                                                 /* Codes_SRS_AMQP_MANAGEMENT_01_115: [ Iterating th
 273:Source\azure_iot_sdk\uamqp\src/amqp_management.c ****                                                 /* Codes_SRS_AMQP_MANAGEMENT_01_117: [ If iterating
 274:Source\azure_iot_sdk\uamqp\src/amqp_management.c ****                                                 list_item_handle = singlylinkedlist_get_next_item(l
 275:Source\azure_iot_sdk\uamqp\src/amqp_management.c ****                                             }
 276:Source\azure_iot_sdk\uamqp\src/amqp_management.c **** 
 277:Source\azure_iot_sdk\uamqp\src/amqp_management.c ****                                             if (is_error)
 278:Source\azure_iot_sdk\uamqp\src/amqp_management.c ****                                             {
 279:Source\azure_iot_sdk\uamqp\src/amqp_management.c ****                                                 /* Codes_SRS_AMQP_MANAGEMENT_01_117: [ If iterating
 280:Source\azure_iot_sdk\uamqp\src/amqp_management.c ****                                                 amqp_management->on_amqp_management_error(amqp_mana
 281:Source\azure_iot_sdk\uamqp\src/amqp_management.c ****                                                 /* Codes_SRS_AMQP_MANAGEMENT_01_135: [ When an erro
 282:Source\azure_iot_sdk\uamqp\src/amqp_management.c ****                                                 result = messaging_delivery_released();
 283:Source\azure_iot_sdk\uamqp\src/amqp_management.c ****                                             }
 284:Source\azure_iot_sdk\uamqp\src/amqp_management.c ****                                             else
 285:Source\azure_iot_sdk\uamqp\src/amqp_management.c ****                                             {
 286:Source\azure_iot_sdk\uamqp\src/amqp_management.c ****                                                 if (!found)
 287:Source\azure_iot_sdk\uamqp\src/amqp_management.c ****                                                 {
 288:Source\azure_iot_sdk\uamqp\src/amqp_management.c ****                                                     /* Codes_SRS_AMQP_MANAGEMENT_01_118: [ If no pe
 289:Source\azure_iot_sdk\uamqp\src/amqp_management.c ****                                                     LogError("Could not match AMQP management respo
 290:Source\azure_iot_sdk\uamqp\src/amqp_management.c ****                                                     amqp_management->on_amqp_management_error(amqp_
 291:Source\azure_iot_sdk\uamqp\src/amqp_management.c ****                                                     /* Codes_SRS_AMQP_MANAGEMENT_01_135: [ When an 
 292:Source\azure_iot_sdk\uamqp\src/amqp_management.c ****                                                     result = messaging_delivery_rejected("amqp:inte
 293:Source\azure_iot_sdk\uamqp\src/amqp_management.c ****                                                 }
 294:Source\azure_iot_sdk\uamqp\src/amqp_management.c ****                                                 else
 295:Source\azure_iot_sdk\uamqp\src/amqp_management.c ****                                                 {
 296:Source\azure_iot_sdk\uamqp\src/amqp_management.c ****                                                     /* Codes_SRS_AMQP_MANAGEMENT_01_130: [ The `on_
 297:Source\azure_iot_sdk\uamqp\src/amqp_management.c ****                                                     result = messaging_delivery_accepted();
 298:Source\azure_iot_sdk\uamqp\src/amqp_management.c ****                                                 }
 299:Source\azure_iot_sdk\uamqp\src/amqp_management.c ****                                             }
 300:Source\azure_iot_sdk\uamqp\src/amqp_management.c **** 
 301:Source\azure_iot_sdk\uamqp\src/amqp_management.c ****                                             if (desc_value != NULL)
 302:Source\azure_iot_sdk\uamqp\src/amqp_management.c ****                                             {
 303:Source\azure_iot_sdk\uamqp\src/amqp_management.c ****                                                 /* Codes_SRS_AMQP_MANAGEMENT_01_131: [ All temporar
 304:Source\azure_iot_sdk\uamqp\src/amqp_management.c ****                                                 amqpvalue_destroy(desc_value);
 305:Source\azure_iot_sdk\uamqp\src/amqp_management.c ****                                             }
 306:Source\azure_iot_sdk\uamqp\src/amqp_management.c **** 
 307:Source\azure_iot_sdk\uamqp\src/amqp_management.c ****                                             /* Codes_SRS_AMQP_MANAGEMENT_01_131: [ All temporary va
 308:Source\azure_iot_sdk\uamqp\src/amqp_management.c ****                                             amqpvalue_destroy(desc_key);
 309:Source\azure_iot_sdk\uamqp\src/amqp_management.c ****                                         }
 310:Source\azure_iot_sdk\uamqp\src/amqp_management.c ****                                     }
 311:Source\azure_iot_sdk\uamqp\src/amqp_management.c **** 
 312:Source\azure_iot_sdk\uamqp\src/amqp_management.c ****                                     /* Codes_SRS_AMQP_MANAGEMENT_01_131: [ All temporary values lik
 313:Source\azure_iot_sdk\uamqp\src/amqp_management.c ****                                     amqpvalue_destroy(value);
 314:Source\azure_iot_sdk\uamqp\src/amqp_management.c ****                                 }
 315:Source\azure_iot_sdk\uamqp\src/amqp_management.c **** 
 316:Source\azure_iot_sdk\uamqp\src/amqp_management.c ****                                 /* Codes_SRS_AMQP_MANAGEMENT_01_131: [ All temporary values like AM
ARM GAS  C:\Users\Phuong\AppData\Local\Temp\ccdTtd1y.s 			page 7


 317:Source\azure_iot_sdk\uamqp\src/amqp_management.c ****                                 amqpvalue_destroy(key);
 318:Source\azure_iot_sdk\uamqp\src/amqp_management.c ****                             }
 319:Source\azure_iot_sdk\uamqp\src/amqp_management.c ****                         }
 320:Source\azure_iot_sdk\uamqp\src/amqp_management.c ****                     }
 321:Source\azure_iot_sdk\uamqp\src/amqp_management.c ****                 }
 322:Source\azure_iot_sdk\uamqp\src/amqp_management.c **** 
 323:Source\azure_iot_sdk\uamqp\src/amqp_management.c ****                 /* Codes_SRS_AMQP_MANAGEMENT_01_131: [ All temporary values like AMQP values used a
 324:Source\azure_iot_sdk\uamqp\src/amqp_management.c ****                 properties_destroy(response_properties);
 325:Source\azure_iot_sdk\uamqp\src/amqp_management.c ****             }
 326:Source\azure_iot_sdk\uamqp\src/amqp_management.c **** 
 327:Source\azure_iot_sdk\uamqp\src/amqp_management.c ****             /* Codes_SRS_AMQP_MANAGEMENT_01_131: [ All temporary values like AMQP values used as ke
 328:Source\azure_iot_sdk\uamqp\src/amqp_management.c ****             application_properties_destroy(application_properties);
 329:Source\azure_iot_sdk\uamqp\src/amqp_management.c ****         }
 330:Source\azure_iot_sdk\uamqp\src/amqp_management.c ****     }
 331:Source\azure_iot_sdk\uamqp\src/amqp_management.c **** 
 332:Source\azure_iot_sdk\uamqp\src/amqp_management.c ****     return result;
 333:Source\azure_iot_sdk\uamqp\src/amqp_management.c **** }
 334:Source\azure_iot_sdk\uamqp\src/amqp_management.c **** 
 335:Source\azure_iot_sdk\uamqp\src/amqp_management.c **** static void on_message_send_complete(void* context, MESSAGE_SEND_RESULT send_result, AMQP_VALUE del
 336:Source\azure_iot_sdk\uamqp\src/amqp_management.c **** {
 337:Source\azure_iot_sdk\uamqp\src/amqp_management.c ****     (void)delivery_state;
 338:Source\azure_iot_sdk\uamqp\src/amqp_management.c **** 
 339:Source\azure_iot_sdk\uamqp\src/amqp_management.c ****     if (context == NULL)
 340:Source\azure_iot_sdk\uamqp\src/amqp_management.c ****     {
 341:Source\azure_iot_sdk\uamqp\src/amqp_management.c ****         /* Codes_SRS_AMQP_MANAGEMENT_01_167: [ When `on_message_send_complete` is called with a NUL
 342:Source\azure_iot_sdk\uamqp\src/amqp_management.c ****         LogError("NULL context");
 343:Source\azure_iot_sdk\uamqp\src/amqp_management.c ****     }
 344:Source\azure_iot_sdk\uamqp\src/amqp_management.c ****     else
 345:Source\azure_iot_sdk\uamqp\src/amqp_management.c ****     {
 346:Source\azure_iot_sdk\uamqp\src/amqp_management.c ****         if (send_result == MESSAGE_SEND_OK)
 347:Source\azure_iot_sdk\uamqp\src/amqp_management.c ****         {
 348:Source\azure_iot_sdk\uamqp\src/amqp_management.c ****             /* Codes_SRS_AMQP_MANAGEMENT_01_170: [ If `send_result` is `MESSAGE_SEND_OK`, `on_messa
 349:Source\azure_iot_sdk\uamqp\src/amqp_management.c ****         }
 350:Source\azure_iot_sdk\uamqp\src/amqp_management.c ****         else
 351:Source\azure_iot_sdk\uamqp\src/amqp_management.c ****         {
 352:Source\azure_iot_sdk\uamqp\src/amqp_management.c ****             /* Codes_SRS_AMQP_MANAGEMENT_01_172: [ If `send_result` is different then `MESSAGE_SEND
 353:Source\azure_iot_sdk\uamqp\src/amqp_management.c ****             /* Codes_SRS_AMQP_MANAGEMENT_01_168: [ - `context` shall be used as a LIST_ITEM_HANDLE 
 354:Source\azure_iot_sdk\uamqp\src/amqp_management.c ****             LIST_ITEM_HANDLE pending_operation_list_item_handle = (LIST_ITEM_HANDLE)context;
 355:Source\azure_iot_sdk\uamqp\src/amqp_management.c **** 
 356:Source\azure_iot_sdk\uamqp\src/amqp_management.c ****             /* Codes_SRS_AMQP_MANAGEMENT_01_169: [ - `on_message_send_complete` shall obtain the pe
 357:Source\azure_iot_sdk\uamqp\src/amqp_management.c ****             OPERATION_MESSAGE_INSTANCE* pending_operation_message = (OPERATION_MESSAGE_INSTANCE*)si
 358:Source\azure_iot_sdk\uamqp\src/amqp_management.c ****             AMQP_MANAGEMENT_HANDLE amqp_management = pending_operation_message->amqp_management;
 359:Source\azure_iot_sdk\uamqp\src/amqp_management.c **** 
 360:Source\azure_iot_sdk\uamqp\src/amqp_management.c ****             /* Codes_SRS_AMQP_MANAGEMENT_01_171: [ - `on_message_send_complete` shall removed the p
 361:Source\azure_iot_sdk\uamqp\src/amqp_management.c ****             if (singlylinkedlist_remove(amqp_management->pending_operations, pending_operation_list
 362:Source\azure_iot_sdk\uamqp\src/amqp_management.c ****             {
 363:Source\azure_iot_sdk\uamqp\src/amqp_management.c ****                 /* Tests_SRS_AMQP_MANAGEMENT_01_174: [ If any error occurs in removing the pending 
 364:Source\azure_iot_sdk\uamqp\src/amqp_management.c ****                 amqp_management->on_amqp_management_error(amqp_management->on_amqp_management_error
 365:Source\azure_iot_sdk\uamqp\src/amqp_management.c ****                 LogError("Cannot remove pending operation");
 366:Source\azure_iot_sdk\uamqp\src/amqp_management.c ****             }
 367:Source\azure_iot_sdk\uamqp\src/amqp_management.c ****             else
 368:Source\azure_iot_sdk\uamqp\src/amqp_management.c ****             {
 369:Source\azure_iot_sdk\uamqp\src/amqp_management.c ****                 /* Codes_SRS_AMQP_MANAGEMENT_01_173: [ - The callback associated with the pending o
 370:Source\azure_iot_sdk\uamqp\src/amqp_management.c ****                 pending_operation_message->on_execute_operation_complete(pending_operation_message-
 371:Source\azure_iot_sdk\uamqp\src/amqp_management.c ****                 free(pending_operation_message);
 372:Source\azure_iot_sdk\uamqp\src/amqp_management.c ****             }
 373:Source\azure_iot_sdk\uamqp\src/amqp_management.c ****         }
ARM GAS  C:\Users\Phuong\AppData\Local\Temp\ccdTtd1y.s 			page 8


 374:Source\azure_iot_sdk\uamqp\src/amqp_management.c ****     }
 375:Source\azure_iot_sdk\uamqp\src/amqp_management.c **** }
 376:Source\azure_iot_sdk\uamqp\src/amqp_management.c **** 
 377:Source\azure_iot_sdk\uamqp\src/amqp_management.c **** static void on_message_sender_state_changed(void* context, MESSAGE_SENDER_STATE new_state, MESSAGE_
 378:Source\azure_iot_sdk\uamqp\src/amqp_management.c **** {
 379:Source\azure_iot_sdk\uamqp\src/amqp_management.c ****     if (context == NULL)
 380:Source\azure_iot_sdk\uamqp\src/amqp_management.c ****     {
 381:Source\azure_iot_sdk\uamqp\src/amqp_management.c ****         /* Codes_SRS_AMQP_MANAGEMENT_01_137: [ When `on_message_sender_state_changed` is called wit
 382:Source\azure_iot_sdk\uamqp\src/amqp_management.c ****         LogError("on_message_sender_state_changed called with NULL context");
 383:Source\azure_iot_sdk\uamqp\src/amqp_management.c ****     }
 384:Source\azure_iot_sdk\uamqp\src/amqp_management.c ****     else
 385:Source\azure_iot_sdk\uamqp\src/amqp_management.c ****     {
 386:Source\azure_iot_sdk\uamqp\src/amqp_management.c ****         /* Codes_SRS_AMQP_MANAGEMENT_01_138: [ When `on_message_sender_state_changed` is called and
 387:Source\azure_iot_sdk\uamqp\src/amqp_management.c ****         /* Codes_SRS_AMQP_MANAGEMENT_01_148: [ When no state change is detected, `on_message_sender
 388:Source\azure_iot_sdk\uamqp\src/amqp_management.c ****         if (new_state != previous_state)
 389:Source\azure_iot_sdk\uamqp\src/amqp_management.c ****         {
 390:Source\azure_iot_sdk\uamqp\src/amqp_management.c ****             AMQP_MANAGEMENT_INSTANCE* amqp_management_instance = (AMQP_MANAGEMENT_INSTANCE*)context
 391:Source\azure_iot_sdk\uamqp\src/amqp_management.c ****             switch (amqp_management_instance->amqp_management_state)
 392:Source\azure_iot_sdk\uamqp\src/amqp_management.c ****             {
 393:Source\azure_iot_sdk\uamqp\src/amqp_management.c ****             default:
 394:Source\azure_iot_sdk\uamqp\src/amqp_management.c ****                 break;
 395:Source\azure_iot_sdk\uamqp\src/amqp_management.c **** 
 396:Source\azure_iot_sdk\uamqp\src/amqp_management.c ****             /* Codes_SRS_AMQP_MANAGEMENT_01_139: [ For the current state of AMQP management being `
 397:Source\azure_iot_sdk\uamqp\src/amqp_management.c ****             case AMQP_MANAGEMENT_STATE_OPENING:
 398:Source\azure_iot_sdk\uamqp\src/amqp_management.c ****             {
 399:Source\azure_iot_sdk\uamqp\src/amqp_management.c ****                 switch (new_state)
 400:Source\azure_iot_sdk\uamqp\src/amqp_management.c ****                 {
 401:Source\azure_iot_sdk\uamqp\src/amqp_management.c ****                 case MESSAGE_SENDER_STATE_OPENING:
 402:Source\azure_iot_sdk\uamqp\src/amqp_management.c ****                     /* Codes_SRS_AMQP_MANAGEMENT_01_165: [ - If `new_state` is `MESSAGE_SENDER_STAT
 403:Source\azure_iot_sdk\uamqp\src/amqp_management.c ****                     break;
 404:Source\azure_iot_sdk\uamqp\src/amqp_management.c **** 
 405:Source\azure_iot_sdk\uamqp\src/amqp_management.c ****                 default:
 406:Source\azure_iot_sdk\uamqp\src/amqp_management.c ****                 /* Codes_SRS_AMQP_MANAGEMENT_01_140: [ - If `new_state` is `MESSAGE_SENDER_STATE_ID
 407:Source\azure_iot_sdk\uamqp\src/amqp_management.c ****                 case MESSAGE_SENDER_STATE_IDLE:
 408:Source\azure_iot_sdk\uamqp\src/amqp_management.c ****                 case MESSAGE_SENDER_STATE_CLOSING:
 409:Source\azure_iot_sdk\uamqp\src/amqp_management.c ****                 case MESSAGE_SENDER_STATE_ERROR:
 410:Source\azure_iot_sdk\uamqp\src/amqp_management.c ****                     amqp_management_instance->amqp_management_state = AMQP_MANAGEMENT_STATE_IDLE;
 411:Source\azure_iot_sdk\uamqp\src/amqp_management.c ****                     amqp_management_instance->on_amqp_management_open_complete(amqp_management_inst
 412:Source\azure_iot_sdk\uamqp\src/amqp_management.c ****                     break;
 413:Source\azure_iot_sdk\uamqp\src/amqp_management.c **** 
 414:Source\azure_iot_sdk\uamqp\src/amqp_management.c ****                 case MESSAGE_SENDER_STATE_OPEN:
 415:Source\azure_iot_sdk\uamqp\src/amqp_management.c ****                     amqp_management_instance->sender_connected = 1;
 416:Source\azure_iot_sdk\uamqp\src/amqp_management.c ****                     /* Codes_SRS_AMQP_MANAGEMENT_01_142: [ - If `new_state` is `MESSAGE_SENDER_STAT
 417:Source\azure_iot_sdk\uamqp\src/amqp_management.c ****                     if (amqp_management_instance->receiver_connected != 0)
 418:Source\azure_iot_sdk\uamqp\src/amqp_management.c ****                     {
 419:Source\azure_iot_sdk\uamqp\src/amqp_management.c ****                         /* Codes_SRS_AMQP_MANAGEMENT_01_141: [ - If `new_state` is `MESSAGE_SENDER_
 420:Source\azure_iot_sdk\uamqp\src/amqp_management.c ****                         amqp_management_instance->amqp_management_state = AMQP_MANAGEMENT_STATE_OPE
 421:Source\azure_iot_sdk\uamqp\src/amqp_management.c ****                         amqp_management_instance->on_amqp_management_open_complete(amqp_management_
 422:Source\azure_iot_sdk\uamqp\src/amqp_management.c ****                     }
 423:Source\azure_iot_sdk\uamqp\src/amqp_management.c ****                     break;
 424:Source\azure_iot_sdk\uamqp\src/amqp_management.c ****                 }
 425:Source\azure_iot_sdk\uamqp\src/amqp_management.c ****                 break;
 426:Source\azure_iot_sdk\uamqp\src/amqp_management.c ****             }
 427:Source\azure_iot_sdk\uamqp\src/amqp_management.c ****             /* Codes_SRS_AMQP_MANAGEMENT_01_144: [ For the current state of AMQP management being `
 428:Source\azure_iot_sdk\uamqp\src/amqp_management.c ****             case AMQP_MANAGEMENT_STATE_OPEN:
 429:Source\azure_iot_sdk\uamqp\src/amqp_management.c ****             {
 430:Source\azure_iot_sdk\uamqp\src/amqp_management.c ****                 switch (new_state)
ARM GAS  C:\Users\Phuong\AppData\Local\Temp\ccdTtd1y.s 			page 9


 431:Source\azure_iot_sdk\uamqp\src/amqp_management.c ****                 {
 432:Source\azure_iot_sdk\uamqp\src/amqp_management.c ****                 default:
 433:Source\azure_iot_sdk\uamqp\src/amqp_management.c ****                 /* Codes_SRS_AMQP_MANAGEMENT_01_143: [ - If `new_state` is `MESSAGE_SENDER_STATE_ID
 434:Source\azure_iot_sdk\uamqp\src/amqp_management.c ****                 case MESSAGE_SENDER_STATE_IDLE:
 435:Source\azure_iot_sdk\uamqp\src/amqp_management.c ****                 case MESSAGE_SENDER_STATE_CLOSING:
 436:Source\azure_iot_sdk\uamqp\src/amqp_management.c ****                 case MESSAGE_SENDER_STATE_ERROR:
 437:Source\azure_iot_sdk\uamqp\src/amqp_management.c ****                     amqp_management_instance->amqp_management_state = AMQP_MANAGEMENT_STATE_ERROR;
 438:Source\azure_iot_sdk\uamqp\src/amqp_management.c ****                     amqp_management_instance->on_amqp_management_error(amqp_management_instance->on
 439:Source\azure_iot_sdk\uamqp\src/amqp_management.c ****                     break;
 440:Source\azure_iot_sdk\uamqp\src/amqp_management.c **** 
 441:Source\azure_iot_sdk\uamqp\src/amqp_management.c ****                 case MESSAGE_SENDER_STATE_OPEN:
 442:Source\azure_iot_sdk\uamqp\src/amqp_management.c ****                     /* Codes_SRS_AMQP_MANAGEMENT_01_145: [ - If `new_state` is `MESSAGE_SENDER_STAT
 443:Source\azure_iot_sdk\uamqp\src/amqp_management.c ****                     break;
 444:Source\azure_iot_sdk\uamqp\src/amqp_management.c ****                 }
 445:Source\azure_iot_sdk\uamqp\src/amqp_management.c ****                 break;
 446:Source\azure_iot_sdk\uamqp\src/amqp_management.c ****             }
 447:Source\azure_iot_sdk\uamqp\src/amqp_management.c ****             /* Codes_SRS_AMQP_MANAGEMENT_09_001: [ For the current state of AMQP management being `
 448:Source\azure_iot_sdk\uamqp\src/amqp_management.c ****             case AMQP_MANAGEMENT_STATE_CLOSING:
 449:Source\azure_iot_sdk\uamqp\src/amqp_management.c ****             {
 450:Source\azure_iot_sdk\uamqp\src/amqp_management.c ****                 switch (new_state)
 451:Source\azure_iot_sdk\uamqp\src/amqp_management.c ****                 {
 452:Source\azure_iot_sdk\uamqp\src/amqp_management.c ****                 default:
 453:Source\azure_iot_sdk\uamqp\src/amqp_management.c ****                     /* Codes_SRS_AMQP_MANAGEMENT_09_002: [ - If `new_state` is `MESSAGE_SENDER_STAT
 454:Source\azure_iot_sdk\uamqp\src/amqp_management.c ****                 case MESSAGE_SENDER_STATE_OPEN:
 455:Source\azure_iot_sdk\uamqp\src/amqp_management.c ****                 case MESSAGE_SENDER_STATE_OPENING:
 456:Source\azure_iot_sdk\uamqp\src/amqp_management.c ****                 case MESSAGE_SENDER_STATE_ERROR:
 457:Source\azure_iot_sdk\uamqp\src/amqp_management.c ****                     amqp_management_instance->amqp_management_state = AMQP_MANAGEMENT_STATE_ERROR;
 458:Source\azure_iot_sdk\uamqp\src/amqp_management.c ****                     amqp_management_instance->on_amqp_management_error(amqp_management_instance->on
 459:Source\azure_iot_sdk\uamqp\src/amqp_management.c ****                     break;
 460:Source\azure_iot_sdk\uamqp\src/amqp_management.c ****                 case MESSAGE_SENDER_STATE_IDLE:
 461:Source\azure_iot_sdk\uamqp\src/amqp_management.c ****                 case MESSAGE_SENDER_STATE_CLOSING:
 462:Source\azure_iot_sdk\uamqp\src/amqp_management.c ****                     /* Codes_SRS_AMQP_MANAGEMENT_09_003: [ - If `new_state` is `MESSAGE_SENDER_STAT
 463:Source\azure_iot_sdk\uamqp\src/amqp_management.c ****                     break;
 464:Source\azure_iot_sdk\uamqp\src/amqp_management.c ****                 }
 465:Source\azure_iot_sdk\uamqp\src/amqp_management.c ****                 break;
 466:Source\azure_iot_sdk\uamqp\src/amqp_management.c ****             }
 467:Source\azure_iot_sdk\uamqp\src/amqp_management.c ****             /* Codes_SRS_AMQP_MANAGEMENT_01_146: [ For the current state of AMQP management being `
 468:Source\azure_iot_sdk\uamqp\src/amqp_management.c ****             case AMQP_MANAGEMENT_STATE_ERROR:
 469:Source\azure_iot_sdk\uamqp\src/amqp_management.c ****                 /* Codes_SRS_AMQP_MANAGEMENT_01_147: [ - All state transitions shall be ignored. ]*
 470:Source\azure_iot_sdk\uamqp\src/amqp_management.c ****                 break;
 471:Source\azure_iot_sdk\uamqp\src/amqp_management.c ****             }
 472:Source\azure_iot_sdk\uamqp\src/amqp_management.c ****         }
 473:Source\azure_iot_sdk\uamqp\src/amqp_management.c ****     }
 474:Source\azure_iot_sdk\uamqp\src/amqp_management.c **** }
 475:Source\azure_iot_sdk\uamqp\src/amqp_management.c **** 
 476:Source\azure_iot_sdk\uamqp\src/amqp_management.c **** static void on_message_receiver_state_changed(const void* context, MESSAGE_RECEIVER_STATE new_state
 477:Source\azure_iot_sdk\uamqp\src/amqp_management.c **** {
  27              		.loc 1 477 0
  28              		.cfi_startproc
  29              		@ args = 0, pretend = 0, frame = 0
  30              		@ frame_needed = 0, uses_anonymous_args = 0
  31              	.LVL0:
  32 0000 10B5     		push	{r4, lr}
  33              		.cfi_def_cfa_offset 8
  34              		.cfi_offset 4, -8
  35              		.cfi_offset 14, -4
  36 0002 82B0     		sub	sp, sp, #8
ARM GAS  C:\Users\Phuong\AppData\Local\Temp\ccdTtd1y.s 			page 10


  37              		.cfi_def_cfa_offset 16
 478:Source\azure_iot_sdk\uamqp\src/amqp_management.c ****     if (context == NULL)
  38              		.loc 1 478 0
  39 0004 0028     		cmp	r0, #0
  40 0006 0ED1     		bne	.L2
  41              	.LBB2:
 479:Source\azure_iot_sdk\uamqp\src/amqp_management.c ****     {
 480:Source\azure_iot_sdk\uamqp\src/amqp_management.c ****         /* Codes_SRS_AMQP_MANAGEMENT_01_149: [ When `on_message_receiver_state_changed` is called w
 481:Source\azure_iot_sdk\uamqp\src/amqp_management.c ****         LogError("on_message_receiver_state_changed called with NULL context");
  42              		.loc 1 481 0 discriminator 3
  43 0008 FFF7FEFF 		bl	xlogging_get_log_function
  44              	.LVL1:
  45 000c 041E     		subs	r4, r0, #0
  46              	.LVL2:
  47 000e 36D0     		beq	.L1
  48              		.loc 1 481 0 is_stmt 0 discriminator 4
  49 0010 1C4B     		ldr	r3, .L9
  50 0012 0193     		str	r3, [sp, #4]
  51 0014 0123     		movs	r3, #1
  52 0016 0093     		str	r3, [sp]
  53 0018 E223     		movs	r3, #226
  54 001a FF33     		adds	r3, r3, #255
  55 001c 1A4A     		ldr	r2, .L9+4
  56 001e 1B49     		ldr	r1, .L9+8
  57 0020 0020     		movs	r0, #0
  58              	.LVL3:
  59 0022 A047     		blx	r4
  60              	.LVL4:
  61 0024 2BE0     		b	.L1
  62              	.LVL5:
  63              	.L2:
  64              	.LBE2:
 482:Source\azure_iot_sdk\uamqp\src/amqp_management.c ****     }
 483:Source\azure_iot_sdk\uamqp\src/amqp_management.c ****     else
 484:Source\azure_iot_sdk\uamqp\src/amqp_management.c ****     {
 485:Source\azure_iot_sdk\uamqp\src/amqp_management.c ****         /* Codes_SRS_AMQP_MANAGEMENT_01_150: [ When `on_message_receiver_state_changed` is called a
 486:Source\azure_iot_sdk\uamqp\src/amqp_management.c ****         /* Codes_SRS_AMQP_MANAGEMENT_01_160: [ When no state change is detected, `on_message_receiv
 487:Source\azure_iot_sdk\uamqp\src/amqp_management.c ****         if (new_state != previous_state)
  65              		.loc 1 487 0 is_stmt 1
  66 0026 9142     		cmp	r1, r2
  67 0028 29D0     		beq	.L1
  68              	.LVL6:
  69              	.LBB3:
 488:Source\azure_iot_sdk\uamqp\src/amqp_management.c ****         {
 489:Source\azure_iot_sdk\uamqp\src/amqp_management.c ****             AMQP_MANAGEMENT_INSTANCE* amqp_management_instance = (AMQP_MANAGEMENT_INSTANCE*)context
 490:Source\azure_iot_sdk\uamqp\src/amqp_management.c ****             switch (amqp_management_instance->amqp_management_state)
  70              		.loc 1 490 0
  71 002a 3023     		movs	r3, #48
  72 002c C35C     		ldrb	r3, [r0, r3]
  73 002e 012B     		cmp	r3, #1
  74 0030 02D0     		beq	.L4
  75 0032 032B     		cmp	r3, #3
  76 0034 1BD0     		beq	.L5
  77 0036 22E0     		b	.L1
  78              	.L4:
 491:Source\azure_iot_sdk\uamqp\src/amqp_management.c ****             {
 492:Source\azure_iot_sdk\uamqp\src/amqp_management.c ****             default:
ARM GAS  C:\Users\Phuong\AppData\Local\Temp\ccdTtd1y.s 			page 11


 493:Source\azure_iot_sdk\uamqp\src/amqp_management.c ****                 break;
 494:Source\azure_iot_sdk\uamqp\src/amqp_management.c **** 
 495:Source\azure_iot_sdk\uamqp\src/amqp_management.c ****             /* Codes_SRS_AMQP_MANAGEMENT_01_151: [ For the current state of AMQP management being `
 496:Source\azure_iot_sdk\uamqp\src/amqp_management.c ****             case AMQP_MANAGEMENT_STATE_OPENING:
 497:Source\azure_iot_sdk\uamqp\src/amqp_management.c ****             {
 498:Source\azure_iot_sdk\uamqp\src/amqp_management.c ****                 switch (new_state)
  79              		.loc 1 498 0
  80 0038 0129     		cmp	r1, #1
  81 003a 20D0     		beq	.L1
  82 003c 0229     		cmp	r1, #2
  83 003e 07D0     		beq	.L7
 499:Source\azure_iot_sdk\uamqp\src/amqp_management.c ****                 {
 500:Source\azure_iot_sdk\uamqp\src/amqp_management.c ****                 case MESSAGE_RECEIVER_STATE_OPENING:
 501:Source\azure_iot_sdk\uamqp\src/amqp_management.c ****                     /* Codes_SRS_AMQP_MANAGEMENT_01_164: [ - If `new_state` is `MESSAGE_RECEIVER_ST
 502:Source\azure_iot_sdk\uamqp\src/amqp_management.c ****                     break;
 503:Source\azure_iot_sdk\uamqp\src/amqp_management.c **** 
 504:Source\azure_iot_sdk\uamqp\src/amqp_management.c ****                 default:
 505:Source\azure_iot_sdk\uamqp\src/amqp_management.c ****                 /* Codes_SRS_AMQP_MANAGEMENT_01_152: [ - If `new_state` is `MESSAGE_RECEIVER_STATE_
 506:Source\azure_iot_sdk\uamqp\src/amqp_management.c ****                 case MESSAGE_RECEIVER_STATE_IDLE:
 507:Source\azure_iot_sdk\uamqp\src/amqp_management.c ****                 case MESSAGE_RECEIVER_STATE_CLOSING:
 508:Source\azure_iot_sdk\uamqp\src/amqp_management.c ****                 case MESSAGE_RECEIVER_STATE_ERROR:
 509:Source\azure_iot_sdk\uamqp\src/amqp_management.c ****                     amqp_management_instance->amqp_management_state = AMQP_MANAGEMENT_STATE_IDLE;
  84              		.loc 1 509 0
  85 0040 0022     		movs	r2, #0
  86              	.LVL7:
  87 0042 3023     		movs	r3, #48
  88 0044 C254     		strb	r2, [r0, r3]
 510:Source\azure_iot_sdk\uamqp\src/amqp_management.c ****                     amqp_management_instance->on_amqp_management_open_complete(amqp_management_inst
  89              		.loc 1 510 0
  90 0046 036A     		ldr	r3, [r0, #32]
  91 0048 406A     		ldr	r0, [r0, #36]
  92              	.LVL8:
  93 004a 0121     		movs	r1, #1
  94              	.LVL9:
  95 004c 9847     		blx	r3
  96              	.LVL10:
 511:Source\azure_iot_sdk\uamqp\src/amqp_management.c ****                     break;
  97              		.loc 1 511 0
  98 004e 16E0     		b	.L1
  99              	.LVL11:
 100              	.L7:
 512:Source\azure_iot_sdk\uamqp\src/amqp_management.c **** 
 513:Source\azure_iot_sdk\uamqp\src/amqp_management.c ****                 case MESSAGE_RECEIVER_STATE_OPEN:
 514:Source\azure_iot_sdk\uamqp\src/amqp_management.c ****                     amqp_management_instance->receiver_connected = 1;
 101              		.loc 1 514 0
 102 0050 3C22     		movs	r2, #60
 103              	.LVL12:
 104 0052 815C     		ldrb	r1, [r0, r2]
 105              	.LVL13:
 106 0054 0223     		movs	r3, #2
 107 0056 0B43     		orrs	r3, r1
 108 0058 8354     		strb	r3, [r0, r2]
 515:Source\azure_iot_sdk\uamqp\src/amqp_management.c ****                     /* Codes_SRS_AMQP_MANAGEMENT_01_154: [ - If `new_state` is `MESSAGE_RECEIVER_ST
 516:Source\azure_iot_sdk\uamqp\src/amqp_management.c ****                     if (amqp_management_instance->sender_connected != 0)
 109              		.loc 1 516 0
 110 005a DB07     		lsls	r3, r3, #31
 111 005c 0FD5     		bpl	.L1
ARM GAS  C:\Users\Phuong\AppData\Local\Temp\ccdTtd1y.s 			page 12


 517:Source\azure_iot_sdk\uamqp\src/amqp_management.c ****                     {
 518:Source\azure_iot_sdk\uamqp\src/amqp_management.c ****                         /* Codes_SRS_AMQP_MANAGEMENT_01_153: [ - If `new_state` is `MESSAGE_RECEIVE
 519:Source\azure_iot_sdk\uamqp\src/amqp_management.c ****                         amqp_management_instance->amqp_management_state = AMQP_MANAGEMENT_STATE_OPE
 112              		.loc 1 519 0
 113 005e 393A     		subs	r2, r2, #57
 114 0060 3023     		movs	r3, #48
 115 0062 C254     		strb	r2, [r0, r3]
 520:Source\azure_iot_sdk\uamqp\src/amqp_management.c ****                         amqp_management_instance->on_amqp_management_open_complete(amqp_management_
 116              		.loc 1 520 0
 117 0064 036A     		ldr	r3, [r0, #32]
 118 0066 406A     		ldr	r0, [r0, #36]
 119              	.LVL14:
 120 0068 0021     		movs	r1, #0
 121 006a 9847     		blx	r3
 122              	.LVL15:
 123 006c 07E0     		b	.L1
 124              	.LVL16:
 125              	.L5:
 521:Source\azure_iot_sdk\uamqp\src/amqp_management.c ****                     }
 522:Source\azure_iot_sdk\uamqp\src/amqp_management.c ****                     break;
 523:Source\azure_iot_sdk\uamqp\src/amqp_management.c ****                 }
 524:Source\azure_iot_sdk\uamqp\src/amqp_management.c ****                 break;
 525:Source\azure_iot_sdk\uamqp\src/amqp_management.c ****             }
 526:Source\azure_iot_sdk\uamqp\src/amqp_management.c ****             /* Codes_SRS_AMQP_MANAGEMENT_01_155: [ For the current state of AMQP management being `
 527:Source\azure_iot_sdk\uamqp\src/amqp_management.c ****             case AMQP_MANAGEMENT_STATE_OPEN:
 528:Source\azure_iot_sdk\uamqp\src/amqp_management.c ****             {
 529:Source\azure_iot_sdk\uamqp\src/amqp_management.c ****                 switch (new_state)
 126              		.loc 1 529 0
 127 006e 0229     		cmp	r1, #2
 128 0070 05D0     		beq	.L1
 530:Source\azure_iot_sdk\uamqp\src/amqp_management.c ****                 {
 531:Source\azure_iot_sdk\uamqp\src/amqp_management.c ****                 default:
 532:Source\azure_iot_sdk\uamqp\src/amqp_management.c ****                 /* Codes_SRS_AMQP_MANAGEMENT_01_156: [ - If `new_state` is `MESSAGE_RECEIVER_STATE_
 533:Source\azure_iot_sdk\uamqp\src/amqp_management.c ****                 case MESSAGE_RECEIVER_STATE_IDLE:
 534:Source\azure_iot_sdk\uamqp\src/amqp_management.c ****                 case MESSAGE_RECEIVER_STATE_CLOSING:
 535:Source\azure_iot_sdk\uamqp\src/amqp_management.c ****                 case MESSAGE_RECEIVER_STATE_ERROR:
 536:Source\azure_iot_sdk\uamqp\src/amqp_management.c ****                     amqp_management_instance->amqp_management_state = AMQP_MANAGEMENT_STATE_ERROR;
 129              		.loc 1 536 0
 130 0072 0422     		movs	r2, #4
 131              	.LVL17:
 132 0074 3023     		movs	r3, #48
 133 0076 C254     		strb	r2, [r0, r3]
 537:Source\azure_iot_sdk\uamqp\src/amqp_management.c ****                     amqp_management_instance->on_amqp_management_error(amqp_management_instance->on
 134              		.loc 1 537 0
 135 0078 836A     		ldr	r3, [r0, #40]
 136 007a C06A     		ldr	r0, [r0, #44]
 137              	.LVL18:
 138 007c 9847     		blx	r3
 139              	.LVL19:
 140              	.L1:
 141              	.LBE3:
 538:Source\azure_iot_sdk\uamqp\src/amqp_management.c ****                     break;
 539:Source\azure_iot_sdk\uamqp\src/amqp_management.c **** 
 540:Source\azure_iot_sdk\uamqp\src/amqp_management.c ****                 case MESSAGE_RECEIVER_STATE_OPEN:
 541:Source\azure_iot_sdk\uamqp\src/amqp_management.c ****                     /* Codes_SRS_AMQP_MANAGEMENT_01_157: [ - If `new_state` is `MESSAGE_RECEIVER_ST
 542:Source\azure_iot_sdk\uamqp\src/amqp_management.c ****                     break;
 543:Source\azure_iot_sdk\uamqp\src/amqp_management.c ****                 }
ARM GAS  C:\Users\Phuong\AppData\Local\Temp\ccdTtd1y.s 			page 13


 544:Source\azure_iot_sdk\uamqp\src/amqp_management.c ****                 break;
 545:Source\azure_iot_sdk\uamqp\src/amqp_management.c ****             }
 546:Source\azure_iot_sdk\uamqp\src/amqp_management.c ****             /* Codes_SRS_AMQP_MANAGEMENT_01_158: [ For the current state of AMQP management being `
 547:Source\azure_iot_sdk\uamqp\src/amqp_management.c ****             case AMQP_MANAGEMENT_STATE_ERROR:
 548:Source\azure_iot_sdk\uamqp\src/amqp_management.c ****                 /* Codes_SRS_AMQP_MANAGEMENT_01_159: [ - All state transitions shall be ignored. ]*
 549:Source\azure_iot_sdk\uamqp\src/amqp_management.c ****                 break;
 550:Source\azure_iot_sdk\uamqp\src/amqp_management.c ****             }
 551:Source\azure_iot_sdk\uamqp\src/amqp_management.c ****         }
 552:Source\azure_iot_sdk\uamqp\src/amqp_management.c ****     }
 553:Source\azure_iot_sdk\uamqp\src/amqp_management.c **** }
 142              		.loc 1 553 0
 143 007e 02B0     		add	sp, sp, #8
 144              		@ sp needed
 145 0080 10BD     		pop	{r4, pc}
 146              	.L10:
 147 0082 C046     		.align	2
 148              	.L9:
 149 0084 34000000 		.word	.LC3
 150 0088 00000000 		.word	.LANCHOR0
 151 008c 00000000 		.word	.LC1
 152              		.cfi_endproc
 153              	.LFE4:
 154              		.size	on_message_receiver_state_changed, .-on_message_receiver_state_changed
 155              		.section	.text.on_message_sender_state_changed,"ax",%progbits
 156              		.align	2
 157              		.code	16
 158              		.thumb_func
 159              		.type	on_message_sender_state_changed, %function
 160              	on_message_sender_state_changed:
 161              	.LFB3:
 378:Source\azure_iot_sdk\uamqp\src/amqp_management.c ****     if (context == NULL)
 162              		.loc 1 378 0
 163              		.cfi_startproc
 164              		@ args = 0, pretend = 0, frame = 0
 165              		@ frame_needed = 0, uses_anonymous_args = 0
 166              	.LVL20:
 167 0000 10B5     		push	{r4, lr}
 168              		.cfi_def_cfa_offset 8
 169              		.cfi_offset 4, -8
 170              		.cfi_offset 14, -4
 171 0002 82B0     		sub	sp, sp, #8
 172              		.cfi_def_cfa_offset 16
 379:Source\azure_iot_sdk\uamqp\src/amqp_management.c ****     {
 173              		.loc 1 379 0
 174 0004 0028     		cmp	r0, #0
 175 0006 0FD1     		bne	.L12
 176              	.LBB4:
 382:Source\azure_iot_sdk\uamqp\src/amqp_management.c ****     }
 177              		.loc 1 382 0 discriminator 3
 178 0008 FFF7FEFF 		bl	xlogging_get_log_function
 179              	.LVL21:
 180 000c 041E     		subs	r4, r0, #0
 181              	.LVL22:
 182 000e 43D0     		beq	.L11
 382:Source\azure_iot_sdk\uamqp\src/amqp_management.c ****     }
 183              		.loc 1 382 0 is_stmt 0 discriminator 4
 184 0010 224B     		ldr	r3, .L21
ARM GAS  C:\Users\Phuong\AppData\Local\Temp\ccdTtd1y.s 			page 14


 185 0012 0193     		str	r3, [sp, #4]
 186 0014 0123     		movs	r3, #1
 187 0016 0093     		str	r3, [sp]
 188 0018 7E33     		adds	r3, r3, #126
 189 001a FF33     		adds	r3, r3, #255
 190 001c 204A     		ldr	r2, .L21+4
 191 001e 2432     		adds	r2, r2, #36
 192 0020 2049     		ldr	r1, .L21+8
 193 0022 0020     		movs	r0, #0
 194              	.LVL23:
 195 0024 A047     		blx	r4
 196              	.LVL24:
 197 0026 37E0     		b	.L11
 198              	.LVL25:
 199              	.L12:
 200              	.LBE4:
 388:Source\azure_iot_sdk\uamqp\src/amqp_management.c ****         {
 201              		.loc 1 388 0 is_stmt 1
 202 0028 9142     		cmp	r1, r2
 203 002a 35D0     		beq	.L11
 204              	.LVL26:
 205              	.LBB5:
 391:Source\azure_iot_sdk\uamqp\src/amqp_management.c ****             {
 206              		.loc 1 391 0
 207 002c 3023     		movs	r3, #48
 208 002e C35C     		ldrb	r3, [r0, r3]
 209 0030 022B     		cmp	r3, #2
 210 0032 27D0     		beq	.L14
 211 0034 032B     		cmp	r3, #3
 212 0036 1CD0     		beq	.L15
 213 0038 012B     		cmp	r3, #1
 214 003a 2DD1     		bne	.L11
 399:Source\azure_iot_sdk\uamqp\src/amqp_management.c ****                 {
 215              		.loc 1 399 0
 216 003c 0129     		cmp	r1, #1
 217 003e 2BD0     		beq	.L11
 218 0040 0229     		cmp	r1, #2
 219 0042 07D0     		beq	.L18
 410:Source\azure_iot_sdk\uamqp\src/amqp_management.c ****                     amqp_management_instance->on_amqp_management_open_complete(amqp_management_inst
 220              		.loc 1 410 0
 221 0044 0022     		movs	r2, #0
 222              	.LVL27:
 223 0046 2F33     		adds	r3, r3, #47
 224 0048 C254     		strb	r2, [r0, r3]
 411:Source\azure_iot_sdk\uamqp\src/amqp_management.c ****                     break;
 225              		.loc 1 411 0
 226 004a 036A     		ldr	r3, [r0, #32]
 227 004c 406A     		ldr	r0, [r0, #36]
 228              	.LVL28:
 229 004e 0121     		movs	r1, #1
 230              	.LVL29:
 231 0050 9847     		blx	r3
 232              	.LVL30:
 412:Source\azure_iot_sdk\uamqp\src/amqp_management.c **** 
 233              		.loc 1 412 0
 234 0052 21E0     		b	.L11
 235              	.LVL31:
ARM GAS  C:\Users\Phuong\AppData\Local\Temp\ccdTtd1y.s 			page 15


 236              	.L18:
 415:Source\azure_iot_sdk\uamqp\src/amqp_management.c ****                     /* Codes_SRS_AMQP_MANAGEMENT_01_142: [ - If `new_state` is `MESSAGE_SENDER_STAT
 237              		.loc 1 415 0
 238 0054 3C22     		movs	r2, #60
 239              	.LVL32:
 240 0056 815C     		ldrb	r1, [r0, r2]
 241              	.LVL33:
 242 0058 0123     		movs	r3, #1
 243 005a 0B43     		orrs	r3, r1
 244 005c 8354     		strb	r3, [r0, r2]
 417:Source\azure_iot_sdk\uamqp\src/amqp_management.c ****                     {
 245              		.loc 1 417 0
 246 005e 9B07     		lsls	r3, r3, #30
 247 0060 1AD5     		bpl	.L11
 420:Source\azure_iot_sdk\uamqp\src/amqp_management.c ****                         amqp_management_instance->on_amqp_management_open_complete(amqp_management_
 248              		.loc 1 420 0
 249 0062 393A     		subs	r2, r2, #57
 250 0064 3023     		movs	r3, #48
 251 0066 C254     		strb	r2, [r0, r3]
 421:Source\azure_iot_sdk\uamqp\src/amqp_management.c ****                     }
 252              		.loc 1 421 0
 253 0068 036A     		ldr	r3, [r0, #32]
 254 006a 406A     		ldr	r0, [r0, #36]
 255              	.LVL34:
 256 006c 0021     		movs	r1, #0
 257 006e 9847     		blx	r3
 258              	.LVL35:
 259 0070 12E0     		b	.L11
 260              	.LVL36:
 261              	.L15:
 430:Source\azure_iot_sdk\uamqp\src/amqp_management.c ****                 {
 262              		.loc 1 430 0
 263 0072 0229     		cmp	r1, #2
 264 0074 10D0     		beq	.L11
 437:Source\azure_iot_sdk\uamqp\src/amqp_management.c ****                     amqp_management_instance->on_amqp_management_error(amqp_management_instance->on
 265              		.loc 1 437 0
 266 0076 0422     		movs	r2, #4
 267              	.LVL37:
 268 0078 3023     		movs	r3, #48
 269 007a C254     		strb	r2, [r0, r3]
 438:Source\azure_iot_sdk\uamqp\src/amqp_management.c ****                     break;
 270              		.loc 1 438 0
 271 007c 836A     		ldr	r3, [r0, #40]
 272 007e C06A     		ldr	r0, [r0, #44]
 273              	.LVL38:
 274 0080 9847     		blx	r3
 275              	.LVL39:
 439:Source\azure_iot_sdk\uamqp\src/amqp_management.c **** 
 276              		.loc 1 439 0
 277 0082 09E0     		b	.L11
 278              	.LVL40:
 279              	.L14:
 450:Source\azure_iot_sdk\uamqp\src/amqp_management.c ****                 {
 280              		.loc 1 450 0
 281 0084 0029     		cmp	r1, #0
 282 0086 07D0     		beq	.L11
 283 0088 0329     		cmp	r1, #3
ARM GAS  C:\Users\Phuong\AppData\Local\Temp\ccdTtd1y.s 			page 16


 284 008a 05D0     		beq	.L11
 457:Source\azure_iot_sdk\uamqp\src/amqp_management.c ****                     amqp_management_instance->on_amqp_management_error(amqp_management_instance->on
 285              		.loc 1 457 0
 286 008c 0422     		movs	r2, #4
 287              	.LVL41:
 288 008e 3023     		movs	r3, #48
 289 0090 C254     		strb	r2, [r0, r3]
 458:Source\azure_iot_sdk\uamqp\src/amqp_management.c ****                     break;
 290              		.loc 1 458 0
 291 0092 836A     		ldr	r3, [r0, #40]
 292 0094 C06A     		ldr	r0, [r0, #44]
 293              	.LVL42:
 294 0096 9847     		blx	r3
 295              	.LVL43:
 296              	.L11:
 297              	.LBE5:
 474:Source\azure_iot_sdk\uamqp\src/amqp_management.c **** 
 298              		.loc 1 474 0
 299 0098 02B0     		add	sp, sp, #8
 300              		@ sp needed
 301 009a 10BD     		pop	{r4, pc}
 302              	.L22:
 303              		.align	2
 304              	.L21:
 305 009c 70000000 		.word	.LC7
 306 00a0 00000000 		.word	.LANCHOR0
 307 00a4 00000000 		.word	.LC1
 308              		.cfi_endproc
 309              	.LFE3:
 310              		.size	on_message_sender_state_changed, .-on_message_sender_state_changed
 311              		.section	.text.internal_set_status_code_key_name,"ax",%progbits
 312              		.align	2
 313              		.code	16
 314              		.thumb_func
 315              		.type	internal_set_status_code_key_name, %function
 316              	internal_set_status_code_key_name:
 317              	.LFB7:
 554:Source\azure_iot_sdk\uamqp\src/amqp_management.c **** 
 555:Source\azure_iot_sdk\uamqp\src/amqp_management.c **** static int set_message_id(MESSAGE_HANDLE message, uint64_t next_message_id)
 556:Source\azure_iot_sdk\uamqp\src/amqp_management.c **** {
 557:Source\azure_iot_sdk\uamqp\src/amqp_management.c ****     int result;
 558:Source\azure_iot_sdk\uamqp\src/amqp_management.c ****     PROPERTIES_HANDLE properties;
 559:Source\azure_iot_sdk\uamqp\src/amqp_management.c **** 
 560:Source\azure_iot_sdk\uamqp\src/amqp_management.c ****     /* Codes_SRS_AMQP_MANAGEMENT_01_094: [ In order to set the message Id on the message, the prope
 561:Source\azure_iot_sdk\uamqp\src/amqp_management.c ****     if (message_get_properties(message, &properties) != 0)
 562:Source\azure_iot_sdk\uamqp\src/amqp_management.c ****     {
 563:Source\azure_iot_sdk\uamqp\src/amqp_management.c ****         /* Codes_SRS_AMQP_MANAGEMENT_01_098: [ If any API fails while setting the message Id, `amqp
 564:Source\azure_iot_sdk\uamqp\src/amqp_management.c ****         LogError("Could not retrieve message properties");
 565:Source\azure_iot_sdk\uamqp\src/amqp_management.c ****         result = __FAILURE__;
 566:Source\azure_iot_sdk\uamqp\src/amqp_management.c ****     }
 567:Source\azure_iot_sdk\uamqp\src/amqp_management.c ****     else
 568:Source\azure_iot_sdk\uamqp\src/amqp_management.c ****     {
 569:Source\azure_iot_sdk\uamqp\src/amqp_management.c ****         /* Codes_SRS_AMQP_MANAGEMENT_01_099: [ If the properties were not set on the message, a new
 570:Source\azure_iot_sdk\uamqp\src/amqp_management.c ****         if (properties == NULL)
 571:Source\azure_iot_sdk\uamqp\src/amqp_management.c ****         {
 572:Source\azure_iot_sdk\uamqp\src/amqp_management.c ****             properties = properties_create();
 573:Source\azure_iot_sdk\uamqp\src/amqp_management.c ****         }
ARM GAS  C:\Users\Phuong\AppData\Local\Temp\ccdTtd1y.s 			page 17


 574:Source\azure_iot_sdk\uamqp\src/amqp_management.c **** 
 575:Source\azure_iot_sdk\uamqp\src/amqp_management.c ****         if (properties == NULL)
 576:Source\azure_iot_sdk\uamqp\src/amqp_management.c ****         {
 577:Source\azure_iot_sdk\uamqp\src/amqp_management.c ****             /* Codes_SRS_AMQP_MANAGEMENT_01_098: [ If any API fails while setting the message Id, `
 578:Source\azure_iot_sdk\uamqp\src/amqp_management.c ****             LogError("Could not create message properties");
 579:Source\azure_iot_sdk\uamqp\src/amqp_management.c ****             result = __FAILURE__;
 580:Source\azure_iot_sdk\uamqp\src/amqp_management.c ****         }
 581:Source\azure_iot_sdk\uamqp\src/amqp_management.c ****         else
 582:Source\azure_iot_sdk\uamqp\src/amqp_management.c ****         {
 583:Source\azure_iot_sdk\uamqp\src/amqp_management.c ****             /* Codes_SRS_AMQP_MANAGEMENT_01_095: [ A message Id with the next ulong value to be use
 584:Source\azure_iot_sdk\uamqp\src/amqp_management.c ****             AMQP_VALUE message_id = amqpvalue_create_message_id_ulong(next_message_id);
 585:Source\azure_iot_sdk\uamqp\src/amqp_management.c ****             if (message_id == NULL)
 586:Source\azure_iot_sdk\uamqp\src/amqp_management.c ****             {
 587:Source\azure_iot_sdk\uamqp\src/amqp_management.c ****                 /* Codes_SRS_AMQP_MANAGEMENT_01_098: [ If any API fails while setting the message I
 588:Source\azure_iot_sdk\uamqp\src/amqp_management.c ****                 LogError("Could not create message id value");
 589:Source\azure_iot_sdk\uamqp\src/amqp_management.c ****                 result = __FAILURE__;
 590:Source\azure_iot_sdk\uamqp\src/amqp_management.c ****             }
 591:Source\azure_iot_sdk\uamqp\src/amqp_management.c ****             else
 592:Source\azure_iot_sdk\uamqp\src/amqp_management.c ****             {
 593:Source\azure_iot_sdk\uamqp\src/amqp_management.c ****                 /* Codes_SRS_AMQP_MANAGEMENT_01_096: [ The message Id value shall be set on the pro
 594:Source\azure_iot_sdk\uamqp\src/amqp_management.c ****                 if (properties_set_message_id(properties, message_id) != 0)
 595:Source\azure_iot_sdk\uamqp\src/amqp_management.c ****                 {
 596:Source\azure_iot_sdk\uamqp\src/amqp_management.c ****                     /* Codes_SRS_AMQP_MANAGEMENT_01_098: [ If any API fails while setting the messa
 597:Source\azure_iot_sdk\uamqp\src/amqp_management.c ****                     LogError("Could not set message Id on the properties");
 598:Source\azure_iot_sdk\uamqp\src/amqp_management.c ****                     result = __FAILURE__;
 599:Source\azure_iot_sdk\uamqp\src/amqp_management.c ****                 }
 600:Source\azure_iot_sdk\uamqp\src/amqp_management.c ****                 /* Codes_SRS_AMQP_MANAGEMENT_01_097: [ The properties thus modified to contain the 
 601:Source\azure_iot_sdk\uamqp\src/amqp_management.c ****                 else if (message_set_properties(message, properties) != 0)
 602:Source\azure_iot_sdk\uamqp\src/amqp_management.c ****                 {
 603:Source\azure_iot_sdk\uamqp\src/amqp_management.c ****                     /* Codes_SRS_AMQP_MANAGEMENT_01_098: [ If any API fails while setting the messa
 604:Source\azure_iot_sdk\uamqp\src/amqp_management.c ****                     LogError("Could not set message properties");
 605:Source\azure_iot_sdk\uamqp\src/amqp_management.c ****                     result = __FAILURE__;
 606:Source\azure_iot_sdk\uamqp\src/amqp_management.c ****                 }
 607:Source\azure_iot_sdk\uamqp\src/amqp_management.c ****                 else
 608:Source\azure_iot_sdk\uamqp\src/amqp_management.c ****                 {
 609:Source\azure_iot_sdk\uamqp\src/amqp_management.c ****                     result = 0;
 610:Source\azure_iot_sdk\uamqp\src/amqp_management.c ****                 }
 611:Source\azure_iot_sdk\uamqp\src/amqp_management.c **** 
 612:Source\azure_iot_sdk\uamqp\src/amqp_management.c ****                 amqpvalue_destroy(message_id);
 613:Source\azure_iot_sdk\uamqp\src/amqp_management.c ****             }
 614:Source\azure_iot_sdk\uamqp\src/amqp_management.c **** 
 615:Source\azure_iot_sdk\uamqp\src/amqp_management.c ****             /* Codes_SRS_AMQP_MANAGEMENT_01_100: [ After setting the properties, the properties ins
 616:Source\azure_iot_sdk\uamqp\src/amqp_management.c ****             properties_destroy(properties);
 617:Source\azure_iot_sdk\uamqp\src/amqp_management.c ****         }
 618:Source\azure_iot_sdk\uamqp\src/amqp_management.c ****     }
 619:Source\azure_iot_sdk\uamqp\src/amqp_management.c **** 
 620:Source\azure_iot_sdk\uamqp\src/amqp_management.c ****     return result;
 621:Source\azure_iot_sdk\uamqp\src/amqp_management.c **** }
 622:Source\azure_iot_sdk\uamqp\src/amqp_management.c **** 
 623:Source\azure_iot_sdk\uamqp\src/amqp_management.c **** static int add_string_key_value_pair_to_map(AMQP_VALUE map, const char* key, const char* value)
 624:Source\azure_iot_sdk\uamqp\src/amqp_management.c **** {
 625:Source\azure_iot_sdk\uamqp\src/amqp_management.c ****     int result;
 626:Source\azure_iot_sdk\uamqp\src/amqp_management.c **** 
 627:Source\azure_iot_sdk\uamqp\src/amqp_management.c ****     /* Codes_SRS_AMQP_MANAGEMENT_01_084: [ For each of the arguments `operation`, `type` and `local
 628:Source\azure_iot_sdk\uamqp\src/amqp_management.c ****     AMQP_VALUE key_value = amqpvalue_create_string(key);
 629:Source\azure_iot_sdk\uamqp\src/amqp_management.c ****     if (key_value == NULL)
 630:Source\azure_iot_sdk\uamqp\src/amqp_management.c ****     {
ARM GAS  C:\Users\Phuong\AppData\Local\Temp\ccdTtd1y.s 			page 18


 631:Source\azure_iot_sdk\uamqp\src/amqp_management.c ****         /* Codes_SRS_AMQP_MANAGEMENT_01_090: [ If any APIs used to create and set the application p
 632:Source\azure_iot_sdk\uamqp\src/amqp_management.c ****         LogError("Could not create key value for %s", key);
 633:Source\azure_iot_sdk\uamqp\src/amqp_management.c ****         result = __FAILURE__;
 634:Source\azure_iot_sdk\uamqp\src/amqp_management.c ****     }
 635:Source\azure_iot_sdk\uamqp\src/amqp_management.c ****     else
 636:Source\azure_iot_sdk\uamqp\src/amqp_management.c ****     {
 637:Source\azure_iot_sdk\uamqp\src/amqp_management.c ****         /* Codes_SRS_AMQP_MANAGEMENT_01_085: [ For each of the arguments `operation`, `type` and `l
 638:Source\azure_iot_sdk\uamqp\src/amqp_management.c ****         AMQP_VALUE value_value = amqpvalue_create_string(value);
 639:Source\azure_iot_sdk\uamqp\src/amqp_management.c ****         if (value_value == NULL)
 640:Source\azure_iot_sdk\uamqp\src/amqp_management.c ****         {
 641:Source\azure_iot_sdk\uamqp\src/amqp_management.c ****             /* Codes_SRS_AMQP_MANAGEMENT_01_090: [ If any APIs used to create and set the applicati
 642:Source\azure_iot_sdk\uamqp\src/amqp_management.c ****             LogError("Could not create value for key %s", key);
 643:Source\azure_iot_sdk\uamqp\src/amqp_management.c ****             result = __FAILURE__;
 644:Source\azure_iot_sdk\uamqp\src/amqp_management.c ****         }
 645:Source\azure_iot_sdk\uamqp\src/amqp_management.c ****         else
 646:Source\azure_iot_sdk\uamqp\src/amqp_management.c ****         {
 647:Source\azure_iot_sdk\uamqp\src/amqp_management.c ****             /* Codes_SRS_AMQP_MANAGEMENT_01_086: [ The key/value pairs for `operation`, `type` and 
 648:Source\azure_iot_sdk\uamqp\src/amqp_management.c ****             if (amqpvalue_set_map_value(map, key_value, value_value) != 0)
 649:Source\azure_iot_sdk\uamqp\src/amqp_management.c ****             {
 650:Source\azure_iot_sdk\uamqp\src/amqp_management.c ****                 /* Codes_SRS_AMQP_MANAGEMENT_01_090: [ If any APIs used to create and set the appli
 651:Source\azure_iot_sdk\uamqp\src/amqp_management.c ****                 LogError("Could not set the value in the map for key %s", key);
 652:Source\azure_iot_sdk\uamqp\src/amqp_management.c ****                 result = __FAILURE__;
 653:Source\azure_iot_sdk\uamqp\src/amqp_management.c ****             }
 654:Source\azure_iot_sdk\uamqp\src/amqp_management.c ****             else
 655:Source\azure_iot_sdk\uamqp\src/amqp_management.c ****             {
 656:Source\azure_iot_sdk\uamqp\src/amqp_management.c ****                 result = 0;
 657:Source\azure_iot_sdk\uamqp\src/amqp_management.c ****             }
 658:Source\azure_iot_sdk\uamqp\src/amqp_management.c **** 
 659:Source\azure_iot_sdk\uamqp\src/amqp_management.c ****             amqpvalue_destroy(value_value);
 660:Source\azure_iot_sdk\uamqp\src/amqp_management.c ****         }
 661:Source\azure_iot_sdk\uamqp\src/amqp_management.c **** 
 662:Source\azure_iot_sdk\uamqp\src/amqp_management.c ****         amqpvalue_destroy(key_value);
 663:Source\azure_iot_sdk\uamqp\src/amqp_management.c ****     }
 664:Source\azure_iot_sdk\uamqp\src/amqp_management.c **** 
 665:Source\azure_iot_sdk\uamqp\src/amqp_management.c ****     return result;
 666:Source\azure_iot_sdk\uamqp\src/amqp_management.c **** }
 667:Source\azure_iot_sdk\uamqp\src/amqp_management.c **** 
 668:Source\azure_iot_sdk\uamqp\src/amqp_management.c **** static int internal_set_status_code_key_name(AMQP_MANAGEMENT_HANDLE amqp_management, const char* st
 669:Source\azure_iot_sdk\uamqp\src/amqp_management.c **** {
 318              		.loc 1 669 0
 319              		.cfi_startproc
 320              		@ args = 0, pretend = 0, frame = 8
 321              		@ frame_needed = 0, uses_anonymous_args = 0
 322              	.LVL44:
 323 0000 10B5     		push	{r4, lr}
 324              		.cfi_def_cfa_offset 8
 325              		.cfi_offset 4, -8
 326              		.cfi_offset 14, -4
 327 0002 84B0     		sub	sp, sp, #16
 328              		.cfi_def_cfa_offset 24
 329 0004 0400     		movs	r4, r0
 670:Source\azure_iot_sdk\uamqp\src/amqp_management.c ****     int result;
 671:Source\azure_iot_sdk\uamqp\src/amqp_management.c ****     char* copied_status_code_key_name;
 672:Source\azure_iot_sdk\uamqp\src/amqp_management.c ****     if (mallocAndStrcpy_s(&copied_status_code_key_name, status_code_key_name) != 0)
 330              		.loc 1 672 0
 331 0006 03A8     		add	r0, sp, #12
 332              	.LVL45:
ARM GAS  C:\Users\Phuong\AppData\Local\Temp\ccdTtd1y.s 			page 19


 333 0008 FFF7FEFF 		bl	mallocAndStrcpy_s
 334              	.LVL46:
 335 000c 0028     		cmp	r0, #0
 336 000e 0FD0     		beq	.L24
 337              	.LBB6:
 673:Source\azure_iot_sdk\uamqp\src/amqp_management.c ****     {
 674:Source\azure_iot_sdk\uamqp\src/amqp_management.c ****         LogError("Cannot copy status code key name");
 338              		.loc 1 674 0 discriminator 3
 339 0010 FFF7FEFF 		bl	xlogging_get_log_function
 340              	.LVL47:
 341 0014 041E     		subs	r4, r0, #0
 342              	.LVL48:
 343 0016 14D0     		beq	.L27
 344              		.loc 1 674 0 is_stmt 0 discriminator 4
 345 0018 0B4B     		ldr	r3, .L28
 346 001a 0193     		str	r3, [sp, #4]
 347 001c 0123     		movs	r3, #1
 348 001e 0093     		str	r3, [sp]
 349 0020 0A4B     		ldr	r3, .L28+4
 350 0022 0B4A     		ldr	r2, .L28+8
 351 0024 4432     		adds	r2, r2, #68
 352 0026 0B49     		ldr	r1, .L28+12
 353 0028 0020     		movs	r0, #0
 354              	.LVL49:
 355 002a A047     		blx	r4
 356              	.LVL50:
 357              	.LBE6:
 675:Source\azure_iot_sdk\uamqp\src/amqp_management.c ****         result = __FAILURE__;
 358              		.loc 1 675 0 is_stmt 1 discriminator 4
 359 002c 0A48     		ldr	r0, .L28+16
 360 002e 09E0     		b	.L25
 361              	.LVL51:
 362              	.L24:
 676:Source\azure_iot_sdk\uamqp\src/amqp_management.c ****     }
 677:Source\azure_iot_sdk\uamqp\src/amqp_management.c ****     else
 678:Source\azure_iot_sdk\uamqp\src/amqp_management.c ****     {
 679:Source\azure_iot_sdk\uamqp\src/amqp_management.c ****         if (amqp_management->status_code_key_name != NULL)
 363              		.loc 1 679 0
 364 0030 606B     		ldr	r0, [r4, #52]
 365 0032 0028     		cmp	r0, #0
 366 0034 01D0     		beq	.L26
 680:Source\azure_iot_sdk\uamqp\src/amqp_management.c ****         {
 681:Source\azure_iot_sdk\uamqp\src/amqp_management.c ****             free(amqp_management->status_code_key_name);
 367              		.loc 1 681 0
 368 0036 FFF7FEFF 		bl	free
 369              	.LVL52:
 370              	.L26:
 682:Source\azure_iot_sdk\uamqp\src/amqp_management.c ****         }
 683:Source\azure_iot_sdk\uamqp\src/amqp_management.c **** 
 684:Source\azure_iot_sdk\uamqp\src/amqp_management.c ****         amqp_management->status_code_key_name = copied_status_code_key_name;
 371              		.loc 1 684 0
 372 003a 039B     		ldr	r3, [sp, #12]
 373 003c 6363     		str	r3, [r4, #52]
 374              	.LVL53:
 685:Source\azure_iot_sdk\uamqp\src/amqp_management.c ****         result = 0;
 375              		.loc 1 685 0
 376 003e 0020     		movs	r0, #0
ARM GAS  C:\Users\Phuong\AppData\Local\Temp\ccdTtd1y.s 			page 20


 377 0040 00E0     		b	.L25
 378              	.LVL54:
 379              	.L27:
 675:Source\azure_iot_sdk\uamqp\src/amqp_management.c ****     }
 380              		.loc 1 675 0
 381 0042 0548     		ldr	r0, .L28+16
 382              	.LVL55:
 383              	.L25:
 686:Source\azure_iot_sdk\uamqp\src/amqp_management.c ****     }
 687:Source\azure_iot_sdk\uamqp\src/amqp_management.c **** 
 688:Source\azure_iot_sdk\uamqp\src/amqp_management.c ****     return result;
 689:Source\azure_iot_sdk\uamqp\src/amqp_management.c **** }
 384              		.loc 1 689 0
 385 0044 04B0     		add	sp, sp, #16
 386              		@ sp needed
 387 0046 10BD     		pop	{r4, pc}
 388              	.L29:
 389              		.align	2
 390              	.L28:
 391 0048 AC000000 		.word	.LC11
 392 004c A2020000 		.word	674
 393 0050 00000000 		.word	.LANCHOR0
 394 0054 00000000 		.word	.LC1
 395 0058 A3020000 		.word	675
 396              		.cfi_endproc
 397              	.LFE7:
 398              		.size	internal_set_status_code_key_name, .-internal_set_status_code_key_name
 399              		.section	.text.internal_set_status_description_key_name,"ax",%progbits
 400              		.align	2
 401              		.code	16
 402              		.thumb_func
 403              		.type	internal_set_status_description_key_name, %function
 404              	internal_set_status_description_key_name:
 405              	.LFB8:
 690:Source\azure_iot_sdk\uamqp\src/amqp_management.c **** 
 691:Source\azure_iot_sdk\uamqp\src/amqp_management.c **** static int internal_set_status_description_key_name(AMQP_MANAGEMENT_HANDLE amqp_management, const c
 692:Source\azure_iot_sdk\uamqp\src/amqp_management.c **** {
 406              		.loc 1 692 0
 407              		.cfi_startproc
 408              		@ args = 0, pretend = 0, frame = 8
 409              		@ frame_needed = 0, uses_anonymous_args = 0
 410              	.LVL56:
 411 0000 10B5     		push	{r4, lr}
 412              		.cfi_def_cfa_offset 8
 413              		.cfi_offset 4, -8
 414              		.cfi_offset 14, -4
 415 0002 84B0     		sub	sp, sp, #16
 416              		.cfi_def_cfa_offset 24
 417 0004 0400     		movs	r4, r0
 693:Source\azure_iot_sdk\uamqp\src/amqp_management.c ****     int result;
 694:Source\azure_iot_sdk\uamqp\src/amqp_management.c ****     char* copied_status_description_key_name;
 695:Source\azure_iot_sdk\uamqp\src/amqp_management.c ****     if (mallocAndStrcpy_s(&copied_status_description_key_name, status_description_key_name) != 0)
 418              		.loc 1 695 0
 419 0006 03A8     		add	r0, sp, #12
 420              	.LVL57:
 421 0008 FFF7FEFF 		bl	mallocAndStrcpy_s
 422              	.LVL58:
ARM GAS  C:\Users\Phuong\AppData\Local\Temp\ccdTtd1y.s 			page 21


 423 000c 0028     		cmp	r0, #0
 424 000e 0FD0     		beq	.L31
 425              	.LBB7:
 696:Source\azure_iot_sdk\uamqp\src/amqp_management.c ****     {
 697:Source\azure_iot_sdk\uamqp\src/amqp_management.c ****         LogError("Cannot copy status description key name");
 426              		.loc 1 697 0 discriminator 3
 427 0010 FFF7FEFF 		bl	xlogging_get_log_function
 428              	.LVL59:
 429 0014 041E     		subs	r4, r0, #0
 430              	.LVL60:
 431 0016 14D0     		beq	.L34
 432              		.loc 1 697 0 is_stmt 0 discriminator 4
 433 0018 0B4B     		ldr	r3, .L35
 434 001a 0193     		str	r3, [sp, #4]
 435 001c 0123     		movs	r3, #1
 436 001e 0093     		str	r3, [sp]
 437 0020 0A4B     		ldr	r3, .L35+4
 438 0022 0B4A     		ldr	r2, .L35+8
 439 0024 6832     		adds	r2, r2, #104
 440 0026 0B49     		ldr	r1, .L35+12
 441 0028 0020     		movs	r0, #0
 442              	.LVL61:
 443 002a A047     		blx	r4
 444              	.LVL62:
 445              	.LBE7:
 698:Source\azure_iot_sdk\uamqp\src/amqp_management.c ****         result = __FAILURE__;
 446              		.loc 1 698 0 is_stmt 1 discriminator 4
 447 002c 0A48     		ldr	r0, .L35+16
 448 002e 09E0     		b	.L32
 449              	.LVL63:
 450              	.L31:
 699:Source\azure_iot_sdk\uamqp\src/amqp_management.c ****     }
 700:Source\azure_iot_sdk\uamqp\src/amqp_management.c ****     else
 701:Source\azure_iot_sdk\uamqp\src/amqp_management.c ****     {
 702:Source\azure_iot_sdk\uamqp\src/amqp_management.c ****         if (amqp_management->status_description_key_name != NULL)
 451              		.loc 1 702 0
 452 0030 A06B     		ldr	r0, [r4, #56]
 453 0032 0028     		cmp	r0, #0
 454 0034 01D0     		beq	.L33
 703:Source\azure_iot_sdk\uamqp\src/amqp_management.c ****         {
 704:Source\azure_iot_sdk\uamqp\src/amqp_management.c ****             free(amqp_management->status_description_key_name);
 455              		.loc 1 704 0
 456 0036 FFF7FEFF 		bl	free
 457              	.LVL64:
 458              	.L33:
 705:Source\azure_iot_sdk\uamqp\src/amqp_management.c ****         }
 706:Source\azure_iot_sdk\uamqp\src/amqp_management.c **** 
 707:Source\azure_iot_sdk\uamqp\src/amqp_management.c ****         amqp_management->status_description_key_name = copied_status_description_key_name;
 459              		.loc 1 707 0
 460 003a 039B     		ldr	r3, [sp, #12]
 461 003c A363     		str	r3, [r4, #56]
 462              	.LVL65:
 708:Source\azure_iot_sdk\uamqp\src/amqp_management.c ****         result = 0;
 463              		.loc 1 708 0
 464 003e 0020     		movs	r0, #0
 465 0040 00E0     		b	.L32
 466              	.LVL66:
ARM GAS  C:\Users\Phuong\AppData\Local\Temp\ccdTtd1y.s 			page 22


 467              	.L34:
 698:Source\azure_iot_sdk\uamqp\src/amqp_management.c ****     }
 468              		.loc 1 698 0
 469 0042 0548     		ldr	r0, .L35+16
 470              	.LVL67:
 471              	.L32:
 709:Source\azure_iot_sdk\uamqp\src/amqp_management.c ****     }
 710:Source\azure_iot_sdk\uamqp\src/amqp_management.c **** 
 711:Source\azure_iot_sdk\uamqp\src/amqp_management.c ****     return result;
 712:Source\azure_iot_sdk\uamqp\src/amqp_management.c **** }
 472              		.loc 1 712 0
 473 0044 04B0     		add	sp, sp, #16
 474              		@ sp needed
 475 0046 10BD     		pop	{r4, pc}
 476              	.L36:
 477              		.align	2
 478              	.L35:
 479 0048 D0000000 		.word	.LC15
 480 004c B9020000 		.word	697
 481 0050 00000000 		.word	.LANCHOR0
 482 0054 00000000 		.word	.LC1
 483 0058 BA020000 		.word	698
 484              		.cfi_endproc
 485              	.LFE8:
 486              		.size	internal_set_status_description_key_name, .-internal_set_status_description_key_name
 487              		.section	.text.on_message_send_complete,"ax",%progbits
 488              		.align	2
 489              		.code	16
 490              		.thumb_func
 491              		.type	on_message_send_complete, %function
 492              	on_message_send_complete:
 493              	.LFB2:
 336:Source\azure_iot_sdk\uamqp\src/amqp_management.c ****     (void)delivery_state;
 494              		.loc 1 336 0
 495              		.cfi_startproc
 496              		@ args = 0, pretend = 0, frame = 0
 497              		@ frame_needed = 0, uses_anonymous_args = 0
 498              	.LVL68:
 499 0000 70B5     		push	{r4, r5, r6, lr}
 500              		.cfi_def_cfa_offset 16
 501              		.cfi_offset 4, -16
 502              		.cfi_offset 5, -12
 503              		.cfi_offset 6, -8
 504              		.cfi_offset 14, -4
 505 0002 82B0     		sub	sp, sp, #8
 506              		.cfi_def_cfa_offset 24
 507 0004 041E     		subs	r4, r0, #0
 339:Source\azure_iot_sdk\uamqp\src/amqp_management.c ****     {
 508              		.loc 1 339 0
 509 0006 0FD1     		bne	.L38
 510              	.LBB8:
 342:Source\azure_iot_sdk\uamqp\src/amqp_management.c ****     }
 511              		.loc 1 342 0 discriminator 3
 512 0008 FFF7FEFF 		bl	xlogging_get_log_function
 513              	.LVL69:
 514 000c 041E     		subs	r4, r0, #0
 515              	.LVL70:
ARM GAS  C:\Users\Phuong\AppData\Local\Temp\ccdTtd1y.s 			page 23


 516 000e 34D0     		beq	.L37
 342:Source\azure_iot_sdk\uamqp\src/amqp_management.c ****     }
 517              		.loc 1 342 0 is_stmt 0 discriminator 4
 518 0010 1B4B     		ldr	r3, .L41
 519 0012 0193     		str	r3, [sp, #4]
 520 0014 0123     		movs	r3, #1
 521 0016 0093     		str	r3, [sp]
 522 0018 5633     		adds	r3, r3, #86
 523 001a FF33     		adds	r3, r3, #255
 524 001c 194A     		ldr	r2, .L41+4
 525 001e 1432     		adds	r2, r2, #20
 526 0020 1949     		ldr	r1, .L41+8
 527 0022 0020     		movs	r0, #0
 528              	.LVL71:
 529 0024 A047     		blx	r4
 530              	.LVL72:
 531 0026 28E0     		b	.L37
 532              	.LVL73:
 533              	.L38:
 534              	.LBE8:
 346:Source\azure_iot_sdk\uamqp\src/amqp_management.c ****         {
 535              		.loc 1 346 0 is_stmt 1
 536 0028 0029     		cmp	r1, #0
 537 002a 26D0     		beq	.L37
 538              	.LVL74:
 539              	.LBB9:
 357:Source\azure_iot_sdk\uamqp\src/amqp_management.c ****             AMQP_MANAGEMENT_HANDLE amqp_management = pending_operation_message->amqp_management;
 540              		.loc 1 357 0
 541 002c FFF7FEFF 		bl	singlylinkedlist_item_get_value
 542              	.LVL75:
 543 0030 0500     		movs	r5, r0
 544              	.LVL76:
 358:Source\azure_iot_sdk\uamqp\src/amqp_management.c **** 
 545              		.loc 1 358 0
 546 0032 0669     		ldr	r6, [r0, #16]
 547              	.LVL77:
 361:Source\azure_iot_sdk\uamqp\src/amqp_management.c ****             {
 548              		.loc 1 361 0
 549 0034 2100     		movs	r1, r4
 550 0036 3069     		ldr	r0, [r6, #16]
 551              	.LVL78:
 552 0038 FFF7FEFF 		bl	singlylinkedlist_remove
 553              	.LVL79:
 554 003c 0028     		cmp	r0, #0
 555 003e 12D0     		beq	.L40
 364:Source\azure_iot_sdk\uamqp\src/amqp_management.c ****                 LogError("Cannot remove pending operation");
 556              		.loc 1 364 0
 557 0040 B36A     		ldr	r3, [r6, #40]
 558 0042 F06A     		ldr	r0, [r6, #44]
 559 0044 9847     		blx	r3
 560              	.LVL80:
 561              	.LBB10:
 365:Source\azure_iot_sdk\uamqp\src/amqp_management.c ****             }
 562              		.loc 1 365 0
 563 0046 FFF7FEFF 		bl	xlogging_get_log_function
 564              	.LVL81:
 565 004a 041E     		subs	r4, r0, #0
ARM GAS  C:\Users\Phuong\AppData\Local\Temp\ccdTtd1y.s 			page 24


 566              	.LVL82:
 567 004c 15D0     		beq	.L37
 365:Source\azure_iot_sdk\uamqp\src/amqp_management.c ****             }
 568              		.loc 1 365 0 is_stmt 0 discriminator 4
 569 004e 0F4B     		ldr	r3, .L41+12
 570 0050 0193     		str	r3, [sp, #4]
 571 0052 0123     		movs	r3, #1
 572 0054 0093     		str	r3, [sp]
 573 0056 6E23     		movs	r3, #110
 574 0058 FF33     		adds	r3, r3, #255
 575 005a 0A4A     		ldr	r2, .L41+4
 576 005c 1432     		adds	r2, r2, #20
 577 005e 0A49     		ldr	r1, .L41+8
 578 0060 0020     		movs	r0, #0
 579              	.LVL83:
 580 0062 A047     		blx	r4
 581              	.LVL84:
 582 0064 09E0     		b	.L37
 583              	.LVL85:
 584              	.L40:
 585              	.LBE10:
 370:Source\azure_iot_sdk\uamqp\src/amqp_management.c ****                 free(pending_operation_message);
 586              		.loc 1 370 0 is_stmt 1
 587 0066 2C68     		ldr	r4, [r5]
 588              	.LVL86:
 589 0068 6868     		ldr	r0, [r5, #4]
 590 006a 0023     		movs	r3, #0
 591 006c 0093     		str	r3, [sp]
 592 006e 0022     		movs	r2, #0
 593 0070 0121     		movs	r1, #1
 594 0072 A047     		blx	r4
 595              	.LVL87:
 371:Source\azure_iot_sdk\uamqp\src/amqp_management.c ****             }
 596              		.loc 1 371 0
 597 0074 2800     		movs	r0, r5
 598 0076 FFF7FEFF 		bl	free
 599              	.LVL88:
 600              	.L37:
 601              	.LBE9:
 375:Source\azure_iot_sdk\uamqp\src/amqp_management.c **** 
 602              		.loc 1 375 0
 603 007a 02B0     		add	sp, sp, #8
 604              		@ sp needed
 605 007c 70BD     		pop	{r4, r5, r6, pc}
 606              	.L42:
 607 007e C046     		.align	2
 608              	.L41:
 609 0080 F8000000 		.word	.LC19
 610 0084 80000000 		.word	.LANCHOR1
 611 0088 00000000 		.word	.LC1
 612 008c 08010000 		.word	.LC21
 613              		.cfi_endproc
 614              	.LFE2:
 615              		.size	on_message_send_complete, .-on_message_send_complete
 616              		.section	.text.on_message_received,"ax",%progbits
 617              		.align	2
 618              		.code	16
ARM GAS  C:\Users\Phuong\AppData\Local\Temp\ccdTtd1y.s 			page 25


 619              		.thumb_func
 620              		.type	on_message_received, %function
 621              	on_message_received:
 622              	.LFB1:
  62:Source\azure_iot_sdk\uamqp\src/amqp_management.c ****     AMQP_VALUE result;
 623              		.loc 1 62 0
 624              		.cfi_startproc
 625              		@ args = 0, pretend = 0, frame = 48
 626              		@ frame_needed = 0, uses_anonymous_args = 0
 627              	.LVL89:
 628 0000 F0B5     		push	{r4, r5, r6, r7, lr}
 629              		.cfi_def_cfa_offset 20
 630              		.cfi_offset 4, -20
 631              		.cfi_offset 5, -16
 632              		.cfi_offset 6, -12
 633              		.cfi_offset 7, -8
 634              		.cfi_offset 14, -4
 635 0002 5F46     		mov	r7, fp
 636 0004 5646     		mov	r6, r10
 637 0006 C0B4     		push	{r6, r7}
 638              		.cfi_def_cfa_offset 28
 639              		.cfi_offset 10, -28
 640              		.cfi_offset 11, -24
 641 0008 8FB0     		sub	sp, sp, #60
 642              		.cfi_def_cfa_offset 88
 643 000a 0700     		movs	r7, r0
 644 000c 0C00     		movs	r4, r1
  65:Source\azure_iot_sdk\uamqp\src/amqp_management.c ****     {
 645              		.loc 1 65 0
 646 000e 0028     		cmp	r0, #0
 647 0010 10D1     		bne	.L44
 648              	.LBB11:
  68:Source\azure_iot_sdk\uamqp\src/amqp_management.c ****         result = NULL;
 649              		.loc 1 68 0 discriminator 3
 650 0012 FFF7FEFF 		bl	xlogging_get_log_function
 651              	.LVL90:
 652 0016 041E     		subs	r4, r0, #0
 653              	.LVL91:
 654 0018 00D1     		bne	.LCB686
 655 001a E2E1     		b	.L83	@long jump
 656              	.LCB686:
  68:Source\azure_iot_sdk\uamqp\src/amqp_management.c ****         result = NULL;
 657              		.loc 1 68 0 is_stmt 0 discriminator 4
 658 001c C34B     		ldr	r3, .L87
 659 001e 0193     		str	r3, [sp, #4]
 660 0020 0123     		movs	r3, #1
 661 0022 0093     		str	r3, [sp]
 662 0024 4333     		adds	r3, r3, #67
 663 0026 C24A     		ldr	r2, .L87+4
 664 0028 3032     		adds	r2, r2, #48
 665 002a C249     		ldr	r1, .L87+8
 666 002c 0020     		movs	r0, #0
 667              	.LVL92:
 668 002e A047     		blx	r4
 669              	.LVL93:
 670              	.LBE11:
  69:Source\azure_iot_sdk\uamqp\src/amqp_management.c ****     }
ARM GAS  C:\Users\Phuong\AppData\Local\Temp\ccdTtd1y.s 			page 26


 671              		.loc 1 69 0 is_stmt 1 discriminator 4
 672 0030 0024     		movs	r4, #0
 673              	.LVL94:
 674 0032 D7E1     		b	.L45
 675              	.LVL95:
 676              	.L44:
 677              	.LBB12:
  77:Source\azure_iot_sdk\uamqp\src/amqp_management.c ****         {
 678              		.loc 1 77 0
 679 0034 07A9     		add	r1, sp, #28
 680              	.LVL96:
 681 0036 2000     		movs	r0, r4
 682              	.LVL97:
 683 0038 FFF7FEFF 		bl	message_get_application_properties
 684              	.LVL98:
 685 003c 0028     		cmp	r0, #0
 686 003e 16D0     		beq	.L46
 687              	.LBB13:
  80:Source\azure_iot_sdk\uamqp\src/amqp_management.c ****             amqp_management->on_amqp_management_error(amqp_management->on_amqp_management_error_con
 688              		.loc 1 80 0 discriminator 3
 689 0040 FFF7FEFF 		bl	xlogging_get_log_function
 690              	.LVL99:
 691 0044 041E     		subs	r4, r0, #0
 692              	.LVL100:
 693 0046 09D0     		beq	.L47
  80:Source\azure_iot_sdk\uamqp\src/amqp_management.c ****             amqp_management->on_amqp_management_error(amqp_management->on_amqp_management_error_con
 694              		.loc 1 80 0 is_stmt 0 discriminator 4
 695 0048 BB4B     		ldr	r3, .L87+12
 696 004a 0193     		str	r3, [sp, #4]
 697 004c 0123     		movs	r3, #1
 698 004e 0093     		str	r3, [sp]
 699 0050 4F33     		adds	r3, r3, #79
 700 0052 B74A     		ldr	r2, .L87+4
 701 0054 3032     		adds	r2, r2, #48
 702 0056 B749     		ldr	r1, .L87+8
 703 0058 0020     		movs	r0, #0
 704              	.LVL101:
 705 005a A047     		blx	r4
 706              	.LVL102:
 707              	.L47:
 708              	.LBE13:
  81:Source\azure_iot_sdk\uamqp\src/amqp_management.c ****             /* Codes_SRS_AMQP_MANAGEMENT_01_136: [ When `on_message_received` fails due to errors i
 709              		.loc 1 81 0 is_stmt 1
 710 005c BB6A     		ldr	r3, [r7, #40]
 711 005e F86A     		ldr	r0, [r7, #44]
 712 0060 9847     		blx	r3
 713              	.LVL103:
  83:Source\azure_iot_sdk\uamqp\src/amqp_management.c ****         }
 714              		.loc 1 83 0
 715 0062 B649     		ldr	r1, .L87+16
 716 0064 B648     		ldr	r0, .L87+20
 717 0066 FFF7FEFF 		bl	messaging_delivery_rejected
 718              	.LVL104:
 719 006a 0400     		movs	r4, r0
 720              	.LVL105:
 721 006c BAE1     		b	.L45
 722              	.LVL106:
ARM GAS  C:\Users\Phuong\AppData\Local\Temp\ccdTtd1y.s 			page 27


 723              	.L46:
 724              	.LBB14:
  90:Source\azure_iot_sdk\uamqp\src/amqp_management.c ****             {
 725              		.loc 1 90 0
 726 006e 08A9     		add	r1, sp, #32
 727 0070 2000     		movs	r0, r4
 728 0072 FFF7FEFF 		bl	message_get_properties
 729              	.LVL107:
 730 0076 0028     		cmp	r0, #0
 731 0078 16D0     		beq	.L49
 732              	.LBB15:
  93:Source\azure_iot_sdk\uamqp\src/amqp_management.c ****                 amqp_management->on_amqp_management_error(amqp_management->on_amqp_management_error
 733              		.loc 1 93 0 discriminator 3
 734 007a FFF7FEFF 		bl	xlogging_get_log_function
 735              	.LVL108:
 736 007e 041E     		subs	r4, r0, #0
 737              	.LVL109:
 738 0080 09D0     		beq	.L50
  93:Source\azure_iot_sdk\uamqp\src/amqp_management.c ****                 amqp_management->on_amqp_management_error(amqp_management->on_amqp_management_error
 739              		.loc 1 93 0 is_stmt 0 discriminator 4
 740 0082 B04B     		ldr	r3, .L87+24
 741 0084 0193     		str	r3, [sp, #4]
 742 0086 0123     		movs	r3, #1
 743 0088 0093     		str	r3, [sp]
 744 008a 5C33     		adds	r3, r3, #92
 745 008c A84A     		ldr	r2, .L87+4
 746 008e 3032     		adds	r2, r2, #48
 747 0090 A849     		ldr	r1, .L87+8
 748 0092 0020     		movs	r0, #0
 749              	.LVL110:
 750 0094 A047     		blx	r4
 751              	.LVL111:
 752              	.L50:
 753              	.LBE15:
  94:Source\azure_iot_sdk\uamqp\src/amqp_management.c ****                 /* Codes_SRS_AMQP_MANAGEMENT_01_136: [ When `on_message_received` fails due to erro
 754              		.loc 1 94 0 is_stmt 1
 755 0096 BB6A     		ldr	r3, [r7, #40]
 756 0098 F86A     		ldr	r0, [r7, #44]
 757 009a 9847     		blx	r3
 758              	.LVL112:
  96:Source\azure_iot_sdk\uamqp\src/amqp_management.c ****             }
 759              		.loc 1 96 0
 760 009c AA49     		ldr	r1, .L87+28
 761 009e A848     		ldr	r0, .L87+20
 762 00a0 FFF7FEFF 		bl	messaging_delivery_rejected
 763              	.LVL113:
 764 00a4 0400     		movs	r4, r0
 765              	.LVL114:
 766 00a6 98E1     		b	.L51
 767              	.LVL115:
 768              	.L49:
 769              	.LBB16:
 109:Source\azure_iot_sdk\uamqp\src/amqp_management.c ****                 {
 770              		.loc 1 109 0
 771 00a8 09A9     		add	r1, sp, #36
 772 00aa 0898     		ldr	r0, [sp, #32]
 773 00ac FFF7FEFF 		bl	properties_get_correlation_id
ARM GAS  C:\Users\Phuong\AppData\Local\Temp\ccdTtd1y.s 			page 28


 774              	.LVL116:
 775 00b0 0028     		cmp	r0, #0
 776 00b2 16D0     		beq	.L52
 777              	.LBB17:
 112:Source\azure_iot_sdk\uamqp\src/amqp_management.c ****                     amqp_management->on_amqp_management_error(amqp_management->on_amqp_management_e
 778              		.loc 1 112 0 discriminator 3
 779 00b4 FFF7FEFF 		bl	xlogging_get_log_function
 780              	.LVL117:
 781 00b8 041E     		subs	r4, r0, #0
 782              	.LVL118:
 783 00ba 09D0     		beq	.L53
 112:Source\azure_iot_sdk\uamqp\src/amqp_management.c ****                     amqp_management->on_amqp_management_error(amqp_management->on_amqp_management_e
 784              		.loc 1 112 0 is_stmt 0 discriminator 4
 785 00bc A34B     		ldr	r3, .L87+32
 786 00be 0193     		str	r3, [sp, #4]
 787 00c0 0123     		movs	r3, #1
 788 00c2 0093     		str	r3, [sp]
 789 00c4 6F33     		adds	r3, r3, #111
 790 00c6 9A4A     		ldr	r2, .L87+4
 791 00c8 3032     		adds	r2, r2, #48
 792 00ca 9A49     		ldr	r1, .L87+8
 793 00cc 0020     		movs	r0, #0
 794              	.LVL119:
 795 00ce A047     		blx	r4
 796              	.LVL120:
 797              	.L53:
 798              	.LBE17:
 113:Source\azure_iot_sdk\uamqp\src/amqp_management.c ****                     /* Codes_SRS_AMQP_MANAGEMENT_01_136: [ When `on_message_received` fails due to 
 799              		.loc 1 113 0 is_stmt 1
 800 00d0 BB6A     		ldr	r3, [r7, #40]
 801 00d2 F86A     		ldr	r0, [r7, #44]
 802 00d4 9847     		blx	r3
 803              	.LVL121:
 115:Source\azure_iot_sdk\uamqp\src/amqp_management.c ****                 }
 804              		.loc 1 115 0
 805 00d6 9E49     		ldr	r1, .L87+36
 806 00d8 9948     		ldr	r0, .L87+20
 807 00da FFF7FEFF 		bl	messaging_delivery_rejected
 808              	.LVL122:
 809 00de 0400     		movs	r4, r0
 810              	.LVL123:
 811 00e0 78E1     		b	.L54
 812              	.LVL124:
 813              	.L52:
 119:Source\azure_iot_sdk\uamqp\src/amqp_management.c ****                     {
 814              		.loc 1 119 0
 815 00e2 0CA9     		add	r1, sp, #48
 816 00e4 0998     		ldr	r0, [sp, #36]
 817 00e6 FFF7FEFF 		bl	amqpvalue_get_ulong
 818              	.LVL125:
 819 00ea 0028     		cmp	r0, #0
 820 00ec 16D0     		beq	.L55
 821              	.LBB18:
 122:Source\azure_iot_sdk\uamqp\src/amqp_management.c ****                         amqp_management->on_amqp_management_error(amqp_management->on_amqp_manageme
 822              		.loc 1 122 0 discriminator 3
 823 00ee FFF7FEFF 		bl	xlogging_get_log_function
 824              	.LVL126:
ARM GAS  C:\Users\Phuong\AppData\Local\Temp\ccdTtd1y.s 			page 29


 825 00f2 041E     		subs	r4, r0, #0
 826              	.LVL127:
 827 00f4 09D0     		beq	.L56
 122:Source\azure_iot_sdk\uamqp\src/amqp_management.c ****                         amqp_management->on_amqp_management_error(amqp_management->on_amqp_manageme
 828              		.loc 1 122 0 is_stmt 0 discriminator 4
 829 00f6 974B     		ldr	r3, .L87+40
 830 00f8 0193     		str	r3, [sp, #4]
 831 00fa 0123     		movs	r3, #1
 832 00fc 0093     		str	r3, [sp]
 833 00fe 7933     		adds	r3, r3, #121
 834 0100 8B4A     		ldr	r2, .L87+4
 835 0102 3032     		adds	r2, r2, #48
 836 0104 8B49     		ldr	r1, .L87+8
 837 0106 0020     		movs	r0, #0
 838              	.LVL128:
 839 0108 A047     		blx	r4
 840              	.LVL129:
 841              	.L56:
 842              	.LBE18:
 123:Source\azure_iot_sdk\uamqp\src/amqp_management.c ****                         /* Codes_SRS_AMQP_MANAGEMENT_01_136: [ When `on_message_received` fails due
 843              		.loc 1 123 0 is_stmt 1
 844 010a BB6A     		ldr	r3, [r7, #40]
 845 010c F86A     		ldr	r0, [r7, #44]
 846 010e 9847     		blx	r3
 847              	.LVL130:
 125:Source\azure_iot_sdk\uamqp\src/amqp_management.c ****                     }
 848              		.loc 1 125 0
 849 0110 8F49     		ldr	r1, .L87+36
 850 0112 8B48     		ldr	r0, .L87+20
 851 0114 FFF7FEFF 		bl	messaging_delivery_rejected
 852              	.LVL131:
 853 0118 0400     		movs	r4, r0
 854              	.LVL132:
 855 011a 5BE1     		b	.L54
 856              	.LVL133:
 857              	.L55:
 131:Source\azure_iot_sdk\uamqp\src/amqp_management.c ****                         if (map == NULL)
 858              		.loc 1 131 0
 859 011c 0798     		ldr	r0, [sp, #28]
 860 011e FFF7FEFF 		bl	amqpvalue_get_inplace_described_value
 861              	.LVL134:
 862 0122 051E     		subs	r5, r0, #0
 863              	.LVL135:
 132:Source\azure_iot_sdk\uamqp\src/amqp_management.c ****                         {
 864              		.loc 1 132 0
 865 0124 16D1     		bne	.L57
 866              	.LBB19:
 135:Source\azure_iot_sdk\uamqp\src/amqp_management.c ****                             amqp_management->on_amqp_management_error(amqp_management->on_amqp_mana
 867              		.loc 1 135 0 discriminator 3
 868 0126 FFF7FEFF 		bl	xlogging_get_log_function
 869              	.LVL136:
 870 012a 041E     		subs	r4, r0, #0
 871              	.LVL137:
 872 012c 09D0     		beq	.L58
 135:Source\azure_iot_sdk\uamqp\src/amqp_management.c ****                             amqp_management->on_amqp_management_error(amqp_management->on_amqp_mana
 873              		.loc 1 135 0 is_stmt 0 discriminator 4
 874 012e 8A4B     		ldr	r3, .L87+44
ARM GAS  C:\Users\Phuong\AppData\Local\Temp\ccdTtd1y.s 			page 30


 875 0130 0193     		str	r3, [sp, #4]
 876 0132 0123     		movs	r3, #1
 877 0134 0093     		str	r3, [sp]
 878 0136 8633     		adds	r3, r3, #134
 879 0138 7D4A     		ldr	r2, .L87+4
 880 013a 3032     		adds	r2, r2, #48
 881 013c 7D49     		ldr	r1, .L87+8
 882 013e 0020     		movs	r0, #0
 883              	.LVL138:
 884 0140 A047     		blx	r4
 885              	.LVL139:
 886              	.L58:
 887              	.LBE19:
 136:Source\azure_iot_sdk\uamqp\src/amqp_management.c ****                             /* Codes_SRS_AMQP_MANAGEMENT_01_136: [ When `on_message_received` fails
 888              		.loc 1 136 0 is_stmt 1
 889 0142 BB6A     		ldr	r3, [r7, #40]
 890 0144 F86A     		ldr	r0, [r7, #44]
 891 0146 9847     		blx	r3
 892              	.LVL140:
 138:Source\azure_iot_sdk\uamqp\src/amqp_management.c ****                         }
 893              		.loc 1 138 0
 894 0148 8449     		ldr	r1, .L87+48
 895 014a 7D48     		ldr	r0, .L87+20
 896 014c FFF7FEFF 		bl	messaging_delivery_rejected
 897              	.LVL141:
 898 0150 0400     		movs	r4, r0
 899              	.LVL142:
 900 0152 3FE1     		b	.L54
 901              	.LVL143:
 902              	.L57:
 144:Source\azure_iot_sdk\uamqp\src/amqp_management.c ****                             if (key == NULL)
 903              		.loc 1 144 0
 904 0154 786B     		ldr	r0, [r7, #52]
 905              	.LVL144:
 906 0156 FFF7FEFF 		bl	amqpvalue_create_string
 907              	.LVL145:
 908 015a 0390     		str	r0, [sp, #12]
 909              	.LVL146:
 145:Source\azure_iot_sdk\uamqp\src/amqp_management.c ****                             {
 910              		.loc 1 145 0
 911 015c 0028     		cmp	r0, #0
 912 015e 14D1     		bne	.L59
 913              	.LBB20:
 148:Source\azure_iot_sdk\uamqp\src/amqp_management.c ****                                 amqp_management->on_amqp_management_error(amqp_management->on_amqp_
 914              		.loc 1 148 0 discriminator 3
 915 0160 FFF7FEFF 		bl	xlogging_get_log_function
 916              	.LVL147:
 917 0164 041E     		subs	r4, r0, #0
 918              	.LVL148:
 919 0166 09D0     		beq	.L60
 148:Source\azure_iot_sdk\uamqp\src/amqp_management.c ****                                 amqp_management->on_amqp_management_error(amqp_management->on_amqp_
 920              		.loc 1 148 0 is_stmt 0 discriminator 4
 921 0168 7D4B     		ldr	r3, .L87+52
 922 016a 0193     		str	r3, [sp, #4]
 923 016c 0123     		movs	r3, #1
 924 016e 0093     		str	r3, [sp]
 925 0170 9333     		adds	r3, r3, #147
ARM GAS  C:\Users\Phuong\AppData\Local\Temp\ccdTtd1y.s 			page 31


 926 0172 6F4A     		ldr	r2, .L87+4
 927 0174 3032     		adds	r2, r2, #48
 928 0176 6F49     		ldr	r1, .L87+8
 929 0178 0020     		movs	r0, #0
 930              	.LVL149:
 931 017a A047     		blx	r4
 932              	.LVL150:
 933              	.L60:
 934              	.LBE20:
 149:Source\azure_iot_sdk\uamqp\src/amqp_management.c ****                                 /* Codes_SRS_AMQP_MANAGEMENT_01_135: [ When an error occurs in crea
 935              		.loc 1 149 0 is_stmt 1
 936 017c BB6A     		ldr	r3, [r7, #40]
 937 017e F86A     		ldr	r0, [r7, #44]
 938 0180 9847     		blx	r3
 939              	.LVL151:
 151:Source\azure_iot_sdk\uamqp\src/amqp_management.c ****                             }
 940              		.loc 1 151 0
 941 0182 FFF7FEFF 		bl	messaging_delivery_released
 942              	.LVL152:
 943 0186 0400     		movs	r4, r0
 944              	.LVL153:
 945 0188 24E1     		b	.L54
 946              	.LVL154:
 947              	.L59:
 156:Source\azure_iot_sdk\uamqp\src/amqp_management.c ****                                 if (value == NULL)
 948              		.loc 1 156 0
 949 018a 0399     		ldr	r1, [sp, #12]
 950 018c 2800     		movs	r0, r5
 951              	.LVL155:
 952 018e FFF7FEFF 		bl	amqpvalue_get_map_value
 953              	.LVL156:
 954 0192 0490     		str	r0, [sp, #16]
 955              	.LVL157:
 157:Source\azure_iot_sdk\uamqp\src/amqp_management.c ****                                 {
 956              		.loc 1 157 0
 957 0194 0028     		cmp	r0, #0
 958 0196 16D1     		bne	.L61
 959              	.LBB21:
 160:Source\azure_iot_sdk\uamqp\src/amqp_management.c ****                                     amqp_management->on_amqp_management_error(amqp_management->on_a
 960              		.loc 1 160 0 discriminator 3
 961 0198 FFF7FEFF 		bl	xlogging_get_log_function
 962              	.LVL158:
 963 019c 041E     		subs	r4, r0, #0
 964              	.LVL159:
 965 019e 09D0     		beq	.L62
 160:Source\azure_iot_sdk\uamqp\src/amqp_management.c ****                                     amqp_management->on_amqp_management_error(amqp_management->on_a
 966              		.loc 1 160 0 is_stmt 0 discriminator 4
 967 01a0 704B     		ldr	r3, .L87+56
 968 01a2 0193     		str	r3, [sp, #4]
 969 01a4 0123     		movs	r3, #1
 970 01a6 0093     		str	r3, [sp]
 971 01a8 9F33     		adds	r3, r3, #159
 972 01aa 614A     		ldr	r2, .L87+4
 973 01ac 3032     		adds	r2, r2, #48
 974 01ae 6149     		ldr	r1, .L87+8
 975 01b0 0020     		movs	r0, #0
 976              	.LVL160:
ARM GAS  C:\Users\Phuong\AppData\Local\Temp\ccdTtd1y.s 			page 32


 977 01b2 A047     		blx	r4
 978              	.LVL161:
 979              	.L62:
 980              	.LBE21:
 161:Source\azure_iot_sdk\uamqp\src/amqp_management.c ****                                     /* Codes_SRS_AMQP_MANAGEMENT_01_136: [ When `on_message_receive
 981              		.loc 1 161 0 is_stmt 1
 982 01b4 BB6A     		ldr	r3, [r7, #40]
 983 01b6 F86A     		ldr	r0, [r7, #44]
 984 01b8 9847     		blx	r3
 985              	.LVL162:
 163:Source\azure_iot_sdk\uamqp\src/amqp_management.c ****                                 }
 986              		.loc 1 163 0
 987 01ba 6B49     		ldr	r1, .L87+60
 988 01bc 6048     		ldr	r0, .L87+20
 989 01be FFF7FEFF 		bl	messaging_delivery_rejected
 990              	.LVL163:
 991 01c2 0400     		movs	r4, r0
 992              	.LVL164:
 993 01c4 03E1     		b	.L63
 994              	.LVL165:
 995              	.L61:
 996              	.LBB22:
 169:Source\azure_iot_sdk\uamqp\src/amqp_management.c ****                                     {
 997              		.loc 1 169 0
 998 01c6 0AA9     		add	r1, sp, #40
 999 01c8 0498     		ldr	r0, [sp, #16]
 1000              	.LVL166:
 1001 01ca FFF7FEFF 		bl	amqpvalue_get_int
 1002              	.LVL167:
 1003 01ce 0028     		cmp	r0, #0
 1004 01d0 16D0     		beq	.L64
 1005              	.LBB23:
 172:Source\azure_iot_sdk\uamqp\src/amqp_management.c ****                                         amqp_management->on_amqp_management_error(amqp_management->
 1006              		.loc 1 172 0 discriminator 3
 1007 01d2 FFF7FEFF 		bl	xlogging_get_log_function
 1008              	.LVL168:
 1009 01d6 041E     		subs	r4, r0, #0
 1010              	.LVL169:
 1011 01d8 09D0     		beq	.L65
 172:Source\azure_iot_sdk\uamqp\src/amqp_management.c ****                                         amqp_management->on_amqp_management_error(amqp_management->
 1012              		.loc 1 172 0 is_stmt 0 discriminator 4
 1013 01da 644B     		ldr	r3, .L87+64
 1014 01dc 0193     		str	r3, [sp, #4]
 1015 01de 0123     		movs	r3, #1
 1016 01e0 0093     		str	r3, [sp]
 1017 01e2 AB33     		adds	r3, r3, #171
 1018 01e4 524A     		ldr	r2, .L87+4
 1019 01e6 3032     		adds	r2, r2, #48
 1020 01e8 5249     		ldr	r1, .L87+8
 1021 01ea 0020     		movs	r0, #0
 1022              	.LVL170:
 1023 01ec A047     		blx	r4
 1024              	.LVL171:
 1025              	.L65:
 1026              	.LBE23:
 173:Source\azure_iot_sdk\uamqp\src/amqp_management.c ****                                         /* Codes_SRS_AMQP_MANAGEMENT_01_136: [ When `on_message_rec
 1027              		.loc 1 173 0 is_stmt 1
ARM GAS  C:\Users\Phuong\AppData\Local\Temp\ccdTtd1y.s 			page 33


 1028 01ee BB6A     		ldr	r3, [r7, #40]
 1029 01f0 F86A     		ldr	r0, [r7, #44]
 1030 01f2 9847     		blx	r3
 1031              	.LVL172:
 175:Source\azure_iot_sdk\uamqp\src/amqp_management.c ****                                     }
 1032              		.loc 1 175 0
 1033 01f4 5E49     		ldr	r1, .L87+68
 1034 01f6 5248     		ldr	r0, .L87+20
 1035 01f8 FFF7FEFF 		bl	messaging_delivery_rejected
 1036              	.LVL173:
 1037 01fc 0400     		movs	r4, r0
 1038              	.LVL174:
 1039 01fe E3E0     		b	.L66
 1040              	.LVL175:
 1041              	.L64:
 181:Source\azure_iot_sdk\uamqp\src/amqp_management.c ****                                         if (desc_key == NULL)
 1042              		.loc 1 181 0
 1043 0200 B86B     		ldr	r0, [r7, #56]
 1044 0202 FFF7FEFF 		bl	amqpvalue_create_string
 1045              	.LVL176:
 1046 0206 0590     		str	r0, [sp, #20]
 1047              	.LVL177:
 182:Source\azure_iot_sdk\uamqp\src/amqp_management.c ****                                         {
 1048              		.loc 1 182 0
 1049 0208 0028     		cmp	r0, #0
 1050 020a 14D1     		bne	.L67
 1051              	.LBB24:
 185:Source\azure_iot_sdk\uamqp\src/amqp_management.c ****                                             amqp_management->on_amqp_management_error(amqp_manageme
 1052              		.loc 1 185 0 discriminator 3
 1053 020c FFF7FEFF 		bl	xlogging_get_log_function
 1054              	.LVL178:
 1055 0210 041E     		subs	r4, r0, #0
 1056              	.LVL179:
 1057 0212 09D0     		beq	.L68
 185:Source\azure_iot_sdk\uamqp\src/amqp_management.c ****                                             amqp_management->on_amqp_management_error(amqp_manageme
 1058              		.loc 1 185 0 is_stmt 0 discriminator 4
 1059 0214 574B     		ldr	r3, .L87+72
 1060 0216 0193     		str	r3, [sp, #4]
 1061 0218 0123     		movs	r3, #1
 1062 021a 0093     		str	r3, [sp]
 1063 021c B833     		adds	r3, r3, #184
 1064 021e 444A     		ldr	r2, .L87+4
 1065 0220 3032     		adds	r2, r2, #48
 1066 0222 4449     		ldr	r1, .L87+8
 1067 0224 0020     		movs	r0, #0
 1068              	.LVL180:
 1069 0226 A047     		blx	r4
 1070              	.LVL181:
 1071              	.L68:
 1072              	.LBE24:
 186:Source\azure_iot_sdk\uamqp\src/amqp_management.c ****                                             /* Codes_SRS_AMQP_MANAGEMENT_01_135: [ When an error oc
 1073              		.loc 1 186 0 is_stmt 1
 1074 0228 BB6A     		ldr	r3, [r7, #40]
 1075 022a F86A     		ldr	r0, [r7, #44]
 1076 022c 9847     		blx	r3
 1077              	.LVL182:
 188:Source\azure_iot_sdk\uamqp\src/amqp_management.c ****                                         }
ARM GAS  C:\Users\Phuong\AppData\Local\Temp\ccdTtd1y.s 			page 34


 1078              		.loc 1 188 0
 1079 022e FFF7FEFF 		bl	messaging_delivery_released
 1080              	.LVL183:
 1081 0232 0400     		movs	r4, r0
 1082              	.LVL184:
 1083 0234 C8E0     		b	.L66
 1084              	.LVL185:
 1085              	.L67:
 1086              	.LBB25:
 192:Source\azure_iot_sdk\uamqp\src/amqp_management.c ****                                             LIST_ITEM_HANDLE list_item_handle;
 1087              		.loc 1 192 0
 1088 0236 0023     		movs	r3, #0
 1089 0238 0B93     		str	r3, [sp, #44]
 1090              	.LVL186:
 198:Source\azure_iot_sdk\uamqp\src/amqp_management.c ****                                             if (desc_value != NULL)
 1091              		.loc 1 198 0
 1092 023a 0599     		ldr	r1, [sp, #20]
 1093 023c 2800     		movs	r0, r5
 1094              	.LVL187:
 1095 023e FFF7FEFF 		bl	amqpvalue_get_map_value
 1096              	.LVL188:
 1097 0242 8246     		mov	r10, r0
 1098              	.LVL189:
 199:Source\azure_iot_sdk\uamqp\src/amqp_management.c ****                                             {
 1099              		.loc 1 199 0
 1100 0244 0028     		cmp	r0, #0
 1101 0246 07D0     		beq	.L69
 202:Source\azure_iot_sdk\uamqp\src/amqp_management.c ****                                                 {
 1102              		.loc 1 202 0
 1103 0248 0BA9     		add	r1, sp, #44
 1104 024a FFF7FEFF 		bl	amqpvalue_get_string
 1105              	.LVL190:
 1106 024e 0028     		cmp	r0, #0
 1107 0250 04D0     		beq	.L70
 205:Source\azure_iot_sdk\uamqp\src/amqp_management.c ****                                                 }
 1108              		.loc 1 205 0
 1109 0252 0023     		movs	r3, #0
 1110 0254 0B93     		str	r3, [sp, #44]
 1111 0256 01E0     		b	.L70
 1112              	.LVL191:
 1113              	.L69:
 211:Source\azure_iot_sdk\uamqp\src/amqp_management.c ****                                             }
 1114              		.loc 1 211 0
 1115 0258 0023     		movs	r3, #0
 1116 025a 0B93     		str	r3, [sp, #44]
 1117              	.LVL192:
 1118              	.L70:
 214:Source\azure_iot_sdk\uamqp\src/amqp_management.c ****                                             while (list_item_handle != NULL)
 1119              		.loc 1 214 0
 1120 025c 3869     		ldr	r0, [r7, #16]
 1121 025e FFF7FEFF 		bl	singlylinkedlist_get_head_item
 1122              	.LVL193:
 1123 0262 0500     		movs	r5, r0
 1124              	.LVL194:
 215:Source\azure_iot_sdk\uamqp\src/amqp_management.c ****                                             {
 1125              		.loc 1 215 0
 1126 0264 4FE0     		b	.L71
ARM GAS  C:\Users\Phuong\AppData\Local\Temp\ccdTtd1y.s 			page 35


 1127              	.L77:
 1128              	.LBB26:
 218:Source\azure_iot_sdk\uamqp\src/amqp_management.c ****                                                 if (operation_message == NULL)
 1129              		.loc 1 218 0
 1130 0266 2800     		movs	r0, r5
 1131              	.LVL195:
 1132 0268 FFF7FEFF 		bl	singlylinkedlist_item_get_value
 1133              	.LVL196:
 1134 026c 061E     		subs	r6, r0, #0
 1135              	.LVL197:
 219:Source\azure_iot_sdk\uamqp\src/amqp_management.c ****                                                 {
 1136              		.loc 1 219 0
 1137 026e 15D1     		bne	.L72
 1138              	.LBB27:
 222:Source\azure_iot_sdk\uamqp\src/amqp_management.c ****                                                     amqp_management->on_amqp_management_error(amqp_
 1139              		.loc 1 222 0 discriminator 3
 1140 0270 FFF7FEFF 		bl	xlogging_get_log_function
 1141              	.LVL198:
 1142 0274 041E     		subs	r4, r0, #0
 1143              	.LVL199:
 1144 0276 09D0     		beq	.L73
 222:Source\azure_iot_sdk\uamqp\src/amqp_management.c ****                                                     amqp_management->on_amqp_management_error(amqp_
 1145              		.loc 1 222 0 is_stmt 0 discriminator 4
 1146 0278 3E4B     		ldr	r3, .L87+72
 1147 027a 0193     		str	r3, [sp, #4]
 1148 027c 0123     		movs	r3, #1
 1149 027e 0093     		str	r3, [sp]
 1150 0280 DD33     		adds	r3, r3, #221
 1151 0282 2B4A     		ldr	r2, .L87+4
 1152 0284 3032     		adds	r2, r2, #48
 1153 0286 2B49     		ldr	r1, .L87+8
 1154 0288 0020     		movs	r0, #0
 1155              	.LVL200:
 1156 028a A047     		blx	r4
 1157              	.LVL201:
 1158              	.L73:
 1159              	.LBE27:
 223:Source\azure_iot_sdk\uamqp\src/amqp_management.c ****                                                     /* Codes_SRS_AMQP_MANAGEMENT_01_135: [ When an 
 1160              		.loc 1 223 0 is_stmt 1
 1161 028c F86A     		ldr	r0, [r7, #44]
 1162 028e BB6A     		ldr	r3, [r7, #40]
 1163 0290 9847     		blx	r3
 1164              	.LVL202:
 225:Source\azure_iot_sdk\uamqp\src/amqp_management.c ****                                                     break;
 1165              		.loc 1 225 0
 1166 0292 FFF7FEFF 		bl	messaging_delivery_released
 1167              	.LVL203:
 1168              	.LBE26:
 195:Source\azure_iot_sdk\uamqp\src/amqp_management.c **** 
 1169              		.loc 1 195 0
 1170 0296 0023     		movs	r3, #0
 194:Source\azure_iot_sdk\uamqp\src/amqp_management.c ****                                             bool is_error = false;
 1171              		.loc 1 194 0
 1172 0298 0022     		movs	r2, #0
 1173              	.LBB31:
 226:Source\azure_iot_sdk\uamqp\src/amqp_management.c ****                                                 }
 1174              		.loc 1 226 0
ARM GAS  C:\Users\Phuong\AppData\Local\Temp\ccdTtd1y.s 			page 36


 1175 029a 3EE0     		b	.L74
 1176              	.LVL204:
 1177              	.L72:
 1178              	.LBB28:
 235:Source\azure_iot_sdk\uamqp\src/amqp_management.c ****                                                     {
 1179              		.loc 1 235 0
 1180 029c C268     		ldr	r2, [r0, #12]
 1181 029e 0D9B     		ldr	r3, [sp, #52]
 1182 02a0 8168     		ldr	r1, [r0, #8]
 1183 02a2 0C98     		ldr	r0, [sp, #48]
 1184              	.LVL205:
 1185 02a4 8142     		cmp	r1, r0
 1186 02a6 2AD1     		bne	.L75
 1187 02a8 9A42     		cmp	r2, r3
 1188 02aa 28D1     		bne	.L75
 238:Source\azure_iot_sdk\uamqp\src/amqp_management.c ****                                                         {
 1189              		.loc 1 238 0
 1190 02ac 0A9A     		ldr	r2, [sp, #40]
 1191 02ae 1300     		movs	r3, r2
 1192 02b0 C83B     		subs	r3, r3, #200
 1193 02b2 632B     		cmp	r3, #99
 1194 02b4 01D9     		bls	.L84
 242:Source\azure_iot_sdk\uamqp\src/amqp_management.c ****                                                         }
 1195              		.loc 1 242 0
 1196 02b6 0221     		movs	r1, #2
 1197 02b8 00E0     		b	.L76
 1198              	.L84:
 247:Source\azure_iot_sdk\uamqp\src/amqp_management.c ****                                                         }
 1199              		.loc 1 247 0
 1200 02ba 0021     		movs	r1, #0
 1201              	.L76:
 1202              	.LVL206:
 252:Source\azure_iot_sdk\uamqp\src/amqp_management.c **** 
 1203              		.loc 1 252 0
 1204 02bc 3368     		ldr	r3, [r6]
 1205 02be 9B46     		mov	fp, r3
 1206 02c0 7068     		ldr	r0, [r6, #4]
 1207 02c2 0094     		str	r4, [sp]
 1208 02c4 0B9B     		ldr	r3, [sp, #44]
 1209 02c6 D847     		blx	fp
 1210              	.LVL207:
 254:Source\azure_iot_sdk\uamqp\src/amqp_management.c **** 
 1211              		.loc 1 254 0
 1212 02c8 3000     		movs	r0, r6
 1213 02ca FFF7FEFF 		bl	free
 1214              	.LVL208:
 257:Source\azure_iot_sdk\uamqp\src/amqp_management.c ****                                                         {
 1215              		.loc 1 257 0
 1216 02ce 2900     		movs	r1, r5
 1217 02d0 3869     		ldr	r0, [r7, #16]
 1218 02d2 FFF7FEFF 		bl	singlylinkedlist_remove
 1219              	.LVL209:
 1220 02d6 0028     		cmp	r0, #0
 1221 02d8 1AD0     		beq	.L85
 1222              	.LBB29:
 259:Source\azure_iot_sdk\uamqp\src/amqp_management.c ****                                                             is_error = true;
 1223              		.loc 1 259 0 discriminator 3
ARM GAS  C:\Users\Phuong\AppData\Local\Temp\ccdTtd1y.s 			page 37


 1224 02da FFF7FEFF 		bl	xlogging_get_log_function
 1225              	.LVL210:
 1226 02de 051E     		subs	r5, r0, #0
 1227              	.LVL211:
 1228 02e0 19D0     		beq	.L86
 259:Source\azure_iot_sdk\uamqp\src/amqp_management.c ****                                                             is_error = true;
 1229              		.loc 1 259 0 is_stmt 0 discriminator 4
 1230 02e2 254B     		ldr	r3, .L87+76
 1231 02e4 0193     		str	r3, [sp, #4]
 1232 02e6 0124     		movs	r4, #1
 1233              	.LVL212:
 1234 02e8 0094     		str	r4, [sp]
 1235 02ea 0423     		movs	r3, #4
 1236 02ec FF33     		adds	r3, r3, #255
 1237 02ee 104A     		ldr	r2, .L87+4
 1238 02f0 3032     		adds	r2, r2, #48
 1239 02f2 1049     		ldr	r1, .L87+8
 1240 02f4 0020     		movs	r0, #0
 1241              	.LVL213:
 1242 02f6 A847     		blx	r5
 1243              	.LVL214:
 1244              	.LBE29:
 260:Source\azure_iot_sdk\uamqp\src/amqp_management.c ****                                                             break;
 1245              		.loc 1 260 0 is_stmt 1 discriminator 4
 1246 02f8 2300     		movs	r3, r4
 1247              	.LBE28:
 1248              	.LBE31:
 194:Source\azure_iot_sdk\uamqp\src/amqp_management.c ****                                             bool is_error = false;
 1249              		.loc 1 194 0 discriminator 4
 1250 02fa 0022     		movs	r2, #0
 1251 02fc 0DE0     		b	.L74
 1252              	.LVL215:
 1253              	.L75:
 1254              	.LBB32:
 274:Source\azure_iot_sdk\uamqp\src/amqp_management.c ****                                             }
 1255              		.loc 1 274 0
 1256 02fe 2800     		movs	r0, r5
 1257 0300 FFF7FEFF 		bl	singlylinkedlist_get_next_item
 1258              	.LVL216:
 1259 0304 0500     		movs	r5, r0
 1260              	.LVL217:
 1261              	.L71:
 1262              	.LBE32:
 215:Source\azure_iot_sdk\uamqp\src/amqp_management.c ****                                             {
 1263              		.loc 1 215 0
 1264 0306 002D     		cmp	r5, #0
 1265 0308 ADD1     		bne	.L77
 195:Source\azure_iot_sdk\uamqp\src/amqp_management.c **** 
 1266              		.loc 1 195 0
 1267 030a 0023     		movs	r3, #0
 194:Source\azure_iot_sdk\uamqp\src/amqp_management.c ****                                             bool is_error = false;
 1268              		.loc 1 194 0
 1269 030c 0022     		movs	r2, #0
 1270 030e 04E0     		b	.L74
 1271              	.LVL218:
 1272              	.L85:
 195:Source\azure_iot_sdk\uamqp\src/amqp_management.c **** 
ARM GAS  C:\Users\Phuong\AppData\Local\Temp\ccdTtd1y.s 			page 38


 1273              		.loc 1 195 0
 1274 0310 0023     		movs	r3, #0
 1275              	.LBB33:
 1276              	.LBB30:
 265:Source\azure_iot_sdk\uamqp\src/amqp_management.c ****                                                         }
 1277              		.loc 1 265 0
 1278 0312 0122     		movs	r2, #1
 1279 0314 01E0     		b	.L74
 1280              	.LVL219:
 1281              	.L86:
 260:Source\azure_iot_sdk\uamqp\src/amqp_management.c ****                                                             break;
 1282              		.loc 1 260 0
 1283 0316 0123     		movs	r3, #1
 1284              	.LBE30:
 1285              	.LBE33:
 194:Source\azure_iot_sdk\uamqp\src/amqp_management.c ****                                             bool is_error = false;
 1286              		.loc 1 194 0
 1287 0318 0022     		movs	r2, #0
 1288              	.LVL220:
 1289              	.L74:
 277:Source\azure_iot_sdk\uamqp\src/amqp_management.c ****                                             {
 1290              		.loc 1 277 0
 1291 031a 002B     		cmp	r3, #0
 1292 031c 2ED0     		beq	.L78
 280:Source\azure_iot_sdk\uamqp\src/amqp_management.c ****                                                 /* Codes_SRS_AMQP_MANAGEMENT_01_135: [ When an erro
 1293              		.loc 1 280 0
 1294 031e BB6A     		ldr	r3, [r7, #40]
 1295              	.LVL221:
 1296 0320 F86A     		ldr	r0, [r7, #44]
 1297 0322 9847     		blx	r3
 1298              	.LVL222:
 282:Source\azure_iot_sdk\uamqp\src/amqp_management.c ****                                             }
 1299              		.loc 1 282 0
 1300 0324 FFF7FEFF 		bl	messaging_delivery_released
 1301              	.LVL223:
 1302 0328 0400     		movs	r4, r0
 1303              	.LVL224:
 1304 032a 44E0     		b	.L79
 1305              	.L88:
 1306              		.align	2
 1307              	.L87:
 1308 032c 28010000 		.word	.LC25
 1309 0330 80000000 		.word	.LANCHOR1
 1310 0334 00000000 		.word	.LC1
 1311 0338 4C010000 		.word	.LC27
 1312 033c 78010000 		.word	.LC29
 1313 0340 BC010000 		.word	.LC31
 1314 0344 D0010000 		.word	.LC33
 1315 0348 F8010000 		.word	.LC35
 1316 034c 38020000 		.word	.LC37
 1317 0350 5C020000 		.word	.LC39
 1318 0354 98020000 		.word	.LC41
 1319 0358 C8020000 		.word	.LC43
 1320 035c F4020000 		.word	.LC45
 1321 0360 5C030000 		.word	.LC47
 1322 0364 84030000 		.word	.LC49
 1323 0368 C0030000 		.word	.LC51
ARM GAS  C:\Users\Phuong\AppData\Local\Temp\ccdTtd1y.s 			page 39


 1324 036c 20040000 		.word	.LC53
 1325 0370 4C040000 		.word	.LC55
 1326 0374 B4040000 		.word	.LC57
 1327 0378 08010000 		.word	.LC21
 1328              	.LVL225:
 1329              	.L78:
 286:Source\azure_iot_sdk\uamqp\src/amqp_management.c ****                                                 {
 1330              		.loc 1 286 0
 1331 037c 002A     		cmp	r2, #0
 1332 037e 17D1     		bne	.L80
 1333              	.LBB34:
 289:Source\azure_iot_sdk\uamqp\src/amqp_management.c ****                                                     amqp_management->on_amqp_management_error(amqp_
 1334              		.loc 1 289 0 discriminator 3
 1335 0380 FFF7FEFF 		bl	xlogging_get_log_function
 1336              	.LVL226:
 1337 0384 041E     		subs	r4, r0, #0
 1338              	.LVL227:
 1339 0386 0AD0     		beq	.L81
 289:Source\azure_iot_sdk\uamqp\src/amqp_management.c ****                                                     amqp_management->on_amqp_management_error(amqp_
 1340              		.loc 1 289 0 is_stmt 0 discriminator 4
 1341 0388 194B     		ldr	r3, .L89
 1342 038a 0193     		str	r3, [sp, #4]
 1343 038c 0123     		movs	r3, #1
 1344 038e 0093     		str	r3, [sp]
 1345 0390 2223     		movs	r3, #34
 1346 0392 FF33     		adds	r3, r3, #255
 1347 0394 174A     		ldr	r2, .L89+4
 1348 0396 3032     		adds	r2, r2, #48
 1349 0398 1749     		ldr	r1, .L89+8
 1350 039a 0020     		movs	r0, #0
 1351              	.LVL228:
 1352 039c A047     		blx	r4
 1353              	.LVL229:
 1354              	.L81:
 1355              	.LBE34:
 290:Source\azure_iot_sdk\uamqp\src/amqp_management.c ****                                                     /* Codes_SRS_AMQP_MANAGEMENT_01_135: [ When an 
 1356              		.loc 1 290 0 is_stmt 1
 1357 039e BB6A     		ldr	r3, [r7, #40]
 1358 03a0 F86A     		ldr	r0, [r7, #44]
 1359 03a2 9847     		blx	r3
 1360              	.LVL230:
 292:Source\azure_iot_sdk\uamqp\src/amqp_management.c ****                                                 }
 1361              		.loc 1 292 0
 1362 03a4 1249     		ldr	r1, .L89
 1363 03a6 1548     		ldr	r0, .L89+12
 1364 03a8 FFF7FEFF 		bl	messaging_delivery_rejected
 1365              	.LVL231:
 1366 03ac 0400     		movs	r4, r0
 1367              	.LVL232:
 1368 03ae 02E0     		b	.L79
 1369              	.LVL233:
 1370              	.L80:
 297:Source\azure_iot_sdk\uamqp\src/amqp_management.c ****                                                 }
 1371              		.loc 1 297 0
 1372 03b0 FFF7FEFF 		bl	messaging_delivery_accepted
 1373              	.LVL234:
 1374 03b4 0400     		movs	r4, r0
ARM GAS  C:\Users\Phuong\AppData\Local\Temp\ccdTtd1y.s 			page 40


 1375              	.LVL235:
 1376              	.L79:
 301:Source\azure_iot_sdk\uamqp\src/amqp_management.c ****                                             {
 1377              		.loc 1 301 0
 1378 03b6 5346     		mov	r3, r10
 1379 03b8 002B     		cmp	r3, #0
 1380 03ba 02D0     		beq	.L82
 1381              	.LVL236:
 304:Source\azure_iot_sdk\uamqp\src/amqp_management.c ****                                             }
 1382              		.loc 1 304 0
 1383 03bc 5046     		mov	r0, r10
 1384              	.LVL237:
 1385 03be FFF7FEFF 		bl	amqpvalue_destroy
 1386              	.LVL238:
 1387              	.L82:
 308:Source\azure_iot_sdk\uamqp\src/amqp_management.c ****                                         }
 1388              		.loc 1 308 0
 1389 03c2 0598     		ldr	r0, [sp, #20]
 1390 03c4 FFF7FEFF 		bl	amqpvalue_destroy
 1391              	.LVL239:
 1392              	.L66:
 1393              	.LBE25:
 313:Source\azure_iot_sdk\uamqp\src/amqp_management.c ****                                 }
 1394              		.loc 1 313 0 discriminator 1
 1395 03c8 0498     		ldr	r0, [sp, #16]
 1396 03ca FFF7FEFF 		bl	amqpvalue_destroy
 1397              	.LVL240:
 1398              	.L63:
 1399              	.LBE22:
 317:Source\azure_iot_sdk\uamqp\src/amqp_management.c ****                             }
 1400              		.loc 1 317 0
 1401 03ce 0398     		ldr	r0, [sp, #12]
 1402 03d0 FFF7FEFF 		bl	amqpvalue_destroy
 1403              	.LVL241:
 1404              	.L54:
 324:Source\azure_iot_sdk\uamqp\src/amqp_management.c ****             }
 1405              		.loc 1 324 0
 1406 03d4 0898     		ldr	r0, [sp, #32]
 1407 03d6 FFF7FEFF 		bl	properties_destroy
 1408              	.LVL242:
 1409              	.L51:
 1410              	.LBE16:
 328:Source\azure_iot_sdk\uamqp\src/amqp_management.c ****         }
 1411              		.loc 1 328 0 discriminator 2
 1412 03da 0798     		ldr	r0, [sp, #28]
 1413 03dc FFF7FEFF 		bl	amqpvalue_destroy
 1414              	.LVL243:
 1415 03e0 00E0     		b	.L45
 1416              	.LVL244:
 1417              	.L83:
 1418              	.LBE14:
 1419              	.LBE12:
  69:Source\azure_iot_sdk\uamqp\src/amqp_management.c ****     }
 1420              		.loc 1 69 0
 1421 03e2 0024     		movs	r4, #0
 1422              	.LVL245:
 1423              	.L45:
ARM GAS  C:\Users\Phuong\AppData\Local\Temp\ccdTtd1y.s 			page 41


 333:Source\azure_iot_sdk\uamqp\src/amqp_management.c **** 
 1424              		.loc 1 333 0
 1425 03e4 2000     		movs	r0, r4
 1426 03e6 0FB0     		add	sp, sp, #60
 1427              		@ sp needed
 1428              	.LVL246:
 1429              	.LVL247:
 1430 03e8 0CBC     		pop	{r2, r3}
 1431 03ea 9246     		mov	r10, r2
 1432 03ec 9B46     		mov	fp, r3
 1433 03ee F0BD     		pop	{r4, r5, r6, r7, pc}
 1434              	.L90:
 1435              		.align	2
 1436              	.L89:
 1437 03f0 E4040000 		.word	.LC60
 1438 03f4 80000000 		.word	.LANCHOR1
 1439 03f8 00000000 		.word	.LC1
 1440 03fc BC010000 		.word	.LC31
 1441              		.cfi_endproc
 1442              	.LFE1:
 1443              		.size	on_message_received, .-on_message_received
 1444              		.section	.text.add_string_key_value_pair_to_map,"ax",%progbits
 1445              		.align	2
 1446              		.code	16
 1447              		.thumb_func
 1448              		.type	add_string_key_value_pair_to_map, %function
 1449              	add_string_key_value_pair_to_map:
 1450              	.LFB6:
 624:Source\azure_iot_sdk\uamqp\src/amqp_management.c ****     int result;
 1451              		.loc 1 624 0
 1452              		.cfi_startproc
 1453              		@ args = 0, pretend = 0, frame = 0
 1454              		@ frame_needed = 0, uses_anonymous_args = 0
 1455              	.LVL248:
 1456 0000 F0B5     		push	{r4, r5, r6, r7, lr}
 1457              		.cfi_def_cfa_offset 20
 1458              		.cfi_offset 4, -20
 1459              		.cfi_offset 5, -16
 1460              		.cfi_offset 6, -12
 1461              		.cfi_offset 7, -8
 1462              		.cfi_offset 14, -4
 1463 0002 85B0     		sub	sp, sp, #20
 1464              		.cfi_def_cfa_offset 40
 1465 0004 0700     		movs	r7, r0
 1466 0006 0E00     		movs	r6, r1
 1467 0008 1500     		movs	r5, r2
 628:Source\azure_iot_sdk\uamqp\src/amqp_management.c ****     if (key_value == NULL)
 1468              		.loc 1 628 0
 1469 000a 0800     		movs	r0, r1
 1470              	.LVL249:
 1471 000c FFF7FEFF 		bl	amqpvalue_create_string
 1472              	.LVL250:
 1473 0010 041E     		subs	r4, r0, #0
 1474              	.LVL251:
 629:Source\azure_iot_sdk\uamqp\src/amqp_management.c ****     {
 1475              		.loc 1 629 0
 1476 0012 11D1     		bne	.L92
ARM GAS  C:\Users\Phuong\AppData\Local\Temp\ccdTtd1y.s 			page 42


 1477              	.LBB35:
 632:Source\azure_iot_sdk\uamqp\src/amqp_management.c ****         result = __FAILURE__;
 1478              		.loc 1 632 0 discriminator 3
 1479 0014 FFF7FEFF 		bl	xlogging_get_log_function
 1480              	.LVL252:
 1481 0018 041E     		subs	r4, r0, #0
 1482              	.LVL253:
 1483 001a 49D0     		beq	.L97
 632:Source\azure_iot_sdk\uamqp\src/amqp_management.c ****         result = __FAILURE__;
 1484              		.loc 1 632 0 is_stmt 0 discriminator 4
 1485 001c 0296     		str	r6, [sp, #8]
 1486 001e 264B     		ldr	r3, .L101
 1487 0020 0193     		str	r3, [sp, #4]
 1488 0022 0123     		movs	r3, #1
 1489 0024 0093     		str	r3, [sp]
 1490 0026 9E23     		movs	r3, #158
 1491 0028 9B00     		lsls	r3, r3, #2
 1492 002a 244A     		ldr	r2, .L101+4
 1493 002c 4432     		adds	r2, r2, #68
 1494 002e 2449     		ldr	r1, .L101+8
 1495 0030 0020     		movs	r0, #0
 1496              	.LVL254:
 1497 0032 A047     		blx	r4
 1498              	.LVL255:
 1499              	.LBE35:
 633:Source\azure_iot_sdk\uamqp\src/amqp_management.c ****     }
 1500              		.loc 1 633 0 is_stmt 1 discriminator 4
 1501 0034 234E     		ldr	r6, .L101+12
 1502              	.LVL256:
 1503 0036 3CE0     		b	.L93
 1504              	.LVL257:
 1505              	.L92:
 1506              	.LBB36:
 638:Source\azure_iot_sdk\uamqp\src/amqp_management.c ****         if (value_value == NULL)
 1507              		.loc 1 638 0
 1508 0038 2800     		movs	r0, r5
 1509              	.LVL258:
 1510 003a FFF7FEFF 		bl	amqpvalue_create_string
 1511              	.LVL259:
 1512 003e 051E     		subs	r5, r0, #0
 1513              	.LVL260:
 639:Source\azure_iot_sdk\uamqp\src/amqp_management.c ****         {
 1514              		.loc 1 639 0
 1515 0040 10D1     		bne	.L94
 1516              	.LBB37:
 642:Source\azure_iot_sdk\uamqp\src/amqp_management.c ****             result = __FAILURE__;
 1517              		.loc 1 642 0 discriminator 3
 1518 0042 FFF7FEFF 		bl	xlogging_get_log_function
 1519              	.LVL261:
 1520 0046 051E     		subs	r5, r0, #0
 1521              	.LVL262:
 1522 0048 2DD0     		beq	.L98
 642:Source\azure_iot_sdk\uamqp\src/amqp_management.c ****             result = __FAILURE__;
 1523              		.loc 1 642 0 is_stmt 0 discriminator 4
 1524 004a 0296     		str	r6, [sp, #8]
 1525 004c 1E4B     		ldr	r3, .L101+16
 1526 004e 0193     		str	r3, [sp, #4]
ARM GAS  C:\Users\Phuong\AppData\Local\Temp\ccdTtd1y.s 			page 43


 1527 0050 0123     		movs	r3, #1
 1528 0052 0093     		str	r3, [sp]
 1529 0054 1D4B     		ldr	r3, .L101+20
 1530 0056 194A     		ldr	r2, .L101+4
 1531 0058 4432     		adds	r2, r2, #68
 1532 005a 1949     		ldr	r1, .L101+8
 1533 005c 0020     		movs	r0, #0
 1534              	.LVL263:
 1535 005e A847     		blx	r5
 1536              	.LVL264:
 1537              	.LBE37:
 643:Source\azure_iot_sdk\uamqp\src/amqp_management.c ****         }
 1538              		.loc 1 643 0 is_stmt 1 discriminator 4
 1539 0060 1B4E     		ldr	r6, .L101+24
 1540              	.LVL265:
 1541 0062 21E0     		b	.L95
 1542              	.LVL266:
 1543              	.L94:
 648:Source\azure_iot_sdk\uamqp\src/amqp_management.c ****             {
 1544              		.loc 1 648 0
 1545 0064 0200     		movs	r2, r0
 1546 0066 2100     		movs	r1, r4
 1547 0068 3800     		movs	r0, r7
 1548              	.LVL267:
 1549 006a FFF7FEFF 		bl	amqpvalue_set_map_value
 1550              	.LVL268:
 1551 006e 0028     		cmp	r0, #0
 1552 0070 11D0     		beq	.L99
 1553              	.LBB38:
 651:Source\azure_iot_sdk\uamqp\src/amqp_management.c ****                 result = __FAILURE__;
 1554              		.loc 1 651 0 discriminator 3
 1555 0072 FFF7FEFF 		bl	xlogging_get_log_function
 1556              	.LVL269:
 1557 0076 071E     		subs	r7, r0, #0
 1558              	.LVL270:
 1559 0078 0FD0     		beq	.L100
 651:Source\azure_iot_sdk\uamqp\src/amqp_management.c ****                 result = __FAILURE__;
 1560              		.loc 1 651 0 is_stmt 0 discriminator 4
 1561 007a 0296     		str	r6, [sp, #8]
 1562 007c 154B     		ldr	r3, .L101+28
 1563 007e 0193     		str	r3, [sp, #4]
 1564 0080 0123     		movs	r3, #1
 1565 0082 0093     		str	r3, [sp]
 1566 0084 144B     		ldr	r3, .L101+32
 1567 0086 0D4A     		ldr	r2, .L101+4
 1568 0088 4432     		adds	r2, r2, #68
 1569 008a 0D49     		ldr	r1, .L101+8
 1570 008c 0020     		movs	r0, #0
 1571              	.LVL271:
 1572 008e B847     		blx	r7
 1573              	.LVL272:
 1574              	.LBE38:
 652:Source\azure_iot_sdk\uamqp\src/amqp_management.c ****             }
 1575              		.loc 1 652 0 is_stmt 1 discriminator 4
 1576 0090 A326     		movs	r6, #163
 1577              	.LVL273:
 1578 0092 B600     		lsls	r6, r6, #2
ARM GAS  C:\Users\Phuong\AppData\Local\Temp\ccdTtd1y.s 			page 44


 1579 0094 03E0     		b	.L96
 1580              	.LVL274:
 1581              	.L99:
 656:Source\azure_iot_sdk\uamqp\src/amqp_management.c ****             }
 1582              		.loc 1 656 0
 1583 0096 0026     		movs	r6, #0
 1584              	.LVL275:
 1585 0098 01E0     		b	.L96
 1586              	.LVL276:
 1587              	.L100:
 652:Source\azure_iot_sdk\uamqp\src/amqp_management.c ****             }
 1588              		.loc 1 652 0
 1589 009a A326     		movs	r6, #163
 1590              	.LVL277:
 1591 009c B600     		lsls	r6, r6, #2
 1592              	.LVL278:
 1593              	.L96:
 659:Source\azure_iot_sdk\uamqp\src/amqp_management.c ****         }
 1594              		.loc 1 659 0
 1595 009e 2800     		movs	r0, r5
 1596 00a0 FFF7FEFF 		bl	amqpvalue_destroy
 1597              	.LVL279:
 1598 00a4 00E0     		b	.L95
 1599              	.LVL280:
 1600              	.L98:
 643:Source\azure_iot_sdk\uamqp\src/amqp_management.c ****         }
 1601              		.loc 1 643 0
 1602 00a6 0A4E     		ldr	r6, .L101+24
 1603              	.LVL281:
 1604              	.L95:
 662:Source\azure_iot_sdk\uamqp\src/amqp_management.c ****     }
 1605              		.loc 1 662 0
 1606 00a8 2000     		movs	r0, r4
 1607 00aa FFF7FEFF 		bl	amqpvalue_destroy
 1608              	.LVL282:
 1609 00ae 00E0     		b	.L93
 1610              	.LVL283:
 1611              	.L97:
 1612              	.LBE36:
 633:Source\azure_iot_sdk\uamqp\src/amqp_management.c ****     }
 1613              		.loc 1 633 0
 1614 00b0 044E     		ldr	r6, .L101+12
 1615              	.LVL284:
 1616              	.L93:
 666:Source\azure_iot_sdk\uamqp\src/amqp_management.c **** 
 1617              		.loc 1 666 0
 1618 00b2 3000     		movs	r0, r6
 1619 00b4 05B0     		add	sp, sp, #20
 1620              		@ sp needed
 1621              	.LVL285:
 1622 00b6 F0BD     		pop	{r4, r5, r6, r7, pc}
 1623              	.L102:
 1624              		.align	2
 1625              	.L101:
 1626 00b8 18050000 		.word	.LC64
 1627 00bc 80000000 		.word	.LANCHOR1
 1628 00c0 00000000 		.word	.LC1
ARM GAS  C:\Users\Phuong\AppData\Local\Temp\ccdTtd1y.s 			page 45


 1629 00c4 79020000 		.word	633
 1630 00c8 3C050000 		.word	.LC66
 1631 00cc 82020000 		.word	642
 1632 00d0 83020000 		.word	643
 1633 00d4 60050000 		.word	.LC68
 1634 00d8 8B020000 		.word	651
 1635              		.cfi_endproc
 1636              	.LFE6:
 1637              		.size	add_string_key_value_pair_to_map, .-add_string_key_value_pair_to_map
 1638              		.section	.text.set_message_id,"ax",%progbits
 1639              		.align	2
 1640              		.code	16
 1641              		.thumb_func
 1642              		.type	set_message_id, %function
 1643              	set_message_id:
 1644              	.LFB5:
 556:Source\azure_iot_sdk\uamqp\src/amqp_management.c ****     int result;
 1645              		.loc 1 556 0
 1646              		.cfi_startproc
 1647              		@ args = 0, pretend = 0, frame = 8
 1648              		@ frame_needed = 0, uses_anonymous_args = 0
 1649              	.LVL286:
 1650 0000 F0B5     		push	{r4, r5, r6, r7, lr}
 1651              		.cfi_def_cfa_offset 20
 1652              		.cfi_offset 4, -20
 1653              		.cfi_offset 5, -16
 1654              		.cfi_offset 6, -12
 1655              		.cfi_offset 7, -8
 1656              		.cfi_offset 14, -4
 1657 0002 85B0     		sub	sp, sp, #20
 1658              		.cfi_def_cfa_offset 40
 1659 0004 0400     		movs	r4, r0
 1660 0006 1600     		movs	r6, r2
 1661 0008 1F00     		movs	r7, r3
 561:Source\azure_iot_sdk\uamqp\src/amqp_management.c ****     {
 1662              		.loc 1 561 0
 1663 000a 03A9     		add	r1, sp, #12
 1664 000c FFF7FEFF 		bl	message_get_properties
 1665              	.LVL287:
 1666 0010 0028     		cmp	r0, #0
 1667 0012 10D0     		beq	.L104
 1668              	.LBB39:
 564:Source\azure_iot_sdk\uamqp\src/amqp_management.c ****         result = __FAILURE__;
 1669              		.loc 1 564 0 discriminator 3
 1670 0014 FFF7FEFF 		bl	xlogging_get_log_function
 1671              	.LVL288:
 1672 0018 041E     		subs	r4, r0, #0
 1673              	.LVL289:
 1674 001a 77D0     		beq	.L112
 564:Source\azure_iot_sdk\uamqp\src/amqp_management.c ****         result = __FAILURE__;
 1675              		.loc 1 564 0 is_stmt 0 discriminator 4
 1676 001c 3E4B     		ldr	r3, .L118
 1677 001e 0193     		str	r3, [sp, #4]
 1678 0020 0123     		movs	r3, #1
 1679 0022 0093     		str	r3, [sp]
 1680 0024 8D23     		movs	r3, #141
 1681 0026 9B00     		lsls	r3, r3, #2
ARM GAS  C:\Users\Phuong\AppData\Local\Temp\ccdTtd1y.s 			page 46


 1682 0028 3C4A     		ldr	r2, .L118+4
 1683 002a 6832     		adds	r2, r2, #104
 1684 002c 3C49     		ldr	r1, .L118+8
 1685 002e 0020     		movs	r0, #0
 1686              	.LVL290:
 1687 0030 A047     		blx	r4
 1688              	.LVL291:
 1689              	.LBE39:
 565:Source\azure_iot_sdk\uamqp\src/amqp_management.c ****     }
 1690              		.loc 1 565 0 is_stmt 1 discriminator 4
 1691 0032 3C4C     		ldr	r4, .L118+12
 1692              	.LVL292:
 1693 0034 6DE0     		b	.L105
 1694              	.LVL293:
 1695              	.L104:
 570:Source\azure_iot_sdk\uamqp\src/amqp_management.c ****         {
 1696              		.loc 1 570 0
 1697 0036 039B     		ldr	r3, [sp, #12]
 1698 0038 002B     		cmp	r3, #0
 1699 003a 02D1     		bne	.L106
 572:Source\azure_iot_sdk\uamqp\src/amqp_management.c ****         }
 1700              		.loc 1 572 0
 1701 003c FFF7FEFF 		bl	properties_create
 1702              	.LVL294:
 1703 0040 0390     		str	r0, [sp, #12]
 1704              	.L106:
 575:Source\azure_iot_sdk\uamqp\src/amqp_management.c ****         {
 1705              		.loc 1 575 0
 1706 0042 039B     		ldr	r3, [sp, #12]
 1707 0044 002B     		cmp	r3, #0
 1708 0046 0FD1     		bne	.L107
 1709              	.LBB40:
 578:Source\azure_iot_sdk\uamqp\src/amqp_management.c ****             result = __FAILURE__;
 1710              		.loc 1 578 0 discriminator 3
 1711 0048 FFF7FEFF 		bl	xlogging_get_log_function
 1712              	.LVL295:
 1713 004c 041E     		subs	r4, r0, #0
 1714              	.LVL296:
 1715 004e 5FD0     		beq	.L113
 578:Source\azure_iot_sdk\uamqp\src/amqp_management.c ****             result = __FAILURE__;
 1716              		.loc 1 578 0 is_stmt 0 discriminator 4
 1717 0050 354B     		ldr	r3, .L118+16
 1718 0052 0193     		str	r3, [sp, #4]
 1719 0054 0123     		movs	r3, #1
 1720 0056 0093     		str	r3, [sp]
 1721 0058 344B     		ldr	r3, .L118+20
 1722 005a 304A     		ldr	r2, .L118+4
 1723 005c 6832     		adds	r2, r2, #104
 1724 005e 3049     		ldr	r1, .L118+8
 1725 0060 0020     		movs	r0, #0
 1726              	.LVL297:
 1727 0062 A047     		blx	r4
 1728              	.LVL298:
 1729              	.LBE40:
 579:Source\azure_iot_sdk\uamqp\src/amqp_management.c ****         }
 1730              		.loc 1 579 0 is_stmt 1 discriminator 4
 1731 0064 324C     		ldr	r4, .L118+24
ARM GAS  C:\Users\Phuong\AppData\Local\Temp\ccdTtd1y.s 			page 47


 1732              	.LVL299:
 1733 0066 54E0     		b	.L105
 1734              	.LVL300:
 1735              	.L107:
 1736              	.LBB41:
 584:Source\azure_iot_sdk\uamqp\src/amqp_management.c ****             if (message_id == NULL)
 1737              		.loc 1 584 0
 1738 0068 3000     		movs	r0, r6
 1739 006a 3900     		movs	r1, r7
 1740 006c FFF7FEFF 		bl	amqpvalue_create_message_id_ulong
 1741              	.LVL301:
 1742 0070 051E     		subs	r5, r0, #0
 1743              	.LVL302:
 585:Source\azure_iot_sdk\uamqp\src/amqp_management.c ****             {
 1744              		.loc 1 585 0
 1745 0072 10D1     		bne	.L108
 1746              	.LBB42:
 588:Source\azure_iot_sdk\uamqp\src/amqp_management.c ****                 result = __FAILURE__;
 1747              		.loc 1 588 0 discriminator 3
 1748 0074 FFF7FEFF 		bl	xlogging_get_log_function
 1749              	.LVL303:
 1750 0078 041E     		subs	r4, r0, #0
 1751              	.LVL304:
 1752 007a 42D0     		beq	.L114
 588:Source\azure_iot_sdk\uamqp\src/amqp_management.c ****                 result = __FAILURE__;
 1753              		.loc 1 588 0 is_stmt 0 discriminator 4
 1754 007c 2D4B     		ldr	r3, .L118+28
 1755 007e 0193     		str	r3, [sp, #4]
 1756 0080 0123     		movs	r3, #1
 1757 0082 0093     		str	r3, [sp]
 1758 0084 9323     		movs	r3, #147
 1759 0086 9B00     		lsls	r3, r3, #2
 1760 0088 244A     		ldr	r2, .L118+4
 1761 008a 6832     		adds	r2, r2, #104
 1762 008c 2449     		ldr	r1, .L118+8
 1763 008e 0020     		movs	r0, #0
 1764              	.LVL305:
 1765 0090 A047     		blx	r4
 1766              	.LVL306:
 1767              	.LBE42:
 589:Source\azure_iot_sdk\uamqp\src/amqp_management.c ****             }
 1768              		.loc 1 589 0 is_stmt 1 discriminator 4
 1769 0092 294C     		ldr	r4, .L118+32
 1770              	.LVL307:
 1771 0094 36E0     		b	.L109
 1772              	.LVL308:
 1773              	.L108:
 594:Source\azure_iot_sdk\uamqp\src/amqp_management.c ****                 {
 1774              		.loc 1 594 0
 1775 0096 0100     		movs	r1, r0
 1776 0098 0398     		ldr	r0, [sp, #12]
 1777              	.LVL309:
 1778 009a FFF7FEFF 		bl	properties_set_message_id
 1779              	.LVL310:
 1780 009e 0028     		cmp	r0, #0
 1781 00a0 0FD0     		beq	.L110
 1782              	.LBB43:
ARM GAS  C:\Users\Phuong\AppData\Local\Temp\ccdTtd1y.s 			page 48


 597:Source\azure_iot_sdk\uamqp\src/amqp_management.c ****                     result = __FAILURE__;
 1783              		.loc 1 597 0 discriminator 3
 1784 00a2 FFF7FEFF 		bl	xlogging_get_log_function
 1785              	.LVL311:
 1786 00a6 041E     		subs	r4, r0, #0
 1787              	.LVL312:
 1788 00a8 22D0     		beq	.L115
 597:Source\azure_iot_sdk\uamqp\src/amqp_management.c ****                     result = __FAILURE__;
 1789              		.loc 1 597 0 is_stmt 0 discriminator 4
 1790 00aa 244B     		ldr	r3, .L118+36
 1791 00ac 0193     		str	r3, [sp, #4]
 1792 00ae 0123     		movs	r3, #1
 1793 00b0 0093     		str	r3, [sp]
 1794 00b2 234B     		ldr	r3, .L118+40
 1795 00b4 194A     		ldr	r2, .L118+4
 1796 00b6 6832     		adds	r2, r2, #104
 1797 00b8 1949     		ldr	r1, .L118+8
 1798 00ba 0020     		movs	r0, #0
 1799              	.LVL313:
 1800 00bc A047     		blx	r4
 1801              	.LVL314:
 1802              	.LBE43:
 598:Source\azure_iot_sdk\uamqp\src/amqp_management.c ****                 }
 1803              		.loc 1 598 0 is_stmt 1 discriminator 4
 1804 00be 214C     		ldr	r4, .L118+44
 1805              	.LVL315:
 1806 00c0 1BE0     		b	.L111
 1807              	.LVL316:
 1808              	.L110:
 601:Source\azure_iot_sdk\uamqp\src/amqp_management.c ****                 {
 1809              		.loc 1 601 0
 1810 00c2 0399     		ldr	r1, [sp, #12]
 1811 00c4 2000     		movs	r0, r4
 1812 00c6 FFF7FEFF 		bl	message_set_properties
 1813              	.LVL317:
 1814 00ca 0028     		cmp	r0, #0
 1815 00cc 12D0     		beq	.L116
 1816              	.LBB44:
 604:Source\azure_iot_sdk\uamqp\src/amqp_management.c ****                     result = __FAILURE__;
 1817              		.loc 1 604 0 discriminator 3
 1818 00ce FFF7FEFF 		bl	xlogging_get_log_function
 1819              	.LVL318:
 1820 00d2 041E     		subs	r4, r0, #0
 1821              	.LVL319:
 1822 00d4 10D0     		beq	.L117
 604:Source\azure_iot_sdk\uamqp\src/amqp_management.c ****                     result = __FAILURE__;
 1823              		.loc 1 604 0 is_stmt 0 discriminator 4
 1824 00d6 1C4B     		ldr	r3, .L118+48
 1825 00d8 0193     		str	r3, [sp, #4]
 1826 00da 0123     		movs	r3, #1
 1827 00dc 0093     		str	r3, [sp]
 1828 00de 9723     		movs	r3, #151
 1829 00e0 9B00     		lsls	r3, r3, #2
 1830 00e2 0E4A     		ldr	r2, .L118+4
 1831 00e4 6832     		adds	r2, r2, #104
 1832 00e6 0E49     		ldr	r1, .L118+8
 1833 00e8 0020     		movs	r0, #0
ARM GAS  C:\Users\Phuong\AppData\Local\Temp\ccdTtd1y.s 			page 49


 1834              	.LVL320:
 1835 00ea A047     		blx	r4
 1836              	.LVL321:
 1837              	.LBE44:
 605:Source\azure_iot_sdk\uamqp\src/amqp_management.c ****                 }
 1838              		.loc 1 605 0 is_stmt 1 discriminator 4
 1839 00ec 174C     		ldr	r4, .L118+52
 1840              	.LVL322:
 1841 00ee 04E0     		b	.L111
 1842              	.LVL323:
 1843              	.L115:
 598:Source\azure_iot_sdk\uamqp\src/amqp_management.c ****                 }
 1844              		.loc 1 598 0
 1845 00f0 144C     		ldr	r4, .L118+44
 1846 00f2 02E0     		b	.L111
 1847              	.LVL324:
 1848              	.L116:
 609:Source\azure_iot_sdk\uamqp\src/amqp_management.c ****                 }
 1849              		.loc 1 609 0
 1850 00f4 0024     		movs	r4, #0
 1851              	.LVL325:
 1852 00f6 00E0     		b	.L111
 1853              	.LVL326:
 1854              	.L117:
 605:Source\azure_iot_sdk\uamqp\src/amqp_management.c ****                 }
 1855              		.loc 1 605 0
 1856 00f8 144C     		ldr	r4, .L118+52
 1857              	.LVL327:
 1858              	.L111:
 612:Source\azure_iot_sdk\uamqp\src/amqp_management.c ****             }
 1859              		.loc 1 612 0
 1860 00fa 2800     		movs	r0, r5
 1861 00fc FFF7FEFF 		bl	amqpvalue_destroy
 1862              	.LVL328:
 1863 0100 00E0     		b	.L109
 1864              	.LVL329:
 1865              	.L114:
 589:Source\azure_iot_sdk\uamqp\src/amqp_management.c ****             }
 1866              		.loc 1 589 0
 1867 0102 0D4C     		ldr	r4, .L118+32
 1868              	.LVL330:
 1869              	.L109:
 616:Source\azure_iot_sdk\uamqp\src/amqp_management.c ****         }
 1870              		.loc 1 616 0
 1871 0104 0398     		ldr	r0, [sp, #12]
 1872 0106 FFF7FEFF 		bl	properties_destroy
 1873              	.LVL331:
 1874 010a 02E0     		b	.L105
 1875              	.LVL332:
 1876              	.L112:
 1877              	.LBE41:
 565:Source\azure_iot_sdk\uamqp\src/amqp_management.c ****     }
 1878              		.loc 1 565 0
 1879 010c 054C     		ldr	r4, .L118+12
 1880 010e 00E0     		b	.L105
 1881              	.LVL333:
 1882              	.L113:
ARM GAS  C:\Users\Phuong\AppData\Local\Temp\ccdTtd1y.s 			page 50


 579:Source\azure_iot_sdk\uamqp\src/amqp_management.c ****         }
 1883              		.loc 1 579 0
 1884 0110 074C     		ldr	r4, .L118+24
 1885              	.LVL334:
 1886              	.L105:
 621:Source\azure_iot_sdk\uamqp\src/amqp_management.c **** 
 1887              		.loc 1 621 0
 1888 0112 2000     		movs	r0, r4
 1889 0114 05B0     		add	sp, sp, #20
 1890              		@ sp needed
 1891              	.LVL335:
 1892 0116 F0BD     		pop	{r4, r5, r6, r7, pc}
 1893              	.L119:
 1894              		.align	2
 1895              	.L118:
 1896 0118 D0010000 		.word	.LC33
 1897 011c 80000000 		.word	.LANCHOR1
 1898 0120 00000000 		.word	.LC1
 1899 0124 35020000 		.word	565
 1900 0128 90050000 		.word	.LC73
 1901 012c 42020000 		.word	578
 1902 0130 43020000 		.word	579
 1903 0134 B4050000 		.word	.LC75
 1904 0138 4D020000 		.word	589
 1905 013c D8050000 		.word	.LC77
 1906 0140 55020000 		.word	597
 1907 0144 56020000 		.word	598
 1908 0148 04060000 		.word	.LC79
 1909 014c 5D020000 		.word	605
 1910              		.cfi_endproc
 1911              	.LFE5:
 1912              		.size	set_message_id, .-set_message_id
 1913              		.section	.text.amqp_management_create,"ax",%progbits
 1914              		.align	2
 1915              		.global	amqp_management_create
 1916              		.code	16
 1917              		.thumb_func
 1918              		.type	amqp_management_create, %function
 1919              	amqp_management_create:
 1920              	.LFB9:
 713:Source\azure_iot_sdk\uamqp\src/amqp_management.c **** 
 714:Source\azure_iot_sdk\uamqp\src/amqp_management.c **** AMQP_MANAGEMENT_HANDLE amqp_management_create(SESSION_HANDLE session, const char* management_node)
 715:Source\azure_iot_sdk\uamqp\src/amqp_management.c **** {
 1921              		.loc 1 715 0
 1922              		.cfi_startproc
 1923              		@ args = 0, pretend = 0, frame = 16
 1924              		@ frame_needed = 0, uses_anonymous_args = 0
 1925              	.LVL336:
 1926 0000 F0B5     		push	{r4, r5, r6, r7, lr}
 1927              		.cfi_def_cfa_offset 20
 1928              		.cfi_offset 4, -20
 1929              		.cfi_offset 5, -16
 1930              		.cfi_offset 6, -12
 1931              		.cfi_offset 7, -8
 1932              		.cfi_offset 14, -4
 1933 0002 4F46     		mov	r7, r9
 1934 0004 4646     		mov	r6, r8
ARM GAS  C:\Users\Phuong\AppData\Local\Temp\ccdTtd1y.s 			page 51


 1935 0006 C0B4     		push	{r6, r7}
 1936              		.cfi_def_cfa_offset 28
 1937              		.cfi_offset 8, -28
 1938              		.cfi_offset 9, -24
 1939 0008 89B0     		sub	sp, sp, #36
 1940              		.cfi_def_cfa_offset 64
 1941 000a 0600     		movs	r6, r0
 1942 000c 0F00     		movs	r7, r1
 716:Source\azure_iot_sdk\uamqp\src/amqp_management.c ****     AMQP_MANAGEMENT_INSTANCE* amqp_management;
 717:Source\azure_iot_sdk\uamqp\src/amqp_management.c **** 
 718:Source\azure_iot_sdk\uamqp\src/amqp_management.c ****     if ((session == NULL) ||
 1943              		.loc 1 718 0
 1944 000e 0028     		cmp	r0, #0
 1945 0010 01D0     		beq	.L121
 1946              		.loc 1 718 0 is_stmt 0 discriminator 1
 1947 0012 0029     		cmp	r1, #0
 1948 0014 12D1     		bne	.L122
 1949              	.L121:
 1950              	.LBB45:
 719:Source\azure_iot_sdk\uamqp\src/amqp_management.c ****         (management_node == NULL))
 720:Source\azure_iot_sdk\uamqp\src/amqp_management.c ****     {
 721:Source\azure_iot_sdk\uamqp\src/amqp_management.c ****         /* Codes_SRS_AMQP_MANAGEMENT_01_002: [ If `session` or `management_node` is NULL then `amqp
 722:Source\azure_iot_sdk\uamqp\src/amqp_management.c ****         LogError("Bad arguments: session = %p, management_node = %p", session, management_node);
 1951              		.loc 1 722 0 is_stmt 1 discriminator 3
 1952 0016 FFF7FEFF 		bl	xlogging_get_log_function
 1953              	.LVL337:
 1954 001a 041E     		subs	r4, r0, #0
 1955              	.LVL338:
 1956 001c 00D1     		bne	.LCB2194
 1957 001e 9BE1     		b	.L148	@long jump
 1958              	.LCB2194:
 1959              		.loc 1 722 0 is_stmt 0 discriminator 4
 1960 0020 0397     		str	r7, [sp, #12]
 1961 0022 0296     		str	r6, [sp, #8]
 1962 0024 D14B     		ldr	r3, .L150
 1963 0026 0193     		str	r3, [sp, #4]
 1964 0028 0123     		movs	r3, #1
 1965 002a 0093     		str	r3, [sp]
 1966 002c D04B     		ldr	r3, .L150+4
 1967 002e D14A     		ldr	r2, .L150+8
 1968 0030 7832     		adds	r2, r2, #120
 1969 0032 D149     		ldr	r1, .L150+12
 1970 0034 0020     		movs	r0, #0
 1971              	.LVL339:
 1972 0036 A047     		blx	r4
 1973              	.LVL340:
 1974              	.LBE45:
 723:Source\azure_iot_sdk\uamqp\src/amqp_management.c ****         amqp_management = NULL;
 1975              		.loc 1 723 0 is_stmt 1 discriminator 4
 1976 0038 0024     		movs	r4, #0
 1977              	.LVL341:
 1978 003a 90E1     		b	.L123
 1979              	.LVL342:
 1980              	.L122:
 724:Source\azure_iot_sdk\uamqp\src/amqp_management.c ****     }
 725:Source\azure_iot_sdk\uamqp\src/amqp_management.c ****     else if (strlen(management_node) == 0)
 1981              		.loc 1 725 0
ARM GAS  C:\Users\Phuong\AppData\Local\Temp\ccdTtd1y.s 			page 52


 1982 003c 0B78     		ldrb	r3, [r1]
 1983 003e 002B     		cmp	r3, #0
 1984 0040 11D1     		bne	.L124
 1985              	.LBB46:
 726:Source\azure_iot_sdk\uamqp\src/amqp_management.c ****     {
 727:Source\azure_iot_sdk\uamqp\src/amqp_management.c ****         /* Codes_SRS_AMQP_MANAGEMENT_01_030: [ If `management_node` is an empty string, then `amqp_
 728:Source\azure_iot_sdk\uamqp\src/amqp_management.c ****         LogError("Empty string management node");
 1986              		.loc 1 728 0 discriminator 3
 1987 0042 FFF7FEFF 		bl	xlogging_get_log_function
 1988              	.LVL343:
 1989 0046 041E     		subs	r4, r0, #0
 1990              	.LVL344:
 1991 0048 00D1     		bne	.LCB2230
 1992 004a 87E1     		b	.L149	@long jump
 1993              	.LCB2230:
 1994              		.loc 1 728 0 is_stmt 0 discriminator 4
 1995 004c CB4B     		ldr	r3, .L150+16
 1996 004e 0193     		str	r3, [sp, #4]
 1997 0050 0123     		movs	r3, #1
 1998 0052 0093     		str	r3, [sp]
 1999 0054 B623     		movs	r3, #182
 2000 0056 9B00     		lsls	r3, r3, #2
 2001 0058 C64A     		ldr	r2, .L150+8
 2002 005a 7832     		adds	r2, r2, #120
 2003 005c C649     		ldr	r1, .L150+12
 2004 005e 0020     		movs	r0, #0
 2005              	.LVL345:
 2006 0060 A047     		blx	r4
 2007              	.LVL346:
 2008              	.LBE46:
 729:Source\azure_iot_sdk\uamqp\src/amqp_management.c ****         amqp_management = NULL;
 2009              		.loc 1 729 0 is_stmt 1 discriminator 4
 2010 0062 0024     		movs	r4, #0
 2011              	.LVL347:
 2012 0064 7BE1     		b	.L123
 2013              	.LVL348:
 2014              	.L124:
 730:Source\azure_iot_sdk\uamqp\src/amqp_management.c ****     }
 731:Source\azure_iot_sdk\uamqp\src/amqp_management.c ****     else
 732:Source\azure_iot_sdk\uamqp\src/amqp_management.c ****     {
 733:Source\azure_iot_sdk\uamqp\src/amqp_management.c ****         /* Codes_SRS_AMQP_MANAGEMENT_01_001: [ `amqp_management_create` shall create a new CBS inst
 734:Source\azure_iot_sdk\uamqp\src/amqp_management.c ****         amqp_management = (AMQP_MANAGEMENT_INSTANCE*)malloc(sizeof(AMQP_MANAGEMENT_INSTANCE));
 2015              		.loc 1 734 0
 2016 0066 4020     		movs	r0, #64
 2017              	.LVL349:
 2018 0068 FFF7FEFF 		bl	malloc
 2019              	.LVL350:
 2020 006c 041E     		subs	r4, r0, #0
 2021              	.LVL351:
 735:Source\azure_iot_sdk\uamqp\src/amqp_management.c ****         if (amqp_management == NULL)
 2022              		.loc 1 735 0
 2023 006e 0FD1     		bne	.L125
 2024              	.LBB47:
 736:Source\azure_iot_sdk\uamqp\src/amqp_management.c ****         {
 737:Source\azure_iot_sdk\uamqp\src/amqp_management.c ****             /* Codes_SRS_AMQP_MANAGEMENT_01_005: [ If allocating memory for the new handle fails, `
 738:Source\azure_iot_sdk\uamqp\src/amqp_management.c ****             LogError("Cannot allocate memory for AMQP management handle");
 2025              		.loc 1 738 0 discriminator 3
ARM GAS  C:\Users\Phuong\AppData\Local\Temp\ccdTtd1y.s 			page 53


 2026 0070 FFF7FEFF 		bl	xlogging_get_log_function
 2027              	.LVL352:
 2028 0074 051E     		subs	r5, r0, #0
 2029              	.LVL353:
 2030 0076 00D1     		bne	.LCB2270
 2031 0078 71E1     		b	.L123	@long jump
 2032              	.LCB2270:
 2033              		.loc 1 738 0 is_stmt 0 discriminator 4
 2034 007a C14B     		ldr	r3, .L150+20
 2035 007c 0193     		str	r3, [sp, #4]
 2036 007e 0123     		movs	r3, #1
 2037 0080 0093     		str	r3, [sp]
 2038 0082 C04B     		ldr	r3, .L150+24
 2039 0084 BB4A     		ldr	r2, .L150+8
 2040 0086 7832     		adds	r2, r2, #120
 2041 0088 BB49     		ldr	r1, .L150+12
 2042 008a 0020     		movs	r0, #0
 2043              	.LVL354:
 2044 008c A847     		blx	r5
 2045              	.LVL355:
 2046 008e 66E1     		b	.L123
 2047              	.LVL356:
 2048              	.L125:
 2049              	.LBE47:
 739:Source\azure_iot_sdk\uamqp\src/amqp_management.c ****         }
 740:Source\azure_iot_sdk\uamqp\src/amqp_management.c ****         else
 741:Source\azure_iot_sdk\uamqp\src/amqp_management.c ****         {
 742:Source\azure_iot_sdk\uamqp\src/amqp_management.c ****             amqp_management->sender_connected = 0;
 2050              		.loc 1 742 0 is_stmt 1
 2051 0090 3C22     		movs	r2, #60
 2052 0092 835C     		ldrb	r3, [r0, r2]
 743:Source\azure_iot_sdk\uamqp\src/amqp_management.c ****             amqp_management->receiver_connected = 0;
 2053              		.loc 1 743 0
 2054 0094 0121     		movs	r1, #1
 2055 0096 8B43     		bics	r3, r1
 2056 0098 0131     		adds	r1, r1, #1
 2057 009a 8B43     		bics	r3, r1
 2058 009c 8354     		strb	r3, [r0, r2]
 744:Source\azure_iot_sdk\uamqp\src/amqp_management.c ****             amqp_management->on_amqp_management_open_complete = NULL;
 2059              		.loc 1 744 0
 2060 009e 0023     		movs	r3, #0
 2061 00a0 0362     		str	r3, [r0, #32]
 745:Source\azure_iot_sdk\uamqp\src/amqp_management.c ****             amqp_management->on_amqp_management_open_complete_context = NULL;
 2062              		.loc 1 745 0
 2063 00a2 4362     		str	r3, [r0, #36]
 746:Source\azure_iot_sdk\uamqp\src/amqp_management.c ****             amqp_management->on_amqp_management_error = NULL;
 2064              		.loc 1 746 0
 2065 00a4 8362     		str	r3, [r0, #40]
 747:Source\azure_iot_sdk\uamqp\src/amqp_management.c ****             amqp_management->on_amqp_management_error_context = NULL;
 2066              		.loc 1 747 0
 2067 00a6 C362     		str	r3, [r0, #44]
 748:Source\azure_iot_sdk\uamqp\src/amqp_management.c ****             amqp_management->amqp_management_state = AMQP_MANAGEMENT_STATE_IDLE;
 2068              		.loc 1 748 0
 2069 00a8 0C3A     		subs	r2, r2, #12
 2070 00aa 8354     		strb	r3, [r0, r2]
 749:Source\azure_iot_sdk\uamqp\src/amqp_management.c ****             amqp_management->status_code_key_name = NULL;
 2071              		.loc 1 749 0
ARM GAS  C:\Users\Phuong\AppData\Local\Temp\ccdTtd1y.s 			page 54


 2072 00ac 4363     		str	r3, [r0, #52]
 750:Source\azure_iot_sdk\uamqp\src/amqp_management.c ****             amqp_management->status_description_key_name = NULL;
 2073              		.loc 1 750 0
 2074 00ae 8363     		str	r3, [r0, #56]
 751:Source\azure_iot_sdk\uamqp\src/amqp_management.c **** 
 752:Source\azure_iot_sdk\uamqp\src/amqp_management.c ****             /* Codes_SRS_AMQP_MANAGEMENT_01_003: [ `amqp_management_create` shall create a singly l
 753:Source\azure_iot_sdk\uamqp\src/amqp_management.c ****             amqp_management->pending_operations = singlylinkedlist_create();
 2075              		.loc 1 753 0
 2076 00b0 FFF7FEFF 		bl	singlylinkedlist_create
 2077              	.LVL357:
 2078 00b4 2061     		str	r0, [r4, #16]
 754:Source\azure_iot_sdk\uamqp\src/amqp_management.c ****             if (amqp_management->pending_operations == NULL)
 2079              		.loc 1 754 0
 2080 00b6 0028     		cmp	r0, #0
 2081 00b8 0FD1     		bne	.L126
 2082              	.LBB48:
 755:Source\azure_iot_sdk\uamqp\src/amqp_management.c ****             {
 756:Source\azure_iot_sdk\uamqp\src/amqp_management.c ****                 /* Codes_SRS_AMQP_MANAGEMENT_01_004: [ If `singlylinkedlist_create` fails, `amqp_ma
 757:Source\azure_iot_sdk\uamqp\src/amqp_management.c ****                 LogError("Cannot create pending operations list");
 2083              		.loc 1 757 0 discriminator 3
 2084 00ba FFF7FEFF 		bl	xlogging_get_log_function
 2085              	.LVL358:
 2086 00be 051E     		subs	r5, r0, #0
 2087              	.LVL359:
 2088 00c0 00D1     		bne	.LCB2320
 2089 00c2 44E1     		b	.L127	@long jump
 2090              	.LCB2320:
 2091              		.loc 1 757 0 is_stmt 0 discriminator 4
 2092 00c4 B04B     		ldr	r3, .L150+28
 2093 00c6 0193     		str	r3, [sp, #4]
 2094 00c8 0123     		movs	r3, #1
 2095 00ca 0093     		str	r3, [sp]
 2096 00cc AF4B     		ldr	r3, .L150+32
 2097 00ce A94A     		ldr	r2, .L150+8
 2098 00d0 7832     		adds	r2, r2, #120
 2099 00d2 A949     		ldr	r1, .L150+12
 2100 00d4 0020     		movs	r0, #0
 2101              	.LVL360:
 2102 00d6 A847     		blx	r5
 2103              	.LVL361:
 2104 00d8 39E1     		b	.L127
 2105              	.LVL362:
 2106              	.L126:
 2107              	.LBE48:
 758:Source\azure_iot_sdk\uamqp\src/amqp_management.c ****             }
 759:Source\azure_iot_sdk\uamqp\src/amqp_management.c ****             else
 760:Source\azure_iot_sdk\uamqp\src/amqp_management.c ****             {
 761:Source\azure_iot_sdk\uamqp\src/amqp_management.c ****                 /* Codes_SRS_AMQP_MANAGEMENT_01_181: [ `amqp_management_create` shall set the statu
 762:Source\azure_iot_sdk\uamqp\src/amqp_management.c ****                 if (internal_set_status_code_key_name(amqp_management, "statusCode") != 0)
 2108              		.loc 1 762 0 is_stmt 1
 2109 00da AD49     		ldr	r1, .L150+36
 2110 00dc 2000     		movs	r0, r4
 2111 00de FFF7FEFF 		bl	internal_set_status_code_key_name
 2112              	.LVL363:
 2113 00e2 0028     		cmp	r0, #0
 2114 00e4 10D0     		beq	.L128
 2115              	.LBB49:
ARM GAS  C:\Users\Phuong\AppData\Local\Temp\ccdTtd1y.s 			page 55


 763:Source\azure_iot_sdk\uamqp\src/amqp_management.c ****                 {
 764:Source\azure_iot_sdk\uamqp\src/amqp_management.c ****                     LogError("Cannot set status code key name");
 2116              		.loc 1 764 0 discriminator 3
 2117 00e6 FFF7FEFF 		bl	xlogging_get_log_function
 2118              	.LVL364:
 2119 00ea 051E     		subs	r5, r0, #0
 2120              	.LVL365:
 2121 00ec 00D1     		bne	.LCB2351
 2122 00ee 2BE1     		b	.L129	@long jump
 2123              	.LCB2351:
 2124              		.loc 1 764 0 is_stmt 0 discriminator 4
 2125 00f0 A84B     		ldr	r3, .L150+40
 2126 00f2 0193     		str	r3, [sp, #4]
 2127 00f4 0123     		movs	r3, #1
 2128 00f6 0093     		str	r3, [sp]
 2129 00f8 BF23     		movs	r3, #191
 2130 00fa 9B00     		lsls	r3, r3, #2
 2131 00fc 9D4A     		ldr	r2, .L150+8
 2132 00fe 7832     		adds	r2, r2, #120
 2133 0100 9D49     		ldr	r1, .L150+12
 2134 0102 0020     		movs	r0, #0
 2135              	.LVL366:
 2136 0104 A847     		blx	r5
 2137              	.LVL367:
 2138 0106 1FE1     		b	.L129
 2139              	.LVL368:
 2140              	.L128:
 2141              	.LBE49:
 765:Source\azure_iot_sdk\uamqp\src/amqp_management.c ****                 }
 766:Source\azure_iot_sdk\uamqp\src/amqp_management.c ****                 else
 767:Source\azure_iot_sdk\uamqp\src/amqp_management.c ****                 {
 768:Source\azure_iot_sdk\uamqp\src/amqp_management.c ****                     /* Codes_SRS_AMQP_MANAGEMENT_01_182: [ `amqp_management_create` shall set the s
 769:Source\azure_iot_sdk\uamqp\src/amqp_management.c ****                     if (internal_set_status_description_key_name(amqp_management, "statusDescriptio
 2142              		.loc 1 769 0 is_stmt 1
 2143 0108 A349     		ldr	r1, .L150+44
 2144 010a 2000     		movs	r0, r4
 2145 010c FFF7FEFF 		bl	internal_set_status_description_key_name
 2146              	.LVL369:
 2147 0110 0028     		cmp	r0, #0
 2148 0112 0FD0     		beq	.L130
 2149              	.LBB50:
 770:Source\azure_iot_sdk\uamqp\src/amqp_management.c ****                     {
 771:Source\azure_iot_sdk\uamqp\src/amqp_management.c ****                         LogError("Cannot set status description key name");
 2150              		.loc 1 771 0 discriminator 3
 2151 0114 FFF7FEFF 		bl	xlogging_get_log_function
 2152              	.LVL370:
 2153 0118 051E     		subs	r5, r0, #0
 2154              	.LVL371:
 2155 011a 00D1     		bne	.LCB2383
 2156 011c 11E1     		b	.L131	@long jump
 2157              	.LCB2383:
 2158              		.loc 1 771 0 is_stmt 0 discriminator 4
 2159 011e 9F4B     		ldr	r3, .L150+48
 2160 0120 0193     		str	r3, [sp, #4]
 2161 0122 0123     		movs	r3, #1
 2162 0124 0093     		str	r3, [sp]
 2163 0126 9E4B     		ldr	r3, .L150+52
ARM GAS  C:\Users\Phuong\AppData\Local\Temp\ccdTtd1y.s 			page 56


 2164 0128 924A     		ldr	r2, .L150+8
 2165 012a 7832     		adds	r2, r2, #120
 2166 012c 9249     		ldr	r1, .L150+12
 2167 012e 0020     		movs	r0, #0
 2168              	.LVL372:
 2169 0130 A847     		blx	r5
 2170              	.LVL373:
 2171 0132 06E1     		b	.L131
 2172              	.LVL374:
 2173              	.L130:
 2174              	.LBE50:
 2175              	.LBB51:
 772:Source\azure_iot_sdk\uamqp\src/amqp_management.c ****                     }
 773:Source\azure_iot_sdk\uamqp\src/amqp_management.c ****                     else
 774:Source\azure_iot_sdk\uamqp\src/amqp_management.c ****                     {
 775:Source\azure_iot_sdk\uamqp\src/amqp_management.c ****                         /* Codes_SRS_AMQP_MANAGEMENT_01_010: [ The `source` argument shall be a val
 776:Source\azure_iot_sdk\uamqp\src/amqp_management.c ****                         AMQP_VALUE source = messaging_create_source(management_node);
 2176              		.loc 1 776 0 is_stmt 1
 2177 0134 3800     		movs	r0, r7
 2178 0136 FFF7FEFF 		bl	messaging_create_source
 2179              	.LVL375:
 2180 013a 0690     		str	r0, [sp, #24]
 2181              	.LVL376:
 777:Source\azure_iot_sdk\uamqp\src/amqp_management.c ****                         if (source == NULL)
 2182              		.loc 1 777 0
 2183 013c 0028     		cmp	r0, #0
 2184 013e 10D1     		bne	.L132
 2185              	.LBB52:
 778:Source\azure_iot_sdk\uamqp\src/amqp_management.c ****                         {
 779:Source\azure_iot_sdk\uamqp\src/amqp_management.c ****                             /* Codes_SRS_AMQP_MANAGEMENT_01_012: [ If `messaging_create_source` fai
 780:Source\azure_iot_sdk\uamqp\src/amqp_management.c ****                             LogError("Failed creating source AMQP value");
 2186              		.loc 1 780 0 discriminator 3
 2187 0140 FFF7FEFF 		bl	xlogging_get_log_function
 2188              	.LVL377:
 2189 0144 051E     		subs	r5, r0, #0
 2190              	.LVL378:
 2191 0146 00D1     		bne	.LCB2417
 2192 0148 F8E0     		b	.L133	@long jump
 2193              	.LCB2417:
 2194              		.loc 1 780 0 is_stmt 0 discriminator 4
 2195 014a 964B     		ldr	r3, .L150+56
 2196 014c 0193     		str	r3, [sp, #4]
 2197 014e 0123     		movs	r3, #1
 2198 0150 0093     		str	r3, [sp]
 2199 0152 C323     		movs	r3, #195
 2200 0154 9B00     		lsls	r3, r3, #2
 2201 0156 874A     		ldr	r2, .L150+8
 2202 0158 7832     		adds	r2, r2, #120
 2203 015a 8749     		ldr	r1, .L150+12
 2204 015c 0020     		movs	r0, #0
 2205              	.LVL379:
 2206 015e A847     		blx	r5
 2207              	.LVL380:
 2208 0160 ECE0     		b	.L133
 2209              	.LVL381:
 2210              	.L132:
 2211              	.LBE52:
ARM GAS  C:\Users\Phuong\AppData\Local\Temp\ccdTtd1y.s 			page 57


 2212              	.LBB53:
 781:Source\azure_iot_sdk\uamqp\src/amqp_management.c ****                         }
 782:Source\azure_iot_sdk\uamqp\src/amqp_management.c ****                         else
 783:Source\azure_iot_sdk\uamqp\src/amqp_management.c ****                         {
 784:Source\azure_iot_sdk\uamqp\src/amqp_management.c ****                             /* Codes_SRS_AMQP_MANAGEMENT_01_011: [ The `target` argument shall be a
 785:Source\azure_iot_sdk\uamqp\src/amqp_management.c ****                             AMQP_VALUE target = messaging_create_target(management_node);
 2213              		.loc 1 785 0 is_stmt 1
 2214 0162 3800     		movs	r0, r7
 2215              	.LVL382:
 2216 0164 FFF7FEFF 		bl	messaging_create_target
 2217              	.LVL383:
 2218 0168 8146     		mov	r9, r0
 2219              	.LVL384:
 786:Source\azure_iot_sdk\uamqp\src/amqp_management.c ****                             if (target == NULL)
 2220              		.loc 1 786 0
 2221 016a 0028     		cmp	r0, #0
 2222 016c 0FD1     		bne	.L134
 2223              	.LBB54:
 787:Source\azure_iot_sdk\uamqp\src/amqp_management.c ****                             {
 788:Source\azure_iot_sdk\uamqp\src/amqp_management.c ****                                 /* Codes_SRS_AMQP_MANAGEMENT_01_013: [ If `messaging_create_target`
 789:Source\azure_iot_sdk\uamqp\src/amqp_management.c ****                                 LogError("Failed creating target AMQP value");
 2224              		.loc 1 789 0 discriminator 3
 2225 016e FFF7FEFF 		bl	xlogging_get_log_function
 2226              	.LVL385:
 2227 0172 051E     		subs	r5, r0, #0
 2228              	.LVL386:
 2229 0174 00D1     		bne	.LCB2454
 2230 0176 DEE0     		b	.L135	@long jump
 2231              	.LCB2454:
 2232              		.loc 1 789 0 is_stmt 0 discriminator 4
 2233 0178 8B4B     		ldr	r3, .L150+60
 2234 017a 0193     		str	r3, [sp, #4]
 2235 017c 0123     		movs	r3, #1
 2236 017e 0093     		str	r3, [sp]
 2237 0180 8A4B     		ldr	r3, .L150+64
 2238 0182 7C4A     		ldr	r2, .L150+8
 2239 0184 7832     		adds	r2, r2, #120
 2240 0186 7C49     		ldr	r1, .L150+12
 2241 0188 0020     		movs	r0, #0
 2242              	.LVL387:
 2243 018a A847     		blx	r5
 2244              	.LVL388:
 2245 018c D3E0     		b	.L135
 2246              	.LVL389:
 2247              	.L134:
 2248              	.LBE54:
 2249              	.LBB55:
 790:Source\azure_iot_sdk\uamqp\src/amqp_management.c ****                             }
 791:Source\azure_iot_sdk\uamqp\src/amqp_management.c ****                             else
 792:Source\azure_iot_sdk\uamqp\src/amqp_management.c ****                             {
 793:Source\azure_iot_sdk\uamqp\src/amqp_management.c ****                                 size_t management_node_length = strlen(management_node);
 2250              		.loc 1 793 0 is_stmt 1
 2251 018e 3800     		movs	r0, r7
 2252              	.LVL390:
 2253 0190 FFF7FEFF 		bl	strlen
 2254              	.LVL391:
 2255 0194 0500     		movs	r5, r0
ARM GAS  C:\Users\Phuong\AppData\Local\Temp\ccdTtd1y.s 			page 58


 2256              	.LVL392:
 794:Source\azure_iot_sdk\uamqp\src/amqp_management.c **** 
 795:Source\azure_iot_sdk\uamqp\src/amqp_management.c ****                                 char* sender_link_name = (char*)malloc(management_node_length + COU
 2257              		.loc 1 795 0
 2258 0196 0830     		adds	r0, r0, #8
 2259              	.LVL393:
 2260 0198 FFF7FEFF 		bl	malloc
 2261              	.LVL394:
 2262 019c 0590     		str	r0, [sp, #20]
 2263              	.LVL395:
 796:Source\azure_iot_sdk\uamqp\src/amqp_management.c ****                                 if (sender_link_name == NULL)
 2264              		.loc 1 796 0
 2265 019e 0028     		cmp	r0, #0
 2266 01a0 0FD1     		bne	.L136
 2267              	.LBB56:
 797:Source\azure_iot_sdk\uamqp\src/amqp_management.c ****                                 {
 798:Source\azure_iot_sdk\uamqp\src/amqp_management.c ****                                     /* Codes_SRS_AMQP_MANAGEMENT_01_033: [ If any other error occur
 799:Source\azure_iot_sdk\uamqp\src/amqp_management.c ****                                     LogError("Failed allocating memory for sender link name");
 2268              		.loc 1 799 0 discriminator 3
 2269 01a2 FFF7FEFF 		bl	xlogging_get_log_function
 2270              	.LVL396:
 2271 01a6 051E     		subs	r5, r0, #0
 2272              	.LVL397:
 2273 01a8 00D1     		bne	.LCB2497
 2274 01aa C1E0     		b	.L137	@long jump
 2275              	.LCB2497:
 2276              		.loc 1 799 0 is_stmt 0 discriminator 4
 2277 01ac 804B     		ldr	r3, .L150+68
 2278 01ae 0193     		str	r3, [sp, #4]
 2279 01b0 0123     		movs	r3, #1
 2280 01b2 0093     		str	r3, [sp]
 2281 01b4 7F4B     		ldr	r3, .L150+72
 2282 01b6 6F4A     		ldr	r2, .L150+8
 2283 01b8 7832     		adds	r2, r2, #120
 2284 01ba 6F49     		ldr	r1, .L150+12
 2285 01bc 0020     		movs	r0, #0
 2286              	.LVL398:
 2287 01be A847     		blx	r5
 2288              	.LVL399:
 2289 01c0 B6E0     		b	.L137
 2290              	.LVL400:
 2291              	.L136:
 2292              	.LBE56:
 2293              	.LBB57:
 800:Source\azure_iot_sdk\uamqp\src/amqp_management.c ****                                 }
 801:Source\azure_iot_sdk\uamqp\src/amqp_management.c ****                                 else
 802:Source\azure_iot_sdk\uamqp\src/amqp_management.c ****                                 {
 803:Source\azure_iot_sdk\uamqp\src/amqp_management.c ****                                     char* receiver_link_name;
 804:Source\azure_iot_sdk\uamqp\src/amqp_management.c **** 
 805:Source\azure_iot_sdk\uamqp\src/amqp_management.c ****                                     (void)memcpy(sender_link_name, management_node, management_node
 2294              		.loc 1 805 0 is_stmt 1
 2295 01c2 2A00     		movs	r2, r5
 2296 01c4 3900     		movs	r1, r7
 2297 01c6 0598     		ldr	r0, [sp, #20]
 2298              	.LVL401:
 2299 01c8 FFF7FEFF 		bl	memcpy
 2300              	.LVL402:
ARM GAS  C:\Users\Phuong\AppData\Local\Temp\ccdTtd1y.s 			page 59


 806:Source\azure_iot_sdk\uamqp\src/amqp_management.c ****                                     (void)memcpy(sender_link_name + management_node_length, sender_
 2301              		.loc 1 806 0
 2302 01cc 059B     		ldr	r3, [sp, #20]
 2303 01ce 5819     		adds	r0, r3, r5
 2304 01d0 0822     		movs	r2, #8
 2305 01d2 7949     		ldr	r1, .L150+76
 2306 01d4 FFF7FEFF 		bl	memcpy
 2307              	.LVL403:
 807:Source\azure_iot_sdk\uamqp\src/amqp_management.c **** 
 808:Source\azure_iot_sdk\uamqp\src/amqp_management.c ****                                     receiver_link_name = (char*)malloc(management_node_length + COU
 2308              		.loc 1 808 0
 2309 01d8 2800     		movs	r0, r5
 2310 01da 0A30     		adds	r0, r0, #10
 2311 01dc FFF7FEFF 		bl	malloc
 2312              	.LVL404:
 2313 01e0 0790     		str	r0, [sp, #28]
 2314              	.LVL405:
 809:Source\azure_iot_sdk\uamqp\src/amqp_management.c ****                                     if (receiver_link_name == NULL)
 2315              		.loc 1 809 0
 2316 01e2 0028     		cmp	r0, #0
 2317 01e4 10D1     		bne	.L138
 2318              	.LBB58:
 810:Source\azure_iot_sdk\uamqp\src/amqp_management.c ****                                     {
 811:Source\azure_iot_sdk\uamqp\src/amqp_management.c ****                                         /* Codes_SRS_AMQP_MANAGEMENT_01_033: [ If any other error o
 812:Source\azure_iot_sdk\uamqp\src/amqp_management.c ****                                         LogError("Failed allocating memory for receiver link name")
 2319              		.loc 1 812 0 discriminator 3
 2320 01e6 FFF7FEFF 		bl	xlogging_get_log_function
 2321              	.LVL406:
 2322 01ea 061E     		subs	r6, r0, #0
 2323              	.LVL407:
 2324 01ec 00D1     		bne	.LCB2548
 2325 01ee 9CE0     		b	.L139	@long jump
 2326              	.LCB2548:
 2327              		.loc 1 812 0 is_stmt 0 discriminator 4
 2328 01f0 724B     		ldr	r3, .L150+80
 2329 01f2 0193     		str	r3, [sp, #4]
 2330 01f4 0123     		movs	r3, #1
 2331 01f6 0093     		str	r3, [sp]
 2332 01f8 CB23     		movs	r3, #203
 2333 01fa 9B00     		lsls	r3, r3, #2
 2334 01fc 5D4A     		ldr	r2, .L150+8
 2335 01fe 7832     		adds	r2, r2, #120
 2336 0200 5D49     		ldr	r1, .L150+12
 2337 0202 0020     		movs	r0, #0
 2338              	.LVL408:
 2339 0204 B047     		blx	r6
 2340              	.LVL409:
 2341 0206 90E0     		b	.L139
 2342              	.LVL410:
 2343              	.L138:
 2344              	.LBE58:
 813:Source\azure_iot_sdk\uamqp\src/amqp_management.c ****                                     }
 814:Source\azure_iot_sdk\uamqp\src/amqp_management.c ****                                     else
 815:Source\azure_iot_sdk\uamqp\src/amqp_management.c ****                                     {
 816:Source\azure_iot_sdk\uamqp\src/amqp_management.c ****                                         (void)memcpy(receiver_link_name, management_node, managemen
 2345              		.loc 1 816 0 is_stmt 1
 2346 0208 2A00     		movs	r2, r5
ARM GAS  C:\Users\Phuong\AppData\Local\Temp\ccdTtd1y.s 			page 60


 2347 020a 3900     		movs	r1, r7
 2348 020c 079F     		ldr	r7, [sp, #28]
 2349              	.LVL411:
 2350 020e 3800     		movs	r0, r7
 2351              	.LVL412:
 2352 0210 FFF7FEFF 		bl	memcpy
 2353              	.LVL413:
 817:Source\azure_iot_sdk\uamqp\src/amqp_management.c ****                                         (void)memcpy(receiver_link_name + management_node_length, r
 2354              		.loc 1 817 0
 2355 0214 7819     		adds	r0, r7, r5
 2356 0216 0A22     		movs	r2, #10
 2357 0218 6949     		ldr	r1, .L150+84
 2358 021a FFF7FEFF 		bl	memcpy
 2359              	.LVL414:
 818:Source\azure_iot_sdk\uamqp\src/amqp_management.c **** 
 819:Source\azure_iot_sdk\uamqp\src/amqp_management.c ****                                         /* Codes_SRS_AMQP_MANAGEMENT_01_006: [ `amqp_management_cre
 820:Source\azure_iot_sdk\uamqp\src/amqp_management.c ****                                         /* Codes_SRS_AMQP_MANAGEMENT_01_007: [ The `session` argume
 821:Source\azure_iot_sdk\uamqp\src/amqp_management.c ****                                         /* Codes_SRS_AMQP_MANAGEMENT_01_008: [ The `name` argument 
 822:Source\azure_iot_sdk\uamqp\src/amqp_management.c ****                                         /* Codes_SRS_AMQP_MANAGEMENT_01_009: [ The `role` argument 
 823:Source\azure_iot_sdk\uamqp\src/amqp_management.c ****                                         /* Codes_SRS_AMQP_MANAGEMENT_01_019: [ The `source` argumen
 824:Source\azure_iot_sdk\uamqp\src/amqp_management.c ****                                         /* Codes_SRS_AMQP_MANAGEMENT_01_020: [ The `target` argumen
 825:Source\azure_iot_sdk\uamqp\src/amqp_management.c ****                                         amqp_management->sender_link = link_create(session, sender_
 2360              		.loc 1 825 0
 2361 021e 4B46     		mov	r3, r9
 2362 0220 0093     		str	r3, [sp]
 2363 0222 069B     		ldr	r3, [sp, #24]
 2364 0224 0022     		movs	r2, #0
 2365 0226 0599     		ldr	r1, [sp, #20]
 2366 0228 3000     		movs	r0, r6
 2367 022a FFF7FEFF 		bl	link_create
 2368              	.LVL415:
 2369 022e 2060     		str	r0, [r4]
 826:Source\azure_iot_sdk\uamqp\src/amqp_management.c ****                                         if (amqp_management->sender_link == NULL)
 2370              		.loc 1 826 0
 2371 0230 0028     		cmp	r0, #0
 2372 0232 0ED1     		bne	.L140
 2373              	.LBB59:
 827:Source\azure_iot_sdk\uamqp\src/amqp_management.c ****                                         {
 828:Source\azure_iot_sdk\uamqp\src/amqp_management.c ****                                             /* Codes_SRS_AMQP_MANAGEMENT_01_014: [ If `link_create`
 829:Source\azure_iot_sdk\uamqp\src/amqp_management.c ****                                             LogError("Failed creating sender link");
 2374              		.loc 1 829 0 discriminator 3
 2375 0234 FFF7FEFF 		bl	xlogging_get_log_function
 2376              	.LVL416:
 2377 0238 061E     		subs	r6, r0, #0
 2378              	.LVL417:
 2379 023a 73D0     		beq	.L141
 2380              		.loc 1 829 0 is_stmt 0 discriminator 4
 2381 023c 614B     		ldr	r3, .L150+88
 2382 023e 0193     		str	r3, [sp, #4]
 2383 0240 0123     		movs	r3, #1
 2384 0242 0093     		str	r3, [sp]
 2385 0244 604B     		ldr	r3, .L150+92
 2386 0246 4B4A     		ldr	r2, .L150+8
 2387 0248 7832     		adds	r2, r2, #120
 2388 024a 4B49     		ldr	r1, .L150+12
 2389 024c 0020     		movs	r0, #0
 2390              	.LVL418:
ARM GAS  C:\Users\Phuong\AppData\Local\Temp\ccdTtd1y.s 			page 61


 2391 024e B047     		blx	r6
 2392              	.LVL419:
 2393 0250 68E0     		b	.L141
 2394              	.LVL420:
 2395              	.L140:
 2396              	.LBE59:
 830:Source\azure_iot_sdk\uamqp\src/amqp_management.c ****                                         }
 831:Source\azure_iot_sdk\uamqp\src/amqp_management.c ****                                         else
 832:Source\azure_iot_sdk\uamqp\src/amqp_management.c ****                                         {
 833:Source\azure_iot_sdk\uamqp\src/amqp_management.c ****                                             /* Codes_SRS_AMQP_MANAGEMENT_01_015: [ `amqp_management
 834:Source\azure_iot_sdk\uamqp\src/amqp_management.c ****                                             /* Codes_SRS_AMQP_MANAGEMENT_01_016: [ The `session` ar
 835:Source\azure_iot_sdk\uamqp\src/amqp_management.c ****                                             /* Codes_SRS_AMQP_MANAGEMENT_01_017: [ The `name` argum
 836:Source\azure_iot_sdk\uamqp\src/amqp_management.c ****                                             /* Codes_SRS_AMQP_MANAGEMENT_01_018: [ The `role` argum
 837:Source\azure_iot_sdk\uamqp\src/amqp_management.c ****                                             /* Codes_SRS_AMQP_MANAGEMENT_01_019: [ The `source` arg
 838:Source\azure_iot_sdk\uamqp\src/amqp_management.c ****                                             /* Codes_SRS_AMQP_MANAGEMENT_01_020: [ The `target` arg
 839:Source\azure_iot_sdk\uamqp\src/amqp_management.c ****                                             amqp_management->receiver_link = link_create(session, r
 2397              		.loc 1 839 0 is_stmt 1
 2398 0252 4B46     		mov	r3, r9
 2399 0254 0093     		str	r3, [sp]
 2400 0256 069B     		ldr	r3, [sp, #24]
 2401 0258 0122     		movs	r2, #1
 2402 025a 0799     		ldr	r1, [sp, #28]
 2403 025c 3000     		movs	r0, r6
 2404 025e FFF7FEFF 		bl	link_create
 2405              	.LVL421:
 2406 0262 6060     		str	r0, [r4, #4]
 840:Source\azure_iot_sdk\uamqp\src/amqp_management.c ****                                             if (amqp_management->receiver_link == NULL)
 2407              		.loc 1 840 0
 2408 0264 0028     		cmp	r0, #0
 2409 0266 0FD1     		bne	.L142
 2410              	.LBB60:
 841:Source\azure_iot_sdk\uamqp\src/amqp_management.c ****                                             {
 842:Source\azure_iot_sdk\uamqp\src/amqp_management.c ****                                                 /* Codes_SRS_AMQP_MANAGEMENT_01_021: [ If `link_cre
 843:Source\azure_iot_sdk\uamqp\src/amqp_management.c ****                                                 LogError("Failed creating receiver link");
 2411              		.loc 1 843 0 discriminator 3
 2412 0268 FFF7FEFF 		bl	xlogging_get_log_function
 2413              	.LVL422:
 2414 026c 8046     		mov	r8, r0
 2415              	.LVL423:
 2416 026e 0028     		cmp	r0, #0
 2417 0270 55D0     		beq	.L143
 2418              		.loc 1 843 0 is_stmt 0 discriminator 4
 2419 0272 564B     		ldr	r3, .L150+96
 2420 0274 0193     		str	r3, [sp, #4]
 2421 0276 0123     		movs	r3, #1
 2422 0278 0093     		str	r3, [sp]
 2423 027a 554B     		ldr	r3, .L150+100
 2424 027c 3D4A     		ldr	r2, .L150+8
 2425 027e 7832     		adds	r2, r2, #120
 2426 0280 3D49     		ldr	r1, .L150+12
 2427 0282 0020     		movs	r0, #0
 2428              	.LVL424:
 2429 0284 C047     		blx	r8
 2430              	.LVL425:
 2431 0286 4AE0     		b	.L143
 2432              	.LVL426:
 2433              	.L142:
ARM GAS  C:\Users\Phuong\AppData\Local\Temp\ccdTtd1y.s 			page 62


 2434              	.LBE60:
 844:Source\azure_iot_sdk\uamqp\src/amqp_management.c ****                                             }
 845:Source\azure_iot_sdk\uamqp\src/amqp_management.c ****                                             else
 846:Source\azure_iot_sdk\uamqp\src/amqp_management.c ****                                             {
 847:Source\azure_iot_sdk\uamqp\src/amqp_management.c ****                                                 /* Codes_SRS_AMQP_MANAGEMENT_01_022: [ `amqp_manage
 848:Source\azure_iot_sdk\uamqp\src/amqp_management.c ****                                                 amqp_management->message_sender = messagesender_cre
 2435              		.loc 1 848 0 is_stmt 1
 2436 0288 2200     		movs	r2, r4
 2437 028a 5249     		ldr	r1, .L150+104
 2438 028c 2068     		ldr	r0, [r4]
 2439 028e FFF7FEFF 		bl	messagesender_create
 2440              	.LVL427:
 2441 0292 A060     		str	r0, [r4, #8]
 849:Source\azure_iot_sdk\uamqp\src/amqp_management.c ****                                                 if (amqp_management->message_sender == NULL)
 2442              		.loc 1 849 0
 2443 0294 0028     		cmp	r0, #0
 2444 0296 10D1     		bne	.L144
 2445              	.LBB61:
 850:Source\azure_iot_sdk\uamqp\src/amqp_management.c ****                                                 {
 851:Source\azure_iot_sdk\uamqp\src/amqp_management.c ****                                                     /* Codes_SRS_AMQP_MANAGEMENT_01_031: [ If `mess
 852:Source\azure_iot_sdk\uamqp\src/amqp_management.c ****                                                     LogError("Failed creating message sender");
 2446              		.loc 1 852 0 discriminator 3
 2447 0298 FFF7FEFF 		bl	xlogging_get_log_function
 2448              	.LVL428:
 2449 029c 8046     		mov	r8, r0
 2450              	.LVL429:
 2451 029e 0028     		cmp	r0, #0
 2452 02a0 3AD0     		beq	.L145
 2453              		.loc 1 852 0 is_stmt 0 discriminator 4
 2454 02a2 4D4B     		ldr	r3, .L150+108
 2455 02a4 0193     		str	r3, [sp, #4]
 2456 02a6 0123     		movs	r3, #1
 2457 02a8 0093     		str	r3, [sp]
 2458 02aa D523     		movs	r3, #213
 2459 02ac 9B00     		lsls	r3, r3, #2
 2460 02ae 314A     		ldr	r2, .L150+8
 2461 02b0 7832     		adds	r2, r2, #120
 2462 02b2 3149     		ldr	r1, .L150+12
 2463 02b4 0020     		movs	r0, #0
 2464              	.LVL430:
 2465 02b6 C047     		blx	r8
 2466              	.LVL431:
 2467 02b8 2EE0     		b	.L145
 2468              	.LVL432:
 2469              	.L144:
 2470              	.LBE61:
 853:Source\azure_iot_sdk\uamqp\src/amqp_management.c ****                                                 }
 854:Source\azure_iot_sdk\uamqp\src/amqp_management.c ****                                                 else
 855:Source\azure_iot_sdk\uamqp\src/amqp_management.c ****                                                 {
 856:Source\azure_iot_sdk\uamqp\src/amqp_management.c ****                                                     /* Codes_SRS_AMQP_MANAGEMENT_01_023: [ `amqp_ma
 857:Source\azure_iot_sdk\uamqp\src/amqp_management.c ****                                                     amqp_management->message_receiver = messagerece
 2471              		.loc 1 857 0 is_stmt 1
 2472 02ba 2200     		movs	r2, r4
 2473 02bc 4749     		ldr	r1, .L150+112
 2474 02be 6068     		ldr	r0, [r4, #4]
 2475 02c0 FFF7FEFF 		bl	messagereceiver_create
 2476              	.LVL433:
ARM GAS  C:\Users\Phuong\AppData\Local\Temp\ccdTtd1y.s 			page 63


 2477 02c4 E060     		str	r0, [r4, #12]
 858:Source\azure_iot_sdk\uamqp\src/amqp_management.c ****                                                     if (amqp_management->message_receiver == NULL)
 2478              		.loc 1 858 0
 2479 02c6 0028     		cmp	r0, #0
 2480 02c8 15D1     		bne	.L146
 2481              	.LBB62:
 859:Source\azure_iot_sdk\uamqp\src/amqp_management.c ****                                                     {
 860:Source\azure_iot_sdk\uamqp\src/amqp_management.c ****                                                         /* Codes_SRS_AMQP_MANAGEMENT_01_032: [ If `
 861:Source\azure_iot_sdk\uamqp\src/amqp_management.c ****                                                         LogError("Failed creating message receiver"
 2482              		.loc 1 861 0 discriminator 3
 2483 02ca FFF7FEFF 		bl	xlogging_get_log_function
 2484              	.LVL434:
 2485 02ce 8046     		mov	r8, r0
 2486              	.LVL435:
 2487 02d0 0028     		cmp	r0, #0
 2488 02d2 09D0     		beq	.L147
 2489              		.loc 1 861 0 is_stmt 0 discriminator 4
 2490 02d4 424B     		ldr	r3, .L150+116
 2491 02d6 0193     		str	r3, [sp, #4]
 2492 02d8 0123     		movs	r3, #1
 2493 02da 0093     		str	r3, [sp]
 2494 02dc 414B     		ldr	r3, .L150+120
 2495 02de 254A     		ldr	r2, .L150+8
 2496 02e0 7832     		adds	r2, r2, #120
 2497 02e2 2549     		ldr	r1, .L150+12
 2498 02e4 0020     		movs	r0, #0
 2499              	.LVL436:
 2500 02e6 C047     		blx	r8
 2501              	.LVL437:
 2502              	.L147:
 2503              	.LBE62:
 862:Source\azure_iot_sdk\uamqp\src/amqp_management.c ****                                                         link_destroy(amqp_management->receiver_link
 2504              		.loc 1 862 0 is_stmt 1
 2505 02e8 6068     		ldr	r0, [r4, #4]
 2506 02ea FFF7FEFF 		bl	link_destroy
 2507              	.LVL438:
 863:Source\azure_iot_sdk\uamqp\src/amqp_management.c ****                                                     }
 864:Source\azure_iot_sdk\uamqp\src/amqp_management.c ****                                                     else
 865:Source\azure_iot_sdk\uamqp\src/amqp_management.c ****                                                     {
 866:Source\azure_iot_sdk\uamqp\src/amqp_management.c ****                                                         free(receiver_link_name);
 867:Source\azure_iot_sdk\uamqp\src/amqp_management.c ****                                                         free(sender_link_name);
 868:Source\azure_iot_sdk\uamqp\src/amqp_management.c ****                                                         amqpvalue_destroy(target);
 869:Source\azure_iot_sdk\uamqp\src/amqp_management.c ****                                                         amqpvalue_destroy(source);
 870:Source\azure_iot_sdk\uamqp\src/amqp_management.c **** 
 871:Source\azure_iot_sdk\uamqp\src/amqp_management.c ****                                                         /* Codes_SRS_AMQP_MANAGEMENT_01_106: [ The 
 872:Source\azure_iot_sdk\uamqp\src/amqp_management.c ****                                                         amqp_management->next_message_id = 0;
 873:Source\azure_iot_sdk\uamqp\src/amqp_management.c **** 
 874:Source\azure_iot_sdk\uamqp\src/amqp_management.c ****                                                         goto all_ok;
 875:Source\azure_iot_sdk\uamqp\src/amqp_management.c ****                                                     }
 876:Source\azure_iot_sdk\uamqp\src/amqp_management.c **** 
 877:Source\azure_iot_sdk\uamqp\src/amqp_management.c ****                                                     messagesender_destroy(amqp_management->message_
 2508              		.loc 1 877 0
 2509 02ee A068     		ldr	r0, [r4, #8]
 2510 02f0 FFF7FEFF 		bl	messagesender_destroy
 2511              	.LVL439:
 2512 02f4 10E0     		b	.L145
 2513              	.LVL440:
ARM GAS  C:\Users\Phuong\AppData\Local\Temp\ccdTtd1y.s 			page 64


 2514              	.L146:
 866:Source\azure_iot_sdk\uamqp\src/amqp_management.c ****                                                         free(sender_link_name);
 2515              		.loc 1 866 0
 2516 02f6 0798     		ldr	r0, [sp, #28]
 2517 02f8 FFF7FEFF 		bl	free
 2518              	.LVL441:
 867:Source\azure_iot_sdk\uamqp\src/amqp_management.c ****                                                         amqpvalue_destroy(target);
 2519              		.loc 1 867 0
 2520 02fc 0598     		ldr	r0, [sp, #20]
 2521 02fe FFF7FEFF 		bl	free
 2522              	.LVL442:
 868:Source\azure_iot_sdk\uamqp\src/amqp_management.c ****                                                         amqpvalue_destroy(source);
 2523              		.loc 1 868 0
 2524 0302 4846     		mov	r0, r9
 2525 0304 FFF7FEFF 		bl	amqpvalue_destroy
 2526              	.LVL443:
 869:Source\azure_iot_sdk\uamqp\src/amqp_management.c **** 
 2527              		.loc 1 869 0
 2528 0308 0698     		ldr	r0, [sp, #24]
 2529 030a FFF7FEFF 		bl	amqpvalue_destroy
 2530              	.LVL444:
 872:Source\azure_iot_sdk\uamqp\src/amqp_management.c **** 
 2531              		.loc 1 872 0
 2532 030e 0022     		movs	r2, #0
 2533 0310 0023     		movs	r3, #0
 2534 0312 A261     		str	r2, [r4, #24]
 2535 0314 E361     		str	r3, [r4, #28]
 874:Source\azure_iot_sdk\uamqp\src/amqp_management.c ****                                                     }
 2536              		.loc 1 874 0
 2537 0316 22E0     		b	.L123
 2538              	.L145:
 878:Source\azure_iot_sdk\uamqp\src/amqp_management.c ****                                                 }
 879:Source\azure_iot_sdk\uamqp\src/amqp_management.c **** 
 880:Source\azure_iot_sdk\uamqp\src/amqp_management.c ****                                                 link_destroy(amqp_management->receiver_link);
 2539              		.loc 1 880 0
 2540 0318 6068     		ldr	r0, [r4, #4]
 2541 031a FFF7FEFF 		bl	link_destroy
 2542              	.LVL445:
 2543              	.L143:
 881:Source\azure_iot_sdk\uamqp\src/amqp_management.c ****                                             }
 882:Source\azure_iot_sdk\uamqp\src/amqp_management.c **** 
 883:Source\azure_iot_sdk\uamqp\src/amqp_management.c ****                                             link_destroy(amqp_management->sender_link);
 2544              		.loc 1 883 0
 2545 031e 2068     		ldr	r0, [r4]
 2546 0320 FFF7FEFF 		bl	link_destroy
 2547              	.LVL446:
 2548              	.L141:
 884:Source\azure_iot_sdk\uamqp\src/amqp_management.c ****                                         }
 885:Source\azure_iot_sdk\uamqp\src/amqp_management.c **** 
 886:Source\azure_iot_sdk\uamqp\src/amqp_management.c ****                                         free(receiver_link_name);
 2549              		.loc 1 886 0
 2550 0324 0798     		ldr	r0, [sp, #28]
 2551 0326 FFF7FEFF 		bl	free
 2552              	.LVL447:
 2553              	.L139:
 887:Source\azure_iot_sdk\uamqp\src/amqp_management.c ****                                     }
 888:Source\azure_iot_sdk\uamqp\src/amqp_management.c **** 
ARM GAS  C:\Users\Phuong\AppData\Local\Temp\ccdTtd1y.s 			page 65


 889:Source\azure_iot_sdk\uamqp\src/amqp_management.c ****                                     free(sender_link_name);
 2554              		.loc 1 889 0
 2555 032a 0598     		ldr	r0, [sp, #20]
 2556 032c FFF7FEFF 		bl	free
 2557              	.LVL448:
 2558              	.L137:
 2559              	.LBE57:
 890:Source\azure_iot_sdk\uamqp\src/amqp_management.c ****                                 }
 891:Source\azure_iot_sdk\uamqp\src/amqp_management.c **** 
 892:Source\azure_iot_sdk\uamqp\src/amqp_management.c ****                                 amqpvalue_destroy(target);
 2560              		.loc 1 892 0
 2561 0330 4846     		mov	r0, r9
 2562 0332 FFF7FEFF 		bl	amqpvalue_destroy
 2563              	.LVL449:
 2564              	.L135:
 2565              	.LBE55:
 893:Source\azure_iot_sdk\uamqp\src/amqp_management.c ****                             }
 894:Source\azure_iot_sdk\uamqp\src/amqp_management.c **** 
 895:Source\azure_iot_sdk\uamqp\src/amqp_management.c ****                             amqpvalue_destroy(source);
 2566              		.loc 1 895 0
 2567 0336 0698     		ldr	r0, [sp, #24]
 2568 0338 FFF7FEFF 		bl	amqpvalue_destroy
 2569              	.LVL450:
 2570              	.L133:
 2571              	.LBE53:
 896:Source\azure_iot_sdk\uamqp\src/amqp_management.c ****                         }
 897:Source\azure_iot_sdk\uamqp\src/amqp_management.c **** 
 898:Source\azure_iot_sdk\uamqp\src/amqp_management.c ****                         free(amqp_management->status_description_key_name);
 2572              		.loc 1 898 0
 2573 033c A06B     		ldr	r0, [r4, #56]
 2574 033e FFF7FEFF 		bl	free
 2575              	.LVL451:
 2576              	.L131:
 2577              	.LBE51:
 899:Source\azure_iot_sdk\uamqp\src/amqp_management.c ****                     }
 900:Source\azure_iot_sdk\uamqp\src/amqp_management.c **** 
 901:Source\azure_iot_sdk\uamqp\src/amqp_management.c ****                     free(amqp_management->status_code_key_name);
 2578              		.loc 1 901 0
 2579 0342 606B     		ldr	r0, [r4, #52]
 2580 0344 FFF7FEFF 		bl	free
 2581              	.LVL452:
 2582              	.L129:
 902:Source\azure_iot_sdk\uamqp\src/amqp_management.c ****                 }
 903:Source\azure_iot_sdk\uamqp\src/amqp_management.c **** 
 904:Source\azure_iot_sdk\uamqp\src/amqp_management.c ****                 singlylinkedlist_destroy(amqp_management->pending_operations);
 2583              		.loc 1 904 0
 2584 0348 2069     		ldr	r0, [r4, #16]
 2585 034a FFF7FEFF 		bl	singlylinkedlist_destroy
 2586              	.LVL453:
 2587              	.L127:
 905:Source\azure_iot_sdk\uamqp\src/amqp_management.c ****             }
 906:Source\azure_iot_sdk\uamqp\src/amqp_management.c **** 
 907:Source\azure_iot_sdk\uamqp\src/amqp_management.c ****             free(amqp_management);
 2588              		.loc 1 907 0
 2589 034e 2000     		movs	r0, r4
 2590 0350 FFF7FEFF 		bl	free
 2591              	.LVL454:
ARM GAS  C:\Users\Phuong\AppData\Local\Temp\ccdTtd1y.s 			page 66


 908:Source\azure_iot_sdk\uamqp\src/amqp_management.c ****             amqp_management = NULL;
 2592              		.loc 1 908 0
 2593 0354 0024     		movs	r4, #0
 2594 0356 02E0     		b	.L123
 2595              	.LVL455:
 2596              	.L148:
 723:Source\azure_iot_sdk\uamqp\src/amqp_management.c ****     }
 2597              		.loc 1 723 0
 2598 0358 0024     		movs	r4, #0
 2599 035a 00E0     		b	.L123
 2600              	.LVL456:
 2601              	.L149:
 729:Source\azure_iot_sdk\uamqp\src/amqp_management.c ****     }
 2602              		.loc 1 729 0
 2603 035c 0024     		movs	r4, #0
 2604              	.LVL457:
 2605              	.L123:
 909:Source\azure_iot_sdk\uamqp\src/amqp_management.c ****         }
 910:Source\azure_iot_sdk\uamqp\src/amqp_management.c ****     }
 911:Source\azure_iot_sdk\uamqp\src/amqp_management.c **** 
 912:Source\azure_iot_sdk\uamqp\src/amqp_management.c **** all_ok:
 913:Source\azure_iot_sdk\uamqp\src/amqp_management.c ****     return amqp_management;
 914:Source\azure_iot_sdk\uamqp\src/amqp_management.c **** }
 2606              		.loc 1 914 0
 2607 035e 2000     		movs	r0, r4
 2608 0360 09B0     		add	sp, sp, #36
 2609              		@ sp needed
 2610              	.LVL458:
 2611 0362 0CBC     		pop	{r2, r3}
 2612 0364 9046     		mov	r8, r2
 2613 0366 9946     		mov	r9, r3
 2614 0368 F0BD     		pop	{r4, r5, r6, r7, pc}
 2615              	.L151:
 2616 036a C046     		.align	2
 2617              	.L150:
 2618 036c 28060000 		.word	.LC83
 2619 0370 D2020000 		.word	722
 2620 0374 80000000 		.word	.LANCHOR1
 2621 0378 00000000 		.word	.LC1
 2622 037c 5C060000 		.word	.LC85
 2623 0380 7C060000 		.word	.LC87
 2624 0384 E2020000 		.word	738
 2625 0388 B0060000 		.word	.LC89
 2626 038c F5020000 		.word	757
 2627 0390 D8060000 		.word	.LC91
 2628 0394 E4060000 		.word	.LC93
 2629 0398 04070000 		.word	.LC95
 2630 039c 18070000 		.word	.LC97
 2631 03a0 03030000 		.word	771
 2632 03a4 40070000 		.word	.LC99
 2633 03a8 64070000 		.word	.LC101
 2634 03ac 15030000 		.word	789
 2635 03b0 88070000 		.word	.LC103
 2636 03b4 1F030000 		.word	799
 2637 03b8 68080000 		.word	.LC105
 2638 03bc B8070000 		.word	.LC107
 2639 03c0 70080000 		.word	.LC109
ARM GAS  C:\Users\Phuong\AppData\Local\Temp\ccdTtd1y.s 			page 67


 2640 03c4 E8070000 		.word	.LC111
 2641 03c8 3D030000 		.word	829
 2642 03cc 04080000 		.word	.LC113
 2643 03d0 4B030000 		.word	843
 2644 03d4 00000000 		.word	on_message_sender_state_changed
 2645 03d8 24080000 		.word	.LC116
 2646 03dc 00000000 		.word	on_message_receiver_state_changed
 2647 03e0 44080000 		.word	.LC119
 2648 03e4 5D030000 		.word	861
 2649              		.cfi_endproc
 2650              	.LFE9:
 2651              		.size	amqp_management_create, .-amqp_management_create
 2652              		.section	.text.amqp_management_open_async,"ax",%progbits
 2653              		.align	2
 2654              		.global	amqp_management_open_async
 2655              		.code	16
 2656              		.thumb_func
 2657              		.type	amqp_management_open_async, %function
 2658              	amqp_management_open_async:
 2659              	.LFB11:
 915:Source\azure_iot_sdk\uamqp\src/amqp_management.c **** 
 916:Source\azure_iot_sdk\uamqp\src/amqp_management.c **** void amqp_management_destroy(AMQP_MANAGEMENT_HANDLE amqp_management)
 917:Source\azure_iot_sdk\uamqp\src/amqp_management.c **** {
 918:Source\azure_iot_sdk\uamqp\src/amqp_management.c ****     if (amqp_management == NULL)
 919:Source\azure_iot_sdk\uamqp\src/amqp_management.c ****     {
 920:Source\azure_iot_sdk\uamqp\src/amqp_management.c ****         /* Codes_SRS_AMQP_MANAGEMENT_01_025: [ If `amqp_management` is NULL, `amqp_management_destr
 921:Source\azure_iot_sdk\uamqp\src/amqp_management.c ****         LogError("NULL amqp_management");
 922:Source\azure_iot_sdk\uamqp\src/amqp_management.c ****     }
 923:Source\azure_iot_sdk\uamqp\src/amqp_management.c ****     else
 924:Source\azure_iot_sdk\uamqp\src/amqp_management.c ****     {
 925:Source\azure_iot_sdk\uamqp\src/amqp_management.c ****         /* Codes_SRS_AMQP_MANAGEMENT_01_024: [ `amqp_management_destroy` shall free all the resourc
 926:Source\azure_iot_sdk\uamqp\src/amqp_management.c ****         if (amqp_management->amqp_management_state != AMQP_MANAGEMENT_STATE_IDLE)
 927:Source\azure_iot_sdk\uamqp\src/amqp_management.c ****         {
 928:Source\azure_iot_sdk\uamqp\src/amqp_management.c ****             (void)amqp_management_close(amqp_management);
 929:Source\azure_iot_sdk\uamqp\src/amqp_management.c ****         }
 930:Source\azure_iot_sdk\uamqp\src/amqp_management.c **** 
 931:Source\azure_iot_sdk\uamqp\src/amqp_management.c ****         /* Codes_SRS_AMQP_MANAGEMENT_01_028: [ `amqp_management_destroy` shall free the message sen
 932:Source\azure_iot_sdk\uamqp\src/amqp_management.c ****         messagesender_destroy(amqp_management->message_sender);
 933:Source\azure_iot_sdk\uamqp\src/amqp_management.c ****         /* Codes_SRS_AMQP_MANAGEMENT_01_029: [ `amqp_management_destroy` shall free the message rec
 934:Source\azure_iot_sdk\uamqp\src/amqp_management.c ****         messagereceiver_destroy(amqp_management->message_receiver);
 935:Source\azure_iot_sdk\uamqp\src/amqp_management.c ****         /* Codes_SRS_AMQP_MANAGEMENT_01_027: [ `amqp_management_destroy` shall free the sender and 
 936:Source\azure_iot_sdk\uamqp\src/amqp_management.c ****         link_destroy(amqp_management->sender_link);
 937:Source\azure_iot_sdk\uamqp\src/amqp_management.c ****         link_destroy(amqp_management->receiver_link);
 938:Source\azure_iot_sdk\uamqp\src/amqp_management.c ****         free(amqp_management->status_code_key_name);
 939:Source\azure_iot_sdk\uamqp\src/amqp_management.c ****         free(amqp_management->status_description_key_name);
 940:Source\azure_iot_sdk\uamqp\src/amqp_management.c ****         /* Codes_SRS_AMQP_MANAGEMENT_01_026: [ `amqp_management_destroy` shall free the singly link
 941:Source\azure_iot_sdk\uamqp\src/amqp_management.c ****         singlylinkedlist_destroy(amqp_management->pending_operations);
 942:Source\azure_iot_sdk\uamqp\src/amqp_management.c ****         free(amqp_management);
 943:Source\azure_iot_sdk\uamqp\src/amqp_management.c ****     }
 944:Source\azure_iot_sdk\uamqp\src/amqp_management.c **** }
 945:Source\azure_iot_sdk\uamqp\src/amqp_management.c **** 
 946:Source\azure_iot_sdk\uamqp\src/amqp_management.c **** int amqp_management_open_async(AMQP_MANAGEMENT_HANDLE amqp_management, ON_AMQP_MANAGEMENT_OPEN_COMP
 947:Source\azure_iot_sdk\uamqp\src/amqp_management.c **** {
 2660              		.loc 1 947 0
 2661              		.cfi_startproc
 2662              		@ args = 4, pretend = 0, frame = 8
 2663              		@ frame_needed = 0, uses_anonymous_args = 0
ARM GAS  C:\Users\Phuong\AppData\Local\Temp\ccdTtd1y.s 			page 68


 2664              	.LVL459:
 2665 0000 F0B5     		push	{r4, r5, r6, r7, lr}
 2666              		.cfi_def_cfa_offset 20
 2667              		.cfi_offset 4, -20
 2668              		.cfi_offset 5, -16
 2669              		.cfi_offset 6, -12
 2670              		.cfi_offset 7, -8
 2671              		.cfi_offset 14, -4
 2672 0002 89B0     		sub	sp, sp, #36
 2673              		.cfi_def_cfa_offset 56
 2674 0004 0400     		movs	r4, r0
 2675 0006 0E00     		movs	r6, r1
 2676 0008 0792     		str	r2, [sp, #28]
 2677 000a 1F00     		movs	r7, r3
 2678              	.LBB63:
 948:Source\azure_iot_sdk\uamqp\src/amqp_management.c ****     int result;
 949:Source\azure_iot_sdk\uamqp\src/amqp_management.c ****     LogError("PSOC6---DEBUGGING_amqp_management_open_async---PSOC6");
 2679              		.loc 1 949 0
 2680 000c FFF7FEFF 		bl	xlogging_get_log_function
 2681              	.LVL460:
 2682 0010 051E     		subs	r5, r0, #0
 2683              	.LVL461:
 2684 0012 09D0     		beq	.L153
 2685              		.loc 1 949 0 is_stmt 0 discriminator 4
 2686 0014 464B     		ldr	r3, .L165
 2687 0016 0193     		str	r3, [sp, #4]
 2688 0018 0123     		movs	r3, #1
 2689 001a 0093     		str	r3, [sp]
 2690 001c 454B     		ldr	r3, .L165+4
 2691 001e 464A     		ldr	r2, .L165+8
 2692 0020 1032     		adds	r2, r2, #16
 2693 0022 4649     		ldr	r1, .L165+12
 2694 0024 0020     		movs	r0, #0
 2695              	.LVL462:
 2696 0026 A847     		blx	r5
 2697              	.LVL463:
 2698              	.L153:
 2699              	.LBE63:
 950:Source\azure_iot_sdk\uamqp\src/amqp_management.c ****     /* Codes_SRS_AMQP_MANAGEMENT_01_044: [ `on_amqp_management_open_complete_context` and `on_amqp_
 951:Source\azure_iot_sdk\uamqp\src/amqp_management.c ****     if ((amqp_management == NULL) ||
 2700              		.loc 1 951 0 is_stmt 1
 2701 0028 002C     		cmp	r4, #0
 2702 002a 03D0     		beq	.L154
 2703              		.loc 1 951 0 is_stmt 0 discriminator 1
 2704 002c 002E     		cmp	r6, #0
 2705 002e 01D0     		beq	.L154
 952:Source\azure_iot_sdk\uamqp\src/amqp_management.c ****         (on_amqp_management_open_complete == NULL) ||
 2706              		.loc 1 952 0 is_stmt 1
 2707 0030 002F     		cmp	r7, #0
 2708 0032 13D1     		bne	.L155
 2709              	.L154:
 2710              	.LBB64:
 953:Source\azure_iot_sdk\uamqp\src/amqp_management.c ****         (on_amqp_management_error == NULL))
 954:Source\azure_iot_sdk\uamqp\src/amqp_management.c ****     {
 955:Source\azure_iot_sdk\uamqp\src/amqp_management.c ****         /* Codes_SRS_AMQP_MANAGEMENT_01_038: [ If `amqp_management`, `on_amqp_management_open_compl
 956:Source\azure_iot_sdk\uamqp\src/amqp_management.c ****         LogError("Bad arguments: amqp_management = %p, on_amqp_management_open_complete = %p, on_am
 2711              		.loc 1 956 0 discriminator 3
ARM GAS  C:\Users\Phuong\AppData\Local\Temp\ccdTtd1y.s 			page 69


 2712 0034 FFF7FEFF 		bl	xlogging_get_log_function
 2713              	.LVL464:
 2714 0038 051E     		subs	r5, r0, #0
 2715              	.LVL465:
 2716 003a 71D0     		beq	.L162
 2717              		.loc 1 956 0 is_stmt 0 discriminator 4
 2718 003c 0497     		str	r7, [sp, #16]
 2719 003e 0396     		str	r6, [sp, #12]
 2720 0040 0294     		str	r4, [sp, #8]
 2721 0042 3F4B     		ldr	r3, .L165+16
 2722 0044 0193     		str	r3, [sp, #4]
 2723 0046 0123     		movs	r3, #1
 2724 0048 0093     		str	r3, [sp]
 2725 004a 3E4B     		ldr	r3, .L165+20
 2726 004c 3A4A     		ldr	r2, .L165+8
 2727 004e 1032     		adds	r2, r2, #16
 2728 0050 3A49     		ldr	r1, .L165+12
 2729 0052 0020     		movs	r0, #0
 2730              	.LVL466:
 2731 0054 A847     		blx	r5
 2732              	.LVL467:
 2733              	.LBE64:
 957:Source\azure_iot_sdk\uamqp\src/amqp_management.c ****             amqp_management,
 958:Source\azure_iot_sdk\uamqp\src/amqp_management.c ****             on_amqp_management_open_complete,
 959:Source\azure_iot_sdk\uamqp\src/amqp_management.c ****             on_amqp_management_error);
 960:Source\azure_iot_sdk\uamqp\src/amqp_management.c ****         result = __FAILURE__;
 2734              		.loc 1 960 0 is_stmt 1 discriminator 4
 2735 0056 F020     		movs	r0, #240
 2736 0058 8000     		lsls	r0, r0, #2
 2737 005a 67E0     		b	.L156
 2738              	.LVL468:
 2739              	.L155:
 961:Source\azure_iot_sdk\uamqp\src/amqp_management.c ****     }
 962:Source\azure_iot_sdk\uamqp\src/amqp_management.c ****     else if (amqp_management->amqp_management_state != AMQP_MANAGEMENT_STATE_IDLE)
 2740              		.loc 1 962 0
 2741 005c 3023     		movs	r3, #48
 2742 005e E35C     		ldrb	r3, [r4, r3]
 2743 0060 002B     		cmp	r3, #0
 2744 0062 0FD0     		beq	.L157
 2745              	.LBB65:
 963:Source\azure_iot_sdk\uamqp\src/amqp_management.c ****     {
 964:Source\azure_iot_sdk\uamqp\src/amqp_management.c ****         /* Codes_SRS_AMQP_MANAGEMENT_01_043: [ If the AMQP management instance is already OPEN or O
 965:Source\azure_iot_sdk\uamqp\src/amqp_management.c ****         LogError("PSOC6---AMQP management instance already OPEN---PSOC6");
 2746              		.loc 1 965 0 discriminator 3
 2747 0064 FFF7FEFF 		bl	xlogging_get_log_function
 2748              	.LVL469:
 2749 0068 041E     		subs	r4, r0, #0
 2750              	.LVL470:
 2751 006a 5CD0     		beq	.L163
 2752              		.loc 1 965 0 is_stmt 0 discriminator 4
 2753 006c 364B     		ldr	r3, .L165+24
 2754 006e 0193     		str	r3, [sp, #4]
 2755 0070 0123     		movs	r3, #1
 2756 0072 0093     		str	r3, [sp]
 2757 0074 354B     		ldr	r3, .L165+28
 2758 0076 304A     		ldr	r2, .L165+8
 2759 0078 1032     		adds	r2, r2, #16
ARM GAS  C:\Users\Phuong\AppData\Local\Temp\ccdTtd1y.s 			page 70


 2760 007a 3049     		ldr	r1, .L165+12
 2761 007c 0020     		movs	r0, #0
 2762              	.LVL471:
 2763 007e A047     		blx	r4
 2764              	.LVL472:
 2765              	.LBE65:
 966:Source\azure_iot_sdk\uamqp\src/amqp_management.c ****         result = __FAILURE__;
 2766              		.loc 1 966 0 is_stmt 1 discriminator 4
 2767 0080 3348     		ldr	r0, .L165+32
 2768 0082 53E0     		b	.L156
 2769              	.LVL473:
 2770              	.L157:
 967:Source\azure_iot_sdk\uamqp\src/amqp_management.c ****     }
 968:Source\azure_iot_sdk\uamqp\src/amqp_management.c ****     else
 969:Source\azure_iot_sdk\uamqp\src/amqp_management.c ****     {
 970:Source\azure_iot_sdk\uamqp\src/amqp_management.c ****         /* Codes_SRS_AMQP_MANAGEMENT_01_036: [ `amqp_management_open_async` shall start opening the
 971:Source\azure_iot_sdk\uamqp\src/amqp_management.c ****         amqp_management->on_amqp_management_open_complete = on_amqp_management_open_complete;
 2771              		.loc 1 971 0
 2772 0084 2662     		str	r6, [r4, #32]
 972:Source\azure_iot_sdk\uamqp\src/amqp_management.c ****         amqp_management->on_amqp_management_open_complete_context = on_amqp_management_open_complet
 2773              		.loc 1 972 0
 2774 0086 079B     		ldr	r3, [sp, #28]
 2775 0088 6362     		str	r3, [r4, #36]
 973:Source\azure_iot_sdk\uamqp\src/amqp_management.c ****         amqp_management->on_amqp_management_error = on_amqp_management_error;
 2776              		.loc 1 973 0
 2777 008a A762     		str	r7, [r4, #40]
 974:Source\azure_iot_sdk\uamqp\src/amqp_management.c ****         amqp_management->on_amqp_management_error_context = on_amqp_management_error_context;
 2778              		.loc 1 974 0
 2779 008c 0E9B     		ldr	r3, [sp, #56]
 2780 008e E362     		str	r3, [r4, #44]
 975:Source\azure_iot_sdk\uamqp\src/amqp_management.c ****         amqp_management->amqp_management_state = AMQP_MANAGEMENT_STATE_OPENING;
 2781              		.loc 1 975 0
 2782 0090 0122     		movs	r2, #1
 2783 0092 3023     		movs	r3, #48
 2784 0094 E254     		strb	r2, [r4, r3]
 976:Source\azure_iot_sdk\uamqp\src/amqp_management.c **** 
 977:Source\azure_iot_sdk\uamqp\src/amqp_management.c ****         /* Codes_SRS_AMQP_MANAGEMENT_01_040: [ `amqp_management_open_async` shall open the message 
 978:Source\azure_iot_sdk\uamqp\src/amqp_management.c ****         if (messagereceiver_open(amqp_management->message_receiver, on_message_received, amqp_manag
 2785              		.loc 1 978 0
 2786 0096 2200     		movs	r2, r4
 2787 0098 2E49     		ldr	r1, .L165+36
 2788 009a E068     		ldr	r0, [r4, #12]
 2789 009c FFF7FEFF 		bl	messagereceiver_open
 2790              	.LVL474:
 2791 00a0 0028     		cmp	r0, #0
 2792 00a2 12D0     		beq	.L158
 2793              	.LBB66:
 979:Source\azure_iot_sdk\uamqp\src/amqp_management.c ****         {
 980:Source\azure_iot_sdk\uamqp\src/amqp_management.c ****             /* Codes_SRS_AMQP_MANAGEMENT_01_042: [ If `messagereceiver_open` fails, `amqp_managemen
 981:Source\azure_iot_sdk\uamqp\src/amqp_management.c ****             LogError("PSOC6---Failed opening message receiver---PSOC6");
 2794              		.loc 1 981 0 discriminator 3
 2795 00a4 FFF7FEFF 		bl	xlogging_get_log_function
 2796              	.LVL475:
 2797 00a8 051E     		subs	r5, r0, #0
 2798              	.LVL476:
 2799 00aa 09D0     		beq	.L159
 2800              		.loc 1 981 0 is_stmt 0 discriminator 4
ARM GAS  C:\Users\Phuong\AppData\Local\Temp\ccdTtd1y.s 			page 71


 2801 00ac 2A4B     		ldr	r3, .L165+40
 2802 00ae 0193     		str	r3, [sp, #4]
 2803 00b0 0123     		movs	r3, #1
 2804 00b2 0093     		str	r3, [sp]
 2805 00b4 294B     		ldr	r3, .L165+44
 2806 00b6 204A     		ldr	r2, .L165+8
 2807 00b8 1032     		adds	r2, r2, #16
 2808 00ba 2049     		ldr	r1, .L165+12
 2809 00bc 0020     		movs	r0, #0
 2810              	.LVL477:
 2811 00be A847     		blx	r5
 2812              	.LVL478:
 2813              	.L159:
 2814              	.LBE66:
 982:Source\azure_iot_sdk\uamqp\src/amqp_management.c ****             amqp_management->amqp_management_state = AMQP_MANAGEMENT_STATE_IDLE;
 2815              		.loc 1 982 0 is_stmt 1
 2816 00c0 0022     		movs	r2, #0
 2817 00c2 3023     		movs	r3, #48
 2818 00c4 E254     		strb	r2, [r4, r3]
 2819              	.LVL479:
 983:Source\azure_iot_sdk\uamqp\src/amqp_management.c ****             result = __FAILURE__;
 2820              		.loc 1 983 0
 2821 00c6 2648     		ldr	r0, .L165+48
 2822 00c8 30E0     		b	.L156
 2823              	.LVL480:
 2824              	.L158:
 984:Source\azure_iot_sdk\uamqp\src/amqp_management.c ****         }
 985:Source\azure_iot_sdk\uamqp\src/amqp_management.c ****         else
 986:Source\azure_iot_sdk\uamqp\src/amqp_management.c ****         {
 987:Source\azure_iot_sdk\uamqp\src/amqp_management.c ****             /* Codes_SRS_AMQP_MANAGEMENT_01_039: [ `amqp_management_open_async` shall open the mess
 988:Source\azure_iot_sdk\uamqp\src/amqp_management.c ****             if (messagesender_open(amqp_management->message_sender) != 0)
 2825              		.loc 1 988 0
 2826 00ca A068     		ldr	r0, [r4, #8]
 2827 00cc FFF7FEFF 		bl	messagesender_open
 2828              	.LVL481:
 2829 00d0 0028     		cmp	r0, #0
 2830 00d2 15D0     		beq	.L160
 2831              	.LBB67:
 989:Source\azure_iot_sdk\uamqp\src/amqp_management.c ****             {
 990:Source\azure_iot_sdk\uamqp\src/amqp_management.c ****                 /* Codes_SRS_AMQP_MANAGEMENT_01_041: [ If `messagesender_open` fails, `amqp_managem
 991:Source\azure_iot_sdk\uamqp\src/amqp_management.c ****                 LogError("PSOC6---Failed opening message sender---PSOC6");
 2832              		.loc 1 991 0 discriminator 3
 2833 00d4 FFF7FEFF 		bl	xlogging_get_log_function
 2834              	.LVL482:
 2835 00d8 051E     		subs	r5, r0, #0
 2836              	.LVL483:
 2837 00da 09D0     		beq	.L161
 2838              		.loc 1 991 0 is_stmt 0 discriminator 4
 2839 00dc 214B     		ldr	r3, .L165+52
 2840 00de 0193     		str	r3, [sp, #4]
 2841 00e0 0123     		movs	r3, #1
 2842 00e2 0093     		str	r3, [sp]
 2843 00e4 204B     		ldr	r3, .L165+56
 2844 00e6 144A     		ldr	r2, .L165+8
 2845 00e8 1032     		adds	r2, r2, #16
 2846 00ea 1449     		ldr	r1, .L165+12
 2847 00ec 0020     		movs	r0, #0
ARM GAS  C:\Users\Phuong\AppData\Local\Temp\ccdTtd1y.s 			page 72


 2848              	.LVL484:
 2849 00ee A847     		blx	r5
 2850              	.LVL485:
 2851              	.L161:
 2852              	.LBE67:
 992:Source\azure_iot_sdk\uamqp\src/amqp_management.c ****                 amqp_management->amqp_management_state = AMQP_MANAGEMENT_STATE_IDLE;
 2853              		.loc 1 992 0 is_stmt 1
 2854 00f0 0022     		movs	r2, #0
 2855 00f2 3023     		movs	r3, #48
 2856 00f4 E254     		strb	r2, [r4, r3]
 993:Source\azure_iot_sdk\uamqp\src/amqp_management.c ****                 (void)messagereceiver_close(amqp_management->message_receiver);
 2857              		.loc 1 993 0
 2858 00f6 E068     		ldr	r0, [r4, #12]
 2859 00f8 FFF7FEFF 		bl	messagereceiver_close
 2860              	.LVL486:
 994:Source\azure_iot_sdk\uamqp\src/amqp_management.c ****                 result = __FAILURE__;
 2861              		.loc 1 994 0
 2862 00fc 1B48     		ldr	r0, .L165+60
 2863 00fe 15E0     		b	.L156
 2864              	.LVL487:
 2865              	.L160:
 2866              	.LBB68:
 995:Source\azure_iot_sdk\uamqp\src/amqp_management.c ****             }
 996:Source\azure_iot_sdk\uamqp\src/amqp_management.c ****             else
 997:Source\azure_iot_sdk\uamqp\src/amqp_management.c ****             {
 998:Source\azure_iot_sdk\uamqp\src/amqp_management.c ****                 LogError("PSOC6---Opening_message_sender_successfully---PSOC6");
 2867              		.loc 1 998 0 discriminator 3
 2868 0100 FFF7FEFF 		bl	xlogging_get_log_function
 2869              	.LVL488:
 2870 0104 041E     		subs	r4, r0, #0
 2871              	.LVL489:
 2872 0106 10D0     		beq	.L164
 2873              		.loc 1 998 0 is_stmt 0 discriminator 4
 2874 0108 194B     		ldr	r3, .L165+64
 2875 010a 0193     		str	r3, [sp, #4]
 2876 010c 0123     		movs	r3, #1
 2877 010e 0093     		str	r3, [sp]
 2878 0110 184B     		ldr	r3, .L165+68
 2879 0112 094A     		ldr	r2, .L165+8
 2880 0114 1032     		adds	r2, r2, #16
 2881 0116 0949     		ldr	r1, .L165+12
 2882 0118 0020     		movs	r0, #0
 2883              	.LVL490:
 2884 011a A047     		blx	r4
 2885              	.LVL491:
 2886              	.LBE68:
 999:Source\azure_iot_sdk\uamqp\src/amqp_management.c ****                 /* Codes_SRS_AMQP_MANAGEMENT_01_037: [ On success it shall return 0. ]*/
1000:Source\azure_iot_sdk\uamqp\src/amqp_management.c ****                 result = 0;
 2887              		.loc 1 1000 0 is_stmt 1 discriminator 4
 2888 011c 0020     		movs	r0, #0
 2889 011e 05E0     		b	.L156
 2890              	.LVL492:
 2891              	.L162:
 960:Source\azure_iot_sdk\uamqp\src/amqp_management.c ****     }
 2892              		.loc 1 960 0
 2893 0120 F020     		movs	r0, #240
 2894              	.LVL493:
ARM GAS  C:\Users\Phuong\AppData\Local\Temp\ccdTtd1y.s 			page 73


 2895 0122 8000     		lsls	r0, r0, #2
 2896 0124 02E0     		b	.L156
 2897              	.LVL494:
 2898              	.L163:
 966:Source\azure_iot_sdk\uamqp\src/amqp_management.c ****     }
 2899              		.loc 1 966 0
 2900 0126 0A48     		ldr	r0, .L165+32
 2901              	.LVL495:
 2902 0128 00E0     		b	.L156
 2903              	.LVL496:
 2904              	.L164:
 2905              		.loc 1 1000 0
 2906 012a 0020     		movs	r0, #0
 2907              	.LVL497:
 2908              	.L156:
1001:Source\azure_iot_sdk\uamqp\src/amqp_management.c ****             }
1002:Source\azure_iot_sdk\uamqp\src/amqp_management.c ****         }
1003:Source\azure_iot_sdk\uamqp\src/amqp_management.c ****     }
1004:Source\azure_iot_sdk\uamqp\src/amqp_management.c **** 
1005:Source\azure_iot_sdk\uamqp\src/amqp_management.c ****     return result;
1006:Source\azure_iot_sdk\uamqp\src/amqp_management.c **** }
 2909              		.loc 1 1006 0
 2910 012c 09B0     		add	sp, sp, #36
 2911              		@ sp needed
 2912              	.LVL498:
 2913              	.LVL499:
 2914 012e F0BD     		pop	{r4, r5, r6, r7, pc}
 2915              	.L166:
 2916              		.align	2
 2917              	.L165:
 2918 0130 7C080000 		.word	.LC123
 2919 0134 B5030000 		.word	949
 2920 0138 00010000 		.word	.LANCHOR2
 2921 013c 00000000 		.word	.LC1
 2922 0140 B4080000 		.word	.LC125
 2923 0144 BF030000 		.word	959
 2924 0148 20090000 		.word	.LC127
 2925 014c C5030000 		.word	965
 2926 0150 C6030000 		.word	966
 2927 0154 00000000 		.word	on_message_received
 2928 0158 58090000 		.word	.LC130
 2929 015c D5030000 		.word	981
 2930 0160 D7030000 		.word	983
 2931 0164 88090000 		.word	.LC132
 2932 0168 DF030000 		.word	991
 2933 016c E2030000 		.word	994
 2934 0170 B8090000 		.word	.LC134
 2935 0174 E6030000 		.word	998
 2936              		.cfi_endproc
 2937              	.LFE11:
 2938              		.size	amqp_management_open_async, .-amqp_management_open_async
 2939              		.section	.text.amqp_management_close,"ax",%progbits
 2940              		.align	2
 2941              		.global	amqp_management_close
 2942              		.code	16
 2943              		.thumb_func
 2944              		.type	amqp_management_close, %function
ARM GAS  C:\Users\Phuong\AppData\Local\Temp\ccdTtd1y.s 			page 74


 2945              	amqp_management_close:
 2946              	.LFB12:
1007:Source\azure_iot_sdk\uamqp\src/amqp_management.c **** 
1008:Source\azure_iot_sdk\uamqp\src/amqp_management.c **** int amqp_management_close(AMQP_MANAGEMENT_HANDLE amqp_management)
1009:Source\azure_iot_sdk\uamqp\src/amqp_management.c **** {
 2947              		.loc 1 1009 0
 2948              		.cfi_startproc
 2949              		@ args = 0, pretend = 0, frame = 0
 2950              		@ frame_needed = 0, uses_anonymous_args = 0
 2951              	.LVL500:
 2952 0000 F0B5     		push	{r4, r5, r6, r7, lr}
 2953              		.cfi_def_cfa_offset 20
 2954              		.cfi_offset 4, -20
 2955              		.cfi_offset 5, -16
 2956              		.cfi_offset 6, -12
 2957              		.cfi_offset 7, -8
 2958              		.cfi_offset 14, -4
 2959 0002 83B0     		sub	sp, sp, #12
 2960              		.cfi_def_cfa_offset 32
 2961 0004 041E     		subs	r4, r0, #0
1010:Source\azure_iot_sdk\uamqp\src/amqp_management.c ****     int result;
1011:Source\azure_iot_sdk\uamqp\src/amqp_management.c **** 
1012:Source\azure_iot_sdk\uamqp\src/amqp_management.c ****     if (amqp_management == NULL)
 2962              		.loc 1 1012 0
 2963 0006 11D1     		bne	.L168
 2964              	.LBB69:
1013:Source\azure_iot_sdk\uamqp\src/amqp_management.c ****     {
1014:Source\azure_iot_sdk\uamqp\src/amqp_management.c ****         /* Codes_SRS_AMQP_MANAGEMENT_01_047: [ If `amqp_management` is NULL, `amqp_management_close
1015:Source\azure_iot_sdk\uamqp\src/amqp_management.c ****         LogError("NULL amqp_management");
 2965              		.loc 1 1015 0 discriminator 3
 2966 0008 FFF7FEFF 		bl	xlogging_get_log_function
 2967              	.LVL501:
 2968 000c 041E     		subs	r4, r0, #0
 2969              	.LVL502:
 2970 000e 00D1     		bne	.LCB3263
 2971 0010 95E0     		b	.L179	@long jump
 2972              	.LCB3263:
 2973              		.loc 1 1015 0 is_stmt 0 discriminator 4
 2974 0012 504B     		ldr	r3, .L183
 2975 0014 0193     		str	r3, [sp, #4]
 2976 0016 0123     		movs	r3, #1
 2977 0018 0093     		str	r3, [sp]
 2978 001a 4F4B     		ldr	r3, .L183+4
 2979 001c 4F4A     		ldr	r2, .L183+8
 2980 001e 2C32     		adds	r2, r2, #44
 2981 0020 4F49     		ldr	r1, .L183+12
 2982 0022 0020     		movs	r0, #0
 2983              	.LVL503:
 2984 0024 A047     		blx	r4
 2985              	.LVL504:
 2986              	.LBE69:
1016:Source\azure_iot_sdk\uamqp\src/amqp_management.c ****         result = __FAILURE__;
 2987              		.loc 1 1016 0 is_stmt 1 discriminator 4
 2988 0026 FE20     		movs	r0, #254
 2989 0028 8000     		lsls	r0, r0, #2
 2990 002a 90E0     		b	.L169
 2991              	.LVL505:
ARM GAS  C:\Users\Phuong\AppData\Local\Temp\ccdTtd1y.s 			page 75


 2992              	.L168:
1017:Source\azure_iot_sdk\uamqp\src/amqp_management.c ****     }
1018:Source\azure_iot_sdk\uamqp\src/amqp_management.c ****     else if (amqp_management->amqp_management_state == AMQP_MANAGEMENT_STATE_IDLE)
 2993              		.loc 1 1018 0
 2994 002c 3023     		movs	r3, #48
 2995 002e C35C     		ldrb	r3, [r0, r3]
 2996 0030 002B     		cmp	r3, #0
 2997 0032 10D1     		bne	.L170
 2998              	.LBB70:
1019:Source\azure_iot_sdk\uamqp\src/amqp_management.c ****     {
1020:Source\azure_iot_sdk\uamqp\src/amqp_management.c ****         /* Codes_SRS_AMQP_MANAGEMENT_01_049: [ `amqp_management_close` on an AMQP management instan
1021:Source\azure_iot_sdk\uamqp\src/amqp_management.c ****         LogError("PSOC6---AMQP management instance not open---PSOC6");
 2999              		.loc 1 1021 0 discriminator 3
 3000 0034 FFF7FEFF 		bl	xlogging_get_log_function
 3001              	.LVL506:
 3002 0038 041E     		subs	r4, r0, #0
 3003              	.LVL507:
 3004 003a 00D1     		bne	.LCB3297
 3005 003c 82E0     		b	.L180	@long jump
 3006              	.LCB3297:
 3007              		.loc 1 1021 0 is_stmt 0 discriminator 4
 3008 003e 494B     		ldr	r3, .L183+16
 3009 0040 0193     		str	r3, [sp, #4]
 3010 0042 0123     		movs	r3, #1
 3011 0044 0093     		str	r3, [sp]
 3012 0046 484B     		ldr	r3, .L183+20
 3013 0048 444A     		ldr	r2, .L183+8
 3014 004a 2C32     		adds	r2, r2, #44
 3015 004c 4449     		ldr	r1, .L183+12
 3016 004e 0020     		movs	r0, #0
 3017              	.LVL508:
 3018 0050 A047     		blx	r4
 3019              	.LVL509:
 3020              	.LBE70:
1022:Source\azure_iot_sdk\uamqp\src/amqp_management.c ****         result = __FAILURE__;
 3021              		.loc 1 1022 0 is_stmt 1 discriminator 4
 3022 0052 4648     		ldr	r0, .L183+24
 3023 0054 7BE0     		b	.L169
 3024              	.LVL510:
 3025              	.L170:
 3026              	.LBB71:
1023:Source\azure_iot_sdk\uamqp\src/amqp_management.c ****     }
1024:Source\azure_iot_sdk\uamqp\src/amqp_management.c ****     else
1025:Source\azure_iot_sdk\uamqp\src/amqp_management.c ****     {
1026:Source\azure_iot_sdk\uamqp\src/amqp_management.c ****         AMQP_MANAGEMENT_STATE previous_state = amqp_management->amqp_management_state;
1027:Source\azure_iot_sdk\uamqp\src/amqp_management.c **** 
1028:Source\azure_iot_sdk\uamqp\src/amqp_management.c ****         amqp_management->amqp_management_state = AMQP_MANAGEMENT_STATE_CLOSING;
 3027              		.loc 1 1028 0
 3028 0056 0221     		movs	r1, #2
 3029 0058 3022     		movs	r2, #48
 3030 005a 8154     		strb	r1, [r0, r2]
1029:Source\azure_iot_sdk\uamqp\src/amqp_management.c **** 
