ARM GAS  C:\Users\Phuong\AppData\Local\Temp\ccSP1btB.s 			page 1


   1              		.syntax unified
   2              		.cpu cortex-m0plus
   3              		.fpu softvfp
   4              		.eabi_attribute 20, 1
   5              		.eabi_attribute 21, 1
   6              		.eabi_attribute 23, 3
   7              		.eabi_attribute 24, 1
   8              		.eabi_attribute 25, 1
   9              		.eabi_attribute 26, 1
  10              		.eabi_attribute 30, 1
  11              		.eabi_attribute 34, 0
  12              		.eabi_attribute 18, 4
  13              		.thumb
  14              		.syntax unified
  15              		.file	"amqp_frame_codec.c"
  16              		.text
  17              	.Ltext0:
  18              		.cfi_sections	.debug_frame
  19              		.section	.text.frame_received,"ax",%progbits
  20              		.align	2
  21              		.code	16
  22              		.thumb_func
  23              		.type	frame_received, %function
  24              	frame_received:
  25              	.LFB2:
  26              		.file 1 "Source\\azure_iot_sdk\\uamqp\\src\\amqp_frame_codec.c"
   1:Source\azure_iot_sdk\uamqp\src/amqp_frame_codec.c **** // Copyright (c) Microsoft. All rights reserved.
   2:Source\azure_iot_sdk\uamqp\src/amqp_frame_codec.c **** // Licensed under the MIT license. See LICENSE file in the project root for full license informatio
   3:Source\azure_iot_sdk\uamqp\src/amqp_frame_codec.c **** 
   4:Source\azure_iot_sdk\uamqp\src/amqp_frame_codec.c **** #include <stdlib.h>
   5:Source\azure_iot_sdk\uamqp\src/amqp_frame_codec.c **** #include <stdint.h>
   6:Source\azure_iot_sdk\uamqp\src/amqp_frame_codec.c **** #include <stddef.h>
   7:Source\azure_iot_sdk\uamqp\src/amqp_frame_codec.c **** #include <string.h>
   8:Source\azure_iot_sdk\uamqp\src/amqp_frame_codec.c **** #include "azure_c_shared_utility/optimize_size.h"
   9:Source\azure_iot_sdk\uamqp\src/amqp_frame_codec.c **** #include "azure_c_shared_utility/gballoc.h"
  10:Source\azure_iot_sdk\uamqp\src/amqp_frame_codec.c **** #include "azure_c_shared_utility/xlogging.h"
  11:Source\azure_iot_sdk\uamqp\src/amqp_frame_codec.c **** #include "azure_uamqp_c/amqp_frame_codec.h"
  12:Source\azure_iot_sdk\uamqp\src/amqp_frame_codec.c **** #include "azure_uamqp_c/frame_codec.h"
  13:Source\azure_iot_sdk\uamqp\src/amqp_frame_codec.c **** #include "azure_uamqp_c/amqpvalue.h"
  14:Source\azure_iot_sdk\uamqp\src/amqp_frame_codec.c **** 
  15:Source\azure_iot_sdk\uamqp\src/amqp_frame_codec.c **** typedef enum AMQP_FRAME_DECODE_STATE_TAG
  16:Source\azure_iot_sdk\uamqp\src/amqp_frame_codec.c **** {
  17:Source\azure_iot_sdk\uamqp\src/amqp_frame_codec.c ****     AMQP_FRAME_DECODE_FRAME,
  18:Source\azure_iot_sdk\uamqp\src/amqp_frame_codec.c ****     AMQP_FRAME_DECODE_ERROR
  19:Source\azure_iot_sdk\uamqp\src/amqp_frame_codec.c **** } AMQP_FRAME_DECODE_STATE;
  20:Source\azure_iot_sdk\uamqp\src/amqp_frame_codec.c **** 
  21:Source\azure_iot_sdk\uamqp\src/amqp_frame_codec.c **** typedef struct AMQP_FRAME_CODEC_TAG
  22:Source\azure_iot_sdk\uamqp\src/amqp_frame_codec.c **** {
  23:Source\azure_iot_sdk\uamqp\src/amqp_frame_codec.c ****     FRAME_CODEC_HANDLE frame_codec;
  24:Source\azure_iot_sdk\uamqp\src/amqp_frame_codec.c **** 
  25:Source\azure_iot_sdk\uamqp\src/amqp_frame_codec.c ****     /* decode */
  26:Source\azure_iot_sdk\uamqp\src/amqp_frame_codec.c ****     AMQP_FRAME_RECEIVED_CALLBACK frame_received_callback;
  27:Source\azure_iot_sdk\uamqp\src/amqp_frame_codec.c ****     AMQP_EMPTY_FRAME_RECEIVED_CALLBACK empty_frame_received_callback;
  28:Source\azure_iot_sdk\uamqp\src/amqp_frame_codec.c ****     AMQP_FRAME_CODEC_ERROR_CALLBACK error_callback;
  29:Source\azure_iot_sdk\uamqp\src/amqp_frame_codec.c ****     void* callback_context;
  30:Source\azure_iot_sdk\uamqp\src/amqp_frame_codec.c ****     AMQPVALUE_DECODER_HANDLE decoder;
  31:Source\azure_iot_sdk\uamqp\src/amqp_frame_codec.c ****     AMQP_FRAME_DECODE_STATE decode_state;
ARM GAS  C:\Users\Phuong\AppData\Local\Temp\ccSP1btB.s 			page 2


  32:Source\azure_iot_sdk\uamqp\src/amqp_frame_codec.c ****     AMQP_VALUE decoded_performative;
  33:Source\azure_iot_sdk\uamqp\src/amqp_frame_codec.c **** } AMQP_FRAME_CODEC;
  34:Source\azure_iot_sdk\uamqp\src/amqp_frame_codec.c **** 
  35:Source\azure_iot_sdk\uamqp\src/amqp_frame_codec.c **** static void amqp_value_decoded(void* context, AMQP_VALUE decoded_value)
  36:Source\azure_iot_sdk\uamqp\src/amqp_frame_codec.c **** {
  37:Source\azure_iot_sdk\uamqp\src/amqp_frame_codec.c ****     AMQP_FRAME_CODEC_HANDLE amqp_frame_codec = (AMQP_FRAME_CODEC_HANDLE)context;
  38:Source\azure_iot_sdk\uamqp\src/amqp_frame_codec.c ****     uint64_t performative_descriptor_ulong;
  39:Source\azure_iot_sdk\uamqp\src/amqp_frame_codec.c ****     AMQP_VALUE descriptor = amqpvalue_get_inplace_descriptor(decoded_value);
  40:Source\azure_iot_sdk\uamqp\src/amqp_frame_codec.c **** 
  41:Source\azure_iot_sdk\uamqp\src/amqp_frame_codec.c ****     /* Codes_SRS_AMQP_FRAME_CODEC_01_060: [If any error occurs while decoding a frame, the decoder 
  42:Source\azure_iot_sdk\uamqp\src/amqp_frame_codec.c ****     if ((descriptor == NULL) ||
  43:Source\azure_iot_sdk\uamqp\src/amqp_frame_codec.c ****         (amqpvalue_get_ulong(descriptor, &performative_descriptor_ulong) != 0) ||
  44:Source\azure_iot_sdk\uamqp\src/amqp_frame_codec.c ****         /* Codes_SRS_AMQP_FRAME_CODEC_01_003: [The performative MUST be one of those defined in sec
  45:Source\azure_iot_sdk\uamqp\src/amqp_frame_codec.c ****         (performative_descriptor_ulong < AMQP_OPEN) ||
  46:Source\azure_iot_sdk\uamqp\src/amqp_frame_codec.c ****         (performative_descriptor_ulong > AMQP_CLOSE))
  47:Source\azure_iot_sdk\uamqp\src/amqp_frame_codec.c ****     {
  48:Source\azure_iot_sdk\uamqp\src/amqp_frame_codec.c ****         /* Codes_SRS_AMQP_FRAME_CODEC_01_060: [If any error occurs while decoding a frame, the deco
  49:Source\azure_iot_sdk\uamqp\src/amqp_frame_codec.c ****         amqp_frame_codec->decode_state = AMQP_FRAME_DECODE_ERROR;
  50:Source\azure_iot_sdk\uamqp\src/amqp_frame_codec.c ****     }
  51:Source\azure_iot_sdk\uamqp\src/amqp_frame_codec.c ****     else
  52:Source\azure_iot_sdk\uamqp\src/amqp_frame_codec.c ****     {
  53:Source\azure_iot_sdk\uamqp\src/amqp_frame_codec.c ****         amqp_frame_codec->decoded_performative = decoded_value;
  54:Source\azure_iot_sdk\uamqp\src/amqp_frame_codec.c ****     }
  55:Source\azure_iot_sdk\uamqp\src/amqp_frame_codec.c **** }
  56:Source\azure_iot_sdk\uamqp\src/amqp_frame_codec.c **** 
  57:Source\azure_iot_sdk\uamqp\src/amqp_frame_codec.c **** static void frame_received(void* context, const unsigned char* type_specific, uint32_t type_specifi
  58:Source\azure_iot_sdk\uamqp\src/amqp_frame_codec.c **** {
  27              		.loc 1 58 0
  28              		.cfi_startproc
  29              		@ args = 4, pretend = 0, frame = 0
  30              		@ frame_needed = 0, uses_anonymous_args = 0
  31              	.LVL0:
  32 0000 F0B5     		push	{r4, r5, r6, r7, lr}
  33              		.cfi_def_cfa_offset 20
  34              		.cfi_offset 4, -20
  35              		.cfi_offset 5, -16
  36              		.cfi_offset 6, -12
  37              		.cfi_offset 7, -8
  38              		.cfi_offset 14, -4
  39 0002 4746     		mov	r7, r8
  40 0004 80B4     		push	{r7}
  41              		.cfi_def_cfa_offset 24
  42              		.cfi_offset 8, -24
  43 0006 82B0     		sub	sp, sp, #8
  44              		.cfi_def_cfa_offset 32
  45 0008 0400     		movs	r4, r0
  46 000a 1E00     		movs	r6, r3
  47 000c 089D     		ldr	r5, [sp, #32]
  48              	.LVL1:
  59:Source\azure_iot_sdk\uamqp\src/amqp_frame_codec.c ****     AMQP_FRAME_CODEC_HANDLE amqp_frame_codec = (AMQP_FRAME_CODEC_HANDLE)context;
  60:Source\azure_iot_sdk\uamqp\src/amqp_frame_codec.c ****     uint16_t channel;
  61:Source\azure_iot_sdk\uamqp\src/amqp_frame_codec.c **** 
  62:Source\azure_iot_sdk\uamqp\src/amqp_frame_codec.c ****     switch (amqp_frame_codec->decode_state)
  49              		.loc 1 62 0
  50 000e 037E     		ldrb	r3, [r0, #24]
  51              	.LVL2:
  52 0010 002B     		cmp	r3, #0
ARM GAS  C:\Users\Phuong\AppData\Local\Temp\ccSP1btB.s 			page 3


  53 0012 39D1     		bne	.L1
  63:Source\azure_iot_sdk\uamqp\src/amqp_frame_codec.c ****     {
  64:Source\azure_iot_sdk\uamqp\src/amqp_frame_codec.c ****     default:
  65:Source\azure_iot_sdk\uamqp\src/amqp_frame_codec.c ****     /* Codes_SRS_AMQP_FRAME_CODEC_01_050: [All subsequent decoding shall fail and no AMQP frames sh
  66:Source\azure_iot_sdk\uamqp\src/amqp_frame_codec.c ****     case AMQP_FRAME_DECODE_ERROR:
  67:Source\azure_iot_sdk\uamqp\src/amqp_frame_codec.c ****         break;
  68:Source\azure_iot_sdk\uamqp\src/amqp_frame_codec.c **** 
  69:Source\azure_iot_sdk\uamqp\src/amqp_frame_codec.c ****     case AMQP_FRAME_DECODE_FRAME:
  70:Source\azure_iot_sdk\uamqp\src/amqp_frame_codec.c ****         /* Codes_SRS_AMQP_FRAME_CODEC_01_049: [If not enough type specific bytes are received to de
  71:Source\azure_iot_sdk\uamqp\src/amqp_frame_codec.c ****         if (type_specific_size < 2)
  54              		.loc 1 71 0
  55 0014 012A     		cmp	r2, #1
  56 0016 05D8     		bhi	.L4
  72:Source\azure_iot_sdk\uamqp\src/amqp_frame_codec.c ****         {
  73:Source\azure_iot_sdk\uamqp\src/amqp_frame_codec.c ****             amqp_frame_codec->decode_state = AMQP_FRAME_DECODE_ERROR;
  57              		.loc 1 73 0
  58 0018 0133     		adds	r3, r3, #1
  59 001a 0376     		strb	r3, [r0, #24]
  74:Source\azure_iot_sdk\uamqp\src/amqp_frame_codec.c **** 
  75:Source\azure_iot_sdk\uamqp\src/amqp_frame_codec.c ****             /* Codes_SRS_AMQP_FRAME_CODEC_01_069: [If any error occurs while decoding a frame, the 
  76:Source\azure_iot_sdk\uamqp\src/amqp_frame_codec.c ****             amqp_frame_codec->error_callback(amqp_frame_codec->callback_context);
  60              		.loc 1 76 0
  61 001c C368     		ldr	r3, [r0, #12]
  62 001e 0069     		ldr	r0, [r0, #16]
  63              	.LVL3:
  64 0020 9847     		blx	r3
  65              	.LVL4:
  66 0022 31E0     		b	.L1
  67              	.LVL5:
  68              	.L4:
  77:Source\azure_iot_sdk\uamqp\src/amqp_frame_codec.c ****         }
  78:Source\azure_iot_sdk\uamqp\src/amqp_frame_codec.c ****         else
  79:Source\azure_iot_sdk\uamqp\src/amqp_frame_codec.c ****         {
  80:Source\azure_iot_sdk\uamqp\src/amqp_frame_codec.c ****             /* Codes_SRS_AMQP_FRAME_CODEC_01_001: [Bytes 6 and 7 of an AMQP frame contain the chann
  81:Source\azure_iot_sdk\uamqp\src/amqp_frame_codec.c ****             channel = ((uint16_t)type_specific[0]) << 8;
  69              		.loc 1 81 0
  70 0024 0A78     		ldrb	r2, [r1]
  71              	.LVL6:
  72 0026 1202     		lsls	r2, r2, #8
  73              	.LVL7:
  82:Source\azure_iot_sdk\uamqp\src/amqp_frame_codec.c ****             channel += type_specific[1];
  74              		.loc 1 82 0
  75 0028 4B78     		ldrb	r3, [r1, #1]
  76 002a D118     		adds	r1, r2, r3
  77              	.LVL8:
  78 002c 8FB2     		uxth	r7, r1
  79              	.LVL9:
  83:Source\azure_iot_sdk\uamqp\src/amqp_frame_codec.c **** 
  84:Source\azure_iot_sdk\uamqp\src/amqp_frame_codec.c ****             if (frame_body_size == 0)
  80              		.loc 1 84 0
  81 002e 002D     		cmp	r5, #0
  82 0030 04D1     		bne	.L5
  85:Source\azure_iot_sdk\uamqp\src/amqp_frame_codec.c ****             {
  86:Source\azure_iot_sdk\uamqp\src/amqp_frame_codec.c ****                 /* Codes_SRS_AMQP_FRAME_CODEC_01_048: [When a frame header is received from frame_c
  87:Source\azure_iot_sdk\uamqp\src/amqp_frame_codec.c ****                 /* Codes_SRS_AMQP_FRAME_CODEC_01_007: [An AMQP frame with no body MAY be used to ge
  88:Source\azure_iot_sdk\uamqp\src/amqp_frame_codec.c ****                 amqp_frame_codec->empty_frame_received_callback(amqp_frame_codec->callback_context,
  83              		.loc 1 88 0
ARM GAS  C:\Users\Phuong\AppData\Local\Temp\ccSP1btB.s 			page 4


  84 0032 8368     		ldr	r3, [r0, #8]
  85 0034 0069     		ldr	r0, [r0, #16]
  86              	.LVL10:
  87 0036 3900     		movs	r1, r7
  88 0038 9847     		blx	r3
  89              	.LVL11:
  90 003a 25E0     		b	.L1
  91              	.LVL12:
  92              	.L5:
  89:Source\azure_iot_sdk\uamqp\src/amqp_frame_codec.c ****             }
  90:Source\azure_iot_sdk\uamqp\src/amqp_frame_codec.c ****             else
  91:Source\azure_iot_sdk\uamqp\src/amqp_frame_codec.c ****             {
  92:Source\azure_iot_sdk\uamqp\src/amqp_frame_codec.c ****                 /* Codes_SRS_AMQP_FRAME_CODEC_01_051: [If the frame payload is greater than 0, amqp
  93:Source\azure_iot_sdk\uamqp\src/amqp_frame_codec.c ****                 /* Codes_SRS_AMQP_FRAME_CODEC_01_002: [The frame body is defined as a performative 
  94:Source\azure_iot_sdk\uamqp\src/amqp_frame_codec.c ****                 amqp_frame_codec->decoded_performative = NULL;
  93              		.loc 1 94 0
  94 003c 0023     		movs	r3, #0
  95 003e C361     		str	r3, [r0, #28]
  95:Source\azure_iot_sdk\uamqp\src/amqp_frame_codec.c **** 
  96:Source\azure_iot_sdk\uamqp\src/amqp_frame_codec.c ****                 while ((frame_body_size > 0) &&
  96              		.loc 1 96 0
  97 0040 0BE0     		b	.L6
  98              	.LVL13:
  99              	.L10:
  97:Source\azure_iot_sdk\uamqp\src/amqp_frame_codec.c ****                        (amqp_frame_codec->decoded_performative == NULL) &&
  98:Source\azure_iot_sdk\uamqp\src/amqp_frame_codec.c ****                        (amqp_frame_codec->decode_state != AMQP_FRAME_DECODE_ERROR))
  99:Source\azure_iot_sdk\uamqp\src/amqp_frame_codec.c ****                 {
 100:Source\azure_iot_sdk\uamqp\src/amqp_frame_codec.c ****                     /* Codes_SRS_AMQP_FRAME_CODEC_01_052: [Decoding the performative shall be done 
 101:Source\azure_iot_sdk\uamqp\src/amqp_frame_codec.c ****                     if (amqpvalue_decode_bytes(amqp_frame_codec->decoder, frame_body, 1) != 0)
 100              		.loc 1 101 0
 101 0042 0122     		movs	r2, #1
 102 0044 3100     		movs	r1, r6
 103 0046 6069     		ldr	r0, [r4, #20]
 104 0048 FFF7FEFF 		bl	amqpvalue_decode_bytes
 105              	.LVL14:
 106 004c 0028     		cmp	r0, #0
 107 004e 02D0     		beq	.L7
 102:Source\azure_iot_sdk\uamqp\src/amqp_frame_codec.c ****                     {
 103:Source\azure_iot_sdk\uamqp\src/amqp_frame_codec.c ****                         /* Codes_SRS_AMQP_FRAME_CODEC_01_060: [If any error occurs while decoding a
 104:Source\azure_iot_sdk\uamqp\src/amqp_frame_codec.c ****                         amqp_frame_codec->decode_state = AMQP_FRAME_DECODE_ERROR;
 108              		.loc 1 104 0
 109 0050 0123     		movs	r3, #1
 110 0052 2376     		strb	r3, [r4, #24]
 111 0054 01E0     		b	.L6
 112              	.L7:
 105:Source\azure_iot_sdk\uamqp\src/amqp_frame_codec.c ****                     }
 106:Source\azure_iot_sdk\uamqp\src/amqp_frame_codec.c ****                     else
 107:Source\azure_iot_sdk\uamqp\src/amqp_frame_codec.c ****                     {
 108:Source\azure_iot_sdk\uamqp\src/amqp_frame_codec.c ****                         frame_body_size--;
 113              		.loc 1 108 0
 114 0056 013D     		subs	r5, r5, #1
 115              	.LVL15:
 109:Source\azure_iot_sdk\uamqp\src/amqp_frame_codec.c ****                         frame_body++;
 116              		.loc 1 109 0
 117 0058 0136     		adds	r6, r6, #1
 118              	.LVL16:
 119              	.L6:
ARM GAS  C:\Users\Phuong\AppData\Local\Temp\ccSP1btB.s 			page 5


  96:Source\azure_iot_sdk\uamqp\src/amqp_frame_codec.c ****                        (amqp_frame_codec->decoded_performative == NULL) &&
 120              		.loc 1 96 0
 121 005a 002D     		cmp	r5, #0
 122 005c 05D0     		beq	.L9
  96:Source\azure_iot_sdk\uamqp\src/amqp_frame_codec.c ****                        (amqp_frame_codec->decoded_performative == NULL) &&
 123              		.loc 1 96 0 is_stmt 0 discriminator 1
 124 005e E369     		ldr	r3, [r4, #28]
 125 0060 002B     		cmp	r3, #0
 126 0062 02D1     		bne	.L9
  98:Source\azure_iot_sdk\uamqp\src/amqp_frame_codec.c ****                 {
 127              		.loc 1 98 0 is_stmt 1
 128 0064 237E     		ldrb	r3, [r4, #24]
  97:Source\azure_iot_sdk\uamqp\src/amqp_frame_codec.c ****                        (amqp_frame_codec->decode_state != AMQP_FRAME_DECODE_ERROR))
 129              		.loc 1 97 0
 130 0066 012B     		cmp	r3, #1
 131 0068 EBD1     		bne	.L10
 132              	.L9:
 110:Source\azure_iot_sdk\uamqp\src/amqp_frame_codec.c ****                     }
 111:Source\azure_iot_sdk\uamqp\src/amqp_frame_codec.c ****                 }
 112:Source\azure_iot_sdk\uamqp\src/amqp_frame_codec.c **** 
 113:Source\azure_iot_sdk\uamqp\src/amqp_frame_codec.c ****                 if (amqp_frame_codec->decode_state == AMQP_FRAME_DECODE_ERROR)
 133              		.loc 1 113 0
 134 006a 237E     		ldrb	r3, [r4, #24]
 135 006c 012B     		cmp	r3, #1
 136 006e 03D1     		bne	.L11
 114:Source\azure_iot_sdk\uamqp\src/amqp_frame_codec.c ****                 {
 115:Source\azure_iot_sdk\uamqp\src/amqp_frame_codec.c ****                     /* Codes_SRS_AMQP_FRAME_CODEC_01_069: [If any error occurs while decoding a fra
 116:Source\azure_iot_sdk\uamqp\src/amqp_frame_codec.c ****                     amqp_frame_codec->error_callback(amqp_frame_codec->callback_context);
 137              		.loc 1 116 0
 138 0070 E368     		ldr	r3, [r4, #12]
 139 0072 2069     		ldr	r0, [r4, #16]
 140 0074 9847     		blx	r3
 141              	.LVL17:
 142 0076 07E0     		b	.L1
 143              	.L11:
 117:Source\azure_iot_sdk\uamqp\src/amqp_frame_codec.c ****                 }
 118:Source\azure_iot_sdk\uamqp\src/amqp_frame_codec.c ****                 else
 119:Source\azure_iot_sdk\uamqp\src/amqp_frame_codec.c ****                 {
 120:Source\azure_iot_sdk\uamqp\src/amqp_frame_codec.c ****                     /* Codes_SRS_AMQP_FRAME_CODEC_01_004: [The remaining bytes in the frame body fo
 121:Source\azure_iot_sdk\uamqp\src/amqp_frame_codec.c ****                     /* Codes_SRS_AMQP_FRAME_CODEC_01_067: [When the performative is decoded, the re
 122:Source\azure_iot_sdk\uamqp\src/amqp_frame_codec.c ****                     /* Codes_SRS_AMQP_FRAME_CODEC_01_054: [Once the performative is decoded and all
 123:Source\azure_iot_sdk\uamqp\src/amqp_frame_codec.c ****                     /* Codes_SRS_AMQP_FRAME_CODEC_01_068: [A pointer to all the payload bytes shall
 124:Source\azure_iot_sdk\uamqp\src/amqp_frame_codec.c ****                     amqp_frame_codec->frame_received_callback(amqp_frame_codec->callback_context, c
 144              		.loc 1 124 0
 145 0078 6368     		ldr	r3, [r4, #4]
 146 007a 9846     		mov	r8, r3
 147 007c E269     		ldr	r2, [r4, #28]
 148 007e 2069     		ldr	r0, [r4, #16]
 149 0080 0095     		str	r5, [sp]
 150 0082 3300     		movs	r3, r6
 151 0084 3900     		movs	r1, r7
 152 0086 C047     		blx	r8
 153              	.LVL18:
 154              	.L1:
 125:Source\azure_iot_sdk\uamqp\src/amqp_frame_codec.c ****                 }
 126:Source\azure_iot_sdk\uamqp\src/amqp_frame_codec.c ****             }
 127:Source\azure_iot_sdk\uamqp\src/amqp_frame_codec.c ****         }
ARM GAS  C:\Users\Phuong\AppData\Local\Temp\ccSP1btB.s 			page 6


 128:Source\azure_iot_sdk\uamqp\src/amqp_frame_codec.c ****         break;
 129:Source\azure_iot_sdk\uamqp\src/amqp_frame_codec.c ****     }
 130:Source\azure_iot_sdk\uamqp\src/amqp_frame_codec.c **** }
 155              		.loc 1 130 0
 156 0088 02B0     		add	sp, sp, #8
 157              		@ sp needed
 158              	.LVL19:
 159              	.LVL20:
 160 008a 04BC     		pop	{r2}
 161 008c 9046     		mov	r8, r2
 162 008e F0BD     		pop	{r4, r5, r6, r7, pc}
 163              		.cfi_endproc
 164              	.LFE2:
 165              		.size	frame_received, .-frame_received
 166              		.section	.text.amqp_value_decoded,"ax",%progbits
 167              		.align	2
 168              		.code	16
 169              		.thumb_func
 170              		.type	amqp_value_decoded, %function
 171              	amqp_value_decoded:
 172              	.LFB1:
  36:Source\azure_iot_sdk\uamqp\src/amqp_frame_codec.c ****     AMQP_FRAME_CODEC_HANDLE amqp_frame_codec = (AMQP_FRAME_CODEC_HANDLE)context;
 173              		.loc 1 36 0
 174              		.cfi_startproc
 175              		@ args = 0, pretend = 0, frame = 8
 176              		@ frame_needed = 0, uses_anonymous_args = 0
 177              	.LVL21:
 178 0000 30B5     		push	{r4, r5, lr}
 179              		.cfi_def_cfa_offset 12
 180              		.cfi_offset 4, -12
 181              		.cfi_offset 5, -8
 182              		.cfi_offset 14, -4
 183 0002 83B0     		sub	sp, sp, #12
 184              		.cfi_def_cfa_offset 24
 185 0004 0500     		movs	r5, r0
 186 0006 0C00     		movs	r4, r1
 187              	.LVL22:
  39:Source\azure_iot_sdk\uamqp\src/amqp_frame_codec.c **** 
 188              		.loc 1 39 0
 189 0008 0800     		movs	r0, r1
 190              	.LVL23:
 191 000a FFF7FEFF 		bl	amqpvalue_get_inplace_descriptor
 192              	.LVL24:
  42:Source\azure_iot_sdk\uamqp\src/amqp_frame_codec.c ****         (amqpvalue_get_ulong(descriptor, &performative_descriptor_ulong) != 0) ||
 193              		.loc 1 42 0
 194 000e 0028     		cmp	r0, #0
 195 0010 10D0     		beq	.L13
  43:Source\azure_iot_sdk\uamqp\src/amqp_frame_codec.c ****         /* Codes_SRS_AMQP_FRAME_CODEC_01_003: [The performative MUST be one of those defined in sec
 196              		.loc 1 43 0 discriminator 1
 197 0012 6946     		mov	r1, sp
 198 0014 FFF7FEFF 		bl	amqpvalue_get_ulong
 199              	.LVL25:
  42:Source\azure_iot_sdk\uamqp\src/amqp_frame_codec.c ****         (amqpvalue_get_ulong(descriptor, &performative_descriptor_ulong) != 0) ||
 200              		.loc 1 42 0 discriminator 1
 201 0018 0028     		cmp	r0, #0
 202 001a 0BD1     		bne	.L13
  45:Source\azure_iot_sdk\uamqp\src/amqp_frame_codec.c ****         (performative_descriptor_ulong > AMQP_CLOSE))
ARM GAS  C:\Users\Phuong\AppData\Local\Temp\ccSP1btB.s 			page 7


 203              		.loc 1 45 0
 204 001c 009A     		ldr	r2, [sp]
 205 001e 019B     		ldr	r3, [sp, #4]
  43:Source\azure_iot_sdk\uamqp\src/amqp_frame_codec.c ****         /* Codes_SRS_AMQP_FRAME_CODEC_01_003: [The performative MUST be one of those defined in sec
 206              		.loc 1 43 0
 207 0020 002B     		cmp	r3, #0
 208 0022 02D1     		bne	.L18
 209 0024 06D1     		bne	.L13
 210 0026 0F2A     		cmp	r2, #15
 211 0028 04D9     		bls	.L13
 212              	.L18:
  45:Source\azure_iot_sdk\uamqp\src/amqp_frame_codec.c ****         (performative_descriptor_ulong > AMQP_CLOSE))
 213              		.loc 1 45 0
 214 002a 002B     		cmp	r3, #0
 215 002c 02D1     		bne	.L13
 216 002e 04D1     		bne	.L15
 217 0030 182A     		cmp	r2, #24
 218 0032 02D9     		bls	.L15
 219              	.L13:
  49:Source\azure_iot_sdk\uamqp\src/amqp_frame_codec.c ****     }
 220              		.loc 1 49 0
 221 0034 0123     		movs	r3, #1
 222 0036 2B76     		strb	r3, [r5, #24]
 223 0038 00E0     		b	.L12
 224              	.L15:
  53:Source\azure_iot_sdk\uamqp\src/amqp_frame_codec.c ****     }
 225              		.loc 1 53 0
 226 003a EC61     		str	r4, [r5, #28]
 227              	.L12:
  55:Source\azure_iot_sdk\uamqp\src/amqp_frame_codec.c **** 
 228              		.loc 1 55 0
 229 003c 03B0     		add	sp, sp, #12
 230              		@ sp needed
 231              	.LVL26:
 232              	.LVL27:
 233 003e 30BD     		pop	{r4, r5, pc}
 234              		.cfi_endproc
 235              	.LFE1:
 236              		.size	amqp_value_decoded, .-amqp_value_decoded
 237              		.section	.text.encode_bytes,"ax",%progbits
 238              		.align	2
 239              		.code	16
 240              		.thumb_func
 241              		.type	encode_bytes, %function
 242              	encode_bytes:
 243              	.LFB3:
 131:Source\azure_iot_sdk\uamqp\src/amqp_frame_codec.c **** 
 132:Source\azure_iot_sdk\uamqp\src/amqp_frame_codec.c **** static int encode_bytes(void* context, const unsigned char* bytes, size_t length)
 133:Source\azure_iot_sdk\uamqp\src/amqp_frame_codec.c **** {
 244              		.loc 1 133 0
 245              		.cfi_startproc
 246              		@ args = 0, pretend = 0, frame = 0
 247              		@ frame_needed = 0, uses_anonymous_args = 0
 248              	.LVL28:
 249 0000 70B5     		push	{r4, r5, r6, lr}
 250              		.cfi_def_cfa_offset 16
 251              		.cfi_offset 4, -16
ARM GAS  C:\Users\Phuong\AppData\Local\Temp\ccSP1btB.s 			page 8


 252              		.cfi_offset 5, -12
 253              		.cfi_offset 6, -8
 254              		.cfi_offset 14, -4
 255 0002 0400     		movs	r4, r0
 256 0004 1500     		movs	r5, r2
 257              	.LVL29:
 134:Source\azure_iot_sdk\uamqp\src/amqp_frame_codec.c ****     PAYLOAD* payload = (PAYLOAD*)context;
 135:Source\azure_iot_sdk\uamqp\src/amqp_frame_codec.c ****     (void)memcpy((unsigned char*)payload->bytes + payload->length, bytes, length);
 258              		.loc 1 135 0
 259 0006 0368     		ldr	r3, [r0]
 260 0008 4268     		ldr	r2, [r0, #4]
 261              	.LVL30:
 262 000a 9446     		mov	ip, r2
 263 000c 6344     		add	r3, r3, ip
 264 000e 1800     		movs	r0, r3
 265              	.LVL31:
 266 0010 2A00     		movs	r2, r5
 267 0012 FFF7FEFF 		bl	memcpy
 268              	.LVL32:
 136:Source\azure_iot_sdk\uamqp\src/amqp_frame_codec.c ****     payload->length += length;
 269              		.loc 1 136 0
 270 0016 6368     		ldr	r3, [r4, #4]
 271 0018 9C46     		mov	ip, r3
 272 001a 6544     		add	r5, r5, ip
 273              	.LVL33:
 274 001c 6560     		str	r5, [r4, #4]
 137:Source\azure_iot_sdk\uamqp\src/amqp_frame_codec.c ****     return 0;
 138:Source\azure_iot_sdk\uamqp\src/amqp_frame_codec.c **** }
 275              		.loc 1 138 0
 276 001e 0020     		movs	r0, #0
 277              		@ sp needed
 278              	.LVL34:
 279 0020 70BD     		pop	{r4, r5, r6, pc}
 280              		.cfi_endproc
 281              	.LFE3:
 282              		.size	encode_bytes, .-encode_bytes
 283 0022 C046     		.section	.text.amqp_frame_codec_create,"ax",%progbits
 284              		.align	2
 285              		.global	amqp_frame_codec_create
 286              		.code	16
 287              		.thumb_func
 288              		.type	amqp_frame_codec_create, %function
 289              	amqp_frame_codec_create:
 290              	.LFB4:
 139:Source\azure_iot_sdk\uamqp\src/amqp_frame_codec.c **** 
 140:Source\azure_iot_sdk\uamqp\src/amqp_frame_codec.c **** /* Codes_SRS_AMQP_FRAME_CODEC_01_011: [amqp_frame_codec_create shall create an instance of an amqp_
 141:Source\azure_iot_sdk\uamqp\src/amqp_frame_codec.c **** AMQP_FRAME_CODEC_HANDLE amqp_frame_codec_create(FRAME_CODEC_HANDLE frame_codec, AMQP_FRAME_RECEIVED
 142:Source\azure_iot_sdk\uamqp\src/amqp_frame_codec.c ****     AMQP_EMPTY_FRAME_RECEIVED_CALLBACK empty_frame_received_callback, AMQP_FRAME_CODEC_ERROR_CALLBA
 143:Source\azure_iot_sdk\uamqp\src/amqp_frame_codec.c **** {
 291              		.loc 1 143 0
 292              		.cfi_startproc
 293              		@ args = 4, pretend = 0, frame = 0
 294              		@ frame_needed = 0, uses_anonymous_args = 0
 295              	.LVL35:
 296 0000 F0B5     		push	{r4, r5, r6, r7, lr}
 297              		.cfi_def_cfa_offset 20
 298              		.cfi_offset 4, -20
ARM GAS  C:\Users\Phuong\AppData\Local\Temp\ccSP1btB.s 			page 9


 299              		.cfi_offset 5, -16
 300              		.cfi_offset 6, -12
 301              		.cfi_offset 7, -8
 302              		.cfi_offset 14, -4
 303 0002 4746     		mov	r7, r8
 304 0004 80B4     		push	{r7}
 305              		.cfi_def_cfa_offset 24
 306              		.cfi_offset 8, -24
 307 0006 86B0     		sub	sp, sp, #24
 308              		.cfi_def_cfa_offset 48
 309 0008 0500     		movs	r5, r0
 310 000a 0E00     		movs	r6, r1
 311 000c 1700     		movs	r7, r2
 312 000e 9846     		mov	r8, r3
 144:Source\azure_iot_sdk\uamqp\src/amqp_frame_codec.c ****     AMQP_FRAME_CODEC_HANDLE result;
 145:Source\azure_iot_sdk\uamqp\src/amqp_frame_codec.c **** 
 146:Source\azure_iot_sdk\uamqp\src/amqp_frame_codec.c ****     /* Codes_SRS_AMQP_FRAME_CODEC_01_012: [If any of the arguments frame_codec, frame_received_call
 147:Source\azure_iot_sdk\uamqp\src/amqp_frame_codec.c ****     if ((frame_codec == NULL) ||
 313              		.loc 1 147 0
 314 0010 0028     		cmp	r0, #0
 315 0012 05D0     		beq	.L21
 316              		.loc 1 147 0 is_stmt 0 discriminator 1
 317 0014 0029     		cmp	r1, #0
 318 0016 03D0     		beq	.L21
 148:Source\azure_iot_sdk\uamqp\src/amqp_frame_codec.c ****         (frame_received_callback == NULL) ||
 319              		.loc 1 148 0 is_stmt 1
 320 0018 002A     		cmp	r2, #0
 321 001a 01D0     		beq	.L21
 149:Source\azure_iot_sdk\uamqp\src/amqp_frame_codec.c ****         (empty_frame_received_callback == NULL) ||
 322              		.loc 1 149 0
 323 001c 002B     		cmp	r3, #0
 324 001e 13D1     		bne	.L22
 325              	.L21:
 326              	.LBB2:
 150:Source\azure_iot_sdk\uamqp\src/amqp_frame_codec.c ****         (amqp_frame_codec_error_callback == NULL))
 151:Source\azure_iot_sdk\uamqp\src/amqp_frame_codec.c ****     {
 152:Source\azure_iot_sdk\uamqp\src/amqp_frame_codec.c ****         LogError("Bad arguments: frame_codec = %p, frame_received_callback = %p, empty_frame_receiv
 327              		.loc 1 152 0 discriminator 3
 328 0020 FFF7FEFF 		bl	xlogging_get_log_function
 329              	.LVL36:
 330 0024 041E     		subs	r4, r0, #0
 331              	.LVL37:
 332 0026 61D0     		beq	.L28
 333              		.loc 1 152 0 is_stmt 0 discriminator 4
 334 0028 4346     		mov	r3, r8
 335 002a 0593     		str	r3, [sp, #20]
 336 002c 0497     		str	r7, [sp, #16]
 337 002e 0396     		str	r6, [sp, #12]
 338 0030 0295     		str	r5, [sp, #8]
 339 0032 314B     		ldr	r3, .L29
 340 0034 0193     		str	r3, [sp, #4]
 341 0036 0123     		movs	r3, #1
 342 0038 0093     		str	r3, [sp]
 343 003a 9833     		adds	r3, r3, #152
 344 003c 2F4A     		ldr	r2, .L29+4
 345 003e 3049     		ldr	r1, .L29+8
 346 0040 0020     		movs	r0, #0
ARM GAS  C:\Users\Phuong\AppData\Local\Temp\ccSP1btB.s 			page 10


 347              	.LVL38:
 348 0042 A047     		blx	r4
 349              	.LVL39:
 350              	.LBE2:
 153:Source\azure_iot_sdk\uamqp\src/amqp_frame_codec.c ****             frame_codec, frame_received_callback, empty_frame_received_callback, amqp_frame_codec_e
 154:Source\azure_iot_sdk\uamqp\src/amqp_frame_codec.c ****         result = NULL;
 351              		.loc 1 154 0 is_stmt 1 discriminator 4
 352 0044 0024     		movs	r4, #0
 353              	.LVL40:
 354 0046 52E0     		b	.L23
 355              	.LVL41:
 356              	.L22:
 155:Source\azure_iot_sdk\uamqp\src/amqp_frame_codec.c ****     }
 156:Source\azure_iot_sdk\uamqp\src/amqp_frame_codec.c ****     else
 157:Source\azure_iot_sdk\uamqp\src/amqp_frame_codec.c ****     {
 158:Source\azure_iot_sdk\uamqp\src/amqp_frame_codec.c ****         result = (AMQP_FRAME_CODEC_HANDLE)malloc(sizeof(AMQP_FRAME_CODEC));
 357              		.loc 1 158 0
 358 0048 2020     		movs	r0, #32
 359              	.LVL42:
 360 004a FFF7FEFF 		bl	malloc
 361              	.LVL43:
 362 004e 041E     		subs	r4, r0, #0
 363              	.LVL44:
 159:Source\azure_iot_sdk\uamqp\src/amqp_frame_codec.c ****         /* Codes_SRS_AMQP_FRAME_CODEC_01_020: [If allocating memory for the new amqp_frame_codec fa
 160:Source\azure_iot_sdk\uamqp\src/amqp_frame_codec.c ****         if (result == NULL)
 364              		.loc 1 160 0
 365 0050 0DD1     		bne	.L24
 366              	.LBB3:
 161:Source\azure_iot_sdk\uamqp\src/amqp_frame_codec.c ****         {
 162:Source\azure_iot_sdk\uamqp\src/amqp_frame_codec.c ****             LogError("Could not allocate memory for AMQP frame codec");
 367              		.loc 1 162 0 discriminator 3
 368 0052 FFF7FEFF 		bl	xlogging_get_log_function
 369              	.LVL45:
 370 0056 051E     		subs	r5, r0, #0
 371              	.LVL46:
 372 0058 49D0     		beq	.L23
 373              		.loc 1 162 0 is_stmt 0 discriminator 4
 374 005a 2A4B     		ldr	r3, .L29+12
 375 005c 0193     		str	r3, [sp, #4]
 376 005e 0123     		movs	r3, #1
 377 0060 0093     		str	r3, [sp]
 378 0062 A133     		adds	r3, r3, #161
 379 0064 254A     		ldr	r2, .L29+4
 380 0066 2649     		ldr	r1, .L29+8
 381 0068 0020     		movs	r0, #0
 382              	.LVL47:
 383 006a A847     		blx	r5
 384              	.LVL48:
 385 006c 3FE0     		b	.L23
 386              	.LVL49:
 387              	.L24:
 388              	.LBE3:
 163:Source\azure_iot_sdk\uamqp\src/amqp_frame_codec.c ****         }
 164:Source\azure_iot_sdk\uamqp\src/amqp_frame_codec.c ****         else
 165:Source\azure_iot_sdk\uamqp\src/amqp_frame_codec.c ****         {
 166:Source\azure_iot_sdk\uamqp\src/amqp_frame_codec.c ****             result->frame_codec = frame_codec;
 389              		.loc 1 166 0 is_stmt 1
ARM GAS  C:\Users\Phuong\AppData\Local\Temp\ccSP1btB.s 			page 11


 390 006e 0560     		str	r5, [r0]
 167:Source\azure_iot_sdk\uamqp\src/amqp_frame_codec.c ****             result->frame_received_callback = frame_received_callback;
 391              		.loc 1 167 0
 392 0070 4660     		str	r6, [r0, #4]
 168:Source\azure_iot_sdk\uamqp\src/amqp_frame_codec.c ****             result->empty_frame_received_callback = empty_frame_received_callback;
 393              		.loc 1 168 0
 394 0072 8760     		str	r7, [r0, #8]
 169:Source\azure_iot_sdk\uamqp\src/amqp_frame_codec.c ****             result->error_callback = amqp_frame_codec_error_callback;
 395              		.loc 1 169 0
 396 0074 4346     		mov	r3, r8
 397 0076 C360     		str	r3, [r0, #12]
 170:Source\azure_iot_sdk\uamqp\src/amqp_frame_codec.c ****             result->callback_context = callback_context;
 398              		.loc 1 170 0
 399 0078 0C9B     		ldr	r3, [sp, #48]
 400 007a 0361     		str	r3, [r0, #16]
 171:Source\azure_iot_sdk\uamqp\src/amqp_frame_codec.c ****             result->decode_state = AMQP_FRAME_DECODE_FRAME;
 401              		.loc 1 171 0
 402 007c 0023     		movs	r3, #0
 403 007e 0376     		strb	r3, [r0, #24]
 172:Source\azure_iot_sdk\uamqp\src/amqp_frame_codec.c **** 
 173:Source\azure_iot_sdk\uamqp\src/amqp_frame_codec.c ****             /* Codes_SRS_AMQP_FRAME_CODEC_01_018: [amqp_frame_codec_create shall create a decoder t
 174:Source\azure_iot_sdk\uamqp\src/amqp_frame_codec.c ****             result->decoder = amqpvalue_decoder_create(amqp_value_decoded, result);
 404              		.loc 1 174 0
 405 0080 0100     		movs	r1, r0
 406 0082 2148     		ldr	r0, .L29+16
 407              	.LVL50:
 408 0084 FFF7FEFF 		bl	amqpvalue_decoder_create
 409              	.LVL51:
 410 0088 6061     		str	r0, [r4, #20]
 175:Source\azure_iot_sdk\uamqp\src/amqp_frame_codec.c ****             if (result->decoder == NULL)
 411              		.loc 1 175 0
 412 008a 0028     		cmp	r0, #0
 413 008c 11D1     		bne	.L25
 414              	.LBB4:
 176:Source\azure_iot_sdk\uamqp\src/amqp_frame_codec.c ****             {
 177:Source\azure_iot_sdk\uamqp\src/amqp_frame_codec.c ****                 /* Codes_SRS_AMQP_FRAME_CODEC_01_019: [If creating the decoder fails, amqp_frame_co
 178:Source\azure_iot_sdk\uamqp\src/amqp_frame_codec.c ****                 LogError("Could not create AMQP decoder");
 415              		.loc 1 178 0 discriminator 3
 416 008e FFF7FEFF 		bl	xlogging_get_log_function
 417              	.LVL52:
 418 0092 051E     		subs	r5, r0, #0
 419              	.LVL53:
 420 0094 08D0     		beq	.L26
 421              		.loc 1 178 0 is_stmt 0 discriminator 4
 422 0096 1D4B     		ldr	r3, .L29+20
 423 0098 0193     		str	r3, [sp, #4]
 424 009a 0123     		movs	r3, #1
 425 009c 0093     		str	r3, [sp]
 426 009e B133     		adds	r3, r3, #177
 427 00a0 164A     		ldr	r2, .L29+4
 428 00a2 1749     		ldr	r1, .L29+8
 429 00a4 0020     		movs	r0, #0
 430              	.LVL54:
 431 00a6 A847     		blx	r5
 432              	.LVL55:
 433              	.L26:
 434              	.LBE4:
ARM GAS  C:\Users\Phuong\AppData\Local\Temp\ccSP1btB.s 			page 12


 179:Source\azure_iot_sdk\uamqp\src/amqp_frame_codec.c ****                 free(result);
 435              		.loc 1 179 0 is_stmt 1
 436 00a8 2000     		movs	r0, r4
 437 00aa FFF7FEFF 		bl	free
 438              	.LVL56:
 180:Source\azure_iot_sdk\uamqp\src/amqp_frame_codec.c ****                 result = NULL;
 439              		.loc 1 180 0
 440 00ae 0024     		movs	r4, #0
 441 00b0 1DE0     		b	.L23
 442              	.LVL57:
 443              	.L25:
 181:Source\azure_iot_sdk\uamqp\src/amqp_frame_codec.c ****             }
 182:Source\azure_iot_sdk\uamqp\src/amqp_frame_codec.c ****             else
 183:Source\azure_iot_sdk\uamqp\src/amqp_frame_codec.c ****             {
 184:Source\azure_iot_sdk\uamqp\src/amqp_frame_codec.c ****                 /* Codes_SRS_AMQP_FRAME_CODEC_01_013: [amqp_frame_codec_create shall subscribe for 
 185:Source\azure_iot_sdk\uamqp\src/amqp_frame_codec.c ****                 if (frame_codec_subscribe(frame_codec, FRAME_TYPE_AMQP, frame_received, result) != 
 444              		.loc 1 185 0
 445 00b2 2300     		movs	r3, r4
 446 00b4 164A     		ldr	r2, .L29+24
 447 00b6 0021     		movs	r1, #0
 448 00b8 2800     		movs	r0, r5
 449 00ba FFF7FEFF 		bl	frame_codec_subscribe
 450              	.LVL58:
 451 00be 0028     		cmp	r0, #0
 452 00c0 15D0     		beq	.L23
 453              	.LBB5:
 186:Source\azure_iot_sdk\uamqp\src/amqp_frame_codec.c ****                 {
 187:Source\azure_iot_sdk\uamqp\src/amqp_frame_codec.c ****                     /* Codes_SRS_AMQP_FRAME_CODEC_01_014: [If subscribing for AMQP frames fails, am
 188:Source\azure_iot_sdk\uamqp\src/amqp_frame_codec.c ****                     LogError("Could not subscribe for received AMQP frames");
 454              		.loc 1 188 0 discriminator 3
 455 00c2 FFF7FEFF 		bl	xlogging_get_log_function
 456              	.LVL59:
 457 00c6 051E     		subs	r5, r0, #0
 458              	.LVL60:
 459 00c8 08D0     		beq	.L27
 460              		.loc 1 188 0 is_stmt 0 discriminator 4
 461 00ca 124B     		ldr	r3, .L29+28
 462 00cc 0193     		str	r3, [sp, #4]
 463 00ce 0123     		movs	r3, #1
 464 00d0 0093     		str	r3, [sp]
 465 00d2 BB33     		adds	r3, r3, #187
 466 00d4 094A     		ldr	r2, .L29+4
 467 00d6 0A49     		ldr	r1, .L29+8
 468 00d8 0020     		movs	r0, #0
 469              	.LVL61:
 470 00da A847     		blx	r5
 471              	.LVL62:
 472              	.L27:
 473              	.LBE5:
 189:Source\azure_iot_sdk\uamqp\src/amqp_frame_codec.c ****                     amqpvalue_decoder_destroy(result->decoder);
 474              		.loc 1 189 0 is_stmt 1
 475 00dc 6069     		ldr	r0, [r4, #20]
 476 00de FFF7FEFF 		bl	amqpvalue_decoder_destroy
 477              	.LVL63:
 190:Source\azure_iot_sdk\uamqp\src/amqp_frame_codec.c ****                     free(result);
 478              		.loc 1 190 0
 479 00e2 2000     		movs	r0, r4
ARM GAS  C:\Users\Phuong\AppData\Local\Temp\ccSP1btB.s 			page 13


 480 00e4 FFF7FEFF 		bl	free
 481              	.LVL64:
 191:Source\azure_iot_sdk\uamqp\src/amqp_frame_codec.c ****                     result = NULL;
 482              		.loc 1 191 0
 483 00e8 0024     		movs	r4, #0
 484 00ea 00E0     		b	.L23
 485              	.LVL65:
 486              	.L28:
 154:Source\azure_iot_sdk\uamqp\src/amqp_frame_codec.c ****     }
 487              		.loc 1 154 0
 488 00ec 0024     		movs	r4, #0
 489              	.LVL66:
 490              	.L23:
 192:Source\azure_iot_sdk\uamqp\src/amqp_frame_codec.c ****                 }
 193:Source\azure_iot_sdk\uamqp\src/amqp_frame_codec.c ****             }
 194:Source\azure_iot_sdk\uamqp\src/amqp_frame_codec.c ****         }
 195:Source\azure_iot_sdk\uamqp\src/amqp_frame_codec.c ****     }
 196:Source\azure_iot_sdk\uamqp\src/amqp_frame_codec.c **** 
 197:Source\azure_iot_sdk\uamqp\src/amqp_frame_codec.c ****     return result;
 198:Source\azure_iot_sdk\uamqp\src/amqp_frame_codec.c **** }
 491              		.loc 1 198 0
 492 00ee 2000     		movs	r0, r4
 493 00f0 06B0     		add	sp, sp, #24
 494              		@ sp needed
 495              	.LVL67:
 496              	.LVL68:
 497              	.LVL69:
 498              	.LVL70:
 499 00f2 04BC     		pop	{r2}
 500 00f4 9046     		mov	r8, r2
 501 00f6 F0BD     		pop	{r4, r5, r6, r7, pc}
 502              	.L30:
 503              		.align	2
 504              	.L29:
 505 00f8 34000000 		.word	.LC3
 506 00fc 00000000 		.word	.LANCHOR0
 507 0100 00000000 		.word	.LC1
 508 0104 BC000000 		.word	.LC5
 509 0108 00000000 		.word	amqp_value_decoded
 510 010c EC000000 		.word	.LC8
 511 0110 00000000 		.word	frame_received
 512 0114 0C010000 		.word	.LC11
 513              		.cfi_endproc
 514              	.LFE4:
 515              		.size	amqp_frame_codec_create, .-amqp_frame_codec_create
 516              		.section	.text.amqp_frame_codec_destroy,"ax",%progbits
 517              		.align	2
 518              		.global	amqp_frame_codec_destroy
 519              		.code	16
 520              		.thumb_func
 521              		.type	amqp_frame_codec_destroy, %function
 522              	amqp_frame_codec_destroy:
 523              	.LFB5:
 199:Source\azure_iot_sdk\uamqp\src/amqp_frame_codec.c **** 
 200:Source\azure_iot_sdk\uamqp\src/amqp_frame_codec.c **** void amqp_frame_codec_destroy(AMQP_FRAME_CODEC_HANDLE amqp_frame_codec)
 201:Source\azure_iot_sdk\uamqp\src/amqp_frame_codec.c **** {
 524              		.loc 1 201 0
ARM GAS  C:\Users\Phuong\AppData\Local\Temp\ccSP1btB.s 			page 14


 525              		.cfi_startproc
 526              		@ args = 0, pretend = 0, frame = 0
 527              		@ frame_needed = 0, uses_anonymous_args = 0
 528              	.LVL71:
 529 0000 10B5     		push	{r4, lr}
 530              		.cfi_def_cfa_offset 8
 531              		.cfi_offset 4, -8
 532              		.cfi_offset 14, -4
 533 0002 82B0     		sub	sp, sp, #8
 534              		.cfi_def_cfa_offset 16
 535 0004 041E     		subs	r4, r0, #0
 202:Source\azure_iot_sdk\uamqp\src/amqp_frame_codec.c ****     if (amqp_frame_codec == NULL)
 536              		.loc 1 202 0
 537 0006 0ED1     		bne	.L32
 538              	.LBB6:
 203:Source\azure_iot_sdk\uamqp\src/amqp_frame_codec.c ****     {
 204:Source\azure_iot_sdk\uamqp\src/amqp_frame_codec.c ****         /* Codes_SRS_AMQP_FRAME_CODEC_01_016: [If amqp_frame_codec is NULL, amqp_frame_codec_destro
 205:Source\azure_iot_sdk\uamqp\src/amqp_frame_codec.c ****         LogError("NULL amqp_frame_codec");
 539              		.loc 1 205 0 discriminator 3
 540 0008 FFF7FEFF 		bl	xlogging_get_log_function
 541              	.LVL72:
 542 000c 041E     		subs	r4, r0, #0
 543              	.LVL73:
 544 000e 14D0     		beq	.L31
 545              		.loc 1 205 0 is_stmt 0 discriminator 4
 546 0010 0B4B     		ldr	r3, .L34
 547 0012 0193     		str	r3, [sp, #4]
 548 0014 0123     		movs	r3, #1
 549 0016 0093     		str	r3, [sp]
 550 0018 CC33     		adds	r3, r3, #204
 551 001a 0A4A     		ldr	r2, .L34+4
 552 001c 1832     		adds	r2, r2, #24
 553 001e 0A49     		ldr	r1, .L34+8
 554 0020 0020     		movs	r0, #0
 555              	.LVL74:
 556 0022 A047     		blx	r4
 557              	.LVL75:
 558 0024 09E0     		b	.L31
 559              	.LVL76:
 560              	.L32:
 561              	.LBE6:
 206:Source\azure_iot_sdk\uamqp\src/amqp_frame_codec.c ****     }
 207:Source\azure_iot_sdk\uamqp\src/amqp_frame_codec.c ****     else
 208:Source\azure_iot_sdk\uamqp\src/amqp_frame_codec.c ****     {
 209:Source\azure_iot_sdk\uamqp\src/amqp_frame_codec.c ****         /* Codes_SRS_AMQP_FRAME_CODEC_01_017: [amqp_frame_codec_destroy shall unsubscribe from rece
 210:Source\azure_iot_sdk\uamqp\src/amqp_frame_codec.c ****         (void)frame_codec_unsubscribe(amqp_frame_codec->frame_codec, FRAME_TYPE_AMQP);
 562              		.loc 1 210 0 is_stmt 1
 563 0026 0021     		movs	r1, #0
 564 0028 0068     		ldr	r0, [r0]
 565              	.LVL77:
 566 002a FFF7FEFF 		bl	frame_codec_unsubscribe
 567              	.LVL78:
 211:Source\azure_iot_sdk\uamqp\src/amqp_frame_codec.c **** 
 212:Source\azure_iot_sdk\uamqp\src/amqp_frame_codec.c ****         /* Codes_SRS_AMQP_FRAME_CODEC_01_021: [The decoder created in amqp_frame_codec_create shall
 213:Source\azure_iot_sdk\uamqp\src/amqp_frame_codec.c ****         amqpvalue_decoder_destroy(amqp_frame_codec->decoder);
 568              		.loc 1 213 0
 569 002e 6069     		ldr	r0, [r4, #20]
ARM GAS  C:\Users\Phuong\AppData\Local\Temp\ccSP1btB.s 			page 15


 570 0030 FFF7FEFF 		bl	amqpvalue_decoder_destroy
 571              	.LVL79:
 214:Source\azure_iot_sdk\uamqp\src/amqp_frame_codec.c **** 
 215:Source\azure_iot_sdk\uamqp\src/amqp_frame_codec.c ****         /* Codes_SRS_AMQP_FRAME_CODEC_01_015: [amqp_frame_codec_destroy shall free all resources as
 216:Source\azure_iot_sdk\uamqp\src/amqp_frame_codec.c ****         free(amqp_frame_codec);
 572              		.loc 1 216 0
 573 0034 2000     		movs	r0, r4
 574 0036 FFF7FEFF 		bl	free
 575              	.LVL80:
 576              	.L31:
 217:Source\azure_iot_sdk\uamqp\src/amqp_frame_codec.c ****     }
 218:Source\azure_iot_sdk\uamqp\src/amqp_frame_codec.c **** }
 577              		.loc 1 218 0
 578 003a 02B0     		add	sp, sp, #8
 579              		@ sp needed
 580 003c 10BD     		pop	{r4, pc}
 581              	.L35:
 582 003e C046     		.align	2
 583              	.L34:
 584 0040 3C010000 		.word	.LC15
 585 0044 00000000 		.word	.LANCHOR0
 586 0048 00000000 		.word	.LC1
 587              		.cfi_endproc
 588              	.LFE5:
 589              		.size	amqp_frame_codec_destroy, .-amqp_frame_codec_destroy
 590              		.section	.text.amqp_frame_codec_encode_frame,"ax",%progbits
 591              		.align	2
 592              		.global	amqp_frame_codec_encode_frame
 593              		.code	16
 594              		.thumb_func
 595              		.type	amqp_frame_codec_encode_frame, %function
 596              	amqp_frame_codec_encode_frame:
 597              	.LFB6:
 219:Source\azure_iot_sdk\uamqp\src/amqp_frame_codec.c **** 
 220:Source\azure_iot_sdk\uamqp\src/amqp_frame_codec.c **** int amqp_frame_codec_encode_frame(AMQP_FRAME_CODEC_HANDLE amqp_frame_codec, uint16_t channel, AMQP_
 221:Source\azure_iot_sdk\uamqp\src/amqp_frame_codec.c **** {
 598              		.loc 1 221 0
 599              		.cfi_startproc
 600              		@ args = 12, pretend = 0, frame = 24
 601              		@ frame_needed = 0, uses_anonymous_args = 0
 602              	.LVL81:
 603 0000 F0B5     		push	{r4, r5, r6, r7, lr}
 604              		.cfi_def_cfa_offset 20
 605              		.cfi_offset 4, -20
 606              		.cfi_offset 5, -16
 607              		.cfi_offset 6, -12
 608              		.cfi_offset 7, -8
 609              		.cfi_offset 14, -4
 610 0002 5746     		mov	r7, r10
 611 0004 4646     		mov	r6, r8
 612 0006 C0B4     		push	{r6, r7}
 613              		.cfi_def_cfa_offset 28
 614              		.cfi_offset 8, -28
 615              		.cfi_offset 10, -24
 616 0008 8DB0     		sub	sp, sp, #52
 617              		.cfi_def_cfa_offset 80
 618 000a 0500     		movs	r5, r0
ARM GAS  C:\Users\Phuong\AppData\Local\Temp\ccSP1btB.s 			page 16


 619 000c 0E00     		movs	r6, r1
 620 000e 1400     		movs	r4, r2
 621 0010 0793     		str	r3, [sp, #28]
 222:Source\azure_iot_sdk\uamqp\src/amqp_frame_codec.c ****     int result;
 223:Source\azure_iot_sdk\uamqp\src/amqp_frame_codec.c **** 
 224:Source\azure_iot_sdk\uamqp\src/amqp_frame_codec.c ****     /* Codes_SRS_AMQP_FRAME_CODEC_01_024: [If frame_codec, performative or on_bytes_encoded is NULL
 225:Source\azure_iot_sdk\uamqp\src/amqp_frame_codec.c ****     if ((amqp_frame_codec == NULL) ||
 622              		.loc 1 225 0
 623 0012 0028     		cmp	r0, #0
 624 0014 04D0     		beq	.L37
 625              		.loc 1 225 0 is_stmt 0 discriminator 1
 626 0016 002A     		cmp	r2, #0
 627 0018 02D0     		beq	.L37
 226:Source\azure_iot_sdk\uamqp\src/amqp_frame_codec.c ****         (performative == NULL) ||
 628              		.loc 1 226 0 is_stmt 1
 629 001a 159B     		ldr	r3, [sp, #84]
 630              	.LVL82:
 631 001c 002B     		cmp	r3, #0
 632 001e 14D1     		bne	.L38
 633              	.L37:
 634              	.LBB7:
 227:Source\azure_iot_sdk\uamqp\src/amqp_frame_codec.c ****         (on_bytes_encoded == NULL))
 228:Source\azure_iot_sdk\uamqp\src/amqp_frame_codec.c ****     {
 229:Source\azure_iot_sdk\uamqp\src/amqp_frame_codec.c ****         LogError("Bad arguments: amqp_frame_codec = %p, performative = %p, on_bytes_encoded = %p",
 635              		.loc 1 229 0 discriminator 3
 636 0020 FFF7FEFF 		bl	xlogging_get_log_function
 637              	.LVL83:
 638 0024 061E     		subs	r6, r0, #0
 639              	.LVL84:
 640 0026 00D1     		bne	.LCB669
 641 0028 12E1     		b	.L53	@long jump
 642              	.LCB669:
 643              		.loc 1 229 0 is_stmt 0 discriminator 4
 644 002a 159B     		ldr	r3, [sp, #84]
 645 002c 0493     		str	r3, [sp, #16]
 646 002e 0394     		str	r4, [sp, #12]
 647 0030 0295     		str	r5, [sp, #8]
 648 0032 8B4B     		ldr	r3, .L64
 649 0034 0193     		str	r3, [sp, #4]
 650 0036 0123     		movs	r3, #1
 651 0038 0093     		str	r3, [sp]
 652 003a E533     		adds	r3, r3, #229
 653 003c 894A     		ldr	r2, .L64+4
 654 003e 3432     		adds	r2, r2, #52
 655 0040 8949     		ldr	r1, .L64+8
 656 0042 0020     		movs	r0, #0
 657              	.LVL85:
 658 0044 B047     		blx	r6
 659              	.LVL86:
 660              	.LBE7:
 230:Source\azure_iot_sdk\uamqp\src/amqp_frame_codec.c ****             amqp_frame_codec, performative, on_bytes_encoded);
 231:Source\azure_iot_sdk\uamqp\src/amqp_frame_codec.c ****         result = __FAILURE__;
 661              		.loc 1 231 0 is_stmt 1 discriminator 4
 662 0046 E724     		movs	r4, #231
 663              	.LVL87:
 664 0048 03E1     		b	.L39
 665              	.LVL88:
ARM GAS  C:\Users\Phuong\AppData\Local\Temp\ccSP1btB.s 			page 17


 666              	.L38:
 667              	.LBB8:
 232:Source\azure_iot_sdk\uamqp\src/amqp_frame_codec.c ****     }
 233:Source\azure_iot_sdk\uamqp\src/amqp_frame_codec.c ****     else
 234:Source\azure_iot_sdk\uamqp\src/amqp_frame_codec.c ****     {
 235:Source\azure_iot_sdk\uamqp\src/amqp_frame_codec.c ****         AMQP_VALUE descriptor;
 236:Source\azure_iot_sdk\uamqp\src/amqp_frame_codec.c ****         uint64_t performative_ulong;
 237:Source\azure_iot_sdk\uamqp\src/amqp_frame_codec.c ****         size_t encoded_size;
 238:Source\azure_iot_sdk\uamqp\src/amqp_frame_codec.c **** 
 239:Source\azure_iot_sdk\uamqp\src/amqp_frame_codec.c ****         if ((descriptor = amqpvalue_get_inplace_descriptor(performative)) == NULL)
 668              		.loc 1 239 0
 669 004a 1000     		movs	r0, r2
 670              	.LVL89:
 671 004c FFF7FEFF 		bl	amqpvalue_get_inplace_descriptor
 672              	.LVL90:
 673 0050 0028     		cmp	r0, #0
 674 0052 10D1     		bne	.L40
 675              	.LBB9:
 240:Source\azure_iot_sdk\uamqp\src/amqp_frame_codec.c ****         {
 241:Source\azure_iot_sdk\uamqp\src/amqp_frame_codec.c ****             /* Codes_SRS_AMQP_FRAME_CODEC_01_029: [If any error occurs during encoding, amqp_frame_
 242:Source\azure_iot_sdk\uamqp\src/amqp_frame_codec.c ****             LogError("Getting the descriptor failed");
 676              		.loc 1 242 0 discriminator 3
 677 0054 FFF7FEFF 		bl	xlogging_get_log_function
 678              	.LVL91:
 679 0058 041E     		subs	r4, r0, #0
 680              	.LVL92:
 681 005a 00D1     		bne	.LCB718
 682 005c EBE0     		b	.L54	@long jump
 683              	.LCB718:
 684              		.loc 1 242 0 is_stmt 0 discriminator 4
 685 005e 834B     		ldr	r3, .L64+12
 686 0060 0193     		str	r3, [sp, #4]
 687 0062 0123     		movs	r3, #1
 688 0064 0093     		str	r3, [sp]
 689 0066 F133     		adds	r3, r3, #241
 690 0068 7E4A     		ldr	r2, .L64+4
 691 006a 3432     		adds	r2, r2, #52
 692 006c 7E49     		ldr	r1, .L64+8
 693 006e 0020     		movs	r0, #0
 694              	.LVL93:
 695 0070 A047     		blx	r4
 696              	.LVL94:
 697              	.LBE9:
 243:Source\azure_iot_sdk\uamqp\src/amqp_frame_codec.c ****             result = __FAILURE__;
 698              		.loc 1 243 0 is_stmt 1 discriminator 4
 699 0072 F324     		movs	r4, #243
 700              	.LVL95:
 701 0074 EDE0     		b	.L39
 702              	.LVL96:
 703              	.L40:
 244:Source\azure_iot_sdk\uamqp\src/amqp_frame_codec.c ****         }
 245:Source\azure_iot_sdk\uamqp\src/amqp_frame_codec.c ****         else if (amqpvalue_get_ulong(descriptor, &performative_ulong) != 0)
 704              		.loc 1 245 0
 705 0076 0AA9     		add	r1, sp, #40
 706 0078 FFF7FEFF 		bl	amqpvalue_get_ulong
 707              	.LVL97:
 708 007c 0028     		cmp	r0, #0
ARM GAS  C:\Users\Phuong\AppData\Local\Temp\ccSP1btB.s 			page 18


 709 007e 10D0     		beq	.L42
 710              	.LBB10:
 246:Source\azure_iot_sdk\uamqp\src/amqp_frame_codec.c ****         {
 247:Source\azure_iot_sdk\uamqp\src/amqp_frame_codec.c ****             /* Codes_SRS_AMQP_FRAME_CODEC_01_029: [If any error occurs during encoding, amqp_frame_
 248:Source\azure_iot_sdk\uamqp\src/amqp_frame_codec.c ****             LogError("Getting the descriptor ulong failed");
 711              		.loc 1 248 0 discriminator 3
 712 0080 FFF7FEFF 		bl	xlogging_get_log_function
 713              	.LVL98:
 714 0084 041E     		subs	r4, r0, #0
 715              	.LVL99:
 716 0086 00D1     		bne	.LCB754
 717 0088 D7E0     		b	.L55	@long jump
 718              	.LCB754:
 719              		.loc 1 248 0 is_stmt 0 discriminator 4
 720 008a 794B     		ldr	r3, .L64+16
 721 008c 0193     		str	r3, [sp, #4]
 722 008e 0123     		movs	r3, #1
 723 0090 0093     		str	r3, [sp]
 724 0092 F733     		adds	r3, r3, #247
 725 0094 734A     		ldr	r2, .L64+4
 726 0096 3432     		adds	r2, r2, #52
 727 0098 7349     		ldr	r1, .L64+8
 728 009a 0020     		movs	r0, #0
 729              	.LVL100:
 730 009c A047     		blx	r4
 731              	.LVL101:
 732              	.LBE10:
 249:Source\azure_iot_sdk\uamqp\src/amqp_frame_codec.c ****             result = __FAILURE__;
 733              		.loc 1 249 0 is_stmt 1 discriminator 4
 734 009e F924     		movs	r4, #249
 735              	.LVL102:
 736 00a0 D7E0     		b	.L39
 737              	.LVL103:
 738              	.L42:
 250:Source\azure_iot_sdk\uamqp\src/amqp_frame_codec.c ****         }
 251:Source\azure_iot_sdk\uamqp\src/amqp_frame_codec.c ****         /* Codes_SRS_AMQP_FRAME_CODEC_01_008: [The performative MUST be one of those defined in sec
 252:Source\azure_iot_sdk\uamqp\src/amqp_frame_codec.c ****         else if ((performative_ulong < AMQP_OPEN) ||
 739              		.loc 1 252 0
 740 00a2 1022     		movs	r2, #16
 741 00a4 5242     		rsbs	r2, r2, #0
 742 00a6 D317     		asrs	r3, r2, #31
 743 00a8 0A98     		ldr	r0, [sp, #40]
 744 00aa 0B99     		ldr	r1, [sp, #44]
 745 00ac 1218     		adds	r2, r2, r0
 746 00ae 4B41     		adcs	r3, r3, r1
 747 00b0 002B     		cmp	r3, #0
 748 00b2 02D1     		bne	.L63
 749 00b4 18D1     		bne	.L43
 750 00b6 082A     		cmp	r2, #8
 751 00b8 16D9     		bls	.L43
 752              	.L63:
 753              	.LBB11:
 253:Source\azure_iot_sdk\uamqp\src/amqp_frame_codec.c ****             (performative_ulong > AMQP_CLOSE))
 254:Source\azure_iot_sdk\uamqp\src/amqp_frame_codec.c ****         {
 255:Source\azure_iot_sdk\uamqp\src/amqp_frame_codec.c ****             /* Codes_SRS_AMQP_FRAME_CODEC_01_029: [If any error occurs during encoding, amqp_frame_
 256:Source\azure_iot_sdk\uamqp\src/amqp_frame_codec.c ****             LogError("Bad arguments: amqp_frame_codec = %p, performative = %p, on_bytes_encoded = %
 754              		.loc 1 256 0 discriminator 3
ARM GAS  C:\Users\Phuong\AppData\Local\Temp\ccSP1btB.s 			page 19


 755 00ba FFF7FEFF 		bl	xlogging_get_log_function
 756              	.LVL104:
 757 00be 061E     		subs	r6, r0, #0
 758              	.LVL105:
 759 00c0 00D1     		bne	.LCB793
 760 00c2 BCE0     		b	.L56	@long jump
 761              	.LCB793:
 762              		.loc 1 256 0 is_stmt 0 discriminator 4
 763 00c4 159B     		ldr	r3, [sp, #84]
 764 00c6 0493     		str	r3, [sp, #16]
 765 00c8 0394     		str	r4, [sp, #12]
 766 00ca 0295     		str	r5, [sp, #8]
 767 00cc 644B     		ldr	r3, .L64
 768 00ce 0193     		str	r3, [sp, #4]
 769 00d0 0123     		movs	r3, #1
 770 00d2 0093     		str	r3, [sp]
 771 00d4 0223     		movs	r3, #2
 772 00d6 FF33     		adds	r3, r3, #255
 773 00d8 624A     		ldr	r2, .L64+4
 774 00da 3432     		adds	r2, r2, #52
 775 00dc 6249     		ldr	r1, .L64+8
 776 00de 0020     		movs	r0, #0
 777              	.LVL106:
 778 00e0 B047     		blx	r6
 779              	.LVL107:
 780              	.LBE11:
 257:Source\azure_iot_sdk\uamqp\src/amqp_frame_codec.c ****                 amqp_frame_codec, performative, on_bytes_encoded);
 258:Source\azure_iot_sdk\uamqp\src/amqp_frame_codec.c ****             result = __FAILURE__;
 781              		.loc 1 258 0 is_stmt 1 discriminator 4
 782 00e2 8124     		movs	r4, #129
 783              	.LVL108:
 784 00e4 6400     		lsls	r4, r4, #1
 785 00e6 B4E0     		b	.L39
 786              	.LVL109:
 787              	.L43:
 259:Source\azure_iot_sdk\uamqp\src/amqp_frame_codec.c ****         }
 260:Source\azure_iot_sdk\uamqp\src/amqp_frame_codec.c ****         /* Codes_SRS_AMQP_FRAME_CODEC_01_027: [The encoded size of the performative and its fields 
 261:Source\azure_iot_sdk\uamqp\src/amqp_frame_codec.c ****         else if (amqpvalue_get_encoded_size(performative, &encoded_size) != 0)
 788              		.loc 1 261 0
 789 00e8 09A9     		add	r1, sp, #36
 790 00ea 2000     		movs	r0, r4
 791 00ec FFF7FEFF 		bl	amqpvalue_get_encoded_size
 792              	.LVL110:
 793 00f0 0028     		cmp	r0, #0
 794 00f2 12D0     		beq	.L45
 795              	.LBB12:
 262:Source\azure_iot_sdk\uamqp\src/amqp_frame_codec.c ****         {
 263:Source\azure_iot_sdk\uamqp\src/amqp_frame_codec.c ****             /* Codes_SRS_AMQP_FRAME_CODEC_01_029: [If any error occurs during encoding, amqp_frame_
 264:Source\azure_iot_sdk\uamqp\src/amqp_frame_codec.c ****             LogError("Getting the encoded size failed");
 796              		.loc 1 264 0 discriminator 3
 797 00f4 FFF7FEFF 		bl	xlogging_get_log_function
 798              	.LVL111:
 799 00f8 041E     		subs	r4, r0, #0
 800              	.LVL112:
 801 00fa 00D1     		bne	.LCB835
 802 00fc A2E0     		b	.L57	@long jump
 803              	.LCB835:
ARM GAS  C:\Users\Phuong\AppData\Local\Temp\ccSP1btB.s 			page 20


 804              		.loc 1 264 0 is_stmt 0 discriminator 4
 805 00fe 5D4B     		ldr	r3, .L64+20
 806 0100 0193     		str	r3, [sp, #4]
 807 0102 0123     		movs	r3, #1
 808 0104 0093     		str	r3, [sp]
 809 0106 0833     		adds	r3, r3, #8
 810 0108 FF33     		adds	r3, r3, #255
 811 010a 564A     		ldr	r2, .L64+4
 812 010c 3432     		adds	r2, r2, #52
 813 010e 5649     		ldr	r1, .L64+8
 814 0110 0020     		movs	r0, #0
 815              	.LVL113:
 816 0112 A047     		blx	r4
 817              	.LVL114:
 818              	.LBE12:
 265:Source\azure_iot_sdk\uamqp\src/amqp_frame_codec.c ****             result = __FAILURE__;
 819              		.loc 1 265 0 is_stmt 1 discriminator 4
 820 0114 0A24     		movs	r4, #10
 821              	.LVL115:
 822 0116 FF34     		adds	r4, r4, #255
 823 0118 9BE0     		b	.L39
 824              	.LVL116:
 825              	.L45:
 826              	.LBB13:
 266:Source\azure_iot_sdk\uamqp\src/amqp_frame_codec.c ****         }
 267:Source\azure_iot_sdk\uamqp\src/amqp_frame_codec.c ****         else
 268:Source\azure_iot_sdk\uamqp\src/amqp_frame_codec.c ****         {
 269:Source\azure_iot_sdk\uamqp\src/amqp_frame_codec.c ****             unsigned char* amqp_performative_bytes = (unsigned char*)malloc(encoded_size);
 827              		.loc 1 269 0
 828 011a 0998     		ldr	r0, [sp, #36]
 829 011c FFF7FEFF 		bl	malloc
 830              	.LVL117:
 831 0120 8046     		mov	r8, r0
 832              	.LVL118:
 270:Source\azure_iot_sdk\uamqp\src/amqp_frame_codec.c ****             if (amqp_performative_bytes == NULL)
 833              		.loc 1 270 0
 834 0122 0028     		cmp	r0, #0
 835 0124 12D1     		bne	.L46
 836              	.LBB14:
 271:Source\azure_iot_sdk\uamqp\src/amqp_frame_codec.c ****             {
 272:Source\azure_iot_sdk\uamqp\src/amqp_frame_codec.c ****                 LogError("Could not allocate performative bytes");
 837              		.loc 1 272 0 discriminator 3
 838 0126 FFF7FEFF 		bl	xlogging_get_log_function
 839              	.LVL119:
 840 012a 041E     		subs	r4, r0, #0
 841              	.LVL120:
 842 012c 00D1     		bne	.LCB875
 843 012e 8CE0     		b	.L58	@long jump
 844              	.LCB875:
 845              		.loc 1 272 0 is_stmt 0 discriminator 4
 846 0130 514B     		ldr	r3, .L64+24
 847 0132 0193     		str	r3, [sp, #4]
 848 0134 0123     		movs	r3, #1
 849 0136 0093     		str	r3, [sp]
 850 0138 1033     		adds	r3, r3, #16
 851 013a FF33     		adds	r3, r3, #255
 852 013c 494A     		ldr	r2, .L64+4
ARM GAS  C:\Users\Phuong\AppData\Local\Temp\ccSP1btB.s 			page 21


 853 013e 3432     		adds	r2, r2, #52
 854 0140 4949     		ldr	r1, .L64+8
 855 0142 0020     		movs	r0, #0
 856              	.LVL121:
 857 0144 A047     		blx	r4
 858              	.LVL122:
 859              	.LBE14:
 273:Source\azure_iot_sdk\uamqp\src/amqp_frame_codec.c ****                 result = __FAILURE__;
 860              		.loc 1 273 0 is_stmt 1 discriminator 4
 861 0146 1224     		movs	r4, #18
 862              	.LVL123:
 863 0148 FF34     		adds	r4, r4, #255
 864 014a 82E0     		b	.L39
 865              	.LVL124:
 866              	.L46:
 867              	.LBB15:
 274:Source\azure_iot_sdk\uamqp\src/amqp_frame_codec.c ****             }
 275:Source\azure_iot_sdk\uamqp\src/amqp_frame_codec.c ****             else
 276:Source\azure_iot_sdk\uamqp\src/amqp_frame_codec.c ****             {
 277:Source\azure_iot_sdk\uamqp\src/amqp_frame_codec.c ****                 PAYLOAD* new_payloads = (PAYLOAD*)malloc(sizeof(PAYLOAD) * (payload_count + 1));
 868              		.loc 1 277 0
 869 014c 149B     		ldr	r3, [sp, #80]
 870 014e 0133     		adds	r3, r3, #1
 871 0150 9A46     		mov	r10, r3
 872 0152 D800     		lsls	r0, r3, #3
 873              	.LVL125:
 874 0154 FFF7FEFF 		bl	malloc
 875              	.LVL126:
 876 0158 071E     		subs	r7, r0, #0
 877              	.LVL127:
 278:Source\azure_iot_sdk\uamqp\src/amqp_frame_codec.c ****                 if (new_payloads == NULL)
 878              		.loc 1 278 0
 879 015a 11D1     		bne	.L47
 880              	.LBB16:
 279:Source\azure_iot_sdk\uamqp\src/amqp_frame_codec.c ****                 {
 280:Source\azure_iot_sdk\uamqp\src/amqp_frame_codec.c ****                     LogError("Could not allocate frame payloads");
 881              		.loc 1 280 0 discriminator 3
 882 015c FFF7FEFF 		bl	xlogging_get_log_function
 883              	.LVL128:
 884 0160 041E     		subs	r4, r0, #0
 885              	.LVL129:
 886 0162 62D0     		beq	.L59
 887              		.loc 1 280 0 is_stmt 0 discriminator 4
 888 0164 454B     		ldr	r3, .L64+28
 889 0166 0193     		str	r3, [sp, #4]
 890 0168 0123     		movs	r3, #1
 891 016a 0093     		str	r3, [sp]
 892 016c 1833     		adds	r3, r3, #24
 893 016e FF33     		adds	r3, r3, #255
 894 0170 3C4A     		ldr	r2, .L64+4
 895 0172 3432     		adds	r2, r2, #52
 896 0174 3C49     		ldr	r1, .L64+8
 897 0176 0020     		movs	r0, #0
 898              	.LVL130:
 899 0178 A047     		blx	r4
 900              	.LVL131:
 901              	.LBE16:
ARM GAS  C:\Users\Phuong\AppData\Local\Temp\ccSP1btB.s 			page 22


 281:Source\azure_iot_sdk\uamqp\src/amqp_frame_codec.c ****                     result = __FAILURE__;
 902              		.loc 1 281 0 is_stmt 1 discriminator 4
 903 017a 1A24     		movs	r4, #26
 904              	.LVL132:
 905 017c FF34     		adds	r4, r4, #255
 906 017e 56E0     		b	.L48
 907              	.LVL133:
 908              	.L47:
 282:Source\azure_iot_sdk\uamqp\src/amqp_frame_codec.c ****                 }
 283:Source\azure_iot_sdk\uamqp\src/amqp_frame_codec.c ****                 else
 284:Source\azure_iot_sdk\uamqp\src/amqp_frame_codec.c ****                 {
 285:Source\azure_iot_sdk\uamqp\src/amqp_frame_codec.c ****                     /* Codes_SRS_AMQP_FRAME_CODEC_01_070: [The payloads argument for frame_codec_en
 286:Source\azure_iot_sdk\uamqp\src/amqp_frame_codec.c ****                     /* Codes_SRS_AMQP_FRAME_CODEC_01_028: [The encode result for the performative s
 287:Source\azure_iot_sdk\uamqp\src/amqp_frame_codec.c ****                     new_payloads[0].bytes = amqp_performative_bytes;
 909              		.loc 1 287 0
 910 0180 4346     		mov	r3, r8
 911 0182 0360     		str	r3, [r0]
 288:Source\azure_iot_sdk\uamqp\src/amqp_frame_codec.c ****                     new_payloads[0].length = 0;
 912              		.loc 1 288 0
 913 0184 0023     		movs	r3, #0
 914 0186 4360     		str	r3, [r0, #4]
 289:Source\azure_iot_sdk\uamqp\src/amqp_frame_codec.c **** 
 290:Source\azure_iot_sdk\uamqp\src/amqp_frame_codec.c ****                     if (payload_count > 0)
 915              		.loc 1 290 0
 916 0188 149B     		ldr	r3, [sp, #80]
 917 018a 002B     		cmp	r3, #0
 918 018c 04D0     		beq	.L49
 291:Source\azure_iot_sdk\uamqp\src/amqp_frame_codec.c ****                     {
 292:Source\azure_iot_sdk\uamqp\src/amqp_frame_codec.c ****                         (void)memcpy(new_payloads + 1, payloads, sizeof(PAYLOAD) * payload_count);
 919              		.loc 1 292 0
 920 018e 0830     		adds	r0, r0, #8
 921              	.LVL134:
 922 0190 DA00     		lsls	r2, r3, #3
 923 0192 0799     		ldr	r1, [sp, #28]
 924 0194 FFF7FEFF 		bl	memcpy
 925              	.LVL135:
 926              	.L49:
 293:Source\azure_iot_sdk\uamqp\src/amqp_frame_codec.c ****                     }
 294:Source\azure_iot_sdk\uamqp\src/amqp_frame_codec.c **** 
 295:Source\azure_iot_sdk\uamqp\src/amqp_frame_codec.c ****                     if (amqpvalue_encode(performative, encode_bytes, &new_payloads[0]) != 0)
 927              		.loc 1 295 0
 928 0198 3A00     		movs	r2, r7
 929 019a 3949     		ldr	r1, .L64+32
 930 019c 2000     		movs	r0, r4
 931 019e FFF7FEFF 		bl	amqpvalue_encode
 932              	.LVL136:
 933 01a2 0028     		cmp	r0, #0
 934 01a4 11D0     		beq	.L50
 935              	.LBB17:
 296:Source\azure_iot_sdk\uamqp\src/amqp_frame_codec.c ****                     {
 297:Source\azure_iot_sdk\uamqp\src/amqp_frame_codec.c ****                         LogError("amqpvalue_encode failed");
 936              		.loc 1 297 0 discriminator 3
 937 01a6 FFF7FEFF 		bl	xlogging_get_log_function
 938              	.LVL137:
 939 01aa 041E     		subs	r4, r0, #0
 940              	.LVL138:
 941 01ac 37D0     		beq	.L60
ARM GAS  C:\Users\Phuong\AppData\Local\Temp\ccSP1btB.s 			page 23


 942              		.loc 1 297 0 is_stmt 0 discriminator 4
 943 01ae 354B     		ldr	r3, .L64+36
 944 01b0 0193     		str	r3, [sp, #4]
 945 01b2 0123     		movs	r3, #1
 946 01b4 0093     		str	r3, [sp]
 947 01b6 2A23     		movs	r3, #42
 948 01b8 FF33     		adds	r3, r3, #255
 949 01ba 2A4A     		ldr	r2, .L64+4
 950 01bc 3432     		adds	r2, r2, #52
 951 01be 2A49     		ldr	r1, .L64+8
 952 01c0 0020     		movs	r0, #0
 953              	.LVL139:
 954 01c2 A047     		blx	r4
 955              	.LVL140:
 956              	.LBE17:
 298:Source\azure_iot_sdk\uamqp\src/amqp_frame_codec.c ****                         result = __FAILURE__;
 957              		.loc 1 298 0 is_stmt 1 discriminator 4
 958 01c4 9524     		movs	r4, #149
 959              	.LVL141:
 960 01c6 6400     		lsls	r4, r4, #1
 961 01c8 2BE0     		b	.L51
 962              	.LVL142:
 963              	.L50:
 964              	.LBB18:
 299:Source\azure_iot_sdk\uamqp\src/amqp_frame_codec.c ****                     }
 300:Source\azure_iot_sdk\uamqp\src/amqp_frame_codec.c ****                     else
 301:Source\azure_iot_sdk\uamqp\src/amqp_frame_codec.c ****                     {
 302:Source\azure_iot_sdk\uamqp\src/amqp_frame_codec.c ****                         unsigned char channel_bytes[2];
 303:Source\azure_iot_sdk\uamqp\src/amqp_frame_codec.c **** 
 304:Source\azure_iot_sdk\uamqp\src/amqp_frame_codec.c ****                         channel_bytes[0] = channel >> 8;
 965              		.loc 1 304 0
 966 01ca 08AB     		add	r3, sp, #32
 967 01cc 320A     		lsrs	r2, r6, #8
 968 01ce 1A70     		strb	r2, [r3]
 305:Source\azure_iot_sdk\uamqp\src/amqp_frame_codec.c ****                         channel_bytes[1] = channel & 0xFF;
 969              		.loc 1 305 0
 970 01d0 5E70     		strb	r6, [r3, #1]
 306:Source\azure_iot_sdk\uamqp\src/amqp_frame_codec.c **** 
 307:Source\azure_iot_sdk\uamqp\src/amqp_frame_codec.c ****                         /* Codes_SRS_AMQP_FRAME_CODEC_01_005: [Bytes 6 and 7 of an AMQP frame conta
 308:Source\azure_iot_sdk\uamqp\src/amqp_frame_codec.c ****                         /* Codes_SRS_AMQP_FRAME_CODEC_01_025: [amqp_frame_codec_encode_frame shall 
 309:Source\azure_iot_sdk\uamqp\src/amqp_frame_codec.c ****                         /* Codes_SRS_AMQP_FRAME_CODEC_01_006: [The frame body is defined as a perfo
 310:Source\azure_iot_sdk\uamqp\src/amqp_frame_codec.c ****                         if (frame_codec_encode_frame(amqp_frame_codec->frame_codec, FRAME_TYPE_AMQP
 971              		.loc 1 310 0
 972 01d2 2868     		ldr	r0, [r5]
 973 01d4 169A     		ldr	r2, [sp, #88]
 974 01d6 0392     		str	r2, [sp, #12]
 975 01d8 159A     		ldr	r2, [sp, #84]
 976 01da 0292     		str	r2, [sp, #8]
 977 01dc 0222     		movs	r2, #2
 978 01de 0192     		str	r2, [sp, #4]
 979 01e0 0093     		str	r3, [sp]
 980 01e2 5346     		mov	r3, r10
 981 01e4 3A00     		movs	r2, r7
 982 01e6 0021     		movs	r1, #0
 983 01e8 FFF7FEFF 		bl	frame_codec_encode_frame
 984              	.LVL143:
 985 01ec 0028     		cmp	r0, #0
ARM GAS  C:\Users\Phuong\AppData\Local\Temp\ccSP1btB.s 			page 24


 986 01ee 11D0     		beq	.L61
 987              	.LBB19:
 311:Source\azure_iot_sdk\uamqp\src/amqp_frame_codec.c ****                         {
 312:Source\azure_iot_sdk\uamqp\src/amqp_frame_codec.c ****                             /* Codes_SRS_AMQP_FRAME_CODEC_01_029: [If any error occurs during encod
 313:Source\azure_iot_sdk\uamqp\src/amqp_frame_codec.c ****                             LogError("frame_codec_encode_frame failed");
 988              		.loc 1 313 0 discriminator 3
 989 01f0 FFF7FEFF 		bl	xlogging_get_log_function
 990              	.LVL144:
 991 01f4 041E     		subs	r4, r0, #0
 992              	.LVL145:
 993 01f6 0FD0     		beq	.L62
 994              		.loc 1 313 0 is_stmt 0 discriminator 4
 995 01f8 234B     		ldr	r3, .L64+40
 996 01fa 0193     		str	r3, [sp, #4]
 997 01fc 0123     		movs	r3, #1
 998 01fe 0093     		str	r3, [sp]
 999 0200 3A23     		movs	r3, #58
 1000 0202 FF33     		adds	r3, r3, #255
 1001 0204 174A     		ldr	r2, .L64+4
 1002 0206 3432     		adds	r2, r2, #52
 1003 0208 1749     		ldr	r1, .L64+8
 1004 020a 0020     		movs	r0, #0
 1005              	.LVL146:
 1006 020c A047     		blx	r4
 1007              	.LVL147:
 1008              	.LBE19:
 314:Source\azure_iot_sdk\uamqp\src/amqp_frame_codec.c ****                             result = __FAILURE__;
 1009              		.loc 1 314 0 is_stmt 1 discriminator 4
 1010 020e 9D24     		movs	r4, #157
 1011              	.LVL148:
 1012 0210 6400     		lsls	r4, r4, #1
 1013 0212 06E0     		b	.L51
 1014              	.LVL149:
 1015              	.L61:
 315:Source\azure_iot_sdk\uamqp\src/amqp_frame_codec.c ****                         }
 316:Source\azure_iot_sdk\uamqp\src/amqp_frame_codec.c ****                         else
 317:Source\azure_iot_sdk\uamqp\src/amqp_frame_codec.c ****                         {
 318:Source\azure_iot_sdk\uamqp\src/amqp_frame_codec.c ****                             /* Codes_SRS_AMQP_FRAME_CODEC_01_022: [amqp_frame_codec_begin_encode_fr
 319:Source\azure_iot_sdk\uamqp\src/amqp_frame_codec.c ****                             result = 0;
 1016              		.loc 1 319 0
 1017 0214 0024     		movs	r4, #0
 1018              	.LVL150:
 1019 0216 04E0     		b	.L51
 1020              	.LVL151:
 1021              	.L62:
 314:Source\azure_iot_sdk\uamqp\src/amqp_frame_codec.c ****                             result = __FAILURE__;
 1022              		.loc 1 314 0
 1023 0218 9D24     		movs	r4, #157
 1024 021a 6400     		lsls	r4, r4, #1
 1025              	.LVL152:
 1026 021c 01E0     		b	.L51
 1027              	.LVL153:
 1028              	.L60:
 1029              	.LBE18:
 298:Source\azure_iot_sdk\uamqp\src/amqp_frame_codec.c ****                     }
 1030              		.loc 1 298 0
 1031 021e 9524     		movs	r4, #149
ARM GAS  C:\Users\Phuong\AppData\Local\Temp\ccSP1btB.s 			page 25


 1032 0220 6400     		lsls	r4, r4, #1
 1033              	.LVL154:
 1034              	.L51:
 320:Source\azure_iot_sdk\uamqp\src/amqp_frame_codec.c ****                         }
 321:Source\azure_iot_sdk\uamqp\src/amqp_frame_codec.c ****                     }
 322:Source\azure_iot_sdk\uamqp\src/amqp_frame_codec.c **** 
 323:Source\azure_iot_sdk\uamqp\src/amqp_frame_codec.c ****                     free(new_payloads);
 1035              		.loc 1 323 0
 1036 0222 3800     		movs	r0, r7
 1037 0224 FFF7FEFF 		bl	free
 1038              	.LVL155:
 1039 0228 01E0     		b	.L48
 1040              	.LVL156:
 1041              	.L59:
 281:Source\azure_iot_sdk\uamqp\src/amqp_frame_codec.c ****                 }
 1042              		.loc 1 281 0
 1043 022a 1A24     		movs	r4, #26
 1044 022c FF34     		adds	r4, r4, #255
 1045              	.LVL157:
 1046              	.L48:
 324:Source\azure_iot_sdk\uamqp\src/amqp_frame_codec.c ****                 }
 325:Source\azure_iot_sdk\uamqp\src/amqp_frame_codec.c **** 
 326:Source\azure_iot_sdk\uamqp\src/amqp_frame_codec.c ****                 free(amqp_performative_bytes);
 1047              		.loc 1 326 0
 1048 022e 4046     		mov	r0, r8
 1049 0230 FFF7FEFF 		bl	free
 1050              	.LVL158:
 1051 0234 0DE0     		b	.L39
 1052              	.LVL159:
 1053              	.L54:
 1054              	.LBE15:
 1055              	.LBE13:
 243:Source\azure_iot_sdk\uamqp\src/amqp_frame_codec.c ****         }
 1056              		.loc 1 243 0
 1057 0236 F324     		movs	r4, #243
 1058 0238 0BE0     		b	.L39
 1059              	.LVL160:
 1060              	.L55:
 249:Source\azure_iot_sdk\uamqp\src/amqp_frame_codec.c ****         }
 1061              		.loc 1 249 0
 1062 023a F924     		movs	r4, #249
 1063 023c 09E0     		b	.L39
 1064              	.LVL161:
 1065              	.L56:
 258:Source\azure_iot_sdk\uamqp\src/amqp_frame_codec.c ****         }
 1066              		.loc 1 258 0
 1067 023e 8124     		movs	r4, #129
 1068              	.LVL162:
 1069 0240 6400     		lsls	r4, r4, #1
 1070 0242 06E0     		b	.L39
 1071              	.LVL163:
 1072              	.L57:
 265:Source\azure_iot_sdk\uamqp\src/amqp_frame_codec.c ****         }
 1073              		.loc 1 265 0
 1074 0244 0A24     		movs	r4, #10
 1075 0246 FF34     		adds	r4, r4, #255
 1076 0248 03E0     		b	.L39
ARM GAS  C:\Users\Phuong\AppData\Local\Temp\ccSP1btB.s 			page 26


 1077              	.LVL164:
 1078              	.L58:
 1079              	.LBB20:
 273:Source\azure_iot_sdk\uamqp\src/amqp_frame_codec.c ****             }
 1080              		.loc 1 273 0
 1081 024a 1224     		movs	r4, #18
 1082 024c FF34     		adds	r4, r4, #255
 1083              	.LVL165:
 1084 024e 00E0     		b	.L39
 1085              	.LVL166:
 1086              	.L53:
 1087              	.LBE20:
 1088              	.LBE8:
 231:Source\azure_iot_sdk\uamqp\src/amqp_frame_codec.c ****     }
 1089              		.loc 1 231 0
 1090 0250 E724     		movs	r4, #231
 1091              	.LVL167:
 1092              	.L39:
 327:Source\azure_iot_sdk\uamqp\src/amqp_frame_codec.c ****             }
 328:Source\azure_iot_sdk\uamqp\src/amqp_frame_codec.c ****         }
 329:Source\azure_iot_sdk\uamqp\src/amqp_frame_codec.c ****     }
 330:Source\azure_iot_sdk\uamqp\src/amqp_frame_codec.c **** 
 331:Source\azure_iot_sdk\uamqp\src/amqp_frame_codec.c ****     return result;
 332:Source\azure_iot_sdk\uamqp\src/amqp_frame_codec.c **** }
 1093              		.loc 1 332 0
 1094 0252 2000     		movs	r0, r4
 1095 0254 0DB0     		add	sp, sp, #52
 1096              		@ sp needed
 1097              	.LVL168:
 1098              	.LVL169:
 1099 0256 0CBC     		pop	{r2, r3}
 1100 0258 9046     		mov	r8, r2
 1101 025a 9A46     		mov	r10, r3
 1102 025c F0BD     		pop	{r4, r5, r6, r7, pc}
 1103              	.L65:
 1104 025e C046     		.align	2
 1105              	.L64:
 1106 0260 54010000 		.word	.LC19
 1107 0264 00000000 		.word	.LANCHOR0
 1108 0268 00000000 		.word	.LC1
 1109 026c A4010000 		.word	.LC21
 1110 0270 C4010000 		.word	.LC23
 1111 0274 E8010000 		.word	.LC25
 1112 0278 08020000 		.word	.LC27
 1113 027c 30020000 		.word	.LC29
 1114 0280 00000000 		.word	encode_bytes
 1115 0284 54020000 		.word	.LC32
 1116 0288 6C020000 		.word	.LC34
 1117              		.cfi_endproc
 1118              	.LFE6:
 1119              		.size	amqp_frame_codec_encode_frame, .-amqp_frame_codec_encode_frame
 1120              		.section	.text.amqp_frame_codec_encode_empty_frame,"ax",%progbits
 1121              		.align	2
 1122              		.global	amqp_frame_codec_encode_empty_frame
 1123              		.code	16
 1124              		.thumb_func
 1125              		.type	amqp_frame_codec_encode_empty_frame, %function
ARM GAS  C:\Users\Phuong\AppData\Local\Temp\ccSP1btB.s 			page 27


 1126              	amqp_frame_codec_encode_empty_frame:
 1127              	.LFB7:
 333:Source\azure_iot_sdk\uamqp\src/amqp_frame_codec.c **** 
 334:Source\azure_iot_sdk\uamqp\src/amqp_frame_codec.c **** /* Codes_SRS_AMQP_FRAME_CODEC_01_042: [amqp_frame_codec_encode_empty_frame shall encode a frame wit
 335:Source\azure_iot_sdk\uamqp\src/amqp_frame_codec.c **** /* Codes_SRS_AMQP_FRAME_CODEC_01_010: [An AMQP frame with no body MAY be used to generate artificia
 336:Source\azure_iot_sdk\uamqp\src/amqp_frame_codec.c **** int amqp_frame_codec_encode_empty_frame(AMQP_FRAME_CODEC_HANDLE amqp_frame_codec, uint16_t channel,
 337:Source\azure_iot_sdk\uamqp\src/amqp_frame_codec.c **** {
 1128              		.loc 1 337 0
 1129              		.cfi_startproc
 1130              		@ args = 0, pretend = 0, frame = 8
 1131              		@ frame_needed = 0, uses_anonymous_args = 0
 1132              	.LVL170:
 1133 0000 30B5     		push	{r4, r5, lr}
 1134              		.cfi_def_cfa_offset 12
 1135              		.cfi_offset 4, -12
 1136              		.cfi_offset 5, -8
 1137              		.cfi_offset 14, -4
 1138 0002 87B0     		sub	sp, sp, #28
 1139              		.cfi_def_cfa_offset 40
 338:Source\azure_iot_sdk\uamqp\src/amqp_frame_codec.c ****     int result;
 339:Source\azure_iot_sdk\uamqp\src/amqp_frame_codec.c **** 
 340:Source\azure_iot_sdk\uamqp\src/amqp_frame_codec.c ****     /* Codes_SRS_AMQP_FRAME_CODEC_01_045: [If amqp_frame_codec is NULL, amqp_frame_codec_encode_emp
 341:Source\azure_iot_sdk\uamqp\src/amqp_frame_codec.c ****     if (amqp_frame_codec == NULL)
 1140              		.loc 1 341 0
 1141 0004 0028     		cmp	r0, #0
 1142 0006 11D1     		bne	.L67
 1143              	.LBB21:
 342:Source\azure_iot_sdk\uamqp\src/amqp_frame_codec.c ****     {
 343:Source\azure_iot_sdk\uamqp\src/amqp_frame_codec.c ****         LogError("NULL amqp_frame_codec");
 1144              		.loc 1 343 0 discriminator 3
 1145 0008 FFF7FEFF 		bl	xlogging_get_log_function
 1146              	.LVL171:
 1147 000c 041E     		subs	r4, r0, #0
 1148              	.LVL172:
 1149 000e 35D0     		beq	.L70
 1150              		.loc 1 343 0 is_stmt 0 discriminator 4
 1151 0010 1C4B     		ldr	r3, .L73
 1152 0012 0193     		str	r3, [sp, #4]
 1153 0014 0123     		movs	r3, #1
 1154 0016 0093     		str	r3, [sp]
 1155 0018 5823     		movs	r3, #88
 1156 001a FF33     		adds	r3, r3, #255
 1157 001c 1A4A     		ldr	r2, .L73+4
 1158 001e 5432     		adds	r2, r2, #84
 1159 0020 1A49     		ldr	r1, .L73+8
 1160 0022 0020     		movs	r0, #0
 1161              	.LVL173:
 1162 0024 A047     		blx	r4
 1163              	.LVL174:
 1164              	.LBE21:
 344:Source\azure_iot_sdk\uamqp\src/amqp_frame_codec.c ****         result = __FAILURE__;
 1165              		.loc 1 344 0 is_stmt 1 discriminator 4
 1166 0026 AC20     		movs	r0, #172
 1167 0028 4000     		lsls	r0, r0, #1
 1168 002a 29E0     		b	.L68
 1169              	.LVL175:
 1170              	.L67:
ARM GAS  C:\Users\Phuong\AppData\Local\Temp\ccSP1btB.s 			page 28


 1171              	.LBB22:
 345:Source\azure_iot_sdk\uamqp\src/amqp_frame_codec.c ****     }
 346:Source\azure_iot_sdk\uamqp\src/amqp_frame_codec.c ****     else
 347:Source\azure_iot_sdk\uamqp\src/amqp_frame_codec.c ****     {
 348:Source\azure_iot_sdk\uamqp\src/amqp_frame_codec.c ****         unsigned char channel_bytes[2];
 349:Source\azure_iot_sdk\uamqp\src/amqp_frame_codec.c **** 
 350:Source\azure_iot_sdk\uamqp\src/amqp_frame_codec.c ****         channel_bytes[0] = channel >> 8;
 1172              		.loc 1 350 0
 1173 002c 05AC     		add	r4, sp, #20
 1174 002e 0D0A     		lsrs	r5, r1, #8
 1175 0030 2570     		strb	r5, [r4]
 351:Source\azure_iot_sdk\uamqp\src/amqp_frame_codec.c ****         channel_bytes[1] = channel & 0xFF;
 1176              		.loc 1 351 0
 1177 0032 6170     		strb	r1, [r4, #1]
 352:Source\azure_iot_sdk\uamqp\src/amqp_frame_codec.c **** 
 353:Source\azure_iot_sdk\uamqp\src/amqp_frame_codec.c ****         /* Codes_SRS_AMQP_FRAME_CODEC_01_044: [amqp_frame_codec_encode_empty_frame shall use frame_
 354:Source\azure_iot_sdk\uamqp\src/amqp_frame_codec.c ****         if (frame_codec_encode_frame(amqp_frame_codec->frame_codec, FRAME_TYPE_AMQP, NULL, 0, chann
 1178              		.loc 1 354 0
 1179 0034 0068     		ldr	r0, [r0]
 1180              	.LVL176:
 1181 0036 0393     		str	r3, [sp, #12]
 1182 0038 0292     		str	r2, [sp, #8]
 1183 003a 0223     		movs	r3, #2
 1184              	.LVL177:
 1185 003c 0193     		str	r3, [sp, #4]
 1186 003e 0094     		str	r4, [sp]
 1187 0040 0023     		movs	r3, #0
 1188 0042 0022     		movs	r2, #0
 1189              	.LVL178:
 1190 0044 0021     		movs	r1, #0
 1191              	.LVL179:
 1192 0046 FFF7FEFF 		bl	frame_codec_encode_frame
 1193              	.LVL180:
 1194 004a 0028     		cmp	r0, #0
 1195 004c 11D0     		beq	.L71
 1196              	.LBB23:
 355:Source\azure_iot_sdk\uamqp\src/amqp_frame_codec.c ****         {
 356:Source\azure_iot_sdk\uamqp\src/amqp_frame_codec.c ****             /* Codes_SRS_AMQP_FRAME_CODEC_01_046: [If encoding fails in any way, amqp_frame_codec_e
 357:Source\azure_iot_sdk\uamqp\src/amqp_frame_codec.c ****             LogError("frame_codec_encode_frame failed when encoding empty frame");
 1197              		.loc 1 357 0 discriminator 3
 1198 004e FFF7FEFF 		bl	xlogging_get_log_function
 1199              	.LVL181:
 1200 0052 041E     		subs	r4, r0, #0
 1201              	.LVL182:
 1202 0054 0FD0     		beq	.L72
 1203              		.loc 1 357 0 is_stmt 0 discriminator 4
 1204 0056 0E4B     		ldr	r3, .L73+12
 1205 0058 0193     		str	r3, [sp, #4]
 1206 005a 0123     		movs	r3, #1
 1207 005c 0093     		str	r3, [sp]
 1208 005e 6623     		movs	r3, #102
 1209 0060 FF33     		adds	r3, r3, #255
 1210 0062 094A     		ldr	r2, .L73+4
 1211 0064 5432     		adds	r2, r2, #84
 1212 0066 0949     		ldr	r1, .L73+8
 1213 0068 0020     		movs	r0, #0
 1214              	.LVL183:
ARM GAS  C:\Users\Phuong\AppData\Local\Temp\ccSP1btB.s 			page 29


 1215 006a A047     		blx	r4
 1216              	.LVL184:
 1217              	.LBE23:
 358:Source\azure_iot_sdk\uamqp\src/amqp_frame_codec.c ****             result = __FAILURE__;
 1218              		.loc 1 358 0 is_stmt 1 discriminator 4
 1219 006c B320     		movs	r0, #179
 1220 006e 4000     		lsls	r0, r0, #1
 1221 0070 06E0     		b	.L68
 1222              	.LVL185:
 1223              	.L71:
 359:Source\azure_iot_sdk\uamqp\src/amqp_frame_codec.c ****         }
 360:Source\azure_iot_sdk\uamqp\src/amqp_frame_codec.c ****         else
 361:Source\azure_iot_sdk\uamqp\src/amqp_frame_codec.c ****         {
 362:Source\azure_iot_sdk\uamqp\src/amqp_frame_codec.c ****             /* Codes_SRS_AMQP_FRAME_CODEC_01_043: [On success, amqp_frame_codec_encode_empty_frame 
 363:Source\azure_iot_sdk\uamqp\src/amqp_frame_codec.c ****             result = 0;
 1224              		.loc 1 363 0
 1225 0072 0020     		movs	r0, #0
 1226 0074 04E0     		b	.L68
 1227              	.LVL186:
 1228              	.L72:
 358:Source\azure_iot_sdk\uamqp\src/amqp_frame_codec.c ****             result = __FAILURE__;
 1229              		.loc 1 358 0
 1230 0076 B320     		movs	r0, #179
 1231              	.LVL187:
 1232 0078 4000     		lsls	r0, r0, #1
 1233              	.LVL188:
 1234 007a 01E0     		b	.L68
 1235              	.LVL189:
 1236              	.L70:
 1237              	.LBE22:
 344:Source\azure_iot_sdk\uamqp\src/amqp_frame_codec.c ****     }
 1238              		.loc 1 344 0
 1239 007c AC20     		movs	r0, #172
 1240              	.LVL190:
 1241 007e 4000     		lsls	r0, r0, #1
 1242              	.LVL191:
 1243              	.L68:
 364:Source\azure_iot_sdk\uamqp\src/amqp_frame_codec.c ****         }
 365:Source\azure_iot_sdk\uamqp\src/amqp_frame_codec.c ****     }
 366:Source\azure_iot_sdk\uamqp\src/amqp_frame_codec.c **** 
 367:Source\azure_iot_sdk\uamqp\src/amqp_frame_codec.c ****     return result;
 368:Source\azure_iot_sdk\uamqp\src/amqp_frame_codec.c **** }
 1244              		.loc 1 368 0
 1245 0080 07B0     		add	sp, sp, #28
 1246              		@ sp needed
 1247 0082 30BD     		pop	{r4, r5, pc}
 1248              	.L74:
 1249              		.align	2
 1250              	.L73:
 1251 0084 3C010000 		.word	.LC15
 1252 0088 00000000 		.word	.LANCHOR0
 1253 008c 00000000 		.word	.LC1
 1254 0090 8C020000 		.word	.LC39
 1255              		.cfi_endproc
 1256              	.LFE7:
 1257              		.size	amqp_frame_codec_encode_empty_frame, .-amqp_frame_codec_encode_empty_frame
 1258              		.section	.rodata
ARM GAS  C:\Users\Phuong\AppData\Local\Temp\ccSP1btB.s 			page 30


 1259              		.align	2
 1260              		.set	.LANCHOR0,. + 0
 1261              		.type	__func__.6222, %object
 1262              		.size	__func__.6222, 24
 1263              	__func__.6222:
 1264 0000 616D7170 		.ascii	"amqp_frame_codec_create\000"
 1264      5F667261 
 1264      6D655F63 
 1264      6F646563 
 1264      5F637265 
 1265              		.type	__func__.6238, %object
 1266              		.size	__func__.6238, 25
 1267              	__func__.6238:
 1268 0018 616D7170 		.ascii	"amqp_frame_codec_destroy\000"
 1268      5F667261 
 1268      6D655F63 
 1268      6F646563 
 1268      5F646573 
 1269 0031 000000   		.space	3
 1270              		.type	__func__.6252, %object
 1271              		.size	__func__.6252, 30
 1272              	__func__.6252:
 1273 0034 616D7170 		.ascii	"amqp_frame_codec_encode_frame\000"
 1273      5F667261 
 1273      6D655F63 
 1273      6F646563 
 1273      5F656E63 
 1274 0052 0000     		.space	2
 1275              		.type	__func__.6293, %object
 1276              		.size	__func__.6293, 36
 1277              	__func__.6293:
 1278 0054 616D7170 		.ascii	"amqp_frame_codec_encode_empty_frame\000"
 1278      5F667261 
 1278      6D655F63 
 1278      6F646563 
 1278      5F656E63 
 1279              		.section	.rodata.str1.4,"aMS",%progbits,1
 1280              		.align	2
 1281              	.LC1:
 1282 0000 536F7572 		.ascii	"Source\\azure_iot_sdk\\uamqp\\src\\amqp_frame_codec"
 1282      63655C61 
 1282      7A757265 
 1282      5F696F74 
 1282      5F73646B 
 1283 002f 2E6300   		.ascii	".c\000"
 1284 0032 0000     		.space	2
 1285              	.LC3:
 1286 0034 42616420 		.ascii	"Bad arguments: frame_codec = %p, frame_received_cal"
 1286      61726775 
 1286      6D656E74 
 1286      733A2066 
 1286      72616D65 
 1287 0067 6C626163 		.ascii	"lback = %p, empty_frame_received_callback = %p, amq"
 1287      6B203D20 
 1287      25702C20 
 1287      656D7074 
 1287      795F6672 
ARM GAS  C:\Users\Phuong\AppData\Local\Temp\ccSP1btB.s 			page 31


 1288 009a 705F6672 		.ascii	"p_frame_codec_error_callback = %p\000"
 1288      616D655F 
 1288      636F6465 
 1288      635F6572 
 1288      726F725F 
 1289              	.LC5:
 1290 00bc 436F756C 		.ascii	"Could not allocate memory for AMQP frame codec\000"
 1290      64206E6F 
 1290      7420616C 
 1290      6C6F6361 
 1290      7465206D 
 1291 00eb 00       		.space	1
 1292              	.LC8:
 1293 00ec 436F756C 		.ascii	"Could not create AMQP decoder\000"
 1293      64206E6F 
 1293      74206372 
 1293      65617465 
 1293      20414D51 
 1294 010a 0000     		.space	2
 1295              	.LC11:
 1296 010c 436F756C 		.ascii	"Could not subscribe for received AMQP frames\000"
 1296      64206E6F 
 1296      74207375 
 1296      62736372 
 1296      69626520 
 1297 0139 000000   		.space	3
 1298              	.LC15:
 1299 013c 4E554C4C 		.ascii	"NULL amqp_frame_codec\000"
 1299      20616D71 
 1299      705F6672 
 1299      616D655F 
 1299      636F6465 
 1300 0152 0000     		.space	2
 1301              	.LC19:
 1302 0154 42616420 		.ascii	"Bad arguments: amqp_frame_codec = %p, performative "
 1302      61726775 
 1302      6D656E74 
 1302      733A2061 
 1302      6D71705F 
 1303 0187 3D202570 		.ascii	"= %p, on_bytes_encoded = %p\000"
 1303      2C206F6E 
 1303      5F627974 
 1303      65735F65 
 1303      6E636F64 
 1304 01a3 00       		.space	1
 1305              	.LC21:
 1306 01a4 47657474 		.ascii	"Getting the descriptor failed\000"
 1306      696E6720 
 1306      74686520 
 1306      64657363 
 1306      72697074 
 1307 01c2 0000     		.space	2
 1308              	.LC23:
 1309 01c4 47657474 		.ascii	"Getting the descriptor ulong failed\000"
 1309      696E6720 
 1309      74686520 
 1309      64657363 
ARM GAS  C:\Users\Phuong\AppData\Local\Temp\ccSP1btB.s 			page 32


 1309      72697074 
 1310              	.LC25:
 1311 01e8 47657474 		.ascii	"Getting the encoded size failed\000"
 1311      696E6720 
 1311      74686520 
 1311      656E636F 
 1311      64656420 
 1312              	.LC27:
 1313 0208 436F756C 		.ascii	"Could not allocate performative bytes\000"
 1313      64206E6F 
 1313      7420616C 
 1313      6C6F6361 
 1313      74652070 
 1314 022e 0000     		.space	2
 1315              	.LC29:
 1316 0230 436F756C 		.ascii	"Could not allocate frame payloads\000"
 1316      64206E6F 
 1316      7420616C 
 1316      6C6F6361 
 1316      74652066 
 1317 0252 0000     		.space	2
 1318              	.LC32:
 1319 0254 616D7170 		.ascii	"amqpvalue_encode failed\000"
 1319      76616C75 
 1319      655F656E 
 1319      636F6465 
 1319      20666169 
 1320              	.LC34:
 1321 026c 6672616D 		.ascii	"frame_codec_encode_frame failed\000"
 1321      655F636F 
 1321      6465635F 
 1321      656E636F 
 1321      64655F66 
 1322              	.LC39:
 1323 028c 6672616D 		.ascii	"frame_codec_encode_frame failed when encoding empty"
 1323      655F636F 
 1323      6465635F 
 1323      656E636F 
 1323      64655F66 
 1324 02bf 20667261 		.ascii	" frame\000"
 1324      6D6500
 1325              		.text
 1326              	.Letext0:
 1327              		.file 2 "c:\\program files (x86)\\cypress\\psoc creator\\4.2\\psoc creator\\import\\gnu\\arm\\5.4.
 1328              		.file 3 "c:\\program files (x86)\\cypress\\psoc creator\\4.2\\psoc creator\\import\\gnu\\arm\\5.4.
 1329              		.file 4 "c:\\program files (x86)\\cypress\\psoc creator\\4.2\\psoc creator\\import\\gnu\\arm\\5.4.
 1330              		.file 5 ".\\Source\\azure_iot_sdk\\c-utility\\inc/azure_c_shared_utility/xlogging.h"
 1331              		.file 6 ".\\Source\\azure_iot_sdk\\uamqp\\inc/azure_uamqp_c/amqpvalue.h"
 1332              		.file 7 ".\\Source\\azure_iot_sdk\\uamqp\\inc/azure_uamqp_c/frame_codec.h"
 1333              		.file 8 ".\\Source\\azure_iot_sdk\\uamqp\\inc/azure_uamqp_c/amqp_frame_codec.h"
 1334              		.file 9 "c:\\program files (x86)\\cypress\\psoc creator\\4.2\\psoc creator\\import\\gnu\\arm\\5.4.