ARM GAS  C:\Users\Phuong\AppData\Local\Temp\ccU7OqD6.s 			page 1


   1              		.syntax unified
   2              		.cpu cortex-m0plus
   3              		.fpu softvfp
   4              		.eabi_attribute 20, 1
   5              		.eabi_attribute 21, 1
   6              		.eabi_attribute 23, 3
   7              		.eabi_attribute 24, 1
   8              		.eabi_attribute 25, 1
   9              		.eabi_attribute 26, 1
  10              		.eabi_attribute 30, 1
  11              		.eabi_attribute 34, 0
  12              		.eabi_attribute 18, 4
  13              		.thumb
  14              		.syntax unified
  15              		.file	"amqpvalue_to_string.c"
  16              		.text
  17              	.Ltext0:
  18              		.cfi_sections	.debug_frame
  19              		.section	.text.string_concat,"ax",%progbits
  20              		.align	2
  21              		.code	16
  22              		.thumb_func
  23              		.type	string_concat, %function
  24              	string_concat:
  25              	.LFB1:
  26              		.file 1 "Source\\azure_iot_sdk\\uamqp\\src\\amqpvalue_to_string.c"
   1:Source\azure_iot_sdk\uamqp\src/amqpvalue_to_string.c **** // Copyright (c) Microsoft. All rights reserved.
   2:Source\azure_iot_sdk\uamqp\src/amqpvalue_to_string.c **** // Licensed under the MIT license. See LICENSE file in the project root for full license informatio
   3:Source\azure_iot_sdk\uamqp\src/amqpvalue_to_string.c **** 
   4:Source\azure_iot_sdk\uamqp\src/amqpvalue_to_string.c **** #include <stdlib.h>
   5:Source\azure_iot_sdk\uamqp\src/amqpvalue_to_string.c **** #include <stdint.h>
   6:Source\azure_iot_sdk\uamqp\src/amqpvalue_to_string.c **** #include <inttypes.h>
   7:Source\azure_iot_sdk\uamqp\src/amqpvalue_to_string.c **** #include <stddef.h>
   8:Source\azure_iot_sdk\uamqp\src/amqpvalue_to_string.c **** #include <string.h>
   9:Source\azure_iot_sdk\uamqp\src/amqpvalue_to_string.c **** #include <stdio.h>
  10:Source\azure_iot_sdk\uamqp\src/amqpvalue_to_string.c **** #include "azure_c_shared_utility/optimize_size.h"
  11:Source\azure_iot_sdk\uamqp\src/amqpvalue_to_string.c **** #include "azure_c_shared_utility/gballoc.h"
  12:Source\azure_iot_sdk\uamqp\src/amqpvalue_to_string.c **** #include "azure_c_shared_utility/xlogging.h"
  13:Source\azure_iot_sdk\uamqp\src/amqpvalue_to_string.c **** #include "azure_c_shared_utility/uuid.h"
  14:Source\azure_iot_sdk\uamqp\src/amqpvalue_to_string.c **** #include "azure_uamqp_c/amqpvalue_to_string.h"
  15:Source\azure_iot_sdk\uamqp\src/amqpvalue_to_string.c **** #include "azure_uamqp_c/amqpvalue.h"
  16:Source\azure_iot_sdk\uamqp\src/amqpvalue_to_string.c **** 
  17:Source\azure_iot_sdk\uamqp\src/amqpvalue_to_string.c **** #if _WIN32
  18:Source\azure_iot_sdk\uamqp\src/amqpvalue_to_string.c **** /* The MS runtime does not have snprintf */
  19:Source\azure_iot_sdk\uamqp\src/amqpvalue_to_string.c **** #define snprintf _snprintf
  20:Source\azure_iot_sdk\uamqp\src/amqpvalue_to_string.c **** #endif
  21:Source\azure_iot_sdk\uamqp\src/amqpvalue_to_string.c **** 
  22:Source\azure_iot_sdk\uamqp\src/amqpvalue_to_string.c **** static int string_concat(char** string, const char* to_concat)
  23:Source\azure_iot_sdk\uamqp\src/amqpvalue_to_string.c **** {
  27              		.loc 1 23 0
  28              		.cfi_startproc
  29              		@ args = 0, pretend = 0, frame = 8
  30              		@ frame_needed = 0, uses_anonymous_args = 0
  31              	.LVL0:
  32 0000 F0B5     		push	{r4, r5, r6, r7, lr}
  33              		.cfi_def_cfa_offset 20
  34              		.cfi_offset 4, -20
ARM GAS  C:\Users\Phuong\AppData\Local\Temp\ccU7OqD6.s 			page 2


  35              		.cfi_offset 5, -16
  36              		.cfi_offset 6, -12
  37              		.cfi_offset 7, -8
  38              		.cfi_offset 14, -4
  39 0002 85B0     		sub	sp, sp, #20
  40              		.cfi_def_cfa_offset 40
  41 0004 0500     		movs	r5, r0
  42 0006 0391     		str	r1, [sp, #12]
  24:Source\azure_iot_sdk\uamqp\src/amqpvalue_to_string.c ****     int result;
  25:Source\azure_iot_sdk\uamqp\src/amqpvalue_to_string.c ****     char* new_string;
  26:Source\azure_iot_sdk\uamqp\src/amqpvalue_to_string.c ****     size_t length = strlen(to_concat) + 1;
  43              		.loc 1 26 0
  44 0008 0800     		movs	r0, r1
  45              	.LVL1:
  46 000a FFF7FEFF 		bl	strlen
  47              	.LVL2:
  48 000e 461C     		adds	r6, r0, #1
  49              	.LVL3:
  27:Source\azure_iot_sdk\uamqp\src/amqpvalue_to_string.c ****     size_t src_length;
  28:Source\azure_iot_sdk\uamqp\src/amqpvalue_to_string.c **** 
  29:Source\azure_iot_sdk\uamqp\src/amqpvalue_to_string.c ****     if (*string != NULL)
  50              		.loc 1 29 0
  51 0010 2F68     		ldr	r7, [r5]
  52 0012 002F     		cmp	r7, #0
  53 0014 04D0     		beq	.L5
  30:Source\azure_iot_sdk\uamqp\src/amqpvalue_to_string.c ****     {
  31:Source\azure_iot_sdk\uamqp\src/amqpvalue_to_string.c ****         src_length = strlen(*string);
  54              		.loc 1 31 0
  55 0016 3800     		movs	r0, r7
  56 0018 FFF7FEFF 		bl	strlen
  57              	.LVL4:
  58 001c 0400     		movs	r4, r0
  59              	.LVL5:
  60 001e 00E0     		b	.L2
  61              	.LVL6:
  62              	.L5:
  32:Source\azure_iot_sdk\uamqp\src/amqpvalue_to_string.c ****     }
  33:Source\azure_iot_sdk\uamqp\src/amqpvalue_to_string.c ****     else
  34:Source\azure_iot_sdk\uamqp\src/amqpvalue_to_string.c ****     {
  35:Source\azure_iot_sdk\uamqp\src/amqpvalue_to_string.c ****         src_length = 0;
  63              		.loc 1 35 0
  64 0020 0024     		movs	r4, #0
  65              	.L2:
  66              	.LVL7:
  36:Source\azure_iot_sdk\uamqp\src/amqpvalue_to_string.c ****     }
  37:Source\azure_iot_sdk\uamqp\src/amqpvalue_to_string.c **** 
  38:Source\azure_iot_sdk\uamqp\src/amqpvalue_to_string.c ****     new_string = (char*)realloc(*string, src_length + length);
  67              		.loc 1 38 0
  68 0022 A119     		adds	r1, r4, r6
  69 0024 3800     		movs	r0, r7
  70 0026 FFF7FEFF 		bl	realloc
  71              	.LVL8:
  39:Source\azure_iot_sdk\uamqp\src/amqpvalue_to_string.c ****     if (new_string == NULL)
  72              		.loc 1 39 0
  73 002a 0028     		cmp	r0, #0
  74 002c 0ED1     		bne	.L3
  75              	.LBB2:
ARM GAS  C:\Users\Phuong\AppData\Local\Temp\ccU7OqD6.s 			page 3


  40:Source\azure_iot_sdk\uamqp\src/amqpvalue_to_string.c ****     {
  41:Source\azure_iot_sdk\uamqp\src/amqpvalue_to_string.c ****         LogError("Cannot allocate memory for the new string");
  76              		.loc 1 41 0 discriminator 3
  77 002e FFF7FEFF 		bl	xlogging_get_log_function
  78              	.LVL9:
  79 0032 041E     		subs	r4, r0, #0
  80              	.LVL10:
  81 0034 12D0     		beq	.L6
  82              		.loc 1 41 0 is_stmt 0 discriminator 4
  83 0036 0B4B     		ldr	r3, .L7
  84 0038 0193     		str	r3, [sp, #4]
  85 003a 0123     		movs	r3, #1
  86 003c 0093     		str	r3, [sp]
  87 003e 2833     		adds	r3, r3, #40
  88 0040 094A     		ldr	r2, .L7+4
  89 0042 0A49     		ldr	r1, .L7+8
  90 0044 0020     		movs	r0, #0
  91              	.LVL11:
  92 0046 A047     		blx	r4
  93              	.LVL12:
  94              	.LBE2:
  42:Source\azure_iot_sdk\uamqp\src/amqpvalue_to_string.c ****         result = __FAILURE__;
  95              		.loc 1 42 0 is_stmt 1 discriminator 4
  96 0048 2A20     		movs	r0, #42
  97 004a 08E0     		b	.L4
  98              	.LVL13:
  99              	.L3:
  43:Source\azure_iot_sdk\uamqp\src/amqpvalue_to_string.c ****     }
  44:Source\azure_iot_sdk\uamqp\src/amqpvalue_to_string.c ****     else
  45:Source\azure_iot_sdk\uamqp\src/amqpvalue_to_string.c ****     {
  46:Source\azure_iot_sdk\uamqp\src/amqpvalue_to_string.c ****         *string = new_string;
 100              		.loc 1 46 0
 101 004c 2860     		str	r0, [r5]
  47:Source\azure_iot_sdk\uamqp\src/amqpvalue_to_string.c ****         (void)memcpy(*string + src_length, to_concat, length);
 102              		.loc 1 47 0
 103 004e 0019     		adds	r0, r0, r4
 104              	.LVL14:
 105 0050 3200     		movs	r2, r6
 106 0052 0399     		ldr	r1, [sp, #12]
 107 0054 FFF7FEFF 		bl	memcpy
 108              	.LVL15:
  48:Source\azure_iot_sdk\uamqp\src/amqpvalue_to_string.c ****         result = 0;
 109              		.loc 1 48 0
 110 0058 0020     		movs	r0, #0
 111 005a 00E0     		b	.L4
 112              	.LVL16:
 113              	.L6:
  42:Source\azure_iot_sdk\uamqp\src/amqpvalue_to_string.c ****     }
 114              		.loc 1 42 0
 115 005c 2A20     		movs	r0, #42
 116              	.LVL17:
 117              	.L4:
  49:Source\azure_iot_sdk\uamqp\src/amqpvalue_to_string.c ****     }
  50:Source\azure_iot_sdk\uamqp\src/amqpvalue_to_string.c **** 
  51:Source\azure_iot_sdk\uamqp\src/amqpvalue_to_string.c ****     return result;
  52:Source\azure_iot_sdk\uamqp\src/amqpvalue_to_string.c **** }
 118              		.loc 1 52 0
ARM GAS  C:\Users\Phuong\AppData\Local\Temp\ccU7OqD6.s 			page 4


 119 005e 05B0     		add	sp, sp, #20
 120              		@ sp needed
 121              	.LVL18:
 122              	.LVL19:
 123 0060 F0BD     		pop	{r4, r5, r6, r7, pc}
 124              	.L8:
 125 0062 C046     		.align	2
 126              	.L7:
 127 0064 38000000 		.word	.LC3
 128 0068 5C000000 		.word	.LANCHOR0
 129 006c 00000000 		.word	.LC1
 130              		.cfi_endproc
 131              	.LFE1:
 132              		.size	string_concat, .-string_concat
 133              		.global	__aeabi_f2d
 134              		.section	.text.amqpvalue_to_string,"ax",%progbits
 135              		.align	2
 136              		.global	amqpvalue_to_string
 137              		.code	16
 138              		.thumb_func
 139              		.type	amqpvalue_to_string, %function
 140              	amqpvalue_to_string:
 141              	.LFB2:
  53:Source\azure_iot_sdk\uamqp\src/amqpvalue_to_string.c **** 
  54:Source\azure_iot_sdk\uamqp\src/amqpvalue_to_string.c **** char* amqpvalue_to_string(AMQP_VALUE amqp_value)
  55:Source\azure_iot_sdk\uamqp\src/amqpvalue_to_string.c **** {
 142              		.loc 1 55 0
 143              		.cfi_startproc
 144              		@ args = 0, pretend = 0, frame = 48
 145              		@ frame_needed = 0, uses_anonymous_args = 0
 146              	.LVL20:
 147 0000 F0B5     		push	{r4, r5, r6, r7, lr}
 148              		.cfi_def_cfa_offset 20
 149              		.cfi_offset 4, -20
 150              		.cfi_offset 5, -16
 151              		.cfi_offset 6, -12
 152              		.cfi_offset 7, -8
 153              		.cfi_offset 14, -4
 154 0002 91B0     		sub	sp, sp, #68
 155              		.cfi_def_cfa_offset 88
 156 0004 0400     		movs	r4, r0
  56:Source\azure_iot_sdk\uamqp\src/amqpvalue_to_string.c ****     char* result = NULL;
 157              		.loc 1 56 0
 158 0006 0023     		movs	r3, #0
 159 0008 0F93     		str	r3, [sp, #60]
  57:Source\azure_iot_sdk\uamqp\src/amqpvalue_to_string.c **** 
  58:Source\azure_iot_sdk\uamqp\src/amqpvalue_to_string.c ****     if (amqp_value != NULL)
 160              		.loc 1 58 0
 161 000a 0028     		cmp	r0, #0
 162 000c 01D1     		bne	.LCB143
 163 000e 01F03FF8 		bl	.L10	@far jump
 164              	.LCB143:
 165              	.LBB3:
  59:Source\azure_iot_sdk\uamqp\src/amqpvalue_to_string.c ****     {
  60:Source\azure_iot_sdk\uamqp\src/amqpvalue_to_string.c ****         AMQP_TYPE amqp_type = amqpvalue_get_type(amqp_value);
 166              		.loc 1 60 0
 167 0012 FFF7FEFF 		bl	amqpvalue_get_type
ARM GAS  C:\Users\Phuong\AppData\Local\Temp\ccU7OqD6.s 			page 5


 168              	.LVL21:
  61:Source\azure_iot_sdk\uamqp\src/amqpvalue_to_string.c ****         switch (amqp_type)
 169              		.loc 1 61 0
 170 0016 1628     		cmp	r0, #22
 171 0018 03D8     		bhi	.L11
 172 001a 8000     		lsls	r0, r0, #2
 173              	.LVL22:
 174 001c D74B     		ldr	r3, .L200
 175 001e 1B58     		ldr	r3, [r3, r0]
 176 0020 9F46     		mov	pc, r3
 177              		.section	.rodata
 178              		.align	2
 179              	.L13:
 180 0000 46000000 		.word	.L12
 181 0004 80000000 		.word	.L14
 182 0008 FC000000 		.word	.L15
 183 000c 7C010000 		.word	.L16
 184 0010 FC010000 		.word	.L17
 185 0014 7A020000 		.word	.L18
 186 0018 FA020000 		.word	.L19
 187 001c C8030000 		.word	.L20
 188 0020 4A040000 		.word	.L21
 189 0024 C8040000 		.word	.L22
 190 0028 48050000 		.word	.L23
 191 002c D2050000 		.word	.L24
 192 0030 5C060000 		.word	.L25
 193 0034 F8060000 		.word	.L26
 194 0038 BC070000 		.word	.L27
 195 003c 68080000 		.word	.L28
 196 0040 60090000 		.word	.L29
 197 0044 CE090000 		.word	.L30
 198 0048 3C0A0000 		.word	.L31
 199 004c F20B0000 		.word	.L32
 200 0050 F40D0000 		.word	.L33
 201 0054 BC0F0000 		.word	.L34
 202 0058 BC0F0000 		.word	.L34
 203              		.section	.text.amqpvalue_to_string
 204              	.LVL23:
 205              	.L11:
 206              	.LBB4:
  62:Source\azure_iot_sdk\uamqp\src/amqpvalue_to_string.c ****         {
  63:Source\azure_iot_sdk\uamqp\src/amqpvalue_to_string.c ****         default:
  64:Source\azure_iot_sdk\uamqp\src/amqpvalue_to_string.c ****             LogError("Unknown AMQP type");
 207              		.loc 1 64 0 discriminator 3
 208 0022 FFF7FEFF 		bl	xlogging_get_log_function
 209              	.LVL24:
 210 0026 041E     		subs	r4, r0, #0
 211              	.LVL25:
 212 0028 09D0     		beq	.L35
 213              		.loc 1 64 0 is_stmt 0 discriminator 4
 214 002a D54B     		ldr	r3, .L200+4
 215 002c 0193     		str	r3, [sp, #4]
 216 002e 0123     		movs	r3, #1
 217 0030 0093     		str	r3, [sp]
 218 0032 3F33     		adds	r3, r3, #63
 219 0034 D34A     		ldr	r2, .L200+8
 220 0036 1032     		adds	r2, r2, #16
ARM GAS  C:\Users\Phuong\AppData\Local\Temp\ccU7OqD6.s 			page 6


 221 0038 D349     		ldr	r1, .L200+12
 222 003a 0020     		movs	r0, #0
 223              	.LVL26:
 224 003c A047     		blx	r4
 225              	.LVL27:
 226              	.L35:
 227              	.LBE4:
  65:Source\azure_iot_sdk\uamqp\src/amqpvalue_to_string.c ****             result = NULL;
 228              		.loc 1 65 0 is_stmt 1
 229 003e 0023     		movs	r3, #0
 230 0040 0F93     		str	r3, [sp, #60]
  66:Source\azure_iot_sdk\uamqp\src/amqpvalue_to_string.c ****             break;
 231              		.loc 1 66 0
 232 0042 01F025F8 		bl	.L10	@ far jump
 233              	.LVL28:
 234              	.L12:
  67:Source\azure_iot_sdk\uamqp\src/amqpvalue_to_string.c **** 
  68:Source\azure_iot_sdk\uamqp\src/amqpvalue_to_string.c ****         case AMQP_TYPE_NULL:
  69:Source\azure_iot_sdk\uamqp\src/amqpvalue_to_string.c ****             if (string_concat(&result, "NULL") != 0)
 235              		.loc 1 69 0
 236 0046 D149     		ldr	r1, .L200+16
 237 0048 0FA8     		add	r0, sp, #60
 238 004a FFF7FEFF 		bl	string_concat
 239              	.LVL29:
 240 004e 0028     		cmp	r0, #0
 241 0050 01D1     		bne	.LCB202
 242 0052 01F01DF8 		bl	.L10	@far jump
 243              	.LCB202:
 244              	.LBB5:
  70:Source\azure_iot_sdk\uamqp\src/amqpvalue_to_string.c ****             {
  71:Source\azure_iot_sdk\uamqp\src/amqpvalue_to_string.c ****                 LogError("Failure building amqp value string");
 245              		.loc 1 71 0 discriminator 3
 246 0056 FFF7FEFF 		bl	xlogging_get_log_function
 247              	.LVL30:
 248 005a 041E     		subs	r4, r0, #0
 249              	.LVL31:
 250 005c 09D0     		beq	.L36
 251              		.loc 1 71 0 is_stmt 0 discriminator 4
 252 005e CC4B     		ldr	r3, .L200+20
 253 0060 0193     		str	r3, [sp, #4]
 254 0062 0123     		movs	r3, #1
 255 0064 0093     		str	r3, [sp]
 256 0066 4633     		adds	r3, r3, #70
 257 0068 C64A     		ldr	r2, .L200+8
 258 006a 1032     		adds	r2, r2, #16
 259 006c C649     		ldr	r1, .L200+12
 260 006e 0020     		movs	r0, #0
 261              	.LVL32:
 262 0070 A047     		blx	r4
 263              	.LVL33:
 264              	.L36:
 265              	.LBE5:
  72:Source\azure_iot_sdk\uamqp\src/amqpvalue_to_string.c ****                 free(result);
 266              		.loc 1 72 0 is_stmt 1
 267 0072 0F98     		ldr	r0, [sp, #60]
 268 0074 FFF7FEFF 		bl	free
 269              	.LVL34:
ARM GAS  C:\Users\Phuong\AppData\Local\Temp\ccU7OqD6.s 			page 7


  73:Source\azure_iot_sdk\uamqp\src/amqpvalue_to_string.c ****                 result = NULL;
 270              		.loc 1 73 0
 271 0078 0023     		movs	r3, #0
 272 007a 0F93     		str	r3, [sp, #60]
 273 007c 01F008F8 		bl	.L10	@ far jump
 274              	.LVL35:
 275              	.L14:
 276              	.LBB6:
  74:Source\azure_iot_sdk\uamqp\src/amqpvalue_to_string.c ****             }
  75:Source\azure_iot_sdk\uamqp\src/amqpvalue_to_string.c ****             break;
  76:Source\azure_iot_sdk\uamqp\src/amqpvalue_to_string.c ****         case AMQP_TYPE_BOOL:
  77:Source\azure_iot_sdk\uamqp\src/amqpvalue_to_string.c ****         {
  78:Source\azure_iot_sdk\uamqp\src/amqpvalue_to_string.c ****             bool value;
  79:Source\azure_iot_sdk\uamqp\src/amqpvalue_to_string.c ****             if (amqpvalue_get_boolean(amqp_value, &value) != 0)
 277              		.loc 1 79 0
 278 0080 08A9     		add	r1, sp, #32
 279 0082 2000     		movs	r0, r4
 280 0084 FFF7FEFF 		bl	amqpvalue_get_boolean
 281              	.LVL36:
 282 0088 0028     		cmp	r0, #0
 283 008a 14D0     		beq	.L37
 284              	.LBB7:
  80:Source\azure_iot_sdk\uamqp\src/amqpvalue_to_string.c ****             {
  81:Source\azure_iot_sdk\uamqp\src/amqpvalue_to_string.c ****                 LogError("Failure getting bool value");
 285              		.loc 1 81 0 discriminator 3
 286 008c FFF7FEFF 		bl	xlogging_get_log_function
 287              	.LVL37:
 288 0090 041E     		subs	r4, r0, #0
 289              	.LVL38:
 290 0092 09D0     		beq	.L38
 291              		.loc 1 81 0 is_stmt 0 discriminator 4
 292 0094 BF4B     		ldr	r3, .L200+24
 293 0096 0193     		str	r3, [sp, #4]
 294 0098 0123     		movs	r3, #1
 295 009a 0093     		str	r3, [sp]
 296 009c 5033     		adds	r3, r3, #80
 297 009e B94A     		ldr	r2, .L200+8
 298 00a0 1032     		adds	r2, r2, #16
 299 00a2 B949     		ldr	r1, .L200+12
 300 00a4 0020     		movs	r0, #0
 301              	.LVL39:
 302 00a6 A047     		blx	r4
 303              	.LVL40:
 304              	.L38:
 305              	.LBE7:
  82:Source\azure_iot_sdk\uamqp\src/amqpvalue_to_string.c ****                 free(result);
 306              		.loc 1 82 0 is_stmt 1
 307 00a8 0F98     		ldr	r0, [sp, #60]
 308 00aa FFF7FEFF 		bl	free
 309              	.LVL41:
  83:Source\azure_iot_sdk\uamqp\src/amqpvalue_to_string.c ****                 result = NULL;
 310              		.loc 1 83 0
 311 00ae 0023     		movs	r3, #0
 312 00b0 0F93     		str	r3, [sp, #60]
 313 00b2 00F0EDFF 		bl	.L10	@ far jump
 314              	.LVL42:
 315              	.L37:
ARM GAS  C:\Users\Phuong\AppData\Local\Temp\ccU7OqD6.s 			page 8


  84:Source\azure_iot_sdk\uamqp\src/amqpvalue_to_string.c ****             }
  85:Source\azure_iot_sdk\uamqp\src/amqpvalue_to_string.c ****             else if (string_concat(&result, (value == true) ? "true" : "false") != 0)
 316              		.loc 1 85 0
 317 00b6 08AB     		add	r3, sp, #32
 318 00b8 1B78     		ldrb	r3, [r3]
 319 00ba 002B     		cmp	r3, #0
 320 00bc 01D0     		beq	.L193
 321 00be B649     		ldr	r1, .L200+28
 322 00c0 00E0     		b	.L40
 323              	.L193:
 324 00c2 B649     		ldr	r1, .L200+32
 325              	.L40:
 326              		.loc 1 85 0 is_stmt 0 discriminator 4
 327 00c4 0FA8     		add	r0, sp, #60
 328 00c6 FFF7FEFF 		bl	string_concat
 329              	.LVL43:
 330 00ca 0028     		cmp	r0, #0
 331 00cc 01D1     		bne	.LCB294
 332 00ce 00F0DFFF 		bl	.L10	@far jump
 333              	.LCB294:
 334              	.LBB8:
  86:Source\azure_iot_sdk\uamqp\src/amqpvalue_to_string.c ****             {
  87:Source\azure_iot_sdk\uamqp\src/amqpvalue_to_string.c ****                 LogError("Failure building amqp value string");
 335              		.loc 1 87 0 is_stmt 1 discriminator 3
 336 00d2 FFF7FEFF 		bl	xlogging_get_log_function
 337              	.LVL44:
 338 00d6 041E     		subs	r4, r0, #0
 339              	.LVL45:
 340 00d8 09D0     		beq	.L41
 341              		.loc 1 87 0 is_stmt 0 discriminator 4
 342 00da AD4B     		ldr	r3, .L200+20
 343 00dc 0193     		str	r3, [sp, #4]
 344 00de 0123     		movs	r3, #1
 345 00e0 0093     		str	r3, [sp]
 346 00e2 5633     		adds	r3, r3, #86
 347 00e4 A74A     		ldr	r2, .L200+8
 348 00e6 1032     		adds	r2, r2, #16
 349 00e8 A749     		ldr	r1, .L200+12
 350 00ea 0020     		movs	r0, #0
 351              	.LVL46:
 352 00ec A047     		blx	r4
 353              	.LVL47:
 354              	.L41:
 355              	.LBE8:
  88:Source\azure_iot_sdk\uamqp\src/amqpvalue_to_string.c ****                 free(result);
 356              		.loc 1 88 0 is_stmt 1
 357 00ee 0F98     		ldr	r0, [sp, #60]
 358 00f0 FFF7FEFF 		bl	free
 359              	.LVL48:
  89:Source\azure_iot_sdk\uamqp\src/amqpvalue_to_string.c ****                 result = NULL;
 360              		.loc 1 89 0
 361 00f4 0023     		movs	r3, #0
 362 00f6 0F93     		str	r3, [sp, #60]
 363 00f8 00F0CAFF 		bl	.L10	@ far jump
 364              	.LVL49:
 365              	.L15:
 366              	.LBE6:
ARM GAS  C:\Users\Phuong\AppData\Local\Temp\ccU7OqD6.s 			page 9


 367              	.LBB9:
  90:Source\azure_iot_sdk\uamqp\src/amqpvalue_to_string.c ****             }
  91:Source\azure_iot_sdk\uamqp\src/amqpvalue_to_string.c ****             break;
  92:Source\azure_iot_sdk\uamqp\src/amqpvalue_to_string.c ****         }
  93:Source\azure_iot_sdk\uamqp\src/amqpvalue_to_string.c ****         case AMQP_TYPE_UBYTE:
  94:Source\azure_iot_sdk\uamqp\src/amqpvalue_to_string.c ****         {
  95:Source\azure_iot_sdk\uamqp\src/amqpvalue_to_string.c ****             char str_value[4];
  96:Source\azure_iot_sdk\uamqp\src/amqpvalue_to_string.c ****             uint8_t value;
  97:Source\azure_iot_sdk\uamqp\src/amqpvalue_to_string.c ****             if (amqpvalue_get_ubyte(amqp_value, &value) != 0)
 368              		.loc 1 97 0
 369 00fc 06A9     		add	r1, sp, #24
 370 00fe 2000     		movs	r0, r4
 371 0100 FFF7FEFF 		bl	amqpvalue_get_ubyte
 372              	.LVL50:
 373 0104 0028     		cmp	r0, #0
 374 0106 14D0     		beq	.L42
 375              	.LBB10:
  98:Source\azure_iot_sdk\uamqp\src/amqpvalue_to_string.c ****             {
  99:Source\azure_iot_sdk\uamqp\src/amqpvalue_to_string.c ****                 LogError("Failure getting ubyte value");
 376              		.loc 1 99 0 discriminator 3
 377 0108 FFF7FEFF 		bl	xlogging_get_log_function
 378              	.LVL51:
 379 010c 041E     		subs	r4, r0, #0
 380              	.LVL52:
 381 010e 09D0     		beq	.L43
 382              		.loc 1 99 0 is_stmt 0 discriminator 4
 383 0110 A34B     		ldr	r3, .L200+36
 384 0112 0193     		str	r3, [sp, #4]
 385 0114 0123     		movs	r3, #1
 386 0116 0093     		str	r3, [sp]
 387 0118 6233     		adds	r3, r3, #98
 388 011a 9A4A     		ldr	r2, .L200+8
 389 011c 1032     		adds	r2, r2, #16
 390 011e 9A49     		ldr	r1, .L200+12
 391 0120 0020     		movs	r0, #0
 392              	.LVL53:
 393 0122 A047     		blx	r4
 394              	.LVL54:
 395              	.L43:
 396              	.LBE10:
 100:Source\azure_iot_sdk\uamqp\src/amqpvalue_to_string.c ****                 free(result);
 397              		.loc 1 100 0 is_stmt 1
 398 0124 0F98     		ldr	r0, [sp, #60]
 399 0126 FFF7FEFF 		bl	free
 400              	.LVL55:
 101:Source\azure_iot_sdk\uamqp\src/amqpvalue_to_string.c ****                 result = NULL;
 401              		.loc 1 101 0
 402 012a 0023     		movs	r3, #0
 403 012c 0F93     		str	r3, [sp, #60]
 404 012e 00F0AFFF 		bl	.L10	@ far jump
 405              	.LVL56:
 406              	.L42:
 102:Source\azure_iot_sdk\uamqp\src/amqpvalue_to_string.c ****             }
 103:Source\azure_iot_sdk\uamqp\src/amqpvalue_to_string.c ****             else if ((sprintf(str_value, "%" PRIu8, value) < 0) ||
 407              		.loc 1 103 0
 408 0132 06AB     		add	r3, sp, #24
 409 0134 1A78     		ldrb	r2, [r3]
ARM GAS  C:\Users\Phuong\AppData\Local\Temp\ccU7OqD6.s 			page 10


 410 0136 9B49     		ldr	r1, .L200+40
 411 0138 08A8     		add	r0, sp, #32
 412 013a FFF7FEFF 		bl	sprintf
 413              	.LVL57:
 414 013e 0028     		cmp	r0, #0
 415 0140 07DB     		blt	.L45
 104:Source\azure_iot_sdk\uamqp\src/amqpvalue_to_string.c ****                      (string_concat(&result, str_value) != 0))
 416              		.loc 1 104 0 discriminator 1
 417 0142 08A9     		add	r1, sp, #32
 418 0144 0FA8     		add	r0, sp, #60
 419 0146 FFF7FEFF 		bl	string_concat
 420              	.LVL58:
 103:Source\azure_iot_sdk\uamqp\src/amqpvalue_to_string.c ****                      (string_concat(&result, str_value) != 0))
 421              		.loc 1 103 0 discriminator 1
 422 014a 0028     		cmp	r0, #0
 423 014c 01D1     		bne	.LCB384
 424 014e 00F09FFF 		bl	.L10	@far jump
 425              	.LCB384:
 426              	.L45:
 427              	.LBB11:
 105:Source\azure_iot_sdk\uamqp\src/amqpvalue_to_string.c ****             {
 106:Source\azure_iot_sdk\uamqp\src/amqpvalue_to_string.c ****                 LogError("Failure building amqp value string");
 428              		.loc 1 106 0 discriminator 3
 429 0152 FFF7FEFF 		bl	xlogging_get_log_function
 430              	.LVL59:
 431 0156 041E     		subs	r4, r0, #0
 432              	.LVL60:
 433 0158 09D0     		beq	.L46
 434              		.loc 1 106 0 is_stmt 0 discriminator 4
 435 015a 8D4B     		ldr	r3, .L200+20
 436 015c 0193     		str	r3, [sp, #4]
 437 015e 0123     		movs	r3, #1
 438 0160 0093     		str	r3, [sp]
 439 0162 6933     		adds	r3, r3, #105
 440 0164 874A     		ldr	r2, .L200+8
 441 0166 1032     		adds	r2, r2, #16
 442 0168 8749     		ldr	r1, .L200+12
 443 016a 0020     		movs	r0, #0
 444              	.LVL61:
 445 016c A047     		blx	r4
 446              	.LVL62:
 447              	.L46:
 448              	.LBE11:
 107:Source\azure_iot_sdk\uamqp\src/amqpvalue_to_string.c ****                 free(result);
 449              		.loc 1 107 0 is_stmt 1
 450 016e 0F98     		ldr	r0, [sp, #60]
 451 0170 FFF7FEFF 		bl	free
 452              	.LVL63:
 108:Source\azure_iot_sdk\uamqp\src/amqpvalue_to_string.c ****                 result = NULL;
 453              		.loc 1 108 0
 454 0174 0023     		movs	r3, #0
 455 0176 0F93     		str	r3, [sp, #60]
 456 0178 00F08AFF 		bl	.L10	@ far jump
 457              	.LVL64:
 458              	.L16:
 459              	.LBE9:
 460              	.LBB12:
ARM GAS  C:\Users\Phuong\AppData\Local\Temp\ccU7OqD6.s 			page 11


 109:Source\azure_iot_sdk\uamqp\src/amqpvalue_to_string.c ****             }
 110:Source\azure_iot_sdk\uamqp\src/amqpvalue_to_string.c ****             break;
 111:Source\azure_iot_sdk\uamqp\src/amqpvalue_to_string.c ****         }
 112:Source\azure_iot_sdk\uamqp\src/amqpvalue_to_string.c ****         case AMQP_TYPE_USHORT:
 113:Source\azure_iot_sdk\uamqp\src/amqpvalue_to_string.c ****         {
 114:Source\azure_iot_sdk\uamqp\src/amqpvalue_to_string.c ****             char str_value[6];
 115:Source\azure_iot_sdk\uamqp\src/amqpvalue_to_string.c ****             uint16_t value;
 116:Source\azure_iot_sdk\uamqp\src/amqpvalue_to_string.c ****             if (amqpvalue_get_ushort(amqp_value, &value) != 0)
 461              		.loc 1 116 0
 462 017c 06A9     		add	r1, sp, #24
 463 017e 2000     		movs	r0, r4
 464 0180 FFF7FEFF 		bl	amqpvalue_get_ushort
 465              	.LVL65:
 466 0184 0028     		cmp	r0, #0
 467 0186 14D0     		beq	.L47
 468              	.LBB13:
 117:Source\azure_iot_sdk\uamqp\src/amqpvalue_to_string.c ****             {
 118:Source\azure_iot_sdk\uamqp\src/amqpvalue_to_string.c ****                 LogError("Failure getting ushort value");
 469              		.loc 1 118 0 discriminator 3
 470 0188 FFF7FEFF 		bl	xlogging_get_log_function
 471              	.LVL66:
 472 018c 041E     		subs	r4, r0, #0
 473              	.LVL67:
 474 018e 09D0     		beq	.L48
 475              		.loc 1 118 0 is_stmt 0 discriminator 4
 476 0190 854B     		ldr	r3, .L200+44
 477 0192 0193     		str	r3, [sp, #4]
 478 0194 0123     		movs	r3, #1
 479 0196 0093     		str	r3, [sp]
 480 0198 7533     		adds	r3, r3, #117
 481 019a 7A4A     		ldr	r2, .L200+8
 482 019c 1032     		adds	r2, r2, #16
 483 019e 7A49     		ldr	r1, .L200+12
 484 01a0 0020     		movs	r0, #0
 485              	.LVL68:
 486 01a2 A047     		blx	r4
 487              	.LVL69:
 488              	.L48:
 489              	.LBE13:
 119:Source\azure_iot_sdk\uamqp\src/amqpvalue_to_string.c ****                 free(result);
 490              		.loc 1 119 0 is_stmt 1
 491 01a4 0F98     		ldr	r0, [sp, #60]
 492 01a6 FFF7FEFF 		bl	free
 493              	.LVL70:
 120:Source\azure_iot_sdk\uamqp\src/amqpvalue_to_string.c ****                 result = NULL;
 494              		.loc 1 120 0
 495 01aa 0023     		movs	r3, #0
 496 01ac 0F93     		str	r3, [sp, #60]
 497 01ae 00F06FFF 		bl	.L10	@ far jump
 498              	.LVL71:
 499              	.L47:
 121:Source\azure_iot_sdk\uamqp\src/amqpvalue_to_string.c ****             }
 122:Source\azure_iot_sdk\uamqp\src/amqpvalue_to_string.c ****             else if ((sprintf(str_value, "%" PRIu16, value) < 0) ||
 500              		.loc 1 122 0
 501 01b2 06AB     		add	r3, sp, #24
 502 01b4 1A88     		ldrh	r2, [r3]
 503 01b6 7D49     		ldr	r1, .L200+48
ARM GAS  C:\Users\Phuong\AppData\Local\Temp\ccU7OqD6.s 			page 12


 504 01b8 08A8     		add	r0, sp, #32
 505 01ba FFF7FEFF 		bl	sprintf
 506              	.LVL72:
 507 01be 0028     		cmp	r0, #0
 508 01c0 07DB     		blt	.L50
 123:Source\azure_iot_sdk\uamqp\src/amqpvalue_to_string.c ****                      (string_concat(&result, str_value) != 0))
 509              		.loc 1 123 0 discriminator 1
 510 01c2 08A9     		add	r1, sp, #32
 511 01c4 0FA8     		add	r0, sp, #60
 512 01c6 FFF7FEFF 		bl	string_concat
 513              	.LVL73:
 122:Source\azure_iot_sdk\uamqp\src/amqpvalue_to_string.c ****                      (string_concat(&result, str_value) != 0))
 514              		.loc 1 122 0 discriminator 1
 515 01ca 0028     		cmp	r0, #0
 516 01cc 01D1     		bne	.LCB475
 517 01ce 00F05FFF 		bl	.L10	@far jump
 518              	.LCB475:
 519              	.L50:
 520              	.LBB14:
 124:Source\azure_iot_sdk\uamqp\src/amqpvalue_to_string.c ****             {
 125:Source\azure_iot_sdk\uamqp\src/amqpvalue_to_string.c ****                 LogError("Failure building amqp value string");
 521              		.loc 1 125 0 discriminator 3
 522 01d2 FFF7FEFF 		bl	xlogging_get_log_function
 523              	.LVL74:
 524 01d6 041E     		subs	r4, r0, #0
 525              	.LVL75:
 526 01d8 09D0     		beq	.L51
 527              		.loc 1 125 0 is_stmt 0 discriminator 4
 528 01da 6D4B     		ldr	r3, .L200+20
 529 01dc 0193     		str	r3, [sp, #4]
 530 01de 0123     		movs	r3, #1
 531 01e0 0093     		str	r3, [sp]
 532 01e2 7C33     		adds	r3, r3, #124
 533 01e4 674A     		ldr	r2, .L200+8
 534 01e6 1032     		adds	r2, r2, #16
 535 01e8 6749     		ldr	r1, .L200+12
 536 01ea 0020     		movs	r0, #0
 537              	.LVL76:
 538 01ec A047     		blx	r4
 539              	.LVL77:
 540              	.L51:
 541              	.LBE14:
 126:Source\azure_iot_sdk\uamqp\src/amqpvalue_to_string.c ****                 free(result);
 542              		.loc 1 126 0 is_stmt 1
 543 01ee 0F98     		ldr	r0, [sp, #60]
 544 01f0 FFF7FEFF 		bl	free
 545              	.LVL78:
 127:Source\azure_iot_sdk\uamqp\src/amqpvalue_to_string.c ****                 result = NULL;
 546              		.loc 1 127 0
 547 01f4 0023     		movs	r3, #0
 548 01f6 0F93     		str	r3, [sp, #60]
 549 01f8 00F04AFF 		bl	.L10	@ far jump
 550              	.LVL79:
 551              	.L17:
 552              	.LBE12:
 553              	.LBB15:
 128:Source\azure_iot_sdk\uamqp\src/amqpvalue_to_string.c ****             }
ARM GAS  C:\Users\Phuong\AppData\Local\Temp\ccU7OqD6.s 			page 13


 129:Source\azure_iot_sdk\uamqp\src/amqpvalue_to_string.c ****             break;
 130:Source\azure_iot_sdk\uamqp\src/amqpvalue_to_string.c ****         }
 131:Source\azure_iot_sdk\uamqp\src/amqpvalue_to_string.c ****         case AMQP_TYPE_UINT:
 132:Source\azure_iot_sdk\uamqp\src/amqpvalue_to_string.c ****         {
 133:Source\azure_iot_sdk\uamqp\src/amqpvalue_to_string.c ****             char str_value[11];
 134:Source\azure_iot_sdk\uamqp\src/amqpvalue_to_string.c ****             uint32_t value;
 135:Source\azure_iot_sdk\uamqp\src/amqpvalue_to_string.c ****             if (amqpvalue_get_uint(amqp_value, &value) != 0)
 554              		.loc 1 135 0
 555 01fc 06A9     		add	r1, sp, #24
 556 01fe 2000     		movs	r0, r4
 557 0200 FFF7FEFF 		bl	amqpvalue_get_uint
 558              	.LVL80:
 559 0204 0028     		cmp	r0, #0
 560 0206 14D0     		beq	.L52
 561              	.LBB16:
 136:Source\azure_iot_sdk\uamqp\src/amqpvalue_to_string.c ****             {
 137:Source\azure_iot_sdk\uamqp\src/amqpvalue_to_string.c ****                 LogError("Failure getting uint value");
 562              		.loc 1 137 0 discriminator 3
 563 0208 FFF7FEFF 		bl	xlogging_get_log_function
 564              	.LVL81:
 565 020c 041E     		subs	r4, r0, #0
 566              	.LVL82:
 567 020e 09D0     		beq	.L53
 568              		.loc 1 137 0 is_stmt 0 discriminator 4
 569 0210 674B     		ldr	r3, .L200+52
 570 0212 0193     		str	r3, [sp, #4]
 571 0214 0123     		movs	r3, #1
 572 0216 0093     		str	r3, [sp]
 573 0218 8833     		adds	r3, r3, #136
 574 021a 5A4A     		ldr	r2, .L200+8
 575 021c 1032     		adds	r2, r2, #16
 576 021e 5A49     		ldr	r1, .L200+12
 577 0220 0020     		movs	r0, #0
 578              	.LVL83:
 579 0222 A047     		blx	r4
 580              	.LVL84:
 581              	.L53:
 582              	.LBE16:
 138:Source\azure_iot_sdk\uamqp\src/amqpvalue_to_string.c ****                 free(result);
 583              		.loc 1 138 0 is_stmt 1
 584 0224 0F98     		ldr	r0, [sp, #60]
 585 0226 FFF7FEFF 		bl	free
 586              	.LVL85:
 139:Source\azure_iot_sdk\uamqp\src/amqpvalue_to_string.c ****                 result = NULL;
 587              		.loc 1 139 0
 588 022a 0023     		movs	r3, #0
 589 022c 0F93     		str	r3, [sp, #60]
 590 022e 00F02FFF 		bl	.L10	@ far jump
 591              	.LVL86:
 592              	.L52:
 140:Source\azure_iot_sdk\uamqp\src/amqpvalue_to_string.c ****             }
 141:Source\azure_iot_sdk\uamqp\src/amqpvalue_to_string.c ****             else if ((sprintf(str_value, "%" PRIu32, value) < 0) ||
 593              		.loc 1 141 0
 594 0232 069A     		ldr	r2, [sp, #24]
 595 0234 5F49     		ldr	r1, .L200+56
 596 0236 08A8     		add	r0, sp, #32
 597 0238 FFF7FEFF 		bl	sprintf
ARM GAS  C:\Users\Phuong\AppData\Local\Temp\ccU7OqD6.s 			page 14


 598              	.LVL87:
 599 023c 0028     		cmp	r0, #0
 600 023e 07DB     		blt	.L55
 142:Source\azure_iot_sdk\uamqp\src/amqpvalue_to_string.c ****                      (string_concat(&result, str_value) != 0))
 601              		.loc 1 142 0 discriminator 1
 602 0240 08A9     		add	r1, sp, #32
 603 0242 0FA8     		add	r0, sp, #60
 604 0244 FFF7FEFF 		bl	string_concat
 605              	.LVL88:
 141:Source\azure_iot_sdk\uamqp\src/amqpvalue_to_string.c ****                      (string_concat(&result, str_value) != 0))
 606              		.loc 1 141 0 discriminator 1
 607 0248 0028     		cmp	r0, #0
 608 024a 01D1     		bne	.LCB565
 609 024c 00F020FF 		bl	.L10	@far jump
 610              	.LCB565:
 611              	.L55:
 612              	.LBB17:
 143:Source\azure_iot_sdk\uamqp\src/amqpvalue_to_string.c ****             {
 144:Source\azure_iot_sdk\uamqp\src/amqpvalue_to_string.c ****                 LogError("Failure building amqp value string");
 613              		.loc 1 144 0 discriminator 3
 614 0250 FFF7FEFF 		bl	xlogging_get_log_function
 615              	.LVL89:
 616 0254 041E     		subs	r4, r0, #0
 617              	.LVL90:
 618 0256 09D0     		beq	.L56
 619              		.loc 1 144 0 is_stmt 0 discriminator 4
 620 0258 4D4B     		ldr	r3, .L200+20
 621 025a 0193     		str	r3, [sp, #4]
 622 025c 0123     		movs	r3, #1
 623 025e 0093     		str	r3, [sp]
 624 0260 8F33     		adds	r3, r3, #143
 625 0262 484A     		ldr	r2, .L200+8
 626 0264 1032     		adds	r2, r2, #16
 627 0266 4849     		ldr	r1, .L200+12
 628 0268 0020     		movs	r0, #0
 629              	.LVL91:
 630 026a A047     		blx	r4
 631              	.LVL92:
 632              	.L56:
 633              	.LBE17:
 145:Source\azure_iot_sdk\uamqp\src/amqpvalue_to_string.c ****                 free(result);
 634              		.loc 1 145 0 is_stmt 1
 635 026c 0F98     		ldr	r0, [sp, #60]
 636 026e FFF7FEFF 		bl	free
 637              	.LVL93:
 146:Source\azure_iot_sdk\uamqp\src/amqpvalue_to_string.c ****                 result = NULL;
 638              		.loc 1 146 0
 639 0272 0023     		movs	r3, #0
 640 0274 0F93     		str	r3, [sp, #60]
 641 0276 00F00BFF 		bl	.L10	@ far jump
 642              	.LVL94:
 643              	.L18:
 644              	.LBE15:
 645              	.LBB18:
 147:Source\azure_iot_sdk\uamqp\src/amqpvalue_to_string.c ****             }
 148:Source\azure_iot_sdk\uamqp\src/amqpvalue_to_string.c ****             break;
 149:Source\azure_iot_sdk\uamqp\src/amqpvalue_to_string.c ****         }
ARM GAS  C:\Users\Phuong\AppData\Local\Temp\ccU7OqD6.s 			page 15


 150:Source\azure_iot_sdk\uamqp\src/amqpvalue_to_string.c ****         case AMQP_TYPE_ULONG:
 151:Source\azure_iot_sdk\uamqp\src/amqpvalue_to_string.c ****         {
 152:Source\azure_iot_sdk\uamqp\src/amqpvalue_to_string.c ****             char str_value[21];
 153:Source\azure_iot_sdk\uamqp\src/amqpvalue_to_string.c ****             uint64_t value;
 154:Source\azure_iot_sdk\uamqp\src/amqpvalue_to_string.c ****             if (amqpvalue_get_ulong(amqp_value, &value) != 0)
 646              		.loc 1 154 0
 647 027a 06A9     		add	r1, sp, #24
 648 027c 2000     		movs	r0, r4
 649 027e FFF7FEFF 		bl	amqpvalue_get_ulong
 650              	.LVL95:
 651 0282 0028     		cmp	r0, #0
 652 0284 14D0     		beq	.L57
 653              	.LBB19:
 155:Source\azure_iot_sdk\uamqp\src/amqpvalue_to_string.c ****             {
 156:Source\azure_iot_sdk\uamqp\src/amqpvalue_to_string.c ****                 LogError("Failure getting ulong value");
 654              		.loc 1 156 0 discriminator 3
 655 0286 FFF7FEFF 		bl	xlogging_get_log_function
 656              	.LVL96:
 657 028a 041E     		subs	r4, r0, #0
 658              	.LVL97:
 659 028c 09D0     		beq	.L58
 660              		.loc 1 156 0 is_stmt 0 discriminator 4
 661 028e 4A4B     		ldr	r3, .L200+60
 662 0290 0193     		str	r3, [sp, #4]
 663 0292 0123     		movs	r3, #1
 664 0294 0093     		str	r3, [sp]
 665 0296 9B33     		adds	r3, r3, #155
 666 0298 3A4A     		ldr	r2, .L200+8
 667 029a 1032     		adds	r2, r2, #16
 668 029c 3A49     		ldr	r1, .L200+12
 669 029e 0020     		movs	r0, #0
 670              	.LVL98:
 671 02a0 A047     		blx	r4
 672              	.LVL99:
 673              	.L58:
 674              	.LBE19:
 157:Source\azure_iot_sdk\uamqp\src/amqpvalue_to_string.c ****                 free(result);
 675              		.loc 1 157 0 is_stmt 1
 676 02a2 0F98     		ldr	r0, [sp, #60]
 677 02a4 FFF7FEFF 		bl	free
 678              	.LVL100:
 158:Source\azure_iot_sdk\uamqp\src/amqpvalue_to_string.c ****                 result = NULL;
 679              		.loc 1 158 0
 680 02a8 0023     		movs	r3, #0
 681 02aa 0F93     		str	r3, [sp, #60]
 682 02ac 00F0F0FE 		bl	.L10	@ far jump
 683              	.LVL101:
 684              	.L57:
 159:Source\azure_iot_sdk\uamqp\src/amqpvalue_to_string.c ****             }
 160:Source\azure_iot_sdk\uamqp\src/amqpvalue_to_string.c ****             else if ((sprintf(str_value, "%" PRIu64, value) < 0) ||
 685              		.loc 1 160 0
 686 02b0 069A     		ldr	r2, [sp, #24]
 687 02b2 079B     		ldr	r3, [sp, #28]
 688 02b4 4149     		ldr	r1, .L200+64
 689 02b6 08A8     		add	r0, sp, #32
 690 02b8 FFF7FEFF 		bl	sprintf
 691              	.LVL102:
ARM GAS  C:\Users\Phuong\AppData\Local\Temp\ccU7OqD6.s 			page 16


 692 02bc 0028     		cmp	r0, #0
 693 02be 07DB     		blt	.L60
 161:Source\azure_iot_sdk\uamqp\src/amqpvalue_to_string.c ****                      (string_concat(&result, str_value) != 0))
 694              		.loc 1 161 0 discriminator 1
 695 02c0 08A9     		add	r1, sp, #32
 696 02c2 0FA8     		add	r0, sp, #60
 697 02c4 FFF7FEFF 		bl	string_concat
 698              	.LVL103:
 160:Source\azure_iot_sdk\uamqp\src/amqpvalue_to_string.c ****                      (string_concat(&result, str_value) != 0))
 699              		.loc 1 160 0 discriminator 1
 700 02c8 0028     		cmp	r0, #0
 701 02ca 01D1     		bne	.LCB655
 702 02cc 00F0E0FE 		bl	.L10	@far jump
 703              	.LCB655:
 704              	.L60:
 705              	.LBB20:
 162:Source\azure_iot_sdk\uamqp\src/amqpvalue_to_string.c ****             {
 163:Source\azure_iot_sdk\uamqp\src/amqpvalue_to_string.c ****                 LogError("Failure building amqp value string");
 706              		.loc 1 163 0 discriminator 3
 707 02d0 FFF7FEFF 		bl	xlogging_get_log_function
 708              	.LVL104:
 709 02d4 041E     		subs	r4, r0, #0
 710              	.LVL105:
 711 02d6 09D0     		beq	.L61
 712              		.loc 1 163 0 is_stmt 0 discriminator 4
 713 02d8 2D4B     		ldr	r3, .L200+20
 714 02da 0193     		str	r3, [sp, #4]
 715 02dc 0123     		movs	r3, #1
 716 02de 0093     		str	r3, [sp]
 717 02e0 A233     		adds	r3, r3, #162
 718 02e2 284A     		ldr	r2, .L200+8
 719 02e4 1032     		adds	r2, r2, #16
 720 02e6 2849     		ldr	r1, .L200+12
 721 02e8 0020     		movs	r0, #0
 722              	.LVL106:
 723 02ea A047     		blx	r4
 724              	.LVL107:
 725              	.L61:
 726              	.LBE20:
 164:Source\azure_iot_sdk\uamqp\src/amqpvalue_to_string.c ****                 free(result);
 727              		.loc 1 164 0 is_stmt 1
 728 02ec 0F98     		ldr	r0, [sp, #60]
 729 02ee FFF7FEFF 		bl	free
 730              	.LVL108:
 165:Source\azure_iot_sdk\uamqp\src/amqpvalue_to_string.c ****                 result = NULL;
 731              		.loc 1 165 0
 732 02f2 0023     		movs	r3, #0
 733 02f4 0F93     		str	r3, [sp, #60]
 734 02f6 00F0CBFE 		bl	.L10	@ far jump
 735              	.LVL109:
 736              	.L19:
 737              	.LBE18:
 738              	.LBB21:
 166:Source\azure_iot_sdk\uamqp\src/amqpvalue_to_string.c ****             }
 167:Source\azure_iot_sdk\uamqp\src/amqpvalue_to_string.c ****             break;
 168:Source\azure_iot_sdk\uamqp\src/amqpvalue_to_string.c ****         }
 169:Source\azure_iot_sdk\uamqp\src/amqpvalue_to_string.c ****         case AMQP_TYPE_BYTE:
ARM GAS  C:\Users\Phuong\AppData\Local\Temp\ccU7OqD6.s 			page 17


 170:Source\azure_iot_sdk\uamqp\src/amqpvalue_to_string.c ****         {
 171:Source\azure_iot_sdk\uamqp\src/amqpvalue_to_string.c ****             char str_value[5];
 172:Source\azure_iot_sdk\uamqp\src/amqpvalue_to_string.c ****             char value;
 173:Source\azure_iot_sdk\uamqp\src/amqpvalue_to_string.c ****             if (amqpvalue_get_byte(amqp_value, &value) != 0)
 739              		.loc 1 173 0
 740 02fa 06A9     		add	r1, sp, #24
 741 02fc 2000     		movs	r0, r4
 742 02fe FFF7FEFF 		bl	amqpvalue_get_byte
 743              	.LVL110:
 744 0302 0028     		cmp	r0, #0
 745 0304 14D0     		beq	.L62
 746              	.LBB22:
 174:Source\azure_iot_sdk\uamqp\src/amqpvalue_to_string.c ****             {
 175:Source\azure_iot_sdk\uamqp\src/amqpvalue_to_string.c ****                 LogError("Failure getting byte value");
 747              		.loc 1 175 0 discriminator 3
 748 0306 FFF7FEFF 		bl	xlogging_get_log_function
 749              	.LVL111:
 750 030a 041E     		subs	r4, r0, #0
 751              	.LVL112:
 752 030c 09D0     		beq	.L63
 753              		.loc 1 175 0 is_stmt 0 discriminator 4
 754 030e 2C4B     		ldr	r3, .L200+68
 755 0310 0193     		str	r3, [sp, #4]
 756 0312 0123     		movs	r3, #1
 757 0314 0093     		str	r3, [sp]
 758 0316 AE33     		adds	r3, r3, #174
 759 0318 1A4A     		ldr	r2, .L200+8
 760 031a 1032     		adds	r2, r2, #16
 761 031c 1A49     		ldr	r1, .L200+12
 762 031e 0020     		movs	r0, #0
 763              	.LVL113:
 764 0320 A047     		blx	r4
 765              	.LVL114:
 766              	.L63:
 767              	.LBE22:
 176:Source\azure_iot_sdk\uamqp\src/amqpvalue_to_string.c ****                 free(result);
 768              		.loc 1 176 0 is_stmt 1
 769 0322 0F98     		ldr	r0, [sp, #60]
 770 0324 FFF7FEFF 		bl	free
 771              	.LVL115:
 177:Source\azure_iot_sdk\uamqp\src/amqpvalue_to_string.c ****                 result = NULL;
 772              		.loc 1 177 0
 773 0328 0023     		movs	r3, #0
 774 032a 0F93     		str	r3, [sp, #60]
 775 032c 00F0B0FE 		bl	.L10	@ far jump
 776              	.LVL116:
 777              	.L62:
 178:Source\azure_iot_sdk\uamqp\src/amqpvalue_to_string.c ****             }
 179:Source\azure_iot_sdk\uamqp\src/amqpvalue_to_string.c ****             else if ((sprintf(str_value, "%" PRId8, value) < 0) ||
 778              		.loc 1 179 0
 779 0330 06AB     		add	r3, sp, #24
 780 0332 1A78     		ldrb	r2, [r3]
 781 0334 2349     		ldr	r1, .L200+72
 782 0336 08A8     		add	r0, sp, #32
 783 0338 FFF7FEFF 		bl	sprintf
 784              	.LVL117:
 785 033c 0028     		cmp	r0, #0
ARM GAS  C:\Users\Phuong\AppData\Local\Temp\ccU7OqD6.s 			page 18


 786 033e 07DB     		blt	.L65
 180:Source\azure_iot_sdk\uamqp\src/amqpvalue_to_string.c ****                      (string_concat(&result, str_value) != 0))
 787              		.loc 1 180 0 discriminator 1
 788 0340 08A9     		add	r1, sp, #32
 789 0342 0FA8     		add	r0, sp, #60
 790 0344 FFF7FEFF 		bl	string_concat
 791              	.LVL118:
 179:Source\azure_iot_sdk\uamqp\src/amqpvalue_to_string.c ****                      (string_concat(&result, str_value) != 0))
 792              		.loc 1 179 0 discriminator 1
 793 0348 0028     		cmp	r0, #0
 794 034a 01D1     		bne	.LCB746
 795 034c 00F0A0FE 		bl	.L10	@far jump
 796              	.LCB746:
 797              	.L65:
 798              	.LBB23:
 181:Source\azure_iot_sdk\uamqp\src/amqpvalue_to_string.c ****             {
 182:Source\azure_iot_sdk\uamqp\src/amqpvalue_to_string.c ****                 LogError("Failure building amqp value string");
 799              		.loc 1 182 0 discriminator 3
 800 0350 FFF7FEFF 		bl	xlogging_get_log_function
 801              	.LVL119:
 802 0354 041E     		subs	r4, r0, #0
 803              	.LVL120:
 804 0356 09D0     		beq	.L66
 805              		.loc 1 182 0 is_stmt 0 discriminator 4
 806 0358 0D4B     		ldr	r3, .L200+20
 807 035a 0193     		str	r3, [sp, #4]
 808 035c 0123     		movs	r3, #1
 809 035e 0093     		str	r3, [sp]
 810 0360 B533     		adds	r3, r3, #181
 811 0362 084A     		ldr	r2, .L200+8
 812 0364 1032     		adds	r2, r2, #16
 813 0366 0849     		ldr	r1, .L200+12
 814 0368 0020     		movs	r0, #0
 815              	.LVL121:
 816 036a A047     		blx	r4
 817              	.LVL122:
 818              	.L66:
 819              	.LBE23:
 183:Source\azure_iot_sdk\uamqp\src/amqpvalue_to_string.c ****                 free(result);
 820              		.loc 1 183 0 is_stmt 1
 821 036c 0F98     		ldr	r0, [sp, #60]
 822 036e FFF7FEFF 		bl	free
 823              	.LVL123:
 184:Source\azure_iot_sdk\uamqp\src/amqpvalue_to_string.c ****                 result = NULL;
 824              		.loc 1 184 0
 825 0372 0023     		movs	r3, #0
 826 0374 0F93     		str	r3, [sp, #60]
 827 0376 00F08BFE 		bl	.L10	@ far jump
 828              	.L201:
 829 037a C046     		.align	2
 830              	.L200:
 831 037c 00000000 		.word	.L13
 832 0380 7C000000 		.word	.LC16
 833 0384 5C000000 		.word	.LANCHOR0
 834 0388 00000000 		.word	.LC1
 835 038c 90000000 		.word	.LC18
 836 0390 98000000 		.word	.LC20
ARM GAS  C:\Users\Phuong\AppData\Local\Temp\ccU7OqD6.s 			page 19


 837 0394 BC000000 		.word	.LC22
 838 0398 64000000 		.word	.LC5
 839 039c 6C000000 		.word	.LC7
 840 03a0 D8000000 		.word	.LC24
 841 03a4 F4000000 		.word	.LC26
 842 03a8 FC000000 		.word	.LC28
 843 03ac 1C010000 		.word	.LC30
 844 03b0 20010000 		.word	.LC32
 845 03b4 3C010000 		.word	.LC34
 846 03b8 40010000 		.word	.LC36
 847 03bc 5C010000 		.word	.LC38
 848 03c0 64010000 		.word	.LC40
 849 03c4 80010000 		.word	.LC42
 850              	.LVL124:
 851              	.L20:
 852              	.LBE21:
 853              	.LBB24:
 185:Source\azure_iot_sdk\uamqp\src/amqpvalue_to_string.c ****             }
 186:Source\azure_iot_sdk\uamqp\src/amqpvalue_to_string.c ****             break;
 187:Source\azure_iot_sdk\uamqp\src/amqpvalue_to_string.c ****         }
 188:Source\azure_iot_sdk\uamqp\src/amqpvalue_to_string.c ****         case AMQP_TYPE_SHORT:
 189:Source\azure_iot_sdk\uamqp\src/amqpvalue_to_string.c ****         {
 190:Source\azure_iot_sdk\uamqp\src/amqpvalue_to_string.c ****             char str_value[7];
 191:Source\azure_iot_sdk\uamqp\src/amqpvalue_to_string.c ****             int16_t value;
 192:Source\azure_iot_sdk\uamqp\src/amqpvalue_to_string.c ****             if (amqpvalue_get_short(amqp_value, &value) != 0)
 854              		.loc 1 192 0
 855 03c8 06A9     		add	r1, sp, #24
 856 03ca 2000     		movs	r0, r4
 857 03cc FFF7FEFF 		bl	amqpvalue_get_short
 858              	.LVL125:
 859 03d0 0028     		cmp	r0, #0
 860 03d2 14D0     		beq	.L67
 861              	.LBB25:
 193:Source\azure_iot_sdk\uamqp\src/amqpvalue_to_string.c ****             {
 194:Source\azure_iot_sdk\uamqp\src/amqpvalue_to_string.c ****                 LogError("Failure getting short value");
 862              		.loc 1 194 0 discriminator 3
 863 03d4 FFF7FEFF 		bl	xlogging_get_log_function
 864              	.LVL126:
 865 03d8 041E     		subs	r4, r0, #0
 866              	.LVL127:
 867 03da 09D0     		beq	.L68
 868              		.loc 1 194 0 is_stmt 0 discriminator 4
 869 03dc D44B     		ldr	r3, .L202
 870 03de 0193     		str	r3, [sp, #4]
 871 03e0 0123     		movs	r3, #1
 872 03e2 0093     		str	r3, [sp]
 873 03e4 C133     		adds	r3, r3, #193
 874 03e6 D34A     		ldr	r2, .L202+4
 875 03e8 1032     		adds	r2, r2, #16
 876 03ea D349     		ldr	r1, .L202+8
 877 03ec 0020     		movs	r0, #0
 878              	.LVL128:
 879 03ee A047     		blx	r4
 880              	.LVL129:
 881              	.L68:
 882              	.LBE25:
 195:Source\azure_iot_sdk\uamqp\src/amqpvalue_to_string.c ****                 free(result);
ARM GAS  C:\Users\Phuong\AppData\Local\Temp\ccU7OqD6.s 			page 20


 883              		.loc 1 195 0 is_stmt 1
 884 03f0 0F98     		ldr	r0, [sp, #60]
 885 03f2 FFF7FEFF 		bl	free
 886              	.LVL130:
 196:Source\azure_iot_sdk\uamqp\src/amqpvalue_to_string.c ****                 result = NULL;
 887              		.loc 1 196 0
 888 03f6 0023     		movs	r3, #0
 889 03f8 0F93     		str	r3, [sp, #60]
 890 03fa 00F049FE 		bl	.L10	@ far jump
 891              	.LVL131:
 892              	.L67:
 197:Source\azure_iot_sdk\uamqp\src/amqpvalue_to_string.c ****             }
 198:Source\azure_iot_sdk\uamqp\src/amqpvalue_to_string.c ****             else if ((sprintf(str_value, "%" PRId16, value) < 0) ||
 893              		.loc 1 198 0
 894 03fe 06AB     		add	r3, sp, #24
 895 0400 0022     		movs	r2, #0
 896 0402 9A5E     		ldrsh	r2, [r3, r2]
 897 0404 CD49     		ldr	r1, .L202+12
 898 0406 08A8     		add	r0, sp, #32
 899 0408 FFF7FEFF 		bl	sprintf
 900              	.LVL132:
 901 040c 0028     		cmp	r0, #0
 902 040e 07DB     		blt	.L70
 199:Source\azure_iot_sdk\uamqp\src/amqpvalue_to_string.c ****                      (string_concat(&result, str_value) != 0))
 903              		.loc 1 199 0 discriminator 1
 904 0410 08A9     		add	r1, sp, #32
 905 0412 0FA8     		add	r0, sp, #60
 906 0414 FFF7FEFF 		bl	string_concat
 907              	.LVL133:
 198:Source\azure_iot_sdk\uamqp\src/amqpvalue_to_string.c ****                      (string_concat(&result, str_value) != 0))
 908              		.loc 1 198 0 discriminator 1
 909 0418 0028     		cmp	r0, #0
 910 041a 01D1     		bne	.LCB861
 911 041c 00F038FE 		bl	.L10	@far jump
 912              	.LCB861:
 913              	.L70:
 914              	.LBB26:
 200:Source\azure_iot_sdk\uamqp\src/amqpvalue_to_string.c ****             {
 201:Source\azure_iot_sdk\uamqp\src/amqpvalue_to_string.c ****                 LogError("Failure building amqp value string");
 915              		.loc 1 201 0 discriminator 3
 916 0420 FFF7FEFF 		bl	xlogging_get_log_function
 917              	.LVL134:
 918 0424 041E     		subs	r4, r0, #0
 919              	.LVL135:
 920 0426 09D0     		beq	.L71
 921              		.loc 1 201 0 is_stmt 0 discriminator 4
 922 0428 C54B     		ldr	r3, .L202+16
 923 042a 0193     		str	r3, [sp, #4]
 924 042c 0123     		movs	r3, #1
 925 042e 0093     		str	r3, [sp]
 926 0430 C833     		adds	r3, r3, #200
 927 0432 C04A     		ldr	r2, .L202+4
 928 0434 1032     		adds	r2, r2, #16
 929 0436 C049     		ldr	r1, .L202+8
 930 0438 0020     		movs	r0, #0
 931              	.LVL136:
 932 043a A047     		blx	r4
ARM GAS  C:\Users\Phuong\AppData\Local\Temp\ccU7OqD6.s 			page 21


 933              	.LVL137:
 934              	.L71:
 935              	.LBE26:
 202:Source\azure_iot_sdk\uamqp\src/amqpvalue_to_string.c ****                 free(result);
 936              		.loc 1 202 0 is_stmt 1
 937 043c 0F98     		ldr	r0, [sp, #60]
 938 043e FFF7FEFF 		bl	free
 939              	.LVL138:
 203:Source\azure_iot_sdk\uamqp\src/amqpvalue_to_string.c ****                 result = NULL;
 940              		.loc 1 203 0
 941 0442 0023     		movs	r3, #0
 942 0444 0F93     		str	r3, [sp, #60]
 943 0446 00F023FE 		bl	.L10	@ far jump
 944              	.LVL139:
 945              	.L21:
 946              	.LBE24:
 947              	.LBB27:
 204:Source\azure_iot_sdk\uamqp\src/amqpvalue_to_string.c ****             }
 205:Source\azure_iot_sdk\uamqp\src/amqpvalue_to_string.c ****             break;
 206:Source\azure_iot_sdk\uamqp\src/amqpvalue_to_string.c ****         }
 207:Source\azure_iot_sdk\uamqp\src/amqpvalue_to_string.c ****         case AMQP_TYPE_INT:
 208:Source\azure_iot_sdk\uamqp\src/amqpvalue_to_string.c ****         {
 209:Source\azure_iot_sdk\uamqp\src/amqpvalue_to_string.c ****             char str_value[12];
 210:Source\azure_iot_sdk\uamqp\src/amqpvalue_to_string.c ****             int32_t value;
 211:Source\azure_iot_sdk\uamqp\src/amqpvalue_to_string.c ****             if (amqpvalue_get_int(amqp_value, &value) != 0)
 948              		.loc 1 211 0
 949 044a 06A9     		add	r1, sp, #24
 950 044c 2000     		movs	r0, r4
 951 044e FFF7FEFF 		bl	amqpvalue_get_int
 952              	.LVL140:
 953 0452 0028     		cmp	r0, #0
 954 0454 14D0     		beq	.L72
 955              	.LBB28:
 212:Source\azure_iot_sdk\uamqp\src/amqpvalue_to_string.c ****             {
 213:Source\azure_iot_sdk\uamqp\src/amqpvalue_to_string.c ****                 LogError("Failure getting int value");
 956              		.loc 1 213 0 discriminator 3
 957 0456 FFF7FEFF 		bl	xlogging_get_log_function
 958              	.LVL141:
 959 045a 041E     		subs	r4, r0, #0
 960              	.LVL142:
 961 045c 09D0     		beq	.L73
 962              		.loc 1 213 0 is_stmt 0 discriminator 4
 963 045e B94B     		ldr	r3, .L202+20
 964 0460 0193     		str	r3, [sp, #4]
 965 0462 0123     		movs	r3, #1
 966 0464 0093     		str	r3, [sp]
 967 0466 D433     		adds	r3, r3, #212
 968 0468 B24A     		ldr	r2, .L202+4
 969 046a 1032     		adds	r2, r2, #16
 970 046c B249     		ldr	r1, .L202+8
 971 046e 0020     		movs	r0, #0
 972              	.LVL143:
 973 0470 A047     		blx	r4
 974              	.LVL144:
 975              	.L73:
 976              	.LBE28:
 214:Source\azure_iot_sdk\uamqp\src/amqpvalue_to_string.c ****                 free(result);
ARM GAS  C:\Users\Phuong\AppData\Local\Temp\ccU7OqD6.s 			page 22


 977              		.loc 1 214 0 is_stmt 1
 978 0472 0F98     		ldr	r0, [sp, #60]
 979 0474 FFF7FEFF 		bl	free
 980              	.LVL145:
 215:Source\azure_iot_sdk\uamqp\src/amqpvalue_to_string.c ****                 result = NULL;
 981              		.loc 1 215 0
 982 0478 0023     		movs	r3, #0
 983 047a 0F93     		str	r3, [sp, #60]
 984 047c 00F008FE 		bl	.L10	@ far jump
 985              	.LVL146:
 986              	.L72:
 216:Source\azure_iot_sdk\uamqp\src/amqpvalue_to_string.c ****             }
 217:Source\azure_iot_sdk\uamqp\src/amqpvalue_to_string.c ****             else if ((sprintf(str_value, "%" PRId32, value) < 0) ||
 987              		.loc 1 217 0
 988 0480 069A     		ldr	r2, [sp, #24]
 989 0482 B149     		ldr	r1, .L202+24
 990 0484 08A8     		add	r0, sp, #32
 991 0486 FFF7FEFF 		bl	sprintf
 992              	.LVL147:
 993 048a 0028     		cmp	r0, #0
 994 048c 07DB     		blt	.L75
 218:Source\azure_iot_sdk\uamqp\src/amqpvalue_to_string.c ****                      (string_concat(&result, str_value) != 0))
 995              		.loc 1 218 0 discriminator 1
 996 048e 08A9     		add	r1, sp, #32
 997 0490 0FA8     		add	r0, sp, #60
 998 0492 FFF7FEFF 		bl	string_concat
 999              	.LVL148:
 217:Source\azure_iot_sdk\uamqp\src/amqpvalue_to_string.c ****                      (string_concat(&result, str_value) != 0))
 1000              		.loc 1 217 0 discriminator 1
 1001 0496 0028     		cmp	r0, #0
 1002 0498 01D1     		bne	.LCB951
 1003 049a 00F0F9FD 		bl	.L10	@far jump
 1004              	.LCB951:
 1005              	.L75:
 1006              	.LBB29:
 219:Source\azure_iot_sdk\uamqp\src/amqpvalue_to_string.c ****             {
 220:Source\azure_iot_sdk\uamqp\src/amqpvalue_to_string.c ****                 LogError("Failure building amqp value string");
 1007              		.loc 1 220 0 discriminator 3
 1008 049e FFF7FEFF 		bl	xlogging_get_log_function
 1009              	.LVL149:
 1010 04a2 041E     		subs	r4, r0, #0
 1011              	.LVL150:
 1012 04a4 09D0     		beq	.L76
 1013              		.loc 1 220 0 is_stmt 0 discriminator 4
 1014 04a6 A64B     		ldr	r3, .L202+16
 1015 04a8 0193     		str	r3, [sp, #4]
 1016 04aa 0123     		movs	r3, #1
 1017 04ac 0093     		str	r3, [sp]
 1018 04ae DB33     		adds	r3, r3, #219
 1019 04b0 A04A     		ldr	r2, .L202+4
 1020 04b2 1032     		adds	r2, r2, #16
 1021 04b4 A049     		ldr	r1, .L202+8
 1022 04b6 0020     		movs	r0, #0
 1023              	.LVL151:
 1024 04b8 A047     		blx	r4
 1025              	.LVL152:
 1026              	.L76:
ARM GAS  C:\Users\Phuong\AppData\Local\Temp\ccU7OqD6.s 			page 23


 1027              	.LBE29:
 221:Source\azure_iot_sdk\uamqp\src/amqpvalue_to_string.c ****                 free(result);
 1028              		.loc 1 221 0 is_stmt 1
 1029 04ba 0F98     		ldr	r0, [sp, #60]
 1030 04bc FFF7FEFF 		bl	free
 1031              	.LVL153:
 222:Source\azure_iot_sdk\uamqp\src/amqpvalue_to_string.c ****                 result = NULL;
 1032              		.loc 1 222 0
 1033 04c0 0023     		movs	r3, #0
 1034 04c2 0F93     		str	r3, [sp, #60]
 1035 04c4 00F0E4FD 		bl	.L10	@ far jump
 1036              	.LVL154:
 1037              	.L22:
 1038              	.LBE27:
 1039              	.LBB30:
 223:Source\azure_iot_sdk\uamqp\src/amqpvalue_to_string.c ****             }
 224:Source\azure_iot_sdk\uamqp\src/amqpvalue_to_string.c ****             break;
 225:Source\azure_iot_sdk\uamqp\src/amqpvalue_to_string.c ****         }
 226:Source\azure_iot_sdk\uamqp\src/amqpvalue_to_string.c ****         case AMQP_TYPE_LONG:
 227:Source\azure_iot_sdk\uamqp\src/amqpvalue_to_string.c ****         {
 228:Source\azure_iot_sdk\uamqp\src/amqpvalue_to_string.c ****             char str_value[21];
 229:Source\azure_iot_sdk\uamqp\src/amqpvalue_to_string.c ****             int64_t value;
 230:Source\azure_iot_sdk\uamqp\src/amqpvalue_to_string.c ****             if (amqpvalue_get_long(amqp_value, &value) != 0)
 1040              		.loc 1 230 0
 1041 04c8 06A9     		add	r1, sp, #24
 1042 04ca 2000     		movs	r0, r4
 1043 04cc FFF7FEFF 		bl	amqpvalue_get_long
 1044              	.LVL155:
 1045 04d0 0028     		cmp	r0, #0
 1046 04d2 14D0     		beq	.L77
 1047              	.LBB31:
 231:Source\azure_iot_sdk\uamqp\src/amqpvalue_to_string.c ****             {
 232:Source\azure_iot_sdk\uamqp\src/amqpvalue_to_string.c ****                 LogError("Failure getting long value");
 1048              		.loc 1 232 0 discriminator 3
 1049 04d4 FFF7FEFF 		bl	xlogging_get_log_function
 1050              	.LVL156:
 1051 04d8 041E     		subs	r4, r0, #0
 1052              	.LVL157:
 1053 04da 09D0     		beq	.L78
 1054              		.loc 1 232 0 is_stmt 0 discriminator 4
 1055 04dc 9B4B     		ldr	r3, .L202+28
 1056 04de 0193     		str	r3, [sp, #4]
 1057 04e0 0123     		movs	r3, #1
 1058 04e2 0093     		str	r3, [sp]
 1059 04e4 E733     		adds	r3, r3, #231
 1060 04e6 934A     		ldr	r2, .L202+4
 1061 04e8 1032     		adds	r2, r2, #16
 1062 04ea 9349     		ldr	r1, .L202+8
 1063 04ec 0020     		movs	r0, #0
 1064              	.LVL158:
 1065 04ee A047     		blx	r4
 1066              	.LVL159:
 1067              	.L78:
 1068              	.LBE31:
 233:Source\azure_iot_sdk\uamqp\src/amqpvalue_to_string.c ****                 free(result);
 1069              		.loc 1 233 0 is_stmt 1
 1070 04f0 0F98     		ldr	r0, [sp, #60]
ARM GAS  C:\Users\Phuong\AppData\Local\Temp\ccU7OqD6.s 			page 24


 1071 04f2 FFF7FEFF 		bl	free
 1072              	.LVL160:
 234:Source\azure_iot_sdk\uamqp\src/amqpvalue_to_string.c ****                 result = NULL;
 1073              		.loc 1 234 0
 1074 04f6 0023     		movs	r3, #0
 1075 04f8 0F93     		str	r3, [sp, #60]
 1076 04fa 00F0C9FD 		bl	.L10	@ far jump
 1077              	.LVL161:
 1078              	.L77:
 235:Source\azure_iot_sdk\uamqp\src/amqpvalue_to_string.c ****             }
 236:Source\azure_iot_sdk\uamqp\src/amqpvalue_to_string.c ****             else if ((sprintf(str_value, "%" PRId64, value) < 0) ||
 1079              		.loc 1 236 0
 1080 04fe 069A     		ldr	r2, [sp, #24]
 1081 0500 079B     		ldr	r3, [sp, #28]
 1082 0502 9349     		ldr	r1, .L202+32
 1083 0504 08A8     		add	r0, sp, #32
 1084 0506 FFF7FEFF 		bl	sprintf
 1085              	.LVL162:
 1086 050a 0028     		cmp	r0, #0
 1087 050c 07DB     		blt	.L80
 237:Source\azure_iot_sdk\uamqp\src/amqpvalue_to_string.c ****                      (string_concat(&result, str_value) != 0))
 1088              		.loc 1 237 0 discriminator 1
 1089 050e 08A9     		add	r1, sp, #32
 1090 0510 0FA8     		add	r0, sp, #60
 1091 0512 FFF7FEFF 		bl	string_concat
 1092              	.LVL163:
 236:Source\azure_iot_sdk\uamqp\src/amqpvalue_to_string.c ****                      (string_concat(&result, str_value) != 0))
 1093              		.loc 1 236 0 discriminator 1
 1094 0516 0028     		cmp	r0, #0
 1095 0518 01D1     		bne	.LCB1041
 1096 051a 00F0B9FD 		bl	.L10	@far jump
 1097              	.LCB1041:
 1098              	.L80:
 1099              	.LBB32:
 238:Source\azure_iot_sdk\uamqp\src/amqpvalue_to_string.c ****             {
 239:Source\azure_iot_sdk\uamqp\src/amqpvalue_to_string.c ****                 LogError("Failure building amqp value string");
 1100              		.loc 1 239 0 discriminator 3
 1101 051e FFF7FEFF 		bl	xlogging_get_log_function
 1102              	.LVL164:
 1103 0522 041E     		subs	r4, r0, #0
 1104              	.LVL165:
 1105 0524 09D0     		beq	.L81
 1106              		.loc 1 239 0 is_stmt 0 discriminator 4
 1107 0526 864B     		ldr	r3, .L202+16
 1108 0528 0193     		str	r3, [sp, #4]
 1109 052a 0123     		movs	r3, #1
 1110 052c 0093     		str	r3, [sp]
 1111 052e EE33     		adds	r3, r3, #238
 1112 0530 804A     		ldr	r2, .L202+4
 1113 0532 1032     		adds	r2, r2, #16
 1114 0534 8049     		ldr	r1, .L202+8
 1115 0536 0020     		movs	r0, #0
 1116              	.LVL166:
 1117 0538 A047     		blx	r4
 1118              	.LVL167:
 1119              	.L81:
 1120              	.LBE32:
ARM GAS  C:\Users\Phuong\AppData\Local\Temp\ccU7OqD6.s 			page 25


 240:Source\azure_iot_sdk\uamqp\src/amqpvalue_to_string.c ****                 free(result);
 1121              		.loc 1 240 0 is_stmt 1
 1122 053a 0F98     		ldr	r0, [sp, #60]
 1123 053c FFF7FEFF 		bl	free
 1124              	.LVL168:
 241:Source\azure_iot_sdk\uamqp\src/amqpvalue_to_string.c ****                 result = NULL;
 1125              		.loc 1 241 0
 1126 0540 0023     		movs	r3, #0
 1127 0542 0F93     		str	r3, [sp, #60]
 1128 0544 00F0A4FD 		bl	.L10	@ far jump
 1129              	.LVL169:
 1130              	.L23:
 1131              	.LBE30:
 1132              	.LBB33:
 242:Source\azure_iot_sdk\uamqp\src/amqpvalue_to_string.c ****             }
 243:Source\azure_iot_sdk\uamqp\src/amqpvalue_to_string.c ****             break;
 244:Source\azure_iot_sdk\uamqp\src/amqpvalue_to_string.c ****         }
 245:Source\azure_iot_sdk\uamqp\src/amqpvalue_to_string.c ****         case AMQP_TYPE_FLOAT:
 246:Source\azure_iot_sdk\uamqp\src/amqpvalue_to_string.c ****         {
 247:Source\azure_iot_sdk\uamqp\src/amqpvalue_to_string.c ****             float float_value;
 248:Source\azure_iot_sdk\uamqp\src/amqpvalue_to_string.c ****             if (amqpvalue_get_float(amqp_value, &float_value) != 0)
 1133              		.loc 1 248 0
 1134 0548 06A9     		add	r1, sp, #24
 1135 054a 2000     		movs	r0, r4
 1136 054c FFF7FEFF 		bl	amqpvalue_get_float
 1137              	.LVL170:
 1138 0550 0028     		cmp	r0, #0
 1139 0552 14D0     		beq	.L82
 1140              	.LBB34:
 249:Source\azure_iot_sdk\uamqp\src/amqpvalue_to_string.c ****             {
 250:Source\azure_iot_sdk\uamqp\src/amqpvalue_to_string.c ****                 LogError("Failure getting float value");
 1141              		.loc 1 250 0 discriminator 3
 1142 0554 FFF7FEFF 		bl	xlogging_get_log_function
 1143              	.LVL171:
 1144 0558 041E     		subs	r4, r0, #0
 1145              	.LVL172:
 1146 055a 09D0     		beq	.L83
 1147              		.loc 1 250 0 is_stmt 0 discriminator 4
 1148 055c 7D4B     		ldr	r3, .L202+36
 1149 055e 0193     		str	r3, [sp, #4]
 1150 0560 0123     		movs	r3, #1
 1151 0562 0093     		str	r3, [sp]
 1152 0564 F933     		adds	r3, r3, #249
 1153 0566 734A     		ldr	r2, .L202+4
 1154 0568 1032     		adds	r2, r2, #16
 1155 056a 7349     		ldr	r1, .L202+8
 1156 056c 0020     		movs	r0, #0
 1157              	.LVL173:
 1158 056e A047     		blx	r4
 1159              	.LVL174:
 1160              	.L83:
 1161              	.LBE34:
 251:Source\azure_iot_sdk\uamqp\src/amqpvalue_to_string.c ****                 free(result);
 1162              		.loc 1 251 0 is_stmt 1
 1163 0570 0F98     		ldr	r0, [sp, #60]
 1164 0572 FFF7FEFF 		bl	free
 1165              	.LVL175:
ARM GAS  C:\Users\Phuong\AppData\Local\Temp\ccU7OqD6.s 			page 26


 252:Source\azure_iot_sdk\uamqp\src/amqpvalue_to_string.c ****                 result = NULL;
 1166              		.loc 1 252 0
 1167 0576 0023     		movs	r3, #0
 1168 0578 0F93     		str	r3, [sp, #60]
 1169 057a 00F089FD 		bl	.L10	@ far jump
 1170              	.LVL176:
 1171              	.L82:
 1172              	.LBB35:
 253:Source\azure_iot_sdk\uamqp\src/amqpvalue_to_string.c ****             }
 254:Source\azure_iot_sdk\uamqp\src/amqpvalue_to_string.c ****             else
 255:Source\azure_iot_sdk\uamqp\src/amqpvalue_to_string.c ****             {
 256:Source\azure_iot_sdk\uamqp\src/amqpvalue_to_string.c ****                 char str_value[25];
 257:Source\azure_iot_sdk\uamqp\src/amqpvalue_to_string.c ****                 if ((snprintf(str_value, sizeof(str_value), "%.02f", float_value) < 0) ||
 1173              		.loc 1 257 0
 1174 057e 0698     		ldr	r0, [sp, #24]
 1175 0580 FFF7FEFF 		bl	__aeabi_f2d
 1176              	.LVL177:
 1177 0584 0090     		str	r0, [sp]
 1178 0586 0191     		str	r1, [sp, #4]
 1179 0588 734A     		ldr	r2, .L202+40
 1180 058a 1921     		movs	r1, #25
 1181 058c 08A8     		add	r0, sp, #32
 1182 058e FFF7FEFF 		bl	snprintf
 1183              	.LVL178:
 1184 0592 0028     		cmp	r0, #0
 1185 0594 07DB     		blt	.L85
 258:Source\azure_iot_sdk\uamqp\src/amqpvalue_to_string.c ****                     (string_concat(&result, str_value) != 0))
 1186              		.loc 1 258 0 discriminator 1
 1187 0596 08A9     		add	r1, sp, #32
 1188 0598 0FA8     		add	r0, sp, #60
 1189 059a FFF7FEFF 		bl	string_concat
 1190              	.LVL179:
 257:Source\azure_iot_sdk\uamqp\src/amqpvalue_to_string.c ****                     (string_concat(&result, str_value) != 0))
 1191              		.loc 1 257 0 discriminator 1
 1192 059e 0028     		cmp	r0, #0
 1193 05a0 01D1     		bne	.LCB1136
 1194 05a2 00F075FD 		bl	.L10	@far jump
 1195              	.LCB1136:
 1196              	.L85:
 1197              	.LBB36:
 259:Source\azure_iot_sdk\uamqp\src/amqpvalue_to_string.c ****                 {
 260:Source\azure_iot_sdk\uamqp\src/amqpvalue_to_string.c ****                     LogError("Failure building amqp value string");
 1198              		.loc 1 260 0 discriminator 3
 1199 05a6 FFF7FEFF 		bl	xlogging_get_log_function
 1200              	.LVL180:
 1201 05aa 041E     		subs	r4, r0, #0
 1202              	.LVL181:
 1203 05ac 0AD0     		beq	.L87
 1204              		.loc 1 260 0 is_stmt 0 discriminator 4
 1205 05ae 644B     		ldr	r3, .L202+16
 1206 05b0 0193     		str	r3, [sp, #4]
 1207 05b2 0123     		movs	r3, #1
 1208 05b4 0093     		str	r3, [sp]
 1209 05b6 0433     		adds	r3, r3, #4
 1210 05b8 FF33     		adds	r3, r3, #255
 1211 05ba 5E4A     		ldr	r2, .L202+4
 1212 05bc 1032     		adds	r2, r2, #16
ARM GAS  C:\Users\Phuong\AppData\Local\Temp\ccU7OqD6.s 			page 27


 1213 05be 5E49     		ldr	r1, .L202+8
 1214 05c0 0020     		movs	r0, #0
 1215              	.LVL182:
 1216 05c2 A047     		blx	r4
 1217              	.LVL183:
 1218              	.L87:
 1219              	.LBE36:
 261:Source\azure_iot_sdk\uamqp\src/amqpvalue_to_string.c ****                     free(result);
 1220              		.loc 1 261 0 is_stmt 1
 1221 05c4 0F98     		ldr	r0, [sp, #60]
 1222 05c6 FFF7FEFF 		bl	free
 1223              	.LVL184:
 262:Source\azure_iot_sdk\uamqp\src/amqpvalue_to_string.c ****                     result = NULL;
 1224              		.loc 1 262 0
 1225 05ca 0023     		movs	r3, #0
 1226 05cc 0F93     		str	r3, [sp, #60]
 1227 05ce 00F05FFD 		bl	.L10	@ far jump
 1228              	.LVL185:
 1229              	.L24:
 1230              	.LBE35:
 1231              	.LBE33:
 1232              	.LBB37:
 263:Source\azure_iot_sdk\uamqp\src/amqpvalue_to_string.c ****                 }
 264:Source\azure_iot_sdk\uamqp\src/amqpvalue_to_string.c ****             }
 265:Source\azure_iot_sdk\uamqp\src/amqpvalue_to_string.c ****             break;
 266:Source\azure_iot_sdk\uamqp\src/amqpvalue_to_string.c ****         }
 267:Source\azure_iot_sdk\uamqp\src/amqpvalue_to_string.c ****         case AMQP_TYPE_DOUBLE:
 268:Source\azure_iot_sdk\uamqp\src/amqpvalue_to_string.c ****         {
 269:Source\azure_iot_sdk\uamqp\src/amqpvalue_to_string.c ****             double double_value;
 270:Source\azure_iot_sdk\uamqp\src/amqpvalue_to_string.c ****             if (amqpvalue_get_double(amqp_value, &double_value) != 0)
 1233              		.loc 1 270 0
 1234 05d2 06A9     		add	r1, sp, #24
 1235 05d4 2000     		movs	r0, r4
 1236 05d6 FFF7FEFF 		bl	amqpvalue_get_double
 1237              	.LVL186:
 1238 05da 0028     		cmp	r0, #0
 1239 05dc 15D0     		beq	.L88
 1240              	.LBB38:
 271:Source\azure_iot_sdk\uamqp\src/amqpvalue_to_string.c ****             {
 272:Source\azure_iot_sdk\uamqp\src/amqpvalue_to_string.c ****                 LogError("Failure getting double value");
 1241              		.loc 1 272 0 discriminator 3
 1242 05de FFF7FEFF 		bl	xlogging_get_log_function
 1243              	.LVL187:
 1244 05e2 041E     		subs	r4, r0, #0
 1245              	.LVL188:
 1246 05e4 0AD0     		beq	.L89
 1247              		.loc 1 272 0 is_stmt 0 discriminator 4
 1248 05e6 5D4B     		ldr	r3, .L202+44
 1249 05e8 0193     		str	r3, [sp, #4]
 1250 05ea 0123     		movs	r3, #1
 1251 05ec 0093     		str	r3, [sp]
 1252 05ee 1033     		adds	r3, r3, #16
 1253 05f0 FF33     		adds	r3, r3, #255
 1254 05f2 504A     		ldr	r2, .L202+4
 1255 05f4 1032     		adds	r2, r2, #16
 1256 05f6 5049     		ldr	r1, .L202+8
 1257 05f8 0020     		movs	r0, #0
ARM GAS  C:\Users\Phuong\AppData\Local\Temp\ccU7OqD6.s 			page 28


 1258              	.LVL189:
 1259 05fa A047     		blx	r4
 1260              	.LVL190:
 1261              	.L89:
 1262              	.LBE38:
 273:Source\azure_iot_sdk\uamqp\src/amqpvalue_to_string.c ****                 free(result);
 1263              		.loc 1 273 0 is_stmt 1
 1264 05fc 0F98     		ldr	r0, [sp, #60]
 1265 05fe FFF7FEFF 		bl	free
 1266              	.LVL191:
 274:Source\azure_iot_sdk\uamqp\src/amqpvalue_to_string.c ****                 result = NULL;
 1267              		.loc 1 274 0
 1268 0602 0023     		movs	r3, #0
 1269 0604 0F93     		str	r3, [sp, #60]
 1270 0606 00F043FD 		bl	.L10	@ far jump
 1271              	.LVL192:
 1272              	.L88:
 1273              	.LBB39:
 275:Source\azure_iot_sdk\uamqp\src/amqpvalue_to_string.c ****             }
 276:Source\azure_iot_sdk\uamqp\src/amqpvalue_to_string.c ****             else
 277:Source\azure_iot_sdk\uamqp\src/amqpvalue_to_string.c ****             {
 278:Source\azure_iot_sdk\uamqp\src/amqpvalue_to_string.c ****                 char str_value[25];
 279:Source\azure_iot_sdk\uamqp\src/amqpvalue_to_string.c ****                 if ((snprintf(str_value, sizeof(str_value), "%.02lf", double_value) < 0) ||
 1274              		.loc 1 279 0
 1275 060a 069B     		ldr	r3, [sp, #24]
 1276 060c 079C     		ldr	r4, [sp, #28]
 1277 060e 0093     		str	r3, [sp]
 1278 0610 0194     		str	r4, [sp, #4]
 1279 0612 534A     		ldr	r2, .L202+48
 1280 0614 1921     		movs	r1, #25
 1281 0616 08A8     		add	r0, sp, #32
 1282 0618 FFF7FEFF 		bl	snprintf
 1283              	.LVL193:
 1284 061c 0028     		cmp	r0, #0
 1285 061e 07DB     		blt	.L91
 280:Source\azure_iot_sdk\uamqp\src/amqpvalue_to_string.c ****                     (string_concat(&result, str_value) != 0))
 1286              		.loc 1 280 0 discriminator 1
 1287 0620 08A9     		add	r1, sp, #32
 1288 0622 0FA8     		add	r0, sp, #60
 1289 0624 FFF7FEFF 		bl	string_concat
 1290              	.LVL194:
 279:Source\azure_iot_sdk\uamqp\src/amqpvalue_to_string.c ****                     (string_concat(&result, str_value) != 0))
 1291              		.loc 1 279 0 discriminator 1
 1292 0628 0028     		cmp	r0, #0
 1293 062a 01D1     		bne	.LCB1233
 1294 062c 00F030FD 		bl	.L10	@far jump
 1295              	.LCB1233:
 1296              	.L91:
 1297              	.LBB40:
 281:Source\azure_iot_sdk\uamqp\src/amqpvalue_to_string.c ****                 {
 282:Source\azure_iot_sdk\uamqp\src/amqpvalue_to_string.c ****                     LogError("Failure building amqp value string");
 1298              		.loc 1 282 0 discriminator 3
 1299 0630 FFF7FEFF 		bl	xlogging_get_log_function
 1300              	.LVL195:
 1301 0634 041E     		subs	r4, r0, #0
 1302              	.LVL196:
 1303 0636 0AD0     		beq	.L93
ARM GAS  C:\Users\Phuong\AppData\Local\Temp\ccU7OqD6.s 			page 29


 1304              		.loc 1 282 0 is_stmt 0 discriminator 4
 1305 0638 414B     		ldr	r3, .L202+16
 1306 063a 0193     		str	r3, [sp, #4]
 1307 063c 0123     		movs	r3, #1
 1308 063e 0093     		str	r3, [sp]
 1309 0640 1A33     		adds	r3, r3, #26
 1310 0642 FF33     		adds	r3, r3, #255
 1311 0644 3B4A     		ldr	r2, .L202+4
 1312 0646 1032     		adds	r2, r2, #16
 1313 0648 3B49     		ldr	r1, .L202+8
 1314 064a 0020     		movs	r0, #0
 1315              	.LVL197:
 1316 064c A047     		blx	r4
 1317              	.LVL198:
 1318              	.L93:
 1319              	.LBE40:
 283:Source\azure_iot_sdk\uamqp\src/amqpvalue_to_string.c ****                     free(result);
 1320              		.loc 1 283 0 is_stmt 1
 1321 064e 0F98     		ldr	r0, [sp, #60]
 1322 0650 FFF7FEFF 		bl	free
 1323              	.LVL199:
 284:Source\azure_iot_sdk\uamqp\src/amqpvalue_to_string.c ****                     result = NULL;
 1324              		.loc 1 284 0
 1325 0654 0023     		movs	r3, #0
 1326 0656 0F93     		str	r3, [sp, #60]
 1327 0658 00F01AFD 		bl	.L10	@ far jump
 1328              	.LVL200:
 1329              	.L25:
 1330              	.LBE39:
 1331              	.LBE37:
 1332              	.LBB41:
 285:Source\azure_iot_sdk\uamqp\src/amqpvalue_to_string.c ****                 }
 286:Source\azure_iot_sdk\uamqp\src/amqpvalue_to_string.c ****             }
 287:Source\azure_iot_sdk\uamqp\src/amqpvalue_to_string.c ****             break;
 288:Source\azure_iot_sdk\uamqp\src/amqpvalue_to_string.c ****         }
 289:Source\azure_iot_sdk\uamqp\src/amqpvalue_to_string.c ****         case AMQP_TYPE_CHAR:
 290:Source\azure_iot_sdk\uamqp\src/amqpvalue_to_string.c ****         {
 291:Source\azure_iot_sdk\uamqp\src/amqpvalue_to_string.c ****             uint32_t char_code;
 292:Source\azure_iot_sdk\uamqp\src/amqpvalue_to_string.c ****             if (amqpvalue_get_char(amqp_value, &char_code) != 0)
 1333              		.loc 1 292 0
 1334 065c 06A9     		add	r1, sp, #24
 1335 065e 2000     		movs	r0, r4
 1336 0660 FFF7FEFF 		bl	amqpvalue_get_char
 1337              	.LVL201:
 1338 0664 0028     		cmp	r0, #0
 1339 0666 15D0     		beq	.L94
 1340              	.LBB42:
 293:Source\azure_iot_sdk\uamqp\src/amqpvalue_to_string.c ****             {
 294:Source\azure_iot_sdk\uamqp\src/amqpvalue_to_string.c ****                 LogError("Failure getting char value");
 1341              		.loc 1 294 0 discriminator 3
 1342 0668 FFF7FEFF 		bl	xlogging_get_log_function
 1343              	.LVL202:
 1344 066c 041E     		subs	r4, r0, #0
 1345              	.LVL203:
 1346 066e 0AD0     		beq	.L95
 1347              		.loc 1 294 0 is_stmt 0 discriminator 4
 1348 0670 3C4B     		ldr	r3, .L202+52
ARM GAS  C:\Users\Phuong\AppData\Local\Temp\ccU7OqD6.s 			page 30


 1349 0672 0193     		str	r3, [sp, #4]
 1350 0674 0123     		movs	r3, #1
 1351 0676 0093     		str	r3, [sp]
 1352 0678 2633     		adds	r3, r3, #38
 1353 067a FF33     		adds	r3, r3, #255
 1354 067c 2D4A     		ldr	r2, .L202+4
 1355 067e 1032     		adds	r2, r2, #16
 1356 0680 2D49     		ldr	r1, .L202+8
 1357 0682 0020     		movs	r0, #0
 1358              	.LVL204:
 1359 0684 A047     		blx	r4
 1360              	.LVL205:
 1361              	.L95:
 1362              	.LBE42:
 295:Source\azure_iot_sdk\uamqp\src/amqpvalue_to_string.c ****                 free(result);
 1363              		.loc 1 295 0 is_stmt 1
 1364 0686 0F98     		ldr	r0, [sp, #60]
 1365 0688 FFF7FEFF 		bl	free
 1366              	.LVL206:
 296:Source\azure_iot_sdk\uamqp\src/amqpvalue_to_string.c ****                 result = NULL;
 1367              		.loc 1 296 0
 1368 068c 0023     		movs	r3, #0
 1369 068e 0F93     		str	r3, [sp, #60]
 1370 0690 00F0FEFC 		bl	.L10	@ far jump
 1371              	.LVL207:
 1372              	.L94:
 1373              	.LBB43:
 297:Source\azure_iot_sdk\uamqp\src/amqpvalue_to_string.c ****             }
 298:Source\azure_iot_sdk\uamqp\src/amqpvalue_to_string.c ****             else
 299:Source\azure_iot_sdk\uamqp\src/amqpvalue_to_string.c ****             {
 300:Source\azure_iot_sdk\uamqp\src/amqpvalue_to_string.c ****                 char str_value[25];
 301:Source\azure_iot_sdk\uamqp\src/amqpvalue_to_string.c ****                 if ((snprintf(str_value, sizeof(str_value), "U%02X%02X%02X%02X", char_code >> 24, (
 1374              		.loc 1 301 0
 1375 0694 069A     		ldr	r2, [sp, #24]
 1376 0696 110C     		lsrs	r1, r2, #16
 1377 0698 140A     		lsrs	r4, r2, #8
 1378              	.LVL208:
 1379 069a 130E     		lsrs	r3, r2, #24
 1380 069c FF20     		movs	r0, #255
 1381 069e 0240     		ands	r2, r0
 1382 06a0 0292     		str	r2, [sp, #8]
 1383 06a2 2200     		movs	r2, r4
 1384 06a4 0240     		ands	r2, r0
 1385 06a6 0192     		str	r2, [sp, #4]
 1386 06a8 0200     		movs	r2, r0
 1387 06aa 0A40     		ands	r2, r1
 1388 06ac 0092     		str	r2, [sp]
 1389 06ae 2E4A     		ldr	r2, .L202+56
 1390 06b0 1921     		movs	r1, #25
 1391 06b2 08A8     		add	r0, sp, #32
 1392 06b4 FFF7FEFF 		bl	snprintf
 1393              	.LVL209:
 1394 06b8 0028     		cmp	r0, #0
 1395 06ba 07DB     		blt	.L97
 302:Source\azure_iot_sdk\uamqp\src/amqpvalue_to_string.c ****                     (string_concat(&result, str_value) != 0))
 1396              		.loc 1 302 0 discriminator 1
 1397 06bc 08A9     		add	r1, sp, #32
ARM GAS  C:\Users\Phuong\AppData\Local\Temp\ccU7OqD6.s 			page 31


 1398 06be 0FA8     		add	r0, sp, #60
 1399 06c0 FFF7FEFF 		bl	string_concat
 1400              	.LVL210:
 301:Source\azure_iot_sdk\uamqp\src/amqpvalue_to_string.c ****                     (string_concat(&result, str_value) != 0))
 1401              		.loc 1 301 0 discriminator 1
 1402 06c4 0028     		cmp	r0, #0
 1403 06c6 01D1     		bne	.LCB1341
 1404 06c8 00F0E2FC 		bl	.L10	@far jump
 1405              	.LCB1341:
 1406              	.L97:
 1407              	.LBB44:
 303:Source\azure_iot_sdk\uamqp\src/amqpvalue_to_string.c ****                 {
 304:Source\azure_iot_sdk\uamqp\src/amqpvalue_to_string.c ****                     LogError("Failure building amqp value string");
 1408              		.loc 1 304 0 discriminator 3
 1409 06cc FFF7FEFF 		bl	xlogging_get_log_function
 1410              	.LVL211:
 1411 06d0 041E     		subs	r4, r0, #0
 1412              	.LVL212:
 1413 06d2 0AD0     		beq	.L99
 1414              		.loc 1 304 0 is_stmt 0 discriminator 4
 1415 06d4 1A4B     		ldr	r3, .L202+16
 1416 06d6 0193     		str	r3, [sp, #4]
 1417 06d8 0123     		movs	r3, #1
 1418 06da 0093     		str	r3, [sp]
 1419 06dc 3033     		adds	r3, r3, #48
 1420 06de FF33     		adds	r3, r3, #255
 1421 06e0 144A     		ldr	r2, .L202+4
 1422 06e2 1032     		adds	r2, r2, #16
 1423 06e4 1449     		ldr	r1, .L202+8
 1424 06e6 0020     		movs	r0, #0
 1425              	.LVL213:
 1426 06e8 A047     		blx	r4
 1427              	.LVL214:
 1428              	.L99:
 1429              	.LBE44:
 305:Source\azure_iot_sdk\uamqp\src/amqpvalue_to_string.c ****                     free(result);
 1430              		.loc 1 305 0 is_stmt 1
 1431 06ea 0F98     		ldr	r0, [sp, #60]
 1432 06ec FFF7FEFF 		bl	free
 1433              	.LVL215:
 306:Source\azure_iot_sdk\uamqp\src/amqpvalue_to_string.c ****                     result = NULL;
 1434              		.loc 1 306 0
 1435 06f0 0023     		movs	r3, #0
 1436 06f2 0F93     		str	r3, [sp, #60]
 1437 06f4 00F0CCFC 		bl	.L10	@ far jump
 1438              	.LVL216:
 1439              	.L26:
 1440              	.LBE43:
 1441              	.LBE41:
 1442              	.LBB45:
 307:Source\azure_iot_sdk\uamqp\src/amqpvalue_to_string.c ****                 }
 308:Source\azure_iot_sdk\uamqp\src/amqpvalue_to_string.c ****             }
 309:Source\azure_iot_sdk\uamqp\src/amqpvalue_to_string.c ****             break;
 310:Source\azure_iot_sdk\uamqp\src/amqpvalue_to_string.c ****         }
 311:Source\azure_iot_sdk\uamqp\src/amqpvalue_to_string.c ****         case AMQP_TYPE_TIMESTAMP:
 312:Source\azure_iot_sdk\uamqp\src/amqpvalue_to_string.c ****         {
 313:Source\azure_iot_sdk\uamqp\src/amqpvalue_to_string.c ****             char str_value[21];
ARM GAS  C:\Users\Phuong\AppData\Local\Temp\ccU7OqD6.s 			page 32


 314:Source\azure_iot_sdk\uamqp\src/amqpvalue_to_string.c ****             int64_t value;
 315:Source\azure_iot_sdk\uamqp\src/amqpvalue_to_string.c ****             if (amqpvalue_get_timestamp(amqp_value, &value) != 0)
 1443              		.loc 1 315 0
 1444 06f8 06A9     		add	r1, sp, #24
 1445 06fa 2000     		movs	r0, r4
 1446 06fc FFF7FEFF 		bl	amqpvalue_get_timestamp
 1447              	.LVL217:
 1448 0700 0028     		cmp	r0, #0
 1449 0702 35D0     		beq	.L100
 1450              	.LBB46:
 316:Source\azure_iot_sdk\uamqp\src/amqpvalue_to_string.c ****             {
 317:Source\azure_iot_sdk\uamqp\src/amqpvalue_to_string.c ****                 LogError("Failure getting timestamp value");
 1451              		.loc 1 317 0 discriminator 3
 1452 0704 FFF7FEFF 		bl	xlogging_get_log_function
 1453              	.LVL218:
 1454 0708 041E     		subs	r4, r0, #0
 1455              	.LVL219:
 1456 070a 0AD0     		beq	.L101
 1457              		.loc 1 317 0 is_stmt 0 discriminator 4
 1458 070c 174B     		ldr	r3, .L202+60
 1459 070e 0193     		str	r3, [sp, #4]
 1460 0710 0123     		movs	r3, #1
 1461 0712 0093     		str	r3, [sp]
 1462 0714 3E23     		movs	r3, #62
 1463 0716 FF33     		adds	r3, r3, #255
 1464 0718 064A     		ldr	r2, .L202+4
 1465 071a 1032     		adds	r2, r2, #16
 1466 071c 0649     		ldr	r1, .L202+8
 1467 071e 0020     		movs	r0, #0
 1468              	.LVL220:
 1469 0720 A047     		blx	r4
 1470              	.LVL221:
 1471              	.L101:
 1472              	.LBE46:
 318:Source\azure_iot_sdk\uamqp\src/amqpvalue_to_string.c ****                 free(result);
 1473              		.loc 1 318 0 is_stmt 1
 1474 0722 0F98     		ldr	r0, [sp, #60]
 1475 0724 FFF7FEFF 		bl	free
 1476              	.LVL222:
 319:Source\azure_iot_sdk\uamqp\src/amqpvalue_to_string.c ****                 result = NULL;
 1477              		.loc 1 319 0
 1478 0728 0023     		movs	r3, #0
 1479 072a 0F93     		str	r3, [sp, #60]
 1480 072c 00F0B0FC 		bl	.L10	@ far jump
 1481              	.L203:
 1482              		.align	2
 1483              	.L202:
 1484 0730 88010000 		.word	.LC44
 1485 0734 5C000000 		.word	.LANCHOR0
 1486 0738 00000000 		.word	.LC1
 1487 073c A4010000 		.word	.LC46
 1488 0740 98000000 		.word	.LC20
 1489 0744 A8010000 		.word	.LC48
 1490 0748 C4010000 		.word	.LC50
 1491 074c C8010000 		.word	.LC52
 1492 0750 E4010000 		.word	.LC54
 1493 0754 EC010000 		.word	.LC56
ARM GAS  C:\Users\Phuong\AppData\Local\Temp\ccU7OqD6.s 			page 33


 1494 0758 08020000 		.word	.LC58
 1495 075c 10020000 		.word	.LC60
 1496 0760 30020000 		.word	.LC62
 1497 0764 38020000 		.word	.LC64
 1498 0768 54020000 		.word	.LC66
 1499 076c 68020000 		.word	.LC68
 1500              	.LVL223:
 1501              	.L100:
 320:Source\azure_iot_sdk\uamqp\src/amqpvalue_to_string.c ****             }
 321:Source\azure_iot_sdk\uamqp\src/amqpvalue_to_string.c ****             else if ((sprintf(str_value, "%" PRId64, value) < 0) ||
 1502              		.loc 1 321 0
 1503 0770 069A     		ldr	r2, [sp, #24]
 1504 0772 079B     		ldr	r3, [sp, #28]
 1505 0774 CD49     		ldr	r1, .L204
 1506 0776 08A8     		add	r0, sp, #32
 1507 0778 FFF7FEFF 		bl	sprintf
 1508              	.LVL224:
 1509 077c 0028     		cmp	r0, #0
 1510 077e 07DB     		blt	.L103
 322:Source\azure_iot_sdk\uamqp\src/amqpvalue_to_string.c ****                      (string_concat(&result, str_value) != 0))
 1511              		.loc 1 322 0 discriminator 1
 1512 0780 08A9     		add	r1, sp, #32
 1513 0782 0FA8     		add	r0, sp, #60
 1514 0784 FFF7FEFF 		bl	string_concat
 1515              	.LVL225:
 321:Source\azure_iot_sdk\uamqp\src/amqpvalue_to_string.c ****                      (string_concat(&result, str_value) != 0))
 1516              		.loc 1 321 0 discriminator 1
 1517 0788 0028     		cmp	r0, #0
 1518 078a 01D1     		bne	.LCB1454
 1519 078c 00F080FC 		bl	.L10	@far jump
 1520              	.LCB1454:
 1521              	.L103:
 1522              	.LBB47:
 323:Source\azure_iot_sdk\uamqp\src/amqpvalue_to_string.c ****             {
 324:Source\azure_iot_sdk\uamqp\src/amqpvalue_to_string.c ****                 LogError("Failure building amqp value string");
 1523              		.loc 1 324 0 discriminator 3
 1524 0790 FFF7FEFF 		bl	xlogging_get_log_function
 1525              	.LVL226:
 1526 0794 041E     		subs	r4, r0, #0
 1527              	.LVL227:
 1528 0796 0AD0     		beq	.L104
 1529              		.loc 1 324 0 is_stmt 0 discriminator 4
 1530 0798 C54B     		ldr	r3, .L204+4
 1531 079a 0193     		str	r3, [sp, #4]
 1532 079c 0123     		movs	r3, #1
 1533 079e 0093     		str	r3, [sp]
 1534 07a0 4433     		adds	r3, r3, #68
 1535 07a2 FF33     		adds	r3, r3, #255
 1536 07a4 C34A     		ldr	r2, .L204+8
 1537 07a6 1032     		adds	r2, r2, #16
 1538 07a8 C349     		ldr	r1, .L204+12
 1539 07aa 0020     		movs	r0, #0
 1540              	.LVL228:
 1541 07ac A047     		blx	r4
 1542              	.LVL229:
 1543              	.L104:
 1544              	.LBE47:
ARM GAS  C:\Users\Phuong\AppData\Local\Temp\ccU7OqD6.s 			page 34


 325:Source\azure_iot_sdk\uamqp\src/amqpvalue_to_string.c ****                 free(result);
 1545              		.loc 1 325 0 is_stmt 1
 1546 07ae 0F98     		ldr	r0, [sp, #60]
 1547 07b0 FFF7FEFF 		bl	free
 1548              	.LVL230:
 326:Source\azure_iot_sdk\uamqp\src/amqpvalue_to_string.c ****                 result = NULL;
 1549              		.loc 1 326 0
 1550 07b4 0023     		movs	r3, #0
 1551 07b6 0F93     		str	r3, [sp, #60]
 1552 07b8 00F06AFC 		bl	.L10	@ far jump
 1553              	.LVL231:
 1554              	.L27:
 1555              	.LBE45:
 1556              	.LBB48:
 327:Source\azure_iot_sdk\uamqp\src/amqpvalue_to_string.c ****             }
 328:Source\azure_iot_sdk\uamqp\src/amqpvalue_to_string.c ****             break;
 329:Source\azure_iot_sdk\uamqp\src/amqpvalue_to_string.c ****         }
 330:Source\azure_iot_sdk\uamqp\src/amqpvalue_to_string.c ****         case AMQP_TYPE_UUID:
 331:Source\azure_iot_sdk\uamqp\src/amqpvalue_to_string.c ****         {
 332:Source\azure_iot_sdk\uamqp\src/amqpvalue_to_string.c ****             uuid uuid_value;
 333:Source\azure_iot_sdk\uamqp\src/amqpvalue_to_string.c ****             if (amqpvalue_get_uuid(amqp_value, &uuid_value) != 0)
 1557              		.loc 1 333 0
 1558 07bc 08A9     		add	r1, sp, #32
 1559 07be 2000     		movs	r0, r4
 1560 07c0 FFF7FEFF 		bl	amqpvalue_get_uuid
 1561              	.LVL232:
 1562 07c4 0028     		cmp	r0, #0
 1563 07c6 15D0     		beq	.L105
 1564              	.LBB49:
 334:Source\azure_iot_sdk\uamqp\src/amqpvalue_to_string.c ****             {
 335:Source\azure_iot_sdk\uamqp\src/amqpvalue_to_string.c ****                 LogError("Failure getting uuid value");
 1565              		.loc 1 335 0 discriminator 3
 1566 07c8 FFF7FEFF 		bl	xlogging_get_log_function
 1567              	.LVL233:
 1568 07cc 041E     		subs	r4, r0, #0
 1569              	.LVL234:
 1570 07ce 0AD0     		beq	.L106
 1571              		.loc 1 335 0 is_stmt 0 discriminator 4
 1572 07d0 BA4B     		ldr	r3, .L204+16
 1573 07d2 0193     		str	r3, [sp, #4]
 1574 07d4 0123     		movs	r3, #1
 1575 07d6 0093     		str	r3, [sp]
 1576 07d8 5023     		movs	r3, #80
 1577 07da FF33     		adds	r3, r3, #255
 1578 07dc B54A     		ldr	r2, .L204+8
 1579 07de 1032     		adds	r2, r2, #16
 1580 07e0 B549     		ldr	r1, .L204+12
 1581 07e2 0020     		movs	r0, #0
 1582              	.LVL235:
 1583 07e4 A047     		blx	r4
 1584              	.LVL236:
 1585              	.L106:
 1586              	.LBE49:
 336:Source\azure_iot_sdk\uamqp\src/amqpvalue_to_string.c ****                 free(result);
 1587              		.loc 1 336 0 is_stmt 1
 1588 07e6 0F98     		ldr	r0, [sp, #60]
 1589 07e8 FFF7FEFF 		bl	free
ARM GAS  C:\Users\Phuong\AppData\Local\Temp\ccU7OqD6.s 			page 35


 1590              	.LVL237:
 337:Source\azure_iot_sdk\uamqp\src/amqpvalue_to_string.c ****                 result = NULL;
 1591              		.loc 1 337 0
 1592 07ec 0023     		movs	r3, #0
 1593 07ee 0F93     		str	r3, [sp, #60]
 1594 07f0 00F04EFC 		bl	.L10	@ far jump
 1595              	.LVL238:
 1596              	.L105:
 1597              	.LBB50:
 338:Source\azure_iot_sdk\uamqp\src/amqpvalue_to_string.c ****             }
 339:Source\azure_iot_sdk\uamqp\src/amqpvalue_to_string.c ****             else
 340:Source\azure_iot_sdk\uamqp\src/amqpvalue_to_string.c ****             {
 341:Source\azure_iot_sdk\uamqp\src/amqpvalue_to_string.c ****                 char* uuid_string_value = UUID_to_string((const UUID_T *)&uuid_value);
 1598              		.loc 1 341 0
 1599 07f4 08A8     		add	r0, sp, #32
 1600 07f6 FFF7FEFF 		bl	UUID_to_string
 1601              	.LVL239:
 1602 07fa 041E     		subs	r4, r0, #0
 1603              	.LVL240:
 342:Source\azure_iot_sdk\uamqp\src/amqpvalue_to_string.c ****                 if (uuid_string_value == NULL)
 1604              		.loc 1 342 0
 1605 07fc 15D1     		bne	.L108
 1606              	.LBB51:
 343:Source\azure_iot_sdk\uamqp\src/amqpvalue_to_string.c ****                 {
 344:Source\azure_iot_sdk\uamqp\src/amqpvalue_to_string.c ****                     LogError("Failure getting UUID stringified value");
 1607              		.loc 1 344 0 discriminator 3
 1608 07fe FFF7FEFF 		bl	xlogging_get_log_function
 1609              	.LVL241:
 1610 0802 041E     		subs	r4, r0, #0
 1611              	.LVL242:
 1612 0804 0AD0     		beq	.L109
 1613              		.loc 1 344 0 is_stmt 0 discriminator 4
 1614 0806 AE4B     		ldr	r3, .L204+20
 1615 0808 0193     		str	r3, [sp, #4]
 1616 080a 0123     		movs	r3, #1
 1617 080c 0093     		str	r3, [sp]
 1618 080e 5833     		adds	r3, r3, #88
 1619 0810 FF33     		adds	r3, r3, #255
 1620 0812 A84A     		ldr	r2, .L204+8
 1621 0814 1032     		adds	r2, r2, #16
 1622 0816 A849     		ldr	r1, .L204+12
 1623 0818 0020     		movs	r0, #0
 1624              	.LVL243:
 1625 081a A047     		blx	r4
 1626              	.LVL244:
 1627              	.L109:
 1628              	.LBE51:
 345:Source\azure_iot_sdk\uamqp\src/amqpvalue_to_string.c ****                     free(result);
 1629              		.loc 1 345 0 is_stmt 1
 1630 081c 0F98     		ldr	r0, [sp, #60]
 1631 081e FFF7FEFF 		bl	free
 1632              	.LVL245:
 346:Source\azure_iot_sdk\uamqp\src/amqpvalue_to_string.c ****                     result = NULL;
 1633              		.loc 1 346 0
 1634 0822 0023     		movs	r3, #0
 1635 0824 0F93     		str	r3, [sp, #60]
 1636 0826 00F033FC 		bl	.L10	@ far jump
ARM GAS  C:\Users\Phuong\AppData\Local\Temp\ccU7OqD6.s 			page 36


 1637              	.LVL246:
 1638              	.L108:
 347:Source\azure_iot_sdk\uamqp\src/amqpvalue_to_string.c ****                 }
 348:Source\azure_iot_sdk\uamqp\src/amqpvalue_to_string.c ****                 else
 349:Source\azure_iot_sdk\uamqp\src/amqpvalue_to_string.c ****                 {
 350:Source\azure_iot_sdk\uamqp\src/amqpvalue_to_string.c ****                     if (string_concat(&result, uuid_string_value) != 0)
 1639              		.loc 1 350 0
 1640 082a 0100     		movs	r1, r0
 1641 082c 0FA8     		add	r0, sp, #60
 1642              	.LVL247:
 1643 082e FFF7FEFF 		bl	string_concat
 1644              	.LVL248:
 1645 0832 0028     		cmp	r0, #0
 1646 0834 13D0     		beq	.L110
 1647              	.LBB52:
 351:Source\azure_iot_sdk\uamqp\src/amqpvalue_to_string.c ****                     {
 352:Source\azure_iot_sdk\uamqp\src/amqpvalue_to_string.c ****                         LogError("Failure building amqp value string");
 1648              		.loc 1 352 0 discriminator 3
 1649 0836 FFF7FEFF 		bl	xlogging_get_log_function
 1650              	.LVL249:
 1651 083a 051E     		subs	r5, r0, #0
 1652              	.LVL250:
 1653 083c 0AD0     		beq	.L111
 1654              		.loc 1 352 0 is_stmt 0 discriminator 4
 1655 083e 9C4B     		ldr	r3, .L204+4
 1656 0840 0193     		str	r3, [sp, #4]
 1657 0842 0123     		movs	r3, #1
 1658 0844 0093     		str	r3, [sp]
 1659 0846 6033     		adds	r3, r3, #96
 1660 0848 FF33     		adds	r3, r3, #255
 1661 084a 9A4A     		ldr	r2, .L204+8
 1662 084c 1032     		adds	r2, r2, #16
 1663 084e 9A49     		ldr	r1, .L204+12
 1664 0850 0020     		movs	r0, #0
 1665              	.LVL251:
 1666 0852 A847     		blx	r5
 1667              	.LVL252:
 1668              	.L111:
 1669              	.LBE52:
 353:Source\azure_iot_sdk\uamqp\src/amqpvalue_to_string.c ****                         free(result);
 1670              		.loc 1 353 0 is_stmt 1
 1671 0854 0F98     		ldr	r0, [sp, #60]
 1672 0856 FFF7FEFF 		bl	free
 1673              	.LVL253:
 354:Source\azure_iot_sdk\uamqp\src/amqpvalue_to_string.c ****                         result = NULL;
 1674              		.loc 1 354 0
 1675 085a 0023     		movs	r3, #0
 1676 085c 0F93     		str	r3, [sp, #60]
 1677              	.LVL254:
 1678              	.L110:
 355:Source\azure_iot_sdk\uamqp\src/amqpvalue_to_string.c ****                     }
 356:Source\azure_iot_sdk\uamqp\src/amqpvalue_to_string.c **** 
 357:Source\azure_iot_sdk\uamqp\src/amqpvalue_to_string.c ****                     free(uuid_string_value);
 1679              		.loc 1 357 0
 1680 085e 2000     		movs	r0, r4
 1681 0860 FFF7FEFF 		bl	free
 1682              	.LVL255:
ARM GAS  C:\Users\Phuong\AppData\Local\Temp\ccU7OqD6.s 			page 37


 1683 0864 00F014FC 		bl	.L10	@ far jump
 1684              	.LVL256:
 1685              	.L28:
 1686              	.LBE50:
 1687              	.LBE48:
 1688              	.LBB53:
 358:Source\azure_iot_sdk\uamqp\src/amqpvalue_to_string.c ****                 }
 359:Source\azure_iot_sdk\uamqp\src/amqpvalue_to_string.c ****             }
 360:Source\azure_iot_sdk\uamqp\src/amqpvalue_to_string.c **** 
 361:Source\azure_iot_sdk\uamqp\src/amqpvalue_to_string.c ****             break;
 362:Source\azure_iot_sdk\uamqp\src/amqpvalue_to_string.c ****         }
 363:Source\azure_iot_sdk\uamqp\src/amqpvalue_to_string.c **** 
 364:Source\azure_iot_sdk\uamqp\src/amqpvalue_to_string.c ****         case AMQP_TYPE_BINARY:
 365:Source\azure_iot_sdk\uamqp\src/amqpvalue_to_string.c ****         {
 366:Source\azure_iot_sdk\uamqp\src/amqpvalue_to_string.c ****             amqp_binary binary_value;
 367:Source\azure_iot_sdk\uamqp\src/amqpvalue_to_string.c ****             if (amqpvalue_get_binary(amqp_value, &binary_value) != 0)
 1689              		.loc 1 367 0
 1690 0868 08A9     		add	r1, sp, #32
 1691 086a 2000     		movs	r0, r4
 1692 086c FFF7FEFF 		bl	amqpvalue_get_binary
 1693              	.LVL257:
 1694 0870 0028     		cmp	r0, #0
 1695 0872 15D0     		beq	.L112
 1696              	.LBB54:
 368:Source\azure_iot_sdk\uamqp\src/amqpvalue_to_string.c ****             {
 369:Source\azure_iot_sdk\uamqp\src/amqpvalue_to_string.c ****                 LogError("Failure getting binary value");
 1697              		.loc 1 369 0 discriminator 3
 1698 0874 FFF7FEFF 		bl	xlogging_get_log_function
 1699              	.LVL258:
 1700 0878 041E     		subs	r4, r0, #0
 1701              	.LVL259:
 1702 087a 0AD0     		beq	.L113
 1703              		.loc 1 369 0 is_stmt 0 discriminator 4
 1704 087c 914B     		ldr	r3, .L204+24
 1705 087e 0193     		str	r3, [sp, #4]
 1706 0880 0123     		movs	r3, #1
 1707 0882 0093     		str	r3, [sp]
 1708 0884 7223     		movs	r3, #114
 1709 0886 FF33     		adds	r3, r3, #255
 1710 0888 8A4A     		ldr	r2, .L204+8
 1711 088a 1032     		adds	r2, r2, #16
 1712 088c 8A49     		ldr	r1, .L204+12
 1713 088e 0020     		movs	r0, #0
 1714              	.LVL260:
 1715 0890 A047     		blx	r4
 1716              	.LVL261:
 1717              	.L113:
 1718              	.LBE54:
 370:Source\azure_iot_sdk\uamqp\src/amqpvalue_to_string.c ****                 free(result);
 1719              		.loc 1 370 0 is_stmt 1
 1720 0892 0F98     		ldr	r0, [sp, #60]
 1721 0894 FFF7FEFF 		bl	free
 1722              	.LVL262:
 371:Source\azure_iot_sdk\uamqp\src/amqpvalue_to_string.c ****                 result = NULL;
 1723              		.loc 1 371 0
 1724 0898 0023     		movs	r3, #0
 1725 089a 0F93     		str	r3, [sp, #60]
ARM GAS  C:\Users\Phuong\AppData\Local\Temp\ccU7OqD6.s 			page 38


 1726 089c 00F0F8FB 		bl	.L10	@ far jump
 1727              	.LVL263:
 1728              	.L112:
 372:Source\azure_iot_sdk\uamqp\src/amqpvalue_to_string.c ****             }
 373:Source\azure_iot_sdk\uamqp\src/amqpvalue_to_string.c ****             else
 374:Source\azure_iot_sdk\uamqp\src/amqpvalue_to_string.c ****             {
 375:Source\azure_iot_sdk\uamqp\src/amqpvalue_to_string.c ****                 if (string_concat(&result, "<") != 0)
 1729              		.loc 1 375 0
 1730 08a0 8949     		ldr	r1, .L204+28
 1731 08a2 0FA8     		add	r0, sp, #60
 1732 08a4 FFF7FEFF 		bl	string_concat
 1733              	.LVL264:
 1734 08a8 0028     		cmp	r0, #0
 1735 08aa 31D0     		beq	.L194
 1736              	.LBB55:
 376:Source\azure_iot_sdk\uamqp\src/amqpvalue_to_string.c ****                 {
 377:Source\azure_iot_sdk\uamqp\src/amqpvalue_to_string.c ****                     LogError("Failure building amqp value string");
 1737              		.loc 1 377 0 discriminator 3
 1738 08ac FFF7FEFF 		bl	xlogging_get_log_function
 1739              	.LVL265:
 1740 08b0 041E     		subs	r4, r0, #0
 1741              	.LVL266:
 1742 08b2 0AD0     		beq	.L116
 1743              		.loc 1 377 0 is_stmt 0 discriminator 4
 1744 08b4 7E4B     		ldr	r3, .L204+4
 1745 08b6 0193     		str	r3, [sp, #4]
 1746 08b8 0123     		movs	r3, #1
 1747 08ba 0093     		str	r3, [sp]
 1748 08bc 7A23     		movs	r3, #122
 1749 08be FF33     		adds	r3, r3, #255
 1750 08c0 7C4A     		ldr	r2, .L204+8
 1751 08c2 1032     		adds	r2, r2, #16
 1752 08c4 7C49     		ldr	r1, .L204+12
 1753 08c6 0020     		movs	r0, #0
 1754              	.LVL267:
 1755 08c8 A047     		blx	r4
 1756              	.LVL268:
 1757              	.L116:
 1758              	.LBE55:
 378:Source\azure_iot_sdk\uamqp\src/amqpvalue_to_string.c ****                     free(result);
 1759              		.loc 1 378 0 is_stmt 1
 1760 08ca 0F98     		ldr	r0, [sp, #60]
 1761 08cc FFF7FEFF 		bl	free
 1762              	.LVL269:
 379:Source\azure_iot_sdk\uamqp\src/amqpvalue_to_string.c ****                     result = NULL;
 1763              		.loc 1 379 0
 1764 08d0 0023     		movs	r3, #0
 1765 08d2 0F93     		str	r3, [sp, #60]
 1766 08d4 00F0DCFB 		bl	.L10	@ far jump
 1767              	.LVL270:
 1768              	.L121:
 1769              	.LBB56:
 1770              	.LBB57:
 380:Source\azure_iot_sdk\uamqp\src/amqpvalue_to_string.c ****                 }
 381:Source\azure_iot_sdk\uamqp\src/amqpvalue_to_string.c ****                 else
 382:Source\azure_iot_sdk\uamqp\src/amqpvalue_to_string.c ****                 {
 383:Source\azure_iot_sdk\uamqp\src/amqpvalue_to_string.c ****                     uint64_t i;
ARM GAS  C:\Users\Phuong\AppData\Local\Temp\ccU7OqD6.s 			page 39


 384:Source\azure_iot_sdk\uamqp\src/amqpvalue_to_string.c **** 
 385:Source\azure_iot_sdk\uamqp\src/amqpvalue_to_string.c ****                     for (i = 0; i < binary_value.length; i++)
 386:Source\azure_iot_sdk\uamqp\src/amqpvalue_to_string.c ****                     {
 387:Source\azure_iot_sdk\uamqp\src/amqpvalue_to_string.c ****                         char str_value[4];
 388:Source\azure_iot_sdk\uamqp\src/amqpvalue_to_string.c ****                         if ((snprintf(str_value, sizeof(str_value), "%s%02X", (i > 0) ? " " : "", (
 1771              		.loc 1 388 0
 1772 08d8 2300     		movs	r3, r4
 1773 08da 2B43     		orrs	r3, r5
 1774 08dc 01D0     		beq	.L195
 1775 08de 7B4B     		ldr	r3, .L204+32
 1776 08e0 00E0     		b	.L117
 1777              	.L195:
 1778 08e2 7B4B     		ldr	r3, .L204+36
 1779              	.L117:
 1780              		.loc 1 388 0 is_stmt 0 discriminator 4
 1781 08e4 089A     		ldr	r2, [sp, #32]
 1782 08e6 1219     		adds	r2, r2, r4
 1783 08e8 1278     		ldrb	r2, [r2]
 1784 08ea 0092     		str	r2, [sp]
 1785 08ec 794A     		ldr	r2, .L204+40
 1786 08ee 0421     		movs	r1, #4
 1787 08f0 06A8     		add	r0, sp, #24
 1788 08f2 FFF7FEFF 		bl	snprintf
 1789              	.LVL271:
 1790 08f6 0028     		cmp	r0, #0
 1791 08f8 11DB     		blt	.L120
 389:Source\azure_iot_sdk\uamqp\src/amqpvalue_to_string.c ****                             (string_concat(&result, str_value) != 0))
 1792              		.loc 1 389 0 is_stmt 1 discriminator 5
 1793 08fa 06A9     		add	r1, sp, #24
 1794 08fc 0FA8     		add	r0, sp, #60
 1795 08fe FFF7FEFF 		bl	string_concat
 1796              	.LVL272:
 388:Source\azure_iot_sdk\uamqp\src/amqpvalue_to_string.c ****                             (string_concat(&result, str_value) != 0))
 1797              		.loc 1 388 0 discriminator 5
 1798 0902 0028     		cmp	r0, #0
 1799 0904 0BD1     		bne	.L120
 1800              	.LBE57:
 385:Source\azure_iot_sdk\uamqp\src/amqpvalue_to_string.c ****                     {
 1801              		.loc 1 385 0
 1802 0906 0122     		movs	r2, #1
 1803 0908 0023     		movs	r3, #0
 1804 090a A418     		adds	r4, r4, r2
 1805 090c 5D41     		adcs	r5, r5, r3
 1806              	.LVL273:
 1807 090e 01E0     		b	.L115
 1808              	.LVL274:
 1809              	.L194:
 1810              	.LBE56:
 1811 0910 0024     		movs	r4, #0
 1812              	.LVL275:
 1813 0912 0025     		movs	r5, #0
 1814              	.L115:
 1815              	.LVL276:
 1816              	.LBB59:
 385:Source\azure_iot_sdk\uamqp\src/amqpvalue_to_string.c ****                     {
 1817              		.loc 1 385 0 is_stmt 0 discriminator 1
 1818 0914 099B     		ldr	r3, [sp, #36]
ARM GAS  C:\Users\Phuong\AppData\Local\Temp\ccU7OqD6.s 			page 40


 1819 0916 002D     		cmp	r5, #0
 1820 0918 01D1     		bne	.L120
 1821 091a A342     		cmp	r3, r4
 1822 091c DCD8     		bhi	.L121
 1823              	.L120:
 390:Source\azure_iot_sdk\uamqp\src/amqpvalue_to_string.c ****                         {
 391:Source\azure_iot_sdk\uamqp\src/amqpvalue_to_string.c ****                             break;
 392:Source\azure_iot_sdk\uamqp\src/amqpvalue_to_string.c ****                         }
 393:Source\azure_iot_sdk\uamqp\src/amqpvalue_to_string.c ****                     }
 394:Source\azure_iot_sdk\uamqp\src/amqpvalue_to_string.c **** 
 395:Source\azure_iot_sdk\uamqp\src/amqpvalue_to_string.c ****                     if ((i < binary_value.length) ||
 1824              		.loc 1 395 0 is_stmt 1
 1825 091e 099B     		ldr	r3, [sp, #36]
 1826 0920 002D     		cmp	r5, #0
 1827 0922 01D1     		bne	.L199
 1828 0924 A342     		cmp	r3, r4
 1829 0926 06D8     		bhi	.L123
 1830              	.L199:
 396:Source\azure_iot_sdk\uamqp\src/amqpvalue_to_string.c ****                         (string_concat(&result, ">") != 0))
 1831              		.loc 1 396 0 discriminator 1
 1832 0928 6B49     		ldr	r1, .L204+44
 1833 092a 0FA8     		add	r0, sp, #60
 1834 092c FFF7FEFF 		bl	string_concat
 1835              	.LVL277:
 395:Source\azure_iot_sdk\uamqp\src/amqpvalue_to_string.c ****                         (string_concat(&result, ">") != 0))
 1836              		.loc 1 395 0 discriminator 1
 1837 0930 0028     		cmp	r0, #0
 1838 0932 00D1     		bne	.LCB1784
 1839 0934 ACE3     		b	.L10	@long jump
 1840              	.LCB1784:
 1841              	.L123:
 1842              	.LBB58:
 397:Source\azure_iot_sdk\uamqp\src/amqpvalue_to_string.c ****                     {
 398:Source\azure_iot_sdk\uamqp\src/amqpvalue_to_string.c ****                         LogError("Failure building amqp value string");
 1843              		.loc 1 398 0 discriminator 3
 1844 0936 FFF7FEFF 		bl	xlogging_get_log_function
 1845              	.LVL278:
 1846 093a 041E     		subs	r4, r0, #0
 1847              	.LVL279:
 1848 093c 0AD0     		beq	.L125
 1849              		.loc 1 398 0 is_stmt 0 discriminator 4
 1850 093e 5C4B     		ldr	r3, .L204+4
 1851 0940 0193     		str	r3, [sp, #4]
 1852 0942 0123     		movs	r3, #1
 1853 0944 0093     		str	r3, [sp]
 1854 0946 8E33     		adds	r3, r3, #142
 1855 0948 FF33     		adds	r3, r3, #255
 1856 094a 5A4A     		ldr	r2, .L204+8
 1857 094c 1032     		adds	r2, r2, #16
 1858 094e 5A49     		ldr	r1, .L204+12
 1859 0950 0020     		movs	r0, #0
 1860              	.LVL280:
 1861 0952 A047     		blx	r4
 1862              	.LVL281:
 1863              	.L125:
 1864              	.LBE58:
 399:Source\azure_iot_sdk\uamqp\src/amqpvalue_to_string.c ****                         free(result);
ARM GAS  C:\Users\Phuong\AppData\Local\Temp\ccU7OqD6.s 			page 41


 1865              		.loc 1 399 0 is_stmt 1
 1866 0954 0F98     		ldr	r0, [sp, #60]
 1867 0956 FFF7FEFF 		bl	free
 1868              	.LVL282:
 400:Source\azure_iot_sdk\uamqp\src/amqpvalue_to_string.c ****                         result = NULL;
 1869              		.loc 1 400 0
 1870 095a 0023     		movs	r3, #0
 1871 095c 0F93     		str	r3, [sp, #60]
 1872 095e 97E3     		b	.L10
 1873              	.LVL283:
 1874              	.L29:
 1875              	.LBE59:
 1876              	.LBE53:
 1877              	.LBB60:
 401:Source\azure_iot_sdk\uamqp\src/amqpvalue_to_string.c ****                     }
 402:Source\azure_iot_sdk\uamqp\src/amqpvalue_to_string.c ****                 }
 403:Source\azure_iot_sdk\uamqp\src/amqpvalue_to_string.c ****             }
 404:Source\azure_iot_sdk\uamqp\src/amqpvalue_to_string.c ****             break;
 405:Source\azure_iot_sdk\uamqp\src/amqpvalue_to_string.c ****         }
 406:Source\azure_iot_sdk\uamqp\src/amqpvalue_to_string.c ****         case AMQP_TYPE_STRING:
 407:Source\azure_iot_sdk\uamqp\src/amqpvalue_to_string.c ****         {
 408:Source\azure_iot_sdk\uamqp\src/amqpvalue_to_string.c ****             const char* string_value;
 409:Source\azure_iot_sdk\uamqp\src/amqpvalue_to_string.c ****             if (amqpvalue_get_string(amqp_value, &string_value) != 0)
 1878              		.loc 1 409 0
 1879 0960 08A9     		add	r1, sp, #32
 1880 0962 2000     		movs	r0, r4
 1881 0964 FFF7FEFF 		bl	amqpvalue_get_string
 1882              	.LVL284:
 1883 0968 0028     		cmp	r0, #0
 1884 096a 14D0     		beq	.L126
 1885              	.LBB61:
 410:Source\azure_iot_sdk\uamqp\src/amqpvalue_to_string.c ****             {
 411:Source\azure_iot_sdk\uamqp\src/amqpvalue_to_string.c ****                 LogError("Failure getting string value");
 1886              		.loc 1 411 0 discriminator 3
 1887 096c FFF7FEFF 		bl	xlogging_get_log_function
 1888              	.LVL285:
 1889 0970 041E     		subs	r4, r0, #0
 1890              	.LVL286:
 1891 0972 0AD0     		beq	.L127
 1892              		.loc 1 411 0 is_stmt 0 discriminator 4
 1893 0974 594B     		ldr	r3, .L204+48
 1894 0976 0193     		str	r3, [sp, #4]
 1895 0978 0123     		movs	r3, #1
 1896 097a 0093     		str	r3, [sp]
 1897 097c 9C23     		movs	r3, #156
 1898 097e FF33     		adds	r3, r3, #255
 1899 0980 4C4A     		ldr	r2, .L204+8
 1900 0982 1032     		adds	r2, r2, #16
 1901 0984 4C49     		ldr	r1, .L204+12
 1902 0986 0020     		movs	r0, #0
 1903              	.LVL287:
 1904 0988 A047     		blx	r4
 1905              	.LVL288:
 1906              	.L127:
 1907              	.LBE61:
 412:Source\azure_iot_sdk\uamqp\src/amqpvalue_to_string.c ****                 free(result);
 1908              		.loc 1 412 0 is_stmt 1
ARM GAS  C:\Users\Phuong\AppData\Local\Temp\ccU7OqD6.s 			page 42


 1909 098a 0F98     		ldr	r0, [sp, #60]
 1910 098c FFF7FEFF 		bl	free
 1911              	.LVL289:
 413:Source\azure_iot_sdk\uamqp\src/amqpvalue_to_string.c ****                 result = NULL;
 1912              		.loc 1 413 0
 1913 0990 0023     		movs	r3, #0
 1914 0992 0F93     		str	r3, [sp, #60]
 1915 0994 7CE3     		b	.L10
 1916              	.LVL290:
 1917              	.L126:
 414:Source\azure_iot_sdk\uamqp\src/amqpvalue_to_string.c ****             }
 415:Source\azure_iot_sdk\uamqp\src/amqpvalue_to_string.c ****             else
 416:Source\azure_iot_sdk\uamqp\src/amqpvalue_to_string.c ****             {
 417:Source\azure_iot_sdk\uamqp\src/amqpvalue_to_string.c ****                 if (string_concat(&result, string_value) != 0)
 1918              		.loc 1 417 0
 1919 0996 0899     		ldr	r1, [sp, #32]
 1920 0998 0FA8     		add	r0, sp, #60
 1921 099a FFF7FEFF 		bl	string_concat
 1922              	.LVL291:
 1923 099e 0028     		cmp	r0, #0
 1924 09a0 00D1     		bne	.LCB1871
 1925 09a2 75E3     		b	.L10	@long jump
 1926              	.LCB1871:
 1927              	.LBB62:
 418:Source\azure_iot_sdk\uamqp\src/amqpvalue_to_string.c ****                 {
 419:Source\azure_iot_sdk\uamqp\src/amqpvalue_to_string.c ****                     LogError("Failure building amqp value string");
 1928              		.loc 1 419 0 discriminator 3
 1929 09a4 FFF7FEFF 		bl	xlogging_get_log_function
 1930              	.LVL292:
 1931 09a8 041E     		subs	r4, r0, #0
 1932              	.LVL293:
 1933 09aa 0AD0     		beq	.L129
 1934              		.loc 1 419 0 is_stmt 0 discriminator 4
 1935 09ac 404B     		ldr	r3, .L204+4
 1936 09ae 0193     		str	r3, [sp, #4]
 1937 09b0 0123     		movs	r3, #1
 1938 09b2 0093     		str	r3, [sp]
 1939 09b4 A423     		movs	r3, #164
 1940 09b6 FF33     		adds	r3, r3, #255
 1941 09b8 3E4A     		ldr	r2, .L204+8
 1942 09ba 1032     		adds	r2, r2, #16
 1943 09bc 3E49     		ldr	r1, .L204+12
 1944 09be 0020     		movs	r0, #0
 1945              	.LVL294:
 1946 09c0 A047     		blx	r4
 1947              	.LVL295:
 1948              	.L129:
 1949              	.LBE62:
 420:Source\azure_iot_sdk\uamqp\src/amqpvalue_to_string.c ****                     free(result);
 1950              		.loc 1 420 0 is_stmt 1
 1951 09c2 0F98     		ldr	r0, [sp, #60]
 1952 09c4 FFF7FEFF 		bl	free
 1953              	.LVL296:
 421:Source\azure_iot_sdk\uamqp\src/amqpvalue_to_string.c ****                     result = NULL;
 1954              		.loc 1 421 0
 1955 09c8 0023     		movs	r3, #0
 1956 09ca 0F93     		str	r3, [sp, #60]
ARM GAS  C:\Users\Phuong\AppData\Local\Temp\ccU7OqD6.s 			page 43


 1957 09cc 60E3     		b	.L10
 1958              	.LVL297:
 1959              	.L30:
 1960              	.LBE60:
 1961              	.LBB63:
 422:Source\azure_iot_sdk\uamqp\src/amqpvalue_to_string.c ****                 }
 423:Source\azure_iot_sdk\uamqp\src/amqpvalue_to_string.c ****             }
 424:Source\azure_iot_sdk\uamqp\src/amqpvalue_to_string.c ****             break;
 425:Source\azure_iot_sdk\uamqp\src/amqpvalue_to_string.c ****         }
 426:Source\azure_iot_sdk\uamqp\src/amqpvalue_to_string.c ****         case AMQP_TYPE_SYMBOL:
 427:Source\azure_iot_sdk\uamqp\src/amqpvalue_to_string.c ****         {
 428:Source\azure_iot_sdk\uamqp\src/amqpvalue_to_string.c ****             const char* string_value;
 429:Source\azure_iot_sdk\uamqp\src/amqpvalue_to_string.c ****             if (amqpvalue_get_symbol(amqp_value, &string_value) != 0)
 1962              		.loc 1 429 0
 1963 09ce 08A9     		add	r1, sp, #32
 1964 09d0 2000     		movs	r0, r4
 1965 09d2 FFF7FEFF 		bl	amqpvalue_get_symbol
 1966              	.LVL298:
 1967 09d6 0028     		cmp	r0, #0
 1968 09d8 14D0     		beq	.L130
 1969              	.LBB64:
 430:Source\azure_iot_sdk\uamqp\src/amqpvalue_to_string.c ****             {
 431:Source\azure_iot_sdk\uamqp\src/amqpvalue_to_string.c ****                 LogError("Failure getting symbol value");
 1970              		.loc 1 431 0 discriminator 3
 1971 09da FFF7FEFF 		bl	xlogging_get_log_function
 1972              	.LVL299:
 1973 09de 041E     		subs	r4, r0, #0
 1974              	.LVL300:
 1975 09e0 0AD0     		beq	.L131
 1976              		.loc 1 431 0 is_stmt 0 discriminator 4
 1977 09e2 3F4B     		ldr	r3, .L204+52
 1978 09e4 0193     		str	r3, [sp, #4]
 1979 09e6 0123     		movs	r3, #1
 1980 09e8 0093     		str	r3, [sp]
 1981 09ea B023     		movs	r3, #176
 1982 09ec FF33     		adds	r3, r3, #255
 1983 09ee 314A     		ldr	r2, .L204+8
 1984 09f0 1032     		adds	r2, r2, #16
 1985 09f2 3149     		ldr	r1, .L204+12
 1986 09f4 0020     		movs	r0, #0
 1987              	.LVL301:
 1988 09f6 A047     		blx	r4
 1989              	.LVL302:
 1990              	.L131:
 1991              	.LBE64:
 432:Source\azure_iot_sdk\uamqp\src/amqpvalue_to_string.c ****                 free(result);
 1992              		.loc 1 432 0 is_stmt 1
 1993 09f8 0F98     		ldr	r0, [sp, #60]
 1994 09fa FFF7FEFF 		bl	free
 1995              	.LVL303:
 433:Source\azure_iot_sdk\uamqp\src/amqpvalue_to_string.c ****                 result = NULL;
 1996              		.loc 1 433 0
 1997 09fe 0023     		movs	r3, #0
 1998 0a00 0F93     		str	r3, [sp, #60]
 1999 0a02 45E3     		b	.L10
 2000              	.LVL304:
 2001              	.L130:
ARM GAS  C:\Users\Phuong\AppData\Local\Temp\ccU7OqD6.s 			page 44


 434:Source\azure_iot_sdk\uamqp\src/amqpvalue_to_string.c ****             }
 435:Source\azure_iot_sdk\uamqp\src/amqpvalue_to_string.c ****             else
 436:Source\azure_iot_sdk\uamqp\src/amqpvalue_to_string.c ****             {
 437:Source\azure_iot_sdk\uamqp\src/amqpvalue_to_string.c ****                 if (string_concat(&result, string_value) != 0)
 2002              		.loc 1 437 0
 2003 0a04 0899     		ldr	r1, [sp, #32]
 2004 0a06 0FA8     		add	r0, sp, #60
 2005 0a08 FFF7FEFF 		bl	string_concat
 2006              	.LVL305:
 2007 0a0c 0028     		cmp	r0, #0
 2008 0a0e 00D1     		bne	.LCB1955
 2009 0a10 3EE3     		b	.L10	@long jump
 2010              	.LCB1955:
 2011              	.LBB65:
 438:Source\azure_iot_sdk\uamqp\src/amqpvalue_to_string.c ****                 {
 439:Source\azure_iot_sdk\uamqp\src/amqpvalue_to_string.c ****                     LogError("Failure building amqp value string");
 2012              		.loc 1 439 0 discriminator 3
 2013 0a12 FFF7FEFF 		bl	xlogging_get_log_function
 2014              	.LVL306:
 2015 0a16 041E     		subs	r4, r0, #0
 2016              	.LVL307:
 2017 0a18 0AD0     		beq	.L133
 2018              		.loc 1 439 0 is_stmt 0 discriminator 4
 2019 0a1a 254B     		ldr	r3, .L204+4
 2020 0a1c 0193     		str	r3, [sp, #4]
 2021 0a1e 0123     		movs	r3, #1
 2022 0a20 0093     		str	r3, [sp]
 2023 0a22 B823     		movs	r3, #184
 2024 0a24 FF33     		adds	r3, r3, #255
 2025 0a26 234A     		ldr	r2, .L204+8
 2026 0a28 1032     		adds	r2, r2, #16
 2027 0a2a 2349     		ldr	r1, .L204+12
 2028 0a2c 0020     		movs	r0, #0
 2029              	.LVL308:
 2030 0a2e A047     		blx	r4
 2031              	.LVL309:
 2032              	.L133:
 2033              	.LBE65:
 440:Source\azure_iot_sdk\uamqp\src/amqpvalue_to_string.c ****                     free(result);
 2034              		.loc 1 440 0 is_stmt 1
 2035 0a30 0F98     		ldr	r0, [sp, #60]
 2036 0a32 FFF7FEFF 		bl	free
 2037              	.LVL310:
 441:Source\azure_iot_sdk\uamqp\src/amqpvalue_to_string.c ****                     result = NULL;
 2038              		.loc 1 441 0
 2039 0a36 0023     		movs	r3, #0
 2040 0a38 0F93     		str	r3, [sp, #60]
 2041 0a3a 29E3     		b	.L10
 2042              	.LVL311:
 2043              	.L31:
 2044              	.LBE63:
 2045              	.LBB66:
 442:Source\azure_iot_sdk\uamqp\src/amqpvalue_to_string.c ****                 }
 443:Source\azure_iot_sdk\uamqp\src/amqpvalue_to_string.c ****             }
 444:Source\azure_iot_sdk\uamqp\src/amqpvalue_to_string.c ****             break;
 445:Source\azure_iot_sdk\uamqp\src/amqpvalue_to_string.c ****         }
 446:Source\azure_iot_sdk\uamqp\src/amqpvalue_to_string.c ****         case AMQP_TYPE_LIST:
ARM GAS  C:\Users\Phuong\AppData\Local\Temp\ccU7OqD6.s 			page 45


 447:Source\azure_iot_sdk\uamqp\src/amqpvalue_to_string.c ****         {
 448:Source\azure_iot_sdk\uamqp\src/amqpvalue_to_string.c ****             uint32_t count;
 449:Source\azure_iot_sdk\uamqp\src/amqpvalue_to_string.c ****             if (amqpvalue_get_list_item_count(amqp_value, &count) != 0)
 2046              		.loc 1 449 0
 2047 0a3c 08A9     		add	r1, sp, #32
 2048 0a3e 2000     		movs	r0, r4
 2049 0a40 FFF7FEFF 		bl	amqpvalue_get_list_item_count
 2050              	.LVL312:
 2051 0a44 0028     		cmp	r0, #0
 2052 0a46 14D0     		beq	.L134
 2053              	.LBB67:
 450:Source\azure_iot_sdk\uamqp\src/amqpvalue_to_string.c ****             {
 451:Source\azure_iot_sdk\uamqp\src/amqpvalue_to_string.c ****                 LogError("Failure getting list item count value");
 2054              		.loc 1 451 0 discriminator 3
 2055 0a48 FFF7FEFF 		bl	xlogging_get_log_function
 2056              	.LVL313:
 2057 0a4c 041E     		subs	r4, r0, #0
 2058              	.LVL314:
 2059 0a4e 0AD0     		beq	.L135
 2060              		.loc 1 451 0 is_stmt 0 discriminator 4
 2061 0a50 244B     		ldr	r3, .L204+56
 2062 0a52 0193     		str	r3, [sp, #4]
 2063 0a54 0123     		movs	r3, #1
 2064 0a56 0093     		str	r3, [sp]
 2065 0a58 C423     		movs	r3, #196
 2066 0a5a FF33     		adds	r3, r3, #255
 2067 0a5c 154A     		ldr	r2, .L204+8
 2068 0a5e 1032     		adds	r2, r2, #16
 2069 0a60 1549     		ldr	r1, .L204+12
 2070 0a62 0020     		movs	r0, #0
 2071              	.LVL315:
 2072 0a64 A047     		blx	r4
 2073              	.LVL316:
 2074              	.L135:
 2075              	.LBE67:
 452:Source\azure_iot_sdk\uamqp\src/amqpvalue_to_string.c ****                 free(result);
 2076              		.loc 1 452 0 is_stmt 1
 2077 0a66 0F98     		ldr	r0, [sp, #60]
 2078 0a68 FFF7FEFF 		bl	free
 2079              	.LVL317:
 453:Source\azure_iot_sdk\uamqp\src/amqpvalue_to_string.c ****                 result = NULL;
 2080              		.loc 1 453 0
 2081 0a6c 0023     		movs	r3, #0
 2082 0a6e 0F93     		str	r3, [sp, #60]
 2083 0a70 0EE3     		b	.L10
 2084              	.LVL318:
 2085              	.L134:
 454:Source\azure_iot_sdk\uamqp\src/amqpvalue_to_string.c ****             }
 455:Source\azure_iot_sdk\uamqp\src/amqpvalue_to_string.c ****             else if (string_concat(&result, "{") != 0)
 2086              		.loc 1 455 0
 2087 0a72 1D49     		ldr	r1, .L204+60
 2088 0a74 0FA8     		add	r0, sp, #60
 2089 0a76 FFF7FEFF 		bl	string_concat
 2090              	.LVL319:
 2091 0a7a 0028     		cmp	r0, #0
 2092 0a7c 00D1     		bne	.LCB2039
 2093 0a7e 8FE0     		b	.L196	@long jump
ARM GAS  C:\Users\Phuong\AppData\Local\Temp\ccU7OqD6.s 			page 46


 2094              	.LCB2039:
 2095              	.LBB68:
 456:Source\azure_iot_sdk\uamqp\src/amqpvalue_to_string.c ****             {
 457:Source\azure_iot_sdk\uamqp\src/amqpvalue_to_string.c ****                 LogError("Failure building amqp value string");
 2096              		.loc 1 457 0 discriminator 3
 2097 0a80 FFF7FEFF 		bl	xlogging_get_log_function
 2098              	.LVL320:
 2099 0a84 041E     		subs	r4, r0, #0
 2100              	.LVL321:
 2101 0a86 0AD0     		beq	.L138
 2102              		.loc 1 457 0 is_stmt 0 discriminator 4
 2103 0a88 094B     		ldr	r3, .L204+4
 2104 0a8a 0193     		str	r3, [sp, #4]
 2105 0a8c 0123     		movs	r3, #1
 2106 0a8e 0093     		str	r3, [sp]
 2107 0a90 CA23     		movs	r3, #202
 2108 0a92 FF33     		adds	r3, r3, #255
 2109 0a94 074A     		ldr	r2, .L204+8
 2110 0a96 1032     		adds	r2, r2, #16
 2111 0a98 0749     		ldr	r1, .L204+12
 2112 0a9a 0020     		movs	r0, #0
 2113              	.LVL322:
 2114 0a9c A047     		blx	r4
 2115              	.LVL323:
 2116              	.L138:
 2117              	.LBE68:
 458:Source\azure_iot_sdk\uamqp\src/amqpvalue_to_string.c ****                 free(result);
 2118              		.loc 1 458 0 is_stmt 1
 2119 0a9e 0F98     		ldr	r0, [sp, #60]
 2120 0aa0 FFF7FEFF 		bl	free
 2121              	.LVL324:
 459:Source\azure_iot_sdk\uamqp\src/amqpvalue_to_string.c ****                 result = NULL;
 2122              		.loc 1 459 0
 2123 0aa4 0023     		movs	r3, #0
 2124 0aa6 0F93     		str	r3, [sp, #60]
 2125 0aa8 F2E2     		b	.L10
 2126              	.L205:
 2127 0aaa C046     		.align	2
 2128              	.L204:
 2129 0aac E4010000 		.word	.LC54
 2130 0ab0 98000000 		.word	.LC20
 2131 0ab4 5C000000 		.word	.LANCHOR0
 2132 0ab8 00000000 		.word	.LC1
 2133 0abc 88020000 		.word	.LC70
 2134 0ac0 A4020000 		.word	.LC72
 2135 0ac4 CC020000 		.word	.LC74
 2136 0ac8 EC020000 		.word	.LC76
 2137 0acc 74000000 		.word	.LC9
 2138 0ad0 78000000 		.word	.LC11
 2139 0ad4 F0020000 		.word	.LC78
 2140 0ad8 F8020000 		.word	.LC80
 2141 0adc FC020000 		.word	.LC82
 2142 0ae0 1C030000 		.word	.LC84
 2143 0ae4 3C030000 		.word	.LC86
 2144 0ae8 64030000 		.word	.LC88
 2145              	.LVL325:
 2146              	.L147:
ARM GAS  C:\Users\Phuong\AppData\Local\Temp\ccU7OqD6.s 			page 47


 2147              	.LBB69:
 2148              	.LBB70:
 460:Source\azure_iot_sdk\uamqp\src/amqpvalue_to_string.c ****             }
 461:Source\azure_iot_sdk\uamqp\src/amqpvalue_to_string.c ****             else
 462:Source\azure_iot_sdk\uamqp\src/amqpvalue_to_string.c ****             {
 463:Source\azure_iot_sdk\uamqp\src/amqpvalue_to_string.c ****                 size_t i;
 464:Source\azure_iot_sdk\uamqp\src/amqpvalue_to_string.c ****                 for (i = 0; i < count; i++)
 465:Source\azure_iot_sdk\uamqp\src/amqpvalue_to_string.c ****                 {
 466:Source\azure_iot_sdk\uamqp\src/amqpvalue_to_string.c ****                     AMQP_VALUE item = amqpvalue_get_list_item(amqp_value, i);
 2149              		.loc 1 466 0
 2150 0aec 2900     		movs	r1, r5
 2151 0aee 2000     		movs	r0, r4
 2152 0af0 FFF7FEFF 		bl	amqpvalue_get_list_item
 2153              	.LVL326:
 2154 0af4 061E     		subs	r6, r0, #0
 2155              	.LVL327:
 467:Source\azure_iot_sdk\uamqp\src/amqpvalue_to_string.c ****                     if (item == NULL)
 2156              		.loc 1 467 0
 2157 0af6 10D1     		bne	.L139
 2158              	.LBB71:
 468:Source\azure_iot_sdk\uamqp\src/amqpvalue_to_string.c ****                     {
 469:Source\azure_iot_sdk\uamqp\src/amqpvalue_to_string.c ****                         LogError("Failure getting item %u from list", (unsigned int)i);
 2159              		.loc 1 469 0 discriminator 3
 2160 0af8 FFF7FEFF 		bl	xlogging_get_log_function
 2161              	.LVL328:
 2162 0afc 041E     		subs	r4, r0, #0
 2163              	.LVL329:
 2164 0afe 53D0     		beq	.L140
 2165              		.loc 1 469 0 is_stmt 0 discriminator 4
 2166 0b00 0295     		str	r5, [sp, #8]
 2167 0b02 C94B     		ldr	r3, .L206
 2168 0b04 0193     		str	r3, [sp, #4]
 2169 0b06 0123     		movs	r3, #1
 2170 0b08 0093     		str	r3, [sp]
 2171 0b0a D623     		movs	r3, #214
 2172 0b0c FF33     		adds	r3, r3, #255
 2173 0b0e C74A     		ldr	r2, .L206+4
 2174 0b10 1032     		adds	r2, r2, #16
 2175 0b12 C749     		ldr	r1, .L206+8
 2176 0b14 0020     		movs	r0, #0
 2177              	.LVL330:
 2178 0b16 A047     		blx	r4
 2179              	.LVL331:
 2180 0b18 46E0     		b	.L140
 2181              	.LVL332:
 2182              	.L139:
 2183              	.LBE71:
 2184              	.LBB72:
 470:Source\azure_iot_sdk\uamqp\src/amqpvalue_to_string.c ****                         break;
 471:Source\azure_iot_sdk\uamqp\src/amqpvalue_to_string.c ****                     }
 472:Source\azure_iot_sdk\uamqp\src/amqpvalue_to_string.c ****                     else
 473:Source\azure_iot_sdk\uamqp\src/amqpvalue_to_string.c ****                     {
 474:Source\azure_iot_sdk\uamqp\src/amqpvalue_to_string.c ****                         char* item_string = amqpvalue_to_string(item);
 2185              		.loc 1 474 0 is_stmt 1
 2186 0b1a FFF7FEFF 		bl	amqpvalue_to_string
 2187              	.LVL333:
 2188 0b1e 071E     		subs	r7, r0, #0
ARM GAS  C:\Users\Phuong\AppData\Local\Temp\ccU7OqD6.s 			page 48


 2189              	.LVL334:
 475:Source\azure_iot_sdk\uamqp\src/amqpvalue_to_string.c ****                         if (item_string == NULL)
 2190              		.loc 1 475 0
 2191 0b20 13D1     		bne	.L141
 2192              	.LBB73:
 476:Source\azure_iot_sdk\uamqp\src/amqpvalue_to_string.c ****                         {
 477:Source\azure_iot_sdk\uamqp\src/amqpvalue_to_string.c ****                             LogError("Failure converting item %u to string", (unsigned int)i);
 2193              		.loc 1 477 0 discriminator 3
 2194 0b22 FFF7FEFF 		bl	xlogging_get_log_function
 2195              	.LVL335:
 2196 0b26 041E     		subs	r4, r0, #0
 2197              	.LVL336:
 2198 0b28 0BD0     		beq	.L142
 2199              		.loc 1 477 0 is_stmt 0 discriminator 4
 2200 0b2a 0295     		str	r5, [sp, #8]
 2201 0b2c C14B     		ldr	r3, .L206+12
 2202 0b2e 0193     		str	r3, [sp, #4]
 2203 0b30 0123     		movs	r3, #1
 2204 0b32 0093     		str	r3, [sp]
 2205 0b34 DE23     		movs	r3, #222
 2206 0b36 FF33     		adds	r3, r3, #255
 2207 0b38 BC4A     		ldr	r2, .L206+4
 2208 0b3a 1032     		adds	r2, r2, #16
 2209 0b3c BC49     		ldr	r1, .L206+8
 2210 0b3e 0020     		movs	r0, #0
 2211              	.LVL337:
 2212 0b40 A047     		blx	r4
 2213              	.LVL338:
 2214              	.L142:
 2215              	.LBE73:
 478:Source\azure_iot_sdk\uamqp\src/amqpvalue_to_string.c ****                             amqpvalue_destroy(item);
 2216              		.loc 1 478 0 is_stmt 1
 2217 0b42 3000     		movs	r0, r6
 2218 0b44 FFF7FEFF 		bl	amqpvalue_destroy
 2219              	.LVL339:
 479:Source\azure_iot_sdk\uamqp\src/amqpvalue_to_string.c ****                             break;
 2220              		.loc 1 479 0
 2221 0b48 2EE0     		b	.L140
 2222              	.LVL340:
 2223              	.L141:
 480:Source\azure_iot_sdk\uamqp\src/amqpvalue_to_string.c ****                         }
 481:Source\azure_iot_sdk\uamqp\src/amqpvalue_to_string.c ****                         else
 482:Source\azure_iot_sdk\uamqp\src/amqpvalue_to_string.c ****                         {
 483:Source\azure_iot_sdk\uamqp\src/amqpvalue_to_string.c ****                             if (((i > 0) && (string_concat(&result, ",") != 0)) ||
 2224              		.loc 1 483 0
 2225 0b4a 002D     		cmp	r5, #0
 2226 0b4c 05D0     		beq	.L143
 2227              		.loc 1 483 0 is_stmt 0 discriminator 1
 2228 0b4e BA49     		ldr	r1, .L206+16
 2229 0b50 0FA8     		add	r0, sp, #60
 2230              	.LVL341:
 2231 0b52 FFF7FEFF 		bl	string_concat
 2232              	.LVL342:
 2233 0b56 0028     		cmp	r0, #0
 2234 0b58 05D1     		bne	.L144
 2235              	.L143:
 484:Source\azure_iot_sdk\uamqp\src/amqpvalue_to_string.c ****                                  (string_concat(&result, item_string) != 0))
ARM GAS  C:\Users\Phuong\AppData\Local\Temp\ccU7OqD6.s 			page 49


 2236              		.loc 1 484 0 is_stmt 1 discriminator 3
 2237 0b5a 3900     		movs	r1, r7
 2238 0b5c 0FA8     		add	r0, sp, #60
 2239 0b5e FFF7FEFF 		bl	string_concat
 2240              	.LVL343:
 483:Source\azure_iot_sdk\uamqp\src/amqpvalue_to_string.c ****                                  (string_concat(&result, item_string) != 0))
 2241              		.loc 1 483 0 discriminator 3
 2242 0b62 0028     		cmp	r0, #0
 2243 0b64 14D0     		beq	.L145
 2244              	.L144:
 2245              	.LBB74:
 485:Source\azure_iot_sdk\uamqp\src/amqpvalue_to_string.c ****                             {
 486:Source\azure_iot_sdk\uamqp\src/amqpvalue_to_string.c ****                                 LogError("Failure building amqp value string");
 2246              		.loc 1 486 0 discriminator 3
 2247 0b66 FFF7FEFF 		bl	xlogging_get_log_function
 2248              	.LVL344:
 2249 0b6a 041E     		subs	r4, r0, #0
 2250              	.LVL345:
 2251 0b6c 0AD0     		beq	.L146
 2252              		.loc 1 486 0 is_stmt 0 discriminator 4
 2253 0b6e B34B     		ldr	r3, .L206+20
 2254 0b70 0193     		str	r3, [sp, #4]
 2255 0b72 0123     		movs	r3, #1
 2256 0b74 0093     		str	r3, [sp]
 2257 0b76 E633     		adds	r3, r3, #230
 2258 0b78 FF33     		adds	r3, r3, #255
 2259 0b7a AC4A     		ldr	r2, .L206+4
 2260 0b7c 1032     		adds	r2, r2, #16
 2261 0b7e AC49     		ldr	r1, .L206+8
 2262 0b80 0020     		movs	r0, #0
 2263              	.LVL346:
 2264 0b82 A047     		blx	r4
 2265              	.LVL347:
 2266              	.L146:
 2267              	.LBE74:
 487:Source\azure_iot_sdk\uamqp\src/amqpvalue_to_string.c ****                                 free(result);
 2268              		.loc 1 487 0 is_stmt 1
 2269 0b84 0F98     		ldr	r0, [sp, #60]
 2270 0b86 FFF7FEFF 		bl	free
 2271              	.LVL348:
 488:Source\azure_iot_sdk\uamqp\src/amqpvalue_to_string.c ****                                 result = NULL;
 2272              		.loc 1 488 0
 2273 0b8a 0023     		movs	r3, #0
 2274 0b8c 0F93     		str	r3, [sp, #60]
 489:Source\azure_iot_sdk\uamqp\src/amqpvalue_to_string.c ****                                 break;
 2275              		.loc 1 489 0
 2276 0b8e 0BE0     		b	.L140
 2277              	.LVL349:
 2278              	.L145:
 490:Source\azure_iot_sdk\uamqp\src/amqpvalue_to_string.c ****                             }
 491:Source\azure_iot_sdk\uamqp\src/amqpvalue_to_string.c **** 
 492:Source\azure_iot_sdk\uamqp\src/amqpvalue_to_string.c ****                             free(item_string);
 2279              		.loc 1 492 0 discriminator 2
 2280 0b90 3800     		movs	r0, r7
 2281 0b92 FFF7FEFF 		bl	free
 2282              	.LVL350:
 493:Source\azure_iot_sdk\uamqp\src/amqpvalue_to_string.c ****                         }
ARM GAS  C:\Users\Phuong\AppData\Local\Temp\ccU7OqD6.s 			page 50


 494:Source\azure_iot_sdk\uamqp\src/amqpvalue_to_string.c **** 
 495:Source\azure_iot_sdk\uamqp\src/amqpvalue_to_string.c ****                         amqpvalue_destroy(item);
 2283              		.loc 1 495 0 discriminator 2
 2284 0b96 3000     		movs	r0, r6
 2285 0b98 FFF7FEFF 		bl	amqpvalue_destroy
 2286              	.LVL351:
 2287              	.LBE72:
 2288              	.LBE70:
 464:Source\azure_iot_sdk\uamqp\src/amqpvalue_to_string.c ****                 {
 2289              		.loc 1 464 0 discriminator 2
 2290 0b9c 0135     		adds	r5, r5, #1
 2291              	.LVL352:
 2292 0b9e 00E0     		b	.L137
 2293              	.LVL353:
 2294              	.L196:
 2295              	.LBE69:
 2296 0ba0 0025     		movs	r5, #0
 2297              	.L137:
 2298              	.LVL354:
 2299              	.LBB76:
 464:Source\azure_iot_sdk\uamqp\src/amqpvalue_to_string.c ****                 {
 2300              		.loc 1 464 0 is_stmt 0 discriminator 1
 2301 0ba2 089B     		ldr	r3, [sp, #32]
 2302 0ba4 9D42     		cmp	r5, r3
 2303 0ba6 A1D3     		bcc	.L147
 2304              	.LVL355:
 2305              	.L140:
 496:Source\azure_iot_sdk\uamqp\src/amqpvalue_to_string.c ****                     }
 497:Source\azure_iot_sdk\uamqp\src/amqpvalue_to_string.c ****                 }
 498:Source\azure_iot_sdk\uamqp\src/amqpvalue_to_string.c **** 
 499:Source\azure_iot_sdk\uamqp\src/amqpvalue_to_string.c ****                 if (i < count)
 2306              		.loc 1 499 0 is_stmt 1
 2307 0ba8 089B     		ldr	r3, [sp, #32]
 2308 0baa 9D42     		cmp	r5, r3
 2309 0bac 05D2     		bcs	.L148
 500:Source\azure_iot_sdk\uamqp\src/amqpvalue_to_string.c ****                 {
 501:Source\azure_iot_sdk\uamqp\src/amqpvalue_to_string.c ****                     // no log here, we already logged the error
 502:Source\azure_iot_sdk\uamqp\src/amqpvalue_to_string.c ****                     free(result);
 2310              		.loc 1 502 0
 2311 0bae 0F98     		ldr	r0, [sp, #60]
 2312 0bb0 FFF7FEFF 		bl	free
 2313              	.LVL356:
 503:Source\azure_iot_sdk\uamqp\src/amqpvalue_to_string.c ****                     result = NULL;
 2314              		.loc 1 503 0
 2315 0bb4 0023     		movs	r3, #0
 2316 0bb6 0F93     		str	r3, [sp, #60]
 2317 0bb8 6AE2     		b	.L10
 2318              	.L148:
 504:Source\azure_iot_sdk\uamqp\src/amqpvalue_to_string.c ****                 }
 505:Source\azure_iot_sdk\uamqp\src/amqpvalue_to_string.c ****                 else if (string_concat(&result, "}") != 0)
 2319              		.loc 1 505 0
 2320 0bba A149     		ldr	r1, .L206+24
 2321 0bbc 0FA8     		add	r0, sp, #60
 2322 0bbe FFF7FEFF 		bl	string_concat
 2323              	.LVL357:
 2324 0bc2 0028     		cmp	r0, #0
 2325 0bc4 00D1     		bne	.LCB2290
ARM GAS  C:\Users\Phuong\AppData\Local\Temp\ccU7OqD6.s 			page 51


 2326 0bc6 63E2     		b	.L10	@long jump
 2327              	.LCB2290:
 2328              	.LBB75:
 506:Source\azure_iot_sdk\uamqp\src/amqpvalue_to_string.c ****                 {
 507:Source\azure_iot_sdk\uamqp\src/amqpvalue_to_string.c ****                     LogError("Failure building amqp value string");
 2329              		.loc 1 507 0 discriminator 3
 2330 0bc8 FFF7FEFF 		bl	xlogging_get_log_function
 2331              	.LVL358:
 2332 0bcc 041E     		subs	r4, r0, #0
 2333              	.LVL359:
 2334 0bce 0AD0     		beq	.L149
 2335              		.loc 1 507 0 is_stmt 0 discriminator 4
 2336 0bd0 9A4B     		ldr	r3, .L206+20
 2337 0bd2 0193     		str	r3, [sp, #4]
 2338 0bd4 0123     		movs	r3, #1
 2339 0bd6 0093     		str	r3, [sp]
 2340 0bd8 FC23     		movs	r3, #252
 2341 0bda FF33     		adds	r3, r3, #255
 2342 0bdc 934A     		ldr	r2, .L206+4
 2343 0bde 1032     		adds	r2, r2, #16
 2344 0be0 9349     		ldr	r1, .L206+8
 2345 0be2 0020     		movs	r0, #0
 2346              	.LVL360:
 2347 0be4 A047     		blx	r4
 2348              	.LVL361:
 2349              	.L149:
 2350              	.LBE75:
 508:Source\azure_iot_sdk\uamqp\src/amqpvalue_to_string.c ****                     free(result);
 2351              		.loc 1 508 0 is_stmt 1
 2352 0be6 0F98     		ldr	r0, [sp, #60]
 2353 0be8 FFF7FEFF 		bl	free
 2354              	.LVL362:
 509:Source\azure_iot_sdk\uamqp\src/amqpvalue_to_string.c ****                     result = NULL;
 2355              		.loc 1 509 0
 2356 0bec 0023     		movs	r3, #0
 2357 0bee 0F93     		str	r3, [sp, #60]
 2358 0bf0 4EE2     		b	.L10
 2359              	.LVL363:
 2360              	.L32:
 2361              	.LBE76:
 2362              	.LBE66:
 2363              	.LBB77:
 510:Source\azure_iot_sdk\uamqp\src/amqpvalue_to_string.c ****                 }
 511:Source\azure_iot_sdk\uamqp\src/amqpvalue_to_string.c ****             }
 512:Source\azure_iot_sdk\uamqp\src/amqpvalue_to_string.c ****             break;
 513:Source\azure_iot_sdk\uamqp\src/amqpvalue_to_string.c ****         }
 514:Source\azure_iot_sdk\uamqp\src/amqpvalue_to_string.c ****         case AMQP_TYPE_MAP:
 515:Source\azure_iot_sdk\uamqp\src/amqpvalue_to_string.c ****         {
 516:Source\azure_iot_sdk\uamqp\src/amqpvalue_to_string.c ****             uint32_t count;
 517:Source\azure_iot_sdk\uamqp\src/amqpvalue_to_string.c ****             if (amqpvalue_get_map_pair_count(amqp_value, &count) != 0)
 2364              		.loc 1 517 0
 2365 0bf2 05A9     		add	r1, sp, #20
 2366 0bf4 2000     		movs	r0, r4
 2367 0bf6 FFF7FEFF 		bl	amqpvalue_get_map_pair_count
 2368              	.LVL364:
 2369 0bfa 0028     		cmp	r0, #0
 2370 0bfc 13D0     		beq	.L150
ARM GAS  C:\Users\Phuong\AppData\Local\Temp\ccU7OqD6.s 			page 52


 2371              	.LBB78:
 518:Source\azure_iot_sdk\uamqp\src/amqpvalue_to_string.c ****             {
 519:Source\azure_iot_sdk\uamqp\src/amqpvalue_to_string.c ****                 LogError("Failure getting map pair count");
 2372              		.loc 1 519 0 discriminator 3
 2373 0bfe FFF7FEFF 		bl	xlogging_get_log_function
 2374              	.LVL365:
 2375 0c02 041E     		subs	r4, r0, #0
 2376              	.LVL366:
 2377 0c04 09D0     		beq	.L151
 2378              		.loc 1 519 0 is_stmt 0 discriminator 4
 2379 0c06 8F4B     		ldr	r3, .L206+28
 2380 0c08 0193     		str	r3, [sp, #4]
 2381 0c0a 0123     		movs	r3, #1
 2382 0c0c 0093     		str	r3, [sp]
 2383 0c0e 8E4B     		ldr	r3, .L206+32
 2384 0c10 864A     		ldr	r2, .L206+4
 2385 0c12 1032     		adds	r2, r2, #16
 2386 0c14 8649     		ldr	r1, .L206+8
 2387 0c16 0020     		movs	r0, #0
 2388              	.LVL367:
 2389 0c18 A047     		blx	r4
 2390              	.LVL368:
 2391              	.L151:
 2392              	.LBE78:
 520:Source\azure_iot_sdk\uamqp\src/amqpvalue_to_string.c ****                 free(result);
 2393              		.loc 1 520 0 is_stmt 1
 2394 0c1a 0F98     		ldr	r0, [sp, #60]
 2395 0c1c FFF7FEFF 		bl	free
 2396              	.LVL369:
 521:Source\azure_iot_sdk\uamqp\src/amqpvalue_to_string.c ****                 result = NULL;
 2397              		.loc 1 521 0
 2398 0c20 0023     		movs	r3, #0
 2399 0c22 0F93     		str	r3, [sp, #60]
 2400 0c24 34E2     		b	.L10
 2401              	.LVL370:
 2402              	.L150:
 522:Source\azure_iot_sdk\uamqp\src/amqpvalue_to_string.c ****             }
 523:Source\azure_iot_sdk\uamqp\src/amqpvalue_to_string.c ****             else if (string_concat(&result, "{") != 0)
 2403              		.loc 1 523 0
 2404 0c26 8949     		ldr	r1, .L206+36
 2405 0c28 0FA8     		add	r0, sp, #60
 2406 0c2a FFF7FEFF 		bl	string_concat
 2407              	.LVL371:
 2408 0c2e 0028     		cmp	r0, #0
 2409 0c30 00D1     		bne	.LCB2374
 2410 0c32 B6E0     		b	.L197	@long jump
 2411              	.LCB2374:
 2412              	.LBB79:
 524:Source\azure_iot_sdk\uamqp\src/amqpvalue_to_string.c ****             {
 525:Source\azure_iot_sdk\uamqp\src/amqpvalue_to_string.c ****                 LogError("Failure building amqp value string");
 2413              		.loc 1 525 0 discriminator 3
 2414 0c34 FFF7FEFF 		bl	xlogging_get_log_function
 2415              	.LVL372:
 2416 0c38 041E     		subs	r4, r0, #0
 2417              	.LVL373:
 2418 0c3a 09D0     		beq	.L154
 2419              		.loc 1 525 0 is_stmt 0 discriminator 4
ARM GAS  C:\Users\Phuong\AppData\Local\Temp\ccU7OqD6.s 			page 53


 2420 0c3c 7F4B     		ldr	r3, .L206+20
 2421 0c3e 0193     		str	r3, [sp, #4]
 2422 0c40 0123     		movs	r3, #1
 2423 0c42 0093     		str	r3, [sp]
 2424 0c44 824B     		ldr	r3, .L206+40
 2425 0c46 794A     		ldr	r2, .L206+4
 2426 0c48 1032     		adds	r2, r2, #16
 2427 0c4a 7949     		ldr	r1, .L206+8
 2428 0c4c 0020     		movs	r0, #0
 2429              	.LVL374:
 2430 0c4e A047     		blx	r4
 2431              	.LVL375:
 2432              	.L154:
 2433              	.LBE79:
 526:Source\azure_iot_sdk\uamqp\src/amqpvalue_to_string.c ****                 free(result);
 2434              		.loc 1 526 0 is_stmt 1
 2435 0c50 0F98     		ldr	r0, [sp, #60]
 2436 0c52 FFF7FEFF 		bl	free
 2437              	.LVL376:
 527:Source\azure_iot_sdk\uamqp\src/amqpvalue_to_string.c ****                 result = NULL;
 2438              		.loc 1 527 0
 2439 0c56 0023     		movs	r3, #0
 2440 0c58 0F93     		str	r3, [sp, #60]
 2441 0c5a 19E2     		b	.L10
 2442              	.LVL377:
 2443              	.L166:
 2444              	.LBB80:
 2445              	.LBB81:
 528:Source\azure_iot_sdk\uamqp\src/amqpvalue_to_string.c ****             }
 529:Source\azure_iot_sdk\uamqp\src/amqpvalue_to_string.c ****             else
 530:Source\azure_iot_sdk\uamqp\src/amqpvalue_to_string.c ****             {
 531:Source\azure_iot_sdk\uamqp\src/amqpvalue_to_string.c ****                 uint32_t i;
 532:Source\azure_iot_sdk\uamqp\src/amqpvalue_to_string.c ****                 for (i = 0; i < count; i++)
 533:Source\azure_iot_sdk\uamqp\src/amqpvalue_to_string.c ****                 {
 534:Source\azure_iot_sdk\uamqp\src/amqpvalue_to_string.c ****                     AMQP_VALUE key;
 535:Source\azure_iot_sdk\uamqp\src/amqpvalue_to_string.c ****                     AMQP_VALUE value;
 536:Source\azure_iot_sdk\uamqp\src/amqpvalue_to_string.c ****                     if (amqpvalue_get_map_key_value_pair(amqp_value, i, &key, &value) != 0)
 2446              		.loc 1 536 0
 2447 0c5c 08AB     		add	r3, sp, #32
 2448 0c5e 06AA     		add	r2, sp, #24
 2449 0c60 2900     		movs	r1, r5
 2450 0c62 2000     		movs	r0, r4
 2451 0c64 FFF7FEFF 		bl	amqpvalue_get_map_key_value_pair
 2452              	.LVL378:
 2453 0c68 0028     		cmp	r0, #0
 2454 0c6a 10D0     		beq	.L155
 2455              	.LBB82:
 537:Source\azure_iot_sdk\uamqp\src/amqpvalue_to_string.c ****                     {
 538:Source\azure_iot_sdk\uamqp\src/amqpvalue_to_string.c ****                         LogError("Failure getting key/value pair index %u", (unsigned int)i);
 2456              		.loc 1 538 0 discriminator 3
 2457 0c6c FFF7FEFF 		bl	xlogging_get_log_function
 2458              	.LVL379:
 2459 0c70 041E     		subs	r4, r0, #0
 2460              	.LVL380:
 2461 0c72 00D1     		bne	.LCB2428
 2462 0c74 9AE0     		b	.L165	@long jump
 2463              	.LCB2428:
ARM GAS  C:\Users\Phuong\AppData\Local\Temp\ccU7OqD6.s 			page 54


 2464              		.loc 1 538 0 is_stmt 0 discriminator 4
 2465 0c76 0295     		str	r5, [sp, #8]
 2466 0c78 764B     		ldr	r3, .L206+44
 2467 0c7a 0193     		str	r3, [sp, #4]
 2468 0c7c 0123     		movs	r3, #1
 2469 0c7e 0093     		str	r3, [sp]
 2470 0c80 754B     		ldr	r3, .L206+48
 2471 0c82 6A4A     		ldr	r2, .L206+4
 2472 0c84 1032     		adds	r2, r2, #16
 2473 0c86 6A49     		ldr	r1, .L206+8
 2474 0c88 0020     		movs	r0, #0
 2475              	.LVL381:
 2476 0c8a A047     		blx	r4
 2477              	.LVL382:
 2478 0c8c 8EE0     		b	.L165
 2479              	.LVL383:
 2480              	.L155:
 2481              	.LBE82:
 2482              	.LBB83:
 539:Source\azure_iot_sdk\uamqp\src/amqpvalue_to_string.c ****                         break;
 540:Source\azure_iot_sdk\uamqp\src/amqpvalue_to_string.c ****                     }
 541:Source\azure_iot_sdk\uamqp\src/amqpvalue_to_string.c ****                     else
 542:Source\azure_iot_sdk\uamqp\src/amqpvalue_to_string.c ****                     {
 543:Source\azure_iot_sdk\uamqp\src/amqpvalue_to_string.c ****                         char* key_string = amqpvalue_to_string(key);
 2483              		.loc 1 543 0 is_stmt 1
 2484 0c8e 0698     		ldr	r0, [sp, #24]
 2485 0c90 FFF7FEFF 		bl	amqpvalue_to_string
 2486              	.LVL384:
 2487 0c94 061E     		subs	r6, r0, #0
 2488              	.LVL385:
 544:Source\azure_iot_sdk\uamqp\src/amqpvalue_to_string.c ****                         if (key_string == NULL)
 2489              		.loc 1 544 0
 2490 0c96 15D1     		bne	.L157
 2491              	.LBB84:
 545:Source\azure_iot_sdk\uamqp\src/amqpvalue_to_string.c ****                         {
 546:Source\azure_iot_sdk\uamqp\src/amqpvalue_to_string.c ****                             LogError("Failure getting stringified key value for index %u", (unsigne
 2492              		.loc 1 546 0 discriminator 3
 2493 0c98 FFF7FEFF 		bl	xlogging_get_log_function
 2494              	.LVL386:
 2495 0c9c 041E     		subs	r4, r0, #0
 2496              	.LVL387:
 2497 0c9e 0AD0     		beq	.L158
 2498              		.loc 1 546 0 is_stmt 0 discriminator 4
 2499 0ca0 0295     		str	r5, [sp, #8]
 2500 0ca2 6E4B     		ldr	r3, .L206+52
 2501 0ca4 0193     		str	r3, [sp, #4]
 2502 0ca6 0123     		movs	r3, #1
 2503 0ca8 0093     		str	r3, [sp]
 2504 0caa 6D4B     		ldr	r3, .L206+56
 2505 0cac 5F4A     		ldr	r2, .L206+4
 2506 0cae 1032     		adds	r2, r2, #16
 2507 0cb0 5F49     		ldr	r1, .L206+8
 2508 0cb2 0020     		movs	r0, #0
 2509              	.LVL388:
 2510 0cb4 A047     		blx	r4
 2511              	.LVL389:
 2512              	.L158:
ARM GAS  C:\Users\Phuong\AppData\Local\Temp\ccU7OqD6.s 			page 55


 2513              	.LBE84:
 547:Source\azure_iot_sdk\uamqp\src/amqpvalue_to_string.c ****                             amqpvalue_destroy(key);
 2514              		.loc 1 547 0 is_stmt 1
 2515 0cb6 0698     		ldr	r0, [sp, #24]
 2516 0cb8 FFF7FEFF 		bl	amqpvalue_destroy
 2517              	.LVL390:
 548:Source\azure_iot_sdk\uamqp\src/amqpvalue_to_string.c ****                             amqpvalue_destroy(value);
 2518              		.loc 1 548 0
 2519 0cbc 0898     		ldr	r0, [sp, #32]
 2520 0cbe FFF7FEFF 		bl	amqpvalue_destroy
 2521              	.LVL391:
 549:Source\azure_iot_sdk\uamqp\src/amqpvalue_to_string.c ****                             break;
 2522              		.loc 1 549 0
 2523 0cc2 73E0     		b	.L165
 2524              	.LVL392:
 2525              	.L157:
 2526              	.LBB85:
 550:Source\azure_iot_sdk\uamqp\src/amqpvalue_to_string.c ****                         }
 551:Source\azure_iot_sdk\uamqp\src/amqpvalue_to_string.c ****                         else
 552:Source\azure_iot_sdk\uamqp\src/amqpvalue_to_string.c ****                         {
 553:Source\azure_iot_sdk\uamqp\src/amqpvalue_to_string.c ****                             char* value_string = amqpvalue_to_string(value);
 2527              		.loc 1 553 0
 2528 0cc4 0898     		ldr	r0, [sp, #32]
 2529              	.LVL393:
 2530 0cc6 FFF7FEFF 		bl	amqpvalue_to_string
 2531              	.LVL394:
 2532 0cca 0700     		movs	r7, r0
 2533              	.LVL395:
 554:Source\azure_iot_sdk\uamqp\src/amqpvalue_to_string.c ****                             if (key_string == NULL)
 2534              		.loc 1 554 0
 2535 0ccc 002E     		cmp	r6, #0
 2536 0cce 19D1     		bne	.L159
 2537              	.LBB86:
 555:Source\azure_iot_sdk\uamqp\src/amqpvalue_to_string.c ****                             {
 556:Source\azure_iot_sdk\uamqp\src/amqpvalue_to_string.c ****                                 LogError("Failure getting stringified value for index %u", (unsigne
 2538              		.loc 1 556 0 discriminator 3
 2539 0cd0 FFF7FEFF 		bl	xlogging_get_log_function
 2540              	.LVL396:
 2541 0cd4 041E     		subs	r4, r0, #0
 2542              	.LVL397:
 2543 0cd6 0BD0     		beq	.L160
 2544              		.loc 1 556 0 is_stmt 0 discriminator 4
 2545 0cd8 0295     		str	r5, [sp, #8]
 2546 0cda 624B     		ldr	r3, .L206+60
 2547 0cdc 0193     		str	r3, [sp, #4]
 2548 0cde 0123     		movs	r3, #1
 2549 0ce0 0093     		str	r3, [sp]
 2550 0ce2 8B23     		movs	r3, #139
 2551 0ce4 9B00     		lsls	r3, r3, #2
 2552 0ce6 514A     		ldr	r2, .L206+4
 2553 0ce8 1032     		adds	r2, r2, #16
 2554 0cea 5149     		ldr	r1, .L206+8
 2555 0cec 0020     		movs	r0, #0
 2556              	.LVL398:
 2557 0cee A047     		blx	r4
 2558              	.LVL399:
 2559              	.L160:
ARM GAS  C:\Users\Phuong\AppData\Local\Temp\ccU7OqD6.s 			page 56


 2560              	.LBE86:
 557:Source\azure_iot_sdk\uamqp\src/amqpvalue_to_string.c ****                                 free(key_string);
 2561              		.loc 1 557 0 is_stmt 1
 2562 0cf0 3000     		movs	r0, r6
 2563 0cf2 FFF7FEFF 		bl	free
 2564              	.LVL400:
 558:Source\azure_iot_sdk\uamqp\src/amqpvalue_to_string.c ****                                 amqpvalue_destroy(key);
 2565              		.loc 1 558 0
 2566 0cf6 0698     		ldr	r0, [sp, #24]
 2567 0cf8 FFF7FEFF 		bl	amqpvalue_destroy
 2568              	.LVL401:
 559:Source\azure_iot_sdk\uamqp\src/amqpvalue_to_string.c ****                                 amqpvalue_destroy(value);
 2569              		.loc 1 559 0
 2570 0cfc 0898     		ldr	r0, [sp, #32]
 2571 0cfe FFF7FEFF 		bl	amqpvalue_destroy
 2572              	.LVL402:
 560:Source\azure_iot_sdk\uamqp\src/amqpvalue_to_string.c ****                                 break;
 2573              		.loc 1 560 0
 2574 0d02 53E0     		b	.L165
 2575              	.LVL403:
 2576              	.L159:
 561:Source\azure_iot_sdk\uamqp\src/amqpvalue_to_string.c ****                             }
 562:Source\azure_iot_sdk\uamqp\src/amqpvalue_to_string.c ****                             else
 563:Source\azure_iot_sdk\uamqp\src/amqpvalue_to_string.c ****                             {
 564:Source\azure_iot_sdk\uamqp\src/amqpvalue_to_string.c ****                                 if (((i > 0) && (string_concat(&result, ",") != 0)) ||
 2577              		.loc 1 564 0
 2578 0d04 002D     		cmp	r5, #0
 2579 0d06 05D0     		beq	.L161
 2580              		.loc 1 564 0 is_stmt 0 discriminator 1
 2581 0d08 4B49     		ldr	r1, .L206+16
 2582 0d0a 0FA8     		add	r0, sp, #60
 2583              	.LVL404:
 2584 0d0c FFF7FEFF 		bl	string_concat
 2585              	.LVL405:
 2586 0d10 0028     		cmp	r0, #0
 2587 0d12 1DD1     		bne	.L162
 2588              	.L161:
 565:Source\azure_iot_sdk\uamqp\src/amqpvalue_to_string.c ****                                     (string_concat(&result, "[") != 0) ||
 2589              		.loc 1 565 0 is_stmt 1 discriminator 3
 2590 0d14 5449     		ldr	r1, .L206+64
 2591 0d16 0FA8     		add	r0, sp, #60
 2592 0d18 FFF7FEFF 		bl	string_concat
 2593              	.LVL406:
 564:Source\azure_iot_sdk\uamqp\src/amqpvalue_to_string.c ****                                     (string_concat(&result, "[") != 0) ||
 2594              		.loc 1 564 0 discriminator 3
 2595 0d1c 0028     		cmp	r0, #0
 2596 0d1e 17D1     		bne	.L162
 566:Source\azure_iot_sdk\uamqp\src/amqpvalue_to_string.c ****                                     (string_concat(&result, key_string) != 0) ||
 2597              		.loc 1 566 0
 2598 0d20 3100     		movs	r1, r6
 2599 0d22 0FA8     		add	r0, sp, #60
 2600 0d24 FFF7FEFF 		bl	string_concat
 2601              	.LVL407:
 565:Source\azure_iot_sdk\uamqp\src/amqpvalue_to_string.c ****                                     (string_concat(&result, "[") != 0) ||
 2602              		.loc 1 565 0
 2603 0d28 0028     		cmp	r0, #0
 2604 0d2a 11D1     		bne	.L162
ARM GAS  C:\Users\Phuong\AppData\Local\Temp\ccU7OqD6.s 			page 57


 567:Source\azure_iot_sdk\uamqp\src/amqpvalue_to_string.c ****                                     (string_concat(&result, ":") != 0) ||
 2605              		.loc 1 567 0
 2606 0d2c 4F49     		ldr	r1, .L206+68
 2607 0d2e 0FA8     		add	r0, sp, #60
 2608 0d30 FFF7FEFF 		bl	string_concat
 2609              	.LVL408:
 566:Source\azure_iot_sdk\uamqp\src/amqpvalue_to_string.c ****                                     (string_concat(&result, key_string) != 0) ||
 2610              		.loc 1 566 0
 2611 0d34 0028     		cmp	r0, #0
 2612 0d36 0BD1     		bne	.L162
 568:Source\azure_iot_sdk\uamqp\src/amqpvalue_to_string.c ****                                     (string_concat(&result, value_string) != 0) ||
 2613              		.loc 1 568 0
 2614 0d38 3900     		movs	r1, r7
 2615 0d3a 0FA8     		add	r0, sp, #60
 2616 0d3c FFF7FEFF 		bl	string_concat
 2617              	.LVL409:
 567:Source\azure_iot_sdk\uamqp\src/amqpvalue_to_string.c ****                                     (string_concat(&result, ":") != 0) ||
 2618              		.loc 1 567 0
 2619 0d40 0028     		cmp	r0, #0
 2620 0d42 05D1     		bne	.L162
 569:Source\azure_iot_sdk\uamqp\src/amqpvalue_to_string.c ****                                     (string_concat(&result, "]") != 0))
 2621              		.loc 1 569 0
 2622 0d44 4A49     		ldr	r1, .L206+72
 2623 0d46 0FA8     		add	r0, sp, #60
 2624 0d48 FFF7FEFF 		bl	string_concat
 2625              	.LVL410:
 568:Source\azure_iot_sdk\uamqp\src/amqpvalue_to_string.c ****                                     (string_concat(&result, value_string) != 0) ||
 2626              		.loc 1 568 0
 2627 0d4c 0028     		cmp	r0, #0
 2628 0d4e 1AD0     		beq	.L163
 2629              	.L162:
 2630              	.LBB87:
 570:Source\azure_iot_sdk\uamqp\src/amqpvalue_to_string.c ****                                 {
 571:Source\azure_iot_sdk\uamqp\src/amqpvalue_to_string.c ****                                     LogError("Failure building amqp value string");
 2631              		.loc 1 571 0 discriminator 3
 2632 0d50 FFF7FEFF 		bl	xlogging_get_log_function
 2633              	.LVL411:
 2634 0d54 041E     		subs	r4, r0, #0
 2635              	.LVL412:
 2636 0d56 09D0     		beq	.L164
 2637              		.loc 1 571 0 is_stmt 0 discriminator 4
 2638 0d58 384B     		ldr	r3, .L206+20
 2639 0d5a 0193     		str	r3, [sp, #4]
 2640 0d5c 0123     		movs	r3, #1
 2641 0d5e 0093     		str	r3, [sp]
 2642 0d60 444B     		ldr	r3, .L206+76
 2643 0d62 324A     		ldr	r2, .L206+4
 2644 0d64 1032     		adds	r2, r2, #16
 2645 0d66 3249     		ldr	r1, .L206+8
 2646 0d68 0020     		movs	r0, #0
 2647              	.LVL413:
 2648 0d6a A047     		blx	r4
 2649              	.LVL414:
 2650              	.L164:
 2651              	.LBE87:
 572:Source\azure_iot_sdk\uamqp\src/amqpvalue_to_string.c ****                                     free(key_string);
 2652              		.loc 1 572 0 is_stmt 1
ARM GAS  C:\Users\Phuong\AppData\Local\Temp\ccU7OqD6.s 			page 58


 2653 0d6c 3000     		movs	r0, r6
 2654 0d6e FFF7FEFF 		bl	free
 2655              	.LVL415:
 573:Source\azure_iot_sdk\uamqp\src/amqpvalue_to_string.c ****                                     free(value_string);
 2656              		.loc 1 573 0
 2657 0d72 3800     		movs	r0, r7
 2658 0d74 FFF7FEFF 		bl	free
 2659              	.LVL416:
 574:Source\azure_iot_sdk\uamqp\src/amqpvalue_to_string.c ****                                     amqpvalue_destroy(key);
 2660              		.loc 1 574 0
 2661 0d78 0698     		ldr	r0, [sp, #24]
 2662 0d7a FFF7FEFF 		bl	amqpvalue_destroy
 2663              	.LVL417:
 575:Source\azure_iot_sdk\uamqp\src/amqpvalue_to_string.c ****                                     amqpvalue_destroy(value);
 2664              		.loc 1 575 0
 2665 0d7e 0898     		ldr	r0, [sp, #32]
 2666 0d80 FFF7FEFF 		bl	amqpvalue_destroy
 2667              	.LVL418:
 576:Source\azure_iot_sdk\uamqp\src/amqpvalue_to_string.c ****                                     break;
 2668              		.loc 1 576 0
 2669 0d84 12E0     		b	.L165
 2670              	.LVL419:
 2671              	.L163:
 577:Source\azure_iot_sdk\uamqp\src/amqpvalue_to_string.c ****                                 }
 578:Source\azure_iot_sdk\uamqp\src/amqpvalue_to_string.c **** 
 579:Source\azure_iot_sdk\uamqp\src/amqpvalue_to_string.c ****                                 free(value_string);
 2672              		.loc 1 579 0
 2673 0d86 3800     		movs	r0, r7
 2674 0d88 FFF7FEFF 		bl	free
 2675              	.LVL420:
 580:Source\azure_iot_sdk\uamqp\src/amqpvalue_to_string.c ****                             }
 581:Source\azure_iot_sdk\uamqp\src/amqpvalue_to_string.c **** 
 582:Source\azure_iot_sdk\uamqp\src/amqpvalue_to_string.c ****                             free(key_string);
 2676              		.loc 1 582 0
 2677 0d8c 3000     		movs	r0, r6
 2678 0d8e FFF7FEFF 		bl	free
 2679              	.LVL421:
 2680              	.LBE85:
 583:Source\azure_iot_sdk\uamqp\src/amqpvalue_to_string.c ****                         }
 584:Source\azure_iot_sdk\uamqp\src/amqpvalue_to_string.c **** 
 585:Source\azure_iot_sdk\uamqp\src/amqpvalue_to_string.c ****                         amqpvalue_destroy(key);
 2681              		.loc 1 585 0
 2682 0d92 0698     		ldr	r0, [sp, #24]
 2683 0d94 FFF7FEFF 		bl	amqpvalue_destroy
 2684              	.LVL422:
 586:Source\azure_iot_sdk\uamqp\src/amqpvalue_to_string.c ****                         amqpvalue_destroy(value);
 2685              		.loc 1 586 0
 2686 0d98 0898     		ldr	r0, [sp, #32]
 2687 0d9a FFF7FEFF 		bl	amqpvalue_destroy
 2688              	.LVL423:
 2689              	.LBE83:
 2690              	.LBE81:
 532:Source\azure_iot_sdk\uamqp\src/amqpvalue_to_string.c ****                 {
 2691              		.loc 1 532 0
 2692 0d9e 0135     		adds	r5, r5, #1
 2693              	.LVL424:
 2694 0da0 00E0     		b	.L153
ARM GAS  C:\Users\Phuong\AppData\Local\Temp\ccU7OqD6.s 			page 59


 2695              	.LVL425:
 2696              	.L197:
 2697              	.LBE80:
 2698 0da2 0025     		movs	r5, #0
 2699              	.L153:
 2700              	.LVL426:
 2701              	.LBB89:
 532:Source\azure_iot_sdk\uamqp\src/amqpvalue_to_string.c ****                 {
 2702              		.loc 1 532 0 is_stmt 0 discriminator 1
 2703 0da4 059B     		ldr	r3, [sp, #20]
 2704 0da6 9D42     		cmp	r5, r3
 2705 0da8 00D2     		bcs	.LCB2673
 2706 0daa 57E7     		b	.L166	@long jump
 2707              	.LCB2673:
 2708              	.LVL427:
 2709              	.L165:
 587:Source\azure_iot_sdk\uamqp\src/amqpvalue_to_string.c ****                     }
 588:Source\azure_iot_sdk\uamqp\src/amqpvalue_to_string.c ****                 }
 589:Source\azure_iot_sdk\uamqp\src/amqpvalue_to_string.c **** 
 590:Source\azure_iot_sdk\uamqp\src/amqpvalue_to_string.c ****                 if (i < count)
 2710              		.loc 1 590 0 is_stmt 1
 2711 0dac 059B     		ldr	r3, [sp, #20]
 2712 0dae 9D42     		cmp	r5, r3
 2713 0db0 05D2     		bcs	.L167
 591:Source\azure_iot_sdk\uamqp\src/amqpvalue_to_string.c ****                 {
 592:Source\azure_iot_sdk\uamqp\src/amqpvalue_to_string.c ****                     // no log here, we already logged the error
 593:Source\azure_iot_sdk\uamqp\src/amqpvalue_to_string.c ****                     free(result);
 2714              		.loc 1 593 0
 2715 0db2 0F98     		ldr	r0, [sp, #60]
 2716 0db4 FFF7FEFF 		bl	free
 2717              	.LVL428:
 594:Source\azure_iot_sdk\uamqp\src/amqpvalue_to_string.c ****                     result = NULL;
 2718              		.loc 1 594 0
 2719 0db8 0023     		movs	r3, #0
 2720 0dba 0F93     		str	r3, [sp, #60]
 2721 0dbc 68E1     		b	.L10
 2722              	.L167:
 595:Source\azure_iot_sdk\uamqp\src/amqpvalue_to_string.c ****                 }
 596:Source\azure_iot_sdk\uamqp\src/amqpvalue_to_string.c ****                 else if (string_concat(&result, "}") != 0)
 2723              		.loc 1 596 0
 2724 0dbe 2049     		ldr	r1, .L206+24
 2725 0dc0 0FA8     		add	r0, sp, #60
 2726 0dc2 FFF7FEFF 		bl	string_concat
 2727              	.LVL429:
 2728 0dc6 0028     		cmp	r0, #0
 2729 0dc8 00D1     		bne	.LCB2694
 2730 0dca 61E1     		b	.L10	@long jump
 2731              	.LCB2694:
 2732              	.LBB88:
 597:Source\azure_iot_sdk\uamqp\src/amqpvalue_to_string.c ****                 {
 598:Source\azure_iot_sdk\uamqp\src/amqpvalue_to_string.c ****                     LogError("Failure building amqp value string");
 2733              		.loc 1 598 0 discriminator 3
 2734 0dcc FFF7FEFF 		bl	xlogging_get_log_function
 2735              	.LVL430:
 2736 0dd0 041E     		subs	r4, r0, #0
 2737              	.LVL431:
 2738 0dd2 09D0     		beq	.L168
ARM GAS  C:\Users\Phuong\AppData\Local\Temp\ccU7OqD6.s 			page 60


 2739              		.loc 1 598 0 is_stmt 0 discriminator 4
 2740 0dd4 194B     		ldr	r3, .L206+20
 2741 0dd6 0193     		str	r3, [sp, #4]
 2742 0dd8 0123     		movs	r3, #1
 2743 0dda 0093     		str	r3, [sp]
 2744 0ddc 264B     		ldr	r3, .L206+80
 2745 0dde 134A     		ldr	r2, .L206+4
 2746 0de0 1032     		adds	r2, r2, #16
 2747 0de2 1349     		ldr	r1, .L206+8
 2748 0de4 0020     		movs	r0, #0
 2749              	.LVL432:
 2750 0de6 A047     		blx	r4
 2751              	.LVL433:
 2752              	.L168:
 2753              	.LBE88:
 599:Source\azure_iot_sdk\uamqp\src/amqpvalue_to_string.c ****                     free(result);
 2754              		.loc 1 599 0 is_stmt 1
 2755 0de8 0F98     		ldr	r0, [sp, #60]
 2756 0dea FFF7FEFF 		bl	free
 2757              	.LVL434:
 600:Source\azure_iot_sdk\uamqp\src/amqpvalue_to_string.c ****                     result = NULL;
 2758              		.loc 1 600 0
 2759 0dee 0023     		movs	r3, #0
 2760 0df0 0F93     		str	r3, [sp, #60]
 2761 0df2 4DE1     		b	.L10
 2762              	.LVL435:
 2763              	.L33:
 2764              	.LBE89:
 2765              	.LBE77:
 2766              	.LBB90:
 601:Source\azure_iot_sdk\uamqp\src/amqpvalue_to_string.c ****                 }
 602:Source\azure_iot_sdk\uamqp\src/amqpvalue_to_string.c ****             }
 603:Source\azure_iot_sdk\uamqp\src/amqpvalue_to_string.c ****             break;
 604:Source\azure_iot_sdk\uamqp\src/amqpvalue_to_string.c ****         }
 605:Source\azure_iot_sdk\uamqp\src/amqpvalue_to_string.c ****         case AMQP_TYPE_ARRAY:
 606:Source\azure_iot_sdk\uamqp\src/amqpvalue_to_string.c ****         {
 607:Source\azure_iot_sdk\uamqp\src/amqpvalue_to_string.c ****             uint32_t count;
 608:Source\azure_iot_sdk\uamqp\src/amqpvalue_to_string.c ****             if (amqpvalue_get_array_item_count(amqp_value, &count) != 0)
 2767              		.loc 1 608 0
 2768 0df4 08A9     		add	r1, sp, #32
 2769 0df6 2000     		movs	r0, r4
 2770 0df8 FFF7FEFF 		bl	amqpvalue_get_array_item_count
 2771              	.LVL436:
 2772 0dfc 0028     		cmp	r0, #0
 2773 0dfe 41D0     		beq	.L169
 2774              	.LBB91:
 609:Source\azure_iot_sdk\uamqp\src/amqpvalue_to_string.c ****             {
 610:Source\azure_iot_sdk\uamqp\src/amqpvalue_to_string.c ****                 LogError("Failure getting array item count");
 2775              		.loc 1 610 0 discriminator 3
 2776 0e00 FFF7FEFF 		bl	xlogging_get_log_function
 2777              	.LVL437:
 2778 0e04 041E     		subs	r4, r0, #0
 2779              	.LVL438:
 2780 0e06 09D0     		beq	.L170
 2781              		.loc 1 610 0 is_stmt 0 discriminator 4
 2782 0e08 1C4B     		ldr	r3, .L206+84
 2783 0e0a 0193     		str	r3, [sp, #4]
ARM GAS  C:\Users\Phuong\AppData\Local\Temp\ccU7OqD6.s 			page 61


 2784 0e0c 0123     		movs	r3, #1
 2785 0e0e 0093     		str	r3, [sp]
 2786 0e10 1B4B     		ldr	r3, .L206+88
 2787 0e12 064A     		ldr	r2, .L206+4
 2788 0e14 1032     		adds	r2, r2, #16
 2789 0e16 0649     		ldr	r1, .L206+8
 2790 0e18 0020     		movs	r0, #0
 2791              	.LVL439:
 2792 0e1a A047     		blx	r4
 2793              	.LVL440:
 2794              	.L170:
 2795              	.LBE91:
 611:Source\azure_iot_sdk\uamqp\src/amqpvalue_to_string.c ****                 free(result);
 2796              		.loc 1 611 0 is_stmt 1
 2797 0e1c 0F98     		ldr	r0, [sp, #60]
 2798 0e1e FFF7FEFF 		bl	free
 2799              	.LVL441:
 612:Source\azure_iot_sdk\uamqp\src/amqpvalue_to_string.c ****                 result = NULL;
 2800              		.loc 1 612 0
 2801 0e22 0023     		movs	r3, #0
 2802 0e24 0F93     		str	r3, [sp, #60]
 2803 0e26 33E1     		b	.L10
 2804              	.L207:
 2805              		.align	2
 2806              	.L206:
 2807 0e28 68030000 		.word	.LC90
 2808 0e2c 5C000000 		.word	.LANCHOR0
 2809 0e30 00000000 		.word	.LC1
 2810 0e34 8C030000 		.word	.LC92
 2811 0e38 B4030000 		.word	.LC94
 2812 0e3c 98000000 		.word	.LC20
 2813 0e40 B8030000 		.word	.LC96
 2814 0e44 BC030000 		.word	.LC98
 2815 0e48 07020000 		.word	519
 2816 0e4c 64030000 		.word	.LC88
 2817 0e50 0D020000 		.word	525
 2818 0e54 DC030000 		.word	.LC100
 2819 0e58 1A020000 		.word	538
 2820 0e5c 04040000 		.word	.LC102
 2821 0e60 22020000 		.word	546
 2822 0e64 38040000 		.word	.LC104
 2823 0e68 68040000 		.word	.LC106
 2824 0e6c 6C040000 		.word	.LC108
 2825 0e70 70040000 		.word	.LC110
 2826 0e74 3B020000 		.word	571
 2827 0e78 56020000 		.word	598
 2828 0e7c 74040000 		.word	.LC112
 2829 0e80 62020000 		.word	610
 2830              	.LVL442:
 2831              	.L169:
 613:Source\azure_iot_sdk\uamqp\src/amqpvalue_to_string.c ****             }
 614:Source\azure_iot_sdk\uamqp\src/amqpvalue_to_string.c ****             else if (string_concat(&result, "{") != 0)
 2832              		.loc 1 614 0
 2833 0e84 8449     		ldr	r1, .L208
 2834 0e86 0FA8     		add	r0, sp, #60
 2835 0e88 FFF7FEFF 		bl	string_concat
 2836              	.LVL443:
ARM GAS  C:\Users\Phuong\AppData\Local\Temp\ccU7OqD6.s 			page 62


 2837 0e8c 0028     		cmp	r0, #0
 2838 0e8e 6DD0     		beq	.L198
 2839              	.LBB92:
 615:Source\azure_iot_sdk\uamqp\src/amqpvalue_to_string.c ****             {
 616:Source\azure_iot_sdk\uamqp\src/amqpvalue_to_string.c ****                 LogError("Failure building amqp value string");
 2840              		.loc 1 616 0 discriminator 3
 2841 0e90 FFF7FEFF 		bl	xlogging_get_log_function
 2842              	.LVL444:
 2843 0e94 041E     		subs	r4, r0, #0
 2844              	.LVL445:
 2845 0e96 0AD0     		beq	.L173
 2846              		.loc 1 616 0 is_stmt 0 discriminator 4
 2847 0e98 804B     		ldr	r3, .L208+4
 2848 0e9a 0193     		str	r3, [sp, #4]
 2849 0e9c 0123     		movs	r3, #1
 2850 0e9e 0093     		str	r3, [sp]
 2851 0ea0 9A23     		movs	r3, #154
 2852 0ea2 9B00     		lsls	r3, r3, #2
 2853 0ea4 7E4A     		ldr	r2, .L208+8
 2854 0ea6 1032     		adds	r2, r2, #16
 2855 0ea8 7E49     		ldr	r1, .L208+12
 2856 0eaa 0020     		movs	r0, #0
 2857              	.LVL446:
 2858 0eac A047     		blx	r4
 2859              	.LVL447:
 2860              	.L173:
 2861              	.LBE92:
 617:Source\azure_iot_sdk\uamqp\src/amqpvalue_to_string.c ****                 free(result);
 2862              		.loc 1 617 0 is_stmt 1
 2863 0eae 0F98     		ldr	r0, [sp, #60]
 2864 0eb0 FFF7FEFF 		bl	free
 2865              	.LVL448:
 618:Source\azure_iot_sdk\uamqp\src/amqpvalue_to_string.c ****                 result = NULL;
 2866              		.loc 1 618 0
 2867 0eb4 0023     		movs	r3, #0
 2868 0eb6 0F93     		str	r3, [sp, #60]
 2869 0eb8 EAE0     		b	.L10
 2870              	.LVL449:
 2871              	.L182:
 2872              	.LBB93:
 2873              	.LBB94:
 619:Source\azure_iot_sdk\uamqp\src/amqpvalue_to_string.c ****             }
 620:Source\azure_iot_sdk\uamqp\src/amqpvalue_to_string.c ****             else
 621:Source\azure_iot_sdk\uamqp\src/amqpvalue_to_string.c ****             {
 622:Source\azure_iot_sdk\uamqp\src/amqpvalue_to_string.c ****                 uint32_t i;
 623:Source\azure_iot_sdk\uamqp\src/amqpvalue_to_string.c ****                 for (i = 0; i < count; i++)
 624:Source\azure_iot_sdk\uamqp\src/amqpvalue_to_string.c ****                 {
 625:Source\azure_iot_sdk\uamqp\src/amqpvalue_to_string.c ****                     AMQP_VALUE item = amqpvalue_get_array_item(amqp_value, i);
 2874              		.loc 1 625 0
 2875 0eba 2900     		movs	r1, r5
 2876 0ebc 2000     		movs	r0, r4
 2877 0ebe FFF7FEFF 		bl	amqpvalue_get_array_item
 2878              	.LVL450:
 2879 0ec2 061E     		subs	r6, r0, #0
 2880              	.LVL451:
 626:Source\azure_iot_sdk\uamqp\src/amqpvalue_to_string.c ****                     if (item == NULL)
 2881              		.loc 1 626 0
ARM GAS  C:\Users\Phuong\AppData\Local\Temp\ccU7OqD6.s 			page 63


 2882 0ec4 10D1     		bne	.L174
 2883              	.LBB95:
 627:Source\azure_iot_sdk\uamqp\src/amqpvalue_to_string.c ****                     {
 628:Source\azure_iot_sdk\uamqp\src/amqpvalue_to_string.c ****                         LogError("Failure getting array item for index %u", (unsigned int)i);
 2884              		.loc 1 628 0 discriminator 3
 2885 0ec6 FFF7FEFF 		bl	xlogging_get_log_function
 2886              	.LVL452:
 2887 0eca 041E     		subs	r4, r0, #0
 2888              	.LVL453:
 2889 0ecc 52D0     		beq	.L175
 2890              		.loc 1 628 0 is_stmt 0 discriminator 4
 2891 0ece 0295     		str	r5, [sp, #8]
 2892 0ed0 754B     		ldr	r3, .L208+16
 2893 0ed2 0193     		str	r3, [sp, #4]
 2894 0ed4 0123     		movs	r3, #1
 2895 0ed6 0093     		str	r3, [sp]
 2896 0ed8 9D23     		movs	r3, #157
 2897 0eda 9B00     		lsls	r3, r3, #2
 2898 0edc 704A     		ldr	r2, .L208+8
 2899 0ede 1032     		adds	r2, r2, #16
 2900 0ee0 7049     		ldr	r1, .L208+12
 2901 0ee2 0020     		movs	r0, #0
 2902              	.LVL454:
 2903 0ee4 A047     		blx	r4
 2904              	.LVL455:
 2905 0ee6 45E0     		b	.L175
 2906              	.LVL456:
 2907              	.L174:
 2908              	.LBE95:
 2909              	.LBB96:
 629:Source\azure_iot_sdk\uamqp\src/amqpvalue_to_string.c ****                         break;
 630:Source\azure_iot_sdk\uamqp\src/amqpvalue_to_string.c ****                     }
 631:Source\azure_iot_sdk\uamqp\src/amqpvalue_to_string.c ****                     else
 632:Source\azure_iot_sdk\uamqp\src/amqpvalue_to_string.c ****                     {
 633:Source\azure_iot_sdk\uamqp\src/amqpvalue_to_string.c ****                         char* item_string = amqpvalue_to_string(item);
 2910              		.loc 1 633 0 is_stmt 1
 2911 0ee8 FFF7FEFF 		bl	amqpvalue_to_string
 2912              	.LVL457:
 2913 0eec 071E     		subs	r7, r0, #0
 2914              	.LVL458:
 634:Source\azure_iot_sdk\uamqp\src/amqpvalue_to_string.c ****                         if (item_string == NULL)
 2915              		.loc 1 634 0
 2916 0eee 13D1     		bne	.L176
 2917              	.LBB97:
 635:Source\azure_iot_sdk\uamqp\src/amqpvalue_to_string.c ****                         {
 636:Source\azure_iot_sdk\uamqp\src/amqpvalue_to_string.c ****                             LogError("Failure getting stringified array item value for index %u", (
 2918              		.loc 1 636 0 discriminator 3
 2919 0ef0 FFF7FEFF 		bl	xlogging_get_log_function
 2920              	.LVL459:
 2921 0ef4 041E     		subs	r4, r0, #0
 2922              	.LVL460:
 2923 0ef6 0BD0     		beq	.L177
 2924              		.loc 1 636 0 is_stmt 0 discriminator 4
 2925 0ef8 0295     		str	r5, [sp, #8]
 2926 0efa 6C4B     		ldr	r3, .L208+20
 2927 0efc 0193     		str	r3, [sp, #4]
 2928 0efe 0123     		movs	r3, #1
ARM GAS  C:\Users\Phuong\AppData\Local\Temp\ccU7OqD6.s 			page 64


 2929 0f00 0093     		str	r3, [sp]
 2930 0f02 9F23     		movs	r3, #159
 2931 0f04 9B00     		lsls	r3, r3, #2
 2932 0f06 664A     		ldr	r2, .L208+8
 2933 0f08 1032     		adds	r2, r2, #16
 2934 0f0a 6649     		ldr	r1, .L208+12
 2935 0f0c 0020     		movs	r0, #0
 2936              	.LVL461:
 2937 0f0e A047     		blx	r4
 2938              	.LVL462:
 2939              	.L177:
 2940              	.LBE97:
 637:Source\azure_iot_sdk\uamqp\src/amqpvalue_to_string.c ****                             amqpvalue_destroy(item);
 2941              		.loc 1 637 0 is_stmt 1
 2942 0f10 3000     		movs	r0, r6
 2943 0f12 FFF7FEFF 		bl	amqpvalue_destroy
 2944              	.LVL463:
 638:Source\azure_iot_sdk\uamqp\src/amqpvalue_to_string.c ****                             break;
 2945              		.loc 1 638 0
 2946 0f16 2DE0     		b	.L175
 2947              	.LVL464:
 2948              	.L176:
 639:Source\azure_iot_sdk\uamqp\src/amqpvalue_to_string.c ****                         }
 640:Source\azure_iot_sdk\uamqp\src/amqpvalue_to_string.c ****                         else
 641:Source\azure_iot_sdk\uamqp\src/amqpvalue_to_string.c ****                         {
 642:Source\azure_iot_sdk\uamqp\src/amqpvalue_to_string.c ****                             if (((i > 0) && (string_concat(&result, ",") != 0)) ||
 2949              		.loc 1 642 0
 2950 0f18 002D     		cmp	r5, #0
 2951 0f1a 05D0     		beq	.L178
 2952              		.loc 1 642 0 is_stmt 0 discriminator 1
 2953 0f1c 6449     		ldr	r1, .L208+24
 2954 0f1e 0FA8     		add	r0, sp, #60
 2955              	.LVL465:
 2956 0f20 FFF7FEFF 		bl	string_concat
 2957              	.LVL466:
 2958 0f24 0028     		cmp	r0, #0
 2959 0f26 05D1     		bne	.L179
 2960              	.L178:
 643:Source\azure_iot_sdk\uamqp\src/amqpvalue_to_string.c ****                                  (string_concat(&result, item_string) != 0))
 2961              		.loc 1 643 0 is_stmt 1 discriminator 3
 2962 0f28 3900     		movs	r1, r7
 2963 0f2a 0FA8     		add	r0, sp, #60
 2964 0f2c FFF7FEFF 		bl	string_concat
 2965              	.LVL467:
 642:Source\azure_iot_sdk\uamqp\src/amqpvalue_to_string.c ****                                  (string_concat(&result, item_string) != 0))
 2966              		.loc 1 642 0 discriminator 3
 2967 0f30 0028     		cmp	r0, #0
 2968 0f32 13D0     		beq	.L180
 2969              	.L179:
 2970              	.LBB98:
 644:Source\azure_iot_sdk\uamqp\src/amqpvalue_to_string.c ****                             {
 645:Source\azure_iot_sdk\uamqp\src/amqpvalue_to_string.c ****                                 LogError("Failure building amqp value string");
 2971              		.loc 1 645 0 discriminator 3
 2972 0f34 FFF7FEFF 		bl	xlogging_get_log_function
 2973              	.LVL468:
 2974 0f38 041E     		subs	r4, r0, #0
 2975              	.LVL469:
ARM GAS  C:\Users\Phuong\AppData\Local\Temp\ccU7OqD6.s 			page 65


 2976 0f3a 09D0     		beq	.L181
 2977              		.loc 1 645 0 is_stmt 0 discriminator 4
 2978 0f3c 574B     		ldr	r3, .L208+4
 2979 0f3e 0193     		str	r3, [sp, #4]
 2980 0f40 0123     		movs	r3, #1
 2981 0f42 0093     		str	r3, [sp]
 2982 0f44 5B4B     		ldr	r3, .L208+28
 2983 0f46 564A     		ldr	r2, .L208+8
 2984 0f48 1032     		adds	r2, r2, #16
 2985 0f4a 5649     		ldr	r1, .L208+12
 2986 0f4c 0020     		movs	r0, #0
 2987              	.LVL470:
 2988 0f4e A047     		blx	r4
 2989              	.LVL471:
 2990              	.L181:
 2991              	.LBE98:
 646:Source\azure_iot_sdk\uamqp\src/amqpvalue_to_string.c ****                                 free(result);
 2992              		.loc 1 646 0 is_stmt 1
 2993 0f50 0F98     		ldr	r0, [sp, #60]
 2994 0f52 FFF7FEFF 		bl	free
 2995              	.LVL472:
 647:Source\azure_iot_sdk\uamqp\src/amqpvalue_to_string.c ****                                 result = NULL;
 2996              		.loc 1 647 0
 2997 0f56 0023     		movs	r3, #0
 2998 0f58 0F93     		str	r3, [sp, #60]
 648:Source\azure_iot_sdk\uamqp\src/amqpvalue_to_string.c ****                                 break;
 2999              		.loc 1 648 0
 3000 0f5a 0BE0     		b	.L175
 3001              	.LVL473:
 3002              	.L180:
 649:Source\azure_iot_sdk\uamqp\src/amqpvalue_to_string.c ****                             }
 650:Source\azure_iot_sdk\uamqp\src/amqpvalue_to_string.c **** 
 651:Source\azure_iot_sdk\uamqp\src/amqpvalue_to_string.c ****                             free(item_string);
 3003              		.loc 1 651 0 discriminator 2
 3004 0f5c 3800     		movs	r0, r7
 3005 0f5e FFF7FEFF 		bl	free
 3006              	.LVL474:
 652:Source\azure_iot_sdk\uamqp\src/amqpvalue_to_string.c ****                         }
 653:Source\azure_iot_sdk\uamqp\src/amqpvalue_to_string.c **** 
 654:Source\azure_iot_sdk\uamqp\src/amqpvalue_to_string.c ****                         amqpvalue_destroy(item);
 3007              		.loc 1 654 0 discriminator 2
 3008 0f62 3000     		movs	r0, r6
 3009 0f64 FFF7FEFF 		bl	amqpvalue_destroy
 3010              	.LVL475:
 3011              	.LBE96:
 3012              	.LBE94:
 623:Source\azure_iot_sdk\uamqp\src/amqpvalue_to_string.c ****                 {
 3013              		.loc 1 623 0 discriminator 2
 3014 0f68 0135     		adds	r5, r5, #1
 3015              	.LVL476:
 3016 0f6a 00E0     		b	.L172
 3017              	.LVL477:
 3018              	.L198:
 3019              	.LBE93:
 3020 0f6c 0025     		movs	r5, #0
 3021              	.L172:
 3022              	.LVL478:
ARM GAS  C:\Users\Phuong\AppData\Local\Temp\ccU7OqD6.s 			page 66


 3023              	.LBB100:
 623:Source\azure_iot_sdk\uamqp\src/amqpvalue_to_string.c ****                 {
 3024              		.loc 1 623 0 is_stmt 0 discriminator 1
 3025 0f6e 089B     		ldr	r3, [sp, #32]
 3026 0f70 9D42     		cmp	r5, r3
 3027 0f72 A2D3     		bcc	.L182
 3028              	.LVL479:
 3029              	.L175:
 655:Source\azure_iot_sdk\uamqp\src/amqpvalue_to_string.c ****                     }
 656:Source\azure_iot_sdk\uamqp\src/amqpvalue_to_string.c ****                 }
 657:Source\azure_iot_sdk\uamqp\src/amqpvalue_to_string.c **** 
 658:Source\azure_iot_sdk\uamqp\src/amqpvalue_to_string.c ****                 if (i < count)
 3030              		.loc 1 658 0 is_stmt 1
 3031 0f74 089B     		ldr	r3, [sp, #32]
 3032 0f76 9D42     		cmp	r5, r3
 3033 0f78 05D2     		bcs	.L183
 659:Source\azure_iot_sdk\uamqp\src/amqpvalue_to_string.c ****                 {
 660:Source\azure_iot_sdk\uamqp\src/amqpvalue_to_string.c ****                     // no log here, we already logged the error
 661:Source\azure_iot_sdk\uamqp\src/amqpvalue_to_string.c ****                     free(result);
 3034              		.loc 1 661 0
 3035 0f7a 0F98     		ldr	r0, [sp, #60]
 3036 0f7c FFF7FEFF 		bl	free
 3037              	.LVL480:
 662:Source\azure_iot_sdk\uamqp\src/amqpvalue_to_string.c ****                     result = NULL;
 3038              		.loc 1 662 0
 3039 0f80 0023     		movs	r3, #0
 3040 0f82 0F93     		str	r3, [sp, #60]
 3041 0f84 84E0     		b	.L10
 3042              	.L183:
 663:Source\azure_iot_sdk\uamqp\src/amqpvalue_to_string.c ****                 }
 664:Source\azure_iot_sdk\uamqp\src/amqpvalue_to_string.c ****                 else if (string_concat(&result, "}") != 0)
 3043              		.loc 1 664 0
 3044 0f86 4C49     		ldr	r1, .L208+32
 3045 0f88 0FA8     		add	r0, sp, #60
 3046 0f8a FFF7FEFF 		bl	string_concat
 3047              	.LVL481:
 3048 0f8e 0028     		cmp	r0, #0
 3049 0f90 00D1     		bne	.LCB3034
 3050 0f92 7DE0     		b	.L10	@long jump
 3051              	.LCB3034:
 3052              	.LBB99:
 665:Source\azure_iot_sdk\uamqp\src/amqpvalue_to_string.c ****                 {
 666:Source\azure_iot_sdk\uamqp\src/amqpvalue_to_string.c ****                     LogError("Failure building amqp value string");
 3053              		.loc 1 666 0 discriminator 3
 3054 0f94 FFF7FEFF 		bl	xlogging_get_log_function
 3055              	.LVL482:
 3056 0f98 041E     		subs	r4, r0, #0
 3057              	.LVL483:
 3058 0f9a 09D0     		beq	.L184
 3059              		.loc 1 666 0 is_stmt 0 discriminator 4
 3060 0f9c 3F4B     		ldr	r3, .L208+4
 3061 0f9e 0193     		str	r3, [sp, #4]
 3062 0fa0 0123     		movs	r3, #1
 3063 0fa2 0093     		str	r3, [sp]
 3064 0fa4 454B     		ldr	r3, .L208+36
 3065 0fa6 3E4A     		ldr	r2, .L208+8
 3066 0fa8 1032     		adds	r2, r2, #16
ARM GAS  C:\Users\Phuong\AppData\Local\Temp\ccU7OqD6.s 			page 67


 3067 0faa 3E49     		ldr	r1, .L208+12
 3068 0fac 0020     		movs	r0, #0
 3069              	.LVL484:
 3070 0fae A047     		blx	r4
 3071              	.LVL485:
 3072              	.L184:
 3073              	.LBE99:
 667:Source\azure_iot_sdk\uamqp\src/amqpvalue_to_string.c ****                     free(result);
 3074              		.loc 1 667 0 is_stmt 1
 3075 0fb0 0F98     		ldr	r0, [sp, #60]
 3076 0fb2 FFF7FEFF 		bl	free
 3077              	.LVL486:
 668:Source\azure_iot_sdk\uamqp\src/amqpvalue_to_string.c ****                     result = NULL;
 3078              		.loc 1 668 0
 3079 0fb6 0023     		movs	r3, #0
 3080 0fb8 0F93     		str	r3, [sp, #60]
 3081 0fba 69E0     		b	.L10
 3082              	.LVL487:
 3083              	.L34:
 3084              	.LBE100:
 3085              	.LBE90:
 3086              	.LBB101:
 669:Source\azure_iot_sdk\uamqp\src/amqpvalue_to_string.c ****                 }
 670:Source\azure_iot_sdk\uamqp\src/amqpvalue_to_string.c ****             }
 671:Source\azure_iot_sdk\uamqp\src/amqpvalue_to_string.c ****             break;
 672:Source\azure_iot_sdk\uamqp\src/amqpvalue_to_string.c ****         }
 673:Source\azure_iot_sdk\uamqp\src/amqpvalue_to_string.c ****         case AMQP_TYPE_COMPOSITE:
 674:Source\azure_iot_sdk\uamqp\src/amqpvalue_to_string.c ****         case AMQP_TYPE_DESCRIBED:
 675:Source\azure_iot_sdk\uamqp\src/amqpvalue_to_string.c ****         {
 676:Source\azure_iot_sdk\uamqp\src/amqpvalue_to_string.c ****             AMQP_VALUE described_value = amqpvalue_get_inplace_described_value(amqp_value);
 3087              		.loc 1 676 0
 3088 0fbc 2000     		movs	r0, r4
 3089 0fbe FFF7FEFF 		bl	amqpvalue_get_inplace_described_value
 3090              	.LVL488:
 3091 0fc2 041E     		subs	r4, r0, #0
 3092              	.LVL489:
 677:Source\azure_iot_sdk\uamqp\src/amqpvalue_to_string.c ****             if (described_value == NULL)
 3093              		.loc 1 677 0
 3094 0fc4 13D1     		bne	.L185
 3095              	.LBB102:
 678:Source\azure_iot_sdk\uamqp\src/amqpvalue_to_string.c ****             {
 679:Source\azure_iot_sdk\uamqp\src/amqpvalue_to_string.c ****                 LogError("Failure getting described value");
 3096              		.loc 1 679 0 discriminator 3
 3097 0fc6 FFF7FEFF 		bl	xlogging_get_log_function
 3098              	.LVL490:
 3099 0fca 041E     		subs	r4, r0, #0
 3100              	.LVL491:
 3101 0fcc 09D0     		beq	.L186
 3102              		.loc 1 679 0 is_stmt 0 discriminator 4
 3103 0fce 3C4B     		ldr	r3, .L208+40
 3104 0fd0 0193     		str	r3, [sp, #4]
 3105 0fd2 0123     		movs	r3, #1
 3106 0fd4 0093     		str	r3, [sp]
 3107 0fd6 3B4B     		ldr	r3, .L208+44
 3108 0fd8 314A     		ldr	r2, .L208+8
 3109 0fda 1032     		adds	r2, r2, #16
 3110 0fdc 3149     		ldr	r1, .L208+12
ARM GAS  C:\Users\Phuong\AppData\Local\Temp\ccU7OqD6.s 			page 68


 3111 0fde 0020     		movs	r0, #0
 3112              	.LVL492:
 3113 0fe0 A047     		blx	r4
 3114              	.LVL493:
 3115              	.L186:
 3116              	.LBE102:
 680:Source\azure_iot_sdk\uamqp\src/amqpvalue_to_string.c ****                 free(result);
 3117              		.loc 1 680 0 is_stmt 1
 3118 0fe2 0F98     		ldr	r0, [sp, #60]
 3119 0fe4 FFF7FEFF 		bl	free
 3120              	.LVL494:
 681:Source\azure_iot_sdk\uamqp\src/amqpvalue_to_string.c ****                 result = NULL;
 3121              		.loc 1 681 0
 3122 0fe8 0023     		movs	r3, #0
 3123 0fea 0F93     		str	r3, [sp, #60]
 3124 0fec 50E0     		b	.L10
 3125              	.LVL495:
 3126              	.L185:
 682:Source\azure_iot_sdk\uamqp\src/amqpvalue_to_string.c ****             }
 683:Source\azure_iot_sdk\uamqp\src/amqpvalue_to_string.c ****             else
 684:Source\azure_iot_sdk\uamqp\src/amqpvalue_to_string.c ****             {
 685:Source\azure_iot_sdk\uamqp\src/amqpvalue_to_string.c ****                 if (string_concat(&result, "* ") != 0)
 3127              		.loc 1 685 0
 3128 0fee 3649     		ldr	r1, .L208+48
 3129 0ff0 0FA8     		add	r0, sp, #60
 3130              	.LVL496:
 3131 0ff2 FFF7FEFF 		bl	string_concat
 3132              	.LVL497:
 3133 0ff6 0028     		cmp	r0, #0
 3134 0ff8 13D0     		beq	.L187
 3135              	.LBB103:
 686:Source\azure_iot_sdk\uamqp\src/amqpvalue_to_string.c ****                 {
 687:Source\azure_iot_sdk\uamqp\src/amqpvalue_to_string.c ****                     LogError("Failure building amqp value string");
 3136              		.loc 1 687 0 discriminator 3
 3137 0ffa FFF7FEFF 		bl	xlogging_get_log_function
 3138              	.LVL498:
 3139 0ffe 041E     		subs	r4, r0, #0
 3140              	.LVL499:
 3141 1000 09D0     		beq	.L188
 3142              		.loc 1 687 0 is_stmt 0 discriminator 4
 3143 1002 264B     		ldr	r3, .L208+4
 3144 1004 0193     		str	r3, [sp, #4]
 3145 1006 0123     		movs	r3, #1
 3146 1008 0093     		str	r3, [sp]
 3147 100a 304B     		ldr	r3, .L208+52
 3148 100c 244A     		ldr	r2, .L208+8
 3149 100e 1032     		adds	r2, r2, #16
 3150 1010 2449     		ldr	r1, .L208+12
 3151 1012 0020     		movs	r0, #0
 3152              	.LVL500:
 3153 1014 A047     		blx	r4
 3154              	.LVL501:
 3155              	.L188:
 3156              	.LBE103:
 688:Source\azure_iot_sdk\uamqp\src/amqpvalue_to_string.c ****                     free(result);
 3157              		.loc 1 688 0 is_stmt 1
 3158 1016 0F98     		ldr	r0, [sp, #60]
ARM GAS  C:\Users\Phuong\AppData\Local\Temp\ccU7OqD6.s 			page 69


 3159 1018 FFF7FEFF 		bl	free
 3160              	.LVL502:
 689:Source\azure_iot_sdk\uamqp\src/amqpvalue_to_string.c ****                     result = NULL;
 3161              		.loc 1 689 0
 3162 101c 0023     		movs	r3, #0
 3163 101e 0F93     		str	r3, [sp, #60]
 3164 1020 36E0     		b	.L10
 3165              	.LVL503:
 3166              	.L187:
 3167              	.LBB104:
 690:Source\azure_iot_sdk\uamqp\src/amqpvalue_to_string.c ****                 }
 691:Source\azure_iot_sdk\uamqp\src/amqpvalue_to_string.c ****                 else
 692:Source\azure_iot_sdk\uamqp\src/amqpvalue_to_string.c ****                 {
 693:Source\azure_iot_sdk\uamqp\src/amqpvalue_to_string.c ****                     char* described_value_string = amqpvalue_to_string(described_value);
 3168              		.loc 1 693 0
 3169 1022 2000     		movs	r0, r4
 3170 1024 FFF7FEFF 		bl	amqpvalue_to_string
 3171              	.LVL504:
 3172 1028 041E     		subs	r4, r0, #0
 3173              	.LVL505:
 694:Source\azure_iot_sdk\uamqp\src/amqpvalue_to_string.c ****                     if (described_value_string == NULL)
 3174              		.loc 1 694 0
 3175 102a 14D1     		bne	.L189
 3176              	.LBB105:
 695:Source\azure_iot_sdk\uamqp\src/amqpvalue_to_string.c ****                     {
 696:Source\azure_iot_sdk\uamqp\src/amqpvalue_to_string.c ****                         LogError("Failure getting stringified described value");
 3177              		.loc 1 696 0 discriminator 3
 3178 102c FFF7FEFF 		bl	xlogging_get_log_function
 3179              	.LVL506:
 3180 1030 041E     		subs	r4, r0, #0
 3181              	.LVL507:
 3182 1032 0AD0     		beq	.L190
 3183              		.loc 1 696 0 is_stmt 0 discriminator 4
 3184 1034 264B     		ldr	r3, .L208+56
 3185 1036 0193     		str	r3, [sp, #4]
 3186 1038 0123     		movs	r3, #1
 3187 103a 0093     		str	r3, [sp]
 3188 103c AE23     		movs	r3, #174
 3189 103e 9B00     		lsls	r3, r3, #2
 3190 1040 174A     		ldr	r2, .L208+8
 3191 1042 1032     		adds	r2, r2, #16
 3192 1044 1749     		ldr	r1, .L208+12
 3193 1046 0020     		movs	r0, #0
 3194              	.LVL508:
 3195 1048 A047     		blx	r4
 3196              	.LVL509:
 3197              	.L190:
 3198              	.LBE105:
 697:Source\azure_iot_sdk\uamqp\src/amqpvalue_to_string.c ****                         free(result);
 3199              		.loc 1 697 0 is_stmt 1
 3200 104a 0F98     		ldr	r0, [sp, #60]
 3201 104c FFF7FEFF 		bl	free
 3202              	.LVL510:
 698:Source\azure_iot_sdk\uamqp\src/amqpvalue_to_string.c ****                         result = NULL;
 3203              		.loc 1 698 0
 3204 1050 0023     		movs	r3, #0
 3205 1052 0F93     		str	r3, [sp, #60]
ARM GAS  C:\Users\Phuong\AppData\Local\Temp\ccU7OqD6.s 			page 70


 3206 1054 1CE0     		b	.L10
 3207              	.LVL511:
 3208              	.L189:
 699:Source\azure_iot_sdk\uamqp\src/amqpvalue_to_string.c ****                     }
 700:Source\azure_iot_sdk\uamqp\src/amqpvalue_to_string.c ****                     else
 701:Source\azure_iot_sdk\uamqp\src/amqpvalue_to_string.c ****                     {
 702:Source\azure_iot_sdk\uamqp\src/amqpvalue_to_string.c ****                         if (string_concat(&result, described_value_string) != 0)
 3209              		.loc 1 702 0
 3210 1056 0100     		movs	r1, r0
 3211 1058 0FA8     		add	r0, sp, #60
 3212              	.LVL512:
 3213 105a FFF7FEFF 		bl	string_concat
 3214              	.LVL513:
 3215 105e 0028     		cmp	r0, #0
 3216 1060 13D0     		beq	.L191
 3217              	.LBB106:
 703:Source\azure_iot_sdk\uamqp\src/amqpvalue_to_string.c ****                         {
 704:Source\azure_iot_sdk\uamqp\src/amqpvalue_to_string.c ****                             LogError("Failure building amqp value string");
 3218              		.loc 1 704 0 discriminator 3
 3219 1062 FFF7FEFF 		bl	xlogging_get_log_function
 3220              	.LVL514:
 3221 1066 051E     		subs	r5, r0, #0
 3222              	.LVL515:
 3223 1068 0AD0     		beq	.L192
 3224              		.loc 1 704 0 is_stmt 0 discriminator 4
 3225 106a 0C4B     		ldr	r3, .L208+4
 3226 106c 0193     		str	r3, [sp, #4]
 3227 106e 0123     		movs	r3, #1
 3228 1070 0093     		str	r3, [sp]
 3229 1072 B023     		movs	r3, #176
 3230 1074 9B00     		lsls	r3, r3, #2
 3231 1076 0A4A     		ldr	r2, .L208+8
 3232 1078 1032     		adds	r2, r2, #16
 3233 107a 0A49     		ldr	r1, .L208+12
 3234 107c 0020     		movs	r0, #0
 3235              	.LVL516:
 3236 107e A847     		blx	r5
 3237              	.LVL517:
 3238              	.L192:
 3239              	.LBE106:
 705:Source\azure_iot_sdk\uamqp\src/amqpvalue_to_string.c ****                             free(result);
 3240              		.loc 1 705 0 is_stmt 1
 3241 1080 0F98     		ldr	r0, [sp, #60]
 3242 1082 FFF7FEFF 		bl	free
 3243              	.LVL518:
 706:Source\azure_iot_sdk\uamqp\src/amqpvalue_to_string.c ****                             result = NULL;
 3244              		.loc 1 706 0
 3245 1086 0023     		movs	r3, #0
 3246 1088 0F93     		str	r3, [sp, #60]
 3247              	.LVL519:
 3248              	.L191:
 707:Source\azure_iot_sdk\uamqp\src/amqpvalue_to_string.c ****                         }
 708:Source\azure_iot_sdk\uamqp\src/amqpvalue_to_string.c **** 
 709:Source\azure_iot_sdk\uamqp\src/amqpvalue_to_string.c ****                         free(described_value_string);
 3249              		.loc 1 709 0
 3250 108a 2000     		movs	r0, r4
 3251 108c FFF7FEFF 		bl	free
ARM GAS  C:\Users\Phuong\AppData\Local\Temp\ccU7OqD6.s 			page 71


 3252              	.LVL520:
 3253              	.L10:
 3254              	.LBE104:
 3255              	.LBE101:
 3256              	.LBE3:
 710:Source\azure_iot_sdk\uamqp\src/amqpvalue_to_string.c ****                     }
 711:Source\azure_iot_sdk\uamqp\src/amqpvalue_to_string.c ****                 }
 712:Source\azure_iot_sdk\uamqp\src/amqpvalue_to_string.c ****             }
 713:Source\azure_iot_sdk\uamqp\src/amqpvalue_to_string.c ****             break;
 714:Source\azure_iot_sdk\uamqp\src/amqpvalue_to_string.c ****         }
 715:Source\azure_iot_sdk\uamqp\src/amqpvalue_to_string.c ****         }
 716:Source\azure_iot_sdk\uamqp\src/amqpvalue_to_string.c ****     }
 717:Source\azure_iot_sdk\uamqp\src/amqpvalue_to_string.c **** 
 718:Source\azure_iot_sdk\uamqp\src/amqpvalue_to_string.c ****     return result;
 719:Source\azure_iot_sdk\uamqp\src/amqpvalue_to_string.c **** }
 3257              		.loc 1 719 0
 3258 1090 0F98     		ldr	r0, [sp, #60]
 3259 1092 11B0     		add	sp, sp, #68
 3260              		@ sp needed
 3261 1094 F0BD     		pop	{r4, r5, r6, r7, pc}
 3262              	.L209:
 3263 1096 C046     		.align	2
 3264              	.L208:
 3265 1098 64030000 		.word	.LC88
 3266 109c 98000000 		.word	.LC20
 3267 10a0 5C000000 		.word	.LANCHOR0
 3268 10a4 00000000 		.word	.LC1
 3269 10a8 98040000 		.word	.LC114
 3270 10ac C0040000 		.word	.LC116
 3271 10b0 B4030000 		.word	.LC94
 3272 10b4 85020000 		.word	645
 3273 10b8 B8030000 		.word	.LC96
 3274 10bc 9A020000 		.word	666
 3275 10c0 FC040000 		.word	.LC118
 3276 10c4 A7020000 		.word	679
 3277 10c8 1C050000 		.word	.LC120
 3278 10cc AF020000 		.word	687
 3279 10d0 20050000 		.word	.LC122
 3280              		.cfi_endproc
 3281              	.LFE2:
 3282              		.size	amqpvalue_to_string, .-amqpvalue_to_string
 3283              		.section	.rodata
 3284              		.align	2
 3285              		.set	.LANCHOR0,. + 0
 3286              		.type	__func__.6133, %object
 3287              		.size	__func__.6133, 14
 3288              	__func__.6133:
 3289 005c 73747269 		.ascii	"string_concat\000"
 3289      6E675F63 
 3289      6F6E6361 
 3289      7400
 3290 006a 0000     		.space	2
 3291              		.type	__func__.6143, %object
 3292              		.size	__func__.6143, 20
 3293              	__func__.6143:
 3294 006c 616D7170 		.ascii	"amqpvalue_to_string\000"
 3294      76616C75 
ARM GAS  C:\Users\Phuong\AppData\Local\Temp\ccU7OqD6.s 			page 72


 3294      655F746F 
 3294      5F737472 
 3294      696E6700 
 3295              		.section	.rodata.str1.4,"aMS",%progbits,1
 3296              		.align	2
 3297              	.LC1:
 3298 0000 536F7572 		.ascii	"Source\\azure_iot_sdk\\uamqp\\src\\amqpvalue_to_str"
 3298      63655C61 
 3298      7A757265 
 3298      5F696F74 
 3298      5F73646B 
 3299 002f 696E672E 		.ascii	"ing.c\000"
 3299      6300
 3300 0035 000000   		.space	3
 3301              	.LC3:
 3302 0038 43616E6E 		.ascii	"Cannot allocate memory for the new string\000"
 3302      6F742061 
 3302      6C6C6F63 
 3302      61746520 
 3302      6D656D6F 
 3303 0062 0000     		.space	2
 3304              	.LC5:
 3305 0064 74727565 		.ascii	"true\000"
 3305      00
 3306 0069 000000   		.space	3
 3307              	.LC7:
 3308 006c 66616C73 		.ascii	"false\000"
 3308      6500
 3309 0072 0000     		.space	2
 3310              	.LC9:
 3311 0074 2000     		.ascii	" \000"
 3312 0076 0000     		.space	2
 3313              	.LC11:
 3314 0078 00       		.ascii	"\000"
 3315 0079 000000   		.space	3
 3316              	.LC16:
 3317 007c 556E6B6E 		.ascii	"Unknown AMQP type\000"
 3317      6F776E20 
 3317      414D5150 
 3317      20747970 
 3317      6500
 3318 008e 0000     		.space	2
 3319              	.LC18:
 3320 0090 4E554C4C 		.ascii	"NULL\000"
 3320      00
 3321 0095 000000   		.space	3
 3322              	.LC20:
 3323 0098 4661696C 		.ascii	"Failure building amqp value string\000"
 3323      75726520 
 3323      6275696C 
 3323      64696E67 
 3323      20616D71 
 3324 00bb 00       		.space	1
 3325              	.LC22:
 3326 00bc 4661696C 		.ascii	"Failure getting bool value\000"
 3326      75726520 
 3326      67657474 
ARM GAS  C:\Users\Phuong\AppData\Local\Temp\ccU7OqD6.s 			page 73


 3326      696E6720 
 3326      626F6F6C 
 3327 00d7 00       		.space	1
 3328              	.LC24:
 3329 00d8 4661696C 		.ascii	"Failure getting ubyte value\000"
 3329      75726520 
 3329      67657474 
 3329      696E6720 
 3329      75627974 
 3330              	.LC26:
 3331 00f4 25686875 		.ascii	"%hhu\000"
 3331      00
 3332 00f9 000000   		.space	3
 3333              	.LC28:
 3334 00fc 4661696C 		.ascii	"Failure getting ushort value\000"
 3334      75726520 
 3334      67657474 
 3334      696E6720 
 3334      7573686F 
 3335 0119 000000   		.space	3
 3336              	.LC30:
 3337 011c 25687500 		.ascii	"%hu\000"
 3338              	.LC32:
 3339 0120 4661696C 		.ascii	"Failure getting uint value\000"
 3339      75726520 
 3339      67657474 
 3339      696E6720 
 3339      75696E74 
 3340 013b 00       		.space	1
 3341              	.LC34:
 3342 013c 256C7500 		.ascii	"%lu\000"
 3343              	.LC36:
 3344 0140 4661696C 		.ascii	"Failure getting ulong value\000"
 3344      75726520 
 3344      67657474 
 3344      696E6720 
 3344      756C6F6E 
 3345              	.LC38:
 3346 015c 256C6C75 		.ascii	"%llu\000"
 3346      00
 3347 0161 000000   		.space	3
 3348              	.LC40:
 3349 0164 4661696C 		.ascii	"Failure getting byte value\000"
 3349      75726520 
 3349      67657474 
 3349      696E6720 
 3349      62797465 
 3350 017f 00       		.space	1
 3351              	.LC42:
 3352 0180 25686864 		.ascii	"%hhd\000"
 3352      00
 3353 0185 000000   		.space	3
 3354              	.LC44:
 3355 0188 4661696C 		.ascii	"Failure getting short value\000"
 3355      75726520 
 3355      67657474 
 3355      696E6720 
ARM GAS  C:\Users\Phuong\AppData\Local\Temp\ccU7OqD6.s 			page 74


 3355      73686F72 
 3356              	.LC46:
 3357 01a4 25686400 		.ascii	"%hd\000"
 3358              	.LC48:
 3359 01a8 4661696C 		.ascii	"Failure getting int value\000"
 3359      75726520 
 3359      67657474 
 3359      696E6720 
 3359      696E7420 
 3360 01c2 0000     		.space	2
 3361              	.LC50:
 3362 01c4 256C6400 		.ascii	"%ld\000"
 3363              	.LC52:
 3364 01c8 4661696C 		.ascii	"Failure getting long value\000"
 3364      75726520 
 3364      67657474 
 3364      696E6720 
 3364      6C6F6E67 
 3365 01e3 00       		.space	1
 3366              	.LC54:
 3367 01e4 256C6C64 		.ascii	"%lld\000"
 3367      00
 3368 01e9 000000   		.space	3
 3369              	.LC56:
 3370 01ec 4661696C 		.ascii	"Failure getting float value\000"
 3370      75726520 
 3370      67657474 
 3370      696E6720 
 3370      666C6F61 
 3371              	.LC58:
 3372 0208 252E3032 		.ascii	"%.02f\000"
 3372      6600
 3373 020e 0000     		.space	2
 3374              	.LC60:
 3375 0210 4661696C 		.ascii	"Failure getting double value\000"
 3375      75726520 
 3375      67657474 
 3375      696E6720 
 3375      646F7562 
 3376 022d 000000   		.space	3
 3377              	.LC62:
 3378 0230 252E3032 		.ascii	"%.02lf\000"
 3378      6C6600
 3379 0237 00       		.space	1
 3380              	.LC64:
 3381 0238 4661696C 		.ascii	"Failure getting char value\000"
 3381      75726520 
 3381      67657474 
 3381      696E6720 
 3381      63686172 
 3382 0253 00       		.space	1
 3383              	.LC66:
 3384 0254 55253032 		.ascii	"U%02X%02X%02X%02X\000"
 3384      58253032 
 3384      58253032 
 3384      58253032 
 3384      5800
ARM GAS  C:\Users\Phuong\AppData\Local\Temp\ccU7OqD6.s 			page 75


 3385 0266 0000     		.space	2
 3386              	.LC68:
 3387 0268 4661696C 		.ascii	"Failure getting timestamp value\000"
 3387      75726520 
 3387      67657474 
 3387      696E6720 
 3387      74696D65 
 3388              	.LC70:
 3389 0288 4661696C 		.ascii	"Failure getting uuid value\000"
 3389      75726520 
 3389      67657474 
 3389      696E6720 
 3389      75756964 
 3390 02a3 00       		.space	1
 3391              	.LC72:
 3392 02a4 4661696C 		.ascii	"Failure getting UUID stringified value\000"
 3392      75726520 
 3392      67657474 
 3392      696E6720 
 3392      55554944 
 3393 02cb 00       		.space	1
 3394              	.LC74:
 3395 02cc 4661696C 		.ascii	"Failure getting binary value\000"
 3395      75726520 
 3395      67657474 
 3395      696E6720 
 3395      62696E61 
 3396 02e9 000000   		.space	3
 3397              	.LC76:
 3398 02ec 3C00     		.ascii	"<\000"
 3399 02ee 0000     		.space	2
 3400              	.LC78:
 3401 02f0 25732530 		.ascii	"%s%02X\000"
 3401      325800
 3402 02f7 00       		.space	1
 3403              	.LC80:
 3404 02f8 3E00     		.ascii	">\000"
 3405 02fa 0000     		.space	2
 3406              	.LC82:
 3407 02fc 4661696C 		.ascii	"Failure getting string value\000"
 3407      75726520 
 3407      67657474 
 3407      696E6720 
 3407      73747269 
 3408 0319 000000   		.space	3
 3409              	.LC84:
 3410 031c 4661696C 		.ascii	"Failure getting symbol value\000"
 3410      75726520 
 3410      67657474 
 3410      696E6720 
 3410      73796D62 
 3411 0339 000000   		.space	3
 3412              	.LC86:
 3413 033c 4661696C 		.ascii	"Failure getting list item count value\000"
 3413      75726520 
 3413      67657474 
 3413      696E6720 
ARM GAS  C:\Users\Phuong\AppData\Local\Temp\ccU7OqD6.s 			page 76


 3413      6C697374 
 3414 0362 0000     		.space	2
 3415              	.LC88:
 3416 0364 7B00     		.ascii	"{\000"
 3417 0366 0000     		.space	2
 3418              	.LC90:
 3419 0368 4661696C 		.ascii	"Failure getting item %u from list\000"
 3419      75726520 
 3419      67657474 
 3419      696E6720 
 3419      6974656D 
 3420 038a 0000     		.space	2
 3421              	.LC92:
 3422 038c 4661696C 		.ascii	"Failure converting item %u to string\000"
 3422      75726520 
 3422      636F6E76 
 3422      65727469 
 3422      6E672069 
 3423 03b1 000000   		.space	3
 3424              	.LC94:
 3425 03b4 2C00     		.ascii	",\000"
 3426 03b6 0000     		.space	2
 3427              	.LC96:
 3428 03b8 7D00     		.ascii	"}\000"
 3429 03ba 0000     		.space	2
 3430              	.LC98:
 3431 03bc 4661696C 		.ascii	"Failure getting map pair count\000"
 3431      75726520 
 3431      67657474 
 3431      696E6720 
 3431      6D617020 
 3432 03db 00       		.space	1
 3433              	.LC100:
 3434 03dc 4661696C 		.ascii	"Failure getting key/value pair index %u\000"
 3434      75726520 
 3434      67657474 
 3434      696E6720 
 3434      6B65792F 
 3435              	.LC102:
 3436 0404 4661696C 		.ascii	"Failure getting stringified key value for index %u\000"
 3436      75726520 
 3436      67657474 
 3436      696E6720 
 3436      73747269 
 3437 0437 00       		.space	1
 3438              	.LC104:
 3439 0438 4661696C 		.ascii	"Failure getting stringified value for index %u\000"
 3439      75726520 
 3439      67657474 
 3439      696E6720 
 3439      73747269 
 3440 0467 00       		.space	1
 3441              	.LC106:
 3442 0468 5B00     		.ascii	"[\000"
 3443 046a 0000     		.space	2
 3444              	.LC108:
 3445 046c 3A00     		.ascii	":\000"
ARM GAS  C:\Users\Phuong\AppData\Local\Temp\ccU7OqD6.s 			page 77


 3446 046e 0000     		.space	2
 3447              	.LC110:
 3448 0470 5D00     		.ascii	"]\000"
 3449 0472 0000     		.space	2
 3450              	.LC112:
 3451 0474 4661696C 		.ascii	"Failure getting array item count\000"
 3451      75726520 
 3451      67657474 
 3451      696E6720 
 3451      61727261 
 3452 0495 000000   		.space	3
 3453              	.LC114:
 3454 0498 4661696C 		.ascii	"Failure getting array item for index %u\000"
 3454      75726520 
 3454      67657474 
 3454      696E6720 
 3454      61727261 
 3455              	.LC116:
 3456 04c0 4661696C 		.ascii	"Failure getting stringified array item value for in"
 3456      75726520 
 3456      67657474 
 3456      696E6720 
 3456      73747269 
 3457 04f3 64657820 		.ascii	"dex %u\000"
 3457      257500
 3458 04fa 0000     		.space	2
 3459              	.LC118:
 3460 04fc 4661696C 		.ascii	"Failure getting described value\000"
 3460      75726520 
 3460      67657474 
 3460      696E6720 
 3460      64657363 
 3461              	.LC120:
 3462 051c 2A2000   		.ascii	"* \000"
 3463 051f 00       		.space	1
 3464              	.LC122:
 3465 0520 4661696C 		.ascii	"Failure getting stringified described value\000"
 3465      75726520 
 3465      67657474 
 3465      696E6720 
 3465      73747269 
 3466              		.text
 3467              	.Letext0:
 3468              		.file 2 "c:\\program files (x86)\\cypress\\psoc creator\\4.2\\psoc creator\\import\\gnu\\arm\\5.4.
 3469              		.file 3 "c:\\program files (x86)\\cypress\\psoc creator\\4.2\\psoc creator\\import\\gnu\\arm\\5.4.
 3470              		.file 4 "c:\\program files (x86)\\cypress\\psoc creator\\4.2\\psoc creator\\import\\gnu\\arm\\5.4.
 3471              		.file 5 ".\\Source\\azure_iot_sdk\\c-utility\\inc/azure_c_shared_utility/xlogging.h"
 3472              		.file 6 ".\\Source\\azure_iot_sdk\\c-utility\\inc/azure_c_shared_utility/uuid.h"
 3473              		.file 7 ".\\Source\\azure_iot_sdk\\uamqp\\inc/azure_uamqp_c/amqp_types.h"
 3474              		.file 8 ".\\Source\\azure_iot_sdk\\uamqp\\inc/azure_uamqp_c/amqpvalue.h"
 3475              		.file 9 "c:\\program files (x86)\\cypress\\psoc creator\\4.2\\psoc creator\\import\\gnu\\arm\\5.4.
 3476              		.file 10 "c:\\program files (x86)\\cypress\\psoc creator\\4.2\\psoc creator\\import\\gnu\\arm\\5.4
 3477              		.file 11 "c:\\program files (x86)\\cypress\\psoc creator\\4.2\\psoc creator\\import\\gnu\\arm\\5.4
 3478              		.section	.debug_info,"",%progbits
 3479              	.Ldebug_info0:
 3480 0000 C32C0000 		.4byte	0x2cc3
 3481 0004 0400     		.2byte	0x4
ARM GAS  C:\Users\Phuong\AppData\Local\Temp\ccU7OqD6.s 			page 78


 3482 0006 00000000 		.4byte	.Ldebug_abbrev0
 3483 000a 04       		.byte	0x4
 3484 000b 01       		.uleb128 0x1
 3485 000c 6C010000 		.4byte	.LASF125
 3486 0010 0C       		.byte	0xc
 3487 0011 D4040000 		.4byte	.LASF126
 3488 0015 C1020000 		.4byte	.LASF127
 3489 0019 60000000 		.4byte	.Ldebug_ranges0+0x60
 3490 001d 00000000 		.4byte	0
 3491 0021 00000000 		.4byte	.Ldebug_line0
 3492 0025 02       		.uleb128 0x2
 3493 0026 79030000 		.4byte	.LASF4
 3494 002a 02       		.byte	0x2
 3495 002b D8       		.byte	0xd8
 3496 002c 30000000 		.4byte	0x30
 3497 0030 03       		.uleb128 0x3
 3498 0031 04       		.byte	0x4
 3499 0032 07       		.byte	0x7
 3500 0033 89000000 		.4byte	.LASF0
 3501 0037 04       		.uleb128 0x4
 3502 0038 04       		.byte	0x4
 3503 0039 05       		.byte	0x5
 3504 003a 696E7400 		.ascii	"int\000"
 3505 003e 03       		.uleb128 0x3
 3506 003f 08       		.byte	0x8
 3507 0040 05       		.byte	0x5
 3508 0041 BA040000 		.4byte	.LASF1
 3509 0045 03       		.uleb128 0x3
 3510 0046 08       		.byte	0x8
 3511 0047 04       		.byte	0x4
 3512 0048 C5050000 		.4byte	.LASF2
 3513 004c 03       		.uleb128 0x3
 3514 004d 01       		.byte	0x1
 3515 004e 06       		.byte	0x6
 3516 004f 14080000 		.4byte	.LASF3
 3517 0053 02       		.uleb128 0x2
 3518 0054 BA060000 		.4byte	.LASF5
 3519 0058 03       		.byte	0x3
 3520 0059 1D       		.byte	0x1d
 3521 005a 5E000000 		.4byte	0x5e
 3522 005e 03       		.uleb128 0x3
 3523 005f 01       		.byte	0x1
 3524 0060 08       		.byte	0x8
 3525 0061 5F070000 		.4byte	.LASF6
 3526 0065 02       		.uleb128 0x2
 3527 0066 2A050000 		.4byte	.LASF7
 3528 006a 03       		.byte	0x3
 3529 006b 29       		.byte	0x29
 3530 006c 70000000 		.4byte	0x70
 3531 0070 03       		.uleb128 0x3
 3532 0071 02       		.byte	0x2
 3533 0072 05       		.byte	0x5
 3534 0073 37060000 		.4byte	.LASF8
 3535 0077 02       		.uleb128 0x2
 3536 0078 8D020000 		.4byte	.LASF9
 3537 007c 03       		.byte	0x3
 3538 007d 2B       		.byte	0x2b
ARM GAS  C:\Users\Phuong\AppData\Local\Temp\ccU7OqD6.s 			page 79


 3539 007e 82000000 		.4byte	0x82
 3540 0082 03       		.uleb128 0x3
 3541 0083 02       		.byte	0x2
 3542 0084 07       		.byte	0x7
 3543 0085 2E080000 		.4byte	.LASF10
 3544 0089 02       		.uleb128 0x2
 3545 008a AF000000 		.4byte	.LASF11
 3546 008e 03       		.byte	0x3
 3547 008f 3F       		.byte	0x3f
 3548 0090 94000000 		.4byte	0x94
 3549 0094 03       		.uleb128 0x3
 3550 0095 04       		.byte	0x4
 3551 0096 05       		.byte	0x5
 3552 0097 41060000 		.4byte	.LASF12
 3553 009b 02       		.uleb128 0x2
 3554 009c 6D070000 		.4byte	.LASF13
 3555 00a0 03       		.byte	0x3
 3556 00a1 41       		.byte	0x41
 3557 00a2 A6000000 		.4byte	0xa6
 3558 00a6 03       		.uleb128 0x3
 3559 00a7 04       		.byte	0x4
 3560 00a8 07       		.byte	0x7
 3561 00a9 33070000 		.4byte	.LASF14
 3562 00ad 02       		.uleb128 0x2
 3563 00ae BB050000 		.4byte	.LASF15
 3564 00b2 03       		.byte	0x3
 3565 00b3 59       		.byte	0x59
 3566 00b4 3E000000 		.4byte	0x3e
 3567 00b8 02       		.uleb128 0x2
 3568 00b9 CF030000 		.4byte	.LASF16
 3569 00bd 03       		.byte	0x3
 3570 00be 5B       		.byte	0x5b
 3571 00bf C3000000 		.4byte	0xc3
 3572 00c3 03       		.uleb128 0x3
 3573 00c4 08       		.byte	0x8
 3574 00c5 07       		.byte	0x7
 3575 00c6 52020000 		.4byte	.LASF17
 3576 00ca 03       		.uleb128 0x3
 3577 00cb 04       		.byte	0x4
 3578 00cc 07       		.byte	0x7
 3579 00cd 2A070000 		.4byte	.LASF18
 3580 00d1 05       		.uleb128 0x5
 3581 00d2 04       		.byte	0x4
 3582 00d3 D7000000 		.4byte	0xd7
 3583 00d7 03       		.uleb128 0x3
 3584 00d8 01       		.byte	0x1
 3585 00d9 08       		.byte	0x8
 3586 00da 33040000 		.4byte	.LASF19
 3587 00de 05       		.uleb128 0x5
 3588 00df 04       		.byte	0x4
 3589 00e0 E4000000 		.4byte	0xe4
 3590 00e4 06       		.uleb128 0x6
 3591 00e5 D7000000 		.4byte	0xd7
 3592 00e9 07       		.uleb128 0x7
 3593 00ea D7000000 		.4byte	0xd7
 3594 00ee F9000000 		.4byte	0xf9
 3595 00f2 08       		.uleb128 0x8
ARM GAS  C:\Users\Phuong\AppData\Local\Temp\ccU7OqD6.s 			page 80


 3596 00f3 CA000000 		.4byte	0xca
 3597 00f7 18       		.byte	0x18
 3598 00f8 00       		.byte	0
 3599 00f9 05       		.uleb128 0x5
 3600 00fa 04       		.byte	0x4
 3601 00fb FF000000 		.4byte	0xff
 3602 00ff 09       		.uleb128 0x9
 3603 0100 02       		.uleb128 0x2
 3604 0101 85040000 		.4byte	.LASF20
 3605 0105 04       		.byte	0x4
 3606 0106 18       		.byte	0x18
 3607 0107 53000000 		.4byte	0x53
 3608 010b 02       		.uleb128 0x2
 3609 010c 2F020000 		.4byte	.LASF21
 3610 0110 04       		.byte	0x4
 3611 0111 20       		.byte	0x20
 3612 0112 65000000 		.4byte	0x65
 3613 0116 02       		.uleb128 0x2
 3614 0117 E3050000 		.4byte	.LASF22
 3615 011b 04       		.byte	0x4
 3616 011c 24       		.byte	0x24
 3617 011d 77000000 		.4byte	0x77
 3618 0121 02       		.uleb128 0x2
 3619 0122 45070000 		.4byte	.LASF23
 3620 0126 04       		.byte	0x4
 3621 0127 2C       		.byte	0x2c
 3622 0128 89000000 		.4byte	0x89
 3623 012c 02       		.uleb128 0x2
 3624 012d 25010000 		.4byte	.LASF24
 3625 0131 04       		.byte	0x4
 3626 0132 30       		.byte	0x30
 3627 0133 9B000000 		.4byte	0x9b
 3628 0137 02       		.uleb128 0x2
 3629 0138 80030000 		.4byte	.LASF25
 3630 013c 04       		.byte	0x4
 3631 013d 38       		.byte	0x38
 3632 013e AD000000 		.4byte	0xad
 3633 0142 02       		.uleb128 0x2
 3634 0143 84060000 		.4byte	.LASF26
 3635 0147 04       		.byte	0x4
 3636 0148 3C       		.byte	0x3c
 3637 0149 B8000000 		.4byte	0xb8
 3638 014d 0A       		.uleb128 0xa
 3639 014e A2070000 		.4byte	.LASF33
 3640 0152 01       		.byte	0x1
 3641 0153 5E000000 		.4byte	0x5e
 3642 0157 05       		.byte	0x5
 3643 0158 22       		.byte	0x22
 3644 0159 70010000 		.4byte	0x170
 3645 015d 0B       		.uleb128 0xb
 3646 015e 0B060000 		.4byte	.LASF27
 3647 0162 00       		.byte	0
 3648 0163 0B       		.uleb128 0xb
 3649 0164 79040000 		.4byte	.LASF28
 3650 0168 01       		.byte	0x1
 3651 0169 0B       		.uleb128 0xb
 3652 016a D3070000 		.4byte	.LASF29
ARM GAS  C:\Users\Phuong\AppData\Local\Temp\ccU7OqD6.s 			page 81


 3653 016e 02       		.byte	0x2
 3654 016f 00       		.byte	0
 3655 0170 02       		.uleb128 0x2
 3656 0171 0E040000 		.4byte	.LASF30
 3657 0175 05       		.byte	0x5
 3658 0176 27       		.byte	0x27
 3659 0177 4D010000 		.4byte	0x14d
 3660 017b 02       		.uleb128 0x2
 3661 017c 1F070000 		.4byte	.LASF31
 3662 0180 05       		.byte	0x5
 3663 0181 2F       		.byte	0x2f
 3664 0182 86010000 		.4byte	0x186
 3665 0186 05       		.uleb128 0x5
 3666 0187 04       		.byte	0x4
 3667 0188 8C010000 		.4byte	0x18c
 3668 018c 0C       		.uleb128 0xc
 3669 018d B1010000 		.4byte	0x1b1
 3670 0191 0D       		.uleb128 0xd
 3671 0192 70010000 		.4byte	0x170
 3672 0196 0D       		.uleb128 0xd
 3673 0197 DE000000 		.4byte	0xde
 3674 019b 0D       		.uleb128 0xd
 3675 019c DE000000 		.4byte	0xde
 3676 01a0 0D       		.uleb128 0xd
 3677 01a1 37000000 		.4byte	0x37
 3678 01a5 0D       		.uleb128 0xd
 3679 01a6 30000000 		.4byte	0x30
 3680 01aa 0D       		.uleb128 0xd
 3681 01ab DE000000 		.4byte	0xde
 3682 01af 0E       		.uleb128 0xe
 3683 01b0 00       		.byte	0
 3684 01b1 02       		.uleb128 0x2
 3685 01b2 6A060000 		.4byte	.LASF32
 3686 01b6 06       		.byte	0x6
 3687 01b7 13       		.byte	0x13
 3688 01b8 BC010000 		.4byte	0x1bc
 3689 01bc 07       		.uleb128 0x7
 3690 01bd 5E000000 		.4byte	0x5e
 3691 01c1 CC010000 		.4byte	0x1cc
 3692 01c5 08       		.uleb128 0x8
 3693 01c6 CA000000 		.4byte	0xca
 3694 01ca 0F       		.byte	0xf
 3695 01cb 00       		.byte	0
 3696 01cc 0A       		.uleb128 0xa
 3697 01cd 20080000 		.4byte	.LASF34
 3698 01d1 01       		.byte	0x1
 3699 01d2 5E000000 		.4byte	0x5e
 3700 01d6 07       		.byte	0x7
 3701 01d7 28       		.byte	0x28
 3702 01d8 6D020000 		.4byte	0x26d
 3703 01dc 0B       		.uleb128 0xb
 3704 01dd B3070000 		.4byte	.LASF35
 3705 01e1 00       		.byte	0
 3706 01e2 0B       		.uleb128 0xb
 3707 01e3 EC060000 		.4byte	.LASF36
 3708 01e7 01       		.byte	0x1
 3709 01e8 0B       		.uleb128 0xb
ARM GAS  C:\Users\Phuong\AppData\Local\Temp\ccU7OqD6.s 			page 82


 3710 01e9 EF000000 		.4byte	.LASF37
 3711 01ed 02       		.byte	0x2
 3712 01ee 0B       		.uleb128 0xb
 3713 01ef 99050000 		.4byte	.LASF38
 3714 01f3 03       		.byte	0x3
 3715 01f4 0B       		.uleb128 0xb
 3716 01f5 98020000 		.4byte	.LASF39
 3717 01f9 04       		.byte	0x4
 3718 01fa 0B       		.uleb128 0xb
 3719 01fb 81050000 		.4byte	.LASF40
 3720 01ff 05       		.byte	0x5
 3721 0200 0B       		.uleb128 0xb
 3722 0201 58000000 		.4byte	.LASF41
 3723 0205 06       		.byte	0x6
 3724 0206 0B       		.uleb128 0xb
 3725 0207 69020000 		.4byte	.LASF42
 3726 020b 07       		.byte	0x7
 3727 020c 0B       		.uleb128 0xb
 3728 020d 88030000 		.4byte	.LASF43
 3729 0211 08       		.byte	0x8
 3730 0212 0B       		.uleb128 0xb
 3731 0213 8D040000 		.4byte	.LASF44
 3732 0217 09       		.byte	0x9
 3733 0218 0B       		.uleb128 0xb
 3734 0219 A1080000 		.4byte	.LASF45
 3735 021d 0A       		.byte	0xa
 3736 021e 0B       		.uleb128 0xb
 3737 021f AA050000 		.4byte	.LASF46
 3738 0223 0B       		.byte	0xb
 3739 0224 0B       		.uleb128 0xb
 3740 0225 FC050000 		.4byte	.LASF47
 3741 0229 0C       		.byte	0xc
 3742 022a 0B       		.uleb128 0xb
 3743 022b 79020000 		.4byte	.LASF48
 3744 022f 0D       		.byte	0xd
 3745 0230 0B       		.uleb128 0xb
 3746 0231 51060000 		.4byte	.LASF49
 3747 0235 0E       		.byte	0xe
 3748 0236 0B       		.uleb128 0xb
 3749 0237 19050000 		.4byte	.LASF50
 3750 023b 0F       		.byte	0xf
 3751 023c 0B       		.uleb128 0xb
 3752 023d 4B010000 		.4byte	.LASF51
 3753 0241 10       		.byte	0x10
 3754 0242 0B       		.uleb128 0xb
 3755 0243 C2070000 		.4byte	.LASF52
 3756 0247 11       		.byte	0x11
 3757 0248 0B       		.uleb128 0xb
 3758 0249 38040000 		.4byte	.LASF53
 3759 024d 12       		.byte	0x12
 3760 024e 0B       		.uleb128 0xb
 3761 024f 67000000 		.4byte	.LASF54
 3762 0253 13       		.byte	0x13
 3763 0254 0B       		.uleb128 0xb
 3764 0255 F0030000 		.4byte	.LASF55
 3765 0259 14       		.byte	0x14
 3766 025a 0B       		.uleb128 0xb
ARM GAS  C:\Users\Phuong\AppData\Local\Temp\ccU7OqD6.s 			page 83


 3767 025b 37020000 		.4byte	.LASF56
 3768 025f 15       		.byte	0x15
 3769 0260 0B       		.uleb128 0xb
 3770 0261 23060000 		.4byte	.LASF57
 3771 0265 16       		.byte	0x16
 3772 0266 0B       		.uleb128 0xb
 3773 0267 4D070000 		.4byte	.LASF58
 3774 026b 17       		.byte	0x17
 3775 026c 00       		.byte	0
 3776 026d 02       		.uleb128 0x2
 3777 026e 5C010000 		.4byte	.LASF59
 3778 0272 07       		.byte	0x7
 3779 0273 28       		.byte	0x28
 3780 0274 CC010000 		.4byte	0x1cc
 3781 0278 02       		.uleb128 0x2
 3782 0279 18060000 		.4byte	.LASF60
 3783 027d 08       		.byte	0x8
 3784 027e 15       		.byte	0x15
 3785 027f 83020000 		.4byte	0x283
 3786 0283 05       		.uleb128 0x5
 3787 0284 04       		.byte	0x4
 3788 0285 89020000 		.4byte	0x289
 3789 0289 0F       		.uleb128 0xf
 3790 028a FE010000 		.4byte	.LASF128
 3791 028e 02       		.uleb128 0x2
 3792 028f C5030000 		.4byte	.LASF61
 3793 0293 08       		.byte	0x8
 3794 0294 16       		.byte	0x16
 3795 0295 BC010000 		.4byte	0x1bc
 3796 0299 10       		.uleb128 0x10
 3797 029a EC050000 		.4byte	.LASF129
 3798 029e 08       		.byte	0x8
 3799 029f 08       		.byte	0x8
 3800 02a0 19       		.byte	0x19
 3801 02a1 BE020000 		.4byte	0x2be
 3802 02a5 11       		.uleb128 0x11
 3803 02a6 BF030000 		.4byte	.LASF62
 3804 02aa 08       		.byte	0x8
 3805 02ab 1B       		.byte	0x1b
 3806 02ac F9000000 		.4byte	0xf9
 3807 02b0 00       		.byte	0
 3808 02b1 11       		.uleb128 0x11
 3809 02b2 4A060000 		.4byte	.LASF63
 3810 02b6 08       		.byte	0x8
 3811 02b7 1C       		.byte	0x1c
 3812 02b8 2C010000 		.4byte	0x12c
 3813 02bc 04       		.byte	0x4
 3814 02bd 00       		.byte	0
 3815 02be 02       		.uleb128 0x2
 3816 02bf 19010000 		.4byte	.LASF64
 3817 02c3 08       		.byte	0x8
 3818 02c4 1D       		.byte	0x1d
 3819 02c5 99020000 		.4byte	0x299
 3820 02c9 12       		.uleb128 0x12
 3821 02ca 00040000 		.4byte	.LASF130
 3822 02ce 01       		.byte	0x1
 3823 02cf 16       		.byte	0x16
ARM GAS  C:\Users\Phuong\AppData\Local\Temp\ccU7OqD6.s 			page 84


 3824 02d0 37000000 		.4byte	0x37
 3825 02d4 00000000 		.4byte	.LFB1
 3826 02d8 70000000 		.4byte	.LFE1-.LFB1
 3827 02dc 01       		.uleb128 0x1
 3828 02dd 9C       		.byte	0x9c
 3829 02de 03040000 		.4byte	0x403
 3830 02e2 13       		.uleb128 0x13
 3831 02e3 47040000 		.4byte	.LASF65
 3832 02e7 01       		.byte	0x1
 3833 02e8 16       		.byte	0x16
 3834 02e9 03040000 		.4byte	0x403
 3835 02ed 00000000 		.4byte	.LLST0
 3836 02f1 13       		.uleb128 0x13
 3837 02f2 00000000 		.4byte	.LASF66
 3838 02f6 01       		.byte	0x1
 3839 02f7 16       		.byte	0x16
 3840 02f8 DE000000 		.4byte	0xde
 3841 02fc 2C000000 		.4byte	.LLST1
 3842 0300 14       		.uleb128 0x14
 3843 0301 4B020000 		.4byte	.LASF67
 3844 0305 01       		.byte	0x1
 3845 0306 18       		.byte	0x18
 3846 0307 37000000 		.4byte	0x37
 3847 030b 4B000000 		.4byte	.LLST2
 3848 030f 14       		.uleb128 0x14
 3849 0310 28040000 		.4byte	.LASF68
 3850 0314 01       		.byte	0x1
 3851 0315 19       		.byte	0x19
 3852 0316 D1000000 		.4byte	0xd1
 3853 031a 6A000000 		.4byte	.LLST3
 3854 031e 14       		.uleb128 0x14
 3855 031f 4A060000 		.4byte	.LASF63
 3856 0323 01       		.byte	0x1
 3857 0324 1A       		.byte	0x1a
 3858 0325 25000000 		.4byte	0x25
 3859 0329 94000000 		.4byte	.LLST4
 3860 032d 14       		.uleb128 0x14
 3861 032e 9C030000 		.4byte	.LASF69
 3862 0332 01       		.byte	0x1
 3863 0333 1B       		.byte	0x1b
 3864 0334 25000000 		.4byte	0x25
 3865 0338 A7000000 		.4byte	.LLST5
 3866 033c 15       		.uleb128 0x15
 3867 033d 48080000 		.4byte	.LASF71
 3868 0341 19040000 		.4byte	0x419
 3869 0345 05       		.uleb128 0x5
 3870 0346 03       		.byte	0x3
 3871 0347 5C000000 		.4byte	__func__.6133
 3872 034b 16       		.uleb128 0x16
 3873 034c 2E000000 		.4byte	.LBB2
 3874 0350 1A000000 		.4byte	.LBE2-.LBB2
 3875 0354 A5030000 		.4byte	0x3a5
 3876 0358 17       		.uleb128 0x17
 3877 0359 6C00     		.ascii	"l\000"
 3878 035b 01       		.byte	0x1
 3879 035c 29       		.byte	0x29
 3880 035d 7B010000 		.4byte	0x17b
ARM GAS  C:\Users\Phuong\AppData\Local\Temp\ccU7OqD6.s 			page 85


 3881 0361 D0000000 		.4byte	.LLST6
 3882 0365 18       		.uleb128 0x18
 3883 0366 32000000 		.4byte	.LVL9
 3884 036a 522B0000 		.4byte	0x2b52
 3885 036e 19       		.uleb128 0x19
 3886 036f 48000000 		.4byte	.LVL12
 3887 0373 02       		.uleb128 0x2
 3888 0374 74       		.byte	0x74
 3889 0375 00       		.sleb128 0
 3890 0376 1A       		.uleb128 0x1a
 3891 0377 01       		.uleb128 0x1
 3892 0378 50       		.byte	0x50
 3893 0379 01       		.uleb128 0x1
 3894 037a 30       		.byte	0x30
 3895 037b 1A       		.uleb128 0x1a
 3896 037c 01       		.uleb128 0x1
 3897 037d 51       		.byte	0x51
 3898 037e 05       		.uleb128 0x5
 3899 037f 03       		.byte	0x3
 3900 0380 00000000 		.4byte	.LC1
 3901 0384 1A       		.uleb128 0x1a
 3902 0385 01       		.uleb128 0x1
 3903 0386 52       		.byte	0x52
 3904 0387 05       		.uleb128 0x5
 3905 0388 03       		.byte	0x3
 3906 0389 5C000000 		.4byte	.LANCHOR0
 3907 038d 1A       		.uleb128 0x1a
 3908 038e 01       		.uleb128 0x1
 3909 038f 53       		.byte	0x53
 3910 0390 02       		.uleb128 0x2
 3911 0391 08       		.byte	0x8
 3912 0392 29       		.byte	0x29
 3913 0393 1A       		.uleb128 0x1a
 3914 0394 02       		.uleb128 0x2
 3915 0395 7D       		.byte	0x7d
 3916 0396 00       		.sleb128 0
 3917 0397 01       		.uleb128 0x1
 3918 0398 31       		.byte	0x31
 3919 0399 1A       		.uleb128 0x1a
 3920 039a 02       		.uleb128 0x2
 3921 039b 7D       		.byte	0x7d
 3922 039c 04       		.sleb128 4
 3923 039d 05       		.uleb128 0x5
 3924 039e 03       		.byte	0x3
 3925 039f 38000000 		.4byte	.LC3
 3926 03a3 00       		.byte	0
 3927 03a4 00       		.byte	0
 3928 03a5 1B       		.uleb128 0x1b
 3929 03a6 0E000000 		.4byte	.LVL2
 3930 03aa 5D2B0000 		.4byte	0x2b5d
 3931 03ae BA030000 		.4byte	0x3ba
 3932 03b2 1A       		.uleb128 0x1a
 3933 03b3 01       		.uleb128 0x1
 3934 03b4 50       		.byte	0x50
 3935 03b5 03       		.uleb128 0x3
 3936 03b6 91       		.byte	0x91
 3937 03b7 64       		.sleb128 -28
ARM GAS  C:\Users\Phuong\AppData\Local\Temp\ccU7OqD6.s 			page 86


 3938 03b8 06       		.byte	0x6
 3939 03b9 00       		.byte	0
 3940 03ba 1B       		.uleb128 0x1b
 3941 03bb 1C000000 		.4byte	.LVL4
 3942 03bf 5D2B0000 		.4byte	0x2b5d
 3943 03c3 CE030000 		.4byte	0x3ce
 3944 03c7 1A       		.uleb128 0x1a
 3945 03c8 01       		.uleb128 0x1
 3946 03c9 50       		.byte	0x50
 3947 03ca 02       		.uleb128 0x2
 3948 03cb 77       		.byte	0x77
 3949 03cc 00       		.sleb128 0
 3950 03cd 00       		.byte	0
 3951 03ce 1B       		.uleb128 0x1b
 3952 03cf 2A000000 		.4byte	.LVL8
 3953 03d3 682B0000 		.4byte	0x2b68
 3954 03d7 EB030000 		.4byte	0x3eb
 3955 03db 1A       		.uleb128 0x1a
 3956 03dc 01       		.uleb128 0x1
 3957 03dd 50       		.byte	0x50
 3958 03de 02       		.uleb128 0x2
 3959 03df 77       		.byte	0x77
 3960 03e0 00       		.sleb128 0
 3961 03e1 1A       		.uleb128 0x1a
 3962 03e2 01       		.uleb128 0x1
 3963 03e3 51       		.byte	0x51
 3964 03e4 05       		.uleb128 0x5
 3965 03e5 74       		.byte	0x74
 3966 03e6 00       		.sleb128 0
 3967 03e7 76       		.byte	0x76
 3968 03e8 00       		.sleb128 0
 3969 03e9 22       		.byte	0x22
 3970 03ea 00       		.byte	0
 3971 03eb 1C       		.uleb128 0x1c
 3972 03ec 58000000 		.4byte	.LVL15
 3973 03f0 732B0000 		.4byte	0x2b73
 3974 03f4 1A       		.uleb128 0x1a
 3975 03f5 01       		.uleb128 0x1
 3976 03f6 51       		.byte	0x51
 3977 03f7 03       		.uleb128 0x3
 3978 03f8 91       		.byte	0x91
 3979 03f9 64       		.sleb128 -28
 3980 03fa 06       		.byte	0x6
 3981 03fb 1A       		.uleb128 0x1a
 3982 03fc 01       		.uleb128 0x1
 3983 03fd 52       		.byte	0x52
 3984 03fe 02       		.uleb128 0x2
 3985 03ff 76       		.byte	0x76
 3986 0400 00       		.sleb128 0
 3987 0401 00       		.byte	0
 3988 0402 00       		.byte	0
 3989 0403 05       		.uleb128 0x5
 3990 0404 04       		.byte	0x4
 3991 0405 D1000000 		.4byte	0xd1
 3992 0409 07       		.uleb128 0x7
 3993 040a E4000000 		.4byte	0xe4
 3994 040e 19040000 		.4byte	0x419
ARM GAS  C:\Users\Phuong\AppData\Local\Temp\ccU7OqD6.s 			page 87


 3995 0412 08       		.uleb128 0x8
 3996 0413 CA000000 		.4byte	0xca
 3997 0417 0D       		.byte	0xd
 3998 0418 00       		.byte	0
 3999 0419 06       		.uleb128 0x6
 4000 041a 09040000 		.4byte	0x409
 4001 041e 1D       		.uleb128 0x1d
 4002 041f B9000000 		.4byte	.LASF131
 4003 0423 01       		.byte	0x1
 4004 0424 36       		.byte	0x36
 4005 0425 D1000000 		.4byte	0xd1
 4006 0429 00000000 		.4byte	.LFB2
 4007 042d D4100000 		.4byte	.LFE2-.LFB2
 4008 0431 01       		.uleb128 0x1
 4009 0432 9C       		.byte	0x9c
 4010 0433 B82A0000 		.4byte	0x2ab8
 4011 0437 13       		.uleb128 0x13
 4012 0438 B1080000 		.4byte	.LASF70
 4013 043c 01       		.byte	0x1
 4014 043d 36       		.byte	0x36
 4015 043e 78020000 		.4byte	0x278
 4016 0442 F9000000 		.4byte	.LLST7
 4017 0446 1E       		.uleb128 0x1e
 4018 0447 4B020000 		.4byte	.LASF67
 4019 044b 01       		.byte	0x1
 4020 044c 38       		.byte	0x38
 4021 044d D1000000 		.4byte	0xd1
 4022 0451 02       		.uleb128 0x2
 4023 0452 91       		.byte	0x91
 4024 0453 64       		.sleb128 -28
 4025 0454 15       		.uleb128 0x15
 4026 0455 48080000 		.4byte	.LASF71
 4027 0459 C82A0000 		.4byte	0x2ac8
 4028 045d 05       		.uleb128 0x5
 4029 045e 03       		.byte	0x3
 4030 045f 6C000000 		.4byte	__func__.6143
 4031 0463 1F       		.uleb128 0x1f
 4032 0464 12000000 		.4byte	.LBB3
 4033 0468 7E100000 		.4byte	.LBE3-.LBB3
 4034 046c 14       		.uleb128 0x14
 4035 046d 9C040000 		.4byte	.LASF72
 4036 0471 01       		.byte	0x1
 4037 0472 3C       		.byte	0x3c
 4038 0473 6D020000 		.4byte	0x26d
 4039 0477 9D060000 		.4byte	.LLST8
 4040 047b 16       		.uleb128 0x16
 4041 047c 22000000 		.4byte	.LBB4
 4042 0480 1C000000 		.4byte	.LBE4-.LBB4
 4043 0484 D5040000 		.4byte	0x4d5
 4044 0488 17       		.uleb128 0x17
 4045 0489 6C00     		.ascii	"l\000"
 4046 048b 01       		.byte	0x1
 4047 048c 40       		.byte	0x40
 4048 048d 7B010000 		.4byte	0x17b
 4049 0491 BB060000 		.4byte	.LLST9
 4050 0495 18       		.uleb128 0x18
 4051 0496 26000000 		.4byte	.LVL24
ARM GAS  C:\Users\Phuong\AppData\Local\Temp\ccU7OqD6.s 			page 88


 4052 049a 522B0000 		.4byte	0x2b52
 4053 049e 19       		.uleb128 0x19
 4054 049f 3E000000 		.4byte	.LVL27
 4055 04a3 02       		.uleb128 0x2
 4056 04a4 74       		.byte	0x74
 4057 04a5 00       		.sleb128 0
 4058 04a6 1A       		.uleb128 0x1a
 4059 04a7 01       		.uleb128 0x1
 4060 04a8 50       		.byte	0x50
 4061 04a9 01       		.uleb128 0x1
 4062 04aa 30       		.byte	0x30
 4063 04ab 1A       		.uleb128 0x1a
 4064 04ac 01       		.uleb128 0x1
 4065 04ad 51       		.byte	0x51
 4066 04ae 05       		.uleb128 0x5
 4067 04af 03       		.byte	0x3
 4068 04b0 00000000 		.4byte	.LC1
 4069 04b4 1A       		.uleb128 0x1a
 4070 04b5 01       		.uleb128 0x1
 4071 04b6 52       		.byte	0x52
 4072 04b7 05       		.uleb128 0x5
 4073 04b8 03       		.byte	0x3
 4074 04b9 6C000000 		.4byte	.LANCHOR0+16
 4075 04bd 1A       		.uleb128 0x1a
 4076 04be 01       		.uleb128 0x1
 4077 04bf 53       		.byte	0x53
 4078 04c0 02       		.uleb128 0x2
 4079 04c1 08       		.byte	0x8
 4080 04c2 40       		.byte	0x40
 4081 04c3 1A       		.uleb128 0x1a
 4082 04c4 02       		.uleb128 0x2
 4083 04c5 7D       		.byte	0x7d
 4084 04c6 00       		.sleb128 0
 4085 04c7 01       		.uleb128 0x1
 4086 04c8 31       		.byte	0x31
 4087 04c9 1A       		.uleb128 0x1a
 4088 04ca 02       		.uleb128 0x2
 4089 04cb 7D       		.byte	0x7d
 4090 04cc 04       		.sleb128 4
 4091 04cd 05       		.uleb128 0x5
 4092 04ce 03       		.byte	0x3
 4093 04cf 7C000000 		.4byte	.LC16
 4094 04d3 00       		.byte	0
 4095 04d4 00       		.byte	0
 4096 04d5 16       		.uleb128 0x16
 4097 04d6 56000000 		.4byte	.LBB5
 4098 04da 1C000000 		.4byte	.LBE5-.LBB5
 4099 04de 2F050000 		.4byte	0x52f
 4100 04e2 17       		.uleb128 0x17
 4101 04e3 6C00     		.ascii	"l\000"
 4102 04e5 01       		.byte	0x1
 4103 04e6 47       		.byte	0x47
 4104 04e7 7B010000 		.4byte	0x17b
 4105 04eb D9060000 		.4byte	.LLST10
 4106 04ef 18       		.uleb128 0x18
 4107 04f0 5A000000 		.4byte	.LVL30
 4108 04f4 522B0000 		.4byte	0x2b52
ARM GAS  C:\Users\Phuong\AppData\Local\Temp\ccU7OqD6.s 			page 89


 4109 04f8 19       		.uleb128 0x19
 4110 04f9 72000000 		.4byte	.LVL33
 4111 04fd 02       		.uleb128 0x2
 4112 04fe 74       		.byte	0x74
 4113 04ff 00       		.sleb128 0
 4114 0500 1A       		.uleb128 0x1a
 4115 0501 01       		.uleb128 0x1
 4116 0502 50       		.byte	0x50
 4117 0503 01       		.uleb128 0x1
 4118 0504 30       		.byte	0x30
 4119 0505 1A       		.uleb128 0x1a
 4120 0506 01       		.uleb128 0x1
 4121 0507 51       		.byte	0x51
 4122 0508 05       		.uleb128 0x5
 4123 0509 03       		.byte	0x3
 4124 050a 00000000 		.4byte	.LC1
 4125 050e 1A       		.uleb128 0x1a
 4126 050f 01       		.uleb128 0x1
 4127 0510 52       		.byte	0x52
 4128 0511 05       		.uleb128 0x5
 4129 0512 03       		.byte	0x3
 4130 0513 6C000000 		.4byte	.LANCHOR0+16
 4131 0517 1A       		.uleb128 0x1a
 4132 0518 01       		.uleb128 0x1
 4133 0519 53       		.byte	0x53
 4134 051a 02       		.uleb128 0x2
 4135 051b 08       		.byte	0x8
 4136 051c 47       		.byte	0x47
 4137 051d 1A       		.uleb128 0x1a
 4138 051e 02       		.uleb128 0x2
 4139 051f 7D       		.byte	0x7d
 4140 0520 00       		.sleb128 0
 4141 0521 01       		.uleb128 0x1
 4142 0522 31       		.byte	0x31
 4143 0523 1A       		.uleb128 0x1a
 4144 0524 02       		.uleb128 0x2
 4145 0525 7D       		.byte	0x7d
 4146 0526 04       		.sleb128 4
 4147 0527 05       		.uleb128 0x5
 4148 0528 03       		.byte	0x3
 4149 0529 98000000 		.4byte	.LC20
 4150 052d 00       		.byte	0
 4151 052e 00       		.byte	0
 4152 052f 16       		.uleb128 0x16
 4153 0530 80000000 		.4byte	.LBB6
 4154 0534 7C000000 		.4byte	.LBE6-.LBB6
 4155 0538 3F060000 		.4byte	0x63f
 4156 053c 1E       		.uleb128 0x1e
 4157 053d BB020000 		.4byte	.LASF73
 4158 0541 01       		.byte	0x1
 4159 0542 4E       		.byte	0x4e
 4160 0543 CD2A0000 		.4byte	0x2acd
 4161 0547 02       		.uleb128 0x2
 4162 0548 91       		.byte	0x91
 4163 0549 48       		.sleb128 -56
 4164 054a 16       		.uleb128 0x16
 4165 054b 8C000000 		.4byte	.LBB7
ARM GAS  C:\Users\Phuong\AppData\Local\Temp\ccU7OqD6.s 			page 90


 4166 054f 1C000000 		.4byte	.LBE7-.LBB7
 4167 0553 A4050000 		.4byte	0x5a4
 4168 0557 17       		.uleb128 0x17
 4169 0558 6C00     		.ascii	"l\000"
 4170 055a 01       		.byte	0x1
 4171 055b 51       		.byte	0x51
 4172 055c 7B010000 		.4byte	0x17b
 4173 0560 F7060000 		.4byte	.LLST11
 4174 0564 18       		.uleb128 0x18
 4175 0565 90000000 		.4byte	.LVL37
 4176 0569 522B0000 		.4byte	0x2b52
 4177 056d 19       		.uleb128 0x19
 4178 056e A8000000 		.4byte	.LVL40
 4179 0572 02       		.uleb128 0x2
 4180 0573 74       		.byte	0x74
 4181 0574 00       		.sleb128 0
 4182 0575 1A       		.uleb128 0x1a
 4183 0576 01       		.uleb128 0x1
 4184 0577 50       		.byte	0x50
 4185 0578 01       		.uleb128 0x1
 4186 0579 30       		.byte	0x30
 4187 057a 1A       		.uleb128 0x1a
 4188 057b 01       		.uleb128 0x1
 4189 057c 51       		.byte	0x51
 4190 057d 05       		.uleb128 0x5
 4191 057e 03       		.byte	0x3
 4192 057f 00000000 		.4byte	.LC1
 4193 0583 1A       		.uleb128 0x1a
 4194 0584 01       		.uleb128 0x1
 4195 0585 52       		.byte	0x52
 4196 0586 05       		.uleb128 0x5
 4197 0587 03       		.byte	0x3
 4198 0588 6C000000 		.4byte	.LANCHOR0+16
 4199 058c 1A       		.uleb128 0x1a
 4200 058d 01       		.uleb128 0x1
 4201 058e 53       		.byte	0x53
 4202 058f 02       		.uleb128 0x2
 4203 0590 08       		.byte	0x8
 4204 0591 51       		.byte	0x51
 4205 0592 1A       		.uleb128 0x1a
 4206 0593 02       		.uleb128 0x2
 4207 0594 7D       		.byte	0x7d
 4208 0595 00       		.sleb128 0
 4209 0596 01       		.uleb128 0x1
 4210 0597 31       		.byte	0x31
 4211 0598 1A       		.uleb128 0x1a
 4212 0599 02       		.uleb128 0x2
 4213 059a 7D       		.byte	0x7d
 4214 059b 04       		.sleb128 4
 4215 059c 05       		.uleb128 0x5
 4216 059d 03       		.byte	0x3
 4217 059e BC000000 		.4byte	.LC22
 4218 05a2 00       		.byte	0
 4219 05a3 00       		.byte	0
 4220 05a4 16       		.uleb128 0x16
 4221 05a5 D2000000 		.4byte	.LBB8
 4222 05a9 1C000000 		.4byte	.LBE8-.LBB8
ARM GAS  C:\Users\Phuong\AppData\Local\Temp\ccU7OqD6.s 			page 91


 4223 05ad FE050000 		.4byte	0x5fe
 4224 05b1 17       		.uleb128 0x17
 4225 05b2 6C00     		.ascii	"l\000"
 4226 05b4 01       		.byte	0x1
 4227 05b5 57       		.byte	0x57
 4228 05b6 7B010000 		.4byte	0x17b
 4229 05ba 15070000 		.4byte	.LLST12
 4230 05be 18       		.uleb128 0x18
 4231 05bf D6000000 		.4byte	.LVL44
 4232 05c3 522B0000 		.4byte	0x2b52
 4233 05c7 19       		.uleb128 0x19
 4234 05c8 EE000000 		.4byte	.LVL47
 4235 05cc 02       		.uleb128 0x2
 4236 05cd 74       		.byte	0x74
 4237 05ce 00       		.sleb128 0
 4238 05cf 1A       		.uleb128 0x1a
 4239 05d0 01       		.uleb128 0x1
 4240 05d1 50       		.byte	0x50
 4241 05d2 01       		.uleb128 0x1
 4242 05d3 30       		.byte	0x30
 4243 05d4 1A       		.uleb128 0x1a
 4244 05d5 01       		.uleb128 0x1
 4245 05d6 51       		.byte	0x51
 4246 05d7 05       		.uleb128 0x5
 4247 05d8 03       		.byte	0x3
 4248 05d9 00000000 		.4byte	.LC1
 4249 05dd 1A       		.uleb128 0x1a
 4250 05de 01       		.uleb128 0x1
 4251 05df 52       		.byte	0x52
 4252 05e0 05       		.uleb128 0x5
 4253 05e1 03       		.byte	0x3
 4254 05e2 6C000000 		.4byte	.LANCHOR0+16
 4255 05e6 1A       		.uleb128 0x1a
 4256 05e7 01       		.uleb128 0x1
 4257 05e8 53       		.byte	0x53
 4258 05e9 02       		.uleb128 0x2
 4259 05ea 08       		.byte	0x8
 4260 05eb 57       		.byte	0x57
 4261 05ec 1A       		.uleb128 0x1a
 4262 05ed 02       		.uleb128 0x2
 4263 05ee 7D       		.byte	0x7d
 4264 05ef 00       		.sleb128 0
 4265 05f0 01       		.uleb128 0x1
 4266 05f1 31       		.byte	0x31
 4267 05f2 1A       		.uleb128 0x1a
 4268 05f3 02       		.uleb128 0x2
 4269 05f4 7D       		.byte	0x7d
 4270 05f5 04       		.sleb128 4
 4271 05f6 05       		.uleb128 0x5
 4272 05f7 03       		.byte	0x3
 4273 05f8 98000000 		.4byte	.LC20
 4274 05fc 00       		.byte	0
 4275 05fd 00       		.byte	0
 4276 05fe 1B       		.uleb128 0x1b
 4277 05ff 88000000 		.4byte	.LVL36
 4278 0603 7C2B0000 		.4byte	0x2b7c
 4279 0607 18060000 		.4byte	0x618
ARM GAS  C:\Users\Phuong\AppData\Local\Temp\ccU7OqD6.s 			page 92


 4280 060b 1A       		.uleb128 0x1a
 4281 060c 01       		.uleb128 0x1
 4282 060d 50       		.byte	0x50
 4283 060e 02       		.uleb128 0x2
 4284 060f 74       		.byte	0x74
 4285 0610 00       		.sleb128 0
 4286 0611 1A       		.uleb128 0x1a
 4287 0612 01       		.uleb128 0x1
 4288 0613 51       		.byte	0x51
 4289 0614 02       		.uleb128 0x2
 4290 0615 91       		.byte	0x91
 4291 0616 48       		.sleb128 -56
 4292 0617 00       		.byte	0
 4293 0618 18       		.uleb128 0x18
 4294 0619 AE000000 		.4byte	.LVL41
 4295 061d 872B0000 		.4byte	0x2b87
 4296 0621 1B       		.uleb128 0x1b
 4297 0622 CA000000 		.4byte	.LVL43
 4298 0626 C9020000 		.4byte	0x2c9
 4299 062a 35060000 		.4byte	0x635
 4300 062e 1A       		.uleb128 0x1a
 4301 062f 01       		.uleb128 0x1
 4302 0630 50       		.byte	0x50
 4303 0631 02       		.uleb128 0x2
 4304 0632 91       		.byte	0x91
 4305 0633 64       		.sleb128 -28
 4306 0634 00       		.byte	0
 4307 0635 18       		.uleb128 0x18
 4308 0636 F4000000 		.4byte	.LVL48
 4309 063a 872B0000 		.4byte	0x2b87
 4310 063e 00       		.byte	0
 4311 063f 16       		.uleb128 0x16
 4312 0640 FC000000 		.4byte	.LBB9
 4313 0644 80000000 		.4byte	.LBE9-.LBB9
 4314 0648 80070000 		.4byte	0x780
 4315 064c 1E       		.uleb128 0x1e
 4316 064d 60060000 		.4byte	.LASF74
 4317 0651 01       		.byte	0x1
 4318 0652 5F       		.byte	0x5f
 4319 0653 D42A0000 		.4byte	0x2ad4
 4320 0657 02       		.uleb128 0x2
 4321 0658 91       		.byte	0x91
 4322 0659 48       		.sleb128 -56
 4323 065a 1E       		.uleb128 0x1e
 4324 065b BB020000 		.4byte	.LASF73
 4325 065f 01       		.byte	0x1
 4326 0660 60       		.byte	0x60
 4327 0661 00010000 		.4byte	0x100
 4328 0665 02       		.uleb128 0x2
 4329 0666 91       		.byte	0x91
 4330 0667 40       		.sleb128 -64
 4331 0668 16       		.uleb128 0x16
 4332 0669 08010000 		.4byte	.LBB10
 4333 066d 1C000000 		.4byte	.LBE10-.LBB10
 4334 0671 C2060000 		.4byte	0x6c2
 4335 0675 17       		.uleb128 0x17
 4336 0676 6C00     		.ascii	"l\000"
ARM GAS  C:\Users\Phuong\AppData\Local\Temp\ccU7OqD6.s 			page 93


 4337 0678 01       		.byte	0x1
 4338 0679 63       		.byte	0x63
 4339 067a 7B010000 		.4byte	0x17b
 4340 067e 33070000 		.4byte	.LLST13
 4341 0682 18       		.uleb128 0x18
 4342 0683 0C010000 		.4byte	.LVL51
 4343 0687 522B0000 		.4byte	0x2b52
 4344 068b 19       		.uleb128 0x19
 4345 068c 24010000 		.4byte	.LVL54
 4346 0690 02       		.uleb128 0x2
 4347 0691 74       		.byte	0x74
 4348 0692 00       		.sleb128 0
 4349 0693 1A       		.uleb128 0x1a
 4350 0694 01       		.uleb128 0x1
 4351 0695 50       		.byte	0x50
 4352 0696 01       		.uleb128 0x1
 4353 0697 30       		.byte	0x30
 4354 0698 1A       		.uleb128 0x1a
 4355 0699 01       		.uleb128 0x1
 4356 069a 51       		.byte	0x51
 4357 069b 05       		.uleb128 0x5
 4358 069c 03       		.byte	0x3
 4359 069d 00000000 		.4byte	.LC1
 4360 06a1 1A       		.uleb128 0x1a
 4361 06a2 01       		.uleb128 0x1
 4362 06a3 52       		.byte	0x52
 4363 06a4 05       		.uleb128 0x5
 4364 06a5 03       		.byte	0x3
 4365 06a6 6C000000 		.4byte	.LANCHOR0+16
 4366 06aa 1A       		.uleb128 0x1a
 4367 06ab 01       		.uleb128 0x1
 4368 06ac 53       		.byte	0x53
 4369 06ad 02       		.uleb128 0x2
 4370 06ae 08       		.byte	0x8
 4371 06af 63       		.byte	0x63
 4372 06b0 1A       		.uleb128 0x1a
 4373 06b1 02       		.uleb128 0x2
 4374 06b2 7D       		.byte	0x7d
 4375 06b3 00       		.sleb128 0
 4376 06b4 01       		.uleb128 0x1
 4377 06b5 31       		.byte	0x31
 4378 06b6 1A       		.uleb128 0x1a
 4379 06b7 02       		.uleb128 0x2
 4380 06b8 7D       		.byte	0x7d
 4381 06b9 04       		.sleb128 4
 4382 06ba 05       		.uleb128 0x5
 4383 06bb 03       		.byte	0x3
 4384 06bc D8000000 		.4byte	.LC24
 4385 06c0 00       		.byte	0
 4386 06c1 00       		.byte	0
 4387 06c2 16       		.uleb128 0x16
 4388 06c3 52010000 		.4byte	.LBB11
 4389 06c7 1C000000 		.4byte	.LBE11-.LBB11
 4390 06cb 1C070000 		.4byte	0x71c
 4391 06cf 17       		.uleb128 0x17
 4392 06d0 6C00     		.ascii	"l\000"
 4393 06d2 01       		.byte	0x1
ARM GAS  C:\Users\Phuong\AppData\Local\Temp\ccU7OqD6.s 			page 94


 4394 06d3 6A       		.byte	0x6a
 4395 06d4 7B010000 		.4byte	0x17b
 4396 06d8 51070000 		.4byte	.LLST14
 4397 06dc 18       		.uleb128 0x18
 4398 06dd 56010000 		.4byte	.LVL59
 4399 06e1 522B0000 		.4byte	0x2b52
 4400 06e5 19       		.uleb128 0x19
 4401 06e6 6E010000 		.4byte	.LVL62
 4402 06ea 02       		.uleb128 0x2
 4403 06eb 74       		.byte	0x74
 4404 06ec 00       		.sleb128 0
 4405 06ed 1A       		.uleb128 0x1a
 4406 06ee 01       		.uleb128 0x1
 4407 06ef 50       		.byte	0x50
 4408 06f0 01       		.uleb128 0x1
 4409 06f1 30       		.byte	0x30
 4410 06f2 1A       		.uleb128 0x1a
 4411 06f3 01       		.uleb128 0x1
 4412 06f4 51       		.byte	0x51
 4413 06f5 05       		.uleb128 0x5
 4414 06f6 03       		.byte	0x3
 4415 06f7 00000000 		.4byte	.LC1
 4416 06fb 1A       		.uleb128 0x1a
 4417 06fc 01       		.uleb128 0x1
 4418 06fd 52       		.byte	0x52
 4419 06fe 05       		.uleb128 0x5
 4420 06ff 03       		.byte	0x3
 4421 0700 6C000000 		.4byte	.LANCHOR0+16
 4422 0704 1A       		.uleb128 0x1a
 4423 0705 01       		.uleb128 0x1
 4424 0706 53       		.byte	0x53
 4425 0707 02       		.uleb128 0x2
 4426 0708 08       		.byte	0x8
 4427 0709 6A       		.byte	0x6a
 4428 070a 1A       		.uleb128 0x1a
 4429 070b 02       		.uleb128 0x2
 4430 070c 7D       		.byte	0x7d
 4431 070d 00       		.sleb128 0
 4432 070e 01       		.uleb128 0x1
 4433 070f 31       		.byte	0x31
 4434 0710 1A       		.uleb128 0x1a
 4435 0711 02       		.uleb128 0x2
 4436 0712 7D       		.byte	0x7d
 4437 0713 04       		.sleb128 4
 4438 0714 05       		.uleb128 0x5
 4439 0715 03       		.byte	0x3
 4440 0716 98000000 		.4byte	.LC20
 4441 071a 00       		.byte	0
 4442 071b 00       		.byte	0
 4443 071c 1B       		.uleb128 0x1b
 4444 071d 04010000 		.4byte	.LVL50
 4445 0721 922B0000 		.4byte	0x2b92
 4446 0725 36070000 		.4byte	0x736
 4447 0729 1A       		.uleb128 0x1a
 4448 072a 01       		.uleb128 0x1
 4449 072b 50       		.byte	0x50
 4450 072c 02       		.uleb128 0x2
ARM GAS  C:\Users\Phuong\AppData\Local\Temp\ccU7OqD6.s 			page 95


 4451 072d 74       		.byte	0x74
 4452 072e 00       		.sleb128 0
 4453 072f 1A       		.uleb128 0x1a
 4454 0730 01       		.uleb128 0x1
 4455 0731 51       		.byte	0x51
 4456 0732 02       		.uleb128 0x2
 4457 0733 91       		.byte	0x91
 4458 0734 40       		.sleb128 -64
 4459 0735 00       		.byte	0
 4460 0736 18       		.uleb128 0x18
 4461 0737 2A010000 		.4byte	.LVL55
 4462 073b 872B0000 		.4byte	0x2b87
 4463 073f 1B       		.uleb128 0x1b
 4464 0740 3E010000 		.4byte	.LVL57
 4465 0744 9D2B0000 		.4byte	0x2b9d
 4466 0748 5C070000 		.4byte	0x75c
 4467 074c 1A       		.uleb128 0x1a
 4468 074d 01       		.uleb128 0x1
 4469 074e 50       		.byte	0x50
 4470 074f 02       		.uleb128 0x2
 4471 0750 91       		.byte	0x91
 4472 0751 48       		.sleb128 -56
 4473 0752 1A       		.uleb128 0x1a
 4474 0753 01       		.uleb128 0x1
 4475 0754 51       		.byte	0x51
 4476 0755 05       		.uleb128 0x5
 4477 0756 03       		.byte	0x3
 4478 0757 F4000000 		.4byte	.LC26
 4479 075b 00       		.byte	0
 4480 075c 1B       		.uleb128 0x1b
 4481 075d 4A010000 		.4byte	.LVL58
 4482 0761 C9020000 		.4byte	0x2c9
 4483 0765 76070000 		.4byte	0x776
 4484 0769 1A       		.uleb128 0x1a
 4485 076a 01       		.uleb128 0x1
 4486 076b 50       		.byte	0x50
 4487 076c 02       		.uleb128 0x2
 4488 076d 91       		.byte	0x91
 4489 076e 64       		.sleb128 -28
 4490 076f 1A       		.uleb128 0x1a
 4491 0770 01       		.uleb128 0x1
 4492 0771 51       		.byte	0x51
 4493 0772 02       		.uleb128 0x2
 4494 0773 91       		.byte	0x91
 4495 0774 48       		.sleb128 -56
 4496 0775 00       		.byte	0
 4497 0776 18       		.uleb128 0x18
 4498 0777 74010000 		.4byte	.LVL63
 4499 077b 872B0000 		.4byte	0x2b87
 4500 077f 00       		.byte	0
 4501 0780 16       		.uleb128 0x16
 4502 0781 7C010000 		.4byte	.LBB12
 4503 0785 80000000 		.4byte	.LBE12-.LBB12
 4504 0789 C1080000 		.4byte	0x8c1
 4505 078d 1E       		.uleb128 0x1e
 4506 078e 60060000 		.4byte	.LASF74
 4507 0792 01       		.byte	0x1
ARM GAS  C:\Users\Phuong\AppData\Local\Temp\ccU7OqD6.s 			page 96


 4508 0793 72       		.byte	0x72
 4509 0794 E42A0000 		.4byte	0x2ae4
 4510 0798 02       		.uleb128 0x2
 4511 0799 91       		.byte	0x91
 4512 079a 48       		.sleb128 -56
 4513 079b 1E       		.uleb128 0x1e
 4514 079c BB020000 		.4byte	.LASF73
 4515 07a0 01       		.byte	0x1
 4516 07a1 73       		.byte	0x73
 4517 07a2 16010000 		.4byte	0x116
 4518 07a6 02       		.uleb128 0x2
 4519 07a7 91       		.byte	0x91
 4520 07a8 40       		.sleb128 -64
 4521 07a9 16       		.uleb128 0x16
 4522 07aa 88010000 		.4byte	.LBB13
 4523 07ae 1C000000 		.4byte	.LBE13-.LBB13
 4524 07b2 03080000 		.4byte	0x803
 4525 07b6 17       		.uleb128 0x17
 4526 07b7 6C00     		.ascii	"l\000"
 4527 07b9 01       		.byte	0x1
 4528 07ba 76       		.byte	0x76
 4529 07bb 7B010000 		.4byte	0x17b
 4530 07bf 6F070000 		.4byte	.LLST15
 4531 07c3 18       		.uleb128 0x18
 4532 07c4 8C010000 		.4byte	.LVL66
 4533 07c8 522B0000 		.4byte	0x2b52
 4534 07cc 19       		.uleb128 0x19
 4535 07cd A4010000 		.4byte	.LVL69
 4536 07d1 02       		.uleb128 0x2
 4537 07d2 74       		.byte	0x74
 4538 07d3 00       		.sleb128 0
 4539 07d4 1A       		.uleb128 0x1a
 4540 07d5 01       		.uleb128 0x1
 4541 07d6 50       		.byte	0x50
 4542 07d7 01       		.uleb128 0x1
 4543 07d8 30       		.byte	0x30
 4544 07d9 1A       		.uleb128 0x1a
 4545 07da 01       		.uleb128 0x1
 4546 07db 51       		.byte	0x51
 4547 07dc 05       		.uleb128 0x5
 4548 07dd 03       		.byte	0x3
 4549 07de 00000000 		.4byte	.LC1
 4550 07e2 1A       		.uleb128 0x1a
 4551 07e3 01       		.uleb128 0x1
 4552 07e4 52       		.byte	0x52
 4553 07e5 05       		.uleb128 0x5
 4554 07e6 03       		.byte	0x3
 4555 07e7 6C000000 		.4byte	.LANCHOR0+16
 4556 07eb 1A       		.uleb128 0x1a
 4557 07ec 01       		.uleb128 0x1
 4558 07ed 53       		.byte	0x53
 4559 07ee 02       		.uleb128 0x2
 4560 07ef 08       		.byte	0x8
 4561 07f0 76       		.byte	0x76
 4562 07f1 1A       		.uleb128 0x1a
 4563 07f2 02       		.uleb128 0x2
 4564 07f3 7D       		.byte	0x7d
ARM GAS  C:\Users\Phuong\AppData\Local\Temp\ccU7OqD6.s 			page 97


 4565 07f4 00       		.sleb128 0
 4566 07f5 01       		.uleb128 0x1
 4567 07f6 31       		.byte	0x31
 4568 07f7 1A       		.uleb128 0x1a
 4569 07f8 02       		.uleb128 0x2
 4570 07f9 7D       		.byte	0x7d
 4571 07fa 04       		.sleb128 4
 4572 07fb 05       		.uleb128 0x5
 4573 07fc 03       		.byte	0x3
 4574 07fd FC000000 		.4byte	.LC28
 4575 0801 00       		.byte	0
 4576 0802 00       		.byte	0
 4577 0803 16       		.uleb128 0x16
 4578 0804 D2010000 		.4byte	.LBB14
 4579 0808 1C000000 		.4byte	.LBE14-.LBB14
 4580 080c 5D080000 		.4byte	0x85d
 4581 0810 17       		.uleb128 0x17
 4582 0811 6C00     		.ascii	"l\000"
 4583 0813 01       		.byte	0x1
 4584 0814 7D       		.byte	0x7d
 4585 0815 7B010000 		.4byte	0x17b
 4586 0819 8D070000 		.4byte	.LLST16
 4587 081d 18       		.uleb128 0x18
 4588 081e D6010000 		.4byte	.LVL74
 4589 0822 522B0000 		.4byte	0x2b52
 4590 0826 19       		.uleb128 0x19
 4591 0827 EE010000 		.4byte	.LVL77
 4592 082b 02       		.uleb128 0x2
 4593 082c 74       		.byte	0x74
 4594 082d 00       		.sleb128 0
 4595 082e 1A       		.uleb128 0x1a
 4596 082f 01       		.uleb128 0x1
 4597 0830 50       		.byte	0x50
 4598 0831 01       		.uleb128 0x1
 4599 0832 30       		.byte	0x30
 4600 0833 1A       		.uleb128 0x1a
 4601 0834 01       		.uleb128 0x1
 4602 0835 51       		.byte	0x51
 4603 0836 05       		.uleb128 0x5
 4604 0837 03       		.byte	0x3
 4605 0838 00000000 		.4byte	.LC1
 4606 083c 1A       		.uleb128 0x1a
 4607 083d 01       		.uleb128 0x1
 4608 083e 52       		.byte	0x52
 4609 083f 05       		.uleb128 0x5
 4610 0840 03       		.byte	0x3
 4611 0841 6C000000 		.4byte	.LANCHOR0+16
 4612 0845 1A       		.uleb128 0x1a
 4613 0846 01       		.uleb128 0x1
 4614 0847 53       		.byte	0x53
 4615 0848 02       		.uleb128 0x2
 4616 0849 08       		.byte	0x8
 4617 084a 7D       		.byte	0x7d
 4618 084b 1A       		.uleb128 0x1a
 4619 084c 02       		.uleb128 0x2
 4620 084d 7D       		.byte	0x7d
 4621 084e 00       		.sleb128 0
ARM GAS  C:\Users\Phuong\AppData\Local\Temp\ccU7OqD6.s 			page 98


 4622 084f 01       		.uleb128 0x1
 4623 0850 31       		.byte	0x31
 4624 0851 1A       		.uleb128 0x1a
 4625 0852 02       		.uleb128 0x2
 4626 0853 7D       		.byte	0x7d
 4627 0854 04       		.sleb128 4
 4628 0855 05       		.uleb128 0x5
 4629 0856 03       		.byte	0x3
 4630 0857 98000000 		.4byte	.LC20
 4631 085b 00       		.byte	0
 4632 085c 00       		.byte	0
 4633 085d 1B       		.uleb128 0x1b
 4634 085e 84010000 		.4byte	.LVL65
 4635 0862 A82B0000 		.4byte	0x2ba8
 4636 0866 77080000 		.4byte	0x877
 4637 086a 1A       		.uleb128 0x1a
 4638 086b 01       		.uleb128 0x1
 4639 086c 50       		.byte	0x50
 4640 086d 02       		.uleb128 0x2
 4641 086e 74       		.byte	0x74
 4642 086f 00       		.sleb128 0
 4643 0870 1A       		.uleb128 0x1a
 4644 0871 01       		.uleb128 0x1
 4645 0872 51       		.byte	0x51
 4646 0873 02       		.uleb128 0x2
 4647 0874 91       		.byte	0x91
 4648 0875 40       		.sleb128 -64
 4649 0876 00       		.byte	0
 4650 0877 18       		.uleb128 0x18
 4651 0878 AA010000 		.4byte	.LVL70
 4652 087c 872B0000 		.4byte	0x2b87
 4653 0880 1B       		.uleb128 0x1b
 4654 0881 BE010000 		.4byte	.LVL72
 4655 0885 9D2B0000 		.4byte	0x2b9d
 4656 0889 9D080000 		.4byte	0x89d
 4657 088d 1A       		.uleb128 0x1a
 4658 088e 01       		.uleb128 0x1
 4659 088f 50       		.byte	0x50
 4660 0890 02       		.uleb128 0x2
 4661 0891 91       		.byte	0x91
 4662 0892 48       		.sleb128 -56
 4663 0893 1A       		.uleb128 0x1a
 4664 0894 01       		.uleb128 0x1
 4665 0895 51       		.byte	0x51
 4666 0896 05       		.uleb128 0x5
 4667 0897 03       		.byte	0x3
 4668 0898 1C010000 		.4byte	.LC30
 4669 089c 00       		.byte	0
 4670 089d 1B       		.uleb128 0x1b
 4671 089e CA010000 		.4byte	.LVL73
 4672 08a2 C9020000 		.4byte	0x2c9
 4673 08a6 B7080000 		.4byte	0x8b7
 4674 08aa 1A       		.uleb128 0x1a
 4675 08ab 01       		.uleb128 0x1
 4676 08ac 50       		.byte	0x50
 4677 08ad 02       		.uleb128 0x2
 4678 08ae 91       		.byte	0x91
ARM GAS  C:\Users\Phuong\AppData\Local\Temp\ccU7OqD6.s 			page 99


 4679 08af 64       		.sleb128 -28
 4680 08b0 1A       		.uleb128 0x1a
 4681 08b1 01       		.uleb128 0x1
 4682 08b2 51       		.byte	0x51
 4683 08b3 02       		.uleb128 0x2
 4684 08b4 91       		.byte	0x91
 4685 08b5 48       		.sleb128 -56
 4686 08b6 00       		.byte	0
 4687 08b7 18       		.uleb128 0x18
 4688 08b8 F4010000 		.4byte	.LVL78
 4689 08bc 872B0000 		.4byte	0x2b87
 4690 08c0 00       		.byte	0
 4691 08c1 16       		.uleb128 0x16
 4692 08c2 FC010000 		.4byte	.LBB15
 4693 08c6 7E000000 		.4byte	.LBE15-.LBB15
 4694 08ca 020A0000 		.4byte	0xa02
 4695 08ce 1E       		.uleb128 0x1e
 4696 08cf 60060000 		.4byte	.LASF74
 4697 08d3 01       		.byte	0x1
 4698 08d4 85       		.byte	0x85
 4699 08d5 F42A0000 		.4byte	0x2af4
 4700 08d9 02       		.uleb128 0x2
 4701 08da 91       		.byte	0x91
 4702 08db 48       		.sleb128 -56
 4703 08dc 1E       		.uleb128 0x1e
 4704 08dd BB020000 		.4byte	.LASF73
 4705 08e1 01       		.byte	0x1
 4706 08e2 86       		.byte	0x86
 4707 08e3 2C010000 		.4byte	0x12c
 4708 08e7 02       		.uleb128 0x2
 4709 08e8 91       		.byte	0x91
 4710 08e9 40       		.sleb128 -64
 4711 08ea 16       		.uleb128 0x16
 4712 08eb 08020000 		.4byte	.LBB16
 4713 08ef 1C000000 		.4byte	.LBE16-.LBB16
 4714 08f3 44090000 		.4byte	0x944
 4715 08f7 17       		.uleb128 0x17
 4716 08f8 6C00     		.ascii	"l\000"
 4717 08fa 01       		.byte	0x1
 4718 08fb 89       		.byte	0x89
 4719 08fc 7B010000 		.4byte	0x17b
 4720 0900 AB070000 		.4byte	.LLST17
 4721 0904 18       		.uleb128 0x18
 4722 0905 0C020000 		.4byte	.LVL81
 4723 0909 522B0000 		.4byte	0x2b52
 4724 090d 19       		.uleb128 0x19
 4725 090e 24020000 		.4byte	.LVL84
 4726 0912 02       		.uleb128 0x2
 4727 0913 74       		.byte	0x74
 4728 0914 00       		.sleb128 0
 4729 0915 1A       		.uleb128 0x1a
 4730 0916 01       		.uleb128 0x1
 4731 0917 50       		.byte	0x50
 4732 0918 01       		.uleb128 0x1
 4733 0919 30       		.byte	0x30
 4734 091a 1A       		.uleb128 0x1a
 4735 091b 01       		.uleb128 0x1
ARM GAS  C:\Users\Phuong\AppData\Local\Temp\ccU7OqD6.s 			page 100


 4736 091c 51       		.byte	0x51
 4737 091d 05       		.uleb128 0x5
 4738 091e 03       		.byte	0x3
 4739 091f 00000000 		.4byte	.LC1
 4740 0923 1A       		.uleb128 0x1a
 4741 0924 01       		.uleb128 0x1
 4742 0925 52       		.byte	0x52
 4743 0926 05       		.uleb128 0x5
 4744 0927 03       		.byte	0x3
 4745 0928 6C000000 		.4byte	.LANCHOR0+16
 4746 092c 1A       		.uleb128 0x1a
 4747 092d 01       		.uleb128 0x1
 4748 092e 53       		.byte	0x53
 4749 092f 02       		.uleb128 0x2
 4750 0930 08       		.byte	0x8
 4751 0931 89       		.byte	0x89
 4752 0932 1A       		.uleb128 0x1a
 4753 0933 02       		.uleb128 0x2
 4754 0934 7D       		.byte	0x7d
 4755 0935 00       		.sleb128 0
 4756 0936 01       		.uleb128 0x1
 4757 0937 31       		.byte	0x31
 4758 0938 1A       		.uleb128 0x1a
 4759 0939 02       		.uleb128 0x2
 4760 093a 7D       		.byte	0x7d
 4761 093b 04       		.sleb128 4
 4762 093c 05       		.uleb128 0x5
 4763 093d 03       		.byte	0x3
 4764 093e 20010000 		.4byte	.LC32
 4765 0942 00       		.byte	0
 4766 0943 00       		.byte	0
 4767 0944 16       		.uleb128 0x16
 4768 0945 50020000 		.4byte	.LBB17
 4769 0949 1C000000 		.4byte	.LBE17-.LBB17
 4770 094d 9E090000 		.4byte	0x99e
 4771 0951 17       		.uleb128 0x17
 4772 0952 6C00     		.ascii	"l\000"
 4773 0954 01       		.byte	0x1
 4774 0955 90       		.byte	0x90
 4775 0956 7B010000 		.4byte	0x17b
 4776 095a C9070000 		.4byte	.LLST18
 4777 095e 18       		.uleb128 0x18
 4778 095f 54020000 		.4byte	.LVL89
 4779 0963 522B0000 		.4byte	0x2b52
 4780 0967 19       		.uleb128 0x19
 4781 0968 6C020000 		.4byte	.LVL92
 4782 096c 02       		.uleb128 0x2
 4783 096d 74       		.byte	0x74
 4784 096e 00       		.sleb128 0
 4785 096f 1A       		.uleb128 0x1a
 4786 0970 01       		.uleb128 0x1
 4787 0971 50       		.byte	0x50
 4788 0972 01       		.uleb128 0x1
 4789 0973 30       		.byte	0x30
 4790 0974 1A       		.uleb128 0x1a
 4791 0975 01       		.uleb128 0x1
 4792 0976 51       		.byte	0x51
ARM GAS  C:\Users\Phuong\AppData\Local\Temp\ccU7OqD6.s 			page 101


 4793 0977 05       		.uleb128 0x5
 4794 0978 03       		.byte	0x3
 4795 0979 00000000 		.4byte	.LC1
 4796 097d 1A       		.uleb128 0x1a
 4797 097e 01       		.uleb128 0x1
 4798 097f 52       		.byte	0x52
 4799 0980 05       		.uleb128 0x5
 4800 0981 03       		.byte	0x3
 4801 0982 6C000000 		.4byte	.LANCHOR0+16
 4802 0986 1A       		.uleb128 0x1a
 4803 0987 01       		.uleb128 0x1
 4804 0988 53       		.byte	0x53
 4805 0989 02       		.uleb128 0x2
 4806 098a 08       		.byte	0x8
 4807 098b 90       		.byte	0x90
 4808 098c 1A       		.uleb128 0x1a
 4809 098d 02       		.uleb128 0x2
 4810 098e 7D       		.byte	0x7d
 4811 098f 00       		.sleb128 0
 4812 0990 01       		.uleb128 0x1
 4813 0991 31       		.byte	0x31
 4814 0992 1A       		.uleb128 0x1a
 4815 0993 02       		.uleb128 0x2
 4816 0994 7D       		.byte	0x7d
 4817 0995 04       		.sleb128 4
 4818 0996 05       		.uleb128 0x5
 4819 0997 03       		.byte	0x3
 4820 0998 98000000 		.4byte	.LC20
 4821 099c 00       		.byte	0
 4822 099d 00       		.byte	0
 4823 099e 1B       		.uleb128 0x1b
 4824 099f 04020000 		.4byte	.LVL80
 4825 09a3 B32B0000 		.4byte	0x2bb3
 4826 09a7 B8090000 		.4byte	0x9b8
 4827 09ab 1A       		.uleb128 0x1a
 4828 09ac 01       		.uleb128 0x1
 4829 09ad 50       		.byte	0x50
 4830 09ae 02       		.uleb128 0x2
 4831 09af 74       		.byte	0x74
 4832 09b0 00       		.sleb128 0
 4833 09b1 1A       		.uleb128 0x1a
 4834 09b2 01       		.uleb128 0x1
 4835 09b3 51       		.byte	0x51
 4836 09b4 02       		.uleb128 0x2
 4837 09b5 91       		.byte	0x91
 4838 09b6 40       		.sleb128 -64
 4839 09b7 00       		.byte	0
 4840 09b8 18       		.uleb128 0x18
 4841 09b9 2A020000 		.4byte	.LVL85
 4842 09bd 872B0000 		.4byte	0x2b87
 4843 09c1 1B       		.uleb128 0x1b
 4844 09c2 3C020000 		.4byte	.LVL87
 4845 09c6 9D2B0000 		.4byte	0x2b9d
 4846 09ca DE090000 		.4byte	0x9de
 4847 09ce 1A       		.uleb128 0x1a
 4848 09cf 01       		.uleb128 0x1
 4849 09d0 50       		.byte	0x50
ARM GAS  C:\Users\Phuong\AppData\Local\Temp\ccU7OqD6.s 			page 102


 4850 09d1 02       		.uleb128 0x2
 4851 09d2 91       		.byte	0x91
 4852 09d3 48       		.sleb128 -56
 4853 09d4 1A       		.uleb128 0x1a
 4854 09d5 01       		.uleb128 0x1
 4855 09d6 51       		.byte	0x51
 4856 09d7 05       		.uleb128 0x5
 4857 09d8 03       		.byte	0x3
 4858 09d9 3C010000 		.4byte	.LC34
 4859 09dd 00       		.byte	0
 4860 09de 1B       		.uleb128 0x1b
 4861 09df 48020000 		.4byte	.LVL88
 4862 09e3 C9020000 		.4byte	0x2c9
 4863 09e7 F8090000 		.4byte	0x9f8
 4864 09eb 1A       		.uleb128 0x1a
 4865 09ec 01       		.uleb128 0x1
 4866 09ed 50       		.byte	0x50
 4867 09ee 02       		.uleb128 0x2
 4868 09ef 91       		.byte	0x91
 4869 09f0 64       		.sleb128 -28
 4870 09f1 1A       		.uleb128 0x1a
 4871 09f2 01       		.uleb128 0x1
 4872 09f3 51       		.byte	0x51
 4873 09f4 02       		.uleb128 0x2
 4874 09f5 91       		.byte	0x91
 4875 09f6 48       		.sleb128 -56
 4876 09f7 00       		.byte	0
 4877 09f8 18       		.uleb128 0x18
 4878 09f9 72020000 		.4byte	.LVL93
 4879 09fd 872B0000 		.4byte	0x2b87
 4880 0a01 00       		.byte	0
 4881 0a02 16       		.uleb128 0x16
 4882 0a03 7A020000 		.4byte	.LBB18
 4883 0a07 80000000 		.4byte	.LBE18-.LBB18
 4884 0a0b 430B0000 		.4byte	0xb43
 4885 0a0f 1E       		.uleb128 0x1e
 4886 0a10 60060000 		.4byte	.LASF74
 4887 0a14 01       		.byte	0x1
 4888 0a15 98       		.byte	0x98
 4889 0a16 042B0000 		.4byte	0x2b04
 4890 0a1a 02       		.uleb128 0x2
 4891 0a1b 91       		.byte	0x91
 4892 0a1c 48       		.sleb128 -56
 4893 0a1d 1E       		.uleb128 0x1e
 4894 0a1e BB020000 		.4byte	.LASF73
 4895 0a22 01       		.byte	0x1
 4896 0a23 99       		.byte	0x99
 4897 0a24 42010000 		.4byte	0x142
 4898 0a28 02       		.uleb128 0x2
 4899 0a29 91       		.byte	0x91
 4900 0a2a 40       		.sleb128 -64
 4901 0a2b 16       		.uleb128 0x16
 4902 0a2c 86020000 		.4byte	.LBB19
 4903 0a30 1C000000 		.4byte	.LBE19-.LBB19
 4904 0a34 850A0000 		.4byte	0xa85
 4905 0a38 17       		.uleb128 0x17
 4906 0a39 6C00     		.ascii	"l\000"
ARM GAS  C:\Users\Phuong\AppData\Local\Temp\ccU7OqD6.s 			page 103


 4907 0a3b 01       		.byte	0x1
 4908 0a3c 9C       		.byte	0x9c
 4909 0a3d 7B010000 		.4byte	0x17b
 4910 0a41 E7070000 		.4byte	.LLST19
 4911 0a45 18       		.uleb128 0x18
 4912 0a46 8A020000 		.4byte	.LVL96
 4913 0a4a 522B0000 		.4byte	0x2b52
 4914 0a4e 19       		.uleb128 0x19
 4915 0a4f A2020000 		.4byte	.LVL99
 4916 0a53 02       		.uleb128 0x2
 4917 0a54 74       		.byte	0x74
 4918 0a55 00       		.sleb128 0
 4919 0a56 1A       		.uleb128 0x1a
 4920 0a57 01       		.uleb128 0x1
 4921 0a58 50       		.byte	0x50
 4922 0a59 01       		.uleb128 0x1
 4923 0a5a 30       		.byte	0x30
 4924 0a5b 1A       		.uleb128 0x1a
 4925 0a5c 01       		.uleb128 0x1
 4926 0a5d 51       		.byte	0x51
 4927 0a5e 05       		.uleb128 0x5
 4928 0a5f 03       		.byte	0x3
 4929 0a60 00000000 		.4byte	.LC1
 4930 0a64 1A       		.uleb128 0x1a
 4931 0a65 01       		.uleb128 0x1
 4932 0a66 52       		.byte	0x52
 4933 0a67 05       		.uleb128 0x5
 4934 0a68 03       		.byte	0x3
 4935 0a69 6C000000 		.4byte	.LANCHOR0+16
 4936 0a6d 1A       		.uleb128 0x1a
 4937 0a6e 01       		.uleb128 0x1
 4938 0a6f 53       		.byte	0x53
 4939 0a70 02       		.uleb128 0x2
 4940 0a71 08       		.byte	0x8
 4941 0a72 9C       		.byte	0x9c
 4942 0a73 1A       		.uleb128 0x1a
 4943 0a74 02       		.uleb128 0x2
 4944 0a75 7D       		.byte	0x7d
 4945 0a76 00       		.sleb128 0
 4946 0a77 01       		.uleb128 0x1
 4947 0a78 31       		.byte	0x31
 4948 0a79 1A       		.uleb128 0x1a
 4949 0a7a 02       		.uleb128 0x2
 4950 0a7b 7D       		.byte	0x7d
 4951 0a7c 04       		.sleb128 4
 4952 0a7d 05       		.uleb128 0x5
 4953 0a7e 03       		.byte	0x3
 4954 0a7f 40010000 		.4byte	.LC36
 4955 0a83 00       		.byte	0
 4956 0a84 00       		.byte	0
 4957 0a85 16       		.uleb128 0x16
 4958 0a86 D0020000 		.4byte	.LBB20
 4959 0a8a 1C000000 		.4byte	.LBE20-.LBB20
 4960 0a8e DF0A0000 		.4byte	0xadf
 4961 0a92 17       		.uleb128 0x17
 4962 0a93 6C00     		.ascii	"l\000"
 4963 0a95 01       		.byte	0x1
ARM GAS  C:\Users\Phuong\AppData\Local\Temp\ccU7OqD6.s 			page 104


 4964 0a96 A3       		.byte	0xa3
 4965 0a97 7B010000 		.4byte	0x17b
 4966 0a9b 05080000 		.4byte	.LLST20
 4967 0a9f 18       		.uleb128 0x18
 4968 0aa0 D4020000 		.4byte	.LVL104
 4969 0aa4 522B0000 		.4byte	0x2b52
 4970 0aa8 19       		.uleb128 0x19
 4971 0aa9 EC020000 		.4byte	.LVL107
 4972 0aad 02       		.uleb128 0x2
 4973 0aae 74       		.byte	0x74
 4974 0aaf 00       		.sleb128 0
 4975 0ab0 1A       		.uleb128 0x1a
 4976 0ab1 01       		.uleb128 0x1
 4977 0ab2 50       		.byte	0x50
 4978 0ab3 01       		.uleb128 0x1
 4979 0ab4 30       		.byte	0x30
 4980 0ab5 1A       		.uleb128 0x1a
 4981 0ab6 01       		.uleb128 0x1
 4982 0ab7 51       		.byte	0x51
 4983 0ab8 05       		.uleb128 0x5
 4984 0ab9 03       		.byte	0x3
 4985 0aba 00000000 		.4byte	.LC1
 4986 0abe 1A       		.uleb128 0x1a
 4987 0abf 01       		.uleb128 0x1
 4988 0ac0 52       		.byte	0x52
 4989 0ac1 05       		.uleb128 0x5
 4990 0ac2 03       		.byte	0x3
 4991 0ac3 6C000000 		.4byte	.LANCHOR0+16
 4992 0ac7 1A       		.uleb128 0x1a
 4993 0ac8 01       		.uleb128 0x1
 4994 0ac9 53       		.byte	0x53
 4995 0aca 02       		.uleb128 0x2
 4996 0acb 08       		.byte	0x8
 4997 0acc A3       		.byte	0xa3
 4998 0acd 1A       		.uleb128 0x1a
 4999 0ace 02       		.uleb128 0x2
 5000 0acf 7D       		.byte	0x7d
 5001 0ad0 00       		.sleb128 0
 5002 0ad1 01       		.uleb128 0x1
 5003 0ad2 31       		.byte	0x31
 5004 0ad3 1A       		.uleb128 0x1a
 5005 0ad4 02       		.uleb128 0x2
 5006 0ad5 7D       		.byte	0x7d
 5007 0ad6 04       		.sleb128 4
 5008 0ad7 05       		.uleb128 0x5
 5009 0ad8 03       		.byte	0x3
 5010 0ad9 98000000 		.4byte	.LC20
 5011 0add 00       		.byte	0
 5012 0ade 00       		.byte	0
 5013 0adf 1B       		.uleb128 0x1b
 5014 0ae0 82020000 		.4byte	.LVL95
 5015 0ae4 BE2B0000 		.4byte	0x2bbe
 5016 0ae8 F90A0000 		.4byte	0xaf9
 5017 0aec 1A       		.uleb128 0x1a
 5018 0aed 01       		.uleb128 0x1
 5019 0aee 50       		.byte	0x50
 5020 0aef 02       		.uleb128 0x2
ARM GAS  C:\Users\Phuong\AppData\Local\Temp\ccU7OqD6.s 			page 105


 5021 0af0 74       		.byte	0x74
 5022 0af1 00       		.sleb128 0
 5023 0af2 1A       		.uleb128 0x1a
 5024 0af3 01       		.uleb128 0x1
 5025 0af4 51       		.byte	0x51
 5026 0af5 02       		.uleb128 0x2
 5027 0af6 91       		.byte	0x91
 5028 0af7 40       		.sleb128 -64
 5029 0af8 00       		.byte	0
 5030 0af9 18       		.uleb128 0x18
 5031 0afa A8020000 		.4byte	.LVL100
 5032 0afe 872B0000 		.4byte	0x2b87
 5033 0b02 1B       		.uleb128 0x1b
 5034 0b03 BC020000 		.4byte	.LVL102
 5035 0b07 9D2B0000 		.4byte	0x2b9d
 5036 0b0b 1F0B0000 		.4byte	0xb1f
 5037 0b0f 1A       		.uleb128 0x1a
 5038 0b10 01       		.uleb128 0x1
 5039 0b11 50       		.byte	0x50
 5040 0b12 02       		.uleb128 0x2
 5041 0b13 91       		.byte	0x91
 5042 0b14 48       		.sleb128 -56
 5043 0b15 1A       		.uleb128 0x1a
 5044 0b16 01       		.uleb128 0x1
 5045 0b17 51       		.byte	0x51
 5046 0b18 05       		.uleb128 0x5
 5047 0b19 03       		.byte	0x3
 5048 0b1a 5C010000 		.4byte	.LC38
 5049 0b1e 00       		.byte	0
 5050 0b1f 1B       		.uleb128 0x1b
 5051 0b20 C8020000 		.4byte	.LVL103
 5052 0b24 C9020000 		.4byte	0x2c9
 5053 0b28 390B0000 		.4byte	0xb39
 5054 0b2c 1A       		.uleb128 0x1a
 5055 0b2d 01       		.uleb128 0x1
 5056 0b2e 50       		.byte	0x50
 5057 0b2f 02       		.uleb128 0x2
 5058 0b30 91       		.byte	0x91
 5059 0b31 64       		.sleb128 -28
 5060 0b32 1A       		.uleb128 0x1a
 5061 0b33 01       		.uleb128 0x1
 5062 0b34 51       		.byte	0x51
 5063 0b35 02       		.uleb128 0x2
 5064 0b36 91       		.byte	0x91
 5065 0b37 48       		.sleb128 -56
 5066 0b38 00       		.byte	0
 5067 0b39 18       		.uleb128 0x18
 5068 0b3a F2020000 		.4byte	.LVL108
 5069 0b3e 872B0000 		.4byte	0x2b87
 5070 0b42 00       		.byte	0
 5071 0b43 16       		.uleb128 0x16
 5072 0b44 FA020000 		.4byte	.LBB21
 5073 0b48 CE000000 		.4byte	.LBE21-.LBB21
 5074 0b4c 840C0000 		.4byte	0xc84
 5075 0b50 1E       		.uleb128 0x1e
 5076 0b51 60060000 		.4byte	.LASF74
 5077 0b55 01       		.byte	0x1
ARM GAS  C:\Users\Phuong\AppData\Local\Temp\ccU7OqD6.s 			page 106


 5078 0b56 AB       		.byte	0xab
 5079 0b57 142B0000 		.4byte	0x2b14
 5080 0b5b 02       		.uleb128 0x2
 5081 0b5c 91       		.byte	0x91
 5082 0b5d 48       		.sleb128 -56
 5083 0b5e 1E       		.uleb128 0x1e
 5084 0b5f BB020000 		.4byte	.LASF73
 5085 0b63 01       		.byte	0x1
 5086 0b64 AC       		.byte	0xac
 5087 0b65 D7000000 		.4byte	0xd7
 5088 0b69 02       		.uleb128 0x2
 5089 0b6a 91       		.byte	0x91
 5090 0b6b 40       		.sleb128 -64
 5091 0b6c 16       		.uleb128 0x16
 5092 0b6d 06030000 		.4byte	.LBB22
 5093 0b71 1C000000 		.4byte	.LBE22-.LBB22
 5094 0b75 C60B0000 		.4byte	0xbc6
 5095 0b79 17       		.uleb128 0x17
 5096 0b7a 6C00     		.ascii	"l\000"
 5097 0b7c 01       		.byte	0x1
 5098 0b7d AF       		.byte	0xaf
 5099 0b7e 7B010000 		.4byte	0x17b
 5100 0b82 23080000 		.4byte	.LLST21
 5101 0b86 18       		.uleb128 0x18
 5102 0b87 0A030000 		.4byte	.LVL111
 5103 0b8b 522B0000 		.4byte	0x2b52
 5104 0b8f 19       		.uleb128 0x19
 5105 0b90 22030000 		.4byte	.LVL114
 5106 0b94 02       		.uleb128 0x2
 5107 0b95 74       		.byte	0x74
 5108 0b96 00       		.sleb128 0
 5109 0b97 1A       		.uleb128 0x1a
 5110 0b98 01       		.uleb128 0x1
 5111 0b99 50       		.byte	0x50
 5112 0b9a 01       		.uleb128 0x1
 5113 0b9b 30       		.byte	0x30
 5114 0b9c 1A       		.uleb128 0x1a
 5115 0b9d 01       		.uleb128 0x1
 5116 0b9e 51       		.byte	0x51
 5117 0b9f 05       		.uleb128 0x5
 5118 0ba0 03       		.byte	0x3
 5119 0ba1 00000000 		.4byte	.LC1
 5120 0ba5 1A       		.uleb128 0x1a
 5121 0ba6 01       		.uleb128 0x1
 5122 0ba7 52       		.byte	0x52
 5123 0ba8 05       		.uleb128 0x5
 5124 0ba9 03       		.byte	0x3
 5125 0baa 6C000000 		.4byte	.LANCHOR0+16
 5126 0bae 1A       		.uleb128 0x1a
 5127 0baf 01       		.uleb128 0x1
 5128 0bb0 53       		.byte	0x53
 5129 0bb1 02       		.uleb128 0x2
 5130 0bb2 08       		.byte	0x8
 5131 0bb3 AF       		.byte	0xaf
 5132 0bb4 1A       		.uleb128 0x1a
 5133 0bb5 02       		.uleb128 0x2
 5134 0bb6 7D       		.byte	0x7d
ARM GAS  C:\Users\Phuong\AppData\Local\Temp\ccU7OqD6.s 			page 107


 5135 0bb7 00       		.sleb128 0
 5136 0bb8 01       		.uleb128 0x1
 5137 0bb9 31       		.byte	0x31
 5138 0bba 1A       		.uleb128 0x1a
 5139 0bbb 02       		.uleb128 0x2
 5140 0bbc 7D       		.byte	0x7d
 5141 0bbd 04       		.sleb128 4
 5142 0bbe 05       		.uleb128 0x5
 5143 0bbf 03       		.byte	0x3
 5144 0bc0 64010000 		.4byte	.LC40
 5145 0bc4 00       		.byte	0
 5146 0bc5 00       		.byte	0
 5147 0bc6 16       		.uleb128 0x16
 5148 0bc7 50030000 		.4byte	.LBB23
 5149 0bcb 1C000000 		.4byte	.LBE23-.LBB23
 5150 0bcf 200C0000 		.4byte	0xc20
 5151 0bd3 17       		.uleb128 0x17
 5152 0bd4 6C00     		.ascii	"l\000"
 5153 0bd6 01       		.byte	0x1
 5154 0bd7 B6       		.byte	0xb6
 5155 0bd8 7B010000 		.4byte	0x17b
 5156 0bdc 41080000 		.4byte	.LLST22
 5157 0be0 18       		.uleb128 0x18
 5158 0be1 54030000 		.4byte	.LVL119
 5159 0be5 522B0000 		.4byte	0x2b52
 5160 0be9 19       		.uleb128 0x19
 5161 0bea 6C030000 		.4byte	.LVL122
 5162 0bee 02       		.uleb128 0x2
 5163 0bef 74       		.byte	0x74
 5164 0bf0 00       		.sleb128 0
 5165 0bf1 1A       		.uleb128 0x1a
 5166 0bf2 01       		.uleb128 0x1
 5167 0bf3 50       		.byte	0x50
 5168 0bf4 01       		.uleb128 0x1
 5169 0bf5 30       		.byte	0x30
 5170 0bf6 1A       		.uleb128 0x1a
 5171 0bf7 01       		.uleb128 0x1
 5172 0bf8 51       		.byte	0x51
 5173 0bf9 05       		.uleb128 0x5
 5174 0bfa 03       		.byte	0x3
 5175 0bfb 00000000 		.4byte	.LC1
 5176 0bff 1A       		.uleb128 0x1a
 5177 0c00 01       		.uleb128 0x1
 5178 0c01 52       		.byte	0x52
 5179 0c02 05       		.uleb128 0x5
 5180 0c03 03       		.byte	0x3
 5181 0c04 6C000000 		.4byte	.LANCHOR0+16
 5182 0c08 1A       		.uleb128 0x1a
 5183 0c09 01       		.uleb128 0x1
 5184 0c0a 53       		.byte	0x53
 5185 0c0b 02       		.uleb128 0x2
 5186 0c0c 08       		.byte	0x8
 5187 0c0d B6       		.byte	0xb6
 5188 0c0e 1A       		.uleb128 0x1a
 5189 0c0f 02       		.uleb128 0x2
 5190 0c10 7D       		.byte	0x7d
 5191 0c11 00       		.sleb128 0
ARM GAS  C:\Users\Phuong\AppData\Local\Temp\ccU7OqD6.s 			page 108


 5192 0c12 01       		.uleb128 0x1
 5193 0c13 31       		.byte	0x31
 5194 0c14 1A       		.uleb128 0x1a
 5195 0c15 02       		.uleb128 0x2
 5196 0c16 7D       		.byte	0x7d
 5197 0c17 04       		.sleb128 4
 5198 0c18 05       		.uleb128 0x5
 5199 0c19 03       		.byte	0x3
 5200 0c1a 98000000 		.4byte	.LC20
 5201 0c1e 00       		.byte	0
 5202 0c1f 00       		.byte	0
 5203 0c20 1B       		.uleb128 0x1b
 5204 0c21 02030000 		.4byte	.LVL110
 5205 0c25 C92B0000 		.4byte	0x2bc9
 5206 0c29 3A0C0000 		.4byte	0xc3a
 5207 0c2d 1A       		.uleb128 0x1a
 5208 0c2e 01       		.uleb128 0x1
 5209 0c2f 50       		.byte	0x50
 5210 0c30 02       		.uleb128 0x2
 5211 0c31 74       		.byte	0x74
 5212 0c32 00       		.sleb128 0
 5213 0c33 1A       		.uleb128 0x1a
 5214 0c34 01       		.uleb128 0x1
 5215 0c35 51       		.byte	0x51
 5216 0c36 02       		.uleb128 0x2
 5217 0c37 91       		.byte	0x91
 5218 0c38 40       		.sleb128 -64
 5219 0c39 00       		.byte	0
 5220 0c3a 18       		.uleb128 0x18
 5221 0c3b 28030000 		.4byte	.LVL115
 5222 0c3f 872B0000 		.4byte	0x2b87
 5223 0c43 1B       		.uleb128 0x1b
 5224 0c44 3C030000 		.4byte	.LVL117
 5225 0c48 9D2B0000 		.4byte	0x2b9d
 5226 0c4c 600C0000 		.4byte	0xc60
 5227 0c50 1A       		.uleb128 0x1a
 5228 0c51 01       		.uleb128 0x1
 5229 0c52 50       		.byte	0x50
 5230 0c53 02       		.uleb128 0x2
 5231 0c54 91       		.byte	0x91
 5232 0c55 48       		.sleb128 -56
 5233 0c56 1A       		.uleb128 0x1a
 5234 0c57 01       		.uleb128 0x1
 5235 0c58 51       		.byte	0x51
 5236 0c59 05       		.uleb128 0x5
 5237 0c5a 03       		.byte	0x3
 5238 0c5b 80010000 		.4byte	.LC42
 5239 0c5f 00       		.byte	0
 5240 0c60 1B       		.uleb128 0x1b
 5241 0c61 48030000 		.4byte	.LVL118
 5242 0c65 C9020000 		.4byte	0x2c9
 5243 0c69 7A0C0000 		.4byte	0xc7a
 5244 0c6d 1A       		.uleb128 0x1a
 5245 0c6e 01       		.uleb128 0x1
 5246 0c6f 50       		.byte	0x50
 5247 0c70 02       		.uleb128 0x2
 5248 0c71 91       		.byte	0x91
ARM GAS  C:\Users\Phuong\AppData\Local\Temp\ccU7OqD6.s 			page 109


 5249 0c72 64       		.sleb128 -28
 5250 0c73 1A       		.uleb128 0x1a
 5251 0c74 01       		.uleb128 0x1
 5252 0c75 51       		.byte	0x51
 5253 0c76 02       		.uleb128 0x2
 5254 0c77 91       		.byte	0x91
 5255 0c78 48       		.sleb128 -56
 5256 0c79 00       		.byte	0
 5257 0c7a 18       		.uleb128 0x18
 5258 0c7b 72030000 		.4byte	.LVL123
 5259 0c7f 872B0000 		.4byte	0x2b87
 5260 0c83 00       		.byte	0
 5261 0c84 16       		.uleb128 0x16
 5262 0c85 C8030000 		.4byte	.LBB24
 5263 0c89 82000000 		.4byte	.LBE24-.LBB24
 5264 0c8d C50D0000 		.4byte	0xdc5
 5265 0c91 1E       		.uleb128 0x1e
 5266 0c92 60060000 		.4byte	.LASF74
 5267 0c96 01       		.byte	0x1
 5268 0c97 BE       		.byte	0xbe
 5269 0c98 242B0000 		.4byte	0x2b24
 5270 0c9c 02       		.uleb128 0x2
 5271 0c9d 91       		.byte	0x91
 5272 0c9e 48       		.sleb128 -56
 5273 0c9f 1E       		.uleb128 0x1e
 5274 0ca0 BB020000 		.4byte	.LASF73
 5275 0ca4 01       		.byte	0x1
 5276 0ca5 BF       		.byte	0xbf
 5277 0ca6 0B010000 		.4byte	0x10b
 5278 0caa 02       		.uleb128 0x2
 5279 0cab 91       		.byte	0x91
 5280 0cac 40       		.sleb128 -64
 5281 0cad 16       		.uleb128 0x16
 5282 0cae D4030000 		.4byte	.LBB25
 5283 0cb2 1C000000 		.4byte	.LBE25-.LBB25
 5284 0cb6 070D0000 		.4byte	0xd07
 5285 0cba 17       		.uleb128 0x17
 5286 0cbb 6C00     		.ascii	"l\000"
 5287 0cbd 01       		.byte	0x1
 5288 0cbe C2       		.byte	0xc2
 5289 0cbf 7B010000 		.4byte	0x17b
 5290 0cc3 5F080000 		.4byte	.LLST23
 5291 0cc7 18       		.uleb128 0x18
 5292 0cc8 D8030000 		.4byte	.LVL126
 5293 0ccc 522B0000 		.4byte	0x2b52
 5294 0cd0 19       		.uleb128 0x19
 5295 0cd1 F0030000 		.4byte	.LVL129
 5296 0cd5 02       		.uleb128 0x2
 5297 0cd6 74       		.byte	0x74
 5298 0cd7 00       		.sleb128 0
 5299 0cd8 1A       		.uleb128 0x1a
 5300 0cd9 01       		.uleb128 0x1
 5301 0cda 50       		.byte	0x50
 5302 0cdb 01       		.uleb128 0x1
 5303 0cdc 30       		.byte	0x30
 5304 0cdd 1A       		.uleb128 0x1a
 5305 0cde 01       		.uleb128 0x1
ARM GAS  C:\Users\Phuong\AppData\Local\Temp\ccU7OqD6.s 			page 110


 5306 0cdf 51       		.byte	0x51
 5307 0ce0 05       		.uleb128 0x5
 5308 0ce1 03       		.byte	0x3
 5309 0ce2 00000000 		.4byte	.LC1
 5310 0ce6 1A       		.uleb128 0x1a
 5311 0ce7 01       		.uleb128 0x1
 5312 0ce8 52       		.byte	0x52
 5313 0ce9 05       		.uleb128 0x5
 5314 0cea 03       		.byte	0x3
 5315 0ceb 6C000000 		.4byte	.LANCHOR0+16
 5316 0cef 1A       		.uleb128 0x1a
 5317 0cf0 01       		.uleb128 0x1
 5318 0cf1 53       		.byte	0x53
 5319 0cf2 02       		.uleb128 0x2
 5320 0cf3 08       		.byte	0x8
 5321 0cf4 C2       		.byte	0xc2
 5322 0cf5 1A       		.uleb128 0x1a
 5323 0cf6 02       		.uleb128 0x2
 5324 0cf7 7D       		.byte	0x7d
 5325 0cf8 00       		.sleb128 0
 5326 0cf9 01       		.uleb128 0x1
 5327 0cfa 31       		.byte	0x31
 5328 0cfb 1A       		.uleb128 0x1a
 5329 0cfc 02       		.uleb128 0x2
 5330 0cfd 7D       		.byte	0x7d
 5331 0cfe 04       		.sleb128 4
 5332 0cff 05       		.uleb128 0x5
 5333 0d00 03       		.byte	0x3
 5334 0d01 88010000 		.4byte	.LC44
 5335 0d05 00       		.byte	0
 5336 0d06 00       		.byte	0
 5337 0d07 16       		.uleb128 0x16
 5338 0d08 20040000 		.4byte	.LBB26
 5339 0d0c 1C000000 		.4byte	.LBE26-.LBB26
 5340 0d10 610D0000 		.4byte	0xd61
 5341 0d14 17       		.uleb128 0x17
 5342 0d15 6C00     		.ascii	"l\000"
 5343 0d17 01       		.byte	0x1
 5344 0d18 C9       		.byte	0xc9
 5345 0d19 7B010000 		.4byte	0x17b
 5346 0d1d 7D080000 		.4byte	.LLST24
 5347 0d21 18       		.uleb128 0x18
 5348 0d22 24040000 		.4byte	.LVL134
 5349 0d26 522B0000 		.4byte	0x2b52
 5350 0d2a 19       		.uleb128 0x19
 5351 0d2b 3C040000 		.4byte	.LVL137
 5352 0d2f 02       		.uleb128 0x2
 5353 0d30 74       		.byte	0x74
 5354 0d31 00       		.sleb128 0
 5355 0d32 1A       		.uleb128 0x1a
 5356 0d33 01       		.uleb128 0x1
 5357 0d34 50       		.byte	0x50
 5358 0d35 01       		.uleb128 0x1
 5359 0d36 30       		.byte	0x30
 5360 0d37 1A       		.uleb128 0x1a
 5361 0d38 01       		.uleb128 0x1
 5362 0d39 51       		.byte	0x51
ARM GAS  C:\Users\Phuong\AppData\Local\Temp\ccU7OqD6.s 			page 111


 5363 0d3a 05       		.uleb128 0x5
 5364 0d3b 03       		.byte	0x3
 5365 0d3c 00000000 		.4byte	.LC1
 5366 0d40 1A       		.uleb128 0x1a
 5367 0d41 01       		.uleb128 0x1
 5368 0d42 52       		.byte	0x52
 5369 0d43 05       		.uleb128 0x5
 5370 0d44 03       		.byte	0x3
 5371 0d45 6C000000 		.4byte	.LANCHOR0+16
 5372 0d49 1A       		.uleb128 0x1a
 5373 0d4a 01       		.uleb128 0x1
 5374 0d4b 53       		.byte	0x53
 5375 0d4c 02       		.uleb128 0x2
 5376 0d4d 08       		.byte	0x8
 5377 0d4e C9       		.byte	0xc9
 5378 0d4f 1A       		.uleb128 0x1a
 5379 0d50 02       		.uleb128 0x2
 5380 0d51 7D       		.byte	0x7d
 5381 0d52 00       		.sleb128 0
 5382 0d53 01       		.uleb128 0x1
 5383 0d54 31       		.byte	0x31
 5384 0d55 1A       		.uleb128 0x1a
 5385 0d56 02       		.uleb128 0x2
 5386 0d57 7D       		.byte	0x7d
 5387 0d58 04       		.sleb128 4
 5388 0d59 05       		.uleb128 0x5
 5389 0d5a 03       		.byte	0x3
 5390 0d5b 98000000 		.4byte	.LC20
 5391 0d5f 00       		.byte	0
 5392 0d60 00       		.byte	0
 5393 0d61 1B       		.uleb128 0x1b
 5394 0d62 D0030000 		.4byte	.LVL125
 5395 0d66 D42B0000 		.4byte	0x2bd4
 5396 0d6a 7B0D0000 		.4byte	0xd7b
 5397 0d6e 1A       		.uleb128 0x1a
 5398 0d6f 01       		.uleb128 0x1
 5399 0d70 50       		.byte	0x50
 5400 0d71 02       		.uleb128 0x2
 5401 0d72 74       		.byte	0x74
 5402 0d73 00       		.sleb128 0
 5403 0d74 1A       		.uleb128 0x1a
 5404 0d75 01       		.uleb128 0x1
 5405 0d76 51       		.byte	0x51
 5406 0d77 02       		.uleb128 0x2
 5407 0d78 91       		.byte	0x91
 5408 0d79 40       		.sleb128 -64
 5409 0d7a 00       		.byte	0
 5410 0d7b 18       		.uleb128 0x18
 5411 0d7c F6030000 		.4byte	.LVL130
 5412 0d80 872B0000 		.4byte	0x2b87
 5413 0d84 1B       		.uleb128 0x1b
 5414 0d85 0C040000 		.4byte	.LVL132
 5415 0d89 9D2B0000 		.4byte	0x2b9d
 5416 0d8d A10D0000 		.4byte	0xda1
 5417 0d91 1A       		.uleb128 0x1a
 5418 0d92 01       		.uleb128 0x1
 5419 0d93 50       		.byte	0x50
ARM GAS  C:\Users\Phuong\AppData\Local\Temp\ccU7OqD6.s 			page 112


 5420 0d94 02       		.uleb128 0x2
 5421 0d95 91       		.byte	0x91
 5422 0d96 48       		.sleb128 -56
 5423 0d97 1A       		.uleb128 0x1a
 5424 0d98 01       		.uleb128 0x1
 5425 0d99 51       		.byte	0x51
 5426 0d9a 05       		.uleb128 0x5
 5427 0d9b 03       		.byte	0x3
 5428 0d9c A4010000 		.4byte	.LC46
 5429 0da0 00       		.byte	0
 5430 0da1 1B       		.uleb128 0x1b
 5431 0da2 18040000 		.4byte	.LVL133
 5432 0da6 C9020000 		.4byte	0x2c9
 5433 0daa BB0D0000 		.4byte	0xdbb
 5434 0dae 1A       		.uleb128 0x1a
 5435 0daf 01       		.uleb128 0x1
 5436 0db0 50       		.byte	0x50
 5437 0db1 02       		.uleb128 0x2
 5438 0db2 91       		.byte	0x91
 5439 0db3 64       		.sleb128 -28
 5440 0db4 1A       		.uleb128 0x1a
 5441 0db5 01       		.uleb128 0x1
 5442 0db6 51       		.byte	0x51
 5443 0db7 02       		.uleb128 0x2
 5444 0db8 91       		.byte	0x91
 5445 0db9 48       		.sleb128 -56
 5446 0dba 00       		.byte	0
 5447 0dbb 18       		.uleb128 0x18
 5448 0dbc 42040000 		.4byte	.LVL138
 5449 0dc0 872B0000 		.4byte	0x2b87
 5450 0dc4 00       		.byte	0
 5451 0dc5 16       		.uleb128 0x16
 5452 0dc6 4A040000 		.4byte	.LBB27
 5453 0dca 7E000000 		.4byte	.LBE27-.LBB27
 5454 0dce 060F0000 		.4byte	0xf06
 5455 0dd2 1E       		.uleb128 0x1e
 5456 0dd3 60060000 		.4byte	.LASF74
 5457 0dd7 01       		.byte	0x1
 5458 0dd8 D1       		.byte	0xd1
 5459 0dd9 342B0000 		.4byte	0x2b34
 5460 0ddd 02       		.uleb128 0x2
 5461 0dde 91       		.byte	0x91
 5462 0ddf 48       		.sleb128 -56
 5463 0de0 1E       		.uleb128 0x1e
 5464 0de1 BB020000 		.4byte	.LASF73
 5465 0de5 01       		.byte	0x1
 5466 0de6 D2       		.byte	0xd2
 5467 0de7 21010000 		.4byte	0x121
 5468 0deb 02       		.uleb128 0x2
 5469 0dec 91       		.byte	0x91
 5470 0ded 40       		.sleb128 -64
 5471 0dee 16       		.uleb128 0x16
 5472 0def 56040000 		.4byte	.LBB28
 5473 0df3 1C000000 		.4byte	.LBE28-.LBB28
 5474 0df7 480E0000 		.4byte	0xe48
 5475 0dfb 17       		.uleb128 0x17
 5476 0dfc 6C00     		.ascii	"l\000"
ARM GAS  C:\Users\Phuong\AppData\Local\Temp\ccU7OqD6.s 			page 113


 5477 0dfe 01       		.byte	0x1
 5478 0dff D5       		.byte	0xd5
 5479 0e00 7B010000 		.4byte	0x17b
 5480 0e04 9B080000 		.4byte	.LLST25
 5481 0e08 18       		.uleb128 0x18
 5482 0e09 5A040000 		.4byte	.LVL141
 5483 0e0d 522B0000 		.4byte	0x2b52
 5484 0e11 19       		.uleb128 0x19
 5485 0e12 72040000 		.4byte	.LVL144
 5486 0e16 02       		.uleb128 0x2
 5487 0e17 74       		.byte	0x74
 5488 0e18 00       		.sleb128 0
 5489 0e19 1A       		.uleb128 0x1a
 5490 0e1a 01       		.uleb128 0x1
 5491 0e1b 50       		.byte	0x50
 5492 0e1c 01       		.uleb128 0x1
 5493 0e1d 30       		.byte	0x30
 5494 0e1e 1A       		.uleb128 0x1a
 5495 0e1f 01       		.uleb128 0x1
 5496 0e20 51       		.byte	0x51
 5497 0e21 05       		.uleb128 0x5
 5498 0e22 03       		.byte	0x3
 5499 0e23 00000000 		.4byte	.LC1
 5500 0e27 1A       		.uleb128 0x1a
 5501 0e28 01       		.uleb128 0x1
 5502 0e29 52       		.byte	0x52
 5503 0e2a 05       		.uleb128 0x5
 5504 0e2b 03       		.byte	0x3
 5505 0e2c 6C000000 		.4byte	.LANCHOR0+16
 5506 0e30 1A       		.uleb128 0x1a
 5507 0e31 01       		.uleb128 0x1
 5508 0e32 53       		.byte	0x53
 5509 0e33 02       		.uleb128 0x2
 5510 0e34 08       		.byte	0x8
 5511 0e35 D5       		.byte	0xd5
 5512 0e36 1A       		.uleb128 0x1a
 5513 0e37 02       		.uleb128 0x2
 5514 0e38 7D       		.byte	0x7d
 5515 0e39 00       		.sleb128 0
 5516 0e3a 01       		.uleb128 0x1
 5517 0e3b 31       		.byte	0x31
 5518 0e3c 1A       		.uleb128 0x1a
 5519 0e3d 02       		.uleb128 0x2
 5520 0e3e 7D       		.byte	0x7d
 5521 0e3f 04       		.sleb128 4
 5522 0e40 05       		.uleb128 0x5
 5523 0e41 03       		.byte	0x3
 5524 0e42 A8010000 		.4byte	.LC48
 5525 0e46 00       		.byte	0
 5526 0e47 00       		.byte	0
 5527 0e48 16       		.uleb128 0x16
 5528 0e49 9E040000 		.4byte	.LBB29
 5529 0e4d 1C000000 		.4byte	.LBE29-.LBB29
 5530 0e51 A20E0000 		.4byte	0xea2
 5531 0e55 17       		.uleb128 0x17
 5532 0e56 6C00     		.ascii	"l\000"
 5533 0e58 01       		.byte	0x1
ARM GAS  C:\Users\Phuong\AppData\Local\Temp\ccU7OqD6.s 			page 114


 5534 0e59 DC       		.byte	0xdc
 5535 0e5a 7B010000 		.4byte	0x17b
 5536 0e5e B9080000 		.4byte	.LLST26
 5537 0e62 18       		.uleb128 0x18
 5538 0e63 A2040000 		.4byte	.LVL149
 5539 0e67 522B0000 		.4byte	0x2b52
 5540 0e6b 19       		.uleb128 0x19
 5541 0e6c BA040000 		.4byte	.LVL152
 5542 0e70 02       		.uleb128 0x2
 5543 0e71 74       		.byte	0x74
 5544 0e72 00       		.sleb128 0
 5545 0e73 1A       		.uleb128 0x1a
 5546 0e74 01       		.uleb128 0x1
 5547 0e75 50       		.byte	0x50
 5548 0e76 01       		.uleb128 0x1
 5549 0e77 30       		.byte	0x30
 5550 0e78 1A       		.uleb128 0x1a
 5551 0e79 01       		.uleb128 0x1
 5552 0e7a 51       		.byte	0x51
 5553 0e7b 05       		.uleb128 0x5
 5554 0e7c 03       		.byte	0x3
 5555 0e7d 00000000 		.4byte	.LC1
 5556 0e81 1A       		.uleb128 0x1a
 5557 0e82 01       		.uleb128 0x1
 5558 0e83 52       		.byte	0x52
 5559 0e84 05       		.uleb128 0x5
 5560 0e85 03       		.byte	0x3
 5561 0e86 6C000000 		.4byte	.LANCHOR0+16
 5562 0e8a 1A       		.uleb128 0x1a
 5563 0e8b 01       		.uleb128 0x1
 5564 0e8c 53       		.byte	0x53
 5565 0e8d 02       		.uleb128 0x2
 5566 0e8e 08       		.byte	0x8
 5567 0e8f DC       		.byte	0xdc
 5568 0e90 1A       		.uleb128 0x1a
 5569 0e91 02       		.uleb128 0x2
 5570 0e92 7D       		.byte	0x7d
 5571 0e93 00       		.sleb128 0
 5572 0e94 01       		.uleb128 0x1
 5573 0e95 31       		.byte	0x31
 5574 0e96 1A       		.uleb128 0x1a
 5575 0e97 02       		.uleb128 0x2
 5576 0e98 7D       		.byte	0x7d
 5577 0e99 04       		.sleb128 4
 5578 0e9a 05       		.uleb128 0x5
 5579 0e9b 03       		.byte	0x3
 5580 0e9c 98000000 		.4byte	.LC20
 5581 0ea0 00       		.byte	0
 5582 0ea1 00       		.byte	0
 5583 0ea2 1B       		.uleb128 0x1b
 5584 0ea3 52040000 		.4byte	.LVL140
 5585 0ea7 DF2B0000 		.4byte	0x2bdf
 5586 0eab BC0E0000 		.4byte	0xebc
 5587 0eaf 1A       		.uleb128 0x1a
 5588 0eb0 01       		.uleb128 0x1
 5589 0eb1 50       		.byte	0x50
 5590 0eb2 02       		.uleb128 0x2
ARM GAS  C:\Users\Phuong\AppData\Local\Temp\ccU7OqD6.s 			page 115


 5591 0eb3 74       		.byte	0x74
 5592 0eb4 00       		.sleb128 0
 5593 0eb5 1A       		.uleb128 0x1a
 5594 0eb6 01       		.uleb128 0x1
 5595 0eb7 51       		.byte	0x51
 5596 0eb8 02       		.uleb128 0x2
 5597 0eb9 91       		.byte	0x91
 5598 0eba 40       		.sleb128 -64
 5599 0ebb 00       		.byte	0
 5600 0ebc 18       		.uleb128 0x18
 5601 0ebd 78040000 		.4byte	.LVL145
 5602 0ec1 872B0000 		.4byte	0x2b87
 5603 0ec5 1B       		.uleb128 0x1b
 5604 0ec6 8A040000 		.4byte	.LVL147
 5605 0eca 9D2B0000 		.4byte	0x2b9d
 5606 0ece E20E0000 		.4byte	0xee2
 5607 0ed2 1A       		.uleb128 0x1a
 5608 0ed3 01       		.uleb128 0x1
 5609 0ed4 50       		.byte	0x50
 5610 0ed5 02       		.uleb128 0x2
 5611 0ed6 91       		.byte	0x91
 5612 0ed7 48       		.sleb128 -56
 5613 0ed8 1A       		.uleb128 0x1a
 5614 0ed9 01       		.uleb128 0x1
 5615 0eda 51       		.byte	0x51
 5616 0edb 05       		.uleb128 0x5
 5617 0edc 03       		.byte	0x3
 5618 0edd C4010000 		.4byte	.LC50
 5619 0ee1 00       		.byte	0
 5620 0ee2 1B       		.uleb128 0x1b
 5621 0ee3 96040000 		.4byte	.LVL148
 5622 0ee7 C9020000 		.4byte	0x2c9
 5623 0eeb FC0E0000 		.4byte	0xefc
 5624 0eef 1A       		.uleb128 0x1a
 5625 0ef0 01       		.uleb128 0x1
 5626 0ef1 50       		.byte	0x50
 5627 0ef2 02       		.uleb128 0x2
 5628 0ef3 91       		.byte	0x91
 5629 0ef4 64       		.sleb128 -28
 5630 0ef5 1A       		.uleb128 0x1a
 5631 0ef6 01       		.uleb128 0x1
 5632 0ef7 51       		.byte	0x51
 5633 0ef8 02       		.uleb128 0x2
 5634 0ef9 91       		.byte	0x91
 5635 0efa 48       		.sleb128 -56
 5636 0efb 00       		.byte	0
 5637 0efc 18       		.uleb128 0x18
 5638 0efd C0040000 		.4byte	.LVL153
 5639 0f01 872B0000 		.4byte	0x2b87
 5640 0f05 00       		.byte	0
 5641 0f06 16       		.uleb128 0x16
 5642 0f07 C8040000 		.4byte	.LBB30
 5643 0f0b 80000000 		.4byte	.LBE30-.LBB30
 5644 0f0f 47100000 		.4byte	0x1047
 5645 0f13 1E       		.uleb128 0x1e
 5646 0f14 60060000 		.4byte	.LASF74
 5647 0f18 01       		.byte	0x1
ARM GAS  C:\Users\Phuong\AppData\Local\Temp\ccU7OqD6.s 			page 116


 5648 0f19 E4       		.byte	0xe4
 5649 0f1a 042B0000 		.4byte	0x2b04
 5650 0f1e 02       		.uleb128 0x2
 5651 0f1f 91       		.byte	0x91
 5652 0f20 48       		.sleb128 -56
 5653 0f21 1E       		.uleb128 0x1e
 5654 0f22 BB020000 		.4byte	.LASF73
 5655 0f26 01       		.byte	0x1
 5656 0f27 E5       		.byte	0xe5
 5657 0f28 37010000 		.4byte	0x137
 5658 0f2c 02       		.uleb128 0x2
 5659 0f2d 91       		.byte	0x91
 5660 0f2e 40       		.sleb128 -64
 5661 0f2f 16       		.uleb128 0x16
 5662 0f30 D4040000 		.4byte	.LBB31
 5663 0f34 1C000000 		.4byte	.LBE31-.LBB31
 5664 0f38 890F0000 		.4byte	0xf89
 5665 0f3c 17       		.uleb128 0x17
 5666 0f3d 6C00     		.ascii	"l\000"
 5667 0f3f 01       		.byte	0x1
 5668 0f40 E8       		.byte	0xe8
 5669 0f41 7B010000 		.4byte	0x17b
 5670 0f45 D7080000 		.4byte	.LLST27
 5671 0f49 18       		.uleb128 0x18
 5672 0f4a D8040000 		.4byte	.LVL156
 5673 0f4e 522B0000 		.4byte	0x2b52
 5674 0f52 19       		.uleb128 0x19
 5675 0f53 F0040000 		.4byte	.LVL159
 5676 0f57 02       		.uleb128 0x2
 5677 0f58 74       		.byte	0x74
 5678 0f59 00       		.sleb128 0
 5679 0f5a 1A       		.uleb128 0x1a
 5680 0f5b 01       		.uleb128 0x1
 5681 0f5c 50       		.byte	0x50
 5682 0f5d 01       		.uleb128 0x1
 5683 0f5e 30       		.byte	0x30
 5684 0f5f 1A       		.uleb128 0x1a
 5685 0f60 01       		.uleb128 0x1
 5686 0f61 51       		.byte	0x51
 5687 0f62 05       		.uleb128 0x5
 5688 0f63 03       		.byte	0x3
 5689 0f64 00000000 		.4byte	.LC1
 5690 0f68 1A       		.uleb128 0x1a
 5691 0f69 01       		.uleb128 0x1
 5692 0f6a 52       		.byte	0x52
 5693 0f6b 05       		.uleb128 0x5
 5694 0f6c 03       		.byte	0x3
 5695 0f6d 6C000000 		.4byte	.LANCHOR0+16
 5696 0f71 1A       		.uleb128 0x1a
 5697 0f72 01       		.uleb128 0x1
 5698 0f73 53       		.byte	0x53
 5699 0f74 02       		.uleb128 0x2
 5700 0f75 08       		.byte	0x8
 5701 0f76 E8       		.byte	0xe8
 5702 0f77 1A       		.uleb128 0x1a
 5703 0f78 02       		.uleb128 0x2
 5704 0f79 7D       		.byte	0x7d
ARM GAS  C:\Users\Phuong\AppData\Local\Temp\ccU7OqD6.s 			page 117


 5705 0f7a 00       		.sleb128 0
 5706 0f7b 01       		.uleb128 0x1
 5707 0f7c 31       		.byte	0x31
 5708 0f7d 1A       		.uleb128 0x1a
 5709 0f7e 02       		.uleb128 0x2
 5710 0f7f 7D       		.byte	0x7d
 5711 0f80 04       		.sleb128 4
 5712 0f81 05       		.uleb128 0x5
 5713 0f82 03       		.byte	0x3
 5714 0f83 C8010000 		.4byte	.LC52
 5715 0f87 00       		.byte	0
 5716 0f88 00       		.byte	0
 5717 0f89 16       		.uleb128 0x16
 5718 0f8a 1E050000 		.4byte	.LBB32
 5719 0f8e 1C000000 		.4byte	.LBE32-.LBB32
 5720 0f92 E30F0000 		.4byte	0xfe3
 5721 0f96 17       		.uleb128 0x17
 5722 0f97 6C00     		.ascii	"l\000"
 5723 0f99 01       		.byte	0x1
 5724 0f9a EF       		.byte	0xef
 5725 0f9b 7B010000 		.4byte	0x17b
 5726 0f9f F5080000 		.4byte	.LLST28
 5727 0fa3 18       		.uleb128 0x18
 5728 0fa4 22050000 		.4byte	.LVL164
 5729 0fa8 522B0000 		.4byte	0x2b52
 5730 0fac 19       		.uleb128 0x19
 5731 0fad 3A050000 		.4byte	.LVL167
 5732 0fb1 02       		.uleb128 0x2
 5733 0fb2 74       		.byte	0x74
 5734 0fb3 00       		.sleb128 0
 5735 0fb4 1A       		.uleb128 0x1a
 5736 0fb5 01       		.uleb128 0x1
 5737 0fb6 50       		.byte	0x50
 5738 0fb7 01       		.uleb128 0x1
 5739 0fb8 30       		.byte	0x30
 5740 0fb9 1A       		.uleb128 0x1a
 5741 0fba 01       		.uleb128 0x1
 5742 0fbb 51       		.byte	0x51
 5743 0fbc 05       		.uleb128 0x5
 5744 0fbd 03       		.byte	0x3
 5745 0fbe 00000000 		.4byte	.LC1
 5746 0fc2 1A       		.uleb128 0x1a
 5747 0fc3 01       		.uleb128 0x1
 5748 0fc4 52       		.byte	0x52
 5749 0fc5 05       		.uleb128 0x5
 5750 0fc6 03       		.byte	0x3
 5751 0fc7 6C000000 		.4byte	.LANCHOR0+16
 5752 0fcb 1A       		.uleb128 0x1a
 5753 0fcc 01       		.uleb128 0x1
 5754 0fcd 53       		.byte	0x53
 5755 0fce 02       		.uleb128 0x2
 5756 0fcf 08       		.byte	0x8
 5757 0fd0 EF       		.byte	0xef
 5758 0fd1 1A       		.uleb128 0x1a
 5759 0fd2 02       		.uleb128 0x2
 5760 0fd3 7D       		.byte	0x7d
 5761 0fd4 00       		.sleb128 0
ARM GAS  C:\Users\Phuong\AppData\Local\Temp\ccU7OqD6.s 			page 118


 5762 0fd5 01       		.uleb128 0x1
 5763 0fd6 31       		.byte	0x31
 5764 0fd7 1A       		.uleb128 0x1a
 5765 0fd8 02       		.uleb128 0x2
 5766 0fd9 7D       		.byte	0x7d
 5767 0fda 04       		.sleb128 4
 5768 0fdb 05       		.uleb128 0x5
 5769 0fdc 03       		.byte	0x3
 5770 0fdd 98000000 		.4byte	.LC20
 5771 0fe1 00       		.byte	0
 5772 0fe2 00       		.byte	0
 5773 0fe3 1B       		.uleb128 0x1b
 5774 0fe4 D0040000 		.4byte	.LVL155
 5775 0fe8 EA2B0000 		.4byte	0x2bea
 5776 0fec FD0F0000 		.4byte	0xffd
 5777 0ff0 1A       		.uleb128 0x1a
 5778 0ff1 01       		.uleb128 0x1
 5779 0ff2 50       		.byte	0x50
 5780 0ff3 02       		.uleb128 0x2
 5781 0ff4 74       		.byte	0x74
 5782 0ff5 00       		.sleb128 0
 5783 0ff6 1A       		.uleb128 0x1a
 5784 0ff7 01       		.uleb128 0x1
 5785 0ff8 51       		.byte	0x51
 5786 0ff9 02       		.uleb128 0x2
 5787 0ffa 91       		.byte	0x91
 5788 0ffb 40       		.sleb128 -64
 5789 0ffc 00       		.byte	0
 5790 0ffd 18       		.uleb128 0x18
 5791 0ffe F6040000 		.4byte	.LVL160
 5792 1002 872B0000 		.4byte	0x2b87
 5793 1006 1B       		.uleb128 0x1b
 5794 1007 0A050000 		.4byte	.LVL162
 5795 100b 9D2B0000 		.4byte	0x2b9d
 5796 100f 23100000 		.4byte	0x1023
 5797 1013 1A       		.uleb128 0x1a
 5798 1014 01       		.uleb128 0x1
 5799 1015 50       		.byte	0x50
 5800 1016 02       		.uleb128 0x2
 5801 1017 91       		.byte	0x91
 5802 1018 48       		.sleb128 -56
 5803 1019 1A       		.uleb128 0x1a
 5804 101a 01       		.uleb128 0x1
 5805 101b 51       		.byte	0x51
 5806 101c 05       		.uleb128 0x5
 5807 101d 03       		.byte	0x3
 5808 101e E4010000 		.4byte	.LC54
 5809 1022 00       		.byte	0
 5810 1023 1B       		.uleb128 0x1b
 5811 1024 16050000 		.4byte	.LVL163
 5812 1028 C9020000 		.4byte	0x2c9
 5813 102c 3D100000 		.4byte	0x103d
 5814 1030 1A       		.uleb128 0x1a
 5815 1031 01       		.uleb128 0x1
 5816 1032 50       		.byte	0x50
 5817 1033 02       		.uleb128 0x2
 5818 1034 91       		.byte	0x91
ARM GAS  C:\Users\Phuong\AppData\Local\Temp\ccU7OqD6.s 			page 119


 5819 1035 64       		.sleb128 -28
 5820 1036 1A       		.uleb128 0x1a
 5821 1037 01       		.uleb128 0x1
 5822 1038 51       		.byte	0x51
 5823 1039 02       		.uleb128 0x2
 5824 103a 91       		.byte	0x91
 5825 103b 48       		.sleb128 -56
 5826 103c 00       		.byte	0
 5827 103d 18       		.uleb128 0x18
 5828 103e 40050000 		.4byte	.LVL168
 5829 1042 872B0000 		.4byte	0x2b87
 5830 1046 00       		.byte	0
 5831 1047 16       		.uleb128 0x16
 5832 1048 48050000 		.4byte	.LBB33
 5833 104c 8A000000 		.4byte	.LBE33-.LBB33
 5834 1050 9E110000 		.4byte	0x119e
 5835 1054 1E       		.uleb128 0x1e
 5836 1055 C8040000 		.4byte	.LASF75
 5837 1059 01       		.byte	0x1
 5838 105a F7       		.byte	0xf7
 5839 105b 442B0000 		.4byte	0x2b44
 5840 105f 02       		.uleb128 0x2
 5841 1060 91       		.byte	0x91
 5842 1061 40       		.sleb128 -64
 5843 1062 16       		.uleb128 0x16
 5844 1063 54050000 		.4byte	.LBB34
 5845 1067 1C000000 		.4byte	.LBE34-.LBB34
 5846 106b BC100000 		.4byte	0x10bc
 5847 106f 17       		.uleb128 0x17
 5848 1070 6C00     		.ascii	"l\000"
 5849 1072 01       		.byte	0x1
 5850 1073 FA       		.byte	0xfa
 5851 1074 7B010000 		.4byte	0x17b
 5852 1078 13090000 		.4byte	.LLST29
 5853 107c 18       		.uleb128 0x18
 5854 107d 58050000 		.4byte	.LVL171
 5855 1081 522B0000 		.4byte	0x2b52
 5856 1085 19       		.uleb128 0x19
 5857 1086 70050000 		.4byte	.LVL174
 5858 108a 02       		.uleb128 0x2
 5859 108b 74       		.byte	0x74
 5860 108c 00       		.sleb128 0
 5861 108d 1A       		.uleb128 0x1a
 5862 108e 01       		.uleb128 0x1
 5863 108f 50       		.byte	0x50
 5864 1090 01       		.uleb128 0x1
 5865 1091 30       		.byte	0x30
 5866 1092 1A       		.uleb128 0x1a
 5867 1093 01       		.uleb128 0x1
 5868 1094 51       		.byte	0x51
 5869 1095 05       		.uleb128 0x5
 5870 1096 03       		.byte	0x3
 5871 1097 00000000 		.4byte	.LC1
 5872 109b 1A       		.uleb128 0x1a
 5873 109c 01       		.uleb128 0x1
 5874 109d 52       		.byte	0x52
 5875 109e 05       		.uleb128 0x5
ARM GAS  C:\Users\Phuong\AppData\Local\Temp\ccU7OqD6.s 			page 120


 5876 109f 03       		.byte	0x3
 5877 10a0 6C000000 		.4byte	.LANCHOR0+16
 5878 10a4 1A       		.uleb128 0x1a
 5879 10a5 01       		.uleb128 0x1
 5880 10a6 53       		.byte	0x53
 5881 10a7 02       		.uleb128 0x2
 5882 10a8 08       		.byte	0x8
 5883 10a9 FA       		.byte	0xfa
 5884 10aa 1A       		.uleb128 0x1a
 5885 10ab 02       		.uleb128 0x2
 5886 10ac 7D       		.byte	0x7d
 5887 10ad 00       		.sleb128 0
 5888 10ae 01       		.uleb128 0x1
 5889 10af 31       		.byte	0x31
 5890 10b0 1A       		.uleb128 0x1a
 5891 10b1 02       		.uleb128 0x2
 5892 10b2 7D       		.byte	0x7d
 5893 10b3 04       		.sleb128 4
 5894 10b4 05       		.uleb128 0x5
 5895 10b5 03       		.byte	0x3
 5896 10b6 EC010000 		.4byte	.LC56
 5897 10ba 00       		.byte	0
 5898 10bb 00       		.byte	0
 5899 10bc 16       		.uleb128 0x16
 5900 10bd 7E050000 		.4byte	.LBB35
 5901 10c1 54000000 		.4byte	.LBE35-.LBB35
 5902 10c5 7A110000 		.4byte	0x117a
 5903 10c9 20       		.uleb128 0x20
 5904 10ca 60060000 		.4byte	.LASF74
 5905 10ce 01       		.byte	0x1
 5906 10cf 0001     		.2byte	0x100
 5907 10d1 E9000000 		.4byte	0xe9
 5908 10d5 02       		.uleb128 0x2
 5909 10d6 91       		.byte	0x91
 5910 10d7 48       		.sleb128 -56
 5911 10d8 16       		.uleb128 0x16
 5912 10d9 A6050000 		.4byte	.LBB36
 5913 10dd 1E000000 		.4byte	.LBE36-.LBB36
 5914 10e1 34110000 		.4byte	0x1134
 5915 10e5 21       		.uleb128 0x21
 5916 10e6 6C00     		.ascii	"l\000"
 5917 10e8 01       		.byte	0x1
 5918 10e9 0401     		.2byte	0x104
 5919 10eb 7B010000 		.4byte	0x17b
 5920 10ef 31090000 		.4byte	.LLST30
 5921 10f3 18       		.uleb128 0x18
 5922 10f4 AA050000 		.4byte	.LVL180
 5923 10f8 522B0000 		.4byte	0x2b52
 5924 10fc 19       		.uleb128 0x19
 5925 10fd C4050000 		.4byte	.LVL183
 5926 1101 02       		.uleb128 0x2
 5927 1102 74       		.byte	0x74
 5928 1103 00       		.sleb128 0
 5929 1104 1A       		.uleb128 0x1a
 5930 1105 01       		.uleb128 0x1
 5931 1106 50       		.byte	0x50
 5932 1107 01       		.uleb128 0x1
ARM GAS  C:\Users\Phuong\AppData\Local\Temp\ccU7OqD6.s 			page 121


 5933 1108 30       		.byte	0x30
 5934 1109 1A       		.uleb128 0x1a
 5935 110a 01       		.uleb128 0x1
 5936 110b 51       		.byte	0x51
 5937 110c 05       		.uleb128 0x5
 5938 110d 03       		.byte	0x3
 5939 110e 00000000 		.4byte	.LC1
 5940 1112 1A       		.uleb128 0x1a
 5941 1113 01       		.uleb128 0x1
 5942 1114 52       		.byte	0x52
 5943 1115 05       		.uleb128 0x5
 5944 1116 03       		.byte	0x3
 5945 1117 6C000000 		.4byte	.LANCHOR0+16
 5946 111b 1A       		.uleb128 0x1a
 5947 111c 01       		.uleb128 0x1
 5948 111d 53       		.byte	0x53
 5949 111e 03       		.uleb128 0x3
 5950 111f 0A       		.byte	0xa
 5951 1120 0401     		.2byte	0x104
 5952 1122 1A       		.uleb128 0x1a
 5953 1123 02       		.uleb128 0x2
 5954 1124 7D       		.byte	0x7d
 5955 1125 00       		.sleb128 0
 5956 1126 01       		.uleb128 0x1
 5957 1127 31       		.byte	0x31
 5958 1128 1A       		.uleb128 0x1a
 5959 1129 02       		.uleb128 0x2
 5960 112a 7D       		.byte	0x7d
 5961 112b 04       		.sleb128 4
 5962 112c 05       		.uleb128 0x5
 5963 112d 03       		.byte	0x3
 5964 112e 98000000 		.4byte	.LC20
 5965 1132 00       		.byte	0
 5966 1133 00       		.byte	0
 5967 1134 1B       		.uleb128 0x1b
 5968 1135 92050000 		.4byte	.LVL178
 5969 1139 F52B0000 		.4byte	0x2bf5
 5970 113d 56110000 		.4byte	0x1156
 5971 1141 1A       		.uleb128 0x1a
 5972 1142 01       		.uleb128 0x1
 5973 1143 50       		.byte	0x50
 5974 1144 02       		.uleb128 0x2
 5975 1145 91       		.byte	0x91
 5976 1146 48       		.sleb128 -56
 5977 1147 1A       		.uleb128 0x1a
 5978 1148 01       		.uleb128 0x1
 5979 1149 51       		.byte	0x51
 5980 114a 01       		.uleb128 0x1
 5981 114b 49       		.byte	0x49
 5982 114c 1A       		.uleb128 0x1a
 5983 114d 01       		.uleb128 0x1
 5984 114e 52       		.byte	0x52
 5985 114f 05       		.uleb128 0x5
 5986 1150 03       		.byte	0x3
 5987 1151 08020000 		.4byte	.LC58
 5988 1155 00       		.byte	0
 5989 1156 1B       		.uleb128 0x1b
ARM GAS  C:\Users\Phuong\AppData\Local\Temp\ccU7OqD6.s 			page 122


 5990 1157 9E050000 		.4byte	.LVL179
 5991 115b C9020000 		.4byte	0x2c9
 5992 115f 70110000 		.4byte	0x1170
 5993 1163 1A       		.uleb128 0x1a
 5994 1164 01       		.uleb128 0x1
 5995 1165 50       		.byte	0x50
 5996 1166 02       		.uleb128 0x2
 5997 1167 91       		.byte	0x91
 5998 1168 64       		.sleb128 -28
 5999 1169 1A       		.uleb128 0x1a
 6000 116a 01       		.uleb128 0x1
 6001 116b 51       		.byte	0x51
 6002 116c 02       		.uleb128 0x2
 6003 116d 91       		.byte	0x91
 6004 116e 48       		.sleb128 -56
 6005 116f 00       		.byte	0
 6006 1170 18       		.uleb128 0x18
 6007 1171 CA050000 		.4byte	.LVL184
 6008 1175 872B0000 		.4byte	0x2b87
 6009 1179 00       		.byte	0
 6010 117a 1B       		.uleb128 0x1b
 6011 117b 50050000 		.4byte	.LVL170
 6012 117f 002C0000 		.4byte	0x2c00
 6013 1183 94110000 		.4byte	0x1194
 6014 1187 1A       		.uleb128 0x1a
 6015 1188 01       		.uleb128 0x1
 6016 1189 50       		.byte	0x50
 6017 118a 02       		.uleb128 0x2
 6018 118b 74       		.byte	0x74
 6019 118c 00       		.sleb128 0
 6020 118d 1A       		.uleb128 0x1a
 6021 118e 01       		.uleb128 0x1
 6022 118f 51       		.byte	0x51
 6023 1190 02       		.uleb128 0x2
 6024 1191 91       		.byte	0x91
 6025 1192 40       		.sleb128 -64
 6026 1193 00       		.byte	0
 6027 1194 18       		.uleb128 0x18
 6028 1195 76050000 		.4byte	.LVL175
 6029 1199 872B0000 		.4byte	0x2b87
 6030 119d 00       		.byte	0
 6031 119e 16       		.uleb128 0x16
 6032 119f D2050000 		.4byte	.LBB37
 6033 11a3 8A000000 		.4byte	.LBE37-.LBB37
 6034 11a7 F8120000 		.4byte	0x12f8
 6035 11ab 20       		.uleb128 0x20
 6036 11ac 1B040000 		.4byte	.LASF76
 6037 11b0 01       		.byte	0x1
 6038 11b1 0D01     		.2byte	0x10d
 6039 11b3 4B2B0000 		.4byte	0x2b4b
 6040 11b7 02       		.uleb128 0x2
 6041 11b8 91       		.byte	0x91
 6042 11b9 40       		.sleb128 -64
 6043 11ba 16       		.uleb128 0x16
 6044 11bb DE050000 		.4byte	.LBB38
 6045 11bf 1E000000 		.4byte	.LBE38-.LBB38
 6046 11c3 16120000 		.4byte	0x1216
ARM GAS  C:\Users\Phuong\AppData\Local\Temp\ccU7OqD6.s 			page 123


 6047 11c7 21       		.uleb128 0x21
 6048 11c8 6C00     		.ascii	"l\000"
 6049 11ca 01       		.byte	0x1
 6050 11cb 1001     		.2byte	0x110
 6051 11cd 7B010000 		.4byte	0x17b
 6052 11d1 4F090000 		.4byte	.LLST31
 6053 11d5 18       		.uleb128 0x18
 6054 11d6 E2050000 		.4byte	.LVL187
 6055 11da 522B0000 		.4byte	0x2b52
 6056 11de 19       		.uleb128 0x19
 6057 11df FC050000 		.4byte	.LVL190
 6058 11e3 02       		.uleb128 0x2
 6059 11e4 74       		.byte	0x74
 6060 11e5 00       		.sleb128 0
 6061 11e6 1A       		.uleb128 0x1a
 6062 11e7 01       		.uleb128 0x1
 6063 11e8 50       		.byte	0x50
 6064 11e9 01       		.uleb128 0x1
 6065 11ea 30       		.byte	0x30
 6066 11eb 1A       		.uleb128 0x1a
 6067 11ec 01       		.uleb128 0x1
 6068 11ed 51       		.byte	0x51
 6069 11ee 05       		.uleb128 0x5
 6070 11ef 03       		.byte	0x3
 6071 11f0 00000000 		.4byte	.LC1
 6072 11f4 1A       		.uleb128 0x1a
 6073 11f5 01       		.uleb128 0x1
 6074 11f6 52       		.byte	0x52
 6075 11f7 05       		.uleb128 0x5
 6076 11f8 03       		.byte	0x3
 6077 11f9 6C000000 		.4byte	.LANCHOR0+16
 6078 11fd 1A       		.uleb128 0x1a
 6079 11fe 01       		.uleb128 0x1
 6080 11ff 53       		.byte	0x53
 6081 1200 03       		.uleb128 0x3
 6082 1201 0A       		.byte	0xa
 6083 1202 1001     		.2byte	0x110
 6084 1204 1A       		.uleb128 0x1a
 6085 1205 02       		.uleb128 0x2
 6086 1206 7D       		.byte	0x7d
 6087 1207 00       		.sleb128 0
 6088 1208 01       		.uleb128 0x1
 6089 1209 31       		.byte	0x31
 6090 120a 1A       		.uleb128 0x1a
 6091 120b 02       		.uleb128 0x2
 6092 120c 7D       		.byte	0x7d
 6093 120d 04       		.sleb128 4
 6094 120e 05       		.uleb128 0x5
 6095 120f 03       		.byte	0x3
 6096 1210 10020000 		.4byte	.LC60
 6097 1214 00       		.byte	0
 6098 1215 00       		.byte	0
 6099 1216 16       		.uleb128 0x16
 6100 1217 0A060000 		.4byte	.LBB39
 6101 121b 52000000 		.4byte	.LBE39-.LBB39
 6102 121f D4120000 		.4byte	0x12d4
 6103 1223 20       		.uleb128 0x20
ARM GAS  C:\Users\Phuong\AppData\Local\Temp\ccU7OqD6.s 			page 124


 6104 1224 60060000 		.4byte	.LASF74
 6105 1228 01       		.byte	0x1
 6106 1229 1601     		.2byte	0x116
 6107 122b E9000000 		.4byte	0xe9
 6108 122f 02       		.uleb128 0x2
 6109 1230 91       		.byte	0x91
 6110 1231 48       		.sleb128 -56
 6111 1232 16       		.uleb128 0x16
 6112 1233 30060000 		.4byte	.LBB40
 6113 1237 1E000000 		.4byte	.LBE40-.LBB40
 6114 123b 8E120000 		.4byte	0x128e
 6115 123f 21       		.uleb128 0x21
 6116 1240 6C00     		.ascii	"l\000"
 6117 1242 01       		.byte	0x1
 6118 1243 1A01     		.2byte	0x11a
 6119 1245 7B010000 		.4byte	0x17b
 6120 1249 6D090000 		.4byte	.LLST32
 6121 124d 18       		.uleb128 0x18
 6122 124e 34060000 		.4byte	.LVL195
 6123 1252 522B0000 		.4byte	0x2b52
 6124 1256 19       		.uleb128 0x19
 6125 1257 4E060000 		.4byte	.LVL198
 6126 125b 02       		.uleb128 0x2
 6127 125c 74       		.byte	0x74
 6128 125d 00       		.sleb128 0
 6129 125e 1A       		.uleb128 0x1a
 6130 125f 01       		.uleb128 0x1
 6131 1260 50       		.byte	0x50
 6132 1261 01       		.uleb128 0x1
 6133 1262 30       		.byte	0x30
 6134 1263 1A       		.uleb128 0x1a
 6135 1264 01       		.uleb128 0x1
 6136 1265 51       		.byte	0x51
 6137 1266 05       		.uleb128 0x5
 6138 1267 03       		.byte	0x3
 6139 1268 00000000 		.4byte	.LC1
 6140 126c 1A       		.uleb128 0x1a
 6141 126d 01       		.uleb128 0x1
 6142 126e 52       		.byte	0x52
 6143 126f 05       		.uleb128 0x5
 6144 1270 03       		.byte	0x3
 6145 1271 6C000000 		.4byte	.LANCHOR0+16
 6146 1275 1A       		.uleb128 0x1a
 6147 1276 01       		.uleb128 0x1
 6148 1277 53       		.byte	0x53
 6149 1278 03       		.uleb128 0x3
 6150 1279 0A       		.byte	0xa
 6151 127a 1A01     		.2byte	0x11a
 6152 127c 1A       		.uleb128 0x1a
 6153 127d 02       		.uleb128 0x2
 6154 127e 7D       		.byte	0x7d
 6155 127f 00       		.sleb128 0
 6156 1280 01       		.uleb128 0x1
 6157 1281 31       		.byte	0x31
 6158 1282 1A       		.uleb128 0x1a
 6159 1283 02       		.uleb128 0x2
 6160 1284 7D       		.byte	0x7d
ARM GAS  C:\Users\Phuong\AppData\Local\Temp\ccU7OqD6.s 			page 125


 6161 1285 04       		.sleb128 4
 6162 1286 05       		.uleb128 0x5
 6163 1287 03       		.byte	0x3
 6164 1288 98000000 		.4byte	.LC20
 6165 128c 00       		.byte	0
 6166 128d 00       		.byte	0
 6167 128e 1B       		.uleb128 0x1b
 6168 128f 1C060000 		.4byte	.LVL193
 6169 1293 F52B0000 		.4byte	0x2bf5
 6170 1297 B0120000 		.4byte	0x12b0
 6171 129b 1A       		.uleb128 0x1a
 6172 129c 01       		.uleb128 0x1
 6173 129d 50       		.byte	0x50
 6174 129e 02       		.uleb128 0x2
 6175 129f 91       		.byte	0x91
 6176 12a0 48       		.sleb128 -56
 6177 12a1 1A       		.uleb128 0x1a
 6178 12a2 01       		.uleb128 0x1
 6179 12a3 51       		.byte	0x51
 6180 12a4 01       		.uleb128 0x1
 6181 12a5 49       		.byte	0x49
 6182 12a6 1A       		.uleb128 0x1a
 6183 12a7 01       		.uleb128 0x1
 6184 12a8 52       		.byte	0x52
 6185 12a9 05       		.uleb128 0x5
 6186 12aa 03       		.byte	0x3
 6187 12ab 30020000 		.4byte	.LC62
 6188 12af 00       		.byte	0
 6189 12b0 1B       		.uleb128 0x1b
 6190 12b1 28060000 		.4byte	.LVL194
 6191 12b5 C9020000 		.4byte	0x2c9
 6192 12b9 CA120000 		.4byte	0x12ca
 6193 12bd 1A       		.uleb128 0x1a
 6194 12be 01       		.uleb128 0x1
 6195 12bf 50       		.byte	0x50
 6196 12c0 02       		.uleb128 0x2
 6197 12c1 91       		.byte	0x91
 6198 12c2 64       		.sleb128 -28
 6199 12c3 1A       		.uleb128 0x1a
 6200 12c4 01       		.uleb128 0x1
 6201 12c5 51       		.byte	0x51
 6202 12c6 02       		.uleb128 0x2
 6203 12c7 91       		.byte	0x91
 6204 12c8 48       		.sleb128 -56
 6205 12c9 00       		.byte	0
 6206 12ca 18       		.uleb128 0x18
 6207 12cb 54060000 		.4byte	.LVL199
 6208 12cf 872B0000 		.4byte	0x2b87
 6209 12d3 00       		.byte	0
 6210 12d4 1B       		.uleb128 0x1b
 6211 12d5 DA050000 		.4byte	.LVL186
 6212 12d9 0B2C0000 		.4byte	0x2c0b
 6213 12dd EE120000 		.4byte	0x12ee
 6214 12e1 1A       		.uleb128 0x1a
 6215 12e2 01       		.uleb128 0x1
 6216 12e3 50       		.byte	0x50
 6217 12e4 02       		.uleb128 0x2
ARM GAS  C:\Users\Phuong\AppData\Local\Temp\ccU7OqD6.s 			page 126


 6218 12e5 74       		.byte	0x74
 6219 12e6 00       		.sleb128 0
 6220 12e7 1A       		.uleb128 0x1a
 6221 12e8 01       		.uleb128 0x1
 6222 12e9 51       		.byte	0x51
 6223 12ea 02       		.uleb128 0x2
 6224 12eb 91       		.byte	0x91
 6225 12ec 40       		.sleb128 -64
 6226 12ed 00       		.byte	0
 6227 12ee 18       		.uleb128 0x18
 6228 12ef 02060000 		.4byte	.LVL191
 6229 12f3 872B0000 		.4byte	0x2b87
 6230 12f7 00       		.byte	0
 6231 12f8 16       		.uleb128 0x16
 6232 12f9 5C060000 		.4byte	.LBB41
 6233 12fd 9C000000 		.4byte	.LBE41-.LBB41
 6234 1301 5C140000 		.4byte	0x145c
 6235 1305 20       		.uleb128 0x20
 6236 1306 97080000 		.4byte	.LASF77
 6237 130a 01       		.byte	0x1
 6238 130b 2301     		.2byte	0x123
 6239 130d 2C010000 		.4byte	0x12c
 6240 1311 02       		.uleb128 0x2
 6241 1312 91       		.byte	0x91
 6242 1313 40       		.sleb128 -64
 6243 1314 16       		.uleb128 0x16
 6244 1315 68060000 		.4byte	.LBB42
 6245 1319 1E000000 		.4byte	.LBE42-.LBB42
 6246 131d 70130000 		.4byte	0x1370
 6247 1321 21       		.uleb128 0x21
 6248 1322 6C00     		.ascii	"l\000"
 6249 1324 01       		.byte	0x1
 6250 1325 2601     		.2byte	0x126
 6251 1327 7B010000 		.4byte	0x17b
 6252 132b 8B090000 		.4byte	.LLST33
 6253 132f 18       		.uleb128 0x18
 6254 1330 6C060000 		.4byte	.LVL202
 6255 1334 522B0000 		.4byte	0x2b52
 6256 1338 19       		.uleb128 0x19
 6257 1339 86060000 		.4byte	.LVL205
 6258 133d 02       		.uleb128 0x2
 6259 133e 74       		.byte	0x74
 6260 133f 00       		.sleb128 0
 6261 1340 1A       		.uleb128 0x1a
 6262 1341 01       		.uleb128 0x1
 6263 1342 50       		.byte	0x50
 6264 1343 01       		.uleb128 0x1
 6265 1344 30       		.byte	0x30
 6266 1345 1A       		.uleb128 0x1a
 6267 1346 01       		.uleb128 0x1
 6268 1347 51       		.byte	0x51
 6269 1348 05       		.uleb128 0x5
 6270 1349 03       		.byte	0x3
 6271 134a 00000000 		.4byte	.LC1
 6272 134e 1A       		.uleb128 0x1a
 6273 134f 01       		.uleb128 0x1
 6274 1350 52       		.byte	0x52
ARM GAS  C:\Users\Phuong\AppData\Local\Temp\ccU7OqD6.s 			page 127


 6275 1351 05       		.uleb128 0x5
 6276 1352 03       		.byte	0x3
 6277 1353 6C000000 		.4byte	.LANCHOR0+16
 6278 1357 1A       		.uleb128 0x1a
 6279 1358 01       		.uleb128 0x1
 6280 1359 53       		.byte	0x53
 6281 135a 03       		.uleb128 0x3
 6282 135b 0A       		.byte	0xa
 6283 135c 2601     		.2byte	0x126
 6284 135e 1A       		.uleb128 0x1a
 6285 135f 02       		.uleb128 0x2
 6286 1360 7D       		.byte	0x7d
 6287 1361 00       		.sleb128 0
 6288 1362 01       		.uleb128 0x1
 6289 1363 31       		.byte	0x31
 6290 1364 1A       		.uleb128 0x1a
 6291 1365 02       		.uleb128 0x2
 6292 1366 7D       		.byte	0x7d
 6293 1367 04       		.sleb128 4
 6294 1368 05       		.uleb128 0x5
 6295 1369 03       		.byte	0x3
 6296 136a 38020000 		.4byte	.LC64
 6297 136e 00       		.byte	0
 6298 136f 00       		.byte	0
 6299 1370 16       		.uleb128 0x16
 6300 1371 94060000 		.4byte	.LBB43
 6301 1375 64000000 		.4byte	.LBE43-.LBB43
 6302 1379 38140000 		.4byte	0x1438
 6303 137d 20       		.uleb128 0x20
 6304 137e 60060000 		.4byte	.LASF74
 6305 1382 01       		.byte	0x1
 6306 1383 2C01     		.2byte	0x12c
 6307 1385 E9000000 		.4byte	0xe9
 6308 1389 02       		.uleb128 0x2
 6309 138a 91       		.byte	0x91
 6310 138b 48       		.sleb128 -56
 6311 138c 16       		.uleb128 0x16
 6312 138d CC060000 		.4byte	.LBB44
 6313 1391 1E000000 		.4byte	.LBE44-.LBB44
 6314 1395 E8130000 		.4byte	0x13e8
 6315 1399 21       		.uleb128 0x21
 6316 139a 6C00     		.ascii	"l\000"
 6317 139c 01       		.byte	0x1
 6318 139d 3001     		.2byte	0x130
 6319 139f 7B010000 		.4byte	0x17b
 6320 13a3 A9090000 		.4byte	.LLST34
 6321 13a7 18       		.uleb128 0x18
 6322 13a8 D0060000 		.4byte	.LVL211
 6323 13ac 522B0000 		.4byte	0x2b52
 6324 13b0 19       		.uleb128 0x19
 6325 13b1 EA060000 		.4byte	.LVL214
 6326 13b5 02       		.uleb128 0x2
 6327 13b6 74       		.byte	0x74
 6328 13b7 00       		.sleb128 0
 6329 13b8 1A       		.uleb128 0x1a
 6330 13b9 01       		.uleb128 0x1
 6331 13ba 50       		.byte	0x50
ARM GAS  C:\Users\Phuong\AppData\Local\Temp\ccU7OqD6.s 			page 128


 6332 13bb 01       		.uleb128 0x1
 6333 13bc 30       		.byte	0x30
 6334 13bd 1A       		.uleb128 0x1a
 6335 13be 01       		.uleb128 0x1
 6336 13bf 51       		.byte	0x51
 6337 13c0 05       		.uleb128 0x5
 6338 13c1 03       		.byte	0x3
 6339 13c2 00000000 		.4byte	.LC1
 6340 13c6 1A       		.uleb128 0x1a
 6341 13c7 01       		.uleb128 0x1
 6342 13c8 52       		.byte	0x52
 6343 13c9 05       		.uleb128 0x5
 6344 13ca 03       		.byte	0x3
 6345 13cb 6C000000 		.4byte	.LANCHOR0+16
 6346 13cf 1A       		.uleb128 0x1a
 6347 13d0 01       		.uleb128 0x1
 6348 13d1 53       		.byte	0x53
 6349 13d2 03       		.uleb128 0x3
 6350 13d3 0A       		.byte	0xa
 6351 13d4 3001     		.2byte	0x130
 6352 13d6 1A       		.uleb128 0x1a
 6353 13d7 02       		.uleb128 0x2
 6354 13d8 7D       		.byte	0x7d
 6355 13d9 00       		.sleb128 0
 6356 13da 01       		.uleb128 0x1
 6357 13db 31       		.byte	0x31
 6358 13dc 1A       		.uleb128 0x1a
 6359 13dd 02       		.uleb128 0x2
 6360 13de 7D       		.byte	0x7d
 6361 13df 04       		.sleb128 4
 6362 13e0 05       		.uleb128 0x5
 6363 13e1 03       		.byte	0x3
 6364 13e2 98000000 		.4byte	.LC20
 6365 13e6 00       		.byte	0
 6366 13e7 00       		.byte	0
 6367 13e8 1B       		.uleb128 0x1b
 6368 13e9 B8060000 		.4byte	.LVL209
 6369 13ed F52B0000 		.4byte	0x2bf5
 6370 13f1 14140000 		.4byte	0x1414
 6371 13f5 1A       		.uleb128 0x1a
 6372 13f6 01       		.uleb128 0x1
 6373 13f7 50       		.byte	0x50
 6374 13f8 02       		.uleb128 0x2
 6375 13f9 91       		.byte	0x91
 6376 13fa 48       		.sleb128 -56
 6377 13fb 1A       		.uleb128 0x1a
 6378 13fc 01       		.uleb128 0x1
 6379 13fd 51       		.byte	0x51
 6380 13fe 01       		.uleb128 0x1
 6381 13ff 49       		.byte	0x49
 6382 1400 1A       		.uleb128 0x1a
 6383 1401 01       		.uleb128 0x1
 6384 1402 52       		.byte	0x52
 6385 1403 05       		.uleb128 0x5
 6386 1404 03       		.byte	0x3
 6387 1405 54020000 		.4byte	.LC66
 6388 1409 1A       		.uleb128 0x1a
ARM GAS  C:\Users\Phuong\AppData\Local\Temp\ccU7OqD6.s 			page 129


 6389 140a 02       		.uleb128 0x2
 6390 140b 7D       		.byte	0x7d
 6391 140c 04       		.sleb128 4
 6392 140d 05       		.uleb128 0x5
 6393 140e 74       		.byte	0x74
 6394 140f 00       		.sleb128 0
 6395 1410 08       		.byte	0x8
 6396 1411 FF       		.byte	0xff
 6397 1412 1A       		.byte	0x1a
 6398 1413 00       		.byte	0
 6399 1414 1B       		.uleb128 0x1b
 6400 1415 C4060000 		.4byte	.LVL210
 6401 1419 C9020000 		.4byte	0x2c9
 6402 141d 2E140000 		.4byte	0x142e
 6403 1421 1A       		.uleb128 0x1a
 6404 1422 01       		.uleb128 0x1
 6405 1423 50       		.byte	0x50
 6406 1424 02       		.uleb128 0x2
 6407 1425 91       		.byte	0x91
 6408 1426 64       		.sleb128 -28
 6409 1427 1A       		.uleb128 0x1a
 6410 1428 01       		.uleb128 0x1
 6411 1429 51       		.byte	0x51
 6412 142a 02       		.uleb128 0x2
 6413 142b 91       		.byte	0x91
 6414 142c 48       		.sleb128 -56
 6415 142d 00       		.byte	0
 6416 142e 18       		.uleb128 0x18
 6417 142f F0060000 		.4byte	.LVL215
 6418 1433 872B0000 		.4byte	0x2b87
 6419 1437 00       		.byte	0
 6420 1438 1B       		.uleb128 0x1b
 6421 1439 64060000 		.4byte	.LVL201
 6422 143d 162C0000 		.4byte	0x2c16
 6423 1441 52140000 		.4byte	0x1452
 6424 1445 1A       		.uleb128 0x1a
 6425 1446 01       		.uleb128 0x1
 6426 1447 50       		.byte	0x50
 6427 1448 02       		.uleb128 0x2
 6428 1449 74       		.byte	0x74
 6429 144a 00       		.sleb128 0
 6430 144b 1A       		.uleb128 0x1a
 6431 144c 01       		.uleb128 0x1
 6432 144d 51       		.byte	0x51
 6433 144e 02       		.uleb128 0x2
 6434 144f 91       		.byte	0x91
 6435 1450 40       		.sleb128 -64
 6436 1451 00       		.byte	0
 6437 1452 18       		.uleb128 0x18
 6438 1453 8C060000 		.4byte	.LVL206
 6439 1457 872B0000 		.4byte	0x2b87
 6440 145b 00       		.byte	0
 6441 145c 16       		.uleb128 0x16
 6442 145d F8060000 		.4byte	.LBB45
 6443 1461 C4000000 		.4byte	.LBE45-.LBB45
 6444 1465 A3150000 		.4byte	0x15a3
 6445 1469 20       		.uleb128 0x20
ARM GAS  C:\Users\Phuong\AppData\Local\Temp\ccU7OqD6.s 			page 130


 6446 146a 60060000 		.4byte	.LASF74
 6447 146e 01       		.byte	0x1
 6448 146f 3901     		.2byte	0x139
 6449 1471 042B0000 		.4byte	0x2b04
 6450 1475 02       		.uleb128 0x2
 6451 1476 91       		.byte	0x91
 6452 1477 48       		.sleb128 -56
 6453 1478 20       		.uleb128 0x20
 6454 1479 BB020000 		.4byte	.LASF73
 6455 147d 01       		.byte	0x1
 6456 147e 3A01     		.2byte	0x13a
 6457 1480 37010000 		.4byte	0x137
 6458 1484 02       		.uleb128 0x2
 6459 1485 91       		.byte	0x91
 6460 1486 40       		.sleb128 -64
 6461 1487 16       		.uleb128 0x16
 6462 1488 04070000 		.4byte	.LBB46
 6463 148c 1E000000 		.4byte	.LBE46-.LBB46
 6464 1490 E3140000 		.4byte	0x14e3
 6465 1494 21       		.uleb128 0x21
 6466 1495 6C00     		.ascii	"l\000"
 6467 1497 01       		.byte	0x1
 6468 1498 3D01     		.2byte	0x13d
 6469 149a 7B010000 		.4byte	0x17b
 6470 149e C7090000 		.4byte	.LLST35
 6471 14a2 18       		.uleb128 0x18
 6472 14a3 08070000 		.4byte	.LVL218
 6473 14a7 522B0000 		.4byte	0x2b52
 6474 14ab 19       		.uleb128 0x19
 6475 14ac 22070000 		.4byte	.LVL221
 6476 14b0 02       		.uleb128 0x2
 6477 14b1 74       		.byte	0x74
 6478 14b2 00       		.sleb128 0
 6479 14b3 1A       		.uleb128 0x1a
 6480 14b4 01       		.uleb128 0x1
 6481 14b5 50       		.byte	0x50
 6482 14b6 01       		.uleb128 0x1
 6483 14b7 30       		.byte	0x30
 6484 14b8 1A       		.uleb128 0x1a
 6485 14b9 01       		.uleb128 0x1
 6486 14ba 51       		.byte	0x51
 6487 14bb 05       		.uleb128 0x5
 6488 14bc 03       		.byte	0x3
 6489 14bd 00000000 		.4byte	.LC1
 6490 14c1 1A       		.uleb128 0x1a
 6491 14c2 01       		.uleb128 0x1
 6492 14c3 52       		.byte	0x52
 6493 14c4 05       		.uleb128 0x5
 6494 14c5 03       		.byte	0x3
 6495 14c6 6C000000 		.4byte	.LANCHOR0+16
 6496 14ca 1A       		.uleb128 0x1a
 6497 14cb 01       		.uleb128 0x1
 6498 14cc 53       		.byte	0x53
 6499 14cd 03       		.uleb128 0x3
 6500 14ce 0A       		.byte	0xa
 6501 14cf 3D01     		.2byte	0x13d
 6502 14d1 1A       		.uleb128 0x1a
ARM GAS  C:\Users\Phuong\AppData\Local\Temp\ccU7OqD6.s 			page 131


 6503 14d2 02       		.uleb128 0x2
 6504 14d3 7D       		.byte	0x7d
 6505 14d4 00       		.sleb128 0
 6506 14d5 01       		.uleb128 0x1
 6507 14d6 31       		.byte	0x31
 6508 14d7 1A       		.uleb128 0x1a
 6509 14d8 02       		.uleb128 0x2
 6510 14d9 7D       		.byte	0x7d
 6511 14da 04       		.sleb128 4
 6512 14db 05       		.uleb128 0x5
 6513 14dc 03       		.byte	0x3
 6514 14dd 68020000 		.4byte	.LC68
 6515 14e1 00       		.byte	0
 6516 14e2 00       		.byte	0
 6517 14e3 16       		.uleb128 0x16
 6518 14e4 90070000 		.4byte	.LBB47
 6519 14e8 1E000000 		.4byte	.LBE47-.LBB47
 6520 14ec 3F150000 		.4byte	0x153f
 6521 14f0 21       		.uleb128 0x21
 6522 14f1 6C00     		.ascii	"l\000"
 6523 14f3 01       		.byte	0x1
 6524 14f4 4401     		.2byte	0x144
 6525 14f6 7B010000 		.4byte	0x17b
 6526 14fa E5090000 		.4byte	.LLST36
 6527 14fe 18       		.uleb128 0x18
 6528 14ff 94070000 		.4byte	.LVL226
 6529 1503 522B0000 		.4byte	0x2b52
 6530 1507 19       		.uleb128 0x19
 6531 1508 AE070000 		.4byte	.LVL229
 6532 150c 02       		.uleb128 0x2
 6533 150d 74       		.byte	0x74
 6534 150e 00       		.sleb128 0
 6535 150f 1A       		.uleb128 0x1a
 6536 1510 01       		.uleb128 0x1
 6537 1511 50       		.byte	0x50
 6538 1512 01       		.uleb128 0x1
 6539 1513 30       		.byte	0x30
 6540 1514 1A       		.uleb128 0x1a
 6541 1515 01       		.uleb128 0x1
 6542 1516 51       		.byte	0x51
 6543 1517 05       		.uleb128 0x5
 6544 1518 03       		.byte	0x3
 6545 1519 00000000 		.4byte	.LC1
 6546 151d 1A       		.uleb128 0x1a
 6547 151e 01       		.uleb128 0x1
 6548 151f 52       		.byte	0x52
 6549 1520 05       		.uleb128 0x5
 6550 1521 03       		.byte	0x3
 6551 1522 6C000000 		.4byte	.LANCHOR0+16
 6552 1526 1A       		.uleb128 0x1a
 6553 1527 01       		.uleb128 0x1
 6554 1528 53       		.byte	0x53
 6555 1529 03       		.uleb128 0x3
 6556 152a 0A       		.byte	0xa
 6557 152b 4401     		.2byte	0x144
 6558 152d 1A       		.uleb128 0x1a
 6559 152e 02       		.uleb128 0x2
ARM GAS  C:\Users\Phuong\AppData\Local\Temp\ccU7OqD6.s 			page 132


 6560 152f 7D       		.byte	0x7d
 6561 1530 00       		.sleb128 0
 6562 1531 01       		.uleb128 0x1
 6563 1532 31       		.byte	0x31
 6564 1533 1A       		.uleb128 0x1a
 6565 1534 02       		.uleb128 0x2
 6566 1535 7D       		.byte	0x7d
 6567 1536 04       		.sleb128 4
 6568 1537 05       		.uleb128 0x5
 6569 1538 03       		.byte	0x3
 6570 1539 98000000 		.4byte	.LC20
 6571 153d 00       		.byte	0
 6572 153e 00       		.byte	0
 6573 153f 1B       		.uleb128 0x1b
 6574 1540 00070000 		.4byte	.LVL217
 6575 1544 212C0000 		.4byte	0x2c21
 6576 1548 59150000 		.4byte	0x1559
 6577 154c 1A       		.uleb128 0x1a
 6578 154d 01       		.uleb128 0x1
 6579 154e 50       		.byte	0x50
 6580 154f 02       		.uleb128 0x2
 6581 1550 74       		.byte	0x74
 6582 1551 00       		.sleb128 0
 6583 1552 1A       		.uleb128 0x1a
 6584 1553 01       		.uleb128 0x1
 6585 1554 51       		.byte	0x51
 6586 1555 02       		.uleb128 0x2
 6587 1556 91       		.byte	0x91
 6588 1557 40       		.sleb128 -64
 6589 1558 00       		.byte	0
 6590 1559 18       		.uleb128 0x18
 6591 155a 28070000 		.4byte	.LVL222
 6592 155e 872B0000 		.4byte	0x2b87
 6593 1562 1B       		.uleb128 0x1b
 6594 1563 7C070000 		.4byte	.LVL224
 6595 1567 9D2B0000 		.4byte	0x2b9d
 6596 156b 7F150000 		.4byte	0x157f
 6597 156f 1A       		.uleb128 0x1a
 6598 1570 01       		.uleb128 0x1
 6599 1571 50       		.byte	0x50
 6600 1572 02       		.uleb128 0x2
 6601 1573 91       		.byte	0x91
 6602 1574 48       		.sleb128 -56
 6603 1575 1A       		.uleb128 0x1a
 6604 1576 01       		.uleb128 0x1
 6605 1577 51       		.byte	0x51
 6606 1578 05       		.uleb128 0x5
 6607 1579 03       		.byte	0x3
 6608 157a E4010000 		.4byte	.LC54
 6609 157e 00       		.byte	0
 6610 157f 1B       		.uleb128 0x1b
 6611 1580 88070000 		.4byte	.LVL225
 6612 1584 C9020000 		.4byte	0x2c9
 6613 1588 99150000 		.4byte	0x1599
 6614 158c 1A       		.uleb128 0x1a
 6615 158d 01       		.uleb128 0x1
 6616 158e 50       		.byte	0x50
ARM GAS  C:\Users\Phuong\AppData\Local\Temp\ccU7OqD6.s 			page 133


 6617 158f 02       		.uleb128 0x2
 6618 1590 91       		.byte	0x91
 6619 1591 64       		.sleb128 -28
 6620 1592 1A       		.uleb128 0x1a
 6621 1593 01       		.uleb128 0x1
 6622 1594 51       		.byte	0x51
 6623 1595 02       		.uleb128 0x2
 6624 1596 91       		.byte	0x91
 6625 1597 48       		.sleb128 -56
 6626 1598 00       		.byte	0
 6627 1599 18       		.uleb128 0x18
 6628 159a B4070000 		.4byte	.LVL230
 6629 159e 872B0000 		.4byte	0x2b87
 6630 15a2 00       		.byte	0
 6631 15a3 16       		.uleb128 0x16
 6632 15a4 BC070000 		.4byte	.LBB48
 6633 15a8 AC000000 		.4byte	.LBE48-.LBB48
 6634 15ac 65170000 		.4byte	0x1765
 6635 15b0 20       		.uleb128 0x20
 6636 15b1 E5030000 		.4byte	.LASF78
 6637 15b5 01       		.byte	0x1
 6638 15b6 4C01     		.2byte	0x14c
 6639 15b8 8E020000 		.4byte	0x28e
 6640 15bc 02       		.uleb128 0x2
 6641 15bd 91       		.byte	0x91
 6642 15be 48       		.sleb128 -56
 6643 15bf 16       		.uleb128 0x16
 6644 15c0 C8070000 		.4byte	.LBB49
 6645 15c4 1E000000 		.4byte	.LBE49-.LBB49
 6646 15c8 1B160000 		.4byte	0x161b
 6647 15cc 21       		.uleb128 0x21
 6648 15cd 6C00     		.ascii	"l\000"
 6649 15cf 01       		.byte	0x1
 6650 15d0 4F01     		.2byte	0x14f
 6651 15d2 7B010000 		.4byte	0x17b
 6652 15d6 030A0000 		.4byte	.LLST37
 6653 15da 18       		.uleb128 0x18
 6654 15db CC070000 		.4byte	.LVL233
 6655 15df 522B0000 		.4byte	0x2b52
 6656 15e3 19       		.uleb128 0x19
 6657 15e4 E6070000 		.4byte	.LVL236
 6658 15e8 02       		.uleb128 0x2
 6659 15e9 74       		.byte	0x74
 6660 15ea 00       		.sleb128 0
 6661 15eb 1A       		.uleb128 0x1a
 6662 15ec 01       		.uleb128 0x1
 6663 15ed 50       		.byte	0x50
 6664 15ee 01       		.uleb128 0x1
 6665 15ef 30       		.byte	0x30
 6666 15f0 1A       		.uleb128 0x1a
 6667 15f1 01       		.uleb128 0x1
 6668 15f2 51       		.byte	0x51
 6669 15f3 05       		.uleb128 0x5
 6670 15f4 03       		.byte	0x3
 6671 15f5 00000000 		.4byte	.LC1
 6672 15f9 1A       		.uleb128 0x1a
 6673 15fa 01       		.uleb128 0x1
ARM GAS  C:\Users\Phuong\AppData\Local\Temp\ccU7OqD6.s 			page 134


 6674 15fb 52       		.byte	0x52
 6675 15fc 05       		.uleb128 0x5
 6676 15fd 03       		.byte	0x3
 6677 15fe 6C000000 		.4byte	.LANCHOR0+16
 6678 1602 1A       		.uleb128 0x1a
 6679 1603 01       		.uleb128 0x1
 6680 1604 53       		.byte	0x53
 6681 1605 03       		.uleb128 0x3
 6682 1606 0A       		.byte	0xa
 6683 1607 4F01     		.2byte	0x14f
 6684 1609 1A       		.uleb128 0x1a
 6685 160a 02       		.uleb128 0x2
 6686 160b 7D       		.byte	0x7d
 6687 160c 00       		.sleb128 0
 6688 160d 01       		.uleb128 0x1
 6689 160e 31       		.byte	0x31
 6690 160f 1A       		.uleb128 0x1a
 6691 1610 02       		.uleb128 0x2
 6692 1611 7D       		.byte	0x7d
 6693 1612 04       		.sleb128 4
 6694 1613 05       		.uleb128 0x5
 6695 1614 03       		.byte	0x3
 6696 1615 88020000 		.4byte	.LC70
 6697 1619 00       		.byte	0
 6698 161a 00       		.byte	0
 6699 161b 16       		.uleb128 0x16
 6700 161c F4070000 		.4byte	.LBB50
 6701 1620 74000000 		.4byte	.LBE50-.LBB50
 6702 1624 41170000 		.4byte	0x1741
 6703 1628 22       		.uleb128 0x22
 6704 1629 D1050000 		.4byte	.LASF79
 6705 162d 01       		.byte	0x1
 6706 162e 5501     		.2byte	0x155
 6707 1630 D1000000 		.4byte	0xd1
 6708 1634 210A0000 		.4byte	.LLST38
 6709 1638 16       		.uleb128 0x16
 6710 1639 FE070000 		.4byte	.LBB51
 6711 163d 1E000000 		.4byte	.LBE51-.LBB51
 6712 1641 94160000 		.4byte	0x1694
 6713 1645 21       		.uleb128 0x21
 6714 1646 6C00     		.ascii	"l\000"
 6715 1648 01       		.byte	0x1
 6716 1649 5801     		.2byte	0x158
 6717 164b 7B010000 		.4byte	0x17b
 6718 164f 550A0000 		.4byte	.LLST39
 6719 1653 18       		.uleb128 0x18
 6720 1654 02080000 		.4byte	.LVL241
 6721 1658 522B0000 		.4byte	0x2b52
 6722 165c 19       		.uleb128 0x19
 6723 165d 1C080000 		.4byte	.LVL244
 6724 1661 02       		.uleb128 0x2
 6725 1662 74       		.byte	0x74
 6726 1663 00       		.sleb128 0
 6727 1664 1A       		.uleb128 0x1a
 6728 1665 01       		.uleb128 0x1
 6729 1666 50       		.byte	0x50
 6730 1667 01       		.uleb128 0x1
ARM GAS  C:\Users\Phuong\AppData\Local\Temp\ccU7OqD6.s 			page 135


 6731 1668 30       		.byte	0x30
 6732 1669 1A       		.uleb128 0x1a
 6733 166a 01       		.uleb128 0x1
 6734 166b 51       		.byte	0x51
 6735 166c 05       		.uleb128 0x5
 6736 166d 03       		.byte	0x3
 6737 166e 00000000 		.4byte	.LC1
 6738 1672 1A       		.uleb128 0x1a
 6739 1673 01       		.uleb128 0x1
 6740 1674 52       		.byte	0x52
 6741 1675 05       		.uleb128 0x5
 6742 1676 03       		.byte	0x3
 6743 1677 6C000000 		.4byte	.LANCHOR0+16
 6744 167b 1A       		.uleb128 0x1a
 6745 167c 01       		.uleb128 0x1
 6746 167d 53       		.byte	0x53
 6747 167e 03       		.uleb128 0x3
 6748 167f 0A       		.byte	0xa
 6749 1680 5801     		.2byte	0x158
 6750 1682 1A       		.uleb128 0x1a
 6751 1683 02       		.uleb128 0x2
 6752 1684 7D       		.byte	0x7d
 6753 1685 00       		.sleb128 0
 6754 1686 01       		.uleb128 0x1
 6755 1687 31       		.byte	0x31
 6756 1688 1A       		.uleb128 0x1a
 6757 1689 02       		.uleb128 0x2
 6758 168a 7D       		.byte	0x7d
 6759 168b 04       		.sleb128 4
 6760 168c 05       		.uleb128 0x5
 6761 168d 03       		.byte	0x3
 6762 168e A4020000 		.4byte	.LC72
 6763 1692 00       		.byte	0
 6764 1693 00       		.byte	0
 6765 1694 16       		.uleb128 0x16
 6766 1695 36080000 		.4byte	.LBB52
 6767 1699 1E000000 		.4byte	.LBE52-.LBB52
 6768 169d F0160000 		.4byte	0x16f0
 6769 16a1 21       		.uleb128 0x21
 6770 16a2 6C00     		.ascii	"l\000"
 6771 16a4 01       		.byte	0x1
 6772 16a5 6001     		.2byte	0x160
 6773 16a7 7B010000 		.4byte	0x17b
 6774 16ab 730A0000 		.4byte	.LLST40
 6775 16af 18       		.uleb128 0x18
 6776 16b0 3A080000 		.4byte	.LVL249
 6777 16b4 522B0000 		.4byte	0x2b52
 6778 16b8 19       		.uleb128 0x19
 6779 16b9 54080000 		.4byte	.LVL252
 6780 16bd 02       		.uleb128 0x2
 6781 16be 75       		.byte	0x75
 6782 16bf 00       		.sleb128 0
 6783 16c0 1A       		.uleb128 0x1a
 6784 16c1 01       		.uleb128 0x1
 6785 16c2 50       		.byte	0x50
 6786 16c3 01       		.uleb128 0x1
 6787 16c4 30       		.byte	0x30
ARM GAS  C:\Users\Phuong\AppData\Local\Temp\ccU7OqD6.s 			page 136


 6788 16c5 1A       		.uleb128 0x1a
 6789 16c6 01       		.uleb128 0x1
 6790 16c7 51       		.byte	0x51
 6791 16c8 05       		.uleb128 0x5
 6792 16c9 03       		.byte	0x3
 6793 16ca 00000000 		.4byte	.LC1
 6794 16ce 1A       		.uleb128 0x1a
 6795 16cf 01       		.uleb128 0x1
 6796 16d0 52       		.byte	0x52
 6797 16d1 05       		.uleb128 0x5
 6798 16d2 03       		.byte	0x3
 6799 16d3 6C000000 		.4byte	.LANCHOR0+16
 6800 16d7 1A       		.uleb128 0x1a
 6801 16d8 01       		.uleb128 0x1
 6802 16d9 53       		.byte	0x53
 6803 16da 03       		.uleb128 0x3
 6804 16db 0A       		.byte	0xa
 6805 16dc 6001     		.2byte	0x160
 6806 16de 1A       		.uleb128 0x1a
 6807 16df 02       		.uleb128 0x2
 6808 16e0 7D       		.byte	0x7d
 6809 16e1 00       		.sleb128 0
 6810 16e2 01       		.uleb128 0x1
 6811 16e3 31       		.byte	0x31
 6812 16e4 1A       		.uleb128 0x1a
 6813 16e5 02       		.uleb128 0x2
 6814 16e6 7D       		.byte	0x7d
 6815 16e7 04       		.sleb128 4
 6816 16e8 05       		.uleb128 0x5
 6817 16e9 03       		.byte	0x3
 6818 16ea 98000000 		.4byte	.LC20
 6819 16ee 00       		.byte	0
 6820 16ef 00       		.byte	0
 6821 16f0 1B       		.uleb128 0x1b
 6822 16f1 FA070000 		.4byte	.LVL239
 6823 16f5 2C2C0000 		.4byte	0x2c2c
 6824 16f9 04170000 		.4byte	0x1704
 6825 16fd 1A       		.uleb128 0x1a
 6826 16fe 01       		.uleb128 0x1
 6827 16ff 50       		.byte	0x50
 6828 1700 02       		.uleb128 0x2
 6829 1701 91       		.byte	0x91
 6830 1702 48       		.sleb128 -56
 6831 1703 00       		.byte	0
 6832 1704 18       		.uleb128 0x18
 6833 1705 22080000 		.4byte	.LVL245
 6834 1709 872B0000 		.4byte	0x2b87
 6835 170d 1B       		.uleb128 0x1b
 6836 170e 32080000 		.4byte	.LVL248
 6837 1712 C9020000 		.4byte	0x2c9
 6838 1716 27170000 		.4byte	0x1727
 6839 171a 1A       		.uleb128 0x1a
 6840 171b 01       		.uleb128 0x1
 6841 171c 50       		.byte	0x50
 6842 171d 02       		.uleb128 0x2
 6843 171e 91       		.byte	0x91
 6844 171f 64       		.sleb128 -28
ARM GAS  C:\Users\Phuong\AppData\Local\Temp\ccU7OqD6.s 			page 137


 6845 1720 1A       		.uleb128 0x1a
 6846 1721 01       		.uleb128 0x1
 6847 1722 51       		.byte	0x51
 6848 1723 02       		.uleb128 0x2
 6849 1724 74       		.byte	0x74
 6850 1725 00       		.sleb128 0
 6851 1726 00       		.byte	0
 6852 1727 18       		.uleb128 0x18
 6853 1728 5A080000 		.4byte	.LVL253
 6854 172c 872B0000 		.4byte	0x2b87
 6855 1730 1C       		.uleb128 0x1c
 6856 1731 64080000 		.4byte	.LVL255
 6857 1735 872B0000 		.4byte	0x2b87
 6858 1739 1A       		.uleb128 0x1a
 6859 173a 01       		.uleb128 0x1
 6860 173b 50       		.byte	0x50
 6861 173c 02       		.uleb128 0x2
 6862 173d 74       		.byte	0x74
 6863 173e 00       		.sleb128 0
 6864 173f 00       		.byte	0
 6865 1740 00       		.byte	0
 6866 1741 1B       		.uleb128 0x1b
 6867 1742 C4070000 		.4byte	.LVL232
 6868 1746 372C0000 		.4byte	0x2c37
 6869 174a 5B170000 		.4byte	0x175b
 6870 174e 1A       		.uleb128 0x1a
 6871 174f 01       		.uleb128 0x1
 6872 1750 50       		.byte	0x50
 6873 1751 02       		.uleb128 0x2
 6874 1752 74       		.byte	0x74
 6875 1753 00       		.sleb128 0
 6876 1754 1A       		.uleb128 0x1a
 6877 1755 01       		.uleb128 0x1
 6878 1756 51       		.byte	0x51
 6879 1757 02       		.uleb128 0x2
 6880 1758 91       		.byte	0x91
 6881 1759 48       		.sleb128 -56
 6882 175a 00       		.byte	0
 6883 175b 18       		.uleb128 0x18
 6884 175c EC070000 		.4byte	.LVL237
 6885 1760 872B0000 		.4byte	0x2b87
 6886 1764 00       		.byte	0
 6887 1765 16       		.uleb128 0x16
 6888 1766 68080000 		.4byte	.LBB53
 6889 176a F8000000 		.4byte	.LBE53-.LBB53
 6890 176e 73190000 		.4byte	0x1973
 6891 1772 20       		.uleb128 0x20
 6892 1773 E2000000 		.4byte	.LASF80
 6893 1777 01       		.byte	0x1
 6894 1778 6E01     		.2byte	0x16e
 6895 177a BE020000 		.4byte	0x2be
 6896 177e 02       		.uleb128 0x2
 6897 177f 91       		.byte	0x91
 6898 1780 48       		.sleb128 -56
 6899 1781 16       		.uleb128 0x16
 6900 1782 74080000 		.4byte	.LBB54
 6901 1786 1E000000 		.4byte	.LBE54-.LBB54
ARM GAS  C:\Users\Phuong\AppData\Local\Temp\ccU7OqD6.s 			page 138


 6902 178a DD170000 		.4byte	0x17dd
 6903 178e 21       		.uleb128 0x21
 6904 178f 6C00     		.ascii	"l\000"
 6905 1791 01       		.byte	0x1
 6906 1792 7101     		.2byte	0x171
 6907 1794 7B010000 		.4byte	0x17b
 6908 1798 910A0000 		.4byte	.LLST41
 6909 179c 18       		.uleb128 0x18
 6910 179d 78080000 		.4byte	.LVL258
 6911 17a1 522B0000 		.4byte	0x2b52
 6912 17a5 19       		.uleb128 0x19
 6913 17a6 92080000 		.4byte	.LVL261
 6914 17aa 02       		.uleb128 0x2
 6915 17ab 74       		.byte	0x74
 6916 17ac 00       		.sleb128 0
 6917 17ad 1A       		.uleb128 0x1a
 6918 17ae 01       		.uleb128 0x1
 6919 17af 50       		.byte	0x50
 6920 17b0 01       		.uleb128 0x1
 6921 17b1 30       		.byte	0x30
 6922 17b2 1A       		.uleb128 0x1a
 6923 17b3 01       		.uleb128 0x1
 6924 17b4 51       		.byte	0x51
 6925 17b5 05       		.uleb128 0x5
 6926 17b6 03       		.byte	0x3
 6927 17b7 00000000 		.4byte	.LC1
 6928 17bb 1A       		.uleb128 0x1a
 6929 17bc 01       		.uleb128 0x1
 6930 17bd 52       		.byte	0x52
 6931 17be 05       		.uleb128 0x5
 6932 17bf 03       		.byte	0x3
 6933 17c0 6C000000 		.4byte	.LANCHOR0+16
 6934 17c4 1A       		.uleb128 0x1a
 6935 17c5 01       		.uleb128 0x1
 6936 17c6 53       		.byte	0x53
 6937 17c7 03       		.uleb128 0x3
 6938 17c8 0A       		.byte	0xa
 6939 17c9 7101     		.2byte	0x171
 6940 17cb 1A       		.uleb128 0x1a
 6941 17cc 02       		.uleb128 0x2
 6942 17cd 7D       		.byte	0x7d
 6943 17ce 00       		.sleb128 0
 6944 17cf 01       		.uleb128 0x1
 6945 17d0 31       		.byte	0x31
 6946 17d1 1A       		.uleb128 0x1a
 6947 17d2 02       		.uleb128 0x2
 6948 17d3 7D       		.byte	0x7d
 6949 17d4 04       		.sleb128 4
 6950 17d5 05       		.uleb128 0x5
 6951 17d6 03       		.byte	0x3
 6952 17d7 CC020000 		.4byte	.LC74
 6953 17db 00       		.byte	0
 6954 17dc 00       		.byte	0
 6955 17dd 16       		.uleb128 0x16
 6956 17de AC080000 		.4byte	.LBB55
 6957 17e2 1E000000 		.4byte	.LBE55-.LBB55
 6958 17e6 39180000 		.4byte	0x1839
ARM GAS  C:\Users\Phuong\AppData\Local\Temp\ccU7OqD6.s 			page 139


 6959 17ea 21       		.uleb128 0x21
 6960 17eb 6C00     		.ascii	"l\000"
 6961 17ed 01       		.byte	0x1
 6962 17ee 7901     		.2byte	0x179
 6963 17f0 7B010000 		.4byte	0x17b
 6964 17f4 AF0A0000 		.4byte	.LLST42
 6965 17f8 18       		.uleb128 0x18
 6966 17f9 B0080000 		.4byte	.LVL265
 6967 17fd 522B0000 		.4byte	0x2b52
 6968 1801 19       		.uleb128 0x19
 6969 1802 CA080000 		.4byte	.LVL268
 6970 1806 02       		.uleb128 0x2
 6971 1807 74       		.byte	0x74
 6972 1808 00       		.sleb128 0
 6973 1809 1A       		.uleb128 0x1a
 6974 180a 01       		.uleb128 0x1
 6975 180b 50       		.byte	0x50
 6976 180c 01       		.uleb128 0x1
 6977 180d 30       		.byte	0x30
 6978 180e 1A       		.uleb128 0x1a
 6979 180f 01       		.uleb128 0x1
 6980 1810 51       		.byte	0x51
 6981 1811 05       		.uleb128 0x5
 6982 1812 03       		.byte	0x3
 6983 1813 00000000 		.4byte	.LC1
 6984 1817 1A       		.uleb128 0x1a
 6985 1818 01       		.uleb128 0x1
 6986 1819 52       		.byte	0x52
 6987 181a 05       		.uleb128 0x5
 6988 181b 03       		.byte	0x3
 6989 181c 6C000000 		.4byte	.LANCHOR0+16
 6990 1820 1A       		.uleb128 0x1a
 6991 1821 01       		.uleb128 0x1
 6992 1822 53       		.byte	0x53
 6993 1823 03       		.uleb128 0x3
 6994 1824 0A       		.byte	0xa
 6995 1825 7901     		.2byte	0x179
 6996 1827 1A       		.uleb128 0x1a
 6997 1828 02       		.uleb128 0x2
 6998 1829 7D       		.byte	0x7d
 6999 182a 00       		.sleb128 0
 7000 182b 01       		.uleb128 0x1
 7001 182c 31       		.byte	0x31
 7002 182d 1A       		.uleb128 0x1a
 7003 182e 02       		.uleb128 0x2
 7004 182f 7D       		.byte	0x7d
 7005 1830 04       		.sleb128 4
 7006 1831 05       		.uleb128 0x5
 7007 1832 03       		.byte	0x3
 7008 1833 98000000 		.4byte	.LC20
 7009 1837 00       		.byte	0
 7010 1838 00       		.byte	0
 7011 1839 23       		.uleb128 0x23
 7012 183a 00000000 		.4byte	.Ldebug_ranges0+0
 7013 183e 29190000 		.4byte	0x1929
 7014 1842 21       		.uleb128 0x21
 7015 1843 6900     		.ascii	"i\000"
ARM GAS  C:\Users\Phuong\AppData\Local\Temp\ccU7OqD6.s 			page 140


 7016 1845 01       		.byte	0x1
 7017 1846 7F01     		.2byte	0x17f
 7018 1848 42010000 		.4byte	0x142
 7019 184c CD0A0000 		.4byte	.LLST43
 7020 1850 16       		.uleb128 0x16
 7021 1851 D8080000 		.4byte	.LBB57
 7022 1855 2E000000 		.4byte	.LBE57-.LBB57
 7023 1859 A5180000 		.4byte	0x18a5
 7024 185d 20       		.uleb128 0x20
 7025 185e 60060000 		.4byte	.LASF74
 7026 1862 01       		.byte	0x1
 7027 1863 8301     		.2byte	0x183
 7028 1865 D42A0000 		.4byte	0x2ad4
 7029 1869 02       		.uleb128 0x2
 7030 186a 91       		.byte	0x91
 7031 186b 40       		.sleb128 -64
 7032 186c 1B       		.uleb128 0x1b
 7033 186d F6080000 		.4byte	.LVL271
 7034 1871 F52B0000 		.4byte	0x2bf5
 7035 1875 8E180000 		.4byte	0x188e
 7036 1879 1A       		.uleb128 0x1a
 7037 187a 01       		.uleb128 0x1
 7038 187b 50       		.byte	0x50
 7039 187c 02       		.uleb128 0x2
 7040 187d 91       		.byte	0x91
 7041 187e 40       		.sleb128 -64
 7042 187f 1A       		.uleb128 0x1a
 7043 1880 01       		.uleb128 0x1
 7044 1881 51       		.byte	0x51
 7045 1882 01       		.uleb128 0x1
 7046 1883 34       		.byte	0x34
 7047 1884 1A       		.uleb128 0x1a
 7048 1885 01       		.uleb128 0x1
 7049 1886 52       		.byte	0x52
 7050 1887 05       		.uleb128 0x5
 7051 1888 03       		.byte	0x3
 7052 1889 F0020000 		.4byte	.LC78
 7053 188d 00       		.byte	0
 7054 188e 1C       		.uleb128 0x1c
 7055 188f 02090000 		.4byte	.LVL272
 7056 1893 C9020000 		.4byte	0x2c9
 7057 1897 1A       		.uleb128 0x1a
 7058 1898 01       		.uleb128 0x1
 7059 1899 50       		.byte	0x50
 7060 189a 02       		.uleb128 0x2
 7061 189b 91       		.byte	0x91
 7062 189c 64       		.sleb128 -28
 7063 189d 1A       		.uleb128 0x1a
 7064 189e 01       		.uleb128 0x1
 7065 189f 51       		.byte	0x51
 7066 18a0 02       		.uleb128 0x2
 7067 18a1 91       		.byte	0x91
 7068 18a2 40       		.sleb128 -64
 7069 18a3 00       		.byte	0
 7070 18a4 00       		.byte	0
 7071 18a5 16       		.uleb128 0x16
 7072 18a6 36090000 		.4byte	.LBB58
ARM GAS  C:\Users\Phuong\AppData\Local\Temp\ccU7OqD6.s 			page 141


 7073 18aa 1E000000 		.4byte	.LBE58-.LBB58
 7074 18ae 02190000 		.4byte	0x1902
 7075 18b2 21       		.uleb128 0x21
 7076 18b3 6C00     		.ascii	"l\000"
 7077 18b5 01       		.byte	0x1
 7078 18b6 8E01     		.2byte	0x18e
 7079 18b8 7B010000 		.4byte	0x17b
 7080 18bc F50A0000 		.4byte	.LLST44
 7081 18c0 18       		.uleb128 0x18
 7082 18c1 3A090000 		.4byte	.LVL278
 7083 18c5 522B0000 		.4byte	0x2b52
 7084 18c9 19       		.uleb128 0x19
 7085 18ca 54090000 		.4byte	.LVL281
 7086 18ce 02       		.uleb128 0x2
 7087 18cf 74       		.byte	0x74
 7088 18d0 00       		.sleb128 0
 7089 18d1 1A       		.uleb128 0x1a
 7090 18d2 01       		.uleb128 0x1
 7091 18d3 50       		.byte	0x50
 7092 18d4 02       		.uleb128 0x2
 7093 18d5 75       		.byte	0x75
 7094 18d6 00       		.sleb128 0
 7095 18d7 1A       		.uleb128 0x1a
 7096 18d8 01       		.uleb128 0x1
 7097 18d9 51       		.byte	0x51
 7098 18da 05       		.uleb128 0x5
 7099 18db 03       		.byte	0x3
 7100 18dc 00000000 		.4byte	.LC1
 7101 18e0 1A       		.uleb128 0x1a
 7102 18e1 01       		.uleb128 0x1
 7103 18e2 52       		.byte	0x52
 7104 18e3 05       		.uleb128 0x5
 7105 18e4 03       		.byte	0x3
 7106 18e5 6C000000 		.4byte	.LANCHOR0+16
 7107 18e9 1A       		.uleb128 0x1a
 7108 18ea 01       		.uleb128 0x1
 7109 18eb 53       		.byte	0x53
 7110 18ec 03       		.uleb128 0x3
 7111 18ed 0A       		.byte	0xa
 7112 18ee 8E01     		.2byte	0x18e
 7113 18f0 1A       		.uleb128 0x1a
 7114 18f1 02       		.uleb128 0x2
 7115 18f2 7D       		.byte	0x7d
 7116 18f3 00       		.sleb128 0
 7117 18f4 01       		.uleb128 0x1
 7118 18f5 31       		.byte	0x31
 7119 18f6 1A       		.uleb128 0x1a
 7120 18f7 02       		.uleb128 0x2
 7121 18f8 7D       		.byte	0x7d
 7122 18f9 04       		.sleb128 4
 7123 18fa 05       		.uleb128 0x5
 7124 18fb 03       		.byte	0x3
 7125 18fc 98000000 		.4byte	.LC20
 7126 1900 00       		.byte	0
 7127 1901 00       		.byte	0
 7128 1902 1B       		.uleb128 0x1b
 7129 1903 30090000 		.4byte	.LVL277
ARM GAS  C:\Users\Phuong\AppData\Local\Temp\ccU7OqD6.s 			page 142


 7130 1907 C9020000 		.4byte	0x2c9
 7131 190b 1F190000 		.4byte	0x191f
 7132 190f 1A       		.uleb128 0x1a
 7133 1910 01       		.uleb128 0x1
 7134 1911 50       		.byte	0x50
 7135 1912 02       		.uleb128 0x2
 7136 1913 91       		.byte	0x91
 7137 1914 64       		.sleb128 -28
 7138 1915 1A       		.uleb128 0x1a
 7139 1916 01       		.uleb128 0x1
 7140 1917 51       		.byte	0x51
 7141 1918 05       		.uleb128 0x5
 7142 1919 03       		.byte	0x3
 7143 191a F8020000 		.4byte	.LC80
 7144 191e 00       		.byte	0
 7145 191f 18       		.uleb128 0x18
 7146 1920 5A090000 		.4byte	.LVL282
 7147 1924 872B0000 		.4byte	0x2b87
 7148 1928 00       		.byte	0
 7149 1929 1B       		.uleb128 0x1b
 7150 192a 70080000 		.4byte	.LVL257
 7151 192e 422C0000 		.4byte	0x2c42
 7152 1932 43190000 		.4byte	0x1943
 7153 1936 1A       		.uleb128 0x1a
 7154 1937 01       		.uleb128 0x1
 7155 1938 50       		.byte	0x50
 7156 1939 02       		.uleb128 0x2
 7157 193a 74       		.byte	0x74
 7158 193b 00       		.sleb128 0
 7159 193c 1A       		.uleb128 0x1a
 7160 193d 01       		.uleb128 0x1
 7161 193e 51       		.byte	0x51
 7162 193f 02       		.uleb128 0x2
 7163 1940 91       		.byte	0x91
 7164 1941 48       		.sleb128 -56
 7165 1942 00       		.byte	0
 7166 1943 18       		.uleb128 0x18
 7167 1944 98080000 		.4byte	.LVL262
 7168 1948 872B0000 		.4byte	0x2b87
 7169 194c 1B       		.uleb128 0x1b
 7170 194d A8080000 		.4byte	.LVL264
 7171 1951 C9020000 		.4byte	0x2c9
 7172 1955 69190000 		.4byte	0x1969
 7173 1959 1A       		.uleb128 0x1a
 7174 195a 01       		.uleb128 0x1
 7175 195b 50       		.byte	0x50
 7176 195c 02       		.uleb128 0x2
 7177 195d 91       		.byte	0x91
 7178 195e 64       		.sleb128 -28
 7179 195f 1A       		.uleb128 0x1a
 7180 1960 01       		.uleb128 0x1
 7181 1961 51       		.byte	0x51
 7182 1962 05       		.uleb128 0x5
 7183 1963 03       		.byte	0x3
 7184 1964 EC020000 		.4byte	.LC76
 7185 1968 00       		.byte	0
 7186 1969 18       		.uleb128 0x18
ARM GAS  C:\Users\Phuong\AppData\Local\Temp\ccU7OqD6.s 			page 143


 7187 196a D0080000 		.4byte	.LVL269
 7188 196e 872B0000 		.4byte	0x2b87
 7189 1972 00       		.byte	0
 7190 1973 16       		.uleb128 0x16
 7191 1974 60090000 		.4byte	.LBB60
 7192 1978 6E000000 		.4byte	.LBE60-.LBB60
 7193 197c 881A0000 		.4byte	0x1a88
 7194 1980 20       		.uleb128 0x20
 7195 1981 51080000 		.4byte	.LASF81
 7196 1985 01       		.byte	0x1
 7197 1986 9801     		.2byte	0x198
 7198 1988 DE000000 		.4byte	0xde
 7199 198c 02       		.uleb128 0x2
 7200 198d 91       		.byte	0x91
 7201 198e 48       		.sleb128 -56
 7202 198f 16       		.uleb128 0x16
 7203 1990 6C090000 		.4byte	.LBB61
 7204 1994 1E000000 		.4byte	.LBE61-.LBB61
 7205 1998 EB190000 		.4byte	0x19eb
 7206 199c 21       		.uleb128 0x21
 7207 199d 6C00     		.ascii	"l\000"
 7208 199f 01       		.byte	0x1
 7209 19a0 9B01     		.2byte	0x19b
 7210 19a2 7B010000 		.4byte	0x17b
 7211 19a6 130B0000 		.4byte	.LLST45
 7212 19aa 18       		.uleb128 0x18
 7213 19ab 70090000 		.4byte	.LVL285
 7214 19af 522B0000 		.4byte	0x2b52
 7215 19b3 19       		.uleb128 0x19
 7216 19b4 8A090000 		.4byte	.LVL288
 7217 19b8 02       		.uleb128 0x2
 7218 19b9 74       		.byte	0x74
 7219 19ba 00       		.sleb128 0
 7220 19bb 1A       		.uleb128 0x1a
 7221 19bc 01       		.uleb128 0x1
 7222 19bd 50       		.byte	0x50
 7223 19be 01       		.uleb128 0x1
 7224 19bf 30       		.byte	0x30
 7225 19c0 1A       		.uleb128 0x1a
 7226 19c1 01       		.uleb128 0x1
 7227 19c2 51       		.byte	0x51
 7228 19c3 05       		.uleb128 0x5
 7229 19c4 03       		.byte	0x3
 7230 19c5 00000000 		.4byte	.LC1
 7231 19c9 1A       		.uleb128 0x1a
 7232 19ca 01       		.uleb128 0x1
 7233 19cb 52       		.byte	0x52
 7234 19cc 05       		.uleb128 0x5
 7235 19cd 03       		.byte	0x3
 7236 19ce 6C000000 		.4byte	.LANCHOR0+16
 7237 19d2 1A       		.uleb128 0x1a
 7238 19d3 01       		.uleb128 0x1
 7239 19d4 53       		.byte	0x53
 7240 19d5 03       		.uleb128 0x3
 7241 19d6 0A       		.byte	0xa
 7242 19d7 9B01     		.2byte	0x19b
 7243 19d9 1A       		.uleb128 0x1a
ARM GAS  C:\Users\Phuong\AppData\Local\Temp\ccU7OqD6.s 			page 144


 7244 19da 02       		.uleb128 0x2
 7245 19db 7D       		.byte	0x7d
 7246 19dc 00       		.sleb128 0
 7247 19dd 01       		.uleb128 0x1
 7248 19de 31       		.byte	0x31
 7249 19df 1A       		.uleb128 0x1a
 7250 19e0 02       		.uleb128 0x2
 7251 19e1 7D       		.byte	0x7d
 7252 19e2 04       		.sleb128 4
 7253 19e3 05       		.uleb128 0x5
 7254 19e4 03       		.byte	0x3
 7255 19e5 FC020000 		.4byte	.LC82
 7256 19e9 00       		.byte	0
 7257 19ea 00       		.byte	0
 7258 19eb 16       		.uleb128 0x16
 7259 19ec A4090000 		.4byte	.LBB62
 7260 19f0 1E000000 		.4byte	.LBE62-.LBB62
 7261 19f4 471A0000 		.4byte	0x1a47
 7262 19f8 21       		.uleb128 0x21
 7263 19f9 6C00     		.ascii	"l\000"
 7264 19fb 01       		.byte	0x1
 7265 19fc A301     		.2byte	0x1a3
 7266 19fe 7B010000 		.4byte	0x17b
 7267 1a02 310B0000 		.4byte	.LLST46
 7268 1a06 18       		.uleb128 0x18
 7269 1a07 A8090000 		.4byte	.LVL292
 7270 1a0b 522B0000 		.4byte	0x2b52
 7271 1a0f 19       		.uleb128 0x19
 7272 1a10 C2090000 		.4byte	.LVL295
 7273 1a14 02       		.uleb128 0x2
 7274 1a15 74       		.byte	0x74
 7275 1a16 00       		.sleb128 0
 7276 1a17 1A       		.uleb128 0x1a
 7277 1a18 01       		.uleb128 0x1
 7278 1a19 50       		.byte	0x50
 7279 1a1a 01       		.uleb128 0x1
 7280 1a1b 30       		.byte	0x30
 7281 1a1c 1A       		.uleb128 0x1a
 7282 1a1d 01       		.uleb128 0x1
 7283 1a1e 51       		.byte	0x51
 7284 1a1f 05       		.uleb128 0x5
 7285 1a20 03       		.byte	0x3
 7286 1a21 00000000 		.4byte	.LC1
 7287 1a25 1A       		.uleb128 0x1a
 7288 1a26 01       		.uleb128 0x1
 7289 1a27 52       		.byte	0x52
 7290 1a28 05       		.uleb128 0x5
 7291 1a29 03       		.byte	0x3
 7292 1a2a 6C000000 		.4byte	.LANCHOR0+16
 7293 1a2e 1A       		.uleb128 0x1a
 7294 1a2f 01       		.uleb128 0x1
 7295 1a30 53       		.byte	0x53
 7296 1a31 03       		.uleb128 0x3
 7297 1a32 0A       		.byte	0xa
 7298 1a33 A301     		.2byte	0x1a3
 7299 1a35 1A       		.uleb128 0x1a
 7300 1a36 02       		.uleb128 0x2
ARM GAS  C:\Users\Phuong\AppData\Local\Temp\ccU7OqD6.s 			page 145


 7301 1a37 7D       		.byte	0x7d
 7302 1a38 00       		.sleb128 0
 7303 1a39 01       		.uleb128 0x1
 7304 1a3a 31       		.byte	0x31
 7305 1a3b 1A       		.uleb128 0x1a
 7306 1a3c 02       		.uleb128 0x2
 7307 1a3d 7D       		.byte	0x7d
 7308 1a3e 04       		.sleb128 4
 7309 1a3f 05       		.uleb128 0x5
 7310 1a40 03       		.byte	0x3
 7311 1a41 98000000 		.4byte	.LC20
 7312 1a45 00       		.byte	0
 7313 1a46 00       		.byte	0
 7314 1a47 1B       		.uleb128 0x1b
 7315 1a48 68090000 		.4byte	.LVL284
 7316 1a4c 4D2C0000 		.4byte	0x2c4d
 7317 1a50 611A0000 		.4byte	0x1a61
 7318 1a54 1A       		.uleb128 0x1a
 7319 1a55 01       		.uleb128 0x1
 7320 1a56 50       		.byte	0x50
 7321 1a57 02       		.uleb128 0x2
 7322 1a58 74       		.byte	0x74
 7323 1a59 00       		.sleb128 0
 7324 1a5a 1A       		.uleb128 0x1a
 7325 1a5b 01       		.uleb128 0x1
 7326 1a5c 51       		.byte	0x51
 7327 1a5d 02       		.uleb128 0x2
 7328 1a5e 91       		.byte	0x91
 7329 1a5f 48       		.sleb128 -56
 7330 1a60 00       		.byte	0
 7331 1a61 18       		.uleb128 0x18
 7332 1a62 90090000 		.4byte	.LVL289
 7333 1a66 872B0000 		.4byte	0x2b87
 7334 1a6a 1B       		.uleb128 0x1b
 7335 1a6b 9E090000 		.4byte	.LVL291
 7336 1a6f C9020000 		.4byte	0x2c9
 7337 1a73 7E1A0000 		.4byte	0x1a7e
 7338 1a77 1A       		.uleb128 0x1a
 7339 1a78 01       		.uleb128 0x1
 7340 1a79 50       		.byte	0x50
 7341 1a7a 02       		.uleb128 0x2
 7342 1a7b 91       		.byte	0x91
 7343 1a7c 64       		.sleb128 -28
 7344 1a7d 00       		.byte	0
 7345 1a7e 18       		.uleb128 0x18
 7346 1a7f C8090000 		.4byte	.LVL296
 7347 1a83 872B0000 		.4byte	0x2b87
 7348 1a87 00       		.byte	0
 7349 1a88 16       		.uleb128 0x16
 7350 1a89 CE090000 		.4byte	.LBB63
 7351 1a8d 6E000000 		.4byte	.LBE63-.LBB63
 7352 1a91 9D1B0000 		.4byte	0x1b9d
 7353 1a95 20       		.uleb128 0x20
 7354 1a96 51080000 		.4byte	.LASF81
 7355 1a9a 01       		.byte	0x1
 7356 1a9b AC01     		.2byte	0x1ac
 7357 1a9d DE000000 		.4byte	0xde
ARM GAS  C:\Users\Phuong\AppData\Local\Temp\ccU7OqD6.s 			page 146


 7358 1aa1 02       		.uleb128 0x2
 7359 1aa2 91       		.byte	0x91
 7360 1aa3 48       		.sleb128 -56
 7361 1aa4 16       		.uleb128 0x16
 7362 1aa5 DA090000 		.4byte	.LBB64
 7363 1aa9 1E000000 		.4byte	.LBE64-.LBB64
 7364 1aad 001B0000 		.4byte	0x1b00
 7365 1ab1 21       		.uleb128 0x21
 7366 1ab2 6C00     		.ascii	"l\000"
 7367 1ab4 01       		.byte	0x1
 7368 1ab5 AF01     		.2byte	0x1af
 7369 1ab7 7B010000 		.4byte	0x17b
 7370 1abb 4F0B0000 		.4byte	.LLST47
 7371 1abf 18       		.uleb128 0x18
 7372 1ac0 DE090000 		.4byte	.LVL299
 7373 1ac4 522B0000 		.4byte	0x2b52
 7374 1ac8 19       		.uleb128 0x19
 7375 1ac9 F8090000 		.4byte	.LVL302
 7376 1acd 02       		.uleb128 0x2
 7377 1ace 74       		.byte	0x74
 7378 1acf 00       		.sleb128 0
 7379 1ad0 1A       		.uleb128 0x1a
 7380 1ad1 01       		.uleb128 0x1
 7381 1ad2 50       		.byte	0x50
 7382 1ad3 01       		.uleb128 0x1
 7383 1ad4 30       		.byte	0x30
 7384 1ad5 1A       		.uleb128 0x1a
 7385 1ad6 01       		.uleb128 0x1
 7386 1ad7 51       		.byte	0x51
 7387 1ad8 05       		.uleb128 0x5
 7388 1ad9 03       		.byte	0x3
 7389 1ada 00000000 		.4byte	.LC1
 7390 1ade 1A       		.uleb128 0x1a
 7391 1adf 01       		.uleb128 0x1
 7392 1ae0 52       		.byte	0x52
 7393 1ae1 05       		.uleb128 0x5
 7394 1ae2 03       		.byte	0x3
 7395 1ae3 6C000000 		.4byte	.LANCHOR0+16
 7396 1ae7 1A       		.uleb128 0x1a
 7397 1ae8 01       		.uleb128 0x1
 7398 1ae9 53       		.byte	0x53
 7399 1aea 03       		.uleb128 0x3
 7400 1aeb 0A       		.byte	0xa
 7401 1aec AF01     		.2byte	0x1af
 7402 1aee 1A       		.uleb128 0x1a
 7403 1aef 02       		.uleb128 0x2
 7404 1af0 7D       		.byte	0x7d
 7405 1af1 00       		.sleb128 0
 7406 1af2 01       		.uleb128 0x1
 7407 1af3 31       		.byte	0x31
 7408 1af4 1A       		.uleb128 0x1a
 7409 1af5 02       		.uleb128 0x2
 7410 1af6 7D       		.byte	0x7d
 7411 1af7 04       		.sleb128 4
 7412 1af8 05       		.uleb128 0x5
 7413 1af9 03       		.byte	0x3
 7414 1afa 1C030000 		.4byte	.LC84
ARM GAS  C:\Users\Phuong\AppData\Local\Temp\ccU7OqD6.s 			page 147


 7415 1afe 00       		.byte	0
 7416 1aff 00       		.byte	0
 7417 1b00 16       		.uleb128 0x16
 7418 1b01 120A0000 		.4byte	.LBB65
 7419 1b05 1E000000 		.4byte	.LBE65-.LBB65
 7420 1b09 5C1B0000 		.4byte	0x1b5c
 7421 1b0d 21       		.uleb128 0x21
 7422 1b0e 6C00     		.ascii	"l\000"
 7423 1b10 01       		.byte	0x1
 7424 1b11 B701     		.2byte	0x1b7
 7425 1b13 7B010000 		.4byte	0x17b
 7426 1b17 6D0B0000 		.4byte	.LLST48
 7427 1b1b 18       		.uleb128 0x18
 7428 1b1c 160A0000 		.4byte	.LVL306
 7429 1b20 522B0000 		.4byte	0x2b52
 7430 1b24 19       		.uleb128 0x19
 7431 1b25 300A0000 		.4byte	.LVL309
 7432 1b29 02       		.uleb128 0x2
 7433 1b2a 74       		.byte	0x74
 7434 1b2b 00       		.sleb128 0
 7435 1b2c 1A       		.uleb128 0x1a
 7436 1b2d 01       		.uleb128 0x1
 7437 1b2e 50       		.byte	0x50
 7438 1b2f 01       		.uleb128 0x1
 7439 1b30 30       		.byte	0x30
 7440 1b31 1A       		.uleb128 0x1a
 7441 1b32 01       		.uleb128 0x1
 7442 1b33 51       		.byte	0x51
 7443 1b34 05       		.uleb128 0x5
 7444 1b35 03       		.byte	0x3
 7445 1b36 00000000 		.4byte	.LC1
 7446 1b3a 1A       		.uleb128 0x1a
 7447 1b3b 01       		.uleb128 0x1
 7448 1b3c 52       		.byte	0x52
 7449 1b3d 05       		.uleb128 0x5
 7450 1b3e 03       		.byte	0x3
 7451 1b3f 6C000000 		.4byte	.LANCHOR0+16
 7452 1b43 1A       		.uleb128 0x1a
 7453 1b44 01       		.uleb128 0x1
 7454 1b45 53       		.byte	0x53
 7455 1b46 03       		.uleb128 0x3
 7456 1b47 0A       		.byte	0xa
 7457 1b48 B701     		.2byte	0x1b7
 7458 1b4a 1A       		.uleb128 0x1a
 7459 1b4b 02       		.uleb128 0x2
 7460 1b4c 7D       		.byte	0x7d
 7461 1b4d 00       		.sleb128 0
 7462 1b4e 01       		.uleb128 0x1
 7463 1b4f 31       		.byte	0x31
 7464 1b50 1A       		.uleb128 0x1a
 7465 1b51 02       		.uleb128 0x2
 7466 1b52 7D       		.byte	0x7d
 7467 1b53 04       		.sleb128 4
 7468 1b54 05       		.uleb128 0x5
 7469 1b55 03       		.byte	0x3
 7470 1b56 98000000 		.4byte	.LC20
 7471 1b5a 00       		.byte	0
ARM GAS  C:\Users\Phuong\AppData\Local\Temp\ccU7OqD6.s 			page 148


 7472 1b5b 00       		.byte	0
 7473 1b5c 1B       		.uleb128 0x1b
 7474 1b5d D6090000 		.4byte	.LVL298
 7475 1b61 582C0000 		.4byte	0x2c58
 7476 1b65 761B0000 		.4byte	0x1b76
 7477 1b69 1A       		.uleb128 0x1a
 7478 1b6a 01       		.uleb128 0x1
 7479 1b6b 50       		.byte	0x50
 7480 1b6c 02       		.uleb128 0x2
 7481 1b6d 74       		.byte	0x74
 7482 1b6e 00       		.sleb128 0
 7483 1b6f 1A       		.uleb128 0x1a
 7484 1b70 01       		.uleb128 0x1
 7485 1b71 51       		.byte	0x51
 7486 1b72 02       		.uleb128 0x2
 7487 1b73 91       		.byte	0x91
 7488 1b74 48       		.sleb128 -56
 7489 1b75 00       		.byte	0
 7490 1b76 18       		.uleb128 0x18
 7491 1b77 FE090000 		.4byte	.LVL303
 7492 1b7b 872B0000 		.4byte	0x2b87
 7493 1b7f 1B       		.uleb128 0x1b
 7494 1b80 0C0A0000 		.4byte	.LVL305
 7495 1b84 C9020000 		.4byte	0x2c9
 7496 1b88 931B0000 		.4byte	0x1b93
 7497 1b8c 1A       		.uleb128 0x1a
 7498 1b8d 01       		.uleb128 0x1
 7499 1b8e 50       		.byte	0x50
 7500 1b8f 02       		.uleb128 0x2
 7501 1b90 91       		.byte	0x91
 7502 1b91 64       		.sleb128 -28
 7503 1b92 00       		.byte	0
 7504 1b93 18       		.uleb128 0x18
 7505 1b94 360A0000 		.4byte	.LVL310
 7506 1b98 872B0000 		.4byte	0x2b87
 7507 1b9c 00       		.byte	0
 7508 1b9d 16       		.uleb128 0x16
 7509 1b9e 3C0A0000 		.4byte	.LBB66
 7510 1ba2 B6010000 		.4byte	.LBE66-.LBB66
 7511 1ba6 531F0000 		.4byte	0x1f53
 7512 1baa 20       		.uleb128 0x20
 7513 1bab 12020000 		.4byte	.LASF82
 7514 1baf 01       		.byte	0x1
 7515 1bb0 C001     		.2byte	0x1c0
 7516 1bb2 2C010000 		.4byte	0x12c
 7517 1bb6 02       		.uleb128 0x2
 7518 1bb7 91       		.byte	0x91
 7519 1bb8 48       		.sleb128 -56
 7520 1bb9 16       		.uleb128 0x16
 7521 1bba 480A0000 		.4byte	.LBB67
 7522 1bbe 1E000000 		.4byte	.LBE67-.LBB67
 7523 1bc2 151C0000 		.4byte	0x1c15
 7524 1bc6 21       		.uleb128 0x21
 7525 1bc7 6C00     		.ascii	"l\000"
 7526 1bc9 01       		.byte	0x1
 7527 1bca C301     		.2byte	0x1c3
 7528 1bcc 7B010000 		.4byte	0x17b
ARM GAS  C:\Users\Phuong\AppData\Local\Temp\ccU7OqD6.s 			page 149


 7529 1bd0 8B0B0000 		.4byte	.LLST49
 7530 1bd4 18       		.uleb128 0x18
 7531 1bd5 4C0A0000 		.4byte	.LVL313
 7532 1bd9 522B0000 		.4byte	0x2b52
 7533 1bdd 19       		.uleb128 0x19
 7534 1bde 660A0000 		.4byte	.LVL316
 7535 1be2 02       		.uleb128 0x2
 7536 1be3 74       		.byte	0x74
 7537 1be4 00       		.sleb128 0
 7538 1be5 1A       		.uleb128 0x1a
 7539 1be6 01       		.uleb128 0x1
 7540 1be7 50       		.byte	0x50
 7541 1be8 01       		.uleb128 0x1
 7542 1be9 30       		.byte	0x30
 7543 1bea 1A       		.uleb128 0x1a
 7544 1beb 01       		.uleb128 0x1
 7545 1bec 51       		.byte	0x51
 7546 1bed 05       		.uleb128 0x5
 7547 1bee 03       		.byte	0x3
 7548 1bef 00000000 		.4byte	.LC1
 7549 1bf3 1A       		.uleb128 0x1a
 7550 1bf4 01       		.uleb128 0x1
 7551 1bf5 52       		.byte	0x52
 7552 1bf6 05       		.uleb128 0x5
 7553 1bf7 03       		.byte	0x3
 7554 1bf8 6C000000 		.4byte	.LANCHOR0+16
 7555 1bfc 1A       		.uleb128 0x1a
 7556 1bfd 01       		.uleb128 0x1
 7557 1bfe 53       		.byte	0x53
 7558 1bff 03       		.uleb128 0x3
 7559 1c00 0A       		.byte	0xa
 7560 1c01 C301     		.2byte	0x1c3
 7561 1c03 1A       		.uleb128 0x1a
 7562 1c04 02       		.uleb128 0x2
 7563 1c05 7D       		.byte	0x7d
 7564 1c06 00       		.sleb128 0
 7565 1c07 01       		.uleb128 0x1
 7566 1c08 31       		.byte	0x31
 7567 1c09 1A       		.uleb128 0x1a
 7568 1c0a 02       		.uleb128 0x2
 7569 1c0b 7D       		.byte	0x7d
 7570 1c0c 04       		.sleb128 4
 7571 1c0d 05       		.uleb128 0x5
 7572 1c0e 03       		.byte	0x3
 7573 1c0f 3C030000 		.4byte	.LC86
 7574 1c13 00       		.byte	0
 7575 1c14 00       		.byte	0
 7576 1c15 16       		.uleb128 0x16
 7577 1c16 800A0000 		.4byte	.LBB68
 7578 1c1a 1E000000 		.4byte	.LBE68-.LBB68
 7579 1c1e 711C0000 		.4byte	0x1c71
 7580 1c22 21       		.uleb128 0x21
 7581 1c23 6C00     		.ascii	"l\000"
 7582 1c25 01       		.byte	0x1
 7583 1c26 C901     		.2byte	0x1c9
 7584 1c28 7B010000 		.4byte	0x17b
 7585 1c2c A90B0000 		.4byte	.LLST50
ARM GAS  C:\Users\Phuong\AppData\Local\Temp\ccU7OqD6.s 			page 150


 7586 1c30 18       		.uleb128 0x18
 7587 1c31 840A0000 		.4byte	.LVL320
 7588 1c35 522B0000 		.4byte	0x2b52
 7589 1c39 19       		.uleb128 0x19
 7590 1c3a 9E0A0000 		.4byte	.LVL323
 7591 1c3e 02       		.uleb128 0x2
 7592 1c3f 74       		.byte	0x74
 7593 1c40 00       		.sleb128 0
 7594 1c41 1A       		.uleb128 0x1a
 7595 1c42 01       		.uleb128 0x1
 7596 1c43 50       		.byte	0x50
 7597 1c44 01       		.uleb128 0x1
 7598 1c45 30       		.byte	0x30
 7599 1c46 1A       		.uleb128 0x1a
 7600 1c47 01       		.uleb128 0x1
 7601 1c48 51       		.byte	0x51
 7602 1c49 05       		.uleb128 0x5
 7603 1c4a 03       		.byte	0x3
 7604 1c4b 00000000 		.4byte	.LC1
 7605 1c4f 1A       		.uleb128 0x1a
 7606 1c50 01       		.uleb128 0x1
 7607 1c51 52       		.byte	0x52
 7608 1c52 05       		.uleb128 0x5
 7609 1c53 03       		.byte	0x3
 7610 1c54 6C000000 		.4byte	.LANCHOR0+16
 7611 1c58 1A       		.uleb128 0x1a
 7612 1c59 01       		.uleb128 0x1
 7613 1c5a 53       		.byte	0x53
 7614 1c5b 03       		.uleb128 0x3
 7615 1c5c 0A       		.byte	0xa
 7616 1c5d C901     		.2byte	0x1c9
 7617 1c5f 1A       		.uleb128 0x1a
 7618 1c60 02       		.uleb128 0x2
 7619 1c61 7D       		.byte	0x7d
 7620 1c62 00       		.sleb128 0
 7621 1c63 01       		.uleb128 0x1
 7622 1c64 31       		.byte	0x31
 7623 1c65 1A       		.uleb128 0x1a
 7624 1c66 02       		.uleb128 0x2
 7625 1c67 7D       		.byte	0x7d
 7626 1c68 04       		.sleb128 4
 7627 1c69 05       		.uleb128 0x5
 7628 1c6a 03       		.byte	0x3
 7629 1c6b 98000000 		.4byte	.LC20
 7630 1c6f 00       		.byte	0
 7631 1c70 00       		.byte	0
 7632 1c71 23       		.uleb128 0x23
 7633 1c72 18000000 		.4byte	.Ldebug_ranges0+0x18
 7634 1c76 091F0000 		.4byte	0x1f09
 7635 1c7a 21       		.uleb128 0x21
 7636 1c7b 6900     		.ascii	"i\000"
 7637 1c7d 01       		.byte	0x1
 7638 1c7e CF01     		.2byte	0x1cf
 7639 1c80 25000000 		.4byte	0x25
 7640 1c84 C70B0000 		.4byte	.LLST51
 7641 1c88 16       		.uleb128 0x16
 7642 1c89 EC0A0000 		.4byte	.LBB70
ARM GAS  C:\Users\Phuong\AppData\Local\Temp\ccU7OqD6.s 			page 151


 7643 1c8d B0000000 		.4byte	.LBE70-.LBB70
 7644 1c91 7D1E0000 		.4byte	0x1e7d
 7645 1c95 22       		.uleb128 0x22
 7646 1c96 E0070000 		.4byte	.LASF83
 7647 1c9a 01       		.byte	0x1
 7648 1c9b D201     		.2byte	0x1d2
 7649 1c9d 78020000 		.4byte	0x278
 7650 1ca1 E50B0000 		.4byte	.LLST52
 7651 1ca5 16       		.uleb128 0x16
 7652 1ca6 F80A0000 		.4byte	.LBB71
 7653 1caa 22000000 		.4byte	.LBE71-.LBB71
 7654 1cae 081D0000 		.4byte	0x1d08
 7655 1cb2 21       		.uleb128 0x21
 7656 1cb3 6C00     		.ascii	"l\000"
 7657 1cb5 01       		.byte	0x1
 7658 1cb6 D501     		.2byte	0x1d5
 7659 1cb8 7B010000 		.4byte	0x17b
 7660 1cbc 190C0000 		.4byte	.LLST53
 7661 1cc0 18       		.uleb128 0x18
 7662 1cc1 FC0A0000 		.4byte	.LVL328
 7663 1cc5 522B0000 		.4byte	0x2b52
 7664 1cc9 19       		.uleb128 0x19
 7665 1cca 180B0000 		.4byte	.LVL331
 7666 1cce 02       		.uleb128 0x2
 7667 1ccf 74       		.byte	0x74
 7668 1cd0 00       		.sleb128 0
 7669 1cd1 1A       		.uleb128 0x1a
 7670 1cd2 01       		.uleb128 0x1
 7671 1cd3 50       		.byte	0x50
 7672 1cd4 01       		.uleb128 0x1
 7673 1cd5 30       		.byte	0x30
 7674 1cd6 1A       		.uleb128 0x1a
 7675 1cd7 01       		.uleb128 0x1
 7676 1cd8 51       		.byte	0x51
 7677 1cd9 05       		.uleb128 0x5
 7678 1cda 03       		.byte	0x3
 7679 1cdb 00000000 		.4byte	.LC1
 7680 1cdf 1A       		.uleb128 0x1a
 7681 1ce0 01       		.uleb128 0x1
 7682 1ce1 52       		.byte	0x52
 7683 1ce2 05       		.uleb128 0x5
 7684 1ce3 03       		.byte	0x3
 7685 1ce4 6C000000 		.4byte	.LANCHOR0+16
 7686 1ce8 1A       		.uleb128 0x1a
 7687 1ce9 01       		.uleb128 0x1
 7688 1cea 53       		.byte	0x53
 7689 1ceb 03       		.uleb128 0x3
 7690 1cec 0A       		.byte	0xa
 7691 1ced D501     		.2byte	0x1d5
 7692 1cef 1A       		.uleb128 0x1a
 7693 1cf0 02       		.uleb128 0x2
 7694 1cf1 7D       		.byte	0x7d
 7695 1cf2 00       		.sleb128 0
 7696 1cf3 01       		.uleb128 0x1
 7697 1cf4 31       		.byte	0x31
 7698 1cf5 1A       		.uleb128 0x1a
 7699 1cf6 02       		.uleb128 0x2
ARM GAS  C:\Users\Phuong\AppData\Local\Temp\ccU7OqD6.s 			page 152


 7700 1cf7 7D       		.byte	0x7d
 7701 1cf8 04       		.sleb128 4
 7702 1cf9 05       		.uleb128 0x5
 7703 1cfa 03       		.byte	0x3
 7704 1cfb 68030000 		.4byte	.LC90
 7705 1cff 1A       		.uleb128 0x1a
 7706 1d00 02       		.uleb128 0x2
 7707 1d01 7D       		.byte	0x7d
 7708 1d02 08       		.sleb128 8
 7709 1d03 02       		.uleb128 0x2
 7710 1d04 75       		.byte	0x75
 7711 1d05 00       		.sleb128 0
 7712 1d06 00       		.byte	0
 7713 1d07 00       		.byte	0
 7714 1d08 16       		.uleb128 0x16
 7715 1d09 1A0B0000 		.4byte	.LBB72
 7716 1d0d 82000000 		.4byte	.LBE72-.LBB72
 7717 1d11 661E0000 		.4byte	0x1e66
 7718 1d15 22       		.uleb128 0x22
 7719 1d16 5D050000 		.4byte	.LASF84
 7720 1d1a 01       		.byte	0x1
 7721 1d1b DA01     		.2byte	0x1da
 7722 1d1d D1000000 		.4byte	0xd1
 7723 1d21 370C0000 		.4byte	.LLST54
 7724 1d25 16       		.uleb128 0x16
 7725 1d26 220B0000 		.4byte	.LBB73
 7726 1d2a 20000000 		.4byte	.LBE73-.LBB73
 7727 1d2e 881D0000 		.4byte	0x1d88
 7728 1d32 21       		.uleb128 0x21
 7729 1d33 6C00     		.ascii	"l\000"
 7730 1d35 01       		.byte	0x1
 7731 1d36 DD01     		.2byte	0x1dd
 7732 1d38 7B010000 		.4byte	0x17b
 7733 1d3c 6B0C0000 		.4byte	.LLST55
 7734 1d40 18       		.uleb128 0x18
 7735 1d41 260B0000 		.4byte	.LVL335
 7736 1d45 522B0000 		.4byte	0x2b52
 7737 1d49 19       		.uleb128 0x19
 7738 1d4a 420B0000 		.4byte	.LVL338
 7739 1d4e 02       		.uleb128 0x2
 7740 1d4f 74       		.byte	0x74
 7741 1d50 00       		.sleb128 0
 7742 1d51 1A       		.uleb128 0x1a
 7743 1d52 01       		.uleb128 0x1
 7744 1d53 50       		.byte	0x50
 7745 1d54 01       		.uleb128 0x1
 7746 1d55 30       		.byte	0x30
 7747 1d56 1A       		.uleb128 0x1a
 7748 1d57 01       		.uleb128 0x1
 7749 1d58 51       		.byte	0x51
 7750 1d59 05       		.uleb128 0x5
 7751 1d5a 03       		.byte	0x3
 7752 1d5b 00000000 		.4byte	.LC1
 7753 1d5f 1A       		.uleb128 0x1a
 7754 1d60 01       		.uleb128 0x1
 7755 1d61 52       		.byte	0x52
 7756 1d62 05       		.uleb128 0x5
ARM GAS  C:\Users\Phuong\AppData\Local\Temp\ccU7OqD6.s 			page 153


 7757 1d63 03       		.byte	0x3
 7758 1d64 6C000000 		.4byte	.LANCHOR0+16
 7759 1d68 1A       		.uleb128 0x1a
 7760 1d69 01       		.uleb128 0x1
 7761 1d6a 53       		.byte	0x53
 7762 1d6b 03       		.uleb128 0x3
 7763 1d6c 0A       		.byte	0xa
 7764 1d6d DD01     		.2byte	0x1dd
 7765 1d6f 1A       		.uleb128 0x1a
 7766 1d70 02       		.uleb128 0x2
 7767 1d71 7D       		.byte	0x7d
 7768 1d72 00       		.sleb128 0
 7769 1d73 01       		.uleb128 0x1
 7770 1d74 31       		.byte	0x31
 7771 1d75 1A       		.uleb128 0x1a
 7772 1d76 02       		.uleb128 0x2
 7773 1d77 7D       		.byte	0x7d
 7774 1d78 04       		.sleb128 4
 7775 1d79 05       		.uleb128 0x5
 7776 1d7a 03       		.byte	0x3
 7777 1d7b 8C030000 		.4byte	.LC92
 7778 1d7f 1A       		.uleb128 0x1a
 7779 1d80 02       		.uleb128 0x2
 7780 1d81 7D       		.byte	0x7d
 7781 1d82 08       		.sleb128 8
 7782 1d83 02       		.uleb128 0x2
 7783 1d84 75       		.byte	0x75
 7784 1d85 00       		.sleb128 0
 7785 1d86 00       		.byte	0
 7786 1d87 00       		.byte	0
 7787 1d88 16       		.uleb128 0x16
 7788 1d89 660B0000 		.4byte	.LBB74
 7789 1d8d 1E000000 		.4byte	.LBE74-.LBB74
 7790 1d91 E41D0000 		.4byte	0x1de4
 7791 1d95 21       		.uleb128 0x21
 7792 1d96 6C00     		.ascii	"l\000"
 7793 1d98 01       		.byte	0x1
 7794 1d99 E601     		.2byte	0x1e6
 7795 1d9b 7B010000 		.4byte	0x17b
 7796 1d9f 890C0000 		.4byte	.LLST56
 7797 1da3 18       		.uleb128 0x18
 7798 1da4 6A0B0000 		.4byte	.LVL344
 7799 1da8 522B0000 		.4byte	0x2b52
 7800 1dac 19       		.uleb128 0x19
 7801 1dad 840B0000 		.4byte	.LVL347
 7802 1db1 02       		.uleb128 0x2
 7803 1db2 74       		.byte	0x74
 7804 1db3 00       		.sleb128 0
 7805 1db4 1A       		.uleb128 0x1a
 7806 1db5 01       		.uleb128 0x1
 7807 1db6 50       		.byte	0x50
 7808 1db7 01       		.uleb128 0x1
 7809 1db8 30       		.byte	0x30
 7810 1db9 1A       		.uleb128 0x1a
 7811 1dba 01       		.uleb128 0x1
 7812 1dbb 51       		.byte	0x51
 7813 1dbc 05       		.uleb128 0x5
ARM GAS  C:\Users\Phuong\AppData\Local\Temp\ccU7OqD6.s 			page 154


 7814 1dbd 03       		.byte	0x3
 7815 1dbe 00000000 		.4byte	.LC1
 7816 1dc2 1A       		.uleb128 0x1a
 7817 1dc3 01       		.uleb128 0x1
 7818 1dc4 52       		.byte	0x52
 7819 1dc5 05       		.uleb128 0x5
 7820 1dc6 03       		.byte	0x3
 7821 1dc7 6C000000 		.4byte	.LANCHOR0+16
 7822 1dcb 1A       		.uleb128 0x1a
 7823 1dcc 01       		.uleb128 0x1
 7824 1dcd 53       		.byte	0x53
 7825 1dce 03       		.uleb128 0x3
 7826 1dcf 0A       		.byte	0xa
 7827 1dd0 E601     		.2byte	0x1e6
 7828 1dd2 1A       		.uleb128 0x1a
 7829 1dd3 02       		.uleb128 0x2
 7830 1dd4 7D       		.byte	0x7d
 7831 1dd5 00       		.sleb128 0
 7832 1dd6 01       		.uleb128 0x1
 7833 1dd7 31       		.byte	0x31
 7834 1dd8 1A       		.uleb128 0x1a
 7835 1dd9 02       		.uleb128 0x2
 7836 1dda 7D       		.byte	0x7d
 7837 1ddb 04       		.sleb128 4
 7838 1ddc 05       		.uleb128 0x5
 7839 1ddd 03       		.byte	0x3
 7840 1dde 98000000 		.4byte	.LC20
 7841 1de2 00       		.byte	0
 7842 1de3 00       		.byte	0
 7843 1de4 18       		.uleb128 0x18
 7844 1de5 1E0B0000 		.4byte	.LVL333
 7845 1de9 1E040000 		.4byte	0x41e
 7846 1ded 1B       		.uleb128 0x1b
 7847 1dee 480B0000 		.4byte	.LVL339
 7848 1df2 632C0000 		.4byte	0x2c63
 7849 1df6 011E0000 		.4byte	0x1e01
 7850 1dfa 1A       		.uleb128 0x1a
 7851 1dfb 01       		.uleb128 0x1
 7852 1dfc 50       		.byte	0x50
 7853 1dfd 02       		.uleb128 0x2
 7854 1dfe 76       		.byte	0x76
 7855 1dff 00       		.sleb128 0
 7856 1e00 00       		.byte	0
 7857 1e01 1B       		.uleb128 0x1b
 7858 1e02 560B0000 		.4byte	.LVL342
 7859 1e06 C9020000 		.4byte	0x2c9
 7860 1e0a 1E1E0000 		.4byte	0x1e1e
 7861 1e0e 1A       		.uleb128 0x1a
 7862 1e0f 01       		.uleb128 0x1
 7863 1e10 50       		.byte	0x50
 7864 1e11 02       		.uleb128 0x2
 7865 1e12 91       		.byte	0x91
 7866 1e13 64       		.sleb128 -28
 7867 1e14 1A       		.uleb128 0x1a
 7868 1e15 01       		.uleb128 0x1
 7869 1e16 51       		.byte	0x51
 7870 1e17 05       		.uleb128 0x5
ARM GAS  C:\Users\Phuong\AppData\Local\Temp\ccU7OqD6.s 			page 155


 7871 1e18 03       		.byte	0x3
 7872 1e19 B4030000 		.4byte	.LC94
 7873 1e1d 00       		.byte	0
 7874 1e1e 1B       		.uleb128 0x1b
 7875 1e1f 620B0000 		.4byte	.LVL343
 7876 1e23 C9020000 		.4byte	0x2c9
 7877 1e27 381E0000 		.4byte	0x1e38
 7878 1e2b 1A       		.uleb128 0x1a
 7879 1e2c 01       		.uleb128 0x1
 7880 1e2d 50       		.byte	0x50
 7881 1e2e 02       		.uleb128 0x2
 7882 1e2f 91       		.byte	0x91
 7883 1e30 64       		.sleb128 -28
 7884 1e31 1A       		.uleb128 0x1a
 7885 1e32 01       		.uleb128 0x1
 7886 1e33 51       		.byte	0x51
 7887 1e34 02       		.uleb128 0x2
 7888 1e35 77       		.byte	0x77
 7889 1e36 00       		.sleb128 0
 7890 1e37 00       		.byte	0
 7891 1e38 18       		.uleb128 0x18
 7892 1e39 8A0B0000 		.4byte	.LVL348
 7893 1e3d 872B0000 		.4byte	0x2b87
 7894 1e41 1B       		.uleb128 0x1b
 7895 1e42 960B0000 		.4byte	.LVL350
 7896 1e46 872B0000 		.4byte	0x2b87
 7897 1e4a 551E0000 		.4byte	0x1e55
 7898 1e4e 1A       		.uleb128 0x1a
 7899 1e4f 01       		.uleb128 0x1
 7900 1e50 50       		.byte	0x50
 7901 1e51 02       		.uleb128 0x2
 7902 1e52 77       		.byte	0x77
 7903 1e53 00       		.sleb128 0
 7904 1e54 00       		.byte	0
 7905 1e55 1C       		.uleb128 0x1c
 7906 1e56 9C0B0000 		.4byte	.LVL351
 7907 1e5a 632C0000 		.4byte	0x2c63
 7908 1e5e 1A       		.uleb128 0x1a
 7909 1e5f 01       		.uleb128 0x1
 7910 1e60 50       		.byte	0x50
 7911 1e61 02       		.uleb128 0x2
 7912 1e62 76       		.byte	0x76
 7913 1e63 00       		.sleb128 0
 7914 1e64 00       		.byte	0
 7915 1e65 00       		.byte	0
 7916 1e66 1C       		.uleb128 0x1c
 7917 1e67 F40A0000 		.4byte	.LVL326
 7918 1e6b 6E2C0000 		.4byte	0x2c6e
 7919 1e6f 1A       		.uleb128 0x1a
 7920 1e70 01       		.uleb128 0x1
 7921 1e71 50       		.byte	0x50
 7922 1e72 02       		.uleb128 0x2
 7923 1e73 74       		.byte	0x74
 7924 1e74 00       		.sleb128 0
 7925 1e75 1A       		.uleb128 0x1a
 7926 1e76 01       		.uleb128 0x1
 7927 1e77 51       		.byte	0x51
ARM GAS  C:\Users\Phuong\AppData\Local\Temp\ccU7OqD6.s 			page 156


 7928 1e78 02       		.uleb128 0x2
 7929 1e79 75       		.byte	0x75
 7930 1e7a 00       		.sleb128 0
 7931 1e7b 00       		.byte	0
 7932 1e7c 00       		.byte	0
 7933 1e7d 16       		.uleb128 0x16
 7934 1e7e C80B0000 		.4byte	.LBB75
 7935 1e82 1E000000 		.4byte	.LBE75-.LBB75
 7936 1e86 D91E0000 		.4byte	0x1ed9
 7937 1e8a 21       		.uleb128 0x21
 7938 1e8b 6C00     		.ascii	"l\000"
 7939 1e8d 01       		.byte	0x1
 7940 1e8e FB01     		.2byte	0x1fb
 7941 1e90 7B010000 		.4byte	0x17b
 7942 1e94 A70C0000 		.4byte	.LLST57
 7943 1e98 18       		.uleb128 0x18
 7944 1e99 CC0B0000 		.4byte	.LVL358
 7945 1e9d 522B0000 		.4byte	0x2b52
 7946 1ea1 19       		.uleb128 0x19
 7947 1ea2 E60B0000 		.4byte	.LVL361
 7948 1ea6 02       		.uleb128 0x2
 7949 1ea7 74       		.byte	0x74
 7950 1ea8 00       		.sleb128 0
 7951 1ea9 1A       		.uleb128 0x1a
 7952 1eaa 01       		.uleb128 0x1
 7953 1eab 50       		.byte	0x50
 7954 1eac 01       		.uleb128 0x1
 7955 1ead 30       		.byte	0x30
 7956 1eae 1A       		.uleb128 0x1a
 7957 1eaf 01       		.uleb128 0x1
 7958 1eb0 51       		.byte	0x51
 7959 1eb1 05       		.uleb128 0x5
 7960 1eb2 03       		.byte	0x3
 7961 1eb3 00000000 		.4byte	.LC1
 7962 1eb7 1A       		.uleb128 0x1a
 7963 1eb8 01       		.uleb128 0x1
 7964 1eb9 52       		.byte	0x52
 7965 1eba 05       		.uleb128 0x5
 7966 1ebb 03       		.byte	0x3
 7967 1ebc 6C000000 		.4byte	.LANCHOR0+16
 7968 1ec0 1A       		.uleb128 0x1a
 7969 1ec1 01       		.uleb128 0x1
 7970 1ec2 53       		.byte	0x53
 7971 1ec3 03       		.uleb128 0x3
 7972 1ec4 0A       		.byte	0xa
 7973 1ec5 FB01     		.2byte	0x1fb
 7974 1ec7 1A       		.uleb128 0x1a
 7975 1ec8 02       		.uleb128 0x2
 7976 1ec9 7D       		.byte	0x7d
 7977 1eca 00       		.sleb128 0
 7978 1ecb 01       		.uleb128 0x1
 7979 1ecc 31       		.byte	0x31
 7980 1ecd 1A       		.uleb128 0x1a
 7981 1ece 02       		.uleb128 0x2
 7982 1ecf 7D       		.byte	0x7d
 7983 1ed0 04       		.sleb128 4
 7984 1ed1 05       		.uleb128 0x5
ARM GAS  C:\Users\Phuong\AppData\Local\Temp\ccU7OqD6.s 			page 157


 7985 1ed2 03       		.byte	0x3
 7986 1ed3 98000000 		.4byte	.LC20
 7987 1ed7 00       		.byte	0
 7988 1ed8 00       		.byte	0
 7989 1ed9 18       		.uleb128 0x18
 7990 1eda B40B0000 		.4byte	.LVL356
 7991 1ede 872B0000 		.4byte	0x2b87
 7992 1ee2 1B       		.uleb128 0x1b
 7993 1ee3 C20B0000 		.4byte	.LVL357
 7994 1ee7 C9020000 		.4byte	0x2c9
 7995 1eeb FF1E0000 		.4byte	0x1eff
 7996 1eef 1A       		.uleb128 0x1a
 7997 1ef0 01       		.uleb128 0x1
 7998 1ef1 50       		.byte	0x50
 7999 1ef2 02       		.uleb128 0x2
 8000 1ef3 91       		.byte	0x91
 8001 1ef4 64       		.sleb128 -28
 8002 1ef5 1A       		.uleb128 0x1a
 8003 1ef6 01       		.uleb128 0x1
 8004 1ef7 51       		.byte	0x51
 8005 1ef8 05       		.uleb128 0x5
 8006 1ef9 03       		.byte	0x3
 8007 1efa B8030000 		.4byte	.LC96
 8008 1efe 00       		.byte	0
 8009 1eff 18       		.uleb128 0x18
 8010 1f00 EC0B0000 		.4byte	.LVL362
 8011 1f04 872B0000 		.4byte	0x2b87
 8012 1f08 00       		.byte	0
 8013 1f09 1B       		.uleb128 0x1b
 8014 1f0a 440A0000 		.4byte	.LVL312
 8015 1f0e 792C0000 		.4byte	0x2c79
 8016 1f12 231F0000 		.4byte	0x1f23
 8017 1f16 1A       		.uleb128 0x1a
 8018 1f17 01       		.uleb128 0x1
 8019 1f18 50       		.byte	0x50
 8020 1f19 02       		.uleb128 0x2
 8021 1f1a 74       		.byte	0x74
 8022 1f1b 00       		.sleb128 0
 8023 1f1c 1A       		.uleb128 0x1a
 8024 1f1d 01       		.uleb128 0x1
 8025 1f1e 51       		.byte	0x51
 8026 1f1f 02       		.uleb128 0x2
 8027 1f20 91       		.byte	0x91
 8028 1f21 48       		.sleb128 -56
 8029 1f22 00       		.byte	0
 8030 1f23 18       		.uleb128 0x18
 8031 1f24 6C0A0000 		.4byte	.LVL317
 8032 1f28 872B0000 		.4byte	0x2b87
 8033 1f2c 1B       		.uleb128 0x1b
 8034 1f2d 7A0A0000 		.4byte	.LVL319
 8035 1f31 C9020000 		.4byte	0x2c9
 8036 1f35 491F0000 		.4byte	0x1f49
 8037 1f39 1A       		.uleb128 0x1a
 8038 1f3a 01       		.uleb128 0x1
 8039 1f3b 50       		.byte	0x50
 8040 1f3c 02       		.uleb128 0x2
 8041 1f3d 91       		.byte	0x91
ARM GAS  C:\Users\Phuong\AppData\Local\Temp\ccU7OqD6.s 			page 158


 8042 1f3e 64       		.sleb128 -28
 8043 1f3f 1A       		.uleb128 0x1a
 8044 1f40 01       		.uleb128 0x1
 8045 1f41 51       		.byte	0x51
 8046 1f42 05       		.uleb128 0x5
 8047 1f43 03       		.byte	0x3
 8048 1f44 64030000 		.4byte	.LC88
 8049 1f48 00       		.byte	0
 8050 1f49 18       		.uleb128 0x18
 8051 1f4a A40A0000 		.4byte	.LVL324
 8052 1f4e 872B0000 		.4byte	0x2b87
 8053 1f52 00       		.byte	0
 8054 1f53 16       		.uleb128 0x16
 8055 1f54 F20B0000 		.4byte	.LBB77
 8056 1f58 02020000 		.4byte	.LBE77-.LBB77
 8057 1f5c 87240000 		.4byte	0x2487
 8058 1f60 20       		.uleb128 0x20
 8059 1f61 12020000 		.4byte	.LASF82
 8060 1f65 01       		.byte	0x1
 8061 1f66 0402     		.2byte	0x204
 8062 1f68 2C010000 		.4byte	0x12c
 8063 1f6c 03       		.uleb128 0x3
 8064 1f6d 91       		.byte	0x91
 8065 1f6e BC7F     		.sleb128 -68
 8066 1f70 16       		.uleb128 0x16
 8067 1f71 FE0B0000 		.4byte	.LBB78
 8068 1f75 1C000000 		.4byte	.LBE78-.LBB78
 8069 1f79 CC1F0000 		.4byte	0x1fcc
 8070 1f7d 21       		.uleb128 0x21
 8071 1f7e 6C00     		.ascii	"l\000"
 8072 1f80 01       		.byte	0x1
 8073 1f81 0702     		.2byte	0x207
 8074 1f83 7B010000 		.4byte	0x17b
 8075 1f87 C50C0000 		.4byte	.LLST58
 8076 1f8b 18       		.uleb128 0x18
 8077 1f8c 020C0000 		.4byte	.LVL365
 8078 1f90 522B0000 		.4byte	0x2b52
 8079 1f94 19       		.uleb128 0x19
 8080 1f95 1A0C0000 		.4byte	.LVL368
 8081 1f99 02       		.uleb128 0x2
 8082 1f9a 74       		.byte	0x74
 8083 1f9b 00       		.sleb128 0
 8084 1f9c 1A       		.uleb128 0x1a
 8085 1f9d 01       		.uleb128 0x1
 8086 1f9e 50       		.byte	0x50
 8087 1f9f 01       		.uleb128 0x1
 8088 1fa0 30       		.byte	0x30
 8089 1fa1 1A       		.uleb128 0x1a
 8090 1fa2 01       		.uleb128 0x1
 8091 1fa3 51       		.byte	0x51
 8092 1fa4 05       		.uleb128 0x5
 8093 1fa5 03       		.byte	0x3
 8094 1fa6 00000000 		.4byte	.LC1
 8095 1faa 1A       		.uleb128 0x1a
 8096 1fab 01       		.uleb128 0x1
 8097 1fac 52       		.byte	0x52
 8098 1fad 05       		.uleb128 0x5
ARM GAS  C:\Users\Phuong\AppData\Local\Temp\ccU7OqD6.s 			page 159


 8099 1fae 03       		.byte	0x3
 8100 1faf 6C000000 		.4byte	.LANCHOR0+16
 8101 1fb3 1A       		.uleb128 0x1a
 8102 1fb4 01       		.uleb128 0x1
 8103 1fb5 53       		.byte	0x53
 8104 1fb6 03       		.uleb128 0x3
 8105 1fb7 0A       		.byte	0xa
 8106 1fb8 0702     		.2byte	0x207
 8107 1fba 1A       		.uleb128 0x1a
 8108 1fbb 02       		.uleb128 0x2
 8109 1fbc 7D       		.byte	0x7d
 8110 1fbd 00       		.sleb128 0
 8111 1fbe 01       		.uleb128 0x1
 8112 1fbf 31       		.byte	0x31
 8113 1fc0 1A       		.uleb128 0x1a
 8114 1fc1 02       		.uleb128 0x2
 8115 1fc2 7D       		.byte	0x7d
 8116 1fc3 04       		.sleb128 4
 8117 1fc4 05       		.uleb128 0x5
 8118 1fc5 03       		.byte	0x3
 8119 1fc6 BC030000 		.4byte	.LC98
 8120 1fca 00       		.byte	0
 8121 1fcb 00       		.byte	0
 8122 1fcc 16       		.uleb128 0x16
 8123 1fcd 340C0000 		.4byte	.LBB79
 8124 1fd1 1C000000 		.4byte	.LBE79-.LBB79
 8125 1fd5 28200000 		.4byte	0x2028
 8126 1fd9 21       		.uleb128 0x21
 8127 1fda 6C00     		.ascii	"l\000"
 8128 1fdc 01       		.byte	0x1
 8129 1fdd 0D02     		.2byte	0x20d
 8130 1fdf 7B010000 		.4byte	0x17b
 8131 1fe3 E30C0000 		.4byte	.LLST59
 8132 1fe7 18       		.uleb128 0x18
 8133 1fe8 380C0000 		.4byte	.LVL372
 8134 1fec 522B0000 		.4byte	0x2b52
 8135 1ff0 19       		.uleb128 0x19
 8136 1ff1 500C0000 		.4byte	.LVL375
 8137 1ff5 02       		.uleb128 0x2
 8138 1ff6 74       		.byte	0x74
 8139 1ff7 00       		.sleb128 0
 8140 1ff8 1A       		.uleb128 0x1a
 8141 1ff9 01       		.uleb128 0x1
 8142 1ffa 50       		.byte	0x50
 8143 1ffb 01       		.uleb128 0x1
 8144 1ffc 30       		.byte	0x30
 8145 1ffd 1A       		.uleb128 0x1a
 8146 1ffe 01       		.uleb128 0x1
 8147 1fff 51       		.byte	0x51
 8148 2000 05       		.uleb128 0x5
 8149 2001 03       		.byte	0x3
 8150 2002 00000000 		.4byte	.LC1
 8151 2006 1A       		.uleb128 0x1a
 8152 2007 01       		.uleb128 0x1
 8153 2008 52       		.byte	0x52
 8154 2009 05       		.uleb128 0x5
 8155 200a 03       		.byte	0x3
ARM GAS  C:\Users\Phuong\AppData\Local\Temp\ccU7OqD6.s 			page 160


 8156 200b 6C000000 		.4byte	.LANCHOR0+16
 8157 200f 1A       		.uleb128 0x1a
 8158 2010 01       		.uleb128 0x1
 8159 2011 53       		.byte	0x53
 8160 2012 03       		.uleb128 0x3
 8161 2013 0A       		.byte	0xa
 8162 2014 0D02     		.2byte	0x20d
 8163 2016 1A       		.uleb128 0x1a
 8164 2017 02       		.uleb128 0x2
 8165 2018 7D       		.byte	0x7d
 8166 2019 00       		.sleb128 0
 8167 201a 01       		.uleb128 0x1
 8168 201b 31       		.byte	0x31
 8169 201c 1A       		.uleb128 0x1a
 8170 201d 02       		.uleb128 0x2
 8171 201e 7D       		.byte	0x7d
 8172 201f 04       		.sleb128 4
 8173 2020 05       		.uleb128 0x5
 8174 2021 03       		.byte	0x3
 8175 2022 98000000 		.4byte	.LC20
 8176 2026 00       		.byte	0
 8177 2027 00       		.byte	0
 8178 2028 23       		.uleb128 0x23
 8179 2029 30000000 		.4byte	.Ldebug_ranges0+0x30
 8180 202d 3C240000 		.4byte	0x243c
 8181 2031 21       		.uleb128 0x21
 8182 2032 6900     		.ascii	"i\000"
 8183 2034 01       		.byte	0x1
 8184 2035 1302     		.2byte	0x213
 8185 2037 2C010000 		.4byte	0x12c
 8186 203b 010D0000 		.4byte	.LLST60
 8187 203f 16       		.uleb128 0x16
 8188 2040 5C0C0000 		.4byte	.LBB81
 8189 2044 42010000 		.4byte	.LBE81-.LBB81
 8190 2048 B0230000 		.4byte	0x23b0
 8191 204c 24       		.uleb128 0x24
 8192 204d 6B657900 		.ascii	"key\000"
 8193 2051 01       		.byte	0x1
 8194 2052 1602     		.2byte	0x216
 8195 2054 78020000 		.4byte	0x278
 8196 2058 02       		.uleb128 0x2
 8197 2059 91       		.byte	0x91
 8198 205a 40       		.sleb128 -64
 8199 205b 20       		.uleb128 0x20
 8200 205c BB020000 		.4byte	.LASF73
 8201 2060 01       		.byte	0x1
 8202 2061 1702     		.2byte	0x217
 8203 2063 78020000 		.4byte	0x278
 8204 2067 02       		.uleb128 0x2
 8205 2068 91       		.byte	0x91
 8206 2069 48       		.sleb128 -56
 8207 206a 16       		.uleb128 0x16
 8208 206b 6C0C0000 		.4byte	.LBB82
 8209 206f 22000000 		.4byte	.LBE82-.LBB82
 8210 2073 CD200000 		.4byte	0x20cd
 8211 2077 21       		.uleb128 0x21
 8212 2078 6C00     		.ascii	"l\000"
ARM GAS  C:\Users\Phuong\AppData\Local\Temp\ccU7OqD6.s 			page 161


 8213 207a 01       		.byte	0x1
 8214 207b 1A02     		.2byte	0x21a
 8215 207d 7B010000 		.4byte	0x17b
 8216 2081 1F0D0000 		.4byte	.LLST61
 8217 2085 18       		.uleb128 0x18
 8218 2086 700C0000 		.4byte	.LVL379
 8219 208a 522B0000 		.4byte	0x2b52
 8220 208e 19       		.uleb128 0x19
 8221 208f 8C0C0000 		.4byte	.LVL382
 8222 2093 02       		.uleb128 0x2
 8223 2094 74       		.byte	0x74
 8224 2095 00       		.sleb128 0
 8225 2096 1A       		.uleb128 0x1a
 8226 2097 01       		.uleb128 0x1
 8227 2098 50       		.byte	0x50
 8228 2099 01       		.uleb128 0x1
 8229 209a 30       		.byte	0x30
 8230 209b 1A       		.uleb128 0x1a
 8231 209c 01       		.uleb128 0x1
 8232 209d 51       		.byte	0x51
 8233 209e 05       		.uleb128 0x5
 8234 209f 03       		.byte	0x3
 8235 20a0 00000000 		.4byte	.LC1
 8236 20a4 1A       		.uleb128 0x1a
 8237 20a5 01       		.uleb128 0x1
 8238 20a6 52       		.byte	0x52
 8239 20a7 05       		.uleb128 0x5
 8240 20a8 03       		.byte	0x3
 8241 20a9 6C000000 		.4byte	.LANCHOR0+16
 8242 20ad 1A       		.uleb128 0x1a
 8243 20ae 01       		.uleb128 0x1
 8244 20af 53       		.byte	0x53
 8245 20b0 03       		.uleb128 0x3
 8246 20b1 0A       		.byte	0xa
 8247 20b2 1A02     		.2byte	0x21a
 8248 20b4 1A       		.uleb128 0x1a
 8249 20b5 02       		.uleb128 0x2
 8250 20b6 7D       		.byte	0x7d
 8251 20b7 00       		.sleb128 0
 8252 20b8 01       		.uleb128 0x1
 8253 20b9 31       		.byte	0x31
 8254 20ba 1A       		.uleb128 0x1a
 8255 20bb 02       		.uleb128 0x2
 8256 20bc 7D       		.byte	0x7d
 8257 20bd 04       		.sleb128 4
 8258 20be 05       		.uleb128 0x5
 8259 20bf 03       		.byte	0x3
 8260 20c0 DC030000 		.4byte	.LC100
 8261 20c4 1A       		.uleb128 0x1a
 8262 20c5 02       		.uleb128 0x2
 8263 20c6 7D       		.byte	0x7d
 8264 20c7 08       		.sleb128 8
 8265 20c8 02       		.uleb128 0x2
 8266 20c9 75       		.byte	0x75
 8267 20ca 00       		.sleb128 0
 8268 20cb 00       		.byte	0
 8269 20cc 00       		.byte	0
ARM GAS  C:\Users\Phuong\AppData\Local\Temp\ccU7OqD6.s 			page 162


 8270 20cd 16       		.uleb128 0x16
 8271 20ce 8E0C0000 		.4byte	.LBB83
 8272 20d2 10010000 		.4byte	.LBE83-.LBB83
 8273 20d6 8D230000 		.4byte	0x238d
 8274 20da 22       		.uleb128 0x22
 8275 20db DA030000 		.4byte	.LASF85
 8276 20df 01       		.byte	0x1
 8277 20e0 1F02     		.2byte	0x21f
 8278 20e2 D1000000 		.4byte	0xd1
 8279 20e6 3D0D0000 		.4byte	.LLST62
 8280 20ea 16       		.uleb128 0x16
 8281 20eb 980C0000 		.4byte	.LBB84
 8282 20ef 1E000000 		.4byte	.LBE84-.LBB84
 8283 20f3 4D210000 		.4byte	0x214d
 8284 20f7 21       		.uleb128 0x21
 8285 20f8 6C00     		.ascii	"l\000"
 8286 20fa 01       		.byte	0x1
 8287 20fb 2202     		.2byte	0x222
 8288 20fd 7B010000 		.4byte	0x17b
 8289 2101 710D0000 		.4byte	.LLST63
 8290 2105 18       		.uleb128 0x18
 8291 2106 9C0C0000 		.4byte	.LVL386
 8292 210a 522B0000 		.4byte	0x2b52
 8293 210e 19       		.uleb128 0x19
 8294 210f B60C0000 		.4byte	.LVL389
 8295 2113 02       		.uleb128 0x2
 8296 2114 74       		.byte	0x74
 8297 2115 00       		.sleb128 0
 8298 2116 1A       		.uleb128 0x1a
 8299 2117 01       		.uleb128 0x1
 8300 2118 50       		.byte	0x50
 8301 2119 01       		.uleb128 0x1
 8302 211a 30       		.byte	0x30
 8303 211b 1A       		.uleb128 0x1a
 8304 211c 01       		.uleb128 0x1
 8305 211d 51       		.byte	0x51
 8306 211e 05       		.uleb128 0x5
 8307 211f 03       		.byte	0x3
 8308 2120 00000000 		.4byte	.LC1
 8309 2124 1A       		.uleb128 0x1a
 8310 2125 01       		.uleb128 0x1
 8311 2126 52       		.byte	0x52
 8312 2127 05       		.uleb128 0x5
 8313 2128 03       		.byte	0x3
 8314 2129 6C000000 		.4byte	.LANCHOR0+16
 8315 212d 1A       		.uleb128 0x1a
 8316 212e 01       		.uleb128 0x1
 8317 212f 53       		.byte	0x53
 8318 2130 03       		.uleb128 0x3
 8319 2131 0A       		.byte	0xa
 8320 2132 2202     		.2byte	0x222
 8321 2134 1A       		.uleb128 0x1a
 8322 2135 02       		.uleb128 0x2
 8323 2136 7D       		.byte	0x7d
 8324 2137 00       		.sleb128 0
 8325 2138 01       		.uleb128 0x1
 8326 2139 31       		.byte	0x31
ARM GAS  C:\Users\Phuong\AppData\Local\Temp\ccU7OqD6.s 			page 163


 8327 213a 1A       		.uleb128 0x1a
 8328 213b 02       		.uleb128 0x2
 8329 213c 7D       		.byte	0x7d
 8330 213d 04       		.sleb128 4
 8331 213e 05       		.uleb128 0x5
 8332 213f 03       		.byte	0x3
 8333 2140 04040000 		.4byte	.LC102
 8334 2144 1A       		.uleb128 0x1a
 8335 2145 02       		.uleb128 0x2
 8336 2146 7D       		.byte	0x7d
 8337 2147 08       		.sleb128 8
 8338 2148 02       		.uleb128 0x2
 8339 2149 75       		.byte	0x75
 8340 214a 00       		.sleb128 0
 8341 214b 00       		.byte	0
 8342 214c 00       		.byte	0
 8343 214d 16       		.uleb128 0x16
 8344 214e C40C0000 		.4byte	.LBB85
 8345 2152 CE000000 		.4byte	.LBE85-.LBB85
 8346 2156 5F230000 		.4byte	0x235f
 8347 215a 22       		.uleb128 0x22
 8348 215b 34050000 		.4byte	.LASF86
 8349 215f 01       		.byte	0x1
 8350 2160 2902     		.2byte	0x229
 8351 2162 D1000000 		.4byte	0xd1
 8352 2166 8F0D0000 		.4byte	.LLST64
 8353 216a 16       		.uleb128 0x16
 8354 216b D00C0000 		.4byte	.LBB86
 8355 216f 20000000 		.4byte	.LBE86-.LBB86
 8356 2173 CD210000 		.4byte	0x21cd
 8357 2177 21       		.uleb128 0x21
 8358 2178 6C00     		.ascii	"l\000"
 8359 217a 01       		.byte	0x1
 8360 217b 2C02     		.2byte	0x22c
 8361 217d 7B010000 		.4byte	0x17b
 8362 2181 C30D0000 		.4byte	.LLST65
 8363 2185 18       		.uleb128 0x18
 8364 2186 D40C0000 		.4byte	.LVL396
 8365 218a 522B0000 		.4byte	0x2b52
 8366 218e 19       		.uleb128 0x19
 8367 218f F00C0000 		.4byte	.LVL399
 8368 2193 02       		.uleb128 0x2
 8369 2194 74       		.byte	0x74
 8370 2195 00       		.sleb128 0
 8371 2196 1A       		.uleb128 0x1a
 8372 2197 01       		.uleb128 0x1
 8373 2198 50       		.byte	0x50
 8374 2199 01       		.uleb128 0x1
 8375 219a 30       		.byte	0x30
 8376 219b 1A       		.uleb128 0x1a
 8377 219c 01       		.uleb128 0x1
 8378 219d 51       		.byte	0x51
 8379 219e 05       		.uleb128 0x5
 8380 219f 03       		.byte	0x3
 8381 21a0 00000000 		.4byte	.LC1
 8382 21a4 1A       		.uleb128 0x1a
 8383 21a5 01       		.uleb128 0x1
ARM GAS  C:\Users\Phuong\AppData\Local\Temp\ccU7OqD6.s 			page 164


 8384 21a6 52       		.byte	0x52
 8385 21a7 05       		.uleb128 0x5
 8386 21a8 03       		.byte	0x3
 8387 21a9 6C000000 		.4byte	.LANCHOR0+16
 8388 21ad 1A       		.uleb128 0x1a
 8389 21ae 01       		.uleb128 0x1
 8390 21af 53       		.byte	0x53
 8391 21b0 03       		.uleb128 0x3
 8392 21b1 0A       		.byte	0xa
 8393 21b2 2C02     		.2byte	0x22c
 8394 21b4 1A       		.uleb128 0x1a
 8395 21b5 02       		.uleb128 0x2
 8396 21b6 7D       		.byte	0x7d
 8397 21b7 00       		.sleb128 0
 8398 21b8 01       		.uleb128 0x1
 8399 21b9 31       		.byte	0x31
 8400 21ba 1A       		.uleb128 0x1a
 8401 21bb 02       		.uleb128 0x2
 8402 21bc 7D       		.byte	0x7d
 8403 21bd 04       		.sleb128 4
 8404 21be 05       		.uleb128 0x5
 8405 21bf 03       		.byte	0x3
 8406 21c0 38040000 		.4byte	.LC104
 8407 21c4 1A       		.uleb128 0x1a
 8408 21c5 02       		.uleb128 0x2
 8409 21c6 7D       		.byte	0x7d
 8410 21c7 08       		.sleb128 8
 8411 21c8 02       		.uleb128 0x2
 8412 21c9 75       		.byte	0x75
 8413 21ca 00       		.sleb128 0
 8414 21cb 00       		.byte	0
 8415 21cc 00       		.byte	0
 8416 21cd 16       		.uleb128 0x16
 8417 21ce 500D0000 		.4byte	.LBB87
 8418 21d2 1C000000 		.4byte	.LBE87-.LBB87
 8419 21d6 29220000 		.4byte	0x2229
 8420 21da 21       		.uleb128 0x21
 8421 21db 6C00     		.ascii	"l\000"
 8422 21dd 01       		.byte	0x1
 8423 21de 3B02     		.2byte	0x23b
 8424 21e0 7B010000 		.4byte	0x17b
 8425 21e4 E10D0000 		.4byte	.LLST66
 8426 21e8 18       		.uleb128 0x18
 8427 21e9 540D0000 		.4byte	.LVL411
 8428 21ed 522B0000 		.4byte	0x2b52
 8429 21f1 19       		.uleb128 0x19
 8430 21f2 6C0D0000 		.4byte	.LVL414
 8431 21f6 02       		.uleb128 0x2
 8432 21f7 74       		.byte	0x74
 8433 21f8 00       		.sleb128 0
 8434 21f9 1A       		.uleb128 0x1a
 8435 21fa 01       		.uleb128 0x1
 8436 21fb 50       		.byte	0x50
 8437 21fc 01       		.uleb128 0x1
 8438 21fd 30       		.byte	0x30
 8439 21fe 1A       		.uleb128 0x1a
 8440 21ff 01       		.uleb128 0x1
ARM GAS  C:\Users\Phuong\AppData\Local\Temp\ccU7OqD6.s 			page 165


 8441 2200 51       		.byte	0x51
 8442 2201 05       		.uleb128 0x5
 8443 2202 03       		.byte	0x3
 8444 2203 00000000 		.4byte	.LC1
 8445 2207 1A       		.uleb128 0x1a
 8446 2208 01       		.uleb128 0x1
 8447 2209 52       		.byte	0x52
 8448 220a 05       		.uleb128 0x5
 8449 220b 03       		.byte	0x3
 8450 220c 6C000000 		.4byte	.LANCHOR0+16
 8451 2210 1A       		.uleb128 0x1a
 8452 2211 01       		.uleb128 0x1
 8453 2212 53       		.byte	0x53
 8454 2213 03       		.uleb128 0x3
 8455 2214 0A       		.byte	0xa
 8456 2215 3B02     		.2byte	0x23b
 8457 2217 1A       		.uleb128 0x1a
 8458 2218 02       		.uleb128 0x2
 8459 2219 7D       		.byte	0x7d
 8460 221a 00       		.sleb128 0
 8461 221b 01       		.uleb128 0x1
 8462 221c 31       		.byte	0x31
 8463 221d 1A       		.uleb128 0x1a
 8464 221e 02       		.uleb128 0x2
 8465 221f 7D       		.byte	0x7d
 8466 2220 04       		.sleb128 4
 8467 2221 05       		.uleb128 0x5
 8468 2222 03       		.byte	0x3
 8469 2223 98000000 		.4byte	.LC20
 8470 2227 00       		.byte	0
 8471 2228 00       		.byte	0
 8472 2229 18       		.uleb128 0x18
 8473 222a CA0C0000 		.4byte	.LVL394
 8474 222e 1E040000 		.4byte	0x41e
 8475 2232 1B       		.uleb128 0x1b
 8476 2233 F60C0000 		.4byte	.LVL400
 8477 2237 872B0000 		.4byte	0x2b87
 8478 223b 46220000 		.4byte	0x2246
 8479 223f 1A       		.uleb128 0x1a
 8480 2240 01       		.uleb128 0x1
 8481 2241 50       		.byte	0x50
 8482 2242 02       		.uleb128 0x2
 8483 2243 76       		.byte	0x76
 8484 2244 00       		.sleb128 0
 8485 2245 00       		.byte	0
 8486 2246 18       		.uleb128 0x18
 8487 2247 FC0C0000 		.4byte	.LVL401
 8488 224b 632C0000 		.4byte	0x2c63
 8489 224f 18       		.uleb128 0x18
 8490 2250 020D0000 		.4byte	.LVL402
 8491 2254 632C0000 		.4byte	0x2c63
 8492 2258 1B       		.uleb128 0x1b
 8493 2259 100D0000 		.4byte	.LVL405
 8494 225d C9020000 		.4byte	0x2c9
 8495 2261 75220000 		.4byte	0x2275
 8496 2265 1A       		.uleb128 0x1a
 8497 2266 01       		.uleb128 0x1
ARM GAS  C:\Users\Phuong\AppData\Local\Temp\ccU7OqD6.s 			page 166


 8498 2267 50       		.byte	0x50
 8499 2268 02       		.uleb128 0x2
 8500 2269 91       		.byte	0x91
 8501 226a 64       		.sleb128 -28
 8502 226b 1A       		.uleb128 0x1a
 8503 226c 01       		.uleb128 0x1
 8504 226d 51       		.byte	0x51
 8505 226e 05       		.uleb128 0x5
 8506 226f 03       		.byte	0x3
 8507 2270 B4030000 		.4byte	.LC94
 8508 2274 00       		.byte	0
 8509 2275 1B       		.uleb128 0x1b
 8510 2276 1C0D0000 		.4byte	.LVL406
 8511 227a C9020000 		.4byte	0x2c9
 8512 227e 92220000 		.4byte	0x2292
 8513 2282 1A       		.uleb128 0x1a
 8514 2283 01       		.uleb128 0x1
 8515 2284 50       		.byte	0x50
 8516 2285 02       		.uleb128 0x2
 8517 2286 91       		.byte	0x91
 8518 2287 64       		.sleb128 -28
 8519 2288 1A       		.uleb128 0x1a
 8520 2289 01       		.uleb128 0x1
 8521 228a 51       		.byte	0x51
 8522 228b 05       		.uleb128 0x5
 8523 228c 03       		.byte	0x3
 8524 228d 68040000 		.4byte	.LC106
 8525 2291 00       		.byte	0
 8526 2292 1B       		.uleb128 0x1b
 8527 2293 280D0000 		.4byte	.LVL407
 8528 2297 C9020000 		.4byte	0x2c9
 8529 229b AC220000 		.4byte	0x22ac
 8530 229f 1A       		.uleb128 0x1a
 8531 22a0 01       		.uleb128 0x1
 8532 22a1 50       		.byte	0x50
 8533 22a2 02       		.uleb128 0x2
 8534 22a3 91       		.byte	0x91
 8535 22a4 64       		.sleb128 -28
 8536 22a5 1A       		.uleb128 0x1a
 8537 22a6 01       		.uleb128 0x1
 8538 22a7 51       		.byte	0x51
 8539 22a8 02       		.uleb128 0x2
 8540 22a9 76       		.byte	0x76
 8541 22aa 00       		.sleb128 0
 8542 22ab 00       		.byte	0
 8543 22ac 1B       		.uleb128 0x1b
 8544 22ad 340D0000 		.4byte	.LVL408
 8545 22b1 C9020000 		.4byte	0x2c9
 8546 22b5 C9220000 		.4byte	0x22c9
 8547 22b9 1A       		.uleb128 0x1a
 8548 22ba 01       		.uleb128 0x1
 8549 22bb 50       		.byte	0x50
 8550 22bc 02       		.uleb128 0x2
 8551 22bd 91       		.byte	0x91
 8552 22be 64       		.sleb128 -28
 8553 22bf 1A       		.uleb128 0x1a
 8554 22c0 01       		.uleb128 0x1
ARM GAS  C:\Users\Phuong\AppData\Local\Temp\ccU7OqD6.s 			page 167


 8555 22c1 51       		.byte	0x51
 8556 22c2 05       		.uleb128 0x5
 8557 22c3 03       		.byte	0x3
 8558 22c4 6C040000 		.4byte	.LC108
 8559 22c8 00       		.byte	0
 8560 22c9 1B       		.uleb128 0x1b
 8561 22ca 400D0000 		.4byte	.LVL409
 8562 22ce C9020000 		.4byte	0x2c9
 8563 22d2 E3220000 		.4byte	0x22e3
 8564 22d6 1A       		.uleb128 0x1a
 8565 22d7 01       		.uleb128 0x1
 8566 22d8 50       		.byte	0x50
 8567 22d9 02       		.uleb128 0x2
 8568 22da 91       		.byte	0x91
 8569 22db 64       		.sleb128 -28
 8570 22dc 1A       		.uleb128 0x1a
 8571 22dd 01       		.uleb128 0x1
 8572 22de 51       		.byte	0x51
 8573 22df 02       		.uleb128 0x2
 8574 22e0 77       		.byte	0x77
 8575 22e1 00       		.sleb128 0
 8576 22e2 00       		.byte	0
 8577 22e3 1B       		.uleb128 0x1b
 8578 22e4 4C0D0000 		.4byte	.LVL410
 8579 22e8 C9020000 		.4byte	0x2c9
 8580 22ec 00230000 		.4byte	0x2300
 8581 22f0 1A       		.uleb128 0x1a
 8582 22f1 01       		.uleb128 0x1
 8583 22f2 50       		.byte	0x50
 8584 22f3 02       		.uleb128 0x2
 8585 22f4 91       		.byte	0x91
 8586 22f5 64       		.sleb128 -28
 8587 22f6 1A       		.uleb128 0x1a
 8588 22f7 01       		.uleb128 0x1
 8589 22f8 51       		.byte	0x51
 8590 22f9 05       		.uleb128 0x5
 8591 22fa 03       		.byte	0x3
 8592 22fb 70040000 		.4byte	.LC110
 8593 22ff 00       		.byte	0
 8594 2300 1B       		.uleb128 0x1b
 8595 2301 720D0000 		.4byte	.LVL415
 8596 2305 872B0000 		.4byte	0x2b87
 8597 2309 14230000 		.4byte	0x2314
 8598 230d 1A       		.uleb128 0x1a
 8599 230e 01       		.uleb128 0x1
 8600 230f 50       		.byte	0x50
 8601 2310 02       		.uleb128 0x2
 8602 2311 76       		.byte	0x76
 8603 2312 00       		.sleb128 0
 8604 2313 00       		.byte	0
 8605 2314 1B       		.uleb128 0x1b
 8606 2315 780D0000 		.4byte	.LVL416
 8607 2319 872B0000 		.4byte	0x2b87
 8608 231d 28230000 		.4byte	0x2328
 8609 2321 1A       		.uleb128 0x1a
 8610 2322 01       		.uleb128 0x1
 8611 2323 50       		.byte	0x50
ARM GAS  C:\Users\Phuong\AppData\Local\Temp\ccU7OqD6.s 			page 168


 8612 2324 02       		.uleb128 0x2
 8613 2325 77       		.byte	0x77
 8614 2326 00       		.sleb128 0
 8615 2327 00       		.byte	0
 8616 2328 18       		.uleb128 0x18
 8617 2329 7E0D0000 		.4byte	.LVL417
 8618 232d 632C0000 		.4byte	0x2c63
 8619 2331 18       		.uleb128 0x18
 8620 2332 840D0000 		.4byte	.LVL418
 8621 2336 632C0000 		.4byte	0x2c63
 8622 233a 1B       		.uleb128 0x1b
 8623 233b 8C0D0000 		.4byte	.LVL420
 8624 233f 872B0000 		.4byte	0x2b87
 8625 2343 4E230000 		.4byte	0x234e
 8626 2347 1A       		.uleb128 0x1a
 8627 2348 01       		.uleb128 0x1
 8628 2349 50       		.byte	0x50
 8629 234a 02       		.uleb128 0x2
 8630 234b 77       		.byte	0x77
 8631 234c 00       		.sleb128 0
 8632 234d 00       		.byte	0
 8633 234e 1C       		.uleb128 0x1c
 8634 234f 920D0000 		.4byte	.LVL421
 8635 2353 872B0000 		.4byte	0x2b87
 8636 2357 1A       		.uleb128 0x1a
 8637 2358 01       		.uleb128 0x1
 8638 2359 50       		.byte	0x50
 8639 235a 02       		.uleb128 0x2
 8640 235b 76       		.byte	0x76
 8641 235c 00       		.sleb128 0
 8642 235d 00       		.byte	0
 8643 235e 00       		.byte	0
 8644 235f 18       		.uleb128 0x18
 8645 2360 940C0000 		.4byte	.LVL384
 8646 2364 1E040000 		.4byte	0x41e
 8647 2368 18       		.uleb128 0x18
 8648 2369 BC0C0000 		.4byte	.LVL390
 8649 236d 632C0000 		.4byte	0x2c63
 8650 2371 18       		.uleb128 0x18
 8651 2372 C20C0000 		.4byte	.LVL391
 8652 2376 632C0000 		.4byte	0x2c63
 8653 237a 18       		.uleb128 0x18
 8654 237b 980D0000 		.4byte	.LVL422
 8655 237f 632C0000 		.4byte	0x2c63
 8656 2383 18       		.uleb128 0x18
 8657 2384 9E0D0000 		.4byte	.LVL423
 8658 2388 632C0000 		.4byte	0x2c63
 8659 238c 00       		.byte	0
 8660 238d 1C       		.uleb128 0x1c
 8661 238e 680C0000 		.4byte	.LVL378
 8662 2392 842C0000 		.4byte	0x2c84
 8663 2396 1A       		.uleb128 0x1a
 8664 2397 01       		.uleb128 0x1
 8665 2398 50       		.byte	0x50
 8666 2399 02       		.uleb128 0x2
 8667 239a 74       		.byte	0x74
 8668 239b 00       		.sleb128 0
ARM GAS  C:\Users\Phuong\AppData\Local\Temp\ccU7OqD6.s 			page 169


 8669 239c 1A       		.uleb128 0x1a
 8670 239d 01       		.uleb128 0x1
 8671 239e 51       		.byte	0x51
 8672 239f 02       		.uleb128 0x2
 8673 23a0 75       		.byte	0x75
 8674 23a1 00       		.sleb128 0
 8675 23a2 1A       		.uleb128 0x1a
 8676 23a3 01       		.uleb128 0x1
 8677 23a4 52       		.byte	0x52
 8678 23a5 02       		.uleb128 0x2
 8679 23a6 91       		.byte	0x91
 8680 23a7 40       		.sleb128 -64
 8681 23a8 1A       		.uleb128 0x1a
 8682 23a9 01       		.uleb128 0x1
 8683 23aa 53       		.byte	0x53
 8684 23ab 02       		.uleb128 0x2
 8685 23ac 91       		.byte	0x91
 8686 23ad 48       		.sleb128 -56
 8687 23ae 00       		.byte	0
 8688 23af 00       		.byte	0
 8689 23b0 16       		.uleb128 0x16
 8690 23b1 CC0D0000 		.4byte	.LBB88
 8691 23b5 1C000000 		.4byte	.LBE88-.LBB88
 8692 23b9 0C240000 		.4byte	0x240c
 8693 23bd 21       		.uleb128 0x21
 8694 23be 6C00     		.ascii	"l\000"
 8695 23c0 01       		.byte	0x1
 8696 23c1 5602     		.2byte	0x256
 8697 23c3 7B010000 		.4byte	0x17b
 8698 23c7 FF0D0000 		.4byte	.LLST67
 8699 23cb 18       		.uleb128 0x18
 8700 23cc D00D0000 		.4byte	.LVL430
 8701 23d0 522B0000 		.4byte	0x2b52
 8702 23d4 19       		.uleb128 0x19
 8703 23d5 E80D0000 		.4byte	.LVL433
 8704 23d9 02       		.uleb128 0x2
 8705 23da 74       		.byte	0x74
 8706 23db 00       		.sleb128 0
 8707 23dc 1A       		.uleb128 0x1a
 8708 23dd 01       		.uleb128 0x1
 8709 23de 50       		.byte	0x50
 8710 23df 01       		.uleb128 0x1
 8711 23e0 30       		.byte	0x30
 8712 23e1 1A       		.uleb128 0x1a
 8713 23e2 01       		.uleb128 0x1
 8714 23e3 51       		.byte	0x51
 8715 23e4 05       		.uleb128 0x5
 8716 23e5 03       		.byte	0x3
 8717 23e6 00000000 		.4byte	.LC1
 8718 23ea 1A       		.uleb128 0x1a
 8719 23eb 01       		.uleb128 0x1
 8720 23ec 52       		.byte	0x52
 8721 23ed 05       		.uleb128 0x5
 8722 23ee 03       		.byte	0x3
 8723 23ef 6C000000 		.4byte	.LANCHOR0+16
 8724 23f3 1A       		.uleb128 0x1a
 8725 23f4 01       		.uleb128 0x1
ARM GAS  C:\Users\Phuong\AppData\Local\Temp\ccU7OqD6.s 			page 170


 8726 23f5 53       		.byte	0x53
 8727 23f6 03       		.uleb128 0x3
 8728 23f7 0A       		.byte	0xa
 8729 23f8 5602     		.2byte	0x256
 8730 23fa 1A       		.uleb128 0x1a
 8731 23fb 02       		.uleb128 0x2
 8732 23fc 7D       		.byte	0x7d
 8733 23fd 00       		.sleb128 0
 8734 23fe 01       		.uleb128 0x1
 8735 23ff 31       		.byte	0x31
 8736 2400 1A       		.uleb128 0x1a
 8737 2401 02       		.uleb128 0x2
 8738 2402 7D       		.byte	0x7d
 8739 2403 04       		.sleb128 4
 8740 2404 05       		.uleb128 0x5
 8741 2405 03       		.byte	0x3
 8742 2406 98000000 		.4byte	.LC20
 8743 240a 00       		.byte	0
 8744 240b 00       		.byte	0
 8745 240c 18       		.uleb128 0x18
 8746 240d B80D0000 		.4byte	.LVL428
 8747 2411 872B0000 		.4byte	0x2b87
 8748 2415 1B       		.uleb128 0x1b
 8749 2416 C60D0000 		.4byte	.LVL429
 8750 241a C9020000 		.4byte	0x2c9
 8751 241e 32240000 		.4byte	0x2432
 8752 2422 1A       		.uleb128 0x1a
 8753 2423 01       		.uleb128 0x1
 8754 2424 50       		.byte	0x50
 8755 2425 02       		.uleb128 0x2
 8756 2426 91       		.byte	0x91
 8757 2427 64       		.sleb128 -28
 8758 2428 1A       		.uleb128 0x1a
 8759 2429 01       		.uleb128 0x1
 8760 242a 51       		.byte	0x51
 8761 242b 05       		.uleb128 0x5
 8762 242c 03       		.byte	0x3
 8763 242d B8030000 		.4byte	.LC96
 8764 2431 00       		.byte	0
 8765 2432 18       		.uleb128 0x18
 8766 2433 EE0D0000 		.4byte	.LVL434
 8767 2437 872B0000 		.4byte	0x2b87
 8768 243b 00       		.byte	0
 8769 243c 1B       		.uleb128 0x1b
 8770 243d FA0B0000 		.4byte	.LVL364
 8771 2441 8F2C0000 		.4byte	0x2c8f
 8772 2445 57240000 		.4byte	0x2457
 8773 2449 1A       		.uleb128 0x1a
 8774 244a 01       		.uleb128 0x1
 8775 244b 50       		.byte	0x50
 8776 244c 02       		.uleb128 0x2
 8777 244d 74       		.byte	0x74
 8778 244e 00       		.sleb128 0
 8779 244f 1A       		.uleb128 0x1a
 8780 2450 01       		.uleb128 0x1
 8781 2451 51       		.byte	0x51
 8782 2452 03       		.uleb128 0x3
ARM GAS  C:\Users\Phuong\AppData\Local\Temp\ccU7OqD6.s 			page 171


 8783 2453 91       		.byte	0x91
 8784 2454 BC7F     		.sleb128 -68
 8785 2456 00       		.byte	0
 8786 2457 18       		.uleb128 0x18
 8787 2458 200C0000 		.4byte	.LVL369
 8788 245c 872B0000 		.4byte	0x2b87
 8789 2460 1B       		.uleb128 0x1b
 8790 2461 2E0C0000 		.4byte	.LVL371
 8791 2465 C9020000 		.4byte	0x2c9
 8792 2469 7D240000 		.4byte	0x247d
 8793 246d 1A       		.uleb128 0x1a
 8794 246e 01       		.uleb128 0x1
 8795 246f 50       		.byte	0x50
 8796 2470 02       		.uleb128 0x2
 8797 2471 91       		.byte	0x91
 8798 2472 64       		.sleb128 -28
 8799 2473 1A       		.uleb128 0x1a
 8800 2474 01       		.uleb128 0x1
 8801 2475 51       		.byte	0x51
 8802 2476 05       		.uleb128 0x5
 8803 2477 03       		.byte	0x3
 8804 2478 64030000 		.4byte	.LC88
 8805 247c 00       		.byte	0
 8806 247d 18       		.uleb128 0x18
 8807 247e 560C0000 		.4byte	.LVL376
 8808 2482 872B0000 		.4byte	0x2b87
 8809 2486 00       		.byte	0
 8810 2487 16       		.uleb128 0x16
 8811 2488 F40D0000 		.4byte	.LBB90
 8812 248c C8010000 		.4byte	.LBE90-.LBB90
 8813 2490 3D280000 		.4byte	0x283d
 8814 2494 20       		.uleb128 0x20
 8815 2495 12020000 		.4byte	.LASF82
 8816 2499 01       		.byte	0x1
 8817 249a 5F02     		.2byte	0x25f
 8818 249c 2C010000 		.4byte	0x12c
 8819 24a0 02       		.uleb128 0x2
 8820 24a1 91       		.byte	0x91
 8821 24a2 48       		.sleb128 -56
 8822 24a3 16       		.uleb128 0x16
 8823 24a4 000E0000 		.4byte	.LBB91
 8824 24a8 1C000000 		.4byte	.LBE91-.LBB91
 8825 24ac FF240000 		.4byte	0x24ff
 8826 24b0 21       		.uleb128 0x21
 8827 24b1 6C00     		.ascii	"l\000"
 8828 24b3 01       		.byte	0x1
 8829 24b4 6202     		.2byte	0x262
 8830 24b6 7B010000 		.4byte	0x17b
 8831 24ba 1D0E0000 		.4byte	.LLST68
 8832 24be 18       		.uleb128 0x18
 8833 24bf 040E0000 		.4byte	.LVL437
 8834 24c3 522B0000 		.4byte	0x2b52
 8835 24c7 19       		.uleb128 0x19
 8836 24c8 1C0E0000 		.4byte	.LVL440
 8837 24cc 02       		.uleb128 0x2
 8838 24cd 74       		.byte	0x74
 8839 24ce 00       		.sleb128 0
ARM GAS  C:\Users\Phuong\AppData\Local\Temp\ccU7OqD6.s 			page 172


 8840 24cf 1A       		.uleb128 0x1a
 8841 24d0 01       		.uleb128 0x1
 8842 24d1 50       		.byte	0x50
 8843 24d2 01       		.uleb128 0x1
 8844 24d3 30       		.byte	0x30
 8845 24d4 1A       		.uleb128 0x1a
 8846 24d5 01       		.uleb128 0x1
 8847 24d6 51       		.byte	0x51
 8848 24d7 05       		.uleb128 0x5
 8849 24d8 03       		.byte	0x3
 8850 24d9 00000000 		.4byte	.LC1
 8851 24dd 1A       		.uleb128 0x1a
 8852 24de 01       		.uleb128 0x1
 8853 24df 52       		.byte	0x52
 8854 24e0 05       		.uleb128 0x5
 8855 24e1 03       		.byte	0x3
 8856 24e2 6C000000 		.4byte	.LANCHOR0+16
 8857 24e6 1A       		.uleb128 0x1a
 8858 24e7 01       		.uleb128 0x1
 8859 24e8 53       		.byte	0x53
 8860 24e9 03       		.uleb128 0x3
 8861 24ea 0A       		.byte	0xa
 8862 24eb 6202     		.2byte	0x262
 8863 24ed 1A       		.uleb128 0x1a
 8864 24ee 02       		.uleb128 0x2
 8865 24ef 7D       		.byte	0x7d
 8866 24f0 00       		.sleb128 0
 8867 24f1 01       		.uleb128 0x1
 8868 24f2 31       		.byte	0x31
 8869 24f3 1A       		.uleb128 0x1a
 8870 24f4 02       		.uleb128 0x2
 8871 24f5 7D       		.byte	0x7d
 8872 24f6 04       		.sleb128 4
 8873 24f7 05       		.uleb128 0x5
 8874 24f8 03       		.byte	0x3
 8875 24f9 74040000 		.4byte	.LC112
 8876 24fd 00       		.byte	0
 8877 24fe 00       		.byte	0
 8878 24ff 16       		.uleb128 0x16
 8879 2500 900E0000 		.4byte	.LBB92
 8880 2504 1E000000 		.4byte	.LBE92-.LBB92
 8881 2508 5B250000 		.4byte	0x255b
 8882 250c 21       		.uleb128 0x21
 8883 250d 6C00     		.ascii	"l\000"
 8884 250f 01       		.byte	0x1
 8885 2510 6802     		.2byte	0x268
 8886 2512 7B010000 		.4byte	0x17b
 8887 2516 3B0E0000 		.4byte	.LLST69
 8888 251a 18       		.uleb128 0x18
 8889 251b 940E0000 		.4byte	.LVL444
 8890 251f 522B0000 		.4byte	0x2b52
 8891 2523 19       		.uleb128 0x19
 8892 2524 AE0E0000 		.4byte	.LVL447
 8893 2528 02       		.uleb128 0x2
 8894 2529 74       		.byte	0x74
 8895 252a 00       		.sleb128 0
 8896 252b 1A       		.uleb128 0x1a
ARM GAS  C:\Users\Phuong\AppData\Local\Temp\ccU7OqD6.s 			page 173


 8897 252c 01       		.uleb128 0x1
 8898 252d 50       		.byte	0x50
 8899 252e 01       		.uleb128 0x1
 8900 252f 30       		.byte	0x30
 8901 2530 1A       		.uleb128 0x1a
 8902 2531 01       		.uleb128 0x1
 8903 2532 51       		.byte	0x51
 8904 2533 05       		.uleb128 0x5
 8905 2534 03       		.byte	0x3
 8906 2535 00000000 		.4byte	.LC1
 8907 2539 1A       		.uleb128 0x1a
 8908 253a 01       		.uleb128 0x1
 8909 253b 52       		.byte	0x52
 8910 253c 05       		.uleb128 0x5
 8911 253d 03       		.byte	0x3
 8912 253e 6C000000 		.4byte	.LANCHOR0+16
 8913 2542 1A       		.uleb128 0x1a
 8914 2543 01       		.uleb128 0x1
 8915 2544 53       		.byte	0x53
 8916 2545 03       		.uleb128 0x3
 8917 2546 0A       		.byte	0xa
 8918 2547 6802     		.2byte	0x268
 8919 2549 1A       		.uleb128 0x1a
 8920 254a 02       		.uleb128 0x2
 8921 254b 7D       		.byte	0x7d
 8922 254c 00       		.sleb128 0
 8923 254d 01       		.uleb128 0x1
 8924 254e 31       		.byte	0x31
 8925 254f 1A       		.uleb128 0x1a
 8926 2550 02       		.uleb128 0x2
 8927 2551 7D       		.byte	0x7d
 8928 2552 04       		.sleb128 4
 8929 2553 05       		.uleb128 0x5
 8930 2554 03       		.byte	0x3
 8931 2555 98000000 		.4byte	.LC20
 8932 2559 00       		.byte	0
 8933 255a 00       		.byte	0
 8934 255b 23       		.uleb128 0x23
 8935 255c 48000000 		.4byte	.Ldebug_ranges0+0x48
 8936 2560 F3270000 		.4byte	0x27f3
 8937 2564 21       		.uleb128 0x21
 8938 2565 6900     		.ascii	"i\000"
 8939 2567 01       		.byte	0x1
 8940 2568 6E02     		.2byte	0x26e
 8941 256a 2C010000 		.4byte	0x12c
 8942 256e 590E0000 		.4byte	.LLST70
 8943 2572 16       		.uleb128 0x16
 8944 2573 BA0E0000 		.4byte	.LBB94
 8945 2577 AE000000 		.4byte	.LBE94-.LBB94
 8946 257b 67270000 		.4byte	0x2767
 8947 257f 22       		.uleb128 0x22
 8948 2580 E0070000 		.4byte	.LASF83
 8949 2584 01       		.byte	0x1
 8950 2585 7102     		.2byte	0x271
 8951 2587 78020000 		.4byte	0x278
 8952 258b 770E0000 		.4byte	.LLST71
 8953 258f 16       		.uleb128 0x16
ARM GAS  C:\Users\Phuong\AppData\Local\Temp\ccU7OqD6.s 			page 174


 8954 2590 C60E0000 		.4byte	.LBB95
 8955 2594 22000000 		.4byte	.LBE95-.LBB95
 8956 2598 F2250000 		.4byte	0x25f2
 8957 259c 21       		.uleb128 0x21
 8958 259d 6C00     		.ascii	"l\000"
 8959 259f 01       		.byte	0x1
 8960 25a0 7402     		.2byte	0x274
 8961 25a2 7B010000 		.4byte	0x17b
 8962 25a6 AB0E0000 		.4byte	.LLST72
 8963 25aa 18       		.uleb128 0x18
 8964 25ab CA0E0000 		.4byte	.LVL452
 8965 25af 522B0000 		.4byte	0x2b52
 8966 25b3 19       		.uleb128 0x19
 8967 25b4 E60E0000 		.4byte	.LVL455
 8968 25b8 02       		.uleb128 0x2
 8969 25b9 74       		.byte	0x74
 8970 25ba 00       		.sleb128 0
 8971 25bb 1A       		.uleb128 0x1a
 8972 25bc 01       		.uleb128 0x1
 8973 25bd 50       		.byte	0x50
 8974 25be 01       		.uleb128 0x1
 8975 25bf 30       		.byte	0x30
 8976 25c0 1A       		.uleb128 0x1a
 8977 25c1 01       		.uleb128 0x1
 8978 25c2 51       		.byte	0x51
 8979 25c3 05       		.uleb128 0x5
 8980 25c4 03       		.byte	0x3
 8981 25c5 00000000 		.4byte	.LC1
 8982 25c9 1A       		.uleb128 0x1a
 8983 25ca 01       		.uleb128 0x1
 8984 25cb 52       		.byte	0x52
 8985 25cc 05       		.uleb128 0x5
 8986 25cd 03       		.byte	0x3
 8987 25ce 6C000000 		.4byte	.LANCHOR0+16
 8988 25d2 1A       		.uleb128 0x1a
 8989 25d3 01       		.uleb128 0x1
 8990 25d4 53       		.byte	0x53
 8991 25d5 03       		.uleb128 0x3
 8992 25d6 0A       		.byte	0xa
 8993 25d7 7402     		.2byte	0x274
 8994 25d9 1A       		.uleb128 0x1a
 8995 25da 02       		.uleb128 0x2
 8996 25db 7D       		.byte	0x7d
 8997 25dc 00       		.sleb128 0
 8998 25dd 01       		.uleb128 0x1
 8999 25de 31       		.byte	0x31
 9000 25df 1A       		.uleb128 0x1a
 9001 25e0 02       		.uleb128 0x2
 9002 25e1 7D       		.byte	0x7d
 9003 25e2 04       		.sleb128 4
 9004 25e3 05       		.uleb128 0x5
 9005 25e4 03       		.byte	0x3
 9006 25e5 98040000 		.4byte	.LC114
 9007 25e9 1A       		.uleb128 0x1a
 9008 25ea 02       		.uleb128 0x2
 9009 25eb 7D       		.byte	0x7d
 9010 25ec 08       		.sleb128 8
ARM GAS  C:\Users\Phuong\AppData\Local\Temp\ccU7OqD6.s 			page 175


 9011 25ed 02       		.uleb128 0x2
 9012 25ee 75       		.byte	0x75
 9013 25ef 00       		.sleb128 0
 9014 25f0 00       		.byte	0
 9015 25f1 00       		.byte	0
 9016 25f2 16       		.uleb128 0x16
 9017 25f3 E80E0000 		.4byte	.LBB96
 9018 25f7 80000000 		.4byte	.LBE96-.LBB96
 9019 25fb 50270000 		.4byte	0x2750
 9020 25ff 22       		.uleb128 0x22
 9021 2600 5D050000 		.4byte	.LASF84
 9022 2604 01       		.byte	0x1
 9023 2605 7902     		.2byte	0x279
 9024 2607 D1000000 		.4byte	0xd1
 9025 260b C90E0000 		.4byte	.LLST73
 9026 260f 16       		.uleb128 0x16
 9027 2610 F00E0000 		.4byte	.LBB97
 9028 2614 20000000 		.4byte	.LBE97-.LBB97
 9029 2618 72260000 		.4byte	0x2672
 9030 261c 21       		.uleb128 0x21
 9031 261d 6C00     		.ascii	"l\000"
 9032 261f 01       		.byte	0x1
 9033 2620 7C02     		.2byte	0x27c
 9034 2622 7B010000 		.4byte	0x17b
 9035 2626 FD0E0000 		.4byte	.LLST74
 9036 262a 18       		.uleb128 0x18
 9037 262b F40E0000 		.4byte	.LVL459
 9038 262f 522B0000 		.4byte	0x2b52
 9039 2633 19       		.uleb128 0x19
 9040 2634 100F0000 		.4byte	.LVL462
 9041 2638 02       		.uleb128 0x2
 9042 2639 74       		.byte	0x74
 9043 263a 00       		.sleb128 0
 9044 263b 1A       		.uleb128 0x1a
 9045 263c 01       		.uleb128 0x1
 9046 263d 50       		.byte	0x50
 9047 263e 01       		.uleb128 0x1
 9048 263f 30       		.byte	0x30
 9049 2640 1A       		.uleb128 0x1a
 9050 2641 01       		.uleb128 0x1
 9051 2642 51       		.byte	0x51
 9052 2643 05       		.uleb128 0x5
 9053 2644 03       		.byte	0x3
 9054 2645 00000000 		.4byte	.LC1
 9055 2649 1A       		.uleb128 0x1a
 9056 264a 01       		.uleb128 0x1
 9057 264b 52       		.byte	0x52
 9058 264c 05       		.uleb128 0x5
 9059 264d 03       		.byte	0x3
 9060 264e 6C000000 		.4byte	.LANCHOR0+16
 9061 2652 1A       		.uleb128 0x1a
 9062 2653 01       		.uleb128 0x1
 9063 2654 53       		.byte	0x53
 9064 2655 03       		.uleb128 0x3
 9065 2656 0A       		.byte	0xa
 9066 2657 7C02     		.2byte	0x27c
 9067 2659 1A       		.uleb128 0x1a
ARM GAS  C:\Users\Phuong\AppData\Local\Temp\ccU7OqD6.s 			page 176


 9068 265a 02       		.uleb128 0x2
 9069 265b 7D       		.byte	0x7d
 9070 265c 00       		.sleb128 0
 9071 265d 01       		.uleb128 0x1
 9072 265e 31       		.byte	0x31
 9073 265f 1A       		.uleb128 0x1a
 9074 2660 02       		.uleb128 0x2
 9075 2661 7D       		.byte	0x7d
 9076 2662 04       		.sleb128 4
 9077 2663 05       		.uleb128 0x5
 9078 2664 03       		.byte	0x3
 9079 2665 C0040000 		.4byte	.LC116
 9080 2669 1A       		.uleb128 0x1a
 9081 266a 02       		.uleb128 0x2
 9082 266b 7D       		.byte	0x7d
 9083 266c 08       		.sleb128 8
 9084 266d 02       		.uleb128 0x2
 9085 266e 75       		.byte	0x75
 9086 266f 00       		.sleb128 0
 9087 2670 00       		.byte	0
 9088 2671 00       		.byte	0
 9089 2672 16       		.uleb128 0x16
 9090 2673 340F0000 		.4byte	.LBB98
 9091 2677 1C000000 		.4byte	.LBE98-.LBB98
 9092 267b CE260000 		.4byte	0x26ce
 9093 267f 21       		.uleb128 0x21
 9094 2680 6C00     		.ascii	"l\000"
 9095 2682 01       		.byte	0x1
 9096 2683 8502     		.2byte	0x285
 9097 2685 7B010000 		.4byte	0x17b
 9098 2689 1B0F0000 		.4byte	.LLST75
 9099 268d 18       		.uleb128 0x18
 9100 268e 380F0000 		.4byte	.LVL468
 9101 2692 522B0000 		.4byte	0x2b52
 9102 2696 19       		.uleb128 0x19
 9103 2697 500F0000 		.4byte	.LVL471
 9104 269b 02       		.uleb128 0x2
 9105 269c 74       		.byte	0x74
 9106 269d 00       		.sleb128 0
 9107 269e 1A       		.uleb128 0x1a
 9108 269f 01       		.uleb128 0x1
 9109 26a0 50       		.byte	0x50
 9110 26a1 01       		.uleb128 0x1
 9111 26a2 30       		.byte	0x30
 9112 26a3 1A       		.uleb128 0x1a
 9113 26a4 01       		.uleb128 0x1
 9114 26a5 51       		.byte	0x51
 9115 26a6 05       		.uleb128 0x5
 9116 26a7 03       		.byte	0x3
 9117 26a8 00000000 		.4byte	.LC1
 9118 26ac 1A       		.uleb128 0x1a
 9119 26ad 01       		.uleb128 0x1
 9120 26ae 52       		.byte	0x52
 9121 26af 05       		.uleb128 0x5
 9122 26b0 03       		.byte	0x3
 9123 26b1 6C000000 		.4byte	.LANCHOR0+16
 9124 26b5 1A       		.uleb128 0x1a
ARM GAS  C:\Users\Phuong\AppData\Local\Temp\ccU7OqD6.s 			page 177


 9125 26b6 01       		.uleb128 0x1
 9126 26b7 53       		.byte	0x53
 9127 26b8 03       		.uleb128 0x3
 9128 26b9 0A       		.byte	0xa
 9129 26ba 8502     		.2byte	0x285
 9130 26bc 1A       		.uleb128 0x1a
 9131 26bd 02       		.uleb128 0x2
 9132 26be 7D       		.byte	0x7d
 9133 26bf 00       		.sleb128 0
 9134 26c0 01       		.uleb128 0x1
 9135 26c1 31       		.byte	0x31
 9136 26c2 1A       		.uleb128 0x1a
 9137 26c3 02       		.uleb128 0x2
 9138 26c4 7D       		.byte	0x7d
 9139 26c5 04       		.sleb128 4
 9140 26c6 05       		.uleb128 0x5
 9141 26c7 03       		.byte	0x3
 9142 26c8 98000000 		.4byte	.LC20
 9143 26cc 00       		.byte	0
 9144 26cd 00       		.byte	0
 9145 26ce 18       		.uleb128 0x18
 9146 26cf EC0E0000 		.4byte	.LVL457
 9147 26d3 1E040000 		.4byte	0x41e
 9148 26d7 1B       		.uleb128 0x1b
 9149 26d8 160F0000 		.4byte	.LVL463
 9150 26dc 632C0000 		.4byte	0x2c63
 9151 26e0 EB260000 		.4byte	0x26eb
 9152 26e4 1A       		.uleb128 0x1a
 9153 26e5 01       		.uleb128 0x1
 9154 26e6 50       		.byte	0x50
 9155 26e7 02       		.uleb128 0x2
 9156 26e8 76       		.byte	0x76
 9157 26e9 00       		.sleb128 0
 9158 26ea 00       		.byte	0
 9159 26eb 1B       		.uleb128 0x1b
 9160 26ec 240F0000 		.4byte	.LVL466
 9161 26f0 C9020000 		.4byte	0x2c9
 9162 26f4 08270000 		.4byte	0x2708
 9163 26f8 1A       		.uleb128 0x1a
 9164 26f9 01       		.uleb128 0x1
 9165 26fa 50       		.byte	0x50
 9166 26fb 02       		.uleb128 0x2
 9167 26fc 91       		.byte	0x91
 9168 26fd 64       		.sleb128 -28
 9169 26fe 1A       		.uleb128 0x1a
 9170 26ff 01       		.uleb128 0x1
 9171 2700 51       		.byte	0x51
 9172 2701 05       		.uleb128 0x5
 9173 2702 03       		.byte	0x3
 9174 2703 B4030000 		.4byte	.LC94
 9175 2707 00       		.byte	0
 9176 2708 1B       		.uleb128 0x1b
 9177 2709 300F0000 		.4byte	.LVL467
 9178 270d C9020000 		.4byte	0x2c9
 9179 2711 22270000 		.4byte	0x2722
 9180 2715 1A       		.uleb128 0x1a
 9181 2716 01       		.uleb128 0x1
ARM GAS  C:\Users\Phuong\AppData\Local\Temp\ccU7OqD6.s 			page 178


 9182 2717 50       		.byte	0x50
 9183 2718 02       		.uleb128 0x2
 9184 2719 91       		.byte	0x91
 9185 271a 64       		.sleb128 -28
 9186 271b 1A       		.uleb128 0x1a
 9187 271c 01       		.uleb128 0x1
 9188 271d 51       		.byte	0x51
 9189 271e 02       		.uleb128 0x2
 9190 271f 77       		.byte	0x77
 9191 2720 00       		.sleb128 0
 9192 2721 00       		.byte	0
 9193 2722 18       		.uleb128 0x18
 9194 2723 560F0000 		.4byte	.LVL472
 9195 2727 872B0000 		.4byte	0x2b87
 9196 272b 1B       		.uleb128 0x1b
 9197 272c 620F0000 		.4byte	.LVL474
 9198 2730 872B0000 		.4byte	0x2b87
 9199 2734 3F270000 		.4byte	0x273f
 9200 2738 1A       		.uleb128 0x1a
 9201 2739 01       		.uleb128 0x1
 9202 273a 50       		.byte	0x50
 9203 273b 02       		.uleb128 0x2
 9204 273c 77       		.byte	0x77
 9205 273d 00       		.sleb128 0
 9206 273e 00       		.byte	0
 9207 273f 1C       		.uleb128 0x1c
 9208 2740 680F0000 		.4byte	.LVL475
 9209 2744 632C0000 		.4byte	0x2c63
 9210 2748 1A       		.uleb128 0x1a
 9211 2749 01       		.uleb128 0x1
 9212 274a 50       		.byte	0x50
 9213 274b 02       		.uleb128 0x2
 9214 274c 76       		.byte	0x76
 9215 274d 00       		.sleb128 0
 9216 274e 00       		.byte	0
 9217 274f 00       		.byte	0
 9218 2750 1C       		.uleb128 0x1c
 9219 2751 C20E0000 		.4byte	.LVL450
 9220 2755 9A2C0000 		.4byte	0x2c9a
 9221 2759 1A       		.uleb128 0x1a
 9222 275a 01       		.uleb128 0x1
 9223 275b 50       		.byte	0x50
 9224 275c 02       		.uleb128 0x2
 9225 275d 74       		.byte	0x74
 9226 275e 00       		.sleb128 0
 9227 275f 1A       		.uleb128 0x1a
 9228 2760 01       		.uleb128 0x1
 9229 2761 51       		.byte	0x51
 9230 2762 02       		.uleb128 0x2
 9231 2763 75       		.byte	0x75
 9232 2764 00       		.sleb128 0
 9233 2765 00       		.byte	0
 9234 2766 00       		.byte	0
 9235 2767 16       		.uleb128 0x16
 9236 2768 940F0000 		.4byte	.LBB99
 9237 276c 1C000000 		.4byte	.LBE99-.LBB99
 9238 2770 C3270000 		.4byte	0x27c3
ARM GAS  C:\Users\Phuong\AppData\Local\Temp\ccU7OqD6.s 			page 179


 9239 2774 21       		.uleb128 0x21
 9240 2775 6C00     		.ascii	"l\000"
 9241 2777 01       		.byte	0x1
 9242 2778 9A02     		.2byte	0x29a
 9243 277a 7B010000 		.4byte	0x17b
 9244 277e 390F0000 		.4byte	.LLST76
 9245 2782 18       		.uleb128 0x18
 9246 2783 980F0000 		.4byte	.LVL482
 9247 2787 522B0000 		.4byte	0x2b52
 9248 278b 19       		.uleb128 0x19
 9249 278c B00F0000 		.4byte	.LVL485
 9250 2790 02       		.uleb128 0x2
 9251 2791 74       		.byte	0x74
 9252 2792 00       		.sleb128 0
 9253 2793 1A       		.uleb128 0x1a
 9254 2794 01       		.uleb128 0x1
 9255 2795 50       		.byte	0x50
 9256 2796 01       		.uleb128 0x1
 9257 2797 30       		.byte	0x30
 9258 2798 1A       		.uleb128 0x1a
 9259 2799 01       		.uleb128 0x1
 9260 279a 51       		.byte	0x51
 9261 279b 05       		.uleb128 0x5
 9262 279c 03       		.byte	0x3
 9263 279d 00000000 		.4byte	.LC1
 9264 27a1 1A       		.uleb128 0x1a
 9265 27a2 01       		.uleb128 0x1
 9266 27a3 52       		.byte	0x52
 9267 27a4 05       		.uleb128 0x5
 9268 27a5 03       		.byte	0x3
 9269 27a6 6C000000 		.4byte	.LANCHOR0+16
 9270 27aa 1A       		.uleb128 0x1a
 9271 27ab 01       		.uleb128 0x1
 9272 27ac 53       		.byte	0x53
 9273 27ad 03       		.uleb128 0x3
 9274 27ae 0A       		.byte	0xa
 9275 27af 9A02     		.2byte	0x29a
 9276 27b1 1A       		.uleb128 0x1a
 9277 27b2 02       		.uleb128 0x2
 9278 27b3 7D       		.byte	0x7d
 9279 27b4 00       		.sleb128 0
 9280 27b5 01       		.uleb128 0x1
 9281 27b6 31       		.byte	0x31
 9282 27b7 1A       		.uleb128 0x1a
 9283 27b8 02       		.uleb128 0x2
 9284 27b9 7D       		.byte	0x7d
 9285 27ba 04       		.sleb128 4
 9286 27bb 05       		.uleb128 0x5
 9287 27bc 03       		.byte	0x3
 9288 27bd 98000000 		.4byte	.LC20
 9289 27c1 00       		.byte	0
 9290 27c2 00       		.byte	0
 9291 27c3 18       		.uleb128 0x18
 9292 27c4 800F0000 		.4byte	.LVL480
 9293 27c8 872B0000 		.4byte	0x2b87
 9294 27cc 1B       		.uleb128 0x1b
 9295 27cd 8E0F0000 		.4byte	.LVL481
ARM GAS  C:\Users\Phuong\AppData\Local\Temp\ccU7OqD6.s 			page 180


 9296 27d1 C9020000 		.4byte	0x2c9
 9297 27d5 E9270000 		.4byte	0x27e9
 9298 27d9 1A       		.uleb128 0x1a
 9299 27da 01       		.uleb128 0x1
 9300 27db 50       		.byte	0x50
 9301 27dc 02       		.uleb128 0x2
 9302 27dd 91       		.byte	0x91
 9303 27de 64       		.sleb128 -28
 9304 27df 1A       		.uleb128 0x1a
 9305 27e0 01       		.uleb128 0x1
 9306 27e1 51       		.byte	0x51
 9307 27e2 05       		.uleb128 0x5
 9308 27e3 03       		.byte	0x3
 9309 27e4 B8030000 		.4byte	.LC96
 9310 27e8 00       		.byte	0
 9311 27e9 18       		.uleb128 0x18
 9312 27ea B60F0000 		.4byte	.LVL486
 9313 27ee 872B0000 		.4byte	0x2b87
 9314 27f2 00       		.byte	0
 9315 27f3 1B       		.uleb128 0x1b
 9316 27f4 FC0D0000 		.4byte	.LVL436
 9317 27f8 A52C0000 		.4byte	0x2ca5
 9318 27fc 0D280000 		.4byte	0x280d
 9319 2800 1A       		.uleb128 0x1a
 9320 2801 01       		.uleb128 0x1
 9321 2802 50       		.byte	0x50
 9322 2803 02       		.uleb128 0x2
 9323 2804 74       		.byte	0x74
 9324 2805 00       		.sleb128 0
 9325 2806 1A       		.uleb128 0x1a
 9326 2807 01       		.uleb128 0x1
 9327 2808 51       		.byte	0x51
 9328 2809 02       		.uleb128 0x2
 9329 280a 91       		.byte	0x91
 9330 280b 48       		.sleb128 -56
 9331 280c 00       		.byte	0
 9332 280d 18       		.uleb128 0x18
 9333 280e 220E0000 		.4byte	.LVL441
 9334 2812 872B0000 		.4byte	0x2b87
 9335 2816 1B       		.uleb128 0x1b
 9336 2817 8C0E0000 		.4byte	.LVL443
 9337 281b C9020000 		.4byte	0x2c9
 9338 281f 33280000 		.4byte	0x2833
 9339 2823 1A       		.uleb128 0x1a
 9340 2824 01       		.uleb128 0x1
 9341 2825 50       		.byte	0x50
 9342 2826 02       		.uleb128 0x2
 9343 2827 91       		.byte	0x91
 9344 2828 64       		.sleb128 -28
 9345 2829 1A       		.uleb128 0x1a
 9346 282a 01       		.uleb128 0x1
 9347 282b 51       		.byte	0x51
 9348 282c 05       		.uleb128 0x5
 9349 282d 03       		.byte	0x3
 9350 282e 64030000 		.4byte	.LC88
 9351 2832 00       		.byte	0
 9352 2833 18       		.uleb128 0x18
ARM GAS  C:\Users\Phuong\AppData\Local\Temp\ccU7OqD6.s 			page 181


 9353 2834 B40E0000 		.4byte	.LVL448
 9354 2838 872B0000 		.4byte	0x2b87
 9355 283c 00       		.byte	0
 9356 283d 16       		.uleb128 0x16
 9357 283e BC0F0000 		.4byte	.LBB101
 9358 2842 D4000000 		.4byte	.LBE101-.LBB101
 9359 2846 7C2A0000 		.4byte	0x2a7c
 9360 284a 22       		.uleb128 0x22
 9361 284b 09050000 		.4byte	.LASF87
 9362 284f 01       		.byte	0x1
 9363 2850 A402     		.2byte	0x2a4
 9364 2852 78020000 		.4byte	0x278
 9365 2856 570F0000 		.4byte	.LLST77
 9366 285a 16       		.uleb128 0x16
 9367 285b C60F0000 		.4byte	.LBB102
 9368 285f 1C000000 		.4byte	.LBE102-.LBB102
 9369 2863 B6280000 		.4byte	0x28b6
 9370 2867 21       		.uleb128 0x21
 9371 2868 6C00     		.ascii	"l\000"
 9372 286a 01       		.byte	0x1
 9373 286b A702     		.2byte	0x2a7
 9374 286d 7B010000 		.4byte	0x17b
 9375 2871 960F0000 		.4byte	.LLST78
 9376 2875 18       		.uleb128 0x18
 9377 2876 CA0F0000 		.4byte	.LVL490
 9378 287a 522B0000 		.4byte	0x2b52
 9379 287e 19       		.uleb128 0x19
 9380 287f E20F0000 		.4byte	.LVL493
 9381 2883 02       		.uleb128 0x2
 9382 2884 74       		.byte	0x74
 9383 2885 00       		.sleb128 0
 9384 2886 1A       		.uleb128 0x1a
 9385 2887 01       		.uleb128 0x1
 9386 2888 50       		.byte	0x50
 9387 2889 01       		.uleb128 0x1
 9388 288a 30       		.byte	0x30
 9389 288b 1A       		.uleb128 0x1a
 9390 288c 01       		.uleb128 0x1
 9391 288d 51       		.byte	0x51
 9392 288e 05       		.uleb128 0x5
 9393 288f 03       		.byte	0x3
 9394 2890 00000000 		.4byte	.LC1
 9395 2894 1A       		.uleb128 0x1a
 9396 2895 01       		.uleb128 0x1
 9397 2896 52       		.byte	0x52
 9398 2897 05       		.uleb128 0x5
 9399 2898 03       		.byte	0x3
 9400 2899 6C000000 		.4byte	.LANCHOR0+16
 9401 289d 1A       		.uleb128 0x1a
 9402 289e 01       		.uleb128 0x1
 9403 289f 53       		.byte	0x53
 9404 28a0 03       		.uleb128 0x3
 9405 28a1 0A       		.byte	0xa
 9406 28a2 A702     		.2byte	0x2a7
 9407 28a4 1A       		.uleb128 0x1a
 9408 28a5 02       		.uleb128 0x2
 9409 28a6 7D       		.byte	0x7d
ARM GAS  C:\Users\Phuong\AppData\Local\Temp\ccU7OqD6.s 			page 182


 9410 28a7 00       		.sleb128 0
 9411 28a8 01       		.uleb128 0x1
 9412 28a9 31       		.byte	0x31
 9413 28aa 1A       		.uleb128 0x1a
 9414 28ab 02       		.uleb128 0x2
 9415 28ac 7D       		.byte	0x7d
 9416 28ad 04       		.sleb128 4
 9417 28ae 05       		.uleb128 0x5
 9418 28af 03       		.byte	0x3
 9419 28b0 FC040000 		.4byte	.LC118
 9420 28b4 00       		.byte	0
 9421 28b5 00       		.byte	0
 9422 28b6 16       		.uleb128 0x16
 9423 28b7 FA0F0000 		.4byte	.LBB103
 9424 28bb 1C000000 		.4byte	.LBE103-.LBB103
 9425 28bf 12290000 		.4byte	0x2912
 9426 28c3 21       		.uleb128 0x21
 9427 28c4 6C00     		.ascii	"l\000"
 9428 28c6 01       		.byte	0x1
 9429 28c7 AF02     		.2byte	0x2af
 9430 28c9 7B010000 		.4byte	0x17b
 9431 28cd B40F0000 		.4byte	.LLST79
 9432 28d1 18       		.uleb128 0x18
 9433 28d2 FE0F0000 		.4byte	.LVL498
 9434 28d6 522B0000 		.4byte	0x2b52
 9435 28da 19       		.uleb128 0x19
 9436 28db 16100000 		.4byte	.LVL501
 9437 28df 02       		.uleb128 0x2
 9438 28e0 74       		.byte	0x74
 9439 28e1 00       		.sleb128 0
 9440 28e2 1A       		.uleb128 0x1a
 9441 28e3 01       		.uleb128 0x1
 9442 28e4 50       		.byte	0x50
 9443 28e5 01       		.uleb128 0x1
 9444 28e6 30       		.byte	0x30
 9445 28e7 1A       		.uleb128 0x1a
 9446 28e8 01       		.uleb128 0x1
 9447 28e9 51       		.byte	0x51
 9448 28ea 05       		.uleb128 0x5
 9449 28eb 03       		.byte	0x3
 9450 28ec 00000000 		.4byte	.LC1
 9451 28f0 1A       		.uleb128 0x1a
 9452 28f1 01       		.uleb128 0x1
 9453 28f2 52       		.byte	0x52
 9454 28f3 05       		.uleb128 0x5
 9455 28f4 03       		.byte	0x3
 9456 28f5 6C000000 		.4byte	.LANCHOR0+16
 9457 28f9 1A       		.uleb128 0x1a
 9458 28fa 01       		.uleb128 0x1
 9459 28fb 53       		.byte	0x53
 9460 28fc 03       		.uleb128 0x3
 9461 28fd 0A       		.byte	0xa
 9462 28fe AF02     		.2byte	0x2af
 9463 2900 1A       		.uleb128 0x1a
 9464 2901 02       		.uleb128 0x2
 9465 2902 7D       		.byte	0x7d
 9466 2903 00       		.sleb128 0
ARM GAS  C:\Users\Phuong\AppData\Local\Temp\ccU7OqD6.s 			page 183


 9467 2904 01       		.uleb128 0x1
 9468 2905 31       		.byte	0x31
 9469 2906 1A       		.uleb128 0x1a
 9470 2907 02       		.uleb128 0x2
 9471 2908 7D       		.byte	0x7d
 9472 2909 04       		.sleb128 4
 9473 290a 05       		.uleb128 0x5
 9474 290b 03       		.byte	0x3
 9475 290c 98000000 		.4byte	.LC20
 9476 2910 00       		.byte	0
 9477 2911 00       		.byte	0
 9478 2912 16       		.uleb128 0x16
 9479 2913 22100000 		.4byte	.LBB104
 9480 2917 6E000000 		.4byte	.LBE104-.LBB104
 9481 291b 382A0000 		.4byte	0x2a38
 9482 291f 22       		.uleb128 0x22
 9483 2920 18020000 		.4byte	.LASF88
 9484 2924 01       		.byte	0x1
 9485 2925 B502     		.2byte	0x2b5
 9486 2927 D1000000 		.4byte	0xd1
 9487 292b D20F0000 		.4byte	.LLST80
 9488 292f 16       		.uleb128 0x16
 9489 2930 2C100000 		.4byte	.LBB105
 9490 2934 1E000000 		.4byte	.LBE105-.LBB105
 9491 2938 8B290000 		.4byte	0x298b
 9492 293c 21       		.uleb128 0x21
 9493 293d 6C00     		.ascii	"l\000"
 9494 293f 01       		.byte	0x1
 9495 2940 B802     		.2byte	0x2b8
 9496 2942 7B010000 		.4byte	0x17b
 9497 2946 06100000 		.4byte	.LLST81
 9498 294a 18       		.uleb128 0x18
 9499 294b 30100000 		.4byte	.LVL506
 9500 294f 522B0000 		.4byte	0x2b52
 9501 2953 19       		.uleb128 0x19
 9502 2954 4A100000 		.4byte	.LVL509
 9503 2958 02       		.uleb128 0x2
 9504 2959 74       		.byte	0x74
 9505 295a 00       		.sleb128 0
 9506 295b 1A       		.uleb128 0x1a
 9507 295c 01       		.uleb128 0x1
 9508 295d 50       		.byte	0x50
 9509 295e 01       		.uleb128 0x1
 9510 295f 30       		.byte	0x30
 9511 2960 1A       		.uleb128 0x1a
 9512 2961 01       		.uleb128 0x1
 9513 2962 51       		.byte	0x51
 9514 2963 05       		.uleb128 0x5
 9515 2964 03       		.byte	0x3
 9516 2965 00000000 		.4byte	.LC1
 9517 2969 1A       		.uleb128 0x1a
 9518 296a 01       		.uleb128 0x1
 9519 296b 52       		.byte	0x52
 9520 296c 05       		.uleb128 0x5
 9521 296d 03       		.byte	0x3
 9522 296e 6C000000 		.4byte	.LANCHOR0+16
 9523 2972 1A       		.uleb128 0x1a
ARM GAS  C:\Users\Phuong\AppData\Local\Temp\ccU7OqD6.s 			page 184


 9524 2973 01       		.uleb128 0x1
 9525 2974 53       		.byte	0x53
 9526 2975 03       		.uleb128 0x3
 9527 2976 0A       		.byte	0xa
 9528 2977 B802     		.2byte	0x2b8
 9529 2979 1A       		.uleb128 0x1a
 9530 297a 02       		.uleb128 0x2
 9531 297b 7D       		.byte	0x7d
 9532 297c 00       		.sleb128 0
 9533 297d 01       		.uleb128 0x1
 9534 297e 31       		.byte	0x31
 9535 297f 1A       		.uleb128 0x1a
 9536 2980 02       		.uleb128 0x2
 9537 2981 7D       		.byte	0x7d
 9538 2982 04       		.sleb128 4
 9539 2983 05       		.uleb128 0x5
 9540 2984 03       		.byte	0x3
 9541 2985 20050000 		.4byte	.LC122
 9542 2989 00       		.byte	0
 9543 298a 00       		.byte	0
 9544 298b 16       		.uleb128 0x16
 9545 298c 62100000 		.4byte	.LBB106
 9546 2990 1E000000 		.4byte	.LBE106-.LBB106
 9547 2994 E7290000 		.4byte	0x29e7
 9548 2998 21       		.uleb128 0x21
 9549 2999 6C00     		.ascii	"l\000"
 9550 299b 01       		.byte	0x1
 9551 299c C002     		.2byte	0x2c0
 9552 299e 7B010000 		.4byte	0x17b
 9553 29a2 24100000 		.4byte	.LLST82
 9554 29a6 18       		.uleb128 0x18
 9555 29a7 66100000 		.4byte	.LVL514
 9556 29ab 522B0000 		.4byte	0x2b52
 9557 29af 19       		.uleb128 0x19
 9558 29b0 80100000 		.4byte	.LVL517
 9559 29b4 02       		.uleb128 0x2
 9560 29b5 75       		.byte	0x75
 9561 29b6 00       		.sleb128 0
 9562 29b7 1A       		.uleb128 0x1a
 9563 29b8 01       		.uleb128 0x1
 9564 29b9 50       		.byte	0x50
 9565 29ba 01       		.uleb128 0x1
 9566 29bb 30       		.byte	0x30
 9567 29bc 1A       		.uleb128 0x1a
 9568 29bd 01       		.uleb128 0x1
 9569 29be 51       		.byte	0x51
 9570 29bf 05       		.uleb128 0x5
 9571 29c0 03       		.byte	0x3
 9572 29c1 00000000 		.4byte	.LC1
 9573 29c5 1A       		.uleb128 0x1a
 9574 29c6 01       		.uleb128 0x1
 9575 29c7 52       		.byte	0x52
 9576 29c8 05       		.uleb128 0x5
 9577 29c9 03       		.byte	0x3
 9578 29ca 6C000000 		.4byte	.LANCHOR0+16
 9579 29ce 1A       		.uleb128 0x1a
 9580 29cf 01       		.uleb128 0x1
ARM GAS  C:\Users\Phuong\AppData\Local\Temp\ccU7OqD6.s 			page 185


 9581 29d0 53       		.byte	0x53
 9582 29d1 03       		.uleb128 0x3
 9583 29d2 0A       		.byte	0xa
 9584 29d3 C002     		.2byte	0x2c0
 9585 29d5 1A       		.uleb128 0x1a
 9586 29d6 02       		.uleb128 0x2
 9587 29d7 7D       		.byte	0x7d
 9588 29d8 00       		.sleb128 0
 9589 29d9 01       		.uleb128 0x1
 9590 29da 31       		.byte	0x31
 9591 29db 1A       		.uleb128 0x1a
 9592 29dc 02       		.uleb128 0x2
 9593 29dd 7D       		.byte	0x7d
 9594 29de 04       		.sleb128 4
 9595 29df 05       		.uleb128 0x5
 9596 29e0 03       		.byte	0x3
 9597 29e1 98000000 		.4byte	.LC20
 9598 29e5 00       		.byte	0
 9599 29e6 00       		.byte	0
 9600 29e7 1B       		.uleb128 0x1b
 9601 29e8 28100000 		.4byte	.LVL504
 9602 29ec 1E040000 		.4byte	0x41e
 9603 29f0 FB290000 		.4byte	0x29fb
 9604 29f4 1A       		.uleb128 0x1a
 9605 29f5 01       		.uleb128 0x1
 9606 29f6 50       		.byte	0x50
 9607 29f7 02       		.uleb128 0x2
 9608 29f8 74       		.byte	0x74
 9609 29f9 00       		.sleb128 0
 9610 29fa 00       		.byte	0
 9611 29fb 18       		.uleb128 0x18
 9612 29fc 50100000 		.4byte	.LVL510
 9613 2a00 872B0000 		.4byte	0x2b87
 9614 2a04 1B       		.uleb128 0x1b
 9615 2a05 5E100000 		.4byte	.LVL513
 9616 2a09 C9020000 		.4byte	0x2c9
 9617 2a0d 1E2A0000 		.4byte	0x2a1e
 9618 2a11 1A       		.uleb128 0x1a
 9619 2a12 01       		.uleb128 0x1
 9620 2a13 50       		.byte	0x50
 9621 2a14 02       		.uleb128 0x2
 9622 2a15 91       		.byte	0x91
 9623 2a16 64       		.sleb128 -28
 9624 2a17 1A       		.uleb128 0x1a
 9625 2a18 01       		.uleb128 0x1
 9626 2a19 51       		.byte	0x51
 9627 2a1a 02       		.uleb128 0x2
 9628 2a1b 74       		.byte	0x74
 9629 2a1c 00       		.sleb128 0
 9630 2a1d 00       		.byte	0
 9631 2a1e 18       		.uleb128 0x18
 9632 2a1f 86100000 		.4byte	.LVL518
 9633 2a23 872B0000 		.4byte	0x2b87
 9634 2a27 1C       		.uleb128 0x1c
 9635 2a28 90100000 		.4byte	.LVL520
 9636 2a2c 872B0000 		.4byte	0x2b87
 9637 2a30 1A       		.uleb128 0x1a
ARM GAS  C:\Users\Phuong\AppData\Local\Temp\ccU7OqD6.s 			page 186


 9638 2a31 01       		.uleb128 0x1
 9639 2a32 50       		.byte	0x50
 9640 2a33 02       		.uleb128 0x2
 9641 2a34 74       		.byte	0x74
 9642 2a35 00       		.sleb128 0
 9643 2a36 00       		.byte	0
 9644 2a37 00       		.byte	0
 9645 2a38 1B       		.uleb128 0x1b
 9646 2a39 C20F0000 		.4byte	.LVL488
 9647 2a3d B02C0000 		.4byte	0x2cb0
 9648 2a41 4C2A0000 		.4byte	0x2a4c
 9649 2a45 1A       		.uleb128 0x1a
 9650 2a46 01       		.uleb128 0x1
 9651 2a47 50       		.byte	0x50
 9652 2a48 02       		.uleb128 0x2
 9653 2a49 74       		.byte	0x74
 9654 2a4a 00       		.sleb128 0
 9655 2a4b 00       		.byte	0
 9656 2a4c 18       		.uleb128 0x18
 9657 2a4d E80F0000 		.4byte	.LVL494
 9658 2a51 872B0000 		.4byte	0x2b87
 9659 2a55 1B       		.uleb128 0x1b
 9660 2a56 F60F0000 		.4byte	.LVL497
 9661 2a5a C9020000 		.4byte	0x2c9
 9662 2a5e 722A0000 		.4byte	0x2a72
 9663 2a62 1A       		.uleb128 0x1a
 9664 2a63 01       		.uleb128 0x1
 9665 2a64 50       		.byte	0x50
 9666 2a65 02       		.uleb128 0x2
 9667 2a66 91       		.byte	0x91
 9668 2a67 64       		.sleb128 -28
 9669 2a68 1A       		.uleb128 0x1a
 9670 2a69 01       		.uleb128 0x1
 9671 2a6a 51       		.byte	0x51
 9672 2a6b 05       		.uleb128 0x5
 9673 2a6c 03       		.byte	0x3
 9674 2a6d 1C050000 		.4byte	.LC120
 9675 2a71 00       		.byte	0
 9676 2a72 18       		.uleb128 0x18
 9677 2a73 1C100000 		.4byte	.LVL502
 9678 2a77 872B0000 		.4byte	0x2b87
 9679 2a7b 00       		.byte	0
 9680 2a7c 1B       		.uleb128 0x1b
 9681 2a7d 16000000 		.4byte	.LVL21
 9682 2a81 BB2C0000 		.4byte	0x2cbb
 9683 2a85 902A0000 		.4byte	0x2a90
 9684 2a89 1A       		.uleb128 0x1a
 9685 2a8a 01       		.uleb128 0x1
 9686 2a8b 50       		.byte	0x50
 9687 2a8c 02       		.uleb128 0x2
 9688 2a8d 74       		.byte	0x74
 9689 2a8e 00       		.sleb128 0
 9690 2a8f 00       		.byte	0
 9691 2a90 1B       		.uleb128 0x1b
 9692 2a91 4E000000 		.4byte	.LVL29
 9693 2a95 C9020000 		.4byte	0x2c9
 9694 2a99 AD2A0000 		.4byte	0x2aad
ARM GAS  C:\Users\Phuong\AppData\Local\Temp\ccU7OqD6.s 			page 187


 9695 2a9d 1A       		.uleb128 0x1a
 9696 2a9e 01       		.uleb128 0x1
 9697 2a9f 50       		.byte	0x50
 9698 2aa0 02       		.uleb128 0x2
 9699 2aa1 91       		.byte	0x91
 9700 2aa2 64       		.sleb128 -28
 9701 2aa3 1A       		.uleb128 0x1a
 9702 2aa4 01       		.uleb128 0x1
 9703 2aa5 51       		.byte	0x51
 9704 2aa6 05       		.uleb128 0x5
 9705 2aa7 03       		.byte	0x3
 9706 2aa8 90000000 		.4byte	.LC18
 9707 2aac 00       		.byte	0
 9708 2aad 18       		.uleb128 0x18
 9709 2aae 78000000 		.4byte	.LVL34
 9710 2ab2 872B0000 		.4byte	0x2b87
 9711 2ab6 00       		.byte	0
 9712 2ab7 00       		.byte	0
 9713 2ab8 07       		.uleb128 0x7
 9714 2ab9 E4000000 		.4byte	0xe4
 9715 2abd C82A0000 		.4byte	0x2ac8
 9716 2ac1 08       		.uleb128 0x8
 9717 2ac2 CA000000 		.4byte	0xca
 9718 2ac6 13       		.byte	0x13
 9719 2ac7 00       		.byte	0
 9720 2ac8 06       		.uleb128 0x6
 9721 2ac9 B82A0000 		.4byte	0x2ab8
 9722 2acd 03       		.uleb128 0x3
 9723 2ace 01       		.byte	0x1
 9724 2acf 02       		.byte	0x2
 9725 2ad0 96030000 		.4byte	.LASF89
 9726 2ad4 07       		.uleb128 0x7
 9727 2ad5 D7000000 		.4byte	0xd7
 9728 2ad9 E42A0000 		.4byte	0x2ae4
 9729 2add 08       		.uleb128 0x8
 9730 2ade CA000000 		.4byte	0xca
 9731 2ae2 03       		.byte	0x3
 9732 2ae3 00       		.byte	0
 9733 2ae4 07       		.uleb128 0x7
 9734 2ae5 D7000000 		.4byte	0xd7
 9735 2ae9 F42A0000 		.4byte	0x2af4
 9736 2aed 08       		.uleb128 0x8
 9737 2aee CA000000 		.4byte	0xca
 9738 2af2 05       		.byte	0x5
 9739 2af3 00       		.byte	0
 9740 2af4 07       		.uleb128 0x7
 9741 2af5 D7000000 		.4byte	0xd7
 9742 2af9 042B0000 		.4byte	0x2b04
 9743 2afd 08       		.uleb128 0x8
 9744 2afe CA000000 		.4byte	0xca
 9745 2b02 0A       		.byte	0xa
 9746 2b03 00       		.byte	0
 9747 2b04 07       		.uleb128 0x7
 9748 2b05 D7000000 		.4byte	0xd7
 9749 2b09 142B0000 		.4byte	0x2b14
 9750 2b0d 08       		.uleb128 0x8
 9751 2b0e CA000000 		.4byte	0xca
ARM GAS  C:\Users\Phuong\AppData\Local\Temp\ccU7OqD6.s 			page 188


 9752 2b12 14       		.byte	0x14
 9753 2b13 00       		.byte	0
 9754 2b14 07       		.uleb128 0x7
 9755 2b15 D7000000 		.4byte	0xd7
 9756 2b19 242B0000 		.4byte	0x2b24
 9757 2b1d 08       		.uleb128 0x8
 9758 2b1e CA000000 		.4byte	0xca
 9759 2b22 04       		.byte	0x4
 9760 2b23 00       		.byte	0
 9761 2b24 07       		.uleb128 0x7
 9762 2b25 D7000000 		.4byte	0xd7
 9763 2b29 342B0000 		.4byte	0x2b34
 9764 2b2d 08       		.uleb128 0x8
 9765 2b2e CA000000 		.4byte	0xca
 9766 2b32 06       		.byte	0x6
 9767 2b33 00       		.byte	0
 9768 2b34 07       		.uleb128 0x7
 9769 2b35 D7000000 		.4byte	0xd7
 9770 2b39 442B0000 		.4byte	0x2b44
 9771 2b3d 08       		.uleb128 0x8
 9772 2b3e CA000000 		.4byte	0xca
 9773 2b42 0B       		.byte	0xb
 9774 2b43 00       		.byte	0
 9775 2b44 03       		.uleb128 0x3
 9776 2b45 04       		.byte	0x4
 9777 2b46 04       		.byte	0x4
 9778 2b47 66010000 		.4byte	.LASF90
 9779 2b4b 03       		.uleb128 0x3
 9780 2b4c 08       		.byte	0x8
 9781 2b4d 04       		.byte	0x4
 9782 2b4e 5E080000 		.4byte	.LASF91
 9783 2b52 25       		.uleb128 0x25
 9784 2b53 FF000000 		.4byte	.LASF92
 9785 2b57 FF000000 		.4byte	.LASF92
 9786 2b5b 05       		.byte	0x5
 9787 2b5c 9D       		.byte	0x9d
 9788 2b5d 25       		.uleb128 0x25
 9789 2b5e 30000000 		.4byte	.LASF93
 9790 2b62 30000000 		.4byte	.LASF93
 9791 2b66 09       		.byte	0x9
 9792 2b67 21       		.byte	0x21
 9793 2b68 25       		.uleb128 0x25
 9794 2b69 E5070000 		.4byte	.LASF94
 9795 2b6d E5070000 		.4byte	.LASF94
 9796 2b71 0A       		.byte	0xa
 9797 2b72 89       		.byte	0x89
 9798 2b73 26       		.uleb128 0x26
 9799 2b74 41080000 		.4byte	.LASF132
 9800 2b78 41080000 		.4byte	.LASF132
 9801 2b7c 25       		.uleb128 0x25
 9802 2b7d 4E040000 		.4byte	.LASF95
 9803 2b81 4E040000 		.4byte	.LASF95
 9804 2b85 08       		.byte	0x8
 9805 2b86 22       		.byte	0x22
 9806 2b87 25       		.uleb128 0x25
 9807 2b88 CA030000 		.4byte	.LASF96
 9808 2b8c CA030000 		.4byte	.LASF96
ARM GAS  C:\Users\Phuong\AppData\Local\Temp\ccU7OqD6.s 			page 189


 9809 2b90 0A       		.byte	0xa
 9810 2b91 59       		.byte	0x59
 9811 2b92 25       		.uleb128 0x25
 9812 2b93 A6040000 		.4byte	.LASF97
 9813 2b97 A6040000 		.4byte	.LASF97
 9814 2b9b 08       		.byte	0x8
 9815 2b9c 24       		.byte	0x24
 9816 2b9d 25       		.uleb128 0x25
 9817 2b9e 91050000 		.4byte	.LASF98
 9818 2ba2 91050000 		.4byte	.LASF98
 9819 2ba6 0B       		.byte	0xb
 9820 2ba7 E7       		.byte	0xe7
 9821 2ba8 25       		.uleb128 0x25
 9822 2ba9 78070000 		.4byte	.LASF99
 9823 2bad 78070000 		.4byte	.LASF99
 9824 2bb1 08       		.byte	0x8
 9825 2bb2 26       		.byte	0x26
 9826 2bb3 25       		.uleb128 0x25
 9827 2bb4 41050000 		.4byte	.LASF100
 9828 2bb8 41050000 		.4byte	.LASF100
 9829 2bbc 08       		.byte	0x8
 9830 2bbd 28       		.byte	0x28
 9831 2bbe 25       		.uleb128 0x25
 9832 2bbf ED070000 		.4byte	.LASF101
 9833 2bc3 ED070000 		.4byte	.LASF101
 9834 2bc7 08       		.byte	0x8
 9835 2bc8 2A       		.byte	0x2a
 9836 2bc9 25       		.uleb128 0x25
 9837 2bca 66030000 		.4byte	.LASF102
 9838 2bce 66030000 		.4byte	.LASF102
 9839 2bd2 08       		.byte	0x8
 9840 2bd3 2C       		.byte	0x2c
 9841 2bd4 25       		.uleb128 0x25
 9842 2bd5 75000000 		.4byte	.LASF103
 9843 2bd9 75000000 		.4byte	.LASF103
 9844 2bdd 08       		.byte	0x8
 9845 2bde 2E       		.byte	0x2e
 9846 2bdf 25       		.uleb128 0x25
 9847 2be0 FB060000 		.4byte	.LASF104
 9848 2be4 FB060000 		.4byte	.LASF104
 9849 2be8 08       		.byte	0x8
 9850 2be9 30       		.byte	0x30
 9851 2bea 25       		.uleb128 0x25
 9852 2beb 71060000 		.4byte	.LASF105
 9853 2bef 71060000 		.4byte	.LASF105
 9854 2bf3 08       		.byte	0x8
 9855 2bf4 32       		.byte	0x32
 9856 2bf5 25       		.uleb128 0x25
 9857 2bf6 54050000 		.4byte	.LASF106
 9858 2bfa 54050000 		.4byte	.LASF106
 9859 2bfe 0B       		.byte	0xb
 9860 2bff FD       		.byte	0xfd
 9861 2c00 25       		.uleb128 0x25
 9862 2c01 A7020000 		.4byte	.LASF107
 9863 2c05 A7020000 		.4byte	.LASF107
 9864 2c09 08       		.byte	0x8
 9865 2c0a 34       		.byte	0x34
ARM GAS  C:\Users\Phuong\AppData\Local\Temp\ccU7OqD6.s 			page 190


 9866 2c0b 25       		.uleb128 0x25
 9867 2c0c 8D070000 		.4byte	.LASF108
 9868 2c10 8D070000 		.4byte	.LASF108
 9869 2c14 08       		.byte	0x8
 9870 2c15 36       		.byte	0x36
 9871 2c16 25       		.uleb128 0x25
 9872 2c17 01080000 		.4byte	.LASF109
 9873 2c1b 01080000 		.4byte	.LASF109
 9874 2c1f 08       		.byte	0x8
 9875 2c20 38       		.byte	0x38
 9876 2c21 25       		.uleb128 0x25
 9877 2c22 69050000 		.4byte	.LASF110
 9878 2c26 69050000 		.4byte	.LASF110
 9879 2c2a 08       		.byte	0x8
 9880 2c2b 3A       		.byte	0x3a
 9881 2c2c 25       		.uleb128 0x25
 9882 2c2d AB060000 		.4byte	.LASF111
 9883 2c31 AB060000 		.4byte	.LASF111
 9884 2c35 06       		.byte	0x6
 9885 2c36 2E       		.byte	0x2e
 9886 2c37 25       		.uleb128 0x25
 9887 2c38 65080000 		.4byte	.LASF112
 9888 2c3c 65080000 		.4byte	.LASF112
 9889 2c40 08       		.byte	0x8
 9890 2c41 3C       		.byte	0x3c
 9891 2c42 25       		.uleb128 0x25
 9892 2c43 C4060000 		.4byte	.LASF113
 9893 2c47 C4060000 		.4byte	.LASF113
 9894 2c4b 08       		.byte	0x8
 9895 2c4c 3E       		.byte	0x3e
 9896 2c4d 25       		.uleb128 0x25
 9897 2c4e 64040000 		.4byte	.LASF114
 9898 2c52 64040000 		.4byte	.LASF114
 9899 2c56 08       		.byte	0x8
 9900 2c57 40       		.byte	0x40
 9901 2c58 25       		.uleb128 0x25
 9902 2c59 CD000000 		.4byte	.LASF115
 9903 2c5d CD000000 		.4byte	.LASF115
 9904 2c61 08       		.byte	0x8
 9905 2c62 42       		.byte	0x42
 9906 2c63 25       		.uleb128 0x25
 9907 2c64 0D070000 		.4byte	.LASF116
 9908 2c68 0D070000 		.4byte	.LASF116
 9909 2c6c 08       		.byte	0x8
 9910 2c6d 55       		.byte	0x55
 9911 2c6e 25       		.uleb128 0x25
 9912 2c6f A7030000 		.4byte	.LASF117
 9913 2c73 A7030000 		.4byte	.LASF117
 9914 2c77 08       		.byte	0x8
 9915 2c78 47       		.byte	0x47
 9916 2c79 25       		.uleb128 0x25
 9917 2c7a 8D060000 		.4byte	.LASF118
 9918 2c7e 8D060000 		.4byte	.LASF118
 9919 2c82 08       		.byte	0x8
 9920 2c83 45       		.byte	0x45
 9921 2c84 25       		.uleb128 0x25
 9922 2c85 37000000 		.4byte	.LASF119
ARM GAS  C:\Users\Phuong\AppData\Local\Temp\ccU7OqD6.s 			page 191


 9923 2c89 37000000 		.4byte	.LASF119
 9924 2c8d 08       		.byte	0x8
 9925 2c8e 4C       		.byte	0x4c
 9926 2c8f 25       		.uleb128 0x25
 9927 2c90 2E010000 		.4byte	.LASF120
 9928 2c94 2E010000 		.4byte	.LASF120
 9929 2c98 08       		.byte	0x8
 9930 2c99 4B       		.byte	0x4b
 9931 2c9a 25       		.uleb128 0x25
 9932 2c9b 96000000 		.4byte	.LASF121
 9933 2c9f 96000000 		.4byte	.LASF121
 9934 2ca3 08       		.byte	0x8
 9935 2ca4 50       		.byte	0x50
 9936 2ca5 25       		.uleb128 0x25
 9937 2ca6 78080000 		.4byte	.LASF122
 9938 2caa 78080000 		.4byte	.LASF122
 9939 2cae 08       		.byte	0x8
 9940 2caf 51       		.byte	0x51
 9941 2cb0 25       		.uleb128 0x25
 9942 2cb1 0A000000 		.4byte	.LASF123
 9943 2cb5 0A000000 		.4byte	.LASF123
 9944 2cb9 08       		.byte	0x8
 9945 2cba 6A       		.byte	0x6a
 9946 2cbb 25       		.uleb128 0x25
 9947 2cbc D9060000 		.4byte	.LASF124
 9948 2cc0 D9060000 		.4byte	.LASF124
 9949 2cc4 08       		.byte	0x8
 9950 2cc5 53       		.byte	0x53
 9951 2cc6 00       		.byte	0
 9952              		.section	.debug_abbrev,"",%progbits
 9953              	.Ldebug_abbrev0:
 9954 0000 01       		.uleb128 0x1
 9955 0001 11       		.uleb128 0x11
 9956 0002 01       		.byte	0x1
 9957 0003 25       		.uleb128 0x25
 9958 0004 0E       		.uleb128 0xe
 9959 0005 13       		.uleb128 0x13
 9960 0006 0B       		.uleb128 0xb
 9961 0007 03       		.uleb128 0x3
 9962 0008 0E       		.uleb128 0xe
 9963 0009 1B       		.uleb128 0x1b
 9964 000a 0E       		.uleb128 0xe
 9965 000b 55       		.uleb128 0x55
 9966 000c 17       		.uleb128 0x17
 9967 000d 11       		.uleb128 0x11
 9968 000e 01       		.uleb128 0x1
 9969 000f 10       		.uleb128 0x10
 9970 0010 17       		.uleb128 0x17
 9971 0011 00       		.byte	0
 9972 0012 00       		.byte	0
 9973 0013 02       		.uleb128 0x2
 9974 0014 16       		.uleb128 0x16
 9975 0015 00       		.byte	0
 9976 0016 03       		.uleb128 0x3
 9977 0017 0E       		.uleb128 0xe
 9978 0018 3A       		.uleb128 0x3a
 9979 0019 0B       		.uleb128 0xb
ARM GAS  C:\Users\Phuong\AppData\Local\Temp\ccU7OqD6.s 			page 192


 9980 001a 3B       		.uleb128 0x3b
 9981 001b 0B       		.uleb128 0xb
 9982 001c 49       		.uleb128 0x49
 9983 001d 13       		.uleb128 0x13
 9984 001e 00       		.byte	0
 9985 001f 00       		.byte	0
 9986 0020 03       		.uleb128 0x3
 9987 0021 24       		.uleb128 0x24
 9988 0022 00       		.byte	0
 9989 0023 0B       		.uleb128 0xb
 9990 0024 0B       		.uleb128 0xb
 9991 0025 3E       		.uleb128 0x3e
 9992 0026 0B       		.uleb128 0xb
 9993 0027 03       		.uleb128 0x3
 9994 0028 0E       		.uleb128 0xe
 9995 0029 00       		.byte	0
 9996 002a 00       		.byte	0
 9997 002b 04       		.uleb128 0x4
 9998 002c 24       		.uleb128 0x24
 9999 002d 00       		.byte	0
 10000 002e 0B       		.uleb128 0xb
 10001 002f 0B       		.uleb128 0xb
 10002 0030 3E       		.uleb128 0x3e
 10003 0031 0B       		.uleb128 0xb
 10004 0032 03       		.uleb128 0x3
 10005 0033 08       		.uleb128 0x8
 10006 0034 00       		.byte	0
 10007 0035 00       		.byte	0
 10008 0036 05       		.uleb128 0x5
 10009 0037 0F       		.uleb128 0xf
 10010 0038 00       		.byte	0
 10011 0039 0B       		.uleb128 0xb
 10012 003a 0B       		.uleb128 0xb
 10013 003b 49       		.uleb128 0x49
 10014 003c 13       		.uleb128 0x13
 10015 003d 00       		.byte	0
 10016 003e 00       		.byte	0
 10017 003f 06       		.uleb128 0x6
 10018 0040 26       		.uleb128 0x26
 10019 0041 00       		.byte	0
 10020 0042 49       		.uleb128 0x49
 10021 0043 13       		.uleb128 0x13
 10022 0044 00       		.byte	0
 10023 0045 00       		.byte	0
 10024 0046 07       		.uleb128 0x7
 10025 0047 01       		.uleb128 0x1
 10026 0048 01       		.byte	0x1
 10027 0049 49       		.uleb128 0x49
 10028 004a 13       		.uleb128 0x13
 10029 004b 01       		.uleb128 0x1
 10030 004c 13       		.uleb128 0x13
 10031 004d 00       		.byte	0
 10032 004e 00       		.byte	0
 10033 004f 08       		.uleb128 0x8
 10034 0050 21       		.uleb128 0x21
 10035 0051 00       		.byte	0
 10036 0052 49       		.uleb128 0x49
ARM GAS  C:\Users\Phuong\AppData\Local\Temp\ccU7OqD6.s 			page 193


 10037 0053 13       		.uleb128 0x13
 10038 0054 2F       		.uleb128 0x2f
 10039 0055 0B       		.uleb128 0xb
 10040 0056 00       		.byte	0
 10041 0057 00       		.byte	0
 10042 0058 09       		.uleb128 0x9
 10043 0059 26       		.uleb128 0x26
 10044 005a 00       		.byte	0
 10045 005b 00       		.byte	0
 10046 005c 00       		.byte	0
 10047 005d 0A       		.uleb128 0xa
 10048 005e 04       		.uleb128 0x4
 10049 005f 01       		.byte	0x1
 10050 0060 03       		.uleb128 0x3
 10051 0061 0E       		.uleb128 0xe
 10052 0062 0B       		.uleb128 0xb
 10053 0063 0B       		.uleb128 0xb
 10054 0064 49       		.uleb128 0x49
 10055 0065 13       		.uleb128 0x13
 10056 0066 3A       		.uleb128 0x3a
 10057 0067 0B       		.uleb128 0xb
 10058 0068 3B       		.uleb128 0x3b
 10059 0069 0B       		.uleb128 0xb
 10060 006a 01       		.uleb128 0x1
 10061 006b 13       		.uleb128 0x13
 10062 006c 00       		.byte	0
 10063 006d 00       		.byte	0
 10064 006e 0B       		.uleb128 0xb
 10065 006f 28       		.uleb128 0x28
 10066 0070 00       		.byte	0
 10067 0071 03       		.uleb128 0x3
 10068 0072 0E       		.uleb128 0xe
 10069 0073 1C       		.uleb128 0x1c
 10070 0074 0B       		.uleb128 0xb
 10071 0075 00       		.byte	0
 10072 0076 00       		.byte	0
 10073 0077 0C       		.uleb128 0xc
 10074 0078 15       		.uleb128 0x15
 10075 0079 01       		.byte	0x1
 10076 007a 27       		.uleb128 0x27
 10077 007b 19       		.uleb128 0x19
 10078 007c 01       		.uleb128 0x1
 10079 007d 13       		.uleb128 0x13
 10080 007e 00       		.byte	0
 10081 007f 00       		.byte	0
 10082 0080 0D       		.uleb128 0xd
 10083 0081 05       		.uleb128 0x5
 10084 0082 00       		.byte	0
 10085 0083 49       		.uleb128 0x49
 10086 0084 13       		.uleb128 0x13
 10087 0085 00       		.byte	0
 10088 0086 00       		.byte	0
 10089 0087 0E       		.uleb128 0xe
 10090 0088 18       		.uleb128 0x18
 10091 0089 00       		.byte	0
 10092 008a 00       		.byte	0
 10093 008b 00       		.byte	0
ARM GAS  C:\Users\Phuong\AppData\Local\Temp\ccU7OqD6.s 			page 194


 10094 008c 0F       		.uleb128 0xf
 10095 008d 13       		.uleb128 0x13
 10096 008e 00       		.byte	0
 10097 008f 03       		.uleb128 0x3
 10098 0090 0E       		.uleb128 0xe
 10099 0091 3C       		.uleb128 0x3c
 10100 0092 19       		.uleb128 0x19
 10101 0093 00       		.byte	0
 10102 0094 00       		.byte	0
 10103 0095 10       		.uleb128 0x10
 10104 0096 13       		.uleb128 0x13
 10105 0097 01       		.byte	0x1
 10106 0098 03       		.uleb128 0x3
 10107 0099 0E       		.uleb128 0xe
 10108 009a 0B       		.uleb128 0xb
 10109 009b 0B       		.uleb128 0xb
 10110 009c 3A       		.uleb128 0x3a
 10111 009d 0B       		.uleb128 0xb
 10112 009e 3B       		.uleb128 0x3b
 10113 009f 0B       		.uleb128 0xb
 10114 00a0 01       		.uleb128 0x1
 10115 00a1 13       		.uleb128 0x13
 10116 00a2 00       		.byte	0
 10117 00a3 00       		.byte	0
 10118 00a4 11       		.uleb128 0x11
 10119 00a5 0D       		.uleb128 0xd
 10120 00a6 00       		.byte	0
 10121 00a7 03       		.uleb128 0x3
 10122 00a8 0E       		.uleb128 0xe
 10123 00a9 3A       		.uleb128 0x3a
 10124 00aa 0B       		.uleb128 0xb
 10125 00ab 3B       		.uleb128 0x3b
 10126 00ac 0B       		.uleb128 0xb
 10127 00ad 49       		.uleb128 0x49
 10128 00ae 13       		.uleb128 0x13
 10129 00af 38       		.uleb128 0x38
 10130 00b0 0B       		.uleb128 0xb
 10131 00b1 00       		.byte	0
 10132 00b2 00       		.byte	0
 10133 00b3 12       		.uleb128 0x12
 10134 00b4 2E       		.uleb128 0x2e
 10135 00b5 01       		.byte	0x1
 10136 00b6 03       		.uleb128 0x3
 10137 00b7 0E       		.uleb128 0xe
 10138 00b8 3A       		.uleb128 0x3a
 10139 00b9 0B       		.uleb128 0xb
 10140 00ba 3B       		.uleb128 0x3b
 10141 00bb 0B       		.uleb128 0xb
 10142 00bc 27       		.uleb128 0x27
 10143 00bd 19       		.uleb128 0x19
 10144 00be 49       		.uleb128 0x49
 10145 00bf 13       		.uleb128 0x13
 10146 00c0 11       		.uleb128 0x11
 10147 00c1 01       		.uleb128 0x1
 10148 00c2 12       		.uleb128 0x12
 10149 00c3 06       		.uleb128 0x6
 10150 00c4 40       		.uleb128 0x40
ARM GAS  C:\Users\Phuong\AppData\Local\Temp\ccU7OqD6.s 			page 195


 10151 00c5 18       		.uleb128 0x18
 10152 00c6 9742     		.uleb128 0x2117
 10153 00c8 19       		.uleb128 0x19
 10154 00c9 01       		.uleb128 0x1
 10155 00ca 13       		.uleb128 0x13
 10156 00cb 00       		.byte	0
 10157 00cc 00       		.byte	0
 10158 00cd 13       		.uleb128 0x13
 10159 00ce 05       		.uleb128 0x5
 10160 00cf 00       		.byte	0
 10161 00d0 03       		.uleb128 0x3
 10162 00d1 0E       		.uleb128 0xe
 10163 00d2 3A       		.uleb128 0x3a
 10164 00d3 0B       		.uleb128 0xb
 10165 00d4 3B       		.uleb128 0x3b
 10166 00d5 0B       		.uleb128 0xb
 10167 00d6 49       		.uleb128 0x49
 10168 00d7 13       		.uleb128 0x13
 10169 00d8 02       		.uleb128 0x2
 10170 00d9 17       		.uleb128 0x17
 10171 00da 00       		.byte	0
 10172 00db 00       		.byte	0
 10173 00dc 14       		.uleb128 0x14
 10174 00dd 34       		.uleb128 0x34
 10175 00de 00       		.byte	0
 10176 00df 03       		.uleb128 0x3
 10177 00e0 0E       		.uleb128 0xe
 10178 00e1 3A       		.uleb128 0x3a
 10179 00e2 0B       		.uleb128 0xb
 10180 00e3 3B       		.uleb128 0x3b
 10181 00e4 0B       		.uleb128 0xb
 10182 00e5 49       		.uleb128 0x49
 10183 00e6 13       		.uleb128 0x13
 10184 00e7 02       		.uleb128 0x2
 10185 00e8 17       		.uleb128 0x17
 10186 00e9 00       		.byte	0
 10187 00ea 00       		.byte	0
 10188 00eb 15       		.uleb128 0x15
 10189 00ec 34       		.uleb128 0x34
 10190 00ed 00       		.byte	0
 10191 00ee 03       		.uleb128 0x3
 10192 00ef 0E       		.uleb128 0xe
 10193 00f0 49       		.uleb128 0x49
 10194 00f1 13       		.uleb128 0x13
 10195 00f2 34       		.uleb128 0x34
 10196 00f3 19       		.uleb128 0x19
 10197 00f4 02       		.uleb128 0x2
 10198 00f5 18       		.uleb128 0x18
 10199 00f6 00       		.byte	0
 10200 00f7 00       		.byte	0
 10201 00f8 16       		.uleb128 0x16
 10202 00f9 0B       		.uleb128 0xb
 10203 00fa 01       		.byte	0x1
 10204 00fb 11       		.uleb128 0x11
 10205 00fc 01       		.uleb128 0x1
 10206 00fd 12       		.uleb128 0x12
 10207 00fe 06       		.uleb128 0x6
ARM GAS  C:\Users\Phuong\AppData\Local\Temp\ccU7OqD6.s 			page 196


 10208 00ff 01       		.uleb128 0x1
 10209 0100 13       		.uleb128 0x13
 10210 0101 00       		.byte	0
 10211 0102 00       		.byte	0
 10212 0103 17       		.uleb128 0x17
 10213 0104 34       		.uleb128 0x34
 10214 0105 00       		.byte	0
 10215 0106 03       		.uleb128 0x3
 10216 0107 08       		.uleb128 0x8
 10217 0108 3A       		.uleb128 0x3a
 10218 0109 0B       		.uleb128 0xb
 10219 010a 3B       		.uleb128 0x3b
 10220 010b 0B       		.uleb128 0xb
 10221 010c 49       		.uleb128 0x49
 10222 010d 13       		.uleb128 0x13
 10223 010e 02       		.uleb128 0x2
 10224 010f 17       		.uleb128 0x17
 10225 0110 00       		.byte	0
 10226 0111 00       		.byte	0
 10227 0112 18       		.uleb128 0x18
 10228 0113 898201   		.uleb128 0x4109
 10229 0116 00       		.byte	0
 10230 0117 11       		.uleb128 0x11
 10231 0118 01       		.uleb128 0x1
 10232 0119 31       		.uleb128 0x31
 10233 011a 13       		.uleb128 0x13
 10234 011b 00       		.byte	0
 10235 011c 00       		.byte	0
 10236 011d 19       		.uleb128 0x19
 10237 011e 898201   		.uleb128 0x4109
 10238 0121 01       		.byte	0x1
 10239 0122 11       		.uleb128 0x11
 10240 0123 01       		.uleb128 0x1
 10241 0124 9342     		.uleb128 0x2113
 10242 0126 18       		.uleb128 0x18
 10243 0127 00       		.byte	0
 10244 0128 00       		.byte	0
 10245 0129 1A       		.uleb128 0x1a
 10246 012a 8A8201   		.uleb128 0x410a
 10247 012d 00       		.byte	0
 10248 012e 02       		.uleb128 0x2
 10249 012f 18       		.uleb128 0x18
 10250 0130 9142     		.uleb128 0x2111
 10251 0132 18       		.uleb128 0x18
 10252 0133 00       		.byte	0
 10253 0134 00       		.byte	0
 10254 0135 1B       		.uleb128 0x1b
 10255 0136 898201   		.uleb128 0x4109
 10256 0139 01       		.byte	0x1
 10257 013a 11       		.uleb128 0x11
 10258 013b 01       		.uleb128 0x1
 10259 013c 31       		.uleb128 0x31
 10260 013d 13       		.uleb128 0x13
 10261 013e 01       		.uleb128 0x1
 10262 013f 13       		.uleb128 0x13
 10263 0140 00       		.byte	0
 10264 0141 00       		.byte	0
ARM GAS  C:\Users\Phuong\AppData\Local\Temp\ccU7OqD6.s 			page 197


 10265 0142 1C       		.uleb128 0x1c
 10266 0143 898201   		.uleb128 0x4109
 10267 0146 01       		.byte	0x1
 10268 0147 11       		.uleb128 0x11
 10269 0148 01       		.uleb128 0x1
 10270 0149 31       		.uleb128 0x31
 10271 014a 13       		.uleb128 0x13
 10272 014b 00       		.byte	0
 10273 014c 00       		.byte	0
 10274 014d 1D       		.uleb128 0x1d
 10275 014e 2E       		.uleb128 0x2e
 10276 014f 01       		.byte	0x1
 10277 0150 3F       		.uleb128 0x3f
 10278 0151 19       		.uleb128 0x19
 10279 0152 03       		.uleb128 0x3
 10280 0153 0E       		.uleb128 0xe
 10281 0154 3A       		.uleb128 0x3a
 10282 0155 0B       		.uleb128 0xb
 10283 0156 3B       		.uleb128 0x3b
 10284 0157 0B       		.uleb128 0xb
 10285 0158 27       		.uleb128 0x27
 10286 0159 19       		.uleb128 0x19
 10287 015a 49       		.uleb128 0x49
 10288 015b 13       		.uleb128 0x13
 10289 015c 11       		.uleb128 0x11
 10290 015d 01       		.uleb128 0x1
 10291 015e 12       		.uleb128 0x12
 10292 015f 06       		.uleb128 0x6
 10293 0160 40       		.uleb128 0x40
 10294 0161 18       		.uleb128 0x18
 10295 0162 9642     		.uleb128 0x2116
 10296 0164 19       		.uleb128 0x19
 10297 0165 01       		.uleb128 0x1
 10298 0166 13       		.uleb128 0x13
 10299 0167 00       		.byte	0
 10300 0168 00       		.byte	0
 10301 0169 1E       		.uleb128 0x1e
 10302 016a 34       		.uleb128 0x34
 10303 016b 00       		.byte	0
 10304 016c 03       		.uleb128 0x3
 10305 016d 0E       		.uleb128 0xe
 10306 016e 3A       		.uleb128 0x3a
 10307 016f 0B       		.uleb128 0xb
 10308 0170 3B       		.uleb128 0x3b
 10309 0171 0B       		.uleb128 0xb
 10310 0172 49       		.uleb128 0x49
 10311 0173 13       		.uleb128 0x13
 10312 0174 02       		.uleb128 0x2
 10313 0175 18       		.uleb128 0x18
 10314 0176 00       		.byte	0
 10315 0177 00       		.byte	0
 10316 0178 1F       		.uleb128 0x1f
 10317 0179 0B       		.uleb128 0xb
 10318 017a 01       		.byte	0x1
 10319 017b 11       		.uleb128 0x11
 10320 017c 01       		.uleb128 0x1
 10321 017d 12       		.uleb128 0x12
ARM GAS  C:\Users\Phuong\AppData\Local\Temp\ccU7OqD6.s 			page 198


 10322 017e 06       		.uleb128 0x6
 10323 017f 00       		.byte	0
 10324 0180 00       		.byte	0
 10325 0181 20       		.uleb128 0x20
 10326 0182 34       		.uleb128 0x34
 10327 0183 00       		.byte	0
 10328 0184 03       		.uleb128 0x3
 10329 0185 0E       		.uleb128 0xe
 10330 0186 3A       		.uleb128 0x3a
 10331 0187 0B       		.uleb128 0xb
 10332 0188 3B       		.uleb128 0x3b
 10333 0189 05       		.uleb128 0x5
 10334 018a 49       		.uleb128 0x49
 10335 018b 13       		.uleb128 0x13
 10336 018c 02       		.uleb128 0x2
 10337 018d 18       		.uleb128 0x18
 10338 018e 00       		.byte	0
 10339 018f 00       		.byte	0
 10340 0190 21       		.uleb128 0x21
 10341 0191 34       		.uleb128 0x34
 10342 0192 00       		.byte	0
 10343 0193 03       		.uleb128 0x3
 10344 0194 08       		.uleb128 0x8
 10345 0195 3A       		.uleb128 0x3a
 10346 0196 0B       		.uleb128 0xb
 10347 0197 3B       		.uleb128 0x3b
 10348 0198 05       		.uleb128 0x5
 10349 0199 49       		.uleb128 0x49
 10350 019a 13       		.uleb128 0x13
 10351 019b 02       		.uleb128 0x2
 10352 019c 17       		.uleb128 0x17
 10353 019d 00       		.byte	0
 10354 019e 00       		.byte	0
 10355 019f 22       		.uleb128 0x22
 10356 01a0 34       		.uleb128 0x34
 10357 01a1 00       		.byte	0
 10358 01a2 03       		.uleb128 0x3
 10359 01a3 0E       		.uleb128 0xe
 10360 01a4 3A       		.uleb128 0x3a
 10361 01a5 0B       		.uleb128 0xb
 10362 01a6 3B       		.uleb128 0x3b
 10363 01a7 05       		.uleb128 0x5
 10364 01a8 49       		.uleb128 0x49
 10365 01a9 13       		.uleb128 0x13
 10366 01aa 02       		.uleb128 0x2
 10367 01ab 17       		.uleb128 0x17
 10368 01ac 00       		.byte	0
 10369 01ad 00       		.byte	0
 10370 01ae 23       		.uleb128 0x23
 10371 01af 0B       		.uleb128 0xb
 10372 01b0 01       		.byte	0x1
 10373 01b1 55       		.uleb128 0x55
 10374 01b2 17       		.uleb128 0x17
 10375 01b3 01       		.uleb128 0x1
 10376 01b4 13       		.uleb128 0x13
 10377 01b5 00       		.byte	0
 10378 01b6 00       		.byte	0
ARM GAS  C:\Users\Phuong\AppData\Local\Temp\ccU7OqD6.s 			page 199


 10379 01b7 24       		.uleb128 0x24
 10380 01b8 34       		.uleb128 0x34
 10381 01b9 00       		.byte	0
 10382 01ba 03       		.uleb128 0x3
 10383 01bb 08       		.uleb128 0x8
 10384 01bc 3A       		.uleb128 0x3a
 10385 01bd 0B       		.uleb128 0xb
 10386 01be 3B       		.uleb128 0x3b
 10387 01bf 05       		.uleb128 0x5
 10388 01c0 49       		.uleb128 0x49
 10389 01c1 13       		.uleb128 0x13
 10390 01c2 02       		.uleb128 0x2
 10391 01c3 18       		.uleb128 0x18
 10392 01c4 00       		.byte	0
 10393 01c5 00       		.byte	0
 10394 01c6 25       		.uleb128 0x25
 10395 01c7 2E       		.uleb128 0x2e
 10396 01c8 00       		.byte	0
 10397 01c9 3F       		.uleb128 0x3f
 10398 01ca 19       		.uleb128 0x19
 10399 01cb 3C       		.uleb128 0x3c
 10400 01cc 19       		.uleb128 0x19
 10401 01cd 6E       		.uleb128 0x6e
 10402 01ce 0E       		.uleb128 0xe
 10403 01cf 03       		.uleb128 0x3
 10404 01d0 0E       		.uleb128 0xe
 10405 01d1 3A       		.uleb128 0x3a
 10406 01d2 0B       		.uleb128 0xb
 10407 01d3 3B       		.uleb128 0x3b
 10408 01d4 0B       		.uleb128 0xb
 10409 01d5 00       		.byte	0
 10410 01d6 00       		.byte	0
 10411 01d7 26       		.uleb128 0x26
 10412 01d8 2E       		.uleb128 0x2e
 10413 01d9 00       		.byte	0
 10414 01da 3F       		.uleb128 0x3f
 10415 01db 19       		.uleb128 0x19
 10416 01dc 3C       		.uleb128 0x3c
 10417 01dd 19       		.uleb128 0x19
 10418 01de 6E       		.uleb128 0x6e
 10419 01df 0E       		.uleb128 0xe
 10420 01e0 03       		.uleb128 0x3
 10421 01e1 0E       		.uleb128 0xe
 10422 01e2 00       		.byte	0
 10423 01e3 00       		.byte	0
 10424 01e4 00       		.byte	0
 10425              		.section	.debug_loc,"",%progbits
 10426              	.Ldebug_loc0:
 10427              	.LLST0:
 10428 0000 00000000 		.4byte	.LVL0
 10429 0004 0A000000 		.4byte	.LVL1
 10430 0008 0100     		.2byte	0x1
 10431 000a 50       		.byte	0x50
 10432 000b 0A000000 		.4byte	.LVL1
 10433 000f 60000000 		.4byte	.LVL18
 10434 0013 0100     		.2byte	0x1
 10435 0015 55       		.byte	0x55
ARM GAS  C:\Users\Phuong\AppData\Local\Temp\ccU7OqD6.s 			page 200


 10436 0016 60000000 		.4byte	.LVL18
 10437 001a 70000000 		.4byte	.LFE1
 10438 001e 0400     		.2byte	0x4
 10439 0020 F3       		.byte	0xf3
 10440 0021 01       		.uleb128 0x1
 10441 0022 50       		.byte	0x50
 10442 0023 9F       		.byte	0x9f
 10443 0024 00000000 		.4byte	0
 10444 0028 00000000 		.4byte	0
 10445              	.LLST1:
 10446 002c 00000000 		.4byte	.LVL0
 10447 0030 0D000000 		.4byte	.LVL2-1
 10448 0034 0100     		.2byte	0x1
 10449 0036 51       		.byte	0x51
 10450 0037 0D000000 		.4byte	.LVL2-1
 10451 003b 70000000 		.4byte	.LFE1
 10452 003f 0200     		.2byte	0x2
 10453 0041 91       		.byte	0x91
 10454 0042 64       		.sleb128 -28
 10455 0043 00000000 		.4byte	0
 10456 0047 00000000 		.4byte	0
 10457              	.LLST2:
 10458 004b 58000000 		.4byte	.LVL15
 10459 004f 5C000000 		.4byte	.LVL16
 10460 0053 0200     		.2byte	0x2
 10461 0055 30       		.byte	0x30
 10462 0056 9F       		.byte	0x9f
 10463 0057 5E000000 		.4byte	.LVL17
 10464 005b 70000000 		.4byte	.LFE1
 10465 005f 0100     		.2byte	0x1
 10466 0061 50       		.byte	0x50
 10467 0062 00000000 		.4byte	0
 10468 0066 00000000 		.4byte	0
 10469              	.LLST3:
 10470 006a 2A000000 		.4byte	.LVL8
 10471 006e 31000000 		.4byte	.LVL9-1
 10472 0072 0100     		.2byte	0x1
 10473 0074 50       		.byte	0x50
 10474 0075 4C000000 		.4byte	.LVL13
 10475 0079 50000000 		.4byte	.LVL14
 10476 007d 0100     		.2byte	0x1
 10477 007f 50       		.byte	0x50
 10478 0080 50000000 		.4byte	.LVL14
 10479 0084 57000000 		.4byte	.LVL15-1
 10480 0088 0200     		.2byte	0x2
 10481 008a 75       		.byte	0x75
 10482 008b 00       		.sleb128 0
 10483 008c 00000000 		.4byte	0
 10484 0090 00000000 		.4byte	0
 10485              	.LLST4:
 10486 0094 10000000 		.4byte	.LVL3
 10487 0098 60000000 		.4byte	.LVL19
 10488 009c 0100     		.2byte	0x1
 10489 009e 56       		.byte	0x56
 10490 009f 00000000 		.4byte	0
 10491 00a3 00000000 		.4byte	0
 10492              	.LLST5:
ARM GAS  C:\Users\Phuong\AppData\Local\Temp\ccU7OqD6.s 			page 201


 10493 00a7 1E000000 		.4byte	.LVL5
 10494 00ab 20000000 		.4byte	.LVL6
 10495 00af 0100     		.2byte	0x1
 10496 00b1 50       		.byte	0x50
 10497 00b2 22000000 		.4byte	.LVL7
 10498 00b6 34000000 		.4byte	.LVL10
 10499 00ba 0100     		.2byte	0x1
 10500 00bc 54       		.byte	0x54
 10501 00bd 4C000000 		.4byte	.LVL13
 10502 00c1 5C000000 		.4byte	.LVL16
 10503 00c5 0100     		.2byte	0x1
 10504 00c7 54       		.byte	0x54
 10505 00c8 00000000 		.4byte	0
 10506 00cc 00000000 		.4byte	0
 10507              	.LLST6:
 10508 00d0 34000000 		.4byte	.LVL10
 10509 00d4 46000000 		.4byte	.LVL11
 10510 00d8 0100     		.2byte	0x1
 10511 00da 50       		.byte	0x50
 10512 00db 46000000 		.4byte	.LVL11
 10513 00df 4C000000 		.4byte	.LVL13
 10514 00e3 0100     		.2byte	0x1
 10515 00e5 54       		.byte	0x54
 10516 00e6 5C000000 		.4byte	.LVL16
 10517 00ea 5E000000 		.4byte	.LVL17
 10518 00ee 0100     		.2byte	0x1
 10519 00f0 50       		.byte	0x50
 10520 00f1 00000000 		.4byte	0
 10521 00f5 00000000 		.4byte	0
 10522              	.LLST7:
 10523 00f9 00000000 		.4byte	.LVL20
 10524 00fd 15000000 		.4byte	.LVL21-1
 10525 0101 0100     		.2byte	0x1
 10526 0103 50       		.byte	0x50
 10527 0104 15000000 		.4byte	.LVL21-1
 10528 0108 28000000 		.4byte	.LVL25
 10529 010c 0100     		.2byte	0x1
 10530 010e 54       		.byte	0x54
 10531 010f 28000000 		.4byte	.LVL25
 10532 0113 46000000 		.4byte	.LVL28
 10533 0117 0400     		.2byte	0x4
 10534 0119 F3       		.byte	0xf3
 10535 011a 01       		.uleb128 0x1
 10536 011b 50       		.byte	0x50
 10537 011c 9F       		.byte	0x9f
 10538 011d 46000000 		.4byte	.LVL28
 10539 0121 5C000000 		.4byte	.LVL31
 10540 0125 0100     		.2byte	0x1
 10541 0127 54       		.byte	0x54
 10542 0128 5C000000 		.4byte	.LVL31
 10543 012c 80000000 		.4byte	.LVL35
 10544 0130 0400     		.2byte	0x4
 10545 0132 F3       		.byte	0xf3
 10546 0133 01       		.uleb128 0x1
 10547 0134 50       		.byte	0x50
 10548 0135 9F       		.byte	0x9f
 10549 0136 80000000 		.4byte	.LVL35
ARM GAS  C:\Users\Phuong\AppData\Local\Temp\ccU7OqD6.s 			page 202


 10550 013a 92000000 		.4byte	.LVL38
 10551 013e 0100     		.2byte	0x1
 10552 0140 54       		.byte	0x54
 10553 0141 92000000 		.4byte	.LVL38
 10554 0145 B6000000 		.4byte	.LVL42
 10555 0149 0400     		.2byte	0x4
 10556 014b F3       		.byte	0xf3
 10557 014c 01       		.uleb128 0x1
 10558 014d 50       		.byte	0x50
 10559 014e 9F       		.byte	0x9f
 10560 014f B6000000 		.4byte	.LVL42
 10561 0153 D8000000 		.4byte	.LVL45
 10562 0157 0100     		.2byte	0x1
 10563 0159 54       		.byte	0x54
 10564 015a D8000000 		.4byte	.LVL45
 10565 015e FC000000 		.4byte	.LVL49
 10566 0162 0400     		.2byte	0x4
 10567 0164 F3       		.byte	0xf3
 10568 0165 01       		.uleb128 0x1
 10569 0166 50       		.byte	0x50
 10570 0167 9F       		.byte	0x9f
 10571 0168 FC000000 		.4byte	.LVL49
 10572 016c 0E010000 		.4byte	.LVL52
 10573 0170 0100     		.2byte	0x1
 10574 0172 54       		.byte	0x54
 10575 0173 0E010000 		.4byte	.LVL52
 10576 0177 32010000 		.4byte	.LVL56
 10577 017b 0400     		.2byte	0x4
 10578 017d F3       		.byte	0xf3
 10579 017e 01       		.uleb128 0x1
 10580 017f 50       		.byte	0x50
 10581 0180 9F       		.byte	0x9f
 10582 0181 32010000 		.4byte	.LVL56
 10583 0185 58010000 		.4byte	.LVL60
 10584 0189 0100     		.2byte	0x1
 10585 018b 54       		.byte	0x54
 10586 018c 58010000 		.4byte	.LVL60
 10587 0190 7C010000 		.4byte	.LVL64
 10588 0194 0400     		.2byte	0x4
 10589 0196 F3       		.byte	0xf3
 10590 0197 01       		.uleb128 0x1
 10591 0198 50       		.byte	0x50
 10592 0199 9F       		.byte	0x9f
 10593 019a 7C010000 		.4byte	.LVL64
 10594 019e 8E010000 		.4byte	.LVL67
 10595 01a2 0100     		.2byte	0x1
 10596 01a4 54       		.byte	0x54
 10597 01a5 8E010000 		.4byte	.LVL67
 10598 01a9 B2010000 		.4byte	.LVL71
 10599 01ad 0400     		.2byte	0x4
 10600 01af F3       		.byte	0xf3
 10601 01b0 01       		.uleb128 0x1
 10602 01b1 50       		.byte	0x50
 10603 01b2 9F       		.byte	0x9f
 10604 01b3 B2010000 		.4byte	.LVL71
 10605 01b7 D8010000 		.4byte	.LVL75
 10606 01bb 0100     		.2byte	0x1
ARM GAS  C:\Users\Phuong\AppData\Local\Temp\ccU7OqD6.s 			page 203


 10607 01bd 54       		.byte	0x54
 10608 01be D8010000 		.4byte	.LVL75
 10609 01c2 FC010000 		.4byte	.LVL79
 10610 01c6 0400     		.2byte	0x4
 10611 01c8 F3       		.byte	0xf3
 10612 01c9 01       		.uleb128 0x1
 10613 01ca 50       		.byte	0x50
 10614 01cb 9F       		.byte	0x9f
 10615 01cc FC010000 		.4byte	.LVL79
 10616 01d0 0E020000 		.4byte	.LVL82
 10617 01d4 0100     		.2byte	0x1
 10618 01d6 54       		.byte	0x54
 10619 01d7 0E020000 		.4byte	.LVL82
 10620 01db 32020000 		.4byte	.LVL86
 10621 01df 0400     		.2byte	0x4
 10622 01e1 F3       		.byte	0xf3
 10623 01e2 01       		.uleb128 0x1
 10624 01e3 50       		.byte	0x50
 10625 01e4 9F       		.byte	0x9f
 10626 01e5 32020000 		.4byte	.LVL86
 10627 01e9 56020000 		.4byte	.LVL90
 10628 01ed 0100     		.2byte	0x1
 10629 01ef 54       		.byte	0x54
 10630 01f0 56020000 		.4byte	.LVL90
 10631 01f4 7A020000 		.4byte	.LVL94
 10632 01f8 0400     		.2byte	0x4
 10633 01fa F3       		.byte	0xf3
 10634 01fb 01       		.uleb128 0x1
 10635 01fc 50       		.byte	0x50
 10636 01fd 9F       		.byte	0x9f
 10637 01fe 7A020000 		.4byte	.LVL94
 10638 0202 8C020000 		.4byte	.LVL97
 10639 0206 0100     		.2byte	0x1
 10640 0208 54       		.byte	0x54
 10641 0209 8C020000 		.4byte	.LVL97
 10642 020d B0020000 		.4byte	.LVL101
 10643 0211 0400     		.2byte	0x4
 10644 0213 F3       		.byte	0xf3
 10645 0214 01       		.uleb128 0x1
 10646 0215 50       		.byte	0x50
 10647 0216 9F       		.byte	0x9f
 10648 0217 B0020000 		.4byte	.LVL101
 10649 021b D6020000 		.4byte	.LVL105
 10650 021f 0100     		.2byte	0x1
 10651 0221 54       		.byte	0x54
 10652 0222 D6020000 		.4byte	.LVL105
 10653 0226 FA020000 		.4byte	.LVL109
 10654 022a 0400     		.2byte	0x4
 10655 022c F3       		.byte	0xf3
 10656 022d 01       		.uleb128 0x1
 10657 022e 50       		.byte	0x50
 10658 022f 9F       		.byte	0x9f
 10659 0230 FA020000 		.4byte	.LVL109
 10660 0234 0C030000 		.4byte	.LVL112
 10661 0238 0100     		.2byte	0x1
 10662 023a 54       		.byte	0x54
 10663 023b 0C030000 		.4byte	.LVL112
ARM GAS  C:\Users\Phuong\AppData\Local\Temp\ccU7OqD6.s 			page 204


 10664 023f 30030000 		.4byte	.LVL116
 10665 0243 0400     		.2byte	0x4
 10666 0245 F3       		.byte	0xf3
 10667 0246 01       		.uleb128 0x1
 10668 0247 50       		.byte	0x50
 10669 0248 9F       		.byte	0x9f
 10670 0249 30030000 		.4byte	.LVL116
 10671 024d 56030000 		.4byte	.LVL120
 10672 0251 0100     		.2byte	0x1
 10673 0253 54       		.byte	0x54
 10674 0254 56030000 		.4byte	.LVL120
 10675 0258 C8030000 		.4byte	.LVL124
 10676 025c 0400     		.2byte	0x4
 10677 025e F3       		.byte	0xf3
 10678 025f 01       		.uleb128 0x1
 10679 0260 50       		.byte	0x50
 10680 0261 9F       		.byte	0x9f
 10681 0262 C8030000 		.4byte	.LVL124
 10682 0266 DA030000 		.4byte	.LVL127
 10683 026a 0100     		.2byte	0x1
 10684 026c 54       		.byte	0x54
 10685 026d DA030000 		.4byte	.LVL127
 10686 0271 FE030000 		.4byte	.LVL131
 10687 0275 0400     		.2byte	0x4
 10688 0277 F3       		.byte	0xf3
 10689 0278 01       		.uleb128 0x1
 10690 0279 50       		.byte	0x50
 10691 027a 9F       		.byte	0x9f
 10692 027b FE030000 		.4byte	.LVL131
 10693 027f 26040000 		.4byte	.LVL135
 10694 0283 0100     		.2byte	0x1
 10695 0285 54       		.byte	0x54
 10696 0286 26040000 		.4byte	.LVL135
 10697 028a 4A040000 		.4byte	.LVL139
 10698 028e 0400     		.2byte	0x4
 10699 0290 F3       		.byte	0xf3
 10700 0291 01       		.uleb128 0x1
 10701 0292 50       		.byte	0x50
 10702 0293 9F       		.byte	0x9f
 10703 0294 4A040000 		.4byte	.LVL139
 10704 0298 5C040000 		.4byte	.LVL142
 10705 029c 0100     		.2byte	0x1
 10706 029e 54       		.byte	0x54
 10707 029f 5C040000 		.4byte	.LVL142
 10708 02a3 80040000 		.4byte	.LVL146
 10709 02a7 0400     		.2byte	0x4
 10710 02a9 F3       		.byte	0xf3
 10711 02aa 01       		.uleb128 0x1
 10712 02ab 50       		.byte	0x50
 10713 02ac 9F       		.byte	0x9f
 10714 02ad 80040000 		.4byte	.LVL146
 10715 02b1 A4040000 		.4byte	.LVL150
 10716 02b5 0100     		.2byte	0x1
 10717 02b7 54       		.byte	0x54
 10718 02b8 A4040000 		.4byte	.LVL150
 10719 02bc C8040000 		.4byte	.LVL154
 10720 02c0 0400     		.2byte	0x4
ARM GAS  C:\Users\Phuong\AppData\Local\Temp\ccU7OqD6.s 			page 205


 10721 02c2 F3       		.byte	0xf3
 10722 02c3 01       		.uleb128 0x1
 10723 02c4 50       		.byte	0x50
 10724 02c5 9F       		.byte	0x9f
 10725 02c6 C8040000 		.4byte	.LVL154
 10726 02ca DA040000 		.4byte	.LVL157
 10727 02ce 0100     		.2byte	0x1
 10728 02d0 54       		.byte	0x54
 10729 02d1 DA040000 		.4byte	.LVL157
 10730 02d5 FE040000 		.4byte	.LVL161
 10731 02d9 0400     		.2byte	0x4
 10732 02db F3       		.byte	0xf3
 10733 02dc 01       		.uleb128 0x1
 10734 02dd 50       		.byte	0x50
 10735 02de 9F       		.byte	0x9f
 10736 02df FE040000 		.4byte	.LVL161
 10737 02e3 24050000 		.4byte	.LVL165
 10738 02e7 0100     		.2byte	0x1
 10739 02e9 54       		.byte	0x54
 10740 02ea 24050000 		.4byte	.LVL165
 10741 02ee 48050000 		.4byte	.LVL169
 10742 02f2 0400     		.2byte	0x4
 10743 02f4 F3       		.byte	0xf3
 10744 02f5 01       		.uleb128 0x1
 10745 02f6 50       		.byte	0x50
 10746 02f7 9F       		.byte	0x9f
 10747 02f8 48050000 		.4byte	.LVL169
 10748 02fc 5A050000 		.4byte	.LVL172
 10749 0300 0100     		.2byte	0x1
 10750 0302 54       		.byte	0x54
 10751 0303 5A050000 		.4byte	.LVL172
 10752 0307 7E050000 		.4byte	.LVL176
 10753 030b 0400     		.2byte	0x4
 10754 030d F3       		.byte	0xf3
 10755 030e 01       		.uleb128 0x1
 10756 030f 50       		.byte	0x50
 10757 0310 9F       		.byte	0x9f
 10758 0311 7E050000 		.4byte	.LVL176
 10759 0315 AC050000 		.4byte	.LVL181
 10760 0319 0100     		.2byte	0x1
 10761 031b 54       		.byte	0x54
 10762 031c AC050000 		.4byte	.LVL181
 10763 0320 D2050000 		.4byte	.LVL185
 10764 0324 0400     		.2byte	0x4
 10765 0326 F3       		.byte	0xf3
 10766 0327 01       		.uleb128 0x1
 10767 0328 50       		.byte	0x50
 10768 0329 9F       		.byte	0x9f
 10769 032a D2050000 		.4byte	.LVL185
 10770 032e E4050000 		.4byte	.LVL188
 10771 0332 0100     		.2byte	0x1
 10772 0334 54       		.byte	0x54
 10773 0335 E4050000 		.4byte	.LVL188
 10774 0339 0A060000 		.4byte	.LVL192
 10775 033d 0400     		.2byte	0x4
 10776 033f F3       		.byte	0xf3
 10777 0340 01       		.uleb128 0x1
ARM GAS  C:\Users\Phuong\AppData\Local\Temp\ccU7OqD6.s 			page 206


 10778 0341 50       		.byte	0x50
 10779 0342 9F       		.byte	0x9f
 10780 0343 0A060000 		.4byte	.LVL192
 10781 0347 36060000 		.4byte	.LVL196
 10782 034b 0100     		.2byte	0x1
 10783 034d 54       		.byte	0x54
 10784 034e 36060000 		.4byte	.LVL196
 10785 0352 5C060000 		.4byte	.LVL200
 10786 0356 0400     		.2byte	0x4
 10787 0358 F3       		.byte	0xf3
 10788 0359 01       		.uleb128 0x1
 10789 035a 50       		.byte	0x50
 10790 035b 9F       		.byte	0x9f
 10791 035c 5C060000 		.4byte	.LVL200
 10792 0360 6E060000 		.4byte	.LVL203
 10793 0364 0100     		.2byte	0x1
 10794 0366 54       		.byte	0x54
 10795 0367 6E060000 		.4byte	.LVL203
 10796 036b 94060000 		.4byte	.LVL207
 10797 036f 0400     		.2byte	0x4
 10798 0371 F3       		.byte	0xf3
 10799 0372 01       		.uleb128 0x1
 10800 0373 50       		.byte	0x50
 10801 0374 9F       		.byte	0x9f
 10802 0375 94060000 		.4byte	.LVL207
 10803 0379 9A060000 		.4byte	.LVL208
 10804 037d 0100     		.2byte	0x1
 10805 037f 54       		.byte	0x54
 10806 0380 9A060000 		.4byte	.LVL208
 10807 0384 F8060000 		.4byte	.LVL216
 10808 0388 0400     		.2byte	0x4
 10809 038a F3       		.byte	0xf3
 10810 038b 01       		.uleb128 0x1
 10811 038c 50       		.byte	0x50
 10812 038d 9F       		.byte	0x9f
 10813 038e F8060000 		.4byte	.LVL216
 10814 0392 0A070000 		.4byte	.LVL219
 10815 0396 0100     		.2byte	0x1
 10816 0398 54       		.byte	0x54
 10817 0399 0A070000 		.4byte	.LVL219
 10818 039d 70070000 		.4byte	.LVL223
 10819 03a1 0400     		.2byte	0x4
 10820 03a3 F3       		.byte	0xf3
 10821 03a4 01       		.uleb128 0x1
 10822 03a5 50       		.byte	0x50
 10823 03a6 9F       		.byte	0x9f
 10824 03a7 70070000 		.4byte	.LVL223
 10825 03ab 96070000 		.4byte	.LVL227
 10826 03af 0100     		.2byte	0x1
 10827 03b1 54       		.byte	0x54
 10828 03b2 96070000 		.4byte	.LVL227
 10829 03b6 BC070000 		.4byte	.LVL231
 10830 03ba 0400     		.2byte	0x4
 10831 03bc F3       		.byte	0xf3
 10832 03bd 01       		.uleb128 0x1
 10833 03be 50       		.byte	0x50
 10834 03bf 9F       		.byte	0x9f
ARM GAS  C:\Users\Phuong\AppData\Local\Temp\ccU7OqD6.s 			page 207


 10835 03c0 BC070000 		.4byte	.LVL231
 10836 03c4 CE070000 		.4byte	.LVL234
 10837 03c8 0100     		.2byte	0x1
 10838 03ca 54       		.byte	0x54
 10839 03cb CE070000 		.4byte	.LVL234
 10840 03cf F4070000 		.4byte	.LVL238
 10841 03d3 0400     		.2byte	0x4
 10842 03d5 F3       		.byte	0xf3
 10843 03d6 01       		.uleb128 0x1
 10844 03d7 50       		.byte	0x50
 10845 03d8 9F       		.byte	0x9f
 10846 03d9 F4070000 		.4byte	.LVL238
 10847 03dd FC070000 		.4byte	.LVL240
 10848 03e1 0100     		.2byte	0x1
 10849 03e3 54       		.byte	0x54
 10850 03e4 FC070000 		.4byte	.LVL240
 10851 03e8 68080000 		.4byte	.LVL256
 10852 03ec 0400     		.2byte	0x4
 10853 03ee F3       		.byte	0xf3
 10854 03ef 01       		.uleb128 0x1
 10855 03f0 50       		.byte	0x50
 10856 03f1 9F       		.byte	0x9f
 10857 03f2 68080000 		.4byte	.LVL256
 10858 03f6 7A080000 		.4byte	.LVL259
 10859 03fa 0100     		.2byte	0x1
 10860 03fc 54       		.byte	0x54
 10861 03fd 7A080000 		.4byte	.LVL259
 10862 0401 A0080000 		.4byte	.LVL263
 10863 0405 0400     		.2byte	0x4
 10864 0407 F3       		.byte	0xf3
 10865 0408 01       		.uleb128 0x1
 10866 0409 50       		.byte	0x50
 10867 040a 9F       		.byte	0x9f
 10868 040b A0080000 		.4byte	.LVL263
 10869 040f B2080000 		.4byte	.LVL266
 10870 0413 0100     		.2byte	0x1
 10871 0415 54       		.byte	0x54
 10872 0416 B2080000 		.4byte	.LVL266
 10873 041a 10090000 		.4byte	.LVL274
 10874 041e 0400     		.2byte	0x4
 10875 0420 F3       		.byte	0xf3
 10876 0421 01       		.uleb128 0x1
 10877 0422 50       		.byte	0x50
 10878 0423 9F       		.byte	0x9f
 10879 0424 10090000 		.4byte	.LVL274
 10880 0428 12090000 		.4byte	.LVL275
 10881 042c 0100     		.2byte	0x1
 10882 042e 54       		.byte	0x54
 10883 042f 12090000 		.4byte	.LVL275
 10884 0433 60090000 		.4byte	.LVL283
 10885 0437 0400     		.2byte	0x4
 10886 0439 F3       		.byte	0xf3
 10887 043a 01       		.uleb128 0x1
 10888 043b 50       		.byte	0x50
 10889 043c 9F       		.byte	0x9f
 10890 043d 60090000 		.4byte	.LVL283
 10891 0441 72090000 		.4byte	.LVL286
ARM GAS  C:\Users\Phuong\AppData\Local\Temp\ccU7OqD6.s 			page 208


 10892 0445 0100     		.2byte	0x1
 10893 0447 54       		.byte	0x54
 10894 0448 72090000 		.4byte	.LVL286
 10895 044c 96090000 		.4byte	.LVL290
 10896 0450 0400     		.2byte	0x4
 10897 0452 F3       		.byte	0xf3
 10898 0453 01       		.uleb128 0x1
 10899 0454 50       		.byte	0x50
 10900 0455 9F       		.byte	0x9f
 10901 0456 96090000 		.4byte	.LVL290
 10902 045a AA090000 		.4byte	.LVL293
 10903 045e 0100     		.2byte	0x1
 10904 0460 54       		.byte	0x54
 10905 0461 AA090000 		.4byte	.LVL293
 10906 0465 CE090000 		.4byte	.LVL297
 10907 0469 0400     		.2byte	0x4
 10908 046b F3       		.byte	0xf3
 10909 046c 01       		.uleb128 0x1
 10910 046d 50       		.byte	0x50
 10911 046e 9F       		.byte	0x9f
 10912 046f CE090000 		.4byte	.LVL297
 10913 0473 E0090000 		.4byte	.LVL300
 10914 0477 0100     		.2byte	0x1
 10915 0479 54       		.byte	0x54
 10916 047a E0090000 		.4byte	.LVL300
 10917 047e 040A0000 		.4byte	.LVL304
 10918 0482 0400     		.2byte	0x4
 10919 0484 F3       		.byte	0xf3
 10920 0485 01       		.uleb128 0x1
 10921 0486 50       		.byte	0x50
 10922 0487 9F       		.byte	0x9f
 10923 0488 040A0000 		.4byte	.LVL304
 10924 048c 180A0000 		.4byte	.LVL307
 10925 0490 0100     		.2byte	0x1
 10926 0492 54       		.byte	0x54
 10927 0493 180A0000 		.4byte	.LVL307
 10928 0497 3C0A0000 		.4byte	.LVL311
 10929 049b 0400     		.2byte	0x4
 10930 049d F3       		.byte	0xf3
 10931 049e 01       		.uleb128 0x1
 10932 049f 50       		.byte	0x50
 10933 04a0 9F       		.byte	0x9f
 10934 04a1 3C0A0000 		.4byte	.LVL311
 10935 04a5 4E0A0000 		.4byte	.LVL314
 10936 04a9 0100     		.2byte	0x1
 10937 04ab 54       		.byte	0x54
 10938 04ac 4E0A0000 		.4byte	.LVL314
 10939 04b0 720A0000 		.4byte	.LVL318
 10940 04b4 0400     		.2byte	0x4
 10941 04b6 F3       		.byte	0xf3
 10942 04b7 01       		.uleb128 0x1
 10943 04b8 50       		.byte	0x50
 10944 04b9 9F       		.byte	0x9f
 10945 04ba 720A0000 		.4byte	.LVL318
 10946 04be 860A0000 		.4byte	.LVL321
 10947 04c2 0100     		.2byte	0x1
 10948 04c4 54       		.byte	0x54
ARM GAS  C:\Users\Phuong\AppData\Local\Temp\ccU7OqD6.s 			page 209


 10949 04c5 860A0000 		.4byte	.LVL321
 10950 04c9 EC0A0000 		.4byte	.LVL325
 10951 04cd 0400     		.2byte	0x4
 10952 04cf F3       		.byte	0xf3
 10953 04d0 01       		.uleb128 0x1
 10954 04d1 50       		.byte	0x50
 10955 04d2 9F       		.byte	0x9f
 10956 04d3 EC0A0000 		.4byte	.LVL325
 10957 04d7 FE0A0000 		.4byte	.LVL329
 10958 04db 0100     		.2byte	0x1
 10959 04dd 54       		.byte	0x54
 10960 04de FE0A0000 		.4byte	.LVL329
 10961 04e2 1A0B0000 		.4byte	.LVL332
 10962 04e6 0400     		.2byte	0x4
 10963 04e8 F3       		.byte	0xf3
 10964 04e9 01       		.uleb128 0x1
 10965 04ea 50       		.byte	0x50
 10966 04eb 9F       		.byte	0x9f
 10967 04ec 1A0B0000 		.4byte	.LVL332
 10968 04f0 280B0000 		.4byte	.LVL336
 10969 04f4 0100     		.2byte	0x1
 10970 04f6 54       		.byte	0x54
 10971 04f7 280B0000 		.4byte	.LVL336
 10972 04fb 4A0B0000 		.4byte	.LVL340
 10973 04ff 0400     		.2byte	0x4
 10974 0501 F3       		.byte	0xf3
 10975 0502 01       		.uleb128 0x1
 10976 0503 50       		.byte	0x50
 10977 0504 9F       		.byte	0x9f
 10978 0505 4A0B0000 		.4byte	.LVL340
 10979 0509 6C0B0000 		.4byte	.LVL345
 10980 050d 0100     		.2byte	0x1
 10981 050f 54       		.byte	0x54
 10982 0510 6C0B0000 		.4byte	.LVL345
 10983 0514 900B0000 		.4byte	.LVL349
 10984 0518 0400     		.2byte	0x4
 10985 051a F3       		.byte	0xf3
 10986 051b 01       		.uleb128 0x1
 10987 051c 50       		.byte	0x50
 10988 051d 9F       		.byte	0x9f
 10989 051e 900B0000 		.4byte	.LVL349
 10990 0522 A80B0000 		.4byte	.LVL355
 10991 0526 0100     		.2byte	0x1
 10992 0528 54       		.byte	0x54
 10993 0529 A80B0000 		.4byte	.LVL355
 10994 052d F20B0000 		.4byte	.LVL363
 10995 0531 0400     		.2byte	0x4
 10996 0533 F3       		.byte	0xf3
 10997 0534 01       		.uleb128 0x1
 10998 0535 50       		.byte	0x50
 10999 0536 9F       		.byte	0x9f
 11000 0537 F20B0000 		.4byte	.LVL363
 11001 053b 040C0000 		.4byte	.LVL366
 11002 053f 0100     		.2byte	0x1
 11003 0541 54       		.byte	0x54
 11004 0542 040C0000 		.4byte	.LVL366
 11005 0546 260C0000 		.4byte	.LVL370
ARM GAS  C:\Users\Phuong\AppData\Local\Temp\ccU7OqD6.s 			page 210


 11006 054a 0400     		.2byte	0x4
 11007 054c F3       		.byte	0xf3
 11008 054d 01       		.uleb128 0x1
 11009 054e 50       		.byte	0x50
 11010 054f 9F       		.byte	0x9f
 11011 0550 260C0000 		.4byte	.LVL370
 11012 0554 3A0C0000 		.4byte	.LVL373
 11013 0558 0100     		.2byte	0x1
 11014 055a 54       		.byte	0x54
 11015 055b 3A0C0000 		.4byte	.LVL373
 11016 055f 5C0C0000 		.4byte	.LVL377
 11017 0563 0400     		.2byte	0x4
 11018 0565 F3       		.byte	0xf3
 11019 0566 01       		.uleb128 0x1
 11020 0567 50       		.byte	0x50
 11021 0568 9F       		.byte	0x9f
 11022 0569 5C0C0000 		.4byte	.LVL377
 11023 056d 720C0000 		.4byte	.LVL380
 11024 0571 0100     		.2byte	0x1
 11025 0573 54       		.byte	0x54
 11026 0574 720C0000 		.4byte	.LVL380
 11027 0578 8E0C0000 		.4byte	.LVL383
 11028 057c 0400     		.2byte	0x4
 11029 057e F3       		.byte	0xf3
 11030 057f 01       		.uleb128 0x1
 11031 0580 50       		.byte	0x50
 11032 0581 9F       		.byte	0x9f
 11033 0582 8E0C0000 		.4byte	.LVL383
 11034 0586 9E0C0000 		.4byte	.LVL387
 11035 058a 0100     		.2byte	0x1
 11036 058c 54       		.byte	0x54
 11037 058d 9E0C0000 		.4byte	.LVL387
 11038 0591 C40C0000 		.4byte	.LVL392
 11039 0595 0400     		.2byte	0x4
 11040 0597 F3       		.byte	0xf3
 11041 0598 01       		.uleb128 0x1
 11042 0599 50       		.byte	0x50
 11043 059a 9F       		.byte	0x9f
 11044 059b C40C0000 		.4byte	.LVL392
 11045 059f D60C0000 		.4byte	.LVL397
 11046 05a3 0100     		.2byte	0x1
 11047 05a5 54       		.byte	0x54
 11048 05a6 D60C0000 		.4byte	.LVL397
 11049 05aa 040D0000 		.4byte	.LVL403
 11050 05ae 0400     		.2byte	0x4
 11051 05b0 F3       		.byte	0xf3
 11052 05b1 01       		.uleb128 0x1
 11053 05b2 50       		.byte	0x50
 11054 05b3 9F       		.byte	0x9f
 11055 05b4 040D0000 		.4byte	.LVL403
 11056 05b8 560D0000 		.4byte	.LVL412
 11057 05bc 0100     		.2byte	0x1
 11058 05be 54       		.byte	0x54
 11059 05bf 560D0000 		.4byte	.LVL412
 11060 05c3 860D0000 		.4byte	.LVL419
 11061 05c7 0400     		.2byte	0x4
 11062 05c9 F3       		.byte	0xf3
ARM GAS  C:\Users\Phuong\AppData\Local\Temp\ccU7OqD6.s 			page 211


 11063 05ca 01       		.uleb128 0x1
 11064 05cb 50       		.byte	0x50
 11065 05cc 9F       		.byte	0x9f
 11066 05cd 860D0000 		.4byte	.LVL419
 11067 05d1 AC0D0000 		.4byte	.LVL427
 11068 05d5 0100     		.2byte	0x1
 11069 05d7 54       		.byte	0x54
 11070 05d8 AC0D0000 		.4byte	.LVL427
 11071 05dc F40D0000 		.4byte	.LVL435
 11072 05e0 0400     		.2byte	0x4
 11073 05e2 F3       		.byte	0xf3
 11074 05e3 01       		.uleb128 0x1
 11075 05e4 50       		.byte	0x50
 11076 05e5 9F       		.byte	0x9f
 11077 05e6 F40D0000 		.4byte	.LVL435
 11078 05ea 060E0000 		.4byte	.LVL438
 11079 05ee 0100     		.2byte	0x1
 11080 05f0 54       		.byte	0x54
 11081 05f1 060E0000 		.4byte	.LVL438
 11082 05f5 840E0000 		.4byte	.LVL442
 11083 05f9 0400     		.2byte	0x4
 11084 05fb F3       		.byte	0xf3
 11085 05fc 01       		.uleb128 0x1
 11086 05fd 50       		.byte	0x50
 11087 05fe 9F       		.byte	0x9f
 11088 05ff 840E0000 		.4byte	.LVL442
 11089 0603 960E0000 		.4byte	.LVL445
 11090 0607 0100     		.2byte	0x1
 11091 0609 54       		.byte	0x54
 11092 060a 960E0000 		.4byte	.LVL445
 11093 060e BA0E0000 		.4byte	.LVL449
 11094 0612 0400     		.2byte	0x4
 11095 0614 F3       		.byte	0xf3
 11096 0615 01       		.uleb128 0x1
 11097 0616 50       		.byte	0x50
 11098 0617 9F       		.byte	0x9f
 11099 0618 BA0E0000 		.4byte	.LVL449
 11100 061c CC0E0000 		.4byte	.LVL453
 11101 0620 0100     		.2byte	0x1
 11102 0622 54       		.byte	0x54
 11103 0623 CC0E0000 		.4byte	.LVL453
 11104 0627 E80E0000 		.4byte	.LVL456
 11105 062b 0400     		.2byte	0x4
 11106 062d F3       		.byte	0xf3
 11107 062e 01       		.uleb128 0x1
 11108 062f 50       		.byte	0x50
 11109 0630 9F       		.byte	0x9f
 11110 0631 E80E0000 		.4byte	.LVL456
 11111 0635 F60E0000 		.4byte	.LVL460
 11112 0639 0100     		.2byte	0x1
 11113 063b 54       		.byte	0x54
 11114 063c F60E0000 		.4byte	.LVL460
 11115 0640 180F0000 		.4byte	.LVL464
 11116 0644 0400     		.2byte	0x4
 11117 0646 F3       		.byte	0xf3
 11118 0647 01       		.uleb128 0x1
 11119 0648 50       		.byte	0x50
ARM GAS  C:\Users\Phuong\AppData\Local\Temp\ccU7OqD6.s 			page 212


 11120 0649 9F       		.byte	0x9f
 11121 064a 180F0000 		.4byte	.LVL464
 11122 064e 3A0F0000 		.4byte	.LVL469
 11123 0652 0100     		.2byte	0x1
 11124 0654 54       		.byte	0x54
 11125 0655 3A0F0000 		.4byte	.LVL469
 11126 0659 5C0F0000 		.4byte	.LVL473
 11127 065d 0400     		.2byte	0x4
 11128 065f F3       		.byte	0xf3
 11129 0660 01       		.uleb128 0x1
 11130 0661 50       		.byte	0x50
 11131 0662 9F       		.byte	0x9f
 11132 0663 5C0F0000 		.4byte	.LVL473
 11133 0667 740F0000 		.4byte	.LVL479
 11134 066b 0100     		.2byte	0x1
 11135 066d 54       		.byte	0x54
 11136 066e 740F0000 		.4byte	.LVL479
 11137 0672 BC0F0000 		.4byte	.LVL487
 11138 0676 0400     		.2byte	0x4
 11139 0678 F3       		.byte	0xf3
 11140 0679 01       		.uleb128 0x1
 11141 067a 50       		.byte	0x50
 11142 067b 9F       		.byte	0x9f
 11143 067c BC0F0000 		.4byte	.LVL487
 11144 0680 C40F0000 		.4byte	.LVL489
 11145 0684 0100     		.2byte	0x1
 11146 0686 54       		.byte	0x54
 11147 0687 C40F0000 		.4byte	.LVL489
 11148 068b D4100000 		.4byte	.LFE2
 11149 068f 0400     		.2byte	0x4
 11150 0691 F3       		.byte	0xf3
 11151 0692 01       		.uleb128 0x1
 11152 0693 50       		.byte	0x50
 11153 0694 9F       		.byte	0x9f
 11154 0695 00000000 		.4byte	0
 11155 0699 00000000 		.4byte	0
 11156              	.LLST8:
 11157 069d 16000000 		.4byte	.LVL21
 11158 06a1 1C000000 		.4byte	.LVL22
 11159 06a5 0100     		.2byte	0x1
 11160 06a7 50       		.byte	0x50
 11161 06a8 22000000 		.4byte	.LVL23
 11162 06ac 25000000 		.4byte	.LVL24-1
 11163 06b0 0100     		.2byte	0x1
 11164 06b2 50       		.byte	0x50
 11165 06b3 00000000 		.4byte	0
 11166 06b7 00000000 		.4byte	0
 11167              	.LLST9:
 11168 06bb 28000000 		.4byte	.LVL25
 11169 06bf 3C000000 		.4byte	.LVL26
 11170 06c3 0100     		.2byte	0x1
 11171 06c5 50       		.byte	0x50
 11172 06c6 3C000000 		.4byte	.LVL26
 11173 06ca 46000000 		.4byte	.LVL28
 11174 06ce 0100     		.2byte	0x1
 11175 06d0 54       		.byte	0x54
 11176 06d1 00000000 		.4byte	0
ARM GAS  C:\Users\Phuong\AppData\Local\Temp\ccU7OqD6.s 			page 213


 11177 06d5 00000000 		.4byte	0
 11178              	.LLST10:
 11179 06d9 5C000000 		.4byte	.LVL31
 11180 06dd 70000000 		.4byte	.LVL32
 11181 06e1 0100     		.2byte	0x1
 11182 06e3 50       		.byte	0x50
 11183 06e4 70000000 		.4byte	.LVL32
 11184 06e8 80000000 		.4byte	.LVL35
 11185 06ec 0100     		.2byte	0x1
 11186 06ee 54       		.byte	0x54
 11187 06ef 00000000 		.4byte	0
 11188 06f3 00000000 		.4byte	0
 11189              	.LLST11:
 11190 06f7 92000000 		.4byte	.LVL38
 11191 06fb A6000000 		.4byte	.LVL39
 11192 06ff 0100     		.2byte	0x1
 11193 0701 50       		.byte	0x50
 11194 0702 A6000000 		.4byte	.LVL39
 11195 0706 B6000000 		.4byte	.LVL42
 11196 070a 0100     		.2byte	0x1
 11197 070c 54       		.byte	0x54
 11198 070d 00000000 		.4byte	0
 11199 0711 00000000 		.4byte	0
 11200              	.LLST12:
 11201 0715 D8000000 		.4byte	.LVL45
 11202 0719 EC000000 		.4byte	.LVL46
 11203 071d 0100     		.2byte	0x1
 11204 071f 50       		.byte	0x50
 11205 0720 EC000000 		.4byte	.LVL46
 11206 0724 FC000000 		.4byte	.LVL49
 11207 0728 0100     		.2byte	0x1
 11208 072a 54       		.byte	0x54
 11209 072b 00000000 		.4byte	0
 11210 072f 00000000 		.4byte	0
 11211              	.LLST13:
 11212 0733 0E010000 		.4byte	.LVL52
 11213 0737 22010000 		.4byte	.LVL53
 11214 073b 0100     		.2byte	0x1
 11215 073d 50       		.byte	0x50
 11216 073e 22010000 		.4byte	.LVL53
 11217 0742 32010000 		.4byte	.LVL56
 11218 0746 0100     		.2byte	0x1
 11219 0748 54       		.byte	0x54
 11220 0749 00000000 		.4byte	0
 11221 074d 00000000 		.4byte	0
 11222              	.LLST14:
 11223 0751 58010000 		.4byte	.LVL60
 11224 0755 6C010000 		.4byte	.LVL61
 11225 0759 0100     		.2byte	0x1
 11226 075b 50       		.byte	0x50
 11227 075c 6C010000 		.4byte	.LVL61
 11228 0760 7C010000 		.4byte	.LVL64
 11229 0764 0100     		.2byte	0x1
 11230 0766 54       		.byte	0x54
 11231 0767 00000000 		.4byte	0
 11232 076b 00000000 		.4byte	0
 11233              	.LLST15:
ARM GAS  C:\Users\Phuong\AppData\Local\Temp\ccU7OqD6.s 			page 214


 11234 076f 8E010000 		.4byte	.LVL67
 11235 0773 A2010000 		.4byte	.LVL68
 11236 0777 0100     		.2byte	0x1
 11237 0779 50       		.byte	0x50
 11238 077a A2010000 		.4byte	.LVL68
 11239 077e B2010000 		.4byte	.LVL71
 11240 0782 0100     		.2byte	0x1
 11241 0784 54       		.byte	0x54
 11242 0785 00000000 		.4byte	0
 11243 0789 00000000 		.4byte	0
 11244              	.LLST16:
 11245 078d D8010000 		.4byte	.LVL75
 11246 0791 EC010000 		.4byte	.LVL76
 11247 0795 0100     		.2byte	0x1
 11248 0797 50       		.byte	0x50
 11249 0798 EC010000 		.4byte	.LVL76
 11250 079c FC010000 		.4byte	.LVL79
 11251 07a0 0100     		.2byte	0x1
 11252 07a2 54       		.byte	0x54
 11253 07a3 00000000 		.4byte	0
 11254 07a7 00000000 		.4byte	0
 11255              	.LLST17:
 11256 07ab 0E020000 		.4byte	.LVL82
 11257 07af 22020000 		.4byte	.LVL83
 11258 07b3 0100     		.2byte	0x1
 11259 07b5 50       		.byte	0x50
 11260 07b6 22020000 		.4byte	.LVL83
 11261 07ba 32020000 		.4byte	.LVL86
 11262 07be 0100     		.2byte	0x1
 11263 07c0 54       		.byte	0x54
 11264 07c1 00000000 		.4byte	0
 11265 07c5 00000000 		.4byte	0
 11266              	.LLST18:
 11267 07c9 56020000 		.4byte	.LVL90
 11268 07cd 6A020000 		.4byte	.LVL91
 11269 07d1 0100     		.2byte	0x1
 11270 07d3 50       		.byte	0x50
 11271 07d4 6A020000 		.4byte	.LVL91
 11272 07d8 7A020000 		.4byte	.LVL94
 11273 07dc 0100     		.2byte	0x1
 11274 07de 54       		.byte	0x54
 11275 07df 00000000 		.4byte	0
 11276 07e3 00000000 		.4byte	0
 11277              	.LLST19:
 11278 07e7 8C020000 		.4byte	.LVL97
 11279 07eb A0020000 		.4byte	.LVL98
 11280 07ef 0100     		.2byte	0x1
 11281 07f1 50       		.byte	0x50
 11282 07f2 A0020000 		.4byte	.LVL98
 11283 07f6 B0020000 		.4byte	.LVL101
 11284 07fa 0100     		.2byte	0x1
 11285 07fc 54       		.byte	0x54
 11286 07fd 00000000 		.4byte	0
 11287 0801 00000000 		.4byte	0
 11288              	.LLST20:
 11289 0805 D6020000 		.4byte	.LVL105
 11290 0809 EA020000 		.4byte	.LVL106
ARM GAS  C:\Users\Phuong\AppData\Local\Temp\ccU7OqD6.s 			page 215


 11291 080d 0100     		.2byte	0x1
 11292 080f 50       		.byte	0x50
 11293 0810 EA020000 		.4byte	.LVL106
 11294 0814 FA020000 		.4byte	.LVL109
 11295 0818 0100     		.2byte	0x1
 11296 081a 54       		.byte	0x54
 11297 081b 00000000 		.4byte	0
 11298 081f 00000000 		.4byte	0
 11299              	.LLST21:
 11300 0823 0C030000 		.4byte	.LVL112
 11301 0827 20030000 		.4byte	.LVL113
 11302 082b 0100     		.2byte	0x1
 11303 082d 50       		.byte	0x50
 11304 082e 20030000 		.4byte	.LVL113
 11305 0832 30030000 		.4byte	.LVL116
 11306 0836 0100     		.2byte	0x1
 11307 0838 54       		.byte	0x54
 11308 0839 00000000 		.4byte	0
 11309 083d 00000000 		.4byte	0
 11310              	.LLST22:
 11311 0841 56030000 		.4byte	.LVL120
 11312 0845 6A030000 		.4byte	.LVL121
 11313 0849 0100     		.2byte	0x1
 11314 084b 50       		.byte	0x50
 11315 084c 6A030000 		.4byte	.LVL121
 11316 0850 C8030000 		.4byte	.LVL124
 11317 0854 0100     		.2byte	0x1
 11318 0856 54       		.byte	0x54
 11319 0857 00000000 		.4byte	0
 11320 085b 00000000 		.4byte	0
 11321              	.LLST23:
 11322 085f DA030000 		.4byte	.LVL127
 11323 0863 EE030000 		.4byte	.LVL128
 11324 0867 0100     		.2byte	0x1
 11325 0869 50       		.byte	0x50
 11326 086a EE030000 		.4byte	.LVL128
 11327 086e FE030000 		.4byte	.LVL131
 11328 0872 0100     		.2byte	0x1
 11329 0874 54       		.byte	0x54
 11330 0875 00000000 		.4byte	0
 11331 0879 00000000 		.4byte	0
 11332              	.LLST24:
 11333 087d 26040000 		.4byte	.LVL135
 11334 0881 3A040000 		.4byte	.LVL136
 11335 0885 0100     		.2byte	0x1
 11336 0887 50       		.byte	0x50
 11337 0888 3A040000 		.4byte	.LVL136
 11338 088c 4A040000 		.4byte	.LVL139
 11339 0890 0100     		.2byte	0x1
 11340 0892 54       		.byte	0x54
 11341 0893 00000000 		.4byte	0
 11342 0897 00000000 		.4byte	0
 11343              	.LLST25:
 11344 089b 5C040000 		.4byte	.LVL142
 11345 089f 70040000 		.4byte	.LVL143
 11346 08a3 0100     		.2byte	0x1
 11347 08a5 50       		.byte	0x50
ARM GAS  C:\Users\Phuong\AppData\Local\Temp\ccU7OqD6.s 			page 216


 11348 08a6 70040000 		.4byte	.LVL143
 11349 08aa 80040000 		.4byte	.LVL146
 11350 08ae 0100     		.2byte	0x1
 11351 08b0 54       		.byte	0x54
 11352 08b1 00000000 		.4byte	0
 11353 08b5 00000000 		.4byte	0
 11354              	.LLST26:
 11355 08b9 A4040000 		.4byte	.LVL150
 11356 08bd B8040000 		.4byte	.LVL151
 11357 08c1 0100     		.2byte	0x1
 11358 08c3 50       		.byte	0x50
 11359 08c4 B8040000 		.4byte	.LVL151
 11360 08c8 C8040000 		.4byte	.LVL154
 11361 08cc 0100     		.2byte	0x1
 11362 08ce 54       		.byte	0x54
 11363 08cf 00000000 		.4byte	0
 11364 08d3 00000000 		.4byte	0
 11365              	.LLST27:
 11366 08d7 DA040000 		.4byte	.LVL157
 11367 08db EE040000 		.4byte	.LVL158
 11368 08df 0100     		.2byte	0x1
 11369 08e1 50       		.byte	0x50
 11370 08e2 EE040000 		.4byte	.LVL158
 11371 08e6 FE040000 		.4byte	.LVL161
 11372 08ea 0100     		.2byte	0x1
 11373 08ec 54       		.byte	0x54
 11374 08ed 00000000 		.4byte	0
 11375 08f1 00000000 		.4byte	0
 11376              	.LLST28:
 11377 08f5 24050000 		.4byte	.LVL165
 11378 08f9 38050000 		.4byte	.LVL166
 11379 08fd 0100     		.2byte	0x1
 11380 08ff 50       		.byte	0x50
 11381 0900 38050000 		.4byte	.LVL166
 11382 0904 48050000 		.4byte	.LVL169
 11383 0908 0100     		.2byte	0x1
 11384 090a 54       		.byte	0x54
 11385 090b 00000000 		.4byte	0
 11386 090f 00000000 		.4byte	0
 11387              	.LLST29:
 11388 0913 5A050000 		.4byte	.LVL172
 11389 0917 6E050000 		.4byte	.LVL173
 11390 091b 0100     		.2byte	0x1
 11391 091d 50       		.byte	0x50
 11392 091e 6E050000 		.4byte	.LVL173
 11393 0922 7E050000 		.4byte	.LVL176
 11394 0926 0100     		.2byte	0x1
 11395 0928 54       		.byte	0x54
 11396 0929 00000000 		.4byte	0
 11397 092d 00000000 		.4byte	0
 11398              	.LLST30:
 11399 0931 AC050000 		.4byte	.LVL181
 11400 0935 C2050000 		.4byte	.LVL182
 11401 0939 0100     		.2byte	0x1
 11402 093b 50       		.byte	0x50
 11403 093c C2050000 		.4byte	.LVL182
 11404 0940 D2050000 		.4byte	.LVL185
ARM GAS  C:\Users\Phuong\AppData\Local\Temp\ccU7OqD6.s 			page 217


 11405 0944 0100     		.2byte	0x1
 11406 0946 54       		.byte	0x54
 11407 0947 00000000 		.4byte	0
 11408 094b 00000000 		.4byte	0
 11409              	.LLST31:
 11410 094f E4050000 		.4byte	.LVL188
 11411 0953 FA050000 		.4byte	.LVL189
 11412 0957 0100     		.2byte	0x1
 11413 0959 50       		.byte	0x50
 11414 095a FA050000 		.4byte	.LVL189
 11415 095e 0A060000 		.4byte	.LVL192
 11416 0962 0100     		.2byte	0x1
 11417 0964 54       		.byte	0x54
 11418 0965 00000000 		.4byte	0
 11419 0969 00000000 		.4byte	0
 11420              	.LLST32:
 11421 096d 36060000 		.4byte	.LVL196
 11422 0971 4C060000 		.4byte	.LVL197
 11423 0975 0100     		.2byte	0x1
 11424 0977 50       		.byte	0x50
 11425 0978 4C060000 		.4byte	.LVL197
 11426 097c 5C060000 		.4byte	.LVL200
 11427 0980 0100     		.2byte	0x1
 11428 0982 54       		.byte	0x54
 11429 0983 00000000 		.4byte	0
 11430 0987 00000000 		.4byte	0
 11431              	.LLST33:
 11432 098b 6E060000 		.4byte	.LVL203
 11433 098f 84060000 		.4byte	.LVL204
 11434 0993 0100     		.2byte	0x1
 11435 0995 50       		.byte	0x50
 11436 0996 84060000 		.4byte	.LVL204
 11437 099a 94060000 		.4byte	.LVL207
 11438 099e 0100     		.2byte	0x1
 11439 09a0 54       		.byte	0x54
 11440 09a1 00000000 		.4byte	0
 11441 09a5 00000000 		.4byte	0
 11442              	.LLST34:
 11443 09a9 D2060000 		.4byte	.LVL212
 11444 09ad E8060000 		.4byte	.LVL213
 11445 09b1 0100     		.2byte	0x1
 11446 09b3 50       		.byte	0x50
 11447 09b4 E8060000 		.4byte	.LVL213
 11448 09b8 F8060000 		.4byte	.LVL216
 11449 09bc 0100     		.2byte	0x1
 11450 09be 54       		.byte	0x54
 11451 09bf 00000000 		.4byte	0
 11452 09c3 00000000 		.4byte	0
 11453              	.LLST35:
 11454 09c7 0A070000 		.4byte	.LVL219
 11455 09cb 20070000 		.4byte	.LVL220
 11456 09cf 0100     		.2byte	0x1
 11457 09d1 50       		.byte	0x50
 11458 09d2 20070000 		.4byte	.LVL220
 11459 09d6 70070000 		.4byte	.LVL223
 11460 09da 0100     		.2byte	0x1
 11461 09dc 54       		.byte	0x54
ARM GAS  C:\Users\Phuong\AppData\Local\Temp\ccU7OqD6.s 			page 218


 11462 09dd 00000000 		.4byte	0
 11463 09e1 00000000 		.4byte	0
 11464              	.LLST36:
 11465 09e5 96070000 		.4byte	.LVL227
 11466 09e9 AC070000 		.4byte	.LVL228
 11467 09ed 0100     		.2byte	0x1
 11468 09ef 50       		.byte	0x50
 11469 09f0 AC070000 		.4byte	.LVL228
 11470 09f4 BC070000 		.4byte	.LVL231
 11471 09f8 0100     		.2byte	0x1
 11472 09fa 54       		.byte	0x54
 11473 09fb 00000000 		.4byte	0
 11474 09ff 00000000 		.4byte	0
 11475              	.LLST37:
 11476 0a03 CE070000 		.4byte	.LVL234
 11477 0a07 E4070000 		.4byte	.LVL235
 11478 0a0b 0100     		.2byte	0x1
 11479 0a0d 50       		.byte	0x50
 11480 0a0e E4070000 		.4byte	.LVL235
 11481 0a12 F4070000 		.4byte	.LVL238
 11482 0a16 0100     		.2byte	0x1
 11483 0a18 54       		.byte	0x54
 11484 0a19 00000000 		.4byte	0
 11485 0a1d 00000000 		.4byte	0
 11486              	.LLST38:
 11487 0a21 FC070000 		.4byte	.LVL240
 11488 0a25 01080000 		.4byte	.LVL241-1
 11489 0a29 0100     		.2byte	0x1
 11490 0a2b 50       		.byte	0x50
 11491 0a2c 01080000 		.4byte	.LVL241-1
 11492 0a30 04080000 		.4byte	.LVL242
 11493 0a34 0100     		.2byte	0x1
 11494 0a36 54       		.byte	0x54
 11495 0a37 2A080000 		.4byte	.LVL246
 11496 0a3b 2E080000 		.4byte	.LVL247
 11497 0a3f 0100     		.2byte	0x1
 11498 0a41 50       		.byte	0x50
 11499 0a42 2E080000 		.4byte	.LVL247
 11500 0a46 68080000 		.4byte	.LVL256
 11501 0a4a 0100     		.2byte	0x1
 11502 0a4c 54       		.byte	0x54
 11503 0a4d 00000000 		.4byte	0
 11504 0a51 00000000 		.4byte	0
 11505              	.LLST39:
 11506 0a55 04080000 		.4byte	.LVL242
 11507 0a59 1A080000 		.4byte	.LVL243
 11508 0a5d 0100     		.2byte	0x1
 11509 0a5f 50       		.byte	0x50
 11510 0a60 1A080000 		.4byte	.LVL243
 11511 0a64 2A080000 		.4byte	.LVL246
 11512 0a68 0100     		.2byte	0x1
 11513 0a6a 54       		.byte	0x54
 11514 0a6b 00000000 		.4byte	0
 11515 0a6f 00000000 		.4byte	0
 11516              	.LLST40:
 11517 0a73 3C080000 		.4byte	.LVL250
 11518 0a77 52080000 		.4byte	.LVL251
ARM GAS  C:\Users\Phuong\AppData\Local\Temp\ccU7OqD6.s 			page 219


 11519 0a7b 0100     		.2byte	0x1
 11520 0a7d 50       		.byte	0x50
 11521 0a7e 52080000 		.4byte	.LVL251
 11522 0a82 5E080000 		.4byte	.LVL254
 11523 0a86 0100     		.2byte	0x1
 11524 0a88 55       		.byte	0x55
 11525 0a89 00000000 		.4byte	0
 11526 0a8d 00000000 		.4byte	0
 11527              	.LLST41:
 11528 0a91 7A080000 		.4byte	.LVL259
 11529 0a95 90080000 		.4byte	.LVL260
 11530 0a99 0100     		.2byte	0x1
 11531 0a9b 50       		.byte	0x50
 11532 0a9c 90080000 		.4byte	.LVL260
 11533 0aa0 A0080000 		.4byte	.LVL263
 11534 0aa4 0100     		.2byte	0x1
 11535 0aa6 54       		.byte	0x54
 11536 0aa7 00000000 		.4byte	0
 11537 0aab 00000000 		.4byte	0
 11538              	.LLST42:
 11539 0aaf B2080000 		.4byte	.LVL266
 11540 0ab3 C8080000 		.4byte	.LVL267
 11541 0ab7 0100     		.2byte	0x1
 11542 0ab9 50       		.byte	0x50
 11543 0aba C8080000 		.4byte	.LVL267
 11544 0abe D8080000 		.4byte	.LVL270
 11545 0ac2 0100     		.2byte	0x1
 11546 0ac4 54       		.byte	0x54
 11547 0ac5 00000000 		.4byte	0
 11548 0ac9 00000000 		.4byte	0
 11549              	.LLST43:
 11550 0acd D8080000 		.4byte	.LVL270
 11551 0ad1 10090000 		.4byte	.LVL274
 11552 0ad5 0600     		.2byte	0x6
 11553 0ad7 54       		.byte	0x54
 11554 0ad8 93       		.byte	0x93
 11555 0ad9 04       		.uleb128 0x4
 11556 0ada 55       		.byte	0x55
 11557 0adb 93       		.byte	0x93
 11558 0adc 04       		.uleb128 0x4
 11559 0add 14090000 		.4byte	.LVL276
 11560 0ae1 3C090000 		.4byte	.LVL279
 11561 0ae5 0600     		.2byte	0x6
 11562 0ae7 54       		.byte	0x54
 11563 0ae8 93       		.byte	0x93
 11564 0ae9 04       		.uleb128 0x4
 11565 0aea 55       		.byte	0x55
 11566 0aeb 93       		.byte	0x93
 11567 0aec 04       		.uleb128 0x4
 11568 0aed 00000000 		.4byte	0
 11569 0af1 00000000 		.4byte	0
 11570              	.LLST44:
 11571 0af5 3C090000 		.4byte	.LVL279
 11572 0af9 52090000 		.4byte	.LVL280
 11573 0afd 0100     		.2byte	0x1
 11574 0aff 50       		.byte	0x50
 11575 0b00 52090000 		.4byte	.LVL280
ARM GAS  C:\Users\Phuong\AppData\Local\Temp\ccU7OqD6.s 			page 220


 11576 0b04 60090000 		.4byte	.LVL283
 11577 0b08 0100     		.2byte	0x1
 11578 0b0a 54       		.byte	0x54
 11579 0b0b 00000000 		.4byte	0
 11580 0b0f 00000000 		.4byte	0
 11581              	.LLST45:
 11582 0b13 72090000 		.4byte	.LVL286
 11583 0b17 88090000 		.4byte	.LVL287
 11584 0b1b 0100     		.2byte	0x1
 11585 0b1d 50       		.byte	0x50
 11586 0b1e 88090000 		.4byte	.LVL287
 11587 0b22 96090000 		.4byte	.LVL290
 11588 0b26 0100     		.2byte	0x1
 11589 0b28 54       		.byte	0x54
 11590 0b29 00000000 		.4byte	0
 11591 0b2d 00000000 		.4byte	0
 11592              	.LLST46:
 11593 0b31 AA090000 		.4byte	.LVL293
 11594 0b35 C0090000 		.4byte	.LVL294
 11595 0b39 0100     		.2byte	0x1
 11596 0b3b 50       		.byte	0x50
 11597 0b3c C0090000 		.4byte	.LVL294
 11598 0b40 CE090000 		.4byte	.LVL297
 11599 0b44 0100     		.2byte	0x1
 11600 0b46 54       		.byte	0x54
 11601 0b47 00000000 		.4byte	0
 11602 0b4b 00000000 		.4byte	0
 11603              	.LLST47:
 11604 0b4f E0090000 		.4byte	.LVL300
 11605 0b53 F6090000 		.4byte	.LVL301
 11606 0b57 0100     		.2byte	0x1
 11607 0b59 50       		.byte	0x50
 11608 0b5a F6090000 		.4byte	.LVL301
 11609 0b5e 040A0000 		.4byte	.LVL304
 11610 0b62 0100     		.2byte	0x1
 11611 0b64 54       		.byte	0x54
 11612 0b65 00000000 		.4byte	0
 11613 0b69 00000000 		.4byte	0
 11614              	.LLST48:
 11615 0b6d 180A0000 		.4byte	.LVL307
 11616 0b71 2E0A0000 		.4byte	.LVL308
 11617 0b75 0100     		.2byte	0x1
 11618 0b77 50       		.byte	0x50
 11619 0b78 2E0A0000 		.4byte	.LVL308
 11620 0b7c 3C0A0000 		.4byte	.LVL311
 11621 0b80 0100     		.2byte	0x1
 11622 0b82 54       		.byte	0x54
 11623 0b83 00000000 		.4byte	0
 11624 0b87 00000000 		.4byte	0
 11625              	.LLST49:
 11626 0b8b 4E0A0000 		.4byte	.LVL314
 11627 0b8f 640A0000 		.4byte	.LVL315
 11628 0b93 0100     		.2byte	0x1
 11629 0b95 50       		.byte	0x50
 11630 0b96 640A0000 		.4byte	.LVL315
 11631 0b9a 720A0000 		.4byte	.LVL318
 11632 0b9e 0100     		.2byte	0x1
ARM GAS  C:\Users\Phuong\AppData\Local\Temp\ccU7OqD6.s 			page 221


 11633 0ba0 54       		.byte	0x54
 11634 0ba1 00000000 		.4byte	0
 11635 0ba5 00000000 		.4byte	0
 11636              	.LLST50:
 11637 0ba9 860A0000 		.4byte	.LVL321
 11638 0bad 9C0A0000 		.4byte	.LVL322
 11639 0bb1 0100     		.2byte	0x1
 11640 0bb3 50       		.byte	0x50
 11641 0bb4 9C0A0000 		.4byte	.LVL322
 11642 0bb8 EC0A0000 		.4byte	.LVL325
 11643 0bbc 0100     		.2byte	0x1
 11644 0bbe 54       		.byte	0x54
 11645 0bbf 00000000 		.4byte	0
 11646 0bc3 00000000 		.4byte	0
 11647              	.LLST51:
 11648 0bc7 EC0A0000 		.4byte	.LVL325
 11649 0bcb A00B0000 		.4byte	.LVL353
 11650 0bcf 0100     		.2byte	0x1
 11651 0bd1 55       		.byte	0x55
 11652 0bd2 A20B0000 		.4byte	.LVL354
 11653 0bd6 F20B0000 		.4byte	.LVL363
 11654 0bda 0100     		.2byte	0x1
 11655 0bdc 55       		.byte	0x55
 11656 0bdd 00000000 		.4byte	0
 11657 0be1 00000000 		.4byte	0
 11658              	.LLST52:
 11659 0be5 F60A0000 		.4byte	.LVL327
 11660 0be9 FB0A0000 		.4byte	.LVL328-1
 11661 0bed 0100     		.2byte	0x1
 11662 0bef 50       		.byte	0x50
 11663 0bf0 FB0A0000 		.4byte	.LVL328-1
 11664 0bf4 1A0B0000 		.4byte	.LVL332
 11665 0bf8 0100     		.2byte	0x1
 11666 0bfa 56       		.byte	0x56
 11667 0bfb 1A0B0000 		.4byte	.LVL332
 11668 0bff 1D0B0000 		.4byte	.LVL333-1
 11669 0c03 0100     		.2byte	0x1
 11670 0c05 50       		.byte	0x50
 11671 0c06 1D0B0000 		.4byte	.LVL333-1
 11672 0c0a A00B0000 		.4byte	.LVL353
 11673 0c0e 0100     		.2byte	0x1
 11674 0c10 56       		.byte	0x56
 11675 0c11 00000000 		.4byte	0
 11676 0c15 00000000 		.4byte	0
 11677              	.LLST53:
 11678 0c19 FE0A0000 		.4byte	.LVL329
 11679 0c1d 160B0000 		.4byte	.LVL330
 11680 0c21 0100     		.2byte	0x1
 11681 0c23 50       		.byte	0x50
 11682 0c24 160B0000 		.4byte	.LVL330
 11683 0c28 1A0B0000 		.4byte	.LVL332
 11684 0c2c 0100     		.2byte	0x1
 11685 0c2e 54       		.byte	0x54
 11686 0c2f 00000000 		.4byte	0
 11687 0c33 00000000 		.4byte	0
 11688              	.LLST54:
 11689 0c37 200B0000 		.4byte	.LVL334
ARM GAS  C:\Users\Phuong\AppData\Local\Temp\ccU7OqD6.s 			page 222


 11690 0c3b 250B0000 		.4byte	.LVL335-1
 11691 0c3f 0100     		.2byte	0x1
 11692 0c41 50       		.byte	0x50
 11693 0c42 250B0000 		.4byte	.LVL335-1
 11694 0c46 4A0B0000 		.4byte	.LVL340
 11695 0c4a 0100     		.2byte	0x1
 11696 0c4c 57       		.byte	0x57
 11697 0c4d 4A0B0000 		.4byte	.LVL340
 11698 0c51 520B0000 		.4byte	.LVL341
 11699 0c55 0100     		.2byte	0x1
 11700 0c57 50       		.byte	0x50
 11701 0c58 520B0000 		.4byte	.LVL341
 11702 0c5c A00B0000 		.4byte	.LVL353
 11703 0c60 0100     		.2byte	0x1
 11704 0c62 57       		.byte	0x57
 11705 0c63 00000000 		.4byte	0
 11706 0c67 00000000 		.4byte	0
 11707              	.LLST55:
 11708 0c6b 280B0000 		.4byte	.LVL336
 11709 0c6f 400B0000 		.4byte	.LVL337
 11710 0c73 0100     		.2byte	0x1
 11711 0c75 50       		.byte	0x50
 11712 0c76 400B0000 		.4byte	.LVL337
 11713 0c7a 4A0B0000 		.4byte	.LVL340
 11714 0c7e 0100     		.2byte	0x1
 11715 0c80 54       		.byte	0x54
 11716 0c81 00000000 		.4byte	0
 11717 0c85 00000000 		.4byte	0
 11718              	.LLST56:
 11719 0c89 6C0B0000 		.4byte	.LVL345
 11720 0c8d 820B0000 		.4byte	.LVL346
 11721 0c91 0100     		.2byte	0x1
 11722 0c93 50       		.byte	0x50
 11723 0c94 820B0000 		.4byte	.LVL346
 11724 0c98 900B0000 		.4byte	.LVL349
 11725 0c9c 0100     		.2byte	0x1
 11726 0c9e 54       		.byte	0x54
 11727 0c9f 00000000 		.4byte	0
 11728 0ca3 00000000 		.4byte	0
 11729              	.LLST57:
 11730 0ca7 CE0B0000 		.4byte	.LVL359
 11731 0cab E40B0000 		.4byte	.LVL360
 11732 0caf 0100     		.2byte	0x1
 11733 0cb1 50       		.byte	0x50
 11734 0cb2 E40B0000 		.4byte	.LVL360
 11735 0cb6 F20B0000 		.4byte	.LVL363
 11736 0cba 0100     		.2byte	0x1
 11737 0cbc 54       		.byte	0x54
 11738 0cbd 00000000 		.4byte	0
 11739 0cc1 00000000 		.4byte	0
 11740              	.LLST58:
 11741 0cc5 040C0000 		.4byte	.LVL366
 11742 0cc9 180C0000 		.4byte	.LVL367
 11743 0ccd 0100     		.2byte	0x1
 11744 0ccf 50       		.byte	0x50
 11745 0cd0 180C0000 		.4byte	.LVL367
 11746 0cd4 260C0000 		.4byte	.LVL370
ARM GAS  C:\Users\Phuong\AppData\Local\Temp\ccU7OqD6.s 			page 223


 11747 0cd8 0100     		.2byte	0x1
 11748 0cda 54       		.byte	0x54
 11749 0cdb 00000000 		.4byte	0
 11750 0cdf 00000000 		.4byte	0
 11751              	.LLST59:
 11752 0ce3 3A0C0000 		.4byte	.LVL373
 11753 0ce7 4E0C0000 		.4byte	.LVL374
 11754 0ceb 0100     		.2byte	0x1
 11755 0ced 50       		.byte	0x50
 11756 0cee 4E0C0000 		.4byte	.LVL374
 11757 0cf2 5C0C0000 		.4byte	.LVL377
 11758 0cf6 0100     		.2byte	0x1
 11759 0cf8 54       		.byte	0x54
 11760 0cf9 00000000 		.4byte	0
 11761 0cfd 00000000 		.4byte	0
 11762              	.LLST60:
 11763 0d01 5C0C0000 		.4byte	.LVL377
 11764 0d05 A20D0000 		.4byte	.LVL425
 11765 0d09 0100     		.2byte	0x1
 11766 0d0b 55       		.byte	0x55
 11767 0d0c A40D0000 		.4byte	.LVL426
 11768 0d10 F40D0000 		.4byte	.LVL435
 11769 0d14 0100     		.2byte	0x1
 11770 0d16 55       		.byte	0x55
 11771 0d17 00000000 		.4byte	0
 11772 0d1b 00000000 		.4byte	0
 11773              	.LLST61:
 11774 0d1f 720C0000 		.4byte	.LVL380
 11775 0d23 8A0C0000 		.4byte	.LVL381
 11776 0d27 0100     		.2byte	0x1
 11777 0d29 50       		.byte	0x50
 11778 0d2a 8A0C0000 		.4byte	.LVL381
 11779 0d2e 8E0C0000 		.4byte	.LVL383
 11780 0d32 0100     		.2byte	0x1
 11781 0d34 54       		.byte	0x54
 11782 0d35 00000000 		.4byte	0
 11783 0d39 00000000 		.4byte	0
 11784              	.LLST62:
 11785 0d3d 960C0000 		.4byte	.LVL385
 11786 0d41 9B0C0000 		.4byte	.LVL386-1
 11787 0d45 0100     		.2byte	0x1
 11788 0d47 50       		.byte	0x50
 11789 0d48 9B0C0000 		.4byte	.LVL386-1
 11790 0d4c C40C0000 		.4byte	.LVL392
 11791 0d50 0100     		.2byte	0x1
 11792 0d52 56       		.byte	0x56
 11793 0d53 C40C0000 		.4byte	.LVL392
 11794 0d57 C60C0000 		.4byte	.LVL393
 11795 0d5b 0100     		.2byte	0x1
 11796 0d5d 50       		.byte	0x50
 11797 0d5e C60C0000 		.4byte	.LVL393
 11798 0d62 A20D0000 		.4byte	.LVL425
 11799 0d66 0100     		.2byte	0x1
 11800 0d68 56       		.byte	0x56
 11801 0d69 00000000 		.4byte	0
 11802 0d6d 00000000 		.4byte	0
 11803              	.LLST63:
ARM GAS  C:\Users\Phuong\AppData\Local\Temp\ccU7OqD6.s 			page 224


 11804 0d71 9E0C0000 		.4byte	.LVL387
 11805 0d75 B40C0000 		.4byte	.LVL388
 11806 0d79 0100     		.2byte	0x1
 11807 0d7b 50       		.byte	0x50
 11808 0d7c B40C0000 		.4byte	.LVL388
 11809 0d80 C40C0000 		.4byte	.LVL392
 11810 0d84 0100     		.2byte	0x1
 11811 0d86 54       		.byte	0x54
 11812 0d87 00000000 		.4byte	0
 11813 0d8b 00000000 		.4byte	0
 11814              	.LLST64:
 11815 0d8f CC0C0000 		.4byte	.LVL395
 11816 0d93 D30C0000 		.4byte	.LVL396-1
 11817 0d97 0100     		.2byte	0x1
 11818 0d99 50       		.byte	0x50
 11819 0d9a D30C0000 		.4byte	.LVL396-1
 11820 0d9e 040D0000 		.4byte	.LVL403
 11821 0da2 0100     		.2byte	0x1
 11822 0da4 57       		.byte	0x57
 11823 0da5 040D0000 		.4byte	.LVL403
 11824 0da9 0C0D0000 		.4byte	.LVL404
 11825 0dad 0100     		.2byte	0x1
 11826 0daf 50       		.byte	0x50
 11827 0db0 0C0D0000 		.4byte	.LVL404
 11828 0db4 A20D0000 		.4byte	.LVL425
 11829 0db8 0100     		.2byte	0x1
 11830 0dba 57       		.byte	0x57
 11831 0dbb 00000000 		.4byte	0
 11832 0dbf 00000000 		.4byte	0
 11833              	.LLST65:
 11834 0dc3 D60C0000 		.4byte	.LVL397
 11835 0dc7 EE0C0000 		.4byte	.LVL398
 11836 0dcb 0100     		.2byte	0x1
 11837 0dcd 50       		.byte	0x50
 11838 0dce EE0C0000 		.4byte	.LVL398
 11839 0dd2 040D0000 		.4byte	.LVL403
 11840 0dd6 0100     		.2byte	0x1
 11841 0dd8 54       		.byte	0x54
 11842 0dd9 00000000 		.4byte	0
 11843 0ddd 00000000 		.4byte	0
 11844              	.LLST66:
 11845 0de1 560D0000 		.4byte	.LVL412
 11846 0de5 6A0D0000 		.4byte	.LVL413
 11847 0de9 0100     		.2byte	0x1
 11848 0deb 50       		.byte	0x50
 11849 0dec 6A0D0000 		.4byte	.LVL413
 11850 0df0 860D0000 		.4byte	.LVL419
 11851 0df4 0100     		.2byte	0x1
 11852 0df6 54       		.byte	0x54
 11853 0df7 00000000 		.4byte	0
 11854 0dfb 00000000 		.4byte	0
 11855              	.LLST67:
 11856 0dff D20D0000 		.4byte	.LVL431
 11857 0e03 E60D0000 		.4byte	.LVL432
 11858 0e07 0100     		.2byte	0x1
 11859 0e09 50       		.byte	0x50
 11860 0e0a E60D0000 		.4byte	.LVL432
ARM GAS  C:\Users\Phuong\AppData\Local\Temp\ccU7OqD6.s 			page 225


 11861 0e0e F40D0000 		.4byte	.LVL435
 11862 0e12 0100     		.2byte	0x1
 11863 0e14 54       		.byte	0x54
 11864 0e15 00000000 		.4byte	0
 11865 0e19 00000000 		.4byte	0
 11866              	.LLST68:
 11867 0e1d 060E0000 		.4byte	.LVL438
 11868 0e21 1A0E0000 		.4byte	.LVL439
 11869 0e25 0100     		.2byte	0x1
 11870 0e27 50       		.byte	0x50
 11871 0e28 1A0E0000 		.4byte	.LVL439
 11872 0e2c 840E0000 		.4byte	.LVL442
 11873 0e30 0100     		.2byte	0x1
 11874 0e32 54       		.byte	0x54
 11875 0e33 00000000 		.4byte	0
 11876 0e37 00000000 		.4byte	0
 11877              	.LLST69:
 11878 0e3b 960E0000 		.4byte	.LVL445
 11879 0e3f AC0E0000 		.4byte	.LVL446
 11880 0e43 0100     		.2byte	0x1
 11881 0e45 50       		.byte	0x50
 11882 0e46 AC0E0000 		.4byte	.LVL446
 11883 0e4a BA0E0000 		.4byte	.LVL449
 11884 0e4e 0100     		.2byte	0x1
 11885 0e50 54       		.byte	0x54
 11886 0e51 00000000 		.4byte	0
 11887 0e55 00000000 		.4byte	0
 11888              	.LLST70:
 11889 0e59 BA0E0000 		.4byte	.LVL449
 11890 0e5d 6C0F0000 		.4byte	.LVL477
 11891 0e61 0100     		.2byte	0x1
 11892 0e63 55       		.byte	0x55
 11893 0e64 6E0F0000 		.4byte	.LVL478
 11894 0e68 BC0F0000 		.4byte	.LVL487
 11895 0e6c 0100     		.2byte	0x1
 11896 0e6e 55       		.byte	0x55
 11897 0e6f 00000000 		.4byte	0
 11898 0e73 00000000 		.4byte	0
 11899              	.LLST71:
 11900 0e77 C40E0000 		.4byte	.LVL451
 11901 0e7b C90E0000 		.4byte	.LVL452-1
 11902 0e7f 0100     		.2byte	0x1
 11903 0e81 50       		.byte	0x50
 11904 0e82 C90E0000 		.4byte	.LVL452-1
 11905 0e86 E80E0000 		.4byte	.LVL456
 11906 0e8a 0100     		.2byte	0x1
 11907 0e8c 56       		.byte	0x56
 11908 0e8d E80E0000 		.4byte	.LVL456
 11909 0e91 EB0E0000 		.4byte	.LVL457-1
 11910 0e95 0100     		.2byte	0x1
 11911 0e97 50       		.byte	0x50
 11912 0e98 EB0E0000 		.4byte	.LVL457-1
 11913 0e9c 6C0F0000 		.4byte	.LVL477
 11914 0ea0 0100     		.2byte	0x1
 11915 0ea2 56       		.byte	0x56
 11916 0ea3 00000000 		.4byte	0
 11917 0ea7 00000000 		.4byte	0
ARM GAS  C:\Users\Phuong\AppData\Local\Temp\ccU7OqD6.s 			page 226


 11918              	.LLST72:
 11919 0eab CC0E0000 		.4byte	.LVL453
 11920 0eaf E40E0000 		.4byte	.LVL454
 11921 0eb3 0100     		.2byte	0x1
 11922 0eb5 50       		.byte	0x50
 11923 0eb6 E40E0000 		.4byte	.LVL454
 11924 0eba E80E0000 		.4byte	.LVL456
 11925 0ebe 0100     		.2byte	0x1
 11926 0ec0 54       		.byte	0x54
 11927 0ec1 00000000 		.4byte	0
 11928 0ec5 00000000 		.4byte	0
 11929              	.LLST73:
 11930 0ec9 EE0E0000 		.4byte	.LVL458
 11931 0ecd F30E0000 		.4byte	.LVL459-1
 11932 0ed1 0100     		.2byte	0x1
 11933 0ed3 50       		.byte	0x50
 11934 0ed4 F30E0000 		.4byte	.LVL459-1
 11935 0ed8 180F0000 		.4byte	.LVL464
 11936 0edc 0100     		.2byte	0x1
 11937 0ede 57       		.byte	0x57
 11938 0edf 180F0000 		.4byte	.LVL464
 11939 0ee3 200F0000 		.4byte	.LVL465
 11940 0ee7 0100     		.2byte	0x1
 11941 0ee9 50       		.byte	0x50
 11942 0eea 200F0000 		.4byte	.LVL465
 11943 0eee 6C0F0000 		.4byte	.LVL477
 11944 0ef2 0100     		.2byte	0x1
 11945 0ef4 57       		.byte	0x57
 11946 0ef5 00000000 		.4byte	0
 11947 0ef9 00000000 		.4byte	0
 11948              	.LLST74:
 11949 0efd F60E0000 		.4byte	.LVL460
 11950 0f01 0E0F0000 		.4byte	.LVL461
 11951 0f05 0100     		.2byte	0x1
 11952 0f07 50       		.byte	0x50
 11953 0f08 0E0F0000 		.4byte	.LVL461
 11954 0f0c 180F0000 		.4byte	.LVL464
 11955 0f10 0100     		.2byte	0x1
 11956 0f12 54       		.byte	0x54
 11957 0f13 00000000 		.4byte	0
 11958 0f17 00000000 		.4byte	0
 11959              	.LLST75:
 11960 0f1b 3A0F0000 		.4byte	.LVL469
 11961 0f1f 4E0F0000 		.4byte	.LVL470
 11962 0f23 0100     		.2byte	0x1
 11963 0f25 50       		.byte	0x50
 11964 0f26 4E0F0000 		.4byte	.LVL470
 11965 0f2a 5C0F0000 		.4byte	.LVL473
 11966 0f2e 0100     		.2byte	0x1
 11967 0f30 54       		.byte	0x54
 11968 0f31 00000000 		.4byte	0
 11969 0f35 00000000 		.4byte	0
 11970              	.LLST76:
 11971 0f39 9A0F0000 		.4byte	.LVL483
 11972 0f3d AE0F0000 		.4byte	.LVL484
 11973 0f41 0100     		.2byte	0x1
 11974 0f43 50       		.byte	0x50
ARM GAS  C:\Users\Phuong\AppData\Local\Temp\ccU7OqD6.s 			page 227


 11975 0f44 AE0F0000 		.4byte	.LVL484
 11976 0f48 BC0F0000 		.4byte	.LVL487
 11977 0f4c 0100     		.2byte	0x1
 11978 0f4e 54       		.byte	0x54
 11979 0f4f 00000000 		.4byte	0
 11980 0f53 00000000 		.4byte	0
 11981              	.LLST77:
 11982 0f57 C40F0000 		.4byte	.LVL489
 11983 0f5b C90F0000 		.4byte	.LVL490-1
 11984 0f5f 0100     		.2byte	0x1
 11985 0f61 50       		.byte	0x50
 11986 0f62 C90F0000 		.4byte	.LVL490-1
 11987 0f66 CC0F0000 		.4byte	.LVL491
 11988 0f6a 0100     		.2byte	0x1
 11989 0f6c 54       		.byte	0x54
 11990 0f6d EE0F0000 		.4byte	.LVL495
 11991 0f71 F20F0000 		.4byte	.LVL496
 11992 0f75 0100     		.2byte	0x1
 11993 0f77 50       		.byte	0x50
 11994 0f78 F20F0000 		.4byte	.LVL496
 11995 0f7c 00100000 		.4byte	.LVL499
 11996 0f80 0100     		.2byte	0x1
 11997 0f82 54       		.byte	0x54
 11998 0f83 22100000 		.4byte	.LVL503
 11999 0f87 2A100000 		.4byte	.LVL505
 12000 0f8b 0100     		.2byte	0x1
 12001 0f8d 54       		.byte	0x54
 12002 0f8e 00000000 		.4byte	0
 12003 0f92 00000000 		.4byte	0
 12004              	.LLST78:
 12005 0f96 CC0F0000 		.4byte	.LVL491
 12006 0f9a E00F0000 		.4byte	.LVL492
 12007 0f9e 0100     		.2byte	0x1
 12008 0fa0 50       		.byte	0x50
 12009 0fa1 E00F0000 		.4byte	.LVL492
 12010 0fa5 EE0F0000 		.4byte	.LVL495
 12011 0fa9 0100     		.2byte	0x1
 12012 0fab 54       		.byte	0x54
 12013 0fac 00000000 		.4byte	0
 12014 0fb0 00000000 		.4byte	0
 12015              	.LLST79:
 12016 0fb4 00100000 		.4byte	.LVL499
 12017 0fb8 14100000 		.4byte	.LVL500
 12018 0fbc 0100     		.2byte	0x1
 12019 0fbe 50       		.byte	0x50
 12020 0fbf 14100000 		.4byte	.LVL500
 12021 0fc3 22100000 		.4byte	.LVL503
 12022 0fc7 0100     		.2byte	0x1
 12023 0fc9 54       		.byte	0x54
 12024 0fca 00000000 		.4byte	0
 12025 0fce 00000000 		.4byte	0
 12026              	.LLST80:
 12027 0fd2 2A100000 		.4byte	.LVL505
 12028 0fd6 2F100000 		.4byte	.LVL506-1
 12029 0fda 0100     		.2byte	0x1
 12030 0fdc 50       		.byte	0x50
 12031 0fdd 2F100000 		.4byte	.LVL506-1
ARM GAS  C:\Users\Phuong\AppData\Local\Temp\ccU7OqD6.s 			page 228


 12032 0fe1 32100000 		.4byte	.LVL507
 12033 0fe5 0100     		.2byte	0x1
 12034 0fe7 54       		.byte	0x54
 12035 0fe8 56100000 		.4byte	.LVL511
 12036 0fec 5A100000 		.4byte	.LVL512
 12037 0ff0 0100     		.2byte	0x1
 12038 0ff2 50       		.byte	0x50
 12039 0ff3 5A100000 		.4byte	.LVL512
 12040 0ff7 90100000 		.4byte	.LVL520
 12041 0ffb 0100     		.2byte	0x1
 12042 0ffd 54       		.byte	0x54
 12043 0ffe 00000000 		.4byte	0
 12044 1002 00000000 		.4byte	0
 12045              	.LLST81:
 12046 1006 32100000 		.4byte	.LVL507
 12047 100a 48100000 		.4byte	.LVL508
 12048 100e 0100     		.2byte	0x1
 12049 1010 50       		.byte	0x50
 12050 1011 48100000 		.4byte	.LVL508
 12051 1015 56100000 		.4byte	.LVL511
 12052 1019 0100     		.2byte	0x1
 12053 101b 54       		.byte	0x54
 12054 101c 00000000 		.4byte	0
 12055 1020 00000000 		.4byte	0
 12056              	.LLST82:
 12057 1024 68100000 		.4byte	.LVL515
 12058 1028 7E100000 		.4byte	.LVL516
 12059 102c 0100     		.2byte	0x1
 12060 102e 50       		.byte	0x50
 12061 102f 7E100000 		.4byte	.LVL516
 12062 1033 8A100000 		.4byte	.LVL519
 12063 1037 0100     		.2byte	0x1
 12064 1039 55       		.byte	0x55
 12065 103a 00000000 		.4byte	0
 12066 103e 00000000 		.4byte	0
 12067              		.section	.debug_aranges,"",%progbits
 12068 0000 24000000 		.4byte	0x24
 12069 0004 0200     		.2byte	0x2
 12070 0006 00000000 		.4byte	.Ldebug_info0
 12071 000a 04       		.byte	0x4
 12072 000b 00       		.byte	0
 12073 000c 0000     		.2byte	0
 12074 000e 0000     		.2byte	0
 12075 0010 00000000 		.4byte	.LFB1
 12076 0014 70000000 		.4byte	.LFE1-.LFB1
 12077 0018 00000000 		.4byte	.LFB2
 12078 001c D4100000 		.4byte	.LFE2-.LFB2
 12079 0020 00000000 		.4byte	0
 12080 0024 00000000 		.4byte	0
 12081              		.section	.debug_ranges,"",%progbits
 12082              	.Ldebug_ranges0:
 12083 0000 D8080000 		.4byte	.LBB56
 12084 0004 10090000 		.4byte	.LBE56
 12085 0008 14090000 		.4byte	.LBB59
 12086 000c 60090000 		.4byte	.LBE59
 12087 0010 00000000 		.4byte	0
 12088 0014 00000000 		.4byte	0
ARM GAS  C:\Users\Phuong\AppData\Local\Temp\ccU7OqD6.s 			page 229


 12089 0018 EC0A0000 		.4byte	.LBB69
 12090 001c A00B0000 		.4byte	.LBE69
 12091 0020 A20B0000 		.4byte	.LBB76
 12092 0024 F20B0000 		.4byte	.LBE76
 12093 0028 00000000 		.4byte	0
 12094 002c 00000000 		.4byte	0
 12095 0030 5C0C0000 		.4byte	.LBB80
 12096 0034 A20D0000 		.4byte	.LBE80
 12097 0038 A40D0000 		.4byte	.LBB89
 12098 003c F40D0000 		.4byte	.LBE89
 12099 0040 00000000 		.4byte	0
 12100 0044 00000000 		.4byte	0
 12101 0048 BA0E0000 		.4byte	.LBB93
 12102 004c 6C0F0000 		.4byte	.LBE93
 12103 0050 6E0F0000 		.4byte	.LBB100
 12104 0054 BC0F0000 		.4byte	.LBE100
 12105 0058 00000000 		.4byte	0
 12106 005c 00000000 		.4byte	0
 12107 0060 00000000 		.4byte	.LFB1
 12108 0064 70000000 		.4byte	.LFE1
 12109 0068 00000000 		.4byte	.LFB2
 12110 006c D4100000 		.4byte	.LFE2
 12111 0070 00000000 		.4byte	0
 12112 0074 00000000 		.4byte	0
 12113              		.section	.debug_line,"",%progbits
 12114              	.Ldebug_line0:
 12115 0000 21080000 		.section	.debug_str,"MS",%progbits,1
 12115      0200F702 
 12115      00000201 
 12115      FB0E0D00 
 12115      01010101 
 12116              	.LASF66:
 12117 0000 746F5F63 		.ascii	"to_concat\000"
 12117      6F6E6361 
 12117      7400
 12118              	.LASF123:
 12119 000a 616D7170 		.ascii	"amqpvalue_get_inplace_described_value\000"
 12119      76616C75 
 12119      655F6765 
 12119      745F696E 
 12119      706C6163 
 12120              	.LASF93:
 12121 0030 7374726C 		.ascii	"strlen\000"
 12121      656E00
 12122              	.LASF119:
 12123 0037 616D7170 		.ascii	"amqpvalue_get_map_key_value_pair\000"
 12123      76616C75 
 12123      655F6765 
 12123      745F6D61 
 12123      705F6B65 
 12124              	.LASF41:
 12125 0058 414D5150 		.ascii	"AMQP_TYPE_BYTE\000"
 12125      5F545950 
 12125      455F4259 
 12125      544500
 12126              	.LASF54:
 12127 0067 414D5150 		.ascii	"AMQP_TYPE_MAP\000"
ARM GAS  C:\Users\Phuong\AppData\Local\Temp\ccU7OqD6.s 			page 230


 12127      5F545950 
 12127      455F4D41 
 12127      5000
 12128              	.LASF103:
 12129 0075 616D7170 		.ascii	"amqpvalue_get_short\000"
 12129      76616C75 
 12129      655F6765 
 12129      745F7368 
 12129      6F727400 
 12130              	.LASF0:
 12131 0089 756E7369 		.ascii	"unsigned int\000"
 12131      676E6564 
 12131      20696E74 
 12131      00
 12132              	.LASF121:
 12133 0096 616D7170 		.ascii	"amqpvalue_get_array_item\000"
 12133      76616C75 
 12133      655F6765 
 12133      745F6172 
 12133      7261795F 
 12134              	.LASF11:
 12135 00af 5F5F696E 		.ascii	"__int32_t\000"
 12135      7433325F 
 12135      7400
 12136              	.LASF131:
 12137 00b9 616D7170 		.ascii	"amqpvalue_to_string\000"
 12137      76616C75 
 12137      655F746F 
 12137      5F737472 
 12137      696E6700 
 12138              	.LASF115:
 12139 00cd 616D7170 		.ascii	"amqpvalue_get_symbol\000"
 12139      76616C75 
 12139      655F6765 
 12139      745F7379 
 12139      6D626F6C 
 12140              	.LASF80:
 12141 00e2 62696E61 		.ascii	"binary_value\000"
 12141      72795F76 
 12141      616C7565 
 12141      00
 12142              	.LASF37:
 12143 00ef 414D5150 		.ascii	"AMQP_TYPE_UBYTE\000"
 12143      5F545950 
 12143      455F5542 
 12143      59544500 
 12144              	.LASF92:
 12145 00ff 786C6F67 		.ascii	"xlogging_get_log_function\000"
 12145      67696E67 
 12145      5F676574 
 12145      5F6C6F67 
 12145      5F66756E 
 12146              	.LASF64:
 12147 0119 616D7170 		.ascii	"amqp_binary\000"
 12147      5F62696E 
 12147      61727900 
 12148              	.LASF24:
ARM GAS  C:\Users\Phuong\AppData\Local\Temp\ccU7OqD6.s 			page 231


 12149 0125 75696E74 		.ascii	"uint32_t\000"
 12149      33325F74 
 12149      00
 12150              	.LASF120:
 12151 012e 616D7170 		.ascii	"amqpvalue_get_map_pair_count\000"
 12151      76616C75 
 12151      655F6765 
 12151      745F6D61 
 12151      705F7061 
 12152              	.LASF51:
 12153 014b 414D5150 		.ascii	"AMQP_TYPE_STRING\000"
 12153      5F545950 
 12153      455F5354 
 12153      52494E47 
 12153      00
 12154              	.LASF59:
 12155 015c 414D5150 		.ascii	"AMQP_TYPE\000"
 12155      5F545950 
 12155      4500
 12156              	.LASF90:
 12157 0166 666C6F61 		.ascii	"float\000"
 12157      7400
 12158              	.LASF125:
 12159 016c 474E5520 		.ascii	"GNU C11 5.4.1 20160609 (release) [ARM/embedded-5-br"
 12159      43313120 
 12159      352E342E 
 12159      31203230 
 12159      31363036 
 12160 019f 616E6368 		.ascii	"anch revision 237715] -mcpu=cortex-m0plus -mthumb -"
 12160      20726576 
 12160      6973696F 
 12160      6E203233 
 12160      37373135 
 12161 01d2 67202D4F 		.ascii	"g -Og -ffunction-sections -ffat-lto-objects\000"
 12161      67202D66 
 12161      66756E63 
 12161      74696F6E 
 12161      2D736563 
 12162              	.LASF128:
 12163 01fe 414D5150 		.ascii	"AMQP_VALUE_DATA_TAG\000"
 12163      5F56414C 
 12163      55455F44 
 12163      4154415F 
 12163      54414700 
 12164              	.LASF82:
 12165 0212 636F756E 		.ascii	"count\000"
 12165      7400
 12166              	.LASF88:
 12167 0218 64657363 		.ascii	"described_value_string\000"
 12167      72696265 
 12167      645F7661 
 12167      6C75655F 
 12167      73747269 
 12168              	.LASF21:
 12169 022f 696E7431 		.ascii	"int16_t\000"
 12169      365F7400 
 12170              	.LASF56:
ARM GAS  C:\Users\Phuong\AppData\Local\Temp\ccU7OqD6.s 			page 232


 12171 0237 414D5150 		.ascii	"AMQP_TYPE_DESCRIBED\000"
 12171      5F545950 
 12171      455F4445 
 12171      53435249 
 12171      42454400 
 12172              	.LASF67:
 12173 024b 72657375 		.ascii	"result\000"
 12173      6C7400
 12174              	.LASF17:
 12175 0252 6C6F6E67 		.ascii	"long long unsigned int\000"
 12175      206C6F6E 
 12175      6720756E 
 12175      7369676E 
 12175      65642069 
 12176              	.LASF42:
 12177 0269 414D5150 		.ascii	"AMQP_TYPE_SHORT\000"
 12177      5F545950 
 12177      455F5348 
 12177      4F525400 
 12178              	.LASF48:
 12179 0279 414D5150 		.ascii	"AMQP_TYPE_TIMESTAMP\000"
 12179      5F545950 
 12179      455F5449 
 12179      4D455354 
 12179      414D5000 
 12180              	.LASF9:
 12181 028d 5F5F7569 		.ascii	"__uint16_t\000"
 12181      6E743136 
 12181      5F7400
 12182              	.LASF39:
 12183 0298 414D5150 		.ascii	"AMQP_TYPE_UINT\000"
 12183      5F545950 
 12183      455F5549 
 12183      4E5400
 12184              	.LASF107:
 12185 02a7 616D7170 		.ascii	"amqpvalue_get_float\000"
 12185      76616C75 
 12185      655F6765 
 12185      745F666C 
 12185      6F617400 
 12186              	.LASF73:
 12187 02bb 76616C75 		.ascii	"value\000"
 12187      6500
 12188              	.LASF127:
 12189 02c1 433A5C55 		.ascii	"C:\\Users\\Phuong\\Documents\\PSoC Creator\\Dec0820"
 12189      73657273 
 12189      5C506875 
 12189      6F6E675C 
 12189      446F6375 
 12190 02ef 31385C69 		.ascii	"18\\iot-sdk-iot-dev\\PSOC6_FreeRTOS+LwIP+MbedTLS_Az"
 12190      6F742D73 
 12190      646B2D69 
 12190      6F742D64 
 12190      65765C50 
 12191 0320 7572652D 		.ascii	"ure-IOT-Hub-Demo\\PSOC6_FreeRTOS+LwIP+MbedTLS_Azure"
 12191      494F542D 
 12191      4875622D 
ARM GAS  C:\Users\Phuong\AppData\Local\Temp\ccU7OqD6.s 			page 233


 12191      44656D6F 
 12191      5C50534F 
 12192 0352 2D494F54 		.ascii	"-IOT-Hub-Demo.cydsn\000"
 12192      2D487562 
 12192      2D44656D 
 12192      6F2E6379 
 12192      64736E00 
 12193              	.LASF102:
 12194 0366 616D7170 		.ascii	"amqpvalue_get_byte\000"
 12194      76616C75 
 12194      655F6765 
 12194      745F6279 
 12194      746500
 12195              	.LASF4:
 12196 0379 73697A65 		.ascii	"size_t\000"
 12196      5F7400
 12197              	.LASF25:
 12198 0380 696E7436 		.ascii	"int64_t\000"
 12198      345F7400 
 12199              	.LASF43:
 12200 0388 414D5150 		.ascii	"AMQP_TYPE_INT\000"
 12200      5F545950 
 12200      455F494E 
 12200      5400
 12201              	.LASF89:
 12202 0396 5F426F6F 		.ascii	"_Bool\000"
 12202      6C00
 12203              	.LASF69:
 12204 039c 7372635F 		.ascii	"src_length\000"
 12204      6C656E67 
 12204      746800
 12205              	.LASF117:
 12206 03a7 616D7170 		.ascii	"amqpvalue_get_list_item\000"
 12206      76616C75 
 12206      655F6765 
 12206      745F6C69 
 12206      73745F69 
 12207              	.LASF62:
 12208 03bf 62797465 		.ascii	"bytes\000"
 12208      7300
 12209              	.LASF61:
 12210 03c5 75756964 		.ascii	"uuid\000"
 12210      00
 12211              	.LASF96:
 12212 03ca 66726565 		.ascii	"free\000"
 12212      00
 12213              	.LASF16:
 12214 03cf 5F5F7569 		.ascii	"__uint64_t\000"
 12214      6E743634 
 12214      5F7400
 12215              	.LASF85:
 12216 03da 6B65795F 		.ascii	"key_string\000"
 12216      73747269 
 12216      6E6700
 12217              	.LASF78:
 12218 03e5 75756964 		.ascii	"uuid_value\000"
 12218      5F76616C 
ARM GAS  C:\Users\Phuong\AppData\Local\Temp\ccU7OqD6.s 			page 234


 12218      756500
 12219              	.LASF55:
 12220 03f0 414D5150 		.ascii	"AMQP_TYPE_ARRAY\000"
 12220      5F545950 
 12220      455F4152 
 12220      52415900 
 12221              	.LASF130:
 12222 0400 73747269 		.ascii	"string_concat\000"
 12222      6E675F63 
 12222      6F6E6361 
 12222      7400
 12223              	.LASF30:
 12224 040e 4C4F475F 		.ascii	"LOG_CATEGORY\000"
 12224      43415445 
 12224      474F5259 
 12224      00
 12225              	.LASF76:
 12226 041b 646F7562 		.ascii	"double_value\000"
 12226      6C655F76 
 12226      616C7565 
 12226      00
 12227              	.LASF68:
 12228 0428 6E65775F 		.ascii	"new_string\000"
 12228      73747269 
 12228      6E6700
 12229              	.LASF19:
 12230 0433 63686172 		.ascii	"char\000"
 12230      00
 12231              	.LASF53:
 12232 0438 414D5150 		.ascii	"AMQP_TYPE_LIST\000"
 12232      5F545950 
 12232      455F4C49 
 12232      535400
 12233              	.LASF65:
 12234 0447 73747269 		.ascii	"string\000"
 12234      6E6700
 12235              	.LASF95:
 12236 044e 616D7170 		.ascii	"amqpvalue_get_boolean\000"
 12236      76616C75 
 12236      655F6765 
 12236      745F626F 
 12236      6F6C6561 
 12237              	.LASF114:
 12238 0464 616D7170 		.ascii	"amqpvalue_get_string\000"
 12238      76616C75 
 12238      655F6765 
 12238      745F7374 
 12238      72696E67 
 12239              	.LASF28:
 12240 0479 415A5F4C 		.ascii	"AZ_LOG_INFO\000"
 12240      4F475F49 
 12240      4E464F00 
 12241              	.LASF20:
 12242 0485 75696E74 		.ascii	"uint8_t\000"
 12242      385F7400 
 12243              	.LASF44:
 12244 048d 414D5150 		.ascii	"AMQP_TYPE_LONG\000"
ARM GAS  C:\Users\Phuong\AppData\Local\Temp\ccU7OqD6.s 			page 235


 12244      5F545950 
 12244      455F4C4F 
 12244      4E4700
 12245              	.LASF72:
 12246 049c 616D7170 		.ascii	"amqp_type\000"
 12246      5F747970 
 12246      6500
 12247              	.LASF97:
 12248 04a6 616D7170 		.ascii	"amqpvalue_get_ubyte\000"
 12248      76616C75 
 12248      655F6765 
 12248      745F7562 
 12248      79746500 
 12249              	.LASF1:
 12250 04ba 6C6F6E67 		.ascii	"long long int\000"
 12250      206C6F6E 
 12250      6720696E 
 12250      7400
 12251              	.LASF75:
 12252 04c8 666C6F61 		.ascii	"float_value\000"
 12252      745F7661 
 12252      6C756500 
 12253              	.LASF126:
 12254 04d4 536F7572 		.ascii	"Source\\azure_iot_sdk\\uamqp\\src\\amqpvalue_to_str"
 12254      63655C61 
 12254      7A757265 
 12254      5F696F74 
 12254      5F73646B 
 12255 0503 696E672E 		.ascii	"ing.c\000"
 12255      6300
 12256              	.LASF87:
 12257 0509 64657363 		.ascii	"described_value\000"
 12257      72696265 
 12257      645F7661 
 12257      6C756500 
 12258              	.LASF50:
 12259 0519 414D5150 		.ascii	"AMQP_TYPE_BINARY\000"
 12259      5F545950 
 12259      455F4249 
 12259      4E415259 
 12259      00
 12260              	.LASF7:
 12261 052a 5F5F696E 		.ascii	"__int16_t\000"
 12261      7431365F 
 12261      7400
 12262              	.LASF86:
 12263 0534 76616C75 		.ascii	"value_string\000"
 12263      655F7374 
 12263      72696E67 
 12263      00
 12264              	.LASF100:
 12265 0541 616D7170 		.ascii	"amqpvalue_get_uint\000"
 12265      76616C75 
 12265      655F6765 
 12265      745F7569 
 12265      6E7400
 12266              	.LASF106:
ARM GAS  C:\Users\Phuong\AppData\Local\Temp\ccU7OqD6.s 			page 236


 12267 0554 736E7072 		.ascii	"snprintf\000"
 12267      696E7466 
 12267      00
 12268              	.LASF84:
 12269 055d 6974656D 		.ascii	"item_string\000"
 12269      5F737472 
 12269      696E6700 
 12270              	.LASF110:
 12271 0569 616D7170 		.ascii	"amqpvalue_get_timestamp\000"
 12271      76616C75 
 12271      655F6765 
 12271      745F7469 
 12271      6D657374 
 12272              	.LASF40:
 12273 0581 414D5150 		.ascii	"AMQP_TYPE_ULONG\000"
 12273      5F545950 
 12273      455F554C 
 12273      4F4E4700 
 12274              	.LASF98:
 12275 0591 73707269 		.ascii	"sprintf\000"
 12275      6E746600 
 12276              	.LASF38:
 12277 0599 414D5150 		.ascii	"AMQP_TYPE_USHORT\000"
 12277      5F545950 
 12277      455F5553 
 12277      484F5254 
 12277      00
 12278              	.LASF46:
 12279 05aa 414D5150 		.ascii	"AMQP_TYPE_DOUBLE\000"
 12279      5F545950 
 12279      455F444F 
 12279      55424C45 
 12279      00
 12280              	.LASF15:
 12281 05bb 5F5F696E 		.ascii	"__int64_t\000"
 12281      7436345F 
 12281      7400
 12282              	.LASF2:
 12283 05c5 6C6F6E67 		.ascii	"long double\000"
 12283      20646F75 
 12283      626C6500 
 12284              	.LASF79:
 12285 05d1 75756964 		.ascii	"uuid_string_value\000"
 12285      5F737472 
 12285      696E675F 
 12285      76616C75 
 12285      6500
 12286              	.LASF22:
 12287 05e3 75696E74 		.ascii	"uint16_t\000"
 12287      31365F74 
 12287      00
 12288              	.LASF129:
 12289 05ec 616D7170 		.ascii	"amqp_binary_TAG\000"
 12289      5F62696E 
 12289      6172795F 
 12289      54414700 
 12290              	.LASF47:
ARM GAS  C:\Users\Phuong\AppData\Local\Temp\ccU7OqD6.s 			page 237


 12291 05fc 414D5150 		.ascii	"AMQP_TYPE_CHAR\000"
 12291      5F545950 
 12291      455F4348 
 12291      415200
 12292              	.LASF27:
 12293 060b 415A5F4C 		.ascii	"AZ_LOG_ERROR\000"
 12293      4F475F45 
 12293      52524F52 
 12293      00
 12294              	.LASF60:
 12295 0618 414D5150 		.ascii	"AMQP_VALUE\000"
 12295      5F56414C 
 12295      554500
 12296              	.LASF57:
 12297 0623 414D5150 		.ascii	"AMQP_TYPE_COMPOSITE\000"
 12297      5F545950 
 12297      455F434F 
 12297      4D504F53 
 12297      49544500 
 12298              	.LASF8:
 12299 0637 73686F72 		.ascii	"short int\000"
 12299      7420696E 
 12299      7400
 12300              	.LASF12:
 12301 0641 6C6F6E67 		.ascii	"long int\000"
 12301      20696E74 
 12301      00
 12302              	.LASF63:
 12303 064a 6C656E67 		.ascii	"length\000"
 12303      746800
 12304              	.LASF49:
 12305 0651 414D5150 		.ascii	"AMQP_TYPE_UUID\000"
 12305      5F545950 
 12305      455F5555 
 12305      494400
 12306              	.LASF74:
 12307 0660 7374725F 		.ascii	"str_value\000"
 12307      76616C75 
 12307      6500
 12308              	.LASF32:
 12309 066a 55554944 		.ascii	"UUID_T\000"
 12309      5F5400
 12310              	.LASF105:
 12311 0671 616D7170 		.ascii	"amqpvalue_get_long\000"
 12311      76616C75 
 12311      655F6765 
 12311      745F6C6F 
 12311      6E6700
 12312              	.LASF26:
 12313 0684 75696E74 		.ascii	"uint64_t\000"
 12313      36345F74 
 12313      00
 12314              	.LASF118:
 12315 068d 616D7170 		.ascii	"amqpvalue_get_list_item_count\000"
 12315      76616C75 
 12315      655F6765 
 12315      745F6C69 
ARM GAS  C:\Users\Phuong\AppData\Local\Temp\ccU7OqD6.s 			page 238


 12315      73745F69 
 12316              	.LASF111:
 12317 06ab 55554944 		.ascii	"UUID_to_string\000"
 12317      5F746F5F 
 12317      73747269 
 12317      6E6700
 12318              	.LASF5:
 12319 06ba 5F5F7569 		.ascii	"__uint8_t\000"
 12319      6E74385F 
 12319      7400
 12320              	.LASF113:
 12321 06c4 616D7170 		.ascii	"amqpvalue_get_binary\000"
 12321      76616C75 
 12321      655F6765 
 12321      745F6269 
 12321      6E617279 
 12322              	.LASF124:
 12323 06d9 616D7170 		.ascii	"amqpvalue_get_type\000"
 12323      76616C75 
 12323      655F6765 
 12323      745F7479 
 12323      706500
 12324              	.LASF36:
 12325 06ec 414D5150 		.ascii	"AMQP_TYPE_BOOL\000"
 12325      5F545950 
 12325      455F424F 
 12325      4F4C00
 12326              	.LASF104:
 12327 06fb 616D7170 		.ascii	"amqpvalue_get_int\000"
 12327      76616C75 
 12327      655F6765 
 12327      745F696E 
 12327      7400
 12328              	.LASF116:
 12329 070d 616D7170 		.ascii	"amqpvalue_destroy\000"
 12329      76616C75 
 12329      655F6465 
 12329      7374726F 
 12329      7900
 12330              	.LASF31:
 12331 071f 4C4F4747 		.ascii	"LOGGER_LOG\000"
 12331      45525F4C 
 12331      4F4700
 12332              	.LASF18:
 12333 072a 73697A65 		.ascii	"sizetype\000"
 12333      74797065 
 12333      00
 12334              	.LASF14:
 12335 0733 6C6F6E67 		.ascii	"long unsigned int\000"
 12335      20756E73 
 12335      69676E65 
 12335      6420696E 
 12335      7400
 12336              	.LASF23:
 12337 0745 696E7433 		.ascii	"int32_t\000"
 12337      325F7400 
 12338              	.LASF58:
ARM GAS  C:\Users\Phuong\AppData\Local\Temp\ccU7OqD6.s 			page 239


 12339 074d 414D5150 		.ascii	"AMQP_TYPE_UNKNOWN\000"
 12339      5F545950 
 12339      455F554E 
 12339      4B4E4F57 
 12339      4E00
 12340              	.LASF6:
 12341 075f 756E7369 		.ascii	"unsigned char\000"
 12341      676E6564 
 12341      20636861 
 12341      7200
 12342              	.LASF13:
 12343 076d 5F5F7569 		.ascii	"__uint32_t\000"
 12343      6E743332 
 12343      5F7400
 12344              	.LASF99:
 12345 0778 616D7170 		.ascii	"amqpvalue_get_ushort\000"
 12345      76616C75 
 12345      655F6765 
 12345      745F7573 
 12345      686F7274 
 12346              	.LASF108:
 12347 078d 616D7170 		.ascii	"amqpvalue_get_double\000"
 12347      76616C75 
 12347      655F6765 
 12347      745F646F 
 12347      75626C65 
 12348              	.LASF33:
 12349 07a2 4C4F475F 		.ascii	"LOG_CATEGORY_TAG\000"
 12349      43415445 
 12349      474F5259 
 12349      5F544147 
 12349      00
 12350              	.LASF35:
 12351 07b3 414D5150 		.ascii	"AMQP_TYPE_NULL\000"
 12351      5F545950 
 12351      455F4E55 
 12351      4C4C00
 12352              	.LASF52:
 12353 07c2 414D5150 		.ascii	"AMQP_TYPE_SYMBOL\000"
 12353      5F545950 
 12353      455F5359 
 12353      4D424F4C 
 12353      00
 12354              	.LASF29:
 12355 07d3 415A5F4C 		.ascii	"AZ_LOG_TRACE\000"
 12355      4F475F54 
 12355      52414345 
 12355      00
 12356              	.LASF83:
 12357 07e0 6974656D 		.ascii	"item\000"
 12357      00
 12358              	.LASF94:
 12359 07e5 7265616C 		.ascii	"realloc\000"
 12359      6C6F6300 
 12360              	.LASF101:
 12361 07ed 616D7170 		.ascii	"amqpvalue_get_ulong\000"
 12361      76616C75 
ARM GAS  C:\Users\Phuong\AppData\Local\Temp\ccU7OqD6.s 			page 240


 12361      655F6765 
 12361      745F756C 
 12361      6F6E6700 
 12362              	.LASF109:
 12363 0801 616D7170 		.ascii	"amqpvalue_get_char\000"
 12363      76616C75 
 12363      655F6765 
 12363      745F6368 
 12363      617200
 12364              	.LASF3:
 12365 0814 7369676E 		.ascii	"signed char\000"
 12365      65642063 
 12365      68617200 
 12366              	.LASF34:
 12367 0820 414D5150 		.ascii	"AMQP_TYPE_TAG\000"
 12367      5F545950 
 12367      455F5441 
 12367      4700
 12368              	.LASF10:
 12369 082e 73686F72 		.ascii	"short unsigned int\000"
 12369      7420756E 
 12369      7369676E 
 12369      65642069 
 12369      6E7400
 12370              	.LASF132:
 12371 0841 6D656D63 		.ascii	"memcpy\000"
 12371      707900
 12372              	.LASF71:
 12373 0848 5F5F6675 		.ascii	"__func__\000"
 12373      6E635F5F 
 12373      00
 12374              	.LASF81:
 12375 0851 73747269 		.ascii	"string_value\000"
 12375      6E675F76 
 12375      616C7565 
 12375      00
 12376              	.LASF91:
 12377 085e 646F7562 		.ascii	"double\000"
 12377      6C6500
 12378              	.LASF112:
 12379 0865 616D7170 		.ascii	"amqpvalue_get_uuid\000"
 12379      76616C75 
 12379      655F6765 
 12379      745F7575 
 12379      696400
 12380              	.LASF122:
 12381 0878 616D7170 		.ascii	"amqpvalue_get_array_item_count\000"
 12381      76616C75 
 12381      655F6765 
 12381      745F6172 
 12381      7261795F 
 12382              	.LASF77:
 12383 0897 63686172 		.ascii	"char_code\000"
 12383      5F636F64 
 12383      6500
 12384              	.LASF45:
 12385 08a1 414D5150 		.ascii	"AMQP_TYPE_FLOAT\000"
ARM GAS  C:\Users\Phuong\AppData\Local\Temp\ccU7OqD6.s 			page 241


 12385      5F545950 
 12385      455F464C 
 12385      4F415400 
 12386              	.LASF70:
 12387 08b1 616D7170 		.ascii	"amqp_value\000"
 12387      5F76616C 
 12387      756500
 12388              		.ident	"GCC: (GNU Tools for ARM Embedded Processors) 5.4.1 20160609 (release) [ARM/embedded-5-bran
