ARM GAS  C:\Users\Phuong\AppData\Local\Temp\ccTHzCbL.s 			page 1


   1              		.syntax unified
   2              		.cpu cortex-m0plus
   3              		.fpu softvfp
   4              		.eabi_attribute 20, 1
   5              		.eabi_attribute 21, 1
   6              		.eabi_attribute 23, 3
   7              		.eabi_attribute 24, 1
   8              		.eabi_attribute 25, 1
   9              		.eabi_attribute 26, 1
  10              		.eabi_attribute 30, 1
  11              		.eabi_attribute 34, 0
  12              		.eabi_attribute 18, 4
  13              		.thumb
  14              		.syntax unified
  15              		.file	"api_msg.c"
  16              		.text
  17              	.Ltext0:
  18              		.cfi_sections	.debug_frame
  19              		.section	.text.lwip_netconn_do_dns_found,"ax",%progbits
  20              		.align	2
  21              		.code	16
  22              		.thumb_func
  23              		.type	lwip_netconn_do_dns_found, %function
  24              	lwip_netconn_do_dns_found:
  25              	.LFB81:
  26              		.file 1 "Source\\LwIP\\src\\api\\api_msg.c"
   1:Source\LwIP\src\api/api_msg.c **** /**
   2:Source\LwIP\src\api/api_msg.c ****  * @file
   3:Source\LwIP\src\api/api_msg.c ****  * Sequential API Internal module
   4:Source\LwIP\src\api/api_msg.c ****  *
   5:Source\LwIP\src\api/api_msg.c ****  */
   6:Source\LwIP\src\api/api_msg.c **** 
   7:Source\LwIP\src\api/api_msg.c **** /*
   8:Source\LwIP\src\api/api_msg.c ****  * Copyright (c) 2001-2004 Swedish Institute of Computer Science.
   9:Source\LwIP\src\api/api_msg.c ****  * All rights reserved.
  10:Source\LwIP\src\api/api_msg.c ****  *
  11:Source\LwIP\src\api/api_msg.c ****  * Redistribution and use in source and binary forms, with or without modification,
  12:Source\LwIP\src\api/api_msg.c ****  * are permitted provided that the following conditions are met:
  13:Source\LwIP\src\api/api_msg.c ****  *
  14:Source\LwIP\src\api/api_msg.c ****  * 1. Redistributions of source code must retain the above copyright notice,
  15:Source\LwIP\src\api/api_msg.c ****  *    this list of conditions and the following disclaimer.
  16:Source\LwIP\src\api/api_msg.c ****  * 2. Redistributions in binary form must reproduce the above copyright notice,
  17:Source\LwIP\src\api/api_msg.c ****  *    this list of conditions and the following disclaimer in the documentation
  18:Source\LwIP\src\api/api_msg.c ****  *    and/or other materials provided with the distribution.
  19:Source\LwIP\src\api/api_msg.c ****  * 3. The name of the author may not be used to endorse or promote products
  20:Source\LwIP\src\api/api_msg.c ****  *    derived from this software without specific prior written permission.
  21:Source\LwIP\src\api/api_msg.c ****  *
  22:Source\LwIP\src\api/api_msg.c ****  * THIS SOFTWARE IS PROVIDED BY THE AUTHOR ``AS IS'' AND ANY EXPRESS OR IMPLIED
  23:Source\LwIP\src\api/api_msg.c ****  * WARRANTIES, INCLUDING, BUT NOT LIMITED TO, THE IMPLIED WARRANTIES OF
  24:Source\LwIP\src\api/api_msg.c ****  * MERCHANTABILITY AND FITNESS FOR A PARTICULAR PURPOSE ARE DISCLAIMED. IN NO EVENT
  25:Source\LwIP\src\api/api_msg.c ****  * SHALL THE AUTHOR BE LIABLE FOR ANY DIRECT, INDIRECT, INCIDENTAL, SPECIAL,
  26:Source\LwIP\src\api/api_msg.c ****  * EXEMPLARY, OR CONSEQUENTIAL DAMAGES (INCLUDING, BUT NOT LIMITED TO, PROCUREMENT
  27:Source\LwIP\src\api/api_msg.c ****  * OF SUBSTITUTE GOODS OR SERVICES; LOSS OF USE, DATA, OR PROFITS; OR BUSINESS
  28:Source\LwIP\src\api/api_msg.c ****  * INTERRUPTION) HOWEVER CAUSED AND ON ANY THEORY OF LIABILITY, WHETHER IN
  29:Source\LwIP\src\api/api_msg.c ****  * CONTRACT, STRICT LIABILITY, OR TORT (INCLUDING NEGLIGENCE OR OTHERWISE) ARISING
  30:Source\LwIP\src\api/api_msg.c ****  * IN ANY WAY OUT OF THE USE OF THIS SOFTWARE, EVEN IF ADVISED OF THE POSSIBILITY
  31:Source\LwIP\src\api/api_msg.c ****  * OF SUCH DAMAGE.
ARM GAS  C:\Users\Phuong\AppData\Local\Temp\ccTHzCbL.s 			page 2


  32:Source\LwIP\src\api/api_msg.c ****  *
  33:Source\LwIP\src\api/api_msg.c ****  * This file is part of the lwIP TCP/IP stack.
  34:Source\LwIP\src\api/api_msg.c ****  *
  35:Source\LwIP\src\api/api_msg.c ****  * Author: Adam Dunkels <adam@sics.se>
  36:Source\LwIP\src\api/api_msg.c ****  *
  37:Source\LwIP\src\api/api_msg.c ****  */
  38:Source\LwIP\src\api/api_msg.c **** 
  39:Source\LwIP\src\api/api_msg.c **** #include "lwip/opt.h"
  40:Source\LwIP\src\api/api_msg.c **** 
  41:Source\LwIP\src\api/api_msg.c **** #if LWIP_NETCONN /* don't build if not configured for use in lwipopts.h */
  42:Source\LwIP\src\api/api_msg.c **** 
  43:Source\LwIP\src\api/api_msg.c **** #include "lwip/priv/api_msg.h"
  44:Source\LwIP\src\api/api_msg.c **** 
  45:Source\LwIP\src\api/api_msg.c **** #include "lwip/ip.h"
  46:Source\LwIP\src\api/api_msg.c **** #include "lwip/ip_addr.h"
  47:Source\LwIP\src\api/api_msg.c **** #include "lwip/udp.h"
  48:Source\LwIP\src\api/api_msg.c **** #include "lwip/tcp.h"
  49:Source\LwIP\src\api/api_msg.c **** #include "lwip/raw.h"
  50:Source\LwIP\src\api/api_msg.c **** 
  51:Source\LwIP\src\api/api_msg.c **** #include "lwip/memp.h"
  52:Source\LwIP\src\api/api_msg.c **** #include "lwip/igmp.h"
  53:Source\LwIP\src\api/api_msg.c **** #include "lwip/dns.h"
  54:Source\LwIP\src\api/api_msg.c **** #include "lwip/mld6.h"
  55:Source\LwIP\src\api/api_msg.c **** #include "lwip/priv/tcpip_priv.h"
  56:Source\LwIP\src\api/api_msg.c **** 
  57:Source\LwIP\src\api/api_msg.c **** #include <string.h>
  58:Source\LwIP\src\api/api_msg.c **** 
  59:Source\LwIP\src\api/api_msg.c **** /* netconns are polled once per second (e.g. continue write on memory error) */
  60:Source\LwIP\src\api/api_msg.c **** #define NETCONN_TCP_POLL_INTERVAL 2
  61:Source\LwIP\src\api/api_msg.c **** 
  62:Source\LwIP\src\api/api_msg.c **** #define SET_NONBLOCKING_CONNECT(conn, val)  do { if (val) { \
  63:Source\LwIP\src\api/api_msg.c ****   (conn)->flags |= NETCONN_FLAG_IN_NONBLOCKING_CONNECT; \
  64:Source\LwIP\src\api/api_msg.c **** } else { \
  65:Source\LwIP\src\api/api_msg.c ****   (conn)->flags &= ~ NETCONN_FLAG_IN_NONBLOCKING_CONNECT; }} while(0)
  66:Source\LwIP\src\api/api_msg.c **** #define IN_NONBLOCKING_CONNECT(conn) (((conn)->flags & NETCONN_FLAG_IN_NONBLOCKING_CONNECT) != 0)
  67:Source\LwIP\src\api/api_msg.c **** 
  68:Source\LwIP\src\api/api_msg.c **** /* forward declarations */
  69:Source\LwIP\src\api/api_msg.c **** #if LWIP_TCP
  70:Source\LwIP\src\api/api_msg.c **** #if LWIP_TCPIP_CORE_LOCKING
  71:Source\LwIP\src\api/api_msg.c **** #define WRITE_DELAYED         , 1
  72:Source\LwIP\src\api/api_msg.c **** #define WRITE_DELAYED_PARAM   , u8_t delayed
  73:Source\LwIP\src\api/api_msg.c **** #else /* LWIP_TCPIP_CORE_LOCKING */
  74:Source\LwIP\src\api/api_msg.c **** #define WRITE_DELAYED
  75:Source\LwIP\src\api/api_msg.c **** #define WRITE_DELAYED_PARAM
  76:Source\LwIP\src\api/api_msg.c **** #endif /* LWIP_TCPIP_CORE_LOCKING */
  77:Source\LwIP\src\api/api_msg.c **** static err_t lwip_netconn_do_writemore(struct netconn *conn  WRITE_DELAYED_PARAM);
  78:Source\LwIP\src\api/api_msg.c **** static err_t lwip_netconn_do_close_internal(struct netconn *conn  WRITE_DELAYED_PARAM);
  79:Source\LwIP\src\api/api_msg.c **** #endif
  80:Source\LwIP\src\api/api_msg.c **** 
  81:Source\LwIP\src\api/api_msg.c **** #if LWIP_TCPIP_CORE_LOCKING
  82:Source\LwIP\src\api/api_msg.c **** #define TCPIP_APIMSG_ACK(m)   NETCONN_SET_SAFE_ERR((m)->conn, (m)->err)
  83:Source\LwIP\src\api/api_msg.c **** #else /* LWIP_TCPIP_CORE_LOCKING */
  84:Source\LwIP\src\api/api_msg.c **** #define TCPIP_APIMSG_ACK(m)   do { NETCONN_SET_SAFE_ERR((m)->conn, (m)->err); sys_sem_signal(LWIP_A
  85:Source\LwIP\src\api/api_msg.c **** #endif /* LWIP_TCPIP_CORE_LOCKING */
  86:Source\LwIP\src\api/api_msg.c **** 
  87:Source\LwIP\src\api/api_msg.c **** #if LWIP_TCP
  88:Source\LwIP\src\api/api_msg.c **** u8_t netconn_aborted;
ARM GAS  C:\Users\Phuong\AppData\Local\Temp\ccTHzCbL.s 			page 3


  89:Source\LwIP\src\api/api_msg.c **** #endif /* LWIP_TCP */
  90:Source\LwIP\src\api/api_msg.c **** 
  91:Source\LwIP\src\api/api_msg.c **** #if LWIP_RAW
  92:Source\LwIP\src\api/api_msg.c **** /**
  93:Source\LwIP\src\api/api_msg.c ****  * Receive callback function for RAW netconns.
  94:Source\LwIP\src\api/api_msg.c ****  * Doesn't 'eat' the packet, only copies it and sends it to
  95:Source\LwIP\src\api/api_msg.c ****  * conn->recvmbox
  96:Source\LwIP\src\api/api_msg.c ****  *
  97:Source\LwIP\src\api/api_msg.c ****  * @see raw.h (struct raw_pcb.recv) for parameters and return value
  98:Source\LwIP\src\api/api_msg.c ****  */
  99:Source\LwIP\src\api/api_msg.c **** static u8_t
 100:Source\LwIP\src\api/api_msg.c **** recv_raw(void *arg, struct raw_pcb *pcb, struct pbuf *p,
 101:Source\LwIP\src\api/api_msg.c ****     const ip_addr_t *addr)
 102:Source\LwIP\src\api/api_msg.c **** {
 103:Source\LwIP\src\api/api_msg.c ****   struct pbuf *q;
 104:Source\LwIP\src\api/api_msg.c ****   struct netbuf *buf;
 105:Source\LwIP\src\api/api_msg.c ****   struct netconn *conn;
 106:Source\LwIP\src\api/api_msg.c **** 
 107:Source\LwIP\src\api/api_msg.c ****   LWIP_UNUSED_ARG(addr);
 108:Source\LwIP\src\api/api_msg.c ****   conn = (struct netconn *)arg;
 109:Source\LwIP\src\api/api_msg.c **** 
 110:Source\LwIP\src\api/api_msg.c ****   if ((conn != NULL) && sys_mbox_valid(&conn->recvmbox)) {
 111:Source\LwIP\src\api/api_msg.c **** #if LWIP_SO_RCVBUF
 112:Source\LwIP\src\api/api_msg.c ****     int recv_avail;
 113:Source\LwIP\src\api/api_msg.c ****     SYS_ARCH_GET(conn->recv_avail, recv_avail);
 114:Source\LwIP\src\api/api_msg.c ****     if ((recv_avail + (int)(p->tot_len)) > conn->recv_bufsize) {
 115:Source\LwIP\src\api/api_msg.c ****       return 0;
 116:Source\LwIP\src\api/api_msg.c ****     }
 117:Source\LwIP\src\api/api_msg.c **** #endif /* LWIP_SO_RCVBUF */
 118:Source\LwIP\src\api/api_msg.c ****     /* copy the whole packet into new pbufs */
 119:Source\LwIP\src\api/api_msg.c ****     q = pbuf_alloc(PBUF_RAW, p->tot_len, PBUF_RAM);
 120:Source\LwIP\src\api/api_msg.c ****     if (q != NULL) {
 121:Source\LwIP\src\api/api_msg.c ****       if (pbuf_copy(q, p) != ERR_OK) {
 122:Source\LwIP\src\api/api_msg.c ****         pbuf_free(q);
 123:Source\LwIP\src\api/api_msg.c ****         q = NULL;
 124:Source\LwIP\src\api/api_msg.c ****       }
 125:Source\LwIP\src\api/api_msg.c ****     }
 126:Source\LwIP\src\api/api_msg.c **** 
 127:Source\LwIP\src\api/api_msg.c ****     if (q != NULL) {
 128:Source\LwIP\src\api/api_msg.c ****       u16_t len;
 129:Source\LwIP\src\api/api_msg.c ****       buf = (struct netbuf *)memp_malloc(MEMP_NETBUF);
 130:Source\LwIP\src\api/api_msg.c ****       if (buf == NULL) {
 131:Source\LwIP\src\api/api_msg.c ****         pbuf_free(q);
 132:Source\LwIP\src\api/api_msg.c ****         return 0;
 133:Source\LwIP\src\api/api_msg.c ****       }
 134:Source\LwIP\src\api/api_msg.c **** 
 135:Source\LwIP\src\api/api_msg.c ****       buf->p = q;
 136:Source\LwIP\src\api/api_msg.c ****       buf->ptr = q;
 137:Source\LwIP\src\api/api_msg.c ****       ip_addr_copy(buf->addr, *ip_current_src_addr());
 138:Source\LwIP\src\api/api_msg.c ****       buf->port = pcb->protocol;
 139:Source\LwIP\src\api/api_msg.c **** 
 140:Source\LwIP\src\api/api_msg.c ****       len = q->tot_len;
 141:Source\LwIP\src\api/api_msg.c ****       if (sys_mbox_trypost(&conn->recvmbox, buf) != ERR_OK) {
 142:Source\LwIP\src\api/api_msg.c ****         netbuf_delete(buf);
 143:Source\LwIP\src\api/api_msg.c ****         return 0;
 144:Source\LwIP\src\api/api_msg.c ****       } else {
 145:Source\LwIP\src\api/api_msg.c **** #if LWIP_SO_RCVBUF
ARM GAS  C:\Users\Phuong\AppData\Local\Temp\ccTHzCbL.s 			page 4


 146:Source\LwIP\src\api/api_msg.c ****         SYS_ARCH_INC(conn->recv_avail, len);
 147:Source\LwIP\src\api/api_msg.c **** #endif /* LWIP_SO_RCVBUF */
 148:Source\LwIP\src\api/api_msg.c ****         /* Register event with callback */
 149:Source\LwIP\src\api/api_msg.c ****         API_EVENT(conn, NETCONN_EVT_RCVPLUS, len);
 150:Source\LwIP\src\api/api_msg.c ****       }
 151:Source\LwIP\src\api/api_msg.c ****     }
 152:Source\LwIP\src\api/api_msg.c ****   }
 153:Source\LwIP\src\api/api_msg.c **** 
 154:Source\LwIP\src\api/api_msg.c ****   return 0; /* do not eat the packet */
 155:Source\LwIP\src\api/api_msg.c **** }
 156:Source\LwIP\src\api/api_msg.c **** #endif /* LWIP_RAW*/
 157:Source\LwIP\src\api/api_msg.c **** 
 158:Source\LwIP\src\api/api_msg.c **** #if LWIP_UDP
 159:Source\LwIP\src\api/api_msg.c **** /**
 160:Source\LwIP\src\api/api_msg.c ****  * Receive callback function for UDP netconns.
 161:Source\LwIP\src\api/api_msg.c ****  * Posts the packet to conn->recvmbox or deletes it on memory error.
 162:Source\LwIP\src\api/api_msg.c ****  *
 163:Source\LwIP\src\api/api_msg.c ****  * @see udp.h (struct udp_pcb.recv) for parameters
 164:Source\LwIP\src\api/api_msg.c ****  */
 165:Source\LwIP\src\api/api_msg.c **** static void
 166:Source\LwIP\src\api/api_msg.c **** recv_udp(void *arg, struct udp_pcb *pcb, struct pbuf *p,
 167:Source\LwIP\src\api/api_msg.c ****    const ip_addr_t *addr, u16_t port)
 168:Source\LwIP\src\api/api_msg.c **** {
 169:Source\LwIP\src\api/api_msg.c ****   struct netbuf *buf;
 170:Source\LwIP\src\api/api_msg.c ****   struct netconn *conn;
 171:Source\LwIP\src\api/api_msg.c ****   u16_t len;
 172:Source\LwIP\src\api/api_msg.c **** #if LWIP_SO_RCVBUF
 173:Source\LwIP\src\api/api_msg.c ****   int recv_avail;
 174:Source\LwIP\src\api/api_msg.c **** #endif /* LWIP_SO_RCVBUF */
 175:Source\LwIP\src\api/api_msg.c **** 
 176:Source\LwIP\src\api/api_msg.c ****   LWIP_UNUSED_ARG(pcb); /* only used for asserts... */
 177:Source\LwIP\src\api/api_msg.c ****   LWIP_ASSERT("recv_udp must have a pcb argument", pcb != NULL);
 178:Source\LwIP\src\api/api_msg.c ****   LWIP_ASSERT("recv_udp must have an argument", arg != NULL);
 179:Source\LwIP\src\api/api_msg.c ****   conn = (struct netconn *)arg;
 180:Source\LwIP\src\api/api_msg.c **** 
 181:Source\LwIP\src\api/api_msg.c ****   if (conn == NULL) {
 182:Source\LwIP\src\api/api_msg.c ****     pbuf_free(p);
 183:Source\LwIP\src\api/api_msg.c ****     return;
 184:Source\LwIP\src\api/api_msg.c ****   }
 185:Source\LwIP\src\api/api_msg.c **** 
 186:Source\LwIP\src\api/api_msg.c ****   LWIP_ASSERT("recv_udp: recv for wrong pcb!", conn->pcb.udp == pcb);
 187:Source\LwIP\src\api/api_msg.c **** 
 188:Source\LwIP\src\api/api_msg.c **** #if LWIP_SO_RCVBUF
 189:Source\LwIP\src\api/api_msg.c ****   SYS_ARCH_GET(conn->recv_avail, recv_avail);
 190:Source\LwIP\src\api/api_msg.c ****   if (!sys_mbox_valid(&conn->recvmbox) ||
 191:Source\LwIP\src\api/api_msg.c ****       ((recv_avail + (int)(p->tot_len)) > conn->recv_bufsize)) {
 192:Source\LwIP\src\api/api_msg.c **** #else  /* LWIP_SO_RCVBUF */
 193:Source\LwIP\src\api/api_msg.c ****   if (!sys_mbox_valid(&conn->recvmbox)) {
 194:Source\LwIP\src\api/api_msg.c **** #endif /* LWIP_SO_RCVBUF */
 195:Source\LwIP\src\api/api_msg.c ****     pbuf_free(p);
 196:Source\LwIP\src\api/api_msg.c ****     return;
 197:Source\LwIP\src\api/api_msg.c ****   }
 198:Source\LwIP\src\api/api_msg.c **** 
 199:Source\LwIP\src\api/api_msg.c ****   buf = (struct netbuf *)memp_malloc(MEMP_NETBUF);
 200:Source\LwIP\src\api/api_msg.c ****   if (buf == NULL) {
 201:Source\LwIP\src\api/api_msg.c ****     pbuf_free(p);
 202:Source\LwIP\src\api/api_msg.c ****     return;
ARM GAS  C:\Users\Phuong\AppData\Local\Temp\ccTHzCbL.s 			page 5


 203:Source\LwIP\src\api/api_msg.c ****   } else {
 204:Source\LwIP\src\api/api_msg.c ****     buf->p = p;
 205:Source\LwIP\src\api/api_msg.c ****     buf->ptr = p;
 206:Source\LwIP\src\api/api_msg.c ****     ip_addr_set(&buf->addr, addr);
 207:Source\LwIP\src\api/api_msg.c ****     buf->port = port;
 208:Source\LwIP\src\api/api_msg.c **** #if LWIP_NETBUF_RECVINFO
 209:Source\LwIP\src\api/api_msg.c ****     {
 210:Source\LwIP\src\api/api_msg.c ****       /* get the UDP header - always in the first pbuf, ensured by udp_input */
 211:Source\LwIP\src\api/api_msg.c ****       const struct udp_hdr* udphdr = (const struct udp_hdr*)ip_next_header_ptr();
 212:Source\LwIP\src\api/api_msg.c **** #if LWIP_CHECKSUM_ON_COPY
 213:Source\LwIP\src\api/api_msg.c ****       buf->flags = NETBUF_FLAG_DESTADDR;
 214:Source\LwIP\src\api/api_msg.c **** #endif /* LWIP_CHECKSUM_ON_COPY */
 215:Source\LwIP\src\api/api_msg.c ****       ip_addr_set(&buf->toaddr, ip_current_dest_addr());
 216:Source\LwIP\src\api/api_msg.c ****       buf->toport_chksum = udphdr->dest;
 217:Source\LwIP\src\api/api_msg.c ****     }
 218:Source\LwIP\src\api/api_msg.c **** #endif /* LWIP_NETBUF_RECVINFO */
 219:Source\LwIP\src\api/api_msg.c ****   }
 220:Source\LwIP\src\api/api_msg.c **** 
 221:Source\LwIP\src\api/api_msg.c ****   len = p->tot_len;
 222:Source\LwIP\src\api/api_msg.c ****   if (sys_mbox_trypost(&conn->recvmbox, buf) != ERR_OK) {
 223:Source\LwIP\src\api/api_msg.c ****     netbuf_delete(buf);
 224:Source\LwIP\src\api/api_msg.c ****     return;
 225:Source\LwIP\src\api/api_msg.c ****   } else {
 226:Source\LwIP\src\api/api_msg.c **** #if LWIP_SO_RCVBUF
 227:Source\LwIP\src\api/api_msg.c ****     SYS_ARCH_INC(conn->recv_avail, len);
 228:Source\LwIP\src\api/api_msg.c **** #endif /* LWIP_SO_RCVBUF */
 229:Source\LwIP\src\api/api_msg.c ****     /* Register event with callback */
 230:Source\LwIP\src\api/api_msg.c ****     API_EVENT(conn, NETCONN_EVT_RCVPLUS, len);
 231:Source\LwIP\src\api/api_msg.c ****   }
 232:Source\LwIP\src\api/api_msg.c **** }
 233:Source\LwIP\src\api/api_msg.c **** #endif /* LWIP_UDP */
 234:Source\LwIP\src\api/api_msg.c **** 
 235:Source\LwIP\src\api/api_msg.c **** #if LWIP_TCP
 236:Source\LwIP\src\api/api_msg.c **** /**
 237:Source\LwIP\src\api/api_msg.c ****  * Receive callback function for TCP netconns.
 238:Source\LwIP\src\api/api_msg.c ****  * Posts the packet to conn->recvmbox, but doesn't delete it on errors.
 239:Source\LwIP\src\api/api_msg.c ****  *
 240:Source\LwIP\src\api/api_msg.c ****  * @see tcp.h (struct tcp_pcb.recv) for parameters and return value
 241:Source\LwIP\src\api/api_msg.c ****  */
 242:Source\LwIP\src\api/api_msg.c **** static err_t
 243:Source\LwIP\src\api/api_msg.c **** recv_tcp(void *arg, struct tcp_pcb *pcb, struct pbuf *p, err_t err)
 244:Source\LwIP\src\api/api_msg.c **** {
 245:Source\LwIP\src\api/api_msg.c ****   struct netconn *conn;
 246:Source\LwIP\src\api/api_msg.c ****   u16_t len;
 247:Source\LwIP\src\api/api_msg.c **** 
 248:Source\LwIP\src\api/api_msg.c ****   LWIP_UNUSED_ARG(pcb);
 249:Source\LwIP\src\api/api_msg.c ****   LWIP_ASSERT("recv_tcp must have a pcb argument", pcb != NULL);
 250:Source\LwIP\src\api/api_msg.c ****   LWIP_ASSERT("recv_tcp must have an argument", arg != NULL);
 251:Source\LwIP\src\api/api_msg.c ****   conn = (struct netconn *)arg;
 252:Source\LwIP\src\api/api_msg.c **** 
 253:Source\LwIP\src\api/api_msg.c ****   if (conn == NULL) {
 254:Source\LwIP\src\api/api_msg.c ****     return ERR_VAL;
 255:Source\LwIP\src\api/api_msg.c ****   }
 256:Source\LwIP\src\api/api_msg.c ****   LWIP_ASSERT("recv_tcp: recv for wrong pcb!", conn->pcb.tcp == pcb);
 257:Source\LwIP\src\api/api_msg.c **** 
 258:Source\LwIP\src\api/api_msg.c ****   if (!sys_mbox_valid(&conn->recvmbox)) {
 259:Source\LwIP\src\api/api_msg.c ****     /* recvmbox already deleted */
ARM GAS  C:\Users\Phuong\AppData\Local\Temp\ccTHzCbL.s 			page 6


 260:Source\LwIP\src\api/api_msg.c ****     if (p != NULL) {
 261:Source\LwIP\src\api/api_msg.c ****       tcp_recved(pcb, p->tot_len);
 262:Source\LwIP\src\api/api_msg.c ****       pbuf_free(p);
 263:Source\LwIP\src\api/api_msg.c ****     }
 264:Source\LwIP\src\api/api_msg.c ****     return ERR_OK;
 265:Source\LwIP\src\api/api_msg.c ****   }
 266:Source\LwIP\src\api/api_msg.c ****   /* Unlike for UDP or RAW pcbs, don't check for available space
 267:Source\LwIP\src\api/api_msg.c ****      using recv_avail since that could break the connection
 268:Source\LwIP\src\api/api_msg.c ****      (data is already ACKed) */
 269:Source\LwIP\src\api/api_msg.c **** 
 270:Source\LwIP\src\api/api_msg.c ****   /* don't overwrite fatal errors! */
 271:Source\LwIP\src\api/api_msg.c ****   if (err != ERR_OK) {
 272:Source\LwIP\src\api/api_msg.c ****     NETCONN_SET_SAFE_ERR(conn, err);
 273:Source\LwIP\src\api/api_msg.c ****   }
 274:Source\LwIP\src\api/api_msg.c **** 
 275:Source\LwIP\src\api/api_msg.c ****   if (p != NULL) {
 276:Source\LwIP\src\api/api_msg.c ****     len = p->tot_len;
 277:Source\LwIP\src\api/api_msg.c ****   } else {
 278:Source\LwIP\src\api/api_msg.c ****     len = 0;
 279:Source\LwIP\src\api/api_msg.c ****   }
 280:Source\LwIP\src\api/api_msg.c **** 
 281:Source\LwIP\src\api/api_msg.c ****   if (sys_mbox_trypost(&conn->recvmbox, p) != ERR_OK) {
 282:Source\LwIP\src\api/api_msg.c ****     /* don't deallocate p: it is presented to us later again from tcp_fasttmr! */
 283:Source\LwIP\src\api/api_msg.c ****     return ERR_MEM;
 284:Source\LwIP\src\api/api_msg.c ****   } else {
 285:Source\LwIP\src\api/api_msg.c **** #if LWIP_SO_RCVBUF
 286:Source\LwIP\src\api/api_msg.c ****     SYS_ARCH_INC(conn->recv_avail, len);
 287:Source\LwIP\src\api/api_msg.c **** #endif /* LWIP_SO_RCVBUF */
 288:Source\LwIP\src\api/api_msg.c ****     /* Register event with callback */
 289:Source\LwIP\src\api/api_msg.c ****     API_EVENT(conn, NETCONN_EVT_RCVPLUS, len);
 290:Source\LwIP\src\api/api_msg.c ****   }
 291:Source\LwIP\src\api/api_msg.c **** 
 292:Source\LwIP\src\api/api_msg.c ****   return ERR_OK;
 293:Source\LwIP\src\api/api_msg.c **** }
 294:Source\LwIP\src\api/api_msg.c **** 
 295:Source\LwIP\src\api/api_msg.c **** /**
 296:Source\LwIP\src\api/api_msg.c ****  * Poll callback function for TCP netconns.
 297:Source\LwIP\src\api/api_msg.c ****  * Wakes up an application thread that waits for a connection to close
 298:Source\LwIP\src\api/api_msg.c ****  * or data to be sent. The application thread then takes the
 299:Source\LwIP\src\api/api_msg.c ****  * appropriate action to go on.
 300:Source\LwIP\src\api/api_msg.c ****  *
 301:Source\LwIP\src\api/api_msg.c ****  * Signals the conn->sem.
 302:Source\LwIP\src\api/api_msg.c ****  * netconn_close waits for conn->sem if closing failed.
 303:Source\LwIP\src\api/api_msg.c ****  *
 304:Source\LwIP\src\api/api_msg.c ****  * @see tcp.h (struct tcp_pcb.poll) for parameters and return value
 305:Source\LwIP\src\api/api_msg.c ****  */
 306:Source\LwIP\src\api/api_msg.c **** static err_t
 307:Source\LwIP\src\api/api_msg.c **** poll_tcp(void *arg, struct tcp_pcb *pcb)
 308:Source\LwIP\src\api/api_msg.c **** {
 309:Source\LwIP\src\api/api_msg.c ****   struct netconn *conn = (struct netconn *)arg;
 310:Source\LwIP\src\api/api_msg.c **** 
 311:Source\LwIP\src\api/api_msg.c ****   LWIP_UNUSED_ARG(pcb);
 312:Source\LwIP\src\api/api_msg.c ****   LWIP_ASSERT("conn != NULL", (conn != NULL));
 313:Source\LwIP\src\api/api_msg.c **** 
 314:Source\LwIP\src\api/api_msg.c ****   if (conn->state == NETCONN_WRITE) {
 315:Source\LwIP\src\api/api_msg.c ****     lwip_netconn_do_writemore(conn  WRITE_DELAYED);
 316:Source\LwIP\src\api/api_msg.c ****   } else if (conn->state == NETCONN_CLOSE) {
ARM GAS  C:\Users\Phuong\AppData\Local\Temp\ccTHzCbL.s 			page 7


 317:Source\LwIP\src\api/api_msg.c **** #if !LWIP_SO_SNDTIMEO && !LWIP_SO_LINGER
 318:Source\LwIP\src\api/api_msg.c ****     if (conn->current_msg && conn->current_msg->msg.sd.polls_left) {
 319:Source\LwIP\src\api/api_msg.c ****       conn->current_msg->msg.sd.polls_left--;
 320:Source\LwIP\src\api/api_msg.c ****     }
 321:Source\LwIP\src\api/api_msg.c **** #endif /* !LWIP_SO_SNDTIMEO && !LWIP_SO_LINGER */
 322:Source\LwIP\src\api/api_msg.c ****     lwip_netconn_do_close_internal(conn  WRITE_DELAYED);
 323:Source\LwIP\src\api/api_msg.c ****   }
 324:Source\LwIP\src\api/api_msg.c ****   /* @todo: implement connect timeout here? */
 325:Source\LwIP\src\api/api_msg.c **** 
 326:Source\LwIP\src\api/api_msg.c ****   /* Did a nonblocking write fail before? Then check available write-space. */
 327:Source\LwIP\src\api/api_msg.c ****   if (conn->flags & NETCONN_FLAG_CHECK_WRITESPACE) {
 328:Source\LwIP\src\api/api_msg.c ****     /* If the queued byte- or pbuf-count drops below the configured low-water limit,
 329:Source\LwIP\src\api/api_msg.c ****        let select mark this pcb as writable again. */
 330:Source\LwIP\src\api/api_msg.c ****     if ((conn->pcb.tcp != NULL) && (tcp_sndbuf(conn->pcb.tcp) > TCP_SNDLOWAT) &&
 331:Source\LwIP\src\api/api_msg.c ****       (tcp_sndqueuelen(conn->pcb.tcp) < TCP_SNDQUEUELOWAT)) {
 332:Source\LwIP\src\api/api_msg.c ****       conn->flags &= ~NETCONN_FLAG_CHECK_WRITESPACE;
 333:Source\LwIP\src\api/api_msg.c ****       API_EVENT(conn, NETCONN_EVT_SENDPLUS, 0);
 334:Source\LwIP\src\api/api_msg.c ****     }
 335:Source\LwIP\src\api/api_msg.c ****   }
 336:Source\LwIP\src\api/api_msg.c **** 
 337:Source\LwIP\src\api/api_msg.c ****   return ERR_OK;
 338:Source\LwIP\src\api/api_msg.c **** }
 339:Source\LwIP\src\api/api_msg.c **** 
 340:Source\LwIP\src\api/api_msg.c **** /**
 341:Source\LwIP\src\api/api_msg.c ****  * Sent callback function for TCP netconns.
 342:Source\LwIP\src\api/api_msg.c ****  * Signals the conn->sem and calls API_EVENT.
 343:Source\LwIP\src\api/api_msg.c ****  * netconn_write waits for conn->sem if send buffer is low.
 344:Source\LwIP\src\api/api_msg.c ****  *
 345:Source\LwIP\src\api/api_msg.c ****  * @see tcp.h (struct tcp_pcb.sent) for parameters and return value
 346:Source\LwIP\src\api/api_msg.c ****  */
 347:Source\LwIP\src\api/api_msg.c **** static err_t
 348:Source\LwIP\src\api/api_msg.c **** sent_tcp(void *arg, struct tcp_pcb *pcb, u16_t len)
 349:Source\LwIP\src\api/api_msg.c **** {
 350:Source\LwIP\src\api/api_msg.c ****   struct netconn *conn = (struct netconn *)arg;
 351:Source\LwIP\src\api/api_msg.c **** 
 352:Source\LwIP\src\api/api_msg.c ****   LWIP_UNUSED_ARG(pcb);
 353:Source\LwIP\src\api/api_msg.c ****   LWIP_ASSERT("conn != NULL", (conn != NULL));
 354:Source\LwIP\src\api/api_msg.c **** 
 355:Source\LwIP\src\api/api_msg.c ****   if (conn) {
 356:Source\LwIP\src\api/api_msg.c ****     if (conn->state == NETCONN_WRITE) {
 357:Source\LwIP\src\api/api_msg.c ****       lwip_netconn_do_writemore(conn  WRITE_DELAYED);
 358:Source\LwIP\src\api/api_msg.c ****     } else if (conn->state == NETCONN_CLOSE) {
 359:Source\LwIP\src\api/api_msg.c ****       lwip_netconn_do_close_internal(conn  WRITE_DELAYED);
 360:Source\LwIP\src\api/api_msg.c ****     }
 361:Source\LwIP\src\api/api_msg.c **** 
 362:Source\LwIP\src\api/api_msg.c ****     /* If the queued byte- or pbuf-count drops below the configured low-water limit,
 363:Source\LwIP\src\api/api_msg.c ****        let select mark this pcb as writable again. */
 364:Source\LwIP\src\api/api_msg.c ****     if ((conn->pcb.tcp != NULL) && (tcp_sndbuf(conn->pcb.tcp) > TCP_SNDLOWAT) &&
 365:Source\LwIP\src\api/api_msg.c ****       (tcp_sndqueuelen(conn->pcb.tcp) < TCP_SNDQUEUELOWAT)) {
 366:Source\LwIP\src\api/api_msg.c ****       conn->flags &= ~NETCONN_FLAG_CHECK_WRITESPACE;
 367:Source\LwIP\src\api/api_msg.c ****       API_EVENT(conn, NETCONN_EVT_SENDPLUS, len);
 368:Source\LwIP\src\api/api_msg.c ****     }
 369:Source\LwIP\src\api/api_msg.c ****   }
 370:Source\LwIP\src\api/api_msg.c **** 
 371:Source\LwIP\src\api/api_msg.c ****   return ERR_OK;
 372:Source\LwIP\src\api/api_msg.c **** }
 373:Source\LwIP\src\api/api_msg.c **** 
ARM GAS  C:\Users\Phuong\AppData\Local\Temp\ccTHzCbL.s 			page 8


 374:Source\LwIP\src\api/api_msg.c **** /**
 375:Source\LwIP\src\api/api_msg.c ****  * Error callback function for TCP netconns.
 376:Source\LwIP\src\api/api_msg.c ****  * Signals conn->sem, posts to all conn mboxes and calls API_EVENT.
 377:Source\LwIP\src\api/api_msg.c ****  * The application thread has then to decide what to do.
 378:Source\LwIP\src\api/api_msg.c ****  *
 379:Source\LwIP\src\api/api_msg.c ****  * @see tcp.h (struct tcp_pcb.err) for parameters
 380:Source\LwIP\src\api/api_msg.c ****  */
 381:Source\LwIP\src\api/api_msg.c **** static void
 382:Source\LwIP\src\api/api_msg.c **** err_tcp(void *arg, err_t err)
 383:Source\LwIP\src\api/api_msg.c **** {
 384:Source\LwIP\src\api/api_msg.c ****   struct netconn *conn;
 385:Source\LwIP\src\api/api_msg.c ****   enum netconn_state old_state;
 386:Source\LwIP\src\api/api_msg.c **** 
 387:Source\LwIP\src\api/api_msg.c ****   conn = (struct netconn *)arg;
 388:Source\LwIP\src\api/api_msg.c ****   LWIP_ASSERT("conn != NULL", (conn != NULL));
 389:Source\LwIP\src\api/api_msg.c **** 
 390:Source\LwIP\src\api/api_msg.c ****   conn->pcb.tcp = NULL;
 391:Source\LwIP\src\api/api_msg.c **** 
 392:Source\LwIP\src\api/api_msg.c ****   /* reset conn->state now before waking up other threads */
 393:Source\LwIP\src\api/api_msg.c ****   old_state = conn->state;
 394:Source\LwIP\src\api/api_msg.c ****   conn->state = NETCONN_NONE;
 395:Source\LwIP\src\api/api_msg.c **** 
 396:Source\LwIP\src\api/api_msg.c ****   if (old_state == NETCONN_CLOSE) {
 397:Source\LwIP\src\api/api_msg.c ****     /* RST during close: let close return success & dealloc the netconn */
 398:Source\LwIP\src\api/api_msg.c ****     err = ERR_OK;
 399:Source\LwIP\src\api/api_msg.c ****     NETCONN_SET_SAFE_ERR(conn, ERR_OK);
 400:Source\LwIP\src\api/api_msg.c ****   } else {
 401:Source\LwIP\src\api/api_msg.c ****     /* no check since this is always fatal! */
 402:Source\LwIP\src\api/api_msg.c ****     SYS_ARCH_SET(conn->last_err, err);
 403:Source\LwIP\src\api/api_msg.c ****   }
 404:Source\LwIP\src\api/api_msg.c **** 
 405:Source\LwIP\src\api/api_msg.c ****   /* @todo: the type of NETCONN_EVT created should depend on 'old_state' */
 406:Source\LwIP\src\api/api_msg.c **** 
 407:Source\LwIP\src\api/api_msg.c ****   /* Notify the user layer about a connection error. Used to signal select. */
 408:Source\LwIP\src\api/api_msg.c ****   API_EVENT(conn, NETCONN_EVT_ERROR, 0);
 409:Source\LwIP\src\api/api_msg.c ****   /* Try to release selects pending on 'read' or 'write', too.
 410:Source\LwIP\src\api/api_msg.c ****      They will get an error if they actually try to read or write. */
 411:Source\LwIP\src\api/api_msg.c ****   API_EVENT(conn, NETCONN_EVT_RCVPLUS, 0);
 412:Source\LwIP\src\api/api_msg.c ****   API_EVENT(conn, NETCONN_EVT_SENDPLUS, 0);
 413:Source\LwIP\src\api/api_msg.c **** 
 414:Source\LwIP\src\api/api_msg.c ****   /* pass NULL-message to recvmbox to wake up pending recv */
 415:Source\LwIP\src\api/api_msg.c ****   if (sys_mbox_valid(&conn->recvmbox)) {
 416:Source\LwIP\src\api/api_msg.c ****     /* use trypost to prevent deadlock */
 417:Source\LwIP\src\api/api_msg.c ****     sys_mbox_trypost(&conn->recvmbox, NULL);
 418:Source\LwIP\src\api/api_msg.c ****   }
 419:Source\LwIP\src\api/api_msg.c ****   /* pass NULL-message to acceptmbox to wake up pending accept */
 420:Source\LwIP\src\api/api_msg.c ****   if (sys_mbox_valid(&conn->acceptmbox)) {
 421:Source\LwIP\src\api/api_msg.c ****     /* use trypost to preven deadlock */
 422:Source\LwIP\src\api/api_msg.c ****     sys_mbox_trypost(&conn->acceptmbox, NULL);
 423:Source\LwIP\src\api/api_msg.c ****   }
 424:Source\LwIP\src\api/api_msg.c **** 
 425:Source\LwIP\src\api/api_msg.c ****   if ((old_state == NETCONN_WRITE) || (old_state == NETCONN_CLOSE) ||
 426:Source\LwIP\src\api/api_msg.c ****       (old_state == NETCONN_CONNECT)) {
 427:Source\LwIP\src\api/api_msg.c ****     /* calling lwip_netconn_do_writemore/lwip_netconn_do_close_internal is not necessary
 428:Source\LwIP\src\api/api_msg.c ****        since the pcb has already been deleted! */
 429:Source\LwIP\src\api/api_msg.c ****     int was_nonblocking_connect = IN_NONBLOCKING_CONNECT(conn);
 430:Source\LwIP\src\api/api_msg.c ****     SET_NONBLOCKING_CONNECT(conn, 0);
ARM GAS  C:\Users\Phuong\AppData\Local\Temp\ccTHzCbL.s 			page 9


 431:Source\LwIP\src\api/api_msg.c **** 
 432:Source\LwIP\src\api/api_msg.c ****     if (!was_nonblocking_connect) {
 433:Source\LwIP\src\api/api_msg.c ****       sys_sem_t* op_completed_sem;
 434:Source\LwIP\src\api/api_msg.c ****       /* set error return code */
 435:Source\LwIP\src\api/api_msg.c ****       LWIP_ASSERT("conn->current_msg != NULL", conn->current_msg != NULL);
 436:Source\LwIP\src\api/api_msg.c ****       conn->current_msg->err = err;
 437:Source\LwIP\src\api/api_msg.c ****       op_completed_sem = LWIP_API_MSG_SEM(conn->current_msg);
 438:Source\LwIP\src\api/api_msg.c ****       LWIP_ASSERT("inavlid op_completed_sem", sys_sem_valid(op_completed_sem));
 439:Source\LwIP\src\api/api_msg.c ****       conn->current_msg = NULL;
 440:Source\LwIP\src\api/api_msg.c ****       /* wake up the waiting task */
 441:Source\LwIP\src\api/api_msg.c ****       NETCONN_SET_SAFE_ERR(conn, err);
 442:Source\LwIP\src\api/api_msg.c ****       sys_sem_signal(op_completed_sem);
 443:Source\LwIP\src\api/api_msg.c ****     }
 444:Source\LwIP\src\api/api_msg.c ****   } else {
 445:Source\LwIP\src\api/api_msg.c ****     LWIP_ASSERT("conn->current_msg == NULL", conn->current_msg == NULL);
 446:Source\LwIP\src\api/api_msg.c ****   }
 447:Source\LwIP\src\api/api_msg.c **** }
 448:Source\LwIP\src\api/api_msg.c **** 
 449:Source\LwIP\src\api/api_msg.c **** /**
 450:Source\LwIP\src\api/api_msg.c ****  * Setup a tcp_pcb with the correct callback function pointers
 451:Source\LwIP\src\api/api_msg.c ****  * and their arguments.
 452:Source\LwIP\src\api/api_msg.c ****  *
 453:Source\LwIP\src\api/api_msg.c ****  * @param conn the TCP netconn to setup
 454:Source\LwIP\src\api/api_msg.c ****  */
 455:Source\LwIP\src\api/api_msg.c **** static void
 456:Source\LwIP\src\api/api_msg.c **** setup_tcp(struct netconn *conn)
 457:Source\LwIP\src\api/api_msg.c **** {
 458:Source\LwIP\src\api/api_msg.c ****   struct tcp_pcb *pcb;
 459:Source\LwIP\src\api/api_msg.c **** 
 460:Source\LwIP\src\api/api_msg.c ****   pcb = conn->pcb.tcp;
 461:Source\LwIP\src\api/api_msg.c ****   tcp_arg(pcb, conn);
 462:Source\LwIP\src\api/api_msg.c ****   tcp_recv(pcb, recv_tcp);
 463:Source\LwIP\src\api/api_msg.c ****   tcp_sent(pcb, sent_tcp);
 464:Source\LwIP\src\api/api_msg.c ****   tcp_poll(pcb, poll_tcp, NETCONN_TCP_POLL_INTERVAL);
 465:Source\LwIP\src\api/api_msg.c ****   tcp_err(pcb, err_tcp);
 466:Source\LwIP\src\api/api_msg.c **** }
 467:Source\LwIP\src\api/api_msg.c **** 
 468:Source\LwIP\src\api/api_msg.c **** /**
 469:Source\LwIP\src\api/api_msg.c ****  * Accept callback function for TCP netconns.
 470:Source\LwIP\src\api/api_msg.c ****  * Allocates a new netconn and posts that to conn->acceptmbox.
 471:Source\LwIP\src\api/api_msg.c ****  *
 472:Source\LwIP\src\api/api_msg.c ****  * @see tcp.h (struct tcp_pcb_listen.accept) for parameters and return value
 473:Source\LwIP\src\api/api_msg.c ****  */
 474:Source\LwIP\src\api/api_msg.c **** static err_t
 475:Source\LwIP\src\api/api_msg.c **** accept_function(void *arg, struct tcp_pcb *newpcb, err_t err)
 476:Source\LwIP\src\api/api_msg.c **** {
 477:Source\LwIP\src\api/api_msg.c ****   struct netconn *newconn;
 478:Source\LwIP\src\api/api_msg.c ****   struct netconn *conn = (struct netconn *)arg;
 479:Source\LwIP\src\api/api_msg.c **** 
 480:Source\LwIP\src\api/api_msg.c ****   if (conn == NULL) {
 481:Source\LwIP\src\api/api_msg.c ****     return ERR_VAL;
 482:Source\LwIP\src\api/api_msg.c ****   }
 483:Source\LwIP\src\api/api_msg.c ****   if (!sys_mbox_valid(&conn->acceptmbox)) {
 484:Source\LwIP\src\api/api_msg.c ****     LWIP_DEBUGF(API_MSG_DEBUG, ("accept_function: acceptmbox already deleted\n"));
 485:Source\LwIP\src\api/api_msg.c ****     return ERR_VAL;
 486:Source\LwIP\src\api/api_msg.c ****   }
 487:Source\LwIP\src\api/api_msg.c **** 
ARM GAS  C:\Users\Phuong\AppData\Local\Temp\ccTHzCbL.s 			page 10


 488:Source\LwIP\src\api/api_msg.c ****   if (newpcb == NULL) {
 489:Source\LwIP\src\api/api_msg.c ****     /* out-of-pcbs during connect: pass on this error to the application */
 490:Source\LwIP\src\api/api_msg.c ****     if (sys_mbox_trypost(&conn->acceptmbox, &netconn_aborted) == ERR_OK) {
 491:Source\LwIP\src\api/api_msg.c ****       /* Register event with callback */
 492:Source\LwIP\src\api/api_msg.c ****       API_EVENT(conn, NETCONN_EVT_RCVPLUS, 0);
 493:Source\LwIP\src\api/api_msg.c ****     }
 494:Source\LwIP\src\api/api_msg.c ****     return ERR_VAL;
 495:Source\LwIP\src\api/api_msg.c ****   }
 496:Source\LwIP\src\api/api_msg.c **** 
 497:Source\LwIP\src\api/api_msg.c ****   LWIP_DEBUGF(API_MSG_DEBUG, ("accept_function: newpcb->tate: %s\n", tcp_debug_state_str(newpcb->st
 498:Source\LwIP\src\api/api_msg.c **** 
 499:Source\LwIP\src\api/api_msg.c ****   /* We have to set the callback here even though
 500:Source\LwIP\src\api/api_msg.c ****    * the new socket is unknown. newconn->socket is marked as -1. */
 501:Source\LwIP\src\api/api_msg.c ****   newconn = netconn_alloc(conn->type, conn->callback);
 502:Source\LwIP\src\api/api_msg.c ****   if (newconn == NULL) {
 503:Source\LwIP\src\api/api_msg.c ****     /* outof netconns: pass on this error to the application */
 504:Source\LwIP\src\api/api_msg.c ****     if (sys_mbox_trypost(&conn->acceptmbox, &netconn_aborted) == ERR_OK) {
 505:Source\LwIP\src\api/api_msg.c ****       /* Register event with callback */
 506:Source\LwIP\src\api/api_msg.c ****       API_EVENT(conn, NETCONN_EVT_RCVPLUS, 0);
 507:Source\LwIP\src\api/api_msg.c ****     }
 508:Source\LwIP\src\api/api_msg.c ****     return ERR_MEM;
 509:Source\LwIP\src\api/api_msg.c ****   }
 510:Source\LwIP\src\api/api_msg.c ****   newconn->pcb.tcp = newpcb;
 511:Source\LwIP\src\api/api_msg.c ****   setup_tcp(newconn);
 512:Source\LwIP\src\api/api_msg.c ****   /* no protection: when creating the pcb, the netconn is not yet known
 513:Source\LwIP\src\api/api_msg.c ****      to the application thread */
 514:Source\LwIP\src\api/api_msg.c ****   newconn->last_err = err;
 515:Source\LwIP\src\api/api_msg.c **** 
 516:Source\LwIP\src\api/api_msg.c ****   /* handle backlog counter */
 517:Source\LwIP\src\api/api_msg.c ****   tcp_backlog_delayed(newpcb);
 518:Source\LwIP\src\api/api_msg.c **** 
 519:Source\LwIP\src\api/api_msg.c ****   if (sys_mbox_trypost(&conn->acceptmbox, newconn) != ERR_OK) {
 520:Source\LwIP\src\api/api_msg.c ****     /* When returning != ERR_OK, the pcb is aborted in tcp_process(),
 521:Source\LwIP\src\api/api_msg.c ****        so do nothing here! */
 522:Source\LwIP\src\api/api_msg.c ****     /* remove all references to this netconn from the pcb */
 523:Source\LwIP\src\api/api_msg.c ****     struct tcp_pcb* pcb = newconn->pcb.tcp;
 524:Source\LwIP\src\api/api_msg.c ****     tcp_arg(pcb, NULL);
 525:Source\LwIP\src\api/api_msg.c ****     tcp_recv(pcb, NULL);
 526:Source\LwIP\src\api/api_msg.c ****     tcp_sent(pcb, NULL);
 527:Source\LwIP\src\api/api_msg.c ****     tcp_poll(pcb, NULL, 0);
 528:Source\LwIP\src\api/api_msg.c ****     tcp_err(pcb, NULL);
 529:Source\LwIP\src\api/api_msg.c ****     /* remove reference from to the pcb from this netconn */
 530:Source\LwIP\src\api/api_msg.c ****     newconn->pcb.tcp = NULL;
 531:Source\LwIP\src\api/api_msg.c ****     /* no need to drain since we know the recvmbox is empty. */
 532:Source\LwIP\src\api/api_msg.c ****     sys_mbox_free(&newconn->recvmbox);
 533:Source\LwIP\src\api/api_msg.c ****     sys_mbox_set_invalid(&newconn->recvmbox);
 534:Source\LwIP\src\api/api_msg.c ****     netconn_free(newconn);
 535:Source\LwIP\src\api/api_msg.c ****     return ERR_MEM;
 536:Source\LwIP\src\api/api_msg.c ****   } else {
 537:Source\LwIP\src\api/api_msg.c ****     /* Register event with callback */
 538:Source\LwIP\src\api/api_msg.c ****     API_EVENT(conn, NETCONN_EVT_RCVPLUS, 0);
 539:Source\LwIP\src\api/api_msg.c ****   }
 540:Source\LwIP\src\api/api_msg.c **** 
 541:Source\LwIP\src\api/api_msg.c ****   return ERR_OK;
 542:Source\LwIP\src\api/api_msg.c **** }
 543:Source\LwIP\src\api/api_msg.c **** #endif /* LWIP_TCP */
 544:Source\LwIP\src\api/api_msg.c **** 
ARM GAS  C:\Users\Phuong\AppData\Local\Temp\ccTHzCbL.s 			page 11


 545:Source\LwIP\src\api/api_msg.c **** /**
 546:Source\LwIP\src\api/api_msg.c ****  * Create a new pcb of a specific type.
 547:Source\LwIP\src\api/api_msg.c ****  * Called from lwip_netconn_do_newconn().
 548:Source\LwIP\src\api/api_msg.c ****  *
 549:Source\LwIP\src\api/api_msg.c ****  * @param msg the api_msg_msg describing the connection type
 550:Source\LwIP\src\api/api_msg.c ****  */
 551:Source\LwIP\src\api/api_msg.c **** static void
 552:Source\LwIP\src\api/api_msg.c **** pcb_new(struct api_msg *msg)
 553:Source\LwIP\src\api/api_msg.c **** {
 554:Source\LwIP\src\api/api_msg.c ****   enum lwip_ip_addr_type iptype = IPADDR_TYPE_V4;
 555:Source\LwIP\src\api/api_msg.c **** 
 556:Source\LwIP\src\api/api_msg.c ****   LWIP_ASSERT("pcb_new: pcb already allocated", msg->conn->pcb.tcp == NULL);
 557:Source\LwIP\src\api/api_msg.c ****  
 558:Source\LwIP\src\api/api_msg.c **** #if LWIP_IPV6 && LWIP_IPV4
 559:Source\LwIP\src\api/api_msg.c ****   /* IPv6: Dual-stack by default, unless netconn_set_ipv6only() is called */
 560:Source\LwIP\src\api/api_msg.c ****   if(NETCONNTYPE_ISIPV6(netconn_type(msg->conn))) {
 561:Source\LwIP\src\api/api_msg.c ****     iptype = IPADDR_TYPE_ANY;
 562:Source\LwIP\src\api/api_msg.c ****   }
 563:Source\LwIP\src\api/api_msg.c **** #endif
 564:Source\LwIP\src\api/api_msg.c ****   
 565:Source\LwIP\src\api/api_msg.c ****   /* Allocate a PCB for this connection */
 566:Source\LwIP\src\api/api_msg.c ****   switch(NETCONNTYPE_GROUP(msg->conn->type)) {
 567:Source\LwIP\src\api/api_msg.c **** #if LWIP_RAW
 568:Source\LwIP\src\api/api_msg.c ****   case NETCONN_RAW:
 569:Source\LwIP\src\api/api_msg.c ****     msg->conn->pcb.raw = raw_new_ip_type(iptype, msg->msg.n.proto);
 570:Source\LwIP\src\api/api_msg.c ****     if (msg->conn->pcb.raw != NULL) {
 571:Source\LwIP\src\api/api_msg.c **** #if LWIP_IPV6
 572:Source\LwIP\src\api/api_msg.c ****       /* ICMPv6 packets should always have checksum calculated by the stack as per RFC 3542 chapter
 573:Source\LwIP\src\api/api_msg.c ****       if (NETCONNTYPE_ISIPV6(msg->conn->type) && msg->conn->pcb.raw->protocol == IP6_NEXTH_ICMP6) {
 574:Source\LwIP\src\api/api_msg.c ****         msg->conn->pcb.raw->chksum_reqd = 1;
 575:Source\LwIP\src\api/api_msg.c ****         msg->conn->pcb.raw->chksum_offset = 2;
 576:Source\LwIP\src\api/api_msg.c ****       }
 577:Source\LwIP\src\api/api_msg.c **** #endif /* LWIP_IPV6 */
 578:Source\LwIP\src\api/api_msg.c ****       raw_recv(msg->conn->pcb.raw, recv_raw, msg->conn);
 579:Source\LwIP\src\api/api_msg.c ****     }
 580:Source\LwIP\src\api/api_msg.c ****     break;
 581:Source\LwIP\src\api/api_msg.c **** #endif /* LWIP_RAW */
 582:Source\LwIP\src\api/api_msg.c **** #if LWIP_UDP
 583:Source\LwIP\src\api/api_msg.c ****   case NETCONN_UDP:
 584:Source\LwIP\src\api/api_msg.c ****     msg->conn->pcb.udp = udp_new_ip_type(iptype);
 585:Source\LwIP\src\api/api_msg.c ****     if (msg->conn->pcb.udp != NULL) {
 586:Source\LwIP\src\api/api_msg.c **** #if LWIP_UDPLITE
 587:Source\LwIP\src\api/api_msg.c ****       if (NETCONNTYPE_ISUDPLITE(msg->conn->type)) {
 588:Source\LwIP\src\api/api_msg.c ****         udp_setflags(msg->conn->pcb.udp, UDP_FLAGS_UDPLITE);
 589:Source\LwIP\src\api/api_msg.c ****       }
 590:Source\LwIP\src\api/api_msg.c **** #endif /* LWIP_UDPLITE */
 591:Source\LwIP\src\api/api_msg.c ****       if (NETCONNTYPE_ISUDPNOCHKSUM(msg->conn->type)) {
 592:Source\LwIP\src\api/api_msg.c ****         udp_setflags(msg->conn->pcb.udp, UDP_FLAGS_NOCHKSUM);
 593:Source\LwIP\src\api/api_msg.c ****       }
 594:Source\LwIP\src\api/api_msg.c ****       udp_recv(msg->conn->pcb.udp, recv_udp, msg->conn);
 595:Source\LwIP\src\api/api_msg.c ****     }
 596:Source\LwIP\src\api/api_msg.c ****     break;
 597:Source\LwIP\src\api/api_msg.c **** #endif /* LWIP_UDP */
 598:Source\LwIP\src\api/api_msg.c **** #if LWIP_TCP
 599:Source\LwIP\src\api/api_msg.c ****   case NETCONN_TCP:
 600:Source\LwIP\src\api/api_msg.c ****     msg->conn->pcb.tcp = tcp_new_ip_type(iptype);
 601:Source\LwIP\src\api/api_msg.c ****     if (msg->conn->pcb.tcp != NULL) {
ARM GAS  C:\Users\Phuong\AppData\Local\Temp\ccTHzCbL.s 			page 12


 602:Source\LwIP\src\api/api_msg.c ****       setup_tcp(msg->conn);
 603:Source\LwIP\src\api/api_msg.c ****     }
 604:Source\LwIP\src\api/api_msg.c ****     break;
 605:Source\LwIP\src\api/api_msg.c **** #endif /* LWIP_TCP */
 606:Source\LwIP\src\api/api_msg.c ****   default:
 607:Source\LwIP\src\api/api_msg.c ****     /* Unsupported netconn type, e.g. protocol disabled */
 608:Source\LwIP\src\api/api_msg.c ****     msg->err = ERR_VAL;
 609:Source\LwIP\src\api/api_msg.c ****     return;
 610:Source\LwIP\src\api/api_msg.c ****   }
 611:Source\LwIP\src\api/api_msg.c ****   if (msg->conn->pcb.ip == NULL) {
 612:Source\LwIP\src\api/api_msg.c ****     msg->err = ERR_MEM;
 613:Source\LwIP\src\api/api_msg.c ****   }
 614:Source\LwIP\src\api/api_msg.c **** }
 615:Source\LwIP\src\api/api_msg.c **** 
 616:Source\LwIP\src\api/api_msg.c **** /**
 617:Source\LwIP\src\api/api_msg.c ****  * Create a new pcb of a specific type inside a netconn.
 618:Source\LwIP\src\api/api_msg.c ****  * Called from netconn_new_with_proto_and_callback.
 619:Source\LwIP\src\api/api_msg.c ****  *
 620:Source\LwIP\src\api/api_msg.c ****  * @param m the api_msg_msg describing the connection type
 621:Source\LwIP\src\api/api_msg.c ****  */
 622:Source\LwIP\src\api/api_msg.c **** void
 623:Source\LwIP\src\api/api_msg.c **** lwip_netconn_do_newconn(void *m)
 624:Source\LwIP\src\api/api_msg.c **** {
 625:Source\LwIP\src\api/api_msg.c ****   struct api_msg *msg = (struct api_msg*)m;
 626:Source\LwIP\src\api/api_msg.c **** 
 627:Source\LwIP\src\api/api_msg.c ****   msg->err = ERR_OK;
 628:Source\LwIP\src\api/api_msg.c ****   if (msg->conn->pcb.tcp == NULL) {
 629:Source\LwIP\src\api/api_msg.c ****     pcb_new(msg);
 630:Source\LwIP\src\api/api_msg.c ****   }
 631:Source\LwIP\src\api/api_msg.c ****   /* Else? This "new" connection already has a PCB allocated. */
 632:Source\LwIP\src\api/api_msg.c ****   /* Is this an error condition? Should it be deleted? */
 633:Source\LwIP\src\api/api_msg.c ****   /* We currently just are happy and return. */
 634:Source\LwIP\src\api/api_msg.c **** 
 635:Source\LwIP\src\api/api_msg.c ****   TCPIP_APIMSG_ACK(msg);
 636:Source\LwIP\src\api/api_msg.c **** }
 637:Source\LwIP\src\api/api_msg.c **** 
 638:Source\LwIP\src\api/api_msg.c **** /**
 639:Source\LwIP\src\api/api_msg.c ****  * Create a new netconn (of a specific type) that has a callback function.
 640:Source\LwIP\src\api/api_msg.c ****  * The corresponding pcb is NOT created!
 641:Source\LwIP\src\api/api_msg.c ****  *
 642:Source\LwIP\src\api/api_msg.c ****  * @param t the type of 'connection' to create (@see enum netconn_type)
 643:Source\LwIP\src\api/api_msg.c ****  * @param callback a function to call on status changes (RX available, TX'ed)
 644:Source\LwIP\src\api/api_msg.c ****  * @return a newly allocated struct netconn or
 645:Source\LwIP\src\api/api_msg.c ****  *         NULL on memory error
 646:Source\LwIP\src\api/api_msg.c ****  */
 647:Source\LwIP\src\api/api_msg.c **** struct netconn*
 648:Source\LwIP\src\api/api_msg.c **** netconn_alloc(enum netconn_type t, netconn_callback callback)
 649:Source\LwIP\src\api/api_msg.c **** {
 650:Source\LwIP\src\api/api_msg.c ****   struct netconn *conn;
 651:Source\LwIP\src\api/api_msg.c ****   int size;
 652:Source\LwIP\src\api/api_msg.c **** 
 653:Source\LwIP\src\api/api_msg.c ****   conn = (struct netconn *)memp_malloc(MEMP_NETCONN);
 654:Source\LwIP\src\api/api_msg.c ****   if (conn == NULL) {
 655:Source\LwIP\src\api/api_msg.c ****     return NULL;
 656:Source\LwIP\src\api/api_msg.c ****   }
 657:Source\LwIP\src\api/api_msg.c **** 
 658:Source\LwIP\src\api/api_msg.c ****   conn->last_err = ERR_OK;
ARM GAS  C:\Users\Phuong\AppData\Local\Temp\ccTHzCbL.s 			page 13


 659:Source\LwIP\src\api/api_msg.c ****   conn->type = t;
 660:Source\LwIP\src\api/api_msg.c ****   conn->pcb.tcp = NULL;
 661:Source\LwIP\src\api/api_msg.c **** 
 662:Source\LwIP\src\api/api_msg.c ****   /* If all sizes are the same, every compiler should optimize this switch to nothing */
 663:Source\LwIP\src\api/api_msg.c ****   switch(NETCONNTYPE_GROUP(t)) {
 664:Source\LwIP\src\api/api_msg.c **** #if LWIP_RAW
 665:Source\LwIP\src\api/api_msg.c ****   case NETCONN_RAW:
 666:Source\LwIP\src\api/api_msg.c ****     size = DEFAULT_RAW_RECVMBOX_SIZE;
 667:Source\LwIP\src\api/api_msg.c ****     break;
 668:Source\LwIP\src\api/api_msg.c **** #endif /* LWIP_RAW */
 669:Source\LwIP\src\api/api_msg.c **** #if LWIP_UDP
 670:Source\LwIP\src\api/api_msg.c ****   case NETCONN_UDP:
 671:Source\LwIP\src\api/api_msg.c ****     size = DEFAULT_UDP_RECVMBOX_SIZE;
 672:Source\LwIP\src\api/api_msg.c ****     break;
 673:Source\LwIP\src\api/api_msg.c **** #endif /* LWIP_UDP */
 674:Source\LwIP\src\api/api_msg.c **** #if LWIP_TCP
 675:Source\LwIP\src\api/api_msg.c ****   case NETCONN_TCP:
 676:Source\LwIP\src\api/api_msg.c ****     size = DEFAULT_TCP_RECVMBOX_SIZE;
 677:Source\LwIP\src\api/api_msg.c ****     break;
 678:Source\LwIP\src\api/api_msg.c **** #endif /* LWIP_TCP */
 679:Source\LwIP\src\api/api_msg.c ****   default:
 680:Source\LwIP\src\api/api_msg.c ****     LWIP_ASSERT("netconn_alloc: undefined netconn_type", 0);
 681:Source\LwIP\src\api/api_msg.c ****     goto free_and_return;
 682:Source\LwIP\src\api/api_msg.c ****   }
 683:Source\LwIP\src\api/api_msg.c **** 
 684:Source\LwIP\src\api/api_msg.c ****   if (sys_mbox_new(&conn->recvmbox, size) != ERR_OK) {
 685:Source\LwIP\src\api/api_msg.c ****     goto free_and_return;
 686:Source\LwIP\src\api/api_msg.c ****   }
 687:Source\LwIP\src\api/api_msg.c **** #if !LWIP_NETCONN_SEM_PER_THREAD
 688:Source\LwIP\src\api/api_msg.c ****   if (sys_sem_new(&conn->op_completed, 0) != ERR_OK) {
 689:Source\LwIP\src\api/api_msg.c ****     sys_mbox_free(&conn->recvmbox);
 690:Source\LwIP\src\api/api_msg.c ****     goto free_and_return;
 691:Source\LwIP\src\api/api_msg.c ****   }
 692:Source\LwIP\src\api/api_msg.c **** #endif
 693:Source\LwIP\src\api/api_msg.c **** 
 694:Source\LwIP\src\api/api_msg.c **** #if LWIP_TCP
 695:Source\LwIP\src\api/api_msg.c ****   sys_mbox_set_invalid(&conn->acceptmbox);
 696:Source\LwIP\src\api/api_msg.c **** #endif
 697:Source\LwIP\src\api/api_msg.c ****   conn->state        = NETCONN_NONE;
 698:Source\LwIP\src\api/api_msg.c **** #if LWIP_SOCKET
 699:Source\LwIP\src\api/api_msg.c ****   /* initialize socket to -1 since 0 is a valid socket */
 700:Source\LwIP\src\api/api_msg.c ****   conn->socket       = -1;
 701:Source\LwIP\src\api/api_msg.c **** #endif /* LWIP_SOCKET */
 702:Source\LwIP\src\api/api_msg.c ****   conn->callback     = callback;
 703:Source\LwIP\src\api/api_msg.c **** #if LWIP_TCP
 704:Source\LwIP\src\api/api_msg.c ****   conn->current_msg  = NULL;
 705:Source\LwIP\src\api/api_msg.c ****   conn->write_offset = 0;
 706:Source\LwIP\src\api/api_msg.c **** #endif /* LWIP_TCP */
 707:Source\LwIP\src\api/api_msg.c **** #if LWIP_SO_SNDTIMEO
 708:Source\LwIP\src\api/api_msg.c ****   conn->send_timeout = 0;
 709:Source\LwIP\src\api/api_msg.c **** #endif /* LWIP_SO_SNDTIMEO */
 710:Source\LwIP\src\api/api_msg.c **** #if LWIP_SO_RCVTIMEO
 711:Source\LwIP\src\api/api_msg.c ****   conn->recv_timeout = 0;
 712:Source\LwIP\src\api/api_msg.c **** #endif /* LWIP_SO_RCVTIMEO */
 713:Source\LwIP\src\api/api_msg.c **** #if LWIP_SO_RCVBUF
 714:Source\LwIP\src\api/api_msg.c ****   conn->recv_bufsize = RECV_BUFSIZE_DEFAULT;
 715:Source\LwIP\src\api/api_msg.c ****   conn->recv_avail   = 0;
ARM GAS  C:\Users\Phuong\AppData\Local\Temp\ccTHzCbL.s 			page 14


 716:Source\LwIP\src\api/api_msg.c **** #endif /* LWIP_SO_RCVBUF */
 717:Source\LwIP\src\api/api_msg.c **** #if LWIP_SO_LINGER
 718:Source\LwIP\src\api/api_msg.c ****   conn->linger = -1;
 719:Source\LwIP\src\api/api_msg.c **** #endif /* LWIP_SO_LINGER */
 720:Source\LwIP\src\api/api_msg.c ****   conn->flags = 0;
 721:Source\LwIP\src\api/api_msg.c ****   return conn;
 722:Source\LwIP\src\api/api_msg.c **** free_and_return:
 723:Source\LwIP\src\api/api_msg.c ****   memp_free(MEMP_NETCONN, conn);
 724:Source\LwIP\src\api/api_msg.c ****   return NULL;
 725:Source\LwIP\src\api/api_msg.c **** }
 726:Source\LwIP\src\api/api_msg.c **** 
 727:Source\LwIP\src\api/api_msg.c **** /**
 728:Source\LwIP\src\api/api_msg.c ****  * Delete a netconn and all its resources.
 729:Source\LwIP\src\api/api_msg.c ****  * The pcb is NOT freed (since we might not be in the right thread context do this).
 730:Source\LwIP\src\api/api_msg.c ****  *
 731:Source\LwIP\src\api/api_msg.c ****  * @param conn the netconn to free
 732:Source\LwIP\src\api/api_msg.c ****  */
 733:Source\LwIP\src\api/api_msg.c **** void
 734:Source\LwIP\src\api/api_msg.c **** netconn_free(struct netconn *conn)
 735:Source\LwIP\src\api/api_msg.c **** {
 736:Source\LwIP\src\api/api_msg.c ****   LWIP_ASSERT("PCB must be deallocated outside this function", conn->pcb.tcp == NULL);
 737:Source\LwIP\src\api/api_msg.c ****   LWIP_ASSERT("recvmbox must be deallocated before calling this function",
 738:Source\LwIP\src\api/api_msg.c ****     !sys_mbox_valid(&conn->recvmbox));
 739:Source\LwIP\src\api/api_msg.c **** #if LWIP_TCP
 740:Source\LwIP\src\api/api_msg.c ****   LWIP_ASSERT("acceptmbox must be deallocated before calling this function",
 741:Source\LwIP\src\api/api_msg.c ****     !sys_mbox_valid(&conn->acceptmbox));
 742:Source\LwIP\src\api/api_msg.c **** #endif /* LWIP_TCP */
 743:Source\LwIP\src\api/api_msg.c **** 
 744:Source\LwIP\src\api/api_msg.c **** #if !LWIP_NETCONN_SEM_PER_THREAD
 745:Source\LwIP\src\api/api_msg.c ****   sys_sem_free(&conn->op_completed);
 746:Source\LwIP\src\api/api_msg.c ****   sys_sem_set_invalid(&conn->op_completed);
 747:Source\LwIP\src\api/api_msg.c **** #endif
 748:Source\LwIP\src\api/api_msg.c **** 
 749:Source\LwIP\src\api/api_msg.c ****   memp_free(MEMP_NETCONN, conn);
 750:Source\LwIP\src\api/api_msg.c **** }
 751:Source\LwIP\src\api/api_msg.c **** 
 752:Source\LwIP\src\api/api_msg.c **** /**
 753:Source\LwIP\src\api/api_msg.c ****  * Delete rcvmbox and acceptmbox of a netconn and free the left-over data in
 754:Source\LwIP\src\api/api_msg.c ****  * these mboxes
 755:Source\LwIP\src\api/api_msg.c ****  *
 756:Source\LwIP\src\api/api_msg.c ****  * @param conn the netconn to free
 757:Source\LwIP\src\api/api_msg.c ****  * @bytes_drained bytes drained from recvmbox
 758:Source\LwIP\src\api/api_msg.c ****  * @accepts_drained pending connections drained from acceptmbox
 759:Source\LwIP\src\api/api_msg.c ****  */
 760:Source\LwIP\src\api/api_msg.c **** static void
 761:Source\LwIP\src\api/api_msg.c **** netconn_drain(struct netconn *conn)
 762:Source\LwIP\src\api/api_msg.c **** {
 763:Source\LwIP\src\api/api_msg.c ****   void *mem;
 764:Source\LwIP\src\api/api_msg.c **** #if LWIP_TCP
 765:Source\LwIP\src\api/api_msg.c ****   struct pbuf *p;
 766:Source\LwIP\src\api/api_msg.c **** #endif /* LWIP_TCP */
 767:Source\LwIP\src\api/api_msg.c **** 
 768:Source\LwIP\src\api/api_msg.c ****   /* This runs in tcpip_thread, so we don't need to lock against rx packets */
 769:Source\LwIP\src\api/api_msg.c **** 
 770:Source\LwIP\src\api/api_msg.c ****   /* Delete and drain the recvmbox. */
 771:Source\LwIP\src\api/api_msg.c ****   if (sys_mbox_valid(&conn->recvmbox)) {
 772:Source\LwIP\src\api/api_msg.c ****     while (sys_mbox_tryfetch(&conn->recvmbox, &mem) != SYS_MBOX_EMPTY) {
ARM GAS  C:\Users\Phuong\AppData\Local\Temp\ccTHzCbL.s 			page 15


 773:Source\LwIP\src\api/api_msg.c **** #if LWIP_TCP
 774:Source\LwIP\src\api/api_msg.c ****       if (NETCONNTYPE_GROUP(conn->type) == NETCONN_TCP) {
 775:Source\LwIP\src\api/api_msg.c ****         if (mem != NULL) {
 776:Source\LwIP\src\api/api_msg.c ****           p = (struct pbuf*)mem;
 777:Source\LwIP\src\api/api_msg.c ****           /* pcb might be set to NULL already by err_tcp() */
 778:Source\LwIP\src\api/api_msg.c ****           if (conn->pcb.tcp != NULL) {
 779:Source\LwIP\src\api/api_msg.c ****             tcp_recved(conn->pcb.tcp, p->tot_len);
 780:Source\LwIP\src\api/api_msg.c ****           }
 781:Source\LwIP\src\api/api_msg.c ****           pbuf_free(p);
 782:Source\LwIP\src\api/api_msg.c ****         }
 783:Source\LwIP\src\api/api_msg.c ****       } else
 784:Source\LwIP\src\api/api_msg.c **** #endif /* LWIP_TCP */
 785:Source\LwIP\src\api/api_msg.c ****       {
 786:Source\LwIP\src\api/api_msg.c ****         netbuf_delete((struct netbuf *)mem);
 787:Source\LwIP\src\api/api_msg.c ****       }
 788:Source\LwIP\src\api/api_msg.c ****     }
 789:Source\LwIP\src\api/api_msg.c ****     sys_mbox_free(&conn->recvmbox);
 790:Source\LwIP\src\api/api_msg.c ****     sys_mbox_set_invalid(&conn->recvmbox);
 791:Source\LwIP\src\api/api_msg.c ****   }
 792:Source\LwIP\src\api/api_msg.c **** 
 793:Source\LwIP\src\api/api_msg.c ****   /* Delete and drain the acceptmbox. */
 794:Source\LwIP\src\api/api_msg.c **** #if LWIP_TCP
 795:Source\LwIP\src\api/api_msg.c ****   if (sys_mbox_valid(&conn->acceptmbox)) {
 796:Source\LwIP\src\api/api_msg.c ****     while (sys_mbox_tryfetch(&conn->acceptmbox, &mem) != SYS_MBOX_EMPTY) {
 797:Source\LwIP\src\api/api_msg.c ****       if (mem != &netconn_aborted) {
 798:Source\LwIP\src\api/api_msg.c ****         struct netconn *newconn = (struct netconn *)mem;
 799:Source\LwIP\src\api/api_msg.c ****         /* Only tcp pcbs have an acceptmbox, so no need to check conn->type */
 800:Source\LwIP\src\api/api_msg.c ****         /* pcb might be set to NULL already by err_tcp() */
 801:Source\LwIP\src\api/api_msg.c ****         /* drain recvmbox */
 802:Source\LwIP\src\api/api_msg.c ****         netconn_drain(newconn);
 803:Source\LwIP\src\api/api_msg.c ****         if (newconn->pcb.tcp != NULL) {
 804:Source\LwIP\src\api/api_msg.c ****           tcp_abort(newconn->pcb.tcp);
 805:Source\LwIP\src\api/api_msg.c ****           newconn->pcb.tcp = NULL;
 806:Source\LwIP\src\api/api_msg.c ****         }
 807:Source\LwIP\src\api/api_msg.c ****         netconn_free(newconn);
 808:Source\LwIP\src\api/api_msg.c ****       }
 809:Source\LwIP\src\api/api_msg.c ****     }
 810:Source\LwIP\src\api/api_msg.c ****     sys_mbox_free(&conn->acceptmbox);
 811:Source\LwIP\src\api/api_msg.c ****     sys_mbox_set_invalid(&conn->acceptmbox);
 812:Source\LwIP\src\api/api_msg.c ****   }
 813:Source\LwIP\src\api/api_msg.c **** #endif /* LWIP_TCP */
 814:Source\LwIP\src\api/api_msg.c **** }
 815:Source\LwIP\src\api/api_msg.c **** 
 816:Source\LwIP\src\api/api_msg.c **** #if LWIP_TCP
 817:Source\LwIP\src\api/api_msg.c **** /**
 818:Source\LwIP\src\api/api_msg.c ****  * Internal helper function to close a TCP netconn: since this sometimes
 819:Source\LwIP\src\api/api_msg.c ****  * doesn't work at the first attempt, this function is called from multiple
 820:Source\LwIP\src\api/api_msg.c ****  * places.
 821:Source\LwIP\src\api/api_msg.c ****  *
 822:Source\LwIP\src\api/api_msg.c ****  * @param conn the TCP netconn to close
 823:Source\LwIP\src\api/api_msg.c ****  */
 824:Source\LwIP\src\api/api_msg.c **** static err_t
 825:Source\LwIP\src\api/api_msg.c **** lwip_netconn_do_close_internal(struct netconn *conn  WRITE_DELAYED_PARAM)
 826:Source\LwIP\src\api/api_msg.c **** {
 827:Source\LwIP\src\api/api_msg.c ****   err_t err;
 828:Source\LwIP\src\api/api_msg.c ****   u8_t shut, shut_rx, shut_tx, close;
 829:Source\LwIP\src\api/api_msg.c ****   u8_t close_finished = 0;
ARM GAS  C:\Users\Phuong\AppData\Local\Temp\ccTHzCbL.s 			page 16


 830:Source\LwIP\src\api/api_msg.c ****   struct tcp_pcb* tpcb;
 831:Source\LwIP\src\api/api_msg.c **** #if LWIP_SO_LINGER
 832:Source\LwIP\src\api/api_msg.c ****   u8_t linger_wait_required = 0;
 833:Source\LwIP\src\api/api_msg.c **** #endif /* LWIP_SO_LINGER */
 834:Source\LwIP\src\api/api_msg.c **** 
 835:Source\LwIP\src\api/api_msg.c ****   LWIP_ASSERT("invalid conn", (conn != NULL));
 836:Source\LwIP\src\api/api_msg.c ****   LWIP_ASSERT("this is for tcp netconns only", (NETCONNTYPE_GROUP(conn->type) == NETCONN_TCP));
 837:Source\LwIP\src\api/api_msg.c ****   LWIP_ASSERT("conn must be in state NETCONN_CLOSE", (conn->state == NETCONN_CLOSE));
 838:Source\LwIP\src\api/api_msg.c ****   LWIP_ASSERT("pcb already closed", (conn->pcb.tcp != NULL));
 839:Source\LwIP\src\api/api_msg.c ****   LWIP_ASSERT("conn->current_msg != NULL", conn->current_msg != NULL);
 840:Source\LwIP\src\api/api_msg.c **** 
 841:Source\LwIP\src\api/api_msg.c ****   tpcb = conn->pcb.tcp;
 842:Source\LwIP\src\api/api_msg.c ****   shut = conn->current_msg->msg.sd.shut;
 843:Source\LwIP\src\api/api_msg.c ****   shut_rx = shut & NETCONN_SHUT_RD;
 844:Source\LwIP\src\api/api_msg.c ****   shut_tx = shut & NETCONN_SHUT_WR;
 845:Source\LwIP\src\api/api_msg.c ****   /* shutting down both ends is the same as closing
 846:Source\LwIP\src\api/api_msg.c ****      (also if RD or WR side was shut down before already) */
 847:Source\LwIP\src\api/api_msg.c ****   if (shut == NETCONN_SHUT_RDWR) {
 848:Source\LwIP\src\api/api_msg.c ****     close = 1;
 849:Source\LwIP\src\api/api_msg.c ****   } else if (shut_rx &&
 850:Source\LwIP\src\api/api_msg.c ****              ((tpcb->state == FIN_WAIT_1) ||
 851:Source\LwIP\src\api/api_msg.c ****               (tpcb->state == FIN_WAIT_2) ||
 852:Source\LwIP\src\api/api_msg.c ****               (tpcb->state == CLOSING))) {
 853:Source\LwIP\src\api/api_msg.c ****     close = 1;
 854:Source\LwIP\src\api/api_msg.c ****   } else if (shut_tx && ((tpcb->flags & TF_RXCLOSED) != 0)) {
 855:Source\LwIP\src\api/api_msg.c ****     close = 1;
 856:Source\LwIP\src\api/api_msg.c ****   } else {
 857:Source\LwIP\src\api/api_msg.c ****     close = 0;
 858:Source\LwIP\src\api/api_msg.c ****   }
 859:Source\LwIP\src\api/api_msg.c **** 
 860:Source\LwIP\src\api/api_msg.c ****   /* Set back some callback pointers */
 861:Source\LwIP\src\api/api_msg.c ****   if (close) {
 862:Source\LwIP\src\api/api_msg.c ****     tcp_arg(tpcb, NULL);
 863:Source\LwIP\src\api/api_msg.c ****   }
 864:Source\LwIP\src\api/api_msg.c ****   if (tpcb->state == LISTEN) {
 865:Source\LwIP\src\api/api_msg.c ****     tcp_accept(tpcb, NULL);
 866:Source\LwIP\src\api/api_msg.c ****   } else {
 867:Source\LwIP\src\api/api_msg.c ****     /* some callbacks have to be reset if tcp_close is not successful */
 868:Source\LwIP\src\api/api_msg.c ****     if (shut_rx) {
 869:Source\LwIP\src\api/api_msg.c ****       tcp_recv(tpcb, NULL);
 870:Source\LwIP\src\api/api_msg.c ****       tcp_accept(tpcb, NULL);
 871:Source\LwIP\src\api/api_msg.c ****     }
 872:Source\LwIP\src\api/api_msg.c ****     if (shut_tx) {
 873:Source\LwIP\src\api/api_msg.c ****       tcp_sent(tpcb, NULL);
 874:Source\LwIP\src\api/api_msg.c ****     }
 875:Source\LwIP\src\api/api_msg.c ****     if (close) {
 876:Source\LwIP\src\api/api_msg.c ****       tcp_poll(tpcb, NULL, 0);
 877:Source\LwIP\src\api/api_msg.c ****       tcp_err(tpcb, NULL);
 878:Source\LwIP\src\api/api_msg.c ****     }
 879:Source\LwIP\src\api/api_msg.c ****   }
 880:Source\LwIP\src\api/api_msg.c ****   /* Try to close the connection */
 881:Source\LwIP\src\api/api_msg.c ****   if (close) {
 882:Source\LwIP\src\api/api_msg.c **** #if LWIP_SO_LINGER
 883:Source\LwIP\src\api/api_msg.c ****     /* check linger possibilites before calling tcp_close */
 884:Source\LwIP\src\api/api_msg.c ****     err = ERR_OK;
 885:Source\LwIP\src\api/api_msg.c ****     /* linger enabled/required at all? (i.e. is there untransmitted data left?) */
 886:Source\LwIP\src\api/api_msg.c ****     if ((conn->linger >= 0) && (conn->pcb.tcp->unsent || conn->pcb.tcp->unacked)) {
ARM GAS  C:\Users\Phuong\AppData\Local\Temp\ccTHzCbL.s 			page 17


 887:Source\LwIP\src\api/api_msg.c ****       if ((conn->linger == 0)) {
 888:Source\LwIP\src\api/api_msg.c ****         /* data left but linger prevents waiting */
 889:Source\LwIP\src\api/api_msg.c ****         tcp_abort(tpcb);
 890:Source\LwIP\src\api/api_msg.c ****         tpcb = NULL;
 891:Source\LwIP\src\api/api_msg.c ****       } else if (conn->linger > 0) {
 892:Source\LwIP\src\api/api_msg.c ****         /* data left and linger says we should wait */
 893:Source\LwIP\src\api/api_msg.c ****         if (netconn_is_nonblocking(conn)) {
 894:Source\LwIP\src\api/api_msg.c ****           /* data left on a nonblocking netconn -> cannot linger */
 895:Source\LwIP\src\api/api_msg.c ****           err = ERR_WOULDBLOCK;
 896:Source\LwIP\src\api/api_msg.c ****         } else if ((s32_t)(sys_now() - conn->current_msg->msg.sd.time_started) >=
 897:Source\LwIP\src\api/api_msg.c ****           (conn->linger * 1000)) {
 898:Source\LwIP\src\api/api_msg.c ****           /* data left but linger timeout has expired (this happens on further
 899:Source\LwIP\src\api/api_msg.c ****              calls to this function through poll_tcp */
 900:Source\LwIP\src\api/api_msg.c ****           tcp_abort(tpcb);
 901:Source\LwIP\src\api/api_msg.c ****           tpcb = NULL;
 902:Source\LwIP\src\api/api_msg.c ****         } else {
 903:Source\LwIP\src\api/api_msg.c ****           /* data left -> need to wait for ACK after successful close */
 904:Source\LwIP\src\api/api_msg.c ****           linger_wait_required = 1;
 905:Source\LwIP\src\api/api_msg.c ****         }
 906:Source\LwIP\src\api/api_msg.c ****       }
 907:Source\LwIP\src\api/api_msg.c ****     }
 908:Source\LwIP\src\api/api_msg.c ****     if ((err == ERR_OK) && (tpcb != NULL))
 909:Source\LwIP\src\api/api_msg.c **** #endif /* LWIP_SO_LINGER */
 910:Source\LwIP\src\api/api_msg.c ****     {
 911:Source\LwIP\src\api/api_msg.c ****       err = tcp_close(tpcb);
 912:Source\LwIP\src\api/api_msg.c ****     }
 913:Source\LwIP\src\api/api_msg.c ****   } else {
 914:Source\LwIP\src\api/api_msg.c ****     err = tcp_shutdown(tpcb, shut_rx, shut_tx);
 915:Source\LwIP\src\api/api_msg.c ****   }
 916:Source\LwIP\src\api/api_msg.c ****   if (err == ERR_OK) {
 917:Source\LwIP\src\api/api_msg.c ****     close_finished = 1;
 918:Source\LwIP\src\api/api_msg.c **** #if LWIP_SO_LINGER
 919:Source\LwIP\src\api/api_msg.c ****     if (linger_wait_required) {
 920:Source\LwIP\src\api/api_msg.c ****       /* wait for ACK of all unsent/unacked data by just getting called again */
 921:Source\LwIP\src\api/api_msg.c ****       close_finished = 0;
 922:Source\LwIP\src\api/api_msg.c ****       err = ERR_INPROGRESS;
 923:Source\LwIP\src\api/api_msg.c ****     }
 924:Source\LwIP\src\api/api_msg.c **** #endif /* LWIP_SO_LINGER */
 925:Source\LwIP\src\api/api_msg.c ****   } else {
 926:Source\LwIP\src\api/api_msg.c ****     if (err == ERR_MEM) {
 927:Source\LwIP\src\api/api_msg.c ****       /* Closing failed because of memory shortage, try again later. Even for
 928:Source\LwIP\src\api/api_msg.c ****          nonblocking netconns, we have to wait since no standard socket application
 929:Source\LwIP\src\api/api_msg.c ****          is prepared for close failing because of resource shortage.
 930:Source\LwIP\src\api/api_msg.c ****          Check the timeout: this is kind of an lwip addition to the standard sockets:
 931:Source\LwIP\src\api/api_msg.c ****          we wait for some time when failing to allocate a segment for the FIN */
 932:Source\LwIP\src\api/api_msg.c **** #if LWIP_SO_SNDTIMEO || LWIP_SO_LINGER
 933:Source\LwIP\src\api/api_msg.c ****       s32_t close_timeout = LWIP_TCP_CLOSE_TIMEOUT_MS_DEFAULT;
 934:Source\LwIP\src\api/api_msg.c **** #if LWIP_SO_SNDTIMEO
 935:Source\LwIP\src\api/api_msg.c ****       if (conn->send_timeout > 0) {
 936:Source\LwIP\src\api/api_msg.c ****         close_timeout = conn->send_timeout;
 937:Source\LwIP\src\api/api_msg.c ****       }
 938:Source\LwIP\src\api/api_msg.c **** #endif /* LWIP_SO_SNDTIMEO */
 939:Source\LwIP\src\api/api_msg.c **** #if LWIP_SO_LINGER
 940:Source\LwIP\src\api/api_msg.c ****       if (conn->linger >= 0) {
 941:Source\LwIP\src\api/api_msg.c ****         /* use linger timeout (seconds) */
 942:Source\LwIP\src\api/api_msg.c ****         close_timeout = conn->linger * 1000U;
 943:Source\LwIP\src\api/api_msg.c ****       }
ARM GAS  C:\Users\Phuong\AppData\Local\Temp\ccTHzCbL.s 			page 18


 944:Source\LwIP\src\api/api_msg.c **** #endif
 945:Source\LwIP\src\api/api_msg.c ****       if ((s32_t)(sys_now() - conn->current_msg->msg.sd.time_started) >= close_timeout) {
 946:Source\LwIP\src\api/api_msg.c **** #else /* LWIP_SO_SNDTIMEO || LWIP_SO_LINGER */
 947:Source\LwIP\src\api/api_msg.c ****       if (conn->current_msg->msg.sd.polls_left == 0) {
 948:Source\LwIP\src\api/api_msg.c **** #endif /* LWIP_SO_SNDTIMEO || LWIP_SO_LINGER */
 949:Source\LwIP\src\api/api_msg.c ****         close_finished = 1;
 950:Source\LwIP\src\api/api_msg.c ****         if (close) {
 951:Source\LwIP\src\api/api_msg.c ****           /* in this case, we want to RST the connection */
 952:Source\LwIP\src\api/api_msg.c ****           tcp_abort(tpcb);
 953:Source\LwIP\src\api/api_msg.c ****           err = ERR_OK;
 954:Source\LwIP\src\api/api_msg.c ****         }
 955:Source\LwIP\src\api/api_msg.c ****       }
 956:Source\LwIP\src\api/api_msg.c ****     } else {
 957:Source\LwIP\src\api/api_msg.c ****       /* Closing failed for a non-memory error: give up */
 958:Source\LwIP\src\api/api_msg.c ****       close_finished = 1;
 959:Source\LwIP\src\api/api_msg.c ****     }
 960:Source\LwIP\src\api/api_msg.c ****   }
 961:Source\LwIP\src\api/api_msg.c ****   if (close_finished) {
 962:Source\LwIP\src\api/api_msg.c ****     /* Closing done (succeeded, non-memory error, nonblocking error or timeout) */
 963:Source\LwIP\src\api/api_msg.c ****     sys_sem_t* op_completed_sem = LWIP_API_MSG_SEM(conn->current_msg);
 964:Source\LwIP\src\api/api_msg.c ****     conn->current_msg->err = err;
 965:Source\LwIP\src\api/api_msg.c ****     conn->current_msg = NULL;
 966:Source\LwIP\src\api/api_msg.c ****     conn->state = NETCONN_NONE;
 967:Source\LwIP\src\api/api_msg.c ****     if (err == ERR_OK) {
 968:Source\LwIP\src\api/api_msg.c ****       if (close) {
 969:Source\LwIP\src\api/api_msg.c ****         /* Set back some callback pointers as conn is going away */
 970:Source\LwIP\src\api/api_msg.c ****         conn->pcb.tcp = NULL;
 971:Source\LwIP\src\api/api_msg.c ****         /* Trigger select() in socket layer. Make sure everybody notices activity
 972:Source\LwIP\src\api/api_msg.c ****          on the connection, error first! */
 973:Source\LwIP\src\api/api_msg.c ****         API_EVENT(conn, NETCONN_EVT_ERROR, 0);
 974:Source\LwIP\src\api/api_msg.c ****       }
 975:Source\LwIP\src\api/api_msg.c ****       if (shut_rx) {
 976:Source\LwIP\src\api/api_msg.c ****         API_EVENT(conn, NETCONN_EVT_RCVPLUS, 0);
 977:Source\LwIP\src\api/api_msg.c ****       }
 978:Source\LwIP\src\api/api_msg.c ****       if (shut_tx) {
 979:Source\LwIP\src\api/api_msg.c ****         API_EVENT(conn, NETCONN_EVT_SENDPLUS, 0);
 980:Source\LwIP\src\api/api_msg.c ****       }
 981:Source\LwIP\src\api/api_msg.c ****     }
 982:Source\LwIP\src\api/api_msg.c ****     NETCONN_SET_SAFE_ERR(conn, err);
 983:Source\LwIP\src\api/api_msg.c **** #if LWIP_TCPIP_CORE_LOCKING
 984:Source\LwIP\src\api/api_msg.c ****     if (delayed)
 985:Source\LwIP\src\api/api_msg.c **** #endif
 986:Source\LwIP\src\api/api_msg.c ****     {
 987:Source\LwIP\src\api/api_msg.c ****       /* wake up the application task */
 988:Source\LwIP\src\api/api_msg.c ****       sys_sem_signal(op_completed_sem);
 989:Source\LwIP\src\api/api_msg.c ****     }
 990:Source\LwIP\src\api/api_msg.c ****     return ERR_OK;
 991:Source\LwIP\src\api/api_msg.c ****   }
 992:Source\LwIP\src\api/api_msg.c ****   if (!close_finished) {
 993:Source\LwIP\src\api/api_msg.c ****     /* Closing failed and we want to wait: restore some of the callbacks */
 994:Source\LwIP\src\api/api_msg.c ****     /* Closing of listen pcb will never fail! */
 995:Source\LwIP\src\api/api_msg.c ****     LWIP_ASSERT("Closing a listen pcb may not fail!", (tpcb->state != LISTEN));
 996:Source\LwIP\src\api/api_msg.c ****     if (shut_tx) {
 997:Source\LwIP\src\api/api_msg.c ****       tcp_sent(tpcb, sent_tcp);
 998:Source\LwIP\src\api/api_msg.c ****     }
 999:Source\LwIP\src\api/api_msg.c ****     /* when waiting for close, set up poll interval to 500ms */
1000:Source\LwIP\src\api/api_msg.c ****     tcp_poll(tpcb, poll_tcp, 1);
ARM GAS  C:\Users\Phuong\AppData\Local\Temp\ccTHzCbL.s 			page 19


1001:Source\LwIP\src\api/api_msg.c ****     tcp_err(tpcb, err_tcp);
1002:Source\LwIP\src\api/api_msg.c ****     tcp_arg(tpcb, conn);
1003:Source\LwIP\src\api/api_msg.c ****     /* don't restore recv callback: we don't want to receive any more data */
1004:Source\LwIP\src\api/api_msg.c ****   }
1005:Source\LwIP\src\api/api_msg.c ****   /* If closing didn't succeed, we get called again either
1006:Source\LwIP\src\api/api_msg.c ****      from poll_tcp or from sent_tcp */
1007:Source\LwIP\src\api/api_msg.c ****   LWIP_ASSERT("err != ERR_OK", err != ERR_OK);
1008:Source\LwIP\src\api/api_msg.c ****   return err;
1009:Source\LwIP\src\api/api_msg.c **** }
1010:Source\LwIP\src\api/api_msg.c **** #endif /* LWIP_TCP */
1011:Source\LwIP\src\api/api_msg.c **** 
1012:Source\LwIP\src\api/api_msg.c **** /**
1013:Source\LwIP\src\api/api_msg.c ****  * Delete the pcb inside a netconn.
1014:Source\LwIP\src\api/api_msg.c ****  * Called from netconn_delete.
1015:Source\LwIP\src\api/api_msg.c ****  *
1016:Source\LwIP\src\api/api_msg.c ****  * @param m the api_msg_msg pointing to the connection
1017:Source\LwIP\src\api/api_msg.c ****  */
1018:Source\LwIP\src\api/api_msg.c **** void
1019:Source\LwIP\src\api/api_msg.c **** lwip_netconn_do_delconn(void *m)
1020:Source\LwIP\src\api/api_msg.c **** {
1021:Source\LwIP\src\api/api_msg.c ****   struct api_msg *msg = (struct api_msg*)m;
1022:Source\LwIP\src\api/api_msg.c **** 
1023:Source\LwIP\src\api/api_msg.c ****   enum netconn_state state = msg->conn->state;
1024:Source\LwIP\src\api/api_msg.c ****   LWIP_ASSERT("netconn state error", /* this only happens for TCP netconns */
1025:Source\LwIP\src\api/api_msg.c ****     (state == NETCONN_NONE) || (NETCONNTYPE_GROUP(msg->conn->type) == NETCONN_TCP));
1026:Source\LwIP\src\api/api_msg.c **** #if LWIP_NETCONN_FULLDUPLEX
1027:Source\LwIP\src\api/api_msg.c ****   /* In full duplex mode, blocking write/connect is aborted with ERR_CLSD */
1028:Source\LwIP\src\api/api_msg.c ****   if (state != NETCONN_NONE) {
1029:Source\LwIP\src\api/api_msg.c ****     if ((state == NETCONN_WRITE) ||
1030:Source\LwIP\src\api/api_msg.c ****         ((state == NETCONN_CONNECT) && !IN_NONBLOCKING_CONNECT(msg->conn))) {
1031:Source\LwIP\src\api/api_msg.c ****       /* close requested, abort running write/connect */
1032:Source\LwIP\src\api/api_msg.c ****       sys_sem_t* op_completed_sem;
1033:Source\LwIP\src\api/api_msg.c ****       LWIP_ASSERT("msg->conn->current_msg != NULL", msg->conn->current_msg != NULL);
1034:Source\LwIP\src\api/api_msg.c ****       op_completed_sem = LWIP_API_MSG_SEM(msg->conn->current_msg);
1035:Source\LwIP\src\api/api_msg.c ****       msg->conn->current_msg->err = ERR_CLSD;
1036:Source\LwIP\src\api/api_msg.c ****       msg->conn->current_msg = NULL;
1037:Source\LwIP\src\api/api_msg.c ****       msg->conn->write_offset = 0;
1038:Source\LwIP\src\api/api_msg.c ****       msg->conn->state = NETCONN_NONE;
1039:Source\LwIP\src\api/api_msg.c ****       NETCONN_SET_SAFE_ERR(msg->conn, ERR_CLSD);
1040:Source\LwIP\src\api/api_msg.c ****       sys_sem_signal(op_completed_sem);
1041:Source\LwIP\src\api/api_msg.c ****     }
1042:Source\LwIP\src\api/api_msg.c ****   }
1043:Source\LwIP\src\api/api_msg.c **** #else /* LWIP_NETCONN_FULLDUPLEX */
1044:Source\LwIP\src\api/api_msg.c ****   if (((state != NETCONN_NONE) &&
1045:Source\LwIP\src\api/api_msg.c ****        (state != NETCONN_LISTEN) &&
1046:Source\LwIP\src\api/api_msg.c ****        (state != NETCONN_CONNECT)) ||
1047:Source\LwIP\src\api/api_msg.c ****       ((state == NETCONN_CONNECT) && !IN_NONBLOCKING_CONNECT(msg->conn))) {
1048:Source\LwIP\src\api/api_msg.c ****     /* This means either a blocking write or blocking connect is running
1049:Source\LwIP\src\api/api_msg.c ****        (nonblocking write returns and sets state to NONE) */
1050:Source\LwIP\src\api/api_msg.c ****     msg->err = ERR_INPROGRESS;
1051:Source\LwIP\src\api/api_msg.c ****   } else
1052:Source\LwIP\src\api/api_msg.c **** #endif /* LWIP_NETCONN_FULLDUPLEX */
1053:Source\LwIP\src\api/api_msg.c ****   {
1054:Source\LwIP\src\api/api_msg.c ****     LWIP_ASSERT("blocking connect in progress",
1055:Source\LwIP\src\api/api_msg.c ****       (state != NETCONN_CONNECT) || IN_NONBLOCKING_CONNECT(msg->conn));
1056:Source\LwIP\src\api/api_msg.c ****     msg->err = ERR_OK;
1057:Source\LwIP\src\api/api_msg.c ****     /* Drain and delete mboxes */
ARM GAS  C:\Users\Phuong\AppData\Local\Temp\ccTHzCbL.s 			page 20


1058:Source\LwIP\src\api/api_msg.c ****     netconn_drain(msg->conn);
1059:Source\LwIP\src\api/api_msg.c **** 
1060:Source\LwIP\src\api/api_msg.c ****     if (msg->conn->pcb.tcp != NULL) {
1061:Source\LwIP\src\api/api_msg.c **** 
1062:Source\LwIP\src\api/api_msg.c ****       switch (NETCONNTYPE_GROUP(msg->conn->type)) {
1063:Source\LwIP\src\api/api_msg.c **** #if LWIP_RAW
1064:Source\LwIP\src\api/api_msg.c ****       case NETCONN_RAW:
1065:Source\LwIP\src\api/api_msg.c ****         raw_remove(msg->conn->pcb.raw);
1066:Source\LwIP\src\api/api_msg.c ****         break;
1067:Source\LwIP\src\api/api_msg.c **** #endif /* LWIP_RAW */
1068:Source\LwIP\src\api/api_msg.c **** #if LWIP_UDP
1069:Source\LwIP\src\api/api_msg.c ****       case NETCONN_UDP:
1070:Source\LwIP\src\api/api_msg.c ****         msg->conn->pcb.udp->recv_arg = NULL;
1071:Source\LwIP\src\api/api_msg.c ****         udp_remove(msg->conn->pcb.udp);
1072:Source\LwIP\src\api/api_msg.c ****         break;
1073:Source\LwIP\src\api/api_msg.c **** #endif /* LWIP_UDP */
1074:Source\LwIP\src\api/api_msg.c **** #if LWIP_TCP
1075:Source\LwIP\src\api/api_msg.c ****       case NETCONN_TCP:
1076:Source\LwIP\src\api/api_msg.c ****         LWIP_ASSERT("already writing or closing", msg->conn->current_msg == NULL &&
1077:Source\LwIP\src\api/api_msg.c ****           msg->conn->write_offset == 0);
1078:Source\LwIP\src\api/api_msg.c ****         msg->conn->state = NETCONN_CLOSE;
1079:Source\LwIP\src\api/api_msg.c ****         msg->msg.sd.shut = NETCONN_SHUT_RDWR;
1080:Source\LwIP\src\api/api_msg.c ****         msg->conn->current_msg = msg;
1081:Source\LwIP\src\api/api_msg.c **** #if LWIP_TCPIP_CORE_LOCKING
1082:Source\LwIP\src\api/api_msg.c ****         if (lwip_netconn_do_close_internal(msg->conn, 0) != ERR_OK) {
1083:Source\LwIP\src\api/api_msg.c ****           LWIP_ASSERT("state!", msg->conn->state == NETCONN_CLOSE);
1084:Source\LwIP\src\api/api_msg.c ****           UNLOCK_TCPIP_CORE();
1085:Source\LwIP\src\api/api_msg.c ****           sys_arch_sem_wait(LWIP_API_MSG_SEM(msg), 0);
1086:Source\LwIP\src\api/api_msg.c ****           LOCK_TCPIP_CORE();
1087:Source\LwIP\src\api/api_msg.c ****           LWIP_ASSERT("state!", msg->conn->state == NETCONN_NONE);
1088:Source\LwIP\src\api/api_msg.c ****         }
1089:Source\LwIP\src\api/api_msg.c **** #else /* LWIP_TCPIP_CORE_LOCKING */
1090:Source\LwIP\src\api/api_msg.c ****         lwip_netconn_do_close_internal(msg->conn);
1091:Source\LwIP\src\api/api_msg.c **** #endif /* LWIP_TCPIP_CORE_LOCKING */
1092:Source\LwIP\src\api/api_msg.c ****         /* API_EVENT is called inside lwip_netconn_do_close_internal, before releasing
1093:Source\LwIP\src\api/api_msg.c ****            the application thread, so we can return at this point! */
1094:Source\LwIP\src\api/api_msg.c ****         return;
1095:Source\LwIP\src\api/api_msg.c **** #endif /* LWIP_TCP */
1096:Source\LwIP\src\api/api_msg.c ****       default:
1097:Source\LwIP\src\api/api_msg.c ****         break;
1098:Source\LwIP\src\api/api_msg.c ****       }
1099:Source\LwIP\src\api/api_msg.c ****       msg->conn->pcb.tcp = NULL;
1100:Source\LwIP\src\api/api_msg.c ****     }
1101:Source\LwIP\src\api/api_msg.c ****     /* tcp netconns don't come here! */
1102:Source\LwIP\src\api/api_msg.c **** 
1103:Source\LwIP\src\api/api_msg.c ****     /* @todo: this lets select make the socket readable and writable,
1104:Source\LwIP\src\api/api_msg.c ****        which is wrong! errfd instead? */
1105:Source\LwIP\src\api/api_msg.c ****     API_EVENT(msg->conn, NETCONN_EVT_RCVPLUS, 0);
1106:Source\LwIP\src\api/api_msg.c ****     API_EVENT(msg->conn, NETCONN_EVT_SENDPLUS, 0);
1107:Source\LwIP\src\api/api_msg.c ****   }
1108:Source\LwIP\src\api/api_msg.c ****   if (sys_sem_valid(LWIP_API_MSG_SEM(msg))) {
1109:Source\LwIP\src\api/api_msg.c ****     TCPIP_APIMSG_ACK(msg);
1110:Source\LwIP\src\api/api_msg.c ****   }
1111:Source\LwIP\src\api/api_msg.c **** }
1112:Source\LwIP\src\api/api_msg.c **** 
1113:Source\LwIP\src\api/api_msg.c **** /**
1114:Source\LwIP\src\api/api_msg.c ****  * Bind a pcb contained in a netconn
ARM GAS  C:\Users\Phuong\AppData\Local\Temp\ccTHzCbL.s 			page 21


1115:Source\LwIP\src\api/api_msg.c ****  * Called from netconn_bind.
1116:Source\LwIP\src\api/api_msg.c ****  *
1117:Source\LwIP\src\api/api_msg.c ****  * @param m the api_msg_msg pointing to the connection and containing
1118:Source\LwIP\src\api/api_msg.c ****  *          the IP address and port to bind to
1119:Source\LwIP\src\api/api_msg.c ****  */
1120:Source\LwIP\src\api/api_msg.c **** void
1121:Source\LwIP\src\api/api_msg.c **** lwip_netconn_do_bind(void *m)
1122:Source\LwIP\src\api/api_msg.c **** {
1123:Source\LwIP\src\api/api_msg.c ****   struct api_msg *msg = (struct api_msg*)m;
1124:Source\LwIP\src\api/api_msg.c **** 
1125:Source\LwIP\src\api/api_msg.c ****   if (ERR_IS_FATAL(msg->conn->last_err)) {
1126:Source\LwIP\src\api/api_msg.c ****     msg->err = msg->conn->last_err;
1127:Source\LwIP\src\api/api_msg.c ****   } else {
1128:Source\LwIP\src\api/api_msg.c ****     msg->err = ERR_VAL;
1129:Source\LwIP\src\api/api_msg.c ****     if (msg->conn->pcb.tcp != NULL) {
1130:Source\LwIP\src\api/api_msg.c ****       switch (NETCONNTYPE_GROUP(msg->conn->type)) {
1131:Source\LwIP\src\api/api_msg.c **** #if LWIP_RAW
1132:Source\LwIP\src\api/api_msg.c ****       case NETCONN_RAW:
1133:Source\LwIP\src\api/api_msg.c ****         msg->err = raw_bind(msg->conn->pcb.raw, API_EXPR_REF(msg->msg.bc.ipaddr));
1134:Source\LwIP\src\api/api_msg.c ****         break;
1135:Source\LwIP\src\api/api_msg.c **** #endif /* LWIP_RAW */
1136:Source\LwIP\src\api/api_msg.c **** #if LWIP_UDP
1137:Source\LwIP\src\api/api_msg.c ****       case NETCONN_UDP:
1138:Source\LwIP\src\api/api_msg.c ****         msg->err = udp_bind(msg->conn->pcb.udp, API_EXPR_REF(msg->msg.bc.ipaddr), msg->msg.bc.port)
1139:Source\LwIP\src\api/api_msg.c ****         break;
1140:Source\LwIP\src\api/api_msg.c **** #endif /* LWIP_UDP */
1141:Source\LwIP\src\api/api_msg.c **** #if LWIP_TCP
1142:Source\LwIP\src\api/api_msg.c ****       case NETCONN_TCP:
1143:Source\LwIP\src\api/api_msg.c ****         msg->err = tcp_bind(msg->conn->pcb.tcp, API_EXPR_REF(msg->msg.bc.ipaddr), msg->msg.bc.port)
1144:Source\LwIP\src\api/api_msg.c ****         break;
1145:Source\LwIP\src\api/api_msg.c **** #endif /* LWIP_TCP */
1146:Source\LwIP\src\api/api_msg.c ****       default:
1147:Source\LwIP\src\api/api_msg.c ****         break;
1148:Source\LwIP\src\api/api_msg.c ****       }
1149:Source\LwIP\src\api/api_msg.c ****     }
1150:Source\LwIP\src\api/api_msg.c ****   }
1151:Source\LwIP\src\api/api_msg.c ****   TCPIP_APIMSG_ACK(msg);
1152:Source\LwIP\src\api/api_msg.c **** }
1153:Source\LwIP\src\api/api_msg.c **** 
1154:Source\LwIP\src\api/api_msg.c **** #if LWIP_TCP
1155:Source\LwIP\src\api/api_msg.c **** /**
1156:Source\LwIP\src\api/api_msg.c ****  * TCP callback function if a connection (opened by tcp_connect/lwip_netconn_do_connect) has
1157:Source\LwIP\src\api/api_msg.c ****  * been established (or reset by the remote host).
1158:Source\LwIP\src\api/api_msg.c ****  *
1159:Source\LwIP\src\api/api_msg.c ****  * @see tcp.h (struct tcp_pcb.connected) for parameters and return values
1160:Source\LwIP\src\api/api_msg.c ****  */
1161:Source\LwIP\src\api/api_msg.c **** static err_t
1162:Source\LwIP\src\api/api_msg.c **** lwip_netconn_do_connected(void *arg, struct tcp_pcb *pcb, err_t err)
1163:Source\LwIP\src\api/api_msg.c **** {
1164:Source\LwIP\src\api/api_msg.c ****   struct netconn *conn;
1165:Source\LwIP\src\api/api_msg.c ****   int was_blocking;
1166:Source\LwIP\src\api/api_msg.c ****   sys_sem_t* op_completed_sem = NULL;
1167:Source\LwIP\src\api/api_msg.c **** 
1168:Source\LwIP\src\api/api_msg.c ****   LWIP_UNUSED_ARG(pcb);
1169:Source\LwIP\src\api/api_msg.c **** 
1170:Source\LwIP\src\api/api_msg.c ****   conn = (struct netconn *)arg;
1171:Source\LwIP\src\api/api_msg.c **** 
ARM GAS  C:\Users\Phuong\AppData\Local\Temp\ccTHzCbL.s 			page 22


1172:Source\LwIP\src\api/api_msg.c ****   if (conn == NULL) {
1173:Source\LwIP\src\api/api_msg.c ****     return ERR_VAL;
1174:Source\LwIP\src\api/api_msg.c ****   }
1175:Source\LwIP\src\api/api_msg.c **** 
1176:Source\LwIP\src\api/api_msg.c ****   LWIP_ASSERT("conn->state == NETCONN_CONNECT", conn->state == NETCONN_CONNECT);
1177:Source\LwIP\src\api/api_msg.c ****   LWIP_ASSERT("(conn->current_msg != NULL) || conn->in_non_blocking_connect",
1178:Source\LwIP\src\api/api_msg.c ****     (conn->current_msg != NULL) || IN_NONBLOCKING_CONNECT(conn));
1179:Source\LwIP\src\api/api_msg.c **** 
1180:Source\LwIP\src\api/api_msg.c ****   if (conn->current_msg != NULL) {
1181:Source\LwIP\src\api/api_msg.c ****     conn->current_msg->err = err;
1182:Source\LwIP\src\api/api_msg.c ****     op_completed_sem = LWIP_API_MSG_SEM(conn->current_msg);
1183:Source\LwIP\src\api/api_msg.c ****   }
1184:Source\LwIP\src\api/api_msg.c ****   if ((NETCONNTYPE_GROUP(conn->type) == NETCONN_TCP) && (err == ERR_OK)) {
1185:Source\LwIP\src\api/api_msg.c ****     setup_tcp(conn);
1186:Source\LwIP\src\api/api_msg.c ****   }
1187:Source\LwIP\src\api/api_msg.c ****   was_blocking = !IN_NONBLOCKING_CONNECT(conn);
1188:Source\LwIP\src\api/api_msg.c ****   SET_NONBLOCKING_CONNECT(conn, 0);
1189:Source\LwIP\src\api/api_msg.c ****   LWIP_ASSERT("blocking connect state error",
1190:Source\LwIP\src\api/api_msg.c ****     (was_blocking && op_completed_sem != NULL) ||
1191:Source\LwIP\src\api/api_msg.c ****     (!was_blocking && op_completed_sem == NULL));
1192:Source\LwIP\src\api/api_msg.c ****   conn->current_msg = NULL;
1193:Source\LwIP\src\api/api_msg.c ****   conn->state = NETCONN_NONE;
1194:Source\LwIP\src\api/api_msg.c ****   NETCONN_SET_SAFE_ERR(conn, ERR_OK);
1195:Source\LwIP\src\api/api_msg.c ****   API_EVENT(conn, NETCONN_EVT_SENDPLUS, 0);
1196:Source\LwIP\src\api/api_msg.c **** 
1197:Source\LwIP\src\api/api_msg.c ****   if (was_blocking) {
1198:Source\LwIP\src\api/api_msg.c ****     sys_sem_signal(op_completed_sem);
1199:Source\LwIP\src\api/api_msg.c ****   }
1200:Source\LwIP\src\api/api_msg.c ****   return ERR_OK;
1201:Source\LwIP\src\api/api_msg.c **** }
1202:Source\LwIP\src\api/api_msg.c **** #endif /* LWIP_TCP */
1203:Source\LwIP\src\api/api_msg.c **** 
1204:Source\LwIP\src\api/api_msg.c **** /**
1205:Source\LwIP\src\api/api_msg.c ****  * Connect a pcb contained inside a netconn
1206:Source\LwIP\src\api/api_msg.c ****  * Called from netconn_connect.
1207:Source\LwIP\src\api/api_msg.c ****  *
1208:Source\LwIP\src\api/api_msg.c ****  * @param m the api_msg_msg pointing to the connection and containing
1209:Source\LwIP\src\api/api_msg.c ****  *          the IP address and port to connect to
1210:Source\LwIP\src\api/api_msg.c ****  */
1211:Source\LwIP\src\api/api_msg.c **** void
1212:Source\LwIP\src\api/api_msg.c **** lwip_netconn_do_connect(void *m)
1213:Source\LwIP\src\api/api_msg.c **** {
1214:Source\LwIP\src\api/api_msg.c ****   struct api_msg *msg = (struct api_msg*)m;
1215:Source\LwIP\src\api/api_msg.c **** 
1216:Source\LwIP\src\api/api_msg.c ****   if (msg->conn->pcb.tcp == NULL) {
1217:Source\LwIP\src\api/api_msg.c ****     /* This may happen when calling netconn_connect() a second time */
1218:Source\LwIP\src\api/api_msg.c ****     msg->err = ERR_CLSD;
1219:Source\LwIP\src\api/api_msg.c ****   } else {
1220:Source\LwIP\src\api/api_msg.c ****     switch (NETCONNTYPE_GROUP(msg->conn->type)) {
1221:Source\LwIP\src\api/api_msg.c **** #if LWIP_RAW
1222:Source\LwIP\src\api/api_msg.c ****     case NETCONN_RAW:
1223:Source\LwIP\src\api/api_msg.c ****       msg->err = raw_connect(msg->conn->pcb.raw, API_EXPR_REF(msg->msg.bc.ipaddr));
1224:Source\LwIP\src\api/api_msg.c ****       break;
1225:Source\LwIP\src\api/api_msg.c **** #endif /* LWIP_RAW */
1226:Source\LwIP\src\api/api_msg.c **** #if LWIP_UDP
1227:Source\LwIP\src\api/api_msg.c ****     case NETCONN_UDP:
1228:Source\LwIP\src\api/api_msg.c ****       msg->err = udp_connect(msg->conn->pcb.udp, API_EXPR_REF(msg->msg.bc.ipaddr), msg->msg.bc.port
ARM GAS  C:\Users\Phuong\AppData\Local\Temp\ccTHzCbL.s 			page 23


1229:Source\LwIP\src\api/api_msg.c ****       break;
1230:Source\LwIP\src\api/api_msg.c **** #endif /* LWIP_UDP */
1231:Source\LwIP\src\api/api_msg.c **** #if LWIP_TCP
1232:Source\LwIP\src\api/api_msg.c ****     case NETCONN_TCP:
1233:Source\LwIP\src\api/api_msg.c ****       /* Prevent connect while doing any other action. */
1234:Source\LwIP\src\api/api_msg.c ****       if (msg->conn->state == NETCONN_CONNECT) {
1235:Source\LwIP\src\api/api_msg.c ****         msg->err = ERR_ALREADY;
1236:Source\LwIP\src\api/api_msg.c ****       } else if (msg->conn->state != NETCONN_NONE) {
1237:Source\LwIP\src\api/api_msg.c ****         msg->err = ERR_ISCONN;
1238:Source\LwIP\src\api/api_msg.c ****       } else {
1239:Source\LwIP\src\api/api_msg.c ****         setup_tcp(msg->conn);
1240:Source\LwIP\src\api/api_msg.c ****         msg->err = tcp_connect(msg->conn->pcb.tcp, API_EXPR_REF(msg->msg.bc.ipaddr),
1241:Source\LwIP\src\api/api_msg.c ****           msg->msg.bc.port, lwip_netconn_do_connected);
1242:Source\LwIP\src\api/api_msg.c ****         if (msg->err == ERR_OK) {
1243:Source\LwIP\src\api/api_msg.c ****           u8_t non_blocking = netconn_is_nonblocking(msg->conn);
1244:Source\LwIP\src\api/api_msg.c ****           msg->conn->state = NETCONN_CONNECT;
1245:Source\LwIP\src\api/api_msg.c ****           SET_NONBLOCKING_CONNECT(msg->conn, non_blocking);
1246:Source\LwIP\src\api/api_msg.c ****           if (non_blocking) {
1247:Source\LwIP\src\api/api_msg.c ****             msg->err = ERR_INPROGRESS;
1248:Source\LwIP\src\api/api_msg.c ****           } else {
1249:Source\LwIP\src\api/api_msg.c ****             msg->conn->current_msg = msg;
1250:Source\LwIP\src\api/api_msg.c ****             /* sys_sem_signal() is called from lwip_netconn_do_connected (or err_tcp()),
1251:Source\LwIP\src\api/api_msg.c ****                when the connection is established! */
1252:Source\LwIP\src\api/api_msg.c **** #if LWIP_TCPIP_CORE_LOCKING
1253:Source\LwIP\src\api/api_msg.c ****             LWIP_ASSERT("state!", msg->conn->state == NETCONN_CONNECT);
1254:Source\LwIP\src\api/api_msg.c ****             UNLOCK_TCPIP_CORE();
1255:Source\LwIP\src\api/api_msg.c ****             sys_arch_sem_wait(LWIP_API_MSG_SEM(msg), 0);
1256:Source\LwIP\src\api/api_msg.c ****             LOCK_TCPIP_CORE();
1257:Source\LwIP\src\api/api_msg.c ****             LWIP_ASSERT("state!", msg->conn->state != NETCONN_CONNECT);
1258:Source\LwIP\src\api/api_msg.c **** #endif /* LWIP_TCPIP_CORE_LOCKING */
1259:Source\LwIP\src\api/api_msg.c ****             return;
1260:Source\LwIP\src\api/api_msg.c ****           }
1261:Source\LwIP\src\api/api_msg.c ****         }
1262:Source\LwIP\src\api/api_msg.c ****       }
1263:Source\LwIP\src\api/api_msg.c ****       break;
1264:Source\LwIP\src\api/api_msg.c **** #endif /* LWIP_TCP */
1265:Source\LwIP\src\api/api_msg.c ****     default:
1266:Source\LwIP\src\api/api_msg.c ****       LWIP_ERROR("Invalid netconn type", 0, do{ msg->err = ERR_VAL; }while(0));
1267:Source\LwIP\src\api/api_msg.c ****       break;
1268:Source\LwIP\src\api/api_msg.c ****     }
1269:Source\LwIP\src\api/api_msg.c ****   }
1270:Source\LwIP\src\api/api_msg.c ****   /* For all other protocols, netconn_connect() calls TCPIP_APIMSG(),
1271:Source\LwIP\src\api/api_msg.c ****      so use TCPIP_APIMSG_ACK() here. */
1272:Source\LwIP\src\api/api_msg.c ****   TCPIP_APIMSG_ACK(msg);
1273:Source\LwIP\src\api/api_msg.c **** }
1274:Source\LwIP\src\api/api_msg.c **** 
1275:Source\LwIP\src\api/api_msg.c **** /**
1276:Source\LwIP\src\api/api_msg.c ****  * Disconnect a pcb contained inside a netconn
1277:Source\LwIP\src\api/api_msg.c ****  * Only used for UDP netconns.
1278:Source\LwIP\src\api/api_msg.c ****  * Called from netconn_disconnect.
1279:Source\LwIP\src\api/api_msg.c ****  *
1280:Source\LwIP\src\api/api_msg.c ****  * @param m the api_msg_msg pointing to the connection to disconnect
1281:Source\LwIP\src\api/api_msg.c ****  */
1282:Source\LwIP\src\api/api_msg.c **** void
1283:Source\LwIP\src\api/api_msg.c **** lwip_netconn_do_disconnect(void *m)
1284:Source\LwIP\src\api/api_msg.c **** {
1285:Source\LwIP\src\api/api_msg.c ****   struct api_msg *msg = (struct api_msg*)m;
ARM GAS  C:\Users\Phuong\AppData\Local\Temp\ccTHzCbL.s 			page 24


1286:Source\LwIP\src\api/api_msg.c **** 
1287:Source\LwIP\src\api/api_msg.c **** #if LWIP_UDP
1288:Source\LwIP\src\api/api_msg.c ****   if (NETCONNTYPE_GROUP(msg->conn->type) == NETCONN_UDP) {
1289:Source\LwIP\src\api/api_msg.c ****     udp_disconnect(msg->conn->pcb.udp);
1290:Source\LwIP\src\api/api_msg.c ****     msg->err = ERR_OK;
1291:Source\LwIP\src\api/api_msg.c ****   } else
1292:Source\LwIP\src\api/api_msg.c **** #endif /* LWIP_UDP */
1293:Source\LwIP\src\api/api_msg.c ****   {
1294:Source\LwIP\src\api/api_msg.c ****     msg->err = ERR_VAL;
1295:Source\LwIP\src\api/api_msg.c ****   }
1296:Source\LwIP\src\api/api_msg.c ****   TCPIP_APIMSG_ACK(msg);
1297:Source\LwIP\src\api/api_msg.c **** }
1298:Source\LwIP\src\api/api_msg.c **** 
1299:Source\LwIP\src\api/api_msg.c **** #if LWIP_TCP
1300:Source\LwIP\src\api/api_msg.c **** /**
1301:Source\LwIP\src\api/api_msg.c ****  * Set a TCP pcb contained in a netconn into listen mode
1302:Source\LwIP\src\api/api_msg.c ****  * Called from netconn_listen.
1303:Source\LwIP\src\api/api_msg.c ****  *
1304:Source\LwIP\src\api/api_msg.c ****  * @param m the api_msg_msg pointing to the connection
1305:Source\LwIP\src\api/api_msg.c ****  */
1306:Source\LwIP\src\api/api_msg.c **** void
1307:Source\LwIP\src\api/api_msg.c **** lwip_netconn_do_listen(void *m)
1308:Source\LwIP\src\api/api_msg.c **** {
1309:Source\LwIP\src\api/api_msg.c ****   struct api_msg *msg = (struct api_msg*)m;
1310:Source\LwIP\src\api/api_msg.c **** 
1311:Source\LwIP\src\api/api_msg.c ****   if (ERR_IS_FATAL(msg->conn->last_err)) {
1312:Source\LwIP\src\api/api_msg.c ****     msg->err = msg->conn->last_err;
1313:Source\LwIP\src\api/api_msg.c ****   } else {
1314:Source\LwIP\src\api/api_msg.c ****     msg->err = ERR_CONN;
1315:Source\LwIP\src\api/api_msg.c ****     if (msg->conn->pcb.tcp != NULL) {
1316:Source\LwIP\src\api/api_msg.c ****       if (NETCONNTYPE_GROUP(msg->conn->type) == NETCONN_TCP) {
1317:Source\LwIP\src\api/api_msg.c ****         if (msg->conn->state == NETCONN_NONE) {
1318:Source\LwIP\src\api/api_msg.c ****           struct tcp_pcb* lpcb;
1319:Source\LwIP\src\api/api_msg.c ****           if (msg->conn->pcb.tcp->state != CLOSED) {
1320:Source\LwIP\src\api/api_msg.c ****             /* connection is not closed, cannot listen */
1321:Source\LwIP\src\api/api_msg.c ****             msg->err = ERR_VAL;
1322:Source\LwIP\src\api/api_msg.c ****           } else {
1323:Source\LwIP\src\api/api_msg.c ****             err_t err;
1324:Source\LwIP\src\api/api_msg.c ****             u8_t backlog;
1325:Source\LwIP\src\api/api_msg.c **** #if TCP_LISTEN_BACKLOG
1326:Source\LwIP\src\api/api_msg.c ****             backlog = msg->msg.lb.backlog;
1327:Source\LwIP\src\api/api_msg.c **** #else  /* TCP_LISTEN_BACKLOG */
1328:Source\LwIP\src\api/api_msg.c ****             backlog = TCP_DEFAULT_LISTEN_BACKLOG;
1329:Source\LwIP\src\api/api_msg.c **** #endif /* TCP_LISTEN_BACKLOG */
1330:Source\LwIP\src\api/api_msg.c **** #if LWIP_IPV4 && LWIP_IPV6
1331:Source\LwIP\src\api/api_msg.c ****             /* "Socket API like" dual-stack support: If IP to listen to is IP6_ADDR_ANY,
1332:Source\LwIP\src\api/api_msg.c ****              * and NETCONN_FLAG_IPV6_V6ONLY is NOT set, use IP_ANY_TYPE to listen
1333:Source\LwIP\src\api/api_msg.c ****              */
1334:Source\LwIP\src\api/api_msg.c ****             if (ip_addr_cmp(&msg->conn->pcb.ip->local_ip, IP6_ADDR_ANY) &&
1335:Source\LwIP\src\api/api_msg.c ****                 (netconn_get_ipv6only(msg->conn) == 0)) {
1336:Source\LwIP\src\api/api_msg.c ****               /* change PCB type to IPADDR_TYPE_ANY */
1337:Source\LwIP\src\api/api_msg.c ****               IP_SET_TYPE_VAL(msg->conn->pcb.tcp->local_ip,  IPADDR_TYPE_ANY);
1338:Source\LwIP\src\api/api_msg.c ****               IP_SET_TYPE_VAL(msg->conn->pcb.tcp->remote_ip, IPADDR_TYPE_ANY);
1339:Source\LwIP\src\api/api_msg.c ****             }
1340:Source\LwIP\src\api/api_msg.c **** #endif /* LWIP_IPV4 && LWIP_IPV6 */
1341:Source\LwIP\src\api/api_msg.c **** 
1342:Source\LwIP\src\api/api_msg.c ****             lpcb = tcp_listen_with_backlog_and_err(msg->conn->pcb.tcp, backlog, &err);
ARM GAS  C:\Users\Phuong\AppData\Local\Temp\ccTHzCbL.s 			page 25


1343:Source\LwIP\src\api/api_msg.c **** 
1344:Source\LwIP\src\api/api_msg.c ****             if (lpcb == NULL) {
1345:Source\LwIP\src\api/api_msg.c ****               /* in this case, the old pcb is still allocated */
1346:Source\LwIP\src\api/api_msg.c ****               msg->err = err;
1347:Source\LwIP\src\api/api_msg.c ****             } else {
1348:Source\LwIP\src\api/api_msg.c ****               /* delete the recvmbox and allocate the acceptmbox */
1349:Source\LwIP\src\api/api_msg.c ****               if (sys_mbox_valid(&msg->conn->recvmbox)) {
1350:Source\LwIP\src\api/api_msg.c ****                 /** @todo: should we drain the recvmbox here? */
1351:Source\LwIP\src\api/api_msg.c ****                 sys_mbox_free(&msg->conn->recvmbox);
1352:Source\LwIP\src\api/api_msg.c ****                 sys_mbox_set_invalid(&msg->conn->recvmbox);
1353:Source\LwIP\src\api/api_msg.c ****               }
1354:Source\LwIP\src\api/api_msg.c ****               msg->err = ERR_OK;
1355:Source\LwIP\src\api/api_msg.c ****               if (!sys_mbox_valid(&msg->conn->acceptmbox)) {
1356:Source\LwIP\src\api/api_msg.c ****                 msg->err = sys_mbox_new(&msg->conn->acceptmbox, DEFAULT_ACCEPTMBOX_SIZE);
1357:Source\LwIP\src\api/api_msg.c ****               }
1358:Source\LwIP\src\api/api_msg.c ****               if (msg->err == ERR_OK) {
1359:Source\LwIP\src\api/api_msg.c ****                 msg->conn->state = NETCONN_LISTEN;
1360:Source\LwIP\src\api/api_msg.c ****                 msg->conn->pcb.tcp = lpcb;
1361:Source\LwIP\src\api/api_msg.c ****                 tcp_arg(msg->conn->pcb.tcp, msg->conn);
1362:Source\LwIP\src\api/api_msg.c ****                 tcp_accept(msg->conn->pcb.tcp, accept_function);
1363:Source\LwIP\src\api/api_msg.c ****               } else {
1364:Source\LwIP\src\api/api_msg.c ****                 /* since the old pcb is already deallocated, free lpcb now */
1365:Source\LwIP\src\api/api_msg.c ****                 tcp_close(lpcb);
1366:Source\LwIP\src\api/api_msg.c ****                 msg->conn->pcb.tcp = NULL;
1367:Source\LwIP\src\api/api_msg.c ****               }
1368:Source\LwIP\src\api/api_msg.c ****             }
1369:Source\LwIP\src\api/api_msg.c ****           }
1370:Source\LwIP\src\api/api_msg.c ****         } else if (msg->conn->state == NETCONN_LISTEN) {
1371:Source\LwIP\src\api/api_msg.c ****           /* already listening, allow updating of the backlog */
1372:Source\LwIP\src\api/api_msg.c ****           msg->err = ERR_OK;
1373:Source\LwIP\src\api/api_msg.c ****           tcp_backlog_set(msg->conn->pcb.tcp, msg->msg.lb.backlog);
1374:Source\LwIP\src\api/api_msg.c ****         }
1375:Source\LwIP\src\api/api_msg.c ****       } else {
1376:Source\LwIP\src\api/api_msg.c ****         msg->err = ERR_ARG;
1377:Source\LwIP\src\api/api_msg.c ****       }
1378:Source\LwIP\src\api/api_msg.c ****     }
1379:Source\LwIP\src\api/api_msg.c ****   }
1380:Source\LwIP\src\api/api_msg.c ****   TCPIP_APIMSG_ACK(msg);
1381:Source\LwIP\src\api/api_msg.c **** }
1382:Source\LwIP\src\api/api_msg.c **** #endif /* LWIP_TCP */
1383:Source\LwIP\src\api/api_msg.c **** 
1384:Source\LwIP\src\api/api_msg.c **** /**
1385:Source\LwIP\src\api/api_msg.c ****  * Send some data on a RAW or UDP pcb contained in a netconn
1386:Source\LwIP\src\api/api_msg.c ****  * Called from netconn_send
1387:Source\LwIP\src\api/api_msg.c ****  *
1388:Source\LwIP\src\api/api_msg.c ****  * @param m the api_msg_msg pointing to the connection
1389:Source\LwIP\src\api/api_msg.c ****  */
1390:Source\LwIP\src\api/api_msg.c **** void
1391:Source\LwIP\src\api/api_msg.c **** lwip_netconn_do_send(void *m)
1392:Source\LwIP\src\api/api_msg.c **** {
1393:Source\LwIP\src\api/api_msg.c ****   struct api_msg *msg = (struct api_msg*)m;
1394:Source\LwIP\src\api/api_msg.c **** 
1395:Source\LwIP\src\api/api_msg.c ****   if (ERR_IS_FATAL(msg->conn->last_err)) {
1396:Source\LwIP\src\api/api_msg.c ****     msg->err = msg->conn->last_err;
1397:Source\LwIP\src\api/api_msg.c ****   } else {
1398:Source\LwIP\src\api/api_msg.c ****     msg->err = ERR_CONN;
1399:Source\LwIP\src\api/api_msg.c ****     if (msg->conn->pcb.tcp != NULL) {
ARM GAS  C:\Users\Phuong\AppData\Local\Temp\ccTHzCbL.s 			page 26


1400:Source\LwIP\src\api/api_msg.c ****       switch (NETCONNTYPE_GROUP(msg->conn->type)) {
1401:Source\LwIP\src\api/api_msg.c **** #if LWIP_RAW
1402:Source\LwIP\src\api/api_msg.c ****       case NETCONN_RAW:
1403:Source\LwIP\src\api/api_msg.c ****         if (ip_addr_isany(&msg->msg.b->addr) || IP_IS_ANY_TYPE_VAL(msg->msg.b->addr)) {
1404:Source\LwIP\src\api/api_msg.c ****           msg->err = raw_send(msg->conn->pcb.raw, msg->msg.b->p);
1405:Source\LwIP\src\api/api_msg.c ****         } else {
1406:Source\LwIP\src\api/api_msg.c ****           msg->err = raw_sendto(msg->conn->pcb.raw, msg->msg.b->p, &msg->msg.b->addr);
1407:Source\LwIP\src\api/api_msg.c ****         }
1408:Source\LwIP\src\api/api_msg.c ****         break;
1409:Source\LwIP\src\api/api_msg.c **** #endif
1410:Source\LwIP\src\api/api_msg.c **** #if LWIP_UDP
1411:Source\LwIP\src\api/api_msg.c ****       case NETCONN_UDP:
1412:Source\LwIP\src\api/api_msg.c **** #if LWIP_CHECKSUM_ON_COPY
1413:Source\LwIP\src\api/api_msg.c ****         if (ip_addr_isany(&msg->msg.b->addr) || IP_IS_ANY_TYPE_VAL(msg->msg.b->addr)) {
1414:Source\LwIP\src\api/api_msg.c ****           msg->err = udp_send_chksum(msg->conn->pcb.udp, msg->msg.b->p,
1415:Source\LwIP\src\api/api_msg.c ****             msg->msg.b->flags & NETBUF_FLAG_CHKSUM, msg->msg.b->toport_chksum);
1416:Source\LwIP\src\api/api_msg.c ****         } else {
1417:Source\LwIP\src\api/api_msg.c ****           msg->err = udp_sendto_chksum(msg->conn->pcb.udp, msg->msg.b->p,
1418:Source\LwIP\src\api/api_msg.c ****             &msg->msg.b->addr, msg->msg.b->port,
1419:Source\LwIP\src\api/api_msg.c ****             msg->msg.b->flags & NETBUF_FLAG_CHKSUM, msg->msg.b->toport_chksum);
1420:Source\LwIP\src\api/api_msg.c ****         }
1421:Source\LwIP\src\api/api_msg.c **** #else /* LWIP_CHECKSUM_ON_COPY */
1422:Source\LwIP\src\api/api_msg.c ****         if (ip_addr_isany_val(msg->msg.b->addr) || IP_IS_ANY_TYPE_VAL(msg->msg.b->addr)) {
1423:Source\LwIP\src\api/api_msg.c ****           msg->err = udp_send(msg->conn->pcb.udp, msg->msg.b->p);
1424:Source\LwIP\src\api/api_msg.c ****         } else {
1425:Source\LwIP\src\api/api_msg.c ****           msg->err = udp_sendto(msg->conn->pcb.udp, msg->msg.b->p, &msg->msg.b->addr, msg->msg.b->p
1426:Source\LwIP\src\api/api_msg.c ****         }
1427:Source\LwIP\src\api/api_msg.c **** #endif /* LWIP_CHECKSUM_ON_COPY */
1428:Source\LwIP\src\api/api_msg.c ****         break;
1429:Source\LwIP\src\api/api_msg.c **** #endif /* LWIP_UDP */
1430:Source\LwIP\src\api/api_msg.c ****       default:
1431:Source\LwIP\src\api/api_msg.c ****         break;
1432:Source\LwIP\src\api/api_msg.c ****       }
1433:Source\LwIP\src\api/api_msg.c ****     }
1434:Source\LwIP\src\api/api_msg.c ****   }
1435:Source\LwIP\src\api/api_msg.c ****   TCPIP_APIMSG_ACK(msg);
1436:Source\LwIP\src\api/api_msg.c **** }
1437:Source\LwIP\src\api/api_msg.c **** 
1438:Source\LwIP\src\api/api_msg.c **** #if LWIP_TCP
1439:Source\LwIP\src\api/api_msg.c **** /**
1440:Source\LwIP\src\api/api_msg.c ****  * Indicate data has been received from a TCP pcb contained in a netconn
1441:Source\LwIP\src\api/api_msg.c ****  * Called from netconn_recv
1442:Source\LwIP\src\api/api_msg.c ****  *
1443:Source\LwIP\src\api/api_msg.c ****  * @param m the api_msg_msg pointing to the connection
1444:Source\LwIP\src\api/api_msg.c ****  */
1445:Source\LwIP\src\api/api_msg.c **** void
1446:Source\LwIP\src\api/api_msg.c **** lwip_netconn_do_recv(void *m)
1447:Source\LwIP\src\api/api_msg.c **** {
1448:Source\LwIP\src\api/api_msg.c ****   struct api_msg *msg = (struct api_msg*)m;
1449:Source\LwIP\src\api/api_msg.c **** 
1450:Source\LwIP\src\api/api_msg.c ****   msg->err = ERR_OK;
1451:Source\LwIP\src\api/api_msg.c ****   if (msg->conn->pcb.tcp != NULL) {
1452:Source\LwIP\src\api/api_msg.c ****     if (NETCONNTYPE_GROUP(msg->conn->type) == NETCONN_TCP) {
1453:Source\LwIP\src\api/api_msg.c ****       u32_t remaining = msg->msg.r.len;
1454:Source\LwIP\src\api/api_msg.c ****       do {
1455:Source\LwIP\src\api/api_msg.c ****         u16_t recved = (remaining > 0xffff) ? 0xffff : (u16_t)remaining;
1456:Source\LwIP\src\api/api_msg.c ****         tcp_recved(msg->conn->pcb.tcp, recved);
ARM GAS  C:\Users\Phuong\AppData\Local\Temp\ccTHzCbL.s 			page 27


1457:Source\LwIP\src\api/api_msg.c ****         remaining -= recved;
1458:Source\LwIP\src\api/api_msg.c ****       } while (remaining != 0);
1459:Source\LwIP\src\api/api_msg.c ****     }
1460:Source\LwIP\src\api/api_msg.c ****   }
1461:Source\LwIP\src\api/api_msg.c ****   TCPIP_APIMSG_ACK(msg);
1462:Source\LwIP\src\api/api_msg.c **** }
1463:Source\LwIP\src\api/api_msg.c **** 
1464:Source\LwIP\src\api/api_msg.c **** #if TCP_LISTEN_BACKLOG
1465:Source\LwIP\src\api/api_msg.c **** /** Indicate that a TCP pcb has been accepted
1466:Source\LwIP\src\api/api_msg.c ****  * Called from netconn_accept
1467:Source\LwIP\src\api/api_msg.c ****  *
1468:Source\LwIP\src\api/api_msg.c ****  * @param m the api_msg_msg pointing to the connection
1469:Source\LwIP\src\api/api_msg.c ****  */
1470:Source\LwIP\src\api/api_msg.c **** void
1471:Source\LwIP\src\api/api_msg.c **** lwip_netconn_do_accepted(void *m)
1472:Source\LwIP\src\api/api_msg.c **** {
1473:Source\LwIP\src\api/api_msg.c ****   struct api_msg *msg = (struct api_msg*)m;
1474:Source\LwIP\src\api/api_msg.c **** 
1475:Source\LwIP\src\api/api_msg.c ****   msg->err = ERR_OK;
1476:Source\LwIP\src\api/api_msg.c ****   if (msg->conn->pcb.tcp != NULL) {
1477:Source\LwIP\src\api/api_msg.c ****     if (NETCONNTYPE_GROUP(msg->conn->type) == NETCONN_TCP) {
1478:Source\LwIP\src\api/api_msg.c ****       tcp_backlog_accepted(msg->conn->pcb.tcp);
1479:Source\LwIP\src\api/api_msg.c ****     }
1480:Source\LwIP\src\api/api_msg.c ****   }
1481:Source\LwIP\src\api/api_msg.c ****   TCPIP_APIMSG_ACK(msg);
1482:Source\LwIP\src\api/api_msg.c **** }
1483:Source\LwIP\src\api/api_msg.c **** #endif /* TCP_LISTEN_BACKLOG */
1484:Source\LwIP\src\api/api_msg.c **** 
1485:Source\LwIP\src\api/api_msg.c **** /**
1486:Source\LwIP\src\api/api_msg.c ****  * See if more data needs to be written from a previous call to netconn_write.
1487:Source\LwIP\src\api/api_msg.c ****  * Called initially from lwip_netconn_do_write. If the first call can't send all data
1488:Source\LwIP\src\api/api_msg.c ****  * (because of low memory or empty send-buffer), this function is called again
1489:Source\LwIP\src\api/api_msg.c ****  * from sent_tcp() or poll_tcp() to send more data. If all data is sent, the
1490:Source\LwIP\src\api/api_msg.c ****  * blocking application thread (waiting in netconn_write) is released.
1491:Source\LwIP\src\api/api_msg.c ****  *
1492:Source\LwIP\src\api/api_msg.c ****  * @param conn netconn (that is currently in state NETCONN_WRITE) to process
1493:Source\LwIP\src\api/api_msg.c ****  * @return ERR_OK
1494:Source\LwIP\src\api/api_msg.c ****  *         ERR_MEM if LWIP_TCPIP_CORE_LOCKING=1 and sending hasn't yet finished
1495:Source\LwIP\src\api/api_msg.c ****  */
1496:Source\LwIP\src\api/api_msg.c **** static err_t
1497:Source\LwIP\src\api/api_msg.c **** lwip_netconn_do_writemore(struct netconn *conn  WRITE_DELAYED_PARAM)
1498:Source\LwIP\src\api/api_msg.c **** {
1499:Source\LwIP\src\api/api_msg.c ****   err_t err;
1500:Source\LwIP\src\api/api_msg.c ****   const void *dataptr;
1501:Source\LwIP\src\api/api_msg.c ****   u16_t len, available;
1502:Source\LwIP\src\api/api_msg.c ****   u8_t write_finished = 0;
1503:Source\LwIP\src\api/api_msg.c ****   size_t diff;
1504:Source\LwIP\src\api/api_msg.c ****   u8_t dontblock;
1505:Source\LwIP\src\api/api_msg.c ****   u8_t apiflags;
1506:Source\LwIP\src\api/api_msg.c **** 
1507:Source\LwIP\src\api/api_msg.c ****   LWIP_ASSERT("conn != NULL", conn != NULL);
1508:Source\LwIP\src\api/api_msg.c ****   LWIP_ASSERT("conn->state == NETCONN_WRITE", (conn->state == NETCONN_WRITE));
1509:Source\LwIP\src\api/api_msg.c ****   LWIP_ASSERT("conn->current_msg != NULL", conn->current_msg != NULL);
1510:Source\LwIP\src\api/api_msg.c ****   LWIP_ASSERT("conn->pcb.tcp != NULL", conn->pcb.tcp != NULL);
1511:Source\LwIP\src\api/api_msg.c ****   LWIP_ASSERT("conn->write_offset < conn->current_msg->msg.w.len",
1512:Source\LwIP\src\api/api_msg.c ****     conn->write_offset < conn->current_msg->msg.w.len);
1513:Source\LwIP\src\api/api_msg.c **** 
ARM GAS  C:\Users\Phuong\AppData\Local\Temp\ccTHzCbL.s 			page 28


1514:Source\LwIP\src\api/api_msg.c ****   apiflags = conn->current_msg->msg.w.apiflags;
1515:Source\LwIP\src\api/api_msg.c ****   dontblock = netconn_is_nonblocking(conn) || (apiflags & NETCONN_DONTBLOCK);
1516:Source\LwIP\src\api/api_msg.c **** 
1517:Source\LwIP\src\api/api_msg.c **** #if LWIP_SO_SNDTIMEO
1518:Source\LwIP\src\api/api_msg.c ****   if ((conn->send_timeout != 0) &&
1519:Source\LwIP\src\api/api_msg.c ****       ((s32_t)(sys_now() - conn->current_msg->msg.w.time_started) >= conn->send_timeout)) {
1520:Source\LwIP\src\api/api_msg.c ****     write_finished = 1;
1521:Source\LwIP\src\api/api_msg.c ****     if (conn->write_offset == 0) {
1522:Source\LwIP\src\api/api_msg.c ****       /* nothing has been written */
1523:Source\LwIP\src\api/api_msg.c ****       err = ERR_WOULDBLOCK;
1524:Source\LwIP\src\api/api_msg.c ****       conn->current_msg->msg.w.len = 0;
1525:Source\LwIP\src\api/api_msg.c ****     } else {
1526:Source\LwIP\src\api/api_msg.c ****       /* partial write */
1527:Source\LwIP\src\api/api_msg.c ****       err = ERR_OK;
1528:Source\LwIP\src\api/api_msg.c ****       conn->current_msg->msg.w.len = conn->write_offset;
1529:Source\LwIP\src\api/api_msg.c ****       conn->write_offset = 0;
1530:Source\LwIP\src\api/api_msg.c ****     }
1531:Source\LwIP\src\api/api_msg.c ****   } else
1532:Source\LwIP\src\api/api_msg.c **** #endif /* LWIP_SO_SNDTIMEO */
1533:Source\LwIP\src\api/api_msg.c ****   {
1534:Source\LwIP\src\api/api_msg.c ****     dataptr = (const u8_t*)conn->current_msg->msg.w.dataptr + conn->write_offset;
1535:Source\LwIP\src\api/api_msg.c ****     diff = conn->current_msg->msg.w.len - conn->write_offset;
1536:Source\LwIP\src\api/api_msg.c ****     if (diff > 0xffffUL) { /* max_u16_t */
1537:Source\LwIP\src\api/api_msg.c ****       len = 0xffff;
1538:Source\LwIP\src\api/api_msg.c ****       apiflags |= TCP_WRITE_FLAG_MORE;
1539:Source\LwIP\src\api/api_msg.c ****     } else {
1540:Source\LwIP\src\api/api_msg.c ****       len = (u16_t)diff;
1541:Source\LwIP\src\api/api_msg.c ****     }
1542:Source\LwIP\src\api/api_msg.c ****     available = tcp_sndbuf(conn->pcb.tcp);
1543:Source\LwIP\src\api/api_msg.c ****     if (available < len) {
1544:Source\LwIP\src\api/api_msg.c ****       /* don't try to write more than sendbuf */
1545:Source\LwIP\src\api/api_msg.c ****       len = available;
1546:Source\LwIP\src\api/api_msg.c ****       if (dontblock) {
1547:Source\LwIP\src\api/api_msg.c ****         if (!len) {
1548:Source\LwIP\src\api/api_msg.c ****           err = ERR_WOULDBLOCK;
1549:Source\LwIP\src\api/api_msg.c ****           goto err_mem;
1550:Source\LwIP\src\api/api_msg.c ****         }
1551:Source\LwIP\src\api/api_msg.c ****       } else {
1552:Source\LwIP\src\api/api_msg.c ****         apiflags |= TCP_WRITE_FLAG_MORE;
1553:Source\LwIP\src\api/api_msg.c ****       }
1554:Source\LwIP\src\api/api_msg.c ****     }
1555:Source\LwIP\src\api/api_msg.c ****     LWIP_ASSERT("lwip_netconn_do_writemore: invalid length!", ((conn->write_offset + len) <= conn->
1556:Source\LwIP\src\api/api_msg.c ****     err = tcp_write(conn->pcb.tcp, dataptr, len, apiflags);
1557:Source\LwIP\src\api/api_msg.c ****     /* if OK or memory error, check available space */
1558:Source\LwIP\src\api/api_msg.c ****     if ((err == ERR_OK) || (err == ERR_MEM)) {
1559:Source\LwIP\src\api/api_msg.c **** err_mem:
1560:Source\LwIP\src\api/api_msg.c ****       if (dontblock && (len < conn->current_msg->msg.w.len)) {
1561:Source\LwIP\src\api/api_msg.c ****         /* non-blocking write did not write everything: mark the pcb non-writable
1562:Source\LwIP\src\api/api_msg.c ****            and let poll_tcp check writable space to mark the pcb writable again */
1563:Source\LwIP\src\api/api_msg.c ****         API_EVENT(conn, NETCONN_EVT_SENDMINUS, len);
1564:Source\LwIP\src\api/api_msg.c ****         conn->flags |= NETCONN_FLAG_CHECK_WRITESPACE;
1565:Source\LwIP\src\api/api_msg.c ****       } else if ((tcp_sndbuf(conn->pcb.tcp) <= TCP_SNDLOWAT) ||
1566:Source\LwIP\src\api/api_msg.c ****                  (tcp_sndqueuelen(conn->pcb.tcp) >= TCP_SNDQUEUELOWAT)) {
1567:Source\LwIP\src\api/api_msg.c ****         /* The queued byte- or pbuf-count exceeds the configured low-water limit,
1568:Source\LwIP\src\api/api_msg.c ****            let select mark this pcb as non-writable. */
1569:Source\LwIP\src\api/api_msg.c ****         API_EVENT(conn, NETCONN_EVT_SENDMINUS, len);
1570:Source\LwIP\src\api/api_msg.c ****       }
ARM GAS  C:\Users\Phuong\AppData\Local\Temp\ccTHzCbL.s 			page 29


1571:Source\LwIP\src\api/api_msg.c ****     }
1572:Source\LwIP\src\api/api_msg.c **** 
1573:Source\LwIP\src\api/api_msg.c ****     if (err == ERR_OK) {
1574:Source\LwIP\src\api/api_msg.c ****       err_t out_err;
1575:Source\LwIP\src\api/api_msg.c ****       conn->write_offset += len;
1576:Source\LwIP\src\api/api_msg.c ****       if ((conn->write_offset == conn->current_msg->msg.w.len) || dontblock) {
1577:Source\LwIP\src\api/api_msg.c ****         /* return sent length */
1578:Source\LwIP\src\api/api_msg.c ****         conn->current_msg->msg.w.len = conn->write_offset;
1579:Source\LwIP\src\api/api_msg.c ****         /* everything was written */
1580:Source\LwIP\src\api/api_msg.c ****         write_finished = 1;
1581:Source\LwIP\src\api/api_msg.c ****       }
1582:Source\LwIP\src\api/api_msg.c ****       out_err = tcp_output(conn->pcb.tcp);
1583:Source\LwIP\src\api/api_msg.c ****       if (ERR_IS_FATAL(out_err) || (out_err == ERR_RTE)) {
1584:Source\LwIP\src\api/api_msg.c ****         /* If tcp_output fails with fatal error or no route is found,
1585:Source\LwIP\src\api/api_msg.c ****            don't try writing any more but return the error
1586:Source\LwIP\src\api/api_msg.c ****            to the application thread. */
1587:Source\LwIP\src\api/api_msg.c ****         err = out_err;
1588:Source\LwIP\src\api/api_msg.c ****         write_finished = 1;
1589:Source\LwIP\src\api/api_msg.c ****         conn->current_msg->msg.w.len = 0;
1590:Source\LwIP\src\api/api_msg.c ****       }
1591:Source\LwIP\src\api/api_msg.c ****     } else if (err == ERR_MEM) {
1592:Source\LwIP\src\api/api_msg.c ****       /* If ERR_MEM, we wait for sent_tcp or poll_tcp to be called.
1593:Source\LwIP\src\api/api_msg.c ****          For blocking sockets, we do NOT return to the application
1594:Source\LwIP\src\api/api_msg.c ****          thread, since ERR_MEM is only a temporary error! Non-blocking
1595:Source\LwIP\src\api/api_msg.c ****          will remain non-writable until sent_tcp/poll_tcp is called */
1596:Source\LwIP\src\api/api_msg.c **** 
1597:Source\LwIP\src\api/api_msg.c ****       /* tcp_write returned ERR_MEM, try tcp_output anyway */
1598:Source\LwIP\src\api/api_msg.c ****       err_t out_err = tcp_output(conn->pcb.tcp);
1599:Source\LwIP\src\api/api_msg.c ****       if (ERR_IS_FATAL(out_err) || (out_err == ERR_RTE)) {
1600:Source\LwIP\src\api/api_msg.c ****         /* If tcp_output fails with fatal error or no route is found,
1601:Source\LwIP\src\api/api_msg.c ****            don't try writing any more but return the error
1602:Source\LwIP\src\api/api_msg.c ****            to the application thread. */
1603:Source\LwIP\src\api/api_msg.c ****         err = out_err;
1604:Source\LwIP\src\api/api_msg.c ****         write_finished = 1;
1605:Source\LwIP\src\api/api_msg.c ****         conn->current_msg->msg.w.len = 0;
1606:Source\LwIP\src\api/api_msg.c ****       } else if (dontblock) {
1607:Source\LwIP\src\api/api_msg.c ****         /* non-blocking write is done on ERR_MEM */
1608:Source\LwIP\src\api/api_msg.c ****         err = ERR_WOULDBLOCK;
1609:Source\LwIP\src\api/api_msg.c ****         write_finished = 1;
1610:Source\LwIP\src\api/api_msg.c ****         conn->current_msg->msg.w.len = 0;
1611:Source\LwIP\src\api/api_msg.c ****       }
1612:Source\LwIP\src\api/api_msg.c ****     } else {
1613:Source\LwIP\src\api/api_msg.c ****       /* On errors != ERR_MEM, we don't try writing any more but return
1614:Source\LwIP\src\api/api_msg.c ****          the error to the application thread. */
1615:Source\LwIP\src\api/api_msg.c ****       write_finished = 1;
1616:Source\LwIP\src\api/api_msg.c ****       conn->current_msg->msg.w.len = 0;
1617:Source\LwIP\src\api/api_msg.c ****     }
1618:Source\LwIP\src\api/api_msg.c ****   }
1619:Source\LwIP\src\api/api_msg.c ****   if (write_finished) {
1620:Source\LwIP\src\api/api_msg.c ****     /* everything was written: set back connection state
1621:Source\LwIP\src\api/api_msg.c ****        and back to application task */
1622:Source\LwIP\src\api/api_msg.c ****     sys_sem_t* op_completed_sem = LWIP_API_MSG_SEM(conn->current_msg);
1623:Source\LwIP\src\api/api_msg.c ****     conn->current_msg->err = err;
1624:Source\LwIP\src\api/api_msg.c ****     conn->current_msg = NULL;
1625:Source\LwIP\src\api/api_msg.c ****     conn->write_offset = 0;
1626:Source\LwIP\src\api/api_msg.c ****     conn->state = NETCONN_NONE;
1627:Source\LwIP\src\api/api_msg.c ****     NETCONN_SET_SAFE_ERR(conn, err);
ARM GAS  C:\Users\Phuong\AppData\Local\Temp\ccTHzCbL.s 			page 30


1628:Source\LwIP\src\api/api_msg.c **** #if LWIP_TCPIP_CORE_LOCKING
1629:Source\LwIP\src\api/api_msg.c ****     if (delayed)
1630:Source\LwIP\src\api/api_msg.c **** #endif
1631:Source\LwIP\src\api/api_msg.c ****     {
1632:Source\LwIP\src\api/api_msg.c ****       sys_sem_signal(op_completed_sem);
1633:Source\LwIP\src\api/api_msg.c ****     }
1634:Source\LwIP\src\api/api_msg.c ****   }
1635:Source\LwIP\src\api/api_msg.c **** #if LWIP_TCPIP_CORE_LOCKING
1636:Source\LwIP\src\api/api_msg.c ****   else {
1637:Source\LwIP\src\api/api_msg.c ****     return ERR_MEM;
1638:Source\LwIP\src\api/api_msg.c ****   }
1639:Source\LwIP\src\api/api_msg.c **** #endif
1640:Source\LwIP\src\api/api_msg.c ****   return ERR_OK;
1641:Source\LwIP\src\api/api_msg.c **** }
1642:Source\LwIP\src\api/api_msg.c **** #endif /* LWIP_TCP */
1643:Source\LwIP\src\api/api_msg.c **** 
1644:Source\LwIP\src\api/api_msg.c **** /**
1645:Source\LwIP\src\api/api_msg.c ****  * Send some data on a TCP pcb contained in a netconn
1646:Source\LwIP\src\api/api_msg.c ****  * Called from netconn_write
1647:Source\LwIP\src\api/api_msg.c ****  *
1648:Source\LwIP\src\api/api_msg.c ****  * @param m the api_msg_msg pointing to the connection
1649:Source\LwIP\src\api/api_msg.c ****  */
1650:Source\LwIP\src\api/api_msg.c **** void
1651:Source\LwIP\src\api/api_msg.c **** lwip_netconn_do_write(void *m)
1652:Source\LwIP\src\api/api_msg.c **** {
1653:Source\LwIP\src\api/api_msg.c ****   struct api_msg *msg = (struct api_msg*)m;
1654:Source\LwIP\src\api/api_msg.c **** 
1655:Source\LwIP\src\api/api_msg.c ****   if (ERR_IS_FATAL(msg->conn->last_err)) {
1656:Source\LwIP\src\api/api_msg.c ****     msg->err = msg->conn->last_err;
1657:Source\LwIP\src\api/api_msg.c ****   } else {
1658:Source\LwIP\src\api/api_msg.c ****     if (NETCONNTYPE_GROUP(msg->conn->type) == NETCONN_TCP) {
1659:Source\LwIP\src\api/api_msg.c **** #if LWIP_TCP
1660:Source\LwIP\src\api/api_msg.c ****       if (msg->conn->state != NETCONN_NONE) {
1661:Source\LwIP\src\api/api_msg.c ****         /* netconn is connecting, closing or in blocking write */
1662:Source\LwIP\src\api/api_msg.c ****         msg->err = ERR_INPROGRESS;
1663:Source\LwIP\src\api/api_msg.c ****       } else if (msg->conn->pcb.tcp != NULL) {
1664:Source\LwIP\src\api/api_msg.c ****         msg->conn->state = NETCONN_WRITE;
1665:Source\LwIP\src\api/api_msg.c ****         /* set all the variables used by lwip_netconn_do_writemore */
1666:Source\LwIP\src\api/api_msg.c ****         LWIP_ASSERT("already writing or closing", msg->conn->current_msg == NULL &&
1667:Source\LwIP\src\api/api_msg.c ****           msg->conn->write_offset == 0);
1668:Source\LwIP\src\api/api_msg.c ****         LWIP_ASSERT("msg->msg.w.len != 0", msg->msg.w.len != 0);
1669:Source\LwIP\src\api/api_msg.c ****         msg->conn->current_msg = msg;
1670:Source\LwIP\src\api/api_msg.c ****         msg->conn->write_offset = 0;
1671:Source\LwIP\src\api/api_msg.c **** #if LWIP_TCPIP_CORE_LOCKING
1672:Source\LwIP\src\api/api_msg.c ****         if (lwip_netconn_do_writemore(msg->conn, 0) != ERR_OK) {
1673:Source\LwIP\src\api/api_msg.c ****           LWIP_ASSERT("state!", msg->conn->state == NETCONN_WRITE);
1674:Source\LwIP\src\api/api_msg.c ****           UNLOCK_TCPIP_CORE();
1675:Source\LwIP\src\api/api_msg.c ****           sys_arch_sem_wait(LWIP_API_MSG_SEM(msg), 0);
1676:Source\LwIP\src\api/api_msg.c ****           LOCK_TCPIP_CORE();
1677:Source\LwIP\src\api/api_msg.c ****           LWIP_ASSERT("state!", msg->conn->state != NETCONN_WRITE);
1678:Source\LwIP\src\api/api_msg.c ****         }
1679:Source\LwIP\src\api/api_msg.c **** #else /* LWIP_TCPIP_CORE_LOCKING */
1680:Source\LwIP\src\api/api_msg.c ****         lwip_netconn_do_writemore(msg->conn);
1681:Source\LwIP\src\api/api_msg.c **** #endif /* LWIP_TCPIP_CORE_LOCKING */
1682:Source\LwIP\src\api/api_msg.c ****         /* for both cases: if lwip_netconn_do_writemore was called, don't ACK the APIMSG
1683:Source\LwIP\src\api/api_msg.c ****            since lwip_netconn_do_writemore ACKs it! */
1684:Source\LwIP\src\api/api_msg.c ****         return;
ARM GAS  C:\Users\Phuong\AppData\Local\Temp\ccTHzCbL.s 			page 31


1685:Source\LwIP\src\api/api_msg.c ****       } else {
1686:Source\LwIP\src\api/api_msg.c ****         msg->err = ERR_CONN;
1687:Source\LwIP\src\api/api_msg.c ****       }
1688:Source\LwIP\src\api/api_msg.c **** #else /* LWIP_TCP */
1689:Source\LwIP\src\api/api_msg.c ****       msg->err = ERR_VAL;
1690:Source\LwIP\src\api/api_msg.c **** #endif /* LWIP_TCP */
1691:Source\LwIP\src\api/api_msg.c **** #if (LWIP_UDP || LWIP_RAW)
1692:Source\LwIP\src\api/api_msg.c ****     } else {
1693:Source\LwIP\src\api/api_msg.c ****       msg->err = ERR_VAL;
1694:Source\LwIP\src\api/api_msg.c **** #endif /* (LWIP_UDP || LWIP_RAW) */
1695:Source\LwIP\src\api/api_msg.c ****     }
1696:Source\LwIP\src\api/api_msg.c ****   }
1697:Source\LwIP\src\api/api_msg.c ****   TCPIP_APIMSG_ACK(msg);
1698:Source\LwIP\src\api/api_msg.c **** }
1699:Source\LwIP\src\api/api_msg.c **** 
1700:Source\LwIP\src\api/api_msg.c **** /**
1701:Source\LwIP\src\api/api_msg.c ****  * Return a connection's local or remote address
1702:Source\LwIP\src\api/api_msg.c ****  * Called from netconn_getaddr
1703:Source\LwIP\src\api/api_msg.c ****  *
1704:Source\LwIP\src\api/api_msg.c ****  * @param m the api_msg_msg pointing to the connection
1705:Source\LwIP\src\api/api_msg.c ****  */
1706:Source\LwIP\src\api/api_msg.c **** void
1707:Source\LwIP\src\api/api_msg.c **** lwip_netconn_do_getaddr(void *m)
1708:Source\LwIP\src\api/api_msg.c **** {
1709:Source\LwIP\src\api/api_msg.c ****   struct api_msg *msg = (struct api_msg*)m;
1710:Source\LwIP\src\api/api_msg.c **** 
1711:Source\LwIP\src\api/api_msg.c ****   if (msg->conn->pcb.ip != NULL) {
1712:Source\LwIP\src\api/api_msg.c ****     if (msg->msg.ad.local) {
1713:Source\LwIP\src\api/api_msg.c ****       ip_addr_copy(API_EXPR_DEREF(msg->msg.ad.ipaddr),
1714:Source\LwIP\src\api/api_msg.c ****         msg->conn->pcb.ip->local_ip);
1715:Source\LwIP\src\api/api_msg.c ****     } else {
1716:Source\LwIP\src\api/api_msg.c ****       ip_addr_copy(API_EXPR_DEREF(msg->msg.ad.ipaddr),
1717:Source\LwIP\src\api/api_msg.c ****         msg->conn->pcb.ip->remote_ip);
1718:Source\LwIP\src\api/api_msg.c ****     }
1719:Source\LwIP\src\api/api_msg.c **** 
1720:Source\LwIP\src\api/api_msg.c ****     msg->err = ERR_OK;
1721:Source\LwIP\src\api/api_msg.c ****     switch (NETCONNTYPE_GROUP(msg->conn->type)) {
1722:Source\LwIP\src\api/api_msg.c **** #if LWIP_RAW
1723:Source\LwIP\src\api/api_msg.c ****     case NETCONN_RAW:
1724:Source\LwIP\src\api/api_msg.c ****       if (msg->msg.ad.local) {
1725:Source\LwIP\src\api/api_msg.c ****         API_EXPR_DEREF(msg->msg.ad.port) = msg->conn->pcb.raw->protocol;
1726:Source\LwIP\src\api/api_msg.c ****       } else {
1727:Source\LwIP\src\api/api_msg.c ****         /* return an error as connecting is only a helper for upper layers */
1728:Source\LwIP\src\api/api_msg.c ****         msg->err = ERR_CONN;
1729:Source\LwIP\src\api/api_msg.c ****       }
1730:Source\LwIP\src\api/api_msg.c ****       break;
1731:Source\LwIP\src\api/api_msg.c **** #endif /* LWIP_RAW */
1732:Source\LwIP\src\api/api_msg.c **** #if LWIP_UDP
1733:Source\LwIP\src\api/api_msg.c ****     case NETCONN_UDP:
1734:Source\LwIP\src\api/api_msg.c ****       if (msg->msg.ad.local) {
1735:Source\LwIP\src\api/api_msg.c ****         API_EXPR_DEREF(msg->msg.ad.port) = msg->conn->pcb.udp->local_port;
1736:Source\LwIP\src\api/api_msg.c ****       } else {
1737:Source\LwIP\src\api/api_msg.c ****         if ((msg->conn->pcb.udp->flags & UDP_FLAGS_CONNECTED) == 0) {
1738:Source\LwIP\src\api/api_msg.c ****           msg->err = ERR_CONN;
1739:Source\LwIP\src\api/api_msg.c ****         } else {
1740:Source\LwIP\src\api/api_msg.c ****           API_EXPR_DEREF(msg->msg.ad.port) = msg->conn->pcb.udp->remote_port;
1741:Source\LwIP\src\api/api_msg.c ****         }
ARM GAS  C:\Users\Phuong\AppData\Local\Temp\ccTHzCbL.s 			page 32


1742:Source\LwIP\src\api/api_msg.c ****       }
1743:Source\LwIP\src\api/api_msg.c ****       break;
1744:Source\LwIP\src\api/api_msg.c **** #endif /* LWIP_UDP */
1745:Source\LwIP\src\api/api_msg.c **** #if LWIP_TCP
1746:Source\LwIP\src\api/api_msg.c ****     case NETCONN_TCP:
1747:Source\LwIP\src\api/api_msg.c ****       if ((msg->msg.ad.local == 0) &&
1748:Source\LwIP\src\api/api_msg.c ****           ((msg->conn->pcb.tcp->state == CLOSED) || (msg->conn->pcb.tcp->state == LISTEN))) {
1749:Source\LwIP\src\api/api_msg.c ****         /* pcb is not connected and remote name is requested */
1750:Source\LwIP\src\api/api_msg.c ****         msg->err = ERR_CONN;
1751:Source\LwIP\src\api/api_msg.c ****       } else {
1752:Source\LwIP\src\api/api_msg.c ****         API_EXPR_DEREF(msg->msg.ad.port) = (msg->msg.ad.local ? msg->conn->pcb.tcp->local_port : ms
1753:Source\LwIP\src\api/api_msg.c ****       }
1754:Source\LwIP\src\api/api_msg.c ****       break;
1755:Source\LwIP\src\api/api_msg.c **** #endif /* LWIP_TCP */
1756:Source\LwIP\src\api/api_msg.c ****     default:
1757:Source\LwIP\src\api/api_msg.c ****       LWIP_ASSERT("invalid netconn_type", 0);
1758:Source\LwIP\src\api/api_msg.c ****       break;
1759:Source\LwIP\src\api/api_msg.c ****     }
1760:Source\LwIP\src\api/api_msg.c ****   } else {
1761:Source\LwIP\src\api/api_msg.c ****     msg->err = ERR_CONN;
1762:Source\LwIP\src\api/api_msg.c ****   }
1763:Source\LwIP\src\api/api_msg.c ****   TCPIP_APIMSG_ACK(msg);
1764:Source\LwIP\src\api/api_msg.c **** }
1765:Source\LwIP\src\api/api_msg.c **** 
1766:Source\LwIP\src\api/api_msg.c **** /**
1767:Source\LwIP\src\api/api_msg.c ****  * Close or half-shutdown a TCP pcb contained in a netconn
1768:Source\LwIP\src\api/api_msg.c ****  * Called from netconn_close
1769:Source\LwIP\src\api/api_msg.c ****  * In contrast to closing sockets, the netconn is not deallocated.
1770:Source\LwIP\src\api/api_msg.c ****  *
1771:Source\LwIP\src\api/api_msg.c ****  * @param m the api_msg_msg pointing to the connection
1772:Source\LwIP\src\api/api_msg.c ****  */
1773:Source\LwIP\src\api/api_msg.c **** void
1774:Source\LwIP\src\api/api_msg.c **** lwip_netconn_do_close(void *m)
1775:Source\LwIP\src\api/api_msg.c **** {
1776:Source\LwIP\src\api/api_msg.c ****   struct api_msg *msg = (struct api_msg*)m;
1777:Source\LwIP\src\api/api_msg.c **** 
1778:Source\LwIP\src\api/api_msg.c **** #if LWIP_TCP
1779:Source\LwIP\src\api/api_msg.c ****   enum netconn_state state = msg->conn->state;
1780:Source\LwIP\src\api/api_msg.c ****   /* First check if this is a TCP netconn and if it is in a correct state
1781:Source\LwIP\src\api/api_msg.c ****       (LISTEN doesn't support half shutdown) */
1782:Source\LwIP\src\api/api_msg.c ****   if ((msg->conn->pcb.tcp != NULL) &&
1783:Source\LwIP\src\api/api_msg.c ****       (NETCONNTYPE_GROUP(msg->conn->type) == NETCONN_TCP) &&
1784:Source\LwIP\src\api/api_msg.c ****       ((msg->msg.sd.shut == NETCONN_SHUT_RDWR) || (state != NETCONN_LISTEN))) {
1785:Source\LwIP\src\api/api_msg.c ****     /* Check if we are in a connected state */
1786:Source\LwIP\src\api/api_msg.c ****     if (state == NETCONN_CONNECT) {
1787:Source\LwIP\src\api/api_msg.c ****       /* TCP connect in progress: cannot shutdown */
1788:Source\LwIP\src\api/api_msg.c ****       msg->err = ERR_CONN;
1789:Source\LwIP\src\api/api_msg.c ****     } else if (state == NETCONN_WRITE) {
1790:Source\LwIP\src\api/api_msg.c **** #if LWIP_NETCONN_FULLDUPLEX
1791:Source\LwIP\src\api/api_msg.c ****       if (msg->msg.sd.shut & NETCONN_SHUT_WR) {
1792:Source\LwIP\src\api/api_msg.c ****         /* close requested, abort running write */
1793:Source\LwIP\src\api/api_msg.c ****         sys_sem_t* write_completed_sem;
1794:Source\LwIP\src\api/api_msg.c ****         LWIP_ASSERT("msg->conn->current_msg != NULL", msg->conn->current_msg != NULL);
1795:Source\LwIP\src\api/api_msg.c ****         write_completed_sem = LWIP_API_MSG_SEM(msg->conn->current_msg);
1796:Source\LwIP\src\api/api_msg.c ****         msg->conn->current_msg->err = ERR_CLSD;
1797:Source\LwIP\src\api/api_msg.c ****         msg->conn->current_msg = NULL;
1798:Source\LwIP\src\api/api_msg.c ****         msg->conn->write_offset = 0;
ARM GAS  C:\Users\Phuong\AppData\Local\Temp\ccTHzCbL.s 			page 33


1799:Source\LwIP\src\api/api_msg.c ****         msg->conn->state = NETCONN_NONE;
1800:Source\LwIP\src\api/api_msg.c ****         state = NETCONN_NONE;
1801:Source\LwIP\src\api/api_msg.c ****         NETCONN_SET_SAFE_ERR(msg->conn, ERR_CLSD);
1802:Source\LwIP\src\api/api_msg.c ****         sys_sem_signal(write_completed_sem);
1803:Source\LwIP\src\api/api_msg.c ****       } else {
1804:Source\LwIP\src\api/api_msg.c ****         LWIP_ASSERT("msg->msg.sd.shut == NETCONN_SHUT_RD", msg->msg.sd.shut == NETCONN_SHUT_RD);
1805:Source\LwIP\src\api/api_msg.c ****         /* In this case, let the write continue and do not interfere with
1806:Source\LwIP\src\api/api_msg.c ****            conn->current_msg or conn->state! */
1807:Source\LwIP\src\api/api_msg.c ****         msg->err = tcp_shutdown(msg->conn->pcb.tcp, 1, 0);
1808:Source\LwIP\src\api/api_msg.c ****       }
1809:Source\LwIP\src\api/api_msg.c ****     }
1810:Source\LwIP\src\api/api_msg.c ****     if (state == NETCONN_NONE) {
1811:Source\LwIP\src\api/api_msg.c **** #else /* LWIP_NETCONN_FULLDUPLEX */
1812:Source\LwIP\src\api/api_msg.c ****       msg->err = ERR_INPROGRESS;
1813:Source\LwIP\src\api/api_msg.c ****     } else {
1814:Source\LwIP\src\api/api_msg.c **** #endif /* LWIP_NETCONN_FULLDUPLEX */
1815:Source\LwIP\src\api/api_msg.c ****       if (msg->msg.sd.shut & NETCONN_SHUT_RD) {
1816:Source\LwIP\src\api/api_msg.c ****         /* Drain and delete mboxes */
1817:Source\LwIP\src\api/api_msg.c ****         netconn_drain(msg->conn);
1818:Source\LwIP\src\api/api_msg.c ****       }
1819:Source\LwIP\src\api/api_msg.c ****       LWIP_ASSERT("already writing or closing", msg->conn->current_msg == NULL &&
1820:Source\LwIP\src\api/api_msg.c ****         msg->conn->write_offset == 0);
1821:Source\LwIP\src\api/api_msg.c ****       msg->conn->state = NETCONN_CLOSE;
1822:Source\LwIP\src\api/api_msg.c ****       msg->conn->current_msg = msg;
1823:Source\LwIP\src\api/api_msg.c **** #if LWIP_TCPIP_CORE_LOCKING
1824:Source\LwIP\src\api/api_msg.c ****       if (lwip_netconn_do_close_internal(msg->conn, 0) != ERR_OK) {
1825:Source\LwIP\src\api/api_msg.c ****         LWIP_ASSERT("state!", msg->conn->state == NETCONN_CLOSE);
1826:Source\LwIP\src\api/api_msg.c ****         UNLOCK_TCPIP_CORE();
1827:Source\LwIP\src\api/api_msg.c ****         sys_arch_sem_wait(LWIP_API_MSG_SEM(msg), 0);
1828:Source\LwIP\src\api/api_msg.c ****         LOCK_TCPIP_CORE();
1829:Source\LwIP\src\api/api_msg.c ****         LWIP_ASSERT("state!", msg->conn->state == NETCONN_NONE);
1830:Source\LwIP\src\api/api_msg.c ****       }
1831:Source\LwIP\src\api/api_msg.c **** #else /* LWIP_TCPIP_CORE_LOCKING */
1832:Source\LwIP\src\api/api_msg.c ****       lwip_netconn_do_close_internal(msg->conn);
1833:Source\LwIP\src\api/api_msg.c **** #endif /* LWIP_TCPIP_CORE_LOCKING */
1834:Source\LwIP\src\api/api_msg.c ****       /* for tcp netconns, lwip_netconn_do_close_internal ACKs the message */
1835:Source\LwIP\src\api/api_msg.c ****       return;
1836:Source\LwIP\src\api/api_msg.c ****     }
1837:Source\LwIP\src\api/api_msg.c ****   } else
1838:Source\LwIP\src\api/api_msg.c **** #endif /* LWIP_TCP */
1839:Source\LwIP\src\api/api_msg.c ****   {
1840:Source\LwIP\src\api/api_msg.c ****     msg->err = ERR_CONN;
1841:Source\LwIP\src\api/api_msg.c ****   }
1842:Source\LwIP\src\api/api_msg.c ****   TCPIP_APIMSG_ACK(msg);
1843:Source\LwIP\src\api/api_msg.c **** }
1844:Source\LwIP\src\api/api_msg.c **** 
1845:Source\LwIP\src\api/api_msg.c **** #if LWIP_IGMP || (LWIP_IPV6 && LWIP_IPV6_MLD)
1846:Source\LwIP\src\api/api_msg.c **** /**
1847:Source\LwIP\src\api/api_msg.c ****  * Join multicast groups for UDP netconns.
1848:Source\LwIP\src\api/api_msg.c ****  * Called from netconn_join_leave_group
1849:Source\LwIP\src\api/api_msg.c ****  *
1850:Source\LwIP\src\api/api_msg.c ****  * @param m the api_msg_msg pointing to the connection
1851:Source\LwIP\src\api/api_msg.c ****  */
1852:Source\LwIP\src\api/api_msg.c **** void
1853:Source\LwIP\src\api/api_msg.c **** lwip_netconn_do_join_leave_group(void *m)
1854:Source\LwIP\src\api/api_msg.c **** {
1855:Source\LwIP\src\api/api_msg.c ****   struct api_msg *msg = (struct api_msg*)m;
ARM GAS  C:\Users\Phuong\AppData\Local\Temp\ccTHzCbL.s 			page 34


1856:Source\LwIP\src\api/api_msg.c **** 
1857:Source\LwIP\src\api/api_msg.c ****   if (ERR_IS_FATAL(msg->conn->last_err)) {
1858:Source\LwIP\src\api/api_msg.c ****     msg->err = msg->conn->last_err;
1859:Source\LwIP\src\api/api_msg.c ****   } else {
1860:Source\LwIP\src\api/api_msg.c ****     if (msg->conn->pcb.tcp != NULL) {
1861:Source\LwIP\src\api/api_msg.c ****       if (NETCONNTYPE_GROUP(msg->conn->type) == NETCONN_UDP) {
1862:Source\LwIP\src\api/api_msg.c **** #if LWIP_UDP
1863:Source\LwIP\src\api/api_msg.c **** #if LWIP_IPV6 && LWIP_IPV6_MLD
1864:Source\LwIP\src\api/api_msg.c ****         if (NETCONNTYPE_ISIPV6(msg->conn->type)) {
1865:Source\LwIP\src\api/api_msg.c ****           if (msg->msg.jl.join_or_leave == NETCONN_JOIN) {
1866:Source\LwIP\src\api/api_msg.c ****             msg->err = mld6_joingroup(ip_2_ip6(API_EXPR_REF(msg->msg.jl.netif_addr)),
1867:Source\LwIP\src\api/api_msg.c ****               ip_2_ip6(API_EXPR_REF(msg->msg.jl.multiaddr)));
1868:Source\LwIP\src\api/api_msg.c ****           } else {
1869:Source\LwIP\src\api/api_msg.c ****             msg->err = mld6_leavegroup(ip_2_ip6(API_EXPR_REF(msg->msg.jl.netif_addr)),
1870:Source\LwIP\src\api/api_msg.c ****               ip_2_ip6(API_EXPR_REF(msg->msg.jl.multiaddr)));
1871:Source\LwIP\src\api/api_msg.c ****           }
1872:Source\LwIP\src\api/api_msg.c ****         }
1873:Source\LwIP\src\api/api_msg.c ****         else
1874:Source\LwIP\src\api/api_msg.c **** #endif /* LWIP_IPV6 && LWIP_IPV6_MLD */
1875:Source\LwIP\src\api/api_msg.c ****         {
1876:Source\LwIP\src\api/api_msg.c **** #if LWIP_IGMP
1877:Source\LwIP\src\api/api_msg.c ****           if (msg->msg.jl.join_or_leave == NETCONN_JOIN) {
1878:Source\LwIP\src\api/api_msg.c ****             msg->err = igmp_joingroup(ip_2_ip4(API_EXPR_REF(msg->msg.jl.netif_addr)),
1879:Source\LwIP\src\api/api_msg.c ****               ip_2_ip4(API_EXPR_REF(msg->msg.jl.multiaddr)));
1880:Source\LwIP\src\api/api_msg.c ****           } else {
1881:Source\LwIP\src\api/api_msg.c ****             msg->err = igmp_leavegroup(ip_2_ip4(API_EXPR_REF(msg->msg.jl.netif_addr)),
1882:Source\LwIP\src\api/api_msg.c ****               ip_2_ip4(API_EXPR_REF(msg->msg.jl.multiaddr)));
1883:Source\LwIP\src\api/api_msg.c ****           }
1884:Source\LwIP\src\api/api_msg.c **** #endif /* LWIP_IGMP */
1885:Source\LwIP\src\api/api_msg.c ****         }
1886:Source\LwIP\src\api/api_msg.c **** #endif /* LWIP_UDP */
1887:Source\LwIP\src\api/api_msg.c **** #if (LWIP_TCP || LWIP_RAW)
1888:Source\LwIP\src\api/api_msg.c ****       } else {
1889:Source\LwIP\src\api/api_msg.c ****         msg->err = ERR_VAL;
1890:Source\LwIP\src\api/api_msg.c **** #endif /* (LWIP_TCP || LWIP_RAW) */
1891:Source\LwIP\src\api/api_msg.c ****       }
1892:Source\LwIP\src\api/api_msg.c ****     } else {
1893:Source\LwIP\src\api/api_msg.c ****       msg->err = ERR_CONN;
1894:Source\LwIP\src\api/api_msg.c ****     }
1895:Source\LwIP\src\api/api_msg.c ****   }
1896:Source\LwIP\src\api/api_msg.c ****   TCPIP_APIMSG_ACK(msg);
1897:Source\LwIP\src\api/api_msg.c **** }
1898:Source\LwIP\src\api/api_msg.c **** #endif /* LWIP_IGMP || (LWIP_IPV6 && LWIP_IPV6_MLD) */
1899:Source\LwIP\src\api/api_msg.c **** 
1900:Source\LwIP\src\api/api_msg.c **** #if LWIP_DNS
1901:Source\LwIP\src\api/api_msg.c **** /**
1902:Source\LwIP\src\api/api_msg.c ****  * Callback function that is called when DNS name is resolved
1903:Source\LwIP\src\api/api_msg.c ****  * (or on timeout). A waiting application thread is waked up by
1904:Source\LwIP\src\api/api_msg.c ****  * signaling the semaphore.
1905:Source\LwIP\src\api/api_msg.c ****  */
1906:Source\LwIP\src\api/api_msg.c **** static void
1907:Source\LwIP\src\api/api_msg.c **** lwip_netconn_do_dns_found(const char *name, const ip_addr_t *ipaddr, void *arg)
1908:Source\LwIP\src\api/api_msg.c **** {
  27              		.loc 1 1908 0
  28              		.cfi_startproc
  29              		@ args = 0, pretend = 0, frame = 0
  30              		@ frame_needed = 0, uses_anonymous_args = 0
ARM GAS  C:\Users\Phuong\AppData\Local\Temp\ccTHzCbL.s 			page 35


  31              	.LVL0:
  32 0000 10B5     		push	{r4, lr}
  33              		.cfi_def_cfa_offset 8
  34              		.cfi_offset 4, -8
  35              		.cfi_offset 14, -4
  36              	.LVL1:
1909:Source\LwIP\src\api/api_msg.c ****   struct dns_api_msg *msg = (struct dns_api_msg*)arg;
1910:Source\LwIP\src\api/api_msg.c **** 
1911:Source\LwIP\src\api/api_msg.c ****   /* we trust the internal implementation to be correct :-) */
1912:Source\LwIP\src\api/api_msg.c ****   LWIP_UNUSED_ARG(name);
1913:Source\LwIP\src\api/api_msg.c **** 
1914:Source\LwIP\src\api/api_msg.c ****   if (ipaddr == NULL) {
  37              		.loc 1 1914 0
  38 0002 0029     		cmp	r1, #0
  39 0004 03D1     		bne	.L2
1915:Source\LwIP\src\api/api_msg.c ****     /* timeout or memory error */
1916:Source\LwIP\src\api/api_msg.c ****     API_EXPR_DEREF(msg->err) = ERR_VAL;
  40              		.loc 1 1916 0
  41 0006 FA23     		movs	r3, #250
  42 0008 D168     		ldr	r1, [r2, #12]
  43              	.LVL2:
  44 000a 0B70     		strb	r3, [r1]
  45 000c 05E0     		b	.L3
  46              	.LVL3:
  47              	.L2:
1917:Source\LwIP\src\api/api_msg.c ****   } else {
1918:Source\LwIP\src\api/api_msg.c ****     /* address was resolved */
1919:Source\LwIP\src\api/api_msg.c ****     API_EXPR_DEREF(msg->err) = ERR_OK;
  48              		.loc 1 1919 0
  49 000e 0023     		movs	r3, #0
  50 0010 D068     		ldr	r0, [r2, #12]
  51              	.LVL4:
  52 0012 0370     		strb	r3, [r0]
1920:Source\LwIP\src\api/api_msg.c ****     API_EXPR_DEREF(msg->addr) = *ipaddr;
  53              		.loc 1 1920 0
  54 0014 5368     		ldr	r3, [r2, #4]
  55 0016 0968     		ldr	r1, [r1]
  56              	.LVL5:
  57 0018 1960     		str	r1, [r3]
  58              	.L3:
1921:Source\LwIP\src\api/api_msg.c ****   }
1922:Source\LwIP\src\api/api_msg.c ****   /* wake up the application task waiting in netconn_gethostbyname */
1923:Source\LwIP\src\api/api_msg.c ****   sys_sem_signal(API_EXPR_REF_SEM(msg->sem));
  59              		.loc 1 1923 0
  60 001a 9068     		ldr	r0, [r2, #8]
  61 001c FFF7FEFF 		bl	sys_sem_signal
  62              	.LVL6:
1924:Source\LwIP\src\api/api_msg.c **** }
  63              		.loc 1 1924 0
  64              		@ sp needed
  65 0020 10BD     		pop	{r4, pc}
  66              		.cfi_endproc
  67              	.LFE81:
  68              		.size	lwip_netconn_do_dns_found, .-lwip_netconn_do_dns_found
  69 0022 C046     		.section	.text.recv_udp,"ax",%progbits
  70              		.align	2
  71              		.code	16
ARM GAS  C:\Users\Phuong\AppData\Local\Temp\ccTHzCbL.s 			page 36


  72              		.thumb_func
  73              		.type	recv_udp, %function
  74              	recv_udp:
  75              	.LFB54:
 168:Source\LwIP\src\api/api_msg.c ****   struct netbuf *buf;
  76              		.loc 1 168 0
  77              		.cfi_startproc
  78              		@ args = 4, pretend = 0, frame = 0
  79              		@ frame_needed = 0, uses_anonymous_args = 0
  80              	.LVL7:
  81 0000 F8B5     		push	{r3, r4, r5, r6, r7, lr}
  82              		.cfi_def_cfa_offset 24
  83              		.cfi_offset 3, -24
  84              		.cfi_offset 4, -20
  85              		.cfi_offset 5, -16
  86              		.cfi_offset 6, -12
  87              		.cfi_offset 7, -8
  88              		.cfi_offset 14, -4
  89 0002 4F46     		mov	r7, r9
  90 0004 4646     		mov	r6, r8
  91 0006 C0B4     		push	{r6, r7}
  92              		.cfi_def_cfa_offset 32
  93              		.cfi_offset 8, -32
  94              		.cfi_offset 9, -28
  95 0008 0500     		movs	r5, r0
  96 000a 1600     		movs	r6, r2
  97 000c 9846     		mov	r8, r3
  98 000e 08AB     		add	r3, sp, #32
  99              	.LVL8:
 100 0010 1B88     		ldrh	r3, [r3]
 101              	.LVL9:
 102 0012 9946     		mov	r9, r3
 103              	.LVL10:
 181:Source\LwIP\src\api/api_msg.c ****     pbuf_free(p);
 104              		.loc 1 181 0
 105 0014 0028     		cmp	r0, #0
 106 0016 03D1     		bne	.L5
 182:Source\LwIP\src\api/api_msg.c ****     return;
 107              		.loc 1 182 0
 108 0018 1000     		movs	r0, r2
 109              	.LVL11:
 110 001a FFF7FEFF 		bl	pbuf_free
 111              	.LVL12:
 183:Source\LwIP\src\api/api_msg.c ****   }
 112              		.loc 1 183 0
 113 001e 32E0     		b	.L4
 114              	.LVL13:
 115              	.L5:
 193:Source\LwIP\src\api/api_msg.c **** #endif /* LWIP_SO_RCVBUF */
 116              		.loc 1 193 0
 117 0020 0700     		movs	r7, r0
 118 0022 1037     		adds	r7, r7, #16
 119 0024 3800     		movs	r0, r7
 120              	.LVL14:
 121 0026 FFF7FEFF 		bl	sys_mbox_valid
 122              	.LVL15:
 123 002a 0028     		cmp	r0, #0
ARM GAS  C:\Users\Phuong\AppData\Local\Temp\ccTHzCbL.s 			page 37


 124 002c 03D1     		bne	.L7
 195:Source\LwIP\src\api/api_msg.c ****     return;
 125              		.loc 1 195 0
 126 002e 3000     		movs	r0, r6
 127 0030 FFF7FEFF 		bl	pbuf_free
 128              	.LVL16:
 196:Source\LwIP\src\api/api_msg.c ****   }
 129              		.loc 1 196 0
 130 0034 27E0     		b	.L4
 131              	.L7:
 199:Source\LwIP\src\api/api_msg.c ****   if (buf == NULL) {
 132              		.loc 1 199 0
 133 0036 C722     		movs	r2, #199
 134 0038 1549     		ldr	r1, .L12
 135 003a 0620     		movs	r0, #6
 136 003c FFF7FEFF 		bl	memp_malloc_fn
 137              	.LVL17:
 138 0040 041E     		subs	r4, r0, #0
 139              	.LVL18:
 200:Source\LwIP\src\api/api_msg.c ****     pbuf_free(p);
 140              		.loc 1 200 0
 141 0042 03D1     		bne	.L8
 201:Source\LwIP\src\api/api_msg.c ****     return;
 142              		.loc 1 201 0
 143 0044 3000     		movs	r0, r6
 144              	.LVL19:
 145 0046 FFF7FEFF 		bl	pbuf_free
 146              	.LVL20:
 202:Source\LwIP\src\api/api_msg.c ****   } else {
 147              		.loc 1 202 0
 148 004a 1CE0     		b	.L4
 149              	.LVL21:
 150              	.L8:
 204:Source\LwIP\src\api/api_msg.c ****     buf->ptr = p;
 151              		.loc 1 204 0
 152 004c 0660     		str	r6, [r0]
 205:Source\LwIP\src\api/api_msg.c ****     ip_addr_set(&buf->addr, addr);
 153              		.loc 1 205 0
 154 004e 4660     		str	r6, [r0, #4]
 206:Source\LwIP\src\api/api_msg.c ****     buf->port = port;
 155              		.loc 1 206 0
 156 0050 4346     		mov	r3, r8
 157 0052 002B     		cmp	r3, #0
 158 0054 01D0     		beq	.L11
 159              	.LVL22:
 206:Source\LwIP\src\api/api_msg.c ****     buf->port = port;
 160              		.loc 1 206 0 is_stmt 0 discriminator 1
 161 0056 1B68     		ldr	r3, [r3]
 162              	.LVL23:
 163 0058 00E0     		b	.L9
 164              	.LVL24:
 165              	.L11:
 206:Source\LwIP\src\api/api_msg.c ****     buf->port = port;
 166              		.loc 1 206 0
 167 005a 0023     		movs	r3, #0
 168              	.LVL25:
 169              	.L9:
ARM GAS  C:\Users\Phuong\AppData\Local\Temp\ccTHzCbL.s 			page 38


 206:Source\LwIP\src\api/api_msg.c ****     buf->port = port;
 170              		.loc 1 206 0 discriminator 4
 171 005c A360     		str	r3, [r4, #8]
 207:Source\LwIP\src\api/api_msg.c **** #if LWIP_NETBUF_RECVINFO
 172              		.loc 1 207 0 is_stmt 1 discriminator 4
 173 005e 4B46     		mov	r3, r9
 174 0060 A381     		strh	r3, [r4, #12]
 221:Source\LwIP\src\api/api_msg.c ****   if (sys_mbox_trypost(&conn->recvmbox, buf) != ERR_OK) {
 175              		.loc 1 221 0 discriminator 4
 176 0062 3689     		ldrh	r6, [r6, #8]
 177              	.LVL26:
 222:Source\LwIP\src\api/api_msg.c ****     netbuf_delete(buf);
 178              		.loc 1 222 0 discriminator 4
 179 0064 2100     		movs	r1, r4
 180 0066 3800     		movs	r0, r7
 181              	.LVL27:
 182 0068 FFF7FEFF 		bl	sys_mbox_trypost
 183              	.LVL28:
 184 006c 0028     		cmp	r0, #0
 185 006e 03D0     		beq	.L10
 223:Source\LwIP\src\api/api_msg.c ****     return;
 186              		.loc 1 223 0
 187 0070 2000     		movs	r0, r4
 188 0072 FFF7FEFF 		bl	netbuf_delete
 189              	.LVL29:
 224:Source\LwIP\src\api/api_msg.c ****   } else {
 190              		.loc 1 224 0
 191 0076 06E0     		b	.L4
 192              	.L10:
 230:Source\LwIP\src\api/api_msg.c ****   }
 193              		.loc 1 230 0
 194 0078 EB6A     		ldr	r3, [r5, #44]
 195 007a 002B     		cmp	r3, #0
 196 007c 03D0     		beq	.L4
 230:Source\LwIP\src\api/api_msg.c ****   }
 197              		.loc 1 230 0 is_stmt 0 discriminator 1
 198 007e 3200     		movs	r2, r6
 199 0080 0021     		movs	r1, #0
 200 0082 2800     		movs	r0, r5
 201 0084 9847     		blx	r3
 202              	.LVL30:
 203              	.L4:
 232:Source\LwIP\src\api/api_msg.c **** #endif /* LWIP_UDP */
 204              		.loc 1 232 0 is_stmt 1
 205              		@ sp needed
 206              	.LVL31:
 207              	.LVL32:
 208 0086 0CBC     		pop	{r2, r3}
 209 0088 9046     		mov	r8, r2
 210 008a 9946     		mov	r9, r3
 211 008c F8BD     		pop	{r3, r4, r5, r6, r7, pc}
 212              	.L13:
 213 008e C046     		.align	2
 214              	.L12:
 215 0090 00000000 		.word	.LC0
 216              		.cfi_endproc
 217              	.LFE54:
ARM GAS  C:\Users\Phuong\AppData\Local\Temp\ccTHzCbL.s 			page 39


 218              		.size	recv_udp, .-recv_udp
 219              		.section	.text.recv_raw,"ax",%progbits
 220              		.align	2
 221              		.code	16
 222              		.thumb_func
 223              		.type	recv_raw, %function
 224              	recv_raw:
 225              	.LFB53:
 102:Source\LwIP\src\api/api_msg.c ****   struct pbuf *q;
 226              		.loc 1 102 0
 227              		.cfi_startproc
 228              		@ args = 0, pretend = 0, frame = 8
 229              		@ frame_needed = 0, uses_anonymous_args = 0
 230              	.LVL33:
 231 0000 F0B5     		push	{r4, r5, r6, r7, lr}
 232              		.cfi_def_cfa_offset 20
 233              		.cfi_offset 4, -20
 234              		.cfi_offset 5, -16
 235              		.cfi_offset 6, -12
 236              		.cfi_offset 7, -8
 237              		.cfi_offset 14, -4
 238 0002 83B0     		sub	sp, sp, #12
 239              		.cfi_def_cfa_offset 32
 240 0004 0400     		movs	r4, r0
 241 0006 0191     		str	r1, [sp, #4]
 242 0008 1600     		movs	r6, r2
 243              	.LVL34:
 110:Source\LwIP\src\api/api_msg.c **** #if LWIP_SO_RCVBUF
 244              		.loc 1 110 0
 245 000a 0028     		cmp	r0, #0
 246 000c 3DD0     		beq	.L15
 110:Source\LwIP\src\api/api_msg.c **** #if LWIP_SO_RCVBUF
 247              		.loc 1 110 0 is_stmt 0 discriminator 1
 248 000e 0700     		movs	r7, r0
 249 0010 1037     		adds	r7, r7, #16
 250 0012 3800     		movs	r0, r7
 251              	.LVL35:
 252 0014 FFF7FEFF 		bl	sys_mbox_valid
 253              	.LVL36:
 254 0018 0028     		cmp	r0, #0
 255 001a 36D0     		beq	.L15
 119:Source\LwIP\src\api/api_msg.c ****     if (q != NULL) {
 256              		.loc 1 119 0 is_stmt 1
 257 001c 3189     		ldrh	r1, [r6, #8]
 258 001e 0022     		movs	r2, #0
 259 0020 0420     		movs	r0, #4
 260 0022 FFF7FEFF 		bl	pbuf_alloc
 261              	.LVL37:
 262 0026 051E     		subs	r5, r0, #0
 263              	.LVL38:
 120:Source\LwIP\src\api/api_msg.c ****       if (pbuf_copy(q, p) != ERR_OK) {
 264              		.loc 1 120 0
 265 0028 08D0     		beq	.L16
 121:Source\LwIP\src\api/api_msg.c ****         pbuf_free(q);
 266              		.loc 1 121 0
 267 002a 3100     		movs	r1, r6
 268 002c FFF7FEFF 		bl	pbuf_copy
ARM GAS  C:\Users\Phuong\AppData\Local\Temp\ccTHzCbL.s 			page 40


 269              	.LVL39:
 270 0030 0028     		cmp	r0, #0
 271 0032 03D0     		beq	.L16
 122:Source\LwIP\src\api/api_msg.c ****         q = NULL;
 272              		.loc 1 122 0
 273 0034 2800     		movs	r0, r5
 274 0036 FFF7FEFF 		bl	pbuf_free
 275              	.LVL40:
 123:Source\LwIP\src\api/api_msg.c ****       }
 276              		.loc 1 123 0
 277 003a 0025     		movs	r5, #0
 278              	.LVL41:
 279              	.L16:
 127:Source\LwIP\src\api/api_msg.c ****       u16_t len;
 280              		.loc 1 127 0
 281 003c 002D     		cmp	r5, #0
 282 003e 24D0     		beq	.L15
 283              	.LBB2:
 129:Source\LwIP\src\api/api_msg.c ****       if (buf == NULL) {
 284              		.loc 1 129 0
 285 0040 8122     		movs	r2, #129
 286 0042 1349     		ldr	r1, .L19
 287 0044 0620     		movs	r0, #6
 288 0046 FFF7FEFF 		bl	memp_malloc_fn
 289              	.LVL42:
 290 004a 061E     		subs	r6, r0, #0
 291              	.LVL43:
 130:Source\LwIP\src\api/api_msg.c ****         pbuf_free(q);
 292              		.loc 1 130 0
 293 004c 03D1     		bne	.L17
 131:Source\LwIP\src\api/api_msg.c ****         return 0;
 294              		.loc 1 131 0
 295 004e 2800     		movs	r0, r5
 296              	.LVL44:
 297 0050 FFF7FEFF 		bl	pbuf_free
 298              	.LVL45:
 132:Source\LwIP\src\api/api_msg.c ****       }
 299              		.loc 1 132 0
 300 0054 19E0     		b	.L15
 301              	.LVL46:
 302              	.L17:
 135:Source\LwIP\src\api/api_msg.c ****       buf->ptr = q;
 303              		.loc 1 135 0
 304 0056 0560     		str	r5, [r0]
 136:Source\LwIP\src\api/api_msg.c ****       ip_addr_copy(buf->addr, *ip_current_src_addr());
 305              		.loc 1 136 0
 306 0058 4560     		str	r5, [r0, #4]
 137:Source\LwIP\src\api/api_msg.c ****       buf->port = pcb->protocol;
 307              		.loc 1 137 0
 308 005a 0E4B     		ldr	r3, .L19+4
 309 005c 1B69     		ldr	r3, [r3, #16]
 310 005e 8360     		str	r3, [r0, #8]
 138:Source\LwIP\src\api/api_msg.c **** 
 311              		.loc 1 138 0
 312 0060 019B     		ldr	r3, [sp, #4]
 313 0062 1B7C     		ldrb	r3, [r3, #16]
 314 0064 8381     		strh	r3, [r0, #12]
ARM GAS  C:\Users\Phuong\AppData\Local\Temp\ccTHzCbL.s 			page 41


 140:Source\LwIP\src\api/api_msg.c ****       if (sys_mbox_trypost(&conn->recvmbox, buf) != ERR_OK) {
 315              		.loc 1 140 0
 316 0066 2D89     		ldrh	r5, [r5, #8]
 317              	.LVL47:
 141:Source\LwIP\src\api/api_msg.c ****         netbuf_delete(buf);
 318              		.loc 1 141 0
 319 0068 0100     		movs	r1, r0
 320 006a 3800     		movs	r0, r7
 321              	.LVL48:
 322 006c FFF7FEFF 		bl	sys_mbox_trypost
 323              	.LVL49:
 324 0070 0028     		cmp	r0, #0
 325 0072 03D0     		beq	.L18
 142:Source\LwIP\src\api/api_msg.c ****         return 0;
 326              		.loc 1 142 0
 327 0074 3000     		movs	r0, r6
 328 0076 FFF7FEFF 		bl	netbuf_delete
 329              	.LVL50:
 143:Source\LwIP\src\api/api_msg.c ****       } else {
 330              		.loc 1 143 0
 331 007a 06E0     		b	.L15
 332              	.L18:
 149:Source\LwIP\src\api/api_msg.c ****       }
 333              		.loc 1 149 0
 334 007c E36A     		ldr	r3, [r4, #44]
 335 007e 002B     		cmp	r3, #0
 336 0080 03D0     		beq	.L15
 149:Source\LwIP\src\api/api_msg.c ****       }
 337              		.loc 1 149 0 is_stmt 0 discriminator 1
 338 0082 2A00     		movs	r2, r5
 339 0084 0021     		movs	r1, #0
 340 0086 2000     		movs	r0, r4
 341 0088 9847     		blx	r3
 342              	.LVL51:
 343              	.L15:
 344              	.LBE2:
 155:Source\LwIP\src\api/api_msg.c **** #endif /* LWIP_RAW*/
 345              		.loc 1 155 0 is_stmt 1
 346 008a 0020     		movs	r0, #0
 347 008c 03B0     		add	sp, sp, #12
 348              		@ sp needed
 349              	.LVL52:
 350 008e F0BD     		pop	{r4, r5, r6, r7, pc}
 351              	.L20:
 352              		.align	2
 353              	.L19:
 354 0090 00000000 		.word	.LC0
 355 0094 00000000 		.word	ip_data
 356              		.cfi_endproc
 357              	.LFE53:
 358              		.size	recv_raw, .-recv_raw
 359              		.section	.text.setup_tcp,"ax",%progbits
 360              		.align	2
 361              		.code	16
 362              		.thumb_func
 363              		.type	setup_tcp, %function
 364              	setup_tcp:
ARM GAS  C:\Users\Phuong\AppData\Local\Temp\ccTHzCbL.s 			page 42


 365              	.LFB59:
 457:Source\LwIP\src\api/api_msg.c ****   struct tcp_pcb *pcb;
 366              		.loc 1 457 0
 367              		.cfi_startproc
 368              		@ args = 0, pretend = 0, frame = 0
 369              		@ frame_needed = 0, uses_anonymous_args = 0
 370              	.LVL53:
 371 0000 10B5     		push	{r4, lr}
 372              		.cfi_def_cfa_offset 8
 373              		.cfi_offset 4, -8
 374              		.cfi_offset 14, -4
 375 0002 0100     		movs	r1, r0
 460:Source\LwIP\src\api/api_msg.c ****   tcp_arg(pcb, conn);
 376              		.loc 1 460 0
 377 0004 4468     		ldr	r4, [r0, #4]
 378              	.LVL54:
 461:Source\LwIP\src\api/api_msg.c ****   tcp_recv(pcb, recv_tcp);
 379              		.loc 1 461 0
 380 0006 2000     		movs	r0, r4
 381              	.LVL55:
 382 0008 FFF7FEFF 		bl	tcp_arg
 383              	.LVL56:
 462:Source\LwIP\src\api/api_msg.c ****   tcp_sent(pcb, sent_tcp);
 384              		.loc 1 462 0
 385 000c 0849     		ldr	r1, .L22
 386 000e 2000     		movs	r0, r4
 387 0010 FFF7FEFF 		bl	tcp_recv
 388              	.LVL57:
 463:Source\LwIP\src\api/api_msg.c ****   tcp_poll(pcb, poll_tcp, NETCONN_TCP_POLL_INTERVAL);
 389              		.loc 1 463 0
 390 0014 0749     		ldr	r1, .L22+4
 391 0016 2000     		movs	r0, r4
 392 0018 FFF7FEFF 		bl	tcp_sent
 393              	.LVL58:
 464:Source\LwIP\src\api/api_msg.c ****   tcp_err(pcb, err_tcp);
 394              		.loc 1 464 0
 395 001c 0222     		movs	r2, #2
 396 001e 0649     		ldr	r1, .L22+8
 397 0020 2000     		movs	r0, r4
 398 0022 FFF7FEFF 		bl	tcp_poll
 399              	.LVL59:
 465:Source\LwIP\src\api/api_msg.c **** }
 400              		.loc 1 465 0
 401 0026 0549     		ldr	r1, .L22+12
 402 0028 2000     		movs	r0, r4
 403 002a FFF7FEFF 		bl	tcp_err
 404              	.LVL60:
 466:Source\LwIP\src\api/api_msg.c **** 
 405              		.loc 1 466 0
 406              		@ sp needed
 407              	.LVL61:
 408 002e 10BD     		pop	{r4, pc}
 409              	.L23:
 410              		.align	2
 411              	.L22:
 412 0030 00000000 		.word	recv_tcp
 413 0034 00000000 		.word	sent_tcp
ARM GAS  C:\Users\Phuong\AppData\Local\Temp\ccTHzCbL.s 			page 43


 414 0038 00000000 		.word	poll_tcp
 415 003c 00000000 		.word	err_tcp
 416              		.cfi_endproc
 417              	.LFE59:
 418              		.size	setup_tcp, .-setup_tcp
 419              		.section	.text.pcb_new,"ax",%progbits
 420              		.align	2
 421              		.code	16
 422              		.thumb_func
 423              		.type	pcb_new, %function
 424              	pcb_new:
 425              	.LFB61:
 553:Source\LwIP\src\api/api_msg.c ****   enum lwip_ip_addr_type iptype = IPADDR_TYPE_V4;
 426              		.loc 1 553 0
 427              		.cfi_startproc
 428              		@ args = 0, pretend = 0, frame = 0
 429              		@ frame_needed = 0, uses_anonymous_args = 0
 430              	.LVL62:
 431 0000 70B5     		push	{r4, r5, r6, lr}
 432              		.cfi_def_cfa_offset 16
 433              		.cfi_offset 4, -16
 434              		.cfi_offset 5, -12
 435              		.cfi_offset 6, -8
 436              		.cfi_offset 14, -4
 437 0002 0400     		movs	r4, r0
 438              	.LVL63:
 556:Source\LwIP\src\api/api_msg.c ****  
 439              		.loc 1 556 0
 440 0004 0568     		ldr	r5, [r0]
 566:Source\LwIP\src\api/api_msg.c **** #if LWIP_RAW
 441              		.loc 1 566 0
 442 0006 2B78     		ldrb	r3, [r5]
 443 0008 0F22     		movs	r2, #15
 444 000a 9343     		bics	r3, r2
 445 000c 202B     		cmp	r3, #32
 446 000e 11D0     		beq	.L26
 447 0010 402B     		cmp	r3, #64
 448 0012 02D0     		beq	.L27
 449 0014 102B     		cmp	r3, #16
 450 0016 2BD1     		bne	.L32
 451 0018 1FE0     		b	.L28
 452              	.L27:
 569:Source\LwIP\src\api/api_msg.c ****     if (msg->conn->pcb.raw != NULL) {
 453              		.loc 1 569 0
 454 001a 017A     		ldrb	r1, [r0, #8]
 455 001c 0020     		movs	r0, #0
 456              	.LVL64:
 457 001e FFF7FEFF 		bl	raw_new_ip_type
 458              	.LVL65:
 459 0022 6860     		str	r0, [r5, #4]
 570:Source\LwIP\src\api/api_msg.c **** #if LWIP_IPV6
 460              		.loc 1 570 0
 461 0024 2268     		ldr	r2, [r4]
 462 0026 5068     		ldr	r0, [r2, #4]
 463 0028 0028     		cmp	r0, #0
 464 002a 24D0     		beq	.L29
 578:Source\LwIP\src\api/api_msg.c ****     }
ARM GAS  C:\Users\Phuong\AppData\Local\Temp\ccTHzCbL.s 			page 44


 465              		.loc 1 578 0
 466 002c 1549     		ldr	r1, .L33
 467 002e FFF7FEFF 		bl	raw_recv
 468              	.LVL66:
 469 0032 20E0     		b	.L29
 470              	.LVL67:
 471              	.L26:
 584:Source\LwIP\src\api/api_msg.c ****     if (msg->conn->pcb.udp != NULL) {
 472              		.loc 1 584 0
 473 0034 0020     		movs	r0, #0
 474              	.LVL68:
 475 0036 FFF7FEFF 		bl	udp_new_ip_type
 476              	.LVL69:
 477 003a 6860     		str	r0, [r5, #4]
 585:Source\LwIP\src\api/api_msg.c **** #if LWIP_UDPLITE
 478              		.loc 1 585 0
 479 003c 2368     		ldr	r3, [r4]
 480 003e 5A68     		ldr	r2, [r3, #4]
 481 0040 002A     		cmp	r2, #0
 482 0042 18D0     		beq	.L29
 591:Source\LwIP\src\api/api_msg.c ****         udp_setflags(msg->conn->pcb.udp, UDP_FLAGS_NOCHKSUM);
 483              		.loc 1 591 0
 484 0044 1B78     		ldrb	r3, [r3]
 485 0046 222B     		cmp	r3, #34
 486 0048 01D1     		bne	.L30
 592:Source\LwIP\src\api/api_msg.c ****       }
 487              		.loc 1 592 0
 488 004a 213B     		subs	r3, r3, #33
 489 004c 1374     		strb	r3, [r2, #16]
 490              	.L30:
 594:Source\LwIP\src\api/api_msg.c ****     }
 491              		.loc 1 594 0
 492 004e 2268     		ldr	r2, [r4]
 493 0050 5068     		ldr	r0, [r2, #4]
 494 0052 0D49     		ldr	r1, .L33+4
 495 0054 FFF7FEFF 		bl	udp_recv
 496              	.LVL70:
 497 0058 0DE0     		b	.L29
 498              	.LVL71:
 499              	.L28:
 600:Source\LwIP\src\api/api_msg.c ****     if (msg->conn->pcb.tcp != NULL) {
 500              		.loc 1 600 0
 501 005a 0020     		movs	r0, #0
 502              	.LVL72:
 503 005c FFF7FEFF 		bl	tcp_new_ip_type
 504              	.LVL73:
 505 0060 6860     		str	r0, [r5, #4]
 601:Source\LwIP\src\api/api_msg.c ****       setup_tcp(msg->conn);
 506              		.loc 1 601 0
 507 0062 2068     		ldr	r0, [r4]
 508 0064 4368     		ldr	r3, [r0, #4]
 509 0066 002B     		cmp	r3, #0
 510 0068 05D0     		beq	.L29
 602:Source\LwIP\src\api/api_msg.c ****     }
 511              		.loc 1 602 0
 512 006a FFF7FEFF 		bl	setup_tcp
 513              	.LVL74:
ARM GAS  C:\Users\Phuong\AppData\Local\Temp\ccTHzCbL.s 			page 45


 514 006e 02E0     		b	.L29
 515              	.LVL75:
 516              	.L32:
 608:Source\LwIP\src\api/api_msg.c ****     return;
 517              		.loc 1 608 0
 518 0070 FA23     		movs	r3, #250
 519 0072 0371     		strb	r3, [r0, #4]
 609:Source\LwIP\src\api/api_msg.c ****   }
 520              		.loc 1 609 0
 521 0074 05E0     		b	.L24
 522              	.LVL76:
 523              	.L29:
 611:Source\LwIP\src\api/api_msg.c ****     msg->err = ERR_MEM;
 524              		.loc 1 611 0
 525 0076 2368     		ldr	r3, [r4]
 526 0078 5B68     		ldr	r3, [r3, #4]
 527 007a 002B     		cmp	r3, #0
 528 007c 01D1     		bne	.L24
 612:Source\LwIP\src\api/api_msg.c ****   }
 529              		.loc 1 612 0
 530 007e FF33     		adds	r3, r3, #255
 531 0080 2371     		strb	r3, [r4, #4]
 532              	.L24:
 614:Source\LwIP\src\api/api_msg.c **** 
 533              		.loc 1 614 0
 534              		@ sp needed
 535              	.LVL77:
 536 0082 70BD     		pop	{r4, r5, r6, pc}
 537              	.L34:
 538              		.align	2
 539              	.L33:
 540 0084 00000000 		.word	recv_raw
 541 0088 00000000 		.word	recv_udp
 542              		.cfi_endproc
 543              	.LFE61:
 544              		.size	pcb_new, .-pcb_new
 545              		.section	.text.lwip_netconn_do_connected,"ax",%progbits
 546              		.align	2
 547              		.code	16
 548              		.thumb_func
 549              		.type	lwip_netconn_do_connected, %function
 550              	lwip_netconn_do_connected:
 551              	.LFB69:
1163:Source\LwIP\src\api/api_msg.c ****   struct netconn *conn;
 552              		.loc 1 1163 0
 553              		.cfi_startproc
 554              		@ args = 0, pretend = 0, frame = 0
 555              		@ frame_needed = 0, uses_anonymous_args = 0
 556              	.LVL78:
 557 0000 70B5     		push	{r4, r5, r6, lr}
 558              		.cfi_def_cfa_offset 16
 559              		.cfi_offset 4, -16
 560              		.cfi_offset 5, -12
 561              		.cfi_offset 6, -8
 562              		.cfi_offset 14, -4
 563 0002 041E     		subs	r4, r0, #0
 564              	.LVL79:
ARM GAS  C:\Users\Phuong\AppData\Local\Temp\ccTHzCbL.s 			page 46


1172:Source\LwIP\src\api/api_msg.c ****     return ERR_VAL;
 565              		.loc 1 1172 0
 566 0004 36D0     		beq	.L42
1177:Source\LwIP\src\api/api_msg.c ****     (conn->current_msg != NULL) || IN_NONBLOCKING_CONNECT(conn));
 567              		.loc 1 1177 0
 568 0006 836A     		ldr	r3, [r0, #40]
1180:Source\LwIP\src\api/api_msg.c ****     conn->current_msg->err = err;
 569              		.loc 1 1180 0
 570 0008 002B     		cmp	r3, #0
 571 000a 04D0     		beq	.L43
1181:Source\LwIP\src\api/api_msg.c ****     op_completed_sem = LWIP_API_MSG_SEM(conn->current_msg);
 572              		.loc 1 1181 0
 573 000c 1A71     		strb	r2, [r3, #4]
1182:Source\LwIP\src\api/api_msg.c ****   }
 574              		.loc 1 1182 0
 575 000e 836A     		ldr	r3, [r0, #40]
 576 0010 1E68     		ldr	r6, [r3]
 577 0012 0C36     		adds	r6, r6, #12
 578              	.LVL80:
 579 0014 00E0     		b	.L37
 580              	.LVL81:
 581              	.L43:
1166:Source\LwIP\src\api/api_msg.c **** 
 582              		.loc 1 1166 0
 583 0016 0026     		movs	r6, #0
 584              	.LVL82:
 585              	.L37:
1184:Source\LwIP\src\api/api_msg.c ****     setup_tcp(conn);
 586              		.loc 1 1184 0
 587 0018 2378     		ldrb	r3, [r4]
 588 001a 0F21     		movs	r1, #15
 589              	.LVL83:
 590 001c 8B43     		bics	r3, r1
 591 001e 102B     		cmp	r3, #16
 592 0020 04D1     		bne	.L38
1184:Source\LwIP\src\api/api_msg.c ****     setup_tcp(conn);
 593              		.loc 1 1184 0 is_stmt 0 discriminator 1
 594 0022 002A     		cmp	r2, #0
 595 0024 02D1     		bne	.L38
1185:Source\LwIP\src\api/api_msg.c ****   }
 596              		.loc 1 1185 0 is_stmt 1
 597 0026 2000     		movs	r0, r4
 598              	.LVL84:
 599 0028 FFF7FEFF 		bl	setup_tcp
 600              	.LVL85:
 601              	.L38:
1187:Source\LwIP\src\api/api_msg.c ****   SET_NONBLOCKING_CONNECT(conn, 0);
 602              		.loc 1 1187 0
 603 002c 2022     		movs	r2, #32
 604 002e A35C     		ldrb	r3, [r4, r2]
 605 0030 0425     		movs	r5, #4
 606 0032 1D40     		ands	r5, r3
 607              	.LVL86:
1188:Source\LwIP\src\api/api_msg.c ****   LWIP_ASSERT("blocking connect state error",
 608              		.loc 1 1188 0
 609 0034 0421     		movs	r1, #4
 610 0036 8B43     		bics	r3, r1
ARM GAS  C:\Users\Phuong\AppData\Local\Temp\ccTHzCbL.s 			page 47


 611 0038 A354     		strb	r3, [r4, r2]
1192:Source\LwIP\src\api/api_msg.c ****   conn->state = NETCONN_NONE;
 612              		.loc 1 1192 0
 613 003a 0023     		movs	r3, #0
 614 003c A362     		str	r3, [r4, #40]
1193:Source\LwIP\src\api/api_msg.c ****   NETCONN_SET_SAFE_ERR(conn, ERR_OK);
 615              		.loc 1 1193 0
 616 003e 6370     		strb	r3, [r4, #1]
1194:Source\LwIP\src\api/api_msg.c ****   API_EVENT(conn, NETCONN_EVT_SENDPLUS, 0);
 617              		.loc 1 1194 0
 618 0040 002C     		cmp	r4, #0
 619 0042 09D0     		beq	.L39
 620              	.LBB3:
1194:Source\LwIP\src\api/api_msg.c ****   API_EVENT(conn, NETCONN_EVT_SENDPLUS, 0);
 621              		.loc 1 1194 0 is_stmt 0 discriminator 1
 622 0044 FFF7FEFF 		bl	sys_arch_protect
 623              	.LVL87:
 624 0048 0823     		movs	r3, #8
 625 004a E356     		ldrsb	r3, [r4, r3]
 626 004c 0C33     		adds	r3, r3, #12
 627 004e 01DB     		blt	.L40
1194:Source\LwIP\src\api/api_msg.c ****   API_EVENT(conn, NETCONN_EVT_SENDPLUS, 0);
 628              		.loc 1 1194 0 discriminator 2
 629 0050 0023     		movs	r3, #0
 630 0052 2372     		strb	r3, [r4, #8]
 631              	.L40:
1194:Source\LwIP\src\api/api_msg.c ****   API_EVENT(conn, NETCONN_EVT_SENDPLUS, 0);
 632              		.loc 1 1194 0 discriminator 4
 633 0054 FFF7FEFF 		bl	sys_arch_unprotect
 634              	.LVL88:
 635              	.L39:
 636              	.LBE3:
1195:Source\LwIP\src\api/api_msg.c **** 
 637              		.loc 1 1195 0 is_stmt 1
 638 0058 E36A     		ldr	r3, [r4, #44]
 639 005a 002B     		cmp	r3, #0
 640 005c 03D0     		beq	.L41
1195:Source\LwIP\src\api/api_msg.c **** 
 641              		.loc 1 1195 0 is_stmt 0 discriminator 1
 642 005e 0022     		movs	r2, #0
 643 0060 0221     		movs	r1, #2
 644 0062 2000     		movs	r0, r4
 645 0064 9847     		blx	r3
 646              	.LVL89:
 647              	.L41:
1197:Source\LwIP\src\api/api_msg.c ****     sys_sem_signal(op_completed_sem);
 648              		.loc 1 1197 0 is_stmt 1
 649 0066 002D     		cmp	r5, #0
 650 0068 07D1     		bne	.L44
1198:Source\LwIP\src\api/api_msg.c ****   }
 651              		.loc 1 1198 0
 652 006a 3000     		movs	r0, r6
 653 006c FFF7FEFF 		bl	sys_sem_signal
 654              	.LVL90:
1200:Source\LwIP\src\api/api_msg.c **** }
 655              		.loc 1 1200 0
 656 0070 0020     		movs	r0, #0
ARM GAS  C:\Users\Phuong\AppData\Local\Temp\ccTHzCbL.s 			page 48


 657 0072 03E0     		b	.L36
 658              	.LVL91:
 659              	.L42:
1173:Source\LwIP\src\api/api_msg.c ****   }
 660              		.loc 1 1173 0
 661 0074 0620     		movs	r0, #6
 662              	.LVL92:
 663 0076 4042     		rsbs	r0, r0, #0
 664 0078 00E0     		b	.L36
 665              	.LVL93:
 666              	.L44:
1200:Source\LwIP\src\api/api_msg.c **** }
 667              		.loc 1 1200 0
 668 007a 0020     		movs	r0, #0
 669              	.LVL94:
 670              	.L36:
1201:Source\LwIP\src\api/api_msg.c **** #endif /* LWIP_TCP */
 671              		.loc 1 1201 0
 672              		@ sp needed
 673              	.LVL95:
 674 007c 70BD     		pop	{r4, r5, r6, pc}
 675              		.cfi_endproc
 676              	.LFE69:
 677              		.size	lwip_netconn_do_connected, .-lwip_netconn_do_connected
 678 007e C046     		.section	.text.err_tcp,"ax",%progbits
 679              		.align	2
 680              		.code	16
 681              		.thumb_func
 682              		.type	err_tcp, %function
 683              	err_tcp:
 684              	.LFB58:
 383:Source\LwIP\src\api/api_msg.c ****   struct netconn *conn;
 685              		.loc 1 383 0
 686              		.cfi_startproc
 687              		@ args = 0, pretend = 0, frame = 0
 688              		@ frame_needed = 0, uses_anonymous_args = 0
 689              	.LVL96:
 690 0000 F8B5     		push	{r3, r4, r5, r6, r7, lr}
 691              		.cfi_def_cfa_offset 24
 692              		.cfi_offset 3, -24
 693              		.cfi_offset 4, -20
 694              		.cfi_offset 5, -16
 695              		.cfi_offset 6, -12
 696              		.cfi_offset 7, -8
 697              		.cfi_offset 14, -4
 698 0002 0400     		movs	r4, r0
 699 0004 0E00     		movs	r6, r1
 700              	.LVL97:
 390:Source\LwIP\src\api/api_msg.c **** 
 701              		.loc 1 390 0
 702 0006 0023     		movs	r3, #0
 703 0008 4360     		str	r3, [r0, #4]
 393:Source\LwIP\src\api/api_msg.c ****   conn->state = NETCONN_NONE;
 704              		.loc 1 393 0
 705 000a 4578     		ldrb	r5, [r0, #1]
 706              	.LVL98:
 394:Source\LwIP\src\api/api_msg.c **** 
ARM GAS  C:\Users\Phuong\AppData\Local\Temp\ccTHzCbL.s 			page 49


 707              		.loc 1 394 0
 708 000c 4370     		strb	r3, [r0, #1]
 396:Source\LwIP\src\api/api_msg.c ****     /* RST during close: let close return success & dealloc the netconn */
 709              		.loc 1 396 0
 710 000e 042D     		cmp	r5, #4
 711 0010 0DD1     		bne	.L46
 712              	.LVL99:
 399:Source\LwIP\src\api/api_msg.c ****   } else {
 713              		.loc 1 399 0
 714 0012 0028     		cmp	r0, #0
 715 0014 11D0     		beq	.L58
 716              	.LBB4:
 399:Source\LwIP\src\api/api_msg.c ****   } else {
 717              		.loc 1 399 0 is_stmt 0 discriminator 1
 718 0016 FFF7FEFF 		bl	sys_arch_protect
 719              	.LVL100:
 720 001a 0823     		movs	r3, #8
 721 001c E356     		ldrsb	r3, [r4, r3]
 722 001e 0C33     		adds	r3, r3, #12
 723 0020 01DB     		blt	.L48
 399:Source\LwIP\src\api/api_msg.c ****   } else {
 724              		.loc 1 399 0 discriminator 2
 725 0022 0023     		movs	r3, #0
 726 0024 2372     		strb	r3, [r4, #8]
 727              	.L48:
 399:Source\LwIP\src\api/api_msg.c ****   } else {
 728              		.loc 1 399 0 discriminator 4
 729 0026 FFF7FEFF 		bl	sys_arch_unprotect
 730              	.LVL101:
 731              	.LBE4:
 398:Source\LwIP\src\api/api_msg.c ****     NETCONN_SET_SAFE_ERR(conn, ERR_OK);
 732              		.loc 1 398 0 is_stmt 1 discriminator 4
 733 002a 0026     		movs	r6, #0
 734 002c 06E0     		b	.L47
 735              	.LVL102:
 736              	.L46:
 737              	.LBB5:
 402:Source\LwIP\src\api/api_msg.c ****   }
 738              		.loc 1 402 0
 739 002e FFF7FEFF 		bl	sys_arch_protect
 740              	.LVL103:
 741 0032 2672     		strb	r6, [r4, #8]
 742 0034 FFF7FEFF 		bl	sys_arch_unprotect
 743              	.LVL104:
 744 0038 00E0     		b	.L47
 745              	.LVL105:
 746              	.L58:
 747              	.LBE5:
 398:Source\LwIP\src\api/api_msg.c ****     NETCONN_SET_SAFE_ERR(conn, ERR_OK);
 748              		.loc 1 398 0
 749 003a 0026     		movs	r6, #0
 750              	.LVL106:
 751              	.L47:
 408:Source\LwIP\src\api/api_msg.c ****   /* Try to release selects pending on 'read' or 'write', too.
 752              		.loc 1 408 0
 753 003c E36A     		ldr	r3, [r4, #44]
 754 003e 002B     		cmp	r3, #0
ARM GAS  C:\Users\Phuong\AppData\Local\Temp\ccTHzCbL.s 			page 50


 755 0040 03D0     		beq	.L49
 408:Source\LwIP\src\api/api_msg.c ****   /* Try to release selects pending on 'read' or 'write', too.
 756              		.loc 1 408 0 is_stmt 0 discriminator 1
 757 0042 0022     		movs	r2, #0
 758 0044 0421     		movs	r1, #4
 759 0046 2000     		movs	r0, r4
 760 0048 9847     		blx	r3
 761              	.LVL107:
 762              	.L49:
 411:Source\LwIP\src\api/api_msg.c ****   API_EVENT(conn, NETCONN_EVT_SENDPLUS, 0);
 763              		.loc 1 411 0 is_stmt 1
 764 004a E36A     		ldr	r3, [r4, #44]
 765 004c 002B     		cmp	r3, #0
 766 004e 03D0     		beq	.L50
 411:Source\LwIP\src\api/api_msg.c ****   API_EVENT(conn, NETCONN_EVT_SENDPLUS, 0);
 767              		.loc 1 411 0 is_stmt 0 discriminator 1
 768 0050 0022     		movs	r2, #0
 769 0052 0021     		movs	r1, #0
 770 0054 2000     		movs	r0, r4
 771 0056 9847     		blx	r3
 772              	.LVL108:
 773              	.L50:
 412:Source\LwIP\src\api/api_msg.c **** 
 774              		.loc 1 412 0 is_stmt 1
 775 0058 E36A     		ldr	r3, [r4, #44]
 776 005a 002B     		cmp	r3, #0
 777 005c 03D0     		beq	.L51
 412:Source\LwIP\src\api/api_msg.c **** 
 778              		.loc 1 412 0 is_stmt 0 discriminator 1
 779 005e 0022     		movs	r2, #0
 780 0060 0221     		movs	r1, #2
 781 0062 2000     		movs	r0, r4
 782 0064 9847     		blx	r3
 783              	.LVL109:
 784              	.L51:
 415:Source\LwIP\src\api/api_msg.c ****     /* use trypost to prevent deadlock */
 785              		.loc 1 415 0 is_stmt 1
 786 0066 2700     		movs	r7, r4
 787 0068 1037     		adds	r7, r7, #16
 788 006a 3800     		movs	r0, r7
 789 006c FFF7FEFF 		bl	sys_mbox_valid
 790              	.LVL110:
 791 0070 0028     		cmp	r0, #0
 792 0072 03D0     		beq	.L52
 417:Source\LwIP\src\api/api_msg.c ****   }
 793              		.loc 1 417 0
 794 0074 0021     		movs	r1, #0
 795 0076 3800     		movs	r0, r7
 796 0078 FFF7FEFF 		bl	sys_mbox_trypost
 797              	.LVL111:
 798              	.L52:
 420:Source\LwIP\src\api/api_msg.c ****     /* use trypost to preven deadlock */
 799              		.loc 1 420 0
 800 007c 2700     		movs	r7, r4
 801 007e 1437     		adds	r7, r7, #20
 802 0080 3800     		movs	r0, r7
 803 0082 FFF7FEFF 		bl	sys_mbox_valid
ARM GAS  C:\Users\Phuong\AppData\Local\Temp\ccTHzCbL.s 			page 51


 804              	.LVL112:
 805 0086 0028     		cmp	r0, #0
 806 0088 03D0     		beq	.L53
 422:Source\LwIP\src\api/api_msg.c ****   }
 807              		.loc 1 422 0
 808 008a 0021     		movs	r1, #0
 809 008c 3800     		movs	r0, r7
 810 008e FFF7FEFF 		bl	sys_mbox_trypost
 811              	.LVL113:
 812              	.L53:
 425:Source\LwIP\src\api/api_msg.c ****       (old_state == NETCONN_CONNECT)) {
 813              		.loc 1 425 0
 814 0092 012D     		cmp	r5, #1
 815 0094 03D0     		beq	.L54
 425:Source\LwIP\src\api/api_msg.c ****       (old_state == NETCONN_CONNECT)) {
 816              		.loc 1 425 0 is_stmt 0 discriminator 1
 817 0096 042D     		cmp	r5, #4
 818 0098 01D0     		beq	.L54
 425:Source\LwIP\src\api/api_msg.c ****       (old_state == NETCONN_CONNECT)) {
 819              		.loc 1 425 0 discriminator 2
 820 009a 032D     		cmp	r5, #3
 821 009c 1FD1     		bne	.L45
 822              	.L54:
 823              	.LBB6:
 429:Source\LwIP\src\api/api_msg.c ****     SET_NONBLOCKING_CONNECT(conn, 0);
 824              		.loc 1 429 0 is_stmt 1
 825 009e 2022     		movs	r2, #32
 826 00a0 A35C     		ldrb	r3, [r4, r2]
 827              	.LVL114:
 430:Source\LwIP\src\api/api_msg.c **** 
 828              		.loc 1 430 0
 829 00a2 0421     		movs	r1, #4
 830 00a4 1800     		movs	r0, r3
 831 00a6 8843     		bics	r0, r1
 832 00a8 A054     		strb	r0, [r4, r2]
 432:Source\LwIP\src\api/api_msg.c ****       sys_sem_t* op_completed_sem;
 833              		.loc 1 432 0
 834 00aa 5B07     		lsls	r3, r3, #29
 835 00ac 17D4     		bmi	.L45
 836              	.LVL115:
 837              	.LBB7:
 436:Source\LwIP\src\api/api_msg.c ****       op_completed_sem = LWIP_API_MSG_SEM(conn->current_msg);
 838              		.loc 1 436 0
 839 00ae A36A     		ldr	r3, [r4, #40]
 840 00b0 1E71     		strb	r6, [r3, #4]
 437:Source\LwIP\src\api/api_msg.c ****       LWIP_ASSERT("inavlid op_completed_sem", sys_sem_valid(op_completed_sem));
 841              		.loc 1 437 0
 842 00b2 A36A     		ldr	r3, [r4, #40]
 843 00b4 1D68     		ldr	r5, [r3]
 844              	.LVL116:
 845 00b6 0C35     		adds	r5, r5, #12
 846              	.LVL117:
 438:Source\LwIP\src\api/api_msg.c ****       conn->current_msg = NULL;
 847              		.loc 1 438 0
 848 00b8 2800     		movs	r0, r5
 849 00ba FFF7FEFF 		bl	sys_sem_valid
 850              	.LVL118:
ARM GAS  C:\Users\Phuong\AppData\Local\Temp\ccTHzCbL.s 			page 52


 439:Source\LwIP\src\api/api_msg.c ****       /* wake up the waiting task */
 851              		.loc 1 439 0
 852 00be 0023     		movs	r3, #0
 853 00c0 A362     		str	r3, [r4, #40]
 441:Source\LwIP\src\api/api_msg.c ****       sys_sem_signal(op_completed_sem);
 854              		.loc 1 441 0
 855 00c2 002C     		cmp	r4, #0
 856 00c4 08D0     		beq	.L56
 857              	.LBB8:
 441:Source\LwIP\src\api/api_msg.c ****       sys_sem_signal(op_completed_sem);
 858              		.loc 1 441 0 is_stmt 0 discriminator 1
 859 00c6 FFF7FEFF 		bl	sys_arch_protect
 860              	.LVL119:
 861 00ca 0823     		movs	r3, #8
 862 00cc E356     		ldrsb	r3, [r4, r3]
 863 00ce 0C33     		adds	r3, r3, #12
 864 00d0 00DB     		blt	.L57
 441:Source\LwIP\src\api/api_msg.c ****       sys_sem_signal(op_completed_sem);
 865              		.loc 1 441 0 discriminator 2
 866 00d2 2672     		strb	r6, [r4, #8]
 867              	.L57:
 441:Source\LwIP\src\api/api_msg.c ****       sys_sem_signal(op_completed_sem);
 868              		.loc 1 441 0 discriminator 4
 869 00d4 FFF7FEFF 		bl	sys_arch_unprotect
 870              	.LVL120:
 871              	.L56:
 872              	.LBE8:
 442:Source\LwIP\src\api/api_msg.c ****     }
 873              		.loc 1 442 0 is_stmt 1
 874 00d8 2800     		movs	r0, r5
 875 00da FFF7FEFF 		bl	sys_sem_signal
 876              	.LVL121:
 877              	.L45:
 878              	.LBE7:
 879              	.LBE6:
 447:Source\LwIP\src\api/api_msg.c **** 
 880              		.loc 1 447 0
 881              		@ sp needed
 882              	.LVL122:
 883              	.LVL123:
 884              	.LVL124:
 885 00de F8BD     		pop	{r3, r4, r5, r6, r7, pc}
 886              		.cfi_endproc
 887              	.LFE58:
 888              		.size	err_tcp, .-err_tcp
 889              		.section	.text.lwip_netconn_do_writemore,"ax",%progbits
 890              		.align	2
 891              		.code	16
 892              		.thumb_func
 893              		.type	lwip_netconn_do_writemore, %function
 894              	lwip_netconn_do_writemore:
 895              	.LFB76:
1498:Source\LwIP\src\api/api_msg.c ****   err_t err;
 896              		.loc 1 1498 0
 897              		.cfi_startproc
 898              		@ args = 0, pretend = 0, frame = 0
 899              		@ frame_needed = 0, uses_anonymous_args = 0
ARM GAS  C:\Users\Phuong\AppData\Local\Temp\ccTHzCbL.s 			page 53


 900              	.LVL125:
 901 0000 F8B5     		push	{r3, r4, r5, r6, r7, lr}
 902              		.cfi_def_cfa_offset 24
 903              		.cfi_offset 3, -24
 904              		.cfi_offset 4, -20
 905              		.cfi_offset 5, -16
 906              		.cfi_offset 6, -12
 907              		.cfi_offset 7, -8
 908              		.cfi_offset 14, -4
 909 0002 0400     		movs	r4, r0
 910              	.LVL126:
1511:Source\LwIP\src\api/api_msg.c ****     conn->write_offset < conn->current_msg->msg.w.len);
 911              		.loc 1 1511 0
 912 0004 806A     		ldr	r0, [r0, #40]
 913              	.LVL127:
1514:Source\LwIP\src\api/api_msg.c ****   dontblock = netconn_is_nonblocking(conn) || (apiflags & NETCONN_DONTBLOCK);
 914              		.loc 1 1514 0
 915 0006 037C     		ldrb	r3, [r0, #16]
 916              	.LVL128:
1515:Source\LwIP\src\api/api_msg.c **** 
 917              		.loc 1 1515 0
 918 0008 2022     		movs	r2, #32
 919 000a A25C     		ldrb	r2, [r4, r2]
 920 000c 9207     		lsls	r2, r2, #30
 921 000e 03D4     		bmi	.L81
1515:Source\LwIP\src\api/api_msg.c **** 
 922              		.loc 1 1515 0 is_stmt 0 discriminator 2
 923 0010 5A07     		lsls	r2, r3, #29
 924 0012 03D5     		bpl	.L82
1515:Source\LwIP\src\api/api_msg.c **** 
 925              		.loc 1 1515 0
 926 0014 0125     		movs	r5, #1
 927 0016 02E0     		b	.L60
 928              	.L81:
 929 0018 0125     		movs	r5, #1
 930 001a 00E0     		b	.L60
 931              	.L82:
 932 001c 0025     		movs	r5, #0
 933              	.L60:
1515:Source\LwIP\src\api/api_msg.c **** 
 934              		.loc 1 1515 0 discriminator 6
 935 001e EDB2     		uxtb	r5, r5
 936              	.LVL129:
1534:Source\LwIP\src\api/api_msg.c ****     diff = conn->current_msg->msg.w.len - conn->write_offset;
 937              		.loc 1 1534 0 is_stmt 1 discriminator 6
 938 0020 666A     		ldr	r6, [r4, #36]
 939 0022 8268     		ldr	r2, [r0, #8]
 940 0024 9119     		adds	r1, r2, r6
 941              	.LVL130:
1535:Source\LwIP\src\api/api_msg.c ****     if (diff > 0xffffUL) { /* max_u16_t */
 942              		.loc 1 1535 0 discriminator 6
 943 0026 C268     		ldr	r2, [r0, #12]
 944 0028 921B     		subs	r2, r2, r6
 945              	.LVL131:
1536:Source\LwIP\src\api/api_msg.c ****       len = 0xffff;
 946              		.loc 1 1536 0 discriminator 6
 947 002a 5048     		ldr	r0, .L87
ARM GAS  C:\Users\Phuong\AppData\Local\Temp\ccTHzCbL.s 			page 54


 948 002c 8242     		cmp	r2, r0
 949 002e 04D9     		bls	.L61
 950              	.LVL132:
1538:Source\LwIP\src\api/api_msg.c ****     } else {
 951              		.loc 1 1538 0
 952 0030 0222     		movs	r2, #2
 953              	.LVL133:
 954 0032 1343     		orrs	r3, r2
 955              	.LVL134:
 956 0034 DBB2     		uxtb	r3, r3
 957              	.LVL135:
1537:Source\LwIP\src\api/api_msg.c ****       apiflags |= TCP_WRITE_FLAG_MORE;
 958              		.loc 1 1537 0
 959 0036 0200     		movs	r2, r0
 960 0038 00E0     		b	.L62
 961              	.LVL136:
 962              	.L61:
1540:Source\LwIP\src\api/api_msg.c ****     }
 963              		.loc 1 1540 0
 964 003a 92B2     		uxth	r2, r2
 965              	.LVL137:
 966              	.L62:
1542:Source\LwIP\src\api/api_msg.c ****     if (available < len) {
 967              		.loc 1 1542 0
 968 003c 6068     		ldr	r0, [r4, #4]
 969 003e 6026     		movs	r6, #96
 970              	.LVL138:
 971 0040 865B     		ldrh	r6, [r0, r6]
 972              	.LVL139:
1543:Source\LwIP\src\api/api_msg.c ****       /* don't try to write more than sendbuf */
 973              		.loc 1 1543 0
 974 0042 B242     		cmp	r2, r6
 975 0044 08D9     		bls	.L83
 976              	.LVL140:
1546:Source\LwIP\src\api/api_msg.c ****         if (!len) {
 977              		.loc 1 1546 0
 978 0046 002D     		cmp	r5, #0
 979 0048 02D0     		beq	.L64
1547:Source\LwIP\src\api/api_msg.c ****           err = ERR_WOULDBLOCK;
 980              		.loc 1 1547 0
 981 004a 002E     		cmp	r6, #0
 982 004c 0ED0     		beq	.L84
 983 004e 04E0     		b	.L63
 984              	.L64:
1552:Source\LwIP\src\api/api_msg.c ****       }
 985              		.loc 1 1552 0
 986 0050 0222     		movs	r2, #2
 987 0052 1343     		orrs	r3, r2
 988              	.LVL141:
 989 0054 DBB2     		uxtb	r3, r3
 990              	.LVL142:
 991 0056 00E0     		b	.L63
 992              	.LVL143:
 993              	.L83:
 994 0058 1600     		movs	r6, r2
 995              	.LVL144:
 996              	.L63:
ARM GAS  C:\Users\Phuong\AppData\Local\Temp\ccTHzCbL.s 			page 55


1556:Source\LwIP\src\api/api_msg.c ****     /* if OK or memory error, check available space */
 997              		.loc 1 1556 0
 998 005a 3200     		movs	r2, r6
 999 005c FFF7FEFF 		bl	tcp_write
 1000              	.LVL145:
 1001 0060 0700     		movs	r7, r0
 1002              	.LVL146:
1558:Source\LwIP\src\api/api_msg.c **** err_mem:
 1003              		.loc 1 1558 0
 1004 0062 0130     		adds	r0, r0, #1
 1005              	.LVL147:
 1006 0064 C0B2     		uxtb	r0, r0
 1007 0066 0128     		cmp	r0, #1
 1008 0068 26D8     		bhi	.L66
 1009 006a 01E0     		b	.L65
 1010              	.LVL148:
 1011              	.L84:
1548:Source\LwIP\src\api/api_msg.c ****           goto err_mem;
 1012              		.loc 1 1548 0
 1013 006c 0727     		movs	r7, #7
 1014 006e 7F42     		rsbs	r7, r7, #0
 1015              	.LVL149:
 1016              	.L65:
1560:Source\LwIP\src\api/api_msg.c ****         /* non-blocking write did not write everything: mark the pcb non-writable
 1017              		.loc 1 1560 0
 1018 0070 002D     		cmp	r5, #0
 1019 0072 10D0     		beq	.L67
1560:Source\LwIP\src\api/api_msg.c ****         /* non-blocking write did not write everything: mark the pcb non-writable
 1020              		.loc 1 1560 0 is_stmt 0 discriminator 1
 1021 0074 A36A     		ldr	r3, [r4, #40]
 1022 0076 DB68     		ldr	r3, [r3, #12]
 1023 0078 9E42     		cmp	r6, r3
 1024 007a 0CD2     		bcs	.L67
1563:Source\LwIP\src\api/api_msg.c ****         conn->flags |= NETCONN_FLAG_CHECK_WRITESPACE;
 1025              		.loc 1 1563 0 is_stmt 1
 1026 007c E36A     		ldr	r3, [r4, #44]
 1027 007e 002B     		cmp	r3, #0
 1028 0080 03D0     		beq	.L68
1563:Source\LwIP\src\api/api_msg.c ****         conn->flags |= NETCONN_FLAG_CHECK_WRITESPACE;
 1029              		.loc 1 1563 0 is_stmt 0 discriminator 1
 1030 0082 3200     		movs	r2, r6
 1031 0084 0321     		movs	r1, #3
 1032 0086 2000     		movs	r0, r4
 1033 0088 9847     		blx	r3
 1034              	.LVL150:
 1035              	.L68:
1564:Source\LwIP\src\api/api_msg.c ****       } else if ((tcp_sndbuf(conn->pcb.tcp) <= TCP_SNDLOWAT) ||
 1036              		.loc 1 1564 0 is_stmt 1
 1037 008a 2022     		movs	r2, #32
 1038 008c A15C     		ldrb	r1, [r4, r2]
 1039 008e 1023     		movs	r3, #16
 1040 0090 0B43     		orrs	r3, r1
 1041 0092 A354     		strb	r3, [r4, r2]
 1042 0094 10E0     		b	.L66
 1043              	.L67:
1565:Source\LwIP\src\api/api_msg.c ****                  (tcp_sndqueuelen(conn->pcb.tcp) >= TCP_SNDQUEUELOWAT)) {
 1044              		.loc 1 1565 0
ARM GAS  C:\Users\Phuong\AppData\Local\Temp\ccTHzCbL.s 			page 56


 1045 0096 6368     		ldr	r3, [r4, #4]
 1046 0098 6022     		movs	r2, #96
 1047 009a 995A     		ldrh	r1, [r3, r2]
 1048 009c 344A     		ldr	r2, .L87+4
 1049 009e 9142     		cmp	r1, r2
 1050 00a0 03D9     		bls	.L69
1566:Source\LwIP\src\api/api_msg.c ****         /* The queued byte- or pbuf-count exceeds the configured low-water limit,
 1051              		.loc 1 1566 0 discriminator 1
 1052 00a2 6222     		movs	r2, #98
 1053 00a4 9B5A     		ldrh	r3, [r3, r2]
1565:Source\LwIP\src\api/api_msg.c ****                  (tcp_sndqueuelen(conn->pcb.tcp) >= TCP_SNDQUEUELOWAT)) {
 1054              		.loc 1 1565 0 discriminator 1
 1055 00a6 0B2B     		cmp	r3, #11
 1056 00a8 06D9     		bls	.L66
 1057              	.L69:
1569:Source\LwIP\src\api/api_msg.c ****       }
 1058              		.loc 1 1569 0
 1059 00aa E36A     		ldr	r3, [r4, #44]
 1060 00ac 002B     		cmp	r3, #0
 1061 00ae 03D0     		beq	.L66
1569:Source\LwIP\src\api/api_msg.c ****       }
 1062              		.loc 1 1569 0 is_stmt 0 discriminator 1
 1063 00b0 3200     		movs	r2, r6
 1064 00b2 0321     		movs	r1, #3
 1065 00b4 2000     		movs	r0, r4
 1066 00b6 9847     		blx	r3
 1067              	.LVL151:
 1068              	.L66:
1573:Source\LwIP\src\api/api_msg.c ****       err_t out_err;
 1069              		.loc 1 1573 0 is_stmt 1
 1070 00b8 002F     		cmp	r7, #0
 1071 00ba 1CD1     		bne	.L70
 1072              	.LBB9:
1575:Source\LwIP\src\api/api_msg.c ****       if ((conn->write_offset == conn->current_msg->msg.w.len) || dontblock) {
 1073              		.loc 1 1575 0
 1074 00bc 636A     		ldr	r3, [r4, #36]
 1075 00be 9C46     		mov	ip, r3
 1076 00c0 6644     		add	r6, r6, ip
 1077              	.LVL152:
 1078 00c2 6662     		str	r6, [r4, #36]
1576:Source\LwIP\src\api/api_msg.c ****         /* return sent length */
 1079              		.loc 1 1576 0
 1080 00c4 A36A     		ldr	r3, [r4, #40]
 1081 00c6 DA68     		ldr	r2, [r3, #12]
 1082 00c8 9642     		cmp	r6, r2
 1083 00ca 01D0     		beq	.L71
1576:Source\LwIP\src\api/api_msg.c ****         /* return sent length */
 1084              		.loc 1 1576 0 is_stmt 0 discriminator 1
 1085 00cc 002D     		cmp	r5, #0
 1086 00ce 02D0     		beq	.L85
 1087              	.L71:
1578:Source\LwIP\src\api/api_msg.c ****         /* everything was written */
 1088              		.loc 1 1578 0 is_stmt 1
 1089 00d0 DE60     		str	r6, [r3, #12]
 1090              	.LVL153:
1580:Source\LwIP\src\api/api_msg.c ****       }
 1091              		.loc 1 1580 0
ARM GAS  C:\Users\Phuong\AppData\Local\Temp\ccTHzCbL.s 			page 57


 1092 00d2 0125     		movs	r5, #1
 1093              	.LVL154:
 1094 00d4 00E0     		b	.L72
 1095              	.LVL155:
 1096              	.L85:
 1097              	.LBE9:
1502:Source\LwIP\src\api/api_msg.c ****   size_t diff;
 1098              		.loc 1 1502 0
 1099 00d6 0025     		movs	r5, #0
 1100              	.LVL156:
 1101              	.L72:
 1102              	.LBB10:
1582:Source\LwIP\src\api/api_msg.c ****       if (ERR_IS_FATAL(out_err) || (out_err == ERR_RTE)) {
 1103              		.loc 1 1582 0
 1104 00d8 6068     		ldr	r0, [r4, #4]
 1105 00da FFF7FEFF 		bl	tcp_output
 1106              	.LVL157:
 1107 00de 0300     		movs	r3, r0
 1108              	.LVL158:
1583:Source\LwIP\src\api/api_msg.c ****         /* If tcp_output fails with fatal error or no route is found,
 1109              		.loc 1 1583 0
 1110 00e0 0200     		movs	r2, r0
 1111 00e2 0C32     		adds	r2, r2, #12
 1112 00e4 01DB     		blt	.L73
1583:Source\LwIP\src\api/api_msg.c ****         /* If tcp_output fails with fatal error or no route is found,
 1113              		.loc 1 1583 0 is_stmt 0 discriminator 1
 1114 00e6 0433     		adds	r3, r3, #4
 1115 00e8 25D1     		bne	.L74
 1116              	.L73:
 1117              	.LVL159:
1589:Source\LwIP\src\api/api_msg.c ****       }
 1118              		.loc 1 1589 0 is_stmt 1
 1119 00ea A36A     		ldr	r3, [r4, #40]
 1120 00ec 0022     		movs	r2, #0
 1121 00ee DA60     		str	r2, [r3, #12]
1587:Source\LwIP\src\api/api_msg.c ****         write_finished = 1;
 1122              		.loc 1 1587 0
 1123 00f0 0700     		movs	r7, r0
1588:Source\LwIP\src\api/api_msg.c ****         conn->current_msg->msg.w.len = 0;
 1124              		.loc 1 1588 0
 1125 00f2 0125     		movs	r5, #1
 1126 00f4 1FE0     		b	.L74
 1127              	.LVL160:
 1128              	.L70:
 1129              	.LBE10:
1591:Source\LwIP\src\api/api_msg.c ****       /* If ERR_MEM, we wait for sent_tcp or poll_tcp to be called.
 1130              		.loc 1 1591 0
 1131 00f6 7B1C     		adds	r3, r7, #1
 1132 00f8 17D1     		bne	.L75
 1133              	.LBB11:
1598:Source\LwIP\src\api/api_msg.c ****       if (ERR_IS_FATAL(out_err) || (out_err == ERR_RTE)) {
 1134              		.loc 1 1598 0
 1135 00fa 6068     		ldr	r0, [r4, #4]
 1136 00fc FFF7FEFF 		bl	tcp_output
 1137              	.LVL161:
 1138 0100 0300     		movs	r3, r0
 1139              	.LVL162:
ARM GAS  C:\Users\Phuong\AppData\Local\Temp\ccTHzCbL.s 			page 58


1599:Source\LwIP\src\api/api_msg.c ****         /* If tcp_output fails with fatal error or no route is found,
 1140              		.loc 1 1599 0
 1141 0102 0200     		movs	r2, r0
 1142 0104 0C32     		adds	r2, r2, #12
 1143 0106 01DB     		blt	.L76
1599:Source\LwIP\src\api/api_msg.c ****         /* If tcp_output fails with fatal error or no route is found,
 1144              		.loc 1 1599 0 is_stmt 0 discriminator 1
 1145 0108 0433     		adds	r3, r3, #4
 1146 010a 05D1     		bne	.L77
 1147              	.L76:
 1148              	.LVL163:
1605:Source\LwIP\src\api/api_msg.c ****       } else if (dontblock) {
 1149              		.loc 1 1605 0 is_stmt 1
 1150 010c A36A     		ldr	r3, [r4, #40]
 1151 010e 0022     		movs	r2, #0
 1152 0110 DA60     		str	r2, [r3, #12]
1603:Source\LwIP\src\api/api_msg.c ****         write_finished = 1;
 1153              		.loc 1 1603 0
 1154 0112 0700     		movs	r7, r0
1604:Source\LwIP\src\api/api_msg.c ****         conn->current_msg->msg.w.len = 0;
 1155              		.loc 1 1604 0
 1156 0114 0125     		movs	r5, #1
 1157              	.LVL164:
1605:Source\LwIP\src\api/api_msg.c ****       } else if (dontblock) {
 1158              		.loc 1 1605 0
 1159 0116 0EE0     		b	.L74
 1160              	.LVL165:
 1161              	.L77:
1606:Source\LwIP\src\api/api_msg.c ****         /* non-blocking write is done on ERR_MEM */
 1162              		.loc 1 1606 0
 1163 0118 002D     		cmp	r5, #0
 1164 011a 0BD0     		beq	.L86
 1165              	.LVL166:
1610:Source\LwIP\src\api/api_msg.c ****       }
 1166              		.loc 1 1610 0
 1167 011c A36A     		ldr	r3, [r4, #40]
 1168 011e 0022     		movs	r2, #0
 1169 0120 DA60     		str	r2, [r3, #12]
1609:Source\LwIP\src\api/api_msg.c ****         conn->current_msg->msg.w.len = 0;
 1170              		.loc 1 1609 0
 1171 0122 0125     		movs	r5, #1
 1172              	.LVL167:
1608:Source\LwIP\src\api/api_msg.c ****         write_finished = 1;
 1173              		.loc 1 1608 0
 1174 0124 0727     		movs	r7, #7
 1175 0126 7F42     		rsbs	r7, r7, #0
 1176 0128 05E0     		b	.L74
 1177              	.LVL168:
 1178              	.L75:
 1179              	.LBE11:
1616:Source\LwIP\src\api/api_msg.c ****     }
 1180              		.loc 1 1616 0
 1181 012a A36A     		ldr	r3, [r4, #40]
 1182 012c 0022     		movs	r2, #0
 1183 012e DA60     		str	r2, [r3, #12]
1615:Source\LwIP\src\api/api_msg.c ****       conn->current_msg->msg.w.len = 0;
 1184              		.loc 1 1615 0
ARM GAS  C:\Users\Phuong\AppData\Local\Temp\ccTHzCbL.s 			page 59


 1185 0130 0125     		movs	r5, #1
 1186              	.LVL169:
 1187 0132 00E0     		b	.L74
 1188              	.LVL170:
 1189              	.L86:
1502:Source\LwIP\src\api/api_msg.c ****   size_t diff;
 1190              		.loc 1 1502 0
 1191 0134 0025     		movs	r5, #0
 1192              	.LVL171:
 1193              	.L74:
1619:Source\LwIP\src\api/api_msg.c ****     /* everything was written: set back connection state
 1194              		.loc 1 1619 0
 1195 0136 002D     		cmp	r5, #0
 1196 0138 15D0     		beq	.L78
 1197              	.LBB12:
1622:Source\LwIP\src\api/api_msg.c ****     conn->current_msg->err = err;
 1198              		.loc 1 1622 0
 1199 013a A36A     		ldr	r3, [r4, #40]
 1200 013c 1D68     		ldr	r5, [r3]
 1201              	.LVL172:
 1202 013e 0C35     		adds	r5, r5, #12
 1203              	.LVL173:
1623:Source\LwIP\src\api/api_msg.c ****     conn->current_msg = NULL;
 1204              		.loc 1 1623 0
 1205 0140 1F71     		strb	r7, [r3, #4]
1624:Source\LwIP\src\api/api_msg.c ****     conn->write_offset = 0;
 1206              		.loc 1 1624 0
 1207 0142 0023     		movs	r3, #0
 1208 0144 A362     		str	r3, [r4, #40]
1625:Source\LwIP\src\api/api_msg.c ****     conn->state = NETCONN_NONE;
 1209              		.loc 1 1625 0
 1210 0146 6362     		str	r3, [r4, #36]
1626:Source\LwIP\src\api/api_msg.c ****     NETCONN_SET_SAFE_ERR(conn, err);
 1211              		.loc 1 1626 0
 1212 0148 6370     		strb	r3, [r4, #1]
1627:Source\LwIP\src\api/api_msg.c **** #if LWIP_TCPIP_CORE_LOCKING
 1213              		.loc 1 1627 0
 1214 014a 002C     		cmp	r4, #0
 1215 014c 08D0     		beq	.L79
 1216              	.LBB13:
1627:Source\LwIP\src\api/api_msg.c **** #if LWIP_TCPIP_CORE_LOCKING
 1217              		.loc 1 1627 0 is_stmt 0 discriminator 1
 1218 014e FFF7FEFF 		bl	sys_arch_protect
 1219              	.LVL174:
 1220 0152 0823     		movs	r3, #8
 1221 0154 E356     		ldrsb	r3, [r4, r3]
 1222 0156 0C33     		adds	r3, r3, #12
 1223 0158 00DB     		blt	.L80
1627:Source\LwIP\src\api/api_msg.c **** #if LWIP_TCPIP_CORE_LOCKING
 1224              		.loc 1 1627 0 discriminator 2
 1225 015a 2772     		strb	r7, [r4, #8]
 1226              	.L80:
1627:Source\LwIP\src\api/api_msg.c **** #if LWIP_TCPIP_CORE_LOCKING
 1227              		.loc 1 1627 0 discriminator 4
 1228 015c FFF7FEFF 		bl	sys_arch_unprotect
 1229              	.LVL175:
 1230              	.L79:
ARM GAS  C:\Users\Phuong\AppData\Local\Temp\ccTHzCbL.s 			page 60


 1231              	.LBE13:
1632:Source\LwIP\src\api/api_msg.c ****     }
 1232              		.loc 1 1632 0 is_stmt 1
 1233 0160 2800     		movs	r0, r5
 1234 0162 FFF7FEFF 		bl	sys_sem_signal
 1235              	.LVL176:
 1236              	.L78:
 1237              	.LBE12:
1641:Source\LwIP\src\api/api_msg.c **** #endif /* LWIP_TCP */
 1238              		.loc 1 1641 0
 1239 0166 0020     		movs	r0, #0
 1240              		@ sp needed
 1241              	.LVL177:
 1242              	.LVL178:
 1243 0168 F8BD     		pop	{r3, r4, r5, r6, r7, pc}
 1244              	.L88:
 1245 016a C046     		.align	2
 1246              	.L87:
 1247 016c FFFF0000 		.word	65535
 1248 0170 1C110000 		.word	4380
 1249              		.cfi_endproc
 1250              	.LFE76:
 1251              		.size	lwip_netconn_do_writemore, .-lwip_netconn_do_writemore
 1252              		.section	.text.lwip_netconn_do_close_internal,"ax",%progbits
 1253              		.align	2
 1254              		.code	16
 1255              		.thumb_func
 1256              		.type	lwip_netconn_do_close_internal, %function
 1257              	lwip_netconn_do_close_internal:
 1258              	.LFB66:
 826:Source\LwIP\src\api/api_msg.c ****   err_t err;
 1259              		.loc 1 826 0
 1260              		.cfi_startproc
 1261              		@ args = 0, pretend = 0, frame = 0
 1262              		@ frame_needed = 0, uses_anonymous_args = 0
 1263              	.LVL179:
 1264 0000 F8B5     		push	{r3, r4, r5, r6, r7, lr}
 1265              		.cfi_def_cfa_offset 24
 1266              		.cfi_offset 3, -24
 1267              		.cfi_offset 4, -20
 1268              		.cfi_offset 5, -16
 1269              		.cfi_offset 6, -12
 1270              		.cfi_offset 7, -8
 1271              		.cfi_offset 14, -4
 1272 0002 4F46     		mov	r7, r9
 1273 0004 4646     		mov	r6, r8
 1274 0006 C0B4     		push	{r6, r7}
 1275              		.cfi_def_cfa_offset 32
 1276              		.cfi_offset 8, -32
 1277              		.cfi_offset 9, -28
 1278 0008 0500     		movs	r5, r0
 1279              	.LVL180:
 841:Source\LwIP\src\api/api_msg.c ****   shut = conn->current_msg->msg.sd.shut;
 1280              		.loc 1 841 0
 1281 000a 4668     		ldr	r6, [r0, #4]
 1282              	.LVL181:
 842:Source\LwIP\src\api/api_msg.c ****   shut_rx = shut & NETCONN_SHUT_RD;
ARM GAS  C:\Users\Phuong\AppData\Local\Temp\ccTHzCbL.s 			page 61


 1283              		.loc 1 842 0
 1284 000c 836A     		ldr	r3, [r0, #40]
 1285 000e 1B7A     		ldrb	r3, [r3, #8]
 1286              	.LVL182:
 843:Source\LwIP\src\api/api_msg.c ****   shut_tx = shut & NETCONN_SHUT_WR;
 1287              		.loc 1 843 0
 1288 0010 0122     		movs	r2, #1
 1289 0012 1A40     		ands	r2, r3
 1290 0014 9046     		mov	r8, r2
 1291              	.LVL183:
 844:Source\LwIP\src\api/api_msg.c ****   /* shutting down both ends is the same as closing
 1292              		.loc 1 844 0
 1293 0016 0227     		movs	r7, #2
 1294 0018 1F40     		ands	r7, r3
 1295              	.LVL184:
 847:Source\LwIP\src\api/api_msg.c ****     close = 1;
 1296              		.loc 1 847 0
 1297 001a 032B     		cmp	r3, #3
 1298 001c 10D0     		beq	.L108
 849:Source\LwIP\src\api/api_msg.c ****              ((tpcb->state == FIN_WAIT_1) ||
 1299              		.loc 1 849 0
 1300 001e 002A     		cmp	r2, #0
 1301 0020 06D0     		beq	.L91
 850:Source\LwIP\src\api/api_msg.c ****               (tpcb->state == FIN_WAIT_2) ||
 1302              		.loc 1 850 0 discriminator 1
 1303 0022 327D     		ldrb	r2, [r6, #20]
 1304              	.LVL185:
 1305 0024 531F     		subs	r3, r2, #5
 1306              	.LVL186:
 1307 0026 DBB2     		uxtb	r3, r3
 849:Source\LwIP\src\api/api_msg.c ****              ((tpcb->state == FIN_WAIT_1) ||
 1308              		.loc 1 849 0 discriminator 1
 1309 0028 012B     		cmp	r3, #1
 1310 002a 0CD9     		bls	.L109
 851:Source\LwIP\src\api/api_msg.c ****               (tpcb->state == CLOSING))) {
 1311              		.loc 1 851 0
 1312 002c 082A     		cmp	r2, #8
 1313 002e 0DD0     		beq	.L110
 1314              	.L91:
 854:Source\LwIP\src\api/api_msg.c ****     close = 1;
 1315              		.loc 1 854 0
 1316 0030 002F     		cmp	r7, #0
 1317 0032 0ED0     		beq	.L111
 854:Source\LwIP\src\api/api_msg.c ****     close = 1;
 1318              		.loc 1 854 0 is_stmt 0 discriminator 1
 1319 0034 738B     		ldrh	r3, [r6, #26]
 1320 0036 DB06     		lsls	r3, r3, #27
 1321 0038 0ED4     		bmi	.L112
 857:Source\LwIP\src\api/api_msg.c ****   }
 1322              		.loc 1 857 0 is_stmt 1
 1323 003a 0023     		movs	r3, #0
 1324 003c 9946     		mov	r9, r3
 1325 003e 0DE0     		b	.L90
 1326              	.LVL187:
 1327              	.L108:
 848:Source\LwIP\src\api/api_msg.c ****   } else if (shut_rx &&
 1328              		.loc 1 848 0
ARM GAS  C:\Users\Phuong\AppData\Local\Temp\ccTHzCbL.s 			page 62


 1329 0040 0123     		movs	r3, #1
 1330              	.LVL188:
 1331 0042 9946     		mov	r9, r3
 1332 0044 0AE0     		b	.L90
 1333              	.LVL189:
 1334              	.L109:
 853:Source\LwIP\src\api/api_msg.c ****   } else if (shut_tx && ((tpcb->flags & TF_RXCLOSED) != 0)) {
 1335              		.loc 1 853 0
 1336 0046 0123     		movs	r3, #1
 1337 0048 9946     		mov	r9, r3
 1338 004a 07E0     		b	.L90
 1339              	.L110:
 1340 004c 0123     		movs	r3, #1
 1341 004e 9946     		mov	r9, r3
 1342 0050 04E0     		b	.L90
 1343              	.L111:
 857:Source\LwIP\src\api/api_msg.c ****   }
 1344              		.loc 1 857 0
 1345 0052 0023     		movs	r3, #0
 1346 0054 9946     		mov	r9, r3
 1347 0056 01E0     		b	.L90
 1348              	.L112:
 855:Source\LwIP\src\api/api_msg.c ****   } else {
 1349              		.loc 1 855 0
 1350 0058 0123     		movs	r3, #1
 1351 005a 9946     		mov	r9, r3
 1352              	.L90:
 1353              	.LVL190:
 861:Source\LwIP\src\api/api_msg.c ****     tcp_arg(tpcb, NULL);
 1354              		.loc 1 861 0
 1355 005c 4B46     		mov	r3, r9
 1356 005e 002B     		cmp	r3, #0
 1357 0060 03D0     		beq	.L92
 862:Source\LwIP\src\api/api_msg.c ****   }
 1358              		.loc 1 862 0
 1359 0062 0021     		movs	r1, #0
 1360 0064 3000     		movs	r0, r6
 1361              	.LVL191:
 1362 0066 FFF7FEFF 		bl	tcp_arg
 1363              	.LVL192:
 1364              	.L92:
 864:Source\LwIP\src\api/api_msg.c ****     tcp_accept(tpcb, NULL);
 1365              		.loc 1 864 0
 1366 006a 337D     		ldrb	r3, [r6, #20]
 1367 006c 012B     		cmp	r3, #1
 1368 006e 04D1     		bne	.L93
 865:Source\LwIP\src\api/api_msg.c ****   } else {
 1369              		.loc 1 865 0
 1370 0070 0021     		movs	r1, #0
 1371 0072 3000     		movs	r0, r6
 1372 0074 FFF7FEFF 		bl	tcp_accept
 1373              	.LVL193:
 1374 0078 1CE0     		b	.L94
 1375              	.L93:
 868:Source\LwIP\src\api/api_msg.c ****       tcp_recv(tpcb, NULL);
 1376              		.loc 1 868 0
 1377 007a 4346     		mov	r3, r8
ARM GAS  C:\Users\Phuong\AppData\Local\Temp\ccTHzCbL.s 			page 63


 1378 007c 002B     		cmp	r3, #0
 1379 007e 07D0     		beq	.L95
 1380              	.LVL194:
 869:Source\LwIP\src\api/api_msg.c ****       tcp_accept(tpcb, NULL);
 1381              		.loc 1 869 0
 1382 0080 0021     		movs	r1, #0
 1383 0082 3000     		movs	r0, r6
 1384 0084 FFF7FEFF 		bl	tcp_recv
 1385              	.LVL195:
 870:Source\LwIP\src\api/api_msg.c ****     }
 1386              		.loc 1 870 0
 1387 0088 0021     		movs	r1, #0
 1388 008a 3000     		movs	r0, r6
 1389 008c FFF7FEFF 		bl	tcp_accept
 1390              	.LVL196:
 1391              	.L95:
 872:Source\LwIP\src\api/api_msg.c ****       tcp_sent(tpcb, NULL);
 1392              		.loc 1 872 0
 1393 0090 002F     		cmp	r7, #0
 1394 0092 03D0     		beq	.L96
 873:Source\LwIP\src\api/api_msg.c ****     }
 1395              		.loc 1 873 0
 1396 0094 0021     		movs	r1, #0
 1397 0096 3000     		movs	r0, r6
 1398 0098 FFF7FEFF 		bl	tcp_sent
 1399              	.LVL197:
 1400              	.L96:
 875:Source\LwIP\src\api/api_msg.c ****       tcp_poll(tpcb, NULL, 0);
 1401              		.loc 1 875 0
 1402 009c 4B46     		mov	r3, r9
 1403 009e 002B     		cmp	r3, #0
 1404 00a0 08D0     		beq	.L94
 876:Source\LwIP\src\api/api_msg.c ****       tcp_err(tpcb, NULL);
 1405              		.loc 1 876 0
 1406 00a2 0022     		movs	r2, #0
 1407 00a4 0021     		movs	r1, #0
 1408 00a6 3000     		movs	r0, r6
 1409 00a8 FFF7FEFF 		bl	tcp_poll
 1410              	.LVL198:
 877:Source\LwIP\src\api/api_msg.c ****     }
 1411              		.loc 1 877 0
 1412 00ac 0021     		movs	r1, #0
 1413 00ae 3000     		movs	r0, r6
 1414 00b0 FFF7FEFF 		bl	tcp_err
 1415              	.LVL199:
 1416              	.L94:
 881:Source\LwIP\src\api/api_msg.c **** #if LWIP_SO_LINGER
 1417              		.loc 1 881 0
 1418 00b4 4B46     		mov	r3, r9
 1419 00b6 002B     		cmp	r3, #0
 1420 00b8 04D0     		beq	.L97
 911:Source\LwIP\src\api/api_msg.c ****     }
 1421              		.loc 1 911 0
 1422 00ba 3000     		movs	r0, r6
 1423 00bc FFF7FEFF 		bl	tcp_close
 1424              	.LVL200:
 1425 00c0 0400     		movs	r4, r0
ARM GAS  C:\Users\Phuong\AppData\Local\Temp\ccTHzCbL.s 			page 64


 1426              	.LVL201:
 1427 00c2 05E0     		b	.L98
 1428              	.LVL202:
 1429              	.L97:
 914:Source\LwIP\src\api/api_msg.c ****   }
 1430              		.loc 1 914 0
 1431 00c4 3A00     		movs	r2, r7
 1432 00c6 4146     		mov	r1, r8
 1433 00c8 3000     		movs	r0, r6
 1434 00ca FFF7FEFF 		bl	tcp_shutdown
 1435              	.LVL203:
 1436 00ce 0400     		movs	r4, r0
 1437              	.LVL204:
 1438              	.L98:
 916:Source\LwIP\src\api/api_msg.c ****     close_finished = 1;
 1439              		.loc 1 916 0
 1440 00d0 002C     		cmp	r4, #0
 1441 00d2 0ED0     		beq	.L113
 926:Source\LwIP\src\api/api_msg.c ****       /* Closing failed because of memory shortage, try again later. Even for
 1442              		.loc 1 926 0
 1443 00d4 631C     		adds	r3, r4, #1
 1444 00d6 0ED1     		bne	.L114
 947:Source\LwIP\src\api/api_msg.c **** #endif /* LWIP_SO_SNDTIMEO || LWIP_SO_LINGER */
 1445              		.loc 1 947 0
 1446 00d8 AB6A     		ldr	r3, [r5, #40]
 1447 00da 5B7A     		ldrb	r3, [r3, #9]
 1448 00dc 002B     		cmp	r3, #0
 1449 00de 0CD1     		bne	.L115
 1450              	.LVL205:
 950:Source\LwIP\src\api/api_msg.c ****           /* in this case, we want to RST the connection */
 1451              		.loc 1 950 0
 1452 00e0 4B46     		mov	r3, r9
 1453 00e2 002B     		cmp	r3, #0
 1454 00e4 0BD0     		beq	.L116
 952:Source\LwIP\src\api/api_msg.c ****           err = ERR_OK;
 1455              		.loc 1 952 0
 1456 00e6 3000     		movs	r0, r6
 1457 00e8 FFF7FEFF 		bl	tcp_abort
 1458              	.LVL206:
 949:Source\LwIP\src\api/api_msg.c ****         if (close) {
 1459              		.loc 1 949 0
 1460 00ec 0123     		movs	r3, #1
 953:Source\LwIP\src\api/api_msg.c ****         }
 1461              		.loc 1 953 0
 1462 00ee 0024     		movs	r4, #0
 1463 00f0 06E0     		b	.L99
 1464              	.LVL207:
 1465              	.L113:
 917:Source\LwIP\src\api/api_msg.c **** #if LWIP_SO_LINGER
 1466              		.loc 1 917 0
 1467 00f2 0123     		movs	r3, #1
 1468 00f4 04E0     		b	.L99
 1469              	.L114:
 958:Source\LwIP\src\api/api_msg.c ****     }
 1470              		.loc 1 958 0
 1471 00f6 0123     		movs	r3, #1
 1472 00f8 02E0     		b	.L99
ARM GAS  C:\Users\Phuong\AppData\Local\Temp\ccTHzCbL.s 			page 65


 1473              	.L115:
 829:Source\LwIP\src\api/api_msg.c ****   struct tcp_pcb* tpcb;
 1474              		.loc 1 829 0
 1475 00fa 0023     		movs	r3, #0
 1476 00fc 00E0     		b	.L99
 1477              	.LVL208:
 1478              	.L116:
 949:Source\LwIP\src\api/api_msg.c ****         if (close) {
 1479              		.loc 1 949 0
 1480 00fe 0123     		movs	r3, #1
 1481              	.LVL209:
 1482              	.L99:
 961:Source\LwIP\src\api/api_msg.c ****     /* Closing done (succeeded, non-memory error, nonblocking error or timeout) */
 1483              		.loc 1 961 0
 1484 0100 002B     		cmp	r3, #0
 1485 0102 37D0     		beq	.L100
 1486              	.LBB14:
 963:Source\LwIP\src\api/api_msg.c ****     conn->current_msg->err = err;
 1487              		.loc 1 963 0
 1488 0104 AB6A     		ldr	r3, [r5, #40]
 1489              	.LVL210:
 1490 0106 1E68     		ldr	r6, [r3]
 1491              	.LVL211:
 1492 0108 0C36     		adds	r6, r6, #12
 1493              	.LVL212:
 964:Source\LwIP\src\api/api_msg.c ****     conn->current_msg = NULL;
 1494              		.loc 1 964 0
 1495 010a 1C71     		strb	r4, [r3, #4]
 965:Source\LwIP\src\api/api_msg.c ****     conn->state = NETCONN_NONE;
 1496              		.loc 1 965 0
 1497 010c 0023     		movs	r3, #0
 1498 010e AB62     		str	r3, [r5, #40]
 966:Source\LwIP\src\api/api_msg.c ****     if (err == ERR_OK) {
 1499              		.loc 1 966 0
 1500 0110 6B70     		strb	r3, [r5, #1]
 967:Source\LwIP\src\api/api_msg.c ****       if (close) {
 1501              		.loc 1 967 0
 1502 0112 002C     		cmp	r4, #0
 1503 0114 1ED1     		bne	.L101
 968:Source\LwIP\src\api/api_msg.c ****         /* Set back some callback pointers as conn is going away */
 1504              		.loc 1 968 0
 1505 0116 4B46     		mov	r3, r9
 1506 0118 002B     		cmp	r3, #0
 1507 011a 08D0     		beq	.L102
 970:Source\LwIP\src\api/api_msg.c ****         /* Trigger select() in socket layer. Make sure everybody notices activity
 1508              		.loc 1 970 0
 1509 011c 0023     		movs	r3, #0
 1510 011e 6B60     		str	r3, [r5, #4]
 973:Source\LwIP\src\api/api_msg.c ****       }
 1511              		.loc 1 973 0
 1512 0120 EB6A     		ldr	r3, [r5, #44]
 1513 0122 002B     		cmp	r3, #0
 1514 0124 03D0     		beq	.L102
 973:Source\LwIP\src\api/api_msg.c ****       }
 1515              		.loc 1 973 0 is_stmt 0 discriminator 1
 1516 0126 0022     		movs	r2, #0
 1517 0128 0421     		movs	r1, #4
ARM GAS  C:\Users\Phuong\AppData\Local\Temp\ccTHzCbL.s 			page 66


 1518 012a 2800     		movs	r0, r5
 1519 012c 9847     		blx	r3
 1520              	.LVL213:
 1521              	.L102:
 975:Source\LwIP\src\api/api_msg.c ****         API_EVENT(conn, NETCONN_EVT_RCVPLUS, 0);
 1522              		.loc 1 975 0 is_stmt 1
 1523 012e 4346     		mov	r3, r8
 1524 0130 002B     		cmp	r3, #0
 1525 0132 06D0     		beq	.L103
 1526              	.LVL214:
 976:Source\LwIP\src\api/api_msg.c ****       }
 1527              		.loc 1 976 0
 1528 0134 EB6A     		ldr	r3, [r5, #44]
 1529              	.LVL215:
 1530 0136 002B     		cmp	r3, #0
 1531 0138 03D0     		beq	.L103
 976:Source\LwIP\src\api/api_msg.c ****       }
 1532              		.loc 1 976 0 is_stmt 0 discriminator 1
 1533 013a 0022     		movs	r2, #0
 1534 013c 0021     		movs	r1, #0
 1535 013e 2800     		movs	r0, r5
 1536 0140 9847     		blx	r3
 1537              	.LVL216:
 1538              	.L103:
 978:Source\LwIP\src\api/api_msg.c ****         API_EVENT(conn, NETCONN_EVT_SENDPLUS, 0);
 1539              		.loc 1 978 0 is_stmt 1
 1540 0142 002F     		cmp	r7, #0
 1541 0144 06D0     		beq	.L101
 979:Source\LwIP\src\api/api_msg.c ****       }
 1542              		.loc 1 979 0
 1543 0146 EB6A     		ldr	r3, [r5, #44]
 1544 0148 002B     		cmp	r3, #0
 1545 014a 03D0     		beq	.L101
 979:Source\LwIP\src\api/api_msg.c ****       }
 1546              		.loc 1 979 0 is_stmt 0 discriminator 1
 1547 014c 0022     		movs	r2, #0
 1548 014e 0221     		movs	r1, #2
 1549 0150 2800     		movs	r0, r5
 1550 0152 9847     		blx	r3
 1551              	.LVL217:
 1552              	.L101:
 982:Source\LwIP\src\api/api_msg.c **** #if LWIP_TCPIP_CORE_LOCKING
 1553              		.loc 1 982 0 is_stmt 1
 1554 0154 002D     		cmp	r5, #0
 1555 0156 08D0     		beq	.L104
 1556              	.LBB15:
 982:Source\LwIP\src\api/api_msg.c **** #if LWIP_TCPIP_CORE_LOCKING
 1557              		.loc 1 982 0 is_stmt 0 discriminator 1
 1558 0158 FFF7FEFF 		bl	sys_arch_protect
 1559              	.LVL218:
 1560 015c 0823     		movs	r3, #8
 1561 015e EB56     		ldrsb	r3, [r5, r3]
 1562 0160 0C33     		adds	r3, r3, #12
 1563 0162 00DB     		blt	.L105
 982:Source\LwIP\src\api/api_msg.c **** #if LWIP_TCPIP_CORE_LOCKING
 1564              		.loc 1 982 0 discriminator 2
 1565 0164 2C72     		strb	r4, [r5, #8]
ARM GAS  C:\Users\Phuong\AppData\Local\Temp\ccTHzCbL.s 			page 67


 1566              	.L105:
 982:Source\LwIP\src\api/api_msg.c **** #if LWIP_TCPIP_CORE_LOCKING
 1567              		.loc 1 982 0 discriminator 4
 1568 0166 FFF7FEFF 		bl	sys_arch_unprotect
 1569              	.LVL219:
 1570              	.L104:
 1571              	.LBE15:
 988:Source\LwIP\src\api/api_msg.c ****     }
 1572              		.loc 1 988 0 is_stmt 1
 1573 016a 3000     		movs	r0, r6
 1574 016c FFF7FEFF 		bl	sys_sem_signal
 1575              	.LVL220:
 990:Source\LwIP\src\api/api_msg.c ****   }
 1576              		.loc 1 990 0
 1577 0170 0020     		movs	r0, #0
 1578 0172 17E0     		b	.L106
 1579              	.LVL221:
 1580              	.L100:
 1581              	.LBE14:
 992:Source\LwIP\src\api/api_msg.c ****     /* Closing failed and we want to wait: restore some of the callbacks */
 1582              		.loc 1 992 0
 1583 0174 002B     		cmp	r3, #0
 1584 0176 14D1     		bne	.L117
 996:Source\LwIP\src\api/api_msg.c ****       tcp_sent(tpcb, sent_tcp);
 1585              		.loc 1 996 0
 1586 0178 002F     		cmp	r7, #0
 1587 017a 03D0     		beq	.L107
 997:Source\LwIP\src\api/api_msg.c ****     }
 1588              		.loc 1 997 0
 1589 017c 0B49     		ldr	r1, .L118
 1590 017e 3000     		movs	r0, r6
 1591 0180 FFF7FEFF 		bl	tcp_sent
 1592              	.LVL222:
 1593              	.L107:
1000:Source\LwIP\src\api/api_msg.c ****     tcp_err(tpcb, err_tcp);
 1594              		.loc 1 1000 0
 1595 0184 0122     		movs	r2, #1
 1596 0186 0A49     		ldr	r1, .L118+4
 1597 0188 3000     		movs	r0, r6
 1598 018a FFF7FEFF 		bl	tcp_poll
 1599              	.LVL223:
1001:Source\LwIP\src\api/api_msg.c ****     tcp_arg(tpcb, conn);
 1600              		.loc 1 1001 0
 1601 018e 0949     		ldr	r1, .L118+8
 1602 0190 3000     		movs	r0, r6
 1603 0192 FFF7FEFF 		bl	tcp_err
 1604              	.LVL224:
1002:Source\LwIP\src\api/api_msg.c ****     /* don't restore recv callback: we don't want to receive any more data */
 1605              		.loc 1 1002 0
 1606 0196 2900     		movs	r1, r5
 1607 0198 3000     		movs	r0, r6
 1608 019a FFF7FEFF 		bl	tcp_arg
 1609              	.LVL225:
1008:Source\LwIP\src\api/api_msg.c **** }
 1610              		.loc 1 1008 0
 1611 019e 2000     		movs	r0, r4
 1612 01a0 00E0     		b	.L106
ARM GAS  C:\Users\Phuong\AppData\Local\Temp\ccTHzCbL.s 			page 68


 1613              	.LVL226:
 1614              	.L117:
 1615 01a2 2000     		movs	r0, r4
 1616              	.LVL227:
 1617              	.L106:
1009:Source\LwIP\src\api/api_msg.c **** #endif /* LWIP_TCP */
 1618              		.loc 1 1009 0
 1619              		@ sp needed
 1620              	.LVL228:
 1621              	.LVL229:
 1622              	.LVL230:
 1623              	.LVL231:
 1624              	.LVL232:
 1625 01a4 0CBC     		pop	{r2, r3}
 1626 01a6 9046     		mov	r8, r2
 1627 01a8 9946     		mov	r9, r3
 1628 01aa F8BD     		pop	{r3, r4, r5, r6, r7, pc}
 1629              	.L119:
 1630              		.align	2
 1631              	.L118:
 1632 01ac 00000000 		.word	sent_tcp
 1633 01b0 00000000 		.word	poll_tcp
 1634 01b4 00000000 		.word	err_tcp
 1635              		.cfi_endproc
 1636              	.LFE66:
 1637              		.size	lwip_netconn_do_close_internal, .-lwip_netconn_do_close_internal
 1638              		.section	.text.poll_tcp,"ax",%progbits
 1639              		.align	2
 1640              		.code	16
 1641              		.thumb_func
 1642              		.type	poll_tcp, %function
 1643              	poll_tcp:
 1644              	.LFB56:
 308:Source\LwIP\src\api/api_msg.c ****   struct netconn *conn = (struct netconn *)arg;
 1645              		.loc 1 308 0
 1646              		.cfi_startproc
 1647              		@ args = 0, pretend = 0, frame = 0
 1648              		@ frame_needed = 0, uses_anonymous_args = 0
 1649              	.LVL233:
 1650 0000 10B5     		push	{r4, lr}
 1651              		.cfi_def_cfa_offset 8
 1652              		.cfi_offset 4, -8
 1653              		.cfi_offset 14, -4
 1654 0002 0400     		movs	r4, r0
 1655              	.LVL234:
 314:Source\LwIP\src\api/api_msg.c ****     lwip_netconn_do_writemore(conn  WRITE_DELAYED);
 1656              		.loc 1 314 0
 1657 0004 4378     		ldrb	r3, [r0, #1]
 1658 0006 012B     		cmp	r3, #1
 1659 0008 02D1     		bne	.L121
 315:Source\LwIP\src\api/api_msg.c ****   } else if (conn->state == NETCONN_CLOSE) {
 1660              		.loc 1 315 0
 1661 000a FFF7FEFF 		bl	lwip_netconn_do_writemore
 1662              	.LVL235:
 1663 000e 0CE0     		b	.L122
 1664              	.LVL236:
 1665              	.L121:
ARM GAS  C:\Users\Phuong\AppData\Local\Temp\ccTHzCbL.s 			page 69


 316:Source\LwIP\src\api/api_msg.c **** #if !LWIP_SO_SNDTIMEO && !LWIP_SO_LINGER
 1666              		.loc 1 316 0
 1667 0010 042B     		cmp	r3, #4
 1668 0012 0AD1     		bne	.L122
 318:Source\LwIP\src\api/api_msg.c ****       conn->current_msg->msg.sd.polls_left--;
 1669              		.loc 1 318 0
 1670 0014 836A     		ldr	r3, [r0, #40]
 1671 0016 002B     		cmp	r3, #0
 1672 0018 04D0     		beq	.L123
 318:Source\LwIP\src\api/api_msg.c ****       conn->current_msg->msg.sd.polls_left--;
 1673              		.loc 1 318 0 is_stmt 0 discriminator 1
 1674 001a 5A7A     		ldrb	r2, [r3, #9]
 1675 001c 002A     		cmp	r2, #0
 1676 001e 01D0     		beq	.L123
 319:Source\LwIP\src\api/api_msg.c ****     }
 1677              		.loc 1 319 0 is_stmt 1
 1678 0020 013A     		subs	r2, r2, #1
 1679 0022 5A72     		strb	r2, [r3, #9]
 1680              	.L123:
 322:Source\LwIP\src\api/api_msg.c ****   }
 1681              		.loc 1 322 0
 1682 0024 2000     		movs	r0, r4
 1683              	.LVL237:
 1684 0026 FFF7FEFF 		bl	lwip_netconn_do_close_internal
 1685              	.LVL238:
 1686              	.L122:
 327:Source\LwIP\src\api/api_msg.c ****     /* If the queued byte- or pbuf-count drops below the configured low-water limit,
 1687              		.loc 1 327 0
 1688 002a 2023     		movs	r3, #32
 1689 002c E35C     		ldrb	r3, [r4, r3]
 1690 002e DA06     		lsls	r2, r3, #27
 1691 0030 16D5     		bpl	.L124
 330:Source\LwIP\src\api/api_msg.c ****       (tcp_sndqueuelen(conn->pcb.tcp) < TCP_SNDQUEUELOWAT)) {
 1692              		.loc 1 330 0
 1693 0032 6268     		ldr	r2, [r4, #4]
 1694 0034 002A     		cmp	r2, #0
 1695 0036 13D0     		beq	.L124
 330:Source\LwIP\src\api/api_msg.c ****       (tcp_sndqueuelen(conn->pcb.tcp) < TCP_SNDQUEUELOWAT)) {
 1696              		.loc 1 330 0 is_stmt 0 discriminator 1
 1697 0038 6021     		movs	r1, #96
 1698 003a 505A     		ldrh	r0, [r2, r1]
 1699 003c 0949     		ldr	r1, .L125
 1700 003e 8842     		cmp	r0, r1
 1701 0040 0ED9     		bls	.L124
 331:Source\LwIP\src\api/api_msg.c ****       conn->flags &= ~NETCONN_FLAG_CHECK_WRITESPACE;
 1702              		.loc 1 331 0 is_stmt 1 discriminator 2
 1703 0042 6221     		movs	r1, #98
 1704 0044 525A     		ldrh	r2, [r2, r1]
 330:Source\LwIP\src\api/api_msg.c ****       (tcp_sndqueuelen(conn->pcb.tcp) < TCP_SNDQUEUELOWAT)) {
 1705              		.loc 1 330 0 discriminator 2
 1706 0046 0B2A     		cmp	r2, #11
 1707 0048 0AD8     		bhi	.L124
 332:Source\LwIP\src\api/api_msg.c ****       API_EVENT(conn, NETCONN_EVT_SENDPLUS, 0);
 1708              		.loc 1 332 0
 1709 004a 1022     		movs	r2, #16
 1710 004c 9343     		bics	r3, r2
 1711 004e 1032     		adds	r2, r2, #16
ARM GAS  C:\Users\Phuong\AppData\Local\Temp\ccTHzCbL.s 			page 70


 1712 0050 A354     		strb	r3, [r4, r2]
 333:Source\LwIP\src\api/api_msg.c ****     }
 1713              		.loc 1 333 0
 1714 0052 E36A     		ldr	r3, [r4, #44]
 1715 0054 002B     		cmp	r3, #0
 1716 0056 03D0     		beq	.L124
 333:Source\LwIP\src\api/api_msg.c ****     }
 1717              		.loc 1 333 0 is_stmt 0 discriminator 1
 1718 0058 0022     		movs	r2, #0
 1719 005a 6039     		subs	r1, r1, #96
 1720 005c 2000     		movs	r0, r4
 1721 005e 9847     		blx	r3
 1722              	.LVL239:
 1723              	.L124:
 338:Source\LwIP\src\api/api_msg.c **** 
 1724              		.loc 1 338 0 is_stmt 1
 1725 0060 0020     		movs	r0, #0
 1726              		@ sp needed
 1727              	.LVL240:
 1728 0062 10BD     		pop	{r4, pc}
 1729              	.L126:
 1730              		.align	2
 1731              	.L125:
 1732 0064 1C110000 		.word	4380
 1733              		.cfi_endproc
 1734              	.LFE56:
 1735              		.size	poll_tcp, .-poll_tcp
 1736              		.section	.text.sent_tcp,"ax",%progbits
 1737              		.align	2
 1738              		.code	16
 1739              		.thumb_func
 1740              		.type	sent_tcp, %function
 1741              	sent_tcp:
 1742              	.LFB57:
 349:Source\LwIP\src\api/api_msg.c ****   struct netconn *conn = (struct netconn *)arg;
 1743              		.loc 1 349 0
 1744              		.cfi_startproc
 1745              		@ args = 0, pretend = 0, frame = 0
 1746              		@ frame_needed = 0, uses_anonymous_args = 0
 1747              	.LVL241:
 1748 0000 70B5     		push	{r4, r5, r6, lr}
 1749              		.cfi_def_cfa_offset 16
 1750              		.cfi_offset 4, -16
 1751              		.cfi_offset 5, -12
 1752              		.cfi_offset 6, -8
 1753              		.cfi_offset 14, -4
 1754 0002 0400     		movs	r4, r0
 1755 0004 1500     		movs	r5, r2
 1756              	.LVL242:
 355:Source\LwIP\src\api/api_msg.c ****     if (conn->state == NETCONN_WRITE) {
 1757              		.loc 1 355 0
 1758 0006 0028     		cmp	r0, #0
 1759 0008 21D0     		beq	.L128
 356:Source\LwIP\src\api/api_msg.c ****       lwip_netconn_do_writemore(conn  WRITE_DELAYED);
 1760              		.loc 1 356 0
 1761 000a 4378     		ldrb	r3, [r0, #1]
 1762 000c 012B     		cmp	r3, #1
ARM GAS  C:\Users\Phuong\AppData\Local\Temp\ccTHzCbL.s 			page 71


 1763 000e 02D1     		bne	.L129
 357:Source\LwIP\src\api/api_msg.c ****     } else if (conn->state == NETCONN_CLOSE) {
 1764              		.loc 1 357 0
 1765 0010 FFF7FEFF 		bl	lwip_netconn_do_writemore
 1766              	.LVL243:
 1767 0014 03E0     		b	.L130
 1768              	.LVL244:
 1769              	.L129:
 358:Source\LwIP\src\api/api_msg.c ****       lwip_netconn_do_close_internal(conn  WRITE_DELAYED);
 1770              		.loc 1 358 0
 1771 0016 042B     		cmp	r3, #4
 1772 0018 01D1     		bne	.L130
 359:Source\LwIP\src\api/api_msg.c ****     }
 1773              		.loc 1 359 0
 1774 001a FFF7FEFF 		bl	lwip_netconn_do_close_internal
 1775              	.LVL245:
 1776              	.L130:
 364:Source\LwIP\src\api/api_msg.c ****       (tcp_sndqueuelen(conn->pcb.tcp) < TCP_SNDQUEUELOWAT)) {
 1777              		.loc 1 364 0
 1778 001e 6368     		ldr	r3, [r4, #4]
 1779 0020 002B     		cmp	r3, #0
 1780 0022 14D0     		beq	.L128
 364:Source\LwIP\src\api/api_msg.c ****       (tcp_sndqueuelen(conn->pcb.tcp) < TCP_SNDQUEUELOWAT)) {
 1781              		.loc 1 364 0 is_stmt 0 discriminator 1
 1782 0024 6022     		movs	r2, #96
 1783 0026 995A     		ldrh	r1, [r3, r2]
 1784 0028 0A4A     		ldr	r2, .L131
 1785 002a 9142     		cmp	r1, r2
 1786 002c 0FD9     		bls	.L128
 365:Source\LwIP\src\api/api_msg.c ****       conn->flags &= ~NETCONN_FLAG_CHECK_WRITESPACE;
 1787              		.loc 1 365 0 is_stmt 1 discriminator 2
 1788 002e 6222     		movs	r2, #98
 1789 0030 9B5A     		ldrh	r3, [r3, r2]
 364:Source\LwIP\src\api/api_msg.c ****       (tcp_sndqueuelen(conn->pcb.tcp) < TCP_SNDQUEUELOWAT)) {
 1790              		.loc 1 364 0 discriminator 2
 1791 0032 0B2B     		cmp	r3, #11
 1792 0034 0BD8     		bhi	.L128
 366:Source\LwIP\src\api/api_msg.c ****       API_EVENT(conn, NETCONN_EVT_SENDPLUS, len);
 1793              		.loc 1 366 0
 1794 0036 423A     		subs	r2, r2, #66
 1795 0038 A35C     		ldrb	r3, [r4, r2]
 1796 003a 1021     		movs	r1, #16
 1797 003c 8B43     		bics	r3, r1
 1798 003e A354     		strb	r3, [r4, r2]
 367:Source\LwIP\src\api/api_msg.c ****     }
 1799              		.loc 1 367 0
 1800 0040 E36A     		ldr	r3, [r4, #44]
 1801 0042 002B     		cmp	r3, #0
 1802 0044 03D0     		beq	.L128
 367:Source\LwIP\src\api/api_msg.c ****     }
 1803              		.loc 1 367 0 is_stmt 0 discriminator 1
 1804 0046 2A00     		movs	r2, r5
 1805 0048 0E39     		subs	r1, r1, #14
 1806 004a 2000     		movs	r0, r4
 1807 004c 9847     		blx	r3
 1808              	.LVL246:
 1809              	.L128:
ARM GAS  C:\Users\Phuong\AppData\Local\Temp\ccTHzCbL.s 			page 72


 372:Source\LwIP\src\api/api_msg.c **** 
 1810              		.loc 1 372 0 is_stmt 1
 1811 004e 0020     		movs	r0, #0
 1812              		@ sp needed
 1813              	.LVL247:
 1814 0050 70BD     		pop	{r4, r5, r6, pc}
 1815              	.L132:
 1816 0052 C046     		.align	2
 1817              	.L131:
 1818 0054 1C110000 		.word	4380
 1819              		.cfi_endproc
 1820              	.LFE57:
 1821              		.size	sent_tcp, .-sent_tcp
 1822              		.section	.text.recv_tcp,"ax",%progbits
 1823              		.align	2
 1824              		.code	16
 1825              		.thumb_func
 1826              		.type	recv_tcp, %function
 1827              	recv_tcp:
 1828              	.LFB55:
 244:Source\LwIP\src\api/api_msg.c ****   struct netconn *conn;
 1829              		.loc 1 244 0
 1830              		.cfi_startproc
 1831              		@ args = 0, pretend = 0, frame = 8
 1832              		@ frame_needed = 0, uses_anonymous_args = 0
 1833              	.LVL248:
 1834 0000 F0B5     		push	{r4, r5, r6, r7, lr}
 1835              		.cfi_def_cfa_offset 20
 1836              		.cfi_offset 4, -20
 1837              		.cfi_offset 5, -16
 1838              		.cfi_offset 6, -12
 1839              		.cfi_offset 7, -8
 1840              		.cfi_offset 14, -4
 1841 0002 83B0     		sub	sp, sp, #12
 1842              		.cfi_def_cfa_offset 32
 1843 0004 0400     		movs	r4, r0
 1844 0006 0191     		str	r1, [sp, #4]
 1845 0008 1700     		movs	r7, r2
 1846 000a 1E00     		movs	r6, r3
 1847              	.LVL249:
 253:Source\LwIP\src\api/api_msg.c ****     return ERR_VAL;
 1848              		.loc 1 253 0
 1849 000c 0028     		cmp	r0, #0
 1850 000e 31D0     		beq	.L139
 258:Source\LwIP\src\api/api_msg.c ****     /* recvmbox already deleted */
 1851              		.loc 1 258 0
 1852 0010 0500     		movs	r5, r0
 1853 0012 1035     		adds	r5, r5, #16
 1854 0014 2800     		movs	r0, r5
 1855              	.LVL250:
 1856 0016 FFF7FEFF 		bl	sys_mbox_valid
 1857              	.LVL251:
 1858 001a 0028     		cmp	r0, #0
 1859 001c 0AD1     		bne	.L135
 260:Source\LwIP\src\api/api_msg.c ****       tcp_recved(pcb, p->tot_len);
 1860              		.loc 1 260 0
 1861 001e 002F     		cmp	r7, #0
ARM GAS  C:\Users\Phuong\AppData\Local\Temp\ccTHzCbL.s 			page 73


 1862 0020 2BD0     		beq	.L140
 261:Source\LwIP\src\api/api_msg.c ****       pbuf_free(p);
 1863              		.loc 1 261 0
 1864 0022 3989     		ldrh	r1, [r7, #8]
 1865 0024 0198     		ldr	r0, [sp, #4]
 1866 0026 FFF7FEFF 		bl	tcp_recved
 1867              	.LVL252:
 262:Source\LwIP\src\api/api_msg.c ****     }
 1868              		.loc 1 262 0
 1869 002a 3800     		movs	r0, r7
 1870 002c FFF7FEFF 		bl	pbuf_free
 1871              	.LVL253:
 264:Source\LwIP\src\api/api_msg.c ****   }
 1872              		.loc 1 264 0
 1873 0030 0025     		movs	r5, #0
 1874 0032 26E0     		b	.L134
 1875              	.L135:
 271:Source\LwIP\src\api/api_msg.c ****     NETCONN_SET_SAFE_ERR(conn, err);
 1876              		.loc 1 271 0
 1877 0034 002E     		cmp	r6, #0
 1878 0036 0AD0     		beq	.L136
 272:Source\LwIP\src\api/api_msg.c ****   }
 1879              		.loc 1 272 0
 1880 0038 002C     		cmp	r4, #0
 1881 003a 08D0     		beq	.L136
 1882              	.LBB16:
 272:Source\LwIP\src\api/api_msg.c ****   }
 1883              		.loc 1 272 0 is_stmt 0 discriminator 1
 1884 003c FFF7FEFF 		bl	sys_arch_protect
 1885              	.LVL254:
 1886 0040 0823     		movs	r3, #8
 1887 0042 E356     		ldrsb	r3, [r4, r3]
 1888 0044 0C33     		adds	r3, r3, #12
 1889 0046 00DB     		blt	.L137
 272:Source\LwIP\src\api/api_msg.c ****   }
 1890              		.loc 1 272 0 discriminator 2
 1891 0048 2672     		strb	r6, [r4, #8]
 1892              	.L137:
 272:Source\LwIP\src\api/api_msg.c ****   }
 1893              		.loc 1 272 0 discriminator 4
 1894 004a FFF7FEFF 		bl	sys_arch_unprotect
 1895              	.LVL255:
 1896              	.L136:
 1897              	.LBE16:
 275:Source\LwIP\src\api/api_msg.c ****     len = p->tot_len;
 1898              		.loc 1 275 0 is_stmt 1
 1899 004e 002F     		cmp	r7, #0
 1900 0050 01D0     		beq	.L141
 276:Source\LwIP\src\api/api_msg.c ****   } else {
 1901              		.loc 1 276 0
 1902 0052 3E89     		ldrh	r6, [r7, #8]
 1903              	.LVL256:
 1904 0054 00E0     		b	.L138
 1905              	.LVL257:
 1906              	.L141:
 278:Source\LwIP\src\api/api_msg.c ****   }
 1907              		.loc 1 278 0
ARM GAS  C:\Users\Phuong\AppData\Local\Temp\ccTHzCbL.s 			page 74


 1908 0056 0026     		movs	r6, #0
 1909              	.L138:
 1910              	.LVL258:
 281:Source\LwIP\src\api/api_msg.c ****     /* don't deallocate p: it is presented to us later again from tcp_fasttmr! */
 1911              		.loc 1 281 0
 1912 0058 3900     		movs	r1, r7
 1913 005a 2800     		movs	r0, r5
 1914 005c FFF7FEFF 		bl	sys_mbox_trypost
 1915              	.LVL259:
 1916 0060 051E     		subs	r5, r0, #0
 1917 0062 0CD1     		bne	.L142
 289:Source\LwIP\src\api/api_msg.c ****   }
 1918              		.loc 1 289 0
 1919 0064 E36A     		ldr	r3, [r4, #44]
 1920 0066 002B     		cmp	r3, #0
 1921 0068 0BD0     		beq	.L134
 289:Source\LwIP\src\api/api_msg.c ****   }
 1922              		.loc 1 289 0 is_stmt 0 discriminator 1
 1923 006a 3200     		movs	r2, r6
 1924 006c 0021     		movs	r1, #0
 1925 006e 2000     		movs	r0, r4
 1926 0070 9847     		blx	r3
 1927              	.LVL260:
 1928 0072 06E0     		b	.L134
 1929              	.LVL261:
 1930              	.L139:
 254:Source\LwIP\src\api/api_msg.c ****   }
 1931              		.loc 1 254 0 is_stmt 1
 1932 0074 0625     		movs	r5, #6
 1933 0076 6D42     		rsbs	r5, r5, #0
 1934 0078 03E0     		b	.L134
 1935              	.LVL262:
 1936              	.L140:
 264:Source\LwIP\src\api/api_msg.c ****   }
 1937              		.loc 1 264 0
 1938 007a 0025     		movs	r5, #0
 1939 007c 01E0     		b	.L134
 1940              	.LVL263:
 1941              	.L142:
 283:Source\LwIP\src\api/api_msg.c ****   } else {
 1942              		.loc 1 283 0
 1943 007e 0125     		movs	r5, #1
 1944 0080 6D42     		rsbs	r5, r5, #0
 1945              	.LVL264:
 1946              	.L134:
 293:Source\LwIP\src\api/api_msg.c **** 
 1947              		.loc 1 293 0
 1948 0082 2800     		movs	r0, r5
 1949 0084 03B0     		add	sp, sp, #12
 1950              		@ sp needed
 1951              	.LVL265:
 1952              	.LVL266:
 1953 0086 F0BD     		pop	{r4, r5, r6, r7, pc}
 1954              		.cfi_endproc
 1955              	.LFE55:
 1956              		.size	recv_tcp, .-recv_tcp
 1957              		.section	.text.lwip_netconn_do_newconn,"ax",%progbits
ARM GAS  C:\Users\Phuong\AppData\Local\Temp\ccTHzCbL.s 			page 75


 1958              		.align	2
 1959              		.global	lwip_netconn_do_newconn
 1960              		.code	16
 1961              		.thumb_func
 1962              		.type	lwip_netconn_do_newconn, %function
 1963              	lwip_netconn_do_newconn:
 1964              	.LFB62:
 624:Source\LwIP\src\api/api_msg.c ****   struct api_msg *msg = (struct api_msg*)m;
 1965              		.loc 1 624 0
 1966              		.cfi_startproc
 1967              		@ args = 0, pretend = 0, frame = 0
 1968              		@ frame_needed = 0, uses_anonymous_args = 0
 1969              	.LVL267:
 1970 0000 10B5     		push	{r4, lr}
 1971              		.cfi_def_cfa_offset 8
 1972              		.cfi_offset 4, -8
 1973              		.cfi_offset 14, -4
 1974 0002 0400     		movs	r4, r0
 1975              	.LVL268:
 627:Source\LwIP\src\api/api_msg.c ****   if (msg->conn->pcb.tcp == NULL) {
 1976              		.loc 1 627 0
 1977 0004 0023     		movs	r3, #0
 1978 0006 0371     		strb	r3, [r0, #4]
 628:Source\LwIP\src\api/api_msg.c ****     pcb_new(msg);
 1979              		.loc 1 628 0
 1980 0008 0368     		ldr	r3, [r0]
 1981 000a 5B68     		ldr	r3, [r3, #4]
 1982 000c 002B     		cmp	r3, #0
 1983 000e 01D1     		bne	.L144
 629:Source\LwIP\src\api/api_msg.c ****   }
 1984              		.loc 1 629 0
 1985 0010 FFF7FEFF 		bl	pcb_new
 1986              	.LVL269:
 1987              	.L144:
 635:Source\LwIP\src\api/api_msg.c **** }
 1988              		.loc 1 635 0
 1989 0014 2368     		ldr	r3, [r4]
 1990 0016 002B     		cmp	r3, #0
 1991 0018 0BD0     		beq	.L145
 1992              	.LBB17:
 635:Source\LwIP\src\api/api_msg.c **** }
 1993              		.loc 1 635 0 is_stmt 0 discriminator 1
 1994 001a FFF7FEFF 		bl	sys_arch_protect
 1995              	.LVL270:
 1996 001e 2368     		ldr	r3, [r4]
 1997 0020 0822     		movs	r2, #8
 1998 0022 9A56     		ldrsb	r2, [r3, r2]
 1999 0024 0C32     		adds	r2, r2, #12
 2000 0026 02DB     		blt	.L146
 635:Source\LwIP\src\api/api_msg.c **** }
 2001              		.loc 1 635 0 discriminator 3
 2002 0028 0422     		movs	r2, #4
 2003 002a A256     		ldrsb	r2, [r4, r2]
 2004 002c 1A72     		strb	r2, [r3, #8]
 2005              	.L146:
 635:Source\LwIP\src\api/api_msg.c **** }
 2006              		.loc 1 635 0 discriminator 5
ARM GAS  C:\Users\Phuong\AppData\Local\Temp\ccTHzCbL.s 			page 76


 2007 002e FFF7FEFF 		bl	sys_arch_unprotect
 2008              	.LVL271:
 2009              	.L145:
 2010              	.LBE17:
 635:Source\LwIP\src\api/api_msg.c **** }
 2011              		.loc 1 635 0 discriminator 6
 2012 0032 2068     		ldr	r0, [r4]
 2013 0034 0C30     		adds	r0, r0, #12
 2014 0036 FFF7FEFF 		bl	sys_sem_signal
 2015              	.LVL272:
 636:Source\LwIP\src\api/api_msg.c **** 
 2016              		.loc 1 636 0 is_stmt 1 discriminator 6
 2017              		@ sp needed
 2018              	.LVL273:
 2019 003a 10BD     		pop	{r4, pc}
 2020              		.cfi_endproc
 2021              	.LFE62:
 2022              		.size	lwip_netconn_do_newconn, .-lwip_netconn_do_newconn
 2023              		.section	.text.netconn_alloc,"ax",%progbits
 2024              		.align	2
 2025              		.global	netconn_alloc
 2026              		.code	16
 2027              		.thumb_func
 2028              		.type	netconn_alloc, %function
 2029              	netconn_alloc:
 2030              	.LFB63:
 649:Source\LwIP\src\api/api_msg.c ****   struct netconn *conn;
 2031              		.loc 1 649 0
 2032              		.cfi_startproc
 2033              		@ args = 0, pretend = 0, frame = 0
 2034              		@ frame_needed = 0, uses_anonymous_args = 0
 2035              	.LVL274:
 2036 0000 70B5     		push	{r4, r5, r6, lr}
 2037              		.cfi_def_cfa_offset 16
 2038              		.cfi_offset 4, -16
 2039              		.cfi_offset 5, -12
 2040              		.cfi_offset 6, -8
 2041              		.cfi_offset 14, -4
 2042 0002 0500     		movs	r5, r0
 2043 0004 0E00     		movs	r6, r1
 653:Source\LwIP\src\api/api_msg.c ****   if (conn == NULL) {
 2044              		.loc 1 653 0
 2045 0006 204A     		ldr	r2, .L153
 2046 0008 2049     		ldr	r1, .L153+4
 2047              	.LVL275:
 2048 000a 0720     		movs	r0, #7
 2049              	.LVL276:
 2050 000c FFF7FEFF 		bl	memp_malloc_fn
 2051              	.LVL277:
 2052 0010 041E     		subs	r4, r0, #0
 2053              	.LVL278:
 654:Source\LwIP\src\api/api_msg.c ****     return NULL;
 2054              		.loc 1 654 0
 2055 0012 36D0     		beq	.L152
 658:Source\LwIP\src\api/api_msg.c ****   conn->type = t;
 2056              		.loc 1 658 0
 2057 0014 0023     		movs	r3, #0
ARM GAS  C:\Users\Phuong\AppData\Local\Temp\ccTHzCbL.s 			page 77


 2058 0016 0372     		strb	r3, [r0, #8]
 659:Source\LwIP\src\api/api_msg.c ****   conn->pcb.tcp = NULL;
 2059              		.loc 1 659 0
 2060 0018 0570     		strb	r5, [r0]
 660:Source\LwIP\src\api/api_msg.c **** 
 2061              		.loc 1 660 0
 2062 001a 4360     		str	r3, [r0, #4]
 663:Source\LwIP\src\api/api_msg.c **** #if LWIP_RAW
 2063              		.loc 1 663 0
 2064 001c 0F33     		adds	r3, r3, #15
 2065 001e 2800     		movs	r0, r5
 2066              	.LVL279:
 2067 0020 9843     		bics	r0, r3
 2068 0022 2028     		cmp	r0, #32
 2069 0024 03D0     		beq	.L150
 2070 0026 4028     		cmp	r0, #64
 2071 0028 01D0     		beq	.L150
 2072 002a 1028     		cmp	r0, #16
 2073 002c 23D1     		bne	.L149
 2074              	.L150:
 2075              	.LVL280:
 684:Source\LwIP\src\api/api_msg.c ****     goto free_and_return;
 2076              		.loc 1 684 0
 2077 002e 2500     		movs	r5, r4
 2078 0030 1035     		adds	r5, r5, #16
 2079 0032 0021     		movs	r1, #0
 2080 0034 2800     		movs	r0, r5
 2081 0036 FFF7FEFF 		bl	sys_mbox_new
 2082              	.LVL281:
 2083 003a 0028     		cmp	r0, #0
 2084 003c 1BD1     		bne	.L149
 688:Source\LwIP\src\api/api_msg.c ****     sys_mbox_free(&conn->recvmbox);
 2085              		.loc 1 688 0
 2086 003e 2000     		movs	r0, r4
 2087 0040 0C30     		adds	r0, r0, #12
 2088 0042 0021     		movs	r1, #0
 2089 0044 FFF7FEFF 		bl	sys_sem_new
 2090              	.LVL282:
 2091 0048 0028     		cmp	r0, #0
 2092 004a 03D0     		beq	.L151
 689:Source\LwIP\src\api/api_msg.c ****     goto free_and_return;
 2093              		.loc 1 689 0
 2094 004c 2800     		movs	r0, r5
 2095 004e FFF7FEFF 		bl	sys_mbox_free
 2096              	.LVL283:
 690:Source\LwIP\src\api/api_msg.c ****   }
 2097              		.loc 1 690 0
 2098 0052 10E0     		b	.L149
 2099              	.L151:
 695:Source\LwIP\src\api/api_msg.c **** #endif
 2100              		.loc 1 695 0
 2101 0054 2000     		movs	r0, r4
 2102 0056 1430     		adds	r0, r0, #20
 2103 0058 FFF7FEFF 		bl	sys_mbox_set_invalid
 2104              	.LVL284:
 697:Source\LwIP\src\api/api_msg.c **** #if LWIP_SOCKET
 2105              		.loc 1 697 0
ARM GAS  C:\Users\Phuong\AppData\Local\Temp\ccTHzCbL.s 			page 78


 2106 005c 0023     		movs	r3, #0
 2107 005e 6370     		strb	r3, [r4, #1]
 700:Source\LwIP\src\api/api_msg.c **** #endif /* LWIP_SOCKET */
 2108              		.loc 1 700 0
 2109 0060 0122     		movs	r2, #1
 2110 0062 5242     		rsbs	r2, r2, #0
 2111 0064 A261     		str	r2, [r4, #24]
 702:Source\LwIP\src\api/api_msg.c **** #if LWIP_TCP
 2112              		.loc 1 702 0
 2113 0066 E662     		str	r6, [r4, #44]
 704:Source\LwIP\src\api/api_msg.c ****   conn->write_offset = 0;
 2114              		.loc 1 704 0
 2115 0068 A362     		str	r3, [r4, #40]
 705:Source\LwIP\src\api/api_msg.c **** #endif /* LWIP_TCP */
 2116              		.loc 1 705 0
 2117 006a 6362     		str	r3, [r4, #36]
 711:Source\LwIP\src\api/api_msg.c **** #endif /* LWIP_SO_RCVTIMEO */
 2118              		.loc 1 711 0
 2119 006c E361     		str	r3, [r4, #28]
 720:Source\LwIP\src\api/api_msg.c ****   return conn;
 2120              		.loc 1 720 0
 2121 006e 2132     		adds	r2, r2, #33
 2122 0070 A354     		strb	r3, [r4, r2]
 721:Source\LwIP\src\api/api_msg.c **** free_and_return:
 2123              		.loc 1 721 0
 2124 0072 2000     		movs	r0, r4
 2125 0074 06E0     		b	.L148
 2126              	.LVL285:
 2127              	.L149:
 723:Source\LwIP\src\api/api_msg.c ****   return NULL;
 2128              		.loc 1 723 0
 2129 0076 2100     		movs	r1, r4
 2130 0078 0720     		movs	r0, #7
 2131 007a FFF7FEFF 		bl	memp_free
 2132              	.LVL286:
 724:Source\LwIP\src\api/api_msg.c **** }
 2133              		.loc 1 724 0
 2134 007e 0020     		movs	r0, #0
 2135 0080 00E0     		b	.L148
 2136              	.LVL287:
 2137              	.L152:
 655:Source\LwIP\src\api/api_msg.c ****   }
 2138              		.loc 1 655 0
 2139 0082 0020     		movs	r0, #0
 2140              	.LVL288:
 2141              	.L148:
 725:Source\LwIP\src\api/api_msg.c **** 
 2142              		.loc 1 725 0
 2143              		@ sp needed
 2144              	.LVL289:
 2145              	.LVL290:
 2146 0084 70BD     		pop	{r4, r5, r6, pc}
 2147              	.L154:
 2148 0086 C046     		.align	2
 2149              	.L153:
 2150 0088 8D020000 		.word	653
 2151 008c 00000000 		.word	.LC0
ARM GAS  C:\Users\Phuong\AppData\Local\Temp\ccTHzCbL.s 			page 79


 2152              		.cfi_endproc
 2153              	.LFE63:
 2154              		.size	netconn_alloc, .-netconn_alloc
 2155              		.section	.text.netconn_free,"ax",%progbits
 2156              		.align	2
 2157              		.global	netconn_free
 2158              		.code	16
 2159              		.thumb_func
 2160              		.type	netconn_free, %function
 2161              	netconn_free:
 2162              	.LFB64:
 735:Source\LwIP\src\api/api_msg.c ****   LWIP_ASSERT("PCB must be deallocated outside this function", conn->pcb.tcp == NULL);
 2163              		.loc 1 735 0
 2164              		.cfi_startproc
 2165              		@ args = 0, pretend = 0, frame = 0
 2166              		@ frame_needed = 0, uses_anonymous_args = 0
 2167              	.LVL291:
 2168 0000 70B5     		push	{r4, r5, r6, lr}
 2169              		.cfi_def_cfa_offset 16
 2170              		.cfi_offset 4, -16
 2171              		.cfi_offset 5, -12
 2172              		.cfi_offset 6, -8
 2173              		.cfi_offset 14, -4
 2174 0002 0400     		movs	r4, r0
 737:Source\LwIP\src\api/api_msg.c ****     !sys_mbox_valid(&conn->recvmbox));
 2175              		.loc 1 737 0
 2176 0004 1030     		adds	r0, r0, #16
 2177              	.LVL292:
 2178 0006 FFF7FEFF 		bl	sys_mbox_valid
 2179              	.LVL293:
 740:Source\LwIP\src\api/api_msg.c ****     !sys_mbox_valid(&conn->acceptmbox));
 2180              		.loc 1 740 0
 2181 000a 2000     		movs	r0, r4
 2182 000c 1430     		adds	r0, r0, #20
 2183 000e FFF7FEFF 		bl	sys_mbox_valid
 2184              	.LVL294:
 745:Source\LwIP\src\api/api_msg.c ****   sys_sem_set_invalid(&conn->op_completed);
 2185              		.loc 1 745 0
 2186 0012 2500     		movs	r5, r4
 2187 0014 0C35     		adds	r5, r5, #12
 2188 0016 2800     		movs	r0, r5
 2189 0018 FFF7FEFF 		bl	sys_sem_free
 2190              	.LVL295:
 746:Source\LwIP\src\api/api_msg.c **** #endif
 2191              		.loc 1 746 0
 2192 001c 2800     		movs	r0, r5
 2193 001e FFF7FEFF 		bl	sys_sem_set_invalid
 2194              	.LVL296:
 749:Source\LwIP\src\api/api_msg.c **** }
 2195              		.loc 1 749 0
 2196 0022 2100     		movs	r1, r4
 2197 0024 0720     		movs	r0, #7
 2198 0026 FFF7FEFF 		bl	memp_free
 2199              	.LVL297:
 750:Source\LwIP\src\api/api_msg.c **** 
 2200              		.loc 1 750 0
 2201              		@ sp needed
ARM GAS  C:\Users\Phuong\AppData\Local\Temp\ccTHzCbL.s 			page 80


 2202              	.LVL298:
 2203              	.LVL299:
 2204 002a 70BD     		pop	{r4, r5, r6, pc}
 2205              		.cfi_endproc
 2206              	.LFE64:
 2207              		.size	netconn_free, .-netconn_free
 2208              		.section	.text.netconn_drain,"ax",%progbits
 2209              		.align	2
 2210              		.code	16
 2211              		.thumb_func
 2212              		.type	netconn_drain, %function
 2213              	netconn_drain:
 2214              	.LFB65:
 762:Source\LwIP\src\api/api_msg.c ****   void *mem;
 2215              		.loc 1 762 0
 2216              		.cfi_startproc
 2217              		@ args = 0, pretend = 0, frame = 8
 2218              		@ frame_needed = 0, uses_anonymous_args = 0
 2219              	.LVL300:
 2220 0000 70B5     		push	{r4, r5, r6, lr}
 2221              		.cfi_def_cfa_offset 16
 2222              		.cfi_offset 4, -16
 2223              		.cfi_offset 5, -12
 2224              		.cfi_offset 6, -8
 2225              		.cfi_offset 14, -4
 2226 0002 82B0     		sub	sp, sp, #8
 2227              		.cfi_def_cfa_offset 24
 2228 0004 0500     		movs	r5, r0
 771:Source\LwIP\src\api/api_msg.c ****     while (sys_mbox_tryfetch(&conn->recvmbox, &mem) != SYS_MBOX_EMPTY) {
 2229              		.loc 1 771 0
 2230 0006 0400     		movs	r4, r0
 2231 0008 1034     		adds	r4, r4, #16
 2232 000a 2000     		movs	r0, r4
 2233              	.LVL301:
 2234 000c FFF7FEFF 		bl	sys_mbox_valid
 2235              	.LVL302:
 2236 0010 0028     		cmp	r0, #0
 2237 0012 15D1     		bne	.L157
 2238 0014 20E0     		b	.L158
 2239              	.L162:
 774:Source\LwIP\src\api/api_msg.c ****         if (mem != NULL) {
 2240              		.loc 1 774 0
 2241 0016 2B78     		ldrb	r3, [r5]
 2242 0018 0F22     		movs	r2, #15
 2243 001a 9343     		bics	r3, r2
 2244 001c 102B     		cmp	r3, #16
 2245 001e 0CD1     		bne	.L159
 775:Source\LwIP\src\api/api_msg.c ****           p = (struct pbuf*)mem;
 2246              		.loc 1 775 0
 2247 0020 019E     		ldr	r6, [sp, #4]
 2248 0022 002E     		cmp	r6, #0
 2249 0024 0CD0     		beq	.L157
 2250              	.LVL303:
 778:Source\LwIP\src\api/api_msg.c ****             tcp_recved(conn->pcb.tcp, p->tot_len);
 2251              		.loc 1 778 0
 2252 0026 6868     		ldr	r0, [r5, #4]
 2253 0028 0028     		cmp	r0, #0
ARM GAS  C:\Users\Phuong\AppData\Local\Temp\ccTHzCbL.s 			page 81


 2254 002a 02D0     		beq	.L161
 779:Source\LwIP\src\api/api_msg.c ****           }
 2255              		.loc 1 779 0
 2256 002c 3189     		ldrh	r1, [r6, #8]
 2257 002e FFF7FEFF 		bl	tcp_recved
 2258              	.LVL304:
 2259              	.L161:
 781:Source\LwIP\src\api/api_msg.c ****         }
 2260              		.loc 1 781 0
 2261 0032 3000     		movs	r0, r6
 2262 0034 FFF7FEFF 		bl	pbuf_free
 2263              	.LVL305:
 2264 0038 02E0     		b	.L157
 2265              	.LVL306:
 2266              	.L159:
 786:Source\LwIP\src\api/api_msg.c ****       }
 2267              		.loc 1 786 0
 2268 003a 0198     		ldr	r0, [sp, #4]
 2269 003c FFF7FEFF 		bl	netbuf_delete
 2270              	.LVL307:
 2271              	.L157:
 772:Source\LwIP\src\api/api_msg.c **** #if LWIP_TCP
 2272              		.loc 1 772 0
 2273 0040 01A9     		add	r1, sp, #4
 2274 0042 2000     		movs	r0, r4
 2275 0044 FFF7FEFF 		bl	sys_arch_mbox_tryfetch
 2276              	.LVL308:
 2277 0048 431C     		adds	r3, r0, #1
 2278 004a E4D1     		bne	.L162
 789:Source\LwIP\src\api/api_msg.c ****     sys_mbox_set_invalid(&conn->recvmbox);
 2279              		.loc 1 789 0
 2280 004c 2000     		movs	r0, r4
 2281 004e FFF7FEFF 		bl	sys_mbox_free
 2282              	.LVL309:
 790:Source\LwIP\src\api/api_msg.c ****   }
 2283              		.loc 1 790 0
 2284 0052 2000     		movs	r0, r4
 2285 0054 FFF7FEFF 		bl	sys_mbox_set_invalid
 2286              	.LVL310:
 2287              	.L158:
 795:Source\LwIP\src\api/api_msg.c ****     while (sys_mbox_tryfetch(&conn->acceptmbox, &mem) != SYS_MBOX_EMPTY) {
 2288              		.loc 1 795 0
 2289 0058 1435     		adds	r5, r5, #20
 2290              	.LVL311:
 2291 005a 2800     		movs	r0, r5
 2292 005c FFF7FEFF 		bl	sys_mbox_valid
 2293              	.LVL312:
 2294 0060 0028     		cmp	r0, #0
 2295 0062 11D1     		bne	.L165
 2296 0064 1CE0     		b	.L156
 2297              	.L167:
 797:Source\LwIP\src\api/api_msg.c ****         struct netconn *newconn = (struct netconn *)mem;
 2298              		.loc 1 797 0
 2299 0066 019C     		ldr	r4, [sp, #4]
 2300 0068 0E4B     		ldr	r3, .L168
 2301 006a 9C42     		cmp	r4, r3
 2302 006c 0CD0     		beq	.L165
ARM GAS  C:\Users\Phuong\AppData\Local\Temp\ccTHzCbL.s 			page 82


 2303              	.LVL313:
 2304              	.LBB18:
 802:Source\LwIP\src\api/api_msg.c ****         if (newconn->pcb.tcp != NULL) {
 2305              		.loc 1 802 0
 2306 006e 2000     		movs	r0, r4
 2307 0070 FFF7C6FF 		bl	netconn_drain
 2308              	.LVL314:
 803:Source\LwIP\src\api/api_msg.c ****           tcp_abort(newconn->pcb.tcp);
 2309              		.loc 1 803 0
 2310 0074 6068     		ldr	r0, [r4, #4]
 2311 0076 0028     		cmp	r0, #0
 2312 0078 03D0     		beq	.L166
 804:Source\LwIP\src\api/api_msg.c ****           newconn->pcb.tcp = NULL;
 2313              		.loc 1 804 0
 2314 007a FFF7FEFF 		bl	tcp_abort
 2315              	.LVL315:
 805:Source\LwIP\src\api/api_msg.c ****         }
 2316              		.loc 1 805 0
 2317 007e 0023     		movs	r3, #0
 2318 0080 6360     		str	r3, [r4, #4]
 2319              	.L166:
 807:Source\LwIP\src\api/api_msg.c ****       }
 2320              		.loc 1 807 0
 2321 0082 2000     		movs	r0, r4
 2322 0084 FFF7FEFF 		bl	netconn_free
 2323              	.LVL316:
 2324              	.L165:
 2325              	.LBE18:
 796:Source\LwIP\src\api/api_msg.c ****       if (mem != &netconn_aborted) {
 2326              		.loc 1 796 0
 2327 0088 01A9     		add	r1, sp, #4
 2328 008a 2800     		movs	r0, r5
 2329 008c FFF7FEFF 		bl	sys_arch_mbox_tryfetch
 2330              	.LVL317:
 2331 0090 431C     		adds	r3, r0, #1
 2332 0092 E8D1     		bne	.L167
 810:Source\LwIP\src\api/api_msg.c ****     sys_mbox_set_invalid(&conn->acceptmbox);
 2333              		.loc 1 810 0
 2334 0094 2800     		movs	r0, r5
 2335 0096 FFF7FEFF 		bl	sys_mbox_free
 2336              	.LVL318:
 811:Source\LwIP\src\api/api_msg.c ****   }
 2337              		.loc 1 811 0
 2338 009a 2800     		movs	r0, r5
 2339 009c FFF7FEFF 		bl	sys_mbox_set_invalid
 2340              	.LVL319:
 2341              	.L156:
 814:Source\LwIP\src\api/api_msg.c **** 
 2342              		.loc 1 814 0
 2343 00a0 02B0     		add	sp, sp, #8
 2344              		@ sp needed
 2345              	.LVL320:
 2346 00a2 70BD     		pop	{r4, r5, r6, pc}
 2347              	.L169:
 2348              		.align	2
 2349              	.L168:
 2350 00a4 00000000 		.word	netconn_aborted
ARM GAS  C:\Users\Phuong\AppData\Local\Temp\ccTHzCbL.s 			page 83


 2351              		.cfi_endproc
 2352              	.LFE65:
 2353              		.size	netconn_drain, .-netconn_drain
 2354              		.section	.text.accept_function,"ax",%progbits
 2355              		.align	2
 2356              		.code	16
 2357              		.thumb_func
 2358              		.type	accept_function, %function
 2359              	accept_function:
 2360              	.LFB60:
 476:Source\LwIP\src\api/api_msg.c ****   struct netconn *newconn;
 2361              		.loc 1 476 0
 2362              		.cfi_startproc
 2363              		@ args = 0, pretend = 0, frame = 8
 2364              		@ frame_needed = 0, uses_anonymous_args = 0
 2365              	.LVL321:
 2366 0000 F0B5     		push	{r4, r5, r6, r7, lr}
 2367              		.cfi_def_cfa_offset 20
 2368              		.cfi_offset 4, -20
 2369              		.cfi_offset 5, -16
 2370              		.cfi_offset 6, -12
 2371              		.cfi_offset 7, -8
 2372              		.cfi_offset 14, -4
 2373 0002 83B0     		sub	sp, sp, #12
 2374              		.cfi_def_cfa_offset 32
 2375 0004 0400     		movs	r4, r0
 2376 0006 0F00     		movs	r7, r1
 2377 0008 0192     		str	r2, [sp, #4]
 2378              	.LVL322:
 480:Source\LwIP\src\api/api_msg.c ****     return ERR_VAL;
 2379              		.loc 1 480 0
 2380 000a 0028     		cmp	r0, #0
 2381 000c 6BD0     		beq	.L175
 483:Source\LwIP\src\api/api_msg.c ****     LWIP_DEBUGF(API_MSG_DEBUG, ("accept_function: acceptmbox already deleted\n"));
 2382              		.loc 1 483 0
 2383 000e 0600     		movs	r6, r0
 2384 0010 1436     		adds	r6, r6, #20
 2385 0012 3000     		movs	r0, r6
 2386              	.LVL323:
 2387 0014 FFF7FEFF 		bl	sys_mbox_valid
 2388              	.LVL324:
 2389 0018 0028     		cmp	r0, #0
 2390 001a 67D0     		beq	.L176
 488:Source\LwIP\src\api/api_msg.c ****     /* out-of-pcbs during connect: pass on this error to the application */
 2391              		.loc 1 488 0
 2392 001c 002F     		cmp	r7, #0
 2393 001e 0FD1     		bne	.L172
 490:Source\LwIP\src\api/api_msg.c ****       /* Register event with callback */
 2394              		.loc 1 490 0
 2395 0020 3B49     		ldr	r1, .L181
 2396 0022 3000     		movs	r0, r6
 2397 0024 FFF7FEFF 		bl	sys_mbox_trypost
 2398              	.LVL325:
 2399 0028 0028     		cmp	r0, #0
 2400 002a 62D1     		bne	.L177
 492:Source\LwIP\src\api/api_msg.c ****     }
 2401              		.loc 1 492 0
ARM GAS  C:\Users\Phuong\AppData\Local\Temp\ccTHzCbL.s 			page 84


 2402 002c E36A     		ldr	r3, [r4, #44]
 2403 002e 002B     		cmp	r3, #0
 2404 0030 62D0     		beq	.L178
 492:Source\LwIP\src\api/api_msg.c ****     }
 2405              		.loc 1 492 0 is_stmt 0 discriminator 1
 2406 0032 0022     		movs	r2, #0
 2407 0034 0021     		movs	r1, #0
 2408 0036 2000     		movs	r0, r4
 2409 0038 9847     		blx	r3
 2410              	.LVL326:
 494:Source\LwIP\src\api/api_msg.c ****   }
 2411              		.loc 1 494 0 is_stmt 1 discriminator 1
 2412 003a 0626     		movs	r6, #6
 2413 003c 7642     		rsbs	r6, r6, #0
 2414 003e 63E0     		b	.L171
 2415              	.L172:
 501:Source\LwIP\src\api/api_msg.c ****   if (newconn == NULL) {
 2416              		.loc 1 501 0
 2417 0040 2078     		ldrb	r0, [r4]
 2418 0042 E16A     		ldr	r1, [r4, #44]
 2419 0044 FFF7FEFF 		bl	netconn_alloc
 2420              	.LVL327:
 2421 0048 051E     		subs	r5, r0, #0
 2422              	.LVL328:
 502:Source\LwIP\src\api/api_msg.c ****     /* outof netconns: pass on this error to the application */
 2423              		.loc 1 502 0
 2424 004a 0FD1     		bne	.L173
 504:Source\LwIP\src\api/api_msg.c ****       /* Register event with callback */
 2425              		.loc 1 504 0
 2426 004c 3049     		ldr	r1, .L181
 2427 004e 3000     		movs	r0, r6
 2428              	.LVL329:
 2429 0050 FFF7FEFF 		bl	sys_mbox_trypost
 2430              	.LVL330:
 2431 0054 0028     		cmp	r0, #0
 2432 0056 52D1     		bne	.L179
 506:Source\LwIP\src\api/api_msg.c ****     }
 2433              		.loc 1 506 0
 2434 0058 E36A     		ldr	r3, [r4, #44]
 2435 005a 002B     		cmp	r3, #0
 2436 005c 52D0     		beq	.L180
 506:Source\LwIP\src\api/api_msg.c ****     }
 2437              		.loc 1 506 0 is_stmt 0 discriminator 1
 2438 005e 0022     		movs	r2, #0
 2439 0060 0021     		movs	r1, #0
 2440 0062 2000     		movs	r0, r4
 2441 0064 9847     		blx	r3
 2442              	.LVL331:
 508:Source\LwIP\src\api/api_msg.c ****   }
 2443              		.loc 1 508 0 is_stmt 1 discriminator 1
 2444 0066 0126     		movs	r6, #1
 2445 0068 7642     		rsbs	r6, r6, #0
 2446 006a 4DE0     		b	.L171
 2447              	.LVL332:
 2448              	.L173:
 510:Source\LwIP\src\api/api_msg.c ****   setup_tcp(newconn);
 2449              		.loc 1 510 0
ARM GAS  C:\Users\Phuong\AppData\Local\Temp\ccTHzCbL.s 			page 85


 2450 006c 4760     		str	r7, [r0, #4]
 511:Source\LwIP\src\api/api_msg.c ****   /* no protection: when creating the pcb, the netconn is not yet known
 2451              		.loc 1 511 0
 2452 006e FFF7FEFF 		bl	setup_tcp
 2453              	.LVL333:
 514:Source\LwIP\src\api/api_msg.c **** 
 2454              		.loc 1 514 0
 2455 0072 6B46     		mov	r3, sp
 2456 0074 1B79     		ldrb	r3, [r3, #4]
 2457 0076 2B72     		strb	r3, [r5, #8]
 517:Source\LwIP\src\api/api_msg.c **** 
 2458              		.loc 1 517 0
 2459 0078 3800     		movs	r0, r7
 2460 007a FFF7FEFF 		bl	tcp_backlog_delayed
 2461              	.LVL334:
 519:Source\LwIP\src\api/api_msg.c ****     /* When returning != ERR_OK, the pcb is aborted in tcp_process(),
 2462              		.loc 1 519 0
 2463 007e 2900     		movs	r1, r5
 2464 0080 3000     		movs	r0, r6
 2465 0082 FFF7FEFF 		bl	sys_mbox_trypost
 2466              	.LVL335:
 2467 0086 061E     		subs	r6, r0, #0
 2468 0088 25D0     		beq	.L174
 2469              	.LBB19:
 523:Source\LwIP\src\api/api_msg.c ****     tcp_arg(pcb, NULL);
 2470              		.loc 1 523 0
 2471 008a 6C68     		ldr	r4, [r5, #4]
 2472              	.LVL336:
 524:Source\LwIP\src\api/api_msg.c ****     tcp_recv(pcb, NULL);
 2473              		.loc 1 524 0
 2474 008c 0021     		movs	r1, #0
 2475 008e 2000     		movs	r0, r4
 2476 0090 FFF7FEFF 		bl	tcp_arg
 2477              	.LVL337:
 525:Source\LwIP\src\api/api_msg.c ****     tcp_sent(pcb, NULL);
 2478              		.loc 1 525 0
 2479 0094 0021     		movs	r1, #0
 2480 0096 2000     		movs	r0, r4
 2481 0098 FFF7FEFF 		bl	tcp_recv
 2482              	.LVL338:
 526:Source\LwIP\src\api/api_msg.c ****     tcp_poll(pcb, NULL, 0);
 2483              		.loc 1 526 0
 2484 009c 0021     		movs	r1, #0
 2485 009e 2000     		movs	r0, r4
 2486 00a0 FFF7FEFF 		bl	tcp_sent
 2487              	.LVL339:
 527:Source\LwIP\src\api/api_msg.c ****     tcp_err(pcb, NULL);
 2488              		.loc 1 527 0
 2489 00a4 0022     		movs	r2, #0
 2490 00a6 0021     		movs	r1, #0
 2491 00a8 2000     		movs	r0, r4
 2492 00aa FFF7FEFF 		bl	tcp_poll
 2493              	.LVL340:
 528:Source\LwIP\src\api/api_msg.c ****     /* remove reference from to the pcb from this netconn */
 2494              		.loc 1 528 0
 2495 00ae 0021     		movs	r1, #0
 2496 00b0 2000     		movs	r0, r4
ARM GAS  C:\Users\Phuong\AppData\Local\Temp\ccTHzCbL.s 			page 86


 2497 00b2 FFF7FEFF 		bl	tcp_err
 2498              	.LVL341:
 530:Source\LwIP\src\api/api_msg.c ****     /* no need to drain since we know the recvmbox is empty. */
 2499              		.loc 1 530 0
 2500 00b6 0023     		movs	r3, #0
 2501 00b8 6B60     		str	r3, [r5, #4]
 532:Source\LwIP\src\api/api_msg.c ****     sys_mbox_set_invalid(&newconn->recvmbox);
 2502              		.loc 1 532 0
 2503 00ba 2C00     		movs	r4, r5
 2504              	.LVL342:
 2505 00bc 1034     		adds	r4, r4, #16
 2506 00be 2000     		movs	r0, r4
 2507 00c0 FFF7FEFF 		bl	sys_mbox_free
 2508              	.LVL343:
 533:Source\LwIP\src\api/api_msg.c ****     netconn_free(newconn);
 2509              		.loc 1 533 0
 2510 00c4 2000     		movs	r0, r4
 2511 00c6 FFF7FEFF 		bl	sys_mbox_set_invalid
 2512              	.LVL344:
 534:Source\LwIP\src\api/api_msg.c ****     return ERR_MEM;
 2513              		.loc 1 534 0
 2514 00ca 2800     		movs	r0, r5
 2515 00cc FFF7FEFF 		bl	netconn_free
 2516              	.LVL345:
 535:Source\LwIP\src\api/api_msg.c ****   } else {
 2517              		.loc 1 535 0
 2518 00d0 0126     		movs	r6, #1
 2519 00d2 7642     		rsbs	r6, r6, #0
 2520 00d4 18E0     		b	.L171
 2521              	.LVL346:
 2522              	.L174:
 2523              	.LBE19:
 538:Source\LwIP\src\api/api_msg.c ****   }
 2524              		.loc 1 538 0
 2525 00d6 E36A     		ldr	r3, [r4, #44]
 2526 00d8 002B     		cmp	r3, #0
 2527 00da 15D0     		beq	.L171
 538:Source\LwIP\src\api/api_msg.c ****   }
 2528              		.loc 1 538 0 is_stmt 0 discriminator 1
 2529 00dc 0022     		movs	r2, #0
 2530 00de 0021     		movs	r1, #0
 2531 00e0 2000     		movs	r0, r4
 2532 00e2 9847     		blx	r3
 2533              	.LVL347:
 2534 00e4 10E0     		b	.L171
 2535              	.LVL348:
 2536              	.L175:
 481:Source\LwIP\src\api/api_msg.c ****   }
 2537              		.loc 1 481 0 is_stmt 1
 2538 00e6 0626     		movs	r6, #6
 2539 00e8 7642     		rsbs	r6, r6, #0
 2540 00ea 0DE0     		b	.L171
 2541              	.LVL349:
 2542              	.L176:
 485:Source\LwIP\src\api/api_msg.c ****   }
 2543              		.loc 1 485 0
 2544 00ec 0626     		movs	r6, #6
ARM GAS  C:\Users\Phuong\AppData\Local\Temp\ccTHzCbL.s 			page 87


 2545 00ee 7642     		rsbs	r6, r6, #0
 2546 00f0 0AE0     		b	.L171
 2547              	.L177:
 494:Source\LwIP\src\api/api_msg.c ****   }
 2548              		.loc 1 494 0
 2549 00f2 0626     		movs	r6, #6
 2550 00f4 7642     		rsbs	r6, r6, #0
 2551 00f6 07E0     		b	.L171
 2552              	.L178:
 2553 00f8 0626     		movs	r6, #6
 2554 00fa 7642     		rsbs	r6, r6, #0
 2555 00fc 04E0     		b	.L171
 2556              	.LVL350:
 2557              	.L179:
 508:Source\LwIP\src\api/api_msg.c ****   }
 2558              		.loc 1 508 0
 2559 00fe 0126     		movs	r6, #1
 2560 0100 7642     		rsbs	r6, r6, #0
 2561 0102 01E0     		b	.L171
 2562              	.L180:
 2563 0104 0126     		movs	r6, #1
 2564 0106 7642     		rsbs	r6, r6, #0
 2565              	.LVL351:
 2566              	.L171:
 542:Source\LwIP\src\api/api_msg.c **** #endif /* LWIP_TCP */
 2567              		.loc 1 542 0
 2568 0108 3000     		movs	r0, r6
 2569 010a 03B0     		add	sp, sp, #12
 2570              		@ sp needed
 2571              	.LVL352:
 2572 010c F0BD     		pop	{r4, r5, r6, r7, pc}
 2573              	.L182:
 2574 010e C046     		.align	2
 2575              	.L181:
 2576 0110 00000000 		.word	netconn_aborted
 2577              		.cfi_endproc
 2578              	.LFE60:
 2579              		.size	accept_function, .-accept_function
 2580              		.section	.text.lwip_netconn_do_delconn,"ax",%progbits
 2581              		.align	2
 2582              		.global	lwip_netconn_do_delconn
 2583              		.code	16
 2584              		.thumb_func
 2585              		.type	lwip_netconn_do_delconn, %function
 2586              	lwip_netconn_do_delconn:
 2587              	.LFB67:
1020:Source\LwIP\src\api/api_msg.c ****   struct api_msg *msg = (struct api_msg*)m;
 2588              		.loc 1 1020 0
 2589              		.cfi_startproc
 2590              		@ args = 0, pretend = 0, frame = 0
 2591              		@ frame_needed = 0, uses_anonymous_args = 0
 2592              	.LVL353:
 2593 0000 10B5     		push	{r4, lr}
 2594              		.cfi_def_cfa_offset 8
 2595              		.cfi_offset 4, -8
 2596              		.cfi_offset 14, -4
 2597 0002 0400     		movs	r4, r0
ARM GAS  C:\Users\Phuong\AppData\Local\Temp\ccTHzCbL.s 			page 88


 2598              	.LVL354:
1023:Source\LwIP\src\api/api_msg.c ****   LWIP_ASSERT("netconn state error", /* this only happens for TCP netconns */
 2599              		.loc 1 1023 0
 2600 0004 0068     		ldr	r0, [r0]
 2601              	.LVL355:
 2602 0006 4378     		ldrb	r3, [r0, #1]
 2603              	.LVL356:
1044:Source\LwIP\src\api/api_msg.c ****        (state != NETCONN_LISTEN) &&
 2604              		.loc 1 1044 0
 2605 0008 002B     		cmp	r3, #0
 2606 000a 03D0     		beq	.L184
1044:Source\LwIP\src\api/api_msg.c ****        (state != NETCONN_LISTEN) &&
 2607              		.loc 1 1044 0 is_stmt 0 discriminator 1
 2608 000c 022B     		cmp	r3, #2
 2609 000e 01D0     		beq	.L184
1045:Source\LwIP\src\api/api_msg.c ****        (state != NETCONN_CONNECT)) ||
 2610              		.loc 1 1045 0 is_stmt 1
 2611 0010 032B     		cmp	r3, #3
 2612 0012 05D1     		bne	.L185
 2613              	.L184:
1046:Source\LwIP\src\api/api_msg.c ****       ((state == NETCONN_CONNECT) && !IN_NONBLOCKING_CONNECT(msg->conn))) {
 2614              		.loc 1 1046 0
 2615 0014 032B     		cmp	r3, #3
 2616 0016 06D1     		bne	.L186
1047:Source\LwIP\src\api/api_msg.c ****     /* This means either a blocking write or blocking connect is running
 2617              		.loc 1 1047 0
 2618 0018 1D33     		adds	r3, r3, #29
 2619              	.LVL357:
 2620 001a C35C     		ldrb	r3, [r0, r3]
 2621              	.LVL358:
 2622 001c 5B07     		lsls	r3, r3, #29
 2623 001e 02D4     		bmi	.L186
 2624              	.L185:
1050:Source\LwIP\src\api/api_msg.c ****   } else
 2625              		.loc 1 1050 0
 2626 0020 FB23     		movs	r3, #251
 2627 0022 2371     		strb	r3, [r4, #4]
 2628              	.LVL359:
 2629 0024 36E0     		b	.L187
 2630              	.LVL360:
 2631              	.L186:
1056:Source\LwIP\src\api/api_msg.c ****     /* Drain and delete mboxes */
 2632              		.loc 1 1056 0
 2633 0026 0023     		movs	r3, #0
 2634 0028 2371     		strb	r3, [r4, #4]
 2635              	.LVL361:
1058:Source\LwIP\src\api/api_msg.c **** 
 2636              		.loc 1 1058 0
 2637 002a FFF7FEFF 		bl	netconn_drain
 2638              	.LVL362:
1060:Source\LwIP\src\api/api_msg.c **** 
 2639              		.loc 1 1060 0
 2640 002e 2268     		ldr	r2, [r4]
 2641 0030 5068     		ldr	r0, [r2, #4]
 2642 0032 0028     		cmp	r0, #0
 2643 0034 20D0     		beq	.L188
1062:Source\LwIP\src\api/api_msg.c **** #if LWIP_RAW
ARM GAS  C:\Users\Phuong\AppData\Local\Temp\ccTHzCbL.s 			page 89


 2644              		.loc 1 1062 0
 2645 0036 1378     		ldrb	r3, [r2]
 2646 0038 0F21     		movs	r1, #15
 2647 003a 8B43     		bics	r3, r1
 2648 003c 202B     		cmp	r3, #32
 2649 003e 07D0     		beq	.L190
 2650 0040 402B     		cmp	r3, #64
 2651 0042 02D0     		beq	.L191
 2652 0044 102B     		cmp	r3, #16
 2653 0046 14D1     		bne	.L189
 2654 0048 09E0     		b	.L192
 2655              	.L191:
1065:Source\LwIP\src\api/api_msg.c ****         break;
 2656              		.loc 1 1065 0
 2657 004a FFF7FEFF 		bl	raw_remove
 2658              	.LVL363:
1066:Source\LwIP\src\api/api_msg.c **** #endif /* LWIP_RAW */
 2659              		.loc 1 1066 0
 2660 004e 10E0     		b	.L189
 2661              	.L190:
1070:Source\LwIP\src\api/api_msg.c ****         udp_remove(msg->conn->pcb.udp);
 2662              		.loc 1 1070 0
 2663 0050 0023     		movs	r3, #0
 2664 0052 4362     		str	r3, [r0, #36]
1071:Source\LwIP\src\api/api_msg.c ****         break;
 2665              		.loc 1 1071 0
 2666 0054 2368     		ldr	r3, [r4]
 2667 0056 5868     		ldr	r0, [r3, #4]
 2668 0058 FFF7FEFF 		bl	udp_remove
 2669              	.LVL364:
1072:Source\LwIP\src\api/api_msg.c **** #endif /* LWIP_UDP */
 2670              		.loc 1 1072 0
 2671 005c 09E0     		b	.L189
 2672              	.L192:
1078:Source\LwIP\src\api/api_msg.c ****         msg->msg.sd.shut = NETCONN_SHUT_RDWR;
 2673              		.loc 1 1078 0
 2674 005e 0423     		movs	r3, #4
 2675 0060 5370     		strb	r3, [r2, #1]
1079:Source\LwIP\src\api/api_msg.c ****         msg->conn->current_msg = msg;
 2676              		.loc 1 1079 0
 2677 0062 013B     		subs	r3, r3, #1
 2678 0064 2372     		strb	r3, [r4, #8]
1080:Source\LwIP\src\api/api_msg.c **** #if LWIP_TCPIP_CORE_LOCKING
 2679              		.loc 1 1080 0
 2680 0066 2368     		ldr	r3, [r4]
 2681 0068 9C62     		str	r4, [r3, #40]
1090:Source\LwIP\src\api/api_msg.c **** #endif /* LWIP_TCPIP_CORE_LOCKING */
 2682              		.loc 1 1090 0
 2683 006a 2068     		ldr	r0, [r4]
 2684 006c FFF7FEFF 		bl	lwip_netconn_do_close_internal
 2685              	.LVL365:
1094:Source\LwIP\src\api/api_msg.c **** #endif /* LWIP_TCP */
 2686              		.loc 1 1094 0
 2687 0070 29E0     		b	.L183
 2688              	.L189:
1099:Source\LwIP\src\api/api_msg.c ****     }
 2689              		.loc 1 1099 0
ARM GAS  C:\Users\Phuong\AppData\Local\Temp\ccTHzCbL.s 			page 90


 2690 0072 2368     		ldr	r3, [r4]
 2691 0074 0022     		movs	r2, #0
 2692 0076 5A60     		str	r2, [r3, #4]
 2693              	.L188:
1105:Source\LwIP\src\api/api_msg.c ****     API_EVENT(msg->conn, NETCONN_EVT_SENDPLUS, 0);
 2694              		.loc 1 1105 0
 2695 0078 2068     		ldr	r0, [r4]
 2696 007a C36A     		ldr	r3, [r0, #44]
 2697 007c 002B     		cmp	r3, #0
 2698 007e 02D0     		beq	.L194
1105:Source\LwIP\src\api/api_msg.c ****     API_EVENT(msg->conn, NETCONN_EVT_SENDPLUS, 0);
 2699              		.loc 1 1105 0 is_stmt 0 discriminator 1
 2700 0080 0022     		movs	r2, #0
 2701 0082 0021     		movs	r1, #0
 2702 0084 9847     		blx	r3
 2703              	.LVL366:
 2704              	.L194:
1106:Source\LwIP\src\api/api_msg.c ****   }
 2705              		.loc 1 1106 0 is_stmt 1
 2706 0086 2068     		ldr	r0, [r4]
 2707 0088 C36A     		ldr	r3, [r0, #44]
 2708 008a 002B     		cmp	r3, #0
 2709 008c 02D0     		beq	.L187
1106:Source\LwIP\src\api/api_msg.c ****   }
 2710              		.loc 1 1106 0 is_stmt 0 discriminator 1
 2711 008e 0022     		movs	r2, #0
 2712 0090 0221     		movs	r1, #2
 2713 0092 9847     		blx	r3
 2714              	.LVL367:
 2715              	.L187:
1108:Source\LwIP\src\api/api_msg.c ****     TCPIP_APIMSG_ACK(msg);
 2716              		.loc 1 1108 0 is_stmt 1
 2717 0094 2068     		ldr	r0, [r4]
 2718 0096 0C30     		adds	r0, r0, #12
 2719 0098 FFF7FEFF 		bl	sys_sem_valid
 2720              	.LVL368:
 2721 009c 0028     		cmp	r0, #0
 2722 009e 12D0     		beq	.L183
1109:Source\LwIP\src\api/api_msg.c ****   }
 2723              		.loc 1 1109 0
 2724 00a0 2368     		ldr	r3, [r4]
 2725 00a2 002B     		cmp	r3, #0
 2726 00a4 0BD0     		beq	.L195
 2727              	.LBB20:
1109:Source\LwIP\src\api/api_msg.c ****   }
 2728              		.loc 1 1109 0 is_stmt 0 discriminator 1
 2729 00a6 FFF7FEFF 		bl	sys_arch_protect
 2730              	.LVL369:
 2731 00aa 2368     		ldr	r3, [r4]
 2732 00ac 0822     		movs	r2, #8
 2733 00ae 9A56     		ldrsb	r2, [r3, r2]
 2734 00b0 0C32     		adds	r2, r2, #12
 2735 00b2 02DB     		blt	.L196
1109:Source\LwIP\src\api/api_msg.c ****   }
 2736              		.loc 1 1109 0 discriminator 3
 2737 00b4 0422     		movs	r2, #4
 2738 00b6 A256     		ldrsb	r2, [r4, r2]
ARM GAS  C:\Users\Phuong\AppData\Local\Temp\ccTHzCbL.s 			page 91


 2739 00b8 1A72     		strb	r2, [r3, #8]
 2740              	.L196:
1109:Source\LwIP\src\api/api_msg.c ****   }
 2741              		.loc 1 1109 0 discriminator 5
 2742 00ba FFF7FEFF 		bl	sys_arch_unprotect
 2743              	.LVL370:
 2744              	.L195:
 2745              	.LBE20:
1109:Source\LwIP\src\api/api_msg.c ****   }
 2746              		.loc 1 1109 0 discriminator 6
 2747 00be 2068     		ldr	r0, [r4]
 2748 00c0 0C30     		adds	r0, r0, #12
 2749 00c2 FFF7FEFF 		bl	sys_sem_signal
 2750              	.LVL371:
 2751              	.L183:
1111:Source\LwIP\src\api/api_msg.c **** 
 2752              		.loc 1 1111 0 is_stmt 1
 2753              		@ sp needed
 2754              	.LVL372:
 2755 00c6 10BD     		pop	{r4, pc}
 2756              		.cfi_endproc
 2757              	.LFE67:
 2758              		.size	lwip_netconn_do_delconn, .-lwip_netconn_do_delconn
 2759              		.section	.text.lwip_netconn_do_bind,"ax",%progbits
 2760              		.align	2
 2761              		.global	lwip_netconn_do_bind
 2762              		.code	16
 2763              		.thumb_func
 2764              		.type	lwip_netconn_do_bind, %function
 2765              	lwip_netconn_do_bind:
 2766              	.LFB68:
1122:Source\LwIP\src\api/api_msg.c ****   struct api_msg *msg = (struct api_msg*)m;
 2767              		.loc 1 1122 0
 2768              		.cfi_startproc
 2769              		@ args = 0, pretend = 0, frame = 0
 2770              		@ frame_needed = 0, uses_anonymous_args = 0
 2771              	.LVL373:
 2772 0000 10B5     		push	{r4, lr}
 2773              		.cfi_def_cfa_offset 8
 2774              		.cfi_offset 4, -8
 2775              		.cfi_offset 14, -4
 2776 0002 0400     		movs	r4, r0
 2777              	.LVL374:
1125:Source\LwIP\src\api/api_msg.c ****     msg->err = msg->conn->last_err;
 2778              		.loc 1 1125 0
 2779 0004 0368     		ldr	r3, [r0]
 2780 0006 0822     		movs	r2, #8
 2781 0008 9A56     		ldrsb	r2, [r3, r2]
 2782 000a 1100     		movs	r1, r2
 2783 000c 0C31     		adds	r1, r1, #12
 2784 000e 01DA     		bge	.L198
1126:Source\LwIP\src\api/api_msg.c ****   } else {
 2785              		.loc 1 1126 0
 2786 0010 0271     		strb	r2, [r0, #4]
 2787 0012 1EE0     		b	.L199
 2788              	.L198:
1128:Source\LwIP\src\api/api_msg.c ****     if (msg->conn->pcb.tcp != NULL) {
ARM GAS  C:\Users\Phuong\AppData\Local\Temp\ccTHzCbL.s 			page 92


 2789              		.loc 1 1128 0
 2790 0014 FA22     		movs	r2, #250
 2791 0016 0271     		strb	r2, [r0, #4]
1129:Source\LwIP\src\api/api_msg.c ****       switch (NETCONNTYPE_GROUP(msg->conn->type)) {
 2792              		.loc 1 1129 0
 2793 0018 5868     		ldr	r0, [r3, #4]
 2794              	.LVL375:
 2795 001a 0028     		cmp	r0, #0
 2796 001c 19D0     		beq	.L199
1130:Source\LwIP\src\api/api_msg.c **** #if LWIP_RAW
 2797              		.loc 1 1130 0
 2798 001e 1B78     		ldrb	r3, [r3]
 2799 0020 EB3A     		subs	r2, r2, #235
 2800 0022 9343     		bics	r3, r2
 2801 0024 202B     		cmp	r3, #32
 2802 0026 09D0     		beq	.L200
 2803 0028 402B     		cmp	r3, #64
 2804 002a 02D0     		beq	.L201
 2805 002c 102B     		cmp	r3, #16
 2806 002e 10D1     		bne	.L199
 2807 0030 0AE0     		b	.L202
 2808              	.L201:
1133:Source\LwIP\src\api/api_msg.c ****         break;
 2809              		.loc 1 1133 0
 2810 0032 A168     		ldr	r1, [r4, #8]
 2811 0034 FFF7FEFF 		bl	raw_bind
 2812              	.LVL376:
 2813 0038 2071     		strb	r0, [r4, #4]
1134:Source\LwIP\src\api/api_msg.c **** #endif /* LWIP_RAW */
 2814              		.loc 1 1134 0
 2815 003a 0AE0     		b	.L199
 2816              	.L200:
1138:Source\LwIP\src\api/api_msg.c ****         break;
 2817              		.loc 1 1138 0
 2818 003c A289     		ldrh	r2, [r4, #12]
 2819 003e A168     		ldr	r1, [r4, #8]
 2820 0040 FFF7FEFF 		bl	udp_bind
 2821              	.LVL377:
 2822 0044 2071     		strb	r0, [r4, #4]
1139:Source\LwIP\src\api/api_msg.c **** #endif /* LWIP_UDP */
 2823              		.loc 1 1139 0
 2824 0046 04E0     		b	.L199
 2825              	.L202:
1143:Source\LwIP\src\api/api_msg.c ****         break;
 2826              		.loc 1 1143 0
 2827 0048 A289     		ldrh	r2, [r4, #12]
 2828 004a A168     		ldr	r1, [r4, #8]
 2829 004c FFF7FEFF 		bl	tcp_bind
 2830              	.LVL378:
 2831 0050 2071     		strb	r0, [r4, #4]
 2832              	.L199:
1151:Source\LwIP\src\api/api_msg.c **** }
 2833              		.loc 1 1151 0
 2834 0052 2368     		ldr	r3, [r4]
 2835 0054 002B     		cmp	r3, #0
 2836 0056 0BD0     		beq	.L203
 2837              	.LBB21:
ARM GAS  C:\Users\Phuong\AppData\Local\Temp\ccTHzCbL.s 			page 93


1151:Source\LwIP\src\api/api_msg.c **** }
 2838              		.loc 1 1151 0 is_stmt 0 discriminator 1
 2839 0058 FFF7FEFF 		bl	sys_arch_protect
 2840              	.LVL379:
 2841 005c 2368     		ldr	r3, [r4]
 2842 005e 0822     		movs	r2, #8
 2843 0060 9A56     		ldrsb	r2, [r3, r2]
 2844 0062 0C32     		adds	r2, r2, #12
 2845 0064 02DB     		blt	.L204
1151:Source\LwIP\src\api/api_msg.c **** }
 2846              		.loc 1 1151 0 discriminator 3
 2847 0066 0422     		movs	r2, #4
 2848 0068 A256     		ldrsb	r2, [r4, r2]
 2849 006a 1A72     		strb	r2, [r3, #8]
 2850              	.L204:
1151:Source\LwIP\src\api/api_msg.c **** }
 2851              		.loc 1 1151 0 discriminator 5
 2852 006c FFF7FEFF 		bl	sys_arch_unprotect
 2853              	.LVL380:
 2854              	.L203:
 2855              	.LBE21:
1151:Source\LwIP\src\api/api_msg.c **** }
 2856              		.loc 1 1151 0 discriminator 6
 2857 0070 2068     		ldr	r0, [r4]
 2858 0072 0C30     		adds	r0, r0, #12
 2859 0074 FFF7FEFF 		bl	sys_sem_signal
 2860              	.LVL381:
1152:Source\LwIP\src\api/api_msg.c **** 
 2861              		.loc 1 1152 0 is_stmt 1 discriminator 6
 2862              		@ sp needed
 2863              	.LVL382:
 2864 0078 10BD     		pop	{r4, pc}
 2865              		.cfi_endproc
 2866              	.LFE68:
 2867              		.size	lwip_netconn_do_bind, .-lwip_netconn_do_bind
 2868 007a C046     		.section	.text.lwip_netconn_do_connect,"ax",%progbits
 2869              		.align	2
 2870              		.global	lwip_netconn_do_connect
 2871              		.code	16
 2872              		.thumb_func
 2873              		.type	lwip_netconn_do_connect, %function
 2874              	lwip_netconn_do_connect:
 2875              	.LFB70:
1213:Source\LwIP\src\api/api_msg.c ****   struct api_msg *msg = (struct api_msg*)m;
 2876              		.loc 1 1213 0
 2877              		.cfi_startproc
 2878              		@ args = 0, pretend = 0, frame = 0
 2879              		@ frame_needed = 0, uses_anonymous_args = 0
 2880              	.LVL383:
 2881 0000 70B5     		push	{r4, r5, r6, lr}
 2882              		.cfi_def_cfa_offset 16
 2883              		.cfi_offset 4, -16
 2884              		.cfi_offset 5, -12
 2885              		.cfi_offset 6, -8
 2886              		.cfi_offset 14, -4
 2887 0002 0400     		movs	r4, r0
 2888              	.LVL384:
ARM GAS  C:\Users\Phuong\AppData\Local\Temp\ccTHzCbL.s 			page 94


1216:Source\LwIP\src\api/api_msg.c ****     /* This may happen when calling netconn_connect() a second time */
 2889              		.loc 1 1216 0
 2890 0004 0268     		ldr	r2, [r0]
 2891 0006 5068     		ldr	r0, [r2, #4]
 2892              	.LVL385:
 2893 0008 0028     		cmp	r0, #0
 2894 000a 02D1     		bne	.L206
1218:Source\LwIP\src\api/api_msg.c ****   } else {
 2895              		.loc 1 1218 0
 2896 000c F123     		movs	r3, #241
 2897 000e 2371     		strb	r3, [r4, #4]
 2898 0010 4CE0     		b	.L207
 2899              	.L206:
1220:Source\LwIP\src\api/api_msg.c **** #if LWIP_RAW
 2900              		.loc 1 1220 0
 2901 0012 1378     		ldrb	r3, [r2]
 2902 0014 0F21     		movs	r1, #15
 2903 0016 8B43     		bics	r3, r1
 2904 0018 202B     		cmp	r3, #32
 2905 001a 09D0     		beq	.L209
 2906 001c 402B     		cmp	r3, #64
 2907 001e 02D0     		beq	.L210
 2908 0020 102B     		cmp	r3, #16
 2909 0022 41D1     		bne	.L220
 2910 0024 0AE0     		b	.L211
 2911              	.L210:
1223:Source\LwIP\src\api/api_msg.c ****       break;
 2912              		.loc 1 1223 0
 2913 0026 A168     		ldr	r1, [r4, #8]
 2914 0028 FFF7FEFF 		bl	raw_connect
 2915              	.LVL386:
 2916 002c 2071     		strb	r0, [r4, #4]
1224:Source\LwIP\src\api/api_msg.c **** #endif /* LWIP_RAW */
 2917              		.loc 1 1224 0
 2918 002e 3DE0     		b	.L207
 2919              	.L209:
1228:Source\LwIP\src\api/api_msg.c ****       break;
 2920              		.loc 1 1228 0
 2921 0030 A289     		ldrh	r2, [r4, #12]
 2922 0032 A168     		ldr	r1, [r4, #8]
 2923 0034 FFF7FEFF 		bl	udp_connect
 2924              	.LVL387:
 2925 0038 2071     		strb	r0, [r4, #4]
1229:Source\LwIP\src\api/api_msg.c **** #endif /* LWIP_UDP */
 2926              		.loc 1 1229 0
 2927 003a 37E0     		b	.L207
 2928              	.L211:
1234:Source\LwIP\src\api/api_msg.c ****         msg->err = ERR_ALREADY;
 2929              		.loc 1 1234 0
 2930 003c 5378     		ldrb	r3, [r2, #1]
 2931 003e 032B     		cmp	r3, #3
 2932 0040 02D1     		bne	.L212
1235:Source\LwIP\src\api/api_msg.c ****       } else if (msg->conn->state != NETCONN_NONE) {
 2933              		.loc 1 1235 0
 2934 0042 F433     		adds	r3, r3, #244
 2935 0044 2371     		strb	r3, [r4, #4]
 2936 0046 31E0     		b	.L207
ARM GAS  C:\Users\Phuong\AppData\Local\Temp\ccTHzCbL.s 			page 95


 2937              	.L212:
1236:Source\LwIP\src\api/api_msg.c ****         msg->err = ERR_ISCONN;
 2938              		.loc 1 1236 0
 2939 0048 002B     		cmp	r3, #0
 2940 004a 02D0     		beq	.L213
1237:Source\LwIP\src\api/api_msg.c ****       } else {
 2941              		.loc 1 1237 0
 2942 004c F623     		movs	r3, #246
 2943 004e 2371     		strb	r3, [r4, #4]
 2944 0050 2CE0     		b	.L207
 2945              	.L213:
1239:Source\LwIP\src\api/api_msg.c ****         msg->err = tcp_connect(msg->conn->pcb.tcp, API_EXPR_REF(msg->msg.bc.ipaddr),
 2946              		.loc 1 1239 0
 2947 0052 1000     		movs	r0, r2
 2948 0054 FFF7FEFF 		bl	setup_tcp
 2949              	.LVL388:
1240:Source\LwIP\src\api/api_msg.c ****           msg->msg.bc.port, lwip_netconn_do_connected);
 2950              		.loc 1 1240 0
 2951 0058 2368     		ldr	r3, [r4]
 2952 005a A289     		ldrh	r2, [r4, #12]
 2953 005c 5868     		ldr	r0, [r3, #4]
 2954 005e 1D4B     		ldr	r3, .L221
 2955 0060 A168     		ldr	r1, [r4, #8]
 2956 0062 FFF7FEFF 		bl	tcp_connect
 2957              	.LVL389:
 2958 0066 2071     		strb	r0, [r4, #4]
1242:Source\LwIP\src\api/api_msg.c ****           u8_t non_blocking = netconn_is_nonblocking(msg->conn);
 2959              		.loc 1 1242 0
 2960 0068 0028     		cmp	r0, #0
 2961 006a 1FD1     		bne	.L207
 2962              	.LBB22:
1243:Source\LwIP\src\api/api_msg.c ****           msg->conn->state = NETCONN_CONNECT;
 2963              		.loc 1 1243 0
 2964 006c 2268     		ldr	r2, [r4]
 2965 006e 2023     		movs	r3, #32
 2966 0070 D35C     		ldrb	r3, [r2, r3]
 2967 0072 0221     		movs	r1, #2
 2968 0074 0B40     		ands	r3, r1
 2969              	.LVL390:
1244:Source\LwIP\src\api/api_msg.c ****           SET_NONBLOCKING_CONNECT(msg->conn, non_blocking);
 2970              		.loc 1 1244 0
 2971 0076 0131     		adds	r1, r1, #1
 2972 0078 5170     		strb	r1, [r2, #1]
1245:Source\LwIP\src\api/api_msg.c ****           if (non_blocking) {
 2973              		.loc 1 1245 0
 2974 007a 002B     		cmp	r3, #0
 2975 007c 06D0     		beq	.L214
1245:Source\LwIP\src\api/api_msg.c ****           if (non_blocking) {
 2976              		.loc 1 1245 0 is_stmt 0 discriminator 1
 2977 007e 2068     		ldr	r0, [r4]
 2978 0080 1D31     		adds	r1, r1, #29
 2979 0082 455C     		ldrb	r5, [r0, r1]
 2980 0084 0422     		movs	r2, #4
 2981 0086 2A43     		orrs	r2, r5
 2982 0088 4254     		strb	r2, [r0, r1]
 2983 008a 05E0     		b	.L215
 2984              	.L214:
ARM GAS  C:\Users\Phuong\AppData\Local\Temp\ccTHzCbL.s 			page 96


1245:Source\LwIP\src\api/api_msg.c ****           if (non_blocking) {
 2985              		.loc 1 1245 0 discriminator 2
 2986 008c 2068     		ldr	r0, [r4]
 2987 008e 2021     		movs	r1, #32
 2988 0090 425C     		ldrb	r2, [r0, r1]
 2989 0092 0425     		movs	r5, #4
 2990 0094 AA43     		bics	r2, r5
 2991 0096 4254     		strb	r2, [r0, r1]
 2992              	.L215:
1246:Source\LwIP\src\api/api_msg.c ****             msg->err = ERR_INPROGRESS;
 2993              		.loc 1 1246 0 is_stmt 1
 2994 0098 002B     		cmp	r3, #0
 2995 009a 02D0     		beq	.L216
1247:Source\LwIP\src\api/api_msg.c ****           } else {
 2996              		.loc 1 1247 0
 2997 009c FB23     		movs	r3, #251
 2998              	.LVL391:
 2999 009e 2371     		strb	r3, [r4, #4]
 3000 00a0 04E0     		b	.L207
 3001              	.LVL392:
 3002              	.L216:
1249:Source\LwIP\src\api/api_msg.c ****             /* sys_sem_signal() is called from lwip_netconn_do_connected (or err_tcp()),
 3003              		.loc 1 1249 0
 3004 00a2 2368     		ldr	r3, [r4]
 3005              	.LVL393:
 3006 00a4 9C62     		str	r4, [r3, #40]
1259:Source\LwIP\src\api/api_msg.c ****           }
 3007              		.loc 1 1259 0
 3008 00a6 14E0     		b	.L205
 3009              	.L220:
 3010              	.LBE22:
1266:Source\LwIP\src\api/api_msg.c ****       break;
 3011              		.loc 1 1266 0 discriminator 1
 3012 00a8 FA23     		movs	r3, #250
 3013 00aa 2371     		strb	r3, [r4, #4]
 3014              	.L207:
1272:Source\LwIP\src\api/api_msg.c **** }
 3015              		.loc 1 1272 0
 3016 00ac 2368     		ldr	r3, [r4]
 3017 00ae 002B     		cmp	r3, #0
 3018 00b0 0BD0     		beq	.L218
 3019              	.LBB23:
1272:Source\LwIP\src\api/api_msg.c **** }
 3020              		.loc 1 1272 0 is_stmt 0 discriminator 1
 3021 00b2 FFF7FEFF 		bl	sys_arch_protect
 3022              	.LVL394:
 3023 00b6 2368     		ldr	r3, [r4]
 3024 00b8 0822     		movs	r2, #8
 3025 00ba 9A56     		ldrsb	r2, [r3, r2]
 3026 00bc 0C32     		adds	r2, r2, #12
 3027 00be 02DB     		blt	.L219
1272:Source\LwIP\src\api/api_msg.c **** }
 3028              		.loc 1 1272 0 discriminator 3
 3029 00c0 0422     		movs	r2, #4
 3030 00c2 A256     		ldrsb	r2, [r4, r2]
 3031 00c4 1A72     		strb	r2, [r3, #8]
 3032              	.L219:
ARM GAS  C:\Users\Phuong\AppData\Local\Temp\ccTHzCbL.s 			page 97


1272:Source\LwIP\src\api/api_msg.c **** }
 3033              		.loc 1 1272 0 discriminator 5
 3034 00c6 FFF7FEFF 		bl	sys_arch_unprotect
 3035              	.LVL395:
 3036              	.L218:
 3037              	.LBE23:
1272:Source\LwIP\src\api/api_msg.c **** }
 3038              		.loc 1 1272 0 discriminator 6
 3039 00ca 2068     		ldr	r0, [r4]
 3040 00cc 0C30     		adds	r0, r0, #12
 3041 00ce FFF7FEFF 		bl	sys_sem_signal
 3042              	.LVL396:
 3043              	.L205:
1273:Source\LwIP\src\api/api_msg.c **** 
 3044              		.loc 1 1273 0 is_stmt 1
 3045              		@ sp needed
 3046              	.LVL397:
 3047 00d2 70BD     		pop	{r4, r5, r6, pc}
 3048              	.L222:
 3049              		.align	2
 3050              	.L221:
 3051 00d4 00000000 		.word	lwip_netconn_do_connected
 3052              		.cfi_endproc
 3053              	.LFE70:
 3054              		.size	lwip_netconn_do_connect, .-lwip_netconn_do_connect
 3055              		.section	.text.lwip_netconn_do_disconnect,"ax",%progbits
 3056              		.align	2
 3057              		.global	lwip_netconn_do_disconnect
 3058              		.code	16
 3059              		.thumb_func
 3060              		.type	lwip_netconn_do_disconnect, %function
 3061              	lwip_netconn_do_disconnect:
 3062              	.LFB71:
1284:Source\LwIP\src\api/api_msg.c ****   struct api_msg *msg = (struct api_msg*)m;
 3063              		.loc 1 1284 0
 3064              		.cfi_startproc
 3065              		@ args = 0, pretend = 0, frame = 0
 3066              		@ frame_needed = 0, uses_anonymous_args = 0
 3067              	.LVL398:
 3068 0000 10B5     		push	{r4, lr}
 3069              		.cfi_def_cfa_offset 8
 3070              		.cfi_offset 4, -8
 3071              		.cfi_offset 14, -4
 3072 0002 0400     		movs	r4, r0
 3073              	.LVL399:
1288:Source\LwIP\src\api/api_msg.c ****     udp_disconnect(msg->conn->pcb.udp);
 3074              		.loc 1 1288 0
 3075 0004 0268     		ldr	r2, [r0]
 3076 0006 1378     		ldrb	r3, [r2]
 3077 0008 0F21     		movs	r1, #15
 3078 000a 8B43     		bics	r3, r1
 3079 000c 202B     		cmp	r3, #32
 3080 000e 05D1     		bne	.L224
1289:Source\LwIP\src\api/api_msg.c ****     msg->err = ERR_OK;
 3081              		.loc 1 1289 0
 3082 0010 5068     		ldr	r0, [r2, #4]
 3083              	.LVL400:
ARM GAS  C:\Users\Phuong\AppData\Local\Temp\ccTHzCbL.s 			page 98


 3084 0012 FFF7FEFF 		bl	udp_disconnect
 3085              	.LVL401:
1290:Source\LwIP\src\api/api_msg.c ****   } else
 3086              		.loc 1 1290 0
 3087 0016 0023     		movs	r3, #0
 3088 0018 2371     		strb	r3, [r4, #4]
 3089 001a 01E0     		b	.L225
 3090              	.LVL402:
 3091              	.L224:
1294:Source\LwIP\src\api/api_msg.c ****   }
 3092              		.loc 1 1294 0
 3093 001c FA23     		movs	r3, #250
 3094 001e 0371     		strb	r3, [r0, #4]
 3095              	.LVL403:
 3096              	.L225:
1296:Source\LwIP\src\api/api_msg.c **** }
 3097              		.loc 1 1296 0
 3098 0020 2368     		ldr	r3, [r4]
 3099 0022 002B     		cmp	r3, #0
 3100 0024 0BD0     		beq	.L226
 3101              	.LBB24:
1296:Source\LwIP\src\api/api_msg.c **** }
 3102              		.loc 1 1296 0 is_stmt 0 discriminator 1
 3103 0026 FFF7FEFF 		bl	sys_arch_protect
 3104              	.LVL404:
 3105 002a 2368     		ldr	r3, [r4]
 3106 002c 0822     		movs	r2, #8
 3107 002e 9A56     		ldrsb	r2, [r3, r2]
 3108 0030 0C32     		adds	r2, r2, #12
 3109 0032 02DB     		blt	.L227
1296:Source\LwIP\src\api/api_msg.c **** }
 3110              		.loc 1 1296 0 discriminator 3
 3111 0034 0422     		movs	r2, #4
 3112 0036 A256     		ldrsb	r2, [r4, r2]
 3113 0038 1A72     		strb	r2, [r3, #8]
 3114              	.L227:
1296:Source\LwIP\src\api/api_msg.c **** }
 3115              		.loc 1 1296 0 discriminator 5
 3116 003a FFF7FEFF 		bl	sys_arch_unprotect
 3117              	.LVL405:
 3118              	.L226:
 3119              	.LBE24:
1296:Source\LwIP\src\api/api_msg.c **** }
 3120              		.loc 1 1296 0 discriminator 6
 3121 003e 2068     		ldr	r0, [r4]
 3122 0040 0C30     		adds	r0, r0, #12
 3123 0042 FFF7FEFF 		bl	sys_sem_signal
 3124              	.LVL406:
1297:Source\LwIP\src\api/api_msg.c **** 
 3125              		.loc 1 1297 0 is_stmt 1 discriminator 6
 3126              		@ sp needed
 3127              	.LVL407:
 3128 0046 10BD     		pop	{r4, pc}
 3129              		.cfi_endproc
 3130              	.LFE71:
 3131              		.size	lwip_netconn_do_disconnect, .-lwip_netconn_do_disconnect
 3132              		.section	.text.lwip_netconn_do_listen,"ax",%progbits
ARM GAS  C:\Users\Phuong\AppData\Local\Temp\ccTHzCbL.s 			page 99


 3133              		.align	2
 3134              		.global	lwip_netconn_do_listen
 3135              		.code	16
 3136              		.thumb_func
 3137              		.type	lwip_netconn_do_listen, %function
 3138              	lwip_netconn_do_listen:
 3139              	.LFB72:
1308:Source\LwIP\src\api/api_msg.c ****   struct api_msg *msg = (struct api_msg*)m;
 3140              		.loc 1 1308 0
 3141              		.cfi_startproc
 3142              		@ args = 0, pretend = 0, frame = 8
 3143              		@ frame_needed = 0, uses_anonymous_args = 0
 3144              	.LVL408:
 3145 0000 30B5     		push	{r4, r5, lr}
 3146              		.cfi_def_cfa_offset 12
 3147              		.cfi_offset 4, -12
 3148              		.cfi_offset 5, -8
 3149              		.cfi_offset 14, -4
 3150 0002 83B0     		sub	sp, sp, #12
 3151              		.cfi_def_cfa_offset 24
 3152 0004 0400     		movs	r4, r0
 3153              	.LVL409:
1311:Source\LwIP\src\api/api_msg.c ****     msg->err = msg->conn->last_err;
 3154              		.loc 1 1311 0
 3155 0006 0368     		ldr	r3, [r0]
 3156 0008 0822     		movs	r2, #8
 3157 000a 9A56     		ldrsb	r2, [r3, r2]
 3158 000c 1100     		movs	r1, r2
 3159 000e 0C31     		adds	r1, r1, #12
 3160 0010 01DA     		bge	.L229
1312:Source\LwIP\src\api/api_msg.c ****   } else {
 3161              		.loc 1 1312 0
 3162 0012 0271     		strb	r2, [r0, #4]
 3163 0014 61E0     		b	.L230
 3164              	.L229:
1314:Source\LwIP\src\api/api_msg.c ****     if (msg->conn->pcb.tcp != NULL) {
 3165              		.loc 1 1314 0
 3166 0016 F522     		movs	r2, #245
 3167 0018 0271     		strb	r2, [r0, #4]
1315:Source\LwIP\src\api/api_msg.c ****       if (NETCONNTYPE_GROUP(msg->conn->type) == NETCONN_TCP) {
 3168              		.loc 1 1315 0
 3169 001a 5868     		ldr	r0, [r3, #4]
 3170              	.LVL410:
 3171 001c 0028     		cmp	r0, #0
 3172 001e 5CD0     		beq	.L230
1316:Source\LwIP\src\api/api_msg.c ****         if (msg->conn->state == NETCONN_NONE) {
 3173              		.loc 1 1316 0
 3174 0020 1A78     		ldrb	r2, [r3]
 3175 0022 0F21     		movs	r1, #15
 3176 0024 8A43     		bics	r2, r1
 3177 0026 102A     		cmp	r2, #16
 3178 0028 55D1     		bne	.L231
1317:Source\LwIP\src\api/api_msg.c ****           struct tcp_pcb* lpcb;
 3179              		.loc 1 1317 0
 3180 002a 5A78     		ldrb	r2, [r3, #1]
 3181 002c 002A     		cmp	r2, #0
 3182 002e 47D1     		bne	.L232
ARM GAS  C:\Users\Phuong\AppData\Local\Temp\ccTHzCbL.s 			page 100


 3183              	.LBB25:
1319:Source\LwIP\src\api/api_msg.c ****             /* connection is not closed, cannot listen */
 3184              		.loc 1 1319 0
 3185 0030 037D     		ldrb	r3, [r0, #20]
 3186 0032 002B     		cmp	r3, #0
 3187 0034 02D0     		beq	.L233
1321:Source\LwIP\src\api/api_msg.c ****           } else {
 3188              		.loc 1 1321 0
 3189 0036 FA23     		movs	r3, #250
 3190 0038 2371     		strb	r3, [r4, #4]
 3191 003a 4EE0     		b	.L230
 3192              	.L233:
 3193              	.LBB26:
1326:Source\LwIP\src\api/api_msg.c **** #else  /* TCP_LISTEN_BACKLOG */
 3194              		.loc 1 1326 0
 3195 003c 217A     		ldrb	r1, [r4, #8]
 3196              	.LVL411:
1342:Source\LwIP\src\api/api_msg.c **** 
 3197              		.loc 1 1342 0
 3198 003e 6B46     		mov	r3, sp
 3199 0040 DA1D     		adds	r2, r3, #7
 3200 0042 FFF7FEFF 		bl	tcp_listen_with_backlog_and_err
 3201              	.LVL412:
 3202 0046 051E     		subs	r5, r0, #0
 3203              	.LVL413:
1344:Source\LwIP\src\api/api_msg.c ****               /* in this case, the old pcb is still allocated */
 3204              		.loc 1 1344 0
 3205 0048 04D1     		bne	.L234
1346:Source\LwIP\src\api/api_msg.c ****             } else {
 3206              		.loc 1 1346 0
 3207 004a 6B46     		mov	r3, sp
 3208 004c 0733     		adds	r3, r3, #7
 3209 004e 1B78     		ldrb	r3, [r3]
 3210 0050 2371     		strb	r3, [r4, #4]
 3211 0052 42E0     		b	.L230
 3212              	.L234:
1349:Source\LwIP\src\api/api_msg.c ****                 /** @todo: should we drain the recvmbox here? */
 3213              		.loc 1 1349 0
 3214 0054 2068     		ldr	r0, [r4]
 3215              	.LVL414:
 3216 0056 1030     		adds	r0, r0, #16
 3217 0058 FFF7FEFF 		bl	sys_mbox_valid
 3218              	.LVL415:
 3219 005c 0028     		cmp	r0, #0
 3220 005e 07D0     		beq	.L236
1351:Source\LwIP\src\api/api_msg.c ****                 sys_mbox_set_invalid(&msg->conn->recvmbox);
 3221              		.loc 1 1351 0
 3222 0060 2068     		ldr	r0, [r4]
 3223 0062 1030     		adds	r0, r0, #16
 3224 0064 FFF7FEFF 		bl	sys_mbox_free
 3225              	.LVL416:
1352:Source\LwIP\src\api/api_msg.c ****               }
 3226              		.loc 1 1352 0
 3227 0068 2068     		ldr	r0, [r4]
 3228 006a 1030     		adds	r0, r0, #16
 3229 006c FFF7FEFF 		bl	sys_mbox_set_invalid
 3230              	.LVL417:
ARM GAS  C:\Users\Phuong\AppData\Local\Temp\ccTHzCbL.s 			page 101


 3231              	.L236:
1354:Source\LwIP\src\api/api_msg.c ****               if (!sys_mbox_valid(&msg->conn->acceptmbox)) {
 3232              		.loc 1 1354 0
 3233 0070 0023     		movs	r3, #0
 3234 0072 2371     		strb	r3, [r4, #4]
1355:Source\LwIP\src\api/api_msg.c ****                 msg->err = sys_mbox_new(&msg->conn->acceptmbox, DEFAULT_ACCEPTMBOX_SIZE);
 3235              		.loc 1 1355 0
 3236 0074 2068     		ldr	r0, [r4]
 3237 0076 1430     		adds	r0, r0, #20
 3238 0078 FFF7FEFF 		bl	sys_mbox_valid
 3239              	.LVL418:
 3240 007c 0028     		cmp	r0, #0
 3241 007e 05D1     		bne	.L237
1356:Source\LwIP\src\api/api_msg.c ****               }
 3242              		.loc 1 1356 0
 3243 0080 2068     		ldr	r0, [r4]
 3244 0082 1430     		adds	r0, r0, #20
 3245 0084 0021     		movs	r1, #0
 3246 0086 FFF7FEFF 		bl	sys_mbox_new
 3247              	.LVL419:
 3248 008a 2071     		strb	r0, [r4, #4]
 3249              	.L237:
1358:Source\LwIP\src\api/api_msg.c ****                 msg->conn->state = NETCONN_LISTEN;
 3250              		.loc 1 1358 0
 3251 008c 0423     		movs	r3, #4
 3252 008e E356     		ldrsb	r3, [r4, r3]
 3253 0090 002B     		cmp	r3, #0
 3254 0092 0ED1     		bne	.L238
1359:Source\LwIP\src\api/api_msg.c ****                 msg->conn->pcb.tcp = lpcb;
 3255              		.loc 1 1359 0
 3256 0094 0233     		adds	r3, r3, #2
 3257 0096 2268     		ldr	r2, [r4]
 3258 0098 5370     		strb	r3, [r2, #1]
1360:Source\LwIP\src\api/api_msg.c ****                 tcp_arg(msg->conn->pcb.tcp, msg->conn);
 3259              		.loc 1 1360 0
 3260 009a 2368     		ldr	r3, [r4]
 3261 009c 5D60     		str	r5, [r3, #4]
1361:Source\LwIP\src\api/api_msg.c ****                 tcp_accept(msg->conn->pcb.tcp, accept_function);
 3262              		.loc 1 1361 0
 3263 009e 2168     		ldr	r1, [r4]
 3264 00a0 4868     		ldr	r0, [r1, #4]
 3265 00a2 FFF7FEFF 		bl	tcp_arg
 3266              	.LVL420:
1362:Source\LwIP\src\api/api_msg.c ****               } else {
 3267              		.loc 1 1362 0
 3268 00a6 2368     		ldr	r3, [r4]
 3269 00a8 5868     		ldr	r0, [r3, #4]
 3270 00aa 1649     		ldr	r1, .L242
 3271 00ac FFF7FEFF 		bl	tcp_accept
 3272              	.LVL421:
 3273 00b0 13E0     		b	.L230
 3274              	.L238:
1365:Source\LwIP\src\api/api_msg.c ****                 msg->conn->pcb.tcp = NULL;
 3275              		.loc 1 1365 0
 3276 00b2 2800     		movs	r0, r5
 3277 00b4 FFF7FEFF 		bl	tcp_close
 3278              	.LVL422:
ARM GAS  C:\Users\Phuong\AppData\Local\Temp\ccTHzCbL.s 			page 102


1366:Source\LwIP\src\api/api_msg.c ****               }
 3279              		.loc 1 1366 0
 3280 00b8 2368     		ldr	r3, [r4]
 3281 00ba 0022     		movs	r2, #0
 3282 00bc 5A60     		str	r2, [r3, #4]
 3283 00be 0CE0     		b	.L230
 3284              	.LVL423:
 3285              	.L232:
 3286              	.LBE26:
 3287              	.LBE25:
1370:Source\LwIP\src\api/api_msg.c ****           /* already listening, allow updating of the backlog */
 3288              		.loc 1 1370 0
 3289 00c0 022A     		cmp	r2, #2
 3290 00c2 0AD1     		bne	.L230
1372:Source\LwIP\src\api/api_msg.c ****           tcp_backlog_set(msg->conn->pcb.tcp, msg->msg.lb.backlog);
 3291              		.loc 1 1372 0
 3292 00c4 0022     		movs	r2, #0
 3293 00c6 2271     		strb	r2, [r4, #4]
1373:Source\LwIP\src\api/api_msg.c ****         }
 3294              		.loc 1 1373 0
 3295 00c8 5A68     		ldr	r2, [r3, #4]
 3296 00ca 237A     		ldrb	r3, [r4, #8]
 3297 00cc 002B     		cmp	r3, #0
 3298 00ce 00D1     		bne	.L239
 3299 00d0 0133     		adds	r3, r3, #1
 3300              	.L239:
1373:Source\LwIP\src\api/api_msg.c ****         }
 3301              		.loc 1 1373 0 is_stmt 0 discriminator 5
 3302 00d2 1377     		strb	r3, [r2, #28]
 3303 00d4 01E0     		b	.L230
 3304              	.L231:
1376:Source\LwIP\src\api/api_msg.c ****       }
 3305              		.loc 1 1376 0 is_stmt 1
 3306 00d6 F023     		movs	r3, #240
 3307 00d8 2371     		strb	r3, [r4, #4]
 3308              	.L230:
1380:Source\LwIP\src\api/api_msg.c **** }
 3309              		.loc 1 1380 0
 3310 00da 2368     		ldr	r3, [r4]
 3311 00dc 002B     		cmp	r3, #0
 3312 00de 0BD0     		beq	.L240
 3313              	.LBB27:
1380:Source\LwIP\src\api/api_msg.c **** }
 3314              		.loc 1 1380 0 is_stmt 0 discriminator 1
 3315 00e0 FFF7FEFF 		bl	sys_arch_protect
 3316              	.LVL424:
 3317 00e4 2368     		ldr	r3, [r4]
 3318 00e6 0822     		movs	r2, #8
 3319 00e8 9A56     		ldrsb	r2, [r3, r2]
 3320 00ea 0C32     		adds	r2, r2, #12
 3321 00ec 02DB     		blt	.L241
1380:Source\LwIP\src\api/api_msg.c **** }
 3322              		.loc 1 1380 0 discriminator 3
 3323 00ee 0422     		movs	r2, #4
 3324 00f0 A256     		ldrsb	r2, [r4, r2]
 3325 00f2 1A72     		strb	r2, [r3, #8]
 3326              	.L241:
ARM GAS  C:\Users\Phuong\AppData\Local\Temp\ccTHzCbL.s 			page 103


1380:Source\LwIP\src\api/api_msg.c **** }
 3327              		.loc 1 1380 0 discriminator 5
 3328 00f4 FFF7FEFF 		bl	sys_arch_unprotect
 3329              	.LVL425:
 3330              	.L240:
 3331              	.LBE27:
1380:Source\LwIP\src\api/api_msg.c **** }
 3332              		.loc 1 1380 0 discriminator 6
 3333 00f8 2068     		ldr	r0, [r4]
 3334 00fa 0C30     		adds	r0, r0, #12
 3335 00fc FFF7FEFF 		bl	sys_sem_signal
 3336              	.LVL426:
1381:Source\LwIP\src\api/api_msg.c **** #endif /* LWIP_TCP */
 3337              		.loc 1 1381 0 is_stmt 1 discriminator 6
 3338 0100 03B0     		add	sp, sp, #12
 3339              		@ sp needed
 3340              	.LVL427:
 3341 0102 30BD     		pop	{r4, r5, pc}
 3342              	.L243:
 3343              		.align	2
 3344              	.L242:
 3345 0104 00000000 		.word	accept_function
 3346              		.cfi_endproc
 3347              	.LFE72:
 3348              		.size	lwip_netconn_do_listen, .-lwip_netconn_do_listen
 3349              		.section	.text.lwip_netconn_do_send,"ax",%progbits
 3350              		.align	2
 3351              		.global	lwip_netconn_do_send
 3352              		.code	16
 3353              		.thumb_func
 3354              		.type	lwip_netconn_do_send, %function
 3355              	lwip_netconn_do_send:
 3356              	.LFB73:
1392:Source\LwIP\src\api/api_msg.c ****   struct api_msg *msg = (struct api_msg*)m;
 3357              		.loc 1 1392 0
 3358              		.cfi_startproc
 3359              		@ args = 0, pretend = 0, frame = 0
 3360              		@ frame_needed = 0, uses_anonymous_args = 0
 3361              	.LVL428:
 3362 0000 10B5     		push	{r4, lr}
 3363              		.cfi_def_cfa_offset 8
 3364              		.cfi_offset 4, -8
 3365              		.cfi_offset 14, -4
 3366 0002 0400     		movs	r4, r0
 3367              	.LVL429:
1395:Source\LwIP\src\api/api_msg.c ****     msg->err = msg->conn->last_err;
 3368              		.loc 1 1395 0
 3369 0004 0368     		ldr	r3, [r0]
 3370 0006 0822     		movs	r2, #8
 3371 0008 9A56     		ldrsb	r2, [r3, r2]
 3372 000a 1100     		movs	r1, r2
 3373 000c 0C31     		adds	r1, r1, #12
 3374 000e 01DA     		bge	.L245
1396:Source\LwIP\src\api/api_msg.c ****   } else {
 3375              		.loc 1 1396 0
 3376 0010 0271     		strb	r2, [r0, #4]
 3377 0012 2DE0     		b	.L246
ARM GAS  C:\Users\Phuong\AppData\Local\Temp\ccTHzCbL.s 			page 104


 3378              	.L245:
1398:Source\LwIP\src\api/api_msg.c ****     if (msg->conn->pcb.tcp != NULL) {
 3379              		.loc 1 1398 0
 3380 0014 F522     		movs	r2, #245
 3381 0016 0271     		strb	r2, [r0, #4]
1399:Source\LwIP\src\api/api_msg.c ****       switch (NETCONNTYPE_GROUP(msg->conn->type)) {
 3382              		.loc 1 1399 0
 3383 0018 5868     		ldr	r0, [r3, #4]
 3384              	.LVL430:
 3385 001a 0028     		cmp	r0, #0
 3386 001c 28D0     		beq	.L246
1400:Source\LwIP\src\api/api_msg.c **** #if LWIP_RAW
 3387              		.loc 1 1400 0
 3388 001e 1B78     		ldrb	r3, [r3]
 3389 0020 E63A     		subs	r2, r2, #230
 3390 0022 9343     		bics	r3, r2
 3391 0024 202B     		cmp	r3, #32
 3392 0026 13D0     		beq	.L247
 3393 0028 402B     		cmp	r3, #64
 3394 002a 21D1     		bne	.L246
1403:Source\LwIP\src\api/api_msg.c ****           msg->err = raw_send(msg->conn->pcb.raw, msg->msg.b->p);
 3395              		.loc 1 1403 0
 3396 002c A368     		ldr	r3, [r4, #8]
 3397 002e 1A00     		movs	r2, r3
 3398 0030 0832     		adds	r2, r2, #8
 3399 0032 002A     		cmp	r2, #0
 3400 0034 02D0     		beq	.L249
1403:Source\LwIP\src\api/api_msg.c ****           msg->err = raw_send(msg->conn->pcb.raw, msg->msg.b->p);
 3401              		.loc 1 1403 0 is_stmt 0 discriminator 1
 3402 0036 9968     		ldr	r1, [r3, #8]
 3403 0038 0029     		cmp	r1, #0
 3404 003a 04D1     		bne	.L250
 3405              	.L249:
1404:Source\LwIP\src\api/api_msg.c ****         } else {
 3406              		.loc 1 1404 0 is_stmt 1
 3407 003c 1968     		ldr	r1, [r3]
 3408 003e FFF7FEFF 		bl	raw_send
 3409              	.LVL431:
 3410 0042 2071     		strb	r0, [r4, #4]
 3411 0044 14E0     		b	.L246
 3412              	.L250:
1406:Source\LwIP\src\api/api_msg.c ****         }
 3413              		.loc 1 1406 0
 3414 0046 1968     		ldr	r1, [r3]
 3415 0048 FFF7FEFF 		bl	raw_sendto
 3416              	.LVL432:
 3417 004c 2071     		strb	r0, [r4, #4]
 3418 004e 0FE0     		b	.L246
 3419              	.L247:
1422:Source\LwIP\src\api/api_msg.c ****           msg->err = udp_send(msg->conn->pcb.udp, msg->msg.b->p);
 3420              		.loc 1 1422 0
 3421 0050 A168     		ldr	r1, [r4, #8]
 3422 0052 8B68     		ldr	r3, [r1, #8]
 3423 0054 002B     		cmp	r3, #0
 3424 0056 04D1     		bne	.L251
1423:Source\LwIP\src\api/api_msg.c ****         } else {
 3425              		.loc 1 1423 0
ARM GAS  C:\Users\Phuong\AppData\Local\Temp\ccTHzCbL.s 			page 105


 3426 0058 0968     		ldr	r1, [r1]
 3427 005a FFF7FEFF 		bl	udp_send
 3428              	.LVL433:
 3429 005e 2071     		strb	r0, [r4, #4]
 3430 0060 06E0     		b	.L246
 3431              	.L251:
1425:Source\LwIP\src\api/api_msg.c ****         }
 3432              		.loc 1 1425 0
 3433 0062 0A00     		movs	r2, r1
 3434 0064 0832     		adds	r2, r2, #8
 3435 0066 8B89     		ldrh	r3, [r1, #12]
 3436 0068 0968     		ldr	r1, [r1]
 3437 006a FFF7FEFF 		bl	udp_sendto
 3438              	.LVL434:
 3439 006e 2071     		strb	r0, [r4, #4]
 3440              	.L246:
1435:Source\LwIP\src\api/api_msg.c **** }
 3441              		.loc 1 1435 0
 3442 0070 2368     		ldr	r3, [r4]
 3443 0072 002B     		cmp	r3, #0
 3444 0074 0BD0     		beq	.L252
 3445              	.LBB28:
1435:Source\LwIP\src\api/api_msg.c **** }
 3446              		.loc 1 1435 0 is_stmt 0 discriminator 1
 3447 0076 FFF7FEFF 		bl	sys_arch_protect
 3448              	.LVL435:
 3449 007a 2368     		ldr	r3, [r4]
 3450 007c 0822     		movs	r2, #8
 3451 007e 9A56     		ldrsb	r2, [r3, r2]
 3452 0080 0C32     		adds	r2, r2, #12
 3453 0082 02DB     		blt	.L253
1435:Source\LwIP\src\api/api_msg.c **** }
 3454              		.loc 1 1435 0 discriminator 3
 3455 0084 0422     		movs	r2, #4
 3456 0086 A256     		ldrsb	r2, [r4, r2]
 3457 0088 1A72     		strb	r2, [r3, #8]
 3458              	.L253:
1435:Source\LwIP\src\api/api_msg.c **** }
 3459              		.loc 1 1435 0 discriminator 5
 3460 008a FFF7FEFF 		bl	sys_arch_unprotect
 3461              	.LVL436:
 3462              	.L252:
 3463              	.LBE28:
1435:Source\LwIP\src\api/api_msg.c **** }
 3464              		.loc 1 1435 0 discriminator 6
 3465 008e 2068     		ldr	r0, [r4]
 3466 0090 0C30     		adds	r0, r0, #12
 3467 0092 FFF7FEFF 		bl	sys_sem_signal
 3468              	.LVL437:
1436:Source\LwIP\src\api/api_msg.c **** 
 3469              		.loc 1 1436 0 is_stmt 1 discriminator 6
 3470              		@ sp needed
 3471              	.LVL438:
 3472 0096 10BD     		pop	{r4, pc}
 3473              		.cfi_endproc
 3474              	.LFE73:
 3475              		.size	lwip_netconn_do_send, .-lwip_netconn_do_send
ARM GAS  C:\Users\Phuong\AppData\Local\Temp\ccTHzCbL.s 			page 106


 3476              		.section	.text.lwip_netconn_do_recv,"ax",%progbits
 3477              		.align	2
 3478              		.global	lwip_netconn_do_recv
 3479              		.code	16
 3480              		.thumb_func
 3481              		.type	lwip_netconn_do_recv, %function
 3482              	lwip_netconn_do_recv:
 3483              	.LFB74:
1447:Source\LwIP\src\api/api_msg.c ****   struct api_msg *msg = (struct api_msg*)m;
 3484              		.loc 1 1447 0
 3485              		.cfi_startproc
 3486              		@ args = 0, pretend = 0, frame = 0
 3487              		@ frame_needed = 0, uses_anonymous_args = 0
 3488              	.LVL439:
 3489 0000 70B5     		push	{r4, r5, r6, lr}
 3490              		.cfi_def_cfa_offset 16
 3491              		.cfi_offset 4, -16
 3492              		.cfi_offset 5, -12
 3493              		.cfi_offset 6, -8
 3494              		.cfi_offset 14, -4
 3495 0002 0500     		movs	r5, r0
 3496              	.LVL440:
1450:Source\LwIP\src\api/api_msg.c ****   if (msg->conn->pcb.tcp != NULL) {
 3497              		.loc 1 1450 0
 3498 0004 0023     		movs	r3, #0
 3499 0006 0371     		strb	r3, [r0, #4]
1451:Source\LwIP\src\api/api_msg.c ****     if (NETCONNTYPE_GROUP(msg->conn->type) == NETCONN_TCP) {
 3500              		.loc 1 1451 0
 3501 0008 0368     		ldr	r3, [r0]
 3502 000a 5A68     		ldr	r2, [r3, #4]
 3503 000c 002A     		cmp	r2, #0
 3504 000e 12D0     		beq	.L255
1452:Source\LwIP\src\api/api_msg.c ****       u32_t remaining = msg->msg.r.len;
 3505              		.loc 1 1452 0
 3506 0010 1B78     		ldrb	r3, [r3]
 3507 0012 0F22     		movs	r2, #15
 3508 0014 9343     		bics	r3, r2
 3509 0016 102B     		cmp	r3, #16
 3510 0018 0DD1     		bne	.L255
 3511              	.LBB29:
1453:Source\LwIP\src\api/api_msg.c ****       do {
 3512              		.loc 1 1453 0
 3513 001a 8468     		ldr	r4, [r0, #8]
 3514              	.LVL441:
 3515              	.L257:
 3516              	.LBB30:
1455:Source\LwIP\src\api/api_msg.c ****         tcp_recved(msg->conn->pcb.tcp, recved);
 3517              		.loc 1 1455 0
 3518 001c 104B     		ldr	r3, .L261
 3519 001e 9C42     		cmp	r4, r3
 3520 0020 01D8     		bhi	.L260
1455:Source\LwIP\src\api/api_msg.c ****         tcp_recved(msg->conn->pcb.tcp, recved);
 3521              		.loc 1 1455 0 is_stmt 0 discriminator 1
 3522 0022 A6B2     		uxth	r6, r4
 3523 0024 00E0     		b	.L256
 3524              	.L260:
1455:Source\LwIP\src\api/api_msg.c ****         tcp_recved(msg->conn->pcb.tcp, recved);
ARM GAS  C:\Users\Phuong\AppData\Local\Temp\ccTHzCbL.s 			page 107


 3525              		.loc 1 1455 0
 3526 0026 0E4E     		ldr	r6, .L261
 3527              	.L256:
 3528              	.LVL442:
1456:Source\LwIP\src\api/api_msg.c ****         remaining -= recved;
 3529              		.loc 1 1456 0 is_stmt 1 discriminator 4
 3530 0028 2B68     		ldr	r3, [r5]
 3531 002a 5868     		ldr	r0, [r3, #4]
 3532 002c 3100     		movs	r1, r6
 3533 002e FFF7FEFF 		bl	tcp_recved
 3534              	.LVL443:
1457:Source\LwIP\src\api/api_msg.c ****       } while (remaining != 0);
 3535              		.loc 1 1457 0 discriminator 4
 3536 0032 A41B     		subs	r4, r4, r6
 3537              	.LVL444:
 3538              	.LBE30:
1458:Source\LwIP\src\api/api_msg.c ****     }
 3539              		.loc 1 1458 0 discriminator 4
 3540 0034 F2D1     		bne	.L257
 3541              	.LVL445:
 3542              	.L255:
 3543              	.LBE29:
1461:Source\LwIP\src\api/api_msg.c **** }
 3544              		.loc 1 1461 0
 3545 0036 2B68     		ldr	r3, [r5]
 3546 0038 002B     		cmp	r3, #0
 3547 003a 0BD0     		beq	.L258
 3548              	.LBB31:
1461:Source\LwIP\src\api/api_msg.c **** }
 3549              		.loc 1 1461 0 is_stmt 0 discriminator 1
 3550 003c FFF7FEFF 		bl	sys_arch_protect
 3551              	.LVL446:
 3552 0040 2B68     		ldr	r3, [r5]
 3553 0042 0822     		movs	r2, #8
 3554 0044 9A56     		ldrsb	r2, [r3, r2]
 3555 0046 0C32     		adds	r2, r2, #12
 3556 0048 02DB     		blt	.L259
1461:Source\LwIP\src\api/api_msg.c **** }
 3557              		.loc 1 1461 0 discriminator 3
 3558 004a 0422     		movs	r2, #4
 3559 004c AA56     		ldrsb	r2, [r5, r2]
 3560 004e 1A72     		strb	r2, [r3, #8]
 3561              	.L259:
1461:Source\LwIP\src\api/api_msg.c **** }
 3562              		.loc 1 1461 0 discriminator 5
 3563 0050 FFF7FEFF 		bl	sys_arch_unprotect
 3564              	.LVL447:
 3565              	.L258:
 3566              	.LBE31:
1461:Source\LwIP\src\api/api_msg.c **** }
 3567              		.loc 1 1461 0 discriminator 6
 3568 0054 2868     		ldr	r0, [r5]
 3569 0056 0C30     		adds	r0, r0, #12
 3570 0058 FFF7FEFF 		bl	sys_sem_signal
 3571              	.LVL448:
1462:Source\LwIP\src\api/api_msg.c **** 
 3572              		.loc 1 1462 0 is_stmt 1 discriminator 6
ARM GAS  C:\Users\Phuong\AppData\Local\Temp\ccTHzCbL.s 			page 108


 3573              		@ sp needed
 3574              	.LVL449:
 3575 005c 70BD     		pop	{r4, r5, r6, pc}
 3576              	.L262:
 3577 005e C046     		.align	2
 3578              	.L261:
 3579 0060 FFFF0000 		.word	65535
 3580              		.cfi_endproc
 3581              	.LFE74:
 3582              		.size	lwip_netconn_do_recv, .-lwip_netconn_do_recv
 3583              		.section	.text.lwip_netconn_do_accepted,"ax",%progbits
 3584              		.align	2
 3585              		.global	lwip_netconn_do_accepted
 3586              		.code	16
 3587              		.thumb_func
 3588              		.type	lwip_netconn_do_accepted, %function
 3589              	lwip_netconn_do_accepted:
 3590              	.LFB75:
1472:Source\LwIP\src\api/api_msg.c ****   struct api_msg *msg = (struct api_msg*)m;
 3591              		.loc 1 1472 0
 3592              		.cfi_startproc
 3593              		@ args = 0, pretend = 0, frame = 0
 3594              		@ frame_needed = 0, uses_anonymous_args = 0
 3595              	.LVL450:
 3596 0000 10B5     		push	{r4, lr}
 3597              		.cfi_def_cfa_offset 8
 3598              		.cfi_offset 4, -8
 3599              		.cfi_offset 14, -4
 3600 0002 0400     		movs	r4, r0
 3601              	.LVL451:
1475:Source\LwIP\src\api/api_msg.c ****   if (msg->conn->pcb.tcp != NULL) {
 3602              		.loc 1 1475 0
 3603 0004 0023     		movs	r3, #0
 3604 0006 0371     		strb	r3, [r0, #4]
1476:Source\LwIP\src\api/api_msg.c ****     if (NETCONNTYPE_GROUP(msg->conn->type) == NETCONN_TCP) {
 3605              		.loc 1 1476 0
 3606 0008 0368     		ldr	r3, [r0]
 3607 000a 5868     		ldr	r0, [r3, #4]
 3608              	.LVL452:
 3609 000c 0028     		cmp	r0, #0
 3610 000e 06D0     		beq	.L264
1477:Source\LwIP\src\api/api_msg.c ****       tcp_backlog_accepted(msg->conn->pcb.tcp);
 3611              		.loc 1 1477 0
 3612 0010 1B78     		ldrb	r3, [r3]
 3613 0012 0F22     		movs	r2, #15
 3614 0014 9343     		bics	r3, r2
 3615 0016 102B     		cmp	r3, #16
 3616 0018 01D1     		bne	.L264
1478:Source\LwIP\src\api/api_msg.c ****     }
 3617              		.loc 1 1478 0
 3618 001a FFF7FEFF 		bl	tcp_backlog_accepted
 3619              	.LVL453:
 3620              	.L264:
1481:Source\LwIP\src\api/api_msg.c **** }
 3621              		.loc 1 1481 0
 3622 001e 2368     		ldr	r3, [r4]
 3623 0020 002B     		cmp	r3, #0
ARM GAS  C:\Users\Phuong\AppData\Local\Temp\ccTHzCbL.s 			page 109


 3624 0022 0BD0     		beq	.L265
 3625              	.LBB32:
1481:Source\LwIP\src\api/api_msg.c **** }
 3626              		.loc 1 1481 0 is_stmt 0 discriminator 1
 3627 0024 FFF7FEFF 		bl	sys_arch_protect
 3628              	.LVL454:
 3629 0028 2368     		ldr	r3, [r4]
 3630 002a 0822     		movs	r2, #8
 3631 002c 9A56     		ldrsb	r2, [r3, r2]
 3632 002e 0C32     		adds	r2, r2, #12
 3633 0030 02DB     		blt	.L266
1481:Source\LwIP\src\api/api_msg.c **** }
 3634              		.loc 1 1481 0 discriminator 3
 3635 0032 0422     		movs	r2, #4
 3636 0034 A256     		ldrsb	r2, [r4, r2]
 3637 0036 1A72     		strb	r2, [r3, #8]
 3638              	.L266:
1481:Source\LwIP\src\api/api_msg.c **** }
 3639              		.loc 1 1481 0 discriminator 5
 3640 0038 FFF7FEFF 		bl	sys_arch_unprotect
 3641              	.LVL455:
 3642              	.L265:
 3643              	.LBE32:
1481:Source\LwIP\src\api/api_msg.c **** }
 3644              		.loc 1 1481 0 discriminator 6
 3645 003c 2068     		ldr	r0, [r4]
 3646 003e 0C30     		adds	r0, r0, #12
 3647 0040 FFF7FEFF 		bl	sys_sem_signal
 3648              	.LVL456:
1482:Source\LwIP\src\api/api_msg.c **** #endif /* TCP_LISTEN_BACKLOG */
 3649              		.loc 1 1482 0 is_stmt 1 discriminator 6
 3650              		@ sp needed
 3651              	.LVL457:
 3652 0044 10BD     		pop	{r4, pc}
 3653              		.cfi_endproc
 3654              	.LFE75:
 3655              		.size	lwip_netconn_do_accepted, .-lwip_netconn_do_accepted
 3656 0046 C046     		.section	.text.lwip_netconn_do_write,"ax",%progbits
 3657              		.align	2
 3658              		.global	lwip_netconn_do_write
 3659              		.code	16
 3660              		.thumb_func
 3661              		.type	lwip_netconn_do_write, %function
 3662              	lwip_netconn_do_write:
 3663              	.LFB77:
1652:Source\LwIP\src\api/api_msg.c ****   struct api_msg *msg = (struct api_msg*)m;
 3664              		.loc 1 1652 0
 3665              		.cfi_startproc
 3666              		@ args = 0, pretend = 0, frame = 0
 3667              		@ frame_needed = 0, uses_anonymous_args = 0
 3668              	.LVL458:
 3669 0000 10B5     		push	{r4, lr}
 3670              		.cfi_def_cfa_offset 8
 3671              		.cfi_offset 4, -8
 3672              		.cfi_offset 14, -4
 3673 0002 0400     		movs	r4, r0
 3674              	.LVL459:
ARM GAS  C:\Users\Phuong\AppData\Local\Temp\ccTHzCbL.s 			page 110


1655:Source\LwIP\src\api/api_msg.c ****     msg->err = msg->conn->last_err;
 3675              		.loc 1 1655 0
 3676 0004 0368     		ldr	r3, [r0]
 3677 0006 0822     		movs	r2, #8
 3678 0008 9A56     		ldrsb	r2, [r3, r2]
 3679 000a 1100     		movs	r1, r2
 3680 000c 0C31     		adds	r1, r1, #12
 3681 000e 01DA     		bge	.L268
1656:Source\LwIP\src\api/api_msg.c ****   } else {
 3682              		.loc 1 1656 0
 3683 0010 0271     		strb	r2, [r0, #4]
 3684 0012 1DE0     		b	.L269
 3685              	.L268:
1658:Source\LwIP\src\api/api_msg.c **** #if LWIP_TCP
 3686              		.loc 1 1658 0
 3687 0014 1A78     		ldrb	r2, [r3]
 3688 0016 0F21     		movs	r1, #15
 3689 0018 8A43     		bics	r2, r1
 3690 001a 102A     		cmp	r2, #16
 3691 001c 16D1     		bne	.L270
1660:Source\LwIP\src\api/api_msg.c ****         /* netconn is connecting, closing or in blocking write */
 3692              		.loc 1 1660 0
 3693 001e 5A78     		ldrb	r2, [r3, #1]
 3694 0020 002A     		cmp	r2, #0
 3695 0022 02D0     		beq	.L271
1662:Source\LwIP\src\api/api_msg.c ****       } else if (msg->conn->pcb.tcp != NULL) {
 3696              		.loc 1 1662 0
 3697 0024 FB22     		movs	r2, #251
 3698 0026 0271     		strb	r2, [r0, #4]
 3699 0028 12E0     		b	.L269
 3700              	.L271:
1663:Source\LwIP\src\api/api_msg.c ****         msg->conn->state = NETCONN_WRITE;
 3701              		.loc 1 1663 0
 3702 002a 5A68     		ldr	r2, [r3, #4]
 3703 002c 002A     		cmp	r2, #0
 3704 002e 0AD0     		beq	.L272
1664:Source\LwIP\src\api/api_msg.c ****         /* set all the variables used by lwip_netconn_do_writemore */
 3705              		.loc 1 1664 0
 3706 0030 0122     		movs	r2, #1
 3707 0032 5A70     		strb	r2, [r3, #1]
1666:Source\LwIP\src\api/api_msg.c ****           msg->conn->write_offset == 0);
 3708              		.loc 1 1666 0
 3709 0034 0368     		ldr	r3, [r0]
1669:Source\LwIP\src\api/api_msg.c ****         msg->conn->write_offset = 0;
 3710              		.loc 1 1669 0
 3711 0036 9862     		str	r0, [r3, #40]
1670:Source\LwIP\src\api/api_msg.c **** #if LWIP_TCPIP_CORE_LOCKING
 3712              		.loc 1 1670 0
 3713 0038 0368     		ldr	r3, [r0]
 3714 003a 0022     		movs	r2, #0
 3715 003c 5A62     		str	r2, [r3, #36]
1680:Source\LwIP\src\api/api_msg.c **** #endif /* LWIP_TCPIP_CORE_LOCKING */
 3716              		.loc 1 1680 0
 3717 003e 0068     		ldr	r0, [r0]
 3718              	.LVL460:
 3719 0040 FFF7FEFF 		bl	lwip_netconn_do_writemore
 3720              	.LVL461:
ARM GAS  C:\Users\Phuong\AppData\Local\Temp\ccTHzCbL.s 			page 111


1684:Source\LwIP\src\api/api_msg.c ****       } else {
 3721              		.loc 1 1684 0
 3722 0044 16E0     		b	.L267
 3723              	.LVL462:
 3724              	.L272:
1686:Source\LwIP\src\api/api_msg.c ****       }
 3725              		.loc 1 1686 0
 3726 0046 F522     		movs	r2, #245
 3727 0048 0271     		strb	r2, [r0, #4]
 3728 004a 01E0     		b	.L269
 3729              	.L270:
1693:Source\LwIP\src\api/api_msg.c **** #endif /* (LWIP_UDP || LWIP_RAW) */
 3730              		.loc 1 1693 0
 3731 004c FA22     		movs	r2, #250
 3732 004e 0271     		strb	r2, [r0, #4]
 3733              	.L269:
1697:Source\LwIP\src\api/api_msg.c **** }
 3734              		.loc 1 1697 0
 3735 0050 002B     		cmp	r3, #0
 3736 0052 0BD0     		beq	.L274
 3737              	.LBB33:
1697:Source\LwIP\src\api/api_msg.c **** }
 3738              		.loc 1 1697 0 is_stmt 0 discriminator 1
 3739 0054 FFF7FEFF 		bl	sys_arch_protect
 3740              	.LVL463:
 3741 0058 2368     		ldr	r3, [r4]
 3742 005a 0822     		movs	r2, #8
 3743 005c 9A56     		ldrsb	r2, [r3, r2]
 3744 005e 0C32     		adds	r2, r2, #12
 3745 0060 02DB     		blt	.L275
1697:Source\LwIP\src\api/api_msg.c **** }
 3746              		.loc 1 1697 0 discriminator 3
 3747 0062 0422     		movs	r2, #4
 3748 0064 A256     		ldrsb	r2, [r4, r2]
 3749 0066 1A72     		strb	r2, [r3, #8]
 3750              	.L275:
1697:Source\LwIP\src\api/api_msg.c **** }
 3751              		.loc 1 1697 0 discriminator 5
 3752 0068 FFF7FEFF 		bl	sys_arch_unprotect
 3753              	.LVL464:
 3754              	.L274:
 3755              	.LBE33:
1697:Source\LwIP\src\api/api_msg.c **** }
 3756              		.loc 1 1697 0 discriminator 6
 3757 006c 2068     		ldr	r0, [r4]
 3758 006e 0C30     		adds	r0, r0, #12
 3759 0070 FFF7FEFF 		bl	sys_sem_signal
 3760              	.LVL465:
 3761              	.L267:
1698:Source\LwIP\src\api/api_msg.c **** 
 3762              		.loc 1 1698 0 is_stmt 1
 3763              		@ sp needed
 3764              	.LVL466:
 3765 0074 10BD     		pop	{r4, pc}
 3766              		.cfi_endproc
 3767              	.LFE77:
 3768              		.size	lwip_netconn_do_write, .-lwip_netconn_do_write
ARM GAS  C:\Users\Phuong\AppData\Local\Temp\ccTHzCbL.s 			page 112


 3769 0076 C046     		.section	.text.lwip_netconn_do_getaddr,"ax",%progbits
 3770              		.align	2
 3771              		.global	lwip_netconn_do_getaddr
 3772              		.code	16
 3773              		.thumb_func
 3774              		.type	lwip_netconn_do_getaddr, %function
 3775              	lwip_netconn_do_getaddr:
 3776              	.LFB78:
1708:Source\LwIP\src\api/api_msg.c ****   struct api_msg *msg = (struct api_msg*)m;
 3777              		.loc 1 1708 0
 3778              		.cfi_startproc
 3779              		@ args = 0, pretend = 0, frame = 0
 3780              		@ frame_needed = 0, uses_anonymous_args = 0
 3781              	.LVL467:
 3782 0000 10B5     		push	{r4, lr}
 3783              		.cfi_def_cfa_offset 8
 3784              		.cfi_offset 4, -8
 3785              		.cfi_offset 14, -4
 3786 0002 0400     		movs	r4, r0
 3787              	.LVL468:
1711:Source\LwIP\src\api/api_msg.c ****     if (msg->msg.ad.local) {
 3788              		.loc 1 1711 0
 3789 0004 0368     		ldr	r3, [r0]
 3790 0006 5B68     		ldr	r3, [r3, #4]
 3791 0008 002B     		cmp	r3, #0
 3792 000a 48D0     		beq	.L277
1712:Source\LwIP\src\api/api_msg.c ****       ip_addr_copy(API_EXPR_DEREF(msg->msg.ad.ipaddr),
 3793              		.loc 1 1712 0
 3794 000c 027C     		ldrb	r2, [r0, #16]
 3795 000e 002A     		cmp	r2, #0
 3796 0010 03D0     		beq	.L278
1713:Source\LwIP\src\api/api_msg.c ****         msg->conn->pcb.ip->local_ip);
 3797              		.loc 1 1713 0
 3798 0012 8268     		ldr	r2, [r0, #8]
 3799 0014 1B68     		ldr	r3, [r3]
 3800 0016 1360     		str	r3, [r2]
 3801 0018 02E0     		b	.L279
 3802              	.L278:
1716:Source\LwIP\src\api/api_msg.c ****         msg->conn->pcb.ip->remote_ip);
 3803              		.loc 1 1716 0
 3804 001a 8268     		ldr	r2, [r0, #8]
 3805 001c 5B68     		ldr	r3, [r3, #4]
 3806 001e 1360     		str	r3, [r2]
 3807              	.L279:
1720:Source\LwIP\src\api/api_msg.c ****     switch (NETCONNTYPE_GROUP(msg->conn->type)) {
 3808              		.loc 1 1720 0
 3809 0020 0023     		movs	r3, #0
 3810 0022 2371     		strb	r3, [r4, #4]
1721:Source\LwIP\src\api/api_msg.c **** #if LWIP_RAW
 3811              		.loc 1 1721 0
 3812 0024 2268     		ldr	r2, [r4]
 3813 0026 1378     		ldrb	r3, [r2]
 3814 0028 0F21     		movs	r1, #15
 3815 002a 8B43     		bics	r3, r1
 3816 002c 202B     		cmp	r3, #32
 3817 002e 0FD0     		beq	.L281
 3818 0030 402B     		cmp	r3, #64
ARM GAS  C:\Users\Phuong\AppData\Local\Temp\ccTHzCbL.s 			page 113


 3819 0032 02D0     		beq	.L282
 3820 0034 102B     		cmp	r3, #16
 3821 0036 34D1     		bne	.L280
 3822 0038 1DE0     		b	.L283
 3823              	.L282:
1724:Source\LwIP\src\api/api_msg.c ****         API_EXPR_DEREF(msg->msg.ad.port) = msg->conn->pcb.raw->protocol;
 3824              		.loc 1 1724 0
 3825 003a 237C     		ldrb	r3, [r4, #16]
 3826 003c 002B     		cmp	r3, #0
 3827 003e 04D0     		beq	.L284
1725:Source\LwIP\src\api/api_msg.c ****       } else {
 3828              		.loc 1 1725 0
 3829 0040 5368     		ldr	r3, [r2, #4]
 3830 0042 1B7C     		ldrb	r3, [r3, #16]
 3831 0044 E268     		ldr	r2, [r4, #12]
 3832 0046 1380     		strh	r3, [r2]
 3833 0048 2BE0     		b	.L280
 3834              	.L284:
1728:Source\LwIP\src\api/api_msg.c ****       }
 3835              		.loc 1 1728 0
 3836 004a F523     		movs	r3, #245
 3837 004c 2371     		strb	r3, [r4, #4]
 3838 004e 28E0     		b	.L280
 3839              	.L281:
1734:Source\LwIP\src\api/api_msg.c ****         API_EXPR_DEREF(msg->msg.ad.port) = msg->conn->pcb.udp->local_port;
 3840              		.loc 1 1734 0
 3841 0050 237C     		ldrb	r3, [r4, #16]
 3842 0052 002B     		cmp	r3, #0
 3843 0054 04D0     		beq	.L285
1735:Source\LwIP\src\api/api_msg.c ****       } else {
 3844              		.loc 1 1735 0
 3845 0056 5368     		ldr	r3, [r2, #4]
 3846 0058 5B8A     		ldrh	r3, [r3, #18]
 3847 005a E268     		ldr	r2, [r4, #12]
 3848 005c 1380     		strh	r3, [r2]
 3849 005e 20E0     		b	.L280
 3850              	.L285:
1737:Source\LwIP\src\api/api_msg.c ****           msg->err = ERR_CONN;
 3851              		.loc 1 1737 0
 3852 0060 5368     		ldr	r3, [r2, #4]
 3853 0062 1A7C     		ldrb	r2, [r3, #16]
 3854 0064 5207     		lsls	r2, r2, #29
 3855 0066 02D4     		bmi	.L286
1738:Source\LwIP\src\api/api_msg.c ****         } else {
 3856              		.loc 1 1738 0
 3857 0068 F523     		movs	r3, #245
 3858 006a 2371     		strb	r3, [r4, #4]
 3859 006c 19E0     		b	.L280
 3860              	.L286:
1740:Source\LwIP\src\api/api_msg.c ****         }
 3861              		.loc 1 1740 0
 3862 006e 9B8A     		ldrh	r3, [r3, #20]
 3863 0070 E268     		ldr	r2, [r4, #12]
 3864 0072 1380     		strh	r3, [r2]
 3865 0074 15E0     		b	.L280
 3866              	.L283:
1747:Source\LwIP\src\api/api_msg.c ****           ((msg->conn->pcb.tcp->state == CLOSED) || (msg->conn->pcb.tcp->state == LISTEN))) {
ARM GAS  C:\Users\Phuong\AppData\Local\Temp\ccTHzCbL.s 			page 114


 3867              		.loc 1 1747 0
 3868 0076 237C     		ldrb	r3, [r4, #16]
 3869 0078 002B     		cmp	r3, #0
 3870 007a 06D1     		bne	.L287
1748:Source\LwIP\src\api/api_msg.c ****         /* pcb is not connected and remote name is requested */
 3871              		.loc 1 1748 0 discriminator 1
 3872 007c 5168     		ldr	r1, [r2, #4]
 3873 007e 097D     		ldrb	r1, [r1, #20]
1747:Source\LwIP\src\api/api_msg.c ****           ((msg->conn->pcb.tcp->state == CLOSED) || (msg->conn->pcb.tcp->state == LISTEN))) {
 3874              		.loc 1 1747 0 discriminator 1
 3875 0080 0129     		cmp	r1, #1
 3876 0082 02D8     		bhi	.L287
1750:Source\LwIP\src\api/api_msg.c ****       } else {
 3877              		.loc 1 1750 0
 3878 0084 F533     		adds	r3, r3, #245
 3879 0086 2371     		strb	r3, [r4, #4]
 3880 0088 0BE0     		b	.L280
 3881              	.L287:
1752:Source\LwIP\src\api/api_msg.c ****       }
 3882              		.loc 1 1752 0
 3883 008a E168     		ldr	r1, [r4, #12]
 3884 008c 002B     		cmp	r3, #0
 3885 008e 02D0     		beq	.L288
1752:Source\LwIP\src\api/api_msg.c ****       }
 3886              		.loc 1 1752 0 is_stmt 0 discriminator 1
 3887 0090 5368     		ldr	r3, [r2, #4]
 3888 0092 DB8A     		ldrh	r3, [r3, #22]
 3889 0094 01E0     		b	.L289
 3890              	.L288:
1752:Source\LwIP\src\api/api_msg.c ****       }
 3891              		.loc 1 1752 0 discriminator 2
 3892 0096 5368     		ldr	r3, [r2, #4]
 3893 0098 1B8B     		ldrh	r3, [r3, #24]
 3894              	.L289:
1752:Source\LwIP\src\api/api_msg.c ****       }
 3895              		.loc 1 1752 0 discriminator 4
 3896 009a 0B80     		strh	r3, [r1]
 3897 009c 01E0     		b	.L280
 3898              	.L277:
1761:Source\LwIP\src\api/api_msg.c ****   }
 3899              		.loc 1 1761 0 is_stmt 1
 3900 009e F523     		movs	r3, #245
 3901 00a0 0371     		strb	r3, [r0, #4]
 3902              	.L280:
1763:Source\LwIP\src\api/api_msg.c **** }
 3903              		.loc 1 1763 0
 3904 00a2 2368     		ldr	r3, [r4]
 3905 00a4 002B     		cmp	r3, #0
 3906 00a6 0BD0     		beq	.L290
 3907              	.LBB34:
1763:Source\LwIP\src\api/api_msg.c **** }
 3908              		.loc 1 1763 0 is_stmt 0 discriminator 1
 3909 00a8 FFF7FEFF 		bl	sys_arch_protect
 3910              	.LVL469:
 3911 00ac 2368     		ldr	r3, [r4]
 3912 00ae 0822     		movs	r2, #8
 3913 00b0 9A56     		ldrsb	r2, [r3, r2]
ARM GAS  C:\Users\Phuong\AppData\Local\Temp\ccTHzCbL.s 			page 115


 3914 00b2 0C32     		adds	r2, r2, #12
 3915 00b4 02DB     		blt	.L291
1763:Source\LwIP\src\api/api_msg.c **** }
 3916              		.loc 1 1763 0 discriminator 3
 3917 00b6 0422     		movs	r2, #4
 3918 00b8 A256     		ldrsb	r2, [r4, r2]
 3919 00ba 1A72     		strb	r2, [r3, #8]
 3920              	.L291:
1763:Source\LwIP\src\api/api_msg.c **** }
 3921              		.loc 1 1763 0 discriminator 5
 3922 00bc FFF7FEFF 		bl	sys_arch_unprotect
 3923              	.LVL470:
 3924              	.L290:
 3925              	.LBE34:
1763:Source\LwIP\src\api/api_msg.c **** }
 3926              		.loc 1 1763 0 discriminator 6
 3927 00c0 2068     		ldr	r0, [r4]
 3928 00c2 0C30     		adds	r0, r0, #12
 3929 00c4 FFF7FEFF 		bl	sys_sem_signal
 3930              	.LVL471:
1764:Source\LwIP\src\api/api_msg.c **** 
 3931              		.loc 1 1764 0 is_stmt 1 discriminator 6
 3932              		@ sp needed
 3933              	.LVL472:
 3934 00c8 10BD     		pop	{r4, pc}
 3935              		.cfi_endproc
 3936              	.LFE78:
 3937              		.size	lwip_netconn_do_getaddr, .-lwip_netconn_do_getaddr
 3938 00ca C046     		.section	.text.lwip_netconn_do_close,"ax",%progbits
 3939              		.align	2
 3940              		.global	lwip_netconn_do_close
 3941              		.code	16
 3942              		.thumb_func
 3943              		.type	lwip_netconn_do_close, %function
 3944              	lwip_netconn_do_close:
 3945              	.LFB79:
1775:Source\LwIP\src\api/api_msg.c ****   struct api_msg *msg = (struct api_msg*)m;
 3946              		.loc 1 1775 0
 3947              		.cfi_startproc
 3948              		@ args = 0, pretend = 0, frame = 0
 3949              		@ frame_needed = 0, uses_anonymous_args = 0
 3950              	.LVL473:
 3951 0000 10B5     		push	{r4, lr}
 3952              		.cfi_def_cfa_offset 8
 3953              		.cfi_offset 4, -8
 3954              		.cfi_offset 14, -4
 3955 0002 0400     		movs	r4, r0
 3956              	.LVL474:
1779:Source\LwIP\src\api/api_msg.c ****   /* First check if this is a TCP netconn and if it is in a correct state
 3957              		.loc 1 1779 0
 3958 0004 0068     		ldr	r0, [r0]
 3959              	.LVL475:
 3960 0006 4178     		ldrb	r1, [r0, #1]
 3961              	.LVL476:
1782:Source\LwIP\src\api/api_msg.c ****       (NETCONNTYPE_GROUP(msg->conn->type) == NETCONN_TCP) &&
 3962              		.loc 1 1782 0
 3963 0008 4368     		ldr	r3, [r0, #4]
ARM GAS  C:\Users\Phuong\AppData\Local\Temp\ccTHzCbL.s 			page 116


 3964 000a 002B     		cmp	r3, #0
 3965 000c 20D0     		beq	.L293
1783:Source\LwIP\src\api/api_msg.c ****       ((msg->msg.sd.shut == NETCONN_SHUT_RDWR) || (state != NETCONN_LISTEN))) {
 3966              		.loc 1 1783 0 discriminator 1
 3967 000e 0378     		ldrb	r3, [r0]
 3968 0010 0F22     		movs	r2, #15
 3969 0012 9343     		bics	r3, r2
1782:Source\LwIP\src\api/api_msg.c ****       (NETCONNTYPE_GROUP(msg->conn->type) == NETCONN_TCP) &&
 3970              		.loc 1 1782 0 discriminator 1
 3971 0014 102B     		cmp	r3, #16
 3972 0016 1BD1     		bne	.L293
1784:Source\LwIP\src\api/api_msg.c ****     /* Check if we are in a connected state */
 3973              		.loc 1 1784 0
 3974 0018 237A     		ldrb	r3, [r4, #8]
1783:Source\LwIP\src\api/api_msg.c ****       ((msg->msg.sd.shut == NETCONN_SHUT_RDWR) || (state != NETCONN_LISTEN))) {
 3975              		.loc 1 1783 0
 3976 001a 032B     		cmp	r3, #3
 3977 001c 01D0     		beq	.L294
1784:Source\LwIP\src\api/api_msg.c ****     /* Check if we are in a connected state */
 3978              		.loc 1 1784 0
 3979 001e 0229     		cmp	r1, #2
 3980 0020 16D0     		beq	.L293
 3981              	.L294:
1786:Source\LwIP\src\api/api_msg.c ****       /* TCP connect in progress: cannot shutdown */
 3982              		.loc 1 1786 0
 3983 0022 0329     		cmp	r1, #3
 3984 0024 02D1     		bne	.L295
1788:Source\LwIP\src\api/api_msg.c ****     } else if (state == NETCONN_WRITE) {
 3985              		.loc 1 1788 0
 3986 0026 F523     		movs	r3, #245
 3987 0028 2371     		strb	r3, [r4, #4]
 3988 002a 13E0     		b	.L296
 3989              	.L295:
1789:Source\LwIP\src\api/api_msg.c **** #if LWIP_NETCONN_FULLDUPLEX
 3990              		.loc 1 1789 0
 3991 002c 0129     		cmp	r1, #1
 3992 002e 02D1     		bne	.L297
1812:Source\LwIP\src\api/api_msg.c ****     } else {
 3993              		.loc 1 1812 0
 3994 0030 FB23     		movs	r3, #251
 3995 0032 2371     		strb	r3, [r4, #4]
 3996 0034 0EE0     		b	.L296
 3997              	.L297:
1815:Source\LwIP\src\api/api_msg.c ****         /* Drain and delete mboxes */
 3998              		.loc 1 1815 0
 3999 0036 DB07     		lsls	r3, r3, #31
 4000 0038 01D5     		bpl	.L298
1817:Source\LwIP\src\api/api_msg.c ****       }
 4001              		.loc 1 1817 0
 4002 003a FFF7FEFF 		bl	netconn_drain
 4003              	.LVL477:
 4004              	.L298:
1821:Source\LwIP\src\api/api_msg.c ****       msg->conn->current_msg = msg;
 4005              		.loc 1 1821 0
 4006 003e 0423     		movs	r3, #4
 4007 0040 2268     		ldr	r2, [r4]
 4008 0042 5370     		strb	r3, [r2, #1]
ARM GAS  C:\Users\Phuong\AppData\Local\Temp\ccTHzCbL.s 			page 117


1822:Source\LwIP\src\api/api_msg.c **** #if LWIP_TCPIP_CORE_LOCKING
 4009              		.loc 1 1822 0
 4010 0044 2368     		ldr	r3, [r4]
 4011 0046 9C62     		str	r4, [r3, #40]
1832:Source\LwIP\src\api/api_msg.c **** #endif /* LWIP_TCPIP_CORE_LOCKING */
 4012              		.loc 1 1832 0
 4013 0048 2068     		ldr	r0, [r4]
 4014 004a FFF7FEFF 		bl	lwip_netconn_do_close_internal
 4015              	.LVL478:
1835:Source\LwIP\src\api/api_msg.c ****     }
 4016              		.loc 1 1835 0
 4017 004e 13E0     		b	.L292
 4018              	.LVL479:
 4019              	.L293:
1840:Source\LwIP\src\api/api_msg.c ****   }
 4020              		.loc 1 1840 0
 4021 0050 F523     		movs	r3, #245
 4022 0052 2371     		strb	r3, [r4, #4]
 4023              	.L296:
1842:Source\LwIP\src\api/api_msg.c **** }
 4024              		.loc 1 1842 0
 4025 0054 0028     		cmp	r0, #0
 4026 0056 0BD0     		beq	.L300
 4027              	.LBB35:
1842:Source\LwIP\src\api/api_msg.c **** }
 4028              		.loc 1 1842 0 is_stmt 0 discriminator 1
 4029 0058 FFF7FEFF 		bl	sys_arch_protect
 4030              	.LVL480:
 4031 005c 2368     		ldr	r3, [r4]
 4032 005e 0822     		movs	r2, #8
 4033 0060 9A56     		ldrsb	r2, [r3, r2]
 4034 0062 0C32     		adds	r2, r2, #12
 4035 0064 02DB     		blt	.L301
1842:Source\LwIP\src\api/api_msg.c **** }
 4036              		.loc 1 1842 0 discriminator 3
 4037 0066 0422     		movs	r2, #4
 4038 0068 A256     		ldrsb	r2, [r4, r2]
 4039 006a 1A72     		strb	r2, [r3, #8]
 4040              	.L301:
1842:Source\LwIP\src\api/api_msg.c **** }
 4041              		.loc 1 1842 0 discriminator 5
 4042 006c FFF7FEFF 		bl	sys_arch_unprotect
 4043              	.LVL481:
 4044              	.L300:
 4045              	.LBE35:
1842:Source\LwIP\src\api/api_msg.c **** }
 4046              		.loc 1 1842 0 discriminator 6
 4047 0070 2068     		ldr	r0, [r4]
 4048 0072 0C30     		adds	r0, r0, #12
 4049 0074 FFF7FEFF 		bl	sys_sem_signal
 4050              	.LVL482:
 4051              	.L292:
1843:Source\LwIP\src\api/api_msg.c **** 
 4052              		.loc 1 1843 0 is_stmt 1
 4053              		@ sp needed
 4054              	.LVL483:
 4055 0078 10BD     		pop	{r4, pc}
ARM GAS  C:\Users\Phuong\AppData\Local\Temp\ccTHzCbL.s 			page 118


 4056              		.cfi_endproc
 4057              	.LFE79:
 4058              		.size	lwip_netconn_do_close, .-lwip_netconn_do_close
 4059 007a C046     		.section	.text.lwip_netconn_do_join_leave_group,"ax",%progbits
 4060              		.align	2
 4061              		.global	lwip_netconn_do_join_leave_group
 4062              		.code	16
 4063              		.thumb_func
 4064              		.type	lwip_netconn_do_join_leave_group, %function
 4065              	lwip_netconn_do_join_leave_group:
 4066              	.LFB80:
1854:Source\LwIP\src\api/api_msg.c ****   struct api_msg *msg = (struct api_msg*)m;
 4067              		.loc 1 1854 0
 4068              		.cfi_startproc
 4069              		@ args = 0, pretend = 0, frame = 0
 4070              		@ frame_needed = 0, uses_anonymous_args = 0
 4071              	.LVL484:
 4072 0000 10B5     		push	{r4, lr}
 4073              		.cfi_def_cfa_offset 8
 4074              		.cfi_offset 4, -8
 4075              		.cfi_offset 14, -4
 4076 0002 0400     		movs	r4, r0
 4077              	.LVL485:
1857:Source\LwIP\src\api/api_msg.c ****     msg->err = msg->conn->last_err;
 4078              		.loc 1 1857 0
 4079 0004 0368     		ldr	r3, [r0]
 4080 0006 0822     		movs	r2, #8
 4081 0008 9A56     		ldrsb	r2, [r3, r2]
 4082 000a 1100     		movs	r1, r2
 4083 000c 0C31     		adds	r1, r1, #12
 4084 000e 01DA     		bge	.L303
1858:Source\LwIP\src\api/api_msg.c ****   } else {
 4085              		.loc 1 1858 0
 4086 0010 0271     		strb	r2, [r0, #4]
 4087 0012 1BE0     		b	.L304
 4088              	.L303:
1860:Source\LwIP\src\api/api_msg.c ****       if (NETCONNTYPE_GROUP(msg->conn->type) == NETCONN_UDP) {
 4089              		.loc 1 1860 0
 4090 0014 5A68     		ldr	r2, [r3, #4]
 4091 0016 002A     		cmp	r2, #0
 4092 0018 16D0     		beq	.L305
1861:Source\LwIP\src\api/api_msg.c **** #if LWIP_UDP
 4093              		.loc 1 1861 0
 4094 001a 1B78     		ldrb	r3, [r3]
 4095 001c 0F22     		movs	r2, #15
 4096 001e 9343     		bics	r3, r2
 4097 0020 202B     		cmp	r3, #32
 4098 0022 0ED1     		bne	.L306
1877:Source\LwIP\src\api/api_msg.c ****             msg->err = igmp_joingroup(ip_2_ip4(API_EXPR_REF(msg->msg.jl.netif_addr)),
 4099              		.loc 1 1877 0
 4100 0024 037C     		ldrb	r3, [r0, #16]
 4101 0026 002B     		cmp	r3, #0
 4102 0028 05D1     		bne	.L307
1878:Source\LwIP\src\api/api_msg.c ****               ip_2_ip4(API_EXPR_REF(msg->msg.jl.multiaddr)));
 4103              		.loc 1 1878 0
 4104 002a 8168     		ldr	r1, [r0, #8]
 4105 002c C068     		ldr	r0, [r0, #12]
ARM GAS  C:\Users\Phuong\AppData\Local\Temp\ccTHzCbL.s 			page 119


 4106              	.LVL486:
 4107 002e FFF7FEFF 		bl	igmp_joingroup
 4108              	.LVL487:
 4109 0032 2071     		strb	r0, [r4, #4]
 4110 0034 0AE0     		b	.L304
 4111              	.LVL488:
 4112              	.L307:
1881:Source\LwIP\src\api/api_msg.c ****               ip_2_ip4(API_EXPR_REF(msg->msg.jl.multiaddr)));
 4113              		.loc 1 1881 0
 4114 0036 8168     		ldr	r1, [r0, #8]
 4115 0038 C068     		ldr	r0, [r0, #12]
 4116              	.LVL489:
 4117 003a FFF7FEFF 		bl	igmp_leavegroup
 4118              	.LVL490:
 4119 003e 2071     		strb	r0, [r4, #4]
 4120 0040 04E0     		b	.L304
 4121              	.LVL491:
 4122              	.L306:
1889:Source\LwIP\src\api/api_msg.c **** #endif /* (LWIP_TCP || LWIP_RAW) */
 4123              		.loc 1 1889 0
 4124 0042 FA23     		movs	r3, #250
 4125 0044 0371     		strb	r3, [r0, #4]
 4126 0046 01E0     		b	.L304
 4127              	.L305:
1893:Source\LwIP\src\api/api_msg.c ****     }
 4128              		.loc 1 1893 0
 4129 0048 F523     		movs	r3, #245
 4130 004a 0371     		strb	r3, [r0, #4]
 4131              	.LVL492:
 4132              	.L304:
1896:Source\LwIP\src\api/api_msg.c **** }
 4133              		.loc 1 1896 0
 4134 004c 2368     		ldr	r3, [r4]
 4135 004e 002B     		cmp	r3, #0
 4136 0050 0BD0     		beq	.L308
 4137              	.LBB36:
1896:Source\LwIP\src\api/api_msg.c **** }
 4138              		.loc 1 1896 0 is_stmt 0 discriminator 1
 4139 0052 FFF7FEFF 		bl	sys_arch_protect
 4140              	.LVL493:
 4141 0056 2368     		ldr	r3, [r4]
 4142 0058 0822     		movs	r2, #8
 4143 005a 9A56     		ldrsb	r2, [r3, r2]
 4144 005c 0C32     		adds	r2, r2, #12
 4145 005e 02DB     		blt	.L309
1896:Source\LwIP\src\api/api_msg.c **** }
 4146              		.loc 1 1896 0 discriminator 3
 4147 0060 0422     		movs	r2, #4
 4148 0062 A256     		ldrsb	r2, [r4, r2]
 4149 0064 1A72     		strb	r2, [r3, #8]
 4150              	.L309:
1896:Source\LwIP\src\api/api_msg.c **** }
 4151              		.loc 1 1896 0 discriminator 5
 4152 0066 FFF7FEFF 		bl	sys_arch_unprotect
 4153              	.LVL494:
 4154              	.L308:
 4155              	.LBE36:
ARM GAS  C:\Users\Phuong\AppData\Local\Temp\ccTHzCbL.s 			page 120


1896:Source\LwIP\src\api/api_msg.c **** }
 4156              		.loc 1 1896 0 discriminator 6
 4157 006a 2068     		ldr	r0, [r4]
 4158 006c 0C30     		adds	r0, r0, #12
 4159 006e FFF7FEFF 		bl	sys_sem_signal
 4160              	.LVL495:
1897:Source\LwIP\src\api/api_msg.c **** #endif /* LWIP_IGMP || (LWIP_IPV6 && LWIP_IPV6_MLD) */
 4161              		.loc 1 1897 0 is_stmt 1 discriminator 6
 4162              		@ sp needed
 4163              	.LVL496:
 4164 0072 10BD     		pop	{r4, pc}
 4165              		.cfi_endproc
 4166              	.LFE80:
 4167              		.size	lwip_netconn_do_join_leave_group, .-lwip_netconn_do_join_leave_group
 4168              		.section	.text.lwip_netconn_do_gethostbyname,"ax",%progbits
 4169              		.align	2
 4170              		.global	lwip_netconn_do_gethostbyname
 4171              		.code	16
 4172              		.thumb_func
 4173              		.type	lwip_netconn_do_gethostbyname, %function
 4174              	lwip_netconn_do_gethostbyname:
 4175              	.LFB82:
1925:Source\LwIP\src\api/api_msg.c **** 
1926:Source\LwIP\src\api/api_msg.c **** /**
1927:Source\LwIP\src\api/api_msg.c ****  * Execute a DNS query
1928:Source\LwIP\src\api/api_msg.c ****  * Called from netconn_gethostbyname
1929:Source\LwIP\src\api/api_msg.c ****  *
1930:Source\LwIP\src\api/api_msg.c ****  * @param arg the dns_api_msg pointing to the query
1931:Source\LwIP\src\api/api_msg.c ****  */
1932:Source\LwIP\src\api/api_msg.c **** void
1933:Source\LwIP\src\api/api_msg.c **** lwip_netconn_do_gethostbyname(void *arg)
1934:Source\LwIP\src\api/api_msg.c **** {
 4176              		.loc 1 1934 0
 4177              		.cfi_startproc
 4178              		@ args = 0, pretend = 0, frame = 0
 4179              		@ frame_needed = 0, uses_anonymous_args = 0
 4180              	.LVL497:
 4181 0000 30B5     		push	{r4, r5, lr}
 4182              		.cfi_def_cfa_offset 12
 4183              		.cfi_offset 4, -12
 4184              		.cfi_offset 5, -8
 4185              		.cfi_offset 14, -4
 4186 0002 83B0     		sub	sp, sp, #12
 4187              		.cfi_def_cfa_offset 24
 4188 0004 0400     		movs	r4, r0
 4189              	.LVL498:
1935:Source\LwIP\src\api/api_msg.c ****   struct dns_api_msg *msg = (struct dns_api_msg*)arg;
1936:Source\LwIP\src\api/api_msg.c ****   u8_t addrtype =
1937:Source\LwIP\src\api/api_msg.c **** #if LWIP_IPV4 && LWIP_IPV6
1938:Source\LwIP\src\api/api_msg.c ****     msg->dns_addrtype;
1939:Source\LwIP\src\api/api_msg.c **** #else
1940:Source\LwIP\src\api/api_msg.c ****     LWIP_DNS_ADDRTYPE_DEFAULT;
1941:Source\LwIP\src\api/api_msg.c **** #endif
1942:Source\LwIP\src\api/api_msg.c **** 
1943:Source\LwIP\src\api/api_msg.c ****   API_EXPR_DEREF(msg->err) = dns_gethostbyname_addrtype(msg->name,
 4190              		.loc 1 1943 0
 4191 0006 C568     		ldr	r5, [r0, #12]
ARM GAS  C:\Users\Phuong\AppData\Local\Temp\ccTHzCbL.s 			page 121


 4192 0008 0023     		movs	r3, #0
 4193 000a 0093     		str	r3, [sp]
 4194 000c 0300     		movs	r3, r0
 4195 000e 084A     		ldr	r2, .L312
 4196 0010 4168     		ldr	r1, [r0, #4]
 4197 0012 0068     		ldr	r0, [r0]
 4198              	.LVL499:
 4199 0014 FFF7FEFF 		bl	dns_gethostbyname_addrtype
 4200              	.LVL500:
 4201 0018 2870     		strb	r0, [r5]
1944:Source\LwIP\src\api/api_msg.c ****     API_EXPR_REF(msg->addr), lwip_netconn_do_dns_found, msg, addrtype);
1945:Source\LwIP\src\api/api_msg.c ****   if (API_EXPR_DEREF(msg->err) != ERR_INPROGRESS) {
 4202              		.loc 1 1945 0
 4203 001a E368     		ldr	r3, [r4, #12]
 4204 001c 1B78     		ldrb	r3, [r3]
 4205 001e 5BB2     		sxtb	r3, r3
 4206 0020 0533     		adds	r3, r3, #5
 4207 0022 02D0     		beq	.L310
1946:Source\LwIP\src\api/api_msg.c ****     /* on error or immediate success, wake up the application
1947:Source\LwIP\src\api/api_msg.c ****      * task waiting in netconn_gethostbyname */
1948:Source\LwIP\src\api/api_msg.c ****     sys_sem_signal(API_EXPR_REF_SEM(msg->sem));
 4208              		.loc 1 1948 0
 4209 0024 A068     		ldr	r0, [r4, #8]
 4210 0026 FFF7FEFF 		bl	sys_sem_signal
 4211              	.LVL501:
 4212              	.L310:
1949:Source\LwIP\src\api/api_msg.c ****   }
1950:Source\LwIP\src\api/api_msg.c **** }
 4213              		.loc 1 1950 0
 4214 002a 03B0     		add	sp, sp, #12
 4215              		@ sp needed
 4216              	.LVL502:
 4217 002c 30BD     		pop	{r4, r5, pc}
 4218              	.L313:
 4219 002e C046     		.align	2
 4220              	.L312:
 4221 0030 00000000 		.word	lwip_netconn_do_dns_found
 4222              		.cfi_endproc
 4223              	.LFE82:
 4224              		.size	lwip_netconn_do_gethostbyname, .-lwip_netconn_do_gethostbyname
 4225              		.comm	netconn_aborted,1,1
 4226              		.section	.rodata.str1.4,"aMS",%progbits,1
 4227              		.align	2
 4228              	.LC0:
 4229 0000 536F7572 		.ascii	"Source\\LwIP\\src\\api\\api_msg.c\000"
 4229      63655C4C 
 4229      7749505C 
 4229      7372635C 
 4229      6170695C 
 4230              		.text
 4231              	.Letext0:
 4232              		.file 2 "c:\\program files (x86)\\cypress\\psoc creator\\4.2\\psoc creator\\import\\gnu\\arm\\5.4.
 4233              		.file 3 "c:\\program files (x86)\\cypress\\psoc creator\\4.2\\psoc creator\\import\\gnu\\arm\\5.4.
 4234              		.file 4 "c:\\program files (x86)\\cypress\\psoc creator\\4.2\\psoc creator\\import\\gnu\\arm\\5.4.
 4235              		.file 5 ".\\Source\\FreeRTOS\\10.0.1\\Source\\include/queue.h"
 4236              		.file 6 ".\\Source\\FreeRTOS\\10.0.1\\Source\\include/semphr.h"
 4237              		.file 7 ".\\Source\\LwIP\\src\\include/arch/sys_arch.h"
ARM GAS  C:\Users\Phuong\AppData\Local\Temp\ccTHzCbL.s 			page 122


 4238              		.file 8 ".\\Source\\LwIP\\src\\include/arch/cc.h"
 4239              		.file 9 ".\\Source\\LwIP\\src\\include/lwip/ip4_addr.h"
 4240              		.file 10 ".\\Source\\LwIP\\src\\include/lwip/ip_addr.h"
 4241              		.file 11 ".\\Source\\LwIP\\src\\include/lwip/err.h"
 4242              		.file 12 ".\\Source\\LwIP\\src\\include/lwip/pbuf.h"
 4243              		.file 13 ".\\Source\\LwIP\\src\\include/lwip/memp.h"
 4244              		.file 14 ".\\Source\\LwIP\\src\\include/lwip/netif.h"
 4245              		.file 15 ".\\Source\\LwIP\\src\\include/lwip/netbuf.h"
 4246              		.file 16 ".\\Source\\LwIP\\src\\include/lwip/api.h"
 4247              		.file 17 ".\\Source\\LwIP\\src\\include/lwip/ip.h"
 4248              		.file 18 ".\\Source\\LwIP\\src\\include/lwip/tcp.h"
 4249              		.file 19 ".\\Source\\LwIP\\src\\include/lwip/udp.h"
 4250              		.file 20 ".\\Source\\LwIP\\src\\include/lwip/raw.h"
 4251              		.file 21 ".\\Source\\LwIP\\src\\include/lwip/priv/api_msg.h"
 4252              		.file 22 ".\\Source\\LwIP\\src\\include/lwip/prot/ip4.h"
 4253              		.file 23 ".\\Source\\LwIP\\src\\include/lwip/sys.h"
 4254              		.file 24 ".\\Source\\LwIP\\src\\include/lwip/igmp.h"
 4255              		.file 25 ".\\Source\\LwIP\\src\\include/lwip/dns.h"
 4256              		.section	.debug_info,"",%progbits
 4257              	.Ldebug_info0:
 4258 0000 DE2E0000 		.4byte	0x2ede
 4259 0004 0400     		.2byte	0x4
 4260 0006 00000000 		.4byte	.Ldebug_abbrev0
 4261 000a 04       		.byte	0x4
 4262 000b 01       		.uleb128 0x1
 4263 000c E1030000 		.4byte	.LASF372
 4264 0010 0C       		.byte	0xc
 4265 0011 21030000 		.4byte	.LASF373
 4266 0015 A6050000 		.4byte	.LASF374
 4267 0019 18000000 		.4byte	.Ldebug_ranges0+0x18
 4268 001d 00000000 		.4byte	0
 4269 0021 00000000 		.4byte	.Ldebug_line0
 4270 0025 02       		.uleb128 0x2
 4271 0026 01       		.byte	0x1
 4272 0027 06       		.byte	0x6
 4273 0028 CF110000 		.4byte	.LASF0
 4274 002c 02       		.uleb128 0x2
 4275 002d 01       		.byte	0x1
 4276 002e 08       		.byte	0x8
 4277 002f 840C0000 		.4byte	.LASF1
 4278 0033 02       		.uleb128 0x2
 4279 0034 02       		.byte	0x2
 4280 0035 05       		.byte	0x5
 4281 0036 040D0000 		.4byte	.LASF2
 4282 003a 02       		.uleb128 0x2
 4283 003b 02       		.byte	0x2
 4284 003c 07       		.byte	0x7
 4285 003d F6110000 		.4byte	.LASF3
 4286 0041 02       		.uleb128 0x2
 4287 0042 04       		.byte	0x4
 4288 0043 05       		.byte	0x5
 4289 0044 190D0000 		.4byte	.LASF4
 4290 0048 03       		.uleb128 0x3
 4291 0049 F6080000 		.4byte	.LASF9
 4292 004d 02       		.byte	0x2
 4293 004e 41       		.byte	0x41
 4294 004f 53000000 		.4byte	0x53
ARM GAS  C:\Users\Phuong\AppData\Local\Temp\ccTHzCbL.s 			page 123


 4295 0053 02       		.uleb128 0x2
 4296 0054 04       		.byte	0x4
 4297 0055 07       		.byte	0x7
 4298 0056 100F0000 		.4byte	.LASF5
 4299 005a 02       		.uleb128 0x2
 4300 005b 08       		.byte	0x8
 4301 005c 05       		.byte	0x5
 4302 005d D2090000 		.4byte	.LASF6
 4303 0061 02       		.uleb128 0x2
 4304 0062 08       		.byte	0x8
 4305 0063 07       		.byte	0x7
 4306 0064 EE040000 		.4byte	.LASF7
 4307 0068 04       		.uleb128 0x4
 4308 0069 04       		.byte	0x4
 4309 006a 05       		.byte	0x5
 4310 006b 696E7400 		.ascii	"int\000"
 4311 006f 02       		.uleb128 0x2
 4312 0070 04       		.byte	0x4
 4313 0071 07       		.byte	0x7
 4314 0072 910E0000 		.4byte	.LASF8
 4315 0076 03       		.uleb128 0x3
 4316 0077 F5060000 		.4byte	.LASF10
 4317 007b 03       		.byte	0x3
 4318 007c D8       		.byte	0xd8
 4319 007d 6F000000 		.4byte	0x6f
 4320 0081 02       		.uleb128 0x2
 4321 0082 08       		.byte	0x8
 4322 0083 04       		.byte	0x4
 4323 0084 240C0000 		.4byte	.LASF11
 4324 0088 05       		.uleb128 0x5
 4325 0089 04       		.byte	0x4
 4326 008a 02       		.uleb128 0x2
 4327 008b 04       		.byte	0x4
 4328 008c 07       		.byte	0x7
 4329 008d CE0C0000 		.4byte	.LASF12
 4330 0091 02       		.uleb128 0x2
 4331 0092 01       		.byte	0x1
 4332 0093 08       		.byte	0x8
 4333 0094 6F080000 		.4byte	.LASF13
 4334 0098 06       		.uleb128 0x6
 4335 0099 04       		.byte	0x4
 4336 009a 9E000000 		.4byte	0x9e
 4337 009e 07       		.uleb128 0x7
 4338 009f 91000000 		.4byte	0x91
 4339 00a3 03       		.uleb128 0x3
 4340 00a4 86030000 		.4byte	.LASF14
 4341 00a8 04       		.byte	0x4
 4342 00a9 30       		.byte	0x30
 4343 00aa 48000000 		.4byte	0x48
 4344 00ae 06       		.uleb128 0x6
 4345 00af 04       		.byte	0x4
 4346 00b0 B4000000 		.4byte	0xb4
 4347 00b4 08       		.uleb128 0x8
 4348 00b5 02       		.uleb128 0x2
 4349 00b6 04       		.byte	0x4
 4350 00b7 04       		.byte	0x4
 4351 00b8 3A0F0000 		.4byte	.LASF15
ARM GAS  C:\Users\Phuong\AppData\Local\Temp\ccTHzCbL.s 			page 124


 4352 00bc 02       		.uleb128 0x2
 4353 00bd 08       		.byte	0x8
 4354 00be 04       		.byte	0x4
 4355 00bf 83120000 		.4byte	.LASF16
 4356 00c3 09       		.uleb128 0x9
 4357 00c4 88000000 		.4byte	0x88
 4358 00c8 D3000000 		.4byte	0xd3
 4359 00cc 0A       		.uleb128 0xa
 4360 00cd 8A000000 		.4byte	0x8a
 4361 00d1 01       		.byte	0x1
 4362 00d2 00       		.byte	0
 4363 00d3 03       		.uleb128 0x3
 4364 00d4 AE080000 		.4byte	.LASF17
 4365 00d8 05       		.byte	0x5
 4366 00d9 2E       		.byte	0x2e
 4367 00da 88000000 		.4byte	0x88
 4368 00de 03       		.uleb128 0x3
 4369 00df 2C0D0000 		.4byte	.LASF18
 4370 00e3 06       		.byte	0x6
 4371 00e4 25       		.byte	0x25
 4372 00e5 D3000000 		.4byte	0xd3
 4373 00e9 03       		.uleb128 0x3
 4374 00ea 1A020000 		.4byte	.LASF19
 4375 00ee 07       		.byte	0x7
 4376 00ef 32       		.byte	0x32
 4377 00f0 DE000000 		.4byte	0xde
 4378 00f4 03       		.uleb128 0x3
 4379 00f5 050F0000 		.4byte	.LASF20
 4380 00f9 07       		.byte	0x7
 4381 00fa 33       		.byte	0x33
 4382 00fb D3000000 		.4byte	0xd3
 4383 00ff 03       		.uleb128 0x3
 4384 0100 81030000 		.4byte	.LASF21
 4385 0104 08       		.byte	0x8
 4386 0105 31       		.byte	0x31
 4387 0106 2C000000 		.4byte	0x2c
 4388 010a 03       		.uleb128 0x3
 4389 010b 8D070000 		.4byte	.LASF22
 4390 010f 08       		.byte	0x8
 4391 0110 32       		.byte	0x32
 4392 0111 25000000 		.4byte	0x25
 4393 0115 03       		.uleb128 0x3
 4394 0116 530C0000 		.4byte	.LASF23
 4395 011a 08       		.byte	0x8
 4396 011b 33       		.byte	0x33
 4397 011c 3A000000 		.4byte	0x3a
 4398 0120 03       		.uleb128 0x3
 4399 0121 620F0000 		.4byte	.LASF24
 4400 0125 08       		.byte	0x8
 4401 0126 34       		.byte	0x34
 4402 0127 33000000 		.4byte	0x33
 4403 012b 03       		.uleb128 0x3
 4404 012c EA0C0000 		.4byte	.LASF25
 4405 0130 08       		.byte	0x8
 4406 0131 35       		.byte	0x35
 4407 0132 53000000 		.4byte	0x53
 4408 0136 03       		.uleb128 0x3
ARM GAS  C:\Users\Phuong\AppData\Local\Temp\ccTHzCbL.s 			page 125


 4409 0137 09110000 		.4byte	.LASF26
 4410 013b 08       		.byte	0x8
 4411 013c 38       		.byte	0x38
 4412 013d 68000000 		.4byte	0x68
 4413 0141 0B       		.uleb128 0xb
 4414 0142 C70A0000 		.4byte	.LASF59
 4415 0146 04       		.byte	0x4
 4416 0147 09       		.byte	0x9
 4417 0148 33       		.byte	0x33
 4418 0149 5A010000 		.4byte	0x15a
 4419 014d 0C       		.uleb128 0xc
 4420 014e D5100000 		.4byte	.LASF61
 4421 0152 09       		.byte	0x9
 4422 0153 34       		.byte	0x34
 4423 0154 2B010000 		.4byte	0x12b
 4424 0158 00       		.byte	0
 4425 0159 00       		.byte	0
 4426 015a 03       		.uleb128 0x3
 4427 015b 0E0D0000 		.4byte	.LASF27
 4428 015f 09       		.byte	0x9
 4429 0160 39       		.byte	0x39
 4430 0161 41010000 		.4byte	0x141
 4431 0165 0D       		.uleb128 0xd
 4432 0166 3F030000 		.4byte	.LASF84
 4433 016a 01       		.byte	0x1
 4434 016b 2C000000 		.4byte	0x2c
 4435 016f 0A       		.byte	0xa
 4436 0170 36       		.byte	0x36
 4437 0171 88010000 		.4byte	0x188
 4438 0175 0E       		.uleb128 0xe
 4439 0176 19100000 		.4byte	.LASF28
 4440 017a 00       		.byte	0
 4441 017b 0E       		.uleb128 0xe
 4442 017c 1A0E0000 		.4byte	.LASF29
 4443 0180 06       		.byte	0x6
 4444 0181 0E       		.uleb128 0xe
 4445 0182 FB090000 		.4byte	.LASF30
 4446 0186 2E       		.byte	0x2e
 4447 0187 00       		.byte	0
 4448 0188 03       		.uleb128 0x3
 4449 0189 9A120000 		.4byte	.LASF31
 4450 018d 0A       		.byte	0xa
 4451 018e F4       		.byte	0xf4
 4452 018f 5A010000 		.4byte	0x15a
 4453 0193 03       		.uleb128 0x3
 4454 0194 C4010000 		.4byte	.LASF32
 4455 0198 0B       		.byte	0xb
 4456 0199 39       		.byte	0x39
 4457 019a 0A010000 		.4byte	0x10a
 4458 019e 0F       		.uleb128 0xf
 4459 019f 01       		.byte	0x1
 4460 01a0 25000000 		.4byte	0x25
 4461 01a4 0B       		.byte	0xb
 4462 01a5 3D       		.byte	0x3d
 4463 01a6 11020000 		.4byte	0x211
 4464 01aa 0E       		.uleb128 0xe
 4465 01ab A4110000 		.4byte	.LASF33
ARM GAS  C:\Users\Phuong\AppData\Local\Temp\ccTHzCbL.s 			page 126


 4466 01af 00       		.byte	0
 4467 01b0 10       		.uleb128 0x10
 4468 01b1 16130000 		.4byte	.LASF34
 4469 01b5 7F       		.sleb128 -1
 4470 01b6 10       		.uleb128 0x10
 4471 01b7 B80C0000 		.4byte	.LASF35
 4472 01bb 7E       		.sleb128 -2
 4473 01bc 10       		.uleb128 0x10
 4474 01bd 92040000 		.4byte	.LASF36
 4475 01c1 7D       		.sleb128 -3
 4476 01c2 10       		.uleb128 0x10
 4477 01c3 6E120000 		.4byte	.LASF37
 4478 01c7 7C       		.sleb128 -4
 4479 01c8 10       		.uleb128 0x10
 4480 01c9 040E0000 		.4byte	.LASF38
 4481 01cd 7B       		.sleb128 -5
 4482 01ce 10       		.uleb128 0x10
 4483 01cf 81050000 		.4byte	.LASF39
 4484 01d3 7A       		.sleb128 -6
 4485 01d4 10       		.uleb128 0x10
 4486 01d5 F4070000 		.4byte	.LASF40
 4487 01d9 79       		.sleb128 -7
 4488 01da 10       		.uleb128 0x10
 4489 01db D60A0000 		.4byte	.LASF41
 4490 01df 78       		.sleb128 -8
 4491 01e0 10       		.uleb128 0x10
 4492 01e1 15030000 		.4byte	.LASF42
 4493 01e5 77       		.sleb128 -9
 4494 01e6 10       		.uleb128 0x10
 4495 01e7 550E0000 		.4byte	.LASF43
 4496 01eb 76       		.sleb128 -10
 4497 01ec 10       		.uleb128 0x10
 4498 01ed 03080000 		.4byte	.LASF44
 4499 01f1 75       		.sleb128 -11
 4500 01f2 10       		.uleb128 0x10
 4501 01f3 160A0000 		.4byte	.LASF45
 4502 01f7 74       		.sleb128 -12
 4503 01f8 10       		.uleb128 0x10
 4504 01f9 74000000 		.4byte	.LASF46
 4505 01fd 73       		.sleb128 -13
 4506 01fe 10       		.uleb128 0x10
 4507 01ff 3B110000 		.4byte	.LASF47
 4508 0203 72       		.sleb128 -14
 4509 0204 10       		.uleb128 0x10
 4510 0205 15010000 		.4byte	.LASF48
 4511 0209 71       		.sleb128 -15
 4512 020a 10       		.uleb128 0x10
 4513 020b 27010000 		.4byte	.LASF49
 4514 020f 70       		.sleb128 -16
 4515 0210 00       		.byte	0
 4516 0211 0F       		.uleb128 0xf
 4517 0212 01       		.byte	0x1
 4518 0213 2C000000 		.4byte	0x2c
 4519 0217 0C       		.byte	0xc
 4520 0218 48       		.byte	0x48
 4521 0219 3C020000 		.4byte	0x23c
 4522 021d 0E       		.uleb128 0xe
ARM GAS  C:\Users\Phuong\AppData\Local\Temp\ccTHzCbL.s 			page 127


 4523 021e 82000000 		.4byte	.LASF50
 4524 0222 00       		.byte	0
 4525 0223 0E       		.uleb128 0xe
 4526 0224 04070000 		.4byte	.LASF51
 4527 0228 01       		.byte	0x1
 4528 0229 0E       		.uleb128 0xe
 4529 022a A00B0000 		.4byte	.LASF52
 4530 022e 02       		.byte	0x2
 4531 022f 0E       		.uleb128 0xe
 4532 0230 CD120000 		.4byte	.LASF53
 4533 0234 03       		.byte	0x3
 4534 0235 0E       		.uleb128 0xe
 4535 0236 F7000000 		.4byte	.LASF54
 4536 023a 04       		.byte	0x4
 4537 023b 00       		.byte	0
 4538 023c 0F       		.uleb128 0xf
 4539 023d 01       		.byte	0x1
 4540 023e 2C000000 		.4byte	0x2c
 4541 0242 0C       		.byte	0xc
 4542 0243 65       		.byte	0x65
 4543 0244 61020000 		.4byte	0x261
 4544 0248 0E       		.uleb128 0xe
 4545 0249 9E000000 		.4byte	.LASF55
 4546 024d 00       		.byte	0
 4547 024e 0E       		.uleb128 0xe
 4548 024f D9120000 		.4byte	.LASF56
 4549 0253 01       		.byte	0x1
 4550 0254 0E       		.uleb128 0xe
 4551 0255 85060000 		.4byte	.LASF57
 4552 0259 02       		.byte	0x2
 4553 025a 0E       		.uleb128 0xe
 4554 025b 3B070000 		.4byte	.LASF58
 4555 025f 03       		.byte	0x3
 4556 0260 00       		.byte	0
 4557 0261 0B       		.uleb128 0xb
 4558 0262 E30F0000 		.4byte	.LASF60
 4559 0266 10       		.byte	0x10
 4560 0267 0C       		.byte	0xc
 4561 0268 8E       		.byte	0x8e
 4562 0269 C2020000 		.4byte	0x2c2
 4563 026d 0C       		.uleb128 0xc
 4564 026e 8C010000 		.4byte	.LASF62
 4565 0272 0C       		.byte	0xc
 4566 0273 90       		.byte	0x90
 4567 0274 C2020000 		.4byte	0x2c2
 4568 0278 00       		.byte	0
 4569 0279 0C       		.uleb128 0xc
 4570 027a FC060000 		.4byte	.LASF63
 4571 027e 0C       		.byte	0xc
 4572 027f 93       		.byte	0x93
 4573 0280 88000000 		.4byte	0x88
 4574 0284 04       		.byte	0x4
 4575 0285 0C       		.uleb128 0xc
 4576 0286 E6060000 		.4byte	.LASF64
 4577 028a 0C       		.byte	0xc
 4578 028b 9C       		.byte	0x9c
 4579 028c 15010000 		.4byte	0x115
ARM GAS  C:\Users\Phuong\AppData\Local\Temp\ccTHzCbL.s 			page 128


 4580 0290 08       		.byte	0x8
 4581 0291 11       		.uleb128 0x11
 4582 0292 6C656E00 		.ascii	"len\000"
 4583 0296 0C       		.byte	0xc
 4584 0297 9F       		.byte	0x9f
 4585 0298 15010000 		.4byte	0x115
 4586 029c 0A       		.byte	0xa
 4587 029d 0C       		.uleb128 0xc
 4588 029e DE0F0000 		.4byte	.LASF65
 4589 02a2 0C       		.byte	0xc
 4590 02a3 A2       		.byte	0xa2
 4591 02a4 FF000000 		.4byte	0xff
 4592 02a8 0C       		.byte	0xc
 4593 02a9 0C       		.uleb128 0xc
 4594 02aa 00010000 		.4byte	.LASF66
 4595 02ae 0C       		.byte	0xc
 4596 02af A5       		.byte	0xa5
 4597 02b0 FF000000 		.4byte	0xff
 4598 02b4 0D       		.byte	0xd
 4599 02b5 11       		.uleb128 0x11
 4600 02b6 72656600 		.ascii	"ref\000"
 4601 02ba 0C       		.byte	0xc
 4602 02bb AC       		.byte	0xac
 4603 02bc 15010000 		.4byte	0x115
 4604 02c0 0E       		.byte	0xe
 4605 02c1 00       		.byte	0
 4606 02c2 06       		.uleb128 0x6
 4607 02c3 04       		.byte	0x4
 4608 02c4 61020000 		.4byte	0x261
 4609 02c8 0F       		.uleb128 0xf
 4610 02c9 01       		.byte	0x1
 4611 02ca 2C000000 		.4byte	0x2c
 4612 02ce 0D       		.byte	0xd
 4613 02cf 34       		.byte	0x34
 4614 02d0 3B030000 		.4byte	0x33b
 4615 02d4 0E       		.uleb128 0xe
 4616 02d5 EA0E0000 		.4byte	.LASF67
 4617 02d9 00       		.byte	0
 4618 02da 0E       		.uleb128 0xe
 4619 02db AE0D0000 		.4byte	.LASF68
 4620 02df 01       		.byte	0x1
 4621 02e0 0E       		.uleb128 0xe
 4622 02e1 670A0000 		.4byte	.LASF69
 4623 02e5 02       		.byte	0x2
 4624 02e6 0E       		.uleb128 0xe
 4625 02e7 2B000000 		.4byte	.LASF70
 4626 02eb 03       		.byte	0x3
 4627 02ec 0E       		.uleb128 0xe
 4628 02ed D10F0000 		.4byte	.LASF71
 4629 02f1 04       		.byte	0x4
 4630 02f2 0E       		.uleb128 0xe
 4631 02f3 520B0000 		.4byte	.LASF72
 4632 02f7 05       		.byte	0x5
 4633 02f8 0E       		.uleb128 0xe
 4634 02f9 BE090000 		.4byte	.LASF73
 4635 02fd 06       		.byte	0x6
 4636 02fe 0E       		.uleb128 0xe
ARM GAS  C:\Users\Phuong\AppData\Local\Temp\ccTHzCbL.s 			page 129


 4637 02ff EA120000 		.4byte	.LASF74
 4638 0303 07       		.byte	0x7
 4639 0304 0E       		.uleb128 0xe
 4640 0305 AC030000 		.4byte	.LASF75
 4641 0309 08       		.byte	0x8
 4642 030a 0E       		.uleb128 0xe
 4643 030b 70060000 		.4byte	.LASF76
 4644 030f 09       		.byte	0x9
 4645 0310 0E       		.uleb128 0xe
 4646 0311 83040000 		.4byte	.LASF77
 4647 0315 0A       		.byte	0xa
 4648 0316 0E       		.uleb128 0xe
 4649 0317 9C030000 		.4byte	.LASF78
 4650 031b 0B       		.byte	0xb
 4651 031c 0E       		.uleb128 0xe
 4652 031d 840D0000 		.4byte	.LASF79
 4653 0321 0C       		.byte	0xc
 4654 0322 0E       		.uleb128 0xe
 4655 0323 AC120000 		.4byte	.LASF80
 4656 0327 0D       		.byte	0xd
 4657 0328 0E       		.uleb128 0xe
 4658 0329 69110000 		.4byte	.LASF81
 4659 032d 0E       		.byte	0xe
 4660 032e 0E       		.uleb128 0xe
 4661 032f 0E000000 		.4byte	.LASF82
 4662 0333 0F       		.byte	0xf
 4663 0334 0E       		.uleb128 0xe
 4664 0335 84070000 		.4byte	.LASF83
 4665 0339 10       		.byte	0x10
 4666 033a 00       		.byte	0
 4667 033b 0D       		.uleb128 0xd
 4668 033c E80F0000 		.4byte	.LASF85
 4669 0340 01       		.byte	0x1
 4670 0341 2C000000 		.4byte	0x2c
 4671 0345 0E       		.byte	0xe
 4672 0346 6B       		.byte	0x6b
 4673 0347 5E030000 		.4byte	0x35e
 4674 034b 0E       		.uleb128 0xe
 4675 034c 2D0A0000 		.4byte	.LASF86
 4676 0350 00       		.byte	0
 4677 0351 0E       		.uleb128 0xe
 4678 0352 C4000000 		.4byte	.LASF87
 4679 0356 01       		.byte	0x1
 4680 0357 0E       		.uleb128 0xe
 4681 0358 14110000 		.4byte	.LASF88
 4682 035c 02       		.byte	0x2
 4683 035d 00       		.byte	0
 4684 035e 0D       		.uleb128 0xd
 4685 035f 220F0000 		.4byte	.LASF89
 4686 0363 01       		.byte	0x1
 4687 0364 2C000000 		.4byte	0x2c
 4688 0368 0E       		.byte	0xe
 4689 0369 8F       		.byte	0x8f
 4690 036a 7B030000 		.4byte	0x37b
 4691 036e 0E       		.uleb128 0xe
 4692 036f CC0B0000 		.4byte	.LASF90
 4693 0373 00       		.byte	0
ARM GAS  C:\Users\Phuong\AppData\Local\Temp\ccTHzCbL.s 			page 130


 4694 0374 0E       		.uleb128 0xe
 4695 0375 E1080000 		.4byte	.LASF91
 4696 0379 01       		.byte	0x1
 4697 037a 00       		.byte	0
 4698 037b 06       		.uleb128 0x6
 4699 037c 04       		.byte	0x4
 4700 037d 81030000 		.4byte	0x381
 4701 0381 0B       		.uleb128 0xb
 4702 0382 35110000 		.4byte	.LASF92
 4703 0386 48       		.byte	0x48
 4704 0387 0E       		.byte	0xe
 4705 0388 E1       		.byte	0xe1
 4706 0389 7D040000 		.4byte	0x47d
 4707 038d 0C       		.uleb128 0xc
 4708 038e 8C010000 		.4byte	.LASF62
 4709 0392 0E       		.byte	0xe
 4710 0393 E3       		.byte	0xe3
 4711 0394 7B030000 		.4byte	0x37b
 4712 0398 00       		.byte	0
 4713 0399 0C       		.uleb128 0xc
 4714 039a 46130000 		.4byte	.LASF93
 4715 039e 0E       		.byte	0xe
 4716 039f E7       		.byte	0xe7
 4717 03a0 88010000 		.4byte	0x188
 4718 03a4 04       		.byte	0x4
 4719 03a5 0C       		.uleb128 0xc
 4720 03a6 CA090000 		.4byte	.LASF94
 4721 03aa 0E       		.byte	0xe
 4722 03ab E8       		.byte	0xe8
 4723 03ac 88010000 		.4byte	0x188
 4724 03b0 08       		.byte	0x8
 4725 03b1 11       		.uleb128 0x11
 4726 03b2 677700   		.ascii	"gw\000"
 4727 03b5 0E       		.byte	0xe
 4728 03b6 E9       		.byte	0xe9
 4729 03b7 88010000 		.4byte	0x188
 4730 03bb 0C       		.byte	0xc
 4731 03bc 0C       		.uleb128 0xc
 4732 03bd 6E000000 		.4byte	.LASF95
 4733 03c1 0E       		.byte	0xe
 4734 03c2 F4       		.byte	0xf4
 4735 03c3 7D040000 		.4byte	0x47d
 4736 03c7 10       		.byte	0x10
 4737 03c8 0C       		.uleb128 0xc
 4738 03c9 0C070000 		.4byte	.LASF96
 4739 03cd 0E       		.byte	0xe
 4740 03ce FA       		.byte	0xfa
 4741 03cf A2040000 		.4byte	0x4a2
 4742 03d3 14       		.byte	0x14
 4743 03d4 0C       		.uleb128 0xc
 4744 03d5 CA100000 		.4byte	.LASF97
 4745 03d9 0E       		.byte	0xe
 4746 03da FF       		.byte	0xff
 4747 03db D7040000 		.4byte	0x4d7
 4748 03df 18       		.byte	0x18
 4749 03e0 12       		.uleb128 0x12
 4750 03e1 1D0A0000 		.4byte	.LASF98
ARM GAS  C:\Users\Phuong\AppData\Local\Temp\ccTHzCbL.s 			page 131


 4751 03e5 0E       		.byte	0xe
 4752 03e6 0A01     		.2byte	0x10a
 4753 03e8 FC040000 		.4byte	0x4fc
 4754 03ec 1C       		.byte	0x1c
 4755 03ed 12       		.uleb128 0x12
 4756 03ee E6100000 		.4byte	.LASF99
 4757 03f2 0E       		.byte	0xe
 4758 03f3 1701     		.2byte	0x117
 4759 03f5 88000000 		.4byte	0x88
 4760 03f9 20       		.byte	0x20
 4761 03fa 12       		.uleb128 0x12
 4762 03fb 5C080000 		.4byte	.LASF100
 4763 03ff 0E       		.byte	0xe
 4764 0400 1901     		.2byte	0x119
 4765 0402 C3000000 		.4byte	0xc3
 4766 0406 24       		.byte	0x24
 4767 0407 12       		.uleb128 0x12
 4768 0408 B20E0000 		.4byte	.LASF101
 4769 040c 0E       		.byte	0xe
 4770 040d 2101     		.2byte	0x121
 4771 040f FF000000 		.4byte	0xff
 4772 0413 2C       		.byte	0x2c
 4773 0414 12       		.uleb128 0x12
 4774 0415 F4010000 		.4byte	.LASF102
 4775 0419 0E       		.byte	0xe
 4776 041a 2501     		.2byte	0x125
 4777 041c 98000000 		.4byte	0x98
 4778 0420 30       		.byte	0x30
 4779 0421 13       		.uleb128 0x13
 4780 0422 6D747500 		.ascii	"mtu\000"
 4781 0426 0E       		.byte	0xe
 4782 0427 2B01     		.2byte	0x12b
 4783 0429 15010000 		.4byte	0x115
 4784 042d 34       		.byte	0x34
 4785 042e 12       		.uleb128 0x12
 4786 042f 53050000 		.4byte	.LASF103
 4787 0433 0E       		.byte	0xe
 4788 0434 2D01     		.2byte	0x12d
 4789 0436 FF000000 		.4byte	0xff
 4790 043a 36       		.byte	0x36
 4791 043b 12       		.uleb128 0x12
 4792 043c DF040000 		.4byte	.LASF104
 4793 0440 0E       		.byte	0xe
 4794 0441 2F01     		.2byte	0x12f
 4795 0443 42050000 		.4byte	0x542
 4796 0447 37       		.byte	0x37
 4797 0448 12       		.uleb128 0x12
 4798 0449 00010000 		.4byte	.LASF66
 4799 044d 0E       		.byte	0xe
 4800 044e 3101     		.2byte	0x131
 4801 0450 FF000000 		.4byte	0xff
 4802 0454 3D       		.byte	0x3d
 4803 0455 12       		.uleb128 0x12
 4804 0456 820E0000 		.4byte	.LASF105
 4805 045a 0E       		.byte	0xe
 4806 045b 3301     		.2byte	0x133
 4807 045d 52050000 		.4byte	0x552
ARM GAS  C:\Users\Phuong\AppData\Local\Temp\ccTHzCbL.s 			page 132


 4808 0461 3E       		.byte	0x3e
 4809 0462 13       		.uleb128 0x13
 4810 0463 6E756D00 		.ascii	"num\000"
 4811 0467 0E       		.byte	0xe
 4812 0468 3501     		.2byte	0x135
 4813 046a FF000000 		.4byte	0xff
 4814 046e 40       		.byte	0x40
 4815 046f 12       		.uleb128 0x12
 4816 0470 86080000 		.4byte	.LASF106
 4817 0474 0E       		.byte	0xe
 4818 0475 4301     		.2byte	0x143
 4819 0477 18050000 		.4byte	0x518
 4820 047b 44       		.byte	0x44
 4821 047c 00       		.byte	0
 4822 047d 03       		.uleb128 0x3
 4823 047e 72030000 		.4byte	.LASF107
 4824 0482 0E       		.byte	0xe
 4825 0483 A2       		.byte	0xa2
 4826 0484 88040000 		.4byte	0x488
 4827 0488 06       		.uleb128 0x6
 4828 0489 04       		.byte	0x4
 4829 048a 8E040000 		.4byte	0x48e
 4830 048e 14       		.uleb128 0x14
 4831 048f 93010000 		.4byte	0x193
 4832 0493 A2040000 		.4byte	0x4a2
 4833 0497 15       		.uleb128 0x15
 4834 0498 C2020000 		.4byte	0x2c2
 4835 049c 15       		.uleb128 0x15
 4836 049d 7B030000 		.4byte	0x37b
 4837 04a1 00       		.byte	0
 4838 04a2 03       		.uleb128 0x3
 4839 04a3 72020000 		.4byte	.LASF108
 4840 04a7 0E       		.byte	0xe
 4841 04a8 AD       		.byte	0xad
 4842 04a9 AD040000 		.4byte	0x4ad
 4843 04ad 06       		.uleb128 0x6
 4844 04ae 04       		.byte	0x4
 4845 04af B3040000 		.4byte	0x4b3
 4846 04b3 14       		.uleb128 0x14
 4847 04b4 93010000 		.4byte	0x193
 4848 04b8 CC040000 		.4byte	0x4cc
 4849 04bc 15       		.uleb128 0x15
 4850 04bd 7B030000 		.4byte	0x37b
 4851 04c1 15       		.uleb128 0x15
 4852 04c2 C2020000 		.4byte	0x2c2
 4853 04c6 15       		.uleb128 0x15
 4854 04c7 CC040000 		.4byte	0x4cc
 4855 04cb 00       		.byte	0
 4856 04cc 06       		.uleb128 0x6
 4857 04cd 04       		.byte	0x4
 4858 04ce D2040000 		.4byte	0x4d2
 4859 04d2 07       		.uleb128 0x7
 4860 04d3 5A010000 		.4byte	0x15a
 4861 04d7 03       		.uleb128 0x3
 4862 04d8 9E0E0000 		.4byte	.LASF109
 4863 04dc 0E       		.byte	0xe
 4864 04dd C4       		.byte	0xc4
ARM GAS  C:\Users\Phuong\AppData\Local\Temp\ccTHzCbL.s 			page 133


 4865 04de E2040000 		.4byte	0x4e2
 4866 04e2 06       		.uleb128 0x6
 4867 04e3 04       		.byte	0x4
 4868 04e4 E8040000 		.4byte	0x4e8
 4869 04e8 14       		.uleb128 0x14
 4870 04e9 93010000 		.4byte	0x193
 4871 04ed FC040000 		.4byte	0x4fc
 4872 04f1 15       		.uleb128 0x15
 4873 04f2 7B030000 		.4byte	0x37b
 4874 04f6 15       		.uleb128 0x15
 4875 04f7 C2020000 		.4byte	0x2c2
 4876 04fb 00       		.byte	0
 4877 04fc 03       		.uleb128 0x3
 4878 04fd 57100000 		.4byte	.LASF110
 4879 0501 0E       		.byte	0xe
 4880 0502 C6       		.byte	0xc6
 4881 0503 07050000 		.4byte	0x507
 4882 0507 06       		.uleb128 0x6
 4883 0508 04       		.byte	0x4
 4884 0509 0D050000 		.4byte	0x50d
 4885 050d 16       		.uleb128 0x16
 4886 050e 18050000 		.4byte	0x518
 4887 0512 15       		.uleb128 0x15
 4888 0513 7B030000 		.4byte	0x37b
 4889 0517 00       		.byte	0
 4890 0518 03       		.uleb128 0x3
 4891 0519 8B110000 		.4byte	.LASF111
 4892 051d 0E       		.byte	0xe
 4893 051e C9       		.byte	0xc9
 4894 051f 23050000 		.4byte	0x523
 4895 0523 06       		.uleb128 0x6
 4896 0524 04       		.byte	0x4
 4897 0525 29050000 		.4byte	0x529
 4898 0529 14       		.uleb128 0x14
 4899 052a 93010000 		.4byte	0x193
 4900 052e 42050000 		.4byte	0x542
 4901 0532 15       		.uleb128 0x15
 4902 0533 7B030000 		.4byte	0x37b
 4903 0537 15       		.uleb128 0x15
 4904 0538 CC040000 		.4byte	0x4cc
 4905 053c 15       		.uleb128 0x15
 4906 053d 5E030000 		.4byte	0x35e
 4907 0541 00       		.byte	0
 4908 0542 09       		.uleb128 0x9
 4909 0543 FF000000 		.4byte	0xff
 4910 0547 52050000 		.4byte	0x552
 4911 054b 0A       		.uleb128 0xa
 4912 054c 8A000000 		.4byte	0x8a
 4913 0550 05       		.byte	0x5
 4914 0551 00       		.byte	0
 4915 0552 09       		.uleb128 0x9
 4916 0553 91000000 		.4byte	0x91
 4917 0557 62050000 		.4byte	0x562
 4918 055b 0A       		.uleb128 0xa
 4919 055c 8A000000 		.4byte	0x8a
 4920 0560 01       		.byte	0x1
 4921 0561 00       		.byte	0
ARM GAS  C:\Users\Phuong\AppData\Local\Temp\ccTHzCbL.s 			page 134


 4922 0562 0B       		.uleb128 0xb
 4923 0563 68080000 		.4byte	.LASF112
 4924 0567 10       		.byte	0x10
 4925 0568 0F       		.byte	0xf
 4926 0569 3C       		.byte	0x3c
 4927 056a 9D050000 		.4byte	0x59d
 4928 056e 11       		.uleb128 0x11
 4929 056f 7000     		.ascii	"p\000"
 4930 0571 0F       		.byte	0xf
 4931 0572 3D       		.byte	0x3d
 4932 0573 C2020000 		.4byte	0x2c2
 4933 0577 00       		.byte	0
 4934 0578 11       		.uleb128 0x11
 4935 0579 70747200 		.ascii	"ptr\000"
 4936 057d 0F       		.byte	0xf
 4937 057e 3D       		.byte	0x3d
 4938 057f C2020000 		.4byte	0x2c2
 4939 0583 04       		.byte	0x4
 4940 0584 0C       		.uleb128 0xc
 4941 0585 D5100000 		.4byte	.LASF61
 4942 0589 0F       		.byte	0xf
 4943 058a 3E       		.byte	0x3e
 4944 058b 88010000 		.4byte	0x188
 4945 058f 08       		.byte	0x8
 4946 0590 0C       		.uleb128 0xc
 4947 0591 41080000 		.4byte	.LASF113
 4948 0595 0F       		.byte	0xf
 4949 0596 3F       		.byte	0x3f
 4950 0597 15010000 		.4byte	0x115
 4951 059b 0C       		.byte	0xc
 4952 059c 00       		.byte	0
 4953 059d 0D       		.uleb128 0xd
 4954 059e 91000000 		.4byte	.LASF114
 4955 05a2 01       		.byte	0x1
 4956 05a3 2C000000 		.4byte	0x2c
 4957 05a7 10       		.byte	0x10
 4958 05a8 64       		.byte	0x64
 4959 05a9 D2050000 		.4byte	0x5d2
 4960 05ad 0E       		.uleb128 0xe
 4961 05ae 05050000 		.4byte	.LASF115
 4962 05b2 00       		.byte	0
 4963 05b3 0E       		.uleb128 0xe
 4964 05b4 77100000 		.4byte	.LASF116
 4965 05b8 10       		.byte	0x10
 4966 05b9 0E       		.uleb128 0xe
 4967 05ba AB060000 		.4byte	.LASF117
 4968 05be 20       		.byte	0x20
 4969 05bf 0E       		.uleb128 0xe
 4970 05c0 25120000 		.4byte	.LASF118
 4971 05c4 21       		.byte	0x21
 4972 05c5 0E       		.uleb128 0xe
 4973 05c6 B0010000 		.4byte	.LASF119
 4974 05ca 22       		.byte	0x22
 4975 05cb 0E       		.uleb128 0xe
 4976 05cc E1070000 		.4byte	.LASF120
 4977 05d0 40       		.byte	0x40
 4978 05d1 00       		.byte	0
ARM GAS  C:\Users\Phuong\AppData\Local\Temp\ccTHzCbL.s 			page 135


 4979 05d2 0D       		.uleb128 0xd
 4980 05d3 E5020000 		.4byte	.LASF121
 4981 05d7 01       		.byte	0x1
 4982 05d8 2C000000 		.4byte	0x2c
 4983 05dc 10       		.byte	0x10
 4984 05dd 86       		.byte	0x86
 4985 05de 01060000 		.4byte	0x601
 4986 05e2 0E       		.uleb128 0xe
 4987 05e3 880A0000 		.4byte	.LASF122
 4988 05e7 00       		.byte	0
 4989 05e8 0E       		.uleb128 0xe
 4990 05e9 B7120000 		.4byte	.LASF123
 4991 05ed 01       		.byte	0x1
 4992 05ee 0E       		.uleb128 0xe
 4993 05ef 92100000 		.4byte	.LASF124
 4994 05f3 02       		.byte	0x2
 4995 05f4 0E       		.uleb128 0xe
 4996 05f5 660C0000 		.4byte	.LASF125
 4997 05f9 03       		.byte	0x3
 4998 05fa 0E       		.uleb128 0xe
 4999 05fb D3080000 		.4byte	.LASF126
 5000 05ff 04       		.byte	0x4
 5001 0600 00       		.byte	0
 5002 0601 0D       		.uleb128 0xd
 5003 0602 930F0000 		.4byte	.LASF127
 5004 0606 01       		.byte	0x1
 5005 0607 2C000000 		.4byte	0x2c
 5006 060b 10       		.byte	0x10
 5007 060c A8       		.byte	0xa8
 5008 060d 30060000 		.4byte	0x630
 5009 0611 0E       		.uleb128 0xe
 5010 0612 F00C0000 		.4byte	.LASF128
 5011 0616 00       		.byte	0
 5012 0617 0E       		.uleb128 0xe
 5013 0618 12080000 		.4byte	.LASF129
 5014 061c 01       		.byte	0x1
 5015 061d 0E       		.uleb128 0xe
 5016 061e C1070000 		.4byte	.LASF130
 5017 0622 02       		.byte	0x2
 5018 0623 0E       		.uleb128 0xe
 5019 0624 41100000 		.4byte	.LASF131
 5020 0628 03       		.byte	0x3
 5021 0629 0E       		.uleb128 0xe
 5022 062a 91010000 		.4byte	.LASF132
 5023 062e 04       		.byte	0x4
 5024 062f 00       		.byte	0
 5025 0630 0D       		.uleb128 0xd
 5026 0631 F7120000 		.4byte	.LASF133
 5027 0635 01       		.byte	0x1
 5028 0636 2C000000 		.4byte	0x2c
 5029 063a 10       		.byte	0x10
 5030 063b B2       		.byte	0xb2
 5031 063c 4D060000 		.4byte	0x64d
 5032 0640 0E       		.uleb128 0xe
 5033 0641 B5110000 		.4byte	.LASF134
 5034 0645 00       		.byte	0
 5035 0646 0E       		.uleb128 0xe
ARM GAS  C:\Users\Phuong\AppData\Local\Temp\ccTHzCbL.s 			page 136


 5036 0647 92070000 		.4byte	.LASF135
 5037 064b 01       		.byte	0x1
 5038 064c 00       		.byte	0
 5039 064d 03       		.uleb128 0x3
 5040 064e A80F0000 		.4byte	.LASF136
 5041 0652 10       		.byte	0x10
 5042 0653 CA       		.byte	0xca
 5043 0654 58060000 		.4byte	0x658
 5044 0658 06       		.uleb128 0x6
 5045 0659 04       		.byte	0x4
 5046 065a 5E060000 		.4byte	0x65e
 5047 065e 16       		.uleb128 0x16
 5048 065f 73060000 		.4byte	0x673
 5049 0663 15       		.uleb128 0x15
 5050 0664 73060000 		.4byte	0x673
 5051 0668 15       		.uleb128 0x15
 5052 0669 01060000 		.4byte	0x601
 5053 066d 15       		.uleb128 0x15
 5054 066e 15010000 		.4byte	0x115
 5055 0672 00       		.byte	0
 5056 0673 06       		.uleb128 0x6
 5057 0674 04       		.byte	0x4
 5058 0675 79060000 		.4byte	0x679
 5059 0679 0B       		.uleb128 0xb
 5060 067a A4120000 		.4byte	.LASF137
 5061 067e 30       		.byte	0x30
 5062 067f 10       		.byte	0x10
 5063 0680 CD       		.byte	0xcd
 5064 0681 26070000 		.4byte	0x726
 5065 0685 0C       		.uleb128 0xc
 5066 0686 DE0F0000 		.4byte	.LASF65
 5067 068a 10       		.byte	0x10
 5068 068b CF       		.byte	0xcf
 5069 068c 9D050000 		.4byte	0x59d
 5070 0690 00       		.byte	0
 5071 0691 0C       		.uleb128 0xc
 5072 0692 E6100000 		.4byte	.LASF99
 5073 0696 10       		.byte	0x10
 5074 0697 D1       		.byte	0xd1
 5075 0698 D2050000 		.4byte	0x5d2
 5076 069c 01       		.byte	0x1
 5077 069d 11       		.uleb128 0x11
 5078 069e 70636200 		.ascii	"pcb\000"
 5079 06a2 10       		.byte	0x10
 5080 06a3 D8       		.byte	0xd8
 5081 06a4 26070000 		.4byte	0x726
 5082 06a8 04       		.byte	0x4
 5083 06a9 0C       		.uleb128 0xc
 5084 06aa 6A070000 		.4byte	.LASF138
 5085 06ae 10       		.byte	0x10
 5086 06af DA       		.byte	0xda
 5087 06b0 93010000 		.4byte	0x193
 5088 06b4 08       		.byte	0x8
 5089 06b5 0C       		.uleb128 0xc
 5090 06b6 76120000 		.4byte	.LASF139
 5091 06ba 10       		.byte	0x10
 5092 06bb DD       		.byte	0xdd
ARM GAS  C:\Users\Phuong\AppData\Local\Temp\ccTHzCbL.s 			page 137


 5093 06bc E9000000 		.4byte	0xe9
 5094 06c0 0C       		.byte	0xc
 5095 06c1 0C       		.uleb128 0xc
 5096 06c2 FD0B0000 		.4byte	.LASF140
 5097 06c6 10       		.byte	0x10
 5098 06c7 E1       		.byte	0xe1
 5099 06c8 F4000000 		.4byte	0xf4
 5100 06cc 10       		.byte	0x10
 5101 06cd 0C       		.uleb128 0xc
 5102 06ce 35090000 		.4byte	.LASF141
 5103 06d2 10       		.byte	0x10
 5104 06d3 E5       		.byte	0xe5
 5105 06d4 F4000000 		.4byte	0xf4
 5106 06d8 14       		.byte	0x14
 5107 06d9 0C       		.uleb128 0xc
 5108 06da 130E0000 		.4byte	.LASF142
 5109 06de 10       		.byte	0x10
 5110 06df E9       		.byte	0xe9
 5111 06e0 68000000 		.4byte	0x68
 5112 06e4 18       		.byte	0x18
 5113 06e5 0C       		.uleb128 0xc
 5114 06e6 73110000 		.4byte	.LASF143
 5115 06ea 10       		.byte	0x10
 5116 06eb F3       		.byte	0xf3
 5117 06ec 68000000 		.4byte	0x68
 5118 06f0 1C       		.byte	0x1c
 5119 06f1 12       		.uleb128 0x12
 5120 06f2 00010000 		.4byte	.LASF66
 5121 06f6 10       		.byte	0x10
 5122 06f7 0301     		.2byte	0x103
 5123 06f9 FF000000 		.4byte	0xff
 5124 06fd 20       		.byte	0x20
 5125 06fe 12       		.uleb128 0x12
 5126 06ff BD100000 		.4byte	.LASF144
 5127 0703 10       		.byte	0x10
 5128 0704 0701     		.2byte	0x107
 5129 0706 76000000 		.4byte	0x76
 5130 070a 24       		.byte	0x24
 5131 070b 12       		.uleb128 0x12
 5132 070c 780D0000 		.4byte	.LASF145
 5133 0710 10       		.byte	0x10
 5134 0711 0B01     		.2byte	0x10b
 5135 0713 E20B0000 		.4byte	0xbe2
 5136 0717 28       		.byte	0x28
 5137 0718 12       		.uleb128 0x12
 5138 0719 00110000 		.4byte	.LASF146
 5139 071d 10       		.byte	0x10
 5140 071e 0E01     		.2byte	0x10e
 5141 0720 4D060000 		.4byte	0x64d
 5142 0724 2C       		.byte	0x2c
 5143 0725 00       		.byte	0
 5144 0726 17       		.uleb128 0x17
 5145 0727 04       		.byte	0x4
 5146 0728 10       		.byte	0x10
 5147 0729 D3       		.byte	0xd3
 5148 072a 5A070000 		.4byte	0x75a
 5149 072e 18       		.uleb128 0x18
ARM GAS  C:\Users\Phuong\AppData\Local\Temp\ccTHzCbL.s 			page 138


 5150 072f 697000   		.ascii	"ip\000"
 5151 0732 10       		.byte	0x10
 5152 0733 D4       		.byte	0xd4
 5153 0734 A3070000 		.4byte	0x7a3
 5154 0738 18       		.uleb128 0x18
 5155 0739 74637000 		.ascii	"tcp\000"
 5156 073d 10       		.byte	0x10
 5157 073e D5       		.byte	0xd5
 5158 073f 7D0A0000 		.4byte	0xa7d
 5159 0743 18       		.uleb128 0x18
 5160 0744 75647000 		.ascii	"udp\000"
 5161 0748 10       		.byte	0x10
 5162 0749 D6       		.byte	0xd6
 5163 074a 2C0B0000 		.4byte	0xb2c
 5164 074e 18       		.uleb128 0x18
 5165 074f 72617700 		.ascii	"raw\000"
 5166 0753 10       		.byte	0x10
 5167 0754 D7       		.byte	0xd7
 5168 0755 AB0B0000 		.4byte	0xbab
 5169 0759 00       		.byte	0
 5170 075a 0B       		.uleb128 0xb
 5171 075b 70100000 		.4byte	.LASF147
 5172 075f 0C       		.byte	0xc
 5173 0760 11       		.byte	0x11
 5174 0761 59       		.byte	0x59
 5175 0762 A3070000 		.4byte	0x7a3
 5176 0766 0C       		.uleb128 0xc
 5177 0767 BB0D0000 		.4byte	.LASF148
 5178 076b 11       		.byte	0x11
 5179 076c 5B       		.byte	0x5b
 5180 076d 88010000 		.4byte	0x188
 5181 0771 00       		.byte	0
 5182 0772 0C       		.uleb128 0xc
 5183 0773 54120000 		.4byte	.LASF149
 5184 0777 11       		.byte	0x11
 5185 0778 5B       		.byte	0x5b
 5186 0779 88010000 		.4byte	0x188
 5187 077d 04       		.byte	0x4
 5188 077e 0C       		.uleb128 0xc
 5189 077f 57000000 		.4byte	.LASF150
 5190 0783 11       		.byte	0x11
 5191 0784 5B       		.byte	0x5b
 5192 0785 FF000000 		.4byte	0xff
 5193 0789 08       		.byte	0x8
 5194 078a 11       		.uleb128 0x11
 5195 078b 746F7300 		.ascii	"tos\000"
 5196 078f 11       		.byte	0x11
 5197 0790 5B       		.byte	0x5b
 5198 0791 FF000000 		.4byte	0xff
 5199 0795 09       		.byte	0x9
 5200 0796 11       		.uleb128 0x11
 5201 0797 74746C00 		.ascii	"ttl\000"
 5202 079b 11       		.byte	0x11
 5203 079c 5B       		.byte	0x5b
 5204 079d FF000000 		.4byte	0xff
 5205 07a1 0A       		.byte	0xa
 5206 07a2 00       		.byte	0
ARM GAS  C:\Users\Phuong\AppData\Local\Temp\ccTHzCbL.s 			page 139


 5207 07a3 06       		.uleb128 0x6
 5208 07a4 04       		.byte	0x4
 5209 07a5 5A070000 		.4byte	0x75a
 5210 07a9 0B       		.uleb128 0xb
 5211 07aa EE110000 		.4byte	.LASF151
 5212 07ae A0       		.byte	0xa0
 5213 07af 12       		.byte	0x12
 5214 07b0 C8       		.byte	0xc8
 5215 07b1 7D0A0000 		.4byte	0xa7d
 5216 07b5 0C       		.uleb128 0xc
 5217 07b6 BB0D0000 		.4byte	.LASF148
 5218 07ba 12       		.byte	0x12
 5219 07bb CA       		.byte	0xca
 5220 07bc 88010000 		.4byte	0x188
 5221 07c0 00       		.byte	0
 5222 07c1 0C       		.uleb128 0xc
 5223 07c2 54120000 		.4byte	.LASF149
 5224 07c6 12       		.byte	0x12
 5225 07c7 CA       		.byte	0xca
 5226 07c8 88010000 		.4byte	0x188
 5227 07cc 04       		.byte	0x4
 5228 07cd 0C       		.uleb128 0xc
 5229 07ce 57000000 		.4byte	.LASF150
 5230 07d2 12       		.byte	0x12
 5231 07d3 CA       		.byte	0xca
 5232 07d4 FF000000 		.4byte	0xff
 5233 07d8 08       		.byte	0x8
 5234 07d9 11       		.uleb128 0x11
 5235 07da 746F7300 		.ascii	"tos\000"
 5236 07de 12       		.byte	0x12
 5237 07df CA       		.byte	0xca
 5238 07e0 FF000000 		.4byte	0xff
 5239 07e4 09       		.byte	0x9
 5240 07e5 11       		.uleb128 0x11
 5241 07e6 74746C00 		.ascii	"ttl\000"
 5242 07ea 12       		.byte	0x12
 5243 07eb CA       		.byte	0xca
 5244 07ec FF000000 		.4byte	0xff
 5245 07f0 0A       		.byte	0xa
 5246 07f1 0C       		.uleb128 0xc
 5247 07f2 8C010000 		.4byte	.LASF62
 5248 07f6 12       		.byte	0x12
 5249 07f7 CC       		.byte	0xcc
 5250 07f8 7D0A0000 		.4byte	0xa7d
 5251 07fc 0C       		.byte	0xc
 5252 07fd 0C       		.uleb128 0xc
 5253 07fe A1100000 		.4byte	.LASF152
 5254 0802 12       		.byte	0x12
 5255 0803 CC       		.byte	0xcc
 5256 0804 88000000 		.4byte	0x88
 5257 0808 10       		.byte	0x10
 5258 0809 0C       		.uleb128 0xc
 5259 080a E6100000 		.4byte	.LASF99
 5260 080e 12       		.byte	0x12
 5261 080f CC       		.byte	0xcc
 5262 0810 D30F0000 		.4byte	0xfd3
 5263 0814 14       		.byte	0x14
ARM GAS  C:\Users\Phuong\AppData\Local\Temp\ccTHzCbL.s 			page 140


 5264 0815 0C       		.uleb128 0xc
 5265 0816 46080000 		.4byte	.LASF153
 5266 081a 12       		.byte	0x12
 5267 081b CC       		.byte	0xcc
 5268 081c FF000000 		.4byte	0xff
 5269 0820 15       		.byte	0x15
 5270 0821 0C       		.uleb128 0xc
 5271 0822 CB030000 		.4byte	.LASF154
 5272 0826 12       		.byte	0x12
 5273 0827 CC       		.byte	0xcc
 5274 0828 15010000 		.4byte	0x115
 5275 082c 16       		.byte	0x16
 5276 082d 0C       		.uleb128 0xc
 5277 082e 070B0000 		.4byte	.LASF155
 5278 0832 12       		.byte	0x12
 5279 0833 CF       		.byte	0xcf
 5280 0834 15010000 		.4byte	0x115
 5281 0838 18       		.byte	0x18
 5282 0839 0C       		.uleb128 0xc
 5283 083a 00010000 		.4byte	.LASF66
 5284 083e 12       		.byte	0x12
 5285 083f D1       		.byte	0xd1
 5286 0840 C80F0000 		.4byte	0xfc8
 5287 0844 1A       		.byte	0x1a
 5288 0845 0C       		.uleb128 0xc
 5289 0846 E6000000 		.4byte	.LASF156
 5290 084a 12       		.byte	0x12
 5291 084b E8       		.byte	0xe8
 5292 084c FF000000 		.4byte	0xff
 5293 0850 1C       		.byte	0x1c
 5294 0851 0C       		.uleb128 0xc
 5295 0852 8B020000 		.4byte	.LASF157
 5296 0856 12       		.byte	0x12
 5297 0857 E8       		.byte	0xe8
 5298 0858 FF000000 		.4byte	0xff
 5299 085c 1D       		.byte	0x1d
 5300 085d 0C       		.uleb128 0xc
 5301 085e A30D0000 		.4byte	.LASF158
 5302 0862 12       		.byte	0x12
 5303 0863 E9       		.byte	0xe9
 5304 0864 FF000000 		.4byte	0xff
 5305 0868 1E       		.byte	0x1e
 5306 0869 11       		.uleb128 0x11
 5307 086a 746D7200 		.ascii	"tmr\000"
 5308 086e 12       		.byte	0x12
 5309 086f EA       		.byte	0xea
 5310 0870 2B010000 		.4byte	0x12b
 5311 0874 20       		.byte	0x20
 5312 0875 0C       		.uleb128 0xc
 5313 0876 C90F0000 		.4byte	.LASF159
 5314 087a 12       		.byte	0x12
 5315 087b ED       		.byte	0xed
 5316 087c 2B010000 		.4byte	0x12b
 5317 0880 24       		.byte	0x24
 5318 0881 0C       		.uleb128 0xc
 5319 0882 3E0D0000 		.4byte	.LASF160
 5320 0886 12       		.byte	0x12
ARM GAS  C:\Users\Phuong\AppData\Local\Temp\ccTHzCbL.s 			page 141


 5321 0887 EE       		.byte	0xee
 5322 0888 BD0F0000 		.4byte	0xfbd
 5323 088c 28       		.byte	0x28
 5324 088d 0C       		.uleb128 0xc
 5325 088e 460B0000 		.4byte	.LASF161
 5326 0892 12       		.byte	0x12
 5327 0893 EF       		.byte	0xef
 5328 0894 BD0F0000 		.4byte	0xfbd
 5329 0898 2A       		.byte	0x2a
 5330 0899 0C       		.uleb128 0xc
 5331 089a 43020000 		.4byte	.LASF162
 5332 089e 12       		.byte	0x12
 5333 089f F0       		.byte	0xf0
 5334 08a0 2B010000 		.4byte	0x12b
 5335 08a4 2C       		.byte	0x2c
 5336 08a5 0C       		.uleb128 0xc
 5337 08a6 7B050000 		.4byte	.LASF163
 5338 08aa 12       		.byte	0x12
 5339 08ab F3       		.byte	0xf3
 5340 08ac 20010000 		.4byte	0x120
 5341 08b0 30       		.byte	0x30
 5342 08b1 11       		.uleb128 0x11
 5343 08b2 6D737300 		.ascii	"mss\000"
 5344 08b6 12       		.byte	0x12
 5345 08b7 F5       		.byte	0xf5
 5346 08b8 15010000 		.4byte	0x115
 5347 08bc 32       		.byte	0x32
 5348 08bd 0C       		.uleb128 0xc
 5349 08be 510D0000 		.4byte	.LASF164
 5350 08c2 12       		.byte	0x12
 5351 08c3 F8       		.byte	0xf8
 5352 08c4 2B010000 		.4byte	0x12b
 5353 08c8 34       		.byte	0x34
 5354 08c9 0C       		.uleb128 0xc
 5355 08ca 0C080000 		.4byte	.LASF165
 5356 08ce 12       		.byte	0x12
 5357 08cf F9       		.byte	0xf9
 5358 08d0 2B010000 		.4byte	0x12b
 5359 08d4 38       		.byte	0x38
 5360 08d5 11       		.uleb128 0x11
 5361 08d6 736100   		.ascii	"sa\000"
 5362 08d9 12       		.byte	0x12
 5363 08da FA       		.byte	0xfa
 5364 08db 20010000 		.4byte	0x120
 5365 08df 3C       		.byte	0x3c
 5366 08e0 11       		.uleb128 0x11
 5367 08e1 737600   		.ascii	"sv\000"
 5368 08e4 12       		.byte	0x12
 5369 08e5 FA       		.byte	0xfa
 5370 08e6 20010000 		.4byte	0x120
 5371 08ea 3E       		.byte	0x3e
 5372 08eb 11       		.uleb128 0x11
 5373 08ec 72746F00 		.ascii	"rto\000"
 5374 08f0 12       		.byte	0x12
 5375 08f1 FC       		.byte	0xfc
 5376 08f2 20010000 		.4byte	0x120
 5377 08f6 40       		.byte	0x40
ARM GAS  C:\Users\Phuong\AppData\Local\Temp\ccTHzCbL.s 			page 142


 5378 08f7 0C       		.uleb128 0xc
 5379 08f8 04130000 		.4byte	.LASF166
 5380 08fc 12       		.byte	0x12
 5381 08fd FD       		.byte	0xfd
 5382 08fe FF000000 		.4byte	0xff
 5383 0902 42       		.byte	0x42
 5384 0903 12       		.uleb128 0x12
 5385 0904 27080000 		.4byte	.LASF167
 5386 0908 12       		.byte	0x12
 5387 0909 0001     		.2byte	0x100
 5388 090b FF000000 		.4byte	0xff
 5389 090f 43       		.byte	0x43
 5390 0910 12       		.uleb128 0x12
 5391 0911 73070000 		.4byte	.LASF168
 5392 0915 12       		.byte	0x12
 5393 0916 0101     		.2byte	0x101
 5394 0918 2B010000 		.4byte	0x12b
 5395 091c 44       		.byte	0x44
 5396 091d 12       		.uleb128 0x12
 5397 091e 97030000 		.4byte	.LASF169
 5398 0922 12       		.byte	0x12
 5399 0923 0401     		.2byte	0x104
 5400 0925 BD0F0000 		.4byte	0xfbd
 5401 0929 48       		.byte	0x48
 5402 092a 12       		.uleb128 0x12
 5403 092b BB0E0000 		.4byte	.LASF170
 5404 092f 12       		.byte	0x12
 5405 0930 0501     		.2byte	0x105
 5406 0932 BD0F0000 		.4byte	0xfbd
 5407 0936 4A       		.byte	0x4a
 5408 0937 12       		.uleb128 0x12
 5409 0938 DB110000 		.4byte	.LASF171
 5410 093c 12       		.byte	0x12
 5411 093d 0801     		.2byte	0x108
 5412 093f 2B010000 		.4byte	0x12b
 5413 0943 4C       		.byte	0x4c
 5414 0944 12       		.uleb128 0x12
 5415 0945 06090000 		.4byte	.LASF172
 5416 0949 12       		.byte	0x12
 5417 094a 0901     		.2byte	0x109
 5418 094c 2B010000 		.4byte	0x12b
 5419 0950 50       		.byte	0x50
 5420 0951 12       		.uleb128 0x12
 5421 0952 0E090000 		.4byte	.LASF173
 5422 0956 12       		.byte	0x12
 5423 0957 0901     		.2byte	0x109
 5424 0959 2B010000 		.4byte	0x12b
 5425 095d 54       		.byte	0x54
 5426 095e 12       		.uleb128 0x12
 5427 095f 8E090000 		.4byte	.LASF174
 5428 0963 12       		.byte	0x12
 5429 0964 0B01     		.2byte	0x10b
 5430 0966 2B010000 		.4byte	0x12b
 5431 096a 58       		.byte	0x58
 5432 096b 12       		.uleb128 0x12
 5433 096c 400C0000 		.4byte	.LASF175
 5434 0970 12       		.byte	0x12
ARM GAS  C:\Users\Phuong\AppData\Local\Temp\ccTHzCbL.s 			page 143


 5435 0971 0C01     		.2byte	0x10c
 5436 0973 BD0F0000 		.4byte	0xfbd
 5437 0977 5C       		.byte	0x5c
 5438 0978 12       		.uleb128 0x12
 5439 0979 760E0000 		.4byte	.LASF176
 5440 097d 12       		.byte	0x12
 5441 097e 0D01     		.2byte	0x10d
 5442 0980 BD0F0000 		.4byte	0xfbd
 5443 0984 5E       		.byte	0x5e
 5444 0985 12       		.uleb128 0x12
 5445 0986 C40E0000 		.4byte	.LASF177
 5446 098a 12       		.byte	0x12
 5447 098b 0F01     		.2byte	0x10f
 5448 098d BD0F0000 		.4byte	0xfbd
 5449 0991 60       		.byte	0x60
 5450 0992 12       		.uleb128 0x12
 5451 0993 09130000 		.4byte	.LASF178
 5452 0997 12       		.byte	0x12
 5453 0998 1101     		.2byte	0x111
 5454 099a 15010000 		.4byte	0x115
 5455 099e 62       		.byte	0x62
 5456 099f 12       		.uleb128 0x12
 5457 09a0 DC0D0000 		.4byte	.LASF179
 5458 09a4 12       		.byte	0x12
 5459 09a5 1501     		.2byte	0x115
 5460 09a7 15010000 		.4byte	0x115
 5461 09ab 64       		.byte	0x64
 5462 09ac 12       		.uleb128 0x12
 5463 09ad C2080000 		.4byte	.LASF180
 5464 09b1 12       		.byte	0x12
 5465 09b2 1901     		.2byte	0x119
 5466 09b4 DA100000 		.4byte	0x10da
 5467 09b8 68       		.byte	0x68
 5468 09b9 12       		.uleb128 0x12
 5469 09ba 98060000 		.4byte	.LASF181
 5470 09be 12       		.byte	0x12
 5471 09bf 1A01     		.2byte	0x11a
 5472 09c1 DA100000 		.4byte	0x10da
 5473 09c5 6C       		.byte	0x6c
 5474 09c6 12       		.uleb128 0x12
 5475 09c7 920C0000 		.4byte	.LASF182
 5476 09cb 12       		.byte	0x12
 5477 09cc 1C01     		.2byte	0x11c
 5478 09ce DA100000 		.4byte	0x10da
 5479 09d2 70       		.byte	0x70
 5480 09d3 12       		.uleb128 0x12
 5481 09d4 710F0000 		.4byte	.LASF183
 5482 09d8 12       		.byte	0x12
 5483 09d9 1F01     		.2byte	0x11f
 5484 09db C2020000 		.4byte	0x2c2
 5485 09df 74       		.byte	0x74
 5486 09e0 12       		.uleb128 0x12
 5487 09e1 BB000000 		.4byte	.LASF184
 5488 09e5 12       		.byte	0x12
 5489 09e6 2201     		.2byte	0x122
 5490 09e8 CF100000 		.4byte	0x10cf
 5491 09ec 78       		.byte	0x78
ARM GAS  C:\Users\Phuong\AppData\Local\Temp\ccTHzCbL.s 			page 144


 5492 09ed 12       		.uleb128 0x12
 5493 09ee 01090000 		.4byte	.LASF185
 5494 09f2 12       		.byte	0x12
 5495 09f3 2701     		.2byte	0x127
 5496 09f5 420F0000 		.4byte	0xf42
 5497 09f9 7C       		.byte	0x7c
 5498 09fa 12       		.uleb128 0x12
 5499 09fb C2110000 		.4byte	.LASF186
 5500 09ff 12       		.byte	0x12
 5501 0a00 2901     		.2byte	0x129
 5502 0a02 130F0000 		.4byte	0xf13
 5503 0a06 80       		.byte	0x80
 5504 0a07 12       		.uleb128 0x12
 5505 0a08 13070000 		.4byte	.LASF187
 5506 0a0c 12       		.byte	0x12
 5507 0a0d 2B01     		.2byte	0x12b
 5508 0a0f B20F0000 		.4byte	0xfb2
 5509 0a13 84       		.byte	0x84
 5510 0a14 12       		.uleb128 0x12
 5511 0a15 57080000 		.4byte	.LASF188
 5512 0a19 12       		.byte	0x12
 5513 0a1a 2D01     		.2byte	0x12d
 5514 0a1c 6C0F0000 		.4byte	0xf6c
 5515 0a20 88       		.byte	0x88
 5516 0a21 12       		.uleb128 0x12
 5517 0a22 3B0C0000 		.4byte	.LASF189
 5518 0a26 12       		.byte	0x12
 5519 0a27 2F01     		.2byte	0x12f
 5520 0a29 910F0000 		.4byte	0xf91
 5521 0a2d 8C       		.byte	0x8c
 5522 0a2e 12       		.uleb128 0x12
 5523 0a2f 88100000 		.4byte	.LASF190
 5524 0a33 12       		.byte	0x12
 5525 0a34 3801     		.2byte	0x138
 5526 0a36 2B010000 		.4byte	0x12b
 5527 0a3a 90       		.byte	0x90
 5528 0a3b 12       		.uleb128 0x12
 5529 0a3c 8A120000 		.4byte	.LASF191
 5530 0a40 12       		.byte	0x12
 5531 0a41 3A01     		.2byte	0x13a
 5532 0a43 2B010000 		.4byte	0x12b
 5533 0a47 94       		.byte	0x94
 5534 0a48 12       		.uleb128 0x12
 5535 0a49 F3020000 		.4byte	.LASF192
 5536 0a4d 12       		.byte	0x12
 5537 0a4e 3B01     		.2byte	0x13b
 5538 0a50 2B010000 		.4byte	0x12b
 5539 0a54 98       		.byte	0x98
 5540 0a55 12       		.uleb128 0x12
 5541 0a56 35120000 		.4byte	.LASF193
 5542 0a5a 12       		.byte	0x12
 5543 0a5b 3F01     		.2byte	0x13f
 5544 0a5d FF000000 		.4byte	0xff
 5545 0a61 9C       		.byte	0x9c
 5546 0a62 12       		.uleb128 0x12
 5547 0a63 4F0A0000 		.4byte	.LASF194
 5548 0a67 12       		.byte	0x12
ARM GAS  C:\Users\Phuong\AppData\Local\Temp\ccTHzCbL.s 			page 145


 5549 0a68 4101     		.2byte	0x141
 5550 0a6a FF000000 		.4byte	0xff
 5551 0a6e 9D       		.byte	0x9d
 5552 0a6f 12       		.uleb128 0x12
 5553 0a70 98020000 		.4byte	.LASF195
 5554 0a74 12       		.byte	0x12
 5555 0a75 4401     		.2byte	0x144
 5556 0a77 FF000000 		.4byte	0xff
 5557 0a7b 9E       		.byte	0x9e
 5558 0a7c 00       		.byte	0
 5559 0a7d 06       		.uleb128 0x6
 5560 0a7e 04       		.byte	0x4
 5561 0a7f A9070000 		.4byte	0x7a9
 5562 0a83 0B       		.uleb128 0xb
 5563 0a84 410E0000 		.4byte	.LASF196
 5564 0a88 28       		.byte	0x28
 5565 0a89 13       		.byte	0x13
 5566 0a8a 51       		.byte	0x51
 5567 0a8b 2C0B0000 		.4byte	0xb2c
 5568 0a8f 0C       		.uleb128 0xc
 5569 0a90 BB0D0000 		.4byte	.LASF148
 5570 0a94 13       		.byte	0x13
 5571 0a95 53       		.byte	0x53
 5572 0a96 88010000 		.4byte	0x188
 5573 0a9a 00       		.byte	0
 5574 0a9b 0C       		.uleb128 0xc
 5575 0a9c 54120000 		.4byte	.LASF149
 5576 0aa0 13       		.byte	0x13
 5577 0aa1 53       		.byte	0x53
 5578 0aa2 88010000 		.4byte	0x188
 5579 0aa6 04       		.byte	0x4
 5580 0aa7 0C       		.uleb128 0xc
 5581 0aa8 57000000 		.4byte	.LASF150
 5582 0aac 13       		.byte	0x13
 5583 0aad 53       		.byte	0x53
 5584 0aae FF000000 		.4byte	0xff
 5585 0ab2 08       		.byte	0x8
 5586 0ab3 11       		.uleb128 0x11
 5587 0ab4 746F7300 		.ascii	"tos\000"
 5588 0ab8 13       		.byte	0x13
 5589 0ab9 53       		.byte	0x53
 5590 0aba FF000000 		.4byte	0xff
 5591 0abe 09       		.byte	0x9
 5592 0abf 11       		.uleb128 0x11
 5593 0ac0 74746C00 		.ascii	"ttl\000"
 5594 0ac4 13       		.byte	0x13
 5595 0ac5 53       		.byte	0x53
 5596 0ac6 FF000000 		.4byte	0xff
 5597 0aca 0A       		.byte	0xa
 5598 0acb 0C       		.uleb128 0xc
 5599 0acc 8C010000 		.4byte	.LASF62
 5600 0ad0 13       		.byte	0x13
 5601 0ad1 57       		.byte	0x57
 5602 0ad2 2C0B0000 		.4byte	0xb2c
 5603 0ad6 0C       		.byte	0xc
 5604 0ad7 0C       		.uleb128 0xc
 5605 0ad8 00010000 		.4byte	.LASF66
ARM GAS  C:\Users\Phuong\AppData\Local\Temp\ccTHzCbL.s 			page 146


 5606 0adc 13       		.byte	0x13
 5607 0add 59       		.byte	0x59
 5608 0ade FF000000 		.4byte	0xff
 5609 0ae2 10       		.byte	0x10
 5610 0ae3 0C       		.uleb128 0xc
 5611 0ae4 CB030000 		.4byte	.LASF154
 5612 0ae8 13       		.byte	0x13
 5613 0ae9 5B       		.byte	0x5b
 5614 0aea 15010000 		.4byte	0x115
 5615 0aee 12       		.byte	0x12
 5616 0aef 0C       		.uleb128 0xc
 5617 0af0 070B0000 		.4byte	.LASF155
 5618 0af4 13       		.byte	0x13
 5619 0af5 5B       		.byte	0x5b
 5620 0af6 15010000 		.4byte	0x115
 5621 0afa 14       		.byte	0x14
 5622 0afb 0C       		.uleb128 0xc
 5623 0afc 170C0000 		.4byte	.LASF197
 5624 0b00 13       		.byte	0x13
 5625 0b01 5F       		.byte	0x5f
 5626 0b02 88010000 		.4byte	0x188
 5627 0b06 18       		.byte	0x18
 5628 0b07 0C       		.uleb128 0xc
 5629 0b08 39020000 		.4byte	.LASF198
 5630 0b0c 13       		.byte	0x13
 5631 0b0d 61       		.byte	0x61
 5632 0b0e FF000000 		.4byte	0xff
 5633 0b12 1C       		.byte	0x1c
 5634 0b13 0C       		.uleb128 0xc
 5635 0b14 C2110000 		.4byte	.LASF186
 5636 0b18 13       		.byte	0x13
 5637 0b19 6A       		.byte	0x6a
 5638 0b1a B90E0000 		.4byte	0xeb9
 5639 0b1e 20       		.byte	0x20
 5640 0b1f 0C       		.uleb128 0xc
 5641 0b20 F70E0000 		.4byte	.LASF199
 5642 0b24 13       		.byte	0x13
 5643 0b25 6C       		.byte	0x6c
 5644 0b26 88000000 		.4byte	0x88
 5645 0b2a 24       		.byte	0x24
 5646 0b2b 00       		.byte	0
 5647 0b2c 06       		.uleb128 0x6
 5648 0b2d 04       		.byte	0x4
 5649 0b2e 830A0000 		.4byte	0xa83
 5650 0b32 0B       		.uleb128 0xb
 5651 0b33 51010000 		.4byte	.LASF200
 5652 0b37 1C       		.byte	0x1c
 5653 0b38 14       		.byte	0x14
 5654 0b39 47       		.byte	0x47
 5655 0b3a AB0B0000 		.4byte	0xbab
 5656 0b3e 0C       		.uleb128 0xc
 5657 0b3f BB0D0000 		.4byte	.LASF148
 5658 0b43 14       		.byte	0x14
 5659 0b44 49       		.byte	0x49
 5660 0b45 88010000 		.4byte	0x188
 5661 0b49 00       		.byte	0
 5662 0b4a 0C       		.uleb128 0xc
ARM GAS  C:\Users\Phuong\AppData\Local\Temp\ccTHzCbL.s 			page 147


 5663 0b4b 54120000 		.4byte	.LASF149
 5664 0b4f 14       		.byte	0x14
 5665 0b50 49       		.byte	0x49
 5666 0b51 88010000 		.4byte	0x188
 5667 0b55 04       		.byte	0x4
 5668 0b56 0C       		.uleb128 0xc
 5669 0b57 57000000 		.4byte	.LASF150
 5670 0b5b 14       		.byte	0x14
 5671 0b5c 49       		.byte	0x49
 5672 0b5d FF000000 		.4byte	0xff
 5673 0b61 08       		.byte	0x8
 5674 0b62 11       		.uleb128 0x11
 5675 0b63 746F7300 		.ascii	"tos\000"
 5676 0b67 14       		.byte	0x14
 5677 0b68 49       		.byte	0x49
 5678 0b69 FF000000 		.4byte	0xff
 5679 0b6d 09       		.byte	0x9
 5680 0b6e 11       		.uleb128 0x11
 5681 0b6f 74746C00 		.ascii	"ttl\000"
 5682 0b73 14       		.byte	0x14
 5683 0b74 49       		.byte	0x49
 5684 0b75 FF000000 		.4byte	0xff
 5685 0b79 0A       		.byte	0xa
 5686 0b7a 0C       		.uleb128 0xc
 5687 0b7b 8C010000 		.4byte	.LASF62
 5688 0b7f 14       		.byte	0x14
 5689 0b80 4B       		.byte	0x4b
 5690 0b81 AB0B0000 		.4byte	0xbab
 5691 0b85 0C       		.byte	0xc
 5692 0b86 0C       		.uleb128 0xc
 5693 0b87 56020000 		.4byte	.LASF201
 5694 0b8b 14       		.byte	0x14
 5695 0b8c 4D       		.byte	0x4d
 5696 0b8d FF000000 		.4byte	0xff
 5697 0b91 10       		.byte	0x10
 5698 0b92 0C       		.uleb128 0xc
 5699 0b93 C2110000 		.4byte	.LASF186
 5700 0b97 14       		.byte	0x14
 5701 0b98 50       		.byte	0x50
 5702 0b99 E0100000 		.4byte	0x10e0
 5703 0b9d 14       		.byte	0x14
 5704 0b9e 0C       		.uleb128 0xc
 5705 0b9f F70E0000 		.4byte	.LASF199
 5706 0ba3 14       		.byte	0x14
 5707 0ba4 52       		.byte	0x52
 5708 0ba5 88000000 		.4byte	0x88
 5709 0ba9 18       		.byte	0x18
 5710 0baa 00       		.byte	0
 5711 0bab 06       		.uleb128 0x6
 5712 0bac 04       		.byte	0x4
 5713 0bad 320B0000 		.4byte	0xb32
 5714 0bb1 0B       		.uleb128 0xb
 5715 0bb2 A6090000 		.4byte	.LASF202
 5716 0bb6 14       		.byte	0x14
 5717 0bb7 15       		.byte	0x15
 5718 0bb8 4F       		.byte	0x4f
 5719 0bb9 E20B0000 		.4byte	0xbe2
ARM GAS  C:\Users\Phuong\AppData\Local\Temp\ccTHzCbL.s 			page 148


 5720 0bbd 0C       		.uleb128 0xc
 5721 0bbe 7D000000 		.4byte	.LASF203
 5722 0bc2 15       		.byte	0x15
 5723 0bc3 52       		.byte	0x52
 5724 0bc4 73060000 		.4byte	0x673
 5725 0bc8 00       		.byte	0
 5726 0bc9 11       		.uleb128 0x11
 5727 0bca 65727200 		.ascii	"err\000"
 5728 0bce 15       		.byte	0x15
 5729 0bcf 54       		.byte	0x54
 5730 0bd0 93010000 		.4byte	0x193
 5731 0bd4 04       		.byte	0x4
 5732 0bd5 11       		.uleb128 0x11
 5733 0bd6 6D736700 		.ascii	"msg\000"
 5734 0bda 15       		.byte	0x15
 5735 0bdb 8D       		.byte	0x8d
 5736 0bdc 0D0D0000 		.4byte	0xd0d
 5737 0be0 08       		.byte	0x8
 5738 0be1 00       		.byte	0
 5739 0be2 06       		.uleb128 0x6
 5740 0be3 04       		.byte	0x4
 5741 0be4 B10B0000 		.4byte	0xbb1
 5742 0be8 06       		.uleb128 0x6
 5743 0be9 04       		.byte	0x4
 5744 0bea E9000000 		.4byte	0xe9
 5745 0bee 19       		.uleb128 0x19
 5746 0bef 01       		.byte	0x1
 5747 0bf0 15       		.byte	0x15
 5748 0bf1 5A       		.byte	0x5a
 5749 0bf2 030C0000 		.4byte	0xc03
 5750 0bf6 0C       		.uleb128 0xc
 5751 0bf7 BC080000 		.4byte	.LASF204
 5752 0bfb 15       		.byte	0x15
 5753 0bfc 5B       		.byte	0x5b
 5754 0bfd FF000000 		.4byte	0xff
 5755 0c01 00       		.byte	0
 5756 0c02 00       		.byte	0
 5757 0c03 19       		.uleb128 0x19
 5758 0c04 08       		.byte	0x8
 5759 0c05 15       		.byte	0x15
 5760 0c06 5E       		.byte	0x5e
 5761 0c07 240C0000 		.4byte	0xc24
 5762 0c0b 0C       		.uleb128 0xc
 5763 0c0c EE060000 		.4byte	.LASF205
 5764 0c10 15       		.byte	0x15
 5765 0c11 5F       		.byte	0x5f
 5766 0c12 240C0000 		.4byte	0xc24
 5767 0c16 00       		.byte	0
 5768 0c17 0C       		.uleb128 0xc
 5769 0c18 41080000 		.4byte	.LASF113
 5770 0c1c 15       		.byte	0x15
 5771 0c1d 60       		.byte	0x60
 5772 0c1e 15010000 		.4byte	0x115
 5773 0c22 04       		.byte	0x4
 5774 0c23 00       		.byte	0
 5775 0c24 06       		.uleb128 0x6
 5776 0c25 04       		.byte	0x4
ARM GAS  C:\Users\Phuong\AppData\Local\Temp\ccTHzCbL.s 			page 149


 5777 0c26 2A0C0000 		.4byte	0xc2a
 5778 0c2a 07       		.uleb128 0x7
 5779 0c2b 88010000 		.4byte	0x188
 5780 0c2f 19       		.uleb128 0x19
 5781 0c30 0C       		.byte	0xc
 5782 0c31 15       		.byte	0x15
 5783 0c32 63       		.byte	0x63
 5784 0c33 5C0C0000 		.4byte	0xc5c
 5785 0c37 0C       		.uleb128 0xc
 5786 0c38 EE060000 		.4byte	.LASF205
 5787 0c3c 15       		.byte	0x15
 5788 0c3d 64       		.byte	0x64
 5789 0c3e 5C0C0000 		.4byte	0xc5c
 5790 0c42 00       		.byte	0
 5791 0c43 0C       		.uleb128 0xc
 5792 0c44 41080000 		.4byte	.LASF113
 5793 0c48 15       		.byte	0x15
 5794 0c49 65       		.byte	0x65
 5795 0c4a 620C0000 		.4byte	0xc62
 5796 0c4e 04       		.byte	0x4
 5797 0c4f 0C       		.uleb128 0xc
 5798 0c50 9A0B0000 		.4byte	.LASF206
 5799 0c54 15       		.byte	0x15
 5800 0c55 66       		.byte	0x66
 5801 0c56 FF000000 		.4byte	0xff
 5802 0c5a 08       		.byte	0x8
 5803 0c5b 00       		.byte	0
 5804 0c5c 06       		.uleb128 0x6
 5805 0c5d 04       		.byte	0x4
 5806 0c5e 88010000 		.4byte	0x188
 5807 0c62 06       		.uleb128 0x6
 5808 0c63 04       		.byte	0x4
 5809 0c64 15010000 		.4byte	0x115
 5810 0c68 19       		.uleb128 0x19
 5811 0c69 0C       		.byte	0xc
 5812 0c6a 15       		.byte	0x15
 5813 0c6b 69       		.byte	0x69
 5814 0c6c 950C0000 		.4byte	0xc95
 5815 0c70 0C       		.uleb128 0xc
 5816 0c71 E10B0000 		.4byte	.LASF207
 5817 0c75 15       		.byte	0x15
 5818 0c76 6A       		.byte	0x6a
 5819 0c77 AE000000 		.4byte	0xae
 5820 0c7b 00       		.byte	0
 5821 0c7c 11       		.uleb128 0x11
 5822 0c7d 6C656E00 		.ascii	"len\000"
 5823 0c81 15       		.byte	0x15
 5824 0c82 6B       		.byte	0x6b
 5825 0c83 76000000 		.4byte	0x76
 5826 0c87 04       		.byte	0x4
 5827 0c88 0C       		.uleb128 0xc
 5828 0c89 680F0000 		.4byte	.LASF208
 5829 0c8d 15       		.byte	0x15
 5830 0c8e 6C       		.byte	0x6c
 5831 0c8f FF000000 		.4byte	0xff
 5832 0c93 08       		.byte	0x8
 5833 0c94 00       		.byte	0
ARM GAS  C:\Users\Phuong\AppData\Local\Temp\ccTHzCbL.s 			page 150


 5834 0c95 19       		.uleb128 0x19
 5835 0c96 04       		.byte	0x4
 5836 0c97 15       		.byte	0x15
 5837 0c98 72       		.byte	0x72
 5838 0c99 AA0C0000 		.4byte	0xcaa
 5839 0c9d 11       		.uleb128 0x11
 5840 0c9e 6C656E00 		.ascii	"len\000"
 5841 0ca2 15       		.byte	0x15
 5842 0ca3 73       		.byte	0x73
 5843 0ca4 2B010000 		.4byte	0x12b
 5844 0ca8 00       		.byte	0
 5845 0ca9 00       		.byte	0
 5846 0caa 19       		.uleb128 0x19
 5847 0cab 02       		.byte	0x2
 5848 0cac 15       		.byte	0x15
 5849 0cad 77       		.byte	0x77
 5850 0cae CB0C0000 		.4byte	0xccb
 5851 0cb2 0C       		.uleb128 0xc
 5852 0cb3 83100000 		.4byte	.LASF209
 5853 0cb7 15       		.byte	0x15
 5854 0cb8 78       		.byte	0x78
 5855 0cb9 FF000000 		.4byte	0xff
 5856 0cbd 00       		.byte	0
 5857 0cbe 0C       		.uleb128 0xc
 5858 0cbf 400F0000 		.4byte	.LASF210
 5859 0cc3 15       		.byte	0x15
 5860 0cc4 7C       		.byte	0x7c
 5861 0cc5 FF000000 		.4byte	0xff
 5862 0cc9 01       		.byte	0x1
 5863 0cca 00       		.byte	0
 5864 0ccb 19       		.uleb128 0x19
 5865 0ccc 0C       		.byte	0xc
 5866 0ccd 15       		.byte	0x15
 5867 0cce 82       		.byte	0x82
 5868 0ccf F80C0000 		.4byte	0xcf8
 5869 0cd3 0C       		.uleb128 0xc
 5870 0cd4 55110000 		.4byte	.LASF211
 5871 0cd8 15       		.byte	0x15
 5872 0cd9 83       		.byte	0x83
 5873 0cda 240C0000 		.4byte	0xc24
 5874 0cde 00       		.byte	0
 5875 0cdf 0C       		.uleb128 0xc
 5876 0ce0 13120000 		.4byte	.LASF212
 5877 0ce4 15       		.byte	0x15
 5878 0ce5 84       		.byte	0x84
 5879 0ce6 240C0000 		.4byte	0xc24
 5880 0cea 04       		.byte	0x4
 5881 0ceb 0C       		.uleb128 0xc
 5882 0cec 64030000 		.4byte	.LASF213
 5883 0cf0 15       		.byte	0x15
 5884 0cf1 85       		.byte	0x85
 5885 0cf2 30060000 		.4byte	0x630
 5886 0cf6 08       		.byte	0x8
 5887 0cf7 00       		.byte	0
 5888 0cf8 19       		.uleb128 0x19
 5889 0cf9 01       		.byte	0x1
 5890 0cfa 15       		.byte	0x15
ARM GAS  C:\Users\Phuong\AppData\Local\Temp\ccTHzCbL.s 			page 151


 5891 0cfb 89       		.byte	0x89
 5892 0cfc 0D0D0000 		.4byte	0xd0d
 5893 0d00 0C       		.uleb128 0xc
 5894 0d01 62070000 		.4byte	.LASF214
 5895 0d05 15       		.byte	0x15
 5896 0d06 8A       		.byte	0x8a
 5897 0d07 FF000000 		.4byte	0xff
 5898 0d0b 00       		.byte	0
 5899 0d0c 00       		.byte	0
 5900 0d0d 17       		.uleb128 0x17
 5901 0d0e 0C       		.byte	0xc
 5902 0d0f 15       		.byte	0x15
 5903 0d10 56       		.byte	0x56
 5904 0d11 6C0D0000 		.4byte	0xd6c
 5905 0d15 18       		.uleb128 0x18
 5906 0d16 6200     		.ascii	"b\000"
 5907 0d18 15       		.byte	0x15
 5908 0d19 58       		.byte	0x58
 5909 0d1a 6C0D0000 		.4byte	0xd6c
 5910 0d1e 18       		.uleb128 0x18
 5911 0d1f 6E00     		.ascii	"n\000"
 5912 0d21 15       		.byte	0x15
 5913 0d22 5C       		.byte	0x5c
 5914 0d23 EE0B0000 		.4byte	0xbee
 5915 0d27 18       		.uleb128 0x18
 5916 0d28 626300   		.ascii	"bc\000"
 5917 0d2b 15       		.byte	0x15
 5918 0d2c 61       		.byte	0x61
 5919 0d2d 030C0000 		.4byte	0xc03
 5920 0d31 18       		.uleb128 0x18
 5921 0d32 616400   		.ascii	"ad\000"
 5922 0d35 15       		.byte	0x15
 5923 0d36 67       		.byte	0x67
 5924 0d37 2F0C0000 		.4byte	0xc2f
 5925 0d3b 18       		.uleb128 0x18
 5926 0d3c 7700     		.ascii	"w\000"
 5927 0d3e 15       		.byte	0x15
 5928 0d3f 70       		.byte	0x70
 5929 0d40 680C0000 		.4byte	0xc68
 5930 0d44 18       		.uleb128 0x18
 5931 0d45 7200     		.ascii	"r\000"
 5932 0d47 15       		.byte	0x15
 5933 0d48 74       		.byte	0x74
 5934 0d49 950C0000 		.4byte	0xc95
 5935 0d4d 18       		.uleb128 0x18
 5936 0d4e 736400   		.ascii	"sd\000"
 5937 0d51 15       		.byte	0x15
 5938 0d52 7E       		.byte	0x7e
 5939 0d53 AA0C0000 		.4byte	0xcaa
 5940 0d57 18       		.uleb128 0x18
 5941 0d58 6A6C00   		.ascii	"jl\000"
 5942 0d5b 15       		.byte	0x15
 5943 0d5c 86       		.byte	0x86
 5944 0d5d CB0C0000 		.4byte	0xccb
 5945 0d61 18       		.uleb128 0x18
 5946 0d62 6C6200   		.ascii	"lb\000"
 5947 0d65 15       		.byte	0x15
ARM GAS  C:\Users\Phuong\AppData\Local\Temp\ccTHzCbL.s 			page 152


 5948 0d66 8B       		.byte	0x8b
 5949 0d67 F80C0000 		.4byte	0xcf8
 5950 0d6b 00       		.byte	0
 5951 0d6c 06       		.uleb128 0x6
 5952 0d6d 04       		.byte	0x4
 5953 0d6e 62050000 		.4byte	0x562
 5954 0d72 0B       		.uleb128 0xb
 5955 0d73 BF030000 		.4byte	.LASF215
 5956 0d77 10       		.byte	0x10
 5957 0d78 15       		.byte	0x15
 5958 0d79 9F       		.byte	0x9f
 5959 0d7a AF0D0000 		.4byte	0xdaf
 5960 0d7e 0C       		.uleb128 0xc
 5961 0d7f 820E0000 		.4byte	.LASF105
 5962 0d83 15       		.byte	0x15
 5963 0d84 A4       		.byte	0xa4
 5964 0d85 98000000 		.4byte	0x98
 5965 0d89 00       		.byte	0
 5966 0d8a 0C       		.uleb128 0xc
 5967 0d8b D5100000 		.4byte	.LASF61
 5968 0d8f 15       		.byte	0x15
 5969 0d90 A7       		.byte	0xa7
 5970 0d91 5C0C0000 		.4byte	0xc5c
 5971 0d95 04       		.byte	0x4
 5972 0d96 11       		.uleb128 0x11
 5973 0d97 73656D00 		.ascii	"sem\000"
 5974 0d9b 15       		.byte	0x15
 5975 0d9c AE       		.byte	0xae
 5976 0d9d E80B0000 		.4byte	0xbe8
 5977 0da1 08       		.byte	0x8
 5978 0da2 11       		.uleb128 0x11
 5979 0da3 65727200 		.ascii	"err\000"
 5980 0da7 15       		.byte	0x15
 5981 0da8 B0       		.byte	0xb0
 5982 0da9 AF0D0000 		.4byte	0xdaf
 5983 0dad 0C       		.byte	0xc
 5984 0dae 00       		.byte	0
 5985 0daf 06       		.uleb128 0x6
 5986 0db0 04       		.byte	0x4
 5987 0db1 93010000 		.4byte	0x193
 5988 0db5 0B       		.uleb128 0xb
 5989 0db6 05020000 		.4byte	.LASF216
 5990 0dba 04       		.byte	0x4
 5991 0dbb 16       		.byte	0x16
 5992 0dbc 35       		.byte	0x35
 5993 0dbd CE0D0000 		.4byte	0xdce
 5994 0dc1 0C       		.uleb128 0xc
 5995 0dc2 D5100000 		.4byte	.LASF61
 5996 0dc6 16       		.byte	0x16
 5997 0dc7 36       		.byte	0x36
 5998 0dc8 2B010000 		.4byte	0x12b
 5999 0dcc 00       		.byte	0
 6000 0dcd 00       		.byte	0
 6001 0dce 03       		.uleb128 0x3
 6002 0dcf 590C0000 		.4byte	.LASF217
 6003 0dd3 16       		.byte	0x16
 6004 0dd4 3D       		.byte	0x3d
ARM GAS  C:\Users\Phuong\AppData\Local\Temp\ccTHzCbL.s 			page 153


 6005 0dd5 B50D0000 		.4byte	0xdb5
 6006 0dd9 0B       		.uleb128 0xb
 6007 0dda 600E0000 		.4byte	.LASF218
 6008 0dde 14       		.byte	0x14
 6009 0ddf 16       		.byte	0x16
 6010 0de0 47       		.byte	0x47
 6011 0de1 5E0E0000 		.4byte	0xe5e
 6012 0de5 0C       		.uleb128 0xc
 6013 0de6 D00A0000 		.4byte	.LASF219
 6014 0dea 16       		.byte	0x16
 6015 0deb 49       		.byte	0x49
 6016 0dec FF000000 		.4byte	0xff
 6017 0df0 00       		.byte	0
 6018 0df1 0C       		.uleb128 0xc
 6019 0df2 000F0000 		.4byte	.LASF220
 6020 0df6 16       		.byte	0x16
 6021 0df7 4B       		.byte	0x4b
 6022 0df8 FF000000 		.4byte	0xff
 6023 0dfc 01       		.byte	0x1
 6024 0dfd 0C       		.uleb128 0xc
 6025 0dfe 95120000 		.4byte	.LASF221
 6026 0e02 16       		.byte	0x16
 6027 0e03 4D       		.byte	0x4d
 6028 0e04 15010000 		.4byte	0x115
 6029 0e08 02       		.byte	0x2
 6030 0e09 11       		.uleb128 0x11
 6031 0e0a 5F696400 		.ascii	"_id\000"
 6032 0e0e 16       		.byte	0x16
 6033 0e0f 4F       		.byte	0x4f
 6034 0e10 15010000 		.4byte	0x115
 6035 0e14 04       		.byte	0x4
 6036 0e15 0C       		.uleb128 0xc
 6037 0e16 73050000 		.4byte	.LASF222
 6038 0e1a 16       		.byte	0x16
 6039 0e1b 51       		.byte	0x51
 6040 0e1c 15010000 		.4byte	0x115
 6041 0e20 06       		.byte	0x6
 6042 0e21 0C       		.uleb128 0xc
 6043 0e22 15020000 		.4byte	.LASF223
 6044 0e26 16       		.byte	0x16
 6045 0e27 57       		.byte	0x57
 6046 0e28 FF000000 		.4byte	0xff
 6047 0e2c 08       		.byte	0x8
 6048 0e2d 0C       		.uleb128 0xc
 6049 0e2e CF060000 		.4byte	.LASF224
 6050 0e32 16       		.byte	0x16
 6051 0e33 59       		.byte	0x59
 6052 0e34 FF000000 		.4byte	0xff
 6053 0e38 09       		.byte	0x9
 6054 0e39 0C       		.uleb128 0xc
 6055 0e3a E2120000 		.4byte	.LASF225
 6056 0e3e 16       		.byte	0x16
 6057 0e3f 5B       		.byte	0x5b
 6058 0e40 15010000 		.4byte	0x115
 6059 0e44 0A       		.byte	0xa
 6060 0e45 11       		.uleb128 0x11
 6061 0e46 73726300 		.ascii	"src\000"
ARM GAS  C:\Users\Phuong\AppData\Local\Temp\ccTHzCbL.s 			page 154


 6062 0e4a 16       		.byte	0x16
 6063 0e4b 5D       		.byte	0x5d
 6064 0e4c CE0D0000 		.4byte	0xdce
 6065 0e50 0C       		.byte	0xc
 6066 0e51 0C       		.uleb128 0xc
 6067 0e52 1E130000 		.4byte	.LASF226
 6068 0e56 16       		.byte	0x16
 6069 0e57 5E       		.byte	0x5e
 6070 0e58 CE0D0000 		.4byte	0xdce
 6071 0e5c 10       		.byte	0x10
 6072 0e5d 00       		.byte	0
 6073 0e5e 0B       		.uleb128 0xb
 6074 0e5f 460D0000 		.4byte	.LASF227
 6075 0e63 18       		.byte	0x18
 6076 0e64 11       		.byte	0x11
 6077 0e65 69       		.byte	0x69
 6078 0e66 B30E0000 		.4byte	0xeb3
 6079 0e6a 0C       		.uleb128 0xc
 6080 0e6b C00C0000 		.4byte	.LASF228
 6081 0e6f 11       		.byte	0x11
 6082 0e70 6C       		.byte	0x6c
 6083 0e71 7B030000 		.4byte	0x37b
 6084 0e75 00       		.byte	0
 6085 0e76 0C       		.uleb128 0xc
 6086 0e77 A7000000 		.4byte	.LASF229
 6087 0e7b 11       		.byte	0x11
 6088 0e7c 6E       		.byte	0x6e
 6089 0e7d 7B030000 		.4byte	0x37b
 6090 0e81 04       		.byte	0x4
 6091 0e82 0C       		.uleb128 0xc
 6092 0e83 5F020000 		.4byte	.LASF230
 6093 0e87 11       		.byte	0x11
 6094 0e88 71       		.byte	0x71
 6095 0e89 B30E0000 		.4byte	0xeb3
 6096 0e8d 08       		.byte	0x8
 6097 0e8e 0C       		.uleb128 0xc
 6098 0e8f 800B0000 		.4byte	.LASF231
 6099 0e93 11       		.byte	0x11
 6100 0e94 78       		.byte	0x78
 6101 0e95 15010000 		.4byte	0x115
 6102 0e99 0C       		.byte	0xc
 6103 0e9a 0C       		.uleb128 0xc
 6104 0e9b 2F080000 		.4byte	.LASF232
 6105 0e9f 11       		.byte	0x11
 6106 0ea0 7A       		.byte	0x7a
 6107 0ea1 88010000 		.4byte	0x188
 6108 0ea5 10       		.byte	0x10
 6109 0ea6 0C       		.uleb128 0xc
 6110 0ea7 41120000 		.4byte	.LASF233
 6111 0eab 11       		.byte	0x11
 6112 0eac 7C       		.byte	0x7c
 6113 0ead 88010000 		.4byte	0x188
 6114 0eb1 14       		.byte	0x14
 6115 0eb2 00       		.byte	0
 6116 0eb3 06       		.uleb128 0x6
 6117 0eb4 04       		.byte	0x4
 6118 0eb5 D90D0000 		.4byte	0xdd9
ARM GAS  C:\Users\Phuong\AppData\Local\Temp\ccTHzCbL.s 			page 155


 6119 0eb9 03       		.uleb128 0x3
 6120 0eba DE0C0000 		.4byte	.LASF234
 6121 0ebe 13       		.byte	0x13
 6122 0ebf 4D       		.byte	0x4d
 6123 0ec0 C40E0000 		.4byte	0xec4
 6124 0ec4 06       		.uleb128 0x6
 6125 0ec5 04       		.byte	0x4
 6126 0ec6 CA0E0000 		.4byte	0xeca
 6127 0eca 16       		.uleb128 0x16
 6128 0ecb E90E0000 		.4byte	0xee9
 6129 0ecf 15       		.uleb128 0x15
 6130 0ed0 88000000 		.4byte	0x88
 6131 0ed4 15       		.uleb128 0x15
 6132 0ed5 2C0B0000 		.4byte	0xb2c
 6133 0ed9 15       		.uleb128 0x15
 6134 0eda C2020000 		.4byte	0x2c2
 6135 0ede 15       		.uleb128 0x15
 6136 0edf 240C0000 		.4byte	0xc24
 6137 0ee3 15       		.uleb128 0x15
 6138 0ee4 15010000 		.4byte	0x115
 6139 0ee8 00       		.byte	0
 6140 0ee9 03       		.uleb128 0x3
 6141 0eea 950D0000 		.4byte	.LASF235
 6142 0eee 12       		.byte	0x12
 6143 0eef 44       		.byte	0x44
 6144 0ef0 F40E0000 		.4byte	0xef4
 6145 0ef4 06       		.uleb128 0x6
 6146 0ef5 04       		.byte	0x4
 6147 0ef6 FA0E0000 		.4byte	0xefa
 6148 0efa 14       		.uleb128 0x14
 6149 0efb 93010000 		.4byte	0x193
 6150 0eff 130F0000 		.4byte	0xf13
 6151 0f03 15       		.uleb128 0x15
 6152 0f04 88000000 		.4byte	0x88
 6153 0f08 15       		.uleb128 0x15
 6154 0f09 7D0A0000 		.4byte	0xa7d
 6155 0f0d 15       		.uleb128 0x15
 6156 0f0e 93010000 		.4byte	0x193
 6157 0f12 00       		.byte	0
 6158 0f13 03       		.uleb128 0x3
 6159 0f14 740B0000 		.4byte	.LASF236
 6160 0f18 12       		.byte	0x12
 6161 0f19 50       		.byte	0x50
 6162 0f1a 1E0F0000 		.4byte	0xf1e
 6163 0f1e 06       		.uleb128 0x6
 6164 0f1f 04       		.byte	0x4
 6165 0f20 240F0000 		.4byte	0xf24
 6166 0f24 14       		.uleb128 0x14
 6167 0f25 93010000 		.4byte	0x193
 6168 0f29 420F0000 		.4byte	0xf42
 6169 0f2d 15       		.uleb128 0x15
 6170 0f2e 88000000 		.4byte	0x88
 6171 0f32 15       		.uleb128 0x15
 6172 0f33 7D0A0000 		.4byte	0xa7d
 6173 0f37 15       		.uleb128 0x15
 6174 0f38 C2020000 		.4byte	0x2c2
 6175 0f3c 15       		.uleb128 0x15
ARM GAS  C:\Users\Phuong\AppData\Local\Temp\ccTHzCbL.s 			page 156


 6176 0f3d 93010000 		.4byte	0x193
 6177 0f41 00       		.byte	0
 6178 0f42 03       		.uleb128 0x3
 6179 0f43 D9020000 		.4byte	.LASF237
 6180 0f47 12       		.byte	0x12
 6181 0f48 5E       		.byte	0x5e
 6182 0f49 4D0F0000 		.4byte	0xf4d
 6183 0f4d 06       		.uleb128 0x6
 6184 0f4e 04       		.byte	0x4
 6185 0f4f 530F0000 		.4byte	0xf53
 6186 0f53 14       		.uleb128 0x14
 6187 0f54 93010000 		.4byte	0x193
 6188 0f58 6C0F0000 		.4byte	0xf6c
 6189 0f5c 15       		.uleb128 0x15
 6190 0f5d 88000000 		.4byte	0x88
 6191 0f61 15       		.uleb128 0x15
 6192 0f62 7D0A0000 		.4byte	0xa7d
 6193 0f66 15       		.uleb128 0x15
 6194 0f67 15010000 		.4byte	0x115
 6195 0f6b 00       		.byte	0
 6196 0f6c 03       		.uleb128 0x3
 6197 0f6d F10B0000 		.4byte	.LASF238
 6198 0f71 12       		.byte	0x12
 6199 0f72 6A       		.byte	0x6a
 6200 0f73 770F0000 		.4byte	0xf77
 6201 0f77 06       		.uleb128 0x6
 6202 0f78 04       		.byte	0x4
 6203 0f79 7D0F0000 		.4byte	0xf7d
 6204 0f7d 14       		.uleb128 0x14
 6205 0f7e 93010000 		.4byte	0x193
 6206 0f82 910F0000 		.4byte	0xf91
 6207 0f86 15       		.uleb128 0x15
 6208 0f87 88000000 		.4byte	0x88
 6209 0f8b 15       		.uleb128 0x15
 6210 0f8c 7D0A0000 		.4byte	0xa7d
 6211 0f90 00       		.byte	0
 6212 0f91 03       		.uleb128 0x3
 6213 0f92 D6030000 		.4byte	.LASF239
 6214 0f96 12       		.byte	0x12
 6215 0f97 76       		.byte	0x76
 6216 0f98 9C0F0000 		.4byte	0xf9c
 6217 0f9c 06       		.uleb128 0x6
 6218 0f9d 04       		.byte	0x4
 6219 0f9e A20F0000 		.4byte	0xfa2
 6220 0fa2 16       		.uleb128 0x16
 6221 0fa3 B20F0000 		.4byte	0xfb2
 6222 0fa7 15       		.uleb128 0x15
 6223 0fa8 88000000 		.4byte	0x88
 6224 0fac 15       		.uleb128 0x15
 6225 0fad 93010000 		.4byte	0x193
 6226 0fb1 00       		.byte	0
 6227 0fb2 03       		.uleb128 0x3
 6228 0fb3 7B010000 		.4byte	.LASF240
 6229 0fb7 12       		.byte	0x12
 6230 0fb8 84       		.byte	0x84
 6231 0fb9 F40E0000 		.4byte	0xef4
 6232 0fbd 03       		.uleb128 0x3
ARM GAS  C:\Users\Phuong\AppData\Local\Temp\ccTHzCbL.s 			page 157


 6233 0fbe 7E0F0000 		.4byte	.LASF241
 6234 0fc2 12       		.byte	0x12
 6235 0fc3 91       		.byte	0x91
 6236 0fc4 15010000 		.4byte	0x115
 6237 0fc8 03       		.uleb128 0x3
 6238 0fc9 300C0000 		.4byte	.LASF242
 6239 0fcd 12       		.byte	0x12
 6240 0fce 95       		.byte	0x95
 6241 0fcf 15010000 		.4byte	0x115
 6242 0fd3 0D       		.uleb128 0xd
 6243 0fd4 3C050000 		.4byte	.LASF243
 6244 0fd8 01       		.byte	0x1
 6245 0fd9 2C000000 		.4byte	0x2c
 6246 0fdd 12       		.byte	0x12
 6247 0fde 9A       		.byte	0x9a
 6248 0fdf 26100000 		.4byte	0x1026
 6249 0fe3 0E       		.uleb128 0xe
 6250 0fe4 D70C0000 		.4byte	.LASF244
 6251 0fe8 00       		.byte	0
 6252 0fe9 0E       		.uleb128 0xe
 6253 0fea AE100000 		.4byte	.LASF245
 6254 0fee 01       		.byte	0x1
 6255 0fef 0E       		.uleb128 0xe
 6256 0ff0 EC0D0000 		.4byte	.LASF246
 6257 0ff4 02       		.byte	0x2
 6258 0ff5 0E       		.uleb128 0xe
 6259 0ff6 23130000 		.4byte	.LASF247
 6260 0ffa 03       		.byte	0x3
 6261 0ffb 0E       		.uleb128 0xe
 6262 0ffc 490E0000 		.4byte	.LASF248
 6263 1000 04       		.byte	0x4
 6264 1001 0E       		.uleb128 0xe
 6265 1002 A0060000 		.4byte	.LASF249
 6266 1006 05       		.byte	0x5
 6267 1007 0E       		.uleb128 0xe
 6268 1008 0E100000 		.4byte	.LASF250
 6269 100c 06       		.byte	0x6
 6270 100d 0E       		.uleb128 0xe
 6271 100e 96080000 		.4byte	.LASF251
 6272 1012 07       		.byte	0x7
 6273 1013 0E       		.uleb128 0xe
 6274 1014 45070000 		.4byte	.LASF252
 6275 1018 08       		.byte	0x8
 6276 1019 0E       		.uleb128 0xe
 6277 101a C6060000 		.4byte	.LASF253
 6278 101e 09       		.byte	0x9
 6279 101f 0E       		.uleb128 0xe
 6280 1020 59010000 		.4byte	.LASF254
 6281 1024 0A       		.byte	0xa
 6282 1025 00       		.byte	0
 6283 1026 0B       		.uleb128 0xb
 6284 1027 E0090000 		.4byte	.LASF255
 6285 102b 20       		.byte	0x20
 6286 102c 12       		.byte	0x12
 6287 102d B5       		.byte	0xb5
 6288 102e CF100000 		.4byte	0x10cf
 6289 1032 0C       		.uleb128 0xc
ARM GAS  C:\Users\Phuong\AppData\Local\Temp\ccTHzCbL.s 			page 158


 6290 1033 BB0D0000 		.4byte	.LASF148
 6291 1037 12       		.byte	0x12
 6292 1038 B7       		.byte	0xb7
 6293 1039 88010000 		.4byte	0x188
 6294 103d 00       		.byte	0
 6295 103e 0C       		.uleb128 0xc
 6296 103f 54120000 		.4byte	.LASF149
 6297 1043 12       		.byte	0x12
 6298 1044 B7       		.byte	0xb7
 6299 1045 88010000 		.4byte	0x188
 6300 1049 04       		.byte	0x4
 6301 104a 0C       		.uleb128 0xc
 6302 104b 57000000 		.4byte	.LASF150
 6303 104f 12       		.byte	0x12
 6304 1050 B7       		.byte	0xb7
 6305 1051 FF000000 		.4byte	0xff
 6306 1055 08       		.byte	0x8
 6307 1056 11       		.uleb128 0x11
 6308 1057 746F7300 		.ascii	"tos\000"
 6309 105b 12       		.byte	0x12
 6310 105c B7       		.byte	0xb7
 6311 105d FF000000 		.4byte	0xff
 6312 1061 09       		.byte	0x9
 6313 1062 11       		.uleb128 0x11
 6314 1063 74746C00 		.ascii	"ttl\000"
 6315 1067 12       		.byte	0x12
 6316 1068 B7       		.byte	0xb7
 6317 1069 FF000000 		.4byte	0xff
 6318 106d 0A       		.byte	0xa
 6319 106e 0C       		.uleb128 0xc
 6320 106f 8C010000 		.4byte	.LASF62
 6321 1073 12       		.byte	0x12
 6322 1074 B9       		.byte	0xb9
 6323 1075 CF100000 		.4byte	0x10cf
 6324 1079 0C       		.byte	0xc
 6325 107a 0C       		.uleb128 0xc
 6326 107b A1100000 		.4byte	.LASF152
 6327 107f 12       		.byte	0x12
 6328 1080 B9       		.byte	0xb9
 6329 1081 88000000 		.4byte	0x88
 6330 1085 10       		.byte	0x10
 6331 1086 0C       		.uleb128 0xc
 6332 1087 E6100000 		.4byte	.LASF99
 6333 108b 12       		.byte	0x12
 6334 108c B9       		.byte	0xb9
 6335 108d D30F0000 		.4byte	0xfd3
 6336 1091 14       		.byte	0x14
 6337 1092 0C       		.uleb128 0xc
 6338 1093 46080000 		.4byte	.LASF153
 6339 1097 12       		.byte	0x12
 6340 1098 B9       		.byte	0xb9
 6341 1099 FF000000 		.4byte	0xff
 6342 109d 15       		.byte	0x15
 6343 109e 0C       		.uleb128 0xc
 6344 109f CB030000 		.4byte	.LASF154
 6345 10a3 12       		.byte	0x12
 6346 10a4 B9       		.byte	0xb9
ARM GAS  C:\Users\Phuong\AppData\Local\Temp\ccTHzCbL.s 			page 159


 6347 10a5 15010000 		.4byte	0x115
 6348 10a9 16       		.byte	0x16
 6349 10aa 0C       		.uleb128 0xc
 6350 10ab 4B080000 		.4byte	.LASF256
 6351 10af 12       		.byte	0x12
 6352 10b0 BD       		.byte	0xbd
 6353 10b1 E90E0000 		.4byte	0xee9
 6354 10b5 18       		.byte	0x18
 6355 10b6 0C       		.uleb128 0xc
 6356 10b7 62070000 		.4byte	.LASF214
 6357 10bb 12       		.byte	0x12
 6358 10bc C1       		.byte	0xc1
 6359 10bd FF000000 		.4byte	0xff
 6360 10c1 1C       		.byte	0x1c
 6361 10c2 0C       		.uleb128 0xc
 6362 10c3 D6060000 		.4byte	.LASF257
 6363 10c7 12       		.byte	0x12
 6364 10c8 C2       		.byte	0xc2
 6365 10c9 FF000000 		.4byte	0xff
 6366 10cd 1D       		.byte	0x1d
 6367 10ce 00       		.byte	0
 6368 10cf 06       		.uleb128 0x6
 6369 10d0 04       		.byte	0x4
 6370 10d1 26100000 		.4byte	0x1026
 6371 10d5 1A       		.uleb128 0x1a
 6372 10d6 E6040000 		.4byte	.LASF375
 6373 10da 06       		.uleb128 0x6
 6374 10db 04       		.byte	0x4
 6375 10dc D5100000 		.4byte	0x10d5
 6376 10e0 03       		.uleb128 0x3
 6377 10e1 A00A0000 		.4byte	.LASF258
 6378 10e5 14       		.byte	0x14
 6379 10e6 43       		.byte	0x43
 6380 10e7 EB100000 		.4byte	0x10eb
 6381 10eb 06       		.uleb128 0x6
 6382 10ec 04       		.byte	0x4
 6383 10ed F1100000 		.4byte	0x10f1
 6384 10f1 14       		.uleb128 0x14
 6385 10f2 FF000000 		.4byte	0xff
 6386 10f6 0F110000 		.4byte	0x110f
 6387 10fa 15       		.uleb128 0x15
 6388 10fb 88000000 		.4byte	0x88
 6389 10ff 15       		.uleb128 0x15
 6390 1100 AB0B0000 		.4byte	0xbab
 6391 1104 15       		.uleb128 0x15
 6392 1105 C2020000 		.4byte	0x2c2
 6393 1109 15       		.uleb128 0x15
 6394 110a 240C0000 		.4byte	0xc24
 6395 110e 00       		.byte	0
 6396 110f 1B       		.uleb128 0x1b
 6397 1110 B7040000 		.4byte	.LASF259
 6398 1114 01       		.byte	0x1
 6399 1115 7307     		.2byte	0x773
 6400 1117 00000000 		.4byte	.LFB81
 6401 111b 22000000 		.4byte	.LFE81-.LFB81
 6402 111f 01       		.uleb128 0x1
 6403 1120 9C       		.byte	0x9c
ARM GAS  C:\Users\Phuong\AppData\Local\Temp\ccTHzCbL.s 			page 160


 6404 1121 6F110000 		.4byte	0x116f
 6405 1125 1C       		.uleb128 0x1c
 6406 1126 820E0000 		.4byte	.LASF105
 6407 112a 01       		.byte	0x1
 6408 112b 7307     		.2byte	0x773
 6409 112d 98000000 		.4byte	0x98
 6410 1131 00000000 		.4byte	.LLST0
 6411 1135 1C       		.uleb128 0x1c
 6412 1136 EE060000 		.4byte	.LASF205
 6413 113a 01       		.byte	0x1
 6414 113b 7307     		.2byte	0x773
 6415 113d 240C0000 		.4byte	0xc24
 6416 1141 21000000 		.4byte	.LLST1
 6417 1145 1D       		.uleb128 0x1d
 6418 1146 61726700 		.ascii	"arg\000"
 6419 114a 01       		.byte	0x1
 6420 114b 7307     		.2byte	0x773
 6421 114d 88000000 		.4byte	0x88
 6422 1151 5B000000 		.4byte	.LLST2
 6423 1155 1E       		.uleb128 0x1e
 6424 1156 6D736700 		.ascii	"msg\000"
 6425 115a 01       		.byte	0x1
 6426 115b 7507     		.2byte	0x775
 6427 115d 6F110000 		.4byte	0x116f
 6428 1161 7C000000 		.4byte	.LLST3
 6429 1165 1F       		.uleb128 0x1f
 6430 1166 20000000 		.4byte	.LVL6
 6431 116a 6B2C0000 		.4byte	0x2c6b
 6432 116e 00       		.byte	0
 6433 116f 06       		.uleb128 0x6
 6434 1170 04       		.byte	0x4
 6435 1171 720D0000 		.4byte	0xd72
 6436 1175 20       		.uleb128 0x20
 6437 1176 A0070000 		.4byte	.LASF260
 6438 117a 01       		.byte	0x1
 6439 117b A6       		.byte	0xa6
 6440 117c 00000000 		.4byte	.LFB54
 6441 1180 94000000 		.4byte	.LFE54-.LFB54
 6442 1184 01       		.uleb128 0x1
 6443 1185 9C       		.byte	0x9c
 6444 1186 B8120000 		.4byte	0x12b8
 6445 118a 21       		.uleb128 0x21
 6446 118b 61726700 		.ascii	"arg\000"
 6447 118f 01       		.byte	0x1
 6448 1190 A6       		.byte	0xa6
 6449 1191 88000000 		.4byte	0x88
 6450 1195 9D000000 		.4byte	.LLST4
 6451 1199 21       		.uleb128 0x21
 6452 119a 70636200 		.ascii	"pcb\000"
 6453 119e 01       		.byte	0x1
 6454 119f A6       		.byte	0xa6
 6455 11a0 2C0B0000 		.4byte	0xb2c
 6456 11a4 DF000000 		.4byte	.LLST5
 6457 11a8 21       		.uleb128 0x21
 6458 11a9 7000     		.ascii	"p\000"
 6459 11ab 01       		.byte	0x1
 6460 11ac A6       		.byte	0xa6
ARM GAS  C:\Users\Phuong\AppData\Local\Temp\ccTHzCbL.s 			page 161


 6461 11ad C2020000 		.4byte	0x2c2
 6462 11b1 19010000 		.4byte	.LLST6
 6463 11b5 22       		.uleb128 0x22
 6464 11b6 D5100000 		.4byte	.LASF61
 6465 11ba 01       		.byte	0x1
 6466 11bb A7       		.byte	0xa7
 6467 11bc 240C0000 		.4byte	0xc24
 6468 11c0 73010000 		.4byte	.LLST7
 6469 11c4 22       		.uleb128 0x22
 6470 11c5 41080000 		.4byte	.LASF113
 6471 11c9 01       		.byte	0x1
 6472 11ca A7       		.byte	0xa7
 6473 11cb 15010000 		.4byte	0x115
 6474 11cf CB010000 		.4byte	.LLST8
 6475 11d3 23       		.uleb128 0x23
 6476 11d4 62756600 		.ascii	"buf\000"
 6477 11d8 01       		.byte	0x1
 6478 11d9 A9       		.byte	0xa9
 6479 11da 6C0D0000 		.4byte	0xd6c
 6480 11de F7010000 		.4byte	.LLST9
 6481 11e2 24       		.uleb128 0x24
 6482 11e3 7D000000 		.4byte	.LASF203
 6483 11e7 01       		.byte	0x1
 6484 11e8 AA       		.byte	0xaa
 6485 11e9 73060000 		.4byte	0x673
 6486 11ed 2B020000 		.4byte	.LLST10
 6487 11f1 23       		.uleb128 0x23
 6488 11f2 6C656E00 		.ascii	"len\000"
 6489 11f6 01       		.byte	0x1
 6490 11f7 AB       		.byte	0xab
 6491 11f8 15010000 		.4byte	0x115
 6492 11fc 6D020000 		.4byte	.LLST11
 6493 1200 25       		.uleb128 0x25
 6494 1201 1E000000 		.4byte	.LVL12
 6495 1205 762C0000 		.4byte	0x2c76
 6496 1209 14120000 		.4byte	0x1214
 6497 120d 26       		.uleb128 0x26
 6498 120e 01       		.uleb128 0x1
 6499 120f 50       		.byte	0x50
 6500 1210 02       		.uleb128 0x2
 6501 1211 76       		.byte	0x76
 6502 1212 00       		.sleb128 0
 6503 1213 00       		.byte	0
 6504 1214 25       		.uleb128 0x25
 6505 1215 2A000000 		.4byte	.LVL15
 6506 1219 812C0000 		.4byte	0x2c81
 6507 121d 28120000 		.4byte	0x1228
 6508 1221 26       		.uleb128 0x26
 6509 1222 01       		.uleb128 0x1
 6510 1223 50       		.byte	0x50
 6511 1224 02       		.uleb128 0x2
 6512 1225 77       		.byte	0x77
 6513 1226 00       		.sleb128 0
 6514 1227 00       		.byte	0
 6515 1228 25       		.uleb128 0x25
 6516 1229 34000000 		.4byte	.LVL16
 6517 122d 762C0000 		.4byte	0x2c76
ARM GAS  C:\Users\Phuong\AppData\Local\Temp\ccTHzCbL.s 			page 162


 6518 1231 3C120000 		.4byte	0x123c
 6519 1235 26       		.uleb128 0x26
 6520 1236 01       		.uleb128 0x1
 6521 1237 50       		.byte	0x50
 6522 1238 02       		.uleb128 0x2
 6523 1239 76       		.byte	0x76
 6524 123a 00       		.sleb128 0
 6525 123b 00       		.byte	0
 6526 123c 25       		.uleb128 0x25
 6527 123d 40000000 		.4byte	.LVL17
 6528 1241 8D2C0000 		.4byte	0x2c8d
 6529 1245 5E120000 		.4byte	0x125e
 6530 1249 26       		.uleb128 0x26
 6531 124a 01       		.uleb128 0x1
 6532 124b 50       		.byte	0x50
 6533 124c 01       		.uleb128 0x1
 6534 124d 36       		.byte	0x36
 6535 124e 26       		.uleb128 0x26
 6536 124f 01       		.uleb128 0x1
 6537 1250 51       		.byte	0x51
 6538 1251 05       		.uleb128 0x5
 6539 1252 03       		.byte	0x3
 6540 1253 00000000 		.4byte	.LC0
 6541 1257 26       		.uleb128 0x26
 6542 1258 01       		.uleb128 0x1
 6543 1259 52       		.byte	0x52
 6544 125a 02       		.uleb128 0x2
 6545 125b 08       		.byte	0x8
 6546 125c C7       		.byte	0xc7
 6547 125d 00       		.byte	0
 6548 125e 25       		.uleb128 0x25
 6549 125f 4A000000 		.4byte	.LVL20
 6550 1263 762C0000 		.4byte	0x2c76
 6551 1267 72120000 		.4byte	0x1272
 6552 126b 26       		.uleb128 0x26
 6553 126c 01       		.uleb128 0x1
 6554 126d 50       		.byte	0x50
 6555 126e 02       		.uleb128 0x2
 6556 126f 76       		.byte	0x76
 6557 1270 00       		.sleb128 0
 6558 1271 00       		.byte	0
 6559 1272 25       		.uleb128 0x25
 6560 1273 6C000000 		.4byte	.LVL28
 6561 1277 982C0000 		.4byte	0x2c98
 6562 127b 8C120000 		.4byte	0x128c
 6563 127f 26       		.uleb128 0x26
 6564 1280 01       		.uleb128 0x1
 6565 1281 50       		.byte	0x50
 6566 1282 02       		.uleb128 0x2
 6567 1283 77       		.byte	0x77
 6568 1284 00       		.sleb128 0
 6569 1285 26       		.uleb128 0x26
 6570 1286 01       		.uleb128 0x1
 6571 1287 51       		.byte	0x51
 6572 1288 02       		.uleb128 0x2
 6573 1289 74       		.byte	0x74
 6574 128a 00       		.sleb128 0
ARM GAS  C:\Users\Phuong\AppData\Local\Temp\ccTHzCbL.s 			page 163


 6575 128b 00       		.byte	0
 6576 128c 25       		.uleb128 0x25
 6577 128d 76000000 		.4byte	.LVL29
 6578 1291 A42C0000 		.4byte	0x2ca4
 6579 1295 A0120000 		.4byte	0x12a0
 6580 1299 26       		.uleb128 0x26
 6581 129a 01       		.uleb128 0x1
 6582 129b 50       		.byte	0x50
 6583 129c 02       		.uleb128 0x2
 6584 129d 74       		.byte	0x74
 6585 129e 00       		.sleb128 0
 6586 129f 00       		.byte	0
 6587 12a0 27       		.uleb128 0x27
 6588 12a1 86000000 		.4byte	.LVL30
 6589 12a5 26       		.uleb128 0x26
 6590 12a6 01       		.uleb128 0x1
 6591 12a7 50       		.byte	0x50
 6592 12a8 02       		.uleb128 0x2
 6593 12a9 75       		.byte	0x75
 6594 12aa 00       		.sleb128 0
 6595 12ab 26       		.uleb128 0x26
 6596 12ac 01       		.uleb128 0x1
 6597 12ad 51       		.byte	0x51
 6598 12ae 01       		.uleb128 0x1
 6599 12af 30       		.byte	0x30
 6600 12b0 26       		.uleb128 0x26
 6601 12b1 01       		.uleb128 0x1
 6602 12b2 52       		.byte	0x52
 6603 12b3 02       		.uleb128 0x2
 6604 12b4 76       		.byte	0x76
 6605 12b5 00       		.sleb128 0
 6606 12b6 00       		.byte	0
 6607 12b7 00       		.byte	0
 6608 12b8 28       		.uleb128 0x28
 6609 12b9 74080000 		.4byte	.LASF264
 6610 12bd 01       		.byte	0x1
 6611 12be 64       		.byte	0x64
 6612 12bf FF000000 		.4byte	0xff
 6613 12c3 00000000 		.4byte	.LFB53
 6614 12c7 98000000 		.4byte	.LFE53-.LFB53
 6615 12cb 01       		.uleb128 0x1
 6616 12cc 9C       		.byte	0x9c
 6617 12cd 25140000 		.4byte	0x1425
 6618 12d1 21       		.uleb128 0x21
 6619 12d2 61726700 		.ascii	"arg\000"
 6620 12d6 01       		.byte	0x1
 6621 12d7 64       		.byte	0x64
 6622 12d8 88000000 		.4byte	0x88
 6623 12dc 80020000 		.4byte	.LLST12
 6624 12e0 21       		.uleb128 0x21
 6625 12e1 70636200 		.ascii	"pcb\000"
 6626 12e5 01       		.byte	0x1
 6627 12e6 64       		.byte	0x64
 6628 12e7 AB0B0000 		.4byte	0xbab
 6629 12eb AC020000 		.4byte	.LLST13
 6630 12ef 21       		.uleb128 0x21
 6631 12f0 7000     		.ascii	"p\000"
ARM GAS  C:\Users\Phuong\AppData\Local\Temp\ccTHzCbL.s 			page 164


 6632 12f2 01       		.byte	0x1
 6633 12f3 64       		.byte	0x64
 6634 12f4 C2020000 		.4byte	0x2c2
 6635 12f8 CB020000 		.4byte	.LLST14
 6636 12fc 22       		.uleb128 0x22
 6637 12fd D5100000 		.4byte	.LASF61
 6638 1301 01       		.byte	0x1
 6639 1302 65       		.byte	0x65
 6640 1303 240C0000 		.4byte	0xc24
 6641 1307 F7020000 		.4byte	.LLST15
 6642 130b 23       		.uleb128 0x23
 6643 130c 7100     		.ascii	"q\000"
 6644 130e 01       		.byte	0x1
 6645 130f 67       		.byte	0x67
 6646 1310 C2020000 		.4byte	0x2c2
 6647 1314 18030000 		.4byte	.LLST16
 6648 1318 23       		.uleb128 0x23
 6649 1319 62756600 		.ascii	"buf\000"
 6650 131d 01       		.byte	0x1
 6651 131e 68       		.byte	0x68
 6652 131f 6C0D0000 		.4byte	0xd6c
 6653 1323 65030000 		.4byte	.LLST17
 6654 1327 24       		.uleb128 0x24
 6655 1328 7D000000 		.4byte	.LASF203
 6656 132c 01       		.byte	0x1
 6657 132d 69       		.byte	0x69
 6658 132e 73060000 		.4byte	0x673
 6659 1332 99030000 		.4byte	.LLST18
 6660 1336 29       		.uleb128 0x29
 6661 1337 40000000 		.4byte	.LBB2
 6662 133b 4A000000 		.4byte	.LBE2-.LBB2
 6663 133f CE130000 		.4byte	0x13ce
 6664 1343 23       		.uleb128 0x23
 6665 1344 6C656E00 		.ascii	"len\000"
 6666 1348 01       		.byte	0x1
 6667 1349 80       		.byte	0x80
 6668 134a 15010000 		.4byte	0x115
 6669 134e C5030000 		.4byte	.LLST19
 6670 1352 25       		.uleb128 0x25
 6671 1353 4A000000 		.4byte	.LVL42
 6672 1357 8D2C0000 		.4byte	0x2c8d
 6673 135b 74130000 		.4byte	0x1374
 6674 135f 26       		.uleb128 0x26
 6675 1360 01       		.uleb128 0x1
 6676 1361 50       		.byte	0x50
 6677 1362 01       		.uleb128 0x1
 6678 1363 36       		.byte	0x36
 6679 1364 26       		.uleb128 0x26
 6680 1365 01       		.uleb128 0x1
 6681 1366 51       		.byte	0x51
 6682 1367 05       		.uleb128 0x5
 6683 1368 03       		.byte	0x3
 6684 1369 00000000 		.4byte	.LC0
 6685 136d 26       		.uleb128 0x26
 6686 136e 01       		.uleb128 0x1
 6687 136f 52       		.byte	0x52
 6688 1370 02       		.uleb128 0x2
ARM GAS  C:\Users\Phuong\AppData\Local\Temp\ccTHzCbL.s 			page 165


 6689 1371 08       		.byte	0x8
 6690 1372 81       		.byte	0x81
 6691 1373 00       		.byte	0
 6692 1374 25       		.uleb128 0x25
 6693 1375 54000000 		.4byte	.LVL45
 6694 1379 762C0000 		.4byte	0x2c76
 6695 137d 88130000 		.4byte	0x1388
 6696 1381 26       		.uleb128 0x26
 6697 1382 01       		.uleb128 0x1
 6698 1383 50       		.byte	0x50
 6699 1384 02       		.uleb128 0x2
 6700 1385 75       		.byte	0x75
 6701 1386 00       		.sleb128 0
 6702 1387 00       		.byte	0
 6703 1388 25       		.uleb128 0x25
 6704 1389 70000000 		.4byte	.LVL49
 6705 138d 982C0000 		.4byte	0x2c98
 6706 1391 A2130000 		.4byte	0x13a2
 6707 1395 26       		.uleb128 0x26
 6708 1396 01       		.uleb128 0x1
 6709 1397 50       		.byte	0x50
 6710 1398 02       		.uleb128 0x2
 6711 1399 77       		.byte	0x77
 6712 139a 00       		.sleb128 0
 6713 139b 26       		.uleb128 0x26
 6714 139c 01       		.uleb128 0x1
 6715 139d 51       		.byte	0x51
 6716 139e 02       		.uleb128 0x2
 6717 139f 76       		.byte	0x76
 6718 13a0 00       		.sleb128 0
 6719 13a1 00       		.byte	0
 6720 13a2 25       		.uleb128 0x25
 6721 13a3 7A000000 		.4byte	.LVL50
 6722 13a7 A42C0000 		.4byte	0x2ca4
 6723 13ab B6130000 		.4byte	0x13b6
 6724 13af 26       		.uleb128 0x26
 6725 13b0 01       		.uleb128 0x1
 6726 13b1 50       		.byte	0x50
 6727 13b2 02       		.uleb128 0x2
 6728 13b3 76       		.byte	0x76
 6729 13b4 00       		.sleb128 0
 6730 13b5 00       		.byte	0
 6731 13b6 27       		.uleb128 0x27
 6732 13b7 8A000000 		.4byte	.LVL51
 6733 13bb 26       		.uleb128 0x26
 6734 13bc 01       		.uleb128 0x1
 6735 13bd 50       		.byte	0x50
 6736 13be 02       		.uleb128 0x2
 6737 13bf 74       		.byte	0x74
 6738 13c0 00       		.sleb128 0
 6739 13c1 26       		.uleb128 0x26
 6740 13c2 01       		.uleb128 0x1
 6741 13c3 51       		.byte	0x51
 6742 13c4 01       		.uleb128 0x1
 6743 13c5 30       		.byte	0x30
 6744 13c6 26       		.uleb128 0x26
 6745 13c7 01       		.uleb128 0x1
ARM GAS  C:\Users\Phuong\AppData\Local\Temp\ccTHzCbL.s 			page 166


 6746 13c8 52       		.byte	0x52
 6747 13c9 02       		.uleb128 0x2
 6748 13ca 75       		.byte	0x75
 6749 13cb 00       		.sleb128 0
 6750 13cc 00       		.byte	0
 6751 13cd 00       		.byte	0
 6752 13ce 25       		.uleb128 0x25
 6753 13cf 18000000 		.4byte	.LVL36
 6754 13d3 812C0000 		.4byte	0x2c81
 6755 13d7 E2130000 		.4byte	0x13e2
 6756 13db 26       		.uleb128 0x26
 6757 13dc 01       		.uleb128 0x1
 6758 13dd 50       		.byte	0x50
 6759 13de 02       		.uleb128 0x2
 6760 13df 77       		.byte	0x77
 6761 13e0 00       		.sleb128 0
 6762 13e1 00       		.byte	0
 6763 13e2 25       		.uleb128 0x25
 6764 13e3 26000000 		.4byte	.LVL37
 6765 13e7 AF2C0000 		.4byte	0x2caf
 6766 13eb FA130000 		.4byte	0x13fa
 6767 13ef 26       		.uleb128 0x26
 6768 13f0 01       		.uleb128 0x1
 6769 13f1 50       		.byte	0x50
 6770 13f2 01       		.uleb128 0x1
 6771 13f3 34       		.byte	0x34
 6772 13f4 26       		.uleb128 0x26
 6773 13f5 01       		.uleb128 0x1
 6774 13f6 52       		.byte	0x52
 6775 13f7 01       		.uleb128 0x1
 6776 13f8 30       		.byte	0x30
 6777 13f9 00       		.byte	0
 6778 13fa 25       		.uleb128 0x25
 6779 13fb 30000000 		.4byte	.LVL39
 6780 13ff BA2C0000 		.4byte	0x2cba
 6781 1403 14140000 		.4byte	0x1414
 6782 1407 26       		.uleb128 0x26
 6783 1408 01       		.uleb128 0x1
 6784 1409 50       		.byte	0x50
 6785 140a 02       		.uleb128 0x2
 6786 140b 75       		.byte	0x75
 6787 140c 00       		.sleb128 0
 6788 140d 26       		.uleb128 0x26
 6789 140e 01       		.uleb128 0x1
 6790 140f 51       		.byte	0x51
 6791 1410 02       		.uleb128 0x2
 6792 1411 76       		.byte	0x76
 6793 1412 00       		.sleb128 0
 6794 1413 00       		.byte	0
 6795 1414 2A       		.uleb128 0x2a
 6796 1415 3A000000 		.4byte	.LVL40
 6797 1419 762C0000 		.4byte	0x2c76
 6798 141d 26       		.uleb128 0x26
 6799 141e 01       		.uleb128 0x1
 6800 141f 50       		.byte	0x50
 6801 1420 02       		.uleb128 0x2
 6802 1421 75       		.byte	0x75
ARM GAS  C:\Users\Phuong\AppData\Local\Temp\ccTHzCbL.s 			page 167


 6803 1422 00       		.sleb128 0
 6804 1423 00       		.byte	0
 6805 1424 00       		.byte	0
 6806 1425 1B       		.uleb128 0x1b
 6807 1426 FD0A0000 		.4byte	.LASF261
 6808 142a 01       		.byte	0x1
 6809 142b C801     		.2byte	0x1c8
 6810 142d 00000000 		.4byte	.LFB59
 6811 1431 40000000 		.4byte	.LFE59-.LFB59
 6812 1435 01       		.uleb128 0x1
 6813 1436 9C       		.byte	0x9c
 6814 1437 EC140000 		.4byte	0x14ec
 6815 143b 1C       		.uleb128 0x1c
 6816 143c 7D000000 		.4byte	.LASF203
 6817 1440 01       		.byte	0x1
 6818 1441 C801     		.2byte	0x1c8
 6819 1443 73060000 		.4byte	0x673
 6820 1447 D8030000 		.4byte	.LLST20
 6821 144b 1E       		.uleb128 0x1e
 6822 144c 70636200 		.ascii	"pcb\000"
 6823 1450 01       		.byte	0x1
 6824 1451 CA01     		.2byte	0x1ca
 6825 1453 7D0A0000 		.4byte	0xa7d
 6826 1457 04040000 		.4byte	.LLST21
 6827 145b 25       		.uleb128 0x25
 6828 145c 0C000000 		.4byte	.LVL56
 6829 1460 C52C0000 		.4byte	0x2cc5
 6830 1464 76140000 		.4byte	0x1476
 6831 1468 26       		.uleb128 0x26
 6832 1469 01       		.uleb128 0x1
 6833 146a 50       		.byte	0x50
 6834 146b 02       		.uleb128 0x2
 6835 146c 74       		.byte	0x74
 6836 146d 00       		.sleb128 0
 6837 146e 26       		.uleb128 0x26
 6838 146f 01       		.uleb128 0x1
 6839 1470 51       		.byte	0x51
 6840 1471 03       		.uleb128 0x3
 6841 1472 F3       		.byte	0xf3
 6842 1473 01       		.uleb128 0x1
 6843 1474 50       		.byte	0x50
 6844 1475 00       		.byte	0
 6845 1476 25       		.uleb128 0x25
 6846 1477 14000000 		.4byte	.LVL57
 6847 147b D12C0000 		.4byte	0x2cd1
 6848 147f 93140000 		.4byte	0x1493
 6849 1483 26       		.uleb128 0x26
 6850 1484 01       		.uleb128 0x1
 6851 1485 50       		.byte	0x50
 6852 1486 02       		.uleb128 0x2
 6853 1487 74       		.byte	0x74
 6854 1488 00       		.sleb128 0
 6855 1489 26       		.uleb128 0x26
 6856 148a 01       		.uleb128 0x1
 6857 148b 51       		.byte	0x51
 6858 148c 05       		.uleb128 0x5
 6859 148d 03       		.byte	0x3
ARM GAS  C:\Users\Phuong\AppData\Local\Temp\ccTHzCbL.s 			page 168


 6860 148e 00000000 		.4byte	recv_tcp
 6861 1492 00       		.byte	0
 6862 1493 25       		.uleb128 0x25
 6863 1494 1C000000 		.4byte	.LVL58
 6864 1498 DD2C0000 		.4byte	0x2cdd
 6865 149c B0140000 		.4byte	0x14b0
 6866 14a0 26       		.uleb128 0x26
 6867 14a1 01       		.uleb128 0x1
 6868 14a2 50       		.byte	0x50
 6869 14a3 02       		.uleb128 0x2
 6870 14a4 74       		.byte	0x74
 6871 14a5 00       		.sleb128 0
 6872 14a6 26       		.uleb128 0x26
 6873 14a7 01       		.uleb128 0x1
 6874 14a8 51       		.byte	0x51
 6875 14a9 05       		.uleb128 0x5
 6876 14aa 03       		.byte	0x3
 6877 14ab 00000000 		.4byte	sent_tcp
 6878 14af 00       		.byte	0
 6879 14b0 25       		.uleb128 0x25
 6880 14b1 26000000 		.4byte	.LVL59
 6881 14b5 E92C0000 		.4byte	0x2ce9
 6882 14b9 D2140000 		.4byte	0x14d2
 6883 14bd 26       		.uleb128 0x26
 6884 14be 01       		.uleb128 0x1
 6885 14bf 50       		.byte	0x50
 6886 14c0 02       		.uleb128 0x2
 6887 14c1 74       		.byte	0x74
 6888 14c2 00       		.sleb128 0
 6889 14c3 26       		.uleb128 0x26
 6890 14c4 01       		.uleb128 0x1
 6891 14c5 51       		.byte	0x51
 6892 14c6 05       		.uleb128 0x5
 6893 14c7 03       		.byte	0x3
 6894 14c8 00000000 		.4byte	poll_tcp
 6895 14cc 26       		.uleb128 0x26
 6896 14cd 01       		.uleb128 0x1
 6897 14ce 52       		.byte	0x52
 6898 14cf 01       		.uleb128 0x1
 6899 14d0 32       		.byte	0x32
 6900 14d1 00       		.byte	0
 6901 14d2 2A       		.uleb128 0x2a
 6902 14d3 2E000000 		.4byte	.LVL60
 6903 14d7 F52C0000 		.4byte	0x2cf5
 6904 14db 26       		.uleb128 0x26
 6905 14dc 01       		.uleb128 0x1
 6906 14dd 50       		.byte	0x50
 6907 14de 02       		.uleb128 0x2
 6908 14df 74       		.byte	0x74
 6909 14e0 00       		.sleb128 0
 6910 14e1 26       		.uleb128 0x26
 6911 14e2 01       		.uleb128 0x1
 6912 14e3 51       		.byte	0x51
 6913 14e4 05       		.uleb128 0x5
 6914 14e5 03       		.byte	0x3
 6915 14e6 00000000 		.4byte	err_tcp
 6916 14ea 00       		.byte	0
ARM GAS  C:\Users\Phuong\AppData\Local\Temp\ccTHzCbL.s 			page 169


 6917 14eb 00       		.byte	0
 6918 14ec 1B       		.uleb128 0x1b
 6919 14ed 23000000 		.4byte	.LASF262
 6920 14f1 01       		.byte	0x1
 6921 14f2 2802     		.2byte	0x228
 6922 14f4 00000000 		.4byte	.LFB61
 6923 14f8 8C000000 		.4byte	.LFE61-.LFB61
 6924 14fc 01       		.uleb128 0x1
 6925 14fd 9C       		.byte	0x9c
 6926 14fe 90150000 		.4byte	0x1590
 6927 1502 1D       		.uleb128 0x1d
 6928 1503 6D736700 		.ascii	"msg\000"
 6929 1507 01       		.byte	0x1
 6930 1508 2802     		.2byte	0x228
 6931 150a E20B0000 		.4byte	0xbe2
 6932 150e 17040000 		.4byte	.LLST22
 6933 1512 2B       		.uleb128 0x2b
 6934 1513 ED070000 		.4byte	.LASF263
 6935 1517 01       		.byte	0x1
 6936 1518 2A02     		.2byte	0x22a
 6937 151a 65010000 		.4byte	0x165
 6938 151e 00       		.byte	0
 6939 151f 25       		.uleb128 0x25
 6940 1520 22000000 		.4byte	.LVL65
 6941 1524 012D0000 		.4byte	0x2d01
 6942 1528 32150000 		.4byte	0x1532
 6943 152c 26       		.uleb128 0x26
 6944 152d 01       		.uleb128 0x1
 6945 152e 50       		.byte	0x50
 6946 152f 01       		.uleb128 0x1
 6947 1530 30       		.byte	0x30
 6948 1531 00       		.byte	0
 6949 1532 25       		.uleb128 0x25
 6950 1533 32000000 		.4byte	.LVL66
 6951 1537 0C2D0000 		.4byte	0x2d0c
 6952 153b 49150000 		.4byte	0x1549
 6953 153f 26       		.uleb128 0x26
 6954 1540 01       		.uleb128 0x1
 6955 1541 51       		.byte	0x51
 6956 1542 05       		.uleb128 0x5
 6957 1543 03       		.byte	0x3
 6958 1544 00000000 		.4byte	recv_raw
 6959 1548 00       		.byte	0
 6960 1549 25       		.uleb128 0x25
 6961 154a 3A000000 		.4byte	.LVL69
 6962 154e 172D0000 		.4byte	0x2d17
 6963 1552 5C150000 		.4byte	0x155c
 6964 1556 26       		.uleb128 0x26
 6965 1557 01       		.uleb128 0x1
 6966 1558 50       		.byte	0x50
 6967 1559 01       		.uleb128 0x1
 6968 155a 30       		.byte	0x30
 6969 155b 00       		.byte	0
 6970 155c 25       		.uleb128 0x25
 6971 155d 58000000 		.4byte	.LVL70
 6972 1561 222D0000 		.4byte	0x2d22
 6973 1565 73150000 		.4byte	0x1573
ARM GAS  C:\Users\Phuong\AppData\Local\Temp\ccTHzCbL.s 			page 170


 6974 1569 26       		.uleb128 0x26
 6975 156a 01       		.uleb128 0x1
 6976 156b 51       		.byte	0x51
 6977 156c 05       		.uleb128 0x5
 6978 156d 03       		.byte	0x3
 6979 156e 00000000 		.4byte	recv_udp
 6980 1572 00       		.byte	0
 6981 1573 25       		.uleb128 0x25
 6982 1574 60000000 		.4byte	.LVL73
 6983 1578 2D2D0000 		.4byte	0x2d2d
 6984 157c 86150000 		.4byte	0x1586
 6985 1580 26       		.uleb128 0x26
 6986 1581 01       		.uleb128 0x1
 6987 1582 50       		.byte	0x50
 6988 1583 01       		.uleb128 0x1
 6989 1584 30       		.byte	0x30
 6990 1585 00       		.byte	0
 6991 1586 1F       		.uleb128 0x1f
 6992 1587 6E000000 		.4byte	.LVL74
 6993 158b 25140000 		.4byte	0x1425
 6994 158f 00       		.byte	0
 6995 1590 2C       		.uleb128 0x2c
 6996 1591 2C130000 		.4byte	.LASF265
 6997 1595 01       		.byte	0x1
 6998 1596 8A04     		.2byte	0x48a
 6999 1598 93010000 		.4byte	0x193
 7000 159c 00000000 		.4byte	.LFB69
 7001 15a0 7E000000 		.4byte	.LFE69-.LFB69
 7002 15a4 01       		.uleb128 0x1
 7003 15a5 9C       		.byte	0x9c
 7004 15a6 79160000 		.4byte	0x1679
 7005 15aa 1D       		.uleb128 0x1d
 7006 15ab 61726700 		.ascii	"arg\000"
 7007 15af 01       		.byte	0x1
 7008 15b0 8A04     		.2byte	0x48a
 7009 15b2 88000000 		.4byte	0x88
 7010 15b6 85040000 		.4byte	.LLST23
 7011 15ba 1D       		.uleb128 0x1d
 7012 15bb 70636200 		.ascii	"pcb\000"
 7013 15bf 01       		.byte	0x1
 7014 15c0 8A04     		.2byte	0x48a
 7015 15c2 7D0A0000 		.4byte	0xa7d
 7016 15c6 C7040000 		.4byte	.LLST24
 7017 15ca 1D       		.uleb128 0x1d
 7018 15cb 65727200 		.ascii	"err\000"
 7019 15cf 01       		.byte	0x1
 7020 15d0 8A04     		.2byte	0x48a
 7021 15d2 93010000 		.4byte	0x193
 7022 15d6 01050000 		.4byte	.LLST25
 7023 15da 2D       		.uleb128 0x2d
 7024 15db 7D000000 		.4byte	.LASF203
 7025 15df 01       		.byte	0x1
 7026 15e0 8C04     		.2byte	0x48c
 7027 15e2 73060000 		.4byte	0x673
 7028 15e6 3B050000 		.4byte	.LLST26
 7029 15ea 2D       		.uleb128 0x2d
 7030 15eb A1080000 		.4byte	.LASF266
ARM GAS  C:\Users\Phuong\AppData\Local\Temp\ccTHzCbL.s 			page 171


 7031 15ef 01       		.byte	0x1
 7032 15f0 8D04     		.2byte	0x48d
 7033 15f2 68000000 		.4byte	0x68
 7034 15f6 7D050000 		.4byte	.LLST27
 7035 15fa 2D       		.uleb128 0x2d
 7036 15fb 280B0000 		.4byte	.LASF267
 7037 15ff 01       		.byte	0x1
 7038 1600 8E04     		.2byte	0x48e
 7039 1602 E80B0000 		.4byte	0xbe8
 7040 1606 AD050000 		.4byte	.LLST28
 7041 160a 29       		.uleb128 0x29
 7042 160b 44000000 		.4byte	.LBB3
 7043 160f 14000000 		.4byte	.LBE3-.LBB3
 7044 1613 3A160000 		.4byte	0x163a
 7045 1617 2D       		.uleb128 0x2d
 7046 1618 28100000 		.4byte	.LASF268
 7047 161c 01       		.byte	0x1
 7048 161d AA04     		.2byte	0x4aa
 7049 161f 36010000 		.4byte	0x136
 7050 1623 FA050000 		.4byte	.LLST29
 7051 1627 1F       		.uleb128 0x1f
 7052 1628 48000000 		.4byte	.LVL87
 7053 162c 392D0000 		.4byte	0x2d39
 7054 1630 1F       		.uleb128 0x1f
 7055 1631 58000000 		.4byte	.LVL88
 7056 1635 452D0000 		.4byte	0x2d45
 7057 1639 00       		.byte	0
 7058 163a 25       		.uleb128 0x25
 7059 163b 2C000000 		.4byte	.LVL85
 7060 163f 25140000 		.4byte	0x1425
 7061 1643 4E160000 		.4byte	0x164e
 7062 1647 26       		.uleb128 0x26
 7063 1648 01       		.uleb128 0x1
 7064 1649 50       		.byte	0x50
 7065 164a 02       		.uleb128 0x2
 7066 164b 74       		.byte	0x74
 7067 164c 00       		.sleb128 0
 7068 164d 00       		.byte	0
 7069 164e 2E       		.uleb128 0x2e
 7070 164f 66000000 		.4byte	.LVL89
 7071 1653 68160000 		.4byte	0x1668
 7072 1657 26       		.uleb128 0x26
 7073 1658 01       		.uleb128 0x1
 7074 1659 50       		.byte	0x50
 7075 165a 02       		.uleb128 0x2
 7076 165b 74       		.byte	0x74
 7077 165c 00       		.sleb128 0
 7078 165d 26       		.uleb128 0x26
 7079 165e 01       		.uleb128 0x1
 7080 165f 51       		.byte	0x51
 7081 1660 01       		.uleb128 0x1
 7082 1661 32       		.byte	0x32
 7083 1662 26       		.uleb128 0x26
 7084 1663 01       		.uleb128 0x1
 7085 1664 52       		.byte	0x52
 7086 1665 01       		.uleb128 0x1
 7087 1666 30       		.byte	0x30
ARM GAS  C:\Users\Phuong\AppData\Local\Temp\ccTHzCbL.s 			page 172


 7088 1667 00       		.byte	0
 7089 1668 2A       		.uleb128 0x2a
 7090 1669 70000000 		.4byte	.LVL90
 7091 166d 6B2C0000 		.4byte	0x2c6b
 7092 1671 26       		.uleb128 0x26
 7093 1672 01       		.uleb128 0x1
 7094 1673 50       		.byte	0x50
 7095 1674 02       		.uleb128 0x2
 7096 1675 76       		.byte	0x76
 7097 1676 00       		.sleb128 0
 7098 1677 00       		.byte	0
 7099 1678 00       		.byte	0
 7100 1679 1B       		.uleb128 0x1b
 7101 167a 5F0A0000 		.4byte	.LASF269
 7102 167e 01       		.byte	0x1
 7103 167f 7E01     		.2byte	0x17e
 7104 1681 00000000 		.4byte	.LFB58
 7105 1685 E0000000 		.4byte	.LFE58-.LFB58
 7106 1689 01       		.uleb128 0x1
 7107 168a 9C       		.byte	0x9c
 7108 168b 60180000 		.4byte	0x1860
 7109 168f 1D       		.uleb128 0x1d
 7110 1690 61726700 		.ascii	"arg\000"
 7111 1694 01       		.byte	0x1
 7112 1695 7E01     		.2byte	0x17e
 7113 1697 88000000 		.4byte	0x88
 7114 169b 0D060000 		.4byte	.LLST30
 7115 169f 1D       		.uleb128 0x1d
 7116 16a0 65727200 		.ascii	"err\000"
 7117 16a4 01       		.byte	0x1
 7118 16a5 7E01     		.2byte	0x17e
 7119 16a7 93010000 		.4byte	0x193
 7120 16ab 72060000 		.4byte	.LLST31
 7121 16af 2D       		.uleb128 0x2d
 7122 16b0 7D000000 		.4byte	.LASF203
 7123 16b4 01       		.byte	0x1
 7124 16b5 8001     		.2byte	0x180
 7125 16b7 73060000 		.4byte	0x673
 7126 16bb C1060000 		.4byte	.LLST32
 7127 16bf 2D       		.uleb128 0x2d
 7128 16c0 C9080000 		.4byte	.LASF270
 7129 16c4 01       		.byte	0x1
 7130 16c5 8101     		.2byte	0x181
 7131 16c7 D2050000 		.4byte	0x5d2
 7132 16cb 26070000 		.4byte	.LLST33
 7133 16cf 29       		.uleb128 0x29
 7134 16d0 16000000 		.4byte	.LBB4
 7135 16d4 14000000 		.4byte	.LBE4-.LBB4
 7136 16d8 FF160000 		.4byte	0x16ff
 7137 16dc 2D       		.uleb128 0x2d
 7138 16dd 28100000 		.4byte	.LASF268
 7139 16e1 01       		.byte	0x1
 7140 16e2 8F01     		.2byte	0x18f
 7141 16e4 36010000 		.4byte	0x136
 7142 16e8 39070000 		.4byte	.LLST34
 7143 16ec 1F       		.uleb128 0x1f
 7144 16ed 1A000000 		.4byte	.LVL100
ARM GAS  C:\Users\Phuong\AppData\Local\Temp\ccTHzCbL.s 			page 173


 7145 16f1 392D0000 		.4byte	0x2d39
 7146 16f5 1F       		.uleb128 0x1f
 7147 16f6 2A000000 		.4byte	.LVL101
 7148 16fa 452D0000 		.4byte	0x2d45
 7149 16fe 00       		.byte	0
 7150 16ff 29       		.uleb128 0x29
 7151 1700 2E000000 		.4byte	.LBB5
 7152 1704 0C000000 		.4byte	.LBE5-.LBB5
 7153 1708 2F170000 		.4byte	0x172f
 7154 170c 2D       		.uleb128 0x2d
 7155 170d 610B0000 		.4byte	.LASF271
 7156 1711 01       		.byte	0x1
 7157 1712 9201     		.2byte	0x192
 7158 1714 36010000 		.4byte	0x136
 7159 1718 4C070000 		.4byte	.LLST35
 7160 171c 1F       		.uleb128 0x1f
 7161 171d 32000000 		.4byte	.LVL103
 7162 1721 392D0000 		.4byte	0x2d39
 7163 1725 1F       		.uleb128 0x1f
 7164 1726 38000000 		.4byte	.LVL104
 7165 172a 452D0000 		.4byte	0x2d45
 7166 172e 00       		.byte	0
 7167 172f 29       		.uleb128 0x29
 7168 1730 9E000000 		.4byte	.LBB6
 7169 1734 40000000 		.4byte	.LBE6-.LBB6
 7170 1738 BB170000 		.4byte	0x17bb
 7171 173c 2D       		.uleb128 0x2d
 7172 173d B40B0000 		.4byte	.LASF272
 7173 1741 01       		.byte	0x1
 7174 1742 AD01     		.2byte	0x1ad
 7175 1744 68000000 		.4byte	0x68
 7176 1748 5F070000 		.4byte	.LLST36
 7177 174c 2F       		.uleb128 0x2f
 7178 174d AE000000 		.4byte	.LBB7
 7179 1751 30000000 		.4byte	.LBE7-.LBB7
 7180 1755 2D       		.uleb128 0x2d
 7181 1756 280B0000 		.4byte	.LASF267
 7182 175a 01       		.byte	0x1
 7183 175b B101     		.2byte	0x1b1
 7184 175d E80B0000 		.4byte	0xbe8
 7185 1761 7D070000 		.4byte	.LLST37
 7186 1765 29       		.uleb128 0x29
 7187 1766 C6000000 		.4byte	.LBB8
 7188 176a 12000000 		.4byte	.LBE8-.LBB8
 7189 176e 95170000 		.4byte	0x1795
 7190 1772 2D       		.uleb128 0x2d
 7191 1773 28100000 		.4byte	.LASF268
 7192 1777 01       		.byte	0x1
 7193 1778 B901     		.2byte	0x1b9
 7194 177a 36010000 		.4byte	0x136
 7195 177e 90070000 		.4byte	.LLST38
 7196 1782 1F       		.uleb128 0x1f
 7197 1783 CA000000 		.4byte	.LVL119
 7198 1787 392D0000 		.4byte	0x2d39
 7199 178b 1F       		.uleb128 0x1f
 7200 178c D8000000 		.4byte	.LVL120
 7201 1790 452D0000 		.4byte	0x2d45
ARM GAS  C:\Users\Phuong\AppData\Local\Temp\ccTHzCbL.s 			page 174


 7202 1794 00       		.byte	0
 7203 1795 25       		.uleb128 0x25
 7204 1796 BE000000 		.4byte	.LVL118
 7205 179a 512D0000 		.4byte	0x2d51
 7206 179e A9170000 		.4byte	0x17a9
 7207 17a2 26       		.uleb128 0x26
 7208 17a3 01       		.uleb128 0x1
 7209 17a4 50       		.byte	0x50
 7210 17a5 02       		.uleb128 0x2
 7211 17a6 75       		.byte	0x75
 7212 17a7 00       		.sleb128 0
 7213 17a8 00       		.byte	0
 7214 17a9 2A       		.uleb128 0x2a
 7215 17aa DE000000 		.4byte	.LVL121
 7216 17ae 6B2C0000 		.4byte	0x2c6b
 7217 17b2 26       		.uleb128 0x26
 7218 17b3 01       		.uleb128 0x1
 7219 17b4 50       		.byte	0x50
 7220 17b5 02       		.uleb128 0x2
 7221 17b6 75       		.byte	0x75
 7222 17b7 00       		.sleb128 0
 7223 17b8 00       		.byte	0
 7224 17b9 00       		.byte	0
 7225 17ba 00       		.byte	0
 7226 17bb 2E       		.uleb128 0x2e
 7227 17bc 4A000000 		.4byte	.LVL107
 7228 17c0 D5170000 		.4byte	0x17d5
 7229 17c4 26       		.uleb128 0x26
 7230 17c5 01       		.uleb128 0x1
 7231 17c6 50       		.byte	0x50
 7232 17c7 02       		.uleb128 0x2
 7233 17c8 74       		.byte	0x74
 7234 17c9 00       		.sleb128 0
 7235 17ca 26       		.uleb128 0x26
 7236 17cb 01       		.uleb128 0x1
 7237 17cc 51       		.byte	0x51
 7238 17cd 01       		.uleb128 0x1
 7239 17ce 34       		.byte	0x34
 7240 17cf 26       		.uleb128 0x26
 7241 17d0 01       		.uleb128 0x1
 7242 17d1 52       		.byte	0x52
 7243 17d2 01       		.uleb128 0x1
 7244 17d3 30       		.byte	0x30
 7245 17d4 00       		.byte	0
 7246 17d5 2E       		.uleb128 0x2e
 7247 17d6 58000000 		.4byte	.LVL108
 7248 17da EF170000 		.4byte	0x17ef
 7249 17de 26       		.uleb128 0x26
 7250 17df 01       		.uleb128 0x1
 7251 17e0 50       		.byte	0x50
 7252 17e1 02       		.uleb128 0x2
 7253 17e2 74       		.byte	0x74
 7254 17e3 00       		.sleb128 0
 7255 17e4 26       		.uleb128 0x26
 7256 17e5 01       		.uleb128 0x1
 7257 17e6 51       		.byte	0x51
 7258 17e7 01       		.uleb128 0x1
ARM GAS  C:\Users\Phuong\AppData\Local\Temp\ccTHzCbL.s 			page 175


 7259 17e8 30       		.byte	0x30
 7260 17e9 26       		.uleb128 0x26
 7261 17ea 01       		.uleb128 0x1
 7262 17eb 52       		.byte	0x52
 7263 17ec 01       		.uleb128 0x1
 7264 17ed 30       		.byte	0x30
 7265 17ee 00       		.byte	0
 7266 17ef 2E       		.uleb128 0x2e
 7267 17f0 66000000 		.4byte	.LVL109
 7268 17f4 09180000 		.4byte	0x1809
 7269 17f8 26       		.uleb128 0x26
 7270 17f9 01       		.uleb128 0x1
 7271 17fa 50       		.byte	0x50
 7272 17fb 02       		.uleb128 0x2
 7273 17fc 74       		.byte	0x74
 7274 17fd 00       		.sleb128 0
 7275 17fe 26       		.uleb128 0x26
 7276 17ff 01       		.uleb128 0x1
 7277 1800 51       		.byte	0x51
 7278 1801 01       		.uleb128 0x1
 7279 1802 32       		.byte	0x32
 7280 1803 26       		.uleb128 0x26
 7281 1804 01       		.uleb128 0x1
 7282 1805 52       		.byte	0x52
 7283 1806 01       		.uleb128 0x1
 7284 1807 30       		.byte	0x30
 7285 1808 00       		.byte	0
 7286 1809 25       		.uleb128 0x25
 7287 180a 70000000 		.4byte	.LVL110
 7288 180e 812C0000 		.4byte	0x2c81
 7289 1812 1D180000 		.4byte	0x181d
 7290 1816 26       		.uleb128 0x26
 7291 1817 01       		.uleb128 0x1
 7292 1818 50       		.byte	0x50
 7293 1819 02       		.uleb128 0x2
 7294 181a 77       		.byte	0x77
 7295 181b 00       		.sleb128 0
 7296 181c 00       		.byte	0
 7297 181d 25       		.uleb128 0x25
 7298 181e 7C000000 		.4byte	.LVL111
 7299 1822 982C0000 		.4byte	0x2c98
 7300 1826 36180000 		.4byte	0x1836
 7301 182a 26       		.uleb128 0x26
 7302 182b 01       		.uleb128 0x1
 7303 182c 50       		.byte	0x50
 7304 182d 02       		.uleb128 0x2
 7305 182e 77       		.byte	0x77
 7306 182f 00       		.sleb128 0
 7307 1830 26       		.uleb128 0x26
 7308 1831 01       		.uleb128 0x1
 7309 1832 51       		.byte	0x51
 7310 1833 01       		.uleb128 0x1
 7311 1834 30       		.byte	0x30
 7312 1835 00       		.byte	0
 7313 1836 25       		.uleb128 0x25
 7314 1837 86000000 		.4byte	.LVL112
 7315 183b 812C0000 		.4byte	0x2c81
ARM GAS  C:\Users\Phuong\AppData\Local\Temp\ccTHzCbL.s 			page 176


 7316 183f 4A180000 		.4byte	0x184a
 7317 1843 26       		.uleb128 0x26
 7318 1844 01       		.uleb128 0x1
 7319 1845 50       		.byte	0x50
 7320 1846 02       		.uleb128 0x2
 7321 1847 77       		.byte	0x77
 7322 1848 00       		.sleb128 0
 7323 1849 00       		.byte	0
 7324 184a 2A       		.uleb128 0x2a
 7325 184b 92000000 		.4byte	.LVL113
 7326 184f 982C0000 		.4byte	0x2c98
 7327 1853 26       		.uleb128 0x26
 7328 1854 01       		.uleb128 0x1
 7329 1855 50       		.byte	0x50
 7330 1856 02       		.uleb128 0x2
 7331 1857 77       		.byte	0x77
 7332 1858 00       		.sleb128 0
 7333 1859 26       		.uleb128 0x26
 7334 185a 01       		.uleb128 0x1
 7335 185b 51       		.byte	0x51
 7336 185c 01       		.uleb128 0x1
 7337 185d 30       		.byte	0x30
 7338 185e 00       		.byte	0
 7339 185f 00       		.byte	0
 7340 1860 2C       		.uleb128 0x2c
 7341 1861 A6020000 		.4byte	.LASF273
 7342 1865 01       		.byte	0x1
 7343 1866 D905     		.2byte	0x5d9
 7344 1868 93010000 		.4byte	0x193
 7345 186c 00000000 		.4byte	.LFB76
 7346 1870 74010000 		.4byte	.LFE76-.LFB76
 7347 1874 01       		.uleb128 0x1
 7348 1875 9C       		.byte	0x9c
 7349 1876 051A0000 		.4byte	0x1a05
 7350 187a 1C       		.uleb128 0x1c
 7351 187b 7D000000 		.4byte	.LASF203
 7352 187f 01       		.byte	0x1
 7353 1880 D905     		.2byte	0x5d9
 7354 1882 73060000 		.4byte	0x673
 7355 1886 A3070000 		.4byte	.LLST39
 7356 188a 1E       		.uleb128 0x1e
 7357 188b 65727200 		.ascii	"err\000"
 7358 188f 01       		.byte	0x1
 7359 1890 DB05     		.2byte	0x5db
 7360 1892 93010000 		.4byte	0x193
 7361 1896 CF070000 		.4byte	.LLST40
 7362 189a 2D       		.uleb128 0x2d
 7363 189b E10B0000 		.4byte	.LASF207
 7364 189f 01       		.byte	0x1
 7365 18a0 DC05     		.2byte	0x5dc
 7366 18a2 AE000000 		.4byte	0xae
 7367 18a6 31080000 		.4byte	.LLST41
 7368 18aa 1E       		.uleb128 0x1e
 7369 18ab 6C656E00 		.ascii	"len\000"
 7370 18af 01       		.byte	0x1
 7371 18b0 DD05     		.2byte	0x5dd
 7372 18b2 15010000 		.4byte	0x115
ARM GAS  C:\Users\Phuong\AppData\Local\Temp\ccTHzCbL.s 			page 177


 7373 18b6 4F080000 		.4byte	.LLST42
 7374 18ba 2D       		.uleb128 0x2d
 7375 18bb 220D0000 		.4byte	.LASF274
 7376 18bf 01       		.byte	0x1
 7377 18c0 DD05     		.2byte	0x5dd
 7378 18c2 15010000 		.4byte	0x115
 7379 18c6 9B080000 		.4byte	.LLST43
 7380 18ca 2D       		.uleb128 0x2d
 7381 18cb 7F090000 		.4byte	.LASF275
 7382 18cf 01       		.byte	0x1
 7383 18d0 DE05     		.2byte	0x5de
 7384 18d2 FF000000 		.4byte	0xff
 7385 18d6 C6080000 		.4byte	.LLST44
 7386 18da 2D       		.uleb128 0x2d
 7387 18db 730D0000 		.4byte	.LASF276
 7388 18df 01       		.byte	0x1
 7389 18e0 DF05     		.2byte	0x5df
 7390 18e2 76000000 		.4byte	0x76
 7391 18e6 50090000 		.4byte	.LLST45
 7392 18ea 2D       		.uleb128 0x2d
 7393 18eb 870E0000 		.4byte	.LASF277
 7394 18ef 01       		.byte	0x1
 7395 18f0 E005     		.2byte	0x5e0
 7396 18f2 FF000000 		.4byte	0xff
 7397 18f6 C0090000 		.4byte	.LLST46
 7398 18fa 2D       		.uleb128 0x2d
 7399 18fb 680F0000 		.4byte	.LASF208
 7400 18ff 01       		.byte	0x1
 7401 1900 E105     		.2byte	0x5e1
 7402 1902 FF000000 		.4byte	0xff
 7403 1906 0A0A0000 		.4byte	.LLST47
 7404 190a 30       		.uleb128 0x30
 7405 190b B5100000 		.4byte	.LASF289
 7406 190f 01       		.byte	0x1
 7407 1910 1706     		.2byte	0x617
 7408 1912 70000000 		.4byte	.L65
 7409 1916 31       		.uleb128 0x31
 7410 1917 00000000 		.4byte	.Ldebug_ranges0+0
 7411 191b 39190000 		.4byte	0x1939
 7412 191f 2D       		.uleb128 0x2d
 7413 1920 8F030000 		.4byte	.LASF278
 7414 1924 01       		.byte	0x1
 7415 1925 2606     		.2byte	0x626
 7416 1927 93010000 		.4byte	0x193
 7417 192b 4D0A0000 		.4byte	.LLST48
 7418 192f 1F       		.uleb128 0x1f
 7419 1930 DE000000 		.4byte	.LVL157
 7420 1934 5C2D0000 		.4byte	0x2d5c
 7421 1938 00       		.byte	0
 7422 1939 29       		.uleb128 0x29
 7423 193a FA000000 		.4byte	.LBB11
 7424 193e 30000000 		.4byte	.LBE11-.LBB11
 7425 1942 60190000 		.4byte	0x1960
 7426 1946 2D       		.uleb128 0x2d
 7427 1947 8F030000 		.4byte	.LASF278
 7428 194b 01       		.byte	0x1
 7429 194c 3E06     		.2byte	0x63e
ARM GAS  C:\Users\Phuong\AppData\Local\Temp\ccTHzCbL.s 			page 178


 7430 194e 93010000 		.4byte	0x193
 7431 1952 600A0000 		.4byte	.LLST49
 7432 1956 1F       		.uleb128 0x1f
 7433 1957 00010000 		.4byte	.LVL161
 7434 195b 5C2D0000 		.4byte	0x2d5c
 7435 195f 00       		.byte	0
 7436 1960 29       		.uleb128 0x29
 7437 1961 3A010000 		.4byte	.LBB12
 7438 1965 2C000000 		.4byte	.LBE12-.LBB12
 7439 1969 BE190000 		.4byte	0x19be
 7440 196d 2D       		.uleb128 0x2d
 7441 196e 280B0000 		.4byte	.LASF267
 7442 1972 01       		.byte	0x1
 7443 1973 5606     		.2byte	0x656
 7444 1975 E80B0000 		.4byte	0xbe8
 7445 1979 7E0A0000 		.4byte	.LLST50
 7446 197d 29       		.uleb128 0x29
 7447 197e 4E010000 		.4byte	.LBB13
 7448 1982 12000000 		.4byte	.LBE13-.LBB13
 7449 1986 AD190000 		.4byte	0x19ad
 7450 198a 2D       		.uleb128 0x2d
 7451 198b 28100000 		.4byte	.LASF268
 7452 198f 01       		.byte	0x1
 7453 1990 5B06     		.2byte	0x65b
 7454 1992 36010000 		.4byte	0x136
 7455 1996 910A0000 		.4byte	.LLST51
 7456 199a 1F       		.uleb128 0x1f
 7457 199b 52010000 		.4byte	.LVL174
 7458 199f 392D0000 		.4byte	0x2d39
 7459 19a3 1F       		.uleb128 0x1f
 7460 19a4 60010000 		.4byte	.LVL175
 7461 19a8 452D0000 		.4byte	0x2d45
 7462 19ac 00       		.byte	0
 7463 19ad 2A       		.uleb128 0x2a
 7464 19ae 66010000 		.4byte	.LVL176
 7465 19b2 6B2C0000 		.4byte	0x2c6b
 7466 19b6 26       		.uleb128 0x26
 7467 19b7 01       		.uleb128 0x1
 7468 19b8 50       		.byte	0x50
 7469 19b9 02       		.uleb128 0x2
 7470 19ba 75       		.byte	0x75
 7471 19bb 00       		.sleb128 0
 7472 19bc 00       		.byte	0
 7473 19bd 00       		.byte	0
 7474 19be 25       		.uleb128 0x25
 7475 19bf 60000000 		.4byte	.LVL145
 7476 19c3 682D0000 		.4byte	0x2d68
 7477 19c7 D2190000 		.4byte	0x19d2
 7478 19cb 26       		.uleb128 0x26
 7479 19cc 01       		.uleb128 0x1
 7480 19cd 52       		.byte	0x52
 7481 19ce 02       		.uleb128 0x2
 7482 19cf 76       		.byte	0x76
 7483 19d0 00       		.sleb128 0
 7484 19d1 00       		.byte	0
 7485 19d2 2E       		.uleb128 0x2e
 7486 19d3 8A000000 		.4byte	.LVL150
ARM GAS  C:\Users\Phuong\AppData\Local\Temp\ccTHzCbL.s 			page 179


 7487 19d7 ED190000 		.4byte	0x19ed
 7488 19db 26       		.uleb128 0x26
 7489 19dc 01       		.uleb128 0x1
 7490 19dd 50       		.byte	0x50
 7491 19de 02       		.uleb128 0x2
 7492 19df 74       		.byte	0x74
 7493 19e0 00       		.sleb128 0
 7494 19e1 26       		.uleb128 0x26
 7495 19e2 01       		.uleb128 0x1
 7496 19e3 51       		.byte	0x51
 7497 19e4 01       		.uleb128 0x1
 7498 19e5 33       		.byte	0x33
 7499 19e6 26       		.uleb128 0x26
 7500 19e7 01       		.uleb128 0x1
 7501 19e8 52       		.byte	0x52
 7502 19e9 02       		.uleb128 0x2
 7503 19ea 76       		.byte	0x76
 7504 19eb 00       		.sleb128 0
 7505 19ec 00       		.byte	0
 7506 19ed 27       		.uleb128 0x27
 7507 19ee B8000000 		.4byte	.LVL151
 7508 19f2 26       		.uleb128 0x26
 7509 19f3 01       		.uleb128 0x1
 7510 19f4 50       		.byte	0x50
 7511 19f5 02       		.uleb128 0x2
 7512 19f6 74       		.byte	0x74
 7513 19f7 00       		.sleb128 0
 7514 19f8 26       		.uleb128 0x26
 7515 19f9 01       		.uleb128 0x1
 7516 19fa 51       		.byte	0x51
 7517 19fb 01       		.uleb128 0x1
 7518 19fc 33       		.byte	0x33
 7519 19fd 26       		.uleb128 0x26
 7520 19fe 01       		.uleb128 0x1
 7521 19ff 52       		.byte	0x52
 7522 1a00 02       		.uleb128 0x2
 7523 1a01 76       		.byte	0x76
 7524 1a02 00       		.sleb128 0
 7525 1a03 00       		.byte	0
 7526 1a04 00       		.byte	0
 7527 1a05 2C       		.uleb128 0x2c
 7528 1a06 56090000 		.4byte	.LASF279
 7529 1a0a 01       		.byte	0x1
 7530 1a0b 3903     		.2byte	0x339
 7531 1a0d 93010000 		.4byte	0x193
 7532 1a11 00000000 		.4byte	.LFB66
 7533 1a15 B8010000 		.4byte	.LFE66-.LFB66
 7534 1a19 01       		.uleb128 0x1
 7535 1a1a 9C       		.byte	0x9c
 7536 1a1b BA1C0000 		.4byte	0x1cba
 7537 1a1f 1C       		.uleb128 0x1c
 7538 1a20 7D000000 		.4byte	.LASF203
 7539 1a24 01       		.byte	0x1
 7540 1a25 3903     		.2byte	0x339
 7541 1a27 73060000 		.4byte	0x673
 7542 1a2b A40A0000 		.4byte	.LLST52
 7543 1a2f 1E       		.uleb128 0x1e
ARM GAS  C:\Users\Phuong\AppData\Local\Temp\ccTHzCbL.s 			page 180


 7544 1a30 65727200 		.ascii	"err\000"
 7545 1a34 01       		.byte	0x1
 7546 1a35 3B03     		.2byte	0x33b
 7547 1a37 93010000 		.4byte	0x193
 7548 1a3b D00A0000 		.4byte	.LLST53
 7549 1a3f 2D       		.uleb128 0x2d
 7550 1a40 83100000 		.4byte	.LASF209
 7551 1a44 01       		.byte	0x1
 7552 1a45 3C03     		.2byte	0x33c
 7553 1a47 FF000000 		.4byte	0xff
 7554 1a4b 050B0000 		.4byte	.LLST54
 7555 1a4f 2D       		.uleb128 0x2d
 7556 1a50 E90B0000 		.4byte	.LASF280
 7557 1a54 01       		.byte	0x1
 7558 1a55 3C03     		.2byte	0x33c
 7559 1a57 FF000000 		.4byte	0xff
 7560 1a5b 500B0000 		.4byte	.LLST55
 7561 1a5f 2D       		.uleb128 0x2d
 7562 1a60 FD010000 		.4byte	.LASF281
 7563 1a64 01       		.byte	0x1
 7564 1a65 3C03     		.2byte	0x33c
 7565 1a67 FF000000 		.4byte	0xff
 7566 1a6b B00B0000 		.4byte	.LLST56
 7567 1a6f 2D       		.uleb128 0x2d
 7568 1a70 1D000000 		.4byte	.LASF282
 7569 1a74 01       		.byte	0x1
 7570 1a75 3C03     		.2byte	0x33c
 7571 1a77 FF000000 		.4byte	0xff
 7572 1a7b C30B0000 		.4byte	.LLST57
 7573 1a7f 2D       		.uleb128 0x2d
 7574 1a80 06010000 		.4byte	.LASF283
 7575 1a84 01       		.byte	0x1
 7576 1a85 3D03     		.2byte	0x33d
 7577 1a87 FF000000 		.4byte	0xff
 7578 1a8b D60B0000 		.4byte	.LLST58
 7579 1a8f 2D       		.uleb128 0x2d
 7580 1a90 52080000 		.4byte	.LASF284
 7581 1a94 01       		.byte	0x1
 7582 1a95 3E03     		.2byte	0x33e
 7583 1a97 7D0A0000 		.4byte	0xa7d
 7584 1a9b 2F0C0000 		.4byte	.LLST59
 7585 1a9f 29       		.uleb128 0x29
 7586 1aa0 04010000 		.4byte	.LBB14
 7587 1aa4 70000000 		.4byte	.LBE14-.LBB14
 7588 1aa8 4B1B0000 		.4byte	0x1b4b
 7589 1aac 2D       		.uleb128 0x2d
 7590 1aad 280B0000 		.4byte	.LASF267
 7591 1ab1 01       		.byte	0x1
 7592 1ab2 C303     		.2byte	0x3c3
 7593 1ab4 E80B0000 		.4byte	0xbe8
 7594 1ab8 4D0C0000 		.4byte	.LLST60
 7595 1abc 29       		.uleb128 0x29
 7596 1abd 58010000 		.4byte	.LBB15
 7597 1ac1 12000000 		.4byte	.LBE15-.LBB15
 7598 1ac5 EC1A0000 		.4byte	0x1aec
 7599 1ac9 2D       		.uleb128 0x2d
 7600 1aca 28100000 		.4byte	.LASF268
ARM GAS  C:\Users\Phuong\AppData\Local\Temp\ccTHzCbL.s 			page 181


 7601 1ace 01       		.byte	0x1
 7602 1acf D603     		.2byte	0x3d6
 7603 1ad1 36010000 		.4byte	0x136
 7604 1ad5 600C0000 		.4byte	.LLST61
 7605 1ad9 1F       		.uleb128 0x1f
 7606 1ada 5C010000 		.4byte	.LVL218
 7607 1ade 392D0000 		.4byte	0x2d39
 7608 1ae2 1F       		.uleb128 0x1f
 7609 1ae3 6A010000 		.4byte	.LVL219
 7610 1ae7 452D0000 		.4byte	0x2d45
 7611 1aeb 00       		.byte	0
 7612 1aec 2E       		.uleb128 0x2e
 7613 1aed 2E010000 		.4byte	.LVL213
 7614 1af1 061B0000 		.4byte	0x1b06
 7615 1af5 26       		.uleb128 0x26
 7616 1af6 01       		.uleb128 0x1
 7617 1af7 50       		.byte	0x50
 7618 1af8 02       		.uleb128 0x2
 7619 1af9 75       		.byte	0x75
 7620 1afa 00       		.sleb128 0
 7621 1afb 26       		.uleb128 0x26
 7622 1afc 01       		.uleb128 0x1
 7623 1afd 51       		.byte	0x51
 7624 1afe 01       		.uleb128 0x1
 7625 1aff 34       		.byte	0x34
 7626 1b00 26       		.uleb128 0x26
 7627 1b01 01       		.uleb128 0x1
 7628 1b02 52       		.byte	0x52
 7629 1b03 01       		.uleb128 0x1
 7630 1b04 30       		.byte	0x30
 7631 1b05 00       		.byte	0
 7632 1b06 2E       		.uleb128 0x2e
 7633 1b07 42010000 		.4byte	.LVL216
 7634 1b0b 201B0000 		.4byte	0x1b20
 7635 1b0f 26       		.uleb128 0x26
 7636 1b10 01       		.uleb128 0x1
 7637 1b11 50       		.byte	0x50
 7638 1b12 02       		.uleb128 0x2
 7639 1b13 75       		.byte	0x75
 7640 1b14 00       		.sleb128 0
 7641 1b15 26       		.uleb128 0x26
 7642 1b16 01       		.uleb128 0x1
 7643 1b17 51       		.byte	0x51
 7644 1b18 01       		.uleb128 0x1
 7645 1b19 30       		.byte	0x30
 7646 1b1a 26       		.uleb128 0x26
 7647 1b1b 01       		.uleb128 0x1
 7648 1b1c 52       		.byte	0x52
 7649 1b1d 01       		.uleb128 0x1
 7650 1b1e 30       		.byte	0x30
 7651 1b1f 00       		.byte	0
 7652 1b20 2E       		.uleb128 0x2e
 7653 1b21 54010000 		.4byte	.LVL217
 7654 1b25 3A1B0000 		.4byte	0x1b3a
 7655 1b29 26       		.uleb128 0x26
 7656 1b2a 01       		.uleb128 0x1
 7657 1b2b 50       		.byte	0x50
ARM GAS  C:\Users\Phuong\AppData\Local\Temp\ccTHzCbL.s 			page 182


 7658 1b2c 02       		.uleb128 0x2
 7659 1b2d 75       		.byte	0x75
 7660 1b2e 00       		.sleb128 0
 7661 1b2f 26       		.uleb128 0x26
 7662 1b30 01       		.uleb128 0x1
 7663 1b31 51       		.byte	0x51
 7664 1b32 01       		.uleb128 0x1
 7665 1b33 32       		.byte	0x32
 7666 1b34 26       		.uleb128 0x26
 7667 1b35 01       		.uleb128 0x1
 7668 1b36 52       		.byte	0x52
 7669 1b37 01       		.uleb128 0x1
 7670 1b38 30       		.byte	0x30
 7671 1b39 00       		.byte	0
 7672 1b3a 2A       		.uleb128 0x2a
 7673 1b3b 70010000 		.4byte	.LVL220
 7674 1b3f 6B2C0000 		.4byte	0x2c6b
 7675 1b43 26       		.uleb128 0x26
 7676 1b44 01       		.uleb128 0x1
 7677 1b45 50       		.byte	0x50
 7678 1b46 02       		.uleb128 0x2
 7679 1b47 76       		.byte	0x76
 7680 1b48 00       		.sleb128 0
 7681 1b49 00       		.byte	0
 7682 1b4a 00       		.byte	0
 7683 1b4b 25       		.uleb128 0x25
 7684 1b4c 6A000000 		.4byte	.LVL192
 7685 1b50 C52C0000 		.4byte	0x2cc5
 7686 1b54 641B0000 		.4byte	0x1b64
 7687 1b58 26       		.uleb128 0x26
 7688 1b59 01       		.uleb128 0x1
 7689 1b5a 50       		.byte	0x50
 7690 1b5b 02       		.uleb128 0x2
 7691 1b5c 76       		.byte	0x76
 7692 1b5d 00       		.sleb128 0
 7693 1b5e 26       		.uleb128 0x26
 7694 1b5f 01       		.uleb128 0x1
 7695 1b60 51       		.byte	0x51
 7696 1b61 01       		.uleb128 0x1
 7697 1b62 30       		.byte	0x30
 7698 1b63 00       		.byte	0
 7699 1b64 25       		.uleb128 0x25
 7700 1b65 78000000 		.4byte	.LVL193
 7701 1b69 742D0000 		.4byte	0x2d74
 7702 1b6d 7D1B0000 		.4byte	0x1b7d
 7703 1b71 26       		.uleb128 0x26
 7704 1b72 01       		.uleb128 0x1
 7705 1b73 50       		.byte	0x50
 7706 1b74 02       		.uleb128 0x2
 7707 1b75 76       		.byte	0x76
 7708 1b76 00       		.sleb128 0
 7709 1b77 26       		.uleb128 0x26
 7710 1b78 01       		.uleb128 0x1
 7711 1b79 51       		.byte	0x51
 7712 1b7a 01       		.uleb128 0x1
 7713 1b7b 30       		.byte	0x30
 7714 1b7c 00       		.byte	0
ARM GAS  C:\Users\Phuong\AppData\Local\Temp\ccTHzCbL.s 			page 183


 7715 1b7d 25       		.uleb128 0x25
 7716 1b7e 88000000 		.4byte	.LVL195
 7717 1b82 D12C0000 		.4byte	0x2cd1
 7718 1b86 961B0000 		.4byte	0x1b96
 7719 1b8a 26       		.uleb128 0x26
 7720 1b8b 01       		.uleb128 0x1
 7721 1b8c 50       		.byte	0x50
 7722 1b8d 02       		.uleb128 0x2
 7723 1b8e 76       		.byte	0x76
 7724 1b8f 00       		.sleb128 0
 7725 1b90 26       		.uleb128 0x26
 7726 1b91 01       		.uleb128 0x1
 7727 1b92 51       		.byte	0x51
 7728 1b93 01       		.uleb128 0x1
 7729 1b94 30       		.byte	0x30
 7730 1b95 00       		.byte	0
 7731 1b96 25       		.uleb128 0x25
 7732 1b97 90000000 		.4byte	.LVL196
 7733 1b9b 742D0000 		.4byte	0x2d74
 7734 1b9f AF1B0000 		.4byte	0x1baf
 7735 1ba3 26       		.uleb128 0x26
 7736 1ba4 01       		.uleb128 0x1
 7737 1ba5 50       		.byte	0x50
 7738 1ba6 02       		.uleb128 0x2
 7739 1ba7 76       		.byte	0x76
 7740 1ba8 00       		.sleb128 0
 7741 1ba9 26       		.uleb128 0x26
 7742 1baa 01       		.uleb128 0x1
 7743 1bab 51       		.byte	0x51
 7744 1bac 01       		.uleb128 0x1
 7745 1bad 30       		.byte	0x30
 7746 1bae 00       		.byte	0
 7747 1baf 25       		.uleb128 0x25
 7748 1bb0 9C000000 		.4byte	.LVL197
 7749 1bb4 DD2C0000 		.4byte	0x2cdd
 7750 1bb8 C81B0000 		.4byte	0x1bc8
 7751 1bbc 26       		.uleb128 0x26
 7752 1bbd 01       		.uleb128 0x1
 7753 1bbe 50       		.byte	0x50
 7754 1bbf 02       		.uleb128 0x2
 7755 1bc0 76       		.byte	0x76
 7756 1bc1 00       		.sleb128 0
 7757 1bc2 26       		.uleb128 0x26
 7758 1bc3 01       		.uleb128 0x1
 7759 1bc4 51       		.byte	0x51
 7760 1bc5 01       		.uleb128 0x1
 7761 1bc6 30       		.byte	0x30
 7762 1bc7 00       		.byte	0
 7763 1bc8 25       		.uleb128 0x25
 7764 1bc9 AC000000 		.4byte	.LVL198
 7765 1bcd E92C0000 		.4byte	0x2ce9
 7766 1bd1 E61B0000 		.4byte	0x1be6
 7767 1bd5 26       		.uleb128 0x26
 7768 1bd6 01       		.uleb128 0x1
 7769 1bd7 50       		.byte	0x50
 7770 1bd8 02       		.uleb128 0x2
 7771 1bd9 76       		.byte	0x76
ARM GAS  C:\Users\Phuong\AppData\Local\Temp\ccTHzCbL.s 			page 184


 7772 1bda 00       		.sleb128 0
 7773 1bdb 26       		.uleb128 0x26
 7774 1bdc 01       		.uleb128 0x1
 7775 1bdd 51       		.byte	0x51
 7776 1bde 01       		.uleb128 0x1
 7777 1bdf 30       		.byte	0x30
 7778 1be0 26       		.uleb128 0x26
 7779 1be1 01       		.uleb128 0x1
 7780 1be2 52       		.byte	0x52
 7781 1be3 01       		.uleb128 0x1
 7782 1be4 30       		.byte	0x30
 7783 1be5 00       		.byte	0
 7784 1be6 25       		.uleb128 0x25
 7785 1be7 B4000000 		.4byte	.LVL199
 7786 1beb F52C0000 		.4byte	0x2cf5
 7787 1bef FF1B0000 		.4byte	0x1bff
 7788 1bf3 26       		.uleb128 0x26
 7789 1bf4 01       		.uleb128 0x1
 7790 1bf5 50       		.byte	0x50
 7791 1bf6 02       		.uleb128 0x2
 7792 1bf7 76       		.byte	0x76
 7793 1bf8 00       		.sleb128 0
 7794 1bf9 26       		.uleb128 0x26
 7795 1bfa 01       		.uleb128 0x1
 7796 1bfb 51       		.byte	0x51
 7797 1bfc 01       		.uleb128 0x1
 7798 1bfd 30       		.byte	0x30
 7799 1bfe 00       		.byte	0
 7800 1bff 25       		.uleb128 0x25
 7801 1c00 C0000000 		.4byte	.LVL200
 7802 1c04 802D0000 		.4byte	0x2d80
 7803 1c08 131C0000 		.4byte	0x1c13
 7804 1c0c 26       		.uleb128 0x26
 7805 1c0d 01       		.uleb128 0x1
 7806 1c0e 50       		.byte	0x50
 7807 1c0f 02       		.uleb128 0x2
 7808 1c10 76       		.byte	0x76
 7809 1c11 00       		.sleb128 0
 7810 1c12 00       		.byte	0
 7811 1c13 25       		.uleb128 0x25
 7812 1c14 CE000000 		.4byte	.LVL203
 7813 1c18 8C2D0000 		.4byte	0x2d8c
 7814 1c1c 331C0000 		.4byte	0x1c33
 7815 1c20 26       		.uleb128 0x26
 7816 1c21 01       		.uleb128 0x1
 7817 1c22 50       		.byte	0x50
 7818 1c23 02       		.uleb128 0x2
 7819 1c24 76       		.byte	0x76
 7820 1c25 00       		.sleb128 0
 7821 1c26 26       		.uleb128 0x26
 7822 1c27 01       		.uleb128 0x1
 7823 1c28 51       		.byte	0x51
 7824 1c29 02       		.uleb128 0x2
 7825 1c2a 78       		.byte	0x78
 7826 1c2b 00       		.sleb128 0
 7827 1c2c 26       		.uleb128 0x26
 7828 1c2d 01       		.uleb128 0x1
ARM GAS  C:\Users\Phuong\AppData\Local\Temp\ccTHzCbL.s 			page 185


 7829 1c2e 52       		.byte	0x52
 7830 1c2f 02       		.uleb128 0x2
 7831 1c30 77       		.byte	0x77
 7832 1c31 00       		.sleb128 0
 7833 1c32 00       		.byte	0
 7834 1c33 25       		.uleb128 0x25
 7835 1c34 EC000000 		.4byte	.LVL206
 7836 1c38 982D0000 		.4byte	0x2d98
 7837 1c3c 471C0000 		.4byte	0x1c47
 7838 1c40 26       		.uleb128 0x26
 7839 1c41 01       		.uleb128 0x1
 7840 1c42 50       		.byte	0x50
 7841 1c43 02       		.uleb128 0x2
 7842 1c44 76       		.byte	0x76
 7843 1c45 00       		.sleb128 0
 7844 1c46 00       		.byte	0
 7845 1c47 25       		.uleb128 0x25
 7846 1c48 84010000 		.4byte	.LVL222
 7847 1c4c DD2C0000 		.4byte	0x2cdd
 7848 1c50 641C0000 		.4byte	0x1c64
 7849 1c54 26       		.uleb128 0x26
 7850 1c55 01       		.uleb128 0x1
 7851 1c56 50       		.byte	0x50
 7852 1c57 02       		.uleb128 0x2
 7853 1c58 76       		.byte	0x76
 7854 1c59 00       		.sleb128 0
 7855 1c5a 26       		.uleb128 0x26
 7856 1c5b 01       		.uleb128 0x1
 7857 1c5c 51       		.byte	0x51
 7858 1c5d 05       		.uleb128 0x5
 7859 1c5e 03       		.byte	0x3
 7860 1c5f 00000000 		.4byte	sent_tcp
 7861 1c63 00       		.byte	0
 7862 1c64 25       		.uleb128 0x25
 7863 1c65 8E010000 		.4byte	.LVL223
 7864 1c69 E92C0000 		.4byte	0x2ce9
 7865 1c6d 861C0000 		.4byte	0x1c86
 7866 1c71 26       		.uleb128 0x26
 7867 1c72 01       		.uleb128 0x1
 7868 1c73 50       		.byte	0x50
 7869 1c74 02       		.uleb128 0x2
 7870 1c75 76       		.byte	0x76
 7871 1c76 00       		.sleb128 0
 7872 1c77 26       		.uleb128 0x26
 7873 1c78 01       		.uleb128 0x1
 7874 1c79 51       		.byte	0x51
 7875 1c7a 05       		.uleb128 0x5
 7876 1c7b 03       		.byte	0x3
 7877 1c7c 00000000 		.4byte	poll_tcp
 7878 1c80 26       		.uleb128 0x26
 7879 1c81 01       		.uleb128 0x1
 7880 1c82 52       		.byte	0x52
 7881 1c83 01       		.uleb128 0x1
 7882 1c84 31       		.byte	0x31
 7883 1c85 00       		.byte	0
 7884 1c86 25       		.uleb128 0x25
 7885 1c87 96010000 		.4byte	.LVL224
ARM GAS  C:\Users\Phuong\AppData\Local\Temp\ccTHzCbL.s 			page 186


 7886 1c8b F52C0000 		.4byte	0x2cf5
 7887 1c8f A31C0000 		.4byte	0x1ca3
 7888 1c93 26       		.uleb128 0x26
 7889 1c94 01       		.uleb128 0x1
 7890 1c95 50       		.byte	0x50
 7891 1c96 02       		.uleb128 0x2
 7892 1c97 76       		.byte	0x76
 7893 1c98 00       		.sleb128 0
 7894 1c99 26       		.uleb128 0x26
 7895 1c9a 01       		.uleb128 0x1
 7896 1c9b 51       		.byte	0x51
 7897 1c9c 05       		.uleb128 0x5
 7898 1c9d 03       		.byte	0x3
 7899 1c9e 00000000 		.4byte	err_tcp
 7900 1ca2 00       		.byte	0
 7901 1ca3 2A       		.uleb128 0x2a
 7902 1ca4 9E010000 		.4byte	.LVL225
 7903 1ca8 C52C0000 		.4byte	0x2cc5
 7904 1cac 26       		.uleb128 0x26
 7905 1cad 01       		.uleb128 0x1
 7906 1cae 50       		.byte	0x50
 7907 1caf 02       		.uleb128 0x2
 7908 1cb0 76       		.byte	0x76
 7909 1cb1 00       		.sleb128 0
 7910 1cb2 26       		.uleb128 0x26
 7911 1cb3 01       		.uleb128 0x1
 7912 1cb4 51       		.byte	0x51
 7913 1cb5 02       		.uleb128 0x2
 7914 1cb6 75       		.byte	0x75
 7915 1cb7 00       		.sleb128 0
 7916 1cb8 00       		.byte	0
 7917 1cb9 00       		.byte	0
 7918 1cba 2C       		.uleb128 0x2c
 7919 1cbb 82020000 		.4byte	.LASF285
 7920 1cbf 01       		.byte	0x1
 7921 1cc0 3301     		.2byte	0x133
 7922 1cc2 93010000 		.4byte	0x193
 7923 1cc6 00000000 		.4byte	.LFB56
 7924 1cca 68000000 		.4byte	.LFE56-.LFB56
 7925 1cce 01       		.uleb128 0x1
 7926 1ccf 9C       		.byte	0x9c
 7927 1cd0 431D0000 		.4byte	0x1d43
 7928 1cd4 1D       		.uleb128 0x1d
 7929 1cd5 61726700 		.ascii	"arg\000"
 7930 1cd9 01       		.byte	0x1
 7931 1cda 3301     		.2byte	0x133
 7932 1cdc 88000000 		.4byte	0x88
 7933 1ce0 730C0000 		.4byte	.LLST62
 7934 1ce4 1D       		.uleb128 0x1d
 7935 1ce5 70636200 		.ascii	"pcb\000"
 7936 1ce9 01       		.byte	0x1
 7937 1cea 3301     		.2byte	0x133
 7938 1cec 7D0A0000 		.4byte	0xa7d
 7939 1cf0 B50C0000 		.4byte	.LLST63
 7940 1cf4 2D       		.uleb128 0x2d
 7941 1cf5 7D000000 		.4byte	.LASF203
 7942 1cf9 01       		.byte	0x1
ARM GAS  C:\Users\Phuong\AppData\Local\Temp\ccTHzCbL.s 			page 187


 7943 1cfa 3501     		.2byte	0x135
 7944 1cfc 73060000 		.4byte	0x673
 7945 1d00 EF0C0000 		.4byte	.LLST64
 7946 1d04 25       		.uleb128 0x25
 7947 1d05 0E000000 		.4byte	.LVL235
 7948 1d09 60180000 		.4byte	0x1860
 7949 1d0d 181D0000 		.4byte	0x1d18
 7950 1d11 26       		.uleb128 0x26
 7951 1d12 01       		.uleb128 0x1
 7952 1d13 50       		.byte	0x50
 7953 1d14 02       		.uleb128 0x2
 7954 1d15 74       		.byte	0x74
 7955 1d16 00       		.sleb128 0
 7956 1d17 00       		.byte	0
 7957 1d18 25       		.uleb128 0x25
 7958 1d19 2A000000 		.4byte	.LVL238
 7959 1d1d 051A0000 		.4byte	0x1a05
 7960 1d21 2C1D0000 		.4byte	0x1d2c
 7961 1d25 26       		.uleb128 0x26
 7962 1d26 01       		.uleb128 0x1
 7963 1d27 50       		.byte	0x50
 7964 1d28 02       		.uleb128 0x2
 7965 1d29 74       		.byte	0x74
 7966 1d2a 00       		.sleb128 0
 7967 1d2b 00       		.byte	0
 7968 1d2c 27       		.uleb128 0x27
 7969 1d2d 60000000 		.4byte	.LVL239
 7970 1d31 26       		.uleb128 0x26
 7971 1d32 01       		.uleb128 0x1
 7972 1d33 50       		.byte	0x50
 7973 1d34 02       		.uleb128 0x2
 7974 1d35 74       		.byte	0x74
 7975 1d36 00       		.sleb128 0
 7976 1d37 26       		.uleb128 0x26
 7977 1d38 01       		.uleb128 0x1
 7978 1d39 51       		.byte	0x51
 7979 1d3a 01       		.uleb128 0x1
 7980 1d3b 32       		.byte	0x32
 7981 1d3c 26       		.uleb128 0x26
 7982 1d3d 01       		.uleb128 0x1
 7983 1d3e 52       		.byte	0x52
 7984 1d3f 01       		.uleb128 0x1
 7985 1d40 30       		.byte	0x30
 7986 1d41 00       		.byte	0
 7987 1d42 00       		.byte	0
 7988 1d43 2C       		.uleb128 0x2c
 7989 1d44 30020000 		.4byte	.LASF286
 7990 1d48 01       		.byte	0x1
 7991 1d49 5C01     		.2byte	0x15c
 7992 1d4b 93010000 		.4byte	0x193
 7993 1d4f 00000000 		.4byte	.LFB57
 7994 1d53 58000000 		.4byte	.LFE57-.LFB57
 7995 1d57 01       		.uleb128 0x1
 7996 1d58 9C       		.byte	0x9c
 7997 1d59 D21D0000 		.4byte	0x1dd2
 7998 1d5d 1D       		.uleb128 0x1d
 7999 1d5e 61726700 		.ascii	"arg\000"
ARM GAS  C:\Users\Phuong\AppData\Local\Temp\ccTHzCbL.s 			page 188


 8000 1d62 01       		.byte	0x1
 8001 1d63 5C01     		.2byte	0x15c
 8002 1d65 88000000 		.4byte	0x88
 8003 1d69 310D0000 		.4byte	.LLST65
 8004 1d6d 1D       		.uleb128 0x1d
 8005 1d6e 70636200 		.ascii	"pcb\000"
 8006 1d72 01       		.byte	0x1
 8007 1d73 5C01     		.2byte	0x15c
 8008 1d75 7D0A0000 		.4byte	0xa7d
 8009 1d79 730D0000 		.4byte	.LLST66
 8010 1d7d 1D       		.uleb128 0x1d
 8011 1d7e 6C656E00 		.ascii	"len\000"
 8012 1d82 01       		.byte	0x1
 8013 1d83 5C01     		.2byte	0x15c
 8014 1d85 15010000 		.4byte	0x115
 8015 1d89 AD0D0000 		.4byte	.LLST67
 8016 1d8d 2D       		.uleb128 0x2d
 8017 1d8e 7D000000 		.4byte	.LASF203
 8018 1d92 01       		.byte	0x1
 8019 1d93 5E01     		.2byte	0x15e
 8020 1d95 73060000 		.4byte	0x673
 8021 1d99 E70D0000 		.4byte	.LLST68
 8022 1d9d 25       		.uleb128 0x25
 8023 1d9e 14000000 		.4byte	.LVL243
 8024 1da2 60180000 		.4byte	0x1860
 8025 1da6 B11D0000 		.4byte	0x1db1
 8026 1daa 26       		.uleb128 0x26
 8027 1dab 01       		.uleb128 0x1
 8028 1dac 50       		.byte	0x50
 8029 1dad 02       		.uleb128 0x2
 8030 1dae 74       		.byte	0x74
 8031 1daf 00       		.sleb128 0
 8032 1db0 00       		.byte	0
 8033 1db1 1F       		.uleb128 0x1f
 8034 1db2 1E000000 		.4byte	.LVL245
 8035 1db6 051A0000 		.4byte	0x1a05
 8036 1dba 27       		.uleb128 0x27
 8037 1dbb 4E000000 		.4byte	.LVL246
 8038 1dbf 26       		.uleb128 0x26
 8039 1dc0 01       		.uleb128 0x1
 8040 1dc1 50       		.byte	0x50
 8041 1dc2 02       		.uleb128 0x2
 8042 1dc3 74       		.byte	0x74
 8043 1dc4 00       		.sleb128 0
 8044 1dc5 26       		.uleb128 0x26
 8045 1dc6 01       		.uleb128 0x1
 8046 1dc7 51       		.byte	0x51
 8047 1dc8 01       		.uleb128 0x1
 8048 1dc9 32       		.byte	0x32
 8049 1dca 26       		.uleb128 0x26
 8050 1dcb 01       		.uleb128 0x1
 8051 1dcc 52       		.byte	0x52
 8052 1dcd 02       		.uleb128 0x2
 8053 1dce 75       		.byte	0x75
 8054 1dcf 00       		.sleb128 0
 8055 1dd0 00       		.byte	0
 8056 1dd1 00       		.byte	0
ARM GAS  C:\Users\Phuong\AppData\Local\Temp\ccTHzCbL.s 			page 189


 8057 1dd2 28       		.uleb128 0x28
 8058 1dd3 32070000 		.4byte	.LASF287
 8059 1dd7 01       		.byte	0x1
 8060 1dd8 F3       		.byte	0xf3
 8061 1dd9 93010000 		.4byte	0x193
 8062 1ddd 00000000 		.4byte	.LFB55
 8063 1de1 88000000 		.4byte	.LFE55-.LFB55
 8064 1de5 01       		.uleb128 0x1
 8065 1de6 9C       		.byte	0x9c
 8066 1de7 E21E0000 		.4byte	0x1ee2
 8067 1deb 21       		.uleb128 0x21
 8068 1dec 61726700 		.ascii	"arg\000"
 8069 1df0 01       		.byte	0x1
 8070 1df1 F3       		.byte	0xf3
 8071 1df2 88000000 		.4byte	0x88
 8072 1df6 290E0000 		.4byte	.LLST69
 8073 1dfa 21       		.uleb128 0x21
 8074 1dfb 70636200 		.ascii	"pcb\000"
 8075 1dff 01       		.byte	0x1
 8076 1e00 F3       		.byte	0xf3
 8077 1e01 7D0A0000 		.4byte	0xa7d
 8078 1e05 6B0E0000 		.4byte	.LLST70
 8079 1e09 21       		.uleb128 0x21
 8080 1e0a 7000     		.ascii	"p\000"
 8081 1e0c 01       		.byte	0x1
 8082 1e0d F3       		.byte	0xf3
 8083 1e0e C2020000 		.4byte	0x2c2
 8084 1e12 A10E0000 		.4byte	.LLST71
 8085 1e16 21       		.uleb128 0x21
 8086 1e17 65727200 		.ascii	"err\000"
 8087 1e1b 01       		.byte	0x1
 8088 1e1c F3       		.byte	0xf3
 8089 1e1d 93010000 		.4byte	0x193
 8090 1e21 E30E0000 		.4byte	.LLST72
 8091 1e25 24       		.uleb128 0x24
 8092 1e26 7D000000 		.4byte	.LASF203
 8093 1e2a 01       		.byte	0x1
 8094 1e2b F5       		.byte	0xf5
 8095 1e2c 73060000 		.4byte	0x673
 8096 1e30 1D0F0000 		.4byte	.LLST73
 8097 1e34 23       		.uleb128 0x23
 8098 1e35 6C656E00 		.ascii	"len\000"
 8099 1e39 01       		.byte	0x1
 8100 1e3a F6       		.byte	0xf6
 8101 1e3b 15010000 		.4byte	0x115
 8102 1e3f 5F0F0000 		.4byte	.LLST74
 8103 1e43 29       		.uleb128 0x29
 8104 1e44 3C000000 		.4byte	.LBB16
 8105 1e48 12000000 		.4byte	.LBE16-.LBB16
 8106 1e4c 731E0000 		.4byte	0x1e73
 8107 1e50 2D       		.uleb128 0x2d
 8108 1e51 28100000 		.4byte	.LASF268
 8109 1e55 01       		.byte	0x1
 8110 1e56 1001     		.2byte	0x110
 8111 1e58 36010000 		.4byte	0x136
 8112 1e5c 880F0000 		.4byte	.LLST75
 8113 1e60 1F       		.uleb128 0x1f
ARM GAS  C:\Users\Phuong\AppData\Local\Temp\ccTHzCbL.s 			page 190


 8114 1e61 40000000 		.4byte	.LVL254
 8115 1e65 392D0000 		.4byte	0x2d39
 8116 1e69 1F       		.uleb128 0x1f
 8117 1e6a 4E000000 		.4byte	.LVL255
 8118 1e6e 452D0000 		.4byte	0x2d45
 8119 1e72 00       		.byte	0
 8120 1e73 25       		.uleb128 0x25
 8121 1e74 1A000000 		.4byte	.LVL251
 8122 1e78 812C0000 		.4byte	0x2c81
 8123 1e7c 871E0000 		.4byte	0x1e87
 8124 1e80 26       		.uleb128 0x26
 8125 1e81 01       		.uleb128 0x1
 8126 1e82 50       		.byte	0x50
 8127 1e83 02       		.uleb128 0x2
 8128 1e84 75       		.byte	0x75
 8129 1e85 00       		.sleb128 0
 8130 1e86 00       		.byte	0
 8131 1e87 25       		.uleb128 0x25
 8132 1e88 2A000000 		.4byte	.LVL252
 8133 1e8c A42D0000 		.4byte	0x2da4
 8134 1e90 9C1E0000 		.4byte	0x1e9c
 8135 1e94 26       		.uleb128 0x26
 8136 1e95 01       		.uleb128 0x1
 8137 1e96 50       		.byte	0x50
 8138 1e97 03       		.uleb128 0x3
 8139 1e98 91       		.byte	0x91
 8140 1e99 64       		.sleb128 -28
 8141 1e9a 06       		.byte	0x6
 8142 1e9b 00       		.byte	0
 8143 1e9c 25       		.uleb128 0x25
 8144 1e9d 30000000 		.4byte	.LVL253
 8145 1ea1 762C0000 		.4byte	0x2c76
 8146 1ea5 B01E0000 		.4byte	0x1eb0
 8147 1ea9 26       		.uleb128 0x26
 8148 1eaa 01       		.uleb128 0x1
 8149 1eab 50       		.byte	0x50
 8150 1eac 02       		.uleb128 0x2
 8151 1ead 77       		.byte	0x77
 8152 1eae 00       		.sleb128 0
 8153 1eaf 00       		.byte	0
 8154 1eb0 25       		.uleb128 0x25
 8155 1eb1 60000000 		.4byte	.LVL259
 8156 1eb5 982C0000 		.4byte	0x2c98
 8157 1eb9 CA1E0000 		.4byte	0x1eca
 8158 1ebd 26       		.uleb128 0x26
 8159 1ebe 01       		.uleb128 0x1
 8160 1ebf 50       		.byte	0x50
 8161 1ec0 02       		.uleb128 0x2
 8162 1ec1 75       		.byte	0x75
 8163 1ec2 00       		.sleb128 0
 8164 1ec3 26       		.uleb128 0x26
 8165 1ec4 01       		.uleb128 0x1
 8166 1ec5 51       		.byte	0x51
 8167 1ec6 02       		.uleb128 0x2
 8168 1ec7 77       		.byte	0x77
 8169 1ec8 00       		.sleb128 0
 8170 1ec9 00       		.byte	0
ARM GAS  C:\Users\Phuong\AppData\Local\Temp\ccTHzCbL.s 			page 191


 8171 1eca 27       		.uleb128 0x27
 8172 1ecb 72000000 		.4byte	.LVL260
 8173 1ecf 26       		.uleb128 0x26
 8174 1ed0 01       		.uleb128 0x1
 8175 1ed1 50       		.byte	0x50
 8176 1ed2 02       		.uleb128 0x2
 8177 1ed3 74       		.byte	0x74
 8178 1ed4 00       		.sleb128 0
 8179 1ed5 26       		.uleb128 0x26
 8180 1ed6 01       		.uleb128 0x1
 8181 1ed7 51       		.byte	0x51
 8182 1ed8 01       		.uleb128 0x1
 8183 1ed9 30       		.byte	0x30
 8184 1eda 26       		.uleb128 0x26
 8185 1edb 01       		.uleb128 0x1
 8186 1edc 52       		.byte	0x52
 8187 1edd 02       		.uleb128 0x2
 8188 1ede 76       		.byte	0x76
 8189 1edf 00       		.sleb128 0
 8190 1ee0 00       		.byte	0
 8191 1ee1 00       		.byte	0
 8192 1ee2 32       		.uleb128 0x32
 8193 1ee3 63010000 		.4byte	.LASF291
 8194 1ee7 01       		.byte	0x1
 8195 1ee8 6F02     		.2byte	0x26f
 8196 1eea 00000000 		.4byte	.LFB62
 8197 1eee 3C000000 		.4byte	.LFE62-.LFB62
 8198 1ef2 01       		.uleb128 0x1
 8199 1ef3 9C       		.byte	0x9c
 8200 1ef4 641F0000 		.4byte	0x1f64
 8201 1ef8 1D       		.uleb128 0x1d
 8202 1ef9 6D00     		.ascii	"m\000"
 8203 1efb 01       		.byte	0x1
 8204 1efc 6F02     		.2byte	0x26f
 8205 1efe 88000000 		.4byte	0x88
 8206 1f02 9B0F0000 		.4byte	.LLST76
 8207 1f06 1E       		.uleb128 0x1e
 8208 1f07 6D736700 		.ascii	"msg\000"
 8209 1f0b 01       		.byte	0x1
 8210 1f0c 7102     		.2byte	0x271
 8211 1f0e E20B0000 		.4byte	0xbe2
 8212 1f12 C70F0000 		.4byte	.LLST77
 8213 1f16 29       		.uleb128 0x29
 8214 1f17 1A000000 		.4byte	.LBB17
 8215 1f1b 18000000 		.4byte	.LBE17-.LBB17
 8216 1f1f 461F0000 		.4byte	0x1f46
 8217 1f23 2D       		.uleb128 0x2d
 8218 1f24 28100000 		.4byte	.LASF268
 8219 1f28 01       		.byte	0x1
 8220 1f29 7B02     		.2byte	0x27b
 8221 1f2b 36010000 		.4byte	0x136
 8222 1f2f F30F0000 		.4byte	.LLST78
 8223 1f33 1F       		.uleb128 0x1f
 8224 1f34 1E000000 		.4byte	.LVL270
 8225 1f38 392D0000 		.4byte	0x2d39
 8226 1f3c 1F       		.uleb128 0x1f
 8227 1f3d 32000000 		.4byte	.LVL271
ARM GAS  C:\Users\Phuong\AppData\Local\Temp\ccTHzCbL.s 			page 192


 8228 1f41 452D0000 		.4byte	0x2d45
 8229 1f45 00       		.byte	0
 8230 1f46 25       		.uleb128 0x25
 8231 1f47 14000000 		.4byte	.LVL269
 8232 1f4b EC140000 		.4byte	0x14ec
 8233 1f4f 5A1F0000 		.4byte	0x1f5a
 8234 1f53 26       		.uleb128 0x26
 8235 1f54 01       		.uleb128 0x1
 8236 1f55 50       		.byte	0x50
 8237 1f56 02       		.uleb128 0x2
 8238 1f57 74       		.byte	0x74
 8239 1f58 00       		.sleb128 0
 8240 1f59 00       		.byte	0
 8241 1f5a 1F       		.uleb128 0x1f
 8242 1f5b 3A000000 		.4byte	.LVL272
 8243 1f5f 6B2C0000 		.4byte	0x2c6b
 8244 1f63 00       		.byte	0
 8245 1f64 33       		.uleb128 0x33
 8246 1f65 CE0D0000 		.4byte	.LASF376
 8247 1f69 01       		.byte	0x1
 8248 1f6a 8802     		.2byte	0x288
 8249 1f6c 73060000 		.4byte	0x673
 8250 1f70 00000000 		.4byte	.LFB63
 8251 1f74 90000000 		.4byte	.LFE63-.LFB63
 8252 1f78 01       		.uleb128 0x1
 8253 1f79 9C       		.byte	0x9c
 8254 1f7a 5B200000 		.4byte	0x205b
 8255 1f7e 1D       		.uleb128 0x1d
 8256 1f7f 7400     		.ascii	"t\000"
 8257 1f81 01       		.byte	0x1
 8258 1f82 8802     		.2byte	0x288
 8259 1f84 9D050000 		.4byte	0x59d
 8260 1f88 06100000 		.4byte	.LLST79
 8261 1f8c 1C       		.uleb128 0x1c
 8262 1f8d 00110000 		.4byte	.LASF146
 8263 1f91 01       		.byte	0x1
 8264 1f92 8802     		.2byte	0x288
 8265 1f94 4D060000 		.4byte	0x64d
 8266 1f98 27100000 		.4byte	.LLST80
 8267 1f9c 2D       		.uleb128 0x2d
 8268 1f9d 7D000000 		.4byte	.LASF203
 8269 1fa1 01       		.byte	0x1
 8270 1fa2 8A02     		.2byte	0x28a
 8271 1fa4 73060000 		.4byte	0x673
 8272 1fa8 53100000 		.4byte	.LLST81
 8273 1fac 2D       		.uleb128 0x2d
 8274 1fad 390B0000 		.4byte	.LASF288
 8275 1fb1 01       		.byte	0x1
 8276 1fb2 8B02     		.2byte	0x28b
 8277 1fb4 68000000 		.4byte	0x68
 8278 1fb8 87100000 		.4byte	.LLST82
 8279 1fbc 30       		.uleb128 0x30
 8280 1fbd AE090000 		.4byte	.LASF290
 8281 1fc1 01       		.byte	0x1
 8282 1fc2 D202     		.2byte	0x2d2
 8283 1fc4 76000000 		.4byte	.L149
 8284 1fc8 25       		.uleb128 0x25
ARM GAS  C:\Users\Phuong\AppData\Local\Temp\ccTHzCbL.s 			page 193


 8285 1fc9 10000000 		.4byte	.LVL277
 8286 1fcd 8D2C0000 		.4byte	0x2c8d
 8287 1fd1 EB1F0000 		.4byte	0x1feb
 8288 1fd5 26       		.uleb128 0x26
 8289 1fd6 01       		.uleb128 0x1
 8290 1fd7 50       		.byte	0x50
 8291 1fd8 01       		.uleb128 0x1
 8292 1fd9 37       		.byte	0x37
 8293 1fda 26       		.uleb128 0x26
 8294 1fdb 01       		.uleb128 0x1
 8295 1fdc 51       		.byte	0x51
 8296 1fdd 05       		.uleb128 0x5
 8297 1fde 03       		.byte	0x3
 8298 1fdf 00000000 		.4byte	.LC0
 8299 1fe3 26       		.uleb128 0x26
 8300 1fe4 01       		.uleb128 0x1
 8301 1fe5 52       		.byte	0x52
 8302 1fe6 03       		.uleb128 0x3
 8303 1fe7 0A       		.byte	0xa
 8304 1fe8 8D02     		.2byte	0x28d
 8305 1fea 00       		.byte	0
 8306 1feb 25       		.uleb128 0x25
 8307 1fec 3A000000 		.4byte	.LVL281
 8308 1ff0 B02D0000 		.4byte	0x2db0
 8309 1ff4 04200000 		.4byte	0x2004
 8310 1ff8 26       		.uleb128 0x26
 8311 1ff9 01       		.uleb128 0x1
 8312 1ffa 50       		.byte	0x50
 8313 1ffb 02       		.uleb128 0x2
 8314 1ffc 75       		.byte	0x75
 8315 1ffd 00       		.sleb128 0
 8316 1ffe 26       		.uleb128 0x26
 8317 1fff 01       		.uleb128 0x1
 8318 2000 51       		.byte	0x51
 8319 2001 01       		.uleb128 0x1
 8320 2002 30       		.byte	0x30
 8321 2003 00       		.byte	0
 8322 2004 25       		.uleb128 0x25
 8323 2005 48000000 		.4byte	.LVL282
 8324 2009 BB2D0000 		.4byte	0x2dbb
 8325 200d 1D200000 		.4byte	0x201d
 8326 2011 26       		.uleb128 0x26
 8327 2012 01       		.uleb128 0x1
 8328 2013 50       		.byte	0x50
 8329 2014 02       		.uleb128 0x2
 8330 2015 74       		.byte	0x74
 8331 2016 0C       		.sleb128 12
 8332 2017 26       		.uleb128 0x26
 8333 2018 01       		.uleb128 0x1
 8334 2019 51       		.byte	0x51
 8335 201a 01       		.uleb128 0x1
 8336 201b 30       		.byte	0x30
 8337 201c 00       		.byte	0
 8338 201d 25       		.uleb128 0x25
 8339 201e 52000000 		.4byte	.LVL283
 8340 2022 C62D0000 		.4byte	0x2dc6
 8341 2026 31200000 		.4byte	0x2031
ARM GAS  C:\Users\Phuong\AppData\Local\Temp\ccTHzCbL.s 			page 194


 8342 202a 26       		.uleb128 0x26
 8343 202b 01       		.uleb128 0x1
 8344 202c 50       		.byte	0x50
 8345 202d 02       		.uleb128 0x2
 8346 202e 75       		.byte	0x75
 8347 202f 00       		.sleb128 0
 8348 2030 00       		.byte	0
 8349 2031 25       		.uleb128 0x25
 8350 2032 5C000000 		.4byte	.LVL284
 8351 2036 D22D0000 		.4byte	0x2dd2
 8352 203a 45200000 		.4byte	0x2045
 8353 203e 26       		.uleb128 0x26
 8354 203f 01       		.uleb128 0x1
 8355 2040 50       		.byte	0x50
 8356 2041 02       		.uleb128 0x2
 8357 2042 74       		.byte	0x74
 8358 2043 14       		.sleb128 20
 8359 2044 00       		.byte	0
 8360 2045 2A       		.uleb128 0x2a
 8361 2046 7E000000 		.4byte	.LVL286
 8362 204a DE2D0000 		.4byte	0x2dde
 8363 204e 26       		.uleb128 0x26
 8364 204f 01       		.uleb128 0x1
 8365 2050 50       		.byte	0x50
 8366 2051 01       		.uleb128 0x1
 8367 2052 37       		.byte	0x37
 8368 2053 26       		.uleb128 0x26
 8369 2054 01       		.uleb128 0x1
 8370 2055 51       		.byte	0x51
 8371 2056 02       		.uleb128 0x2
 8372 2057 74       		.byte	0x74
 8373 2058 00       		.sleb128 0
 8374 2059 00       		.byte	0
 8375 205a 00       		.byte	0
 8376 205b 32       		.uleb128 0x32
 8377 205c 2F010000 		.4byte	.LASF292
 8378 2060 01       		.byte	0x1
 8379 2061 DE02     		.2byte	0x2de
 8380 2063 00000000 		.4byte	.LFB64
 8381 2067 2C000000 		.4byte	.LFE64-.LFB64
 8382 206b 01       		.uleb128 0x1
 8383 206c 9C       		.byte	0x9c
 8384 206d E7200000 		.4byte	0x20e7
 8385 2071 1C       		.uleb128 0x1c
 8386 2072 7D000000 		.4byte	.LASF203
 8387 2076 01       		.byte	0x1
 8388 2077 DE02     		.2byte	0x2de
 8389 2079 73060000 		.4byte	0x673
 8390 207d 9B100000 		.4byte	.LLST83
 8391 2081 25       		.uleb128 0x25
 8392 2082 0A000000 		.4byte	.LVL293
 8393 2086 812C0000 		.4byte	0x2c81
 8394 208a 95200000 		.4byte	0x2095
 8395 208e 26       		.uleb128 0x26
 8396 208f 01       		.uleb128 0x1
 8397 2090 50       		.byte	0x50
 8398 2091 02       		.uleb128 0x2
ARM GAS  C:\Users\Phuong\AppData\Local\Temp\ccTHzCbL.s 			page 195


 8399 2092 74       		.byte	0x74
 8400 2093 10       		.sleb128 16
 8401 2094 00       		.byte	0
 8402 2095 25       		.uleb128 0x25
 8403 2096 12000000 		.4byte	.LVL294
 8404 209a 812C0000 		.4byte	0x2c81
 8405 209e A9200000 		.4byte	0x20a9
 8406 20a2 26       		.uleb128 0x26
 8407 20a3 01       		.uleb128 0x1
 8408 20a4 50       		.byte	0x50
 8409 20a5 02       		.uleb128 0x2
 8410 20a6 74       		.byte	0x74
 8411 20a7 14       		.sleb128 20
 8412 20a8 00       		.byte	0
 8413 20a9 25       		.uleb128 0x25
 8414 20aa 1C000000 		.4byte	.LVL295
 8415 20ae E92D0000 		.4byte	0x2de9
 8416 20b2 BD200000 		.4byte	0x20bd
 8417 20b6 26       		.uleb128 0x26
 8418 20b7 01       		.uleb128 0x1
 8419 20b8 50       		.byte	0x50
 8420 20b9 02       		.uleb128 0x2
 8421 20ba 75       		.byte	0x75
 8422 20bb 00       		.sleb128 0
 8423 20bc 00       		.byte	0
 8424 20bd 25       		.uleb128 0x25
 8425 20be 22000000 		.4byte	.LVL296
 8426 20c2 F42D0000 		.4byte	0x2df4
 8427 20c6 D1200000 		.4byte	0x20d1
 8428 20ca 26       		.uleb128 0x26
 8429 20cb 01       		.uleb128 0x1
 8430 20cc 50       		.byte	0x50
 8431 20cd 02       		.uleb128 0x2
 8432 20ce 75       		.byte	0x75
 8433 20cf 00       		.sleb128 0
 8434 20d0 00       		.byte	0
 8435 20d1 2A       		.uleb128 0x2a
 8436 20d2 2A000000 		.4byte	.LVL297
 8437 20d6 DE2D0000 		.4byte	0x2dde
 8438 20da 26       		.uleb128 0x26
 8439 20db 01       		.uleb128 0x1
 8440 20dc 50       		.byte	0x50
 8441 20dd 01       		.uleb128 0x1
 8442 20de 37       		.byte	0x37
 8443 20df 26       		.uleb128 0x26
 8444 20e0 01       		.uleb128 0x1
 8445 20e1 51       		.byte	0x51
 8446 20e2 02       		.uleb128 0x2
 8447 20e3 74       		.byte	0x74
 8448 20e4 00       		.sleb128 0
 8449 20e5 00       		.byte	0
 8450 20e6 00       		.byte	0
 8451 20e7 1B       		.uleb128 0x1b
 8452 20e8 760C0000 		.4byte	.LASF293
 8453 20ec 01       		.byte	0x1
 8454 20ed F902     		.2byte	0x2f9
 8455 20ef 00000000 		.4byte	.LFB65
ARM GAS  C:\Users\Phuong\AppData\Local\Temp\ccTHzCbL.s 			page 196


 8456 20f3 A8000000 		.4byte	.LFE65-.LFB65
 8457 20f7 01       		.uleb128 0x1
 8458 20f8 9C       		.byte	0x9c
 8459 20f9 44220000 		.4byte	0x2244
 8460 20fd 1C       		.uleb128 0x1c
 8461 20fe 7D000000 		.4byte	.LASF203
 8462 2102 01       		.byte	0x1
 8463 2103 F902     		.2byte	0x2f9
 8464 2105 73060000 		.4byte	0x673
 8465 2109 D4100000 		.4byte	.LLST84
 8466 210d 34       		.uleb128 0x34
 8467 210e 6D656D00 		.ascii	"mem\000"
 8468 2112 01       		.byte	0x1
 8469 2113 FB02     		.2byte	0x2fb
 8470 2115 88000000 		.4byte	0x88
 8471 2119 02       		.uleb128 0x2
 8472 211a 91       		.byte	0x91
 8473 211b 6C       		.sleb128 -20
 8474 211c 1E       		.uleb128 0x1e
 8475 211d 7000     		.ascii	"p\000"
 8476 211f 01       		.byte	0x1
 8477 2120 FD02     		.2byte	0x2fd
 8478 2122 C2020000 		.4byte	0x2c2
 8479 2126 0D110000 		.4byte	.LLST85
 8480 212a 29       		.uleb128 0x29
 8481 212b 6E000000 		.4byte	.LBB18
 8482 212f 1A000000 		.4byte	.LBE18-.LBB18
 8483 2133 75210000 		.4byte	0x2175
 8484 2137 2D       		.uleb128 0x2d
 8485 2138 C7110000 		.4byte	.LASF294
 8486 213c 01       		.byte	0x1
 8487 213d 1E03     		.2byte	0x31e
 8488 213f 73060000 		.4byte	0x673
 8489 2143 20110000 		.4byte	.LLST86
 8490 2147 25       		.uleb128 0x25
 8491 2148 74000000 		.4byte	.LVL314
 8492 214c E7200000 		.4byte	0x20e7
 8493 2150 5B210000 		.4byte	0x215b
 8494 2154 26       		.uleb128 0x26
 8495 2155 01       		.uleb128 0x1
 8496 2156 50       		.byte	0x50
 8497 2157 02       		.uleb128 0x2
 8498 2158 74       		.byte	0x74
 8499 2159 00       		.sleb128 0
 8500 215a 00       		.byte	0
 8501 215b 1F       		.uleb128 0x1f
 8502 215c 7E000000 		.4byte	.LVL315
 8503 2160 982D0000 		.4byte	0x2d98
 8504 2164 2A       		.uleb128 0x2a
 8505 2165 88000000 		.4byte	.LVL316
 8506 2169 5B200000 		.4byte	0x205b
 8507 216d 26       		.uleb128 0x26
 8508 216e 01       		.uleb128 0x1
 8509 216f 50       		.byte	0x50
 8510 2170 02       		.uleb128 0x2
 8511 2171 74       		.byte	0x74
 8512 2172 00       		.sleb128 0
ARM GAS  C:\Users\Phuong\AppData\Local\Temp\ccTHzCbL.s 			page 197


 8513 2173 00       		.byte	0
 8514 2174 00       		.byte	0
 8515 2175 25       		.uleb128 0x25
 8516 2176 10000000 		.4byte	.LVL302
 8517 217a 812C0000 		.4byte	0x2c81
 8518 217e 89210000 		.4byte	0x2189
 8519 2182 26       		.uleb128 0x26
 8520 2183 01       		.uleb128 0x1
 8521 2184 50       		.byte	0x50
 8522 2185 02       		.uleb128 0x2
 8523 2186 74       		.byte	0x74
 8524 2187 00       		.sleb128 0
 8525 2188 00       		.byte	0
 8526 2189 1F       		.uleb128 0x1f
 8527 218a 32000000 		.4byte	.LVL304
 8528 218e A42D0000 		.4byte	0x2da4
 8529 2192 25       		.uleb128 0x25
 8530 2193 38000000 		.4byte	.LVL305
 8531 2197 762C0000 		.4byte	0x2c76
 8532 219b A6210000 		.4byte	0x21a6
 8533 219f 26       		.uleb128 0x26
 8534 21a0 01       		.uleb128 0x1
 8535 21a1 50       		.byte	0x50
 8536 21a2 02       		.uleb128 0x2
 8537 21a3 76       		.byte	0x76
 8538 21a4 00       		.sleb128 0
 8539 21a5 00       		.byte	0
 8540 21a6 1F       		.uleb128 0x1f
 8541 21a7 40000000 		.4byte	.LVL307
 8542 21ab A42C0000 		.4byte	0x2ca4
 8543 21af 25       		.uleb128 0x25
 8544 21b0 48000000 		.4byte	.LVL308
 8545 21b4 FF2D0000 		.4byte	0x2dff
 8546 21b8 C9210000 		.4byte	0x21c9
 8547 21bc 26       		.uleb128 0x26
 8548 21bd 01       		.uleb128 0x1
 8549 21be 50       		.byte	0x50
 8550 21bf 02       		.uleb128 0x2
 8551 21c0 74       		.byte	0x74
 8552 21c1 00       		.sleb128 0
 8553 21c2 26       		.uleb128 0x26
 8554 21c3 01       		.uleb128 0x1
 8555 21c4 51       		.byte	0x51
 8556 21c5 02       		.uleb128 0x2
 8557 21c6 91       		.byte	0x91
 8558 21c7 6C       		.sleb128 -20
 8559 21c8 00       		.byte	0
 8560 21c9 25       		.uleb128 0x25
 8561 21ca 52000000 		.4byte	.LVL309
 8562 21ce C62D0000 		.4byte	0x2dc6
 8563 21d2 DD210000 		.4byte	0x21dd
 8564 21d6 26       		.uleb128 0x26
 8565 21d7 01       		.uleb128 0x1
 8566 21d8 50       		.byte	0x50
 8567 21d9 02       		.uleb128 0x2
 8568 21da 74       		.byte	0x74
 8569 21db 00       		.sleb128 0
ARM GAS  C:\Users\Phuong\AppData\Local\Temp\ccTHzCbL.s 			page 198


 8570 21dc 00       		.byte	0
 8571 21dd 25       		.uleb128 0x25
 8572 21de 58000000 		.4byte	.LVL310
 8573 21e2 D22D0000 		.4byte	0x2dd2
 8574 21e6 F1210000 		.4byte	0x21f1
 8575 21ea 26       		.uleb128 0x26
 8576 21eb 01       		.uleb128 0x1
 8577 21ec 50       		.byte	0x50
 8578 21ed 02       		.uleb128 0x2
 8579 21ee 74       		.byte	0x74
 8580 21ef 00       		.sleb128 0
 8581 21f0 00       		.byte	0
 8582 21f1 25       		.uleb128 0x25
 8583 21f2 60000000 		.4byte	.LVL312
 8584 21f6 812C0000 		.4byte	0x2c81
 8585 21fa 05220000 		.4byte	0x2205
 8586 21fe 26       		.uleb128 0x26
 8587 21ff 01       		.uleb128 0x1
 8588 2200 50       		.byte	0x50
 8589 2201 02       		.uleb128 0x2
 8590 2202 75       		.byte	0x75
 8591 2203 00       		.sleb128 0
 8592 2204 00       		.byte	0
 8593 2205 25       		.uleb128 0x25
 8594 2206 90000000 		.4byte	.LVL317
 8595 220a FF2D0000 		.4byte	0x2dff
 8596 220e 1F220000 		.4byte	0x221f
 8597 2212 26       		.uleb128 0x26
 8598 2213 01       		.uleb128 0x1
 8599 2214 50       		.byte	0x50
 8600 2215 02       		.uleb128 0x2
 8601 2216 75       		.byte	0x75
 8602 2217 00       		.sleb128 0
 8603 2218 26       		.uleb128 0x26
 8604 2219 01       		.uleb128 0x1
 8605 221a 51       		.byte	0x51
 8606 221b 02       		.uleb128 0x2
 8607 221c 91       		.byte	0x91
 8608 221d 6C       		.sleb128 -20
 8609 221e 00       		.byte	0
 8610 221f 25       		.uleb128 0x25
 8611 2220 9A000000 		.4byte	.LVL318
 8612 2224 C62D0000 		.4byte	0x2dc6
 8613 2228 33220000 		.4byte	0x2233
 8614 222c 26       		.uleb128 0x26
 8615 222d 01       		.uleb128 0x1
 8616 222e 50       		.byte	0x50
 8617 222f 02       		.uleb128 0x2
 8618 2230 75       		.byte	0x75
 8619 2231 00       		.sleb128 0
 8620 2232 00       		.byte	0
 8621 2233 2A       		.uleb128 0x2a
 8622 2234 A0000000 		.4byte	.LVL319
 8623 2238 D22D0000 		.4byte	0x2dd2
 8624 223c 26       		.uleb128 0x26
 8625 223d 01       		.uleb128 0x1
 8626 223e 50       		.byte	0x50
ARM GAS  C:\Users\Phuong\AppData\Local\Temp\ccTHzCbL.s 			page 199


 8627 223f 02       		.uleb128 0x2
 8628 2240 75       		.byte	0x75
 8629 2241 00       		.sleb128 0
 8630 2242 00       		.byte	0
 8631 2243 00       		.byte	0
 8632 2244 2C       		.uleb128 0x2c
 8633 2245 96090000 		.4byte	.LASF295
 8634 2249 01       		.byte	0x1
 8635 224a DB01     		.2byte	0x1db
 8636 224c 93010000 		.4byte	0x193
 8637 2250 00000000 		.4byte	.LFB60
 8638 2254 14010000 		.4byte	.LFE60-.LFB60
 8639 2258 01       		.uleb128 0x1
 8640 2259 9C       		.byte	0x9c
 8641 225a 6A240000 		.4byte	0x246a
 8642 225e 1D       		.uleb128 0x1d
 8643 225f 61726700 		.ascii	"arg\000"
 8644 2263 01       		.byte	0x1
 8645 2264 DB01     		.2byte	0x1db
 8646 2266 88000000 		.4byte	0x88
 8647 226a 33110000 		.4byte	.LLST87
 8648 226e 1C       		.uleb128 0x1c
 8649 226f 8C0F0000 		.4byte	.LASF296
 8650 2273 01       		.byte	0x1
 8651 2274 DB01     		.2byte	0x1db
 8652 2276 7D0A0000 		.4byte	0xa7d
 8653 227a 8E110000 		.4byte	.LLST88
 8654 227e 1D       		.uleb128 0x1d
 8655 227f 65727200 		.ascii	"err\000"
 8656 2283 01       		.byte	0x1
 8657 2284 DB01     		.2byte	0x1db
 8658 2286 93010000 		.4byte	0x193
 8659 228a D0110000 		.4byte	.LLST89
 8660 228e 2D       		.uleb128 0x2d
 8661 228f C7110000 		.4byte	.LASF294
 8662 2293 01       		.byte	0x1
 8663 2294 DD01     		.2byte	0x1dd
 8664 2296 73060000 		.4byte	0x673
 8665 229a 0A120000 		.4byte	.LLST90
 8666 229e 2D       		.uleb128 0x2d
 8667 229f 7D000000 		.4byte	.LASF203
 8668 22a3 01       		.byte	0x1
 8669 22a4 DE01     		.2byte	0x1de
 8670 22a6 73060000 		.4byte	0x673
 8671 22aa 49120000 		.4byte	.LLST91
 8672 22ae 29       		.uleb128 0x29
 8673 22af 8A000000 		.4byte	.LBB19
 8674 22b3 4C000000 		.4byte	.LBE19-.LBB19
 8675 22b7 86230000 		.4byte	0x2386
 8676 22bb 1E       		.uleb128 0x1e
 8677 22bc 70636200 		.ascii	"pcb\000"
 8678 22c0 01       		.byte	0x1
 8679 22c1 0B02     		.2byte	0x20b
 8680 22c3 7D0A0000 		.4byte	0xa7d
 8681 22c7 A4120000 		.4byte	.LLST92
 8682 22cb 25       		.uleb128 0x25
 8683 22cc 94000000 		.4byte	.LVL337
ARM GAS  C:\Users\Phuong\AppData\Local\Temp\ccTHzCbL.s 			page 200


 8684 22d0 C52C0000 		.4byte	0x2cc5
 8685 22d4 E4220000 		.4byte	0x22e4
 8686 22d8 26       		.uleb128 0x26
 8687 22d9 01       		.uleb128 0x1
 8688 22da 50       		.byte	0x50
 8689 22db 02       		.uleb128 0x2
 8690 22dc 74       		.byte	0x74
 8691 22dd 00       		.sleb128 0
 8692 22de 26       		.uleb128 0x26
 8693 22df 01       		.uleb128 0x1
 8694 22e0 51       		.byte	0x51
 8695 22e1 01       		.uleb128 0x1
 8696 22e2 30       		.byte	0x30
 8697 22e3 00       		.byte	0
 8698 22e4 25       		.uleb128 0x25
 8699 22e5 9C000000 		.4byte	.LVL338
 8700 22e9 D12C0000 		.4byte	0x2cd1
 8701 22ed FD220000 		.4byte	0x22fd
 8702 22f1 26       		.uleb128 0x26
 8703 22f2 01       		.uleb128 0x1
 8704 22f3 50       		.byte	0x50
 8705 22f4 02       		.uleb128 0x2
 8706 22f5 74       		.byte	0x74
 8707 22f6 00       		.sleb128 0
 8708 22f7 26       		.uleb128 0x26
 8709 22f8 01       		.uleb128 0x1
 8710 22f9 51       		.byte	0x51
 8711 22fa 01       		.uleb128 0x1
 8712 22fb 30       		.byte	0x30
 8713 22fc 00       		.byte	0
 8714 22fd 25       		.uleb128 0x25
 8715 22fe A4000000 		.4byte	.LVL339
 8716 2302 DD2C0000 		.4byte	0x2cdd
 8717 2306 16230000 		.4byte	0x2316
 8718 230a 26       		.uleb128 0x26
 8719 230b 01       		.uleb128 0x1
 8720 230c 50       		.byte	0x50
 8721 230d 02       		.uleb128 0x2
 8722 230e 74       		.byte	0x74
 8723 230f 00       		.sleb128 0
 8724 2310 26       		.uleb128 0x26
 8725 2311 01       		.uleb128 0x1
 8726 2312 51       		.byte	0x51
 8727 2313 01       		.uleb128 0x1
 8728 2314 30       		.byte	0x30
 8729 2315 00       		.byte	0
 8730 2316 25       		.uleb128 0x25
 8731 2317 AE000000 		.4byte	.LVL340
 8732 231b E92C0000 		.4byte	0x2ce9
 8733 231f 34230000 		.4byte	0x2334
 8734 2323 26       		.uleb128 0x26
 8735 2324 01       		.uleb128 0x1
 8736 2325 50       		.byte	0x50
 8737 2326 02       		.uleb128 0x2
 8738 2327 74       		.byte	0x74
 8739 2328 00       		.sleb128 0
 8740 2329 26       		.uleb128 0x26
ARM GAS  C:\Users\Phuong\AppData\Local\Temp\ccTHzCbL.s 			page 201


 8741 232a 01       		.uleb128 0x1
 8742 232b 51       		.byte	0x51
 8743 232c 01       		.uleb128 0x1
 8744 232d 30       		.byte	0x30
 8745 232e 26       		.uleb128 0x26
 8746 232f 01       		.uleb128 0x1
 8747 2330 52       		.byte	0x52
 8748 2331 01       		.uleb128 0x1
 8749 2332 30       		.byte	0x30
 8750 2333 00       		.byte	0
 8751 2334 25       		.uleb128 0x25
 8752 2335 B6000000 		.4byte	.LVL341
 8753 2339 F52C0000 		.4byte	0x2cf5
 8754 233d 4D230000 		.4byte	0x234d
 8755 2341 26       		.uleb128 0x26
 8756 2342 01       		.uleb128 0x1
 8757 2343 50       		.byte	0x50
 8758 2344 02       		.uleb128 0x2
 8759 2345 74       		.byte	0x74
 8760 2346 00       		.sleb128 0
 8761 2347 26       		.uleb128 0x26
 8762 2348 01       		.uleb128 0x1
 8763 2349 51       		.byte	0x51
 8764 234a 01       		.uleb128 0x1
 8765 234b 30       		.byte	0x30
 8766 234c 00       		.byte	0
 8767 234d 25       		.uleb128 0x25
 8768 234e C4000000 		.4byte	.LVL343
 8769 2352 C62D0000 		.4byte	0x2dc6
 8770 2356 61230000 		.4byte	0x2361
 8771 235a 26       		.uleb128 0x26
 8772 235b 01       		.uleb128 0x1
 8773 235c 50       		.byte	0x50
 8774 235d 02       		.uleb128 0x2
 8775 235e 74       		.byte	0x74
 8776 235f 00       		.sleb128 0
 8777 2360 00       		.byte	0
 8778 2361 25       		.uleb128 0x25
 8779 2362 CA000000 		.4byte	.LVL344
 8780 2366 D22D0000 		.4byte	0x2dd2
 8781 236a 75230000 		.4byte	0x2375
 8782 236e 26       		.uleb128 0x26
 8783 236f 01       		.uleb128 0x1
 8784 2370 50       		.byte	0x50
 8785 2371 02       		.uleb128 0x2
 8786 2372 74       		.byte	0x74
 8787 2373 00       		.sleb128 0
 8788 2374 00       		.byte	0
 8789 2375 2A       		.uleb128 0x2a
 8790 2376 D0000000 		.4byte	.LVL345
 8791 237a 5B200000 		.4byte	0x205b
 8792 237e 26       		.uleb128 0x26
 8793 237f 01       		.uleb128 0x1
 8794 2380 50       		.byte	0x50
 8795 2381 02       		.uleb128 0x2
 8796 2382 75       		.byte	0x75
 8797 2383 00       		.sleb128 0
ARM GAS  C:\Users\Phuong\AppData\Local\Temp\ccTHzCbL.s 			page 202


 8798 2384 00       		.byte	0
 8799 2385 00       		.byte	0
 8800 2386 25       		.uleb128 0x25
 8801 2387 18000000 		.4byte	.LVL324
 8802 238b 812C0000 		.4byte	0x2c81
 8803 238f 9A230000 		.4byte	0x239a
 8804 2393 26       		.uleb128 0x26
 8805 2394 01       		.uleb128 0x1
 8806 2395 50       		.byte	0x50
 8807 2396 02       		.uleb128 0x2
 8808 2397 76       		.byte	0x76
 8809 2398 00       		.sleb128 0
 8810 2399 00       		.byte	0
 8811 239a 25       		.uleb128 0x25
 8812 239b 28000000 		.4byte	.LVL325
 8813 239f 982C0000 		.4byte	0x2c98
 8814 23a3 B7230000 		.4byte	0x23b7
 8815 23a7 26       		.uleb128 0x26
 8816 23a8 01       		.uleb128 0x1
 8817 23a9 50       		.byte	0x50
 8818 23aa 02       		.uleb128 0x2
 8819 23ab 76       		.byte	0x76
 8820 23ac 00       		.sleb128 0
 8821 23ad 26       		.uleb128 0x26
 8822 23ae 01       		.uleb128 0x1
 8823 23af 51       		.byte	0x51
 8824 23b0 05       		.uleb128 0x5
 8825 23b1 03       		.byte	0x3
 8826 23b2 00000000 		.4byte	netconn_aborted
 8827 23b6 00       		.byte	0
 8828 23b7 2E       		.uleb128 0x2e
 8829 23b8 3A000000 		.4byte	.LVL326
 8830 23bc D1230000 		.4byte	0x23d1
 8831 23c0 26       		.uleb128 0x26
 8832 23c1 01       		.uleb128 0x1
 8833 23c2 50       		.byte	0x50
 8834 23c3 02       		.uleb128 0x2
 8835 23c4 74       		.byte	0x74
 8836 23c5 00       		.sleb128 0
 8837 23c6 26       		.uleb128 0x26
 8838 23c7 01       		.uleb128 0x1
 8839 23c8 51       		.byte	0x51
 8840 23c9 01       		.uleb128 0x1
 8841 23ca 30       		.byte	0x30
 8842 23cb 26       		.uleb128 0x26
 8843 23cc 01       		.uleb128 0x1
 8844 23cd 52       		.byte	0x52
 8845 23ce 01       		.uleb128 0x1
 8846 23cf 30       		.byte	0x30
 8847 23d0 00       		.byte	0
 8848 23d1 1F       		.uleb128 0x1f
 8849 23d2 48000000 		.4byte	.LVL327
 8850 23d6 641F0000 		.4byte	0x1f64
 8851 23da 25       		.uleb128 0x25
 8852 23db 54000000 		.4byte	.LVL330
 8853 23df 982C0000 		.4byte	0x2c98
 8854 23e3 F7230000 		.4byte	0x23f7
ARM GAS  C:\Users\Phuong\AppData\Local\Temp\ccTHzCbL.s 			page 203


 8855 23e7 26       		.uleb128 0x26
 8856 23e8 01       		.uleb128 0x1
 8857 23e9 50       		.byte	0x50
 8858 23ea 02       		.uleb128 0x2
 8859 23eb 76       		.byte	0x76
 8860 23ec 00       		.sleb128 0
 8861 23ed 26       		.uleb128 0x26
 8862 23ee 01       		.uleb128 0x1
 8863 23ef 51       		.byte	0x51
 8864 23f0 05       		.uleb128 0x5
 8865 23f1 03       		.byte	0x3
 8866 23f2 00000000 		.4byte	netconn_aborted
 8867 23f6 00       		.byte	0
 8868 23f7 2E       		.uleb128 0x2e
 8869 23f8 66000000 		.4byte	.LVL331
 8870 23fc 11240000 		.4byte	0x2411
 8871 2400 26       		.uleb128 0x26
 8872 2401 01       		.uleb128 0x1
 8873 2402 50       		.byte	0x50
 8874 2403 02       		.uleb128 0x2
 8875 2404 74       		.byte	0x74
 8876 2405 00       		.sleb128 0
 8877 2406 26       		.uleb128 0x26
 8878 2407 01       		.uleb128 0x1
 8879 2408 51       		.byte	0x51
 8880 2409 01       		.uleb128 0x1
 8881 240a 30       		.byte	0x30
 8882 240b 26       		.uleb128 0x26
 8883 240c 01       		.uleb128 0x1
 8884 240d 52       		.byte	0x52
 8885 240e 01       		.uleb128 0x1
 8886 240f 30       		.byte	0x30
 8887 2410 00       		.byte	0
 8888 2411 25       		.uleb128 0x25
 8889 2412 72000000 		.4byte	.LVL333
 8890 2416 25140000 		.4byte	0x1425
 8891 241a 25240000 		.4byte	0x2425
 8892 241e 26       		.uleb128 0x26
 8893 241f 01       		.uleb128 0x1
 8894 2420 50       		.byte	0x50
 8895 2421 02       		.uleb128 0x2
 8896 2422 75       		.byte	0x75
 8897 2423 00       		.sleb128 0
 8898 2424 00       		.byte	0
 8899 2425 25       		.uleb128 0x25
 8900 2426 7E000000 		.4byte	.LVL334
 8901 242a 0B2E0000 		.4byte	0x2e0b
 8902 242e 39240000 		.4byte	0x2439
 8903 2432 26       		.uleb128 0x26
 8904 2433 01       		.uleb128 0x1
 8905 2434 50       		.byte	0x50
 8906 2435 02       		.uleb128 0x2
 8907 2436 77       		.byte	0x77
 8908 2437 00       		.sleb128 0
 8909 2438 00       		.byte	0
 8910 2439 25       		.uleb128 0x25
 8911 243a 86000000 		.4byte	.LVL335
ARM GAS  C:\Users\Phuong\AppData\Local\Temp\ccTHzCbL.s 			page 204


 8912 243e 982C0000 		.4byte	0x2c98
 8913 2442 53240000 		.4byte	0x2453
 8914 2446 26       		.uleb128 0x26
 8915 2447 01       		.uleb128 0x1
 8916 2448 50       		.byte	0x50
 8917 2449 02       		.uleb128 0x2
 8918 244a 76       		.byte	0x76
 8919 244b 00       		.sleb128 0
 8920 244c 26       		.uleb128 0x26
 8921 244d 01       		.uleb128 0x1
 8922 244e 51       		.byte	0x51
 8923 244f 02       		.uleb128 0x2
 8924 2450 75       		.byte	0x75
 8925 2451 00       		.sleb128 0
 8926 2452 00       		.byte	0
 8927 2453 27       		.uleb128 0x27
 8928 2454 E4000000 		.4byte	.LVL347
 8929 2458 26       		.uleb128 0x26
 8930 2459 01       		.uleb128 0x1
 8931 245a 50       		.byte	0x50
 8932 245b 02       		.uleb128 0x2
 8933 245c 74       		.byte	0x74
 8934 245d 00       		.sleb128 0
 8935 245e 26       		.uleb128 0x26
 8936 245f 01       		.uleb128 0x1
 8937 2460 51       		.byte	0x51
 8938 2461 01       		.uleb128 0x1
 8939 2462 30       		.byte	0x30
 8940 2463 26       		.uleb128 0x26
 8941 2464 01       		.uleb128 0x1
 8942 2465 52       		.byte	0x52
 8943 2466 01       		.uleb128 0x1
 8944 2467 30       		.byte	0x30
 8945 2468 00       		.byte	0
 8946 2469 00       		.byte	0
 8947 246a 32       		.uleb128 0x32
 8948 246b A9070000 		.4byte	.LASF297
 8949 246f 01       		.byte	0x1
 8950 2470 FB03     		.2byte	0x3fb
 8951 2472 00000000 		.4byte	.LFB67
 8952 2476 C8000000 		.4byte	.LFE67-.LFB67
 8953 247a 01       		.uleb128 0x1
 8954 247b 9C       		.byte	0x9c
 8955 247c 3D250000 		.4byte	0x253d
 8956 2480 1D       		.uleb128 0x1d
 8957 2481 6D00     		.ascii	"m\000"
 8958 2483 01       		.byte	0x1
 8959 2484 FB03     		.2byte	0x3fb
 8960 2486 88000000 		.4byte	0x88
 8961 248a B7120000 		.4byte	.LLST93
 8962 248e 1E       		.uleb128 0x1e
 8963 248f 6D736700 		.ascii	"msg\000"
 8964 2493 01       		.byte	0x1
 8965 2494 FD03     		.2byte	0x3fd
 8966 2496 E20B0000 		.4byte	0xbe2
 8967 249a E3120000 		.4byte	.LLST94
 8968 249e 2D       		.uleb128 0x2d
ARM GAS  C:\Users\Phuong\AppData\Local\Temp\ccTHzCbL.s 			page 205


 8969 249f E6100000 		.4byte	.LASF99
 8970 24a3 01       		.byte	0x1
 8971 24a4 FF03     		.2byte	0x3ff
 8972 24a6 D2050000 		.4byte	0x5d2
 8973 24aa 0F130000 		.4byte	.LLST95
 8974 24ae 29       		.uleb128 0x29
 8975 24af A6000000 		.4byte	.LBB20
 8976 24b3 18000000 		.4byte	.LBE20-.LBB20
 8977 24b7 DE240000 		.4byte	0x24de
 8978 24bb 2D       		.uleb128 0x2d
 8979 24bc 28100000 		.4byte	.LASF268
 8980 24c0 01       		.byte	0x1
 8981 24c1 5504     		.2byte	0x455
 8982 24c3 36010000 		.4byte	0x136
 8983 24c7 47130000 		.4byte	.LLST96
 8984 24cb 1F       		.uleb128 0x1f
 8985 24cc AA000000 		.4byte	.LVL369
 8986 24d0 392D0000 		.4byte	0x2d39
 8987 24d4 1F       		.uleb128 0x1f
 8988 24d5 BE000000 		.4byte	.LVL370
 8989 24d9 452D0000 		.4byte	0x2d45
 8990 24dd 00       		.byte	0
 8991 24de 1F       		.uleb128 0x1f
 8992 24df 2E000000 		.4byte	.LVL362
 8993 24e3 E7200000 		.4byte	0x20e7
 8994 24e7 1F       		.uleb128 0x1f
 8995 24e8 4E000000 		.4byte	.LVL363
 8996 24ec 172E0000 		.4byte	0x2e17
 8997 24f0 1F       		.uleb128 0x1f
 8998 24f1 5C000000 		.4byte	.LVL364
 8999 24f5 222E0000 		.4byte	0x2e22
 9000 24f9 1F       		.uleb128 0x1f
 9001 24fa 70000000 		.4byte	.LVL365
 9002 24fe 051A0000 		.4byte	0x1a05
 9003 2502 2E       		.uleb128 0x2e
 9004 2503 86000000 		.4byte	.LVL366
 9005 2507 16250000 		.4byte	0x2516
 9006 250b 26       		.uleb128 0x26
 9007 250c 01       		.uleb128 0x1
 9008 250d 51       		.byte	0x51
 9009 250e 01       		.uleb128 0x1
 9010 250f 30       		.byte	0x30
 9011 2510 26       		.uleb128 0x26
 9012 2511 01       		.uleb128 0x1
 9013 2512 52       		.byte	0x52
 9014 2513 01       		.uleb128 0x1
 9015 2514 30       		.byte	0x30
 9016 2515 00       		.byte	0
 9017 2516 2E       		.uleb128 0x2e
 9018 2517 94000000 		.4byte	.LVL367
 9019 251b 2A250000 		.4byte	0x252a
 9020 251f 26       		.uleb128 0x26
 9021 2520 01       		.uleb128 0x1
 9022 2521 51       		.byte	0x51
 9023 2522 01       		.uleb128 0x1
 9024 2523 32       		.byte	0x32
 9025 2524 26       		.uleb128 0x26
ARM GAS  C:\Users\Phuong\AppData\Local\Temp\ccTHzCbL.s 			page 206


 9026 2525 01       		.uleb128 0x1
 9027 2526 52       		.byte	0x52
 9028 2527 01       		.uleb128 0x1
 9029 2528 30       		.byte	0x30
 9030 2529 00       		.byte	0
 9031 252a 1F       		.uleb128 0x1f
 9032 252b 9C000000 		.4byte	.LVL368
 9033 252f 512D0000 		.4byte	0x2d51
 9034 2533 1F       		.uleb128 0x1f
 9035 2534 C6000000 		.4byte	.LVL371
 9036 2538 6B2C0000 		.4byte	0x2c6b
 9037 253c 00       		.byte	0
 9038 253d 32       		.uleb128 0x32
 9039 253e 1D070000 		.4byte	.LASF298
 9040 2542 01       		.byte	0x1
 9041 2543 6104     		.2byte	0x461
 9042 2545 00000000 		.4byte	.LFB68
 9043 2549 7A000000 		.4byte	.LFE68-.LFB68
 9044 254d 01       		.uleb128 0x1
 9045 254e 9C       		.byte	0x9c
 9046 254f C6250000 		.4byte	0x25c6
 9047 2553 1D       		.uleb128 0x1d
 9048 2554 6D00     		.ascii	"m\000"
 9049 2556 01       		.byte	0x1
 9050 2557 6104     		.2byte	0x461
 9051 2559 88000000 		.4byte	0x88
 9052 255d 5A130000 		.4byte	.LLST97
 9053 2561 1E       		.uleb128 0x1e
 9054 2562 6D736700 		.ascii	"msg\000"
 9055 2566 01       		.byte	0x1
 9056 2567 6304     		.2byte	0x463
 9057 2569 E20B0000 		.4byte	0xbe2
 9058 256d 86130000 		.4byte	.LLST98
 9059 2571 29       		.uleb128 0x29
 9060 2572 58000000 		.4byte	.LBB21
 9061 2576 18000000 		.4byte	.LBE21-.LBB21
 9062 257a A1250000 		.4byte	0x25a1
 9063 257e 2D       		.uleb128 0x2d
 9064 257f 28100000 		.4byte	.LASF268
 9065 2583 01       		.byte	0x1
 9066 2584 7F04     		.2byte	0x47f
 9067 2586 36010000 		.4byte	0x136
 9068 258a B2130000 		.4byte	.LLST99
 9069 258e 1F       		.uleb128 0x1f
 9070 258f 5C000000 		.4byte	.LVL379
 9071 2593 392D0000 		.4byte	0x2d39
 9072 2597 1F       		.uleb128 0x1f
 9073 2598 70000000 		.4byte	.LVL380
 9074 259c 452D0000 		.4byte	0x2d45
 9075 25a0 00       		.byte	0
 9076 25a1 1F       		.uleb128 0x1f
 9077 25a2 38000000 		.4byte	.LVL376
 9078 25a6 2D2E0000 		.4byte	0x2e2d
 9079 25aa 1F       		.uleb128 0x1f
 9080 25ab 44000000 		.4byte	.LVL377
 9081 25af 382E0000 		.4byte	0x2e38
 9082 25b3 1F       		.uleb128 0x1f
ARM GAS  C:\Users\Phuong\AppData\Local\Temp\ccTHzCbL.s 			page 207


 9083 25b4 50000000 		.4byte	.LVL378
 9084 25b8 432E0000 		.4byte	0x2e43
 9085 25bc 1F       		.uleb128 0x1f
 9086 25bd 78000000 		.4byte	.LVL381
 9087 25c1 6B2C0000 		.4byte	0x2c6b
 9088 25c5 00       		.byte	0
 9089 25c6 32       		.uleb128 0x32
 9090 25c7 290E0000 		.4byte	.LASF299
 9091 25cb 01       		.byte	0x1
 9092 25cc BC04     		.2byte	0x4bc
 9093 25ce 00000000 		.4byte	.LFB70
 9094 25d2 D8000000 		.4byte	.LFE70-.LFB70
 9095 25d6 01       		.uleb128 0x1
 9096 25d7 9C       		.byte	0x9c
 9097 25d8 84260000 		.4byte	0x2684
 9098 25dc 1D       		.uleb128 0x1d
 9099 25dd 6D00     		.ascii	"m\000"
 9100 25df 01       		.byte	0x1
 9101 25e0 BC04     		.2byte	0x4bc
 9102 25e2 88000000 		.4byte	0x88
 9103 25e6 C5130000 		.4byte	.LLST100
 9104 25ea 1E       		.uleb128 0x1e
 9105 25eb 6D736700 		.ascii	"msg\000"
 9106 25ef 01       		.byte	0x1
 9107 25f0 BE04     		.2byte	0x4be
 9108 25f2 E20B0000 		.4byte	0xbe2
 9109 25f6 F1130000 		.4byte	.LLST101
 9110 25fa 29       		.uleb128 0x29
 9111 25fb 6C000000 		.4byte	.LBB22
 9112 25ff 3C000000 		.4byte	.LBE22-.LBB22
 9113 2603 18260000 		.4byte	0x2618
 9114 2607 2D       		.uleb128 0x2d
 9115 2608 A3010000 		.4byte	.LASF300
 9116 260c 01       		.byte	0x1
 9117 260d DB04     		.2byte	0x4db
 9118 260f FF000000 		.4byte	0xff
 9119 2613 1D140000 		.4byte	.LLST102
 9120 2617 00       		.byte	0
 9121 2618 29       		.uleb128 0x29
 9122 2619 B2000000 		.4byte	.LBB23
 9123 261d 18000000 		.4byte	.LBE23-.LBB23
 9124 2621 48260000 		.4byte	0x2648
 9125 2625 2D       		.uleb128 0x2d
 9126 2626 28100000 		.4byte	.LASF268
 9127 262a 01       		.byte	0x1
 9128 262b F804     		.2byte	0x4f8
 9129 262d 36010000 		.4byte	0x136
 9130 2631 47140000 		.4byte	.LLST103
 9131 2635 1F       		.uleb128 0x1f
 9132 2636 B6000000 		.4byte	.LVL394
 9133 263a 392D0000 		.4byte	0x2d39
 9134 263e 1F       		.uleb128 0x1f
 9135 263f CA000000 		.4byte	.LVL395
 9136 2643 452D0000 		.4byte	0x2d45
 9137 2647 00       		.byte	0
 9138 2648 1F       		.uleb128 0x1f
 9139 2649 2C000000 		.4byte	.LVL386
ARM GAS  C:\Users\Phuong\AppData\Local\Temp\ccTHzCbL.s 			page 208


 9140 264d 4F2E0000 		.4byte	0x2e4f
 9141 2651 1F       		.uleb128 0x1f
 9142 2652 38000000 		.4byte	.LVL387
 9143 2656 5A2E0000 		.4byte	0x2e5a
 9144 265a 1F       		.uleb128 0x1f
 9145 265b 58000000 		.4byte	.LVL388
 9146 265f 25140000 		.4byte	0x1425
 9147 2663 25       		.uleb128 0x25
 9148 2664 66000000 		.4byte	.LVL389
 9149 2668 652E0000 		.4byte	0x2e65
 9150 266c 7A260000 		.4byte	0x267a
 9151 2670 26       		.uleb128 0x26
 9152 2671 01       		.uleb128 0x1
 9153 2672 53       		.byte	0x53
 9154 2673 05       		.uleb128 0x5
 9155 2674 03       		.byte	0x3
 9156 2675 00000000 		.4byte	lwip_netconn_do_connected
 9157 2679 00       		.byte	0
 9158 267a 1F       		.uleb128 0x1f
 9159 267b D2000000 		.4byte	.LVL396
 9160 267f 6B2C0000 		.4byte	0x2c6b
 9161 2683 00       		.byte	0
 9162 2684 32       		.uleb128 0x32
 9163 2685 580D0000 		.4byte	.LASF301
 9164 2689 01       		.byte	0x1
 9165 268a 0305     		.2byte	0x503
 9166 268c 00000000 		.4byte	.LFB71
 9167 2690 48000000 		.4byte	.LFE71-.LFB71
 9168 2694 01       		.uleb128 0x1
 9169 2695 9C       		.byte	0x9c
 9170 2696 FB260000 		.4byte	0x26fb
 9171 269a 1D       		.uleb128 0x1d
 9172 269b 6D00     		.ascii	"m\000"
 9173 269d 01       		.byte	0x1
 9174 269e 0305     		.2byte	0x503
 9175 26a0 88000000 		.4byte	0x88
 9176 26a4 5A140000 		.4byte	.LLST104
 9177 26a8 1E       		.uleb128 0x1e
 9178 26a9 6D736700 		.ascii	"msg\000"
 9179 26ad 01       		.byte	0x1
 9180 26ae 0505     		.2byte	0x505
 9181 26b0 E20B0000 		.4byte	0xbe2
 9182 26b4 9C140000 		.4byte	.LLST105
 9183 26b8 29       		.uleb128 0x29
 9184 26b9 26000000 		.4byte	.LBB24
 9185 26bd 18000000 		.4byte	.LBE24-.LBB24
 9186 26c1 E8260000 		.4byte	0x26e8
 9187 26c5 2D       		.uleb128 0x2d
 9188 26c6 28100000 		.4byte	.LASF268
 9189 26ca 01       		.byte	0x1
 9190 26cb 1005     		.2byte	0x510
 9191 26cd 36010000 		.4byte	0x136
 9192 26d1 DE140000 		.4byte	.LLST106
 9193 26d5 1F       		.uleb128 0x1f
 9194 26d6 2A000000 		.4byte	.LVL404
 9195 26da 392D0000 		.4byte	0x2d39
 9196 26de 1F       		.uleb128 0x1f
ARM GAS  C:\Users\Phuong\AppData\Local\Temp\ccTHzCbL.s 			page 209


 9197 26df 3E000000 		.4byte	.LVL405
 9198 26e3 452D0000 		.4byte	0x2d45
 9199 26e7 00       		.byte	0
 9200 26e8 1F       		.uleb128 0x1f
 9201 26e9 16000000 		.4byte	.LVL401
 9202 26ed 712E0000 		.4byte	0x2e71
 9203 26f1 1F       		.uleb128 0x1f
 9204 26f2 46000000 		.4byte	.LVL406
 9205 26f6 6B2C0000 		.4byte	0x2c6b
 9206 26fa 00       		.byte	0
 9207 26fb 32       		.uleb128 0x32
 9208 26fc 4B0F0000 		.4byte	.LASF302
 9209 2700 01       		.byte	0x1
 9210 2701 1B05     		.2byte	0x51b
 9211 2703 00000000 		.4byte	.LFB72
 9212 2707 08010000 		.4byte	.LFE72-.LFB72
 9213 270b 01       		.uleb128 0x1
 9214 270c 9C       		.byte	0x9c
 9215 270d 2B280000 		.4byte	0x282b
 9216 2711 1D       		.uleb128 0x1d
 9217 2712 6D00     		.ascii	"m\000"
 9218 2714 01       		.byte	0x1
 9219 2715 1B05     		.2byte	0x51b
 9220 2717 88000000 		.4byte	0x88
 9221 271b F1140000 		.4byte	.LLST107
 9222 271f 1E       		.uleb128 0x1e
 9223 2720 6D736700 		.ascii	"msg\000"
 9224 2724 01       		.byte	0x1
 9225 2725 1D05     		.2byte	0x51d
 9226 2727 E20B0000 		.4byte	0xbe2
 9227 272b 1D150000 		.4byte	.LLST108
 9228 272f 29       		.uleb128 0x29
 9229 2730 30000000 		.4byte	.LBB25
 9230 2734 90000000 		.4byte	.LBE25-.LBB25
 9231 2738 F1270000 		.4byte	0x27f1
 9232 273c 2D       		.uleb128 0x2d
 9233 273d 50110000 		.4byte	.LASF303
 9234 2741 01       		.byte	0x1
 9235 2742 2605     		.2byte	0x526
 9236 2744 7D0A0000 		.4byte	0xa7d
 9237 2748 49150000 		.4byte	.LLST109
 9238 274c 2F       		.uleb128 0x2f
 9239 274d 3C000000 		.4byte	.LBB26
 9240 2751 84000000 		.4byte	.LBE26-.LBB26
 9241 2755 34       		.uleb128 0x34
 9242 2756 65727200 		.ascii	"err\000"
 9243 275a 01       		.byte	0x1
 9244 275b 2B05     		.2byte	0x52b
 9245 275d 93010000 		.4byte	0x193
 9246 2761 02       		.uleb128 0x2
 9247 2762 91       		.byte	0x91
 9248 2763 6F       		.sleb128 -17
 9249 2764 2D       		.uleb128 0x2d
 9250 2765 62070000 		.4byte	.LASF214
 9251 2769 01       		.byte	0x1
 9252 276a 2C05     		.2byte	0x52c
 9253 276c FF000000 		.4byte	0xff
ARM GAS  C:\Users\Phuong\AppData\Local\Temp\ccTHzCbL.s 			page 210


 9254 2770 67150000 		.4byte	.LLST110
 9255 2774 25       		.uleb128 0x25
 9256 2775 46000000 		.4byte	.LVL412
 9257 2779 7C2E0000 		.4byte	0x2e7c
 9258 277d 88270000 		.4byte	0x2788
 9259 2781 26       		.uleb128 0x26
 9260 2782 01       		.uleb128 0x1
 9261 2783 52       		.byte	0x52
 9262 2784 02       		.uleb128 0x2
 9263 2785 7D       		.byte	0x7d
 9264 2786 07       		.sleb128 7
 9265 2787 00       		.byte	0
 9266 2788 1F       		.uleb128 0x1f
 9267 2789 5C000000 		.4byte	.LVL415
 9268 278d 812C0000 		.4byte	0x2c81
 9269 2791 1F       		.uleb128 0x1f
 9270 2792 68000000 		.4byte	.LVL416
 9271 2796 C62D0000 		.4byte	0x2dc6
 9272 279a 1F       		.uleb128 0x1f
 9273 279b 70000000 		.4byte	.LVL417
 9274 279f D22D0000 		.4byte	0x2dd2
 9275 27a3 1F       		.uleb128 0x1f
 9276 27a4 7C000000 		.4byte	.LVL418
 9277 27a8 812C0000 		.4byte	0x2c81
 9278 27ac 25       		.uleb128 0x25
 9279 27ad 8A000000 		.4byte	.LVL419
 9280 27b1 B02D0000 		.4byte	0x2db0
 9281 27b5 BF270000 		.4byte	0x27bf
 9282 27b9 26       		.uleb128 0x26
 9283 27ba 01       		.uleb128 0x1
 9284 27bb 51       		.byte	0x51
 9285 27bc 01       		.uleb128 0x1
 9286 27bd 30       		.byte	0x30
 9287 27be 00       		.byte	0
 9288 27bf 1F       		.uleb128 0x1f
 9289 27c0 A6000000 		.4byte	.LVL420
 9290 27c4 C52C0000 		.4byte	0x2cc5
 9291 27c8 25       		.uleb128 0x25
 9292 27c9 B0000000 		.4byte	.LVL421
 9293 27cd 742D0000 		.4byte	0x2d74
 9294 27d1 DF270000 		.4byte	0x27df
 9295 27d5 26       		.uleb128 0x26
 9296 27d6 01       		.uleb128 0x1
 9297 27d7 51       		.byte	0x51
 9298 27d8 05       		.uleb128 0x5
 9299 27d9 03       		.byte	0x3
 9300 27da 00000000 		.4byte	accept_function
 9301 27de 00       		.byte	0
 9302 27df 2A       		.uleb128 0x2a
 9303 27e0 B8000000 		.4byte	.LVL422
 9304 27e4 802D0000 		.4byte	0x2d80
 9305 27e8 26       		.uleb128 0x26
 9306 27e9 01       		.uleb128 0x1
 9307 27ea 50       		.byte	0x50
 9308 27eb 02       		.uleb128 0x2
 9309 27ec 75       		.byte	0x75
 9310 27ed 00       		.sleb128 0
ARM GAS  C:\Users\Phuong\AppData\Local\Temp\ccTHzCbL.s 			page 211


 9311 27ee 00       		.byte	0
 9312 27ef 00       		.byte	0
 9313 27f0 00       		.byte	0
 9314 27f1 29       		.uleb128 0x29
 9315 27f2 E0000000 		.4byte	.LBB27
 9316 27f6 18000000 		.4byte	.LBE27-.LBB27
 9317 27fa 21280000 		.4byte	0x2821
 9318 27fe 2D       		.uleb128 0x2d
 9319 27ff 28100000 		.4byte	.LASF268
 9320 2803 01       		.byte	0x1
 9321 2804 6405     		.2byte	0x564
 9322 2806 36010000 		.4byte	0x136
 9323 280a 7A150000 		.4byte	.LLST111
 9324 280e 1F       		.uleb128 0x1f
 9325 280f E4000000 		.4byte	.LVL424
 9326 2813 392D0000 		.4byte	0x2d39
 9327 2817 1F       		.uleb128 0x1f
 9328 2818 F8000000 		.4byte	.LVL425
 9329 281c 452D0000 		.4byte	0x2d45
 9330 2820 00       		.byte	0
 9331 2821 1F       		.uleb128 0x1f
 9332 2822 00010000 		.4byte	.LVL426
 9333 2826 6B2C0000 		.4byte	0x2c6b
 9334 282a 00       		.byte	0
 9335 282b 32       		.uleb128 0x32
 9336 282c 130B0000 		.4byte	.LASF304
 9337 2830 01       		.byte	0x1
 9338 2831 6F05     		.2byte	0x56f
 9339 2833 00000000 		.4byte	.LFB73
 9340 2837 98000000 		.4byte	.LFE73-.LFB73
 9341 283b 01       		.uleb128 0x1
 9342 283c 9C       		.byte	0x9c
 9343 283d BD280000 		.4byte	0x28bd
 9344 2841 1D       		.uleb128 0x1d
 9345 2842 6D00     		.ascii	"m\000"
 9346 2844 01       		.byte	0x1
 9347 2845 6F05     		.2byte	0x56f
 9348 2847 88000000 		.4byte	0x88
 9349 284b 8D150000 		.4byte	.LLST112
 9350 284f 1E       		.uleb128 0x1e
 9351 2850 6D736700 		.ascii	"msg\000"
 9352 2854 01       		.byte	0x1
 9353 2855 7105     		.2byte	0x571
 9354 2857 E20B0000 		.4byte	0xbe2
 9355 285b B9150000 		.4byte	.LLST113
 9356 285f 29       		.uleb128 0x29
 9357 2860 76000000 		.4byte	.LBB28
 9358 2864 18000000 		.4byte	.LBE28-.LBB28
 9359 2868 8F280000 		.4byte	0x288f
 9360 286c 2D       		.uleb128 0x2d
 9361 286d 28100000 		.4byte	.LASF268
 9362 2871 01       		.byte	0x1
 9363 2872 9B05     		.2byte	0x59b
 9364 2874 36010000 		.4byte	0x136
 9365 2878 E5150000 		.4byte	.LLST114
 9366 287c 1F       		.uleb128 0x1f
 9367 287d 7A000000 		.4byte	.LVL435
ARM GAS  C:\Users\Phuong\AppData\Local\Temp\ccTHzCbL.s 			page 212


 9368 2881 392D0000 		.4byte	0x2d39
 9369 2885 1F       		.uleb128 0x1f
 9370 2886 8E000000 		.4byte	.LVL436
 9371 288a 452D0000 		.4byte	0x2d45
 9372 288e 00       		.byte	0
 9373 288f 1F       		.uleb128 0x1f
 9374 2890 42000000 		.4byte	.LVL431
 9375 2894 882E0000 		.4byte	0x2e88
 9376 2898 1F       		.uleb128 0x1f
 9377 2899 4C000000 		.4byte	.LVL432
 9378 289d 932E0000 		.4byte	0x2e93
 9379 28a1 1F       		.uleb128 0x1f
 9380 28a2 5E000000 		.4byte	.LVL433
 9381 28a6 9E2E0000 		.4byte	0x2e9e
 9382 28aa 1F       		.uleb128 0x1f
 9383 28ab 6E000000 		.4byte	.LVL434
 9384 28af A92E0000 		.4byte	0x2ea9
 9385 28b3 1F       		.uleb128 0x1f
 9386 28b4 96000000 		.4byte	.LVL437
 9387 28b8 6B2C0000 		.4byte	0x2c6b
 9388 28bc 00       		.byte	0
 9389 28bd 32       		.uleb128 0x32
 9390 28be 5E050000 		.4byte	.LASF305
 9391 28c2 01       		.byte	0x1
 9392 28c3 A605     		.2byte	0x5a6
 9393 28c5 00000000 		.4byte	.LFB74
 9394 28c9 64000000 		.4byte	.LFE74-.LFB74
 9395 28cd 01       		.uleb128 0x1
 9396 28ce 9C       		.byte	0x9c
 9397 28cf 73290000 		.4byte	0x2973
 9398 28d3 1D       		.uleb128 0x1d
 9399 28d4 6D00     		.ascii	"m\000"
 9400 28d6 01       		.byte	0x1
 9401 28d7 A605     		.2byte	0x5a6
 9402 28d9 88000000 		.4byte	0x88
 9403 28dd F8150000 		.4byte	.LLST115
 9404 28e1 1E       		.uleb128 0x1e
 9405 28e2 6D736700 		.ascii	"msg\000"
 9406 28e6 01       		.byte	0x1
 9407 28e7 A805     		.2byte	0x5a8
 9408 28e9 E20B0000 		.4byte	0xbe2
 9409 28ed 24160000 		.4byte	.LLST116
 9410 28f1 29       		.uleb128 0x29
 9411 28f2 1A000000 		.4byte	.LBB29
 9412 28f6 1C000000 		.4byte	.LBE29-.LBB29
 9413 28fa 39290000 		.4byte	0x2939
 9414 28fe 2D       		.uleb128 0x2d
 9415 28ff 09120000 		.4byte	.LASF306
 9416 2903 01       		.byte	0x1
 9417 2904 AD05     		.2byte	0x5ad
 9418 2906 2B010000 		.4byte	0x12b
 9419 290a 50160000 		.4byte	.LLST117
 9420 290e 2F       		.uleb128 0x2f
 9421 290f 1C000000 		.4byte	.LBB30
 9422 2913 18000000 		.4byte	.LBE30-.LBB30
 9423 2917 2D       		.uleb128 0x2d
 9424 2918 1E120000 		.4byte	.LASF307
ARM GAS  C:\Users\Phuong\AppData\Local\Temp\ccTHzCbL.s 			page 213


 9425 291c 01       		.byte	0x1
 9426 291d AF05     		.2byte	0x5af
 9427 291f 15010000 		.4byte	0x115
 9428 2923 63160000 		.4byte	.LLST118
 9429 2927 2A       		.uleb128 0x2a
 9430 2928 32000000 		.4byte	.LVL443
 9431 292c A42D0000 		.4byte	0x2da4
 9432 2930 26       		.uleb128 0x26
 9433 2931 01       		.uleb128 0x1
 9434 2932 51       		.byte	0x51
 9435 2933 02       		.uleb128 0x2
 9436 2934 76       		.byte	0x76
 9437 2935 00       		.sleb128 0
 9438 2936 00       		.byte	0
 9439 2937 00       		.byte	0
 9440 2938 00       		.byte	0
 9441 2939 29       		.uleb128 0x29
 9442 293a 3C000000 		.4byte	.LBB31
 9443 293e 18000000 		.4byte	.LBE31-.LBB31
 9444 2942 69290000 		.4byte	0x2969
 9445 2946 2D       		.uleb128 0x2d
 9446 2947 28100000 		.4byte	.LASF268
 9447 294b 01       		.byte	0x1
 9448 294c B505     		.2byte	0x5b5
 9449 294e 36010000 		.4byte	0x136
 9450 2952 76160000 		.4byte	.LLST119
 9451 2956 1F       		.uleb128 0x1f
 9452 2957 40000000 		.4byte	.LVL446
 9453 295b 392D0000 		.4byte	0x2d39
 9454 295f 1F       		.uleb128 0x1f
 9455 2960 54000000 		.4byte	.LVL447
 9456 2964 452D0000 		.4byte	0x2d45
 9457 2968 00       		.byte	0
 9458 2969 1F       		.uleb128 0x1f
 9459 296a 5C000000 		.4byte	.LVL448
 9460 296e 6B2C0000 		.4byte	0x2c6b
 9461 2972 00       		.byte	0
 9462 2973 32       		.uleb128 0x32
 9463 2974 9E040000 		.4byte	.LASF308
 9464 2978 01       		.byte	0x1
 9465 2979 BF05     		.2byte	0x5bf
 9466 297b 00000000 		.4byte	.LFB75
 9467 297f 46000000 		.4byte	.LFE75-.LFB75
 9468 2983 01       		.uleb128 0x1
 9469 2984 9C       		.byte	0x9c
 9470 2985 EA290000 		.4byte	0x29ea
 9471 2989 1D       		.uleb128 0x1d
 9472 298a 6D00     		.ascii	"m\000"
 9473 298c 01       		.byte	0x1
 9474 298d BF05     		.2byte	0x5bf
 9475 298f 88000000 		.4byte	0x88
 9476 2993 89160000 		.4byte	.LLST120
 9477 2997 1E       		.uleb128 0x1e
 9478 2998 6D736700 		.ascii	"msg\000"
 9479 299c 01       		.byte	0x1
 9480 299d C105     		.2byte	0x5c1
 9481 299f E20B0000 		.4byte	0xbe2
ARM GAS  C:\Users\Phuong\AppData\Local\Temp\ccTHzCbL.s 			page 214


 9482 29a3 B5160000 		.4byte	.LLST121
 9483 29a7 29       		.uleb128 0x29
 9484 29a8 24000000 		.4byte	.LBB32
 9485 29ac 18000000 		.4byte	.LBE32-.LBB32
 9486 29b0 D7290000 		.4byte	0x29d7
 9487 29b4 2D       		.uleb128 0x2d
 9488 29b5 28100000 		.4byte	.LASF268
 9489 29b9 01       		.byte	0x1
 9490 29ba C905     		.2byte	0x5c9
 9491 29bc 36010000 		.4byte	0x136
 9492 29c0 E1160000 		.4byte	.LLST122
 9493 29c4 1F       		.uleb128 0x1f
 9494 29c5 28000000 		.4byte	.LVL454
 9495 29c9 392D0000 		.4byte	0x2d39
 9496 29cd 1F       		.uleb128 0x1f
 9497 29ce 3C000000 		.4byte	.LVL455
 9498 29d2 452D0000 		.4byte	0x2d45
 9499 29d6 00       		.byte	0
 9500 29d7 1F       		.uleb128 0x1f
 9501 29d8 1E000000 		.4byte	.LVL453
 9502 29dc B42E0000 		.4byte	0x2eb4
 9503 29e0 1F       		.uleb128 0x1f
 9504 29e1 44000000 		.4byte	.LVL456
 9505 29e5 6B2C0000 		.4byte	0x2c6b
 9506 29e9 00       		.byte	0
 9507 29ea 32       		.uleb128 0x32
 9508 29eb 40090000 		.4byte	.LASF309
 9509 29ef 01       		.byte	0x1
 9510 29f0 7306     		.2byte	0x673
 9511 29f2 00000000 		.4byte	.LFB77
 9512 29f6 76000000 		.4byte	.LFE77-.LFB77
 9513 29fa 01       		.uleb128 0x1
 9514 29fb 9C       		.byte	0x9c
 9515 29fc 612A0000 		.4byte	0x2a61
 9516 2a00 1D       		.uleb128 0x1d
 9517 2a01 6D00     		.ascii	"m\000"
 9518 2a03 01       		.byte	0x1
 9519 2a04 7306     		.2byte	0x673
 9520 2a06 88000000 		.4byte	0x88
 9521 2a0a F4160000 		.4byte	.LLST123
 9522 2a0e 1E       		.uleb128 0x1e
 9523 2a0f 6D736700 		.ascii	"msg\000"
 9524 2a13 01       		.byte	0x1
 9525 2a14 7506     		.2byte	0x675
 9526 2a16 E20B0000 		.4byte	0xbe2
 9527 2a1a 36170000 		.4byte	.LLST124
 9528 2a1e 29       		.uleb128 0x29
 9529 2a1f 54000000 		.4byte	.LBB33
 9530 2a23 18000000 		.4byte	.LBE33-.LBB33
 9531 2a27 4E2A0000 		.4byte	0x2a4e
 9532 2a2b 2D       		.uleb128 0x2d
 9533 2a2c 28100000 		.4byte	.LASF268
 9534 2a30 01       		.byte	0x1
 9535 2a31 A106     		.2byte	0x6a1
 9536 2a33 36010000 		.4byte	0x136
 9537 2a37 78170000 		.4byte	.LLST125
 9538 2a3b 1F       		.uleb128 0x1f
ARM GAS  C:\Users\Phuong\AppData\Local\Temp\ccTHzCbL.s 			page 215


 9539 2a3c 58000000 		.4byte	.LVL463
 9540 2a40 392D0000 		.4byte	0x2d39
 9541 2a44 1F       		.uleb128 0x1f
 9542 2a45 6C000000 		.4byte	.LVL464
 9543 2a49 452D0000 		.4byte	0x2d45
 9544 2a4d 00       		.byte	0
 9545 2a4e 1F       		.uleb128 0x1f
 9546 2a4f 44000000 		.4byte	.LVL461
 9547 2a53 60180000 		.4byte	0x1860
 9548 2a57 1F       		.uleb128 0x1f
 9549 2a58 74000000 		.4byte	.LVL465
 9550 2a5c 6B2C0000 		.4byte	0x2c6b
 9551 2a60 00       		.byte	0
 9552 2a61 32       		.uleb128 0x32
 9553 2a62 3F000000 		.4byte	.LASF310
 9554 2a66 01       		.byte	0x1
 9555 2a67 AB06     		.2byte	0x6ab
 9556 2a69 00000000 		.4byte	.LFB78
 9557 2a6d CA000000 		.4byte	.LFE78-.LFB78
 9558 2a71 01       		.uleb128 0x1
 9559 2a72 9C       		.byte	0x9c
 9560 2a73 CF2A0000 		.4byte	0x2acf
 9561 2a77 1D       		.uleb128 0x1d
 9562 2a78 6D00     		.ascii	"m\000"
 9563 2a7a 01       		.byte	0x1
 9564 2a7b AB06     		.2byte	0x6ab
 9565 2a7d 88000000 		.4byte	0x88
 9566 2a81 8B170000 		.4byte	.LLST126
 9567 2a85 1E       		.uleb128 0x1e
 9568 2a86 6D736700 		.ascii	"msg\000"
 9569 2a8a 01       		.byte	0x1
 9570 2a8b AD06     		.2byte	0x6ad
 9571 2a8d E20B0000 		.4byte	0xbe2
 9572 2a91 B7170000 		.4byte	.LLST127
 9573 2a95 29       		.uleb128 0x29
 9574 2a96 A8000000 		.4byte	.LBB34
 9575 2a9a 18000000 		.4byte	.LBE34-.LBB34
 9576 2a9e C52A0000 		.4byte	0x2ac5
 9577 2aa2 2D       		.uleb128 0x2d
 9578 2aa3 28100000 		.4byte	.LASF268
 9579 2aa7 01       		.byte	0x1
 9580 2aa8 E306     		.2byte	0x6e3
 9581 2aaa 36010000 		.4byte	0x136
 9582 2aae E3170000 		.4byte	.LLST128
 9583 2ab2 1F       		.uleb128 0x1f
 9584 2ab3 AC000000 		.4byte	.LVL469
 9585 2ab7 392D0000 		.4byte	0x2d39
 9586 2abb 1F       		.uleb128 0x1f
 9587 2abc C0000000 		.4byte	.LVL470
 9588 2ac0 452D0000 		.4byte	0x2d45
 9589 2ac4 00       		.byte	0
 9590 2ac5 1F       		.uleb128 0x1f
 9591 2ac6 C8000000 		.4byte	.LVL471
 9592 2aca 6B2C0000 		.4byte	0x2c6b
 9593 2ace 00       		.byte	0
 9594 2acf 32       		.uleb128 0x32
 9595 2ad0 4B060000 		.4byte	.LASF311
ARM GAS  C:\Users\Phuong\AppData\Local\Temp\ccTHzCbL.s 			page 216


 9596 2ad4 01       		.byte	0x1
 9597 2ad5 EE06     		.2byte	0x6ee
 9598 2ad7 00000000 		.4byte	.LFB79
 9599 2adb 7A000000 		.4byte	.LFE79-.LFB79
 9600 2adf 01       		.uleb128 0x1
 9601 2ae0 9C       		.byte	0x9c
 9602 2ae1 5F2B0000 		.4byte	0x2b5f
 9603 2ae5 1D       		.uleb128 0x1d
 9604 2ae6 6D00     		.ascii	"m\000"
 9605 2ae8 01       		.byte	0x1
 9606 2ae9 EE06     		.2byte	0x6ee
 9607 2aeb 88000000 		.4byte	0x88
 9608 2aef F6170000 		.4byte	.LLST129
 9609 2af3 1E       		.uleb128 0x1e
 9610 2af4 6D736700 		.ascii	"msg\000"
 9611 2af8 01       		.byte	0x1
 9612 2af9 F006     		.2byte	0x6f0
 9613 2afb E20B0000 		.4byte	0xbe2
 9614 2aff 22180000 		.4byte	.LLST130
 9615 2b03 2D       		.uleb128 0x2d
 9616 2b04 E6100000 		.4byte	.LASF99
 9617 2b08 01       		.byte	0x1
 9618 2b09 F306     		.2byte	0x6f3
 9619 2b0b D2050000 		.4byte	0x5d2
 9620 2b0f 4E180000 		.4byte	.LLST131
 9621 2b13 29       		.uleb128 0x29
 9622 2b14 58000000 		.4byte	.LBB35
 9623 2b18 18000000 		.4byte	.LBE35-.LBB35
 9624 2b1c 432B0000 		.4byte	0x2b43
 9625 2b20 2D       		.uleb128 0x2d
 9626 2b21 28100000 		.4byte	.LASF268
 9627 2b25 01       		.byte	0x1
 9628 2b26 3207     		.2byte	0x732
 9629 2b28 36010000 		.4byte	0x136
 9630 2b2c 6C180000 		.4byte	.LLST132
 9631 2b30 1F       		.uleb128 0x1f
 9632 2b31 5C000000 		.4byte	.LVL480
 9633 2b35 392D0000 		.4byte	0x2d39
 9634 2b39 1F       		.uleb128 0x1f
 9635 2b3a 70000000 		.4byte	.LVL481
 9636 2b3e 452D0000 		.4byte	0x2d45
 9637 2b42 00       		.byte	0
 9638 2b43 1F       		.uleb128 0x1f
 9639 2b44 3E000000 		.4byte	.LVL477
 9640 2b48 E7200000 		.4byte	0x20e7
 9641 2b4c 1F       		.uleb128 0x1f
 9642 2b4d 4E000000 		.4byte	.LVL478
 9643 2b51 051A0000 		.4byte	0x1a05
 9644 2b55 1F       		.uleb128 0x1f
 9645 2b56 78000000 		.4byte	.LVL482
 9646 2b5a 6B2C0000 		.4byte	0x2c6b
 9647 2b5e 00       		.byte	0
 9648 2b5f 32       		.uleb128 0x32
 9649 2b60 CA010000 		.4byte	.LASF312
 9650 2b64 01       		.byte	0x1
 9651 2b65 3D07     		.2byte	0x73d
 9652 2b67 00000000 		.4byte	.LFB80
ARM GAS  C:\Users\Phuong\AppData\Local\Temp\ccTHzCbL.s 			page 217


 9653 2b6b 74000000 		.4byte	.LFE80-.LFB80
 9654 2b6f 01       		.uleb128 0x1
 9655 2b70 9C       		.byte	0x9c
 9656 2b71 DF2B0000 		.4byte	0x2bdf
 9657 2b75 1D       		.uleb128 0x1d
 9658 2b76 6D00     		.ascii	"m\000"
 9659 2b78 01       		.byte	0x1
 9660 2b79 3D07     		.2byte	0x73d
 9661 2b7b 88000000 		.4byte	0x88
 9662 2b7f 7F180000 		.4byte	.LLST133
 9663 2b83 1E       		.uleb128 0x1e
 9664 2b84 6D736700 		.ascii	"msg\000"
 9665 2b88 01       		.byte	0x1
 9666 2b89 3F07     		.2byte	0x73f
 9667 2b8b E20B0000 		.4byte	0xbe2
 9668 2b8f D7180000 		.4byte	.LLST134
 9669 2b93 29       		.uleb128 0x29
 9670 2b94 52000000 		.4byte	.LBB36
 9671 2b98 18000000 		.4byte	.LBE36-.LBB36
 9672 2b9c C32B0000 		.4byte	0x2bc3
 9673 2ba0 2D       		.uleb128 0x2d
 9674 2ba1 28100000 		.4byte	.LASF268
 9675 2ba5 01       		.byte	0x1
 9676 2ba6 6807     		.2byte	0x768
 9677 2ba8 36010000 		.4byte	0x136
 9678 2bac 2F190000 		.4byte	.LLST135
 9679 2bb0 1F       		.uleb128 0x1f
 9680 2bb1 56000000 		.4byte	.LVL493
 9681 2bb5 392D0000 		.4byte	0x2d39
 9682 2bb9 1F       		.uleb128 0x1f
 9683 2bba 6A000000 		.4byte	.LVL494
 9684 2bbe 452D0000 		.4byte	0x2d45
 9685 2bc2 00       		.byte	0
 9686 2bc3 1F       		.uleb128 0x1f
 9687 2bc4 32000000 		.4byte	.LVL487
 9688 2bc8 C02E0000 		.4byte	0x2ec0
 9689 2bcc 1F       		.uleb128 0x1f
 9690 2bcd 3E000000 		.4byte	.LVL490
 9691 2bd1 CB2E0000 		.4byte	0x2ecb
 9692 2bd5 1F       		.uleb128 0x1f
 9693 2bd6 72000000 		.4byte	.LVL495
 9694 2bda 6B2C0000 		.4byte	0x2c6b
 9695 2bde 00       		.byte	0
 9696 2bdf 32       		.uleb128 0x32
 9697 2be0 15050000 		.4byte	.LASF313
 9698 2be4 01       		.byte	0x1
 9699 2be5 8D07     		.2byte	0x78d
 9700 2be7 00000000 		.4byte	.LFB82
 9701 2beb 34000000 		.4byte	.LFE82-.LFB82
 9702 2bef 01       		.uleb128 0x1
 9703 2bf0 9C       		.byte	0x9c
 9704 2bf1 4F2C0000 		.4byte	0x2c4f
 9705 2bf5 1D       		.uleb128 0x1d
 9706 2bf6 61726700 		.ascii	"arg\000"
 9707 2bfa 01       		.byte	0x1
 9708 2bfb 8D07     		.2byte	0x78d
 9709 2bfd 88000000 		.4byte	0x88
ARM GAS  C:\Users\Phuong\AppData\Local\Temp\ccTHzCbL.s 			page 218


 9710 2c01 42190000 		.4byte	.LLST136
 9711 2c05 1E       		.uleb128 0x1e
 9712 2c06 6D736700 		.ascii	"msg\000"
 9713 2c0a 01       		.byte	0x1
 9714 2c0b 8F07     		.2byte	0x78f
 9715 2c0d 6F110000 		.4byte	0x116f
 9716 2c11 79190000 		.4byte	.LLST137
 9717 2c15 2B       		.uleb128 0x2b
 9718 2c16 6B0B0000 		.4byte	.LASF314
 9719 2c1a 01       		.byte	0x1
 9720 2c1b 9007     		.2byte	0x790
 9721 2c1d FF000000 		.4byte	0xff
 9722 2c21 00       		.byte	0
 9723 2c22 25       		.uleb128 0x25
 9724 2c23 18000000 		.4byte	.LVL500
 9725 2c27 D62E0000 		.4byte	0x2ed6
 9726 2c2b 452C0000 		.4byte	0x2c45
 9727 2c2f 26       		.uleb128 0x26
 9728 2c30 01       		.uleb128 0x1
 9729 2c31 52       		.byte	0x52
 9730 2c32 05       		.uleb128 0x5
 9731 2c33 03       		.byte	0x3
 9732 2c34 00000000 		.4byte	lwip_netconn_do_dns_found
 9733 2c38 26       		.uleb128 0x26
 9734 2c39 01       		.uleb128 0x1
 9735 2c3a 53       		.byte	0x53
 9736 2c3b 02       		.uleb128 0x2
 9737 2c3c 74       		.byte	0x74
 9738 2c3d 00       		.sleb128 0
 9739 2c3e 26       		.uleb128 0x26
 9740 2c3f 02       		.uleb128 0x2
 9741 2c40 7D       		.byte	0x7d
 9742 2c41 00       		.sleb128 0
 9743 2c42 01       		.uleb128 0x1
 9744 2c43 30       		.byte	0x30
 9745 2c44 00       		.byte	0
 9746 2c45 1F       		.uleb128 0x1f
 9747 2c46 2A000000 		.4byte	.LVL501
 9748 2c4a 6B2C0000 		.4byte	0x2c6b
 9749 2c4e 00       		.byte	0
 9750 2c4f 35       		.uleb128 0x35
 9751 2c50 5E120000 		.4byte	.LASF315
 9752 2c54 01       		.byte	0x1
 9753 2c55 58       		.byte	0x58
 9754 2c56 FF000000 		.4byte	0xff
 9755 2c5a 05       		.uleb128 0x5
 9756 2c5b 03       		.byte	0x3
 9757 2c5c 00000000 		.4byte	netconn_aborted
 9758 2c60 36       		.uleb128 0x36
 9759 2c61 3E0B0000 		.4byte	.LASF316
 9760 2c65 11       		.byte	0x11
 9761 2c66 7E       		.byte	0x7e
 9762 2c67 5E0E0000 		.4byte	0xe5e
 9763 2c6b 37       		.uleb128 0x37
 9764 2c6c 61060000 		.4byte	.LASF317
 9765 2c70 61060000 		.4byte	.LASF317
 9766 2c74 17       		.byte	0x17
ARM GAS  C:\Users\Phuong\AppData\Local\Temp\ccTHzCbL.s 			page 219


 9767 2c75 B7       		.byte	0xb7
 9768 2c76 37       		.uleb128 0x37
 9769 2c77 75090000 		.4byte	.LASF318
 9770 2c7b 75090000 		.4byte	.LASF318
 9771 2c7f 0C       		.byte	0xc
 9772 2c80 E9       		.byte	0xe9
 9773 2c81 38       		.uleb128 0x38
 9774 2c82 B7060000 		.4byte	.LASF319
 9775 2c86 B7060000 		.4byte	.LASF319
 9776 2c8a 17       		.byte	0x17
 9777 2c8b 2C01     		.2byte	0x12c
 9778 2c8d 37       		.uleb128 0x37
 9779 2c8e 670E0000 		.4byte	.LASF320
 9780 2c92 670E0000 		.4byte	.LASF320
 9781 2c96 0D       		.byte	0xd
 9782 2c97 90       		.byte	0x90
 9783 2c98 38       		.uleb128 0x38
 9784 2c99 060C0000 		.4byte	.LASF321
 9785 2c9d 060C0000 		.4byte	.LASF321
 9786 2ca1 17       		.byte	0x17
 9787 2ca2 0401     		.2byte	0x104
 9788 2ca4 37       		.uleb128 0x37
 9789 2ca5 D1040000 		.4byte	.LASF322
 9790 2ca9 D1040000 		.4byte	.LASF322
 9791 2cad 0F       		.byte	0xf
 9792 2cae 4D       		.byte	0x4d
 9793 2caf 37       		.uleb128 0x37
 9794 2cb0 2A090000 		.4byte	.LASF323
 9795 2cb4 2A090000 		.4byte	.LASF323
 9796 2cb8 0C       		.byte	0xc
 9797 2cb9 DF       		.byte	0xdf
 9798 2cba 37       		.uleb128 0x37
 9799 2cbb 8E060000 		.4byte	.LASF324
 9800 2cbf 8E060000 		.4byte	.LASF324
 9801 2cc3 0C       		.byte	0xc
 9802 2cc4 EE       		.byte	0xee
 9803 2cc5 38       		.uleb128 0x38
 9804 2cc6 C5120000 		.4byte	.LASF325
 9805 2cca C5120000 		.4byte	.LASF325
 9806 2cce 12       		.byte	0x12
 9807 2ccf 6301     		.2byte	0x163
 9808 2cd1 38       		.uleb128 0x38
 9809 2cd2 D0020000 		.4byte	.LASF326
 9810 2cd6 D0020000 		.4byte	.LASF326
 9811 2cda 12       		.byte	0x12
 9812 2cdb 6501     		.2byte	0x165
 9813 2cdd 38       		.uleb128 0x38
 9814 2cde FC020000 		.4byte	.LASF327
 9815 2ce2 FC020000 		.4byte	.LASF327
 9816 2ce6 12       		.byte	0x12
 9817 2ce7 6601     		.2byte	0x166
 9818 2ce9 38       		.uleb128 0x38
 9819 2cea 33050000 		.4byte	.LASF328
 9820 2cee 33050000 		.4byte	.LASF328
 9821 2cf2 12       		.byte	0x12
 9822 2cf3 6A01     		.2byte	0x16a
 9823 2cf5 38       		.uleb128 0x38
ARM GAS  C:\Users\Phuong\AppData\Local\Temp\ccTHzCbL.s 			page 220


 9824 2cf6 F50A0000 		.4byte	.LASF329
 9825 2cfa F50A0000 		.4byte	.LASF329
 9826 2cfe 12       		.byte	0x12
 9827 2cff 6701     		.2byte	0x167
 9828 2d01 37       		.uleb128 0x37
 9829 2d02 B90F0000 		.4byte	.LASF330
 9830 2d06 B90F0000 		.4byte	.LASF330
 9831 2d0a 14       		.byte	0x14
 9832 2d0b 5D       		.byte	0x5d
 9833 2d0c 37       		.uleb128 0x37
 9834 2d0d 7B070000 		.4byte	.LASF331
 9835 2d11 7B070000 		.4byte	.LASF331
 9836 2d15 14       		.byte	0x14
 9837 2d16 65       		.byte	0x65
 9838 2d17 37       		.uleb128 0x37
 9839 2d18 05030000 		.4byte	.LASF332
 9840 2d1c 05030000 		.4byte	.LASF332
 9841 2d20 13       		.byte	0x13
 9842 2d21 74       		.byte	0x74
 9843 2d22 37       		.uleb128 0x37
 9844 2d23 9F0F0000 		.4byte	.LASF333
 9845 2d27 9F0F0000 		.4byte	.LASF333
 9846 2d2b 13       		.byte	0x13
 9847 2d2c 7B       		.byte	0x7b
 9848 2d2d 38       		.uleb128 0x38
 9849 2d2e 73040000 		.4byte	.LASF334
 9850 2d32 73040000 		.4byte	.LASF334
 9851 2d36 12       		.byte	0x12
 9852 2d37 6101     		.2byte	0x161
 9853 2d39 38       		.uleb128 0x38
 9854 2d3a CC0E0000 		.4byte	.LASF335
 9855 2d3e CC0E0000 		.4byte	.LASF335
 9856 2d42 17       		.byte	0x17
 9857 2d43 9101     		.2byte	0x191
 9858 2d45 38       		.uleb128 0x38
 9859 2d46 51030000 		.4byte	.LASF336
 9860 2d4a 51030000 		.4byte	.LASF336
 9861 2d4e 17       		.byte	0x17
 9862 2d4f 9201     		.2byte	0x192
 9863 2d51 37       		.uleb128 0x37
 9864 2d52 89050000 		.4byte	.LASF337
 9865 2d56 89050000 		.4byte	.LASF337
 9866 2d5a 17       		.byte	0x17
 9867 2d5b CE       		.byte	0xce
 9868 2d5c 38       		.uleb128 0x38
 9869 2d5d D6070000 		.4byte	.LASF338
 9870 2d61 D6070000 		.4byte	.LASF338
 9871 2d65 12       		.byte	0x12
 9872 2d66 A301     		.2byte	0x1a3
 9873 2d68 38       		.uleb128 0x38
 9874 2d69 5F110000 		.4byte	.LASF339
 9875 2d6d 5F110000 		.4byte	.LASF339
 9876 2d71 12       		.byte	0x12
 9877 2d72 9A01     		.2byte	0x19a
 9878 2d74 38       		.uleb128 0x38
 9879 2d75 480C0000 		.4byte	.LASF340
 9880 2d79 480C0000 		.4byte	.LASF340
ARM GAS  C:\Users\Phuong\AppData\Local\Temp\ccTHzCbL.s 			page 221


 9881 2d7d 12       		.byte	0x12
 9882 2d7e 6801     		.2byte	0x168
 9883 2d80 38       		.uleb128 0x38
 9884 2d81 C40D0000 		.4byte	.LASF341
 9885 2d85 C40D0000 		.4byte	.LASF341
 9886 2d89 12       		.byte	0x12
 9887 2d8a 9301     		.2byte	0x193
 9888 2d8c 38       		.uleb128 0x38
 9889 2d8d 46050000 		.4byte	.LASF342
 9890 2d91 46050000 		.4byte	.LASF342
 9891 2d95 12       		.byte	0x12
 9892 2d96 9401     		.2byte	0x194
 9893 2d98 38       		.uleb128 0x38
 9894 2d99 AA0B0000 		.4byte	.LASF343
 9895 2d9d AA0B0000 		.4byte	.LASF343
 9896 2da1 12       		.byte	0x12
 9897 2da2 9201     		.2byte	0x192
 9898 2da4 38       		.uleb128 0x38
 9899 2da5 E3110000 		.4byte	.LASF344
 9900 2da9 E3110000 		.4byte	.LASF344
 9901 2dad 12       		.byte	0x12
 9902 2dae 8701     		.2byte	0x187
 9903 2db0 37       		.uleb128 0x37
 9904 2db1 43110000 		.4byte	.LASF345
 9905 2db5 43110000 		.4byte	.LASF345
 9906 2db9 17       		.byte	0x17
 9907 2dba F5       		.byte	0xf5
 9908 2dbb 37       		.uleb128 0x37
 9909 2dbc EF090000 		.4byte	.LASF346
 9910 2dc0 EF090000 		.4byte	.LASF346
 9911 2dc4 17       		.byte	0x17
 9912 2dc5 B1       		.byte	0xb1
 9913 2dc6 38       		.uleb128 0x38
 9914 2dc7 00000000 		.4byte	.LASF347
 9915 2dcb 00000000 		.4byte	.LASF347
 9916 2dcf 17       		.byte	0x17
 9917 2dd0 2501     		.2byte	0x125
 9918 2dd2 38       		.uleb128 0x38
 9919 2dd3 3C010000 		.4byte	.LASF348
 9920 2dd7 3C010000 		.4byte	.LASF348
 9921 2ddb 17       		.byte	0x17
 9922 2ddc 3301     		.2byte	0x133
 9923 2dde 37       		.uleb128 0x37
 9924 2ddf AB110000 		.4byte	.LASF349
 9925 2de3 AB110000 		.4byte	.LASF349
 9926 2de7 0D       		.byte	0xd
 9927 2de8 95       		.byte	0x95
 9928 2de9 37       		.uleb128 0x37
 9929 2dea DD0E0000 		.4byte	.LASF350
 9930 2dee DD0E0000 		.4byte	.LASF350
 9931 2df2 17       		.byte	0x17
 9932 2df3 C6       		.byte	0xc6
 9933 2df4 37       		.uleb128 0x37
 9934 2df5 740A0000 		.4byte	.LASF351
 9935 2df9 740A0000 		.4byte	.LASF351
 9936 2dfd 17       		.byte	0x17
 9937 2dfe D5       		.byte	0xd5
ARM GAS  C:\Users\Phuong\AppData\Local\Temp\ccTHzCbL.s 			page 222


 9938 2dff 38       		.uleb128 0x38
 9939 2e00 DE0A0000 		.4byte	.LASF352
 9940 2e04 DE0A0000 		.4byte	.LASF352
 9941 2e08 17       		.byte	0x17
 9942 2e09 1A01     		.2byte	0x11a
 9943 2e0b 38       		.uleb128 0x38
 9944 2e0c 16090000 		.4byte	.LASF353
 9945 2e10 16090000 		.4byte	.LASF353
 9946 2e14 12       		.byte	0x12
 9947 2e15 7E01     		.2byte	0x17e
 9948 2e17 37       		.uleb128 0x37
 9949 2e18 F5100000 		.4byte	.LASF354
 9950 2e1c F5100000 		.4byte	.LASF354
 9951 2e20 14       		.byte	0x14
 9952 2e21 5E       		.byte	0x5e
 9953 2e22 37       		.uleb128 0x37
 9954 2e23 80110000 		.4byte	.LASF355
 9955 2e27 80110000 		.4byte	.LASF355
 9956 2e2b 13       		.byte	0x13
 9957 2e2c 75       		.byte	0x75
 9958 2e2d 37       		.uleb128 0x37
 9959 2e2e 7D080000 		.4byte	.LASF356
 9960 2e32 7D080000 		.4byte	.LASF356
 9961 2e36 14       		.byte	0x14
 9962 2e37 5F       		.byte	0x5f
 9963 2e38 37       		.uleb128 0x37
 9964 2e39 EC100000 		.4byte	.LASF357
 9965 2e3d EC100000 		.4byte	.LASF357
 9966 2e41 13       		.byte	0x13
 9967 2e42 76       		.byte	0x76
 9968 2e43 38       		.uleb128 0x38
 9969 2e44 1E010000 		.4byte	.LASF358
 9970 2e48 1E010000 		.4byte	.LASF358
 9971 2e4c 12       		.byte	0x12
 9972 2e4d 8801     		.2byte	0x188
 9973 2e4f 37       		.uleb128 0x37
 9974 2e50 DA100000 		.4byte	.LASF359
 9975 2e54 DA100000 		.4byte	.LASF359
 9976 2e58 14       		.byte	0x14
 9977 2e59 60       		.byte	0x60
 9978 2e5a 37       		.uleb128 0x37
 9979 2e5b 24020000 		.4byte	.LASF360
 9980 2e5f 24020000 		.4byte	.LASF360
 9981 2e63 13       		.byte	0x13
 9982 2e64 78       		.byte	0x78
 9983 2e65 38       		.uleb128 0x38
 9984 2e66 62000000 		.4byte	.LASF361
 9985 2e6a 62000000 		.4byte	.LASF361
 9986 2e6e 12       		.byte	0x12
 9987 2e6f 8A01     		.2byte	0x18a
 9988 2e71 37       		.uleb128 0x37
 9989 2e72 F50D0000 		.4byte	.LASF362
 9990 2e76 F50D0000 		.4byte	.LASF362
 9991 2e7a 13       		.byte	0x13
 9992 2e7b 7A       		.byte	0x7a
 9993 2e7c 38       		.uleb128 0x38
 9994 2e7d 980C0000 		.4byte	.LASF363
ARM GAS  C:\Users\Phuong\AppData\Local\Temp\ccTHzCbL.s 			page 223


 9995 2e81 980C0000 		.4byte	.LASF363
 9996 2e85 12       		.byte	0x12
 9997 2e86 8D01     		.2byte	0x18d
 9998 2e88 37       		.uleb128 0x37
 9999 2e89 EE000000 		.4byte	.LASF364
 10000 2e8d EE000000 		.4byte	.LASF364
 10001 2e91 14       		.byte	0x14
 10002 2e92 63       		.byte	0x63
 10003 2e93 37       		.uleb128 0x37
 10004 2e94 0B0A0000 		.4byte	.LASF365
 10005 2e98 0B0A0000 		.4byte	.LASF365
 10006 2e9c 14       		.byte	0x14
 10007 2e9d 62       		.byte	0x62
 10008 2e9e 37       		.uleb128 0x37
 10009 2e9f EB010000 		.4byte	.LASF366
 10010 2ea3 EB010000 		.4byte	.LASF366
 10011 2ea7 13       		.byte	0x13
 10012 2ea8 85       		.byte	0x85
 10013 2ea9 37       		.uleb128 0x37
 10014 2eaa 950A0000 		.4byte	.LASF367
 10015 2eae 950A0000 		.4byte	.LASF367
 10016 2eb2 13       		.byte	0x13
 10017 2eb3 83       		.byte	0x83
 10018 2eb4 38       		.uleb128 0x38
 10019 2eb5 4D070000 		.4byte	.LASF368
 10020 2eb9 4D070000 		.4byte	.LASF368
 10021 2ebd 12       		.byte	0x12
 10022 2ebe 7F01     		.2byte	0x17f
 10023 2ec0 37       		.uleb128 0x37
 10024 2ec1 97050000 		.4byte	.LASF369
 10025 2ec5 97050000 		.4byte	.LASF369
 10026 2ec9 18       		.byte	0x18
 10027 2eca 60       		.byte	0x60
 10028 2ecb 37       		.uleb128 0x37
 10029 2ecc C0020000 		.4byte	.LASF370
 10030 2ed0 C0020000 		.4byte	.LASF370
 10031 2ed4 18       		.byte	0x18
 10032 2ed5 62       		.byte	0x62
 10033 2ed6 37       		.uleb128 0x37
 10034 2ed7 AC0A0000 		.4byte	.LASF371
 10035 2edb AC0A0000 		.4byte	.LASF371
 10036 2edf 19       		.byte	0x19
 10037 2ee0 6E       		.byte	0x6e
 10038 2ee1 00       		.byte	0
 10039              		.section	.debug_abbrev,"",%progbits
 10040              	.Ldebug_abbrev0:
 10041 0000 01       		.uleb128 0x1
 10042 0001 11       		.uleb128 0x11
 10043 0002 01       		.byte	0x1
 10044 0003 25       		.uleb128 0x25
 10045 0004 0E       		.uleb128 0xe
 10046 0005 13       		.uleb128 0x13
 10047 0006 0B       		.uleb128 0xb
 10048 0007 03       		.uleb128 0x3
 10049 0008 0E       		.uleb128 0xe
 10050 0009 1B       		.uleb128 0x1b
 10051 000a 0E       		.uleb128 0xe
ARM GAS  C:\Users\Phuong\AppData\Local\Temp\ccTHzCbL.s 			page 224


 10052 000b 55       		.uleb128 0x55
 10053 000c 17       		.uleb128 0x17
 10054 000d 11       		.uleb128 0x11
 10055 000e 01       		.uleb128 0x1
 10056 000f 10       		.uleb128 0x10
 10057 0010 17       		.uleb128 0x17
 10058 0011 00       		.byte	0
 10059 0012 00       		.byte	0
 10060 0013 02       		.uleb128 0x2
 10061 0014 24       		.uleb128 0x24
 10062 0015 00       		.byte	0
 10063 0016 0B       		.uleb128 0xb
 10064 0017 0B       		.uleb128 0xb
 10065 0018 3E       		.uleb128 0x3e
 10066 0019 0B       		.uleb128 0xb
 10067 001a 03       		.uleb128 0x3
 10068 001b 0E       		.uleb128 0xe
 10069 001c 00       		.byte	0
 10070 001d 00       		.byte	0
 10071 001e 03       		.uleb128 0x3
 10072 001f 16       		.uleb128 0x16
 10073 0020 00       		.byte	0
 10074 0021 03       		.uleb128 0x3
 10075 0022 0E       		.uleb128 0xe
 10076 0023 3A       		.uleb128 0x3a
 10077 0024 0B       		.uleb128 0xb
 10078 0025 3B       		.uleb128 0x3b
 10079 0026 0B       		.uleb128 0xb
 10080 0027 49       		.uleb128 0x49
 10081 0028 13       		.uleb128 0x13
 10082 0029 00       		.byte	0
 10083 002a 00       		.byte	0
 10084 002b 04       		.uleb128 0x4
 10085 002c 24       		.uleb128 0x24
 10086 002d 00       		.byte	0
 10087 002e 0B       		.uleb128 0xb
 10088 002f 0B       		.uleb128 0xb
 10089 0030 3E       		.uleb128 0x3e
 10090 0031 0B       		.uleb128 0xb
 10091 0032 03       		.uleb128 0x3
 10092 0033 08       		.uleb128 0x8
 10093 0034 00       		.byte	0
 10094 0035 00       		.byte	0
 10095 0036 05       		.uleb128 0x5
 10096 0037 0F       		.uleb128 0xf
 10097 0038 00       		.byte	0
 10098 0039 0B       		.uleb128 0xb
 10099 003a 0B       		.uleb128 0xb
 10100 003b 00       		.byte	0
 10101 003c 00       		.byte	0
 10102 003d 06       		.uleb128 0x6
 10103 003e 0F       		.uleb128 0xf
 10104 003f 00       		.byte	0
 10105 0040 0B       		.uleb128 0xb
 10106 0041 0B       		.uleb128 0xb
 10107 0042 49       		.uleb128 0x49
 10108 0043 13       		.uleb128 0x13
ARM GAS  C:\Users\Phuong\AppData\Local\Temp\ccTHzCbL.s 			page 225


 10109 0044 00       		.byte	0
 10110 0045 00       		.byte	0
 10111 0046 07       		.uleb128 0x7
 10112 0047 26       		.uleb128 0x26
 10113 0048 00       		.byte	0
 10114 0049 49       		.uleb128 0x49
 10115 004a 13       		.uleb128 0x13
 10116 004b 00       		.byte	0
 10117 004c 00       		.byte	0
 10118 004d 08       		.uleb128 0x8
 10119 004e 26       		.uleb128 0x26
 10120 004f 00       		.byte	0
 10121 0050 00       		.byte	0
 10122 0051 00       		.byte	0
 10123 0052 09       		.uleb128 0x9
 10124 0053 01       		.uleb128 0x1
 10125 0054 01       		.byte	0x1
 10126 0055 49       		.uleb128 0x49
 10127 0056 13       		.uleb128 0x13
 10128 0057 01       		.uleb128 0x1
 10129 0058 13       		.uleb128 0x13
 10130 0059 00       		.byte	0
 10131 005a 00       		.byte	0
 10132 005b 0A       		.uleb128 0xa
 10133 005c 21       		.uleb128 0x21
 10134 005d 00       		.byte	0
 10135 005e 49       		.uleb128 0x49
 10136 005f 13       		.uleb128 0x13
 10137 0060 2F       		.uleb128 0x2f
 10138 0061 0B       		.uleb128 0xb
 10139 0062 00       		.byte	0
 10140 0063 00       		.byte	0
 10141 0064 0B       		.uleb128 0xb
 10142 0065 13       		.uleb128 0x13
 10143 0066 01       		.byte	0x1
 10144 0067 03       		.uleb128 0x3
 10145 0068 0E       		.uleb128 0xe
 10146 0069 0B       		.uleb128 0xb
 10147 006a 0B       		.uleb128 0xb
 10148 006b 3A       		.uleb128 0x3a
 10149 006c 0B       		.uleb128 0xb
 10150 006d 3B       		.uleb128 0x3b
 10151 006e 0B       		.uleb128 0xb
 10152 006f 01       		.uleb128 0x1
 10153 0070 13       		.uleb128 0x13
 10154 0071 00       		.byte	0
 10155 0072 00       		.byte	0
 10156 0073 0C       		.uleb128 0xc
 10157 0074 0D       		.uleb128 0xd
 10158 0075 00       		.byte	0
 10159 0076 03       		.uleb128 0x3
 10160 0077 0E       		.uleb128 0xe
 10161 0078 3A       		.uleb128 0x3a
 10162 0079 0B       		.uleb128 0xb
 10163 007a 3B       		.uleb128 0x3b
 10164 007b 0B       		.uleb128 0xb
 10165 007c 49       		.uleb128 0x49
ARM GAS  C:\Users\Phuong\AppData\Local\Temp\ccTHzCbL.s 			page 226


 10166 007d 13       		.uleb128 0x13
 10167 007e 38       		.uleb128 0x38
 10168 007f 0B       		.uleb128 0xb
 10169 0080 00       		.byte	0
 10170 0081 00       		.byte	0
 10171 0082 0D       		.uleb128 0xd
 10172 0083 04       		.uleb128 0x4
 10173 0084 01       		.byte	0x1
 10174 0085 03       		.uleb128 0x3
 10175 0086 0E       		.uleb128 0xe
 10176 0087 0B       		.uleb128 0xb
 10177 0088 0B       		.uleb128 0xb
 10178 0089 49       		.uleb128 0x49
 10179 008a 13       		.uleb128 0x13
 10180 008b 3A       		.uleb128 0x3a
 10181 008c 0B       		.uleb128 0xb
 10182 008d 3B       		.uleb128 0x3b
 10183 008e 0B       		.uleb128 0xb
 10184 008f 01       		.uleb128 0x1
 10185 0090 13       		.uleb128 0x13
 10186 0091 00       		.byte	0
 10187 0092 00       		.byte	0
 10188 0093 0E       		.uleb128 0xe
 10189 0094 28       		.uleb128 0x28
 10190 0095 00       		.byte	0
 10191 0096 03       		.uleb128 0x3
 10192 0097 0E       		.uleb128 0xe
 10193 0098 1C       		.uleb128 0x1c
 10194 0099 0B       		.uleb128 0xb
 10195 009a 00       		.byte	0
 10196 009b 00       		.byte	0
 10197 009c 0F       		.uleb128 0xf
 10198 009d 04       		.uleb128 0x4
 10199 009e 01       		.byte	0x1
 10200 009f 0B       		.uleb128 0xb
 10201 00a0 0B       		.uleb128 0xb
 10202 00a1 49       		.uleb128 0x49
 10203 00a2 13       		.uleb128 0x13
 10204 00a3 3A       		.uleb128 0x3a
 10205 00a4 0B       		.uleb128 0xb
 10206 00a5 3B       		.uleb128 0x3b
 10207 00a6 0B       		.uleb128 0xb
 10208 00a7 01       		.uleb128 0x1
 10209 00a8 13       		.uleb128 0x13
 10210 00a9 00       		.byte	0
 10211 00aa 00       		.byte	0
 10212 00ab 10       		.uleb128 0x10
 10213 00ac 28       		.uleb128 0x28
 10214 00ad 00       		.byte	0
 10215 00ae 03       		.uleb128 0x3
 10216 00af 0E       		.uleb128 0xe
 10217 00b0 1C       		.uleb128 0x1c
 10218 00b1 0D       		.uleb128 0xd
 10219 00b2 00       		.byte	0
 10220 00b3 00       		.byte	0
 10221 00b4 11       		.uleb128 0x11
 10222 00b5 0D       		.uleb128 0xd
ARM GAS  C:\Users\Phuong\AppData\Local\Temp\ccTHzCbL.s 			page 227


 10223 00b6 00       		.byte	0
 10224 00b7 03       		.uleb128 0x3
 10225 00b8 08       		.uleb128 0x8
 10226 00b9 3A       		.uleb128 0x3a
 10227 00ba 0B       		.uleb128 0xb
 10228 00bb 3B       		.uleb128 0x3b
 10229 00bc 0B       		.uleb128 0xb
 10230 00bd 49       		.uleb128 0x49
 10231 00be 13       		.uleb128 0x13
 10232 00bf 38       		.uleb128 0x38
 10233 00c0 0B       		.uleb128 0xb
 10234 00c1 00       		.byte	0
 10235 00c2 00       		.byte	0
 10236 00c3 12       		.uleb128 0x12
 10237 00c4 0D       		.uleb128 0xd
 10238 00c5 00       		.byte	0
 10239 00c6 03       		.uleb128 0x3
 10240 00c7 0E       		.uleb128 0xe
 10241 00c8 3A       		.uleb128 0x3a
 10242 00c9 0B       		.uleb128 0xb
 10243 00ca 3B       		.uleb128 0x3b
 10244 00cb 05       		.uleb128 0x5
 10245 00cc 49       		.uleb128 0x49
 10246 00cd 13       		.uleb128 0x13
 10247 00ce 38       		.uleb128 0x38
 10248 00cf 0B       		.uleb128 0xb
 10249 00d0 00       		.byte	0
 10250 00d1 00       		.byte	0
 10251 00d2 13       		.uleb128 0x13
 10252 00d3 0D       		.uleb128 0xd
 10253 00d4 00       		.byte	0
 10254 00d5 03       		.uleb128 0x3
 10255 00d6 08       		.uleb128 0x8
 10256 00d7 3A       		.uleb128 0x3a
 10257 00d8 0B       		.uleb128 0xb
 10258 00d9 3B       		.uleb128 0x3b
 10259 00da 05       		.uleb128 0x5
 10260 00db 49       		.uleb128 0x49
 10261 00dc 13       		.uleb128 0x13
 10262 00dd 38       		.uleb128 0x38
 10263 00de 0B       		.uleb128 0xb
 10264 00df 00       		.byte	0
 10265 00e0 00       		.byte	0
 10266 00e1 14       		.uleb128 0x14
 10267 00e2 15       		.uleb128 0x15
 10268 00e3 01       		.byte	0x1
 10269 00e4 27       		.uleb128 0x27
 10270 00e5 19       		.uleb128 0x19
 10271 00e6 49       		.uleb128 0x49
 10272 00e7 13       		.uleb128 0x13
 10273 00e8 01       		.uleb128 0x1
 10274 00e9 13       		.uleb128 0x13
 10275 00ea 00       		.byte	0
 10276 00eb 00       		.byte	0
 10277 00ec 15       		.uleb128 0x15
 10278 00ed 05       		.uleb128 0x5
 10279 00ee 00       		.byte	0
ARM GAS  C:\Users\Phuong\AppData\Local\Temp\ccTHzCbL.s 			page 228


 10280 00ef 49       		.uleb128 0x49
 10281 00f0 13       		.uleb128 0x13
 10282 00f1 00       		.byte	0
 10283 00f2 00       		.byte	0
 10284 00f3 16       		.uleb128 0x16
 10285 00f4 15       		.uleb128 0x15
 10286 00f5 01       		.byte	0x1
 10287 00f6 27       		.uleb128 0x27
 10288 00f7 19       		.uleb128 0x19
 10289 00f8 01       		.uleb128 0x1
 10290 00f9 13       		.uleb128 0x13
 10291 00fa 00       		.byte	0
 10292 00fb 00       		.byte	0
 10293 00fc 17       		.uleb128 0x17
 10294 00fd 17       		.uleb128 0x17
 10295 00fe 01       		.byte	0x1
 10296 00ff 0B       		.uleb128 0xb
 10297 0100 0B       		.uleb128 0xb
 10298 0101 3A       		.uleb128 0x3a
 10299 0102 0B       		.uleb128 0xb
 10300 0103 3B       		.uleb128 0x3b
 10301 0104 0B       		.uleb128 0xb
 10302 0105 01       		.uleb128 0x1
 10303 0106 13       		.uleb128 0x13
 10304 0107 00       		.byte	0
 10305 0108 00       		.byte	0
 10306 0109 18       		.uleb128 0x18
 10307 010a 0D       		.uleb128 0xd
 10308 010b 00       		.byte	0
 10309 010c 03       		.uleb128 0x3
 10310 010d 08       		.uleb128 0x8
 10311 010e 3A       		.uleb128 0x3a
 10312 010f 0B       		.uleb128 0xb
 10313 0110 3B       		.uleb128 0x3b
 10314 0111 0B       		.uleb128 0xb
 10315 0112 49       		.uleb128 0x49
 10316 0113 13       		.uleb128 0x13
 10317 0114 00       		.byte	0
 10318 0115 00       		.byte	0
 10319 0116 19       		.uleb128 0x19
 10320 0117 13       		.uleb128 0x13
 10321 0118 01       		.byte	0x1
 10322 0119 0B       		.uleb128 0xb
 10323 011a 0B       		.uleb128 0xb
 10324 011b 3A       		.uleb128 0x3a
 10325 011c 0B       		.uleb128 0xb
 10326 011d 3B       		.uleb128 0x3b
 10327 011e 0B       		.uleb128 0xb
 10328 011f 01       		.uleb128 0x1
 10329 0120 13       		.uleb128 0x13
 10330 0121 00       		.byte	0
 10331 0122 00       		.byte	0
 10332 0123 1A       		.uleb128 0x1a
 10333 0124 13       		.uleb128 0x13
 10334 0125 00       		.byte	0
 10335 0126 03       		.uleb128 0x3
 10336 0127 0E       		.uleb128 0xe
ARM GAS  C:\Users\Phuong\AppData\Local\Temp\ccTHzCbL.s 			page 229


 10337 0128 3C       		.uleb128 0x3c
 10338 0129 19       		.uleb128 0x19
 10339 012a 00       		.byte	0
 10340 012b 00       		.byte	0
 10341 012c 1B       		.uleb128 0x1b
 10342 012d 2E       		.uleb128 0x2e
 10343 012e 01       		.byte	0x1
 10344 012f 03       		.uleb128 0x3
 10345 0130 0E       		.uleb128 0xe
 10346 0131 3A       		.uleb128 0x3a
 10347 0132 0B       		.uleb128 0xb
 10348 0133 3B       		.uleb128 0x3b
 10349 0134 05       		.uleb128 0x5
 10350 0135 27       		.uleb128 0x27
 10351 0136 19       		.uleb128 0x19
 10352 0137 11       		.uleb128 0x11
 10353 0138 01       		.uleb128 0x1
 10354 0139 12       		.uleb128 0x12
 10355 013a 06       		.uleb128 0x6
 10356 013b 40       		.uleb128 0x40
 10357 013c 18       		.uleb128 0x18
 10358 013d 9742     		.uleb128 0x2117
 10359 013f 19       		.uleb128 0x19
 10360 0140 01       		.uleb128 0x1
 10361 0141 13       		.uleb128 0x13
 10362 0142 00       		.byte	0
 10363 0143 00       		.byte	0
 10364 0144 1C       		.uleb128 0x1c
 10365 0145 05       		.uleb128 0x5
 10366 0146 00       		.byte	0
 10367 0147 03       		.uleb128 0x3
 10368 0148 0E       		.uleb128 0xe
 10369 0149 3A       		.uleb128 0x3a
 10370 014a 0B       		.uleb128 0xb
 10371 014b 3B       		.uleb128 0x3b
 10372 014c 05       		.uleb128 0x5
 10373 014d 49       		.uleb128 0x49
 10374 014e 13       		.uleb128 0x13
 10375 014f 02       		.uleb128 0x2
 10376 0150 17       		.uleb128 0x17
 10377 0151 00       		.byte	0
 10378 0152 00       		.byte	0
 10379 0153 1D       		.uleb128 0x1d
 10380 0154 05       		.uleb128 0x5
 10381 0155 00       		.byte	0
 10382 0156 03       		.uleb128 0x3
 10383 0157 08       		.uleb128 0x8
 10384 0158 3A       		.uleb128 0x3a
 10385 0159 0B       		.uleb128 0xb
 10386 015a 3B       		.uleb128 0x3b
 10387 015b 05       		.uleb128 0x5
 10388 015c 49       		.uleb128 0x49
 10389 015d 13       		.uleb128 0x13
 10390 015e 02       		.uleb128 0x2
 10391 015f 17       		.uleb128 0x17
 10392 0160 00       		.byte	0
 10393 0161 00       		.byte	0
ARM GAS  C:\Users\Phuong\AppData\Local\Temp\ccTHzCbL.s 			page 230


 10394 0162 1E       		.uleb128 0x1e
 10395 0163 34       		.uleb128 0x34
 10396 0164 00       		.byte	0
 10397 0165 03       		.uleb128 0x3
 10398 0166 08       		.uleb128 0x8
 10399 0167 3A       		.uleb128 0x3a
 10400 0168 0B       		.uleb128 0xb
 10401 0169 3B       		.uleb128 0x3b
 10402 016a 05       		.uleb128 0x5
 10403 016b 49       		.uleb128 0x49
 10404 016c 13       		.uleb128 0x13
 10405 016d 02       		.uleb128 0x2
 10406 016e 17       		.uleb128 0x17
 10407 016f 00       		.byte	0
 10408 0170 00       		.byte	0
 10409 0171 1F       		.uleb128 0x1f
 10410 0172 898201   		.uleb128 0x4109
 10411 0175 00       		.byte	0
 10412 0176 11       		.uleb128 0x11
 10413 0177 01       		.uleb128 0x1
 10414 0178 31       		.uleb128 0x31
 10415 0179 13       		.uleb128 0x13
 10416 017a 00       		.byte	0
 10417 017b 00       		.byte	0
 10418 017c 20       		.uleb128 0x20
 10419 017d 2E       		.uleb128 0x2e
 10420 017e 01       		.byte	0x1
 10421 017f 03       		.uleb128 0x3
 10422 0180 0E       		.uleb128 0xe
 10423 0181 3A       		.uleb128 0x3a
 10424 0182 0B       		.uleb128 0xb
 10425 0183 3B       		.uleb128 0x3b
 10426 0184 0B       		.uleb128 0xb
 10427 0185 27       		.uleb128 0x27
 10428 0186 19       		.uleb128 0x19
 10429 0187 11       		.uleb128 0x11
 10430 0188 01       		.uleb128 0x1
 10431 0189 12       		.uleb128 0x12
 10432 018a 06       		.uleb128 0x6
 10433 018b 40       		.uleb128 0x40
 10434 018c 18       		.uleb128 0x18
 10435 018d 9742     		.uleb128 0x2117
 10436 018f 19       		.uleb128 0x19
 10437 0190 01       		.uleb128 0x1
 10438 0191 13       		.uleb128 0x13
 10439 0192 00       		.byte	0
 10440 0193 00       		.byte	0
 10441 0194 21       		.uleb128 0x21
 10442 0195 05       		.uleb128 0x5
 10443 0196 00       		.byte	0
 10444 0197 03       		.uleb128 0x3
 10445 0198 08       		.uleb128 0x8
 10446 0199 3A       		.uleb128 0x3a
 10447 019a 0B       		.uleb128 0xb
 10448 019b 3B       		.uleb128 0x3b
 10449 019c 0B       		.uleb128 0xb
 10450 019d 49       		.uleb128 0x49
ARM GAS  C:\Users\Phuong\AppData\Local\Temp\ccTHzCbL.s 			page 231


 10451 019e 13       		.uleb128 0x13
 10452 019f 02       		.uleb128 0x2
 10453 01a0 17       		.uleb128 0x17
 10454 01a1 00       		.byte	0
 10455 01a2 00       		.byte	0
 10456 01a3 22       		.uleb128 0x22
 10457 01a4 05       		.uleb128 0x5
 10458 01a5 00       		.byte	0
 10459 01a6 03       		.uleb128 0x3
 10460 01a7 0E       		.uleb128 0xe
 10461 01a8 3A       		.uleb128 0x3a
 10462 01a9 0B       		.uleb128 0xb
 10463 01aa 3B       		.uleb128 0x3b
 10464 01ab 0B       		.uleb128 0xb
 10465 01ac 49       		.uleb128 0x49
 10466 01ad 13       		.uleb128 0x13
 10467 01ae 02       		.uleb128 0x2
 10468 01af 17       		.uleb128 0x17
 10469 01b0 00       		.byte	0
 10470 01b1 00       		.byte	0
 10471 01b2 23       		.uleb128 0x23
 10472 01b3 34       		.uleb128 0x34
 10473 01b4 00       		.byte	0
 10474 01b5 03       		.uleb128 0x3
 10475 01b6 08       		.uleb128 0x8
 10476 01b7 3A       		.uleb128 0x3a
 10477 01b8 0B       		.uleb128 0xb
 10478 01b9 3B       		.uleb128 0x3b
 10479 01ba 0B       		.uleb128 0xb
 10480 01bb 49       		.uleb128 0x49
 10481 01bc 13       		.uleb128 0x13
 10482 01bd 02       		.uleb128 0x2
 10483 01be 17       		.uleb128 0x17
 10484 01bf 00       		.byte	0
 10485 01c0 00       		.byte	0
 10486 01c1 24       		.uleb128 0x24
 10487 01c2 34       		.uleb128 0x34
 10488 01c3 00       		.byte	0
 10489 01c4 03       		.uleb128 0x3
 10490 01c5 0E       		.uleb128 0xe
 10491 01c6 3A       		.uleb128 0x3a
 10492 01c7 0B       		.uleb128 0xb
 10493 01c8 3B       		.uleb128 0x3b
 10494 01c9 0B       		.uleb128 0xb
 10495 01ca 49       		.uleb128 0x49
 10496 01cb 13       		.uleb128 0x13
 10497 01cc 02       		.uleb128 0x2
 10498 01cd 17       		.uleb128 0x17
 10499 01ce 00       		.byte	0
 10500 01cf 00       		.byte	0
 10501 01d0 25       		.uleb128 0x25
 10502 01d1 898201   		.uleb128 0x4109
 10503 01d4 01       		.byte	0x1
 10504 01d5 11       		.uleb128 0x11
 10505 01d6 01       		.uleb128 0x1
 10506 01d7 31       		.uleb128 0x31
 10507 01d8 13       		.uleb128 0x13
ARM GAS  C:\Users\Phuong\AppData\Local\Temp\ccTHzCbL.s 			page 232


 10508 01d9 01       		.uleb128 0x1
 10509 01da 13       		.uleb128 0x13
 10510 01db 00       		.byte	0
 10511 01dc 00       		.byte	0
 10512 01dd 26       		.uleb128 0x26
 10513 01de 8A8201   		.uleb128 0x410a
 10514 01e1 00       		.byte	0
 10515 01e2 02       		.uleb128 0x2
 10516 01e3 18       		.uleb128 0x18
 10517 01e4 9142     		.uleb128 0x2111
 10518 01e6 18       		.uleb128 0x18
 10519 01e7 00       		.byte	0
 10520 01e8 00       		.byte	0
 10521 01e9 27       		.uleb128 0x27
 10522 01ea 898201   		.uleb128 0x4109
 10523 01ed 01       		.byte	0x1
 10524 01ee 11       		.uleb128 0x11
 10525 01ef 01       		.uleb128 0x1
 10526 01f0 00       		.byte	0
 10527 01f1 00       		.byte	0
 10528 01f2 28       		.uleb128 0x28
 10529 01f3 2E       		.uleb128 0x2e
 10530 01f4 01       		.byte	0x1
 10531 01f5 03       		.uleb128 0x3
 10532 01f6 0E       		.uleb128 0xe
 10533 01f7 3A       		.uleb128 0x3a
 10534 01f8 0B       		.uleb128 0xb
 10535 01f9 3B       		.uleb128 0x3b
 10536 01fa 0B       		.uleb128 0xb
 10537 01fb 27       		.uleb128 0x27
 10538 01fc 19       		.uleb128 0x19
 10539 01fd 49       		.uleb128 0x49
 10540 01fe 13       		.uleb128 0x13
 10541 01ff 11       		.uleb128 0x11
 10542 0200 01       		.uleb128 0x1
 10543 0201 12       		.uleb128 0x12
 10544 0202 06       		.uleb128 0x6
 10545 0203 40       		.uleb128 0x40
 10546 0204 18       		.uleb128 0x18
 10547 0205 9742     		.uleb128 0x2117
 10548 0207 19       		.uleb128 0x19
 10549 0208 01       		.uleb128 0x1
 10550 0209 13       		.uleb128 0x13
 10551 020a 00       		.byte	0
 10552 020b 00       		.byte	0
 10553 020c 29       		.uleb128 0x29
 10554 020d 0B       		.uleb128 0xb
 10555 020e 01       		.byte	0x1
 10556 020f 11       		.uleb128 0x11
 10557 0210 01       		.uleb128 0x1
 10558 0211 12       		.uleb128 0x12
 10559 0212 06       		.uleb128 0x6
 10560 0213 01       		.uleb128 0x1
 10561 0214 13       		.uleb128 0x13
 10562 0215 00       		.byte	0
 10563 0216 00       		.byte	0
 10564 0217 2A       		.uleb128 0x2a
ARM GAS  C:\Users\Phuong\AppData\Local\Temp\ccTHzCbL.s 			page 233


 10565 0218 898201   		.uleb128 0x4109
 10566 021b 01       		.byte	0x1
 10567 021c 11       		.uleb128 0x11
 10568 021d 01       		.uleb128 0x1
 10569 021e 31       		.uleb128 0x31
 10570 021f 13       		.uleb128 0x13
 10571 0220 00       		.byte	0
 10572 0221 00       		.byte	0
 10573 0222 2B       		.uleb128 0x2b
 10574 0223 34       		.uleb128 0x34
 10575 0224 00       		.byte	0
 10576 0225 03       		.uleb128 0x3
 10577 0226 0E       		.uleb128 0xe
 10578 0227 3A       		.uleb128 0x3a
 10579 0228 0B       		.uleb128 0xb
 10580 0229 3B       		.uleb128 0x3b
 10581 022a 05       		.uleb128 0x5
 10582 022b 49       		.uleb128 0x49
 10583 022c 13       		.uleb128 0x13
 10584 022d 1C       		.uleb128 0x1c
 10585 022e 0B       		.uleb128 0xb
 10586 022f 00       		.byte	0
 10587 0230 00       		.byte	0
 10588 0231 2C       		.uleb128 0x2c
 10589 0232 2E       		.uleb128 0x2e
 10590 0233 01       		.byte	0x1
 10591 0234 03       		.uleb128 0x3
 10592 0235 0E       		.uleb128 0xe
 10593 0236 3A       		.uleb128 0x3a
 10594 0237 0B       		.uleb128 0xb
 10595 0238 3B       		.uleb128 0x3b
 10596 0239 05       		.uleb128 0x5
 10597 023a 27       		.uleb128 0x27
 10598 023b 19       		.uleb128 0x19
 10599 023c 49       		.uleb128 0x49
 10600 023d 13       		.uleb128 0x13
 10601 023e 11       		.uleb128 0x11
 10602 023f 01       		.uleb128 0x1
 10603 0240 12       		.uleb128 0x12
 10604 0241 06       		.uleb128 0x6
 10605 0242 40       		.uleb128 0x40
 10606 0243 18       		.uleb128 0x18
 10607 0244 9742     		.uleb128 0x2117
 10608 0246 19       		.uleb128 0x19
 10609 0247 01       		.uleb128 0x1
 10610 0248 13       		.uleb128 0x13
 10611 0249 00       		.byte	0
 10612 024a 00       		.byte	0
 10613 024b 2D       		.uleb128 0x2d
 10614 024c 34       		.uleb128 0x34
 10615 024d 00       		.byte	0
 10616 024e 03       		.uleb128 0x3
 10617 024f 0E       		.uleb128 0xe
 10618 0250 3A       		.uleb128 0x3a
 10619 0251 0B       		.uleb128 0xb
 10620 0252 3B       		.uleb128 0x3b
 10621 0253 05       		.uleb128 0x5
ARM GAS  C:\Users\Phuong\AppData\Local\Temp\ccTHzCbL.s 			page 234


 10622 0254 49       		.uleb128 0x49
 10623 0255 13       		.uleb128 0x13
 10624 0256 02       		.uleb128 0x2
 10625 0257 17       		.uleb128 0x17
 10626 0258 00       		.byte	0
 10627 0259 00       		.byte	0
 10628 025a 2E       		.uleb128 0x2e
 10629 025b 898201   		.uleb128 0x4109
 10630 025e 01       		.byte	0x1
 10631 025f 11       		.uleb128 0x11
 10632 0260 01       		.uleb128 0x1
 10633 0261 01       		.uleb128 0x1
 10634 0262 13       		.uleb128 0x13
 10635 0263 00       		.byte	0
 10636 0264 00       		.byte	0
 10637 0265 2F       		.uleb128 0x2f
 10638 0266 0B       		.uleb128 0xb
 10639 0267 01       		.byte	0x1
 10640 0268 11       		.uleb128 0x11
 10641 0269 01       		.uleb128 0x1
 10642 026a 12       		.uleb128 0x12
 10643 026b 06       		.uleb128 0x6
 10644 026c 00       		.byte	0
 10645 026d 00       		.byte	0
 10646 026e 30       		.uleb128 0x30
 10647 026f 0A       		.uleb128 0xa
 10648 0270 00       		.byte	0
 10649 0271 03       		.uleb128 0x3
 10650 0272 0E       		.uleb128 0xe
 10651 0273 3A       		.uleb128 0x3a
 10652 0274 0B       		.uleb128 0xb
 10653 0275 3B       		.uleb128 0x3b
 10654 0276 05       		.uleb128 0x5
 10655 0277 11       		.uleb128 0x11
 10656 0278 01       		.uleb128 0x1
 10657 0279 00       		.byte	0
 10658 027a 00       		.byte	0
 10659 027b 31       		.uleb128 0x31
 10660 027c 0B       		.uleb128 0xb
 10661 027d 01       		.byte	0x1
 10662 027e 55       		.uleb128 0x55
 10663 027f 17       		.uleb128 0x17
 10664 0280 01       		.uleb128 0x1
 10665 0281 13       		.uleb128 0x13
 10666 0282 00       		.byte	0
 10667 0283 00       		.byte	0
 10668 0284 32       		.uleb128 0x32
 10669 0285 2E       		.uleb128 0x2e
 10670 0286 01       		.byte	0x1
 10671 0287 3F       		.uleb128 0x3f
 10672 0288 19       		.uleb128 0x19
 10673 0289 03       		.uleb128 0x3
 10674 028a 0E       		.uleb128 0xe
 10675 028b 3A       		.uleb128 0x3a
 10676 028c 0B       		.uleb128 0xb
 10677 028d 3B       		.uleb128 0x3b
 10678 028e 05       		.uleb128 0x5
ARM GAS  C:\Users\Phuong\AppData\Local\Temp\ccTHzCbL.s 			page 235


 10679 028f 27       		.uleb128 0x27
 10680 0290 19       		.uleb128 0x19
 10681 0291 11       		.uleb128 0x11
 10682 0292 01       		.uleb128 0x1
 10683 0293 12       		.uleb128 0x12
 10684 0294 06       		.uleb128 0x6
 10685 0295 40       		.uleb128 0x40
 10686 0296 18       		.uleb128 0x18
 10687 0297 9742     		.uleb128 0x2117
 10688 0299 19       		.uleb128 0x19
 10689 029a 01       		.uleb128 0x1
 10690 029b 13       		.uleb128 0x13
 10691 029c 00       		.byte	0
 10692 029d 00       		.byte	0
 10693 029e 33       		.uleb128 0x33
 10694 029f 2E       		.uleb128 0x2e
 10695 02a0 01       		.byte	0x1
 10696 02a1 3F       		.uleb128 0x3f
 10697 02a2 19       		.uleb128 0x19
 10698 02a3 03       		.uleb128 0x3
 10699 02a4 0E       		.uleb128 0xe
 10700 02a5 3A       		.uleb128 0x3a
 10701 02a6 0B       		.uleb128 0xb
 10702 02a7 3B       		.uleb128 0x3b
 10703 02a8 05       		.uleb128 0x5
 10704 02a9 27       		.uleb128 0x27
 10705 02aa 19       		.uleb128 0x19
 10706 02ab 49       		.uleb128 0x49
 10707 02ac 13       		.uleb128 0x13
 10708 02ad 11       		.uleb128 0x11
 10709 02ae 01       		.uleb128 0x1
 10710 02af 12       		.uleb128 0x12
 10711 02b0 06       		.uleb128 0x6
 10712 02b1 40       		.uleb128 0x40
 10713 02b2 18       		.uleb128 0x18
 10714 02b3 9742     		.uleb128 0x2117
 10715 02b5 19       		.uleb128 0x19
 10716 02b6 01       		.uleb128 0x1
 10717 02b7 13       		.uleb128 0x13
 10718 02b8 00       		.byte	0
 10719 02b9 00       		.byte	0
 10720 02ba 34       		.uleb128 0x34
 10721 02bb 34       		.uleb128 0x34
 10722 02bc 00       		.byte	0
 10723 02bd 03       		.uleb128 0x3
 10724 02be 08       		.uleb128 0x8
 10725 02bf 3A       		.uleb128 0x3a
 10726 02c0 0B       		.uleb128 0xb
 10727 02c1 3B       		.uleb128 0x3b
 10728 02c2 05       		.uleb128 0x5
 10729 02c3 49       		.uleb128 0x49
 10730 02c4 13       		.uleb128 0x13
 10731 02c5 02       		.uleb128 0x2
 10732 02c6 18       		.uleb128 0x18
 10733 02c7 00       		.byte	0
 10734 02c8 00       		.byte	0
 10735 02c9 35       		.uleb128 0x35
ARM GAS  C:\Users\Phuong\AppData\Local\Temp\ccTHzCbL.s 			page 236


 10736 02ca 34       		.uleb128 0x34
 10737 02cb 00       		.byte	0
 10738 02cc 03       		.uleb128 0x3
 10739 02cd 0E       		.uleb128 0xe
 10740 02ce 3A       		.uleb128 0x3a
 10741 02cf 0B       		.uleb128 0xb
 10742 02d0 3B       		.uleb128 0x3b
 10743 02d1 0B       		.uleb128 0xb
 10744 02d2 49       		.uleb128 0x49
 10745 02d3 13       		.uleb128 0x13
 10746 02d4 3F       		.uleb128 0x3f
 10747 02d5 19       		.uleb128 0x19
 10748 02d6 02       		.uleb128 0x2
 10749 02d7 18       		.uleb128 0x18
 10750 02d8 00       		.byte	0
 10751 02d9 00       		.byte	0
 10752 02da 36       		.uleb128 0x36
 10753 02db 34       		.uleb128 0x34
 10754 02dc 00       		.byte	0
 10755 02dd 03       		.uleb128 0x3
 10756 02de 0E       		.uleb128 0xe
 10757 02df 3A       		.uleb128 0x3a
 10758 02e0 0B       		.uleb128 0xb
 10759 02e1 3B       		.uleb128 0x3b
 10760 02e2 0B       		.uleb128 0xb
 10761 02e3 49       		.uleb128 0x49
 10762 02e4 13       		.uleb128 0x13
 10763 02e5 3F       		.uleb128 0x3f
 10764 02e6 19       		.uleb128 0x19
 10765 02e7 3C       		.uleb128 0x3c
 10766 02e8 19       		.uleb128 0x19
 10767 02e9 00       		.byte	0
 10768 02ea 00       		.byte	0
 10769 02eb 37       		.uleb128 0x37
 10770 02ec 2E       		.uleb128 0x2e
 10771 02ed 00       		.byte	0
 10772 02ee 3F       		.uleb128 0x3f
 10773 02ef 19       		.uleb128 0x19
 10774 02f0 3C       		.uleb128 0x3c
 10775 02f1 19       		.uleb128 0x19
 10776 02f2 6E       		.uleb128 0x6e
 10777 02f3 0E       		.uleb128 0xe
 10778 02f4 03       		.uleb128 0x3
 10779 02f5 0E       		.uleb128 0xe
 10780 02f6 3A       		.uleb128 0x3a
 10781 02f7 0B       		.uleb128 0xb
 10782 02f8 3B       		.uleb128 0x3b
 10783 02f9 0B       		.uleb128 0xb
 10784 02fa 00       		.byte	0
 10785 02fb 00       		.byte	0
 10786 02fc 38       		.uleb128 0x38
 10787 02fd 2E       		.uleb128 0x2e
 10788 02fe 00       		.byte	0
 10789 02ff 3F       		.uleb128 0x3f
 10790 0300 19       		.uleb128 0x19
 10791 0301 3C       		.uleb128 0x3c
 10792 0302 19       		.uleb128 0x19
ARM GAS  C:\Users\Phuong\AppData\Local\Temp\ccTHzCbL.s 			page 237


 10793 0303 6E       		.uleb128 0x6e
 10794 0304 0E       		.uleb128 0xe
 10795 0305 03       		.uleb128 0x3
 10796 0306 0E       		.uleb128 0xe
 10797 0307 3A       		.uleb128 0x3a
 10798 0308 0B       		.uleb128 0xb
 10799 0309 3B       		.uleb128 0x3b
 10800 030a 05       		.uleb128 0x5
 10801 030b 00       		.byte	0
 10802 030c 00       		.byte	0
 10803 030d 00       		.byte	0
 10804              		.section	.debug_loc,"",%progbits
 10805              	.Ldebug_loc0:
 10806              	.LLST0:
 10807 0000 00000000 		.4byte	.LVL0
 10808 0004 12000000 		.4byte	.LVL4
 10809 0008 0100     		.2byte	0x1
 10810 000a 50       		.byte	0x50
 10811 000b 12000000 		.4byte	.LVL4
 10812 000f 22000000 		.4byte	.LFE81
 10813 0013 0400     		.2byte	0x4
 10814 0015 F3       		.byte	0xf3
 10815 0016 01       		.uleb128 0x1
 10816 0017 50       		.byte	0x50
 10817 0018 9F       		.byte	0x9f
 10818 0019 00000000 		.4byte	0
 10819 001d 00000000 		.4byte	0
 10820              	.LLST1:
 10821 0021 00000000 		.4byte	.LVL0
 10822 0025 0A000000 		.4byte	.LVL2
 10823 0029 0100     		.2byte	0x1
 10824 002b 51       		.byte	0x51
 10825 002c 0A000000 		.4byte	.LVL2
 10826 0030 0E000000 		.4byte	.LVL3
 10827 0034 0400     		.2byte	0x4
 10828 0036 F3       		.byte	0xf3
 10829 0037 01       		.uleb128 0x1
 10830 0038 51       		.byte	0x51
 10831 0039 9F       		.byte	0x9f
 10832 003a 0E000000 		.4byte	.LVL3
 10833 003e 18000000 		.4byte	.LVL5
 10834 0042 0100     		.2byte	0x1
 10835 0044 51       		.byte	0x51
 10836 0045 18000000 		.4byte	.LVL5
 10837 0049 22000000 		.4byte	.LFE81
 10838 004d 0400     		.2byte	0x4
 10839 004f F3       		.byte	0xf3
 10840 0050 01       		.uleb128 0x1
 10841 0051 51       		.byte	0x51
 10842 0052 9F       		.byte	0x9f
 10843 0053 00000000 		.4byte	0
 10844 0057 00000000 		.4byte	0
 10845              	.LLST2:
 10846 005b 00000000 		.4byte	.LVL0
 10847 005f 1F000000 		.4byte	.LVL6-1
 10848 0063 0100     		.2byte	0x1
 10849 0065 52       		.byte	0x52
ARM GAS  C:\Users\Phuong\AppData\Local\Temp\ccTHzCbL.s 			page 238


 10850 0066 1F000000 		.4byte	.LVL6-1
 10851 006a 22000000 		.4byte	.LFE81
 10852 006e 0400     		.2byte	0x4
 10853 0070 F3       		.byte	0xf3
 10854 0071 01       		.uleb128 0x1
 10855 0072 52       		.byte	0x52
 10856 0073 9F       		.byte	0x9f
 10857 0074 00000000 		.4byte	0
 10858 0078 00000000 		.4byte	0
 10859              	.LLST3:
 10860 007c 02000000 		.4byte	.LVL1
 10861 0080 1F000000 		.4byte	.LVL6-1
 10862 0084 0100     		.2byte	0x1
 10863 0086 52       		.byte	0x52
 10864 0087 1F000000 		.4byte	.LVL6-1
 10865 008b 22000000 		.4byte	.LFE81
 10866 008f 0400     		.2byte	0x4
 10867 0091 F3       		.byte	0xf3
 10868 0092 01       		.uleb128 0x1
 10869 0093 52       		.byte	0x52
 10870 0094 9F       		.byte	0x9f
 10871 0095 00000000 		.4byte	0
 10872 0099 00000000 		.4byte	0
 10873              	.LLST4:
 10874 009d 00000000 		.4byte	.LVL7
 10875 00a1 1A000000 		.4byte	.LVL11
 10876 00a5 0100     		.2byte	0x1
 10877 00a7 50       		.byte	0x50
 10878 00a8 1A000000 		.4byte	.LVL11
 10879 00ac 20000000 		.4byte	.LVL13
 10880 00b0 0100     		.2byte	0x1
 10881 00b2 55       		.byte	0x55
 10882 00b3 20000000 		.4byte	.LVL13
 10883 00b7 26000000 		.4byte	.LVL14
 10884 00bb 0100     		.2byte	0x1
 10885 00bd 50       		.byte	0x50
 10886 00be 26000000 		.4byte	.LVL14
 10887 00c2 86000000 		.4byte	.LVL31
 10888 00c6 0100     		.2byte	0x1
 10889 00c8 55       		.byte	0x55
 10890 00c9 86000000 		.4byte	.LVL31
 10891 00cd 94000000 		.4byte	.LFE54
 10892 00d1 0400     		.2byte	0x4
 10893 00d3 F3       		.byte	0xf3
 10894 00d4 01       		.uleb128 0x1
 10895 00d5 50       		.byte	0x50
 10896 00d6 9F       		.byte	0x9f
 10897 00d7 00000000 		.4byte	0
 10898 00db 00000000 		.4byte	0
 10899              	.LLST5:
 10900 00df 00000000 		.4byte	.LVL7
 10901 00e3 1D000000 		.4byte	.LVL12-1
 10902 00e7 0100     		.2byte	0x1
 10903 00e9 51       		.byte	0x51
 10904 00ea 1D000000 		.4byte	.LVL12-1
 10905 00ee 20000000 		.4byte	.LVL13
 10906 00f2 0400     		.2byte	0x4
ARM GAS  C:\Users\Phuong\AppData\Local\Temp\ccTHzCbL.s 			page 239


 10907 00f4 F3       		.byte	0xf3
 10908 00f5 01       		.uleb128 0x1
 10909 00f6 51       		.byte	0x51
 10910 00f7 9F       		.byte	0x9f
 10911 00f8 20000000 		.4byte	.LVL13
 10912 00fc 29000000 		.4byte	.LVL15-1
 10913 0100 0100     		.2byte	0x1
 10914 0102 51       		.byte	0x51
 10915 0103 29000000 		.4byte	.LVL15-1
 10916 0107 94000000 		.4byte	.LFE54
 10917 010b 0400     		.2byte	0x4
 10918 010d F3       		.byte	0xf3
 10919 010e 01       		.uleb128 0x1
 10920 010f 51       		.byte	0x51
 10921 0110 9F       		.byte	0x9f
 10922 0111 00000000 		.4byte	0
 10923 0115 00000000 		.4byte	0
 10924              	.LLST6:
 10925 0119 00000000 		.4byte	.LVL7
 10926 011d 1D000000 		.4byte	.LVL12-1
 10927 0121 0100     		.2byte	0x1
 10928 0123 52       		.byte	0x52
 10929 0124 1D000000 		.4byte	.LVL12-1
 10930 0128 20000000 		.4byte	.LVL13
 10931 012c 0100     		.2byte	0x1
 10932 012e 56       		.byte	0x56
 10933 012f 20000000 		.4byte	.LVL13
 10934 0133 29000000 		.4byte	.LVL15-1
 10935 0137 0100     		.2byte	0x1
 10936 0139 52       		.byte	0x52
 10937 013a 29000000 		.4byte	.LVL15-1
 10938 013e 64000000 		.4byte	.LVL26
 10939 0142 0100     		.2byte	0x1
 10940 0144 56       		.byte	0x56
 10941 0145 64000000 		.4byte	.LVL26
 10942 0149 68000000 		.4byte	.LVL27
 10943 014d 0200     		.2byte	0x2
 10944 014f 70       		.byte	0x70
 10945 0150 00       		.sleb128 0
 10946 0151 68000000 		.4byte	.LVL27
 10947 0155 6B000000 		.4byte	.LVL28-1
 10948 0159 0200     		.2byte	0x2
 10949 015b 74       		.byte	0x74
 10950 015c 00       		.sleb128 0
 10951 015d 6B000000 		.4byte	.LVL28-1
 10952 0161 94000000 		.4byte	.LFE54
 10953 0165 0400     		.2byte	0x4
 10954 0167 F3       		.byte	0xf3
 10955 0168 01       		.uleb128 0x1
 10956 0169 52       		.byte	0x52
 10957 016a 9F       		.byte	0x9f
 10958 016b 00000000 		.4byte	0
 10959 016f 00000000 		.4byte	0
 10960              	.LLST7:
 10961 0173 00000000 		.4byte	.LVL7
 10962 0177 10000000 		.4byte	.LVL8
 10963 017b 0100     		.2byte	0x1
ARM GAS  C:\Users\Phuong\AppData\Local\Temp\ccTHzCbL.s 			page 240


 10964 017d 53       		.byte	0x53
 10965 017e 10000000 		.4byte	.LVL8
 10966 0182 56000000 		.4byte	.LVL22
 10967 0186 0100     		.2byte	0x1
 10968 0188 58       		.byte	0x58
 10969 0189 56000000 		.4byte	.LVL22
 10970 018d 58000000 		.4byte	.LVL23
 10971 0191 0100     		.2byte	0x1
 10972 0193 53       		.byte	0x53
 10973 0194 58000000 		.4byte	.LVL23
 10974 0198 5A000000 		.4byte	.LVL24
 10975 019c 0100     		.2byte	0x1
 10976 019e 58       		.byte	0x58
 10977 019f 5A000000 		.4byte	.LVL24
 10978 01a3 5C000000 		.4byte	.LVL25
 10979 01a7 0100     		.2byte	0x1
 10980 01a9 53       		.byte	0x53
 10981 01aa 5C000000 		.4byte	.LVL25
 10982 01ae 86000000 		.4byte	.LVL32
 10983 01b2 0100     		.2byte	0x1
 10984 01b4 58       		.byte	0x58
 10985 01b5 86000000 		.4byte	.LVL32
 10986 01b9 94000000 		.4byte	.LFE54
 10987 01bd 0400     		.2byte	0x4
 10988 01bf F3       		.byte	0xf3
 10989 01c0 01       		.uleb128 0x1
 10990 01c1 53       		.byte	0x53
 10991 01c2 9F       		.byte	0x9f
 10992 01c3 00000000 		.4byte	0
 10993 01c7 00000000 		.4byte	0
 10994              	.LLST8:
 10995 01cb 00000000 		.4byte	.LVL7
 10996 01cf 10000000 		.4byte	.LVL8
 10997 01d3 0200     		.2byte	0x2
 10998 01d5 91       		.byte	0x91
 10999 01d6 00       		.sleb128 0
 11000 01d7 10000000 		.4byte	.LVL8
 11001 01db 12000000 		.4byte	.LVL9
 11002 01df 0200     		.2byte	0x2
 11003 01e1 73       		.byte	0x73
 11004 01e2 00       		.sleb128 0
 11005 01e3 12000000 		.4byte	.LVL9
 11006 01e7 94000000 		.4byte	.LFE54
 11007 01eb 0200     		.2byte	0x2
 11008 01ed 91       		.byte	0x91
 11009 01ee 00       		.sleb128 0
 11010 01ef 00000000 		.4byte	0
 11011 01f3 00000000 		.4byte	0
 11012              	.LLST9:
 11013 01f7 42000000 		.4byte	.LVL18
 11014 01fb 46000000 		.4byte	.LVL19
 11015 01ff 0100     		.2byte	0x1
 11016 0201 50       		.byte	0x50
 11017 0202 46000000 		.4byte	.LVL19
 11018 0206 4C000000 		.4byte	.LVL21
 11019 020a 0100     		.2byte	0x1
 11020 020c 54       		.byte	0x54
ARM GAS  C:\Users\Phuong\AppData\Local\Temp\ccTHzCbL.s 			page 241


 11021 020d 4C000000 		.4byte	.LVL21
 11022 0211 68000000 		.4byte	.LVL27
 11023 0215 0100     		.2byte	0x1
 11024 0217 50       		.byte	0x50
 11025 0218 68000000 		.4byte	.LVL27
 11026 021c 86000000 		.4byte	.LVL30
 11027 0220 0100     		.2byte	0x1
 11028 0222 54       		.byte	0x54
 11029 0223 00000000 		.4byte	0
 11030 0227 00000000 		.4byte	0
 11031              	.LLST10:
 11032 022b 14000000 		.4byte	.LVL10
 11033 022f 1A000000 		.4byte	.LVL11
 11034 0233 0100     		.2byte	0x1
 11035 0235 50       		.byte	0x50
 11036 0236 1A000000 		.4byte	.LVL11
 11037 023a 20000000 		.4byte	.LVL13
 11038 023e 0100     		.2byte	0x1
 11039 0240 55       		.byte	0x55
 11040 0241 20000000 		.4byte	.LVL13
 11041 0245 26000000 		.4byte	.LVL14
 11042 0249 0100     		.2byte	0x1
 11043 024b 50       		.byte	0x50
 11044 024c 26000000 		.4byte	.LVL14
 11045 0250 86000000 		.4byte	.LVL31
 11046 0254 0100     		.2byte	0x1
 11047 0256 55       		.byte	0x55
 11048 0257 86000000 		.4byte	.LVL31
 11049 025b 94000000 		.4byte	.LFE54
 11050 025f 0400     		.2byte	0x4
 11051 0261 F3       		.byte	0xf3
 11052 0262 01       		.uleb128 0x1
 11053 0263 50       		.byte	0x50
 11054 0264 9F       		.byte	0x9f
 11055 0265 00000000 		.4byte	0
 11056 0269 00000000 		.4byte	0
 11057              	.LLST11:
 11058 026d 64000000 		.4byte	.LVL26
 11059 0271 86000000 		.4byte	.LVL30
 11060 0275 0100     		.2byte	0x1
 11061 0277 56       		.byte	0x56
 11062 0278 00000000 		.4byte	0
 11063 027c 00000000 		.4byte	0
 11064              	.LLST12:
 11065 0280 00000000 		.4byte	.LVL33
 11066 0284 14000000 		.4byte	.LVL35
 11067 0288 0100     		.2byte	0x1
 11068 028a 50       		.byte	0x50
 11069 028b 14000000 		.4byte	.LVL35
 11070 028f 8E000000 		.4byte	.LVL52
 11071 0293 0100     		.2byte	0x1
 11072 0295 54       		.byte	0x54
 11073 0296 8E000000 		.4byte	.LVL52
 11074 029a 98000000 		.4byte	.LFE53
 11075 029e 0400     		.2byte	0x4
 11076 02a0 F3       		.byte	0xf3
 11077 02a1 01       		.uleb128 0x1
ARM GAS  C:\Users\Phuong\AppData\Local\Temp\ccTHzCbL.s 			page 242


 11078 02a2 50       		.byte	0x50
 11079 02a3 9F       		.byte	0x9f
 11080 02a4 00000000 		.4byte	0
 11081 02a8 00000000 		.4byte	0
 11082              	.LLST13:
 11083 02ac 00000000 		.4byte	.LVL33
 11084 02b0 17000000 		.4byte	.LVL36-1
 11085 02b4 0100     		.2byte	0x1
 11086 02b6 51       		.byte	0x51
 11087 02b7 17000000 		.4byte	.LVL36-1
 11088 02bb 98000000 		.4byte	.LFE53
 11089 02bf 0200     		.2byte	0x2
 11090 02c1 91       		.byte	0x91
 11091 02c2 64       		.sleb128 -28
 11092 02c3 00000000 		.4byte	0
 11093 02c7 00000000 		.4byte	0
 11094              	.LLST14:
 11095 02cb 00000000 		.4byte	.LVL33
 11096 02cf 17000000 		.4byte	.LVL36-1
 11097 02d3 0100     		.2byte	0x1
 11098 02d5 52       		.byte	0x52
 11099 02d6 17000000 		.4byte	.LVL36-1
 11100 02da 4C000000 		.4byte	.LVL43
 11101 02de 0100     		.2byte	0x1
 11102 02e0 56       		.byte	0x56
 11103 02e1 4C000000 		.4byte	.LVL43
 11104 02e5 98000000 		.4byte	.LFE53
 11105 02e9 0400     		.2byte	0x4
 11106 02eb F3       		.byte	0xf3
 11107 02ec 01       		.uleb128 0x1
 11108 02ed 52       		.byte	0x52
 11109 02ee 9F       		.byte	0x9f
 11110 02ef 00000000 		.4byte	0
 11111 02f3 00000000 		.4byte	0
 11112              	.LLST15:
 11113 02f7 00000000 		.4byte	.LVL33
 11114 02fb 17000000 		.4byte	.LVL36-1
 11115 02ff 0100     		.2byte	0x1
 11116 0301 53       		.byte	0x53
 11117 0302 17000000 		.4byte	.LVL36-1
 11118 0306 98000000 		.4byte	.LFE53
 11119 030a 0400     		.2byte	0x4
 11120 030c F3       		.byte	0xf3
 11121 030d 01       		.uleb128 0x1
 11122 030e 53       		.byte	0x53
 11123 030f 9F       		.byte	0x9f
 11124 0310 00000000 		.4byte	0
 11125 0314 00000000 		.4byte	0
 11126              	.LLST16:
 11127 0318 28000000 		.4byte	.LVL38
 11128 031c 2F000000 		.4byte	.LVL39-1
 11129 0320 0100     		.2byte	0x1
 11130 0322 50       		.byte	0x50
 11131 0323 2F000000 		.4byte	.LVL39-1
 11132 0327 3A000000 		.4byte	.LVL40
 11133 032b 0100     		.2byte	0x1
 11134 032d 55       		.byte	0x55
ARM GAS  C:\Users\Phuong\AppData\Local\Temp\ccTHzCbL.s 			page 243


 11135 032e 3A000000 		.4byte	.LVL40
 11136 0332 3C000000 		.4byte	.LVL41
 11137 0336 0200     		.2byte	0x2
 11138 0338 30       		.byte	0x30
 11139 0339 9F       		.byte	0x9f
 11140 033a 3C000000 		.4byte	.LVL41
 11141 033e 68000000 		.4byte	.LVL47
 11142 0342 0100     		.2byte	0x1
 11143 0344 55       		.byte	0x55
 11144 0345 68000000 		.4byte	.LVL47
 11145 0349 6C000000 		.4byte	.LVL48
 11146 034d 0200     		.2byte	0x2
 11147 034f 70       		.byte	0x70
 11148 0350 00       		.sleb128 0
 11149 0351 6C000000 		.4byte	.LVL48
 11150 0355 6F000000 		.4byte	.LVL49-1
 11151 0359 0200     		.2byte	0x2
 11152 035b 71       		.byte	0x71
 11153 035c 00       		.sleb128 0
 11154 035d 00000000 		.4byte	0
 11155 0361 00000000 		.4byte	0
 11156              	.LLST17:
 11157 0365 4C000000 		.4byte	.LVL43
 11158 0369 50000000 		.4byte	.LVL44
 11159 036d 0100     		.2byte	0x1
 11160 036f 50       		.byte	0x50
 11161 0370 50000000 		.4byte	.LVL44
 11162 0374 56000000 		.4byte	.LVL46
 11163 0378 0100     		.2byte	0x1
 11164 037a 56       		.byte	0x56
 11165 037b 56000000 		.4byte	.LVL46
 11166 037f 6C000000 		.4byte	.LVL48
 11167 0383 0100     		.2byte	0x1
 11168 0385 50       		.byte	0x50
 11169 0386 6C000000 		.4byte	.LVL48
 11170 038a 8A000000 		.4byte	.LVL51
 11171 038e 0100     		.2byte	0x1
 11172 0390 56       		.byte	0x56
 11173 0391 00000000 		.4byte	0
 11174 0395 00000000 		.4byte	0
 11175              	.LLST18:
 11176 0399 0A000000 		.4byte	.LVL34
 11177 039d 14000000 		.4byte	.LVL35
 11178 03a1 0100     		.2byte	0x1
 11179 03a3 50       		.byte	0x50
 11180 03a4 14000000 		.4byte	.LVL35
 11181 03a8 8E000000 		.4byte	.LVL52
 11182 03ac 0100     		.2byte	0x1
 11183 03ae 54       		.byte	0x54
 11184 03af 8E000000 		.4byte	.LVL52
 11185 03b3 98000000 		.4byte	.LFE53
 11186 03b7 0400     		.2byte	0x4
 11187 03b9 F3       		.byte	0xf3
 11188 03ba 01       		.uleb128 0x1
 11189 03bb 50       		.byte	0x50
 11190 03bc 9F       		.byte	0x9f
 11191 03bd 00000000 		.4byte	0
ARM GAS  C:\Users\Phuong\AppData\Local\Temp\ccTHzCbL.s 			page 244


 11192 03c1 00000000 		.4byte	0
 11193              	.LLST19:
 11194 03c5 68000000 		.4byte	.LVL47
 11195 03c9 8A000000 		.4byte	.LVL51
 11196 03cd 0100     		.2byte	0x1
 11197 03cf 55       		.byte	0x55
 11198 03d0 00000000 		.4byte	0
 11199 03d4 00000000 		.4byte	0
 11200              	.LLST20:
 11201 03d8 00000000 		.4byte	.LVL53
 11202 03dc 08000000 		.4byte	.LVL55
 11203 03e0 0100     		.2byte	0x1
 11204 03e2 50       		.byte	0x50
 11205 03e3 08000000 		.4byte	.LVL55
 11206 03e7 0B000000 		.4byte	.LVL56-1
 11207 03eb 0100     		.2byte	0x1
 11208 03ed 51       		.byte	0x51
 11209 03ee 0B000000 		.4byte	.LVL56-1
 11210 03f2 40000000 		.4byte	.LFE59
 11211 03f6 0400     		.2byte	0x4
 11212 03f8 F3       		.byte	0xf3
 11213 03f9 01       		.uleb128 0x1
 11214 03fa 50       		.byte	0x50
 11215 03fb 9F       		.byte	0x9f
 11216 03fc 00000000 		.4byte	0
 11217 0400 00000000 		.4byte	0
 11218              	.LLST21:
 11219 0404 06000000 		.4byte	.LVL54
 11220 0408 2E000000 		.4byte	.LVL61
 11221 040c 0100     		.2byte	0x1
 11222 040e 54       		.byte	0x54
 11223 040f 00000000 		.4byte	0
 11224 0413 00000000 		.4byte	0
 11225              	.LLST22:
 11226 0417 00000000 		.4byte	.LVL62
 11227 041b 1E000000 		.4byte	.LVL64
 11228 041f 0100     		.2byte	0x1
 11229 0421 50       		.byte	0x50
 11230 0422 1E000000 		.4byte	.LVL64
 11231 0426 34000000 		.4byte	.LVL67
 11232 042a 0100     		.2byte	0x1
 11233 042c 54       		.byte	0x54
 11234 042d 34000000 		.4byte	.LVL67
 11235 0431 36000000 		.4byte	.LVL68
 11236 0435 0100     		.2byte	0x1
 11237 0437 50       		.byte	0x50
 11238 0438 36000000 		.4byte	.LVL68
 11239 043c 5A000000 		.4byte	.LVL71
 11240 0440 0100     		.2byte	0x1
 11241 0442 54       		.byte	0x54
 11242 0443 5A000000 		.4byte	.LVL71
 11243 0447 5C000000 		.4byte	.LVL72
 11244 044b 0100     		.2byte	0x1
 11245 044d 50       		.byte	0x50
 11246 044e 5C000000 		.4byte	.LVL72
 11247 0452 70000000 		.4byte	.LVL75
 11248 0456 0100     		.2byte	0x1
ARM GAS  C:\Users\Phuong\AppData\Local\Temp\ccTHzCbL.s 			page 245


 11249 0458 54       		.byte	0x54
 11250 0459 70000000 		.4byte	.LVL75
 11251 045d 76000000 		.4byte	.LVL76
 11252 0461 0100     		.2byte	0x1
 11253 0463 50       		.byte	0x50
 11254 0464 76000000 		.4byte	.LVL76
 11255 0468 82000000 		.4byte	.LVL77
 11256 046c 0100     		.2byte	0x1
 11257 046e 54       		.byte	0x54
 11258 046f 82000000 		.4byte	.LVL77
 11259 0473 8C000000 		.4byte	.LFE61
 11260 0477 0400     		.2byte	0x4
 11261 0479 F3       		.byte	0xf3
 11262 047a 01       		.uleb128 0x1
 11263 047b 50       		.byte	0x50
 11264 047c 9F       		.byte	0x9f
 11265 047d 00000000 		.4byte	0
 11266 0481 00000000 		.4byte	0
 11267              	.LLST23:
 11268 0485 00000000 		.4byte	.LVL78
 11269 0489 28000000 		.4byte	.LVL84
 11270 048d 0100     		.2byte	0x1
 11271 048f 50       		.byte	0x50
 11272 0490 28000000 		.4byte	.LVL84
 11273 0494 74000000 		.4byte	.LVL91
 11274 0498 0100     		.2byte	0x1
 11275 049a 54       		.byte	0x54
 11276 049b 74000000 		.4byte	.LVL91
 11277 049f 76000000 		.4byte	.LVL92
 11278 04a3 0100     		.2byte	0x1
 11279 04a5 50       		.byte	0x50
 11280 04a6 76000000 		.4byte	.LVL92
 11281 04aa 7C000000 		.4byte	.LVL95
 11282 04ae 0100     		.2byte	0x1
 11283 04b0 54       		.byte	0x54
 11284 04b1 7C000000 		.4byte	.LVL95
 11285 04b5 7E000000 		.4byte	.LFE69
 11286 04b9 0400     		.2byte	0x4
 11287 04bb F3       		.byte	0xf3
 11288 04bc 01       		.uleb128 0x1
 11289 04bd 50       		.byte	0x50
 11290 04be 9F       		.byte	0x9f
 11291 04bf 00000000 		.4byte	0
 11292 04c3 00000000 		.4byte	0
 11293              	.LLST24:
 11294 04c7 00000000 		.4byte	.LVL78
 11295 04cb 1C000000 		.4byte	.LVL83
 11296 04cf 0100     		.2byte	0x1
 11297 04d1 51       		.byte	0x51
 11298 04d2 1C000000 		.4byte	.LVL83
 11299 04d6 74000000 		.4byte	.LVL91
 11300 04da 0400     		.2byte	0x4
 11301 04dc F3       		.byte	0xf3
 11302 04dd 01       		.uleb128 0x1
 11303 04de 51       		.byte	0x51
 11304 04df 9F       		.byte	0x9f
 11305 04e0 74000000 		.4byte	.LVL91
ARM GAS  C:\Users\Phuong\AppData\Local\Temp\ccTHzCbL.s 			page 246


 11306 04e4 7A000000 		.4byte	.LVL93
 11307 04e8 0100     		.2byte	0x1
 11308 04ea 51       		.byte	0x51
 11309 04eb 7A000000 		.4byte	.LVL93
 11310 04ef 7E000000 		.4byte	.LFE69
 11311 04f3 0400     		.2byte	0x4
 11312 04f5 F3       		.byte	0xf3
 11313 04f6 01       		.uleb128 0x1
 11314 04f7 51       		.byte	0x51
 11315 04f8 9F       		.byte	0x9f
 11316 04f9 00000000 		.4byte	0
 11317 04fd 00000000 		.4byte	0
 11318              	.LLST25:
 11319 0501 00000000 		.4byte	.LVL78
 11320 0505 2B000000 		.4byte	.LVL85-1
 11321 0509 0100     		.2byte	0x1
 11322 050b 52       		.byte	0x52
 11323 050c 2B000000 		.4byte	.LVL85-1
 11324 0510 74000000 		.4byte	.LVL91
 11325 0514 0400     		.2byte	0x4
 11326 0516 F3       		.byte	0xf3
 11327 0517 01       		.uleb128 0x1
 11328 0518 52       		.byte	0x52
 11329 0519 9F       		.byte	0x9f
 11330 051a 74000000 		.4byte	.LVL91
 11331 051e 7A000000 		.4byte	.LVL93
 11332 0522 0100     		.2byte	0x1
 11333 0524 52       		.byte	0x52
 11334 0525 7A000000 		.4byte	.LVL93
 11335 0529 7E000000 		.4byte	.LFE69
 11336 052d 0400     		.2byte	0x4
 11337 052f F3       		.byte	0xf3
 11338 0530 01       		.uleb128 0x1
 11339 0531 52       		.byte	0x52
 11340 0532 9F       		.byte	0x9f
 11341 0533 00000000 		.4byte	0
 11342 0537 00000000 		.4byte	0
 11343              	.LLST26:
 11344 053b 04000000 		.4byte	.LVL79
 11345 053f 28000000 		.4byte	.LVL84
 11346 0543 0100     		.2byte	0x1
 11347 0545 50       		.byte	0x50
 11348 0546 28000000 		.4byte	.LVL84
 11349 054a 74000000 		.4byte	.LVL91
 11350 054e 0100     		.2byte	0x1
 11351 0550 54       		.byte	0x54
 11352 0551 74000000 		.4byte	.LVL91
 11353 0555 76000000 		.4byte	.LVL92
 11354 0559 0100     		.2byte	0x1
 11355 055b 50       		.byte	0x50
 11356 055c 76000000 		.4byte	.LVL92
 11357 0560 7C000000 		.4byte	.LVL95
 11358 0564 0100     		.2byte	0x1
 11359 0566 54       		.byte	0x54
 11360 0567 7C000000 		.4byte	.LVL95
 11361 056b 7E000000 		.4byte	.LFE69
 11362 056f 0400     		.2byte	0x4
ARM GAS  C:\Users\Phuong\AppData\Local\Temp\ccTHzCbL.s 			page 247


 11363 0571 F3       		.byte	0xf3
 11364 0572 01       		.uleb128 0x1
 11365 0573 50       		.byte	0x50
 11366 0574 9F       		.byte	0x9f
 11367 0575 00000000 		.4byte	0
 11368 0579 00000000 		.4byte	0
 11369              	.LLST27:
 11370 057d 34000000 		.4byte	.LVL86
 11371 0581 74000000 		.4byte	.LVL91
 11372 0585 0A00     		.2byte	0xa
 11373 0587 75       		.byte	0x75
 11374 0588 00       		.sleb128 0
 11375 0589 48       		.byte	0x48
 11376 058a 24       		.byte	0x24
 11377 058b 30       		.byte	0x30
 11378 058c 29       		.byte	0x29
 11379 058d 08       		.byte	0x8
 11380 058e FF       		.byte	0xff
 11381 058f 1A       		.byte	0x1a
 11382 0590 9F       		.byte	0x9f
 11383 0591 7A000000 		.4byte	.LVL93
 11384 0595 7C000000 		.4byte	.LVL94
 11385 0599 0A00     		.2byte	0xa
 11386 059b 75       		.byte	0x75
 11387 059c 00       		.sleb128 0
 11388 059d 48       		.byte	0x48
 11389 059e 24       		.byte	0x24
 11390 059f 30       		.byte	0x30
 11391 05a0 29       		.byte	0x29
 11392 05a1 08       		.byte	0x8
 11393 05a2 FF       		.byte	0xff
 11394 05a3 1A       		.byte	0x1a
 11395 05a4 9F       		.byte	0x9f
 11396 05a5 00000000 		.4byte	0
 11397 05a9 00000000 		.4byte	0
 11398              	.LLST28:
 11399 05ad 04000000 		.4byte	.LVL79
 11400 05b1 14000000 		.4byte	.LVL80
 11401 05b5 0200     		.2byte	0x2
 11402 05b7 30       		.byte	0x30
 11403 05b8 9F       		.byte	0x9f
 11404 05b9 14000000 		.4byte	.LVL80
 11405 05bd 16000000 		.4byte	.LVL81
 11406 05c1 0100     		.2byte	0x1
 11407 05c3 56       		.byte	0x56
 11408 05c4 16000000 		.4byte	.LVL81
 11409 05c8 18000000 		.4byte	.LVL82
 11410 05cc 0200     		.2byte	0x2
 11411 05ce 30       		.byte	0x30
 11412 05cf 9F       		.byte	0x9f
 11413 05d0 18000000 		.4byte	.LVL82
 11414 05d4 74000000 		.4byte	.LVL91
 11415 05d8 0100     		.2byte	0x1
 11416 05da 56       		.byte	0x56
 11417 05db 74000000 		.4byte	.LVL91
 11418 05df 7A000000 		.4byte	.LVL93
 11419 05e3 0200     		.2byte	0x2
ARM GAS  C:\Users\Phuong\AppData\Local\Temp\ccTHzCbL.s 			page 248


 11420 05e5 30       		.byte	0x30
 11421 05e6 9F       		.byte	0x9f
 11422 05e7 7A000000 		.4byte	.LVL93
 11423 05eb 7C000000 		.4byte	.LVL94
 11424 05ef 0100     		.2byte	0x1
 11425 05f1 56       		.byte	0x56
 11426 05f2 00000000 		.4byte	0
 11427 05f6 00000000 		.4byte	0
 11428              	.LLST29:
 11429 05fa 48000000 		.4byte	.LVL87
 11430 05fe 57000000 		.4byte	.LVL88-1
 11431 0602 0100     		.2byte	0x1
 11432 0604 50       		.byte	0x50
 11433 0605 00000000 		.4byte	0
 11434 0609 00000000 		.4byte	0
 11435              	.LLST30:
 11436 060d 00000000 		.4byte	.LVL96
 11437 0611 19000000 		.4byte	.LVL100-1
 11438 0615 0100     		.2byte	0x1
 11439 0617 50       		.byte	0x50
 11440 0618 19000000 		.4byte	.LVL100-1
 11441 061c 2E000000 		.4byte	.LVL102
 11442 0620 0100     		.2byte	0x1
 11443 0622 54       		.byte	0x54
 11444 0623 2E000000 		.4byte	.LVL102
 11445 0627 31000000 		.4byte	.LVL103-1
 11446 062b 0100     		.2byte	0x1
 11447 062d 50       		.byte	0x50
 11448 062e 31000000 		.4byte	.LVL103-1
 11449 0632 3A000000 		.4byte	.LVL105
 11450 0636 0100     		.2byte	0x1
 11451 0638 54       		.byte	0x54
 11452 0639 3A000000 		.4byte	.LVL105
 11453 063d 3C000000 		.4byte	.LVL106
 11454 0641 0100     		.2byte	0x1
 11455 0643 50       		.byte	0x50
 11456 0644 3C000000 		.4byte	.LVL106
 11457 0648 DE000000 		.4byte	.LVL122
 11458 064c 0100     		.2byte	0x1
 11459 064e 54       		.byte	0x54
 11460 064f DE000000 		.4byte	.LVL122
 11461 0653 DE000000 		.4byte	.LVL124
 11462 0657 0300     		.2byte	0x3
 11463 0659 77       		.byte	0x77
 11464 065a 6C       		.sleb128 -20
 11465 065b 9F       		.byte	0x9f
 11466 065c DE000000 		.4byte	.LVL124
 11467 0660 E0000000 		.4byte	.LFE58
 11468 0664 0400     		.2byte	0x4
 11469 0666 F3       		.byte	0xf3
 11470 0667 01       		.uleb128 0x1
 11471 0668 50       		.byte	0x50
 11472 0669 9F       		.byte	0x9f
 11473 066a 00000000 		.4byte	0
 11474 066e 00000000 		.4byte	0
 11475              	.LLST31:
 11476 0672 00000000 		.4byte	.LVL96
ARM GAS  C:\Users\Phuong\AppData\Local\Temp\ccTHzCbL.s 			page 249


 11477 0676 12000000 		.4byte	.LVL99
 11478 067a 0100     		.2byte	0x1
 11479 067c 51       		.byte	0x51
 11480 067d 12000000 		.4byte	.LVL99
 11481 0681 2E000000 		.4byte	.LVL102
 11482 0685 0200     		.2byte	0x2
 11483 0687 30       		.byte	0x30
 11484 0688 9F       		.byte	0x9f
 11485 0689 2E000000 		.4byte	.LVL102
 11486 068d 31000000 		.4byte	.LVL103-1
 11487 0691 0100     		.2byte	0x1
 11488 0693 51       		.byte	0x51
 11489 0694 31000000 		.4byte	.LVL103-1
 11490 0698 3A000000 		.4byte	.LVL105
 11491 069c 0400     		.2byte	0x4
 11492 069e F3       		.byte	0xf3
 11493 069f 01       		.uleb128 0x1
 11494 06a0 51       		.byte	0x51
 11495 06a1 9F       		.byte	0x9f
 11496 06a2 3A000000 		.4byte	.LVL105
 11497 06a6 3C000000 		.4byte	.LVL106
 11498 06aa 0200     		.2byte	0x2
 11499 06ac 30       		.byte	0x30
 11500 06ad 9F       		.byte	0x9f
 11501 06ae 3C000000 		.4byte	.LVL106
 11502 06b2 DE000000 		.4byte	.LVL123
 11503 06b6 0100     		.2byte	0x1
 11504 06b8 56       		.byte	0x56
 11505 06b9 00000000 		.4byte	0
 11506 06bd 00000000 		.4byte	0
 11507              	.LLST32:
 11508 06c1 06000000 		.4byte	.LVL97
 11509 06c5 19000000 		.4byte	.LVL100-1
 11510 06c9 0100     		.2byte	0x1
 11511 06cb 50       		.byte	0x50
 11512 06cc 19000000 		.4byte	.LVL100-1
 11513 06d0 2E000000 		.4byte	.LVL102
 11514 06d4 0100     		.2byte	0x1
 11515 06d6 54       		.byte	0x54
 11516 06d7 2E000000 		.4byte	.LVL102
 11517 06db 31000000 		.4byte	.LVL103-1
 11518 06df 0100     		.2byte	0x1
 11519 06e1 50       		.byte	0x50
 11520 06e2 31000000 		.4byte	.LVL103-1
 11521 06e6 3A000000 		.4byte	.LVL105
 11522 06ea 0100     		.2byte	0x1
 11523 06ec 54       		.byte	0x54
 11524 06ed 3A000000 		.4byte	.LVL105
 11525 06f1 3C000000 		.4byte	.LVL106
 11526 06f5 0100     		.2byte	0x1
 11527 06f7 50       		.byte	0x50
 11528 06f8 3C000000 		.4byte	.LVL106
 11529 06fc DE000000 		.4byte	.LVL122
 11530 0700 0100     		.2byte	0x1
 11531 0702 54       		.byte	0x54
 11532 0703 DE000000 		.4byte	.LVL122
 11533 0707 DE000000 		.4byte	.LVL124
ARM GAS  C:\Users\Phuong\AppData\Local\Temp\ccTHzCbL.s 			page 250


 11534 070b 0300     		.2byte	0x3
 11535 070d 77       		.byte	0x77
 11536 070e 6C       		.sleb128 -20
 11537 070f 9F       		.byte	0x9f
 11538 0710 DE000000 		.4byte	.LVL124
 11539 0714 E0000000 		.4byte	.LFE58
 11540 0718 0400     		.2byte	0x4
 11541 071a F3       		.byte	0xf3
 11542 071b 01       		.uleb128 0x1
 11543 071c 50       		.byte	0x50
 11544 071d 9F       		.byte	0x9f
 11545 071e 00000000 		.4byte	0
 11546 0722 00000000 		.4byte	0
 11547              	.LLST33:
 11548 0726 0C000000 		.4byte	.LVL98
 11549 072a B6000000 		.4byte	.LVL116
 11550 072e 0100     		.2byte	0x1
 11551 0730 55       		.byte	0x55
 11552 0731 00000000 		.4byte	0
 11553 0735 00000000 		.4byte	0
 11554              	.LLST34:
 11555 0739 1A000000 		.4byte	.LVL100
 11556 073d 29000000 		.4byte	.LVL101-1
 11557 0741 0100     		.2byte	0x1
 11558 0743 50       		.byte	0x50
 11559 0744 00000000 		.4byte	0
 11560 0748 00000000 		.4byte	0
 11561              	.LLST35:
 11562 074c 32000000 		.4byte	.LVL103
 11563 0750 37000000 		.4byte	.LVL104-1
 11564 0754 0100     		.2byte	0x1
 11565 0756 50       		.byte	0x50
 11566 0757 00000000 		.4byte	0
 11567 075b 00000000 		.4byte	0
 11568              	.LLST36:
 11569 075f A2000000 		.4byte	.LVL114
 11570 0763 AE000000 		.4byte	.LVL115
 11571 0767 0C00     		.2byte	0xc
 11572 0769 73       		.byte	0x73
 11573 076a 00       		.sleb128 0
 11574 076b 34       		.byte	0x34
 11575 076c 1A       		.byte	0x1a
 11576 076d 48       		.byte	0x48
 11577 076e 24       		.byte	0x24
 11578 076f 30       		.byte	0x30
 11579 0770 2E       		.byte	0x2e
 11580 0771 08       		.byte	0x8
 11581 0772 FF       		.byte	0xff
 11582 0773 1A       		.byte	0x1a
 11583 0774 9F       		.byte	0x9f
 11584 0775 00000000 		.4byte	0
 11585 0779 00000000 		.4byte	0
 11586              	.LLST37:
 11587 077d B8000000 		.4byte	.LVL117
 11588 0781 DE000000 		.4byte	.LVL121
 11589 0785 0100     		.2byte	0x1
 11590 0787 55       		.byte	0x55
ARM GAS  C:\Users\Phuong\AppData\Local\Temp\ccTHzCbL.s 			page 251


 11591 0788 00000000 		.4byte	0
 11592 078c 00000000 		.4byte	0
 11593              	.LLST38:
 11594 0790 CA000000 		.4byte	.LVL119
 11595 0794 D7000000 		.4byte	.LVL120-1
 11596 0798 0100     		.2byte	0x1
 11597 079a 50       		.byte	0x50
 11598 079b 00000000 		.4byte	0
 11599 079f 00000000 		.4byte	0
 11600              	.LLST39:
 11601 07a3 00000000 		.4byte	.LVL125
 11602 07a7 06000000 		.4byte	.LVL127
 11603 07ab 0100     		.2byte	0x1
 11604 07ad 50       		.byte	0x50
 11605 07ae 06000000 		.4byte	.LVL127
 11606 07b2 68010000 		.4byte	.LVL177
 11607 07b6 0100     		.2byte	0x1
 11608 07b8 54       		.byte	0x54
 11609 07b9 68010000 		.4byte	.LVL177
 11610 07bd 74010000 		.4byte	.LFE76
 11611 07c1 0400     		.2byte	0x4
 11612 07c3 F3       		.byte	0xf3
 11613 07c4 01       		.uleb128 0x1
 11614 07c5 50       		.byte	0x50
 11615 07c6 9F       		.byte	0x9f
 11616 07c7 00000000 		.4byte	0
 11617 07cb 00000000 		.4byte	0
 11618              	.LLST40:
 11619 07cf 62000000 		.4byte	.LVL146
 11620 07d3 64000000 		.4byte	.LVL147
 11621 07d7 0100     		.2byte	0x1
 11622 07d9 50       		.byte	0x50
 11623 07da 70000000 		.4byte	.LVL149
 11624 07de EA000000 		.4byte	.LVL159
 11625 07e2 0100     		.2byte	0x1
 11626 07e4 57       		.byte	0x57
 11627 07e5 EA000000 		.4byte	.LVL159
 11628 07e9 F6000000 		.4byte	.LVL160
 11629 07ed 0100     		.2byte	0x1
 11630 07ef 50       		.byte	0x50
 11631 07f0 F6000000 		.4byte	.LVL160
 11632 07f4 0C010000 		.4byte	.LVL163
 11633 07f8 0100     		.2byte	0x1
 11634 07fa 57       		.byte	0x57
 11635 07fb 0C010000 		.4byte	.LVL163
 11636 07ff 18010000 		.4byte	.LVL165
 11637 0803 0100     		.2byte	0x1
 11638 0805 50       		.byte	0x50
 11639 0806 18010000 		.4byte	.LVL165
 11640 080a 1C010000 		.4byte	.LVL166
 11641 080e 0100     		.2byte	0x1
 11642 0810 57       		.byte	0x57
 11643 0811 1C010000 		.4byte	.LVL166
 11644 0815 2A010000 		.4byte	.LVL168
 11645 0819 0300     		.2byte	0x3
 11646 081b 09       		.byte	0x9
 11647 081c F9       		.byte	0xf9
ARM GAS  C:\Users\Phuong\AppData\Local\Temp\ccTHzCbL.s 			page 252


 11648 081d 9F       		.byte	0x9f
 11649 081e 2A010000 		.4byte	.LVL168
 11650 0822 68010000 		.4byte	.LVL178
 11651 0826 0100     		.2byte	0x1
 11652 0828 57       		.byte	0x57
 11653 0829 00000000 		.4byte	0
 11654 082d 00000000 		.4byte	0
 11655              	.LLST41:
 11656 0831 26000000 		.4byte	.LVL130
 11657 0835 5F000000 		.4byte	.LVL145-1
 11658 0839 0100     		.2byte	0x1
 11659 083b 51       		.byte	0x51
 11660 083c 6C000000 		.4byte	.LVL148
 11661 0840 70000000 		.4byte	.LVL149
 11662 0844 0100     		.2byte	0x1
 11663 0846 51       		.byte	0x51
 11664 0847 00000000 		.4byte	0
 11665 084b 00000000 		.4byte	0
 11666              	.LLST42:
 11667 084f 30000000 		.4byte	.LVL132
 11668 0853 3A000000 		.4byte	.LVL136
 11669 0857 0300     		.2byte	0x3
 11670 0859 09       		.byte	0x9
 11671 085a FF       		.byte	0xff
 11672 085b 9F       		.byte	0x9f
 11673 085c 3C000000 		.4byte	.LVL137
 11674 0860 46000000 		.4byte	.LVL140
 11675 0864 0100     		.2byte	0x1
 11676 0866 52       		.byte	0x52
 11677 0867 46000000 		.4byte	.LVL140
 11678 086b 58000000 		.4byte	.LVL143
 11679 086f 0100     		.2byte	0x1
 11680 0871 56       		.byte	0x56
 11681 0872 58000000 		.4byte	.LVL143
 11682 0876 5A000000 		.4byte	.LVL144
 11683 087a 0100     		.2byte	0x1
 11684 087c 52       		.byte	0x52
 11685 087d 5A000000 		.4byte	.LVL144
 11686 0881 C2000000 		.4byte	.LVL152
 11687 0885 0100     		.2byte	0x1
 11688 0887 56       		.byte	0x56
 11689 0888 F6000000 		.4byte	.LVL160
 11690 088c 36010000 		.4byte	.LVL171
 11691 0890 0100     		.2byte	0x1
 11692 0892 56       		.byte	0x56
 11693 0893 00000000 		.4byte	0
 11694 0897 00000000 		.4byte	0
 11695              	.LLST43:
 11696 089b 42000000 		.4byte	.LVL139
 11697 089f 5A000000 		.4byte	.LVL144
 11698 08a3 0100     		.2byte	0x1
 11699 08a5 56       		.byte	0x56
 11700 08a6 5A000000 		.4byte	.LVL144
 11701 08aa 5F000000 		.4byte	.LVL145-1
 11702 08ae 0300     		.2byte	0x3
 11703 08b0 70       		.byte	0x70
 11704 08b1 E000     		.sleb128 96
ARM GAS  C:\Users\Phuong\AppData\Local\Temp\ccTHzCbL.s 			page 253


 11705 08b3 6C000000 		.4byte	.LVL148
 11706 08b7 70000000 		.4byte	.LVL149
 11707 08bb 0100     		.2byte	0x1
 11708 08bd 56       		.byte	0x56
 11709 08be 00000000 		.4byte	0
 11710 08c2 00000000 		.4byte	0
 11711              	.LLST44:
 11712 08c6 04000000 		.4byte	.LVL126
 11713 08ca D2000000 		.4byte	.LVL153
 11714 08ce 0200     		.2byte	0x2
 11715 08d0 30       		.byte	0x30
 11716 08d1 9F       		.byte	0x9f
 11717 08d2 D2000000 		.4byte	.LVL153
 11718 08d6 D6000000 		.4byte	.LVL155
 11719 08da 0200     		.2byte	0x2
 11720 08dc 31       		.byte	0x31
 11721 08dd 9F       		.byte	0x9f
 11722 08de D6000000 		.4byte	.LVL155
 11723 08e2 D8000000 		.4byte	.LVL156
 11724 08e6 0200     		.2byte	0x2
 11725 08e8 30       		.byte	0x30
 11726 08e9 9F       		.byte	0x9f
 11727 08ea D8000000 		.4byte	.LVL156
 11728 08ee EA000000 		.4byte	.LVL159
 11729 08f2 0100     		.2byte	0x1
 11730 08f4 55       		.byte	0x55
 11731 08f5 EA000000 		.4byte	.LVL159
 11732 08f9 F6000000 		.4byte	.LVL160
 11733 08fd 0200     		.2byte	0x2
 11734 08ff 31       		.byte	0x31
 11735 0900 9F       		.byte	0x9f
 11736 0901 F6000000 		.4byte	.LVL160
 11737 0905 0C010000 		.4byte	.LVL163
 11738 0909 0200     		.2byte	0x2
 11739 090b 30       		.byte	0x30
 11740 090c 9F       		.byte	0x9f
 11741 090d 0C010000 		.4byte	.LVL163
 11742 0911 18010000 		.4byte	.LVL165
 11743 0915 0200     		.2byte	0x2
 11744 0917 31       		.byte	0x31
 11745 0918 9F       		.byte	0x9f
 11746 0919 18010000 		.4byte	.LVL165
 11747 091d 1C010000 		.4byte	.LVL166
 11748 0921 0200     		.2byte	0x2
 11749 0923 30       		.byte	0x30
 11750 0924 9F       		.byte	0x9f
 11751 0925 1C010000 		.4byte	.LVL166
 11752 0929 34010000 		.4byte	.LVL170
 11753 092d 0200     		.2byte	0x2
 11754 092f 31       		.byte	0x31
 11755 0930 9F       		.byte	0x9f
 11756 0931 34010000 		.4byte	.LVL170
 11757 0935 36010000 		.4byte	.LVL171
 11758 0939 0200     		.2byte	0x2
 11759 093b 30       		.byte	0x30
 11760 093c 9F       		.byte	0x9f
 11761 093d 36010000 		.4byte	.LVL171
ARM GAS  C:\Users\Phuong\AppData\Local\Temp\ccTHzCbL.s 			page 254


 11762 0941 3E010000 		.4byte	.LVL172
 11763 0945 0100     		.2byte	0x1
 11764 0947 55       		.byte	0x55
 11765 0948 00000000 		.4byte	0
 11766 094c 00000000 		.4byte	0
 11767              	.LLST45:
 11768 0950 2A000000 		.4byte	.LVL131
 11769 0954 32000000 		.4byte	.LVL133
 11770 0958 0100     		.2byte	0x1
 11771 095a 52       		.byte	0x52
 11772 095b 32000000 		.4byte	.LVL133
 11773 095f 3A000000 		.4byte	.LVL136
 11774 0963 0A00     		.2byte	0xa
 11775 0965 74       		.byte	0x74
 11776 0966 28       		.sleb128 40
 11777 0967 06       		.byte	0x6
 11778 0968 23       		.byte	0x23
 11779 0969 0C       		.uleb128 0xc
 11780 096a 06       		.byte	0x6
 11781 096b 76       		.byte	0x76
 11782 096c 00       		.sleb128 0
 11783 096d 1C       		.byte	0x1c
 11784 096e 9F       		.byte	0x9f
 11785 096f 3A000000 		.4byte	.LVL136
 11786 0973 3C000000 		.4byte	.LVL137
 11787 0977 0100     		.2byte	0x1
 11788 0979 52       		.byte	0x52
 11789 097a 3C000000 		.4byte	.LVL137
 11790 097e 40000000 		.4byte	.LVL138
 11791 0982 0A00     		.2byte	0xa
 11792 0984 74       		.byte	0x74
 11793 0985 28       		.sleb128 40
 11794 0986 06       		.byte	0x6
 11795 0987 23       		.byte	0x23
 11796 0988 0C       		.uleb128 0xc
 11797 0989 06       		.byte	0x6
 11798 098a 76       		.byte	0x76
 11799 098b 00       		.sleb128 0
 11800 098c 1C       		.byte	0x1c
 11801 098d 9F       		.byte	0x9f
 11802 098e 40000000 		.4byte	.LVL138
 11803 0992 5F000000 		.4byte	.LVL145-1
 11804 0996 0B00     		.2byte	0xb
 11805 0998 74       		.byte	0x74
 11806 0999 28       		.sleb128 40
 11807 099a 06       		.byte	0x6
 11808 099b 23       		.byte	0x23
 11809 099c 0C       		.uleb128 0xc
 11810 099d 06       		.byte	0x6
 11811 099e 74       		.byte	0x74
 11812 099f 24       		.sleb128 36
 11813 09a0 06       		.byte	0x6
 11814 09a1 1C       		.byte	0x1c
 11815 09a2 9F       		.byte	0x9f
 11816 09a3 6C000000 		.4byte	.LVL148
 11817 09a7 70000000 		.4byte	.LVL149
 11818 09ab 0B00     		.2byte	0xb
ARM GAS  C:\Users\Phuong\AppData\Local\Temp\ccTHzCbL.s 			page 255


 11819 09ad 74       		.byte	0x74
 11820 09ae 28       		.sleb128 40
 11821 09af 06       		.byte	0x6
 11822 09b0 23       		.byte	0x23
 11823 09b1 0C       		.uleb128 0xc
 11824 09b2 06       		.byte	0x6
 11825 09b3 74       		.byte	0x74
 11826 09b4 24       		.sleb128 36
 11827 09b5 06       		.byte	0x6
 11828 09b6 1C       		.byte	0x1c
 11829 09b7 9F       		.byte	0x9f
 11830 09b8 00000000 		.4byte	0
 11831 09bc 00000000 		.4byte	0
 11832              	.LLST46:
 11833 09c0 20000000 		.4byte	.LVL129
 11834 09c4 D4000000 		.4byte	.LVL154
 11835 09c8 0100     		.2byte	0x1
 11836 09ca 55       		.byte	0x55
 11837 09cb D6000000 		.4byte	.LVL155
 11838 09cf D8000000 		.4byte	.LVL156
 11839 09d3 0100     		.2byte	0x1
 11840 09d5 55       		.byte	0x55
 11841 09d6 F6000000 		.4byte	.LVL160
 11842 09da 16010000 		.4byte	.LVL164
 11843 09de 0100     		.2byte	0x1
 11844 09e0 55       		.byte	0x55
 11845 09e1 18010000 		.4byte	.LVL165
 11846 09e5 24010000 		.4byte	.LVL167
 11847 09e9 0100     		.2byte	0x1
 11848 09eb 55       		.byte	0x55
 11849 09ec 2A010000 		.4byte	.LVL168
 11850 09f0 32010000 		.4byte	.LVL169
 11851 09f4 0100     		.2byte	0x1
 11852 09f6 55       		.byte	0x55
 11853 09f7 34010000 		.4byte	.LVL170
 11854 09fb 36010000 		.4byte	.LVL171
 11855 09ff 0100     		.2byte	0x1
 11856 0a01 55       		.byte	0x55
 11857 0a02 00000000 		.4byte	0
 11858 0a06 00000000 		.4byte	0
 11859              	.LLST47:
 11860 0a0a 08000000 		.4byte	.LVL128
 11861 0a0e 34000000 		.4byte	.LVL134
 11862 0a12 0100     		.2byte	0x1
 11863 0a14 53       		.byte	0x53
 11864 0a15 34000000 		.4byte	.LVL134
 11865 0a19 36000000 		.4byte	.LVL135
 11866 0a1d 0500     		.2byte	0x5
 11867 0a1f 74       		.byte	0x74
 11868 0a20 28       		.sleb128 40
 11869 0a21 06       		.byte	0x6
 11870 0a22 23       		.byte	0x23
 11871 0a23 10       		.uleb128 0x10
 11872 0a24 36000000 		.4byte	.LVL135
 11873 0a28 54000000 		.4byte	.LVL141
 11874 0a2c 0100     		.2byte	0x1
 11875 0a2e 53       		.byte	0x53
ARM GAS  C:\Users\Phuong\AppData\Local\Temp\ccTHzCbL.s 			page 256


 11876 0a2f 56000000 		.4byte	.LVL142
 11877 0a33 5F000000 		.4byte	.LVL145-1
 11878 0a37 0100     		.2byte	0x1
 11879 0a39 53       		.byte	0x53
 11880 0a3a 6C000000 		.4byte	.LVL148
 11881 0a3e 70000000 		.4byte	.LVL149
 11882 0a42 0100     		.2byte	0x1
 11883 0a44 53       		.byte	0x53
 11884 0a45 00000000 		.4byte	0
 11885 0a49 00000000 		.4byte	0
 11886              	.LLST48:
 11887 0a4d E0000000 		.4byte	.LVL158
 11888 0a51 F6000000 		.4byte	.LVL160
 11889 0a55 0100     		.2byte	0x1
 11890 0a57 50       		.byte	0x50
 11891 0a58 00000000 		.4byte	0
 11892 0a5c 00000000 		.4byte	0
 11893              	.LLST49:
 11894 0a60 02010000 		.4byte	.LVL162
 11895 0a64 2A010000 		.4byte	.LVL168
 11896 0a68 0100     		.2byte	0x1
 11897 0a6a 50       		.byte	0x50
 11898 0a6b 34010000 		.4byte	.LVL170
 11899 0a6f 36010000 		.4byte	.LVL171
 11900 0a73 0100     		.2byte	0x1
 11901 0a75 50       		.byte	0x50
 11902 0a76 00000000 		.4byte	0
 11903 0a7a 00000000 		.4byte	0
 11904              	.LLST50:
 11905 0a7e 40010000 		.4byte	.LVL173
 11906 0a82 66010000 		.4byte	.LVL176
 11907 0a86 0100     		.2byte	0x1
 11908 0a88 55       		.byte	0x55
 11909 0a89 00000000 		.4byte	0
 11910 0a8d 00000000 		.4byte	0
 11911              	.LLST51:
 11912 0a91 52010000 		.4byte	.LVL174
 11913 0a95 5F010000 		.4byte	.LVL175-1
 11914 0a99 0100     		.2byte	0x1
 11915 0a9b 50       		.byte	0x50
 11916 0a9c 00000000 		.4byte	0
 11917 0aa0 00000000 		.4byte	0
 11918              	.LLST52:
 11919 0aa4 00000000 		.4byte	.LVL179
 11920 0aa8 66000000 		.4byte	.LVL191
 11921 0aac 0100     		.2byte	0x1
 11922 0aae 50       		.byte	0x50
 11923 0aaf 66000000 		.4byte	.LVL191
 11924 0ab3 A4010000 		.4byte	.LVL229
 11925 0ab7 0100     		.2byte	0x1
 11926 0ab9 55       		.byte	0x55
 11927 0aba A4010000 		.4byte	.LVL229
 11928 0abe B8010000 		.4byte	.LFE66
 11929 0ac2 0400     		.2byte	0x4
 11930 0ac4 F3       		.byte	0xf3
 11931 0ac5 01       		.uleb128 0x1
 11932 0ac6 50       		.byte	0x50
ARM GAS  C:\Users\Phuong\AppData\Local\Temp\ccTHzCbL.s 			page 257


 11933 0ac7 9F       		.byte	0x9f
 11934 0ac8 00000000 		.4byte	0
 11935 0acc 00000000 		.4byte	0
 11936              	.LLST53:
 11937 0ad0 C2000000 		.4byte	.LVL201
 11938 0ad4 C4000000 		.4byte	.LVL202
 11939 0ad8 0100     		.2byte	0x1
 11940 0ada 50       		.byte	0x50
 11941 0adb D0000000 		.4byte	.LVL204
 11942 0adf EC000000 		.4byte	.LVL206
 11943 0ae3 0100     		.2byte	0x1
 11944 0ae5 54       		.byte	0x54
 11945 0ae6 EC000000 		.4byte	.LVL206
 11946 0aea F2000000 		.4byte	.LVL207
 11947 0aee 0200     		.2byte	0x2
 11948 0af0 30       		.byte	0x30
 11949 0af1 9F       		.byte	0x9f
 11950 0af2 F2000000 		.4byte	.LVL207
 11951 0af6 A4010000 		.4byte	.LVL228
 11952 0afa 0100     		.2byte	0x1
 11953 0afc 54       		.byte	0x54
 11954 0afd 00000000 		.4byte	0
 11955 0b01 00000000 		.4byte	0
 11956              	.LLST54:
 11957 0b05 10000000 		.4byte	.LVL182
 11958 0b09 26000000 		.4byte	.LVL186
 11959 0b0d 0100     		.2byte	0x1
 11960 0b0f 53       		.byte	0x53
 11961 0b10 26000000 		.4byte	.LVL186
 11962 0b14 40000000 		.4byte	.LVL187
 11963 0b18 0500     		.2byte	0x5
 11964 0b1a 70       		.byte	0x70
 11965 0b1b 28       		.sleb128 40
 11966 0b1c 06       		.byte	0x6
 11967 0b1d 23       		.byte	0x23
 11968 0b1e 08       		.uleb128 0x8
 11969 0b1f 40000000 		.4byte	.LVL187
 11970 0b23 42000000 		.4byte	.LVL188
 11971 0b27 0100     		.2byte	0x1
 11972 0b29 53       		.byte	0x53
 11973 0b2a 42000000 		.4byte	.LVL188
 11974 0b2e 66000000 		.4byte	.LVL191
 11975 0b32 0500     		.2byte	0x5
 11976 0b34 70       		.byte	0x70
 11977 0b35 28       		.sleb128 40
 11978 0b36 06       		.byte	0x6
 11979 0b37 23       		.byte	0x23
 11980 0b38 08       		.uleb128 0x8
 11981 0b39 66000000 		.4byte	.LVL191
 11982 0b3d 69000000 		.4byte	.LVL192-1
 11983 0b41 0500     		.2byte	0x5
 11984 0b43 75       		.byte	0x75
 11985 0b44 28       		.sleb128 40
 11986 0b45 06       		.byte	0x6
 11987 0b46 23       		.byte	0x23
 11988 0b47 08       		.uleb128 0x8
 11989 0b48 00000000 		.4byte	0
ARM GAS  C:\Users\Phuong\AppData\Local\Temp\ccTHzCbL.s 			page 258


 11990 0b4c 00000000 		.4byte	0
 11991              	.LLST55:
 11992 0b50 16000000 		.4byte	.LVL183
 11993 0b54 24000000 		.4byte	.LVL185
 11994 0b58 0100     		.2byte	0x1
 11995 0b5a 52       		.byte	0x52
 11996 0b5b 24000000 		.4byte	.LVL185
 11997 0b5f 40000000 		.4byte	.LVL187
 11998 0b63 0100     		.2byte	0x1
 11999 0b65 58       		.byte	0x58
 12000 0b66 40000000 		.4byte	.LVL187
 12001 0b6a 46000000 		.4byte	.LVL189
 12002 0b6e 0100     		.2byte	0x1
 12003 0b70 52       		.byte	0x52
 12004 0b71 46000000 		.4byte	.LVL189
 12005 0b75 80000000 		.4byte	.LVL194
 12006 0b79 0100     		.2byte	0x1
 12007 0b7b 58       		.byte	0x58
 12008 0b7c 80000000 		.4byte	.LVL194
 12009 0b80 87000000 		.4byte	.LVL195-1
 12010 0b84 0100     		.2byte	0x1
 12011 0b86 53       		.byte	0x53
 12012 0b87 87000000 		.4byte	.LVL195-1
 12013 0b8b 34010000 		.4byte	.LVL214
 12014 0b8f 0100     		.2byte	0x1
 12015 0b91 58       		.byte	0x58
 12016 0b92 34010000 		.4byte	.LVL214
 12017 0b96 36010000 		.4byte	.LVL215
 12018 0b9a 0100     		.2byte	0x1
 12019 0b9c 53       		.byte	0x53
 12020 0b9d 36010000 		.4byte	.LVL215
 12021 0ba1 A4010000 		.4byte	.LVL231
 12022 0ba5 0100     		.2byte	0x1
 12023 0ba7 58       		.byte	0x58
 12024 0ba8 00000000 		.4byte	0
 12025 0bac 00000000 		.4byte	0
 12026              	.LLST56:
 12027 0bb0 1A000000 		.4byte	.LVL184
 12028 0bb4 A4010000 		.4byte	.LVL230
 12029 0bb8 0100     		.2byte	0x1
 12030 0bba 57       		.byte	0x57
 12031 0bbb 00000000 		.4byte	0
 12032 0bbf 00000000 		.4byte	0
 12033              	.LLST57:
 12034 0bc3 5C000000 		.4byte	.LVL190
 12035 0bc7 A4010000 		.4byte	.LVL232
 12036 0bcb 0100     		.2byte	0x1
 12037 0bcd 59       		.byte	0x59
 12038 0bce 00000000 		.4byte	0
 12039 0bd2 00000000 		.4byte	0
 12040              	.LLST58:
 12041 0bd6 0A000000 		.4byte	.LVL180
 12042 0bda E0000000 		.4byte	.LVL205
 12043 0bde 0200     		.2byte	0x2
 12044 0be0 30       		.byte	0x30
 12045 0be1 9F       		.byte	0x9f
 12046 0be2 E0000000 		.4byte	.LVL205
ARM GAS  C:\Users\Phuong\AppData\Local\Temp\ccTHzCbL.s 			page 259


 12047 0be6 F2000000 		.4byte	.LVL207
 12048 0bea 0200     		.2byte	0x2
 12049 0bec 31       		.byte	0x31
 12050 0bed 9F       		.byte	0x9f
 12051 0bee F2000000 		.4byte	.LVL207
 12052 0bf2 FE000000 		.4byte	.LVL208
 12053 0bf6 0200     		.2byte	0x2
 12054 0bf8 30       		.byte	0x30
 12055 0bf9 9F       		.byte	0x9f
 12056 0bfa FE000000 		.4byte	.LVL208
 12057 0bfe 00010000 		.4byte	.LVL209
 12058 0c02 0200     		.2byte	0x2
 12059 0c04 31       		.byte	0x31
 12060 0c05 9F       		.byte	0x9f
 12061 0c06 00010000 		.4byte	.LVL209
 12062 0c0a 06010000 		.4byte	.LVL210
 12063 0c0e 0100     		.2byte	0x1
 12064 0c10 53       		.byte	0x53
 12065 0c11 74010000 		.4byte	.LVL221
 12066 0c15 83010000 		.4byte	.LVL222-1
 12067 0c19 0100     		.2byte	0x1
 12068 0c1b 53       		.byte	0x53
 12069 0c1c A2010000 		.4byte	.LVL226
 12070 0c20 A4010000 		.4byte	.LVL227
 12071 0c24 0100     		.2byte	0x1
 12072 0c26 53       		.byte	0x53
 12073 0c27 00000000 		.4byte	0
 12074 0c2b 00000000 		.4byte	0
 12075              	.LLST59:
 12076 0c2f 0C000000 		.4byte	.LVL181
 12077 0c33 08010000 		.4byte	.LVL211
 12078 0c37 0100     		.2byte	0x1
 12079 0c39 56       		.byte	0x56
 12080 0c3a 74010000 		.4byte	.LVL221
 12081 0c3e A4010000 		.4byte	.LVL227
 12082 0c42 0100     		.2byte	0x1
 12083 0c44 56       		.byte	0x56
 12084 0c45 00000000 		.4byte	0
 12085 0c49 00000000 		.4byte	0
 12086              	.LLST60:
 12087 0c4d 0A010000 		.4byte	.LVL212
 12088 0c51 74010000 		.4byte	.LVL221
 12089 0c55 0100     		.2byte	0x1
 12090 0c57 56       		.byte	0x56
 12091 0c58 00000000 		.4byte	0
 12092 0c5c 00000000 		.4byte	0
 12093              	.LLST61:
 12094 0c60 5C010000 		.4byte	.LVL218
 12095 0c64 69010000 		.4byte	.LVL219-1
 12096 0c68 0100     		.2byte	0x1
 12097 0c6a 50       		.byte	0x50
 12098 0c6b 00000000 		.4byte	0
 12099 0c6f 00000000 		.4byte	0
 12100              	.LLST62:
 12101 0c73 00000000 		.4byte	.LVL233
 12102 0c77 0D000000 		.4byte	.LVL235-1
 12103 0c7b 0100     		.2byte	0x1
ARM GAS  C:\Users\Phuong\AppData\Local\Temp\ccTHzCbL.s 			page 260


 12104 0c7d 50       		.byte	0x50
 12105 0c7e 0D000000 		.4byte	.LVL235-1
 12106 0c82 10000000 		.4byte	.LVL236
 12107 0c86 0100     		.2byte	0x1
 12108 0c88 54       		.byte	0x54
 12109 0c89 10000000 		.4byte	.LVL236
 12110 0c8d 26000000 		.4byte	.LVL237
 12111 0c91 0100     		.2byte	0x1
 12112 0c93 50       		.byte	0x50
 12113 0c94 26000000 		.4byte	.LVL237
 12114 0c98 62000000 		.4byte	.LVL240
 12115 0c9c 0100     		.2byte	0x1
 12116 0c9e 54       		.byte	0x54
 12117 0c9f 62000000 		.4byte	.LVL240
 12118 0ca3 68000000 		.4byte	.LFE56
 12119 0ca7 0400     		.2byte	0x4
 12120 0ca9 F3       		.byte	0xf3
 12121 0caa 01       		.uleb128 0x1
 12122 0cab 50       		.byte	0x50
 12123 0cac 9F       		.byte	0x9f
 12124 0cad 00000000 		.4byte	0
 12125 0cb1 00000000 		.4byte	0
 12126              	.LLST63:
 12127 0cb5 00000000 		.4byte	.LVL233
 12128 0cb9 0D000000 		.4byte	.LVL235-1
 12129 0cbd 0100     		.2byte	0x1
 12130 0cbf 51       		.byte	0x51
 12131 0cc0 0D000000 		.4byte	.LVL235-1
 12132 0cc4 10000000 		.4byte	.LVL236
 12133 0cc8 0400     		.2byte	0x4
 12134 0cca F3       		.byte	0xf3
 12135 0ccb 01       		.uleb128 0x1
 12136 0ccc 51       		.byte	0x51
 12137 0ccd 9F       		.byte	0x9f
 12138 0cce 10000000 		.4byte	.LVL236
 12139 0cd2 29000000 		.4byte	.LVL238-1
 12140 0cd6 0100     		.2byte	0x1
 12141 0cd8 51       		.byte	0x51
 12142 0cd9 29000000 		.4byte	.LVL238-1
 12143 0cdd 68000000 		.4byte	.LFE56
 12144 0ce1 0400     		.2byte	0x4
 12145 0ce3 F3       		.byte	0xf3
 12146 0ce4 01       		.uleb128 0x1
 12147 0ce5 51       		.byte	0x51
 12148 0ce6 9F       		.byte	0x9f
 12149 0ce7 00000000 		.4byte	0
 12150 0ceb 00000000 		.4byte	0
 12151              	.LLST64:
 12152 0cef 04000000 		.4byte	.LVL234
 12153 0cf3 0D000000 		.4byte	.LVL235-1
 12154 0cf7 0100     		.2byte	0x1
 12155 0cf9 50       		.byte	0x50
 12156 0cfa 0D000000 		.4byte	.LVL235-1
 12157 0cfe 10000000 		.4byte	.LVL236
 12158 0d02 0100     		.2byte	0x1
 12159 0d04 54       		.byte	0x54
 12160 0d05 10000000 		.4byte	.LVL236
ARM GAS  C:\Users\Phuong\AppData\Local\Temp\ccTHzCbL.s 			page 261


 12161 0d09 26000000 		.4byte	.LVL237
 12162 0d0d 0100     		.2byte	0x1
 12163 0d0f 50       		.byte	0x50
 12164 0d10 26000000 		.4byte	.LVL237
 12165 0d14 62000000 		.4byte	.LVL240
 12166 0d18 0100     		.2byte	0x1
 12167 0d1a 54       		.byte	0x54
 12168 0d1b 62000000 		.4byte	.LVL240
 12169 0d1f 68000000 		.4byte	.LFE56
 12170 0d23 0400     		.2byte	0x4
 12171 0d25 F3       		.byte	0xf3
 12172 0d26 01       		.uleb128 0x1
 12173 0d27 50       		.byte	0x50
 12174 0d28 9F       		.byte	0x9f
 12175 0d29 00000000 		.4byte	0
 12176 0d2d 00000000 		.4byte	0
 12177              	.LLST65:
 12178 0d31 00000000 		.4byte	.LVL241
 12179 0d35 13000000 		.4byte	.LVL243-1
 12180 0d39 0100     		.2byte	0x1
 12181 0d3b 50       		.byte	0x50
 12182 0d3c 13000000 		.4byte	.LVL243-1
 12183 0d40 16000000 		.4byte	.LVL244
 12184 0d44 0100     		.2byte	0x1
 12185 0d46 54       		.byte	0x54
 12186 0d47 16000000 		.4byte	.LVL244
 12187 0d4b 1D000000 		.4byte	.LVL245-1
 12188 0d4f 0100     		.2byte	0x1
 12189 0d51 50       		.byte	0x50
 12190 0d52 1D000000 		.4byte	.LVL245-1
 12191 0d56 50000000 		.4byte	.LVL247
 12192 0d5a 0100     		.2byte	0x1
 12193 0d5c 54       		.byte	0x54
 12194 0d5d 50000000 		.4byte	.LVL247
 12195 0d61 58000000 		.4byte	.LFE57
 12196 0d65 0400     		.2byte	0x4
 12197 0d67 F3       		.byte	0xf3
 12198 0d68 01       		.uleb128 0x1
 12199 0d69 50       		.byte	0x50
 12200 0d6a 9F       		.byte	0x9f
 12201 0d6b 00000000 		.4byte	0
 12202 0d6f 00000000 		.4byte	0
 12203              	.LLST66:
 12204 0d73 00000000 		.4byte	.LVL241
 12205 0d77 13000000 		.4byte	.LVL243-1
 12206 0d7b 0100     		.2byte	0x1
 12207 0d7d 51       		.byte	0x51
 12208 0d7e 13000000 		.4byte	.LVL243-1
 12209 0d82 16000000 		.4byte	.LVL244
 12210 0d86 0400     		.2byte	0x4
 12211 0d88 F3       		.byte	0xf3
 12212 0d89 01       		.uleb128 0x1
 12213 0d8a 51       		.byte	0x51
 12214 0d8b 9F       		.byte	0x9f
 12215 0d8c 16000000 		.4byte	.LVL244
 12216 0d90 1D000000 		.4byte	.LVL245-1
 12217 0d94 0100     		.2byte	0x1
ARM GAS  C:\Users\Phuong\AppData\Local\Temp\ccTHzCbL.s 			page 262


 12218 0d96 51       		.byte	0x51
 12219 0d97 1D000000 		.4byte	.LVL245-1
 12220 0d9b 58000000 		.4byte	.LFE57
 12221 0d9f 0400     		.2byte	0x4
 12222 0da1 F3       		.byte	0xf3
 12223 0da2 01       		.uleb128 0x1
 12224 0da3 51       		.byte	0x51
 12225 0da4 9F       		.byte	0x9f
 12226 0da5 00000000 		.4byte	0
 12227 0da9 00000000 		.4byte	0
 12228              	.LLST67:
 12229 0dad 00000000 		.4byte	.LVL241
 12230 0db1 13000000 		.4byte	.LVL243-1
 12231 0db5 0100     		.2byte	0x1
 12232 0db7 52       		.byte	0x52
 12233 0db8 13000000 		.4byte	.LVL243-1
 12234 0dbc 16000000 		.4byte	.LVL244
 12235 0dc0 0400     		.2byte	0x4
 12236 0dc2 F3       		.byte	0xf3
 12237 0dc3 01       		.uleb128 0x1
 12238 0dc4 52       		.byte	0x52
 12239 0dc5 9F       		.byte	0x9f
 12240 0dc6 16000000 		.4byte	.LVL244
 12241 0dca 1D000000 		.4byte	.LVL245-1
 12242 0dce 0100     		.2byte	0x1
 12243 0dd0 52       		.byte	0x52
 12244 0dd1 1D000000 		.4byte	.LVL245-1
 12245 0dd5 58000000 		.4byte	.LFE57
 12246 0dd9 0400     		.2byte	0x4
 12247 0ddb F3       		.byte	0xf3
 12248 0ddc 01       		.uleb128 0x1
 12249 0ddd 52       		.byte	0x52
 12250 0dde 9F       		.byte	0x9f
 12251 0ddf 00000000 		.4byte	0
 12252 0de3 00000000 		.4byte	0
 12253              	.LLST68:
 12254 0de7 06000000 		.4byte	.LVL242
 12255 0deb 13000000 		.4byte	.LVL243-1
 12256 0def 0100     		.2byte	0x1
 12257 0df1 50       		.byte	0x50
 12258 0df2 13000000 		.4byte	.LVL243-1
 12259 0df6 16000000 		.4byte	.LVL244
 12260 0dfa 0100     		.2byte	0x1
 12261 0dfc 54       		.byte	0x54
 12262 0dfd 16000000 		.4byte	.LVL244
 12263 0e01 1D000000 		.4byte	.LVL245-1
 12264 0e05 0100     		.2byte	0x1
 12265 0e07 50       		.byte	0x50
 12266 0e08 1D000000 		.4byte	.LVL245-1
 12267 0e0c 50000000 		.4byte	.LVL247
 12268 0e10 0100     		.2byte	0x1
 12269 0e12 54       		.byte	0x54
 12270 0e13 50000000 		.4byte	.LVL247
 12271 0e17 58000000 		.4byte	.LFE57
 12272 0e1b 0400     		.2byte	0x4
 12273 0e1d F3       		.byte	0xf3
 12274 0e1e 01       		.uleb128 0x1
ARM GAS  C:\Users\Phuong\AppData\Local\Temp\ccTHzCbL.s 			page 263


 12275 0e1f 50       		.byte	0x50
 12276 0e20 9F       		.byte	0x9f
 12277 0e21 00000000 		.4byte	0
 12278 0e25 00000000 		.4byte	0
 12279              	.LLST69:
 12280 0e29 00000000 		.4byte	.LVL248
 12281 0e2d 16000000 		.4byte	.LVL250
 12282 0e31 0100     		.2byte	0x1
 12283 0e33 50       		.byte	0x50
 12284 0e34 16000000 		.4byte	.LVL250
 12285 0e38 74000000 		.4byte	.LVL261
 12286 0e3c 0100     		.2byte	0x1
 12287 0e3e 54       		.byte	0x54
 12288 0e3f 74000000 		.4byte	.LVL261
 12289 0e43 7A000000 		.4byte	.LVL262
 12290 0e47 0100     		.2byte	0x1
 12291 0e49 50       		.byte	0x50
 12292 0e4a 7A000000 		.4byte	.LVL262
 12293 0e4e 86000000 		.4byte	.LVL265
 12294 0e52 0100     		.2byte	0x1
 12295 0e54 54       		.byte	0x54
 12296 0e55 86000000 		.4byte	.LVL265
 12297 0e59 88000000 		.4byte	.LFE55
 12298 0e5d 0400     		.2byte	0x4
 12299 0e5f F3       		.byte	0xf3
 12300 0e60 01       		.uleb128 0x1
 12301 0e61 50       		.byte	0x50
 12302 0e62 9F       		.byte	0x9f
 12303 0e63 00000000 		.4byte	0
 12304 0e67 00000000 		.4byte	0
 12305              	.LLST70:
 12306 0e6b 00000000 		.4byte	.LVL248
 12307 0e6f 19000000 		.4byte	.LVL251-1
 12308 0e73 0100     		.2byte	0x1
 12309 0e75 51       		.byte	0x51
 12310 0e76 19000000 		.4byte	.LVL251-1
 12311 0e7a 74000000 		.4byte	.LVL261
 12312 0e7e 0200     		.2byte	0x2
 12313 0e80 91       		.byte	0x91
 12314 0e81 64       		.sleb128 -28
 12315 0e82 74000000 		.4byte	.LVL261
 12316 0e86 7A000000 		.4byte	.LVL262
 12317 0e8a 0100     		.2byte	0x1
 12318 0e8c 51       		.byte	0x51
 12319 0e8d 7A000000 		.4byte	.LVL262
 12320 0e91 88000000 		.4byte	.LFE55
 12321 0e95 0200     		.2byte	0x2
 12322 0e97 91       		.byte	0x91
 12323 0e98 64       		.sleb128 -28
 12324 0e99 00000000 		.4byte	0
 12325 0e9d 00000000 		.4byte	0
 12326              	.LLST71:
 12327 0ea1 00000000 		.4byte	.LVL248
 12328 0ea5 19000000 		.4byte	.LVL251-1
 12329 0ea9 0100     		.2byte	0x1
 12330 0eab 52       		.byte	0x52
 12331 0eac 19000000 		.4byte	.LVL251-1
ARM GAS  C:\Users\Phuong\AppData\Local\Temp\ccTHzCbL.s 			page 264


 12332 0eb0 74000000 		.4byte	.LVL261
 12333 0eb4 0100     		.2byte	0x1
 12334 0eb6 57       		.byte	0x57
 12335 0eb7 74000000 		.4byte	.LVL261
 12336 0ebb 7A000000 		.4byte	.LVL262
 12337 0ebf 0100     		.2byte	0x1
 12338 0ec1 52       		.byte	0x52
 12339 0ec2 7A000000 		.4byte	.LVL262
 12340 0ec6 86000000 		.4byte	.LVL266
 12341 0eca 0100     		.2byte	0x1
 12342 0ecc 57       		.byte	0x57
 12343 0ecd 86000000 		.4byte	.LVL266
 12344 0ed1 88000000 		.4byte	.LFE55
 12345 0ed5 0400     		.2byte	0x4
 12346 0ed7 F3       		.byte	0xf3
 12347 0ed8 01       		.uleb128 0x1
 12348 0ed9 52       		.byte	0x52
 12349 0eda 9F       		.byte	0x9f
 12350 0edb 00000000 		.4byte	0
 12351 0edf 00000000 		.4byte	0
 12352              	.LLST72:
 12353 0ee3 00000000 		.4byte	.LVL248
 12354 0ee7 19000000 		.4byte	.LVL251-1
 12355 0eeb 0100     		.2byte	0x1
 12356 0eed 53       		.byte	0x53
 12357 0eee 19000000 		.4byte	.LVL251-1
 12358 0ef2 74000000 		.4byte	.LVL261
 12359 0ef6 0400     		.2byte	0x4
 12360 0ef8 F3       		.byte	0xf3
 12361 0ef9 01       		.uleb128 0x1
 12362 0efa 53       		.byte	0x53
 12363 0efb 9F       		.byte	0x9f
 12364 0efc 74000000 		.4byte	.LVL261
 12365 0f00 7A000000 		.4byte	.LVL262
 12366 0f04 0100     		.2byte	0x1
 12367 0f06 53       		.byte	0x53
 12368 0f07 7A000000 		.4byte	.LVL262
 12369 0f0b 88000000 		.4byte	.LFE55
 12370 0f0f 0400     		.2byte	0x4
 12371 0f11 F3       		.byte	0xf3
 12372 0f12 01       		.uleb128 0x1
 12373 0f13 53       		.byte	0x53
 12374 0f14 9F       		.byte	0x9f
 12375 0f15 00000000 		.4byte	0
 12376 0f19 00000000 		.4byte	0
 12377              	.LLST73:
 12378 0f1d 0C000000 		.4byte	.LVL249
 12379 0f21 16000000 		.4byte	.LVL250
 12380 0f25 0100     		.2byte	0x1
 12381 0f27 50       		.byte	0x50
 12382 0f28 16000000 		.4byte	.LVL250
 12383 0f2c 74000000 		.4byte	.LVL261
 12384 0f30 0100     		.2byte	0x1
 12385 0f32 54       		.byte	0x54
 12386 0f33 74000000 		.4byte	.LVL261
 12387 0f37 7A000000 		.4byte	.LVL262
 12388 0f3b 0100     		.2byte	0x1
ARM GAS  C:\Users\Phuong\AppData\Local\Temp\ccTHzCbL.s 			page 265


 12389 0f3d 50       		.byte	0x50
 12390 0f3e 7A000000 		.4byte	.LVL262
 12391 0f42 86000000 		.4byte	.LVL265
 12392 0f46 0100     		.2byte	0x1
 12393 0f48 54       		.byte	0x54
 12394 0f49 86000000 		.4byte	.LVL265
 12395 0f4d 88000000 		.4byte	.LFE55
 12396 0f51 0400     		.2byte	0x4
 12397 0f53 F3       		.byte	0xf3
 12398 0f54 01       		.uleb128 0x1
 12399 0f55 50       		.byte	0x50
 12400 0f56 9F       		.byte	0x9f
 12401 0f57 00000000 		.4byte	0
 12402 0f5b 00000000 		.4byte	0
 12403              	.LLST74:
 12404 0f5f 54000000 		.4byte	.LVL256
 12405 0f63 56000000 		.4byte	.LVL257
 12406 0f67 0100     		.2byte	0x1
 12407 0f69 56       		.byte	0x56
 12408 0f6a 58000000 		.4byte	.LVL258
 12409 0f6e 74000000 		.4byte	.LVL261
 12410 0f72 0100     		.2byte	0x1
 12411 0f74 56       		.byte	0x56
 12412 0f75 7E000000 		.4byte	.LVL263
 12413 0f79 82000000 		.4byte	.LVL264
 12414 0f7d 0100     		.2byte	0x1
 12415 0f7f 56       		.byte	0x56
 12416 0f80 00000000 		.4byte	0
 12417 0f84 00000000 		.4byte	0
 12418              	.LLST75:
 12419 0f88 40000000 		.4byte	.LVL254
 12420 0f8c 4D000000 		.4byte	.LVL255-1
 12421 0f90 0100     		.2byte	0x1
 12422 0f92 50       		.byte	0x50
 12423 0f93 00000000 		.4byte	0
 12424 0f97 00000000 		.4byte	0
 12425              	.LLST76:
 12426 0f9b 00000000 		.4byte	.LVL267
 12427 0f9f 13000000 		.4byte	.LVL269-1
 12428 0fa3 0100     		.2byte	0x1
 12429 0fa5 50       		.byte	0x50
 12430 0fa6 13000000 		.4byte	.LVL269-1
 12431 0faa 3A000000 		.4byte	.LVL273
 12432 0fae 0100     		.2byte	0x1
 12433 0fb0 54       		.byte	0x54
 12434 0fb1 3A000000 		.4byte	.LVL273
 12435 0fb5 3C000000 		.4byte	.LFE62
 12436 0fb9 0400     		.2byte	0x4
 12437 0fbb F3       		.byte	0xf3
 12438 0fbc 01       		.uleb128 0x1
 12439 0fbd 50       		.byte	0x50
 12440 0fbe 9F       		.byte	0x9f
 12441 0fbf 00000000 		.4byte	0
 12442 0fc3 00000000 		.4byte	0
 12443              	.LLST77:
 12444 0fc7 04000000 		.4byte	.LVL268
 12445 0fcb 13000000 		.4byte	.LVL269-1
ARM GAS  C:\Users\Phuong\AppData\Local\Temp\ccTHzCbL.s 			page 266


 12446 0fcf 0100     		.2byte	0x1
 12447 0fd1 50       		.byte	0x50
 12448 0fd2 13000000 		.4byte	.LVL269-1
 12449 0fd6 3A000000 		.4byte	.LVL273
 12450 0fda 0100     		.2byte	0x1
 12451 0fdc 54       		.byte	0x54
 12452 0fdd 3A000000 		.4byte	.LVL273
 12453 0fe1 3C000000 		.4byte	.LFE62
 12454 0fe5 0400     		.2byte	0x4
 12455 0fe7 F3       		.byte	0xf3
 12456 0fe8 01       		.uleb128 0x1
 12457 0fe9 50       		.byte	0x50
 12458 0fea 9F       		.byte	0x9f
 12459 0feb 00000000 		.4byte	0
 12460 0fef 00000000 		.4byte	0
 12461              	.LLST78:
 12462 0ff3 1E000000 		.4byte	.LVL270
 12463 0ff7 31000000 		.4byte	.LVL271-1
 12464 0ffb 0100     		.2byte	0x1
 12465 0ffd 50       		.byte	0x50
 12466 0ffe 00000000 		.4byte	0
 12467 1002 00000000 		.4byte	0
 12468              	.LLST79:
 12469 1006 00000000 		.4byte	.LVL274
 12470 100a 0C000000 		.4byte	.LVL276
 12471 100e 0100     		.2byte	0x1
 12472 1010 50       		.byte	0x50
 12473 1011 0C000000 		.4byte	.LVL276
 12474 1015 90000000 		.4byte	.LFE63
 12475 1019 0400     		.2byte	0x4
 12476 101b F3       		.byte	0xf3
 12477 101c 01       		.uleb128 0x1
 12478 101d 50       		.byte	0x50
 12479 101e 9F       		.byte	0x9f
 12480 101f 00000000 		.4byte	0
 12481 1023 00000000 		.4byte	0
 12482              	.LLST80:
 12483 1027 00000000 		.4byte	.LVL274
 12484 102b 0A000000 		.4byte	.LVL275
 12485 102f 0100     		.2byte	0x1
 12486 1031 51       		.byte	0x51
 12487 1032 0A000000 		.4byte	.LVL275
 12488 1036 84000000 		.4byte	.LVL290
 12489 103a 0100     		.2byte	0x1
 12490 103c 56       		.byte	0x56
 12491 103d 84000000 		.4byte	.LVL290
 12492 1041 90000000 		.4byte	.LFE63
 12493 1045 0400     		.2byte	0x4
 12494 1047 F3       		.byte	0xf3
 12495 1048 01       		.uleb128 0x1
 12496 1049 51       		.byte	0x51
 12497 104a 9F       		.byte	0x9f
 12498 104b 00000000 		.4byte	0
 12499 104f 00000000 		.4byte	0
 12500              	.LLST81:
 12501 1053 12000000 		.4byte	.LVL278
 12502 1057 20000000 		.4byte	.LVL279
ARM GAS  C:\Users\Phuong\AppData\Local\Temp\ccTHzCbL.s 			page 267


 12503 105b 0100     		.2byte	0x1
 12504 105d 50       		.byte	0x50
 12505 105e 20000000 		.4byte	.LVL279
 12506 1062 82000000 		.4byte	.LVL287
 12507 1066 0100     		.2byte	0x1
 12508 1068 54       		.byte	0x54
 12509 1069 82000000 		.4byte	.LVL287
 12510 106d 84000000 		.4byte	.LVL288
 12511 1071 0100     		.2byte	0x1
 12512 1073 50       		.byte	0x50
 12513 1074 84000000 		.4byte	.LVL288
 12514 1078 84000000 		.4byte	.LVL289
 12515 107c 0100     		.2byte	0x1
 12516 107e 54       		.byte	0x54
 12517 107f 00000000 		.4byte	0
 12518 1083 00000000 		.4byte	0
 12519              	.LLST82:
 12520 1087 2E000000 		.4byte	.LVL280
 12521 108b 76000000 		.4byte	.LVL285
 12522 108f 0200     		.2byte	0x2
 12523 1091 30       		.byte	0x30
 12524 1092 9F       		.byte	0x9f
 12525 1093 00000000 		.4byte	0
 12526 1097 00000000 		.4byte	0
 12527              	.LLST83:
 12528 109b 00000000 		.4byte	.LVL291
 12529 109f 06000000 		.4byte	.LVL292
 12530 10a3 0100     		.2byte	0x1
 12531 10a5 50       		.byte	0x50
 12532 10a6 06000000 		.4byte	.LVL292
 12533 10aa 2A000000 		.4byte	.LVL298
 12534 10ae 0100     		.2byte	0x1
 12535 10b0 54       		.byte	0x54
 12536 10b1 2A000000 		.4byte	.LVL298
 12537 10b5 2A000000 		.4byte	.LVL299
 12538 10b9 0300     		.2byte	0x3
 12539 10bb 75       		.byte	0x75
 12540 10bc 74       		.sleb128 -12
 12541 10bd 9F       		.byte	0x9f
 12542 10be 2A000000 		.4byte	.LVL299
 12543 10c2 2C000000 		.4byte	.LFE64
 12544 10c6 0400     		.2byte	0x4
 12545 10c8 F3       		.byte	0xf3
 12546 10c9 01       		.uleb128 0x1
 12547 10ca 50       		.byte	0x50
 12548 10cb 9F       		.byte	0x9f
 12549 10cc 00000000 		.4byte	0
 12550 10d0 00000000 		.4byte	0
 12551              	.LLST84:
 12552 10d4 00000000 		.4byte	.LVL300
 12553 10d8 0C000000 		.4byte	.LVL301
 12554 10dc 0100     		.2byte	0x1
 12555 10de 50       		.byte	0x50
 12556 10df 0C000000 		.4byte	.LVL301
 12557 10e3 5A000000 		.4byte	.LVL311
 12558 10e7 0100     		.2byte	0x1
 12559 10e9 55       		.byte	0x55
ARM GAS  C:\Users\Phuong\AppData\Local\Temp\ccTHzCbL.s 			page 268


 12560 10ea 5A000000 		.4byte	.LVL311
 12561 10ee A2000000 		.4byte	.LVL320
 12562 10f2 0300     		.2byte	0x3
 12563 10f4 75       		.byte	0x75
 12564 10f5 6C       		.sleb128 -20
 12565 10f6 9F       		.byte	0x9f
 12566 10f7 A2000000 		.4byte	.LVL320
 12567 10fb A8000000 		.4byte	.LFE65
 12568 10ff 0400     		.2byte	0x4
 12569 1101 F3       		.byte	0xf3
 12570 1102 01       		.uleb128 0x1
 12571 1103 50       		.byte	0x50
 12572 1104 9F       		.byte	0x9f
 12573 1105 00000000 		.4byte	0
 12574 1109 00000000 		.4byte	0
 12575              	.LLST85:
 12576 110d 26000000 		.4byte	.LVL303
 12577 1111 3A000000 		.4byte	.LVL306
 12578 1115 0100     		.2byte	0x1
 12579 1117 56       		.byte	0x56
 12580 1118 00000000 		.4byte	0
 12581 111c 00000000 		.4byte	0
 12582              	.LLST86:
 12583 1120 6E000000 		.4byte	.LVL313
 12584 1124 88000000 		.4byte	.LVL316
 12585 1128 0100     		.2byte	0x1
 12586 112a 54       		.byte	0x54
 12587 112b 00000000 		.4byte	0
 12588 112f 00000000 		.4byte	0
 12589              	.LLST87:
 12590 1133 00000000 		.4byte	.LVL321
 12591 1137 14000000 		.4byte	.LVL323
 12592 113b 0100     		.2byte	0x1
 12593 113d 50       		.byte	0x50
 12594 113e 14000000 		.4byte	.LVL323
 12595 1142 8C000000 		.4byte	.LVL336
 12596 1146 0100     		.2byte	0x1
 12597 1148 54       		.byte	0x54
 12598 1149 8C000000 		.4byte	.LVL336
 12599 114d D6000000 		.4byte	.LVL346
 12600 1151 0400     		.2byte	0x4
 12601 1153 F3       		.byte	0xf3
 12602 1154 01       		.uleb128 0x1
 12603 1155 50       		.byte	0x50
 12604 1156 9F       		.byte	0x9f
 12605 1157 D6000000 		.4byte	.LVL346
 12606 115b E6000000 		.4byte	.LVL348
 12607 115f 0100     		.2byte	0x1
 12608 1161 54       		.byte	0x54
 12609 1162 E6000000 		.4byte	.LVL348
 12610 1166 EC000000 		.4byte	.LVL349
 12611 116a 0100     		.2byte	0x1
 12612 116c 50       		.byte	0x50
 12613 116d EC000000 		.4byte	.LVL349
 12614 1171 08010000 		.4byte	.LVL351
 12615 1175 0100     		.2byte	0x1
 12616 1177 54       		.byte	0x54
ARM GAS  C:\Users\Phuong\AppData\Local\Temp\ccTHzCbL.s 			page 269


 12617 1178 08010000 		.4byte	.LVL351
 12618 117c 14010000 		.4byte	.LFE60
 12619 1180 0400     		.2byte	0x4
 12620 1182 F3       		.byte	0xf3
 12621 1183 01       		.uleb128 0x1
 12622 1184 50       		.byte	0x50
 12623 1185 9F       		.byte	0x9f
 12624 1186 00000000 		.4byte	0
 12625 118a 00000000 		.4byte	0
 12626              	.LLST88:
 12627 118e 00000000 		.4byte	.LVL321
 12628 1192 17000000 		.4byte	.LVL324-1
 12629 1196 0100     		.2byte	0x1
 12630 1198 51       		.byte	0x51
 12631 1199 17000000 		.4byte	.LVL324-1
 12632 119d E6000000 		.4byte	.LVL348
 12633 11a1 0100     		.2byte	0x1
 12634 11a3 57       		.byte	0x57
 12635 11a4 E6000000 		.4byte	.LVL348
 12636 11a8 EC000000 		.4byte	.LVL349
 12637 11ac 0100     		.2byte	0x1
 12638 11ae 51       		.byte	0x51
 12639 11af EC000000 		.4byte	.LVL349
 12640 11b3 0C010000 		.4byte	.LVL352
 12641 11b7 0100     		.2byte	0x1
 12642 11b9 57       		.byte	0x57
 12643 11ba 0C010000 		.4byte	.LVL352
 12644 11be 14010000 		.4byte	.LFE60
 12645 11c2 0400     		.2byte	0x4
 12646 11c4 F3       		.byte	0xf3
 12647 11c5 01       		.uleb128 0x1
 12648 11c6 51       		.byte	0x51
 12649 11c7 9F       		.byte	0x9f
 12650 11c8 00000000 		.4byte	0
 12651 11cc 00000000 		.4byte	0
 12652              	.LLST89:
 12653 11d0 00000000 		.4byte	.LVL321
 12654 11d4 17000000 		.4byte	.LVL324-1
 12655 11d8 0100     		.2byte	0x1
 12656 11da 52       		.byte	0x52
 12657 11db 17000000 		.4byte	.LVL324-1
 12658 11df E6000000 		.4byte	.LVL348
 12659 11e3 0400     		.2byte	0x4
 12660 11e5 F3       		.byte	0xf3
 12661 11e6 01       		.uleb128 0x1
 12662 11e7 52       		.byte	0x52
 12663 11e8 9F       		.byte	0x9f
 12664 11e9 E6000000 		.4byte	.LVL348
 12665 11ed EC000000 		.4byte	.LVL349
 12666 11f1 0100     		.2byte	0x1
 12667 11f3 52       		.byte	0x52
 12668 11f4 EC000000 		.4byte	.LVL349
 12669 11f8 14010000 		.4byte	.LFE60
 12670 11fc 0400     		.2byte	0x4
 12671 11fe F3       		.byte	0xf3
 12672 11ff 01       		.uleb128 0x1
 12673 1200 52       		.byte	0x52
ARM GAS  C:\Users\Phuong\AppData\Local\Temp\ccTHzCbL.s 			page 270


 12674 1201 9F       		.byte	0x9f
 12675 1202 00000000 		.4byte	0
 12676 1206 00000000 		.4byte	0
 12677              	.LLST90:
 12678 120a 4A000000 		.4byte	.LVL328
 12679 120e 50000000 		.4byte	.LVL329
 12680 1212 0100     		.2byte	0x1
 12681 1214 50       		.byte	0x50
 12682 1215 50000000 		.4byte	.LVL329
 12683 1219 6C000000 		.4byte	.LVL332
 12684 121d 0100     		.2byte	0x1
 12685 121f 55       		.byte	0x55
 12686 1220 6C000000 		.4byte	.LVL332
 12687 1224 71000000 		.4byte	.LVL333-1
 12688 1228 0100     		.2byte	0x1
 12689 122a 50       		.byte	0x50
 12690 122b 71000000 		.4byte	.LVL333-1
 12691 122f E6000000 		.4byte	.LVL348
 12692 1233 0100     		.2byte	0x1
 12693 1235 55       		.byte	0x55
 12694 1236 FE000000 		.4byte	.LVL350
 12695 123a 08010000 		.4byte	.LVL351
 12696 123e 0100     		.2byte	0x1
 12697 1240 55       		.byte	0x55
 12698 1241 00000000 		.4byte	0
 12699 1245 00000000 		.4byte	0
 12700              	.LLST91:
 12701 1249 0A000000 		.4byte	.LVL322
 12702 124d 14000000 		.4byte	.LVL323
 12703 1251 0100     		.2byte	0x1
 12704 1253 50       		.byte	0x50
 12705 1254 14000000 		.4byte	.LVL323
 12706 1258 8C000000 		.4byte	.LVL336
 12707 125c 0100     		.2byte	0x1
 12708 125e 54       		.byte	0x54
 12709 125f 8C000000 		.4byte	.LVL336
 12710 1263 D6000000 		.4byte	.LVL346
 12711 1267 0400     		.2byte	0x4
 12712 1269 F3       		.byte	0xf3
 12713 126a 01       		.uleb128 0x1
 12714 126b 50       		.byte	0x50
 12715 126c 9F       		.byte	0x9f
 12716 126d D6000000 		.4byte	.LVL346
 12717 1271 E6000000 		.4byte	.LVL348
 12718 1275 0100     		.2byte	0x1
 12719 1277 54       		.byte	0x54
 12720 1278 E6000000 		.4byte	.LVL348
 12721 127c EC000000 		.4byte	.LVL349
 12722 1280 0100     		.2byte	0x1
 12723 1282 50       		.byte	0x50
 12724 1283 EC000000 		.4byte	.LVL349
 12725 1287 08010000 		.4byte	.LVL351
 12726 128b 0100     		.2byte	0x1
 12727 128d 54       		.byte	0x54
 12728 128e 08010000 		.4byte	.LVL351
 12729 1292 14010000 		.4byte	.LFE60
 12730 1296 0400     		.2byte	0x4
ARM GAS  C:\Users\Phuong\AppData\Local\Temp\ccTHzCbL.s 			page 271


 12731 1298 F3       		.byte	0xf3
 12732 1299 01       		.uleb128 0x1
 12733 129a 50       		.byte	0x50
 12734 129b 9F       		.byte	0x9f
 12735 129c 00000000 		.4byte	0
 12736 12a0 00000000 		.4byte	0
 12737              	.LLST92:
 12738 12a4 8C000000 		.4byte	.LVL336
 12739 12a8 BC000000 		.4byte	.LVL342
 12740 12ac 0100     		.2byte	0x1
 12741 12ae 54       		.byte	0x54
 12742 12af 00000000 		.4byte	0
 12743 12b3 00000000 		.4byte	0
 12744              	.LLST93:
 12745 12b7 00000000 		.4byte	.LVL353
 12746 12bb 06000000 		.4byte	.LVL355
 12747 12bf 0100     		.2byte	0x1
 12748 12c1 50       		.byte	0x50
 12749 12c2 06000000 		.4byte	.LVL355
 12750 12c6 C6000000 		.4byte	.LVL372
 12751 12ca 0100     		.2byte	0x1
 12752 12cc 54       		.byte	0x54
 12753 12cd C6000000 		.4byte	.LVL372
 12754 12d1 C8000000 		.4byte	.LFE67
 12755 12d5 0400     		.2byte	0x4
 12756 12d7 F3       		.byte	0xf3
 12757 12d8 01       		.uleb128 0x1
 12758 12d9 50       		.byte	0x50
 12759 12da 9F       		.byte	0x9f
 12760 12db 00000000 		.4byte	0
 12761 12df 00000000 		.4byte	0
 12762              	.LLST94:
 12763 12e3 04000000 		.4byte	.LVL354
 12764 12e7 06000000 		.4byte	.LVL355
 12765 12eb 0100     		.2byte	0x1
 12766 12ed 50       		.byte	0x50
 12767 12ee 06000000 		.4byte	.LVL355
 12768 12f2 C6000000 		.4byte	.LVL372
 12769 12f6 0100     		.2byte	0x1
 12770 12f8 54       		.byte	0x54
 12771 12f9 C6000000 		.4byte	.LVL372
 12772 12fd C8000000 		.4byte	.LFE67
 12773 1301 0400     		.2byte	0x4
 12774 1303 F3       		.byte	0xf3
 12775 1304 01       		.uleb128 0x1
 12776 1305 50       		.byte	0x50
 12777 1306 9F       		.byte	0x9f
 12778 1307 00000000 		.4byte	0
 12779 130b 00000000 		.4byte	0
 12780              	.LLST95:
 12781 130f 08000000 		.4byte	.LVL356
 12782 1313 1A000000 		.4byte	.LVL357
 12783 1317 0100     		.2byte	0x1
 12784 1319 53       		.byte	0x53
 12785 131a 1A000000 		.4byte	.LVL357
 12786 131e 1C000000 		.4byte	.LVL358
 12787 1322 0300     		.2byte	0x3
ARM GAS  C:\Users\Phuong\AppData\Local\Temp\ccTHzCbL.s 			page 272


 12788 1324 73       		.byte	0x73
 12789 1325 63       		.sleb128 -29
 12790 1326 9F       		.byte	0x9f
 12791 1327 1C000000 		.4byte	.LVL358
 12792 132b 24000000 		.4byte	.LVL359
 12793 132f 0200     		.2byte	0x2
 12794 1331 70       		.byte	0x70
 12795 1332 01       		.sleb128 1
 12796 1333 26000000 		.4byte	.LVL360
 12797 1337 2A000000 		.4byte	.LVL361
 12798 133b 0200     		.2byte	0x2
 12799 133d 70       		.byte	0x70
 12800 133e 01       		.sleb128 1
 12801 133f 00000000 		.4byte	0
 12802 1343 00000000 		.4byte	0
 12803              	.LLST96:
 12804 1347 AA000000 		.4byte	.LVL369
 12805 134b BD000000 		.4byte	.LVL370-1
 12806 134f 0100     		.2byte	0x1
 12807 1351 50       		.byte	0x50
 12808 1352 00000000 		.4byte	0
 12809 1356 00000000 		.4byte	0
 12810              	.LLST97:
 12811 135a 00000000 		.4byte	.LVL373
 12812 135e 1A000000 		.4byte	.LVL375
 12813 1362 0100     		.2byte	0x1
 12814 1364 50       		.byte	0x50
 12815 1365 1A000000 		.4byte	.LVL375
 12816 1369 78000000 		.4byte	.LVL382
 12817 136d 0100     		.2byte	0x1
 12818 136f 54       		.byte	0x54
 12819 1370 78000000 		.4byte	.LVL382
 12820 1374 7A000000 		.4byte	.LFE68
 12821 1378 0400     		.2byte	0x4
 12822 137a F3       		.byte	0xf3
 12823 137b 01       		.uleb128 0x1
 12824 137c 50       		.byte	0x50
 12825 137d 9F       		.byte	0x9f
 12826 137e 00000000 		.4byte	0
 12827 1382 00000000 		.4byte	0
 12828              	.LLST98:
 12829 1386 04000000 		.4byte	.LVL374
 12830 138a 1A000000 		.4byte	.LVL375
 12831 138e 0100     		.2byte	0x1
 12832 1390 50       		.byte	0x50
 12833 1391 1A000000 		.4byte	.LVL375
 12834 1395 78000000 		.4byte	.LVL382
 12835 1399 0100     		.2byte	0x1
 12836 139b 54       		.byte	0x54
 12837 139c 78000000 		.4byte	.LVL382
 12838 13a0 7A000000 		.4byte	.LFE68
 12839 13a4 0400     		.2byte	0x4
 12840 13a6 F3       		.byte	0xf3
 12841 13a7 01       		.uleb128 0x1
 12842 13a8 50       		.byte	0x50
 12843 13a9 9F       		.byte	0x9f
 12844 13aa 00000000 		.4byte	0
ARM GAS  C:\Users\Phuong\AppData\Local\Temp\ccTHzCbL.s 			page 273


 12845 13ae 00000000 		.4byte	0
 12846              	.LLST99:
 12847 13b2 5C000000 		.4byte	.LVL379
 12848 13b6 6F000000 		.4byte	.LVL380-1
 12849 13ba 0100     		.2byte	0x1
 12850 13bc 50       		.byte	0x50
 12851 13bd 00000000 		.4byte	0
 12852 13c1 00000000 		.4byte	0
 12853              	.LLST100:
 12854 13c5 00000000 		.4byte	.LVL383
 12855 13c9 08000000 		.4byte	.LVL385
 12856 13cd 0100     		.2byte	0x1
 12857 13cf 50       		.byte	0x50
 12858 13d0 08000000 		.4byte	.LVL385
 12859 13d4 D2000000 		.4byte	.LVL397
 12860 13d8 0100     		.2byte	0x1
 12861 13da 54       		.byte	0x54
 12862 13db D2000000 		.4byte	.LVL397
 12863 13df D8000000 		.4byte	.LFE70
 12864 13e3 0400     		.2byte	0x4
 12865 13e5 F3       		.byte	0xf3
 12866 13e6 01       		.uleb128 0x1
 12867 13e7 50       		.byte	0x50
 12868 13e8 9F       		.byte	0x9f
 12869 13e9 00000000 		.4byte	0
 12870 13ed 00000000 		.4byte	0
 12871              	.LLST101:
 12872 13f1 04000000 		.4byte	.LVL384
 12873 13f5 08000000 		.4byte	.LVL385
 12874 13f9 0100     		.2byte	0x1
 12875 13fb 50       		.byte	0x50
 12876 13fc 08000000 		.4byte	.LVL385
 12877 1400 D2000000 		.4byte	.LVL397
 12878 1404 0100     		.2byte	0x1
 12879 1406 54       		.byte	0x54
 12880 1407 D2000000 		.4byte	.LVL397
 12881 140b D8000000 		.4byte	.LFE70
 12882 140f 0400     		.2byte	0x4
 12883 1411 F3       		.byte	0xf3
 12884 1412 01       		.uleb128 0x1
 12885 1413 50       		.byte	0x50
 12886 1414 9F       		.byte	0x9f
 12887 1415 00000000 		.4byte	0
 12888 1419 00000000 		.4byte	0
 12889              	.LLST102:
 12890 141d 76000000 		.4byte	.LVL390
 12891 1421 9E000000 		.4byte	.LVL391
 12892 1425 0700     		.2byte	0x7
 12893 1427 73       		.byte	0x73
 12894 1428 00       		.sleb128 0
 12895 1429 48       		.byte	0x48
 12896 142a 24       		.byte	0x24
 12897 142b 30       		.byte	0x30
 12898 142c 2E       		.byte	0x2e
 12899 142d 9F       		.byte	0x9f
 12900 142e A2000000 		.4byte	.LVL392
 12901 1432 A4000000 		.4byte	.LVL393
ARM GAS  C:\Users\Phuong\AppData\Local\Temp\ccTHzCbL.s 			page 274


 12902 1436 0700     		.2byte	0x7
 12903 1438 73       		.byte	0x73
 12904 1439 00       		.sleb128 0
 12905 143a 48       		.byte	0x48
 12906 143b 24       		.byte	0x24
 12907 143c 30       		.byte	0x30
 12908 143d 2E       		.byte	0x2e
 12909 143e 9F       		.byte	0x9f
 12910 143f 00000000 		.4byte	0
 12911 1443 00000000 		.4byte	0
 12912              	.LLST103:
 12913 1447 B6000000 		.4byte	.LVL394
 12914 144b C9000000 		.4byte	.LVL395-1
 12915 144f 0100     		.2byte	0x1
 12916 1451 50       		.byte	0x50
 12917 1452 00000000 		.4byte	0
 12918 1456 00000000 		.4byte	0
 12919              	.LLST104:
 12920 145a 00000000 		.4byte	.LVL398
 12921 145e 12000000 		.4byte	.LVL400
 12922 1462 0100     		.2byte	0x1
 12923 1464 50       		.byte	0x50
 12924 1465 12000000 		.4byte	.LVL400
 12925 1469 1C000000 		.4byte	.LVL402
 12926 146d 0100     		.2byte	0x1
 12927 146f 54       		.byte	0x54
 12928 1470 1C000000 		.4byte	.LVL402
 12929 1474 20000000 		.4byte	.LVL403
 12930 1478 0100     		.2byte	0x1
 12931 147a 50       		.byte	0x50
 12932 147b 20000000 		.4byte	.LVL403
 12933 147f 46000000 		.4byte	.LVL407
 12934 1483 0100     		.2byte	0x1
 12935 1485 54       		.byte	0x54
 12936 1486 46000000 		.4byte	.LVL407
 12937 148a 48000000 		.4byte	.LFE71
 12938 148e 0400     		.2byte	0x4
 12939 1490 F3       		.byte	0xf3
 12940 1491 01       		.uleb128 0x1
 12941 1492 50       		.byte	0x50
 12942 1493 9F       		.byte	0x9f
 12943 1494 00000000 		.4byte	0
 12944 1498 00000000 		.4byte	0
 12945              	.LLST105:
 12946 149c 04000000 		.4byte	.LVL399
 12947 14a0 12000000 		.4byte	.LVL400
 12948 14a4 0100     		.2byte	0x1
 12949 14a6 50       		.byte	0x50
 12950 14a7 12000000 		.4byte	.LVL400
 12951 14ab 1C000000 		.4byte	.LVL402
 12952 14af 0100     		.2byte	0x1
 12953 14b1 54       		.byte	0x54
 12954 14b2 1C000000 		.4byte	.LVL402
 12955 14b6 20000000 		.4byte	.LVL403
 12956 14ba 0100     		.2byte	0x1
 12957 14bc 50       		.byte	0x50
 12958 14bd 20000000 		.4byte	.LVL403
ARM GAS  C:\Users\Phuong\AppData\Local\Temp\ccTHzCbL.s 			page 275


 12959 14c1 46000000 		.4byte	.LVL407
 12960 14c5 0100     		.2byte	0x1
 12961 14c7 54       		.byte	0x54
 12962 14c8 46000000 		.4byte	.LVL407
 12963 14cc 48000000 		.4byte	.LFE71
 12964 14d0 0400     		.2byte	0x4
 12965 14d2 F3       		.byte	0xf3
 12966 14d3 01       		.uleb128 0x1
 12967 14d4 50       		.byte	0x50
 12968 14d5 9F       		.byte	0x9f
 12969 14d6 00000000 		.4byte	0
 12970 14da 00000000 		.4byte	0
 12971              	.LLST106:
 12972 14de 2A000000 		.4byte	.LVL404
 12973 14e2 3D000000 		.4byte	.LVL405-1
 12974 14e6 0100     		.2byte	0x1
 12975 14e8 50       		.byte	0x50
 12976 14e9 00000000 		.4byte	0
 12977 14ed 00000000 		.4byte	0
 12978              	.LLST107:
 12979 14f1 00000000 		.4byte	.LVL408
 12980 14f5 1C000000 		.4byte	.LVL410
 12981 14f9 0100     		.2byte	0x1
 12982 14fb 50       		.byte	0x50
 12983 14fc 1C000000 		.4byte	.LVL410
 12984 1500 02010000 		.4byte	.LVL427
 12985 1504 0100     		.2byte	0x1
 12986 1506 54       		.byte	0x54
 12987 1507 02010000 		.4byte	.LVL427
 12988 150b 08010000 		.4byte	.LFE72
 12989 150f 0400     		.2byte	0x4
 12990 1511 F3       		.byte	0xf3
 12991 1512 01       		.uleb128 0x1
 12992 1513 50       		.byte	0x50
 12993 1514 9F       		.byte	0x9f
 12994 1515 00000000 		.4byte	0
 12995 1519 00000000 		.4byte	0
 12996              	.LLST108:
 12997 151d 06000000 		.4byte	.LVL409
 12998 1521 1C000000 		.4byte	.LVL410
 12999 1525 0100     		.2byte	0x1
 13000 1527 50       		.byte	0x50
 13001 1528 1C000000 		.4byte	.LVL410
 13002 152c 02010000 		.4byte	.LVL427
 13003 1530 0100     		.2byte	0x1
 13004 1532 54       		.byte	0x54
 13005 1533 02010000 		.4byte	.LVL427
 13006 1537 08010000 		.4byte	.LFE72
 13007 153b 0400     		.2byte	0x4
 13008 153d F3       		.byte	0xf3
 13009 153e 01       		.uleb128 0x1
 13010 153f 50       		.byte	0x50
 13011 1540 9F       		.byte	0x9f
 13012 1541 00000000 		.4byte	0
 13013 1545 00000000 		.4byte	0
 13014              	.LLST109:
 13015 1549 48000000 		.4byte	.LVL413
ARM GAS  C:\Users\Phuong\AppData\Local\Temp\ccTHzCbL.s 			page 276


 13016 154d 56000000 		.4byte	.LVL414
 13017 1551 0100     		.2byte	0x1
 13018 1553 50       		.byte	0x50
 13019 1554 56000000 		.4byte	.LVL414
 13020 1558 C0000000 		.4byte	.LVL423
 13021 155c 0100     		.2byte	0x1
 13022 155e 55       		.byte	0x55
 13023 155f 00000000 		.4byte	0
 13024 1563 00000000 		.4byte	0
 13025              	.LLST110:
 13026 1567 3E000000 		.4byte	.LVL411
 13027 156b 45000000 		.4byte	.LVL412-1
 13028 156f 0100     		.2byte	0x1
 13029 1571 51       		.byte	0x51
 13030 1572 00000000 		.4byte	0
 13031 1576 00000000 		.4byte	0
 13032              	.LLST111:
 13033 157a E4000000 		.4byte	.LVL424
 13034 157e F7000000 		.4byte	.LVL425-1
 13035 1582 0100     		.2byte	0x1
 13036 1584 50       		.byte	0x50
 13037 1585 00000000 		.4byte	0
 13038 1589 00000000 		.4byte	0
 13039              	.LLST112:
 13040 158d 00000000 		.4byte	.LVL428
 13041 1591 1A000000 		.4byte	.LVL430
 13042 1595 0100     		.2byte	0x1
 13043 1597 50       		.byte	0x50
 13044 1598 1A000000 		.4byte	.LVL430
 13045 159c 96000000 		.4byte	.LVL438
 13046 15a0 0100     		.2byte	0x1
 13047 15a2 54       		.byte	0x54
 13048 15a3 96000000 		.4byte	.LVL438
 13049 15a7 98000000 		.4byte	.LFE73
 13050 15ab 0400     		.2byte	0x4
 13051 15ad F3       		.byte	0xf3
 13052 15ae 01       		.uleb128 0x1
 13053 15af 50       		.byte	0x50
 13054 15b0 9F       		.byte	0x9f
 13055 15b1 00000000 		.4byte	0
 13056 15b5 00000000 		.4byte	0
 13057              	.LLST113:
 13058 15b9 04000000 		.4byte	.LVL429
 13059 15bd 1A000000 		.4byte	.LVL430
 13060 15c1 0100     		.2byte	0x1
 13061 15c3 50       		.byte	0x50
 13062 15c4 1A000000 		.4byte	.LVL430
 13063 15c8 96000000 		.4byte	.LVL438
 13064 15cc 0100     		.2byte	0x1
 13065 15ce 54       		.byte	0x54
 13066 15cf 96000000 		.4byte	.LVL438
 13067 15d3 98000000 		.4byte	.LFE73
 13068 15d7 0400     		.2byte	0x4
 13069 15d9 F3       		.byte	0xf3
 13070 15da 01       		.uleb128 0x1
 13071 15db 50       		.byte	0x50
 13072 15dc 9F       		.byte	0x9f
ARM GAS  C:\Users\Phuong\AppData\Local\Temp\ccTHzCbL.s 			page 277


 13073 15dd 00000000 		.4byte	0
 13074 15e1 00000000 		.4byte	0
 13075              	.LLST114:
 13076 15e5 7A000000 		.4byte	.LVL435
 13077 15e9 8D000000 		.4byte	.LVL436-1
 13078 15ed 0100     		.2byte	0x1
 13079 15ef 50       		.byte	0x50
 13080 15f0 00000000 		.4byte	0
 13081 15f4 00000000 		.4byte	0
 13082              	.LLST115:
 13083 15f8 00000000 		.4byte	.LVL439
 13084 15fc 1C000000 		.4byte	.LVL441
 13085 1600 0100     		.2byte	0x1
 13086 1602 50       		.byte	0x50
 13087 1603 1C000000 		.4byte	.LVL441
 13088 1607 5C000000 		.4byte	.LVL449
 13089 160b 0100     		.2byte	0x1
 13090 160d 55       		.byte	0x55
 13091 160e 5C000000 		.4byte	.LVL449
 13092 1612 64000000 		.4byte	.LFE74
 13093 1616 0400     		.2byte	0x4
 13094 1618 F3       		.byte	0xf3
 13095 1619 01       		.uleb128 0x1
 13096 161a 50       		.byte	0x50
 13097 161b 9F       		.byte	0x9f
 13098 161c 00000000 		.4byte	0
 13099 1620 00000000 		.4byte	0
 13100              	.LLST116:
 13101 1624 04000000 		.4byte	.LVL440
 13102 1628 1C000000 		.4byte	.LVL441
 13103 162c 0100     		.2byte	0x1
 13104 162e 50       		.byte	0x50
 13105 162f 1C000000 		.4byte	.LVL441
 13106 1633 5C000000 		.4byte	.LVL449
 13107 1637 0100     		.2byte	0x1
 13108 1639 55       		.byte	0x55
 13109 163a 5C000000 		.4byte	.LVL449
 13110 163e 64000000 		.4byte	.LFE74
 13111 1642 0400     		.2byte	0x4
 13112 1644 F3       		.byte	0xf3
 13113 1645 01       		.uleb128 0x1
 13114 1646 50       		.byte	0x50
 13115 1647 9F       		.byte	0x9f
 13116 1648 00000000 		.4byte	0
 13117 164c 00000000 		.4byte	0
 13118              	.LLST117:
 13119 1650 1C000000 		.4byte	.LVL441
 13120 1654 36000000 		.4byte	.LVL445
 13121 1658 0100     		.2byte	0x1
 13122 165a 54       		.byte	0x54
 13123 165b 00000000 		.4byte	0
 13124 165f 00000000 		.4byte	0
 13125              	.LLST118:
 13126 1663 28000000 		.4byte	.LVL442
 13127 1667 36000000 		.4byte	.LVL445
 13128 166b 0100     		.2byte	0x1
 13129 166d 56       		.byte	0x56
ARM GAS  C:\Users\Phuong\AppData\Local\Temp\ccTHzCbL.s 			page 278


 13130 166e 00000000 		.4byte	0
 13131 1672 00000000 		.4byte	0
 13132              	.LLST119:
 13133 1676 40000000 		.4byte	.LVL446
 13134 167a 53000000 		.4byte	.LVL447-1
 13135 167e 0100     		.2byte	0x1
 13136 1680 50       		.byte	0x50
 13137 1681 00000000 		.4byte	0
 13138 1685 00000000 		.4byte	0
 13139              	.LLST120:
 13140 1689 00000000 		.4byte	.LVL450
 13141 168d 0C000000 		.4byte	.LVL452
 13142 1691 0100     		.2byte	0x1
 13143 1693 50       		.byte	0x50
 13144 1694 0C000000 		.4byte	.LVL452
 13145 1698 44000000 		.4byte	.LVL457
 13146 169c 0100     		.2byte	0x1
 13147 169e 54       		.byte	0x54
 13148 169f 44000000 		.4byte	.LVL457
 13149 16a3 46000000 		.4byte	.LFE75
 13150 16a7 0400     		.2byte	0x4
 13151 16a9 F3       		.byte	0xf3
 13152 16aa 01       		.uleb128 0x1
 13153 16ab 50       		.byte	0x50
 13154 16ac 9F       		.byte	0x9f
 13155 16ad 00000000 		.4byte	0
 13156 16b1 00000000 		.4byte	0
 13157              	.LLST121:
 13158 16b5 04000000 		.4byte	.LVL451
 13159 16b9 0C000000 		.4byte	.LVL452
 13160 16bd 0100     		.2byte	0x1
 13161 16bf 50       		.byte	0x50
 13162 16c0 0C000000 		.4byte	.LVL452
 13163 16c4 44000000 		.4byte	.LVL457
 13164 16c8 0100     		.2byte	0x1
 13165 16ca 54       		.byte	0x54
 13166 16cb 44000000 		.4byte	.LVL457
 13167 16cf 46000000 		.4byte	.LFE75
 13168 16d3 0400     		.2byte	0x4
 13169 16d5 F3       		.byte	0xf3
 13170 16d6 01       		.uleb128 0x1
 13171 16d7 50       		.byte	0x50
 13172 16d8 9F       		.byte	0x9f
 13173 16d9 00000000 		.4byte	0
 13174 16dd 00000000 		.4byte	0
 13175              	.LLST122:
 13176 16e1 28000000 		.4byte	.LVL454
 13177 16e5 3B000000 		.4byte	.LVL455-1
 13178 16e9 0100     		.2byte	0x1
 13179 16eb 50       		.byte	0x50
 13180 16ec 00000000 		.4byte	0
 13181 16f0 00000000 		.4byte	0
 13182              	.LLST123:
 13183 16f4 00000000 		.4byte	.LVL458
 13184 16f8 40000000 		.4byte	.LVL460
 13185 16fc 0100     		.2byte	0x1
 13186 16fe 50       		.byte	0x50
ARM GAS  C:\Users\Phuong\AppData\Local\Temp\ccTHzCbL.s 			page 279


 13187 16ff 40000000 		.4byte	.LVL460
 13188 1703 46000000 		.4byte	.LVL462
 13189 1707 0100     		.2byte	0x1
 13190 1709 54       		.byte	0x54
 13191 170a 46000000 		.4byte	.LVL462
 13192 170e 57000000 		.4byte	.LVL463-1
 13193 1712 0100     		.2byte	0x1
 13194 1714 50       		.byte	0x50
 13195 1715 57000000 		.4byte	.LVL463-1
 13196 1719 74000000 		.4byte	.LVL466
 13197 171d 0100     		.2byte	0x1
 13198 171f 54       		.byte	0x54
 13199 1720 74000000 		.4byte	.LVL466
 13200 1724 76000000 		.4byte	.LFE77
 13201 1728 0400     		.2byte	0x4
 13202 172a F3       		.byte	0xf3
 13203 172b 01       		.uleb128 0x1
 13204 172c 50       		.byte	0x50
 13205 172d 9F       		.byte	0x9f
 13206 172e 00000000 		.4byte	0
 13207 1732 00000000 		.4byte	0
 13208              	.LLST124:
 13209 1736 04000000 		.4byte	.LVL459
 13210 173a 40000000 		.4byte	.LVL460
 13211 173e 0100     		.2byte	0x1
 13212 1740 50       		.byte	0x50
 13213 1741 40000000 		.4byte	.LVL460
 13214 1745 46000000 		.4byte	.LVL462
 13215 1749 0100     		.2byte	0x1
 13216 174b 54       		.byte	0x54
 13217 174c 46000000 		.4byte	.LVL462
 13218 1750 57000000 		.4byte	.LVL463-1
 13219 1754 0100     		.2byte	0x1
 13220 1756 50       		.byte	0x50
 13221 1757 57000000 		.4byte	.LVL463-1
 13222 175b 74000000 		.4byte	.LVL466
 13223 175f 0100     		.2byte	0x1
 13224 1761 54       		.byte	0x54
 13225 1762 74000000 		.4byte	.LVL466
 13226 1766 76000000 		.4byte	.LFE77
 13227 176a 0400     		.2byte	0x4
 13228 176c F3       		.byte	0xf3
 13229 176d 01       		.uleb128 0x1
 13230 176e 50       		.byte	0x50
 13231 176f 9F       		.byte	0x9f
 13232 1770 00000000 		.4byte	0
 13233 1774 00000000 		.4byte	0
 13234              	.LLST125:
 13235 1778 58000000 		.4byte	.LVL463
 13236 177c 6B000000 		.4byte	.LVL464-1
 13237 1780 0100     		.2byte	0x1
 13238 1782 50       		.byte	0x50
 13239 1783 00000000 		.4byte	0
 13240 1787 00000000 		.4byte	0
 13241              	.LLST126:
 13242 178b 00000000 		.4byte	.LVL467
 13243 178f AB000000 		.4byte	.LVL469-1
ARM GAS  C:\Users\Phuong\AppData\Local\Temp\ccTHzCbL.s 			page 280


 13244 1793 0100     		.2byte	0x1
 13245 1795 50       		.byte	0x50
 13246 1796 AB000000 		.4byte	.LVL469-1
 13247 179a C8000000 		.4byte	.LVL472
 13248 179e 0100     		.2byte	0x1
 13249 17a0 54       		.byte	0x54
 13250 17a1 C8000000 		.4byte	.LVL472
 13251 17a5 CA000000 		.4byte	.LFE78
 13252 17a9 0400     		.2byte	0x4
 13253 17ab F3       		.byte	0xf3
 13254 17ac 01       		.uleb128 0x1
 13255 17ad 50       		.byte	0x50
 13256 17ae 9F       		.byte	0x9f
 13257 17af 00000000 		.4byte	0
 13258 17b3 00000000 		.4byte	0
 13259              	.LLST127:
 13260 17b7 04000000 		.4byte	.LVL468
 13261 17bb AB000000 		.4byte	.LVL469-1
 13262 17bf 0100     		.2byte	0x1
 13263 17c1 50       		.byte	0x50
 13264 17c2 AB000000 		.4byte	.LVL469-1
 13265 17c6 C8000000 		.4byte	.LVL472
 13266 17ca 0100     		.2byte	0x1
 13267 17cc 54       		.byte	0x54
 13268 17cd C8000000 		.4byte	.LVL472
 13269 17d1 CA000000 		.4byte	.LFE78
 13270 17d5 0400     		.2byte	0x4
 13271 17d7 F3       		.byte	0xf3
 13272 17d8 01       		.uleb128 0x1
 13273 17d9 50       		.byte	0x50
 13274 17da 9F       		.byte	0x9f
 13275 17db 00000000 		.4byte	0
 13276 17df 00000000 		.4byte	0
 13277              	.LLST128:
 13278 17e3 AC000000 		.4byte	.LVL469
 13279 17e7 BF000000 		.4byte	.LVL470-1
 13280 17eb 0100     		.2byte	0x1
 13281 17ed 50       		.byte	0x50
 13282 17ee 00000000 		.4byte	0
 13283 17f2 00000000 		.4byte	0
 13284              	.LLST129:
 13285 17f6 00000000 		.4byte	.LVL473
 13286 17fa 06000000 		.4byte	.LVL475
 13287 17fe 0100     		.2byte	0x1
 13288 1800 50       		.byte	0x50
 13289 1801 06000000 		.4byte	.LVL475
 13290 1805 78000000 		.4byte	.LVL483
 13291 1809 0100     		.2byte	0x1
 13292 180b 54       		.byte	0x54
 13293 180c 78000000 		.4byte	.LVL483
 13294 1810 7A000000 		.4byte	.LFE79
 13295 1814 0400     		.2byte	0x4
 13296 1816 F3       		.byte	0xf3
 13297 1817 01       		.uleb128 0x1
 13298 1818 50       		.byte	0x50
 13299 1819 9F       		.byte	0x9f
 13300 181a 00000000 		.4byte	0
ARM GAS  C:\Users\Phuong\AppData\Local\Temp\ccTHzCbL.s 			page 281


 13301 181e 00000000 		.4byte	0
 13302              	.LLST130:
 13303 1822 04000000 		.4byte	.LVL474
 13304 1826 06000000 		.4byte	.LVL475
 13305 182a 0100     		.2byte	0x1
 13306 182c 50       		.byte	0x50
 13307 182d 06000000 		.4byte	.LVL475
 13308 1831 78000000 		.4byte	.LVL483
 13309 1835 0100     		.2byte	0x1
 13310 1837 54       		.byte	0x54
 13311 1838 78000000 		.4byte	.LVL483
 13312 183c 7A000000 		.4byte	.LFE79
 13313 1840 0400     		.2byte	0x4
 13314 1842 F3       		.byte	0xf3
 13315 1843 01       		.uleb128 0x1
 13316 1844 50       		.byte	0x50
 13317 1845 9F       		.byte	0x9f
 13318 1846 00000000 		.4byte	0
 13319 184a 00000000 		.4byte	0
 13320              	.LLST131:
 13321 184e 08000000 		.4byte	.LVL476
 13322 1852 3D000000 		.4byte	.LVL477-1
 13323 1856 0100     		.2byte	0x1
 13324 1858 51       		.byte	0x51
 13325 1859 50000000 		.4byte	.LVL479
 13326 185d 5B000000 		.4byte	.LVL480-1
 13327 1861 0100     		.2byte	0x1
 13328 1863 51       		.byte	0x51
 13329 1864 00000000 		.4byte	0
 13330 1868 00000000 		.4byte	0
 13331              	.LLST132:
 13332 186c 5C000000 		.4byte	.LVL480
 13333 1870 6F000000 		.4byte	.LVL481-1
 13334 1874 0100     		.2byte	0x1
 13335 1876 50       		.byte	0x50
 13336 1877 00000000 		.4byte	0
 13337 187b 00000000 		.4byte	0
 13338              	.LLST133:
 13339 187f 00000000 		.4byte	.LVL484
 13340 1883 2E000000 		.4byte	.LVL486
 13341 1887 0100     		.2byte	0x1
 13342 1889 50       		.byte	0x50
 13343 188a 2E000000 		.4byte	.LVL486
 13344 188e 36000000 		.4byte	.LVL488
 13345 1892 0100     		.2byte	0x1
 13346 1894 54       		.byte	0x54
 13347 1895 36000000 		.4byte	.LVL488
 13348 1899 3A000000 		.4byte	.LVL489
 13349 189d 0100     		.2byte	0x1
 13350 189f 50       		.byte	0x50
 13351 18a0 3A000000 		.4byte	.LVL489
 13352 18a4 42000000 		.4byte	.LVL491
 13353 18a8 0100     		.2byte	0x1
 13354 18aa 54       		.byte	0x54
 13355 18ab 42000000 		.4byte	.LVL491
 13356 18af 4C000000 		.4byte	.LVL492
 13357 18b3 0100     		.2byte	0x1
ARM GAS  C:\Users\Phuong\AppData\Local\Temp\ccTHzCbL.s 			page 282


 13358 18b5 50       		.byte	0x50
 13359 18b6 4C000000 		.4byte	.LVL492
 13360 18ba 72000000 		.4byte	.LVL496
 13361 18be 0100     		.2byte	0x1
 13362 18c0 54       		.byte	0x54
 13363 18c1 72000000 		.4byte	.LVL496
 13364 18c5 74000000 		.4byte	.LFE80
 13365 18c9 0400     		.2byte	0x4
 13366 18cb F3       		.byte	0xf3
 13367 18cc 01       		.uleb128 0x1
 13368 18cd 50       		.byte	0x50
 13369 18ce 9F       		.byte	0x9f
 13370 18cf 00000000 		.4byte	0
 13371 18d3 00000000 		.4byte	0
 13372              	.LLST134:
 13373 18d7 04000000 		.4byte	.LVL485
 13374 18db 2E000000 		.4byte	.LVL486
 13375 18df 0100     		.2byte	0x1
 13376 18e1 50       		.byte	0x50
 13377 18e2 2E000000 		.4byte	.LVL486
 13378 18e6 36000000 		.4byte	.LVL488
 13379 18ea 0100     		.2byte	0x1
 13380 18ec 54       		.byte	0x54
 13381 18ed 36000000 		.4byte	.LVL488
 13382 18f1 3A000000 		.4byte	.LVL489
 13383 18f5 0100     		.2byte	0x1
 13384 18f7 50       		.byte	0x50
 13385 18f8 3A000000 		.4byte	.LVL489
 13386 18fc 42000000 		.4byte	.LVL491
 13387 1900 0100     		.2byte	0x1
 13388 1902 54       		.byte	0x54
 13389 1903 42000000 		.4byte	.LVL491
 13390 1907 4C000000 		.4byte	.LVL492
 13391 190b 0100     		.2byte	0x1
 13392 190d 50       		.byte	0x50
 13393 190e 4C000000 		.4byte	.LVL492
 13394 1912 72000000 		.4byte	.LVL496
 13395 1916 0100     		.2byte	0x1
 13396 1918 54       		.byte	0x54
 13397 1919 72000000 		.4byte	.LVL496
 13398 191d 74000000 		.4byte	.LFE80
 13399 1921 0400     		.2byte	0x4
 13400 1923 F3       		.byte	0xf3
 13401 1924 01       		.uleb128 0x1
 13402 1925 50       		.byte	0x50
 13403 1926 9F       		.byte	0x9f
 13404 1927 00000000 		.4byte	0
 13405 192b 00000000 		.4byte	0
 13406              	.LLST135:
 13407 192f 56000000 		.4byte	.LVL493
 13408 1933 69000000 		.4byte	.LVL494-1
 13409 1937 0100     		.2byte	0x1
 13410 1939 50       		.byte	0x50
 13411 193a 00000000 		.4byte	0
 13412 193e 00000000 		.4byte	0
 13413              	.LLST136:
 13414 1942 00000000 		.4byte	.LVL497
ARM GAS  C:\Users\Phuong\AppData\Local\Temp\ccTHzCbL.s 			page 283


 13415 1946 14000000 		.4byte	.LVL499
 13416 194a 0100     		.2byte	0x1
 13417 194c 50       		.byte	0x50
 13418 194d 14000000 		.4byte	.LVL499
 13419 1951 17000000 		.4byte	.LVL500-1
 13420 1955 0100     		.2byte	0x1
 13421 1957 53       		.byte	0x53
 13422 1958 17000000 		.4byte	.LVL500-1
 13423 195c 2C000000 		.4byte	.LVL502
 13424 1960 0100     		.2byte	0x1
 13425 1962 54       		.byte	0x54
 13426 1963 2C000000 		.4byte	.LVL502
 13427 1967 34000000 		.4byte	.LFE82
 13428 196b 0400     		.2byte	0x4
 13429 196d F3       		.byte	0xf3
 13430 196e 01       		.uleb128 0x1
 13431 196f 50       		.byte	0x50
 13432 1970 9F       		.byte	0x9f
 13433 1971 00000000 		.4byte	0
 13434 1975 00000000 		.4byte	0
 13435              	.LLST137:
 13436 1979 06000000 		.4byte	.LVL498
 13437 197d 14000000 		.4byte	.LVL499
 13438 1981 0100     		.2byte	0x1
 13439 1983 50       		.byte	0x50
 13440 1984 14000000 		.4byte	.LVL499
 13441 1988 17000000 		.4byte	.LVL500-1
 13442 198c 0100     		.2byte	0x1
 13443 198e 53       		.byte	0x53
 13444 198f 17000000 		.4byte	.LVL500-1
 13445 1993 2C000000 		.4byte	.LVL502
 13446 1997 0100     		.2byte	0x1
 13447 1999 54       		.byte	0x54
 13448 199a 2C000000 		.4byte	.LVL502
 13449 199e 34000000 		.4byte	.LFE82
 13450 19a2 0400     		.2byte	0x4
 13451 19a4 F3       		.byte	0xf3
 13452 19a5 01       		.uleb128 0x1
 13453 19a6 50       		.byte	0x50
 13454 19a7 9F       		.byte	0x9f
 13455 19a8 00000000 		.4byte	0
 13456 19ac 00000000 		.4byte	0
 13457              		.section	.debug_aranges,"",%progbits
 13458 0000 04010000 		.4byte	0x104
 13459 0004 0200     		.2byte	0x2
 13460 0006 00000000 		.4byte	.Ldebug_info0
 13461 000a 04       		.byte	0x4
 13462 000b 00       		.byte	0
 13463 000c 0000     		.2byte	0
 13464 000e 0000     		.2byte	0
 13465 0010 00000000 		.4byte	.LFB81
 13466 0014 22000000 		.4byte	.LFE81-.LFB81
 13467 0018 00000000 		.4byte	.LFB54
 13468 001c 94000000 		.4byte	.LFE54-.LFB54
 13469 0020 00000000 		.4byte	.LFB53
 13470 0024 98000000 		.4byte	.LFE53-.LFB53
 13471 0028 00000000 		.4byte	.LFB59
ARM GAS  C:\Users\Phuong\AppData\Local\Temp\ccTHzCbL.s 			page 284


 13472 002c 40000000 		.4byte	.LFE59-.LFB59
 13473 0030 00000000 		.4byte	.LFB61
 13474 0034 8C000000 		.4byte	.LFE61-.LFB61
 13475 0038 00000000 		.4byte	.LFB69
 13476 003c 7E000000 		.4byte	.LFE69-.LFB69
 13477 0040 00000000 		.4byte	.LFB58
 13478 0044 E0000000 		.4byte	.LFE58-.LFB58
 13479 0048 00000000 		.4byte	.LFB76
 13480 004c 74010000 		.4byte	.LFE76-.LFB76
 13481 0050 00000000 		.4byte	.LFB66
 13482 0054 B8010000 		.4byte	.LFE66-.LFB66
 13483 0058 00000000 		.4byte	.LFB56
 13484 005c 68000000 		.4byte	.LFE56-.LFB56
 13485 0060 00000000 		.4byte	.LFB57
 13486 0064 58000000 		.4byte	.LFE57-.LFB57
 13487 0068 00000000 		.4byte	.LFB55
 13488 006c 88000000 		.4byte	.LFE55-.LFB55
 13489 0070 00000000 		.4byte	.LFB62
 13490 0074 3C000000 		.4byte	.LFE62-.LFB62
 13491 0078 00000000 		.4byte	.LFB63
 13492 007c 90000000 		.4byte	.LFE63-.LFB63
 13493 0080 00000000 		.4byte	.LFB64
 13494 0084 2C000000 		.4byte	.LFE64-.LFB64
 13495 0088 00000000 		.4byte	.LFB65
 13496 008c A8000000 		.4byte	.LFE65-.LFB65
 13497 0090 00000000 		.4byte	.LFB60
 13498 0094 14010000 		.4byte	.LFE60-.LFB60
 13499 0098 00000000 		.4byte	.LFB67
 13500 009c C8000000 		.4byte	.LFE67-.LFB67
 13501 00a0 00000000 		.4byte	.LFB68
 13502 00a4 7A000000 		.4byte	.LFE68-.LFB68
 13503 00a8 00000000 		.4byte	.LFB70
 13504 00ac D8000000 		.4byte	.LFE70-.LFB70
 13505 00b0 00000000 		.4byte	.LFB71
 13506 00b4 48000000 		.4byte	.LFE71-.LFB71
 13507 00b8 00000000 		.4byte	.LFB72
 13508 00bc 08010000 		.4byte	.LFE72-.LFB72
 13509 00c0 00000000 		.4byte	.LFB73
 13510 00c4 98000000 		.4byte	.LFE73-.LFB73
 13511 00c8 00000000 		.4byte	.LFB74
 13512 00cc 64000000 		.4byte	.LFE74-.LFB74
 13513 00d0 00000000 		.4byte	.LFB75
 13514 00d4 46000000 		.4byte	.LFE75-.LFB75
 13515 00d8 00000000 		.4byte	.LFB77
 13516 00dc 76000000 		.4byte	.LFE77-.LFB77
 13517 00e0 00000000 		.4byte	.LFB78
 13518 00e4 CA000000 		.4byte	.LFE78-.LFB78
 13519 00e8 00000000 		.4byte	.LFB79
 13520 00ec 7A000000 		.4byte	.LFE79-.LFB79
 13521 00f0 00000000 		.4byte	.LFB80
 13522 00f4 74000000 		.4byte	.LFE80-.LFB80
 13523 00f8 00000000 		.4byte	.LFB82
 13524 00fc 34000000 		.4byte	.LFE82-.LFB82
 13525 0100 00000000 		.4byte	0
 13526 0104 00000000 		.4byte	0
 13527              		.section	.debug_ranges,"",%progbits
 13528              	.Ldebug_ranges0:
ARM GAS  C:\Users\Phuong\AppData\Local\Temp\ccTHzCbL.s 			page 285


 13529 0000 BC000000 		.4byte	.LBB9
 13530 0004 D6000000 		.4byte	.LBE9
 13531 0008 D8000000 		.4byte	.LBB10
 13532 000c F6000000 		.4byte	.LBE10
 13533 0010 00000000 		.4byte	0
 13534 0014 00000000 		.4byte	0
 13535 0018 00000000 		.4byte	.LFB81
 13536 001c 22000000 		.4byte	.LFE81
 13537 0020 00000000 		.4byte	.LFB54
 13538 0024 94000000 		.4byte	.LFE54
 13539 0028 00000000 		.4byte	.LFB53
 13540 002c 98000000 		.4byte	.LFE53
 13541 0030 00000000 		.4byte	.LFB59
 13542 0034 40000000 		.4byte	.LFE59
 13543 0038 00000000 		.4byte	.LFB61
 13544 003c 8C000000 		.4byte	.LFE61
 13545 0040 00000000 		.4byte	.LFB69
 13546 0044 7E000000 		.4byte	.LFE69
 13547 0048 00000000 		.4byte	.LFB58
 13548 004c E0000000 		.4byte	.LFE58
 13549 0050 00000000 		.4byte	.LFB76
 13550 0054 74010000 		.4byte	.LFE76
 13551 0058 00000000 		.4byte	.LFB66
 13552 005c B8010000 		.4byte	.LFE66
 13553 0060 00000000 		.4byte	.LFB56
 13554 0064 68000000 		.4byte	.LFE56
 13555 0068 00000000 		.4byte	.LFB57
 13556 006c 58000000 		.4byte	.LFE57
 13557 0070 00000000 		.4byte	.LFB55
 13558 0074 88000000 		.4byte	.LFE55
 13559 0078 00000000 		.4byte	.LFB62
 13560 007c 3C000000 		.4byte	.LFE62
 13561 0080 00000000 		.4byte	.LFB63
 13562 0084 90000000 		.4byte	.LFE63
 13563 0088 00000000 		.4byte	.LFB64
 13564 008c 2C000000 		.4byte	.LFE64
 13565 0090 00000000 		.4byte	.LFB65
 13566 0094 A8000000 		.4byte	.LFE65
 13567 0098 00000000 		.4byte	.LFB60
 13568 009c 14010000 		.4byte	.LFE60
 13569 00a0 00000000 		.4byte	.LFB67
 13570 00a4 C8000000 		.4byte	.LFE67
 13571 00a8 00000000 		.4byte	.LFB68
 13572 00ac 7A000000 		.4byte	.LFE68
 13573 00b0 00000000 		.4byte	.LFB70
 13574 00b4 D8000000 		.4byte	.LFE70
 13575 00b8 00000000 		.4byte	.LFB71
 13576 00bc 48000000 		.4byte	.LFE71
 13577 00c0 00000000 		.4byte	.LFB72
 13578 00c4 08010000 		.4byte	.LFE72
 13579 00c8 00000000 		.4byte	.LFB73
 13580 00cc 98000000 		.4byte	.LFE73
 13581 00d0 00000000 		.4byte	.LFB74
 13582 00d4 64000000 		.4byte	.LFE74
 13583 00d8 00000000 		.4byte	.LFB75
 13584 00dc 46000000 		.4byte	.LFE75
 13585 00e0 00000000 		.4byte	.LFB77
ARM GAS  C:\Users\Phuong\AppData\Local\Temp\ccTHzCbL.s 			page 286


 13586 00e4 76000000 		.4byte	.LFE77
 13587 00e8 00000000 		.4byte	.LFB78
 13588 00ec CA000000 		.4byte	.LFE78
 13589 00f0 00000000 		.4byte	.LFB79
 13590 00f4 7A000000 		.4byte	.LFE79
 13591 00f8 00000000 		.4byte	.LFB80
 13592 00fc 74000000 		.4byte	.LFE80
 13593 0100 00000000 		.4byte	.LFB82
 13594 0104 34000000 		.4byte	.LFE82
 13595 0108 00000000 		.4byte	0
 13596 010c 00000000 		.4byte	0
 13597              		.section	.debug_line,"",%progbits
 13598              	.Ldebug_line0:
 13599 0000 130B0000 		.section	.debug_str,"MS",%progbits,1
 13599      02003B03 
 13599      00000201 
 13599      FB0E0D00 
 13599      01010101 
 13600              	.LASF347:
 13601 0000 7379735F 		.ascii	"sys_mbox_free\000"
 13601      6D626F78 
 13601      5F667265 
 13601      6500
 13602              	.LASF82:
 13603 000e 4D454D50 		.ascii	"MEMP_PBUF_POOL\000"
 13603      5F504255 
 13603      465F504F 
 13603      4F4C00
 13604              	.LASF282:
 13605 001d 636C6F73 		.ascii	"close\000"
 13605      6500
 13606              	.LASF262:
 13607 0023 7063625F 		.ascii	"pcb_new\000"
 13607      6E657700 
 13608              	.LASF70:
 13609 002b 4D454D50 		.ascii	"MEMP_TCP_PCB_LISTEN\000"
 13609      5F544350 
 13609      5F504342 
 13609      5F4C4953 
 13609      54454E00 
 13610              	.LASF310:
 13611 003f 6C776970 		.ascii	"lwip_netconn_do_getaddr\000"
 13611      5F6E6574 
 13611      636F6E6E 
 13611      5F646F5F 
 13611      67657461 
 13612              	.LASF150:
 13613 0057 736F5F6F 		.ascii	"so_options\000"
 13613      7074696F 
 13613      6E7300
 13614              	.LASF361:
 13615 0062 7463705F 		.ascii	"tcp_connect\000"
 13615      636F6E6E 
 13615      65637400 
 13616              	.LASF95:
 13617 006e 696E7075 		.ascii	"input\000"
 13617      7400
ARM GAS  C:\Users\Phuong\AppData\Local\Temp\ccTHzCbL.s 			page 287


 13618              	.LASF46:
 13619 0074 4552525F 		.ascii	"ERR_ABRT\000"
 13619      41425254 
 13619      00
 13620              	.LASF203:
 13621 007d 636F6E6E 		.ascii	"conn\000"
 13621      00
 13622              	.LASF50:
 13623 0082 50425546 		.ascii	"PBUF_TRANSPORT\000"
 13623      5F545241 
 13623      4E53504F 
 13623      525400
 13624              	.LASF114:
 13625 0091 6E657463 		.ascii	"netconn_type\000"
 13625      6F6E6E5F 
 13625      74797065 
 13625      00
 13626              	.LASF55:
 13627 009e 50425546 		.ascii	"PBUF_RAM\000"
 13627      5F52414D 
 13627      00
 13628              	.LASF229:
 13629 00a7 63757272 		.ascii	"current_input_netif\000"
 13629      656E745F 
 13629      696E7075 
 13629      745F6E65 
 13629      74696600 
 13630              	.LASF184:
 13631 00bb 6C697374 		.ascii	"listener\000"
 13631      656E6572 
 13631      00
 13632              	.LASF87:
 13633 00c4 4C574950 		.ascii	"LWIP_NETIF_CLIENT_DATA_INDEX_IGMP\000"
 13633      5F4E4554 
 13633      49465F43 
 13633      4C49454E 
 13633      545F4441 
 13634              	.LASF156:
 13635 00e6 706F6C6C 		.ascii	"polltmr\000"
 13635      746D7200 
 13636              	.LASF364:
 13637 00ee 7261775F 		.ascii	"raw_send\000"
 13637      73656E64 
 13637      00
 13638              	.LASF54:
 13639 00f7 50425546 		.ascii	"PBUF_RAW\000"
 13639      5F524157 
 13639      00
 13640              	.LASF66:
 13641 0100 666C6167 		.ascii	"flags\000"
 13641      7300
 13642              	.LASF283:
 13643 0106 636C6F73 		.ascii	"close_finished\000"
 13643      655F6669 
 13643      6E697368 
 13643      656400
 13644              	.LASF48:
ARM GAS  C:\Users\Phuong\AppData\Local\Temp\ccTHzCbL.s 			page 288


 13645 0115 4552525F 		.ascii	"ERR_CLSD\000"
 13645      434C5344 
 13645      00
 13646              	.LASF358:
 13647 011e 7463705F 		.ascii	"tcp_bind\000"
 13647      62696E64 
 13647      00
 13648              	.LASF49:
 13649 0127 4552525F 		.ascii	"ERR_ARG\000"
 13649      41524700 
 13650              	.LASF292:
 13651 012f 6E657463 		.ascii	"netconn_free\000"
 13651      6F6E6E5F 
 13651      66726565 
 13651      00
 13652              	.LASF348:
 13653 013c 7379735F 		.ascii	"sys_mbox_set_invalid\000"
 13653      6D626F78 
 13653      5F736574 
 13653      5F696E76 
 13653      616C6964 
 13654              	.LASF200:
 13655 0151 7261775F 		.ascii	"raw_pcb\000"
 13655      70636200 
 13656              	.LASF254:
 13657 0159 54494D45 		.ascii	"TIME_WAIT\000"
 13657      5F574149 
 13657      5400
 13658              	.LASF291:
 13659 0163 6C776970 		.ascii	"lwip_netconn_do_newconn\000"
 13659      5F6E6574 
 13659      636F6E6E 
 13659      5F646F5F 
 13659      6E657763 
 13660              	.LASF240:
 13661 017b 7463705F 		.ascii	"tcp_connected_fn\000"
 13661      636F6E6E 
 13661      65637465 
 13661      645F666E 
 13661      00
 13662              	.LASF62:
 13663 018c 6E657874 		.ascii	"next\000"
 13663      00
 13664              	.LASF132:
 13665 0191 4E455443 		.ascii	"NETCONN_EVT_ERROR\000"
 13665      4F4E4E5F 
 13665      4556545F 
 13665      4552524F 
 13665      5200
 13666              	.LASF300:
 13667 01a3 6E6F6E5F 		.ascii	"non_blocking\000"
 13667      626C6F63 
 13667      6B696E67 
 13667      00
 13668              	.LASF119:
 13669 01b0 4E455443 		.ascii	"NETCONN_UDPNOCHKSUM\000"
 13669      4F4E4E5F 
ARM GAS  C:\Users\Phuong\AppData\Local\Temp\ccTHzCbL.s 			page 289


 13669      5544504E 
 13669      4F43484B 
 13669      53554D00 
 13670              	.LASF32:
 13671 01c4 6572725F 		.ascii	"err_t\000"
 13671      7400
 13672              	.LASF312:
 13673 01ca 6C776970 		.ascii	"lwip_netconn_do_join_leave_group\000"
 13673      5F6E6574 
 13673      636F6E6E 
 13673      5F646F5F 
 13673      6A6F696E 
 13674              	.LASF366:
 13675 01eb 7564705F 		.ascii	"udp_send\000"
 13675      73656E64 
 13675      00
 13676              	.LASF102:
 13677 01f4 686F7374 		.ascii	"hostname\000"
 13677      6E616D65 
 13677      00
 13678              	.LASF281:
 13679 01fd 73687574 		.ascii	"shut_tx\000"
 13679      5F747800 
 13680              	.LASF216:
 13681 0205 6970345F 		.ascii	"ip4_addr_packed\000"
 13681      61646472 
 13681      5F706163 
 13681      6B656400 
 13682              	.LASF223:
 13683 0215 5F74746C 		.ascii	"_ttl\000"
 13683      00
 13684              	.LASF19:
 13685 021a 7379735F 		.ascii	"sys_sem_t\000"
 13685      73656D5F 
 13685      7400
 13686              	.LASF360:
 13687 0224 7564705F 		.ascii	"udp_connect\000"
 13687      636F6E6E 
 13687      65637400 
 13688              	.LASF286:
 13689 0230 73656E74 		.ascii	"sent_tcp\000"
 13689      5F746370 
 13689      00
 13690              	.LASF198:
 13691 0239 6D636173 		.ascii	"mcast_ttl\000"
 13691      745F7474 
 13691      6C00
 13692              	.LASF162:
 13693 0243 7263765F 		.ascii	"rcv_ann_right_edge\000"
 13693      616E6E5F 
 13693      72696768 
 13693      745F6564 
 13693      676500
 13694              	.LASF201:
 13695 0256 70726F74 		.ascii	"protocol\000"
 13695      6F636F6C 
 13695      00
ARM GAS  C:\Users\Phuong\AppData\Local\Temp\ccTHzCbL.s 			page 290


 13696              	.LASF230:
 13697 025f 63757272 		.ascii	"current_ip4_header\000"
 13697      656E745F 
 13697      6970345F 
 13697      68656164 
 13697      657200
 13698              	.LASF108:
 13699 0272 6E657469 		.ascii	"netif_output_fn\000"
 13699      665F6F75 
 13699      74707574 
 13699      5F666E00 
 13700              	.LASF285:
 13701 0282 706F6C6C 		.ascii	"poll_tcp\000"
 13701      5F746370 
 13701      00
 13702              	.LASF157:
 13703 028b 706F6C6C 		.ascii	"pollinterval\000"
 13703      696E7465 
 13703      7276616C 
 13703      00
 13704              	.LASF195:
 13705 0298 6B656570 		.ascii	"keep_cnt_sent\000"
 13705      5F636E74 
 13705      5F73656E 
 13705      7400
 13706              	.LASF273:
 13707 02a6 6C776970 		.ascii	"lwip_netconn_do_writemore\000"
 13707      5F6E6574 
 13707      636F6E6E 
 13707      5F646F5F 
 13707      77726974 
 13708              	.LASF370:
 13709 02c0 69676D70 		.ascii	"igmp_leavegroup\000"
 13709      5F6C6561 
 13709      76656772 
 13709      6F757000 
 13710              	.LASF326:
 13711 02d0 7463705F 		.ascii	"tcp_recv\000"
 13711      72656376 
 13711      00
 13712              	.LASF237:
 13713 02d9 7463705F 		.ascii	"tcp_sent_fn\000"
 13713      73656E74 
 13713      5F666E00 
 13714              	.LASF121:
 13715 02e5 6E657463 		.ascii	"netconn_state\000"
 13715      6F6E6E5F 
 13715      73746174 
 13715      6500
 13716              	.LASF192:
 13717 02f3 6B656570 		.ascii	"keep_cnt\000"
 13717      5F636E74 
 13717      00
 13718              	.LASF327:
 13719 02fc 7463705F 		.ascii	"tcp_sent\000"
 13719      73656E74 
 13719      00
ARM GAS  C:\Users\Phuong\AppData\Local\Temp\ccTHzCbL.s 			page 291


 13720              	.LASF332:
 13721 0305 7564705F 		.ascii	"udp_new_ip_type\000"
 13721      6E65775F 
 13721      69705F74 
 13721      79706500 
 13722              	.LASF42:
 13723 0315 4552525F 		.ascii	"ERR_ALREADY\000"
 13723      414C5245 
 13723      41445900 
 13724              	.LASF373:
 13725 0321 536F7572 		.ascii	"Source\\LwIP\\src\\api\\api_msg.c\000"
 13725      63655C4C 
 13725      7749505C 
 13725      7372635C 
 13725      6170695C 
 13726              	.LASF84:
 13727 033f 6C776970 		.ascii	"lwip_ip_addr_type\000"
 13727      5F69705F 
 13727      61646472 
 13727      5F747970 
 13727      6500
 13728              	.LASF336:
 13729 0351 7379735F 		.ascii	"sys_arch_unprotect\000"
 13729      61726368 
 13729      5F756E70 
 13729      726F7465 
 13729      637400
 13730              	.LASF213:
 13731 0364 6A6F696E 		.ascii	"join_or_leave\000"
 13731      5F6F725F 
 13731      6C656176 
 13731      6500
 13732              	.LASF107:
 13733 0372 6E657469 		.ascii	"netif_input_fn\000"
 13733      665F696E 
 13733      7075745F 
 13733      666E00
 13734              	.LASF21:
 13735 0381 75385F74 		.ascii	"u8_t\000"
 13735      00
 13736              	.LASF14:
 13737 0386 75696E74 		.ascii	"uint32_t\000"
 13737      33325F74 
 13737      00
 13738              	.LASF278:
 13739 038f 6F75745F 		.ascii	"out_err\000"
 13739      65727200 
 13740              	.LASF169:
 13741 0397 63776E64 		.ascii	"cwnd\000"
 13741      00
 13742              	.LASF78:
 13743 039c 4D454D50 		.ascii	"MEMP_IGMP_GROUP\000"
 13743      5F49474D 
 13743      505F4752 
 13743      4F555000 
 13744              	.LASF75:
 13745 03ac 4D454D50 		.ascii	"MEMP_TCPIP_MSG_API\000"
ARM GAS  C:\Users\Phuong\AppData\Local\Temp\ccTHzCbL.s 			page 292


 13745      5F544350 
 13745      49505F4D 
 13745      53475F41 
 13745      504900
 13746              	.LASF215:
 13747 03bf 646E735F 		.ascii	"dns_api_msg\000"
 13747      6170695F 
 13747      6D736700 
 13748              	.LASF154:
 13749 03cb 6C6F6361 		.ascii	"local_port\000"
 13749      6C5F706F 
 13749      727400
 13750              	.LASF239:
 13751 03d6 7463705F 		.ascii	"tcp_err_fn\000"
 13751      6572725F 
 13751      666E00
 13752              	.LASF372:
 13753 03e1 474E5520 		.ascii	"GNU C11 5.4.1 20160609 (release) [ARM/embedded-5-br"
 13753      43313120 
 13753      352E342E 
 13753      31203230 
 13753      31363036 
 13754 0414 616E6368 		.ascii	"anch revision 237715] -mcpu=cortex-m0plus -mthumb -"
 13754      20726576 
 13754      6973696F 
 13754      6E203233 
 13754      37373135 
 13755 0447 67202D4F 		.ascii	"g -Og -ffunction-sections -ffat-lto-objects\000"
 13755      67202D66 
 13755      66756E63 
 13755      74696F6E 
 13755      2D736563 
 13756              	.LASF334:
 13757 0473 7463705F 		.ascii	"tcp_new_ip_type\000"
 13757      6E65775F 
 13757      69705F74 
 13757      79706500 
 13758              	.LASF77:
 13759 0483 4D454D50 		.ascii	"MEMP_ARP_QUEUE\000"
 13759      5F415250 
 13759      5F515545 
 13759      554500
 13760              	.LASF36:
 13761 0492 4552525F 		.ascii	"ERR_TIMEOUT\000"
 13761      54494D45 
 13761      4F555400 
 13762              	.LASF308:
 13763 049e 6C776970 		.ascii	"lwip_netconn_do_accepted\000"
 13763      5F6E6574 
 13763      636F6E6E 
 13763      5F646F5F 
 13763      61636365 
 13764              	.LASF259:
 13765 04b7 6C776970 		.ascii	"lwip_netconn_do_dns_found\000"
 13765      5F6E6574 
 13765      636F6E6E 
 13765      5F646F5F 
ARM GAS  C:\Users\Phuong\AppData\Local\Temp\ccTHzCbL.s 			page 293


 13765      646E735F 
 13766              	.LASF322:
 13767 04d1 6E657462 		.ascii	"netbuf_delete\000"
 13767      75665F64 
 13767      656C6574 
 13767      6500
 13768              	.LASF104:
 13769 04df 68776164 		.ascii	"hwaddr\000"
 13769      647200
 13770              	.LASF375:
 13771 04e6 7463705F 		.ascii	"tcp_seg\000"
 13771      73656700 
 13772              	.LASF7:
 13773 04ee 6C6F6E67 		.ascii	"long long unsigned int\000"
 13773      206C6F6E 
 13773      6720756E 
 13773      7369676E 
 13773      65642069 
 13774              	.LASF115:
 13775 0505 4E455443 		.ascii	"NETCONN_INVALID\000"
 13775      4F4E4E5F 
 13775      494E5641 
 13775      4C494400 
 13776              	.LASF313:
 13777 0515 6C776970 		.ascii	"lwip_netconn_do_gethostbyname\000"
 13777      5F6E6574 
 13777      636F6E6E 
 13777      5F646F5F 
 13777      67657468 
 13778              	.LASF328:
 13779 0533 7463705F 		.ascii	"tcp_poll\000"
 13779      706F6C6C 
 13779      00
 13780              	.LASF243:
 13781 053c 7463705F 		.ascii	"tcp_state\000"
 13781      73746174 
 13781      6500
 13782              	.LASF342:
 13783 0546 7463705F 		.ascii	"tcp_shutdown\000"
 13783      73687574 
 13783      646F776E 
 13783      00
 13784              	.LASF103:
 13785 0553 68776164 		.ascii	"hwaddr_len\000"
 13785      64725F6C 
 13785      656E00
 13786              	.LASF305:
 13787 055e 6C776970 		.ascii	"lwip_netconn_do_recv\000"
 13787      5F6E6574 
 13787      636F6E6E 
 13787      5F646F5F 
 13787      72656376 
 13788              	.LASF222:
 13789 0573 5F6F6666 		.ascii	"_offset\000"
 13789      73657400 
 13790              	.LASF163:
 13791 057b 7274696D 		.ascii	"rtime\000"
ARM GAS  C:\Users\Phuong\AppData\Local\Temp\ccTHzCbL.s 			page 294


 13791      6500
 13792              	.LASF39:
 13793 0581 4552525F 		.ascii	"ERR_VAL\000"
 13793      56414C00 
 13794              	.LASF337:
 13795 0589 7379735F 		.ascii	"sys_sem_valid\000"
 13795      73656D5F 
 13795      76616C69 
 13795      6400
 13796              	.LASF369:
 13797 0597 69676D70 		.ascii	"igmp_joingroup\000"
 13797      5F6A6F69 
 13797      6E67726F 
 13797      757000
 13798              	.LASF374:
 13799 05a6 433A5C55 		.ascii	"C:\\Users\\Phuong\\Documents\\PSoC Creator\\Dec0820"
 13799      73657273 
 13799      5C506875 
 13799      6F6E675C 
 13799      446F6375 
 13800 05d4 31385C69 		.ascii	"18\\iot-sdk-iot-dev\\PSOC6_FreeRTOS+LwIP+MbedTLS_Az"
 13800      6F742D73 
 13800      646B2D69 
 13800      6F742D64 
 13800      65765C50 
 13801 0605 7572652D 		.ascii	"ure-IOT-Hub-Demo\\PSOC6_FreeRTOS+LwIP+MbedTLS_Azure"
 13801      494F542D 
 13801      4875622D 
 13801      44656D6F 
 13801      5C50534F 
 13802 0637 2D494F54 		.ascii	"-IOT-Hub-Demo.cydsn\000"
 13802      2D487562 
 13802      2D44656D 
 13802      6F2E6379 
 13802      64736E00 
 13803              	.LASF311:
 13804 064b 6C776970 		.ascii	"lwip_netconn_do_close\000"
 13804      5F6E6574 
 13804      636F6E6E 
 13804      5F646F5F 
 13804      636C6F73 
 13805              	.LASF317:
 13806 0661 7379735F 		.ascii	"sys_sem_signal\000"
 13806      73656D5F 
 13806      7369676E 
 13806      616C00
 13807              	.LASF76:
 13808 0670 4D454D50 		.ascii	"MEMP_TCPIP_MSG_INPKT\000"
 13808      5F544350 
 13808      49505F4D 
 13808      53475F49 
 13808      4E504B54 
 13809              	.LASF57:
 13810 0685 50425546 		.ascii	"PBUF_REF\000"
 13810      5F524546 
 13810      00
 13811              	.LASF324:
ARM GAS  C:\Users\Phuong\AppData\Local\Temp\ccTHzCbL.s 			page 295


 13812 068e 70627566 		.ascii	"pbuf_copy\000"
 13812      5F636F70 
 13812      7900
 13813              	.LASF181:
 13814 0698 756E6163 		.ascii	"unacked\000"
 13814      6B656400 
 13815              	.LASF249:
 13816 06a0 46494E5F 		.ascii	"FIN_WAIT_1\000"
 13816      57414954 
 13816      5F3100
 13817              	.LASF117:
 13818 06ab 4E455443 		.ascii	"NETCONN_UDP\000"
 13818      4F4E4E5F 
 13818      55445000 
 13819              	.LASF319:
 13820 06b7 7379735F 		.ascii	"sys_mbox_valid\000"
 13820      6D626F78 
 13820      5F76616C 
 13820      696400
 13821              	.LASF253:
 13822 06c6 4C415354 		.ascii	"LAST_ACK\000"
 13822      5F41434B 
 13822      00
 13823              	.LASF224:
 13824 06cf 5F70726F 		.ascii	"_proto\000"
 13824      746F00
 13825              	.LASF257:
 13826 06d6 61636365 		.ascii	"accepts_pending\000"
 13826      7074735F 
 13826      70656E64 
 13826      696E6700 
 13827              	.LASF64:
 13828 06e6 746F745F 		.ascii	"tot_len\000"
 13828      6C656E00 
 13829              	.LASF205:
 13830 06ee 69706164 		.ascii	"ipaddr\000"
 13830      647200
 13831              	.LASF10:
 13832 06f5 73697A65 		.ascii	"size_t\000"
 13832      5F7400
 13833              	.LASF63:
 13834 06fc 7061796C 		.ascii	"payload\000"
 13834      6F616400 
 13835              	.LASF51:
 13836 0704 50425546 		.ascii	"PBUF_IP\000"
 13836      5F495000 
 13837              	.LASF96:
 13838 070c 6F757470 		.ascii	"output\000"
 13838      757400
 13839              	.LASF187:
 13840 0713 636F6E6E 		.ascii	"connected\000"
 13840      65637465 
 13840      6400
 13841              	.LASF298:
 13842 071d 6C776970 		.ascii	"lwip_netconn_do_bind\000"
 13842      5F6E6574 
 13842      636F6E6E 
ARM GAS  C:\Users\Phuong\AppData\Local\Temp\ccTHzCbL.s 			page 296


 13842      5F646F5F 
 13842      62696E64 
 13843              	.LASF287:
 13844 0732 72656376 		.ascii	"recv_tcp\000"
 13844      5F746370 
 13844      00
 13845              	.LASF58:
 13846 073b 50425546 		.ascii	"PBUF_POOL\000"
 13846      5F504F4F 
 13846      4C00
 13847              	.LASF252:
 13848 0745 434C4F53 		.ascii	"CLOSING\000"
 13848      494E4700 
 13849              	.LASF368:
 13850 074d 7463705F 		.ascii	"tcp_backlog_accepted\000"
 13850      6261636B 
 13850      6C6F675F 
 13850      61636365 
 13850      70746564 
 13851              	.LASF214:
 13852 0762 6261636B 		.ascii	"backlog\000"
 13852      6C6F6700 
 13853              	.LASF138:
 13854 076a 6C617374 		.ascii	"last_err\000"
 13854      5F657272 
 13854      00
 13855              	.LASF168:
 13856 0773 6C617374 		.ascii	"lastack\000"
 13856      61636B00 
 13857              	.LASF331:
 13858 077b 7261775F 		.ascii	"raw_recv\000"
 13858      72656376 
 13858      00
 13859              	.LASF83:
 13860 0784 4D454D50 		.ascii	"MEMP_MAX\000"
 13860      5F4D4158 
 13860      00
 13861              	.LASF22:
 13862 078d 73385F74 		.ascii	"s8_t\000"
 13862      00
 13863              	.LASF135:
 13864 0792 4E455443 		.ascii	"NETCONN_LEAVE\000"
 13864      4F4E4E5F 
 13864      4C454156 
 13864      4500
 13865              	.LASF260:
 13866 07a0 72656376 		.ascii	"recv_udp\000"
 13866      5F756470 
 13866      00
 13867              	.LASF297:
 13868 07a9 6C776970 		.ascii	"lwip_netconn_do_delconn\000"
 13868      5F6E6574 
 13868      636F6E6E 
 13868      5F646F5F 
 13868      64656C63 
 13869              	.LASF130:
 13870 07c1 4E455443 		.ascii	"NETCONN_EVT_SENDPLUS\000"
ARM GAS  C:\Users\Phuong\AppData\Local\Temp\ccTHzCbL.s 			page 297


 13870      4F4E4E5F 
 13870      4556545F 
 13870      53454E44 
 13870      504C5553 
 13871              	.LASF338:
 13872 07d6 7463705F 		.ascii	"tcp_output\000"
 13872      6F757470 
 13872      757400
 13873              	.LASF120:
 13874 07e1 4E455443 		.ascii	"NETCONN_RAW\000"
 13874      4F4E4E5F 
 13874      52415700 
 13875              	.LASF263:
 13876 07ed 69707479 		.ascii	"iptype\000"
 13876      706500
 13877              	.LASF40:
 13878 07f4 4552525F 		.ascii	"ERR_WOULDBLOCK\000"
 13878      574F554C 
 13878      44424C4F 
 13878      434B00
 13879              	.LASF44:
 13880 0803 4552525F 		.ascii	"ERR_CONN\000"
 13880      434F4E4E 
 13880      00
 13881              	.LASF165:
 13882 080c 72747365 		.ascii	"rtseq\000"
 13882      7100
 13883              	.LASF129:
 13884 0812 4E455443 		.ascii	"NETCONN_EVT_RCVMINUS\000"
 13884      4F4E4E5F 
 13884      4556545F 
 13884      5243564D 
 13884      494E5553 
 13885              	.LASF167:
 13886 0827 64757061 		.ascii	"dupacks\000"
 13886      636B7300 
 13887              	.LASF232:
 13888 082f 63757272 		.ascii	"current_iphdr_src\000"
 13888      656E745F 
 13888      69706864 
 13888      725F7372 
 13888      6300
 13889              	.LASF113:
 13890 0841 706F7274 		.ascii	"port\000"
 13890      00
 13891              	.LASF153:
 13892 0846 7072696F 		.ascii	"prio\000"
 13892      00
 13893              	.LASF256:
 13894 084b 61636365 		.ascii	"accept\000"
 13894      707400
 13895              	.LASF284:
 13896 0852 74706362 		.ascii	"tpcb\000"
 13896      00
 13897              	.LASF188:
 13898 0857 706F6C6C 		.ascii	"poll\000"
 13898      00
ARM GAS  C:\Users\Phuong\AppData\Local\Temp\ccTHzCbL.s 			page 298


 13899              	.LASF100:
 13900 085c 636C6965 		.ascii	"client_data\000"
 13900      6E745F64 
 13900      61746100 
 13901              	.LASF112:
 13902 0868 6E657462 		.ascii	"netbuf\000"
 13902      756600
 13903              	.LASF13:
 13904 086f 63686172 		.ascii	"char\000"
 13904      00
 13905              	.LASF264:
 13906 0874 72656376 		.ascii	"recv_raw\000"
 13906      5F726177 
 13906      00
 13907              	.LASF356:
 13908 087d 7261775F 		.ascii	"raw_bind\000"
 13908      62696E64 
 13908      00
 13909              	.LASF106:
 13910 0886 69676D70 		.ascii	"igmp_mac_filter\000"
 13910      5F6D6163 
 13910      5F66696C 
 13910      74657200 
 13911              	.LASF251:
 13912 0896 434C4F53 		.ascii	"CLOSE_WAIT\000"
 13912      455F5741 
 13912      495400
 13913              	.LASF266:
 13914 08a1 7761735F 		.ascii	"was_blocking\000"
 13914      626C6F63 
 13914      6B696E67 
 13914      00
 13915              	.LASF17:
 13916 08ae 51756575 		.ascii	"QueueHandle_t\000"
 13916      6548616E 
 13916      646C655F 
 13916      7400
 13917              	.LASF204:
 13918 08bc 70726F74 		.ascii	"proto\000"
 13918      6F00
 13919              	.LASF180:
 13920 08c2 756E7365 		.ascii	"unsent\000"
 13920      6E7400
 13921              	.LASF270:
 13922 08c9 6F6C645F 		.ascii	"old_state\000"
 13922      73746174 
 13922      6500
 13923              	.LASF126:
 13924 08d3 4E455443 		.ascii	"NETCONN_CLOSE\000"
 13924      4F4E4E5F 
 13924      434C4F53 
 13924      4500
 13925              	.LASF91:
 13926 08e1 4E455449 		.ascii	"NETIF_ADD_MAC_FILTER\000"
 13926      465F4144 
 13926      445F4D41 
 13926      435F4649 
ARM GAS  C:\Users\Phuong\AppData\Local\Temp\ccTHzCbL.s 			page 299


 13926      4C544552 
 13927              	.LASF9:
 13928 08f6 5F5F7569 		.ascii	"__uint32_t\000"
 13928      6E743332 
 13928      5F7400
 13929              	.LASF185:
 13930 0901 73656E74 		.ascii	"sent\000"
 13930      00
 13931              	.LASF172:
 13932 0906 736E645F 		.ascii	"snd_wl1\000"
 13932      776C3100 
 13933              	.LASF173:
 13934 090e 736E645F 		.ascii	"snd_wl2\000"
 13934      776C3200 
 13935              	.LASF353:
 13936 0916 7463705F 		.ascii	"tcp_backlog_delayed\000"
 13936      6261636B 
 13936      6C6F675F 
 13936      64656C61 
 13936      79656400 
 13937              	.LASF323:
 13938 092a 70627566 		.ascii	"pbuf_alloc\000"
 13938      5F616C6C 
 13938      6F6300
 13939              	.LASF141:
 13940 0935 61636365 		.ascii	"acceptmbox\000"
 13940      70746D62 
 13940      6F7800
 13941              	.LASF309:
 13942 0940 6C776970 		.ascii	"lwip_netconn_do_write\000"
 13942      5F6E6574 
 13942      636F6E6E 
 13942      5F646F5F 
 13942      77726974 
 13943              	.LASF279:
 13944 0956 6C776970 		.ascii	"lwip_netconn_do_close_internal\000"
 13944      5F6E6574 
 13944      636F6E6E 
 13944      5F646F5F 
 13944      636C6F73 
 13945              	.LASF318:
 13946 0975 70627566 		.ascii	"pbuf_free\000"
 13946      5F667265 
 13946      6500
 13947              	.LASF275:
 13948 097f 77726974 		.ascii	"write_finished\000"
 13948      655F6669 
 13948      6E697368 
 13948      656400
 13949              	.LASF174:
 13950 098e 736E645F 		.ascii	"snd_lbb\000"
 13950      6C626200 
 13951              	.LASF295:
 13952 0996 61636365 		.ascii	"accept_function\000"
 13952      70745F66 
 13952      756E6374 
 13952      696F6E00 
ARM GAS  C:\Users\Phuong\AppData\Local\Temp\ccTHzCbL.s 			page 300


 13953              	.LASF202:
 13954 09a6 6170695F 		.ascii	"api_msg\000"
 13954      6D736700 
 13955              	.LASF290:
 13956 09ae 66726565 		.ascii	"free_and_return\000"
 13956      5F616E64 
 13956      5F726574 
 13956      75726E00 
 13957              	.LASF73:
 13958 09be 4D454D50 		.ascii	"MEMP_NETBUF\000"
 13958      5F4E4554 
 13958      42554600 
 13959              	.LASF94:
 13960 09ca 6E65746D 		.ascii	"netmask\000"
 13960      61736B00 
 13961              	.LASF6:
 13962 09d2 6C6F6E67 		.ascii	"long long int\000"
 13962      206C6F6E 
 13962      6720696E 
 13962      7400
 13963              	.LASF255:
 13964 09e0 7463705F 		.ascii	"tcp_pcb_listen\000"
 13964      7063625F 
 13964      6C697374 
 13964      656E00
 13965              	.LASF346:
 13966 09ef 7379735F 		.ascii	"sys_sem_new\000"
 13966      73656D5F 
 13966      6E657700 
 13967              	.LASF30:
 13968 09fb 49504144 		.ascii	"IPADDR_TYPE_ANY\000"
 13968      44525F54 
 13968      5950455F 
 13968      414E5900 
 13969              	.LASF365:
 13970 0a0b 7261775F 		.ascii	"raw_sendto\000"
 13970      73656E64 
 13970      746F00
 13971              	.LASF45:
 13972 0a16 4552525F 		.ascii	"ERR_IF\000"
 13972      494600
 13973              	.LASF98:
 13974 0a1d 73746174 		.ascii	"status_callback\000"
 13974      75735F63 
 13974      616C6C62 
 13974      61636B00 
 13975              	.LASF86:
 13976 0a2d 4C574950 		.ascii	"LWIP_NETIF_CLIENT_DATA_INDEX_DHCP\000"
 13976      5F4E4554 
 13976      49465F43 
 13976      4C49454E 
 13976      545F4441 
 13977              	.LASF194:
 13978 0a4f 70657273 		.ascii	"persist_backoff\000"
 13978      6973745F 
 13978      6261636B 
 13978      6F666600 
ARM GAS  C:\Users\Phuong\AppData\Local\Temp\ccTHzCbL.s 			page 301


 13979              	.LASF269:
 13980 0a5f 6572725F 		.ascii	"err_tcp\000"
 13980      74637000 
 13981              	.LASF69:
 13982 0a67 4D454D50 		.ascii	"MEMP_TCP_PCB\000"
 13982      5F544350 
 13982      5F504342 
 13982      00
 13983              	.LASF351:
 13984 0a74 7379735F 		.ascii	"sys_sem_set_invalid\000"
 13984      73656D5F 
 13984      7365745F 
 13984      696E7661 
 13984      6C696400 
 13985              	.LASF122:
 13986 0a88 4E455443 		.ascii	"NETCONN_NONE\000"
 13986      4F4E4E5F 
 13986      4E4F4E45 
 13986      00
 13987              	.LASF367:
 13988 0a95 7564705F 		.ascii	"udp_sendto\000"
 13988      73656E64 
 13988      746F00
 13989              	.LASF258:
 13990 0aa0 7261775F 		.ascii	"raw_recv_fn\000"
 13990      72656376 
 13990      5F666E00 
 13991              	.LASF371:
 13992 0aac 646E735F 		.ascii	"dns_gethostbyname_addrtype\000"
 13992      67657468 
 13992      6F737462 
 13992      796E616D 
 13992      655F6164 
 13993              	.LASF59:
 13994 0ac7 6970345F 		.ascii	"ip4_addr\000"
 13994      61646472 
 13994      00
 13995              	.LASF219:
 13996 0ad0 5F765F68 		.ascii	"_v_hl\000"
 13996      6C00
 13997              	.LASF41:
 13998 0ad6 4552525F 		.ascii	"ERR_USE\000"
 13998      55534500 
 13999              	.LASF352:
 14000 0ade 7379735F 		.ascii	"sys_arch_mbox_tryfetch\000"
 14000      61726368 
 14000      5F6D626F 
 14000      785F7472 
 14000      79666574 
 14001              	.LASF329:
 14002 0af5 7463705F 		.ascii	"tcp_err\000"
 14002      65727200 
 14003              	.LASF261:
 14004 0afd 73657475 		.ascii	"setup_tcp\000"
 14004      705F7463 
 14004      7000
 14005              	.LASF155:
ARM GAS  C:\Users\Phuong\AppData\Local\Temp\ccTHzCbL.s 			page 302


 14006 0b07 72656D6F 		.ascii	"remote_port\000"
 14006      74655F70 
 14006      6F727400 
 14007              	.LASF304:
 14008 0b13 6C776970 		.ascii	"lwip_netconn_do_send\000"
 14008      5F6E6574 
 14008      636F6E6E 
 14008      5F646F5F 
 14008      73656E64 
 14009              	.LASF267:
 14010 0b28 6F705F63 		.ascii	"op_completed_sem\000"
 14010      6F6D706C 
 14010      65746564 
 14010      5F73656D 
 14010      00
 14011              	.LASF288:
 14012 0b39 73697A65 		.ascii	"size\000"
 14012      00
 14013              	.LASF316:
 14014 0b3e 69705F64 		.ascii	"ip_data\000"
 14014      61746100 
 14015              	.LASF161:
 14016 0b46 7263765F 		.ascii	"rcv_ann_wnd\000"
 14016      616E6E5F 
 14016      776E6400 
 14017              	.LASF72:
 14018 0b52 4D454D50 		.ascii	"MEMP_REASSDATA\000"
 14018      5F524541 
 14018      53534441 
 14018      544100
 14019              	.LASF271:
 14020 0b61 6F6C645F 		.ascii	"old_level\000"
 14020      6C657665 
 14020      6C00
 14021              	.LASF314:
 14022 0b6b 61646472 		.ascii	"addrtype\000"
 14022      74797065 
 14022      00
 14023              	.LASF236:
 14024 0b74 7463705F 		.ascii	"tcp_recv_fn\000"
 14024      72656376 
 14024      5F666E00 
 14025              	.LASF231:
 14026 0b80 63757272 		.ascii	"current_ip_header_tot_len\000"
 14026      656E745F 
 14026      69705F68 
 14026      65616465 
 14026      725F746F 
 14027              	.LASF206:
 14028 0b9a 6C6F6361 		.ascii	"local\000"
 14028      6C00
 14029              	.LASF52:
 14030 0ba0 50425546 		.ascii	"PBUF_LINK\000"
 14030      5F4C494E 
 14030      4B00
 14031              	.LASF343:
 14032 0baa 7463705F 		.ascii	"tcp_abort\000"
ARM GAS  C:\Users\Phuong\AppData\Local\Temp\ccTHzCbL.s 			page 303


 14032      61626F72 
 14032      7400
 14033              	.LASF272:
 14034 0bb4 7761735F 		.ascii	"was_nonblocking_connect\000"
 14034      6E6F6E62 
 14034      6C6F636B 
 14034      696E675F 
 14034      636F6E6E 
 14035              	.LASF90:
 14036 0bcc 4E455449 		.ascii	"NETIF_DEL_MAC_FILTER\000"
 14036      465F4445 
 14036      4C5F4D41 
 14036      435F4649 
 14036      4C544552 
 14037              	.LASF207:
 14038 0be1 64617461 		.ascii	"dataptr\000"
 14038      70747200 
 14039              	.LASF280:
 14040 0be9 73687574 		.ascii	"shut_rx\000"
 14040      5F727800 
 14041              	.LASF238:
 14042 0bf1 7463705F 		.ascii	"tcp_poll_fn\000"
 14042      706F6C6C 
 14042      5F666E00 
 14043              	.LASF140:
 14044 0bfd 72656376 		.ascii	"recvmbox\000"
 14044      6D626F78 
 14044      00
 14045              	.LASF321:
 14046 0c06 7379735F 		.ascii	"sys_mbox_trypost\000"
 14046      6D626F78 
 14046      5F747279 
 14046      706F7374 
 14046      00
 14047              	.LASF197:
 14048 0c17 6D756C74 		.ascii	"multicast_ip\000"
 14048      69636173 
 14048      745F6970 
 14048      00
 14049              	.LASF11:
 14050 0c24 6C6F6E67 		.ascii	"long double\000"
 14050      20646F75 
 14050      626C6500 
 14051              	.LASF242:
 14052 0c30 74637066 		.ascii	"tcpflags_t\000"
 14052      6C616773 
 14052      5F7400
 14053              	.LASF189:
 14054 0c3b 65727266 		.ascii	"errf\000"
 14054      00
 14055              	.LASF175:
 14056 0c40 736E645F 		.ascii	"snd_wnd\000"
 14056      776E6400 
 14057              	.LASF340:
 14058 0c48 7463705F 		.ascii	"tcp_accept\000"
 14058      61636365 
 14058      707400
ARM GAS  C:\Users\Phuong\AppData\Local\Temp\ccTHzCbL.s 			page 304


 14059              	.LASF23:
 14060 0c53 7531365F 		.ascii	"u16_t\000"
 14060      7400
 14061              	.LASF217:
 14062 0c59 6970345F 		.ascii	"ip4_addr_p_t\000"
 14062      61646472 
 14062      5F705F74 
 14062      00
 14063              	.LASF125:
 14064 0c66 4E455443 		.ascii	"NETCONN_CONNECT\000"
 14064      4F4E4E5F 
 14064      434F4E4E 
 14064      45435400 
 14065              	.LASF293:
 14066 0c76 6E657463 		.ascii	"netconn_drain\000"
 14066      6F6E6E5F 
 14066      64726169 
 14066      6E00
 14067              	.LASF1:
 14068 0c84 756E7369 		.ascii	"unsigned char\000"
 14068      676E6564 
 14068      20636861 
 14068      7200
 14069              	.LASF182:
 14070 0c92 6F6F7365 		.ascii	"ooseq\000"
 14070      7100
 14071              	.LASF363:
 14072 0c98 7463705F 		.ascii	"tcp_listen_with_backlog_and_err\000"
 14072      6C697374 
 14072      656E5F77 
 14072      6974685F 
 14072      6261636B 
 14073              	.LASF35:
 14074 0cb8 4552525F 		.ascii	"ERR_BUF\000"
 14074      42554600 
 14075              	.LASF228:
 14076 0cc0 63757272 		.ascii	"current_netif\000"
 14076      656E745F 
 14076      6E657469 
 14076      6600
 14077              	.LASF12:
 14078 0cce 73697A65 		.ascii	"sizetype\000"
 14078      74797065 
 14078      00
 14079              	.LASF244:
 14080 0cd7 434C4F53 		.ascii	"CLOSED\000"
 14080      454400
 14081              	.LASF234:
 14082 0cde 7564705F 		.ascii	"udp_recv_fn\000"
 14082      72656376 
 14082      5F666E00 
 14083              	.LASF25:
 14084 0cea 7533325F 		.ascii	"u32_t\000"
 14084      7400
 14085              	.LASF128:
 14086 0cf0 4E455443 		.ascii	"NETCONN_EVT_RCVPLUS\000"
 14086      4F4E4E5F 
ARM GAS  C:\Users\Phuong\AppData\Local\Temp\ccTHzCbL.s 			page 305


 14086      4556545F 
 14086      52435650 
 14086      4C555300 
 14087              	.LASF2:
 14088 0d04 73686F72 		.ascii	"short int\000"
 14088      7420696E 
 14088      7400
 14089              	.LASF27:
 14090 0d0e 6970345F 		.ascii	"ip4_addr_t\000"
 14090      61646472 
 14090      5F7400
 14091              	.LASF4:
 14092 0d19 6C6F6E67 		.ascii	"long int\000"
 14092      20696E74 
 14092      00
 14093              	.LASF274:
 14094 0d22 61766169 		.ascii	"available\000"
 14094      6C61626C 
 14094      6500
 14095              	.LASF18:
 14096 0d2c 53656D61 		.ascii	"SemaphoreHandle_t\000"
 14096      70686F72 
 14096      6548616E 
 14096      646C655F 
 14096      7400
 14097              	.LASF160:
 14098 0d3e 7263765F 		.ascii	"rcv_wnd\000"
 14098      776E6400 
 14099              	.LASF227:
 14100 0d46 69705F67 		.ascii	"ip_globals\000"
 14100      6C6F6261 
 14100      6C7300
 14101              	.LASF164:
 14102 0d51 72747465 		.ascii	"rttest\000"
 14102      737400
 14103              	.LASF301:
 14104 0d58 6C776970 		.ascii	"lwip_netconn_do_disconnect\000"
 14104      5F6E6574 
 14104      636F6E6E 
 14104      5F646F5F 
 14104      64697363 
 14105              	.LASF276:
 14106 0d73 64696666 		.ascii	"diff\000"
 14106      00
 14107              	.LASF145:
 14108 0d78 63757272 		.ascii	"current_msg\000"
 14108      656E745F 
 14108      6D736700 
 14109              	.LASF79:
 14110 0d84 4D454D50 		.ascii	"MEMP_SYS_TIMEOUT\000"
 14110      5F535953 
 14110      5F54494D 
 14110      454F5554 
 14110      00
 14111              	.LASF235:
 14112 0d95 7463705F 		.ascii	"tcp_accept_fn\000"
 14112      61636365 
ARM GAS  C:\Users\Phuong\AppData\Local\Temp\ccTHzCbL.s 			page 306


 14112      70745F66 
 14112      6E00
 14113              	.LASF158:
 14114 0da3 6C617374 		.ascii	"last_timer\000"
 14114      5F74696D 
 14114      657200
 14115              	.LASF68:
 14116 0dae 4D454D50 		.ascii	"MEMP_UDP_PCB\000"
 14116      5F554450 
 14116      5F504342 
 14116      00
 14117              	.LASF148:
 14118 0dbb 6C6F6361 		.ascii	"local_ip\000"
 14118      6C5F6970 
 14118      00
 14119              	.LASF341:
 14120 0dc4 7463705F 		.ascii	"tcp_close\000"
 14120      636C6F73 
 14120      6500
 14121              	.LASF376:
 14122 0dce 6E657463 		.ascii	"netconn_alloc\000"
 14122      6F6E6E5F 
 14122      616C6C6F 
 14122      6300
 14123              	.LASF179:
 14124 0ddc 756E7365 		.ascii	"unsent_oversize\000"
 14124      6E745F6F 
 14124      76657273 
 14124      697A6500 
 14125              	.LASF246:
 14126 0dec 53594E5F 		.ascii	"SYN_SENT\000"
 14126      53454E54 
 14126      00
 14127              	.LASF362:
 14128 0df5 7564705F 		.ascii	"udp_disconnect\000"
 14128      64697363 
 14128      6F6E6E65 
 14128      637400
 14129              	.LASF38:
 14130 0e04 4552525F 		.ascii	"ERR_INPROGRESS\000"
 14130      494E5052 
 14130      4F475245 
 14130      535300
 14131              	.LASF142:
 14132 0e13 736F636B 		.ascii	"socket\000"
 14132      657400
 14133              	.LASF29:
 14134 0e1a 49504144 		.ascii	"IPADDR_TYPE_V6\000"
 14134      44525F54 
 14134      5950455F 
 14134      563600
 14135              	.LASF299:
 14136 0e29 6C776970 		.ascii	"lwip_netconn_do_connect\000"
 14136      5F6E6574 
 14136      636F6E6E 
 14136      5F646F5F 
 14136      636F6E6E 
ARM GAS  C:\Users\Phuong\AppData\Local\Temp\ccTHzCbL.s 			page 307


 14137              	.LASF196:
 14138 0e41 7564705F 		.ascii	"udp_pcb\000"
 14138      70636200 
 14139              	.LASF248:
 14140 0e49 45535441 		.ascii	"ESTABLISHED\000"
 14140      424C4953 
 14140      48454400 
 14141              	.LASF43:
 14142 0e55 4552525F 		.ascii	"ERR_ISCONN\000"
 14142      4953434F 
 14142      4E4E00
 14143              	.LASF218:
 14144 0e60 69705F68 		.ascii	"ip_hdr\000"
 14144      647200
 14145              	.LASF320:
 14146 0e67 6D656D70 		.ascii	"memp_malloc_fn\000"
 14146      5F6D616C 
 14146      6C6F635F 
 14146      666E00
 14147              	.LASF176:
 14148 0e76 736E645F 		.ascii	"snd_wnd_max\000"
 14148      776E645F 
 14148      6D617800 
 14149              	.LASF105:
 14150 0e82 6E616D65 		.ascii	"name\000"
 14150      00
 14151              	.LASF277:
 14152 0e87 646F6E74 		.ascii	"dontblock\000"
 14152      626C6F63 
 14152      6B00
 14153              	.LASF8:
 14154 0e91 756E7369 		.ascii	"unsigned int\000"
 14154      676E6564 
 14154      20696E74 
 14154      00
 14155              	.LASF109:
 14156 0e9e 6E657469 		.ascii	"netif_linkoutput_fn\000"
 14156      665F6C69 
 14156      6E6B6F75 
 14156      74707574 
 14156      5F666E00 
 14157              	.LASF101:
 14158 0eb2 72735F63 		.ascii	"rs_count\000"
 14158      6F756E74 
 14158      00
 14159              	.LASF170:
 14160 0ebb 73737468 		.ascii	"ssthresh\000"
 14160      72657368 
 14160      00
 14161              	.LASF177:
 14162 0ec4 736E645F 		.ascii	"snd_buf\000"
 14162      62756600 
 14163              	.LASF335:
 14164 0ecc 7379735F 		.ascii	"sys_arch_protect\000"
 14164      61726368 
 14164      5F70726F 
 14164      74656374 
ARM GAS  C:\Users\Phuong\AppData\Local\Temp\ccTHzCbL.s 			page 308


 14164      00
 14165              	.LASF350:
 14166 0edd 7379735F 		.ascii	"sys_sem_free\000"
 14166      73656D5F 
 14166      66726565 
 14166      00
 14167              	.LASF67:
 14168 0eea 4D454D50 		.ascii	"MEMP_RAW_PCB\000"
 14168      5F524157 
 14168      5F504342 
 14168      00
 14169              	.LASF199:
 14170 0ef7 72656376 		.ascii	"recv_arg\000"
 14170      5F617267 
 14170      00
 14171              	.LASF220:
 14172 0f00 5F746F73 		.ascii	"_tos\000"
 14172      00
 14173              	.LASF20:
 14174 0f05 7379735F 		.ascii	"sys_mbox_t\000"
 14174      6D626F78 
 14174      5F7400
 14175              	.LASF5:
 14176 0f10 6C6F6E67 		.ascii	"long unsigned int\000"
 14176      20756E73 
 14176      69676E65 
 14176      6420696E 
 14176      7400
 14177              	.LASF89:
 14178 0f22 6E657469 		.ascii	"netif_mac_filter_action\000"
 14178      665F6D61 
 14178      635F6669 
 14178      6C746572 
 14178      5F616374 
 14179              	.LASF15:
 14180 0f3a 666C6F61 		.ascii	"float\000"
 14180      7400
 14181              	.LASF210:
 14182 0f40 706F6C6C 		.ascii	"polls_left\000"
 14182      735F6C65 
 14182      667400
 14183              	.LASF302:
 14184 0f4b 6C776970 		.ascii	"lwip_netconn_do_listen\000"
 14184      5F6E6574 
 14184      636F6E6E 
 14184      5F646F5F 
 14184      6C697374 
 14185              	.LASF24:
 14186 0f62 7331365F 		.ascii	"s16_t\000"
 14186      7400
 14187              	.LASF208:
 14188 0f68 61706966 		.ascii	"apiflags\000"
 14188      6C616773 
 14188      00
 14189              	.LASF183:
 14190 0f71 72656675 		.ascii	"refused_data\000"
 14190      7365645F 
ARM GAS  C:\Users\Phuong\AppData\Local\Temp\ccTHzCbL.s 			page 309


 14190      64617461 
 14190      00
 14191              	.LASF241:
 14192 0f7e 74637077 		.ascii	"tcpwnd_size_t\000"
 14192      6E645F73 
 14192      697A655F 
 14192      7400
 14193              	.LASF296:
 14194 0f8c 6E657770 		.ascii	"newpcb\000"
 14194      636200
 14195              	.LASF127:
 14196 0f93 6E657463 		.ascii	"netconn_evt\000"
 14196      6F6E6E5F 
 14196      65767400 
 14197              	.LASF333:
 14198 0f9f 7564705F 		.ascii	"udp_recv\000"
 14198      72656376 
 14198      00
 14199              	.LASF136:
 14200 0fa8 6E657463 		.ascii	"netconn_callback\000"
 14200      6F6E6E5F 
 14200      63616C6C 
 14200      6261636B 
 14200      00
 14201              	.LASF330:
 14202 0fb9 7261775F 		.ascii	"raw_new_ip_type\000"
 14202      6E65775F 
 14202      69705F74 
 14202      79706500 
 14203              	.LASF159:
 14204 0fc9 7263765F 		.ascii	"rcv_nxt\000"
 14204      6E787400 
 14205              	.LASF71:
 14206 0fd1 4D454D50 		.ascii	"MEMP_TCP_SEG\000"
 14206      5F544350 
 14206      5F534547 
 14206      00
 14207              	.LASF65:
 14208 0fde 74797065 		.ascii	"type\000"
 14208      00
 14209              	.LASF60:
 14210 0fe3 70627566 		.ascii	"pbuf\000"
 14210      00
 14211              	.LASF85:
 14212 0fe8 6C776970 		.ascii	"lwip_internal_netif_client_data_index\000"
 14212      5F696E74 
 14212      65726E61 
 14212      6C5F6E65 
 14212      7469665F 
 14213              	.LASF250:
 14214 100e 46494E5F 		.ascii	"FIN_WAIT_2\000"
 14214      57414954 
 14214      5F3200
 14215              	.LASF28:
 14216 1019 49504144 		.ascii	"IPADDR_TYPE_V4\000"
 14216      44525F54 
 14216      5950455F 
ARM GAS  C:\Users\Phuong\AppData\Local\Temp\ccTHzCbL.s 			page 310


 14216      563400
 14217              	.LASF268:
 14218 1028 6E657463 		.ascii	"netconn_set_safe_err_lev\000"
 14218      6F6E6E5F 
 14218      7365745F 
 14218      73616665 
 14218      5F657272 
 14219              	.LASF131:
 14220 1041 4E455443 		.ascii	"NETCONN_EVT_SENDMINUS\000"
 14220      4F4E4E5F 
 14220      4556545F 
 14220      53454E44 
 14220      4D494E55 
 14221              	.LASF110:
 14222 1057 6E657469 		.ascii	"netif_status_callback_fn\000"
 14222      665F7374 
 14222      61747573 
 14222      5F63616C 
 14222      6C626163 
 14223              	.LASF147:
 14224 1070 69705F70 		.ascii	"ip_pcb\000"
 14224      636200
 14225              	.LASF116:
 14226 1077 4E455443 		.ascii	"NETCONN_TCP\000"
 14226      4F4E4E5F 
 14226      54435000 
 14227              	.LASF209:
 14228 1083 73687574 		.ascii	"shut\000"
 14228      00
 14229              	.LASF190:
 14230 1088 6B656570 		.ascii	"keep_idle\000"
 14230      5F69646C 
 14230      6500
 14231              	.LASF124:
 14232 1092 4E455443 		.ascii	"NETCONN_LISTEN\000"
 14232      4F4E4E5F 
 14232      4C495354 
 14232      454E00
 14233              	.LASF152:
 14234 10a1 63616C6C 		.ascii	"callback_arg\000"
 14234      6261636B 
 14234      5F617267 
 14234      00
 14235              	.LASF245:
 14236 10ae 4C495354 		.ascii	"LISTEN\000"
 14236      454E00
 14237              	.LASF289:
 14238 10b5 6572725F 		.ascii	"err_mem\000"
 14238      6D656D00 
 14239              	.LASF144:
 14240 10bd 77726974 		.ascii	"write_offset\000"
 14240      655F6F66 
 14240      66736574 
 14240      00
 14241              	.LASF97:
 14242 10ca 6C696E6B 		.ascii	"linkoutput\000"
 14242      6F757470 
ARM GAS  C:\Users\Phuong\AppData\Local\Temp\ccTHzCbL.s 			page 311


 14242      757400
 14243              	.LASF61:
 14244 10d5 61646472 		.ascii	"addr\000"
 14244      00
 14245              	.LASF359:
 14246 10da 7261775F 		.ascii	"raw_connect\000"
 14246      636F6E6E 
 14246      65637400 
 14247              	.LASF99:
 14248 10e6 73746174 		.ascii	"state\000"
 14248      6500
 14249              	.LASF357:
 14250 10ec 7564705F 		.ascii	"udp_bind\000"
 14250      62696E64 
 14250      00
 14251              	.LASF354:
 14252 10f5 7261775F 		.ascii	"raw_remove\000"
 14252      72656D6F 
 14252      766500
 14253              	.LASF146:
 14254 1100 63616C6C 		.ascii	"callback\000"
 14254      6261636B 
 14254      00
 14255              	.LASF26:
 14256 1109 7379735F 		.ascii	"sys_prot_t\000"
 14256      70726F74 
 14256      5F7400
 14257              	.LASF88:
 14258 1114 4C574950 		.ascii	"LWIP_NETIF_CLIENT_DATA_INDEX_MAX\000"
 14258      5F4E4554 
 14258      49465F43 
 14258      4C49454E 
 14258      545F4441 
 14259              	.LASF92:
 14260 1135 6E657469 		.ascii	"netif\000"
 14260      6600
 14261              	.LASF47:
 14262 113b 4552525F 		.ascii	"ERR_RST\000"
 14262      52535400 
 14263              	.LASF345:
 14264 1143 7379735F 		.ascii	"sys_mbox_new\000"
 14264      6D626F78 
 14264      5F6E6577 
 14264      00
 14265              	.LASF303:
 14266 1150 6C706362 		.ascii	"lpcb\000"
 14266      00
 14267              	.LASF211:
 14268 1155 6D756C74 		.ascii	"multiaddr\000"
 14268      69616464 
 14268      7200
 14269              	.LASF339:
 14270 115f 7463705F 		.ascii	"tcp_write\000"
 14270      77726974 
 14270      6500
 14271              	.LASF81:
 14272 1169 4D454D50 		.ascii	"MEMP_PBUF\000"
ARM GAS  C:\Users\Phuong\AppData\Local\Temp\ccTHzCbL.s 			page 312


 14272      5F504255 
 14272      4600
 14273              	.LASF143:
 14274 1173 72656376 		.ascii	"recv_timeout\000"
 14274      5F74696D 
 14274      656F7574 
 14274      00
 14275              	.LASF355:
 14276 1180 7564705F 		.ascii	"udp_remove\000"
 14276      72656D6F 
 14276      766500
 14277              	.LASF111:
 14278 118b 6E657469 		.ascii	"netif_igmp_mac_filter_fn\000"
 14278      665F6967 
 14278      6D705F6D 
 14278      61635F66 
 14278      696C7465 
 14279              	.LASF33:
 14280 11a4 4552525F 		.ascii	"ERR_OK\000"
 14280      4F4B00
 14281              	.LASF349:
 14282 11ab 6D656D70 		.ascii	"memp_free\000"
 14282      5F667265 
 14282      6500
 14283              	.LASF134:
 14284 11b5 4E455443 		.ascii	"NETCONN_JOIN\000"
 14284      4F4E4E5F 
 14284      4A4F494E 
 14284      00
 14285              	.LASF186:
 14286 11c2 72656376 		.ascii	"recv\000"
 14286      00
 14287              	.LASF294:
 14288 11c7 6E657763 		.ascii	"newconn\000"
 14288      6F6E6E00 
 14289              	.LASF0:
 14290 11cf 7369676E 		.ascii	"signed char\000"
 14290      65642063 
 14290      68617200 
 14291              	.LASF171:
 14292 11db 736E645F 		.ascii	"snd_nxt\000"
 14292      6E787400 
 14293              	.LASF344:
 14294 11e3 7463705F 		.ascii	"tcp_recved\000"
 14294      72656376 
 14294      656400
 14295              	.LASF151:
 14296 11ee 7463705F 		.ascii	"tcp_pcb\000"
 14296      70636200 
 14297              	.LASF3:
 14298 11f6 73686F72 		.ascii	"short unsigned int\000"
 14298      7420756E 
 14298      7369676E 
 14298      65642069 
 14298      6E7400
 14299              	.LASF306:
 14300 1209 72656D61 		.ascii	"remaining\000"
ARM GAS  C:\Users\Phuong\AppData\Local\Temp\ccTHzCbL.s 			page 313


 14300      696E696E 
 14300      6700
 14301              	.LASF212:
 14302 1213 6E657469 		.ascii	"netif_addr\000"
 14302      665F6164 
 14302      647200
 14303              	.LASF307:
 14304 121e 72656376 		.ascii	"recved\000"
 14304      656400
 14305              	.LASF118:
 14306 1225 4E455443 		.ascii	"NETCONN_UDPLITE\000"
 14306      4F4E4E5F 
 14306      5544504C 
 14306      49544500 
 14307              	.LASF193:
 14308 1235 70657273 		.ascii	"persist_cnt\000"
 14308      6973745F 
 14308      636E7400 
 14309              	.LASF233:
 14310 1241 63757272 		.ascii	"current_iphdr_dest\000"
 14310      656E745F 
 14310      69706864 
 14310      725F6465 
 14310      737400
 14311              	.LASF149:
 14312 1254 72656D6F 		.ascii	"remote_ip\000"
 14312      74655F69 
 14312      7000
 14313              	.LASF315:
 14314 125e 6E657463 		.ascii	"netconn_aborted\000"
 14314      6F6E6E5F 
 14314      61626F72 
 14314      74656400 
 14315              	.LASF37:
 14316 126e 4552525F 		.ascii	"ERR_RTE\000"
 14316      52544500 
 14317              	.LASF139:
 14318 1276 6F705F63 		.ascii	"op_completed\000"
 14318      6F6D706C 
 14318      65746564 
 14318      00
 14319              	.LASF16:
 14320 1283 646F7562 		.ascii	"double\000"
 14320      6C6500
 14321              	.LASF191:
 14322 128a 6B656570 		.ascii	"keep_intvl\000"
 14322      5F696E74 
 14322      766C00
 14323              	.LASF221:
 14324 1295 5F6C656E 		.ascii	"_len\000"
 14324      00
 14325              	.LASF31:
 14326 129a 69705F61 		.ascii	"ip_addr_t\000"
 14326      6464725F 
 14326      7400
 14327              	.LASF137:
 14328 12a4 6E657463 		.ascii	"netconn\000"
ARM GAS  C:\Users\Phuong\AppData\Local\Temp\ccTHzCbL.s 			page 314


 14328      6F6E6E00 
 14329              	.LASF80:
 14330 12ac 4D454D50 		.ascii	"MEMP_NETDB\000"
 14330      5F4E4554 
 14330      444200
 14331              	.LASF123:
 14332 12b7 4E455443 		.ascii	"NETCONN_WRITE\000"
 14332      4F4E4E5F 
 14332      57524954 
 14332      4500
 14333              	.LASF325:
 14334 12c5 7463705F 		.ascii	"tcp_arg\000"
 14334      61726700 
 14335              	.LASF53:
 14336 12cd 50425546 		.ascii	"PBUF_RAW_TX\000"
 14336      5F524157 
 14336      5F545800 
 14337              	.LASF56:
 14338 12d9 50425546 		.ascii	"PBUF_ROM\000"
 14338      5F524F4D 
 14338      00
 14339              	.LASF225:
 14340 12e2 5F63686B 		.ascii	"_chksum\000"
 14340      73756D00 
 14341              	.LASF74:
 14342 12ea 4D454D50 		.ascii	"MEMP_NETCONN\000"
 14342      5F4E4554 
 14342      434F4E4E 
 14342      00
 14343              	.LASF133:
 14344 12f7 6E657463 		.ascii	"netconn_igmp\000"
 14344      6F6E6E5F 
 14344      69676D70 
 14344      00
 14345              	.LASF166:
 14346 1304 6E727478 		.ascii	"nrtx\000"
 14346      00
 14347              	.LASF178:
 14348 1309 736E645F 		.ascii	"snd_queuelen\000"
 14348      71756575 
 14348      656C656E 
 14348      00
 14349              	.LASF34:
 14350 1316 4552525F 		.ascii	"ERR_MEM\000"
 14350      4D454D00 
 14351              	.LASF226:
 14352 131e 64657374 		.ascii	"dest\000"
 14352      00
 14353              	.LASF247:
 14354 1323 53594E5F 		.ascii	"SYN_RCVD\000"
 14354      52435644 
 14354      00
 14355              	.LASF265:
 14356 132c 6C776970 		.ascii	"lwip_netconn_do_connected\000"
 14356      5F6E6574 
 14356      636F6E6E 
 14356      5F646F5F 
ARM GAS  C:\Users\Phuong\AppData\Local\Temp\ccTHzCbL.s 			page 315


 14356      636F6E6E 
 14357              	.LASF93:
 14358 1346 69705F61 		.ascii	"ip_addr\000"
 14358      64647200 
 14359              		.ident	"GCC: (GNU Tools for ARM Embedded Processors) 5.4.1 20160609 (release) [ARM/embedded-5-bran
