ARM GAS  C:\Users\Phuong\AppData\Local\Temp\ccVcCKxe.s 			page 1


   1              		.syntax unified
   2              		.cpu cortex-m0plus
   3              		.fpu softvfp
   4              		.eabi_attribute 20, 1
   5              		.eabi_attribute 21, 1
   6              		.eabi_attribute 23, 3
   7              		.eabi_attribute 24, 1
   8              		.eabi_attribute 25, 1
   9              		.eabi_attribute 26, 1
  10              		.eabi_attribute 30, 1
  11              		.eabi_attribute 34, 0
  12              		.eabi_attribute 18, 4
  13              		.thumb
  14              		.syntax unified
  15              		.file	"api_lib.c"
  16              		.text
  17              	.Ltext0:
  18              		.cfi_sections	.debug_frame
  19              		.section	.text.netconn_apimsg,"ax",%progbits
  20              		.align	2
  21              		.code	16
  22              		.thumb_func
  23              		.type	netconn_apimsg, %function
  24              	netconn_apimsg:
  25              	.LFB53:
  26              		.file 1 "Source\\LwIP\\src\\api\\api_lib.c"
   1:Source\LwIP\src\api/api_lib.c **** /**
   2:Source\LwIP\src\api/api_lib.c ****  * @file
   3:Source\LwIP\src\api/api_lib.c ****  * Sequential API External module
   4:Source\LwIP\src\api/api_lib.c ****  * 
   5:Source\LwIP\src\api/api_lib.c ****  * @defgroup netconn Netconn API
   6:Source\LwIP\src\api/api_lib.c ****  * @ingroup sequential_api
   7:Source\LwIP\src\api/api_lib.c ****  * Thread-safe, to be called from non-TCPIP threads only.
   8:Source\LwIP\src\api/api_lib.c ****  * TX/RX handling based on @ref netbuf (containing @ref pbuf)
   9:Source\LwIP\src\api/api_lib.c ****  * to avoid copying data around.
  10:Source\LwIP\src\api/api_lib.c ****  * 
  11:Source\LwIP\src\api/api_lib.c ****  * @defgroup netconn_common Common functions
  12:Source\LwIP\src\api/api_lib.c ****  * @ingroup netconn
  13:Source\LwIP\src\api/api_lib.c ****  * For use with TCP and UDP
  14:Source\LwIP\src\api/api_lib.c ****  * 
  15:Source\LwIP\src\api/api_lib.c ****  * @defgroup netconn_tcp TCP only
  16:Source\LwIP\src\api/api_lib.c ****  * @ingroup netconn
  17:Source\LwIP\src\api/api_lib.c ****  * TCP only functions
  18:Source\LwIP\src\api/api_lib.c ****  * 
  19:Source\LwIP\src\api/api_lib.c ****  * @defgroup netconn_udp UDP only
  20:Source\LwIP\src\api/api_lib.c ****  * @ingroup netconn
  21:Source\LwIP\src\api/api_lib.c ****  * UDP only functions
  22:Source\LwIP\src\api/api_lib.c ****  */
  23:Source\LwIP\src\api/api_lib.c **** 
  24:Source\LwIP\src\api/api_lib.c **** /*
  25:Source\LwIP\src\api/api_lib.c ****  * Copyright (c) 2001-2004 Swedish Institute of Computer Science.
  26:Source\LwIP\src\api/api_lib.c ****  * All rights reserved.
  27:Source\LwIP\src\api/api_lib.c ****  *
  28:Source\LwIP\src\api/api_lib.c ****  * Redistribution and use in source and binary forms, with or without modification,
  29:Source\LwIP\src\api/api_lib.c ****  * are permitted provided that the following conditions are met:
  30:Source\LwIP\src\api/api_lib.c ****  *
  31:Source\LwIP\src\api/api_lib.c ****  * 1. Redistributions of source code must retain the above copyright notice,
ARM GAS  C:\Users\Phuong\AppData\Local\Temp\ccVcCKxe.s 			page 2


  32:Source\LwIP\src\api/api_lib.c ****  *    this list of conditions and the following disclaimer.
  33:Source\LwIP\src\api/api_lib.c ****  * 2. Redistributions in binary form must reproduce the above copyright notice,
  34:Source\LwIP\src\api/api_lib.c ****  *    this list of conditions and the following disclaimer in the documentation
  35:Source\LwIP\src\api/api_lib.c ****  *    and/or other materials provided with the distribution.
  36:Source\LwIP\src\api/api_lib.c ****  * 3. The name of the author may not be used to endorse or promote products
  37:Source\LwIP\src\api/api_lib.c ****  *    derived from this software without specific prior written permission.
  38:Source\LwIP\src\api/api_lib.c ****  *
  39:Source\LwIP\src\api/api_lib.c ****  * THIS SOFTWARE IS PROVIDED BY THE AUTHOR ``AS IS'' AND ANY EXPRESS OR IMPLIED
  40:Source\LwIP\src\api/api_lib.c ****  * WARRANTIES, INCLUDING, BUT NOT LIMITED TO, THE IMPLIED WARRANTIES OF
  41:Source\LwIP\src\api/api_lib.c ****  * MERCHANTABILITY AND FITNESS FOR A PARTICULAR PURPOSE ARE DISCLAIMED. IN NO EVENT
  42:Source\LwIP\src\api/api_lib.c ****  * SHALL THE AUTHOR BE LIABLE FOR ANY DIRECT, INDIRECT, INCIDENTAL, SPECIAL,
  43:Source\LwIP\src\api/api_lib.c ****  * EXEMPLARY, OR CONSEQUENTIAL DAMAGES (INCLUDING, BUT NOT LIMITED TO, PROCUREMENT
  44:Source\LwIP\src\api/api_lib.c ****  * OF SUBSTITUTE GOODS OR SERVICES; LOSS OF USE, DATA, OR PROFITS; OR BUSINESS
  45:Source\LwIP\src\api/api_lib.c ****  * INTERRUPTION) HOWEVER CAUSED AND ON ANY THEORY OF LIABILITY, WHETHER IN
  46:Source\LwIP\src\api/api_lib.c ****  * CONTRACT, STRICT LIABILITY, OR TORT (INCLUDING NEGLIGENCE OR OTHERWISE) ARISING
  47:Source\LwIP\src\api/api_lib.c ****  * IN ANY WAY OUT OF THE USE OF THIS SOFTWARE, EVEN IF ADVISED OF THE POSSIBILITY
  48:Source\LwIP\src\api/api_lib.c ****  * OF SUCH DAMAGE.
  49:Source\LwIP\src\api/api_lib.c ****  *
  50:Source\LwIP\src\api/api_lib.c ****  * This file is part of the lwIP TCP/IP stack.
  51:Source\LwIP\src\api/api_lib.c ****  *
  52:Source\LwIP\src\api/api_lib.c ****  * Author: Adam Dunkels <adam@sics.se>
  53:Source\LwIP\src\api/api_lib.c ****  */
  54:Source\LwIP\src\api/api_lib.c **** 
  55:Source\LwIP\src\api/api_lib.c **** /* This is the part of the API that is linked with
  56:Source\LwIP\src\api/api_lib.c ****    the application */
  57:Source\LwIP\src\api/api_lib.c **** 
  58:Source\LwIP\src\api/api_lib.c **** #include "lwip/opt.h"
  59:Source\LwIP\src\api/api_lib.c **** 
  60:Source\LwIP\src\api/api_lib.c **** #if LWIP_NETCONN /* don't build if not configured for use in lwipopts.h */
  61:Source\LwIP\src\api/api_lib.c **** 
  62:Source\LwIP\src\api/api_lib.c **** #include "lwip/api.h"
  63:Source\LwIP\src\api/api_lib.c **** #include "lwip/memp.h"
  64:Source\LwIP\src\api/api_lib.c **** 
  65:Source\LwIP\src\api/api_lib.c **** #include "lwip/ip.h"
  66:Source\LwIP\src\api/api_lib.c **** #include "lwip/raw.h"
  67:Source\LwIP\src\api/api_lib.c **** #include "lwip/udp.h"
  68:Source\LwIP\src\api/api_lib.c **** #include "lwip/priv/api_msg.h"
  69:Source\LwIP\src\api/api_lib.c **** #include "lwip/priv/tcp_priv.h"
  70:Source\LwIP\src\api/api_lib.c **** #include "lwip/priv/tcpip_priv.h"
  71:Source\LwIP\src\api/api_lib.c **** 
  72:Source\LwIP\src\api/api_lib.c **** #include <string.h>
  73:Source\LwIP\src\api/api_lib.c **** 
  74:Source\LwIP\src\api/api_lib.c **** #define API_MSG_VAR_REF(name)               API_VAR_REF(name)
  75:Source\LwIP\src\api/api_lib.c **** #define API_MSG_VAR_DECLARE(name)           API_VAR_DECLARE(struct api_msg, name)
  76:Source\LwIP\src\api/api_lib.c **** #define API_MSG_VAR_ALLOC(name)             API_VAR_ALLOC(struct api_msg, MEMP_API_MSG, name, ERR_M
  77:Source\LwIP\src\api/api_lib.c **** #define API_MSG_VAR_ALLOC_RETURN_NULL(name) API_VAR_ALLOC(struct api_msg, MEMP_API_MSG, name, NULL)
  78:Source\LwIP\src\api/api_lib.c **** #define API_MSG_VAR_FREE(name)              API_VAR_FREE(MEMP_API_MSG, name)
  79:Source\LwIP\src\api/api_lib.c **** 
  80:Source\LwIP\src\api/api_lib.c **** static err_t netconn_close_shutdown(struct netconn *conn, u8_t how);
  81:Source\LwIP\src\api/api_lib.c **** 
  82:Source\LwIP\src\api/api_lib.c **** /**
  83:Source\LwIP\src\api/api_lib.c ****  * Call the lower part of a netconn_* function
  84:Source\LwIP\src\api/api_lib.c ****  * This function is then running in the thread context
  85:Source\LwIP\src\api/api_lib.c ****  * of tcpip_thread and has exclusive access to lwIP core code.
  86:Source\LwIP\src\api/api_lib.c ****  *
  87:Source\LwIP\src\api/api_lib.c ****  * @param fn function to call
  88:Source\LwIP\src\api/api_lib.c ****  * @param apimsg a struct containing the function to call and its parameters
ARM GAS  C:\Users\Phuong\AppData\Local\Temp\ccVcCKxe.s 			page 3


  89:Source\LwIP\src\api/api_lib.c ****  * @return ERR_OK if the function was called, another err_t if not
  90:Source\LwIP\src\api/api_lib.c ****  */
  91:Source\LwIP\src\api/api_lib.c **** static err_t
  92:Source\LwIP\src\api/api_lib.c **** netconn_apimsg(tcpip_callback_fn fn, struct api_msg *apimsg)
  93:Source\LwIP\src\api/api_lib.c **** {
  27              		.loc 1 93 0
  28              		.cfi_startproc
  29              		@ args = 0, pretend = 0, frame = 0
  30              		@ frame_needed = 0, uses_anonymous_args = 0
  31              	.LVL0:
  32 0000 10B5     		push	{r4, lr}
  33              		.cfi_def_cfa_offset 8
  34              		.cfi_offset 4, -8
  35              		.cfi_offset 14, -4
  36 0002 0C00     		movs	r4, r1
  94:Source\LwIP\src\api/api_lib.c ****   err_t err;
  95:Source\LwIP\src\api/api_lib.c **** 
  96:Source\LwIP\src\api/api_lib.c **** #ifdef LWIP_DEBUG
  97:Source\LwIP\src\api/api_lib.c ****   /* catch functions that don't set err */
  98:Source\LwIP\src\api/api_lib.c ****   apimsg->err = ERR_VAL;
  37              		.loc 1 98 0
  38 0004 FA23     		movs	r3, #250
  39 0006 0B71     		strb	r3, [r1, #4]
  99:Source\LwIP\src\api/api_lib.c **** #endif /* LWIP_DEBUG */
 100:Source\LwIP\src\api/api_lib.c **** 
 101:Source\LwIP\src\api/api_lib.c **** #if LWIP_NETCONN_SEM_PER_THREAD
 102:Source\LwIP\src\api/api_lib.c ****   apimsg->op_completed_sem = LWIP_NETCONN_THREAD_SEM_GET();
 103:Source\LwIP\src\api/api_lib.c **** #endif /* LWIP_NETCONN_SEM_PER_THREAD */
 104:Source\LwIP\src\api/api_lib.c **** 
 105:Source\LwIP\src\api/api_lib.c ****   err = tcpip_send_msg_wait_sem(fn, apimsg, LWIP_API_MSG_SEM(apimsg));
  40              		.loc 1 105 0
  41 0008 0A68     		ldr	r2, [r1]
  42 000a 0C32     		adds	r2, r2, #12
  43 000c FFF7FEFF 		bl	tcpip_send_msg_wait_sem
  44              	.LVL1:
 106:Source\LwIP\src\api/api_lib.c ****   if (err == ERR_OK) {
  45              		.loc 1 106 0
  46 0010 0028     		cmp	r0, #0
  47 0012 01D1     		bne	.L2
 107:Source\LwIP\src\api/api_lib.c ****     return apimsg->err;
  48              		.loc 1 107 0
  49 0014 0420     		movs	r0, #4
  50              	.LVL2:
  51 0016 2056     		ldrsb	r0, [r4, r0]
  52              	.L2:
 108:Source\LwIP\src\api/api_lib.c ****   }
 109:Source\LwIP\src\api/api_lib.c ****   return err;
 110:Source\LwIP\src\api/api_lib.c **** }
  53              		.loc 1 110 0
  54              		@ sp needed
  55              	.LVL3:
  56 0018 10BD     		pop	{r4, pc}
  57              		.cfi_endproc
  58              	.LFE53:
  59              		.size	netconn_apimsg, .-netconn_apimsg
  60 001a C046     		.section	.text.netconn_close_shutdown,"ax",%progbits
  61              		.align	2
ARM GAS  C:\Users\Phuong\AppData\Local\Temp\ccVcCKxe.s 			page 4


  62              		.code	16
  63              		.thumb_func
  64              		.type	netconn_close_shutdown, %function
  65              	netconn_close_shutdown:
  66              	.LFB68:
 111:Source\LwIP\src\api/api_lib.c **** 
 112:Source\LwIP\src\api/api_lib.c **** /**
 113:Source\LwIP\src\api/api_lib.c ****  * Create a new netconn (of a specific type) that has a callback function.
 114:Source\LwIP\src\api/api_lib.c ****  * The corresponding pcb is also created.
 115:Source\LwIP\src\api/api_lib.c ****  *
 116:Source\LwIP\src\api/api_lib.c ****  * @param t the type of 'connection' to create (@see enum netconn_type)
 117:Source\LwIP\src\api/api_lib.c ****  * @param proto the IP protocol for RAW IP pcbs
 118:Source\LwIP\src\api/api_lib.c ****  * @param callback a function to call on status changes (RX available, TX'ed)
 119:Source\LwIP\src\api/api_lib.c ****  * @return a newly allocated struct netconn or
 120:Source\LwIP\src\api/api_lib.c ****  *         NULL on memory error
 121:Source\LwIP\src\api/api_lib.c ****  */
 122:Source\LwIP\src\api/api_lib.c **** struct netconn*
 123:Source\LwIP\src\api/api_lib.c **** netconn_new_with_proto_and_callback(enum netconn_type t, u8_t proto, netconn_callback callback)
 124:Source\LwIP\src\api/api_lib.c **** {
 125:Source\LwIP\src\api/api_lib.c ****   struct netconn *conn;
 126:Source\LwIP\src\api/api_lib.c ****   API_MSG_VAR_DECLARE(msg);
 127:Source\LwIP\src\api/api_lib.c ****   API_MSG_VAR_ALLOC_RETURN_NULL(msg);
 128:Source\LwIP\src\api/api_lib.c **** 
 129:Source\LwIP\src\api/api_lib.c ****   conn = netconn_alloc(t, callback);
 130:Source\LwIP\src\api/api_lib.c ****   if (conn != NULL) {
 131:Source\LwIP\src\api/api_lib.c ****     err_t err;
 132:Source\LwIP\src\api/api_lib.c **** 
 133:Source\LwIP\src\api/api_lib.c ****     API_MSG_VAR_REF(msg).msg.n.proto = proto;
 134:Source\LwIP\src\api/api_lib.c ****     API_MSG_VAR_REF(msg).conn = conn;
 135:Source\LwIP\src\api/api_lib.c ****     err = netconn_apimsg(lwip_netconn_do_newconn, &API_MSG_VAR_REF(msg));
 136:Source\LwIP\src\api/api_lib.c ****     if (err != ERR_OK) {
 137:Source\LwIP\src\api/api_lib.c ****       LWIP_ASSERT("freeing conn without freeing pcb", conn->pcb.tcp == NULL);
 138:Source\LwIP\src\api/api_lib.c ****       LWIP_ASSERT("conn has no recvmbox", sys_mbox_valid(&conn->recvmbox));
 139:Source\LwIP\src\api/api_lib.c **** #if LWIP_TCP
 140:Source\LwIP\src\api/api_lib.c ****       LWIP_ASSERT("conn->acceptmbox shouldn't exist", !sys_mbox_valid(&conn->acceptmbox));
 141:Source\LwIP\src\api/api_lib.c **** #endif /* LWIP_TCP */
 142:Source\LwIP\src\api/api_lib.c **** #if !LWIP_NETCONN_SEM_PER_THREAD
 143:Source\LwIP\src\api/api_lib.c ****       LWIP_ASSERT("conn has no op_completed", sys_sem_valid(&conn->op_completed));
 144:Source\LwIP\src\api/api_lib.c ****       sys_sem_free(&conn->op_completed);
 145:Source\LwIP\src\api/api_lib.c **** #endif /* !LWIP_NETCONN_SEM_PER_THREAD */
 146:Source\LwIP\src\api/api_lib.c ****       sys_mbox_free(&conn->recvmbox);
 147:Source\LwIP\src\api/api_lib.c ****       memp_free(MEMP_NETCONN, conn);
 148:Source\LwIP\src\api/api_lib.c ****       API_MSG_VAR_FREE(msg);
 149:Source\LwIP\src\api/api_lib.c ****       return NULL;
 150:Source\LwIP\src\api/api_lib.c ****     }
 151:Source\LwIP\src\api/api_lib.c ****   }
 152:Source\LwIP\src\api/api_lib.c ****   API_MSG_VAR_FREE(msg);
 153:Source\LwIP\src\api/api_lib.c ****   return conn;
 154:Source\LwIP\src\api/api_lib.c **** }
 155:Source\LwIP\src\api/api_lib.c **** 
 156:Source\LwIP\src\api/api_lib.c **** /**
 157:Source\LwIP\src\api/api_lib.c ****  * @ingroup netconn_common
 158:Source\LwIP\src\api/api_lib.c ****  * Close a netconn 'connection' and free its resources.
 159:Source\LwIP\src\api/api_lib.c ****  * UDP and RAW connection are completely closed, TCP pcbs might still be in a waitstate
 160:Source\LwIP\src\api/api_lib.c ****  * after this returns.
 161:Source\LwIP\src\api/api_lib.c ****  *
 162:Source\LwIP\src\api/api_lib.c ****  * @param conn the netconn to delete
ARM GAS  C:\Users\Phuong\AppData\Local\Temp\ccVcCKxe.s 			page 5


 163:Source\LwIP\src\api/api_lib.c ****  * @return ERR_OK if the connection was deleted
 164:Source\LwIP\src\api/api_lib.c ****  */
 165:Source\LwIP\src\api/api_lib.c **** err_t
 166:Source\LwIP\src\api/api_lib.c **** netconn_delete(struct netconn *conn)
 167:Source\LwIP\src\api/api_lib.c **** {
 168:Source\LwIP\src\api/api_lib.c ****   err_t err;
 169:Source\LwIP\src\api/api_lib.c ****   API_MSG_VAR_DECLARE(msg);
 170:Source\LwIP\src\api/api_lib.c **** 
 171:Source\LwIP\src\api/api_lib.c ****   /* No ASSERT here because possible to get a (conn == NULL) if we got an accept error */
 172:Source\LwIP\src\api/api_lib.c ****   if (conn == NULL) {
 173:Source\LwIP\src\api/api_lib.c ****     return ERR_OK;
 174:Source\LwIP\src\api/api_lib.c ****   }
 175:Source\LwIP\src\api/api_lib.c **** 
 176:Source\LwIP\src\api/api_lib.c ****   API_MSG_VAR_ALLOC(msg);
 177:Source\LwIP\src\api/api_lib.c ****   API_MSG_VAR_REF(msg).conn = conn;
 178:Source\LwIP\src\api/api_lib.c **** #if LWIP_SO_SNDTIMEO || LWIP_SO_LINGER
 179:Source\LwIP\src\api/api_lib.c ****   /* get the time we started, which is later compared to
 180:Source\LwIP\src\api/api_lib.c ****      sys_now() + conn->send_timeout */
 181:Source\LwIP\src\api/api_lib.c ****   API_MSG_VAR_REF(msg).msg.sd.time_started = sys_now();
 182:Source\LwIP\src\api/api_lib.c **** #else /* LWIP_SO_SNDTIMEO || LWIP_SO_LINGER */
 183:Source\LwIP\src\api/api_lib.c **** #if LWIP_TCP
 184:Source\LwIP\src\api/api_lib.c ****   API_MSG_VAR_REF(msg).msg.sd.polls_left =
 185:Source\LwIP\src\api/api_lib.c ****     ((LWIP_TCP_CLOSE_TIMEOUT_MS_DEFAULT + TCP_SLOW_INTERVAL - 1) / TCP_SLOW_INTERVAL) + 1;
 186:Source\LwIP\src\api/api_lib.c **** #endif /* LWIP_TCP */
 187:Source\LwIP\src\api/api_lib.c **** #endif /* LWIP_SO_SNDTIMEO || LWIP_SO_LINGER */
 188:Source\LwIP\src\api/api_lib.c ****   err = netconn_apimsg(lwip_netconn_do_delconn, &API_MSG_VAR_REF(msg));
 189:Source\LwIP\src\api/api_lib.c ****   API_MSG_VAR_FREE(msg);
 190:Source\LwIP\src\api/api_lib.c **** 
 191:Source\LwIP\src\api/api_lib.c ****   if (err != ERR_OK) {
 192:Source\LwIP\src\api/api_lib.c ****     return err;
 193:Source\LwIP\src\api/api_lib.c ****   }
 194:Source\LwIP\src\api/api_lib.c **** 
 195:Source\LwIP\src\api/api_lib.c ****   netconn_free(conn);
 196:Source\LwIP\src\api/api_lib.c **** 
 197:Source\LwIP\src\api/api_lib.c ****   return ERR_OK;
 198:Source\LwIP\src\api/api_lib.c **** }
 199:Source\LwIP\src\api/api_lib.c **** 
 200:Source\LwIP\src\api/api_lib.c **** /**
 201:Source\LwIP\src\api/api_lib.c ****  * Get the local or remote IP address and port of a netconn.
 202:Source\LwIP\src\api/api_lib.c ****  * For RAW netconns, this returns the protocol instead of a port!
 203:Source\LwIP\src\api/api_lib.c ****  *
 204:Source\LwIP\src\api/api_lib.c ****  * @param conn the netconn to query
 205:Source\LwIP\src\api/api_lib.c ****  * @param addr a pointer to which to save the IP address
 206:Source\LwIP\src\api/api_lib.c ****  * @param port a pointer to which to save the port (or protocol for RAW)
 207:Source\LwIP\src\api/api_lib.c ****  * @param local 1 to get the local IP address, 0 to get the remote one
 208:Source\LwIP\src\api/api_lib.c ****  * @return ERR_CONN for invalid connections
 209:Source\LwIP\src\api/api_lib.c ****  *         ERR_OK if the information was retrieved
 210:Source\LwIP\src\api/api_lib.c ****  */
 211:Source\LwIP\src\api/api_lib.c **** err_t
 212:Source\LwIP\src\api/api_lib.c **** netconn_getaddr(struct netconn *conn, ip_addr_t *addr, u16_t *port, u8_t local)
 213:Source\LwIP\src\api/api_lib.c **** {
 214:Source\LwIP\src\api/api_lib.c ****   API_MSG_VAR_DECLARE(msg);
 215:Source\LwIP\src\api/api_lib.c ****   err_t err;
 216:Source\LwIP\src\api/api_lib.c **** 
 217:Source\LwIP\src\api/api_lib.c ****   LWIP_ERROR("netconn_getaddr: invalid conn", (conn != NULL), return ERR_ARG;);
 218:Source\LwIP\src\api/api_lib.c ****   LWIP_ERROR("netconn_getaddr: invalid addr", (addr != NULL), return ERR_ARG;);
 219:Source\LwIP\src\api/api_lib.c ****   LWIP_ERROR("netconn_getaddr: invalid port", (port != NULL), return ERR_ARG;);
ARM GAS  C:\Users\Phuong\AppData\Local\Temp\ccVcCKxe.s 			page 6


 220:Source\LwIP\src\api/api_lib.c **** 
 221:Source\LwIP\src\api/api_lib.c ****   API_MSG_VAR_ALLOC(msg);
 222:Source\LwIP\src\api/api_lib.c ****   API_MSG_VAR_REF(msg).conn = conn;
 223:Source\LwIP\src\api/api_lib.c ****   API_MSG_VAR_REF(msg).msg.ad.local = local;
 224:Source\LwIP\src\api/api_lib.c **** #if LWIP_MPU_COMPATIBLE
 225:Source\LwIP\src\api/api_lib.c ****   err = netconn_apimsg(lwip_netconn_do_getaddr, &API_MSG_VAR_REF(msg));
 226:Source\LwIP\src\api/api_lib.c ****   *addr = msg->msg.ad.ipaddr;
 227:Source\LwIP\src\api/api_lib.c ****   *port = msg->msg.ad.port;
 228:Source\LwIP\src\api/api_lib.c **** #else /* LWIP_MPU_COMPATIBLE */
 229:Source\LwIP\src\api/api_lib.c ****   msg.msg.ad.ipaddr = addr;
 230:Source\LwIP\src\api/api_lib.c ****   msg.msg.ad.port = port;
 231:Source\LwIP\src\api/api_lib.c ****   err = netconn_apimsg(lwip_netconn_do_getaddr, &msg);
 232:Source\LwIP\src\api/api_lib.c **** #endif /* LWIP_MPU_COMPATIBLE */
 233:Source\LwIP\src\api/api_lib.c ****   API_MSG_VAR_FREE(msg);
 234:Source\LwIP\src\api/api_lib.c **** 
 235:Source\LwIP\src\api/api_lib.c ****   return err;
 236:Source\LwIP\src\api/api_lib.c **** }
 237:Source\LwIP\src\api/api_lib.c **** 
 238:Source\LwIP\src\api/api_lib.c **** /**
 239:Source\LwIP\src\api/api_lib.c ****  * @ingroup netconn_common
 240:Source\LwIP\src\api/api_lib.c ****  * Bind a netconn to a specific local IP address and port.
 241:Source\LwIP\src\api/api_lib.c ****  * Binding one netconn twice might not always be checked correctly!
 242:Source\LwIP\src\api/api_lib.c ****  *
 243:Source\LwIP\src\api/api_lib.c ****  * @param conn the netconn to bind
 244:Source\LwIP\src\api/api_lib.c ****  * @param addr the local IP address to bind the netconn to 
 245:Source\LwIP\src\api/api_lib.c ****  *             (use IP4_ADDR_ANY/IP6_ADDR_ANY to bind to all addresses)
 246:Source\LwIP\src\api/api_lib.c ****  * @param port the local port to bind the netconn to (not used for RAW)
 247:Source\LwIP\src\api/api_lib.c ****  * @return ERR_OK if bound, any other err_t on failure
 248:Source\LwIP\src\api/api_lib.c ****  */
 249:Source\LwIP\src\api/api_lib.c **** err_t
 250:Source\LwIP\src\api/api_lib.c **** netconn_bind(struct netconn *conn, const ip_addr_t *addr, u16_t port)
 251:Source\LwIP\src\api/api_lib.c **** {
 252:Source\LwIP\src\api/api_lib.c ****   API_MSG_VAR_DECLARE(msg);
 253:Source\LwIP\src\api/api_lib.c ****   err_t err;
 254:Source\LwIP\src\api/api_lib.c ****   
 255:Source\LwIP\src\api/api_lib.c ****   LWIP_ERROR("netconn_bind: invalid conn", (conn != NULL), return ERR_ARG;);
 256:Source\LwIP\src\api/api_lib.c **** 
 257:Source\LwIP\src\api/api_lib.c **** #if LWIP_IPV4
 258:Source\LwIP\src\api/api_lib.c ****   /* Don't propagate NULL pointer (IP_ADDR_ANY alias) to subsequent functions */
 259:Source\LwIP\src\api/api_lib.c ****   if (addr == NULL) {
 260:Source\LwIP\src\api/api_lib.c ****     addr = IP4_ADDR_ANY;
 261:Source\LwIP\src\api/api_lib.c ****   }
 262:Source\LwIP\src\api/api_lib.c **** #endif /* LWIP_IPV4 */
 263:Source\LwIP\src\api/api_lib.c ****   
 264:Source\LwIP\src\api/api_lib.c **** #if LWIP_IPV4 && LWIP_IPV6
 265:Source\LwIP\src\api/api_lib.c ****   /* "Socket API like" dual-stack support: If IP to bind to is IP6_ADDR_ANY,
 266:Source\LwIP\src\api/api_lib.c ****    * and NETCONN_FLAG_IPV6_V6ONLY is 0, use IP_ANY_TYPE to bind
 267:Source\LwIP\src\api/api_lib.c ****    */
 268:Source\LwIP\src\api/api_lib.c ****   if ((netconn_get_ipv6only(conn) == 0) &&
 269:Source\LwIP\src\api/api_lib.c ****      ip_addr_cmp(addr, IP6_ADDR_ANY)) {
 270:Source\LwIP\src\api/api_lib.c ****     addr = IP_ANY_TYPE;
 271:Source\LwIP\src\api/api_lib.c ****   }
 272:Source\LwIP\src\api/api_lib.c **** #endif /* LWIP_IPV4 && LWIP_IPV6 */
 273:Source\LwIP\src\api/api_lib.c **** 
 274:Source\LwIP\src\api/api_lib.c ****   API_MSG_VAR_ALLOC(msg);
 275:Source\LwIP\src\api/api_lib.c ****   API_MSG_VAR_REF(msg).conn = conn;
 276:Source\LwIP\src\api/api_lib.c ****   API_MSG_VAR_REF(msg).msg.bc.ipaddr = API_MSG_VAR_REF(addr);
ARM GAS  C:\Users\Phuong\AppData\Local\Temp\ccVcCKxe.s 			page 7


 277:Source\LwIP\src\api/api_lib.c ****   API_MSG_VAR_REF(msg).msg.bc.port = port;
 278:Source\LwIP\src\api/api_lib.c ****   err = netconn_apimsg(lwip_netconn_do_bind, &API_MSG_VAR_REF(msg));
 279:Source\LwIP\src\api/api_lib.c ****   API_MSG_VAR_FREE(msg);
 280:Source\LwIP\src\api/api_lib.c **** 
 281:Source\LwIP\src\api/api_lib.c ****   return err;
 282:Source\LwIP\src\api/api_lib.c **** }
 283:Source\LwIP\src\api/api_lib.c **** 
 284:Source\LwIP\src\api/api_lib.c **** /**
 285:Source\LwIP\src\api/api_lib.c ****  * @ingroup netconn_common
 286:Source\LwIP\src\api/api_lib.c ****  * Connect a netconn to a specific remote IP address and port.
 287:Source\LwIP\src\api/api_lib.c ****  *
 288:Source\LwIP\src\api/api_lib.c ****  * @param conn the netconn to connect
 289:Source\LwIP\src\api/api_lib.c ****  * @param addr the remote IP address to connect to
 290:Source\LwIP\src\api/api_lib.c ****  * @param port the remote port to connect to (no used for RAW)
 291:Source\LwIP\src\api/api_lib.c ****  * @return ERR_OK if connected, return value of tcp_/udp_/raw_connect otherwise
 292:Source\LwIP\src\api/api_lib.c ****  */
 293:Source\LwIP\src\api/api_lib.c **** err_t
 294:Source\LwIP\src\api/api_lib.c **** netconn_connect(struct netconn *conn, const ip_addr_t *addr, u16_t port)
 295:Source\LwIP\src\api/api_lib.c **** {
 296:Source\LwIP\src\api/api_lib.c ****   API_MSG_VAR_DECLARE(msg);
 297:Source\LwIP\src\api/api_lib.c ****   err_t err;
 298:Source\LwIP\src\api/api_lib.c **** 
 299:Source\LwIP\src\api/api_lib.c ****   LWIP_ERROR("netconn_connect: invalid conn", (conn != NULL), return ERR_ARG;);
 300:Source\LwIP\src\api/api_lib.c **** 
 301:Source\LwIP\src\api/api_lib.c **** #if LWIP_IPV4
 302:Source\LwIP\src\api/api_lib.c ****   /* Don't propagate NULL pointer (IP_ADDR_ANY alias) to subsequent functions */
 303:Source\LwIP\src\api/api_lib.c ****   if (addr == NULL) {
 304:Source\LwIP\src\api/api_lib.c ****     addr = IP4_ADDR_ANY;
 305:Source\LwIP\src\api/api_lib.c ****   }
 306:Source\LwIP\src\api/api_lib.c **** #endif /* LWIP_IPV4 */
 307:Source\LwIP\src\api/api_lib.c **** 
 308:Source\LwIP\src\api/api_lib.c ****   API_MSG_VAR_ALLOC(msg);
 309:Source\LwIP\src\api/api_lib.c ****   API_MSG_VAR_REF(msg).conn = conn;
 310:Source\LwIP\src\api/api_lib.c ****   API_MSG_VAR_REF(msg).msg.bc.ipaddr = API_MSG_VAR_REF(addr);
 311:Source\LwIP\src\api/api_lib.c ****   API_MSG_VAR_REF(msg).msg.bc.port = port;
 312:Source\LwIP\src\api/api_lib.c ****   err = netconn_apimsg(lwip_netconn_do_connect, &API_MSG_VAR_REF(msg));
 313:Source\LwIP\src\api/api_lib.c ****   API_MSG_VAR_FREE(msg);
 314:Source\LwIP\src\api/api_lib.c **** 
 315:Source\LwIP\src\api/api_lib.c ****   return err;
 316:Source\LwIP\src\api/api_lib.c **** }
 317:Source\LwIP\src\api/api_lib.c **** 
 318:Source\LwIP\src\api/api_lib.c **** /**
 319:Source\LwIP\src\api/api_lib.c ****  * @ingroup netconn_udp
 320:Source\LwIP\src\api/api_lib.c ****  * Disconnect a netconn from its current peer (only valid for UDP netconns).
 321:Source\LwIP\src\api/api_lib.c ****  *
 322:Source\LwIP\src\api/api_lib.c ****  * @param conn the netconn to disconnect
 323:Source\LwIP\src\api/api_lib.c ****  * @return See @ref err_t
 324:Source\LwIP\src\api/api_lib.c ****  */
 325:Source\LwIP\src\api/api_lib.c **** err_t
 326:Source\LwIP\src\api/api_lib.c **** netconn_disconnect(struct netconn *conn)
 327:Source\LwIP\src\api/api_lib.c **** {
 328:Source\LwIP\src\api/api_lib.c ****   API_MSG_VAR_DECLARE(msg);
 329:Source\LwIP\src\api/api_lib.c ****   err_t err;
 330:Source\LwIP\src\api/api_lib.c **** 
 331:Source\LwIP\src\api/api_lib.c ****   LWIP_ERROR("netconn_disconnect: invalid conn", (conn != NULL), return ERR_ARG;);
 332:Source\LwIP\src\api/api_lib.c **** 
 333:Source\LwIP\src\api/api_lib.c ****   API_MSG_VAR_ALLOC(msg);
ARM GAS  C:\Users\Phuong\AppData\Local\Temp\ccVcCKxe.s 			page 8


 334:Source\LwIP\src\api/api_lib.c ****   API_MSG_VAR_REF(msg).conn = conn;
 335:Source\LwIP\src\api/api_lib.c ****   err = netconn_apimsg(lwip_netconn_do_disconnect, &API_MSG_VAR_REF(msg));
 336:Source\LwIP\src\api/api_lib.c ****   API_MSG_VAR_FREE(msg);
 337:Source\LwIP\src\api/api_lib.c **** 
 338:Source\LwIP\src\api/api_lib.c ****   return err;
 339:Source\LwIP\src\api/api_lib.c **** }
 340:Source\LwIP\src\api/api_lib.c **** 
 341:Source\LwIP\src\api/api_lib.c **** /**
 342:Source\LwIP\src\api/api_lib.c ****  * @ingroup netconn_tcp
 343:Source\LwIP\src\api/api_lib.c ****  * Set a TCP netconn into listen mode
 344:Source\LwIP\src\api/api_lib.c ****  *
 345:Source\LwIP\src\api/api_lib.c ****  * @param conn the tcp netconn to set to listen mode
 346:Source\LwIP\src\api/api_lib.c ****  * @param backlog the listen backlog, only used if TCP_LISTEN_BACKLOG==1
 347:Source\LwIP\src\api/api_lib.c ****  * @return ERR_OK if the netconn was set to listen (UDP and RAW netconns
 348:Source\LwIP\src\api/api_lib.c ****  *         don't return any error (yet?))
 349:Source\LwIP\src\api/api_lib.c ****  */
 350:Source\LwIP\src\api/api_lib.c **** err_t
 351:Source\LwIP\src\api/api_lib.c **** netconn_listen_with_backlog(struct netconn *conn, u8_t backlog)
 352:Source\LwIP\src\api/api_lib.c **** {
 353:Source\LwIP\src\api/api_lib.c **** #if LWIP_TCP
 354:Source\LwIP\src\api/api_lib.c ****   API_MSG_VAR_DECLARE(msg);
 355:Source\LwIP\src\api/api_lib.c ****   err_t err;
 356:Source\LwIP\src\api/api_lib.c **** 
 357:Source\LwIP\src\api/api_lib.c ****   /* This does no harm. If TCP_LISTEN_BACKLOG is off, backlog is unused. */
 358:Source\LwIP\src\api/api_lib.c ****   LWIP_UNUSED_ARG(backlog);
 359:Source\LwIP\src\api/api_lib.c **** 
 360:Source\LwIP\src\api/api_lib.c ****   LWIP_ERROR("netconn_listen: invalid conn", (conn != NULL), return ERR_ARG;);
 361:Source\LwIP\src\api/api_lib.c **** 
 362:Source\LwIP\src\api/api_lib.c ****   API_MSG_VAR_ALLOC(msg);
 363:Source\LwIP\src\api/api_lib.c ****   API_MSG_VAR_REF(msg).conn = conn;
 364:Source\LwIP\src\api/api_lib.c **** #if TCP_LISTEN_BACKLOG
 365:Source\LwIP\src\api/api_lib.c ****   API_MSG_VAR_REF(msg).msg.lb.backlog = backlog;
 366:Source\LwIP\src\api/api_lib.c **** #endif /* TCP_LISTEN_BACKLOG */
 367:Source\LwIP\src\api/api_lib.c ****   err = netconn_apimsg(lwip_netconn_do_listen, &API_MSG_VAR_REF(msg));
 368:Source\LwIP\src\api/api_lib.c ****   API_MSG_VAR_FREE(msg);
 369:Source\LwIP\src\api/api_lib.c **** 
 370:Source\LwIP\src\api/api_lib.c ****   return err;
 371:Source\LwIP\src\api/api_lib.c **** #else /* LWIP_TCP */
 372:Source\LwIP\src\api/api_lib.c ****   LWIP_UNUSED_ARG(conn);
 373:Source\LwIP\src\api/api_lib.c ****   LWIP_UNUSED_ARG(backlog);
 374:Source\LwIP\src\api/api_lib.c ****   return ERR_ARG;
 375:Source\LwIP\src\api/api_lib.c **** #endif /* LWIP_TCP */
 376:Source\LwIP\src\api/api_lib.c **** }
 377:Source\LwIP\src\api/api_lib.c **** 
 378:Source\LwIP\src\api/api_lib.c **** /**
 379:Source\LwIP\src\api/api_lib.c ****  * @ingroup netconn_tcp
 380:Source\LwIP\src\api/api_lib.c ****  * Accept a new connection on a TCP listening netconn.
 381:Source\LwIP\src\api/api_lib.c ****  *
 382:Source\LwIP\src\api/api_lib.c ****  * @param conn the TCP listen netconn
 383:Source\LwIP\src\api/api_lib.c ****  * @param new_conn pointer where the new connection is stored
 384:Source\LwIP\src\api/api_lib.c ****  * @return ERR_OK if a new connection has been received or an error
 385:Source\LwIP\src\api/api_lib.c ****  *                code otherwise
 386:Source\LwIP\src\api/api_lib.c ****  */
 387:Source\LwIP\src\api/api_lib.c **** err_t
 388:Source\LwIP\src\api/api_lib.c **** netconn_accept(struct netconn *conn, struct netconn **new_conn)
 389:Source\LwIP\src\api/api_lib.c **** {
 390:Source\LwIP\src\api/api_lib.c **** #if LWIP_TCP
ARM GAS  C:\Users\Phuong\AppData\Local\Temp\ccVcCKxe.s 			page 9


 391:Source\LwIP\src\api/api_lib.c ****   void *accept_ptr;
 392:Source\LwIP\src\api/api_lib.c ****   struct netconn *newconn;
 393:Source\LwIP\src\api/api_lib.c **** #if TCP_LISTEN_BACKLOG
 394:Source\LwIP\src\api/api_lib.c ****   API_MSG_VAR_DECLARE(msg);
 395:Source\LwIP\src\api/api_lib.c **** #endif /* TCP_LISTEN_BACKLOG */
 396:Source\LwIP\src\api/api_lib.c **** 
 397:Source\LwIP\src\api/api_lib.c ****   LWIP_ERROR("netconn_accept: invalid pointer",    (new_conn != NULL),                  return ERR_
 398:Source\LwIP\src\api/api_lib.c ****   *new_conn = NULL;
 399:Source\LwIP\src\api/api_lib.c ****   LWIP_ERROR("netconn_accept: invalid conn",       (conn != NULL),                      return ERR_
 400:Source\LwIP\src\api/api_lib.c **** 
 401:Source\LwIP\src\api/api_lib.c ****   if (ERR_IS_FATAL(conn->last_err)) {
 402:Source\LwIP\src\api/api_lib.c ****     /* don't recv on fatal errors: this might block the application task
 403:Source\LwIP\src\api/api_lib.c ****        waiting on acceptmbox forever! */
 404:Source\LwIP\src\api/api_lib.c ****     return conn->last_err;
 405:Source\LwIP\src\api/api_lib.c ****   }
 406:Source\LwIP\src\api/api_lib.c ****   if (!sys_mbox_valid(&conn->acceptmbox)) {
 407:Source\LwIP\src\api/api_lib.c ****     return ERR_CLSD;
 408:Source\LwIP\src\api/api_lib.c ****   }
 409:Source\LwIP\src\api/api_lib.c **** 
 410:Source\LwIP\src\api/api_lib.c **** #if TCP_LISTEN_BACKLOG
 411:Source\LwIP\src\api/api_lib.c ****   API_MSG_VAR_ALLOC(msg);
 412:Source\LwIP\src\api/api_lib.c **** #endif /* TCP_LISTEN_BACKLOG */
 413:Source\LwIP\src\api/api_lib.c **** 
 414:Source\LwIP\src\api/api_lib.c **** #if LWIP_SO_RCVTIMEO
 415:Source\LwIP\src\api/api_lib.c ****   if (sys_arch_mbox_fetch(&conn->acceptmbox, &accept_ptr, conn->recv_timeout) == SYS_ARCH_TIMEOUT) 
 416:Source\LwIP\src\api/api_lib.c **** #if TCP_LISTEN_BACKLOG
 417:Source\LwIP\src\api/api_lib.c ****     API_MSG_VAR_FREE(msg);
 418:Source\LwIP\src\api/api_lib.c **** #endif /* TCP_LISTEN_BACKLOG */
 419:Source\LwIP\src\api/api_lib.c ****     return ERR_TIMEOUT;
 420:Source\LwIP\src\api/api_lib.c ****   }
 421:Source\LwIP\src\api/api_lib.c **** #else
 422:Source\LwIP\src\api/api_lib.c ****   sys_arch_mbox_fetch(&conn->acceptmbox, &accept_ptr, 0);
 423:Source\LwIP\src\api/api_lib.c **** #endif /* LWIP_SO_RCVTIMEO*/
 424:Source\LwIP\src\api/api_lib.c ****   newconn = (struct netconn *)accept_ptr;
 425:Source\LwIP\src\api/api_lib.c ****   /* Register event with callback */
 426:Source\LwIP\src\api/api_lib.c ****   API_EVENT(conn, NETCONN_EVT_RCVMINUS, 0);
 427:Source\LwIP\src\api/api_lib.c **** 
 428:Source\LwIP\src\api/api_lib.c ****   if (accept_ptr == &netconn_aborted) {
 429:Source\LwIP\src\api/api_lib.c ****     /* a connection has been aborted: out of pcbs or out of netconns during accept */
 430:Source\LwIP\src\api/api_lib.c ****     /* @todo: set netconn error, but this would be fatal and thus block further accepts */
 431:Source\LwIP\src\api/api_lib.c **** #if TCP_LISTEN_BACKLOG
 432:Source\LwIP\src\api/api_lib.c ****     API_MSG_VAR_FREE(msg);
 433:Source\LwIP\src\api/api_lib.c **** #endif /* TCP_LISTEN_BACKLOG */
 434:Source\LwIP\src\api/api_lib.c ****     return ERR_ABRT;
 435:Source\LwIP\src\api/api_lib.c ****   }
 436:Source\LwIP\src\api/api_lib.c ****   if (newconn == NULL) {
 437:Source\LwIP\src\api/api_lib.c ****     /* connection has been aborted */
 438:Source\LwIP\src\api/api_lib.c ****     /* in this special case, we set the netconn error from application thread, as
 439:Source\LwIP\src\api/api_lib.c ****        on a ready-to-accept listening netconn, there should not be anything running
 440:Source\LwIP\src\api/api_lib.c ****        in tcpip_thread */
 441:Source\LwIP\src\api/api_lib.c ****     NETCONN_SET_SAFE_ERR(conn, ERR_CLSD);
 442:Source\LwIP\src\api/api_lib.c **** #if TCP_LISTEN_BACKLOG
 443:Source\LwIP\src\api/api_lib.c ****     API_MSG_VAR_FREE(msg);
 444:Source\LwIP\src\api/api_lib.c **** #endif /* TCP_LISTEN_BACKLOG */
 445:Source\LwIP\src\api/api_lib.c ****     return ERR_CLSD;
 446:Source\LwIP\src\api/api_lib.c ****   }
 447:Source\LwIP\src\api/api_lib.c **** #if TCP_LISTEN_BACKLOG
ARM GAS  C:\Users\Phuong\AppData\Local\Temp\ccVcCKxe.s 			page 10


 448:Source\LwIP\src\api/api_lib.c ****   /* Let the stack know that we have accepted the connection. */
 449:Source\LwIP\src\api/api_lib.c ****   API_MSG_VAR_REF(msg).conn = newconn;
 450:Source\LwIP\src\api/api_lib.c ****   /* don't care for the return value of lwip_netconn_do_recv */
 451:Source\LwIP\src\api/api_lib.c ****   netconn_apimsg(lwip_netconn_do_accepted, &API_MSG_VAR_REF(msg));
 452:Source\LwIP\src\api/api_lib.c ****   API_MSG_VAR_FREE(msg);
 453:Source\LwIP\src\api/api_lib.c **** #endif /* TCP_LISTEN_BACKLOG */
 454:Source\LwIP\src\api/api_lib.c **** 
 455:Source\LwIP\src\api/api_lib.c ****   *new_conn = newconn;
 456:Source\LwIP\src\api/api_lib.c ****   /* don't set conn->last_err: it's only ERR_OK, anyway */
 457:Source\LwIP\src\api/api_lib.c ****   return ERR_OK;
 458:Source\LwIP\src\api/api_lib.c **** #else /* LWIP_TCP */
 459:Source\LwIP\src\api/api_lib.c ****   LWIP_UNUSED_ARG(conn);
 460:Source\LwIP\src\api/api_lib.c ****   LWIP_UNUSED_ARG(new_conn);
 461:Source\LwIP\src\api/api_lib.c ****   return ERR_ARG;
 462:Source\LwIP\src\api/api_lib.c **** #endif /* LWIP_TCP */
 463:Source\LwIP\src\api/api_lib.c **** }
 464:Source\LwIP\src\api/api_lib.c **** 
 465:Source\LwIP\src\api/api_lib.c **** /**
 466:Source\LwIP\src\api/api_lib.c ****  * @ingroup netconn_common
 467:Source\LwIP\src\api/api_lib.c ****  * Receive data: actual implementation that doesn't care whether pbuf or netbuf
 468:Source\LwIP\src\api/api_lib.c ****  * is received
 469:Source\LwIP\src\api/api_lib.c ****  *
 470:Source\LwIP\src\api/api_lib.c ****  * @param conn the netconn from which to receive data
 471:Source\LwIP\src\api/api_lib.c ****  * @param new_buf pointer where a new pbuf/netbuf is stored when received data
 472:Source\LwIP\src\api/api_lib.c ****  * @return ERR_OK if data has been received, an error code otherwise (timeout,
 473:Source\LwIP\src\api/api_lib.c ****  *                memory error or another error)
 474:Source\LwIP\src\api/api_lib.c ****  */
 475:Source\LwIP\src\api/api_lib.c **** static err_t
 476:Source\LwIP\src\api/api_lib.c **** netconn_recv_data(struct netconn *conn, void **new_buf)
 477:Source\LwIP\src\api/api_lib.c **** {
 478:Source\LwIP\src\api/api_lib.c ****   void *buf = NULL;
 479:Source\LwIP\src\api/api_lib.c ****   u16_t len;
 480:Source\LwIP\src\api/api_lib.c **** #if LWIP_TCP
 481:Source\LwIP\src\api/api_lib.c ****   API_MSG_VAR_DECLARE(msg);
 482:Source\LwIP\src\api/api_lib.c **** #if LWIP_MPU_COMPATIBLE
 483:Source\LwIP\src\api/api_lib.c ****   msg = NULL;
 484:Source\LwIP\src\api/api_lib.c **** #endif
 485:Source\LwIP\src\api/api_lib.c **** #endif /* LWIP_TCP */
 486:Source\LwIP\src\api/api_lib.c **** 
 487:Source\LwIP\src\api/api_lib.c ****   LWIP_ERROR("netconn_recv: invalid pointer", (new_buf != NULL), return ERR_ARG;);
 488:Source\LwIP\src\api/api_lib.c ****   *new_buf = NULL;
 489:Source\LwIP\src\api/api_lib.c ****   LWIP_ERROR("netconn_recv: invalid conn",    (conn != NULL),    return ERR_ARG;);
 490:Source\LwIP\src\api/api_lib.c **** #if LWIP_TCP
 491:Source\LwIP\src\api/api_lib.c **** #if (LWIP_UDP || LWIP_RAW)
 492:Source\LwIP\src\api/api_lib.c ****   if (NETCONNTYPE_GROUP(conn->type) == NETCONN_TCP)
 493:Source\LwIP\src\api/api_lib.c **** #endif /* (LWIP_UDP || LWIP_RAW) */
 494:Source\LwIP\src\api/api_lib.c ****   {
 495:Source\LwIP\src\api/api_lib.c ****     if (!sys_mbox_valid(&conn->recvmbox)) {
 496:Source\LwIP\src\api/api_lib.c ****       /* This happens when calling this function after receiving FIN */
 497:Source\LwIP\src\api/api_lib.c ****       return sys_mbox_valid(&conn->acceptmbox) ? ERR_CONN : ERR_CLSD;
 498:Source\LwIP\src\api/api_lib.c ****     }
 499:Source\LwIP\src\api/api_lib.c ****   }
 500:Source\LwIP\src\api/api_lib.c **** #endif /* LWIP_TCP */
 501:Source\LwIP\src\api/api_lib.c ****   LWIP_ERROR("netconn_recv: invalid recvmbox", sys_mbox_valid(&conn->recvmbox), return ERR_CONN;);
 502:Source\LwIP\src\api/api_lib.c **** 
 503:Source\LwIP\src\api/api_lib.c ****   if (ERR_IS_FATAL(conn->last_err)) {
 504:Source\LwIP\src\api/api_lib.c ****     /* don't recv on fatal errors: this might block the application task
ARM GAS  C:\Users\Phuong\AppData\Local\Temp\ccVcCKxe.s 			page 11


 505:Source\LwIP\src\api/api_lib.c ****        waiting on recvmbox forever! */
 506:Source\LwIP\src\api/api_lib.c ****     /* @todo: this does not allow us to fetch data that has been put into recvmbox
 507:Source\LwIP\src\api/api_lib.c ****        before the fatal error occurred - is that a problem? */
 508:Source\LwIP\src\api/api_lib.c ****     return conn->last_err;
 509:Source\LwIP\src\api/api_lib.c ****   }
 510:Source\LwIP\src\api/api_lib.c **** #if LWIP_TCP
 511:Source\LwIP\src\api/api_lib.c **** #if (LWIP_UDP || LWIP_RAW)
 512:Source\LwIP\src\api/api_lib.c ****   if (NETCONNTYPE_GROUP(conn->type) == NETCONN_TCP)
 513:Source\LwIP\src\api/api_lib.c **** #endif /* (LWIP_UDP || LWIP_RAW) */
 514:Source\LwIP\src\api/api_lib.c ****   {
 515:Source\LwIP\src\api/api_lib.c ****     API_MSG_VAR_ALLOC(msg);
 516:Source\LwIP\src\api/api_lib.c ****   }
 517:Source\LwIP\src\api/api_lib.c **** #endif /* LWIP_TCP */
 518:Source\LwIP\src\api/api_lib.c **** 
 519:Source\LwIP\src\api/api_lib.c **** #if LWIP_SO_RCVTIMEO
 520:Source\LwIP\src\api/api_lib.c ****   if (sys_arch_mbox_fetch(&conn->recvmbox, &buf, conn->recv_timeout) == SYS_ARCH_TIMEOUT) {
 521:Source\LwIP\src\api/api_lib.c **** #if LWIP_TCP
 522:Source\LwIP\src\api/api_lib.c **** #if (LWIP_UDP || LWIP_RAW)
 523:Source\LwIP\src\api/api_lib.c ****     if (NETCONNTYPE_GROUP(conn->type) == NETCONN_TCP)
 524:Source\LwIP\src\api/api_lib.c **** #endif /* (LWIP_UDP || LWIP_RAW) */
 525:Source\LwIP\src\api/api_lib.c ****     {
 526:Source\LwIP\src\api/api_lib.c ****       API_MSG_VAR_FREE(msg);
 527:Source\LwIP\src\api/api_lib.c ****     }
 528:Source\LwIP\src\api/api_lib.c **** #endif /* LWIP_TCP */
 529:Source\LwIP\src\api/api_lib.c ****     return ERR_TIMEOUT;
 530:Source\LwIP\src\api/api_lib.c ****   }
 531:Source\LwIP\src\api/api_lib.c **** #else
 532:Source\LwIP\src\api/api_lib.c ****   sys_arch_mbox_fetch(&conn->recvmbox, &buf, 0);
 533:Source\LwIP\src\api/api_lib.c **** #endif /* LWIP_SO_RCVTIMEO*/
 534:Source\LwIP\src\api/api_lib.c **** 
 535:Source\LwIP\src\api/api_lib.c **** #if LWIP_TCP
 536:Source\LwIP\src\api/api_lib.c **** #if (LWIP_UDP || LWIP_RAW)
 537:Source\LwIP\src\api/api_lib.c ****   if (NETCONNTYPE_GROUP(conn->type) == NETCONN_TCP)
 538:Source\LwIP\src\api/api_lib.c **** #endif /* (LWIP_UDP || LWIP_RAW) */
 539:Source\LwIP\src\api/api_lib.c ****   {
 540:Source\LwIP\src\api/api_lib.c ****     /* Let the stack know that we have taken the data. */
 541:Source\LwIP\src\api/api_lib.c ****     /* @todo: Speedup: Don't block and wait for the answer here
 542:Source\LwIP\src\api/api_lib.c ****        (to prevent multiple thread-switches). */
 543:Source\LwIP\src\api/api_lib.c ****     API_MSG_VAR_REF(msg).conn = conn;
 544:Source\LwIP\src\api/api_lib.c ****     if (buf != NULL) {
 545:Source\LwIP\src\api/api_lib.c ****       API_MSG_VAR_REF(msg).msg.r.len = ((struct pbuf *)buf)->tot_len;
 546:Source\LwIP\src\api/api_lib.c ****     } else {
 547:Source\LwIP\src\api/api_lib.c ****       API_MSG_VAR_REF(msg).msg.r.len = 1;
 548:Source\LwIP\src\api/api_lib.c ****     }
 549:Source\LwIP\src\api/api_lib.c **** 
 550:Source\LwIP\src\api/api_lib.c ****     /* don't care for the return value of lwip_netconn_do_recv */
 551:Source\LwIP\src\api/api_lib.c ****     netconn_apimsg(lwip_netconn_do_recv, &API_MSG_VAR_REF(msg));
 552:Source\LwIP\src\api/api_lib.c ****     API_MSG_VAR_FREE(msg);
 553:Source\LwIP\src\api/api_lib.c **** 
 554:Source\LwIP\src\api/api_lib.c ****     /* If we are closed, we indicate that we no longer wish to use the socket */
 555:Source\LwIP\src\api/api_lib.c ****     if (buf == NULL) {
 556:Source\LwIP\src\api/api_lib.c ****       API_EVENT(conn, NETCONN_EVT_RCVMINUS, 0);
 557:Source\LwIP\src\api/api_lib.c ****       if (conn->pcb.ip == NULL) {
 558:Source\LwIP\src\api/api_lib.c ****         /* race condition: RST during recv */
 559:Source\LwIP\src\api/api_lib.c ****         return conn->last_err == ERR_OK ? ERR_RST : conn->last_err;
 560:Source\LwIP\src\api/api_lib.c ****       }
 561:Source\LwIP\src\api/api_lib.c ****       /* RX side is closed, so deallocate the recvmbox */
ARM GAS  C:\Users\Phuong\AppData\Local\Temp\ccVcCKxe.s 			page 12


 562:Source\LwIP\src\api/api_lib.c ****       netconn_close_shutdown(conn, NETCONN_SHUT_RD);
 563:Source\LwIP\src\api/api_lib.c ****       /* Don' store ERR_CLSD as conn->err since we are only half-closed */
 564:Source\LwIP\src\api/api_lib.c ****       return ERR_CLSD;
 565:Source\LwIP\src\api/api_lib.c ****     }
 566:Source\LwIP\src\api/api_lib.c ****     len = ((struct pbuf *)buf)->tot_len;
 567:Source\LwIP\src\api/api_lib.c ****   }
 568:Source\LwIP\src\api/api_lib.c **** #endif /* LWIP_TCP */
 569:Source\LwIP\src\api/api_lib.c **** #if LWIP_TCP && (LWIP_UDP || LWIP_RAW)
 570:Source\LwIP\src\api/api_lib.c ****   else
 571:Source\LwIP\src\api/api_lib.c **** #endif /* LWIP_TCP && (LWIP_UDP || LWIP_RAW) */
 572:Source\LwIP\src\api/api_lib.c **** #if (LWIP_UDP || LWIP_RAW)
 573:Source\LwIP\src\api/api_lib.c ****   {
 574:Source\LwIP\src\api/api_lib.c ****     LWIP_ASSERT("buf != NULL", buf != NULL);
 575:Source\LwIP\src\api/api_lib.c ****     len = netbuf_len((struct netbuf*)buf);
 576:Source\LwIP\src\api/api_lib.c ****   }
 577:Source\LwIP\src\api/api_lib.c **** #endif /* (LWIP_UDP || LWIP_RAW) */
 578:Source\LwIP\src\api/api_lib.c **** 
 579:Source\LwIP\src\api/api_lib.c **** #if LWIP_SO_RCVBUF
 580:Source\LwIP\src\api/api_lib.c ****   SYS_ARCH_DEC(conn->recv_avail, len);
 581:Source\LwIP\src\api/api_lib.c **** #endif /* LWIP_SO_RCVBUF */
 582:Source\LwIP\src\api/api_lib.c ****   /* Register event with callback */
 583:Source\LwIP\src\api/api_lib.c ****   API_EVENT(conn, NETCONN_EVT_RCVMINUS, len);
 584:Source\LwIP\src\api/api_lib.c **** 
 585:Source\LwIP\src\api/api_lib.c ****   LWIP_DEBUGF(API_LIB_DEBUG, ("netconn_recv_data: received %p, len=%"U16_F"\n", buf, len));
 586:Source\LwIP\src\api/api_lib.c **** 
 587:Source\LwIP\src\api/api_lib.c ****   *new_buf = buf;
 588:Source\LwIP\src\api/api_lib.c ****   /* don't set conn->last_err: it's only ERR_OK, anyway */
 589:Source\LwIP\src\api/api_lib.c ****   return ERR_OK;
 590:Source\LwIP\src\api/api_lib.c **** }
 591:Source\LwIP\src\api/api_lib.c **** 
 592:Source\LwIP\src\api/api_lib.c **** /**
 593:Source\LwIP\src\api/api_lib.c ****  * @ingroup netconn_tcp
 594:Source\LwIP\src\api/api_lib.c ****  * Receive data (in form of a pbuf) from a TCP netconn
 595:Source\LwIP\src\api/api_lib.c ****  *
 596:Source\LwIP\src\api/api_lib.c ****  * @param conn the netconn from which to receive data
 597:Source\LwIP\src\api/api_lib.c ****  * @param new_buf pointer where a new pbuf is stored when received data
 598:Source\LwIP\src\api/api_lib.c ****  * @return ERR_OK if data has been received, an error code otherwise (timeout,
 599:Source\LwIP\src\api/api_lib.c ****  *                memory error or another error)
 600:Source\LwIP\src\api/api_lib.c ****  *         ERR_ARG if conn is not a TCP netconn
 601:Source\LwIP\src\api/api_lib.c ****  */
 602:Source\LwIP\src\api/api_lib.c **** err_t
 603:Source\LwIP\src\api/api_lib.c **** netconn_recv_tcp_pbuf(struct netconn *conn, struct pbuf **new_buf)
 604:Source\LwIP\src\api/api_lib.c **** {
 605:Source\LwIP\src\api/api_lib.c ****   LWIP_ERROR("netconn_recv: invalid conn", (conn != NULL) &&
 606:Source\LwIP\src\api/api_lib.c ****              NETCONNTYPE_GROUP(netconn_type(conn)) == NETCONN_TCP, return ERR_ARG;);
 607:Source\LwIP\src\api/api_lib.c **** 
 608:Source\LwIP\src\api/api_lib.c ****   return netconn_recv_data(conn, (void **)new_buf);
 609:Source\LwIP\src\api/api_lib.c **** }
 610:Source\LwIP\src\api/api_lib.c **** 
 611:Source\LwIP\src\api/api_lib.c **** /**
 612:Source\LwIP\src\api/api_lib.c ****  * @ingroup netconn_common
 613:Source\LwIP\src\api/api_lib.c ****  * Receive data (in form of a netbuf containing a packet buffer) from a netconn
 614:Source\LwIP\src\api/api_lib.c ****  *
 615:Source\LwIP\src\api/api_lib.c ****  * @param conn the netconn from which to receive data
 616:Source\LwIP\src\api/api_lib.c ****  * @param new_buf pointer where a new netbuf is stored when received data
 617:Source\LwIP\src\api/api_lib.c ****  * @return ERR_OK if data has been received, an error code otherwise (timeout,
 618:Source\LwIP\src\api/api_lib.c ****  *                memory error or another error)
ARM GAS  C:\Users\Phuong\AppData\Local\Temp\ccVcCKxe.s 			page 13


 619:Source\LwIP\src\api/api_lib.c ****  */
 620:Source\LwIP\src\api/api_lib.c **** err_t
 621:Source\LwIP\src\api/api_lib.c **** netconn_recv(struct netconn *conn, struct netbuf **new_buf)
 622:Source\LwIP\src\api/api_lib.c **** {
 623:Source\LwIP\src\api/api_lib.c **** #if LWIP_TCP
 624:Source\LwIP\src\api/api_lib.c ****   struct netbuf *buf = NULL;
 625:Source\LwIP\src\api/api_lib.c ****   err_t err;
 626:Source\LwIP\src\api/api_lib.c **** #endif /* LWIP_TCP */
 627:Source\LwIP\src\api/api_lib.c **** 
 628:Source\LwIP\src\api/api_lib.c ****   LWIP_ERROR("netconn_recv: invalid pointer", (new_buf != NULL), return ERR_ARG;);
 629:Source\LwIP\src\api/api_lib.c ****   *new_buf = NULL;
 630:Source\LwIP\src\api/api_lib.c ****   LWIP_ERROR("netconn_recv: invalid conn",    (conn != NULL),    return ERR_ARG;);
 631:Source\LwIP\src\api/api_lib.c **** 
 632:Source\LwIP\src\api/api_lib.c **** #if LWIP_TCP
 633:Source\LwIP\src\api/api_lib.c **** #if (LWIP_UDP || LWIP_RAW)
 634:Source\LwIP\src\api/api_lib.c ****   if (NETCONNTYPE_GROUP(conn->type) == NETCONN_TCP)
 635:Source\LwIP\src\api/api_lib.c **** #endif /* (LWIP_UDP || LWIP_RAW) */
 636:Source\LwIP\src\api/api_lib.c ****   {
 637:Source\LwIP\src\api/api_lib.c ****     struct pbuf *p = NULL;
 638:Source\LwIP\src\api/api_lib.c ****     /* This is not a listening netconn, since recvmbox is set */
 639:Source\LwIP\src\api/api_lib.c **** 
 640:Source\LwIP\src\api/api_lib.c ****     buf = (struct netbuf *)memp_malloc(MEMP_NETBUF);
 641:Source\LwIP\src\api/api_lib.c ****     if (buf == NULL) {
 642:Source\LwIP\src\api/api_lib.c ****       return ERR_MEM;
 643:Source\LwIP\src\api/api_lib.c ****     }
 644:Source\LwIP\src\api/api_lib.c **** 
 645:Source\LwIP\src\api/api_lib.c ****     err = netconn_recv_data(conn, (void **)&p);
 646:Source\LwIP\src\api/api_lib.c ****     if (err != ERR_OK) {
 647:Source\LwIP\src\api/api_lib.c ****       memp_free(MEMP_NETBUF, buf);
 648:Source\LwIP\src\api/api_lib.c ****       return err;
 649:Source\LwIP\src\api/api_lib.c ****     }
 650:Source\LwIP\src\api/api_lib.c ****     LWIP_ASSERT("p != NULL", p != NULL);
 651:Source\LwIP\src\api/api_lib.c **** 
 652:Source\LwIP\src\api/api_lib.c ****     buf->p = p;
 653:Source\LwIP\src\api/api_lib.c ****     buf->ptr = p;
 654:Source\LwIP\src\api/api_lib.c ****     buf->port = 0;
 655:Source\LwIP\src\api/api_lib.c ****     ip_addr_set_zero(&buf->addr);
 656:Source\LwIP\src\api/api_lib.c ****     *new_buf = buf;
 657:Source\LwIP\src\api/api_lib.c ****     /* don't set conn->last_err: it's only ERR_OK, anyway */
 658:Source\LwIP\src\api/api_lib.c ****     return ERR_OK;
 659:Source\LwIP\src\api/api_lib.c ****   }
 660:Source\LwIP\src\api/api_lib.c **** #endif /* LWIP_TCP */
 661:Source\LwIP\src\api/api_lib.c **** #if LWIP_TCP && (LWIP_UDP || LWIP_RAW)
 662:Source\LwIP\src\api/api_lib.c ****   else
 663:Source\LwIP\src\api/api_lib.c **** #endif /* LWIP_TCP && (LWIP_UDP || LWIP_RAW) */
 664:Source\LwIP\src\api/api_lib.c ****   {
 665:Source\LwIP\src\api/api_lib.c **** #if (LWIP_UDP || LWIP_RAW)
 666:Source\LwIP\src\api/api_lib.c ****     return netconn_recv_data(conn, (void **)new_buf);
 667:Source\LwIP\src\api/api_lib.c **** #endif /* (LWIP_UDP || LWIP_RAW) */
 668:Source\LwIP\src\api/api_lib.c ****   }
 669:Source\LwIP\src\api/api_lib.c **** }
 670:Source\LwIP\src\api/api_lib.c **** 
 671:Source\LwIP\src\api/api_lib.c **** /**
 672:Source\LwIP\src\api/api_lib.c ****  * @ingroup netconn_udp
 673:Source\LwIP\src\api/api_lib.c ****  * Send data (in form of a netbuf) to a specific remote IP address and port.
 674:Source\LwIP\src\api/api_lib.c ****  * Only to be used for UDP and RAW netconns (not TCP).
 675:Source\LwIP\src\api/api_lib.c ****  *
ARM GAS  C:\Users\Phuong\AppData\Local\Temp\ccVcCKxe.s 			page 14


 676:Source\LwIP\src\api/api_lib.c ****  * @param conn the netconn over which to send data
 677:Source\LwIP\src\api/api_lib.c ****  * @param buf a netbuf containing the data to send
 678:Source\LwIP\src\api/api_lib.c ****  * @param addr the remote IP address to which to send the data
 679:Source\LwIP\src\api/api_lib.c ****  * @param port the remote port to which to send the data
 680:Source\LwIP\src\api/api_lib.c ****  * @return ERR_OK if data was sent, any other err_t on error
 681:Source\LwIP\src\api/api_lib.c ****  */
 682:Source\LwIP\src\api/api_lib.c **** err_t
 683:Source\LwIP\src\api/api_lib.c **** netconn_sendto(struct netconn *conn, struct netbuf *buf, const ip_addr_t *addr, u16_t port)
 684:Source\LwIP\src\api/api_lib.c **** {
 685:Source\LwIP\src\api/api_lib.c ****   if (buf != NULL) {
 686:Source\LwIP\src\api/api_lib.c ****     ip_addr_set(&buf->addr, addr);
 687:Source\LwIP\src\api/api_lib.c ****     buf->port = port;
 688:Source\LwIP\src\api/api_lib.c ****     return netconn_send(conn, buf);
 689:Source\LwIP\src\api/api_lib.c ****   }
 690:Source\LwIP\src\api/api_lib.c ****   return ERR_VAL;
 691:Source\LwIP\src\api/api_lib.c **** }
 692:Source\LwIP\src\api/api_lib.c **** 
 693:Source\LwIP\src\api/api_lib.c **** /**
 694:Source\LwIP\src\api/api_lib.c ****  * @ingroup netconn_udp
 695:Source\LwIP\src\api/api_lib.c ****  * Send data over a UDP or RAW netconn (that is already connected).
 696:Source\LwIP\src\api/api_lib.c ****  *
 697:Source\LwIP\src\api/api_lib.c ****  * @param conn the UDP or RAW netconn over which to send data
 698:Source\LwIP\src\api/api_lib.c ****  * @param buf a netbuf containing the data to send
 699:Source\LwIP\src\api/api_lib.c ****  * @return ERR_OK if data was sent, any other err_t on error
 700:Source\LwIP\src\api/api_lib.c ****  */
 701:Source\LwIP\src\api/api_lib.c **** err_t
 702:Source\LwIP\src\api/api_lib.c **** netconn_send(struct netconn *conn, struct netbuf *buf)
 703:Source\LwIP\src\api/api_lib.c **** {
 704:Source\LwIP\src\api/api_lib.c ****   API_MSG_VAR_DECLARE(msg);
 705:Source\LwIP\src\api/api_lib.c ****   err_t err;
 706:Source\LwIP\src\api/api_lib.c **** 
 707:Source\LwIP\src\api/api_lib.c ****   LWIP_ERROR("netconn_send: invalid conn",  (conn != NULL), return ERR_ARG;);
 708:Source\LwIP\src\api/api_lib.c **** 
 709:Source\LwIP\src\api/api_lib.c ****   LWIP_DEBUGF(API_LIB_DEBUG, ("netconn_send: sending %"U16_F" bytes\n", buf->p->tot_len));
 710:Source\LwIP\src\api/api_lib.c **** 
 711:Source\LwIP\src\api/api_lib.c ****   API_MSG_VAR_ALLOC(msg);
 712:Source\LwIP\src\api/api_lib.c ****   API_MSG_VAR_REF(msg).conn = conn;
 713:Source\LwIP\src\api/api_lib.c ****   API_MSG_VAR_REF(msg).msg.b = buf;
 714:Source\LwIP\src\api/api_lib.c ****   err = netconn_apimsg(lwip_netconn_do_send, &API_MSG_VAR_REF(msg));
 715:Source\LwIP\src\api/api_lib.c ****   API_MSG_VAR_FREE(msg);
 716:Source\LwIP\src\api/api_lib.c **** 
 717:Source\LwIP\src\api/api_lib.c ****   return err;
 718:Source\LwIP\src\api/api_lib.c **** }
 719:Source\LwIP\src\api/api_lib.c **** 
 720:Source\LwIP\src\api/api_lib.c **** /**
 721:Source\LwIP\src\api/api_lib.c ****  * @ingroup netconn_tcp
 722:Source\LwIP\src\api/api_lib.c ****  * Send data over a TCP netconn.
 723:Source\LwIP\src\api/api_lib.c ****  *
 724:Source\LwIP\src\api/api_lib.c ****  * @param conn the TCP netconn over which to send data
 725:Source\LwIP\src\api/api_lib.c ****  * @param dataptr pointer to the application buffer that contains the data to send
 726:Source\LwIP\src\api/api_lib.c ****  * @param size size of the application data to send
 727:Source\LwIP\src\api/api_lib.c ****  * @param apiflags combination of following flags :
 728:Source\LwIP\src\api/api_lib.c ****  * - NETCONN_COPY: data will be copied into memory belonging to the stack
 729:Source\LwIP\src\api/api_lib.c ****  * - NETCONN_MORE: for TCP connection, PSH flag will be set on last segment sent
 730:Source\LwIP\src\api/api_lib.c ****  * - NETCONN_DONTBLOCK: only write the data if all data can be written at once
 731:Source\LwIP\src\api/api_lib.c ****  * @param bytes_written pointer to a location that receives the number of written bytes
 732:Source\LwIP\src\api/api_lib.c ****  * @return ERR_OK if data was sent, any other err_t on error
ARM GAS  C:\Users\Phuong\AppData\Local\Temp\ccVcCKxe.s 			page 15


 733:Source\LwIP\src\api/api_lib.c ****  */
 734:Source\LwIP\src\api/api_lib.c **** err_t
 735:Source\LwIP\src\api/api_lib.c **** netconn_write_partly(struct netconn *conn, const void *dataptr, size_t size,
 736:Source\LwIP\src\api/api_lib.c ****                      u8_t apiflags, size_t *bytes_written)
 737:Source\LwIP\src\api/api_lib.c **** {
 738:Source\LwIP\src\api/api_lib.c ****   API_MSG_VAR_DECLARE(msg);
 739:Source\LwIP\src\api/api_lib.c ****   err_t err;
 740:Source\LwIP\src\api/api_lib.c ****   u8_t dontblock;
 741:Source\LwIP\src\api/api_lib.c **** 
 742:Source\LwIP\src\api/api_lib.c ****   LWIP_ERROR("netconn_write: invalid conn",  (conn != NULL), return ERR_ARG;);
 743:Source\LwIP\src\api/api_lib.c ****   LWIP_ERROR("netconn_write: invalid conn->type",  (NETCONNTYPE_GROUP(conn->type)== NETCONN_TCP), r
 744:Source\LwIP\src\api/api_lib.c ****   if (size == 0) {
 745:Source\LwIP\src\api/api_lib.c ****     return ERR_OK;
 746:Source\LwIP\src\api/api_lib.c ****   }
 747:Source\LwIP\src\api/api_lib.c ****   dontblock = netconn_is_nonblocking(conn) || (apiflags & NETCONN_DONTBLOCK);
 748:Source\LwIP\src\api/api_lib.c **** #if LWIP_SO_SNDTIMEO
 749:Source\LwIP\src\api/api_lib.c ****   if (conn->send_timeout != 0) {
 750:Source\LwIP\src\api/api_lib.c ****     dontblock = 1;
 751:Source\LwIP\src\api/api_lib.c ****   }
 752:Source\LwIP\src\api/api_lib.c **** #endif /* LWIP_SO_SNDTIMEO */
 753:Source\LwIP\src\api/api_lib.c ****   if (dontblock && !bytes_written) {
 754:Source\LwIP\src\api/api_lib.c ****     /* This implies netconn_write() cannot be used for non-blocking send, since
 755:Source\LwIP\src\api/api_lib.c ****        it has no way to return the number of bytes written. */
 756:Source\LwIP\src\api/api_lib.c ****     return ERR_VAL;
 757:Source\LwIP\src\api/api_lib.c ****   }
 758:Source\LwIP\src\api/api_lib.c **** 
 759:Source\LwIP\src\api/api_lib.c ****   API_MSG_VAR_ALLOC(msg);
 760:Source\LwIP\src\api/api_lib.c ****   /* non-blocking write sends as much  */
 761:Source\LwIP\src\api/api_lib.c ****   API_MSG_VAR_REF(msg).conn = conn;
 762:Source\LwIP\src\api/api_lib.c ****   API_MSG_VAR_REF(msg).msg.w.dataptr = dataptr;
 763:Source\LwIP\src\api/api_lib.c ****   API_MSG_VAR_REF(msg).msg.w.apiflags = apiflags;
 764:Source\LwIP\src\api/api_lib.c ****   API_MSG_VAR_REF(msg).msg.w.len = size;
 765:Source\LwIP\src\api/api_lib.c **** #if LWIP_SO_SNDTIMEO
 766:Source\LwIP\src\api/api_lib.c ****   if (conn->send_timeout != 0) {
 767:Source\LwIP\src\api/api_lib.c ****     /* get the time we started, which is later compared to
 768:Source\LwIP\src\api/api_lib.c ****         sys_now() + conn->send_timeout */
 769:Source\LwIP\src\api/api_lib.c ****     API_MSG_VAR_REF(msg).msg.w.time_started = sys_now();
 770:Source\LwIP\src\api/api_lib.c ****   } else {
 771:Source\LwIP\src\api/api_lib.c ****     API_MSG_VAR_REF(msg).msg.w.time_started = 0;
 772:Source\LwIP\src\api/api_lib.c ****   }
 773:Source\LwIP\src\api/api_lib.c **** #endif /* LWIP_SO_SNDTIMEO */
 774:Source\LwIP\src\api/api_lib.c **** 
 775:Source\LwIP\src\api/api_lib.c ****   /* For locking the core: this _can_ be delayed on low memory/low send buffer,
 776:Source\LwIP\src\api/api_lib.c ****      but if it is, this is done inside api_msg.c:do_write(), so we can use the
 777:Source\LwIP\src\api/api_lib.c ****      non-blocking version here. */
 778:Source\LwIP\src\api/api_lib.c ****   err = netconn_apimsg(lwip_netconn_do_write, &API_MSG_VAR_REF(msg));
 779:Source\LwIP\src\api/api_lib.c ****   if ((err == ERR_OK) && (bytes_written != NULL)) {
 780:Source\LwIP\src\api/api_lib.c ****     if (dontblock) {
 781:Source\LwIP\src\api/api_lib.c ****       /* nonblocking write: maybe the data has been sent partly */
 782:Source\LwIP\src\api/api_lib.c ****       *bytes_written = API_MSG_VAR_REF(msg).msg.w.len;
 783:Source\LwIP\src\api/api_lib.c ****     } else {
 784:Source\LwIP\src\api/api_lib.c ****       /* blocking call succeeded: all data has been sent if it */
 785:Source\LwIP\src\api/api_lib.c ****       *bytes_written = size;
 786:Source\LwIP\src\api/api_lib.c ****     }
 787:Source\LwIP\src\api/api_lib.c ****   }
 788:Source\LwIP\src\api/api_lib.c ****   API_MSG_VAR_FREE(msg);
 789:Source\LwIP\src\api/api_lib.c **** 
ARM GAS  C:\Users\Phuong\AppData\Local\Temp\ccVcCKxe.s 			page 16


 790:Source\LwIP\src\api/api_lib.c ****   return err;
 791:Source\LwIP\src\api/api_lib.c **** }
 792:Source\LwIP\src\api/api_lib.c **** 
 793:Source\LwIP\src\api/api_lib.c **** /**
 794:Source\LwIP\src\api/api_lib.c ****  * @ingroup netconn_tcp
 795:Source\LwIP\src\api/api_lib.c ****  * Close or shutdown a TCP netconn (doesn't delete it).
 796:Source\LwIP\src\api/api_lib.c ****  *
 797:Source\LwIP\src\api/api_lib.c ****  * @param conn the TCP netconn to close or shutdown
 798:Source\LwIP\src\api/api_lib.c ****  * @param how fully close or only shutdown one side?
 799:Source\LwIP\src\api/api_lib.c ****  * @return ERR_OK if the netconn was closed, any other err_t on error
 800:Source\LwIP\src\api/api_lib.c ****  */
 801:Source\LwIP\src\api/api_lib.c **** static err_t
 802:Source\LwIP\src\api/api_lib.c **** netconn_close_shutdown(struct netconn *conn, u8_t how)
 803:Source\LwIP\src\api/api_lib.c **** {
  67              		.loc 1 803 0
  68              		.cfi_startproc
  69              		@ args = 0, pretend = 0, frame = 24
  70              		@ frame_needed = 0, uses_anonymous_args = 0
  71              	.LVL4:
  72 0000 00B5     		push	{lr}
  73              		.cfi_def_cfa_offset 4
  74              		.cfi_offset 14, -4
  75 0002 87B0     		sub	sp, sp, #28
  76              		.cfi_def_cfa_offset 32
 804:Source\LwIP\src\api/api_lib.c ****   API_MSG_VAR_DECLARE(msg);
 805:Source\LwIP\src\api/api_lib.c ****   err_t err;
 806:Source\LwIP\src\api/api_lib.c ****   LWIP_UNUSED_ARG(how);
 807:Source\LwIP\src\api/api_lib.c **** 
 808:Source\LwIP\src\api/api_lib.c ****   LWIP_ERROR("netconn_close: invalid conn",  (conn != NULL), return ERR_ARG;);
  77              		.loc 1 808 0
  78 0004 0028     		cmp	r0, #0
  79 0006 09D0     		beq	.L6
 809:Source\LwIP\src\api/api_lib.c **** 
 810:Source\LwIP\src\api/api_lib.c ****   API_MSG_VAR_ALLOC(msg);
 811:Source\LwIP\src\api/api_lib.c ****   API_MSG_VAR_REF(msg).conn = conn;
  80              		.loc 1 811 0
  81 0008 01AB     		add	r3, sp, #4
  82 000a 0190     		str	r0, [sp, #4]
 812:Source\LwIP\src\api/api_lib.c **** #if LWIP_TCP
 813:Source\LwIP\src\api/api_lib.c ****   /* shutting down both ends is the same as closing */
 814:Source\LwIP\src\api/api_lib.c ****   API_MSG_VAR_REF(msg).msg.sd.shut = how;
  83              		.loc 1 814 0
  84 000c 1972     		strb	r1, [r3, #8]
 815:Source\LwIP\src\api/api_lib.c **** #if LWIP_SO_SNDTIMEO || LWIP_SO_LINGER
 816:Source\LwIP\src\api/api_lib.c ****   /* get the time we started, which is later compared to
 817:Source\LwIP\src\api/api_lib.c ****      sys_now() + conn->send_timeout */
 818:Source\LwIP\src\api/api_lib.c ****   API_MSG_VAR_REF(msg).msg.sd.time_started = sys_now();
 819:Source\LwIP\src\api/api_lib.c **** #else /* LWIP_SO_SNDTIMEO || LWIP_SO_LINGER */
 820:Source\LwIP\src\api/api_lib.c ****   API_MSG_VAR_REF(msg).msg.sd.polls_left =
  85              		.loc 1 820 0
  86 000e 2922     		movs	r2, #41
  87 0010 5A72     		strb	r2, [r3, #9]
 821:Source\LwIP\src\api/api_lib.c ****     ((LWIP_TCP_CLOSE_TIMEOUT_MS_DEFAULT + TCP_SLOW_INTERVAL - 1) / TCP_SLOW_INTERVAL) + 1;
 822:Source\LwIP\src\api/api_lib.c **** #endif /* LWIP_SO_SNDTIMEO || LWIP_SO_LINGER */
 823:Source\LwIP\src\api/api_lib.c **** #endif /* LWIP_TCP */
 824:Source\LwIP\src\api/api_lib.c ****   err = netconn_apimsg(lwip_netconn_do_close, &API_MSG_VAR_REF(msg));
  88              		.loc 1 824 0
ARM GAS  C:\Users\Phuong\AppData\Local\Temp\ccVcCKxe.s 			page 17


  89 0012 1900     		movs	r1, r3
  90              	.LVL5:
  91 0014 0348     		ldr	r0, .L7
  92              	.LVL6:
  93 0016 FFF7FEFF 		bl	netconn_apimsg
  94              	.LVL7:
 825:Source\LwIP\src\api/api_lib.c ****   API_MSG_VAR_FREE(msg);
 826:Source\LwIP\src\api/api_lib.c **** 
 827:Source\LwIP\src\api/api_lib.c ****   return err;
  95              		.loc 1 827 0
  96 001a 01E0     		b	.L5
  97              	.LVL8:
  98              	.L6:
 808:Source\LwIP\src\api/api_lib.c **** 
  99              		.loc 1 808 0
 100 001c 1020     		movs	r0, #16
 101              	.LVL9:
 102 001e 4042     		rsbs	r0, r0, #0
 103              	.LVL10:
 104              	.L5:
 828:Source\LwIP\src\api/api_lib.c **** }
 105              		.loc 1 828 0
 106 0020 07B0     		add	sp, sp, #28
 107              		@ sp needed
 108 0022 00BD     		pop	{pc}
 109              	.L8:
 110              		.align	2
 111              	.L7:
 112 0024 00000000 		.word	lwip_netconn_do_close
 113              		.cfi_endproc
 114              	.LFE68:
 115              		.size	netconn_close_shutdown, .-netconn_close_shutdown
 116              		.section	.text.netconn_recv_data,"ax",%progbits
 117              		.align	2
 118              		.code	16
 119              		.thumb_func
 120              		.type	netconn_recv_data, %function
 121              	netconn_recv_data:
 122              	.LFB62:
 477:Source\LwIP\src\api/api_lib.c ****   void *buf = NULL;
 123              		.loc 1 477 0
 124              		.cfi_startproc
 125              		@ args = 0, pretend = 0, frame = 24
 126              		@ frame_needed = 0, uses_anonymous_args = 0
 127              	.LVL11:
 128 0000 70B5     		push	{r4, r5, r6, lr}
 129              		.cfi_def_cfa_offset 16
 130              		.cfi_offset 4, -16
 131              		.cfi_offset 5, -12
 132              		.cfi_offset 6, -8
 133              		.cfi_offset 14, -4
 134 0002 86B0     		sub	sp, sp, #24
 135              		.cfi_def_cfa_offset 40
 136 0004 0400     		movs	r4, r0
 137 0006 0D00     		movs	r5, r1
 478:Source\LwIP\src\api/api_lib.c ****   u16_t len;
 138              		.loc 1 478 0
ARM GAS  C:\Users\Phuong\AppData\Local\Temp\ccVcCKxe.s 			page 18


 139 0008 0023     		movs	r3, #0
 140 000a 0593     		str	r3, [sp, #20]
 487:Source\LwIP\src\api/api_lib.c ****   *new_buf = NULL;
 141              		.loc 1 487 0
 142 000c 0029     		cmp	r1, #0
 143 000e 63D0     		beq	.L20
 488:Source\LwIP\src\api/api_lib.c ****   LWIP_ERROR("netconn_recv: invalid conn",    (conn != NULL),    return ERR_ARG;);
 144              		.loc 1 488 0
 145 0010 0B60     		str	r3, [r1]
 489:Source\LwIP\src\api/api_lib.c **** #if LWIP_TCP
 146              		.loc 1 489 0
 147 0012 0028     		cmp	r0, #0
 148 0014 63D0     		beq	.L21
 492:Source\LwIP\src\api/api_lib.c **** #endif /* (LWIP_UDP || LWIP_RAW) */
 149              		.loc 1 492 0
 150 0016 0378     		ldrb	r3, [r0]
 151 0018 0F22     		movs	r2, #15
 152 001a 9343     		bics	r3, r2
 153 001c 102B     		cmp	r3, #16
 154 001e 0DD1     		bne	.L11
 495:Source\LwIP\src\api/api_lib.c ****       /* This happens when calling this function after receiving FIN */
 155              		.loc 1 495 0
 156 0020 1030     		adds	r0, r0, #16
 157              	.LVL12:
 158 0022 FFF7FEFF 		bl	sys_mbox_valid
 159              	.LVL13:
 160 0026 0028     		cmp	r0, #0
 161 0028 08D1     		bne	.L11
 497:Source\LwIP\src\api/api_lib.c ****     }
 162              		.loc 1 497 0
 163 002a 2000     		movs	r0, r4
 164 002c 1430     		adds	r0, r0, #20
 165 002e FFF7FEFF 		bl	sys_mbox_valid
 166              	.LVL14:
 167 0032 0028     		cmp	r0, #0
 168 0034 56D0     		beq	.L22
 169 0036 0B20     		movs	r0, #11
 170 0038 4042     		rsbs	r0, r0, #0
 171 003a 5BE0     		b	.L10
 172              	.L11:
 501:Source\LwIP\src\api/api_lib.c **** 
 173              		.loc 1 501 0
 174 003c 2600     		movs	r6, r4
 175 003e 1036     		adds	r6, r6, #16
 176 0040 3000     		movs	r0, r6
 177 0042 FFF7FEFF 		bl	sys_mbox_valid
 178              	.LVL15:
 179 0046 0028     		cmp	r0, #0
 180 0048 4FD0     		beq	.L23
 503:Source\LwIP\src\api/api_lib.c ****     /* don't recv on fatal errors: this might block the application task
 181              		.loc 1 503 0
 182 004a 0820     		movs	r0, #8
 183 004c 2056     		ldrsb	r0, [r4, r0]
 184 004e 0300     		movs	r3, r0
 185 0050 0C33     		adds	r3, r3, #12
 186 0052 4FDB     		blt	.L10
 520:Source\LwIP\src\api/api_lib.c **** #if LWIP_TCP
ARM GAS  C:\Users\Phuong\AppData\Local\Temp\ccVcCKxe.s 			page 19


 187              		.loc 1 520 0
 188 0054 E269     		ldr	r2, [r4, #28]
 189 0056 05A9     		add	r1, sp, #20
 190 0058 3000     		movs	r0, r6
 191 005a FFF7FEFF 		bl	sys_arch_mbox_fetch
 192              	.LVL16:
 193 005e 431C     		adds	r3, r0, #1
 194 0060 46D0     		beq	.L24
 537:Source\LwIP\src\api/api_lib.c **** #endif /* (LWIP_UDP || LWIP_RAW) */
 195              		.loc 1 537 0
 196 0062 2378     		ldrb	r3, [r4]
 197 0064 0F22     		movs	r2, #15
 198 0066 9343     		bics	r3, r2
 199 0068 102B     		cmp	r3, #16
 200 006a 28D1     		bne	.L12
 543:Source\LwIP\src\api/api_lib.c ****     if (buf != NULL) {
 201              		.loc 1 543 0
 202 006c 0094     		str	r4, [sp]
 544:Source\LwIP\src\api/api_lib.c ****       API_MSG_VAR_REF(msg).msg.r.len = ((struct pbuf *)buf)->tot_len;
 203              		.loc 1 544 0
 204 006e 059B     		ldr	r3, [sp, #20]
 205 0070 002B     		cmp	r3, #0
 206 0072 02D0     		beq	.L13
 545:Source\LwIP\src\api/api_lib.c ****     } else {
 207              		.loc 1 545 0
 208 0074 1B89     		ldrh	r3, [r3, #8]
 209 0076 0293     		str	r3, [sp, #8]
 210 0078 01E0     		b	.L14
 211              	.L13:
 547:Source\LwIP\src\api/api_lib.c ****     }
 212              		.loc 1 547 0
 213 007a 0123     		movs	r3, #1
 214 007c 0293     		str	r3, [sp, #8]
 215              	.L14:
 551:Source\LwIP\src\api/api_lib.c ****     API_MSG_VAR_FREE(msg);
 216              		.loc 1 551 0
 217 007e 6946     		mov	r1, sp
 218 0080 1D48     		ldr	r0, .L25
 219 0082 FFF7FEFF 		bl	netconn_apimsg
 220              	.LVL17:
 555:Source\LwIP\src\api/api_lib.c ****       API_EVENT(conn, NETCONN_EVT_RCVMINUS, 0);
 221              		.loc 1 555 0
 222 0086 059B     		ldr	r3, [sp, #20]
 223 0088 002B     		cmp	r3, #0
 224 008a 16D1     		bne	.L15
 556:Source\LwIP\src\api/api_lib.c ****       if (conn->pcb.ip == NULL) {
 225              		.loc 1 556 0
 226 008c E36A     		ldr	r3, [r4, #44]
 227 008e 002B     		cmp	r3, #0
 228 0090 03D0     		beq	.L16
 556:Source\LwIP\src\api/api_lib.c ****       if (conn->pcb.ip == NULL) {
 229              		.loc 1 556 0 is_stmt 0 discriminator 1
 230 0092 0022     		movs	r2, #0
 231 0094 0121     		movs	r1, #1
 232 0096 2000     		movs	r0, r4
 233 0098 9847     		blx	r3
 234              	.LVL18:
ARM GAS  C:\Users\Phuong\AppData\Local\Temp\ccVcCKxe.s 			page 20


 235              	.L16:
 557:Source\LwIP\src\api/api_lib.c ****         /* race condition: RST during recv */
 236              		.loc 1 557 0 is_stmt 1
 237 009a 6368     		ldr	r3, [r4, #4]
 238 009c 002B     		cmp	r3, #0
 239 009e 05D1     		bne	.L17
 559:Source\LwIP\src\api/api_lib.c ****       }
 240              		.loc 1 559 0
 241 00a0 0820     		movs	r0, #8
 242 00a2 2056     		ldrsb	r0, [r4, r0]
 243 00a4 0028     		cmp	r0, #0
 244 00a6 25D1     		bne	.L10
 245 00a8 0E38     		subs	r0, r0, #14
 246 00aa 23E0     		b	.L10
 247              	.L17:
 562:Source\LwIP\src\api/api_lib.c ****       /* Don' store ERR_CLSD as conn->err since we are only half-closed */
 248              		.loc 1 562 0
 249 00ac 0121     		movs	r1, #1
 250 00ae 2000     		movs	r0, r4
 251 00b0 FFF7FEFF 		bl	netconn_close_shutdown
 252              	.LVL19:
 564:Source\LwIP\src\api/api_lib.c ****     }
 253              		.loc 1 564 0
 254 00b4 0F20     		movs	r0, #15
 255 00b6 4042     		rsbs	r0, r0, #0
 256 00b8 1CE0     		b	.L10
 257              	.L15:
 566:Source\LwIP\src\api/api_lib.c ****   }
 258              		.loc 1 566 0
 259 00ba 1A89     		ldrh	r2, [r3, #8]
 260              	.LVL20:
 261 00bc 02E0     		b	.L18
 262              	.LVL21:
 263              	.L12:
 575:Source\LwIP\src\api/api_lib.c ****   }
 264              		.loc 1 575 0
 265 00be 059B     		ldr	r3, [sp, #20]
 266 00c0 1B68     		ldr	r3, [r3]
 267 00c2 1A89     		ldrh	r2, [r3, #8]
 268              	.LVL22:
 269              	.L18:
 583:Source\LwIP\src\api/api_lib.c **** 
 270              		.loc 1 583 0
 271 00c4 E36A     		ldr	r3, [r4, #44]
 272 00c6 002B     		cmp	r3, #0
 273 00c8 02D0     		beq	.L19
 583:Source\LwIP\src\api/api_lib.c **** 
 274              		.loc 1 583 0 is_stmt 0 discriminator 1
 275 00ca 0121     		movs	r1, #1
 276 00cc 2000     		movs	r0, r4
 277 00ce 9847     		blx	r3
 278              	.LVL23:
 279              	.L19:
 587:Source\LwIP\src\api/api_lib.c ****   /* don't set conn->last_err: it's only ERR_OK, anyway */
 280              		.loc 1 587 0 is_stmt 1
 281 00d0 059B     		ldr	r3, [sp, #20]
 282 00d2 2B60     		str	r3, [r5]
ARM GAS  C:\Users\Phuong\AppData\Local\Temp\ccVcCKxe.s 			page 21


 589:Source\LwIP\src\api/api_lib.c **** }
 283              		.loc 1 589 0
 284 00d4 0020     		movs	r0, #0
 285 00d6 0DE0     		b	.L10
 286              	.LVL24:
 287              	.L20:
 487:Source\LwIP\src\api/api_lib.c ****   *new_buf = NULL;
 288              		.loc 1 487 0
 289 00d8 1020     		movs	r0, #16
 290              	.LVL25:
 291 00da 4042     		rsbs	r0, r0, #0
 292 00dc 0AE0     		b	.L10
 293              	.LVL26:
 294              	.L21:
 489:Source\LwIP\src\api/api_lib.c **** #if LWIP_TCP
 295              		.loc 1 489 0
 296 00de 1020     		movs	r0, #16
 297              	.LVL27:
 298 00e0 4042     		rsbs	r0, r0, #0
 299 00e2 07E0     		b	.L10
 300              	.LVL28:
 301              	.L22:
 497:Source\LwIP\src\api/api_lib.c ****     }
 302              		.loc 1 497 0
 303 00e4 0F20     		movs	r0, #15
 304 00e6 4042     		rsbs	r0, r0, #0
 305 00e8 04E0     		b	.L10
 306              	.L23:
 501:Source\LwIP\src\api/api_lib.c **** 
 307              		.loc 1 501 0
 308 00ea 0B20     		movs	r0, #11
 309 00ec 4042     		rsbs	r0, r0, #0
 310 00ee 01E0     		b	.L10
 311              	.L24:
 529:Source\LwIP\src\api/api_lib.c ****   }
 312              		.loc 1 529 0
 313 00f0 0320     		movs	r0, #3
 314 00f2 4042     		rsbs	r0, r0, #0
 315              	.L10:
 590:Source\LwIP\src\api/api_lib.c **** 
 316              		.loc 1 590 0
 317 00f4 06B0     		add	sp, sp, #24
 318              		@ sp needed
 319              	.LVL29:
 320              	.LVL30:
 321 00f6 70BD     		pop	{r4, r5, r6, pc}
 322              	.L26:
 323              		.align	2
 324              	.L25:
 325 00f8 00000000 		.word	lwip_netconn_do_recv
 326              		.cfi_endproc
 327              	.LFE62:
 328              		.size	netconn_recv_data, .-netconn_recv_data
 329              		.section	.text.netconn_new_with_proto_and_callback,"ax",%progbits
 330              		.align	2
 331              		.global	netconn_new_with_proto_and_callback
 332              		.code	16
ARM GAS  C:\Users\Phuong\AppData\Local\Temp\ccVcCKxe.s 			page 22


 333              		.thumb_func
 334              		.type	netconn_new_with_proto_and_callback, %function
 335              	netconn_new_with_proto_and_callback:
 336              	.LFB54:
 124:Source\LwIP\src\api/api_lib.c ****   struct netconn *conn;
 337              		.loc 1 124 0
 338              		.cfi_startproc
 339              		@ args = 0, pretend = 0, frame = 24
 340              		@ frame_needed = 0, uses_anonymous_args = 0
 341              	.LVL31:
 342 0000 70B5     		push	{r4, r5, r6, lr}
 343              		.cfi_def_cfa_offset 16
 344              		.cfi_offset 4, -16
 345              		.cfi_offset 5, -12
 346              		.cfi_offset 6, -8
 347              		.cfi_offset 14, -4
 348 0002 86B0     		sub	sp, sp, #24
 349              		.cfi_def_cfa_offset 40
 350 0004 0D00     		movs	r5, r1
 129:Source\LwIP\src\api/api_lib.c ****   if (conn != NULL) {
 351              		.loc 1 129 0
 352 0006 1100     		movs	r1, r2
 353              	.LVL32:
 354 0008 FFF7FEFF 		bl	netconn_alloc
 355              	.LVL33:
 356 000c 041E     		subs	r4, r0, #0
 357              	.LVL34:
 130:Source\LwIP\src\api/api_lib.c ****     err_t err;
 358              		.loc 1 130 0
 359 000e 21D0     		beq	.L29
 360              	.LBB2:
 133:Source\LwIP\src\api/api_lib.c ****     API_MSG_VAR_REF(msg).conn = conn;
 361              		.loc 1 133 0
 362 0010 01A9     		add	r1, sp, #4
 363 0012 0D72     		strb	r5, [r1, #8]
 134:Source\LwIP\src\api/api_lib.c ****     err = netconn_apimsg(lwip_netconn_do_newconn, &API_MSG_VAR_REF(msg));
 364              		.loc 1 134 0
 365 0014 0190     		str	r0, [sp, #4]
 135:Source\LwIP\src\api/api_lib.c ****     if (err != ERR_OK) {
 366              		.loc 1 135 0
 367 0016 1148     		ldr	r0, .L31
 368              	.LVL35:
 369 0018 FFF7FEFF 		bl	netconn_apimsg
 370              	.LVL36:
 136:Source\LwIP\src\api/api_lib.c ****       LWIP_ASSERT("freeing conn without freeing pcb", conn->pcb.tcp == NULL);
 371              		.loc 1 136 0
 372 001c 0028     		cmp	r0, #0
 373 001e 1AD0     		beq	.L30
 138:Source\LwIP\src\api/api_lib.c **** #if LWIP_TCP
 374              		.loc 1 138 0
 375 0020 2500     		movs	r5, r4
 376 0022 1035     		adds	r5, r5, #16
 377 0024 2800     		movs	r0, r5
 378              	.LVL37:
 379 0026 FFF7FEFF 		bl	sys_mbox_valid
 380              	.LVL38:
 140:Source\LwIP\src\api/api_lib.c **** #endif /* LWIP_TCP */
ARM GAS  C:\Users\Phuong\AppData\Local\Temp\ccVcCKxe.s 			page 23


 381              		.loc 1 140 0
 382 002a 2000     		movs	r0, r4
 383 002c 1430     		adds	r0, r0, #20
 384 002e FFF7FEFF 		bl	sys_mbox_valid
 385              	.LVL39:
 143:Source\LwIP\src\api/api_lib.c ****       sys_sem_free(&conn->op_completed);
 386              		.loc 1 143 0
 387 0032 2600     		movs	r6, r4
 388 0034 0C36     		adds	r6, r6, #12
 389 0036 3000     		movs	r0, r6
 390 0038 FFF7FEFF 		bl	sys_sem_valid
 391              	.LVL40:
 144:Source\LwIP\src\api/api_lib.c **** #endif /* !LWIP_NETCONN_SEM_PER_THREAD */
 392              		.loc 1 144 0
 393 003c 3000     		movs	r0, r6
 394 003e FFF7FEFF 		bl	sys_sem_free
 395              	.LVL41:
 146:Source\LwIP\src\api/api_lib.c ****       memp_free(MEMP_NETCONN, conn);
 396              		.loc 1 146 0
 397 0042 2800     		movs	r0, r5
 398 0044 FFF7FEFF 		bl	sys_mbox_free
 399              	.LVL42:
 147:Source\LwIP\src\api/api_lib.c ****       API_MSG_VAR_FREE(msg);
 400              		.loc 1 147 0
 401 0048 2100     		movs	r1, r4
 402 004a 0720     		movs	r0, #7
 403 004c FFF7FEFF 		bl	memp_free
 404              	.LVL43:
 149:Source\LwIP\src\api/api_lib.c ****     }
 405              		.loc 1 149 0
 406 0050 0020     		movs	r0, #0
 407 0052 01E0     		b	.L28
 408              	.LVL44:
 409              	.L29:
 410 0054 00E0     		b	.L28
 411              	.LVL45:
 412              	.L30:
 413              	.LBE2:
 153:Source\LwIP\src\api/api_lib.c **** }
 414              		.loc 1 153 0
 415 0056 2000     		movs	r0, r4
 416              	.LVL46:
 417              	.L28:
 154:Source\LwIP\src\api/api_lib.c **** 
 418              		.loc 1 154 0
 419 0058 06B0     		add	sp, sp, #24
 420              		@ sp needed
 421              	.LVL47:
 422 005a 70BD     		pop	{r4, r5, r6, pc}
 423              	.L32:
 424              		.align	2
 425              	.L31:
 426 005c 00000000 		.word	lwip_netconn_do_newconn
 427              		.cfi_endproc
 428              	.LFE54:
 429              		.size	netconn_new_with_proto_and_callback, .-netconn_new_with_proto_and_callback
 430              		.section	.text.netconn_delete,"ax",%progbits
ARM GAS  C:\Users\Phuong\AppData\Local\Temp\ccVcCKxe.s 			page 24


 431              		.align	2
 432              		.global	netconn_delete
 433              		.code	16
 434              		.thumb_func
 435              		.type	netconn_delete, %function
 436              	netconn_delete:
 437              	.LFB55:
 167:Source\LwIP\src\api/api_lib.c ****   err_t err;
 438              		.loc 1 167 0
 439              		.cfi_startproc
 440              		@ args = 0, pretend = 0, frame = 24
 441              		@ frame_needed = 0, uses_anonymous_args = 0
 442              	.LVL48:
 443 0000 10B5     		push	{r4, lr}
 444              		.cfi_def_cfa_offset 8
 445              		.cfi_offset 4, -8
 446              		.cfi_offset 14, -4
 447 0002 86B0     		sub	sp, sp, #24
 448              		.cfi_def_cfa_offset 32
 449 0004 041E     		subs	r4, r0, #0
 172:Source\LwIP\src\api/api_lib.c ****     return ERR_OK;
 450              		.loc 1 172 0
 451 0006 0DD0     		beq	.L35
 177:Source\LwIP\src\api/api_lib.c **** #if LWIP_SO_SNDTIMEO || LWIP_SO_LINGER
 452              		.loc 1 177 0
 453 0008 01A9     		add	r1, sp, #4
 454 000a 0190     		str	r0, [sp, #4]
 184:Source\LwIP\src\api/api_lib.c ****     ((LWIP_TCP_CLOSE_TIMEOUT_MS_DEFAULT + TCP_SLOW_INTERVAL - 1) / TCP_SLOW_INTERVAL) + 1;
 455              		.loc 1 184 0
 456 000c 2923     		movs	r3, #41
 457 000e 4B72     		strb	r3, [r1, #9]
 188:Source\LwIP\src\api/api_lib.c ****   API_MSG_VAR_FREE(msg);
 458              		.loc 1 188 0
 459 0010 0648     		ldr	r0, .L37
 460              	.LVL49:
 461 0012 FFF7FEFF 		bl	netconn_apimsg
 462              	.LVL50:
 191:Source\LwIP\src\api/api_lib.c ****     return err;
 463              		.loc 1 191 0
 464 0016 0028     		cmp	r0, #0
 465 0018 05D1     		bne	.L34
 195:Source\LwIP\src\api/api_lib.c **** 
 466              		.loc 1 195 0
 467 001a 2000     		movs	r0, r4
 468              	.LVL51:
 469 001c FFF7FEFF 		bl	netconn_free
 470              	.LVL52:
 197:Source\LwIP\src\api/api_lib.c **** }
 471              		.loc 1 197 0
 472 0020 0020     		movs	r0, #0
 473 0022 00E0     		b	.L34
 474              	.LVL53:
 475              	.L35:
 173:Source\LwIP\src\api/api_lib.c ****   }
 476              		.loc 1 173 0
 477 0024 0020     		movs	r0, #0
 478              	.LVL54:
ARM GAS  C:\Users\Phuong\AppData\Local\Temp\ccVcCKxe.s 			page 25


 479              	.L34:
 198:Source\LwIP\src\api/api_lib.c **** 
 480              		.loc 1 198 0
 481 0026 06B0     		add	sp, sp, #24
 482              		@ sp needed
 483              	.LVL55:
 484 0028 10BD     		pop	{r4, pc}
 485              	.L38:
 486 002a C046     		.align	2
 487              	.L37:
 488 002c 00000000 		.word	lwip_netconn_do_delconn
 489              		.cfi_endproc
 490              	.LFE55:
 491              		.size	netconn_delete, .-netconn_delete
 492              		.section	.text.netconn_getaddr,"ax",%progbits
 493              		.align	2
 494              		.global	netconn_getaddr
 495              		.code	16
 496              		.thumb_func
 497              		.type	netconn_getaddr, %function
 498              	netconn_getaddr:
 499              	.LFB56:
 213:Source\LwIP\src\api/api_lib.c ****   API_MSG_VAR_DECLARE(msg);
 500              		.loc 1 213 0
 501              		.cfi_startproc
 502              		@ args = 0, pretend = 0, frame = 24
 503              		@ frame_needed = 0, uses_anonymous_args = 0
 504              	.LVL56:
 505 0000 10B5     		push	{r4, lr}
 506              		.cfi_def_cfa_offset 8
 507              		.cfi_offset 4, -8
 508              		.cfi_offset 14, -4
 509 0002 86B0     		sub	sp, sp, #24
 510              		.cfi_def_cfa_offset 32
 217:Source\LwIP\src\api/api_lib.c ****   LWIP_ERROR("netconn_getaddr: invalid addr", (addr != NULL), return ERR_ARG;);
 511              		.loc 1 217 0
 512 0004 0028     		cmp	r0, #0
 513 0006 0DD0     		beq	.L41
 218:Source\LwIP\src\api/api_lib.c ****   LWIP_ERROR("netconn_getaddr: invalid port", (port != NULL), return ERR_ARG;);
 514              		.loc 1 218 0
 515 0008 0029     		cmp	r1, #0
 516 000a 0ED0     		beq	.L42
 219:Source\LwIP\src\api/api_lib.c **** 
 517              		.loc 1 219 0
 518 000c 002A     		cmp	r2, #0
 519 000e 0FD0     		beq	.L43
 222:Source\LwIP\src\api/api_lib.c ****   API_MSG_VAR_REF(msg).msg.ad.local = local;
 520              		.loc 1 222 0
 521 0010 01AC     		add	r4, sp, #4
 522 0012 0190     		str	r0, [sp, #4]
 223:Source\LwIP\src\api/api_lib.c **** #if LWIP_MPU_COMPATIBLE
 523              		.loc 1 223 0
 524 0014 2374     		strb	r3, [r4, #16]
 229:Source\LwIP\src\api/api_lib.c ****   msg.msg.ad.port = port;
 525              		.loc 1 229 0
 526 0016 0391     		str	r1, [sp, #12]
 230:Source\LwIP\src\api/api_lib.c ****   err = netconn_apimsg(lwip_netconn_do_getaddr, &msg);
ARM GAS  C:\Users\Phuong\AppData\Local\Temp\ccVcCKxe.s 			page 26


 527              		.loc 1 230 0
 528 0018 0492     		str	r2, [sp, #16]
 231:Source\LwIP\src\api/api_lib.c **** #endif /* LWIP_MPU_COMPATIBLE */
 529              		.loc 1 231 0
 530 001a 2100     		movs	r1, r4
 531              	.LVL57:
 532 001c 0648     		ldr	r0, .L44
 533              	.LVL58:
 534 001e FFF7FEFF 		bl	netconn_apimsg
 535              	.LVL59:
 235:Source\LwIP\src\api/api_lib.c **** }
 536              		.loc 1 235 0
 537 0022 07E0     		b	.L40
 538              	.LVL60:
 539              	.L41:
 217:Source\LwIP\src\api/api_lib.c ****   LWIP_ERROR("netconn_getaddr: invalid addr", (addr != NULL), return ERR_ARG;);
 540              		.loc 1 217 0
 541 0024 1020     		movs	r0, #16
 542              	.LVL61:
 543 0026 4042     		rsbs	r0, r0, #0
 544 0028 04E0     		b	.L40
 545              	.LVL62:
 546              	.L42:
 218:Source\LwIP\src\api/api_lib.c ****   LWIP_ERROR("netconn_getaddr: invalid port", (port != NULL), return ERR_ARG;);
 547              		.loc 1 218 0
 548 002a 1020     		movs	r0, #16
 549              	.LVL63:
 550 002c 4042     		rsbs	r0, r0, #0
 551 002e 01E0     		b	.L40
 552              	.LVL64:
 553              	.L43:
 219:Source\LwIP\src\api/api_lib.c **** 
 554              		.loc 1 219 0
 555 0030 1020     		movs	r0, #16
 556              	.LVL65:
 557 0032 4042     		rsbs	r0, r0, #0
 558              	.LVL66:
 559              	.L40:
 236:Source\LwIP\src\api/api_lib.c **** 
 560              		.loc 1 236 0
 561 0034 06B0     		add	sp, sp, #24
 562              		@ sp needed
 563 0036 10BD     		pop	{r4, pc}
 564              	.L45:
 565              		.align	2
 566              	.L44:
 567 0038 00000000 		.word	lwip_netconn_do_getaddr
 568              		.cfi_endproc
 569              	.LFE56:
 570              		.size	netconn_getaddr, .-netconn_getaddr
 571              		.section	.text.netconn_bind,"ax",%progbits
 572              		.align	2
 573              		.global	netconn_bind
 574              		.code	16
 575              		.thumb_func
 576              		.type	netconn_bind, %function
 577              	netconn_bind:
ARM GAS  C:\Users\Phuong\AppData\Local\Temp\ccVcCKxe.s 			page 27


 578              	.LFB57:
 251:Source\LwIP\src\api/api_lib.c ****   API_MSG_VAR_DECLARE(msg);
 579              		.loc 1 251 0
 580              		.cfi_startproc
 581              		@ args = 0, pretend = 0, frame = 24
 582              		@ frame_needed = 0, uses_anonymous_args = 0
 583              	.LVL67:
 584 0000 00B5     		push	{lr}
 585              		.cfi_def_cfa_offset 4
 586              		.cfi_offset 14, -4
 587 0002 87B0     		sub	sp, sp, #28
 588              		.cfi_def_cfa_offset 32
 255:Source\LwIP\src\api/api_lib.c **** 
 589              		.loc 1 255 0
 590 0004 0028     		cmp	r0, #0
 591 0006 0BD0     		beq	.L49
 259:Source\LwIP\src\api/api_lib.c ****     addr = IP4_ADDR_ANY;
 592              		.loc 1 259 0
 593 0008 0029     		cmp	r1, #0
 594 000a 00D1     		bne	.L48
 260:Source\LwIP\src\api/api_lib.c ****   }
 595              		.loc 1 260 0
 596 000c 0649     		ldr	r1, .L51
 597              	.LVL68:
 598              	.L48:
 275:Source\LwIP\src\api/api_lib.c ****   API_MSG_VAR_REF(msg).msg.bc.ipaddr = API_MSG_VAR_REF(addr);
 599              		.loc 1 275 0
 600 000e 01AB     		add	r3, sp, #4
 601 0010 0190     		str	r0, [sp, #4]
 276:Source\LwIP\src\api/api_lib.c ****   API_MSG_VAR_REF(msg).msg.bc.port = port;
 602              		.loc 1 276 0
 603 0012 0391     		str	r1, [sp, #12]
 277:Source\LwIP\src\api/api_lib.c ****   err = netconn_apimsg(lwip_netconn_do_bind, &API_MSG_VAR_REF(msg));
 604              		.loc 1 277 0
 605 0014 9A81     		strh	r2, [r3, #12]
 278:Source\LwIP\src\api/api_lib.c ****   API_MSG_VAR_FREE(msg);
 606              		.loc 1 278 0
 607 0016 1900     		movs	r1, r3
 608              	.LVL69:
 609 0018 0448     		ldr	r0, .L51+4
 610              	.LVL70:
 611 001a FFF7FEFF 		bl	netconn_apimsg
 612              	.LVL71:
 281:Source\LwIP\src\api/api_lib.c **** }
 613              		.loc 1 281 0
 614 001e 01E0     		b	.L47
 615              	.LVL72:
 616              	.L49:
 255:Source\LwIP\src\api/api_lib.c **** 
 617              		.loc 1 255 0
 618 0020 1020     		movs	r0, #16
 619              	.LVL73:
 620 0022 4042     		rsbs	r0, r0, #0
 621              	.LVL74:
 622              	.L47:
 282:Source\LwIP\src\api/api_lib.c **** 
 623              		.loc 1 282 0
ARM GAS  C:\Users\Phuong\AppData\Local\Temp\ccVcCKxe.s 			page 28


 624 0024 07B0     		add	sp, sp, #28
 625              		@ sp needed
 626 0026 00BD     		pop	{pc}
 627              	.L52:
 628              		.align	2
 629              	.L51:
 630 0028 00000000 		.word	ip_addr_any
 631 002c 00000000 		.word	lwip_netconn_do_bind
 632              		.cfi_endproc
 633              	.LFE57:
 634              		.size	netconn_bind, .-netconn_bind
 635              		.section	.text.netconn_connect,"ax",%progbits
 636              		.align	2
 637              		.global	netconn_connect
 638              		.code	16
 639              		.thumb_func
 640              		.type	netconn_connect, %function
 641              	netconn_connect:
 642              	.LFB58:
 295:Source\LwIP\src\api/api_lib.c ****   API_MSG_VAR_DECLARE(msg);
 643              		.loc 1 295 0
 644              		.cfi_startproc
 645              		@ args = 0, pretend = 0, frame = 24
 646              		@ frame_needed = 0, uses_anonymous_args = 0
 647              	.LVL75:
 648 0000 00B5     		push	{lr}
 649              		.cfi_def_cfa_offset 4
 650              		.cfi_offset 14, -4
 651 0002 87B0     		sub	sp, sp, #28
 652              		.cfi_def_cfa_offset 32
 299:Source\LwIP\src\api/api_lib.c **** 
 653              		.loc 1 299 0
 654 0004 0028     		cmp	r0, #0
 655 0006 0BD0     		beq	.L56
 303:Source\LwIP\src\api/api_lib.c ****     addr = IP4_ADDR_ANY;
 656              		.loc 1 303 0
 657 0008 0029     		cmp	r1, #0
 658 000a 00D1     		bne	.L55
 304:Source\LwIP\src\api/api_lib.c ****   }
 659              		.loc 1 304 0
 660 000c 0649     		ldr	r1, .L58
 661              	.LVL76:
 662              	.L55:
 309:Source\LwIP\src\api/api_lib.c ****   API_MSG_VAR_REF(msg).msg.bc.ipaddr = API_MSG_VAR_REF(addr);
 663              		.loc 1 309 0
 664 000e 01AB     		add	r3, sp, #4
 665 0010 0190     		str	r0, [sp, #4]
 310:Source\LwIP\src\api/api_lib.c ****   API_MSG_VAR_REF(msg).msg.bc.port = port;
 666              		.loc 1 310 0
 667 0012 0391     		str	r1, [sp, #12]
 311:Source\LwIP\src\api/api_lib.c ****   err = netconn_apimsg(lwip_netconn_do_connect, &API_MSG_VAR_REF(msg));
 668              		.loc 1 311 0
 669 0014 9A81     		strh	r2, [r3, #12]
 312:Source\LwIP\src\api/api_lib.c ****   API_MSG_VAR_FREE(msg);
 670              		.loc 1 312 0
 671 0016 1900     		movs	r1, r3
 672              	.LVL77:
ARM GAS  C:\Users\Phuong\AppData\Local\Temp\ccVcCKxe.s 			page 29


 673 0018 0448     		ldr	r0, .L58+4
 674              	.LVL78:
 675 001a FFF7FEFF 		bl	netconn_apimsg
 676              	.LVL79:
 315:Source\LwIP\src\api/api_lib.c **** }
 677              		.loc 1 315 0
 678 001e 01E0     		b	.L54
 679              	.LVL80:
 680              	.L56:
 299:Source\LwIP\src\api/api_lib.c **** 
 681              		.loc 1 299 0
 682 0020 1020     		movs	r0, #16
 683              	.LVL81:
 684 0022 4042     		rsbs	r0, r0, #0
 685              	.LVL82:
 686              	.L54:
 316:Source\LwIP\src\api/api_lib.c **** 
 687              		.loc 1 316 0
 688 0024 07B0     		add	sp, sp, #28
 689              		@ sp needed
 690 0026 00BD     		pop	{pc}
 691              	.L59:
 692              		.align	2
 693              	.L58:
 694 0028 00000000 		.word	ip_addr_any
 695 002c 00000000 		.word	lwip_netconn_do_connect
 696              		.cfi_endproc
 697              	.LFE58:
 698              		.size	netconn_connect, .-netconn_connect
 699              		.section	.text.netconn_disconnect,"ax",%progbits
 700              		.align	2
 701              		.global	netconn_disconnect
 702              		.code	16
 703              		.thumb_func
 704              		.type	netconn_disconnect, %function
 705              	netconn_disconnect:
 706              	.LFB59:
 327:Source\LwIP\src\api/api_lib.c ****   API_MSG_VAR_DECLARE(msg);
 707              		.loc 1 327 0
 708              		.cfi_startproc
 709              		@ args = 0, pretend = 0, frame = 24
 710              		@ frame_needed = 0, uses_anonymous_args = 0
 711              	.LVL83:
 712 0000 00B5     		push	{lr}
 713              		.cfi_def_cfa_offset 4
 714              		.cfi_offset 14, -4
 715 0002 87B0     		sub	sp, sp, #28
 716              		.cfi_def_cfa_offset 32
 331:Source\LwIP\src\api/api_lib.c **** 
 717              		.loc 1 331 0
 718 0004 0028     		cmp	r0, #0
 719 0006 05D0     		beq	.L62
 334:Source\LwIP\src\api/api_lib.c ****   err = netconn_apimsg(lwip_netconn_do_disconnect, &API_MSG_VAR_REF(msg));
 720              		.loc 1 334 0
 721 0008 0190     		str	r0, [sp, #4]
 335:Source\LwIP\src\api/api_lib.c ****   API_MSG_VAR_FREE(msg);
 722              		.loc 1 335 0
ARM GAS  C:\Users\Phuong\AppData\Local\Temp\ccVcCKxe.s 			page 30


 723 000a 01A9     		add	r1, sp, #4
 724 000c 0348     		ldr	r0, .L63
 725              	.LVL84:
 726 000e FFF7FEFF 		bl	netconn_apimsg
 727              	.LVL85:
 338:Source\LwIP\src\api/api_lib.c **** }
 728              		.loc 1 338 0
 729 0012 01E0     		b	.L61
 730              	.LVL86:
 731              	.L62:
 331:Source\LwIP\src\api/api_lib.c **** 
 732              		.loc 1 331 0
 733 0014 1020     		movs	r0, #16
 734              	.LVL87:
 735 0016 4042     		rsbs	r0, r0, #0
 736              	.L61:
 339:Source\LwIP\src\api/api_lib.c **** 
 737              		.loc 1 339 0
 738 0018 07B0     		add	sp, sp, #28
 739              		@ sp needed
 740 001a 00BD     		pop	{pc}
 741              	.L64:
 742              		.align	2
 743              	.L63:
 744 001c 00000000 		.word	lwip_netconn_do_disconnect
 745              		.cfi_endproc
 746              	.LFE59:
 747              		.size	netconn_disconnect, .-netconn_disconnect
 748              		.section	.text.netconn_listen_with_backlog,"ax",%progbits
 749              		.align	2
 750              		.global	netconn_listen_with_backlog
 751              		.code	16
 752              		.thumb_func
 753              		.type	netconn_listen_with_backlog, %function
 754              	netconn_listen_with_backlog:
 755              	.LFB60:
 352:Source\LwIP\src\api/api_lib.c **** #if LWIP_TCP
 756              		.loc 1 352 0
 757              		.cfi_startproc
 758              		@ args = 0, pretend = 0, frame = 24
 759              		@ frame_needed = 0, uses_anonymous_args = 0
 760              	.LVL88:
 761 0000 00B5     		push	{lr}
 762              		.cfi_def_cfa_offset 4
 763              		.cfi_offset 14, -4
 764 0002 87B0     		sub	sp, sp, #28
 765              		.cfi_def_cfa_offset 32
 360:Source\LwIP\src\api/api_lib.c **** 
 766              		.loc 1 360 0
 767 0004 0028     		cmp	r0, #0
 768 0006 07D0     		beq	.L67
 363:Source\LwIP\src\api/api_lib.c **** #if TCP_LISTEN_BACKLOG
 769              		.loc 1 363 0
 770 0008 01AB     		add	r3, sp, #4
 771 000a 0190     		str	r0, [sp, #4]
 365:Source\LwIP\src\api/api_lib.c **** #endif /* TCP_LISTEN_BACKLOG */
 772              		.loc 1 365 0
ARM GAS  C:\Users\Phuong\AppData\Local\Temp\ccVcCKxe.s 			page 31


 773 000c 1972     		strb	r1, [r3, #8]
 367:Source\LwIP\src\api/api_lib.c ****   API_MSG_VAR_FREE(msg);
 774              		.loc 1 367 0
 775 000e 1900     		movs	r1, r3
 776              	.LVL89:
 777 0010 0348     		ldr	r0, .L68
 778              	.LVL90:
 779 0012 FFF7FEFF 		bl	netconn_apimsg
 780              	.LVL91:
 370:Source\LwIP\src\api/api_lib.c **** #else /* LWIP_TCP */
 781              		.loc 1 370 0
 782 0016 01E0     		b	.L66
 783              	.LVL92:
 784              	.L67:
 360:Source\LwIP\src\api/api_lib.c **** 
 785              		.loc 1 360 0
 786 0018 1020     		movs	r0, #16
 787              	.LVL93:
 788 001a 4042     		rsbs	r0, r0, #0
 789              	.LVL94:
 790              	.L66:
 376:Source\LwIP\src\api/api_lib.c **** 
 791              		.loc 1 376 0
 792 001c 07B0     		add	sp, sp, #28
 793              		@ sp needed
 794 001e 00BD     		pop	{pc}
 795              	.L69:
 796              		.align	2
 797              	.L68:
 798 0020 00000000 		.word	lwip_netconn_do_listen
 799              		.cfi_endproc
 800              	.LFE60:
 801              		.size	netconn_listen_with_backlog, .-netconn_listen_with_backlog
 802              		.section	.text.netconn_accept,"ax",%progbits
 803              		.align	2
 804              		.global	netconn_accept
 805              		.code	16
 806              		.thumb_func
 807              		.type	netconn_accept, %function
 808              	netconn_accept:
 809              	.LFB61:
 389:Source\LwIP\src\api/api_lib.c **** #if LWIP_TCP
 810              		.loc 1 389 0
 811              		.cfi_startproc
 812              		@ args = 0, pretend = 0, frame = 24
 813              		@ frame_needed = 0, uses_anonymous_args = 0
 814              	.LVL95:
 815 0000 70B5     		push	{r4, r5, r6, lr}
 816              		.cfi_def_cfa_offset 16
 817              		.cfi_offset 4, -16
 818              		.cfi_offset 5, -12
 819              		.cfi_offset 6, -8
 820              		.cfi_offset 14, -4
 821 0002 86B0     		sub	sp, sp, #24
 822              		.cfi_def_cfa_offset 40
 823 0004 0400     		movs	r4, r0
 824 0006 0D1E     		subs	r5, r1, #0
ARM GAS  C:\Users\Phuong\AppData\Local\Temp\ccVcCKxe.s 			page 32


 397:Source\LwIP\src\api/api_lib.c ****   *new_conn = NULL;
 825              		.loc 1 397 0
 826 0008 3BD0     		beq	.L75
 398:Source\LwIP\src\api/api_lib.c ****   LWIP_ERROR("netconn_accept: invalid conn",       (conn != NULL),                      return ERR_
 827              		.loc 1 398 0
 828 000a 0023     		movs	r3, #0
 829 000c 0B60     		str	r3, [r1]
 399:Source\LwIP\src\api/api_lib.c **** 
 830              		.loc 1 399 0
 831 000e 0028     		cmp	r0, #0
 832 0010 3AD0     		beq	.L76
 401:Source\LwIP\src\api/api_lib.c ****     /* don't recv on fatal errors: this might block the application task
 833              		.loc 1 401 0
 834 0012 0820     		movs	r0, #8
 835              	.LVL96:
 836 0014 2056     		ldrsb	r0, [r4, r0]
 837 0016 0300     		movs	r3, r0
 838 0018 0C33     		adds	r3, r3, #12
 839 001a 43DB     		blt	.L71
 406:Source\LwIP\src\api/api_lib.c ****     return ERR_CLSD;
 840              		.loc 1 406 0
 841 001c 2600     		movs	r6, r4
 842 001e 1436     		adds	r6, r6, #20
 843 0020 3000     		movs	r0, r6
 844 0022 FFF7FEFF 		bl	sys_mbox_valid
 845              	.LVL97:
 846 0026 0028     		cmp	r0, #0
 847 0028 31D0     		beq	.L77
 415:Source\LwIP\src\api/api_lib.c **** #if TCP_LISTEN_BACKLOG
 848              		.loc 1 415 0
 849 002a E269     		ldr	r2, [r4, #28]
 850 002c 05A9     		add	r1, sp, #20
 851 002e 3000     		movs	r0, r6
 852 0030 FFF7FEFF 		bl	sys_arch_mbox_fetch
 853              	.LVL98:
 854 0034 431C     		adds	r3, r0, #1
 855 0036 2DD0     		beq	.L78
 424:Source\LwIP\src\api/api_lib.c ****   /* Register event with callback */
 856              		.loc 1 424 0
 857 0038 059E     		ldr	r6, [sp, #20]
 858              	.LVL99:
 426:Source\LwIP\src\api/api_lib.c **** 
 859              		.loc 1 426 0
 860 003a E36A     		ldr	r3, [r4, #44]
 861 003c 002B     		cmp	r3, #0
 862 003e 03D0     		beq	.L72
 426:Source\LwIP\src\api/api_lib.c **** 
 863              		.loc 1 426 0 is_stmt 0 discriminator 1
 864 0040 0022     		movs	r2, #0
 865 0042 0121     		movs	r1, #1
 866 0044 2000     		movs	r0, r4
 867 0046 9847     		blx	r3
 868              	.LVL100:
 869              	.L72:
 428:Source\LwIP\src\api/api_lib.c ****     /* a connection has been aborted: out of pcbs or out of netconns during accept */
 870              		.loc 1 428 0 is_stmt 1
 871 0048 174B     		ldr	r3, .L81
ARM GAS  C:\Users\Phuong\AppData\Local\Temp\ccVcCKxe.s 			page 33


 872 004a 059A     		ldr	r2, [sp, #20]
 873 004c 9A42     		cmp	r2, r3
 874 004e 24D0     		beq	.L79
 436:Source\LwIP\src\api/api_lib.c ****     /* connection has been aborted */
 875              		.loc 1 436 0
 876 0050 002E     		cmp	r6, #0
 877 0052 0ED1     		bne	.L73
 441:Source\LwIP\src\api/api_lib.c **** #if TCP_LISTEN_BACKLOG
 878              		.loc 1 441 0
 879 0054 002C     		cmp	r4, #0
 880 0056 23D0     		beq	.L80
 881              	.LBB3:
 441:Source\LwIP\src\api/api_lib.c **** #if TCP_LISTEN_BACKLOG
 882              		.loc 1 441 0 is_stmt 0 discriminator 1
 883 0058 FFF7FEFF 		bl	sys_arch_protect
 884              	.LVL101:
 885 005c 0823     		movs	r3, #8
 886 005e E356     		ldrsb	r3, [r4, r3]
 887 0060 0C33     		adds	r3, r3, #12
 888 0062 01DB     		blt	.L74
 441:Source\LwIP\src\api/api_lib.c **** #if TCP_LISTEN_BACKLOG
 889              		.loc 1 441 0 discriminator 2
 890 0064 F123     		movs	r3, #241
 891 0066 2372     		strb	r3, [r4, #8]
 892              	.L74:
 441:Source\LwIP\src\api/api_lib.c **** #if TCP_LISTEN_BACKLOG
 893              		.loc 1 441 0 discriminator 4
 894 0068 FFF7FEFF 		bl	sys_arch_unprotect
 895              	.LVL102:
 896              	.LBE3:
 445:Source\LwIP\src\api/api_lib.c ****   }
 897              		.loc 1 445 0 is_stmt 1 discriminator 4
 898 006c 0F20     		movs	r0, #15
 899 006e 4042     		rsbs	r0, r0, #0
 900 0070 18E0     		b	.L71
 901              	.L73:
 449:Source\LwIP\src\api/api_lib.c ****   /* don't care for the return value of lwip_netconn_do_recv */
 902              		.loc 1 449 0
 903 0072 0096     		str	r6, [sp]
 451:Source\LwIP\src\api/api_lib.c ****   API_MSG_VAR_FREE(msg);
 904              		.loc 1 451 0
 905 0074 6946     		mov	r1, sp
 906 0076 0D48     		ldr	r0, .L81+4
 907 0078 FFF7FEFF 		bl	netconn_apimsg
 908              	.LVL103:
 455:Source\LwIP\src\api/api_lib.c ****   /* don't set conn->last_err: it's only ERR_OK, anyway */
 909              		.loc 1 455 0
 910 007c 2E60     		str	r6, [r5]
 457:Source\LwIP\src\api/api_lib.c **** #else /* LWIP_TCP */
 911              		.loc 1 457 0
 912 007e 0020     		movs	r0, #0
 913 0080 10E0     		b	.L71
 914              	.LVL104:
 915              	.L75:
 397:Source\LwIP\src\api/api_lib.c ****   *new_conn = NULL;
 916              		.loc 1 397 0
 917 0082 1020     		movs	r0, #16
ARM GAS  C:\Users\Phuong\AppData\Local\Temp\ccVcCKxe.s 			page 34


 918              	.LVL105:
 919 0084 4042     		rsbs	r0, r0, #0
 920 0086 0DE0     		b	.L71
 921              	.LVL106:
 922              	.L76:
 399:Source\LwIP\src\api/api_lib.c **** 
 923              		.loc 1 399 0
 924 0088 1020     		movs	r0, #16
 925              	.LVL107:
 926 008a 4042     		rsbs	r0, r0, #0
 927 008c 0AE0     		b	.L71
 928              	.LVL108:
 929              	.L77:
 407:Source\LwIP\src\api/api_lib.c ****   }
 930              		.loc 1 407 0
 931 008e 0F20     		movs	r0, #15
 932 0090 4042     		rsbs	r0, r0, #0
 933 0092 07E0     		b	.L71
 934              	.L78:
 419:Source\LwIP\src\api/api_lib.c ****   }
 935              		.loc 1 419 0
 936 0094 0320     		movs	r0, #3
 937 0096 4042     		rsbs	r0, r0, #0
 938 0098 04E0     		b	.L71
 939              	.LVL109:
 940              	.L79:
 434:Source\LwIP\src\api/api_lib.c ****   }
 941              		.loc 1 434 0
 942 009a 0D20     		movs	r0, #13
 943 009c 4042     		rsbs	r0, r0, #0
 944 009e 01E0     		b	.L71
 945              	.L80:
 445:Source\LwIP\src\api/api_lib.c ****   }
 946              		.loc 1 445 0
 947 00a0 0F20     		movs	r0, #15
 948 00a2 4042     		rsbs	r0, r0, #0
 949              	.LVL110:
 950              	.L71:
 463:Source\LwIP\src\api/api_lib.c **** 
 951              		.loc 1 463 0
 952 00a4 06B0     		add	sp, sp, #24
 953              		@ sp needed
 954              	.LVL111:
 955              	.LVL112:
 956 00a6 70BD     		pop	{r4, r5, r6, pc}
 957              	.L82:
 958              		.align	2
 959              	.L81:
 960 00a8 00000000 		.word	netconn_aborted
 961 00ac 00000000 		.word	lwip_netconn_do_accepted
 962              		.cfi_endproc
 963              	.LFE61:
 964              		.size	netconn_accept, .-netconn_accept
 965              		.section	.text.netconn_recv_tcp_pbuf,"ax",%progbits
 966              		.align	2
 967              		.global	netconn_recv_tcp_pbuf
 968              		.code	16
ARM GAS  C:\Users\Phuong\AppData\Local\Temp\ccVcCKxe.s 			page 35


 969              		.thumb_func
 970              		.type	netconn_recv_tcp_pbuf, %function
 971              	netconn_recv_tcp_pbuf:
 972              	.LFB63:
 604:Source\LwIP\src\api/api_lib.c ****   LWIP_ERROR("netconn_recv: invalid conn", (conn != NULL) &&
 973              		.loc 1 604 0
 974              		.cfi_startproc
 975              		@ args = 0, pretend = 0, frame = 0
 976              		@ frame_needed = 0, uses_anonymous_args = 0
 977              	.LVL113:
 978 0000 10B5     		push	{r4, lr}
 979              		.cfi_def_cfa_offset 8
 980              		.cfi_offset 4, -8
 981              		.cfi_offset 14, -4
 605:Source\LwIP\src\api/api_lib.c ****              NETCONNTYPE_GROUP(netconn_type(conn)) == NETCONN_TCP, return ERR_ARG;);
 982              		.loc 1 605 0
 983 0002 0028     		cmp	r0, #0
 984 0004 07D0     		beq	.L85
 605:Source\LwIP\src\api/api_lib.c ****              NETCONNTYPE_GROUP(netconn_type(conn)) == NETCONN_TCP, return ERR_ARG;);
 985              		.loc 1 605 0 is_stmt 0 discriminator 2
 986 0006 0378     		ldrb	r3, [r0]
 987 0008 0F22     		movs	r2, #15
 988 000a 9343     		bics	r3, r2
 989 000c 102B     		cmp	r3, #16
 990 000e 05D1     		bne	.L86
 608:Source\LwIP\src\api/api_lib.c **** }
 991              		.loc 1 608 0 is_stmt 1
 992 0010 FFF7FEFF 		bl	netconn_recv_data
 993              	.LVL114:
 994 0014 04E0     		b	.L84
 995              	.LVL115:
 996              	.L85:
 605:Source\LwIP\src\api/api_lib.c ****              NETCONNTYPE_GROUP(netconn_type(conn)) == NETCONN_TCP, return ERR_ARG;);
 997              		.loc 1 605 0
 998 0016 1020     		movs	r0, #16
 999              	.LVL116:
 1000 0018 4042     		rsbs	r0, r0, #0
 1001 001a 01E0     		b	.L84
 1002              	.LVL117:
 1003              	.L86:
 1004 001c 1020     		movs	r0, #16
 1005              	.LVL118:
 1006 001e 4042     		rsbs	r0, r0, #0
 1007              	.LVL119:
 1008              	.L84:
 609:Source\LwIP\src\api/api_lib.c **** 
 1009              		.loc 1 609 0
 1010              		@ sp needed
 1011 0020 10BD     		pop	{r4, pc}
 1012              		.cfi_endproc
 1013              	.LFE63:
 1014              		.size	netconn_recv_tcp_pbuf, .-netconn_recv_tcp_pbuf
 1015 0022 C046     		.section	.text.netconn_recv,"ax",%progbits
 1016              		.align	2
 1017              		.global	netconn_recv
 1018              		.code	16
 1019              		.thumb_func
ARM GAS  C:\Users\Phuong\AppData\Local\Temp\ccVcCKxe.s 			page 36


 1020              		.type	netconn_recv, %function
 1021              	netconn_recv:
 1022              	.LFB64:
 622:Source\LwIP\src\api/api_lib.c **** #if LWIP_TCP
 1023              		.loc 1 622 0
 1024              		.cfi_startproc
 1025              		@ args = 0, pretend = 0, frame = 8
 1026              		@ frame_needed = 0, uses_anonymous_args = 0
 1027              	.LVL120:
 1028 0000 70B5     		push	{r4, r5, r6, lr}
 1029              		.cfi_def_cfa_offset 16
 1030              		.cfi_offset 4, -16
 1031              		.cfi_offset 5, -12
 1032              		.cfi_offset 6, -8
 1033              		.cfi_offset 14, -4
 1034 0002 82B0     		sub	sp, sp, #8
 1035              		.cfi_def_cfa_offset 24
 1036 0004 0400     		movs	r4, r0
 1037 0006 0D1E     		subs	r5, r1, #0
 1038              	.LVL121:
 628:Source\LwIP\src\api/api_lib.c ****   *new_buf = NULL;
 1039              		.loc 1 628 0
 1040 0008 2ED0     		beq	.L92
 629:Source\LwIP\src\api/api_lib.c ****   LWIP_ERROR("netconn_recv: invalid conn",    (conn != NULL),    return ERR_ARG;);
 1041              		.loc 1 629 0
 1042 000a 0023     		movs	r3, #0
 1043 000c 0B60     		str	r3, [r1]
 630:Source\LwIP\src\api/api_lib.c **** 
 1044              		.loc 1 630 0
 1045 000e 0028     		cmp	r0, #0
 1046 0010 2DD0     		beq	.L93
 634:Source\LwIP\src\api/api_lib.c **** #endif /* (LWIP_UDP || LWIP_RAW) */
 1047              		.loc 1 634 0
 1048 0012 0378     		ldrb	r3, [r0]
 1049 0014 0F22     		movs	r2, #15
 1050 0016 9343     		bics	r3, r2
 1051 0018 102B     		cmp	r3, #16
 1052 001a 22D1     		bne	.L89
 1053              	.LBB4:
 637:Source\LwIP\src\api/api_lib.c ****     /* This is not a listening netconn, since recvmbox is set */
 1054              		.loc 1 637 0
 1055 001c 0023     		movs	r3, #0
 1056 001e 0193     		str	r3, [sp, #4]
 640:Source\LwIP\src\api/api_lib.c ****     if (buf == NULL) {
 1057              		.loc 1 640 0
 1058 0020 A022     		movs	r2, #160
 1059 0022 9200     		lsls	r2, r2, #2
 1060 0024 1449     		ldr	r1, .L95
 1061              	.LVL122:
 1062 0026 0620     		movs	r0, #6
 1063              	.LVL123:
 1064 0028 FFF7FEFF 		bl	memp_malloc_fn
 1065              	.LVL124:
 1066 002c 061E     		subs	r6, r0, #0
 1067              	.LVL125:
 641:Source\LwIP\src\api/api_lib.c ****       return ERR_MEM;
 1068              		.loc 1 641 0
ARM GAS  C:\Users\Phuong\AppData\Local\Temp\ccVcCKxe.s 			page 37


 1069 002e 15D0     		beq	.L94
 645:Source\LwIP\src\api/api_lib.c ****     if (err != ERR_OK) {
 1070              		.loc 1 645 0
 1071 0030 01A9     		add	r1, sp, #4
 1072 0032 2000     		movs	r0, r4
 1073              	.LVL126:
 1074 0034 FFF7FEFF 		bl	netconn_recv_data
 1075              	.LVL127:
 1076 0038 041E     		subs	r4, r0, #0
 1077              	.LVL128:
 646:Source\LwIP\src\api/api_lib.c ****       memp_free(MEMP_NETBUF, buf);
 1078              		.loc 1 646 0
 1079 003a 05D0     		beq	.L91
 647:Source\LwIP\src\api/api_lib.c ****       return err;
 1080              		.loc 1 647 0
 1081 003c 3100     		movs	r1, r6
 1082 003e 0620     		movs	r0, #6
 1083              	.LVL129:
 1084 0040 FFF7FEFF 		bl	memp_free
 1085              	.LVL130:
 648:Source\LwIP\src\api/api_lib.c ****     }
 1086              		.loc 1 648 0
 1087 0044 2000     		movs	r0, r4
 1088 0046 14E0     		b	.L88
 1089              	.LVL131:
 1090              	.L91:
 652:Source\LwIP\src\api/api_lib.c ****     buf->ptr = p;
 1091              		.loc 1 652 0
 1092 0048 019B     		ldr	r3, [sp, #4]
 1093 004a 3360     		str	r3, [r6]
 653:Source\LwIP\src\api/api_lib.c ****     buf->port = 0;
 1094              		.loc 1 653 0
 1095 004c 019B     		ldr	r3, [sp, #4]
 1096 004e 7360     		str	r3, [r6, #4]
 654:Source\LwIP\src\api/api_lib.c ****     ip_addr_set_zero(&buf->addr);
 1097              		.loc 1 654 0
 1098 0050 0023     		movs	r3, #0
 1099 0052 B381     		strh	r3, [r6, #12]
 655:Source\LwIP\src\api/api_lib.c ****     *new_buf = buf;
 1100              		.loc 1 655 0
 1101 0054 B360     		str	r3, [r6, #8]
 656:Source\LwIP\src\api/api_lib.c ****     /* don't set conn->last_err: it's only ERR_OK, anyway */
 1102              		.loc 1 656 0
 1103 0056 2E60     		str	r6, [r5]
 658:Source\LwIP\src\api/api_lib.c ****   }
 1104              		.loc 1 658 0
 1105 0058 0020     		movs	r0, #0
 1106              	.LVL132:
 1107 005a 0AE0     		b	.L88
 1108              	.LVL133:
 1109              	.L94:
 642:Source\LwIP\src\api/api_lib.c ****     }
 1110              		.loc 1 642 0
 1111 005c 0120     		movs	r0, #1
 1112              	.LVL134:
 1113 005e 4042     		rsbs	r0, r0, #0
 1114 0060 07E0     		b	.L88
ARM GAS  C:\Users\Phuong\AppData\Local\Temp\ccVcCKxe.s 			page 38


 1115              	.LVL135:
 1116              	.L89:
 1117              	.LBE4:
 666:Source\LwIP\src\api/api_lib.c **** #endif /* (LWIP_UDP || LWIP_RAW) */
 1118              		.loc 1 666 0
 1119 0062 FFF7FEFF 		bl	netconn_recv_data
 1120              	.LVL136:
 1121 0066 04E0     		b	.L88
 1122              	.LVL137:
 1123              	.L92:
 628:Source\LwIP\src\api/api_lib.c ****   *new_buf = NULL;
 1124              		.loc 1 628 0
 1125 0068 1020     		movs	r0, #16
 1126              	.LVL138:
 1127 006a 4042     		rsbs	r0, r0, #0
 1128 006c 01E0     		b	.L88
 1129              	.LVL139:
 1130              	.L93:
 630:Source\LwIP\src\api/api_lib.c **** 
 1131              		.loc 1 630 0
 1132 006e 1020     		movs	r0, #16
 1133              	.LVL140:
 1134 0070 4042     		rsbs	r0, r0, #0
 1135              	.LVL141:
 1136              	.L88:
 669:Source\LwIP\src\api/api_lib.c **** 
 1137              		.loc 1 669 0 discriminator 1
 1138 0072 02B0     		add	sp, sp, #8
 1139              		@ sp needed
 1140              	.LVL142:
 1141 0074 70BD     		pop	{r4, r5, r6, pc}
 1142              	.L96:
 1143 0076 C046     		.align	2
 1144              	.L95:
 1145 0078 00000000 		.word	.LC13
 1146              		.cfi_endproc
 1147              	.LFE64:
 1148              		.size	netconn_recv, .-netconn_recv
 1149              		.section	.text.netconn_send,"ax",%progbits
 1150              		.align	2
 1151              		.global	netconn_send
 1152              		.code	16
 1153              		.thumb_func
 1154              		.type	netconn_send, %function
 1155              	netconn_send:
 1156              	.LFB66:
 703:Source\LwIP\src\api/api_lib.c ****   API_MSG_VAR_DECLARE(msg);
 1157              		.loc 1 703 0
 1158              		.cfi_startproc
 1159              		@ args = 0, pretend = 0, frame = 24
 1160              		@ frame_needed = 0, uses_anonymous_args = 0
 1161              	.LVL143:
 1162 0000 00B5     		push	{lr}
 1163              		.cfi_def_cfa_offset 4
 1164              		.cfi_offset 14, -4
 1165 0002 87B0     		sub	sp, sp, #28
 1166              		.cfi_def_cfa_offset 32
ARM GAS  C:\Users\Phuong\AppData\Local\Temp\ccVcCKxe.s 			page 39


 707:Source\LwIP\src\api/api_lib.c **** 
 1167              		.loc 1 707 0
 1168 0004 0028     		cmp	r0, #0
 1169 0006 06D0     		beq	.L99
 712:Source\LwIP\src\api/api_lib.c ****   API_MSG_VAR_REF(msg).msg.b = buf;
 1170              		.loc 1 712 0
 1171 0008 0190     		str	r0, [sp, #4]
 713:Source\LwIP\src\api/api_lib.c ****   err = netconn_apimsg(lwip_netconn_do_send, &API_MSG_VAR_REF(msg));
 1172              		.loc 1 713 0
 1173 000a 0391     		str	r1, [sp, #12]
 714:Source\LwIP\src\api/api_lib.c ****   API_MSG_VAR_FREE(msg);
 1174              		.loc 1 714 0
 1175 000c 01A9     		add	r1, sp, #4
 1176              	.LVL144:
 1177 000e 0448     		ldr	r0, .L100
 1178              	.LVL145:
 1179 0010 FFF7FEFF 		bl	netconn_apimsg
 1180              	.LVL146:
 717:Source\LwIP\src\api/api_lib.c **** }
 1181              		.loc 1 717 0
 1182 0014 01E0     		b	.L98
 1183              	.LVL147:
 1184              	.L99:
 707:Source\LwIP\src\api/api_lib.c **** 
 1185              		.loc 1 707 0
 1186 0016 1020     		movs	r0, #16
 1187              	.LVL148:
 1188 0018 4042     		rsbs	r0, r0, #0
 1189              	.LVL149:
 1190              	.L98:
 718:Source\LwIP\src\api/api_lib.c **** 
 1191              		.loc 1 718 0
 1192 001a 07B0     		add	sp, sp, #28
 1193              		@ sp needed
 1194 001c 00BD     		pop	{pc}
 1195              	.L101:
 1196 001e C046     		.align	2
 1197              	.L100:
 1198 0020 00000000 		.word	lwip_netconn_do_send
 1199              		.cfi_endproc
 1200              	.LFE66:
 1201              		.size	netconn_send, .-netconn_send
 1202              		.section	.text.netconn_sendto,"ax",%progbits
 1203              		.align	2
 1204              		.global	netconn_sendto
 1205              		.code	16
 1206              		.thumb_func
 1207              		.type	netconn_sendto, %function
 1208              	netconn_sendto:
 1209              	.LFB65:
 684:Source\LwIP\src\api/api_lib.c ****   if (buf != NULL) {
 1210              		.loc 1 684 0
 1211              		.cfi_startproc
 1212              		@ args = 0, pretend = 0, frame = 0
 1213              		@ frame_needed = 0, uses_anonymous_args = 0
 1214              	.LVL150:
 1215 0000 10B5     		push	{r4, lr}
ARM GAS  C:\Users\Phuong\AppData\Local\Temp\ccVcCKxe.s 			page 40


 1216              		.cfi_def_cfa_offset 8
 1217              		.cfi_offset 4, -8
 1218              		.cfi_offset 14, -4
 685:Source\LwIP\src\api/api_lib.c ****     ip_addr_set(&buf->addr, addr);
 1219              		.loc 1 685 0
 1220 0002 0029     		cmp	r1, #0
 1221 0004 09D0     		beq	.L105
 686:Source\LwIP\src\api/api_lib.c ****     buf->port = port;
 1222              		.loc 1 686 0
 1223 0006 002A     		cmp	r2, #0
 1224 0008 01D0     		beq	.L106
 686:Source\LwIP\src\api/api_lib.c ****     buf->port = port;
 1225              		.loc 1 686 0 is_stmt 0 discriminator 1
 1226 000a 1268     		ldr	r2, [r2]
 1227              	.LVL151:
 1228 000c 00E0     		b	.L104
 1229              	.LVL152:
 1230              	.L106:
 686:Source\LwIP\src\api/api_lib.c ****     buf->port = port;
 1231              		.loc 1 686 0
 1232 000e 0022     		movs	r2, #0
 1233              	.LVL153:
 1234              	.L104:
 686:Source\LwIP\src\api/api_lib.c ****     buf->port = port;
 1235              		.loc 1 686 0 discriminator 4
 1236 0010 8A60     		str	r2, [r1, #8]
 687:Source\LwIP\src\api/api_lib.c ****     return netconn_send(conn, buf);
 1237              		.loc 1 687 0 is_stmt 1 discriminator 4
 1238 0012 8B81     		strh	r3, [r1, #12]
 688:Source\LwIP\src\api/api_lib.c ****   }
 1239              		.loc 1 688 0 discriminator 4
 1240 0014 FFF7FEFF 		bl	netconn_send
 1241              	.LVL154:
 1242 0018 01E0     		b	.L103
 1243              	.LVL155:
 1244              	.L105:
 690:Source\LwIP\src\api/api_lib.c **** }
 1245              		.loc 1 690 0
 1246 001a 0620     		movs	r0, #6
 1247              	.LVL156:
 1248 001c 4042     		rsbs	r0, r0, #0
 1249              	.LVL157:
 1250              	.L103:
 691:Source\LwIP\src\api/api_lib.c **** 
 1251              		.loc 1 691 0
 1252              		@ sp needed
 1253 001e 10BD     		pop	{r4, pc}
 1254              		.cfi_endproc
 1255              	.LFE65:
 1256              		.size	netconn_sendto, .-netconn_sendto
 1257              		.section	.text.netconn_write_partly,"ax",%progbits
 1258              		.align	2
 1259              		.global	netconn_write_partly
 1260              		.code	16
 1261              		.thumb_func
 1262              		.type	netconn_write_partly, %function
 1263              	netconn_write_partly:
ARM GAS  C:\Users\Phuong\AppData\Local\Temp\ccVcCKxe.s 			page 41


 1264              	.LFB67:
 737:Source\LwIP\src\api/api_lib.c ****   API_MSG_VAR_DECLARE(msg);
 1265              		.loc 1 737 0
 1266              		.cfi_startproc
 1267              		@ args = 4, pretend = 0, frame = 24
 1268              		@ frame_needed = 0, uses_anonymous_args = 0
 1269              	.LVL158:
 1270 0000 70B5     		push	{r4, r5, r6, lr}
 1271              		.cfi_def_cfa_offset 16
 1272              		.cfi_offset 4, -16
 1273              		.cfi_offset 5, -12
 1274              		.cfi_offset 6, -8
 1275              		.cfi_offset 14, -4
 1276 0002 86B0     		sub	sp, sp, #24
 1277              		.cfi_def_cfa_offset 40
 1278 0004 0D00     		movs	r5, r1
 1279 0006 1400     		movs	r4, r2
 742:Source\LwIP\src\api/api_lib.c ****   LWIP_ERROR("netconn_write: invalid conn->type",  (NETCONNTYPE_GROUP(conn->type)== NETCONN_TCP), r
 1280              		.loc 1 742 0
 1281 0008 0028     		cmp	r0, #0
 1282 000a 2CD0     		beq	.L112
 743:Source\LwIP\src\api/api_lib.c ****   if (size == 0) {
 1283              		.loc 1 743 0
 1284 000c 0278     		ldrb	r2, [r0]
 1285              	.LVL159:
 1286 000e 0F21     		movs	r1, #15
 1287              	.LVL160:
 1288 0010 8A43     		bics	r2, r1
 1289 0012 102A     		cmp	r2, #16
 1290 0014 2AD1     		bne	.L113
 744:Source\LwIP\src\api/api_lib.c ****     return ERR_OK;
 1291              		.loc 1 744 0
 1292 0016 002C     		cmp	r4, #0
 1293 0018 2BD0     		beq	.L114
 747:Source\LwIP\src\api/api_lib.c **** #if LWIP_SO_SNDTIMEO
 1294              		.loc 1 747 0
 1295 001a 1032     		adds	r2, r2, #16
 1296 001c 825C     		ldrb	r2, [r0, r2]
 1297 001e 9207     		lsls	r2, r2, #30
 1298 0020 03D4     		bmi	.L115
 747:Source\LwIP\src\api/api_lib.c **** #if LWIP_SO_SNDTIMEO
 1299              		.loc 1 747 0 is_stmt 0 discriminator 2
 1300 0022 5A07     		lsls	r2, r3, #29
 1301 0024 03D5     		bpl	.L116
 747:Source\LwIP\src\api/api_lib.c **** #if LWIP_SO_SNDTIMEO
 1302              		.loc 1 747 0
 1303 0026 0126     		movs	r6, #1
 1304 0028 02E0     		b	.L109
 1305              	.L115:
 1306 002a 0126     		movs	r6, #1
 1307 002c 00E0     		b	.L109
 1308              	.L116:
 1309 002e 0026     		movs	r6, #0
 1310              	.L109:
 747:Source\LwIP\src\api/api_lib.c **** #if LWIP_SO_SNDTIMEO
 1311              		.loc 1 747 0 discriminator 6
 1312 0030 F6B2     		uxtb	r6, r6
ARM GAS  C:\Users\Phuong\AppData\Local\Temp\ccVcCKxe.s 			page 42


 1313              	.LVL161:
 753:Source\LwIP\src\api/api_lib.c ****     /* This implies netconn_write() cannot be used for non-blocking send, since
 1314              		.loc 1 753 0 is_stmt 1 discriminator 6
 1315 0032 002E     		cmp	r6, #0
 1316 0034 02D0     		beq	.L110
 753:Source\LwIP\src\api/api_lib.c ****     /* This implies netconn_write() cannot be used for non-blocking send, since
 1317              		.loc 1 753 0 is_stmt 0 discriminator 1
 1318 0036 0A9A     		ldr	r2, [sp, #40]
 1319 0038 002A     		cmp	r2, #0
 1320 003a 1CD0     		beq	.L117
 1321              	.L110:
 761:Source\LwIP\src\api/api_lib.c ****   API_MSG_VAR_REF(msg).msg.w.dataptr = dataptr;
 1322              		.loc 1 761 0 is_stmt 1
 1323 003c 01A9     		add	r1, sp, #4
 1324 003e 0190     		str	r0, [sp, #4]
 762:Source\LwIP\src\api/api_lib.c ****   API_MSG_VAR_REF(msg).msg.w.apiflags = apiflags;
 1325              		.loc 1 762 0
 1326 0040 8D60     		str	r5, [r1, #8]
 763:Source\LwIP\src\api/api_lib.c ****   API_MSG_VAR_REF(msg).msg.w.len = size;
 1327              		.loc 1 763 0
 1328 0042 0B74     		strb	r3, [r1, #16]
 764:Source\LwIP\src\api/api_lib.c **** #if LWIP_SO_SNDTIMEO
 1329              		.loc 1 764 0
 1330 0044 CC60     		str	r4, [r1, #12]
 778:Source\LwIP\src\api/api_lib.c ****   if ((err == ERR_OK) && (bytes_written != NULL)) {
 1331              		.loc 1 778 0
 1332 0046 0E48     		ldr	r0, .L120
 1333              	.LVL162:
 1334 0048 FFF7FEFF 		bl	netconn_apimsg
 1335              	.LVL163:
 779:Source\LwIP\src\api/api_lib.c ****     if (dontblock) {
 1336              		.loc 1 779 0
 1337 004c 0028     		cmp	r0, #0
 1338 004e 14D1     		bne	.L108
 779:Source\LwIP\src\api/api_lib.c ****     if (dontblock) {
 1339              		.loc 1 779 0 is_stmt 0 discriminator 1
 1340 0050 0A9B     		ldr	r3, [sp, #40]
 1341 0052 002B     		cmp	r3, #0
 1342 0054 11D0     		beq	.L108
 780:Source\LwIP\src\api/api_lib.c ****       /* nonblocking write: maybe the data has been sent partly */
 1343              		.loc 1 780 0 is_stmt 1
 1344 0056 002E     		cmp	r6, #0
 1345 0058 02D0     		beq	.L111
 782:Source\LwIP\src\api/api_lib.c ****     } else {
 1346              		.loc 1 782 0
 1347 005a 049A     		ldr	r2, [sp, #16]
 1348 005c 1A60     		str	r2, [r3]
 1349 005e 0CE0     		b	.L108
 1350              	.L111:
 785:Source\LwIP\src\api/api_lib.c ****     }
 1351              		.loc 1 785 0
 1352 0060 0A9B     		ldr	r3, [sp, #40]
 1353 0062 1C60     		str	r4, [r3]
 1354 0064 09E0     		b	.L108
 1355              	.LVL164:
 1356              	.L112:
 742:Source\LwIP\src\api/api_lib.c ****   LWIP_ERROR("netconn_write: invalid conn->type",  (NETCONNTYPE_GROUP(conn->type)== NETCONN_TCP), r
ARM GAS  C:\Users\Phuong\AppData\Local\Temp\ccVcCKxe.s 			page 43


 1357              		.loc 1 742 0
 1358 0066 1020     		movs	r0, #16
 1359              	.LVL165:
 1360 0068 4042     		rsbs	r0, r0, #0
 1361 006a 06E0     		b	.L108
 1362              	.LVL166:
 1363              	.L113:
 743:Source\LwIP\src\api/api_lib.c ****   if (size == 0) {
 1364              		.loc 1 743 0
 1365 006c 0620     		movs	r0, #6
 1366              	.LVL167:
 1367 006e 4042     		rsbs	r0, r0, #0
 1368 0070 03E0     		b	.L108
 1369              	.LVL168:
 1370              	.L114:
 745:Source\LwIP\src\api/api_lib.c ****   }
 1371              		.loc 1 745 0
 1372 0072 0020     		movs	r0, #0
 1373              	.LVL169:
 1374 0074 01E0     		b	.L108
 1375              	.LVL170:
 1376              	.L117:
 756:Source\LwIP\src\api/api_lib.c ****   }
 1377              		.loc 1 756 0
 1378 0076 0620     		movs	r0, #6
 1379              	.LVL171:
 1380 0078 4042     		rsbs	r0, r0, #0
 1381              	.LVL172:
 1382              	.L108:
 791:Source\LwIP\src\api/api_lib.c **** 
 1383              		.loc 1 791 0
 1384 007a 06B0     		add	sp, sp, #24
 1385              		@ sp needed
 1386              	.LVL173:
 1387              	.LVL174:
 1388 007c 70BD     		pop	{r4, r5, r6, pc}
 1389              	.L121:
 1390 007e C046     		.align	2
 1391              	.L120:
 1392 0080 00000000 		.word	lwip_netconn_do_write
 1393              		.cfi_endproc
 1394              	.LFE67:
 1395              		.size	netconn_write_partly, .-netconn_write_partly
 1396              		.section	.text.netconn_close,"ax",%progbits
 1397              		.align	2
 1398              		.global	netconn_close
 1399              		.code	16
 1400              		.thumb_func
 1401              		.type	netconn_close, %function
 1402              	netconn_close:
 1403              	.LFB69:
 829:Source\LwIP\src\api/api_lib.c **** 
 830:Source\LwIP\src\api/api_lib.c **** /**
 831:Source\LwIP\src\api/api_lib.c ****  * @ingroup netconn_tcp
 832:Source\LwIP\src\api/api_lib.c ****  * Close a TCP netconn (doesn't delete it).
 833:Source\LwIP\src\api/api_lib.c ****  *
 834:Source\LwIP\src\api/api_lib.c ****  * @param conn the TCP netconn to close
ARM GAS  C:\Users\Phuong\AppData\Local\Temp\ccVcCKxe.s 			page 44


 835:Source\LwIP\src\api/api_lib.c ****  * @return ERR_OK if the netconn was closed, any other err_t on error
 836:Source\LwIP\src\api/api_lib.c ****  */
 837:Source\LwIP\src\api/api_lib.c **** err_t
 838:Source\LwIP\src\api/api_lib.c **** netconn_close(struct netconn *conn)
 839:Source\LwIP\src\api/api_lib.c **** {
 1404              		.loc 1 839 0
 1405              		.cfi_startproc
 1406              		@ args = 0, pretend = 0, frame = 0
 1407              		@ frame_needed = 0, uses_anonymous_args = 0
 1408              	.LVL175:
 1409 0000 10B5     		push	{r4, lr}
 1410              		.cfi_def_cfa_offset 8
 1411              		.cfi_offset 4, -8
 1412              		.cfi_offset 14, -4
 840:Source\LwIP\src\api/api_lib.c ****   /* shutting down both ends is the same as closing */
 841:Source\LwIP\src\api/api_lib.c ****   return netconn_close_shutdown(conn, NETCONN_SHUT_RDWR);
 1413              		.loc 1 841 0
 1414 0002 0321     		movs	r1, #3
 1415 0004 FFF7FEFF 		bl	netconn_close_shutdown
 1416              	.LVL176:
 842:Source\LwIP\src\api/api_lib.c **** }
 1417              		.loc 1 842 0
 1418              		@ sp needed
 1419 0008 10BD     		pop	{r4, pc}
 1420              		.cfi_endproc
 1421              	.LFE69:
 1422              		.size	netconn_close, .-netconn_close
 1423 000a C046     		.section	.text.netconn_shutdown,"ax",%progbits
 1424              		.align	2
 1425              		.global	netconn_shutdown
 1426              		.code	16
 1427              		.thumb_func
 1428              		.type	netconn_shutdown, %function
 1429              	netconn_shutdown:
 1430              	.LFB70:
 843:Source\LwIP\src\api/api_lib.c **** 
 844:Source\LwIP\src\api/api_lib.c **** /**
 845:Source\LwIP\src\api/api_lib.c ****  * @ingroup netconn_tcp
 846:Source\LwIP\src\api/api_lib.c ****  * Shut down one or both sides of a TCP netconn (doesn't delete it).
 847:Source\LwIP\src\api/api_lib.c ****  *
 848:Source\LwIP\src\api/api_lib.c ****  * @param conn the TCP netconn to shut down
 849:Source\LwIP\src\api/api_lib.c ****  * @param shut_rx shut down the RX side (no more read possible after this)
 850:Source\LwIP\src\api/api_lib.c ****  * @param shut_tx shut down the TX side (no more write possible after this)
 851:Source\LwIP\src\api/api_lib.c ****  * @return ERR_OK if the netconn was closed, any other err_t on error
 852:Source\LwIP\src\api/api_lib.c ****  */
 853:Source\LwIP\src\api/api_lib.c **** err_t
 854:Source\LwIP\src\api/api_lib.c **** netconn_shutdown(struct netconn *conn, u8_t shut_rx, u8_t shut_tx)
 855:Source\LwIP\src\api/api_lib.c **** {
 1431              		.loc 1 855 0
 1432              		.cfi_startproc
 1433              		@ args = 0, pretend = 0, frame = 0
 1434              		@ frame_needed = 0, uses_anonymous_args = 0
 1435              	.LVL177:
 1436 0000 10B5     		push	{r4, lr}
 1437              		.cfi_def_cfa_offset 8
 1438              		.cfi_offset 4, -8
 1439              		.cfi_offset 14, -4
ARM GAS  C:\Users\Phuong\AppData\Local\Temp\ccVcCKxe.s 			page 45


 856:Source\LwIP\src\api/api_lib.c ****   return netconn_close_shutdown(conn, (shut_rx ? NETCONN_SHUT_RD : 0) | (shut_tx ? NETCONN_SHUT_WR 
 1440              		.loc 1 856 0
 1441 0002 4B1E     		subs	r3, r1, #1
 1442 0004 9941     		sbcs	r1, r1, r3
 1443              	.LVL178:
 1444 0006 49B2     		sxtb	r1, r1
 1445 0008 002A     		cmp	r2, #0
 1446 000a 01D0     		beq	.L125
 1447 000c 0223     		movs	r3, #2
 1448 000e 00E0     		b	.L124
 1449              	.L125:
 1450 0010 0023     		movs	r3, #0
 1451              	.L124:
 1452              		.loc 1 856 0 is_stmt 0 discriminator 4
 1453 0012 1943     		orrs	r1, r3
 1454 0014 FFF7FEFF 		bl	netconn_close_shutdown
 1455              	.LVL179:
 857:Source\LwIP\src\api/api_lib.c **** }
 1456              		.loc 1 857 0 is_stmt 1 discriminator 4
 1457              		@ sp needed
 1458 0018 10BD     		pop	{r4, pc}
 1459              		.cfi_endproc
 1460              	.LFE70:
 1461              		.size	netconn_shutdown, .-netconn_shutdown
 1462 001a C046     		.section	.text.netconn_join_leave_group,"ax",%progbits
 1463              		.align	2
 1464              		.global	netconn_join_leave_group
 1465              		.code	16
 1466              		.thumb_func
 1467              		.type	netconn_join_leave_group, %function
 1468              	netconn_join_leave_group:
 1469              	.LFB71:
 858:Source\LwIP\src\api/api_lib.c **** 
 859:Source\LwIP\src\api/api_lib.c **** #if LWIP_IGMP || (LWIP_IPV6 && LWIP_IPV6_MLD)
 860:Source\LwIP\src\api/api_lib.c **** /**
 861:Source\LwIP\src\api/api_lib.c ****  * @ingroup netconn_udp
 862:Source\LwIP\src\api/api_lib.c ****  * Join multicast groups for UDP netconns.
 863:Source\LwIP\src\api/api_lib.c ****  *
 864:Source\LwIP\src\api/api_lib.c ****  * @param conn the UDP netconn for which to change multicast addresses
 865:Source\LwIP\src\api/api_lib.c ****  * @param multiaddr IP address of the multicast group to join or leave
 866:Source\LwIP\src\api/api_lib.c ****  * @param netif_addr the IP address of the network interface on which to send
 867:Source\LwIP\src\api/api_lib.c ****  *                  the igmp message
 868:Source\LwIP\src\api/api_lib.c ****  * @param join_or_leave flag whether to send a join- or leave-message
 869:Source\LwIP\src\api/api_lib.c ****  * @return ERR_OK if the action was taken, any err_t on error
 870:Source\LwIP\src\api/api_lib.c ****  */
 871:Source\LwIP\src\api/api_lib.c **** err_t
 872:Source\LwIP\src\api/api_lib.c **** netconn_join_leave_group(struct netconn *conn,
 873:Source\LwIP\src\api/api_lib.c ****                          const ip_addr_t *multiaddr,
 874:Source\LwIP\src\api/api_lib.c ****                          const ip_addr_t *netif_addr,
 875:Source\LwIP\src\api/api_lib.c ****                          enum netconn_igmp join_or_leave)
 876:Source\LwIP\src\api/api_lib.c **** {
 1470              		.loc 1 876 0
 1471              		.cfi_startproc
 1472              		@ args = 0, pretend = 0, frame = 24
 1473              		@ frame_needed = 0, uses_anonymous_args = 0
 1474              	.LVL180:
 1475 0000 10B5     		push	{r4, lr}
ARM GAS  C:\Users\Phuong\AppData\Local\Temp\ccVcCKxe.s 			page 46


 1476              		.cfi_def_cfa_offset 8
 1477              		.cfi_offset 4, -8
 1478              		.cfi_offset 14, -4
 1479 0002 86B0     		sub	sp, sp, #24
 1480              		.cfi_def_cfa_offset 32
 877:Source\LwIP\src\api/api_lib.c ****   API_MSG_VAR_DECLARE(msg);
 878:Source\LwIP\src\api/api_lib.c ****   err_t err;
 879:Source\LwIP\src\api/api_lib.c **** 
 880:Source\LwIP\src\api/api_lib.c ****   LWIP_ERROR("netconn_join_leave_group: invalid conn",  (conn != NULL), return ERR_ARG;);
 1481              		.loc 1 880 0
 1482 0004 0028     		cmp	r0, #0
 1483 0006 0FD0     		beq	.L130
 881:Source\LwIP\src\api/api_lib.c **** 
 882:Source\LwIP\src\api/api_lib.c ****   API_MSG_VAR_ALLOC(msg);
 883:Source\LwIP\src\api/api_lib.c **** 
 884:Source\LwIP\src\api/api_lib.c **** #if LWIP_IPV4
 885:Source\LwIP\src\api/api_lib.c ****   /* Don't propagate NULL pointer (IP_ADDR_ANY alias) to subsequent functions */
 886:Source\LwIP\src\api/api_lib.c ****   if (multiaddr == NULL) {
 1484              		.loc 1 886 0
 1485 0008 0029     		cmp	r1, #0
 1486 000a 00D1     		bne	.L128
 887:Source\LwIP\src\api/api_lib.c ****     multiaddr = IP4_ADDR_ANY;
 1487              		.loc 1 887 0
 1488 000c 0849     		ldr	r1, .L133
 1489              	.LVL181:
 1490              	.L128:
 888:Source\LwIP\src\api/api_lib.c ****   }
 889:Source\LwIP\src\api/api_lib.c ****   if (netif_addr == NULL) {
 1491              		.loc 1 889 0
 1492 000e 002A     		cmp	r2, #0
 1493 0010 00D1     		bne	.L129
 890:Source\LwIP\src\api/api_lib.c ****     netif_addr = IP4_ADDR_ANY;
 1494              		.loc 1 890 0
 1495 0012 074A     		ldr	r2, .L133
 1496              	.LVL182:
 1497              	.L129:
 891:Source\LwIP\src\api/api_lib.c ****   }
 892:Source\LwIP\src\api/api_lib.c **** #endif /* LWIP_IPV4 */
 893:Source\LwIP\src\api/api_lib.c **** 
 894:Source\LwIP\src\api/api_lib.c ****   API_MSG_VAR_REF(msg).conn = conn;
 1498              		.loc 1 894 0
 1499 0014 01AC     		add	r4, sp, #4
 1500 0016 0190     		str	r0, [sp, #4]
 895:Source\LwIP\src\api/api_lib.c ****   API_MSG_VAR_REF(msg).msg.jl.multiaddr = API_MSG_VAR_REF(multiaddr);
 1501              		.loc 1 895 0
 1502 0018 0391     		str	r1, [sp, #12]
 896:Source\LwIP\src\api/api_lib.c ****   API_MSG_VAR_REF(msg).msg.jl.netif_addr = API_MSG_VAR_REF(netif_addr);
 1503              		.loc 1 896 0
 1504 001a 0492     		str	r2, [sp, #16]
 897:Source\LwIP\src\api/api_lib.c ****   API_MSG_VAR_REF(msg).msg.jl.join_or_leave = join_or_leave;
 1505              		.loc 1 897 0
 1506 001c 2374     		strb	r3, [r4, #16]
 898:Source\LwIP\src\api/api_lib.c ****   err = netconn_apimsg(lwip_netconn_do_join_leave_group, &API_MSG_VAR_REF(msg));
 1507              		.loc 1 898 0
 1508 001e 2100     		movs	r1, r4
 1509              	.LVL183:
 1510 0020 0448     		ldr	r0, .L133+4
ARM GAS  C:\Users\Phuong\AppData\Local\Temp\ccVcCKxe.s 			page 47


 1511              	.LVL184:
 1512 0022 FFF7FEFF 		bl	netconn_apimsg
 1513              	.LVL185:
 899:Source\LwIP\src\api/api_lib.c ****   API_MSG_VAR_FREE(msg);
 900:Source\LwIP\src\api/api_lib.c **** 
 901:Source\LwIP\src\api/api_lib.c ****   return err;
 1514              		.loc 1 901 0
 1515 0026 01E0     		b	.L127
 1516              	.LVL186:
 1517              	.L130:
 880:Source\LwIP\src\api/api_lib.c **** 
 1518              		.loc 1 880 0
 1519 0028 1020     		movs	r0, #16
 1520              	.LVL187:
 1521 002a 4042     		rsbs	r0, r0, #0
 1522              	.LVL188:
 1523              	.L127:
 902:Source\LwIP\src\api/api_lib.c **** }
 1524              		.loc 1 902 0
 1525 002c 06B0     		add	sp, sp, #24
 1526              		@ sp needed
 1527 002e 10BD     		pop	{r4, pc}
 1528              	.L134:
 1529              		.align	2
 1530              	.L133:
 1531 0030 00000000 		.word	ip_addr_any
 1532 0034 00000000 		.word	lwip_netconn_do_join_leave_group
 1533              		.cfi_endproc
 1534              	.LFE71:
 1535              		.size	netconn_join_leave_group, .-netconn_join_leave_group
 1536              		.section	.text.netconn_gethostbyname,"ax",%progbits
 1537              		.align	2
 1538              		.global	netconn_gethostbyname
 1539              		.code	16
 1540              		.thumb_func
 1541              		.type	netconn_gethostbyname, %function
 1542              	netconn_gethostbyname:
 1543              	.LFB72:
 903:Source\LwIP\src\api/api_lib.c **** #endif /* LWIP_IGMP || (LWIP_IPV6 && LWIP_IPV6_MLD) */
 904:Source\LwIP\src\api/api_lib.c **** 
 905:Source\LwIP\src\api/api_lib.c **** #if LWIP_DNS
 906:Source\LwIP\src\api/api_lib.c **** /**
 907:Source\LwIP\src\api/api_lib.c ****  * @ingroup netconn_common
 908:Source\LwIP\src\api/api_lib.c ****  * Execute a DNS query, only one IP address is returned
 909:Source\LwIP\src\api/api_lib.c ****  *
 910:Source\LwIP\src\api/api_lib.c ****  * @param name a string representation of the DNS host name to query
 911:Source\LwIP\src\api/api_lib.c ****  * @param addr a preallocated ip_addr_t where to store the resolved IP address
 912:Source\LwIP\src\api/api_lib.c ****  * @param dns_addrtype IP address type (IPv4 / IPv6)
 913:Source\LwIP\src\api/api_lib.c ****  * @return ERR_OK: resolving succeeded
 914:Source\LwIP\src\api/api_lib.c ****  *         ERR_MEM: memory error, try again later
 915:Source\LwIP\src\api/api_lib.c ****  *         ERR_ARG: dns client not initialized or invalid hostname
 916:Source\LwIP\src\api/api_lib.c ****  *         ERR_VAL: dns server response was invalid
 917:Source\LwIP\src\api/api_lib.c ****  */
 918:Source\LwIP\src\api/api_lib.c **** #if LWIP_IPV4 && LWIP_IPV6
 919:Source\LwIP\src\api/api_lib.c **** err_t
 920:Source\LwIP\src\api/api_lib.c **** netconn_gethostbyname_addrtype(const char *name, ip_addr_t *addr, u8_t dns_addrtype)
 921:Source\LwIP\src\api/api_lib.c **** #else
ARM GAS  C:\Users\Phuong\AppData\Local\Temp\ccVcCKxe.s 			page 48


 922:Source\LwIP\src\api/api_lib.c **** err_t
 923:Source\LwIP\src\api/api_lib.c **** netconn_gethostbyname(const char *name, ip_addr_t *addr)
 924:Source\LwIP\src\api/api_lib.c **** #endif
 925:Source\LwIP\src\api/api_lib.c **** {
 1544              		.loc 1 925 0
 1545              		.cfi_startproc
 1546              		@ args = 0, pretend = 0, frame = 32
 1547              		@ frame_needed = 0, uses_anonymous_args = 0
 1548              	.LVL189:
 1549 0000 10B5     		push	{r4, lr}
 1550              		.cfi_def_cfa_offset 8
 1551              		.cfi_offset 4, -8
 1552              		.cfi_offset 14, -4
 1553 0002 88B0     		sub	sp, sp, #32
 1554              		.cfi_def_cfa_offset 40
 926:Source\LwIP\src\api/api_lib.c ****   API_VAR_DECLARE(struct dns_api_msg, msg);
 927:Source\LwIP\src\api/api_lib.c **** #if !LWIP_MPU_COMPATIBLE
 928:Source\LwIP\src\api/api_lib.c ****   sys_sem_t sem;
 929:Source\LwIP\src\api/api_lib.c **** #endif /* LWIP_MPU_COMPATIBLE */
 930:Source\LwIP\src\api/api_lib.c ****   err_t err;
 931:Source\LwIP\src\api/api_lib.c ****   err_t cberr;
 932:Source\LwIP\src\api/api_lib.c **** 
 933:Source\LwIP\src\api/api_lib.c ****   LWIP_ERROR("netconn_gethostbyname: invalid name", (name != NULL), return ERR_ARG;);
 1555              		.loc 1 933 0
 1556 0004 0028     		cmp	r0, #0
 1557 0006 28D0     		beq	.L138
 934:Source\LwIP\src\api/api_lib.c ****   LWIP_ERROR("netconn_gethostbyname: invalid addr", (addr != NULL), return ERR_ARG;);
 1558              		.loc 1 934 0
 1559 0008 0029     		cmp	r1, #0
 1560 000a 29D0     		beq	.L139
 935:Source\LwIP\src\api/api_lib.c **** #if LWIP_MPU_COMPATIBLE
 936:Source\LwIP\src\api/api_lib.c ****   if (strlen(name) >= DNS_MAX_NAME_LENGTH) {
 937:Source\LwIP\src\api/api_lib.c ****     return ERR_ARG;
 938:Source\LwIP\src\api/api_lib.c ****   }
 939:Source\LwIP\src\api/api_lib.c **** #endif
 940:Source\LwIP\src\api/api_lib.c **** 
 941:Source\LwIP\src\api/api_lib.c ****   API_VAR_ALLOC(struct dns_api_msg, MEMP_DNS_API_MSG, msg, ERR_MEM);
 942:Source\LwIP\src\api/api_lib.c **** #if LWIP_MPU_COMPATIBLE
 943:Source\LwIP\src\api/api_lib.c ****   strncpy(API_VAR_REF(msg).name, name, DNS_MAX_NAME_LENGTH-1);
 944:Source\LwIP\src\api/api_lib.c ****   API_VAR_REF(msg).name[DNS_MAX_NAME_LENGTH-1] = 0;
 945:Source\LwIP\src\api/api_lib.c **** #else /* LWIP_MPU_COMPATIBLE */
 946:Source\LwIP\src\api/api_lib.c ****   msg.err = &err;
 1561              		.loc 1 946 0
 1562 000c 02AB     		add	r3, sp, #8
 1563 000e DC1C     		adds	r4, r3, #3
 1564 0010 0794     		str	r4, [sp, #28]
 947:Source\LwIP\src\api/api_lib.c ****   msg.sem = &sem;
 1565              		.loc 1 947 0
 1566 0012 03AB     		add	r3, sp, #12
 1567 0014 0693     		str	r3, [sp, #24]
 948:Source\LwIP\src\api/api_lib.c ****   API_VAR_REF(msg).addr = API_VAR_REF(addr);
 1568              		.loc 1 948 0
 1569 0016 0591     		str	r1, [sp, #20]
 949:Source\LwIP\src\api/api_lib.c ****   API_VAR_REF(msg).name = name;
 1570              		.loc 1 949 0
 1571 0018 0490     		str	r0, [sp, #16]
 950:Source\LwIP\src\api/api_lib.c **** #endif /* LWIP_MPU_COMPATIBLE */
ARM GAS  C:\Users\Phuong\AppData\Local\Temp\ccVcCKxe.s 			page 49


 951:Source\LwIP\src\api/api_lib.c **** #if LWIP_IPV4 && LWIP_IPV6
 952:Source\LwIP\src\api/api_lib.c ****   API_VAR_REF(msg).dns_addrtype = dns_addrtype;
 953:Source\LwIP\src\api/api_lib.c **** #endif /* LWIP_IPV4 && LWIP_IPV6 */
 954:Source\LwIP\src\api/api_lib.c **** #if LWIP_NETCONN_SEM_PER_THREAD
 955:Source\LwIP\src\api/api_lib.c ****   API_VAR_REF(msg).sem = LWIP_NETCONN_THREAD_SEM_GET();
 956:Source\LwIP\src\api/api_lib.c **** #else /* LWIP_NETCONN_SEM_PER_THREAD*/
 957:Source\LwIP\src\api/api_lib.c ****   err = sys_sem_new(API_EXPR_REF(API_VAR_REF(msg).sem), 0);
 1572              		.loc 1 957 0
 1573 001a 0021     		movs	r1, #0
 1574              	.LVL190:
 1575 001c 1800     		movs	r0, r3
 1576              	.LVL191:
 1577 001e FFF7FEFF 		bl	sys_sem_new
 1578              	.LVL192:
 1579 0022 2070     		strb	r0, [r4]
 958:Source\LwIP\src\api/api_lib.c ****   if (err != ERR_OK) {
 1580              		.loc 1 958 0
 1581 0024 0028     		cmp	r0, #0
 1582 0026 1DD1     		bne	.L136
 959:Source\LwIP\src\api/api_lib.c ****     API_VAR_FREE(MEMP_DNS_API_MSG, msg);
 960:Source\LwIP\src\api/api_lib.c ****     return err;
 961:Source\LwIP\src\api/api_lib.c ****   }
 962:Source\LwIP\src\api/api_lib.c **** #endif /* LWIP_NETCONN_SEM_PER_THREAD */
 963:Source\LwIP\src\api/api_lib.c **** 
 964:Source\LwIP\src\api/api_lib.c ****   cberr = tcpip_callback(lwip_netconn_do_gethostbyname, &API_VAR_REF(msg));
 1583              		.loc 1 964 0
 1584 0028 0122     		movs	r2, #1
 1585 002a 04A9     		add	r1, sp, #16
 1586 002c 0E48     		ldr	r0, .L140
 1587 002e FFF7FEFF 		bl	tcpip_callback_with_block
 1588              	.LVL193:
 1589 0032 041E     		subs	r4, r0, #0
 1590              	.LVL194:
 965:Source\LwIP\src\api/api_lib.c ****   if (cberr != ERR_OK) {
 1591              		.loc 1 965 0
 1592 0034 04D0     		beq	.L137
 966:Source\LwIP\src\api/api_lib.c **** #if !LWIP_NETCONN_SEM_PER_THREAD
 967:Source\LwIP\src\api/api_lib.c ****     sys_sem_free(API_EXPR_REF(API_VAR_REF(msg).sem));
 1593              		.loc 1 967 0
 1594 0036 0698     		ldr	r0, [sp, #24]
 1595              	.LVL195:
 1596 0038 FFF7FEFF 		bl	sys_sem_free
 1597              	.LVL196:
 968:Source\LwIP\src\api/api_lib.c **** #endif /* !LWIP_NETCONN_SEM_PER_THREAD */
 969:Source\LwIP\src\api/api_lib.c ****     API_VAR_FREE(MEMP_DNS_API_MSG, msg);
 970:Source\LwIP\src\api/api_lib.c ****     return cberr;
 1598              		.loc 1 970 0
 1599 003c 2000     		movs	r0, r4
 1600 003e 11E0     		b	.L136
 1601              	.LVL197:
 1602              	.L137:
 971:Source\LwIP\src\api/api_lib.c ****   }
 972:Source\LwIP\src\api/api_lib.c ****   sys_sem_wait(API_EXPR_REF_SEM(API_VAR_REF(msg).sem));
 1603              		.loc 1 972 0
 1604 0040 069B     		ldr	r3, [sp, #24]
 1605 0042 0193     		str	r3, [sp, #4]
 1606 0044 0021     		movs	r1, #0
ARM GAS  C:\Users\Phuong\AppData\Local\Temp\ccVcCKxe.s 			page 50


 1607 0046 1800     		movs	r0, r3
 1608              	.LVL198:
 1609 0048 FFF7FEFF 		bl	sys_arch_sem_wait
 1610              	.LVL199:
 973:Source\LwIP\src\api/api_lib.c **** #if !LWIP_NETCONN_SEM_PER_THREAD
 974:Source\LwIP\src\api/api_lib.c ****   sys_sem_free(API_EXPR_REF(API_VAR_REF(msg).sem));
 1611              		.loc 1 974 0
 1612 004c 0698     		ldr	r0, [sp, #24]
 1613 004e FFF7FEFF 		bl	sys_sem_free
 1614              	.LVL200:
 975:Source\LwIP\src\api/api_lib.c **** #endif /* !LWIP_NETCONN_SEM_PER_THREAD */
 976:Source\LwIP\src\api/api_lib.c **** 
 977:Source\LwIP\src\api/api_lib.c **** #if LWIP_MPU_COMPATIBLE
 978:Source\LwIP\src\api/api_lib.c ****   *addr = msg->addr;
 979:Source\LwIP\src\api/api_lib.c ****   err = msg->err;
 980:Source\LwIP\src\api/api_lib.c **** #endif /* LWIP_MPU_COMPATIBLE */
 981:Source\LwIP\src\api/api_lib.c **** 
 982:Source\LwIP\src\api/api_lib.c ****   API_VAR_FREE(MEMP_DNS_API_MSG, msg);
 983:Source\LwIP\src\api/api_lib.c ****   return err;
 1615              		.loc 1 983 0
 1616 0052 02AB     		add	r3, sp, #8
 1617 0054 0320     		movs	r0, #3
 1618 0056 1856     		ldrsb	r0, [r3, r0]
 1619 0058 04E0     		b	.L136
 1620              	.LVL201:
 1621              	.L138:
 933:Source\LwIP\src\api/api_lib.c ****   LWIP_ERROR("netconn_gethostbyname: invalid addr", (addr != NULL), return ERR_ARG;);
 1622              		.loc 1 933 0
 1623 005a 1020     		movs	r0, #16
 1624              	.LVL202:
 1625 005c 4042     		rsbs	r0, r0, #0
 1626 005e 01E0     		b	.L136
 1627              	.LVL203:
 1628              	.L139:
 934:Source\LwIP\src\api/api_lib.c **** #if LWIP_MPU_COMPATIBLE
 1629              		.loc 1 934 0
 1630 0060 1020     		movs	r0, #16
 1631              	.LVL204:
 1632 0062 4042     		rsbs	r0, r0, #0
 1633              	.LVL205:
 1634              	.L136:
 984:Source\LwIP\src\api/api_lib.c **** }
 1635              		.loc 1 984 0
 1636 0064 08B0     		add	sp, sp, #32
 1637              		@ sp needed
 1638 0066 10BD     		pop	{r4, pc}
 1639              	.L141:
 1640              		.align	2
 1641              	.L140:
 1642 0068 00000000 		.word	lwip_netconn_do_gethostbyname
 1643              		.cfi_endproc
 1644              	.LFE72:
 1645              		.size	netconn_gethostbyname, .-netconn_gethostbyname
 1646              		.section	.rodata.str1.4,"aMS",%progbits,1
 1647              		.align	2
 1648              	.LC13:
 1649 0000 536F7572 		.ascii	"Source\\LwIP\\src\\api\\api_lib.c\000"
ARM GAS  C:\Users\Phuong\AppData\Local\Temp\ccVcCKxe.s 			page 51


 1649      63655C4C 
 1649      7749505C 
 1649      7372635C 
 1649      6170695C 
 1650              		.text
 1651              	.Letext0:
 1652              		.file 2 "c:\\program files (x86)\\cypress\\psoc creator\\4.2\\psoc creator\\import\\gnu\\arm\\5.4.
 1653              		.file 3 ".\\Source\\FreeRTOS\\10.0.1\\Source\\include/queue.h"
 1654              		.file 4 ".\\Source\\FreeRTOS\\10.0.1\\Source\\include/semphr.h"
 1655              		.file 5 ".\\Source\\LwIP\\src\\include/arch/sys_arch.h"
 1656              		.file 6 ".\\Source\\LwIP\\src\\include/arch/cc.h"
 1657              		.file 7 ".\\Source\\LwIP\\src\\include/lwip/err.h"
 1658              		.file 8 ".\\Source\\LwIP\\src\\include/lwip/pbuf.h"
 1659              		.file 9 ".\\Source\\LwIP\\src\\include/lwip/ip4_addr.h"
 1660              		.file 10 ".\\Source\\LwIP\\src\\include/lwip/ip_addr.h"
 1661              		.file 11 ".\\Source\\LwIP\\src\\include/lwip/netbuf.h"
 1662              		.file 12 ".\\Source\\LwIP\\src\\include/lwip/api.h"
 1663              		.file 13 ".\\Source\\LwIP\\src\\include/lwip/ip.h"
 1664              		.file 14 ".\\Source\\LwIP\\src\\include/lwip/tcp.h"
 1665              		.file 15 ".\\Source\\LwIP\\src\\include/lwip/udp.h"
 1666              		.file 16 ".\\Source\\LwIP\\src\\include/lwip/raw.h"
 1667              		.file 17 ".\\Source\\LwIP\\src\\include/lwip/priv/api_msg.h"
 1668              		.file 18 ".\\Source\\LwIP\\src\\include/lwip/memp.h"
 1669              		.file 19 ".\\Source\\LwIP\\src\\include/lwip/tcpip.h"
 1670              		.file 20 ".\\Source\\LwIP\\src\\include/lwip/priv/tcp_priv.h"
 1671              		.file 21 ".\\Source\\LwIP\\src\\include/lwip/prot/tcp.h"
 1672              		.file 22 ".\\Source\\LwIP\\src\\include/lwip/priv/tcpip_priv.h"
 1673              		.file 23 ".\\Source\\LwIP\\src\\include/lwip/sys.h"
 1674              		.section	.debug_info,"",%progbits
 1675              	.Ldebug_info0:
 1676 0000 291A0000 		.4byte	0x1a29
 1677 0004 0400     		.2byte	0x4
 1678 0006 00000000 		.4byte	.Ldebug_abbrev0
 1679 000a 04       		.byte	0x4
 1680 000b 01       		.uleb128 0x1
 1681 000c 80020000 		.4byte	.LASF261
 1682 0010 0C       		.byte	0xc
 1683 0011 97090000 		.4byte	.LASF262
 1684 0015 BA030000 		.4byte	.LASF263
 1685 0019 00000000 		.4byte	.Ldebug_ranges0+0
 1686 001d 00000000 		.4byte	0
 1687 0021 00000000 		.4byte	.Ldebug_line0
 1688 0025 02       		.uleb128 0x2
 1689 0026 01       		.byte	0x1
 1690 0027 06       		.byte	0x6
 1691 0028 F80B0000 		.4byte	.LASF0
 1692 002c 02       		.uleb128 0x2
 1693 002d 01       		.byte	0x1
 1694 002e 08       		.byte	0x8
 1695 002f B0070000 		.4byte	.LASF1
 1696 0033 02       		.uleb128 0x2
 1697 0034 02       		.byte	0x2
 1698 0035 05       		.byte	0x5
 1699 0036 02080000 		.4byte	.LASF2
 1700 003a 02       		.uleb128 0x2
 1701 003b 02       		.byte	0x2
 1702 003c 07       		.byte	0x7
ARM GAS  C:\Users\Phuong\AppData\Local\Temp\ccVcCKxe.s 			page 52


 1703 003d 140C0000 		.4byte	.LASF3
 1704 0041 02       		.uleb128 0x2
 1705 0042 04       		.byte	0x4
 1706 0043 05       		.byte	0x5
 1707 0044 0C080000 		.4byte	.LASF4
 1708 0048 02       		.uleb128 0x2
 1709 0049 04       		.byte	0x4
 1710 004a 07       		.byte	0x7
 1711 004b E9090000 		.4byte	.LASF5
 1712 004f 02       		.uleb128 0x2
 1713 0050 08       		.byte	0x8
 1714 0051 05       		.byte	0x5
 1715 0052 55060000 		.4byte	.LASF6
 1716 0056 02       		.uleb128 0x2
 1717 0057 08       		.byte	0x8
 1718 0058 07       		.byte	0x7
 1719 0059 57030000 		.4byte	.LASF7
 1720 005d 03       		.uleb128 0x3
 1721 005e 04       		.byte	0x4
 1722 005f 05       		.byte	0x5
 1723 0060 696E7400 		.ascii	"int\000"
 1724 0064 02       		.uleb128 0x2
 1725 0065 04       		.byte	0x4
 1726 0066 07       		.byte	0x7
 1727 0067 D4000000 		.4byte	.LASF8
 1728 006b 04       		.uleb128 0x4
 1729 006c D0040000 		.4byte	.LASF14
 1730 0070 02       		.byte	0x2
 1731 0071 D8       		.byte	0xd8
 1732 0072 64000000 		.4byte	0x64
 1733 0076 02       		.uleb128 0x2
 1734 0077 08       		.byte	0x8
 1735 0078 04       		.byte	0x4
 1736 0079 69070000 		.4byte	.LASF9
 1737 007d 05       		.uleb128 0x5
 1738 007e 04       		.byte	0x4
 1739 007f 02       		.uleb128 0x2
 1740 0080 04       		.byte	0x4
 1741 0081 07       		.byte	0x7
 1742 0082 CC070000 		.4byte	.LASF10
 1743 0086 02       		.uleb128 0x2
 1744 0087 01       		.byte	0x1
 1745 0088 08       		.byte	0x8
 1746 0089 48000000 		.4byte	.LASF11
 1747 008d 06       		.uleb128 0x6
 1748 008e 04       		.byte	0x4
 1749 008f 93000000 		.4byte	0x93
 1750 0093 07       		.uleb128 0x7
 1751 0094 86000000 		.4byte	0x86
 1752 0098 06       		.uleb128 0x6
 1753 0099 04       		.byte	0x4
 1754 009a 9E000000 		.4byte	0x9e
 1755 009e 08       		.uleb128 0x8
 1756 009f 02       		.uleb128 0x2
 1757 00a0 04       		.byte	0x4
 1758 00a1 04       		.byte	0x4
 1759 00a2 0E0A0000 		.4byte	.LASF12
ARM GAS  C:\Users\Phuong\AppData\Local\Temp\ccVcCKxe.s 			page 53


 1760 00a6 02       		.uleb128 0x2
 1761 00a7 08       		.byte	0x8
 1762 00a8 04       		.byte	0x4
 1763 00a9 860C0000 		.4byte	.LASF13
 1764 00ad 06       		.uleb128 0x6
 1765 00ae 04       		.byte	0x4
 1766 00af B3000000 		.4byte	0xb3
 1767 00b3 09       		.uleb128 0x9
 1768 00b4 BE000000 		.4byte	0xbe
 1769 00b8 0A       		.uleb128 0xa
 1770 00b9 7D000000 		.4byte	0x7d
 1771 00bd 00       		.byte	0
 1772 00be 04       		.uleb128 0x4
 1773 00bf B6050000 		.4byte	.LASF15
 1774 00c3 03       		.byte	0x3
 1775 00c4 2E       		.byte	0x2e
 1776 00c5 7D000000 		.4byte	0x7d
 1777 00c9 04       		.uleb128 0x4
 1778 00ca 33080000 		.4byte	.LASF16
 1779 00ce 04       		.byte	0x4
 1780 00cf 25       		.byte	0x25
 1781 00d0 BE000000 		.4byte	0xbe
 1782 00d4 04       		.uleb128 0x4
 1783 00d5 D5080000 		.4byte	.LASF17
 1784 00d9 05       		.byte	0x5
 1785 00da 32       		.byte	0x32
 1786 00db C9000000 		.4byte	0xc9
 1787 00df 04       		.uleb128 0x4
 1788 00e0 DE090000 		.4byte	.LASF18
 1789 00e4 05       		.byte	0x5
 1790 00e5 33       		.byte	0x33
 1791 00e6 BE000000 		.4byte	0xbe
 1792 00ea 04       		.uleb128 0x4
 1793 00eb B6060000 		.4byte	.LASF19
 1794 00ef 06       		.byte	0x6
 1795 00f0 31       		.byte	0x31
 1796 00f1 2C000000 		.4byte	0x2c
 1797 00f5 04       		.uleb128 0x4
 1798 00f6 13050000 		.4byte	.LASF20
 1799 00fa 06       		.byte	0x6
 1800 00fb 32       		.byte	0x32
 1801 00fc 25000000 		.4byte	0x25
 1802 0100 04       		.uleb128 0x4
 1803 0101 8D070000 		.4byte	.LASF21
 1804 0105 06       		.byte	0x6
 1805 0106 33       		.byte	0x33
 1806 0107 3A000000 		.4byte	0x3a
 1807 010b 04       		.uleb128 0x4
 1808 010c 1B0A0000 		.4byte	.LASF22
 1809 0110 06       		.byte	0x6
 1810 0111 34       		.byte	0x34
 1811 0112 33000000 		.4byte	0x33
 1812 0116 04       		.uleb128 0x4
 1813 0117 E8070000 		.4byte	.LASF23
 1814 011b 06       		.byte	0x6
 1815 011c 35       		.byte	0x35
 1816 011d 48000000 		.4byte	0x48
ARM GAS  C:\Users\Phuong\AppData\Local\Temp\ccVcCKxe.s 			page 54


 1817 0121 04       		.uleb128 0x4
 1818 0122 A0050000 		.4byte	.LASF24
 1819 0126 06       		.byte	0x6
 1820 0127 38       		.byte	0x38
 1821 0128 5D000000 		.4byte	0x5d
 1822 012c 04       		.uleb128 0x4
 1823 012d 1D010000 		.4byte	.LASF25
 1824 0131 07       		.byte	0x7
 1825 0132 39       		.byte	0x39
 1826 0133 F5000000 		.4byte	0xf5
 1827 0137 0B       		.uleb128 0xb
 1828 0138 01       		.byte	0x1
 1829 0139 25000000 		.4byte	0x25
 1830 013d 07       		.byte	0x7
 1831 013e 3D       		.byte	0x3d
 1832 013f AA010000 		.4byte	0x1aa
 1833 0143 0C       		.uleb128 0xc
 1834 0144 D70B0000 		.4byte	.LASF26
 1835 0148 00       		.byte	0
 1836 0149 0D       		.uleb128 0xd
 1837 014a F90C0000 		.4byte	.LASF27
 1838 014e 7F       		.sleb128 -1
 1839 014f 0D       		.uleb128 0xd
 1840 0150 C4070000 		.4byte	.LASF28
 1841 0154 7E       		.sleb128 -2
 1842 0155 0D       		.uleb128 0xd
 1843 0156 21030000 		.4byte	.LASF29
 1844 015a 7D       		.sleb128 -3
 1845 015b 0D       		.uleb128 0xd
 1846 015c 710C0000 		.4byte	.LASF30
 1847 0160 7C       		.sleb128 -4
 1848 0161 0D       		.uleb128 0xd
 1849 0162 DF080000 		.4byte	.LASF31
 1850 0166 7B       		.sleb128 -5
 1851 0167 0D       		.uleb128 0xd
 1852 0168 A4030000 		.4byte	.LASF32
 1853 016c 7A       		.sleb128 -6
 1854 016d 0D       		.uleb128 0xd
 1855 016e 47050000 		.4byte	.LASF33
 1856 0172 79       		.sleb128 -7
 1857 0173 0D       		.uleb128 0xd
 1858 0174 9C000000 		.4byte	.LASF34
 1859 0178 78       		.sleb128 -8
 1860 0179 0D       		.uleb128 0xd
 1861 017a EC010000 		.4byte	.LASF35
 1862 017e 77       		.sleb128 -9
 1863 017f 0D       		.uleb128 0xd
 1864 0180 24090000 		.4byte	.LASF36
 1865 0184 76       		.sleb128 -10
 1866 0185 0D       		.uleb128 0xd
 1867 0186 320C0000 		.4byte	.LASF37
 1868 018a 75       		.sleb128 -11
 1869 018b 0D       		.uleb128 0xd
 1870 018c 92060000 		.4byte	.LASF38
 1871 0190 74       		.sleb128 -12
 1872 0191 0D       		.uleb128 0xd
 1873 0192 4D000000 		.4byte	.LASF39
ARM GAS  C:\Users\Phuong\AppData\Local\Temp\ccVcCKxe.s 			page 55


 1874 0196 73       		.sleb128 -13
 1875 0197 0D       		.uleb128 0xd
 1876 0198 B00B0000 		.4byte	.LASF40
 1877 019c 72       		.sleb128 -14
 1878 019d 0D       		.uleb128 0xd
 1879 019e 93000000 		.4byte	.LASF41
 1880 01a2 71       		.sleb128 -15
 1881 01a3 0D       		.uleb128 0xd
 1882 01a4 A4000000 		.4byte	.LASF42
 1883 01a8 70       		.sleb128 -16
 1884 01a9 00       		.byte	0
 1885 01aa 0E       		.uleb128 0xe
 1886 01ab D30A0000 		.4byte	.LASF48
 1887 01af 10       		.byte	0x10
 1888 01b0 08       		.byte	0x8
 1889 01b1 8E       		.byte	0x8e
 1890 01b2 0B020000 		.4byte	0x20b
 1891 01b6 0F       		.uleb128 0xf
 1892 01b7 F2000000 		.4byte	.LASF43
 1893 01bb 08       		.byte	0x8
 1894 01bc 90       		.byte	0x90
 1895 01bd 0B020000 		.4byte	0x20b
 1896 01c1 00       		.byte	0
 1897 01c2 0F       		.uleb128 0xf
 1898 01c3 D7040000 		.4byte	.LASF44
 1899 01c7 08       		.byte	0x8
 1900 01c8 93       		.byte	0x93
 1901 01c9 7D000000 		.4byte	0x7d
 1902 01cd 04       		.byte	0x4
 1903 01ce 0F       		.uleb128 0xf
 1904 01cf 870B0000 		.4byte	.LASF45
 1905 01d3 08       		.byte	0x8
 1906 01d4 9C       		.byte	0x9c
 1907 01d5 00010000 		.4byte	0x100
 1908 01d9 08       		.byte	0x8
 1909 01da 10       		.uleb128 0x10
 1910 01db 6C656E00 		.ascii	"len\000"
 1911 01df 08       		.byte	0x8
 1912 01e0 9F       		.byte	0x9f
 1913 01e1 00010000 		.4byte	0x100
 1914 01e5 0A       		.byte	0xa
 1915 01e6 0F       		.uleb128 0xf
 1916 01e7 CE0A0000 		.4byte	.LASF46
 1917 01eb 08       		.byte	0x8
 1918 01ec A2       		.byte	0xa2
 1919 01ed EA000000 		.4byte	0xea
 1920 01f1 0C       		.byte	0xc
 1921 01f2 0F       		.uleb128 0xf
 1922 01f3 8D000000 		.4byte	.LASF47
 1923 01f7 08       		.byte	0x8
 1924 01f8 A5       		.byte	0xa5
 1925 01f9 EA000000 		.4byte	0xea
 1926 01fd 0D       		.byte	0xd
 1927 01fe 10       		.uleb128 0x10
 1928 01ff 72656600 		.ascii	"ref\000"
 1929 0203 08       		.byte	0x8
 1930 0204 AC       		.byte	0xac
ARM GAS  C:\Users\Phuong\AppData\Local\Temp\ccVcCKxe.s 			page 56


 1931 0205 00010000 		.4byte	0x100
 1932 0209 0E       		.byte	0xe
 1933 020a 00       		.byte	0
 1934 020b 06       		.uleb128 0x6
 1935 020c 04       		.byte	0x4
 1936 020d AA010000 		.4byte	0x1aa
 1937 0211 0E       		.uleb128 0xe
 1938 0212 F5080000 		.4byte	.LASF49
 1939 0216 04       		.byte	0x4
 1940 0217 09       		.byte	0x9
 1941 0218 33       		.byte	0x33
 1942 0219 2A020000 		.4byte	0x22a
 1943 021d 0F       		.uleb128 0xf
 1944 021e 7C0B0000 		.4byte	.LASF50
 1945 0222 09       		.byte	0x9
 1946 0223 34       		.byte	0x34
 1947 0224 16010000 		.4byte	0x116
 1948 0228 00       		.byte	0
 1949 0229 00       		.byte	0
 1950 022a 04       		.uleb128 0x4
 1951 022b 7E030000 		.4byte	.LASF51
 1952 022f 09       		.byte	0x9
 1953 0230 39       		.byte	0x39
 1954 0231 11020000 		.4byte	0x211
 1955 0235 04       		.uleb128 0x4
 1956 0236 A70C0000 		.4byte	.LASF52
 1957 023a 0A       		.byte	0xa
 1958 023b F4       		.byte	0xf4
 1959 023c 2A020000 		.4byte	0x22a
 1960 0240 0E       		.uleb128 0xe
 1961 0241 99050000 		.4byte	.LASF53
 1962 0245 10       		.byte	0x10
 1963 0246 0B       		.byte	0xb
 1964 0247 3C       		.byte	0x3c
 1965 0248 7B020000 		.4byte	0x27b
 1966 024c 10       		.uleb128 0x10
 1967 024d 7000     		.ascii	"p\000"
 1968 024f 0B       		.byte	0xb
 1969 0250 3D       		.byte	0x3d
 1970 0251 0B020000 		.4byte	0x20b
 1971 0255 00       		.byte	0
 1972 0256 10       		.uleb128 0x10
 1973 0257 70747200 		.ascii	"ptr\000"
 1974 025b 0B       		.byte	0xb
 1975 025c 3D       		.byte	0x3d
 1976 025d 0B020000 		.4byte	0x20b
 1977 0261 04       		.byte	0x4
 1978 0262 0F       		.uleb128 0xf
 1979 0263 7C0B0000 		.4byte	.LASF50
 1980 0267 0B       		.byte	0xb
 1981 0268 3E       		.byte	0x3e
 1982 0269 35020000 		.4byte	0x235
 1983 026d 08       		.byte	0x8
 1984 026e 0F       		.uleb128 0xf
 1985 026f 79050000 		.4byte	.LASF54
 1986 0273 0B       		.byte	0xb
 1987 0274 3F       		.byte	0x3f
ARM GAS  C:\Users\Phuong\AppData\Local\Temp\ccVcCKxe.s 			page 57


 1988 0275 00010000 		.4byte	0x100
 1989 0279 0C       		.byte	0xc
 1990 027a 00       		.byte	0
 1991 027b 11       		.uleb128 0x11
 1992 027c 93070000 		.4byte	.LASF61
 1993 0280 01       		.byte	0x1
 1994 0281 2C000000 		.4byte	0x2c
 1995 0285 0C       		.byte	0xc
 1996 0286 64       		.byte	0x64
 1997 0287 B0020000 		.4byte	0x2b0
 1998 028b 0C       		.uleb128 0xc
 1999 028c 6E030000 		.4byte	.LASF55
 2000 0290 00       		.byte	0
 2001 0291 0C       		.uleb128 0xc
 2002 0292 240B0000 		.4byte	.LASF56
 2003 0296 10       		.byte	0x10
 2004 0297 0C       		.uleb128 0xc
 2005 0298 8E040000 		.4byte	.LASF57
 2006 029c 20       		.byte	0x20
 2007 029d 0C       		.uleb128 0xc
 2008 029e 3B0C0000 		.4byte	.LASF58
 2009 02a2 21       		.byte	0x21
 2010 02a3 0C       		.uleb128 0xc
 2011 02a4 09010000 		.4byte	.LASF59
 2012 02a8 22       		.byte	0x22
 2013 02a9 0C       		.uleb128 0xc
 2014 02aa 3B050000 		.4byte	.LASF60
 2015 02ae 40       		.byte	0x40
 2016 02af 00       		.byte	0
 2017 02b0 11       		.uleb128 0x11
 2018 02b1 D5010000 		.4byte	.LASF62
 2019 02b5 01       		.byte	0x1
 2020 02b6 2C000000 		.4byte	0x2c
 2021 02ba 0C       		.byte	0xc
 2022 02bb 86       		.byte	0x86
 2023 02bc DF020000 		.4byte	0x2df
 2024 02c0 0C       		.uleb128 0xc
 2025 02c1 BB060000 		.4byte	.LASF63
 2026 02c5 00       		.byte	0
 2027 02c6 0C       		.uleb128 0xc
 2028 02c7 C40C0000 		.4byte	.LASF64
 2029 02cb 01       		.byte	0x1
 2030 02cc 0C       		.uleb128 0xc
 2031 02cd 3F0B0000 		.4byte	.LASF65
 2032 02d1 02       		.byte	0x2
 2033 02d2 0C       		.uleb128 0xc
 2034 02d3 A0070000 		.4byte	.LASF66
 2035 02d7 03       		.byte	0x3
 2036 02d8 0C       		.uleb128 0xc
 2037 02d9 E3050000 		.4byte	.LASF67
 2038 02dd 04       		.byte	0x4
 2039 02de 00       		.byte	0
 2040 02df 11       		.uleb128 0x11
 2041 02e0 700A0000 		.4byte	.LASF68
 2042 02e4 01       		.byte	0x1
 2043 02e5 2C000000 		.4byte	0x2c
 2044 02e9 0C       		.byte	0xc
ARM GAS  C:\Users\Phuong\AppData\Local\Temp\ccVcCKxe.s 			page 58


 2045 02ea A8       		.byte	0xa8
 2046 02eb 0E030000 		.4byte	0x30e
 2047 02ef 0C       		.uleb128 0xc
 2048 02f0 EE070000 		.4byte	.LASF69
 2049 02f4 00       		.byte	0
 2050 02f5 0C       		.uleb128 0xc
 2051 02f6 5C050000 		.4byte	.LASF70
 2052 02fa 01       		.byte	0x1
 2053 02fb 0C       		.uleb128 0xc
 2054 02fc 26050000 		.4byte	.LASF71
 2055 0300 02       		.byte	0x2
 2056 0301 0C       		.uleb128 0xc
 2057 0302 070B0000 		.4byte	.LASF72
 2058 0306 03       		.byte	0x3
 2059 0307 0C       		.uleb128 0xc
 2060 0308 F7000000 		.4byte	.LASF73
 2061 030c 04       		.byte	0x4
 2062 030d 00       		.byte	0
 2063 030e 11       		.uleb128 0x11
 2064 030f DA0C0000 		.4byte	.LASF74
 2065 0313 01       		.byte	0x1
 2066 0314 2C000000 		.4byte	0x2c
 2067 0318 0C       		.byte	0xc
 2068 0319 B2       		.byte	0xb2
 2069 031a 2B030000 		.4byte	0x32b
 2070 031e 0C       		.uleb128 0xc
 2071 031f DE0B0000 		.4byte	.LASF75
 2072 0323 00       		.byte	0
 2073 0324 0C       		.uleb128 0xc
 2074 0325 18050000 		.4byte	.LASF76
 2075 0329 01       		.byte	0x1
 2076 032a 00       		.byte	0
 2077 032b 04       		.uleb128 0x4
 2078 032c 8C0A0000 		.4byte	.LASF77
 2079 0330 0C       		.byte	0xc
 2080 0331 CA       		.byte	0xca
 2081 0332 36030000 		.4byte	0x336
 2082 0336 06       		.uleb128 0x6
 2083 0337 04       		.byte	0x4
 2084 0338 3C030000 		.4byte	0x33c
 2085 033c 09       		.uleb128 0x9
 2086 033d 51030000 		.4byte	0x351
 2087 0341 0A       		.uleb128 0xa
 2088 0342 51030000 		.4byte	0x351
 2089 0346 0A       		.uleb128 0xa
 2090 0347 DF020000 		.4byte	0x2df
 2091 034b 0A       		.uleb128 0xa
 2092 034c 00010000 		.4byte	0x100
 2093 0350 00       		.byte	0
 2094 0351 06       		.uleb128 0x6
 2095 0352 04       		.byte	0x4
 2096 0353 57030000 		.4byte	0x357
 2097 0357 0E       		.uleb128 0xe
 2098 0358 B10C0000 		.4byte	.LASF78
 2099 035c 30       		.byte	0x30
 2100 035d 0C       		.byte	0xc
 2101 035e CD       		.byte	0xcd
ARM GAS  C:\Users\Phuong\AppData\Local\Temp\ccVcCKxe.s 			page 59


 2102 035f 04040000 		.4byte	0x404
 2103 0363 0F       		.uleb128 0xf
 2104 0364 CE0A0000 		.4byte	.LASF46
 2105 0368 0C       		.byte	0xc
 2106 0369 CF       		.byte	0xcf
 2107 036a 7B020000 		.4byte	0x27b
 2108 036e 00       		.byte	0
 2109 036f 0F       		.uleb128 0xf
 2110 0370 810B0000 		.4byte	.LASF79
 2111 0374 0C       		.byte	0xc
 2112 0375 D1       		.byte	0xd1
 2113 0376 B0020000 		.4byte	0x2b0
 2114 037a 01       		.byte	0x1
 2115 037b 10       		.uleb128 0x10
 2116 037c 70636200 		.ascii	"pcb\000"
 2117 0380 0C       		.byte	0xc
 2118 0381 D8       		.byte	0xd8
 2119 0382 04040000 		.4byte	0x404
 2120 0386 04       		.byte	0x4
 2121 0387 0F       		.uleb128 0xf
 2122 0388 F9040000 		.4byte	.LASF80
 2123 038c 0C       		.byte	0xc
 2124 038d DA       		.byte	0xda
 2125 038e 2C010000 		.4byte	0x12c
 2126 0392 08       		.byte	0x8
 2127 0393 0F       		.uleb128 0xf
 2128 0394 790C0000 		.4byte	.LASF81
 2129 0398 0C       		.byte	0xc
 2130 0399 DD       		.byte	0xdd
 2131 039a D4000000 		.4byte	0xd4
 2132 039e 0C       		.byte	0xc
 2133 039f 0F       		.uleb128 0xf
 2134 03a0 B9000000 		.4byte	.LASF82
 2135 03a4 0C       		.byte	0xc
 2136 03a5 E1       		.byte	0xe1
 2137 03a6 DF000000 		.4byte	0xdf
 2138 03aa 10       		.byte	0x10
 2139 03ab 0F       		.uleb128 0xf
 2140 03ac 1F060000 		.4byte	.LASF83
 2141 03b0 0C       		.byte	0xc
 2142 03b1 E5       		.byte	0xe5
 2143 03b2 DF000000 		.4byte	0xdf
 2144 03b6 14       		.byte	0x14
 2145 03b7 0F       		.uleb128 0xf
 2146 03b8 EE080000 		.4byte	.LASF84
 2147 03bc 0C       		.byte	0xc
 2148 03bd E9       		.byte	0xe9
 2149 03be 5D000000 		.4byte	0x5d
 2150 03c2 18       		.byte	0x18
 2151 03c3 0F       		.uleb128 0xf
 2152 03c4 CA0B0000 		.4byte	.LASF85
 2153 03c8 0C       		.byte	0xc
 2154 03c9 F3       		.byte	0xf3
 2155 03ca 5D000000 		.4byte	0x5d
 2156 03ce 1C       		.byte	0x1c
 2157 03cf 12       		.uleb128 0x12
 2158 03d0 8D000000 		.4byte	.LASF47
ARM GAS  C:\Users\Phuong\AppData\Local\Temp\ccVcCKxe.s 			page 60


 2159 03d4 0C       		.byte	0xc
 2160 03d5 0301     		.2byte	0x103
 2161 03d7 EA000000 		.4byte	0xea
 2162 03db 20       		.byte	0x20
 2163 03dc 12       		.uleb128 0x12
 2164 03dd 6F0B0000 		.4byte	.LASF86
 2165 03e1 0C       		.byte	0xc
 2166 03e2 0701     		.2byte	0x107
 2167 03e4 6B000000 		.4byte	0x6b
 2168 03e8 24       		.byte	0x24
 2169 03e9 12       		.uleb128 0x12
 2170 03ea 5E080000 		.4byte	.LASF87
 2171 03ee 0C       		.byte	0xc
 2172 03ef 0B01     		.2byte	0x10b
 2173 03f1 C0080000 		.4byte	0x8c0
 2174 03f5 28       		.byte	0x28
 2175 03f6 12       		.uleb128 0x12
 2176 03f7 8F0B0000 		.4byte	.LASF88
 2177 03fb 0C       		.byte	0xc
 2178 03fc 0E01     		.2byte	0x10e
 2179 03fe 2B030000 		.4byte	0x32b
 2180 0402 2C       		.byte	0x2c
 2181 0403 00       		.byte	0
 2182 0404 13       		.uleb128 0x13
 2183 0405 04       		.byte	0x4
 2184 0406 0C       		.byte	0xc
 2185 0407 D3       		.byte	0xd3
 2186 0408 38040000 		.4byte	0x438
 2187 040c 14       		.uleb128 0x14
 2188 040d 697000   		.ascii	"ip\000"
 2189 0410 0C       		.byte	0xc
 2190 0411 D4       		.byte	0xd4
 2191 0412 81040000 		.4byte	0x481
 2192 0416 14       		.uleb128 0x14
 2193 0417 74637000 		.ascii	"tcp\000"
 2194 041b 0C       		.byte	0xc
 2195 041c D5       		.byte	0xd5
 2196 041d 5B070000 		.4byte	0x75b
 2197 0421 14       		.uleb128 0x14
 2198 0422 75647000 		.ascii	"udp\000"
 2199 0426 0C       		.byte	0xc
 2200 0427 D6       		.byte	0xd6
 2201 0428 0A080000 		.4byte	0x80a
 2202 042c 14       		.uleb128 0x14
 2203 042d 72617700 		.ascii	"raw\000"
 2204 0431 0C       		.byte	0xc
 2205 0432 D7       		.byte	0xd7
 2206 0433 89080000 		.4byte	0x889
 2207 0437 00       		.byte	0
 2208 0438 0E       		.uleb128 0xe
 2209 0439 1D0B0000 		.4byte	.LASF89
 2210 043d 0C       		.byte	0xc
 2211 043e 0D       		.byte	0xd
 2212 043f 59       		.byte	0x59
 2213 0440 81040000 		.4byte	0x481
 2214 0444 0F       		.uleb128 0xf
 2215 0445 93080000 		.4byte	.LASF90
ARM GAS  C:\Users\Phuong\AppData\Local\Temp\ccVcCKxe.s 			page 61


 2216 0449 0D       		.byte	0xd
 2217 044a 5B       		.byte	0x5b
 2218 044b 35020000 		.4byte	0x235
 2219 044f 00       		.byte	0
 2220 0450 0F       		.uleb128 0xf
 2221 0451 570C0000 		.4byte	.LASF91
 2222 0455 0D       		.byte	0xd
 2223 0456 5B       		.byte	0x5b
 2224 0457 35020000 		.4byte	0x235
 2225 045b 04       		.byte	0x4
 2226 045c 0F       		.uleb128 0xf
 2227 045d D4060000 		.4byte	.LASF92
 2228 0461 0D       		.byte	0xd
 2229 0462 5B       		.byte	0x5b
 2230 0463 EA000000 		.4byte	0xea
 2231 0467 08       		.byte	0x8
 2232 0468 10       		.uleb128 0x10
 2233 0469 746F7300 		.ascii	"tos\000"
 2234 046d 0D       		.byte	0xd
 2235 046e 5B       		.byte	0x5b
 2236 046f EA000000 		.4byte	0xea
 2237 0473 09       		.byte	0x9
 2238 0474 10       		.uleb128 0x10
 2239 0475 74746C00 		.ascii	"ttl\000"
 2240 0479 0D       		.byte	0xd
 2241 047a 5B       		.byte	0x5b
 2242 047b EA000000 		.4byte	0xea
 2243 047f 0A       		.byte	0xa
 2244 0480 00       		.byte	0
 2245 0481 06       		.uleb128 0x6
 2246 0482 04       		.byte	0x4
 2247 0483 38040000 		.4byte	0x438
 2248 0487 0E       		.uleb128 0xe
 2249 0488 0C0C0000 		.4byte	.LASF93
 2250 048c A0       		.byte	0xa0
 2251 048d 0E       		.byte	0xe
 2252 048e C8       		.byte	0xc8
 2253 048f 5B070000 		.4byte	0x75b
 2254 0493 0F       		.uleb128 0xf
 2255 0494 93080000 		.4byte	.LASF90
 2256 0498 0E       		.byte	0xe
 2257 0499 CA       		.byte	0xca
 2258 049a 35020000 		.4byte	0x235
 2259 049e 00       		.byte	0
 2260 049f 0F       		.uleb128 0xf
 2261 04a0 570C0000 		.4byte	.LASF91
 2262 04a4 0E       		.byte	0xe
 2263 04a5 CA       		.byte	0xca
 2264 04a6 35020000 		.4byte	0x235
 2265 04aa 04       		.byte	0x4
 2266 04ab 0F       		.uleb128 0xf
 2267 04ac D4060000 		.4byte	.LASF92
 2268 04b0 0E       		.byte	0xe
 2269 04b1 CA       		.byte	0xca
 2270 04b2 EA000000 		.4byte	0xea
 2271 04b6 08       		.byte	0x8
 2272 04b7 10       		.uleb128 0x10
ARM GAS  C:\Users\Phuong\AppData\Local\Temp\ccVcCKxe.s 			page 62


 2273 04b8 746F7300 		.ascii	"tos\000"
 2274 04bc 0E       		.byte	0xe
 2275 04bd CA       		.byte	0xca
 2276 04be EA000000 		.4byte	0xea
 2277 04c2 09       		.byte	0x9
 2278 04c3 10       		.uleb128 0x10
 2279 04c4 74746C00 		.ascii	"ttl\000"
 2280 04c8 0E       		.byte	0xe
 2281 04c9 CA       		.byte	0xca
 2282 04ca EA000000 		.4byte	0xea
 2283 04ce 0A       		.byte	0xa
 2284 04cf 0F       		.uleb128 0xf
 2285 04d0 F2000000 		.4byte	.LASF43
 2286 04d4 0E       		.byte	0xe
 2287 04d5 CC       		.byte	0xcc
 2288 04d6 5B070000 		.4byte	0x75b
 2289 04da 0C       		.byte	0xc
 2290 04db 0F       		.uleb128 0xf
 2291 04dc 4E0B0000 		.4byte	.LASF94
 2292 04e0 0E       		.byte	0xe
 2293 04e1 CC       		.byte	0xcc
 2294 04e2 7D000000 		.4byte	0x7d
 2295 04e6 10       		.byte	0x10
 2296 04e7 0F       		.uleb128 0xf
 2297 04e8 810B0000 		.4byte	.LASF79
 2298 04ec 0E       		.byte	0xe
 2299 04ed CC       		.byte	0xcc
 2300 04ee 5A0C0000 		.4byte	0xc5a
 2301 04f2 14       		.byte	0x14
 2302 04f3 0F       		.uleb128 0xf
 2303 04f4 7E050000 		.4byte	.LASF95
 2304 04f8 0E       		.byte	0xe
 2305 04f9 CC       		.byte	0xcc
 2306 04fa EA000000 		.4byte	0xea
 2307 04fe 15       		.byte	0x15
 2308 04ff 0F       		.uleb128 0xf
 2309 0500 75020000 		.4byte	.LASF96
 2310 0504 0E       		.byte	0xe
 2311 0505 CC       		.byte	0xcc
 2312 0506 00010000 		.4byte	0x100
 2313 050a 16       		.byte	0x16
 2314 050b 0F       		.uleb128 0xf
 2315 050c EC060000 		.4byte	.LASF97
 2316 0510 0E       		.byte	0xe
 2317 0511 CF       		.byte	0xcf
 2318 0512 00010000 		.4byte	0x100
 2319 0516 18       		.byte	0x18
 2320 0517 0F       		.uleb128 0xf
 2321 0518 8D000000 		.4byte	.LASF47
 2322 051c 0E       		.byte	0xe
 2323 051d D1       		.byte	0xd1
 2324 051e 4F0C0000 		.4byte	0xc4f
 2325 0522 1A       		.byte	0x1a
 2326 0523 0F       		.uleb128 0xf
 2327 0524 77000000 		.4byte	.LASF98
 2328 0528 0E       		.byte	0xe
 2329 0529 E8       		.byte	0xe8
ARM GAS  C:\Users\Phuong\AppData\Local\Temp\ccVcCKxe.s 			page 63


 2330 052a EA000000 		.4byte	0xea
 2331 052e 1C       		.byte	0x1c
 2332 052f 0F       		.uleb128 0xf
 2333 0530 9F010000 		.4byte	.LASF99
 2334 0534 0E       		.byte	0xe
 2335 0535 E8       		.byte	0xe8
 2336 0536 EA000000 		.4byte	0xea
 2337 053a 1D       		.byte	0x1d
 2338 053b 0F       		.uleb128 0xf
 2339 053c 7B080000 		.4byte	.LASF100
 2340 0540 0E       		.byte	0xe
 2341 0541 E9       		.byte	0xe9
 2342 0542 EA000000 		.4byte	0xea
 2343 0546 1E       		.byte	0x1e
 2344 0547 10       		.uleb128 0x10
 2345 0548 746D7200 		.ascii	"tmr\000"
 2346 054c 0E       		.byte	0xe
 2347 054d EA       		.byte	0xea
 2348 054e 16010000 		.4byte	0x116
 2349 0552 20       		.byte	0x20
 2350 0553 0F       		.uleb128 0xf
 2351 0554 5F040000 		.4byte	.LASF101
 2352 0558 0E       		.byte	0xe
 2353 0559 ED       		.byte	0xed
 2354 055a 16010000 		.4byte	0x116
 2355 055e 24       		.byte	0x24
 2356 055f 0F       		.uleb128 0xf
 2357 0560 1F020000 		.4byte	.LASF102
 2358 0564 0E       		.byte	0xe
 2359 0565 EE       		.byte	0xee
 2360 0566 440C0000 		.4byte	0xc44
 2361 056a 28       		.byte	0x28
 2362 056b 0F       		.uleb128 0xf
 2363 056c 13070000 		.4byte	.LASF103
 2364 0570 0E       		.byte	0xe
 2365 0571 EF       		.byte	0xef
 2366 0572 440C0000 		.4byte	0xc44
 2367 0576 2A       		.byte	0x2a
 2368 0577 0F       		.uleb128 0xf
 2369 0578 47010000 		.4byte	.LASF104
 2370 057c 0E       		.byte	0xe
 2371 057d F0       		.byte	0xf0
 2372 057e 16010000 		.4byte	0x116
 2373 0582 2C       		.byte	0x2c
 2374 0583 0F       		.uleb128 0xf
 2375 0584 9E030000 		.4byte	.LASF105
 2376 0588 0E       		.byte	0xe
 2377 0589 F3       		.byte	0xf3
 2378 058a 0B010000 		.4byte	0x10b
 2379 058e 30       		.byte	0x30
 2380 058f 10       		.uleb128 0x10
 2381 0590 6D737300 		.ascii	"mss\000"
 2382 0594 0E       		.byte	0xe
 2383 0595 F5       		.byte	0xf5
 2384 0596 00010000 		.4byte	0x100
 2385 059a 32       		.byte	0x32
 2386 059b 0F       		.uleb128 0xf
ARM GAS  C:\Users\Phuong\AppData\Local\Temp\ccVcCKxe.s 			page 64


 2387 059c 57080000 		.4byte	.LASF106
 2388 05a0 0E       		.byte	0xe
 2389 05a1 F8       		.byte	0xf8
 2390 05a2 16010000 		.4byte	0x116
 2391 05a6 34       		.byte	0x34
 2392 05a7 0F       		.uleb128 0xf
 2393 05a8 56050000 		.4byte	.LASF107
 2394 05ac 0E       		.byte	0xe
 2395 05ad F9       		.byte	0xf9
 2396 05ae 16010000 		.4byte	0x116
 2397 05b2 38       		.byte	0x38
 2398 05b3 10       		.uleb128 0x10
 2399 05b4 736100   		.ascii	"sa\000"
 2400 05b7 0E       		.byte	0xe
 2401 05b8 FA       		.byte	0xfa
 2402 05b9 0B010000 		.4byte	0x10b
 2403 05bd 3C       		.byte	0x3c
 2404 05be 10       		.uleb128 0x10
 2405 05bf 737600   		.ascii	"sv\000"
 2406 05c2 0E       		.byte	0xe
 2407 05c3 FA       		.byte	0xfa
 2408 05c4 0B010000 		.4byte	0x10b
 2409 05c8 3E       		.byte	0x3e
 2410 05c9 10       		.uleb128 0x10
 2411 05ca 72746F00 		.ascii	"rto\000"
 2412 05ce 0E       		.byte	0xe
 2413 05cf FC       		.byte	0xfc
 2414 05d0 0B010000 		.4byte	0x10b
 2415 05d4 40       		.byte	0x40
 2416 05d5 0F       		.uleb128 0xf
 2417 05d6 E70C0000 		.4byte	.LASF108
 2418 05da 0E       		.byte	0xe
 2419 05db FD       		.byte	0xfd
 2420 05dc EA000000 		.4byte	0xea
 2421 05e0 42       		.byte	0x42
 2422 05e1 12       		.uleb128 0x12
 2423 05e2 71050000 		.4byte	.LASF109
 2424 05e6 0E       		.byte	0xe
 2425 05e7 0001     		.2byte	0x100
 2426 05e9 EA000000 		.4byte	0xea
 2427 05ed 43       		.byte	0x43
 2428 05ee 12       		.uleb128 0x12
 2429 05ef 02050000 		.4byte	.LASF110
 2430 05f3 0E       		.byte	0xe
 2431 05f4 0101     		.2byte	0x101
 2432 05f6 16010000 		.4byte	0x116
 2433 05fa 44       		.byte	0x44
 2434 05fb 12       		.uleb128 0x12
 2435 05fc 4D020000 		.4byte	.LASF111
 2436 0600 0E       		.byte	0xe
 2437 0601 0401     		.2byte	0x104
 2438 0603 440C0000 		.4byte	0xc44
 2439 0607 48       		.byte	0x48
 2440 0608 12       		.uleb128 0x12
 2441 0609 68090000 		.4byte	.LASF112
 2442 060d 0E       		.byte	0xe
 2443 060e 0501     		.2byte	0x105
ARM GAS  C:\Users\Phuong\AppData\Local\Temp\ccVcCKxe.s 			page 65


 2444 0610 440C0000 		.4byte	0xc44
 2445 0614 4A       		.byte	0x4a
 2446 0615 12       		.uleb128 0x12
 2447 0616 040C0000 		.4byte	.LASF113
 2448 061a 0E       		.byte	0xe
 2449 061b 0801     		.2byte	0x108
 2450 061d 16010000 		.4byte	0x116
 2451 0621 4C       		.byte	0x4c
 2452 0622 12       		.uleb128 0x12
 2453 0623 F6050000 		.4byte	.LASF114
 2454 0627 0E       		.byte	0xe
 2455 0628 0901     		.2byte	0x109
 2456 062a 16010000 		.4byte	0x116
 2457 062e 50       		.byte	0x50
 2458 062f 12       		.uleb128 0x12
 2459 0630 FE050000 		.4byte	.LASF115
 2460 0634 0E       		.byte	0xe
 2461 0635 0901     		.2byte	0x109
 2462 0637 16010000 		.4byte	0x116
 2463 063b 54       		.byte	0x54
 2464 063c 12       		.uleb128 0x12
 2465 063d 39060000 		.4byte	.LASF116
 2466 0641 0E       		.byte	0xe
 2467 0642 0B01     		.2byte	0x10b
 2468 0644 16010000 		.4byte	0x116
 2469 0648 58       		.byte	0x58
 2470 0649 12       		.uleb128 0x12
 2471 064a 85070000 		.4byte	.LASF117
 2472 064e 0E       		.byte	0xe
 2473 064f 0C01     		.2byte	0x10c
 2474 0651 440C0000 		.4byte	0xc44
 2475 0655 5C       		.byte	0x5c
 2476 0656 12       		.uleb128 0x12
 2477 0657 3E090000 		.4byte	.LASF118
 2478 065b 0E       		.byte	0xe
 2479 065c 0D01     		.2byte	0x10d
 2480 065e 440C0000 		.4byte	0xc44
 2481 0662 5E       		.byte	0x5e
 2482 0663 12       		.uleb128 0x12
 2483 0664 71090000 		.4byte	.LASF119
 2484 0668 0E       		.byte	0xe
 2485 0669 0F01     		.2byte	0x10f
 2486 066b 440C0000 		.4byte	0xc44
 2487 066f 60       		.byte	0x60
 2488 0670 12       		.uleb128 0x12
 2489 0671 EC0C0000 		.4byte	.LASF120
 2490 0675 0E       		.byte	0xe
 2491 0676 1101     		.2byte	0x111
 2492 0678 00010000 		.4byte	0x100
 2493 067c 62       		.byte	0x62
 2494 067d 12       		.uleb128 0x12
 2495 067e BC080000 		.4byte	.LASF121
 2496 0682 0E       		.byte	0xe
 2497 0683 1501     		.2byte	0x115
 2498 0685 00010000 		.4byte	0x100
 2499 0689 64       		.byte	0x64
 2500 068a 12       		.uleb128 0x12
ARM GAS  C:\Users\Phuong\AppData\Local\Temp\ccVcCKxe.s 			page 66


 2501 068b CA050000 		.4byte	.LASF122
 2502 068f 0E       		.byte	0xe
 2503 0690 1901     		.2byte	0x119
 2504 0692 B10D0000 		.4byte	0xdb1
 2505 0696 68       		.byte	0x68
 2506 0697 12       		.uleb128 0x12
 2507 0698 86040000 		.4byte	.LASF123
 2508 069c 0E       		.byte	0xe
 2509 069d 1A01     		.2byte	0x11a
 2510 069f B10D0000 		.4byte	0xdb1
 2511 06a3 6C       		.byte	0x6c
 2512 06a4 12       		.uleb128 0x12
 2513 06a5 BE070000 		.4byte	.LASF124
 2514 06a9 0E       		.byte	0xe
 2515 06aa 1C01     		.2byte	0x11c
 2516 06ac B10D0000 		.4byte	0xdb1
 2517 06b0 70       		.byte	0x70
 2518 06b1 12       		.uleb128 0x12
 2519 06b2 2A0A0000 		.4byte	.LASF125
 2520 06b6 0E       		.byte	0xe
 2521 06b7 1F01     		.2byte	0x11f
 2522 06b9 0B020000 		.4byte	0x20b
 2523 06bd 74       		.byte	0x74
 2524 06be 12       		.uleb128 0x12
 2525 06bf 6E000000 		.4byte	.LASF126
 2526 06c3 0E       		.byte	0xe
 2527 06c4 2201     		.2byte	0x122
 2528 06c6 560D0000 		.4byte	0xd56
 2529 06ca 78       		.byte	0x78
 2530 06cb 12       		.uleb128 0x12
 2531 06cc F1050000 		.4byte	.LASF127
 2532 06d0 0E       		.byte	0xe
 2533 06d1 2701     		.2byte	0x127
 2534 06d3 C90B0000 		.4byte	0xbc9
 2535 06d7 7C       		.byte	0x7c
 2536 06d8 12       		.uleb128 0x12
 2537 06d9 EB0B0000 		.4byte	.LASF128
 2538 06dd 0E       		.byte	0xe
 2539 06de 2901     		.2byte	0x129
 2540 06e0 9A0B0000 		.4byte	0xb9a
 2541 06e4 80       		.byte	0x80
 2542 06e5 12       		.uleb128 0x12
 2543 06e6 DF040000 		.4byte	.LASF129
 2544 06ea 0E       		.byte	0xe
 2545 06eb 2B01     		.2byte	0x12b
 2546 06ed 390C0000 		.4byte	0xc39
 2547 06f1 84       		.byte	0x84
 2548 06f2 12       		.uleb128 0x12
 2549 06f3 94050000 		.4byte	.LASF130
 2550 06f7 0E       		.byte	0xe
 2551 06f8 2D01     		.2byte	0x12d
 2552 06fa F30B0000 		.4byte	0xbf3
 2553 06fe 88       		.byte	0x88
 2554 06ff 12       		.uleb128 0x12
 2555 0700 80070000 		.4byte	.LASF131
 2556 0704 0E       		.byte	0xe
 2557 0705 2F01     		.2byte	0x12f
ARM GAS  C:\Users\Phuong\AppData\Local\Temp\ccVcCKxe.s 			page 67


 2558 0707 180C0000 		.4byte	0xc18
 2559 070b 8C       		.byte	0x8c
 2560 070c 12       		.uleb128 0x12
 2561 070d 350B0000 		.4byte	.LASF132
 2562 0711 0E       		.byte	0xe
 2563 0712 3801     		.2byte	0x138
 2564 0714 16010000 		.4byte	0x116
 2565 0718 90       		.byte	0x90
 2566 0719 12       		.uleb128 0x12
 2567 071a 8D0C0000 		.4byte	.LASF133
 2568 071e 0E       		.byte	0xe
 2569 071f 3A01     		.2byte	0x13a
 2570 0721 16010000 		.4byte	0x116
 2571 0725 94       		.byte	0x94
 2572 0726 12       		.uleb128 0x12
 2573 0727 E3010000 		.4byte	.LASF134
 2574 072b 0E       		.byte	0xe
 2575 072c 3B01     		.2byte	0x13b
 2576 072e 16010000 		.4byte	0x116
 2577 0732 98       		.byte	0x98
 2578 0733 12       		.uleb128 0x12
 2579 0734 4B0C0000 		.4byte	.LASF135
 2580 0738 0E       		.byte	0xe
 2581 0739 3F01     		.2byte	0x13f
 2582 073b EA000000 		.4byte	0xea
 2583 073f 9C       		.byte	0x9c
 2584 0740 12       		.uleb128 0x12
 2585 0741 99060000 		.4byte	.LASF136
 2586 0745 0E       		.byte	0xe
 2587 0746 4101     		.2byte	0x141
 2588 0748 EA000000 		.4byte	0xea
 2589 074c 9D       		.byte	0x9d
 2590 074d 12       		.uleb128 0x12
 2591 074e AC010000 		.4byte	.LASF137
 2592 0752 0E       		.byte	0xe
 2593 0753 4401     		.2byte	0x144
 2594 0755 EA000000 		.4byte	0xea
 2595 0759 9E       		.byte	0x9e
 2596 075a 00       		.byte	0
 2597 075b 06       		.uleb128 0x6
 2598 075c 04       		.byte	0x4
 2599 075d 87040000 		.4byte	0x487
 2600 0761 0E       		.uleb128 0xe
 2601 0762 1B000000 		.4byte	.LASF138
 2602 0766 28       		.byte	0x28
 2603 0767 0F       		.byte	0xf
 2604 0768 51       		.byte	0x51
 2605 0769 0A080000 		.4byte	0x80a
 2606 076d 0F       		.uleb128 0xf
 2607 076e 93080000 		.4byte	.LASF90
 2608 0772 0F       		.byte	0xf
 2609 0773 53       		.byte	0x53
 2610 0774 35020000 		.4byte	0x235
 2611 0778 00       		.byte	0
 2612 0779 0F       		.uleb128 0xf
 2613 077a 570C0000 		.4byte	.LASF91
 2614 077e 0F       		.byte	0xf
ARM GAS  C:\Users\Phuong\AppData\Local\Temp\ccVcCKxe.s 			page 68


 2615 077f 53       		.byte	0x53
 2616 0780 35020000 		.4byte	0x235
 2617 0784 04       		.byte	0x4
 2618 0785 0F       		.uleb128 0xf
 2619 0786 D4060000 		.4byte	.LASF92
 2620 078a 0F       		.byte	0xf
 2621 078b 53       		.byte	0x53
 2622 078c EA000000 		.4byte	0xea
 2623 0790 08       		.byte	0x8
 2624 0791 10       		.uleb128 0x10
 2625 0792 746F7300 		.ascii	"tos\000"
 2626 0796 0F       		.byte	0xf
 2627 0797 53       		.byte	0x53
 2628 0798 EA000000 		.4byte	0xea
 2629 079c 09       		.byte	0x9
 2630 079d 10       		.uleb128 0x10
 2631 079e 74746C00 		.ascii	"ttl\000"
 2632 07a2 0F       		.byte	0xf
 2633 07a3 53       		.byte	0x53
 2634 07a4 EA000000 		.4byte	0xea
 2635 07a8 0A       		.byte	0xa
 2636 07a9 0F       		.uleb128 0xf
 2637 07aa F2000000 		.4byte	.LASF43
 2638 07ae 0F       		.byte	0xf
 2639 07af 57       		.byte	0x57
 2640 07b0 0A080000 		.4byte	0x80a
 2641 07b4 0C       		.byte	0xc
 2642 07b5 0F       		.uleb128 0xf
 2643 07b6 8D000000 		.4byte	.LASF47
 2644 07ba 0F       		.byte	0xf
 2645 07bb 59       		.byte	0x59
 2646 07bc EA000000 		.4byte	0xea
 2647 07c0 10       		.byte	0x10
 2648 07c1 0F       		.uleb128 0xf
 2649 07c2 75020000 		.4byte	.LASF96
 2650 07c6 0F       		.byte	0xf
 2651 07c7 5B       		.byte	0x5b
 2652 07c8 00010000 		.4byte	0x100
 2653 07cc 12       		.byte	0x12
 2654 07cd 0F       		.uleb128 0xf
 2655 07ce EC060000 		.4byte	.LASF97
 2656 07d2 0F       		.byte	0xf
 2657 07d3 5B       		.byte	0x5b
 2658 07d4 00010000 		.4byte	0x100
 2659 07d8 14       		.byte	0x14
 2660 07d9 0F       		.uleb128 0xf
 2661 07da 5C070000 		.4byte	.LASF139
 2662 07de 0F       		.byte	0xf
 2663 07df 5F       		.byte	0x5f
 2664 07e0 35020000 		.4byte	0x235
 2665 07e4 18       		.byte	0x18
 2666 07e5 0F       		.uleb128 0xf
 2667 07e6 3D010000 		.4byte	.LASF140
 2668 07ea 0F       		.byte	0xf
 2669 07eb 61       		.byte	0x61
 2670 07ec EA000000 		.4byte	0xea
 2671 07f0 1C       		.byte	0x1c
ARM GAS  C:\Users\Phuong\AppData\Local\Temp\ccVcCKxe.s 			page 69


 2672 07f1 0F       		.uleb128 0xf
 2673 07f2 EB0B0000 		.4byte	.LASF128
 2674 07f6 0F       		.byte	0xf
 2675 07f7 6A       		.byte	0x6a
 2676 07f8 73090000 		.4byte	0x973
 2677 07fc 20       		.byte	0x20
 2678 07fd 0F       		.uleb128 0xf
 2679 07fe B5090000 		.4byte	.LASF141
 2680 0802 0F       		.byte	0xf
 2681 0803 6C       		.byte	0x6c
 2682 0804 7D000000 		.4byte	0x7d
 2683 0808 24       		.byte	0x24
 2684 0809 00       		.byte	0
 2685 080a 06       		.uleb128 0x6
 2686 080b 04       		.byte	0x4
 2687 080c 61070000 		.4byte	0x761
 2688 0810 0E       		.uleb128 0xe
 2689 0811 C2000000 		.4byte	.LASF142
 2690 0815 1C       		.byte	0x1c
 2691 0816 10       		.byte	0x10
 2692 0817 47       		.byte	0x47
 2693 0818 89080000 		.4byte	0x889
 2694 081c 0F       		.uleb128 0xf
 2695 081d 93080000 		.4byte	.LASF90
 2696 0821 10       		.byte	0x10
 2697 0822 49       		.byte	0x49
 2698 0823 35020000 		.4byte	0x235
 2699 0827 00       		.byte	0
 2700 0828 0F       		.uleb128 0xf
 2701 0829 570C0000 		.4byte	.LASF91
 2702 082d 10       		.byte	0x10
 2703 082e 49       		.byte	0x49
 2704 082f 35020000 		.4byte	0x235
 2705 0833 04       		.byte	0x4
 2706 0834 0F       		.uleb128 0xf
 2707 0835 D4060000 		.4byte	.LASF92
 2708 0839 10       		.byte	0x10
 2709 083a 49       		.byte	0x49
 2710 083b EA000000 		.4byte	0xea
 2711 083f 08       		.byte	0x8
 2712 0840 10       		.uleb128 0x10
 2713 0841 746F7300 		.ascii	"tos\000"
 2714 0845 10       		.byte	0x10
 2715 0846 49       		.byte	0x49
 2716 0847 EA000000 		.4byte	0xea
 2717 084b 09       		.byte	0x9
 2718 084c 10       		.uleb128 0x10
 2719 084d 74746C00 		.ascii	"ttl\000"
 2720 0851 10       		.byte	0x10
 2721 0852 49       		.byte	0x49
 2722 0853 EA000000 		.4byte	0xea
 2723 0857 0A       		.byte	0xa
 2724 0858 0F       		.uleb128 0xf
 2725 0859 F2000000 		.4byte	.LASF43
 2726 085d 10       		.byte	0x10
 2727 085e 4B       		.byte	0x4b
 2728 085f 89080000 		.4byte	0x889
ARM GAS  C:\Users\Phuong\AppData\Local\Temp\ccVcCKxe.s 			page 70


 2729 0863 0C       		.byte	0xc
 2730 0864 0F       		.uleb128 0xf
 2731 0865 5A010000 		.4byte	.LASF143
 2732 0869 10       		.byte	0x10
 2733 086a 4D       		.byte	0x4d
 2734 086b EA000000 		.4byte	0xea
 2735 086f 10       		.byte	0x10
 2736 0870 0F       		.uleb128 0xf
 2737 0871 EB0B0000 		.4byte	.LASF128
 2738 0875 10       		.byte	0x10
 2739 0876 50       		.byte	0x50
 2740 0877 39090000 		.4byte	0x939
 2741 087b 14       		.byte	0x14
 2742 087c 0F       		.uleb128 0xf
 2743 087d B5090000 		.4byte	.LASF141
 2744 0881 10       		.byte	0x10
 2745 0882 52       		.byte	0x52
 2746 0883 7D000000 		.4byte	0x7d
 2747 0887 18       		.byte	0x18
 2748 0888 00       		.byte	0
 2749 0889 06       		.uleb128 0x6
 2750 088a 04       		.byte	0x4
 2751 088b 10080000 		.4byte	0x810
 2752 088f 0E       		.uleb128 0xe
 2753 0890 41060000 		.4byte	.LASF144
 2754 0894 14       		.byte	0x14
 2755 0895 11       		.byte	0x11
 2756 0896 4F       		.byte	0x4f
 2757 0897 C0080000 		.4byte	0x8c0
 2758 089b 0F       		.uleb128 0xf
 2759 089c 56000000 		.4byte	.LASF145
 2760 08a0 11       		.byte	0x11
 2761 08a1 52       		.byte	0x52
 2762 08a2 51030000 		.4byte	0x351
 2763 08a6 00       		.byte	0
 2764 08a7 10       		.uleb128 0x10
 2765 08a8 65727200 		.ascii	"err\000"
 2766 08ac 11       		.byte	0x11
 2767 08ad 54       		.byte	0x54
 2768 08ae 2C010000 		.4byte	0x12c
 2769 08b2 04       		.byte	0x4
 2770 08b3 10       		.uleb128 0x10
 2771 08b4 6D736700 		.ascii	"msg\000"
 2772 08b8 11       		.byte	0x11
 2773 08b9 8D       		.byte	0x8d
 2774 08ba C80A0000 		.4byte	0xac8
 2775 08be 08       		.byte	0x8
 2776 08bf 00       		.byte	0
 2777 08c0 06       		.uleb128 0x6
 2778 08c1 04       		.byte	0x4
 2779 08c2 8F080000 		.4byte	0x88f
 2780 08c6 0B       		.uleb128 0xb
 2781 08c7 01       		.byte	0x1
 2782 08c8 2C000000 		.4byte	0x2c
 2783 08cc 12       		.byte	0x12
 2784 08cd 34       		.byte	0x34
 2785 08ce 39090000 		.4byte	0x939
ARM GAS  C:\Users\Phuong\AppData\Local\Temp\ccVcCKxe.s 			page 71


 2786 08d2 0C       		.uleb128 0xc
 2787 08d3 DF060000 		.4byte	.LASF146
 2788 08d7 00       		.byte	0
 2789 08d8 0C       		.uleb128 0xc
 2790 08d9 86080000 		.4byte	.LASF147
 2791 08dd 01       		.byte	0x1
 2792 08de 0C       		.uleb128 0xc
 2793 08df A9060000 		.4byte	.LASF148
 2794 08e3 02       		.byte	0x2
 2795 08e4 0C       		.uleb128 0xc
 2796 08e5 2E000000 		.4byte	.LASF149
 2797 08e9 03       		.byte	0x3
 2798 08ea 0C       		.uleb128 0xc
 2799 08eb C10A0000 		.4byte	.LASF150
 2800 08ef 04       		.byte	0x4
 2801 08f0 0C       		.uleb128 0xc
 2802 08f1 1F070000 		.4byte	.LASF151
 2803 08f5 05       		.byte	0x5
 2804 08f6 0C       		.uleb128 0xc
 2805 08f7 49060000 		.4byte	.LASF152
 2806 08fb 06       		.byte	0x6
 2807 08fc 0C       		.uleb128 0xc
 2808 08fd 27020000 		.4byte	.LASF153
 2809 0901 07       		.byte	0x7
 2810 0902 0C       		.uleb128 0xc
 2811 0903 62020000 		.4byte	.LASF154
 2812 0907 08       		.byte	0x8
 2813 0908 0C       		.uleb128 0xc
 2814 0909 67040000 		.4byte	.LASF155
 2815 090d 09       		.byte	0x9
 2816 090e 0C       		.uleb128 0xc
 2817 090f 12030000 		.4byte	.LASF156
 2818 0913 0A       		.byte	0xa
 2819 0914 0C       		.uleb128 0xc
 2820 0915 52020000 		.4byte	.LASF157
 2821 0919 0B       		.byte	0xb
 2822 091a 0C       		.uleb128 0xc
 2823 091b 6A080000 		.4byte	.LASF158
 2824 091f 0C       		.byte	0xc
 2825 0920 0C       		.uleb128 0xc
 2826 0921 B90C0000 		.4byte	.LASF159
 2827 0925 0D       		.byte	0xd
 2828 0926 0C       		.uleb128 0xc
 2829 0927 8A050000 		.4byte	.LASF160
 2830 092b 0E       		.byte	0xe
 2831 092c 0C       		.uleb128 0xc
 2832 092d BA010000 		.4byte	.LASF161
 2833 0931 0F       		.byte	0xf
 2834 0932 0C       		.uleb128 0xc
 2835 0933 0A050000 		.4byte	.LASF162
 2836 0937 10       		.byte	0x10
 2837 0938 00       		.byte	0
 2838 0939 04       		.uleb128 0x4
 2839 093a C8060000 		.4byte	.LASF163
 2840 093e 10       		.byte	0x10
 2841 093f 43       		.byte	0x43
 2842 0940 44090000 		.4byte	0x944
ARM GAS  C:\Users\Phuong\AppData\Local\Temp\ccVcCKxe.s 			page 72


 2843 0944 06       		.uleb128 0x6
 2844 0945 04       		.byte	0x4
 2845 0946 4A090000 		.4byte	0x94a
 2846 094a 15       		.uleb128 0x15
 2847 094b EA000000 		.4byte	0xea
 2848 094f 68090000 		.4byte	0x968
 2849 0953 0A       		.uleb128 0xa
 2850 0954 7D000000 		.4byte	0x7d
 2851 0958 0A       		.uleb128 0xa
 2852 0959 89080000 		.4byte	0x889
 2853 095d 0A       		.uleb128 0xa
 2854 095e 0B020000 		.4byte	0x20b
 2855 0962 0A       		.uleb128 0xa
 2856 0963 68090000 		.4byte	0x968
 2857 0967 00       		.byte	0
 2858 0968 06       		.uleb128 0x6
 2859 0969 04       		.byte	0x4
 2860 096a 6E090000 		.4byte	0x96e
 2861 096e 07       		.uleb128 0x7
 2862 096f 35020000 		.4byte	0x235
 2863 0973 04       		.uleb128 0x4
 2864 0974 DC070000 		.4byte	.LASF164
 2865 0978 0F       		.byte	0xf
 2866 0979 4D       		.byte	0x4d
 2867 097a 7E090000 		.4byte	0x97e
 2868 097e 06       		.uleb128 0x6
 2869 097f 04       		.byte	0x4
 2870 0980 84090000 		.4byte	0x984
 2871 0984 09       		.uleb128 0x9
 2872 0985 A3090000 		.4byte	0x9a3
 2873 0989 0A       		.uleb128 0xa
 2874 098a 7D000000 		.4byte	0x7d
 2875 098e 0A       		.uleb128 0xa
 2876 098f 0A080000 		.4byte	0x80a
 2877 0993 0A       		.uleb128 0xa
 2878 0994 0B020000 		.4byte	0x20b
 2879 0998 0A       		.uleb128 0xa
 2880 0999 68090000 		.4byte	0x968
 2881 099d 0A       		.uleb128 0xa
 2882 099e 00010000 		.4byte	0x100
 2883 09a2 00       		.byte	0
 2884 09a3 04       		.uleb128 0x4
 2885 09a4 45080000 		.4byte	.LASF165
 2886 09a8 13       		.byte	0x13
 2887 09a9 46       		.byte	0x46
 2888 09aa AD000000 		.4byte	0xad
 2889 09ae 06       		.uleb128 0x6
 2890 09af 04       		.byte	0x4
 2891 09b0 D4000000 		.4byte	0xd4
 2892 09b4 16       		.uleb128 0x16
 2893 09b5 01       		.byte	0x1
 2894 09b6 11       		.byte	0x11
 2895 09b7 5A       		.byte	0x5a
 2896 09b8 C9090000 		.4byte	0x9c9
 2897 09bc 0F       		.uleb128 0xf
 2898 09bd C4050000 		.4byte	.LASF166
 2899 09c1 11       		.byte	0x11
ARM GAS  C:\Users\Phuong\AppData\Local\Temp\ccVcCKxe.s 			page 73


 2900 09c2 5B       		.byte	0x5b
 2901 09c3 EA000000 		.4byte	0xea
 2902 09c7 00       		.byte	0
 2903 09c8 00       		.byte	0
 2904 09c9 16       		.uleb128 0x16
 2905 09ca 08       		.byte	0x8
 2906 09cb 11       		.byte	0x11
 2907 09cc 5E       		.byte	0x5e
 2908 09cd EA090000 		.4byte	0x9ea
 2909 09d1 0F       		.uleb128 0xf
 2910 09d2 C9040000 		.4byte	.LASF167
 2911 09d6 11       		.byte	0x11
 2912 09d7 5F       		.byte	0x5f
 2913 09d8 68090000 		.4byte	0x968
 2914 09dc 00       		.byte	0
 2915 09dd 0F       		.uleb128 0xf
 2916 09de 79050000 		.4byte	.LASF54
 2917 09e2 11       		.byte	0x11
 2918 09e3 60       		.byte	0x60
 2919 09e4 00010000 		.4byte	0x100
 2920 09e8 04       		.byte	0x4
 2921 09e9 00       		.byte	0
 2922 09ea 16       		.uleb128 0x16
 2923 09eb 0C       		.byte	0xc
 2924 09ec 11       		.byte	0x11
 2925 09ed 63       		.byte	0x63
 2926 09ee 170A0000 		.4byte	0xa17
 2927 09f2 0F       		.uleb128 0xf
 2928 09f3 C9040000 		.4byte	.LASF167
 2929 09f7 11       		.byte	0x11
 2930 09f8 64       		.byte	0x64
 2931 09f9 170A0000 		.4byte	0xa17
 2932 09fd 00       		.byte	0
 2933 09fe 0F       		.uleb128 0xf
 2934 09ff 79050000 		.4byte	.LASF54
 2935 0a03 11       		.byte	0x11
 2936 0a04 65       		.byte	0x65
 2937 0a05 1D0A0000 		.4byte	0xa1d
 2938 0a09 04       		.byte	0x4
 2939 0a0a 0F       		.uleb128 0xf
 2940 0a0b 23010000 		.4byte	.LASF168
 2941 0a0f 11       		.byte	0x11
 2942 0a10 66       		.byte	0x66
 2943 0a11 EA000000 		.4byte	0xea
 2944 0a15 08       		.byte	0x8
 2945 0a16 00       		.byte	0
 2946 0a17 06       		.uleb128 0x6
 2947 0a18 04       		.byte	0x4
 2948 0a19 35020000 		.4byte	0x235
 2949 0a1d 06       		.uleb128 0x6
 2950 0a1e 04       		.byte	0x4
 2951 0a1f 00010000 		.4byte	0x100
 2952 0a23 16       		.uleb128 0x16
 2953 0a24 0C       		.byte	0xc
 2954 0a25 11       		.byte	0x11
 2955 0a26 69       		.byte	0x69
 2956 0a27 500A0000 		.4byte	0xa50
ARM GAS  C:\Users\Phuong\AppData\Local\Temp\ccVcCKxe.s 			page 74


 2957 0a2b 0F       		.uleb128 0xf
 2958 0a2c 3A070000 		.4byte	.LASF169
 2959 0a30 11       		.byte	0x11
 2960 0a31 6A       		.byte	0x6a
 2961 0a32 98000000 		.4byte	0x98
 2962 0a36 00       		.byte	0
 2963 0a37 10       		.uleb128 0x10
 2964 0a38 6C656E00 		.ascii	"len\000"
 2965 0a3c 11       		.byte	0x11
 2966 0a3d 6B       		.byte	0x6b
 2967 0a3e 6B000000 		.4byte	0x6b
 2968 0a42 04       		.byte	0x4
 2969 0a43 0F       		.uleb128 0xf
 2970 0a44 210A0000 		.4byte	.LASF170
 2971 0a48 11       		.byte	0x11
 2972 0a49 6C       		.byte	0x6c
 2973 0a4a EA000000 		.4byte	0xea
 2974 0a4e 08       		.byte	0x8
 2975 0a4f 00       		.byte	0
 2976 0a50 16       		.uleb128 0x16
 2977 0a51 04       		.byte	0x4
 2978 0a52 11       		.byte	0x11
 2979 0a53 72       		.byte	0x72
 2980 0a54 650A0000 		.4byte	0xa65
 2981 0a58 10       		.uleb128 0x10
 2982 0a59 6C656E00 		.ascii	"len\000"
 2983 0a5d 11       		.byte	0x11
 2984 0a5e 73       		.byte	0x73
 2985 0a5f 16010000 		.4byte	0x116
 2986 0a63 00       		.byte	0
 2987 0a64 00       		.byte	0
 2988 0a65 16       		.uleb128 0x16
 2989 0a66 02       		.byte	0x2
 2990 0a67 11       		.byte	0x11
 2991 0a68 77       		.byte	0x77
 2992 0a69 860A0000 		.4byte	0xa86
 2993 0a6d 0F       		.uleb128 0xf
 2994 0a6e 300B0000 		.4byte	.LASF171
 2995 0a72 11       		.byte	0x11
 2996 0a73 78       		.byte	0x78
 2997 0a74 EA000000 		.4byte	0xea
 2998 0a78 00       		.byte	0
 2999 0a79 0F       		.uleb128 0xf
 3000 0a7a 23000000 		.4byte	.LASF172
 3001 0a7e 11       		.byte	0x11
 3002 0a7f 7C       		.byte	0x7c
 3003 0a80 EA000000 		.4byte	0xea
 3004 0a84 01       		.byte	0x1
 3005 0a85 00       		.byte	0
 3006 0a86 16       		.uleb128 0x16
 3007 0a87 0C       		.byte	0xc
 3008 0a88 11       		.byte	0x11
 3009 0a89 82       		.byte	0x82
 3010 0a8a B30A0000 		.4byte	0xab3
 3011 0a8e 0F       		.uleb128 0xf
 3012 0a8f B80B0000 		.4byte	.LASF173
 3013 0a93 11       		.byte	0x11
ARM GAS  C:\Users\Phuong\AppData\Local\Temp\ccVcCKxe.s 			page 75


 3014 0a94 83       		.byte	0x83
 3015 0a95 68090000 		.4byte	0x968
 3016 0a99 00       		.byte	0
 3017 0a9a 0F       		.uleb128 0xf
 3018 0a9b 270C0000 		.4byte	.LASF174
 3019 0a9f 11       		.byte	0x11
 3020 0aa0 84       		.byte	0x84
 3021 0aa1 68090000 		.4byte	0x968
 3022 0aa5 04       		.byte	0x4
 3023 0aa6 0F       		.uleb128 0xf
 3024 0aa7 11020000 		.4byte	.LASF175
 3025 0aab 11       		.byte	0x11
 3026 0aac 85       		.byte	0x85
 3027 0aad 0E030000 		.4byte	0x30e
 3028 0ab1 08       		.byte	0x8
 3029 0ab2 00       		.byte	0
 3030 0ab3 16       		.uleb128 0x16
 3031 0ab4 01       		.byte	0x1
 3032 0ab5 11       		.byte	0x11
 3033 0ab6 89       		.byte	0x89
 3034 0ab7 C80A0000 		.4byte	0xac8
 3035 0abb 0F       		.uleb128 0xf
 3036 0abc F1040000 		.4byte	.LASF176
 3037 0ac0 11       		.byte	0x11
 3038 0ac1 8A       		.byte	0x8a
 3039 0ac2 EA000000 		.4byte	0xea
 3040 0ac6 00       		.byte	0
 3041 0ac7 00       		.byte	0
 3042 0ac8 13       		.uleb128 0x13
 3043 0ac9 0C       		.byte	0xc
 3044 0aca 11       		.byte	0x11
 3045 0acb 56       		.byte	0x56
 3046 0acc 270B0000 		.4byte	0xb27
 3047 0ad0 14       		.uleb128 0x14
 3048 0ad1 6200     		.ascii	"b\000"
 3049 0ad3 11       		.byte	0x11
 3050 0ad4 58       		.byte	0x58
 3051 0ad5 270B0000 		.4byte	0xb27
 3052 0ad9 14       		.uleb128 0x14
 3053 0ada 6E00     		.ascii	"n\000"
 3054 0adc 11       		.byte	0x11
 3055 0add 5C       		.byte	0x5c
 3056 0ade B4090000 		.4byte	0x9b4
 3057 0ae2 14       		.uleb128 0x14
 3058 0ae3 626300   		.ascii	"bc\000"
 3059 0ae6 11       		.byte	0x11
 3060 0ae7 61       		.byte	0x61
 3061 0ae8 C9090000 		.4byte	0x9c9
 3062 0aec 14       		.uleb128 0x14
 3063 0aed 616400   		.ascii	"ad\000"
 3064 0af0 11       		.byte	0x11
 3065 0af1 67       		.byte	0x67
 3066 0af2 EA090000 		.4byte	0x9ea
 3067 0af6 14       		.uleb128 0x14
 3068 0af7 7700     		.ascii	"w\000"
 3069 0af9 11       		.byte	0x11
 3070 0afa 70       		.byte	0x70
ARM GAS  C:\Users\Phuong\AppData\Local\Temp\ccVcCKxe.s 			page 76


 3071 0afb 230A0000 		.4byte	0xa23
 3072 0aff 14       		.uleb128 0x14
 3073 0b00 7200     		.ascii	"r\000"
 3074 0b02 11       		.byte	0x11
 3075 0b03 74       		.byte	0x74
 3076 0b04 500A0000 		.4byte	0xa50
 3077 0b08 14       		.uleb128 0x14
 3078 0b09 736400   		.ascii	"sd\000"
 3079 0b0c 11       		.byte	0x11
 3080 0b0d 7E       		.byte	0x7e
 3081 0b0e 650A0000 		.4byte	0xa65
 3082 0b12 14       		.uleb128 0x14
 3083 0b13 6A6C00   		.ascii	"jl\000"
 3084 0b16 11       		.byte	0x11
 3085 0b17 86       		.byte	0x86
 3086 0b18 860A0000 		.4byte	0xa86
 3087 0b1c 14       		.uleb128 0x14
 3088 0b1d 6C6200   		.ascii	"lb\000"
 3089 0b20 11       		.byte	0x11
 3090 0b21 8B       		.byte	0x8b
 3091 0b22 B30A0000 		.4byte	0xab3
 3092 0b26 00       		.byte	0
 3093 0b27 06       		.uleb128 0x6
 3094 0b28 04       		.byte	0x4
 3095 0b29 40020000 		.4byte	0x240
 3096 0b2d 0E       		.uleb128 0xe
 3097 0b2e 29010000 		.4byte	.LASF177
 3098 0b32 10       		.byte	0x10
 3099 0b33 11       		.byte	0x11
 3100 0b34 9F       		.byte	0x9f
 3101 0b35 6A0B0000 		.4byte	0xb6a
 3102 0b39 0F       		.uleb128 0xf
 3103 0b3a 4A090000 		.4byte	.LASF178
 3104 0b3e 11       		.byte	0x11
 3105 0b3f A4       		.byte	0xa4
 3106 0b40 8D000000 		.4byte	0x8d
 3107 0b44 00       		.byte	0
 3108 0b45 0F       		.uleb128 0xf
 3109 0b46 7C0B0000 		.4byte	.LASF50
 3110 0b4a 11       		.byte	0x11
 3111 0b4b A7       		.byte	0xa7
 3112 0b4c 170A0000 		.4byte	0xa17
 3113 0b50 04       		.byte	0x4
 3114 0b51 10       		.uleb128 0x10
 3115 0b52 73656D00 		.ascii	"sem\000"
 3116 0b56 11       		.byte	0x11
 3117 0b57 AE       		.byte	0xae
 3118 0b58 AE090000 		.4byte	0x9ae
 3119 0b5c 08       		.byte	0x8
 3120 0b5d 10       		.uleb128 0x10
 3121 0b5e 65727200 		.ascii	"err\000"
 3122 0b62 11       		.byte	0x11
 3123 0b63 B0       		.byte	0xb0
 3124 0b64 6A0B0000 		.4byte	0xb6a
 3125 0b68 0C       		.byte	0xc
 3126 0b69 00       		.byte	0
 3127 0b6a 06       		.uleb128 0x6
ARM GAS  C:\Users\Phuong\AppData\Local\Temp\ccVcCKxe.s 			page 77


 3128 0b6b 04       		.byte	0x4
 3129 0b6c 2C010000 		.4byte	0x12c
 3130 0b70 04       		.uleb128 0x4
 3131 0b71 7F000000 		.4byte	.LASF179
 3132 0b75 0E       		.byte	0xe
 3133 0b76 44       		.byte	0x44
 3134 0b77 7B0B0000 		.4byte	0xb7b
 3135 0b7b 06       		.uleb128 0x6
 3136 0b7c 04       		.byte	0x4
 3137 0b7d 810B0000 		.4byte	0xb81
 3138 0b81 15       		.uleb128 0x15
 3139 0b82 2C010000 		.4byte	0x12c
 3140 0b86 9A0B0000 		.4byte	0xb9a
 3141 0b8a 0A       		.uleb128 0xa
 3142 0b8b 7D000000 		.4byte	0x7d
 3143 0b8f 0A       		.uleb128 0xa
 3144 0b90 5B070000 		.4byte	0x75b
 3145 0b94 0A       		.uleb128 0xa
 3146 0b95 2C010000 		.4byte	0x12c
 3147 0b99 00       		.byte	0
 3148 0b9a 04       		.uleb128 0x4
 3149 0b9b 2E070000 		.4byte	.LASF180
 3150 0b9f 0E       		.byte	0xe
 3151 0ba0 50       		.byte	0x50
 3152 0ba1 A50B0000 		.4byte	0xba5
 3153 0ba5 06       		.uleb128 0x6
 3154 0ba6 04       		.byte	0x4
 3155 0ba7 AB0B0000 		.4byte	0xbab
 3156 0bab 15       		.uleb128 0x15
 3157 0bac 2C010000 		.4byte	0x12c
 3158 0bb0 C90B0000 		.4byte	0xbc9
 3159 0bb4 0A       		.uleb128 0xa
 3160 0bb5 7D000000 		.4byte	0x7d
 3161 0bb9 0A       		.uleb128 0xa
 3162 0bba 5B070000 		.4byte	0x75b
 3163 0bbe 0A       		.uleb128 0xa
 3164 0bbf 0B020000 		.4byte	0x20b
 3165 0bc3 0A       		.uleb128 0xa
 3166 0bc4 2C010000 		.4byte	0x12c
 3167 0bc8 00       		.byte	0
 3168 0bc9 04       		.uleb128 0x4
 3169 0bca C9010000 		.4byte	.LASF181
 3170 0bce 0E       		.byte	0xe
 3171 0bcf 5E       		.byte	0x5e
 3172 0bd0 D40B0000 		.4byte	0xbd4
 3173 0bd4 06       		.uleb128 0x6
 3174 0bd5 04       		.byte	0x4
 3175 0bd6 DA0B0000 		.4byte	0xbda
 3176 0bda 15       		.uleb128 0x15
 3177 0bdb 2C010000 		.4byte	0x12c
 3178 0bdf F30B0000 		.4byte	0xbf3
 3179 0be3 0A       		.uleb128 0xa
 3180 0be4 7D000000 		.4byte	0x7d
 3181 0be8 0A       		.uleb128 0xa
 3182 0be9 5B070000 		.4byte	0x75b
 3183 0bed 0A       		.uleb128 0xa
 3184 0bee 00010000 		.4byte	0x100
ARM GAS  C:\Users\Phuong\AppData\Local\Temp\ccVcCKxe.s 			page 78


 3185 0bf2 00       		.byte	0
 3186 0bf3 04       		.uleb128 0x4
 3187 0bf4 50070000 		.4byte	.LASF182
 3188 0bf8 0E       		.byte	0xe
 3189 0bf9 6A       		.byte	0x6a
 3190 0bfa FE0B0000 		.4byte	0xbfe
 3191 0bfe 06       		.uleb128 0x6
 3192 0bff 04       		.byte	0x4
 3193 0c00 040C0000 		.4byte	0xc04
 3194 0c04 15       		.uleb128 0x15
 3195 0c05 2C010000 		.4byte	0x12c
 3196 0c09 180C0000 		.4byte	0xc18
 3197 0c0d 0A       		.uleb128 0xa
 3198 0c0e 7D000000 		.4byte	0x7d
 3199 0c12 0A       		.uleb128 0xa
 3200 0c13 5B070000 		.4byte	0x75b
 3201 0c17 00       		.byte	0
 3202 0c18 04       		.uleb128 0x4
 3203 0c19 14060000 		.4byte	.LASF183
 3204 0c1d 0E       		.byte	0xe
 3205 0c1e 76       		.byte	0x76
 3206 0c1f 230C0000 		.4byte	0xc23
 3207 0c23 06       		.uleb128 0x6
 3208 0c24 04       		.byte	0x4
 3209 0c25 290C0000 		.4byte	0xc29
 3210 0c29 09       		.uleb128 0x9
 3211 0c2a 390C0000 		.4byte	0xc39
 3212 0c2e 0A       		.uleb128 0xa
 3213 0c2f 7D000000 		.4byte	0x7d
 3214 0c33 0A       		.uleb128 0xa
 3215 0c34 2C010000 		.4byte	0x12c
 3216 0c38 00       		.byte	0
 3217 0c39 04       		.uleb128 0x4
 3218 0c3a E1000000 		.4byte	.LASF184
 3219 0c3e 0E       		.byte	0xe
 3220 0c3f 84       		.byte	0x84
 3221 0c40 7B0B0000 		.4byte	0xb7b
 3222 0c44 04       		.uleb128 0x4
 3223 0c45 4D0A0000 		.4byte	.LASF185
 3224 0c49 0E       		.byte	0xe
 3225 0c4a 91       		.byte	0x91
 3226 0c4b 00010000 		.4byte	0x100
 3227 0c4f 04       		.uleb128 0x4
 3228 0c50 75070000 		.4byte	.LASF186
 3229 0c54 0E       		.byte	0xe
 3230 0c55 95       		.byte	0x95
 3231 0c56 00010000 		.4byte	0x100
 3232 0c5a 11       		.uleb128 0x11
 3233 0c5b 89030000 		.4byte	.LASF187
 3234 0c5f 01       		.byte	0x1
 3235 0c60 2C000000 		.4byte	0x2c
 3236 0c64 0E       		.byte	0xe
 3237 0c65 9A       		.byte	0x9a
 3238 0c66 AD0C0000 		.4byte	0xcad
 3239 0c6a 0C       		.uleb128 0xc
 3240 0c6b D5070000 		.4byte	.LASF188
 3241 0c6f 00       		.byte	0
ARM GAS  C:\Users\Phuong\AppData\Local\Temp\ccVcCKxe.s 			page 79


 3242 0c70 0C       		.uleb128 0xc
 3243 0c71 5B0B0000 		.4byte	.LASF189
 3244 0c75 01       		.byte	0x1
 3245 0c76 0C       		.uleb128 0xc
 3246 0c77 CC080000 		.4byte	.LASF190
 3247 0c7b 02       		.byte	0x2
 3248 0c7c 0C       		.uleb128 0xc
 3249 0c7d 060D0000 		.4byte	.LASF191
 3250 0c81 03       		.byte	0x3
 3251 0c82 0C       		.uleb128 0xc
 3252 0c83 18090000 		.4byte	.LASF192
 3253 0c87 04       		.byte	0x4
 3254 0c88 0C       		.uleb128 0xc
 3255 0c89 D80A0000 		.4byte	.LASF193
 3256 0c8d 05       		.byte	0x5
 3257 0c8e 0C       		.uleb128 0xc
 3258 0c8f E30A0000 		.4byte	.LASF194
 3259 0c93 06       		.byte	0x6
 3260 0c94 0C       		.uleb128 0xc
 3261 0c95 AB050000 		.4byte	.LASF195
 3262 0c99 07       		.byte	0x7
 3263 0c9a 0C       		.uleb128 0xc
 3264 0c9b E9040000 		.4byte	.LASF196
 3265 0c9f 08       		.byte	0x8
 3266 0ca0 0C       		.uleb128 0xc
 3267 0ca1 A9040000 		.4byte	.LASF197
 3268 0ca5 09       		.byte	0x9
 3269 0ca6 0C       		.uleb128 0xc
 3270 0ca7 CA000000 		.4byte	.LASF198
 3271 0cab 0A       		.byte	0xa
 3272 0cac 00       		.byte	0
 3273 0cad 0E       		.uleb128 0xe
 3274 0cae 77060000 		.4byte	.LASF199
 3275 0cb2 20       		.byte	0x20
 3276 0cb3 0E       		.byte	0xe
 3277 0cb4 B5       		.byte	0xb5
 3278 0cb5 560D0000 		.4byte	0xd56
 3279 0cb9 0F       		.uleb128 0xf
 3280 0cba 93080000 		.4byte	.LASF90
 3281 0cbe 0E       		.byte	0xe
 3282 0cbf B7       		.byte	0xb7
 3283 0cc0 35020000 		.4byte	0x235
 3284 0cc4 00       		.byte	0
 3285 0cc5 0F       		.uleb128 0xf
 3286 0cc6 570C0000 		.4byte	.LASF91
 3287 0cca 0E       		.byte	0xe
 3288 0ccb B7       		.byte	0xb7
 3289 0ccc 35020000 		.4byte	0x235
 3290 0cd0 04       		.byte	0x4
 3291 0cd1 0F       		.uleb128 0xf
 3292 0cd2 D4060000 		.4byte	.LASF92
 3293 0cd6 0E       		.byte	0xe
 3294 0cd7 B7       		.byte	0xb7
 3295 0cd8 EA000000 		.4byte	0xea
 3296 0cdc 08       		.byte	0x8
 3297 0cdd 10       		.uleb128 0x10
 3298 0cde 746F7300 		.ascii	"tos\000"
ARM GAS  C:\Users\Phuong\AppData\Local\Temp\ccVcCKxe.s 			page 80


 3299 0ce2 0E       		.byte	0xe
 3300 0ce3 B7       		.byte	0xb7
 3301 0ce4 EA000000 		.4byte	0xea
 3302 0ce8 09       		.byte	0x9
 3303 0ce9 10       		.uleb128 0x10
 3304 0cea 74746C00 		.ascii	"ttl\000"
 3305 0cee 0E       		.byte	0xe
 3306 0cef B7       		.byte	0xb7
 3307 0cf0 EA000000 		.4byte	0xea
 3308 0cf4 0A       		.byte	0xa
 3309 0cf5 0F       		.uleb128 0xf
 3310 0cf6 F2000000 		.4byte	.LASF43
 3311 0cfa 0E       		.byte	0xe
 3312 0cfb B9       		.byte	0xb9
 3313 0cfc 560D0000 		.4byte	0xd56
 3314 0d00 0C       		.byte	0xc
 3315 0d01 0F       		.uleb128 0xf
 3316 0d02 4E0B0000 		.4byte	.LASF94
 3317 0d06 0E       		.byte	0xe
 3318 0d07 B9       		.byte	0xb9
 3319 0d08 7D000000 		.4byte	0x7d
 3320 0d0c 10       		.byte	0x10
 3321 0d0d 0F       		.uleb128 0xf
 3322 0d0e 810B0000 		.4byte	.LASF79
 3323 0d12 0E       		.byte	0xe
 3324 0d13 B9       		.byte	0xb9
 3325 0d14 5A0C0000 		.4byte	0xc5a
 3326 0d18 14       		.byte	0x14
 3327 0d19 0F       		.uleb128 0xf
 3328 0d1a 7E050000 		.4byte	.LASF95
 3329 0d1e 0E       		.byte	0xe
 3330 0d1f B9       		.byte	0xb9
 3331 0d20 EA000000 		.4byte	0xea
 3332 0d24 15       		.byte	0x15
 3333 0d25 0F       		.uleb128 0xf
 3334 0d26 75020000 		.4byte	.LASF96
 3335 0d2a 0E       		.byte	0xe
 3336 0d2b B9       		.byte	0xb9
 3337 0d2c 00010000 		.4byte	0x100
 3338 0d30 16       		.byte	0x16
 3339 0d31 0F       		.uleb128 0xf
 3340 0d32 83050000 		.4byte	.LASF200
 3341 0d36 0E       		.byte	0xe
 3342 0d37 BD       		.byte	0xbd
 3343 0d38 700B0000 		.4byte	0xb70
 3344 0d3c 18       		.byte	0x18
 3345 0d3d 0F       		.uleb128 0xf
 3346 0d3e F1040000 		.4byte	.LASF176
 3347 0d42 0E       		.byte	0xe
 3348 0d43 C1       		.byte	0xc1
 3349 0d44 EA000000 		.4byte	0xea
 3350 0d48 1C       		.byte	0x1c
 3351 0d49 0F       		.uleb128 0xf
 3352 0d4a B2040000 		.4byte	.LASF201
 3353 0d4e 0E       		.byte	0xe
 3354 0d4f C2       		.byte	0xc2
 3355 0d50 EA000000 		.4byte	0xea
ARM GAS  C:\Users\Phuong\AppData\Local\Temp\ccVcCKxe.s 			page 81


 3356 0d54 1D       		.byte	0x1d
 3357 0d55 00       		.byte	0
 3358 0d56 06       		.uleb128 0x6
 3359 0d57 04       		.byte	0x4
 3360 0d58 AD0C0000 		.4byte	0xcad
 3361 0d5c 0E       		.uleb128 0xe
 3362 0d5d 4F030000 		.4byte	.LASF202
 3363 0d61 14       		.byte	0x14
 3364 0d62 14       		.byte	0x14
 3365 0d63 F8       		.byte	0xf8
 3366 0d64 B10D0000 		.4byte	0xdb1
 3367 0d68 0F       		.uleb128 0xf
 3368 0d69 F2000000 		.4byte	.LASF43
 3369 0d6d 14       		.byte	0x14
 3370 0d6e F9       		.byte	0xf9
 3371 0d6f B10D0000 		.4byte	0xdb1
 3372 0d73 00       		.byte	0
 3373 0d74 10       		.uleb128 0x10
 3374 0d75 7000     		.ascii	"p\000"
 3375 0d77 14       		.byte	0x14
 3376 0d78 FA       		.byte	0xfa
 3377 0d79 0B020000 		.4byte	0x20b
 3378 0d7d 04       		.byte	0x4
 3379 0d7e 10       		.uleb128 0x10
 3380 0d7f 6C656E00 		.ascii	"len\000"
 3381 0d83 14       		.byte	0x14
 3382 0d84 FB       		.byte	0xfb
 3383 0d85 00010000 		.4byte	0x100
 3384 0d89 08       		.byte	0x8
 3385 0d8a 0F       		.uleb128 0xf
 3386 0d8b 06060000 		.4byte	.LASF203
 3387 0d8f 14       		.byte	0x14
 3388 0d90 FD       		.byte	0xfd
 3389 0d91 00010000 		.4byte	0x100
 3390 0d95 0A       		.byte	0xa
 3391 0d96 12       		.uleb128 0x12
 3392 0d97 8D000000 		.4byte	.LASF47
 3393 0d9b 14       		.byte	0x14
 3394 0d9c 0501     		.2byte	0x105
 3395 0d9e EA000000 		.4byte	0xea
 3396 0da2 0C       		.byte	0xc
 3397 0da3 12       		.uleb128 0x12
 3398 0da4 140A0000 		.4byte	.LASF204
 3399 0da8 14       		.byte	0x14
 3400 0da9 0B01     		.2byte	0x10b
 3401 0dab 240E0000 		.4byte	0xe24
 3402 0daf 10       		.byte	0x10
 3403 0db0 00       		.byte	0
 3404 0db1 06       		.uleb128 0x6
 3405 0db2 04       		.byte	0x4
 3406 0db3 5C0D0000 		.4byte	0xd5c
 3407 0db7 0E       		.uleb128 0xe
 3408 0db8 B90A0000 		.4byte	.LASF205
 3409 0dbc 14       		.byte	0x14
 3410 0dbd 15       		.byte	0x15
 3411 0dbe 38       		.byte	0x38
 3412 0dbf 240E0000 		.4byte	0xe24
ARM GAS  C:\Users\Phuong\AppData\Local\Temp\ccVcCKxe.s 			page 82


 3413 0dc3 10       		.uleb128 0x10
 3414 0dc4 73726300 		.ascii	"src\000"
 3415 0dc8 15       		.byte	0x15
 3416 0dc9 39       		.byte	0x39
 3417 0dca 00010000 		.4byte	0x100
 3418 0dce 00       		.byte	0
 3419 0dcf 0F       		.uleb128 0xf
 3420 0dd0 010D0000 		.4byte	.LASF206
 3421 0dd4 15       		.byte	0x15
 3422 0dd5 3A       		.byte	0x3a
 3423 0dd6 00010000 		.4byte	0x100
 3424 0dda 02       		.byte	0x2
 3425 0ddb 0F       		.uleb128 0xf
 3426 0ddc F8010000 		.4byte	.LASF207
 3427 0de0 15       		.byte	0x15
 3428 0de1 3B       		.byte	0x3b
 3429 0de2 16010000 		.4byte	0x116
 3430 0de6 04       		.byte	0x4
 3431 0de7 0F       		.uleb128 0xf
 3432 0de8 42000000 		.4byte	.LASF208
 3433 0dec 15       		.byte	0x15
 3434 0ded 3C       		.byte	0x3c
 3435 0dee 16010000 		.4byte	0x116
 3436 0df2 08       		.byte	0x8
 3437 0df3 0F       		.uleb128 0xf
 3438 0df4 BE090000 		.4byte	.LASF209
 3439 0df8 15       		.byte	0x15
 3440 0df9 3D       		.byte	0x3d
 3441 0dfa 00010000 		.4byte	0x100
 3442 0dfe 0C       		.byte	0xc
 3443 0dff 10       		.uleb128 0x10
 3444 0e00 776E6400 		.ascii	"wnd\000"
 3445 0e04 15       		.byte	0x15
 3446 0e05 3E       		.byte	0x3e
 3447 0e06 00010000 		.4byte	0x100
 3448 0e0a 0E       		.byte	0xe
 3449 0e0b 0F       		.uleb128 0xf
 3450 0e0c C2040000 		.4byte	.LASF210
 3451 0e10 15       		.byte	0x15
 3452 0e11 3F       		.byte	0x3f
 3453 0e12 00010000 		.4byte	0x100
 3454 0e16 10       		.byte	0x10
 3455 0e17 0F       		.uleb128 0xf
 3456 0e18 69000000 		.4byte	.LASF211
 3457 0e1c 15       		.byte	0x15
 3458 0e1d 40       		.byte	0x40
 3459 0e1e 00010000 		.4byte	0x100
 3460 0e22 12       		.byte	0x12
 3461 0e23 00       		.byte	0
 3462 0e24 06       		.uleb128 0x6
 3463 0e25 04       		.byte	0x4
 3464 0e26 B70D0000 		.4byte	0xdb7
 3465 0e2a 17       		.uleb128 0x17
 3466 0e2b 59090000 		.4byte	.LASF213
 3467 0e2f 01       		.byte	0x1
 3468 0e30 5C       		.byte	0x5c
 3469 0e31 2C010000 		.4byte	0x12c
ARM GAS  C:\Users\Phuong\AppData\Local\Temp\ccVcCKxe.s 			page 83


 3470 0e35 00000000 		.4byte	.LFB53
 3471 0e39 1A000000 		.4byte	.LFE53-.LFB53
 3472 0e3d 01       		.uleb128 0x1
 3473 0e3e 9C       		.byte	0x9c
 3474 0e3f 870E0000 		.4byte	0xe87
 3475 0e43 18       		.uleb128 0x18
 3476 0e44 666E00   		.ascii	"fn\000"
 3477 0e47 01       		.byte	0x1
 3478 0e48 5C       		.byte	0x5c
 3479 0e49 A3090000 		.4byte	0x9a3
 3480 0e4d 00000000 		.4byte	.LLST0
 3481 0e51 19       		.uleb128 0x19
 3482 0e52 15080000 		.4byte	.LASF212
 3483 0e56 01       		.byte	0x1
 3484 0e57 5C       		.byte	0x5c
 3485 0e58 C0080000 		.4byte	0x8c0
 3486 0e5c 21000000 		.4byte	.LLST1
 3487 0e60 1A       		.uleb128 0x1a
 3488 0e61 65727200 		.ascii	"err\000"
 3489 0e65 01       		.byte	0x1
 3490 0e66 5E       		.byte	0x5e
 3491 0e67 2C010000 		.4byte	0x12c
 3492 0e6b 4D000000 		.4byte	.LLST2
 3493 0e6f 1B       		.uleb128 0x1b
 3494 0e70 10000000 		.4byte	.LVL1
 3495 0e74 82190000 		.4byte	0x1982
 3496 0e78 1C       		.uleb128 0x1c
 3497 0e79 01       		.uleb128 0x1
 3498 0e7a 50       		.byte	0x50
 3499 0e7b 03       		.uleb128 0x3
 3500 0e7c F3       		.byte	0xf3
 3501 0e7d 01       		.uleb128 0x1
 3502 0e7e 50       		.byte	0x50
 3503 0e7f 1C       		.uleb128 0x1c
 3504 0e80 01       		.uleb128 0x1
 3505 0e81 51       		.byte	0x51
 3506 0e82 02       		.uleb128 0x2
 3507 0e83 74       		.byte	0x74
 3508 0e84 00       		.sleb128 0
 3509 0e85 00       		.byte	0
 3510 0e86 00       		.byte	0
 3511 0e87 1D       		.uleb128 0x1d
 3512 0e88 1C080000 		.4byte	.LASF214
 3513 0e8c 01       		.byte	0x1
 3514 0e8d 2203     		.2byte	0x322
 3515 0e8f 2C010000 		.4byte	0x12c
 3516 0e93 00000000 		.4byte	.LFB68
 3517 0e97 28000000 		.4byte	.LFE68-.LFB68
 3518 0e9b 01       		.uleb128 0x1
 3519 0e9c 9C       		.byte	0x9c
 3520 0e9d F10E0000 		.4byte	0xef1
 3521 0ea1 1E       		.uleb128 0x1e
 3522 0ea2 56000000 		.4byte	.LASF145
 3523 0ea6 01       		.byte	0x1
 3524 0ea7 2203     		.2byte	0x322
 3525 0ea9 51030000 		.4byte	0x351
 3526 0ead 60000000 		.4byte	.LLST3
ARM GAS  C:\Users\Phuong\AppData\Local\Temp\ccVcCKxe.s 			page 84


 3527 0eb1 1F       		.uleb128 0x1f
 3528 0eb2 686F7700 		.ascii	"how\000"
 3529 0eb6 01       		.byte	0x1
 3530 0eb7 2203     		.2byte	0x322
 3531 0eb9 EA000000 		.4byte	0xea
 3532 0ebd A6000000 		.4byte	.LLST4
 3533 0ec1 20       		.uleb128 0x20
 3534 0ec2 6D736700 		.ascii	"msg\000"
 3535 0ec6 01       		.byte	0x1
 3536 0ec7 2403     		.2byte	0x324
 3537 0ec9 8F080000 		.4byte	0x88f
 3538 0ecd 02       		.uleb128 0x2
 3539 0ece 91       		.byte	0x91
 3540 0ecf 64       		.sleb128 -28
 3541 0ed0 21       		.uleb128 0x21
 3542 0ed1 65727200 		.ascii	"err\000"
 3543 0ed5 01       		.byte	0x1
 3544 0ed6 2503     		.2byte	0x325
 3545 0ed8 2C010000 		.4byte	0x12c
 3546 0edc EC000000 		.4byte	.LLST5
 3547 0ee0 1B       		.uleb128 0x1b
 3548 0ee1 1A000000 		.4byte	.LVL7
 3549 0ee5 2A0E0000 		.4byte	0xe2a
 3550 0ee9 1C       		.uleb128 0x1c
 3551 0eea 01       		.uleb128 0x1
 3552 0eeb 51       		.byte	0x51
 3553 0eec 02       		.uleb128 0x2
 3554 0eed 91       		.byte	0x91
 3555 0eee 64       		.sleb128 -28
 3556 0eef 00       		.byte	0
 3557 0ef0 00       		.byte	0
 3558 0ef1 1D       		.uleb128 0x1d
 3559 0ef2 D1050000 		.4byte	.LASF215
 3560 0ef6 01       		.byte	0x1
 3561 0ef7 DC01     		.2byte	0x1dc
 3562 0ef9 2C010000 		.4byte	0x12c
 3563 0efd 00000000 		.4byte	.LFB62
 3564 0f01 FC000000 		.4byte	.LFE62-.LFB62
 3565 0f05 01       		.uleb128 0x1
 3566 0f06 9C       		.byte	0x9c
 3567 0f07 08100000 		.4byte	0x1008
 3568 0f0b 1E       		.uleb128 0x1e
 3569 0f0c 56000000 		.4byte	.LASF145
 3570 0f10 01       		.byte	0x1
 3571 0f11 DC01     		.2byte	0x1dc
 3572 0f13 51030000 		.4byte	0x351
 3573 0f17 FF000000 		.4byte	.LLST6
 3574 0f1b 1E       		.uleb128 0x1e
 3575 0f1c C20B0000 		.4byte	.LASF216
 3576 0f20 01       		.byte	0x1
 3577 0f21 DC01     		.2byte	0x1dc
 3578 0f23 08100000 		.4byte	0x1008
 3579 0f27 57010000 		.4byte	.LLST7
 3580 0f2b 20       		.uleb128 0x20
 3581 0f2c 62756600 		.ascii	"buf\000"
 3582 0f30 01       		.byte	0x1
 3583 0f31 DE01     		.2byte	0x1de
ARM GAS  C:\Users\Phuong\AppData\Local\Temp\ccVcCKxe.s 			page 85


 3584 0f33 7D000000 		.4byte	0x7d
 3585 0f37 02       		.uleb128 0x2
 3586 0f38 91       		.byte	0x91
 3587 0f39 6C       		.sleb128 -20
 3588 0f3a 21       		.uleb128 0x21
 3589 0f3b 6C656E00 		.ascii	"len\000"
 3590 0f3f 01       		.byte	0x1
 3591 0f40 DF01     		.2byte	0x1df
 3592 0f42 00010000 		.4byte	0x100
 3593 0f46 99010000 		.4byte	.LLST8
 3594 0f4a 20       		.uleb128 0x20
 3595 0f4b 6D736700 		.ascii	"msg\000"
 3596 0f4f 01       		.byte	0x1
 3597 0f50 E101     		.2byte	0x1e1
 3598 0f52 8F080000 		.4byte	0x88f
 3599 0f56 02       		.uleb128 0x2
 3600 0f57 91       		.byte	0x91
 3601 0f58 58       		.sleb128 -40
 3602 0f59 22       		.uleb128 0x22
 3603 0f5a 26000000 		.4byte	.LVL13
 3604 0f5e 8D190000 		.4byte	0x198d
 3605 0f62 6D0F0000 		.4byte	0xf6d
 3606 0f66 1C       		.uleb128 0x1c
 3607 0f67 01       		.uleb128 0x1
 3608 0f68 50       		.byte	0x50
 3609 0f69 02       		.uleb128 0x2
 3610 0f6a 74       		.byte	0x74
 3611 0f6b 10       		.sleb128 16
 3612 0f6c 00       		.byte	0
 3613 0f6d 22       		.uleb128 0x22
 3614 0f6e 32000000 		.4byte	.LVL14
 3615 0f72 8D190000 		.4byte	0x198d
 3616 0f76 810F0000 		.4byte	0xf81
 3617 0f7a 1C       		.uleb128 0x1c
 3618 0f7b 01       		.uleb128 0x1
 3619 0f7c 50       		.byte	0x50
 3620 0f7d 02       		.uleb128 0x2
 3621 0f7e 74       		.byte	0x74
 3622 0f7f 14       		.sleb128 20
 3623 0f80 00       		.byte	0
 3624 0f81 22       		.uleb128 0x22
 3625 0f82 46000000 		.4byte	.LVL15
 3626 0f86 8D190000 		.4byte	0x198d
 3627 0f8a 950F0000 		.4byte	0xf95
 3628 0f8e 1C       		.uleb128 0x1c
 3629 0f8f 01       		.uleb128 0x1
 3630 0f90 50       		.byte	0x50
 3631 0f91 02       		.uleb128 0x2
 3632 0f92 76       		.byte	0x76
 3633 0f93 00       		.sleb128 0
 3634 0f94 00       		.byte	0
 3635 0f95 22       		.uleb128 0x22
 3636 0f96 5E000000 		.4byte	.LVL16
 3637 0f9a 99190000 		.4byte	0x1999
 3638 0f9e AF0F0000 		.4byte	0xfaf
 3639 0fa2 1C       		.uleb128 0x1c
 3640 0fa3 01       		.uleb128 0x1
ARM GAS  C:\Users\Phuong\AppData\Local\Temp\ccVcCKxe.s 			page 86


 3641 0fa4 50       		.byte	0x50
 3642 0fa5 02       		.uleb128 0x2
 3643 0fa6 76       		.byte	0x76
 3644 0fa7 00       		.sleb128 0
 3645 0fa8 1C       		.uleb128 0x1c
 3646 0fa9 01       		.uleb128 0x1
 3647 0faa 51       		.byte	0x51
 3648 0fab 02       		.uleb128 0x2
 3649 0fac 91       		.byte	0x91
 3650 0fad 6C       		.sleb128 -20
 3651 0fae 00       		.byte	0
 3652 0faf 22       		.uleb128 0x22
 3653 0fb0 86000000 		.4byte	.LVL17
 3654 0fb4 2A0E0000 		.4byte	0xe2a
 3655 0fb8 C30F0000 		.4byte	0xfc3
 3656 0fbc 1C       		.uleb128 0x1c
 3657 0fbd 01       		.uleb128 0x1
 3658 0fbe 51       		.byte	0x51
 3659 0fbf 02       		.uleb128 0x2
 3660 0fc0 7D       		.byte	0x7d
 3661 0fc1 00       		.sleb128 0
 3662 0fc2 00       		.byte	0
 3663 0fc3 23       		.uleb128 0x23
 3664 0fc4 9A000000 		.4byte	.LVL18
 3665 0fc8 DD0F0000 		.4byte	0xfdd
 3666 0fcc 1C       		.uleb128 0x1c
 3667 0fcd 01       		.uleb128 0x1
 3668 0fce 50       		.byte	0x50
 3669 0fcf 02       		.uleb128 0x2
 3670 0fd0 74       		.byte	0x74
 3671 0fd1 00       		.sleb128 0
 3672 0fd2 1C       		.uleb128 0x1c
 3673 0fd3 01       		.uleb128 0x1
 3674 0fd4 51       		.byte	0x51
 3675 0fd5 01       		.uleb128 0x1
 3676 0fd6 31       		.byte	0x31
 3677 0fd7 1C       		.uleb128 0x1c
 3678 0fd8 01       		.uleb128 0x1
 3679 0fd9 52       		.byte	0x52
 3680 0fda 01       		.uleb128 0x1
 3681 0fdb 30       		.byte	0x30
 3682 0fdc 00       		.byte	0
 3683 0fdd 22       		.uleb128 0x22
 3684 0fde B4000000 		.4byte	.LVL19
 3685 0fe2 870E0000 		.4byte	0xe87
 3686 0fe6 F60F0000 		.4byte	0xff6
 3687 0fea 1C       		.uleb128 0x1c
 3688 0feb 01       		.uleb128 0x1
 3689 0fec 50       		.byte	0x50
 3690 0fed 02       		.uleb128 0x2
 3691 0fee 74       		.byte	0x74
 3692 0fef 00       		.sleb128 0
 3693 0ff0 1C       		.uleb128 0x1c
 3694 0ff1 01       		.uleb128 0x1
 3695 0ff2 51       		.byte	0x51
 3696 0ff3 01       		.uleb128 0x1
 3697 0ff4 31       		.byte	0x31
ARM GAS  C:\Users\Phuong\AppData\Local\Temp\ccVcCKxe.s 			page 87


 3698 0ff5 00       		.byte	0
 3699 0ff6 24       		.uleb128 0x24
 3700 0ff7 D0000000 		.4byte	.LVL23
 3701 0ffb 1C       		.uleb128 0x1c
 3702 0ffc 01       		.uleb128 0x1
 3703 0ffd 50       		.byte	0x50
 3704 0ffe 02       		.uleb128 0x2
 3705 0fff 74       		.byte	0x74
 3706 1000 00       		.sleb128 0
 3707 1001 1C       		.uleb128 0x1c
 3708 1002 01       		.uleb128 0x1
 3709 1003 51       		.byte	0x51
 3710 1004 01       		.uleb128 0x1
 3711 1005 31       		.byte	0x31
 3712 1006 00       		.byte	0
 3713 1007 00       		.byte	0
 3714 1008 06       		.uleb128 0x6
 3715 1009 04       		.byte	0x4
 3716 100a 7D000000 		.4byte	0x7d
 3717 100e 25       		.uleb128 0x25
 3718 100f 72010000 		.4byte	.LASF217
 3719 1013 01       		.byte	0x1
 3720 1014 7B       		.byte	0x7b
 3721 1015 51030000 		.4byte	0x351
 3722 1019 00000000 		.4byte	.LFB54
 3723 101d 60000000 		.4byte	.LFE54-.LFB54
 3724 1021 01       		.uleb128 0x1
 3725 1022 9C       		.byte	0x9c
 3726 1023 2B110000 		.4byte	0x112b
 3727 1027 18       		.uleb128 0x18
 3728 1028 7400     		.ascii	"t\000"
 3729 102a 01       		.byte	0x1
 3730 102b 7B       		.byte	0x7b
 3731 102c 7B020000 		.4byte	0x27b
 3732 1030 B7010000 		.4byte	.LLST9
 3733 1034 19       		.uleb128 0x19
 3734 1035 C4050000 		.4byte	.LASF166
 3735 1039 01       		.byte	0x1
 3736 103a 7B       		.byte	0x7b
 3737 103b EA000000 		.4byte	0xea
 3738 103f D8010000 		.4byte	.LLST10
 3739 1043 19       		.uleb128 0x19
 3740 1044 8F0B0000 		.4byte	.LASF88
 3741 1048 01       		.byte	0x1
 3742 1049 7B       		.byte	0x7b
 3743 104a 2B030000 		.4byte	0x32b
 3744 104e F9010000 		.4byte	.LLST11
 3745 1052 26       		.uleb128 0x26
 3746 1053 56000000 		.4byte	.LASF145
 3747 1057 01       		.byte	0x1
 3748 1058 7D       		.byte	0x7d
 3749 1059 51030000 		.4byte	0x351
 3750 105d 1A020000 		.4byte	.LLST12
 3751 1061 27       		.uleb128 0x27
 3752 1062 6D736700 		.ascii	"msg\000"
 3753 1066 01       		.byte	0x1
 3754 1067 7E       		.byte	0x7e
ARM GAS  C:\Users\Phuong\AppData\Local\Temp\ccVcCKxe.s 			page 88


 3755 1068 8F080000 		.4byte	0x88f
 3756 106c 02       		.uleb128 0x2
 3757 106d 91       		.byte	0x91
 3758 106e 5C       		.sleb128 -36
 3759 106f 28       		.uleb128 0x28
 3760 1070 10000000 		.4byte	.LBB2
 3761 1074 46000000 		.4byte	.LBE2-.LBB2
 3762 1078 19110000 		.4byte	0x1119
 3763 107c 1A       		.uleb128 0x1a
 3764 107d 65727200 		.ascii	"err\000"
 3765 1081 01       		.byte	0x1
 3766 1082 83       		.byte	0x83
 3767 1083 2C010000 		.4byte	0x12c
 3768 1087 4E020000 		.4byte	.LLST13
 3769 108b 22       		.uleb128 0x22
 3770 108c 1C000000 		.4byte	.LVL36
 3771 1090 2A0E0000 		.4byte	0xe2a
 3772 1094 9F100000 		.4byte	0x109f
 3773 1098 1C       		.uleb128 0x1c
 3774 1099 01       		.uleb128 0x1
 3775 109a 51       		.byte	0x51
 3776 109b 02       		.uleb128 0x2
 3777 109c 91       		.byte	0x91
 3778 109d 5C       		.sleb128 -36
 3779 109e 00       		.byte	0
 3780 109f 22       		.uleb128 0x22
 3781 10a0 2A000000 		.4byte	.LVL38
 3782 10a4 8D190000 		.4byte	0x198d
 3783 10a8 B3100000 		.4byte	0x10b3
 3784 10ac 1C       		.uleb128 0x1c
 3785 10ad 01       		.uleb128 0x1
 3786 10ae 50       		.byte	0x50
 3787 10af 02       		.uleb128 0x2
 3788 10b0 75       		.byte	0x75
 3789 10b1 00       		.sleb128 0
 3790 10b2 00       		.byte	0
 3791 10b3 22       		.uleb128 0x22
 3792 10b4 32000000 		.4byte	.LVL39
 3793 10b8 8D190000 		.4byte	0x198d
 3794 10bc C7100000 		.4byte	0x10c7
 3795 10c0 1C       		.uleb128 0x1c
 3796 10c1 01       		.uleb128 0x1
 3797 10c2 50       		.byte	0x50
 3798 10c3 02       		.uleb128 0x2
 3799 10c4 74       		.byte	0x74
 3800 10c5 14       		.sleb128 20
 3801 10c6 00       		.byte	0
 3802 10c7 22       		.uleb128 0x22
 3803 10c8 3C000000 		.4byte	.LVL40
 3804 10cc A5190000 		.4byte	0x19a5
 3805 10d0 DB100000 		.4byte	0x10db
 3806 10d4 1C       		.uleb128 0x1c
 3807 10d5 01       		.uleb128 0x1
 3808 10d6 50       		.byte	0x50
 3809 10d7 02       		.uleb128 0x2
 3810 10d8 76       		.byte	0x76
 3811 10d9 00       		.sleb128 0
ARM GAS  C:\Users\Phuong\AppData\Local\Temp\ccVcCKxe.s 			page 89


 3812 10da 00       		.byte	0
 3813 10db 22       		.uleb128 0x22
 3814 10dc 42000000 		.4byte	.LVL41
 3815 10e0 B0190000 		.4byte	0x19b0
 3816 10e4 EF100000 		.4byte	0x10ef
 3817 10e8 1C       		.uleb128 0x1c
 3818 10e9 01       		.uleb128 0x1
 3819 10ea 50       		.byte	0x50
 3820 10eb 02       		.uleb128 0x2
 3821 10ec 76       		.byte	0x76
 3822 10ed 00       		.sleb128 0
 3823 10ee 00       		.byte	0
 3824 10ef 22       		.uleb128 0x22
 3825 10f0 48000000 		.4byte	.LVL42
 3826 10f4 BB190000 		.4byte	0x19bb
 3827 10f8 03110000 		.4byte	0x1103
 3828 10fc 1C       		.uleb128 0x1c
 3829 10fd 01       		.uleb128 0x1
 3830 10fe 50       		.byte	0x50
 3831 10ff 02       		.uleb128 0x2
 3832 1100 75       		.byte	0x75
 3833 1101 00       		.sleb128 0
 3834 1102 00       		.byte	0
 3835 1103 1B       		.uleb128 0x1b
 3836 1104 50000000 		.4byte	.LVL43
 3837 1108 C7190000 		.4byte	0x19c7
 3838 110c 1C       		.uleb128 0x1c
 3839 110d 01       		.uleb128 0x1
 3840 110e 50       		.byte	0x50
 3841 110f 01       		.uleb128 0x1
 3842 1110 37       		.byte	0x37
 3843 1111 1C       		.uleb128 0x1c
 3844 1112 01       		.uleb128 0x1
 3845 1113 51       		.byte	0x51
 3846 1114 02       		.uleb128 0x2
 3847 1115 74       		.byte	0x74
 3848 1116 00       		.sleb128 0
 3849 1117 00       		.byte	0
 3850 1118 00       		.byte	0
 3851 1119 1B       		.uleb128 0x1b
 3852 111a 0C000000 		.4byte	.LVL33
 3853 111e D2190000 		.4byte	0x19d2
 3854 1122 1C       		.uleb128 0x1c
 3855 1123 01       		.uleb128 0x1
 3856 1124 51       		.byte	0x51
 3857 1125 03       		.uleb128 0x3
 3858 1126 F3       		.byte	0xf3
 3859 1127 01       		.uleb128 0x1
 3860 1128 52       		.byte	0x52
 3861 1129 00       		.byte	0
 3862 112a 00       		.byte	0
 3863 112b 25       		.uleb128 0x25
 3864 112c 63010000 		.4byte	.LASF218
 3865 1130 01       		.byte	0x1
 3866 1131 A6       		.byte	0xa6
 3867 1132 2C010000 		.4byte	0x12c
 3868 1136 00000000 		.4byte	.LFB55
ARM GAS  C:\Users\Phuong\AppData\Local\Temp\ccVcCKxe.s 			page 90


 3869 113a 30000000 		.4byte	.LFE55-.LFB55
 3870 113e 01       		.uleb128 0x1
 3871 113f 9C       		.byte	0x9c
 3872 1140 95110000 		.4byte	0x1195
 3873 1144 19       		.uleb128 0x19
 3874 1145 56000000 		.4byte	.LASF145
 3875 1149 01       		.byte	0x1
 3876 114a A6       		.byte	0xa6
 3877 114b 51030000 		.4byte	0x351
 3878 114f 6C020000 		.4byte	.LLST14
 3879 1153 1A       		.uleb128 0x1a
 3880 1154 65727200 		.ascii	"err\000"
 3881 1158 01       		.byte	0x1
 3882 1159 A8       		.byte	0xa8
 3883 115a 2C010000 		.4byte	0x12c
 3884 115e AE020000 		.4byte	.LLST15
 3885 1162 27       		.uleb128 0x27
 3886 1163 6D736700 		.ascii	"msg\000"
 3887 1167 01       		.byte	0x1
 3888 1168 A9       		.byte	0xa9
 3889 1169 8F080000 		.4byte	0x88f
 3890 116d 02       		.uleb128 0x2
 3891 116e 91       		.byte	0x91
 3892 116f 64       		.sleb128 -28
 3893 1170 22       		.uleb128 0x22
 3894 1171 16000000 		.4byte	.LVL50
 3895 1175 2A0E0000 		.4byte	0xe2a
 3896 1179 84110000 		.4byte	0x1184
 3897 117d 1C       		.uleb128 0x1c
 3898 117e 01       		.uleb128 0x1
 3899 117f 51       		.byte	0x51
 3900 1180 02       		.uleb128 0x2
 3901 1181 91       		.byte	0x91
 3902 1182 64       		.sleb128 -28
 3903 1183 00       		.byte	0
 3904 1184 1B       		.uleb128 0x1b
 3905 1185 20000000 		.4byte	.LVL52
 3906 1189 DD190000 		.4byte	0x19dd
 3907 118d 1C       		.uleb128 0x1c
 3908 118e 01       		.uleb128 0x1
 3909 118f 50       		.byte	0x50
 3910 1190 02       		.uleb128 0x2
 3911 1191 74       		.byte	0x74
 3912 1192 00       		.sleb128 0
 3913 1193 00       		.byte	0
 3914 1194 00       		.byte	0
 3915 1195 25       		.uleb128 0x25
 3916 1196 FD060000 		.4byte	.LASF219
 3917 119a 01       		.byte	0x1
 3918 119b D4       		.byte	0xd4
 3919 119c 2C010000 		.4byte	0x12c
 3920 11a0 00000000 		.4byte	.LFB56
 3921 11a4 3C000000 		.4byte	.LFE56-.LFB56
 3922 11a8 01       		.uleb128 0x1
 3923 11a9 9C       		.byte	0x9c
 3924 11aa 18120000 		.4byte	0x1218
 3925 11ae 19       		.uleb128 0x19
ARM GAS  C:\Users\Phuong\AppData\Local\Temp\ccVcCKxe.s 			page 91


 3926 11af 56000000 		.4byte	.LASF145
 3927 11b3 01       		.byte	0x1
 3928 11b4 D4       		.byte	0xd4
 3929 11b5 51030000 		.4byte	0x351
 3930 11b9 C1020000 		.4byte	.LLST16
 3931 11bd 19       		.uleb128 0x19
 3932 11be 7C0B0000 		.4byte	.LASF50
 3933 11c2 01       		.byte	0x1
 3934 11c3 D4       		.byte	0xd4
 3935 11c4 170A0000 		.4byte	0xa17
 3936 11c8 39030000 		.4byte	.LLST17
 3937 11cc 19       		.uleb128 0x19
 3938 11cd 79050000 		.4byte	.LASF54
 3939 11d1 01       		.byte	0x1
 3940 11d2 D4       		.byte	0xd4
 3941 11d3 1D0A0000 		.4byte	0xa1d
 3942 11d7 7F030000 		.4byte	.LLST18
 3943 11db 19       		.uleb128 0x19
 3944 11dc 23010000 		.4byte	.LASF168
 3945 11e0 01       		.byte	0x1
 3946 11e1 D4       		.byte	0xd4
 3947 11e2 EA000000 		.4byte	0xea
 3948 11e6 B9030000 		.4byte	.LLST19
 3949 11ea 27       		.uleb128 0x27
 3950 11eb 6D736700 		.ascii	"msg\000"
 3951 11ef 01       		.byte	0x1
 3952 11f0 D6       		.byte	0xd6
 3953 11f1 8F080000 		.4byte	0x88f
 3954 11f5 02       		.uleb128 0x2
 3955 11f6 91       		.byte	0x91
 3956 11f7 64       		.sleb128 -28
 3957 11f8 1A       		.uleb128 0x1a
 3958 11f9 65727200 		.ascii	"err\000"
 3959 11fd 01       		.byte	0x1
 3960 11fe D7       		.byte	0xd7
 3961 11ff 2C010000 		.4byte	0x12c
 3962 1203 F3030000 		.4byte	.LLST20
 3963 1207 1B       		.uleb128 0x1b
 3964 1208 22000000 		.4byte	.LVL59
 3965 120c 2A0E0000 		.4byte	0xe2a
 3966 1210 1C       		.uleb128 0x1c
 3967 1211 01       		.uleb128 0x1
 3968 1212 51       		.byte	0x51
 3969 1213 02       		.uleb128 0x2
 3970 1214 74       		.byte	0x74
 3971 1215 00       		.sleb128 0
 3972 1216 00       		.byte	0
 3973 1217 00       		.byte	0
 3974 1218 25       		.uleb128 0x25
 3975 1219 D1090000 		.4byte	.LASF220
 3976 121d 01       		.byte	0x1
 3977 121e FA       		.byte	0xfa
 3978 121f 2C010000 		.4byte	0x12c
 3979 1223 00000000 		.4byte	.LFB57
 3980 1227 30000000 		.4byte	.LFE57-.LFB57
 3981 122b 01       		.uleb128 0x1
 3982 122c 9C       		.byte	0x9c
ARM GAS  C:\Users\Phuong\AppData\Local\Temp\ccVcCKxe.s 			page 92


 3983 122d 8C120000 		.4byte	0x128c
 3984 1231 19       		.uleb128 0x19
 3985 1232 56000000 		.4byte	.LASF145
 3986 1236 01       		.byte	0x1
 3987 1237 FA       		.byte	0xfa
 3988 1238 51030000 		.4byte	0x351
 3989 123c 06040000 		.4byte	.LLST21
 3990 1240 19       		.uleb128 0x19
 3991 1241 7C0B0000 		.4byte	.LASF50
 3992 1245 01       		.byte	0x1
 3993 1246 FA       		.byte	0xfa
 3994 1247 68090000 		.4byte	0x968
 3995 124b 4C040000 		.4byte	.LLST22
 3996 124f 19       		.uleb128 0x19
 3997 1250 79050000 		.4byte	.LASF54
 3998 1254 01       		.byte	0x1
 3999 1255 FA       		.byte	0xfa
 4000 1256 00010000 		.4byte	0x100
 4001 125a 81040000 		.4byte	.LLST23
 4002 125e 27       		.uleb128 0x27
 4003 125f 6D736700 		.ascii	"msg\000"
 4004 1263 01       		.byte	0x1
 4005 1264 FC       		.byte	0xfc
 4006 1265 8F080000 		.4byte	0x88f
 4007 1269 02       		.uleb128 0x2
 4008 126a 91       		.byte	0x91
 4009 126b 64       		.sleb128 -28
 4010 126c 1A       		.uleb128 0x1a
 4011 126d 65727200 		.ascii	"err\000"
 4012 1271 01       		.byte	0x1
 4013 1272 FD       		.byte	0xfd
 4014 1273 2C010000 		.4byte	0x12c
 4015 1277 BB040000 		.4byte	.LLST24
 4016 127b 1B       		.uleb128 0x1b
 4017 127c 1E000000 		.4byte	.LVL71
 4018 1280 2A0E0000 		.4byte	0xe2a
 4019 1284 1C       		.uleb128 0x1c
 4020 1285 01       		.uleb128 0x1
 4021 1286 51       		.byte	0x51
 4022 1287 02       		.uleb128 0x2
 4023 1288 91       		.byte	0x91
 4024 1289 64       		.sleb128 -28
 4025 128a 00       		.byte	0
 4026 128b 00       		.byte	0
 4027 128c 29       		.uleb128 0x29
 4028 128d 7C0A0000 		.4byte	.LASF221
 4029 1291 01       		.byte	0x1
 4030 1292 2601     		.2byte	0x126
 4031 1294 2C010000 		.4byte	0x12c
 4032 1298 00000000 		.4byte	.LFB58
 4033 129c 30000000 		.4byte	.LFE58-.LFB58
 4034 12a0 01       		.uleb128 0x1
 4035 12a1 9C       		.byte	0x9c
 4036 12a2 06130000 		.4byte	0x1306
 4037 12a6 1E       		.uleb128 0x1e
 4038 12a7 56000000 		.4byte	.LASF145
 4039 12ab 01       		.byte	0x1
ARM GAS  C:\Users\Phuong\AppData\Local\Temp\ccVcCKxe.s 			page 93


 4040 12ac 2601     		.2byte	0x126
 4041 12ae 51030000 		.4byte	0x351
 4042 12b2 CE040000 		.4byte	.LLST25
 4043 12b6 1E       		.uleb128 0x1e
 4044 12b7 7C0B0000 		.4byte	.LASF50
 4045 12bb 01       		.byte	0x1
 4046 12bc 2601     		.2byte	0x126
 4047 12be 68090000 		.4byte	0x968
 4048 12c2 14050000 		.4byte	.LLST26
 4049 12c6 1E       		.uleb128 0x1e
 4050 12c7 79050000 		.4byte	.LASF54
 4051 12cb 01       		.byte	0x1
 4052 12cc 2601     		.2byte	0x126
 4053 12ce 00010000 		.4byte	0x100
 4054 12d2 49050000 		.4byte	.LLST27
 4055 12d6 20       		.uleb128 0x20
 4056 12d7 6D736700 		.ascii	"msg\000"
 4057 12db 01       		.byte	0x1
 4058 12dc 2801     		.2byte	0x128
 4059 12de 8F080000 		.4byte	0x88f
 4060 12e2 02       		.uleb128 0x2
 4061 12e3 91       		.byte	0x91
 4062 12e4 64       		.sleb128 -28
 4063 12e5 21       		.uleb128 0x21
 4064 12e6 65727200 		.ascii	"err\000"
 4065 12ea 01       		.byte	0x1
 4066 12eb 2901     		.2byte	0x129
 4067 12ed 2C010000 		.4byte	0x12c
 4068 12f1 83050000 		.4byte	.LLST28
 4069 12f5 1B       		.uleb128 0x1b
 4070 12f6 1E000000 		.4byte	.LVL79
 4071 12fa 2A0E0000 		.4byte	0xe2a
 4072 12fe 1C       		.uleb128 0x1c
 4073 12ff 01       		.uleb128 0x1
 4074 1300 51       		.byte	0x51
 4075 1301 02       		.uleb128 0x2
 4076 1302 91       		.byte	0x91
 4077 1303 64       		.sleb128 -28
 4078 1304 00       		.byte	0
 4079 1305 00       		.byte	0
 4080 1306 29       		.uleb128 0x29
 4081 1307 FB090000 		.4byte	.LASF222
 4082 130b 01       		.byte	0x1
 4083 130c 4601     		.2byte	0x146
 4084 130e 2C010000 		.4byte	0x12c
 4085 1312 00000000 		.4byte	.LFB59
 4086 1316 20000000 		.4byte	.LFE59-.LFB59
 4087 131a 01       		.uleb128 0x1
 4088 131b 9C       		.byte	0x9c
 4089 131c 60130000 		.4byte	0x1360
 4090 1320 1E       		.uleb128 0x1e
 4091 1321 56000000 		.4byte	.LASF145
 4092 1325 01       		.byte	0x1
 4093 1326 4601     		.2byte	0x146
 4094 1328 51030000 		.4byte	0x351
 4095 132c 96050000 		.4byte	.LLST29
 4096 1330 20       		.uleb128 0x20
ARM GAS  C:\Users\Phuong\AppData\Local\Temp\ccVcCKxe.s 			page 94


 4097 1331 6D736700 		.ascii	"msg\000"
 4098 1335 01       		.byte	0x1
 4099 1336 4801     		.2byte	0x148
 4100 1338 8F080000 		.4byte	0x88f
 4101 133c 02       		.uleb128 0x2
 4102 133d 91       		.byte	0x91
 4103 133e 64       		.sleb128 -28
 4104 133f 21       		.uleb128 0x21
 4105 1340 65727200 		.ascii	"err\000"
 4106 1344 01       		.byte	0x1
 4107 1345 4901     		.2byte	0x149
 4108 1347 2C010000 		.4byte	0x12c
 4109 134b DC050000 		.4byte	.LLST30
 4110 134f 1B       		.uleb128 0x1b
 4111 1350 12000000 		.4byte	.LVL85
 4112 1354 2A0E0000 		.4byte	0xe2a
 4113 1358 1C       		.uleb128 0x1c
 4114 1359 01       		.uleb128 0x1
 4115 135a 51       		.byte	0x51
 4116 135b 02       		.uleb128 0x2
 4117 135c 91       		.byte	0x91
 4118 135d 64       		.sleb128 -28
 4119 135e 00       		.byte	0
 4120 135f 00       		.byte	0
 4121 1360 29       		.uleb128 0x29
 4122 1361 9D0A0000 		.4byte	.LASF223
 4123 1365 01       		.byte	0x1
 4124 1366 5F01     		.2byte	0x15f
 4125 1368 2C010000 		.4byte	0x12c
 4126 136c 00000000 		.4byte	.LFB60
 4127 1370 24000000 		.4byte	.LFE60-.LFB60
 4128 1374 01       		.uleb128 0x1
 4129 1375 9C       		.byte	0x9c
 4130 1376 CA130000 		.4byte	0x13ca
 4131 137a 1E       		.uleb128 0x1e
 4132 137b 56000000 		.4byte	.LASF145
 4133 137f 01       		.byte	0x1
 4134 1380 5F01     		.2byte	0x15f
 4135 1382 51030000 		.4byte	0x351
 4136 1386 EF050000 		.4byte	.LLST31
 4137 138a 1E       		.uleb128 0x1e
 4138 138b F1040000 		.4byte	.LASF176
 4139 138f 01       		.byte	0x1
 4140 1390 5F01     		.2byte	0x15f
 4141 1392 EA000000 		.4byte	0xea
 4142 1396 35060000 		.4byte	.LLST32
 4143 139a 20       		.uleb128 0x20
 4144 139b 6D736700 		.ascii	"msg\000"
 4145 139f 01       		.byte	0x1
 4146 13a0 6201     		.2byte	0x162
 4147 13a2 8F080000 		.4byte	0x88f
 4148 13a6 02       		.uleb128 0x2
 4149 13a7 91       		.byte	0x91
 4150 13a8 64       		.sleb128 -28
 4151 13a9 21       		.uleb128 0x21
 4152 13aa 65727200 		.ascii	"err\000"
 4153 13ae 01       		.byte	0x1
ARM GAS  C:\Users\Phuong\AppData\Local\Temp\ccVcCKxe.s 			page 95


 4154 13af 6301     		.2byte	0x163
 4155 13b1 2C010000 		.4byte	0x12c
 4156 13b5 7B060000 		.4byte	.LLST33
 4157 13b9 1B       		.uleb128 0x1b
 4158 13ba 16000000 		.4byte	.LVL91
 4159 13be 2A0E0000 		.4byte	0xe2a
 4160 13c2 1C       		.uleb128 0x1c
 4161 13c3 01       		.uleb128 0x1
 4162 13c4 51       		.byte	0x51
 4163 13c5 02       		.uleb128 0x2
 4164 13c6 91       		.byte	0x91
 4165 13c7 64       		.sleb128 -28
 4166 13c8 00       		.byte	0
 4167 13c9 00       		.byte	0
 4168 13ca 29       		.uleb128 0x29
 4169 13cb 2A060000 		.4byte	.LASF224
 4170 13cf 01       		.byte	0x1
 4171 13d0 8401     		.2byte	0x184
 4172 13d2 2C010000 		.4byte	0x12c
 4173 13d6 00000000 		.4byte	.LFB61
 4174 13da B0000000 		.4byte	.LFE61-.LFB61
 4175 13de 01       		.uleb128 0x1
 4176 13df 9C       		.byte	0x9c
 4177 13e0 BB140000 		.4byte	0x14bb
 4178 13e4 1E       		.uleb128 0x1e
 4179 13e5 56000000 		.4byte	.LASF145
 4180 13e9 01       		.byte	0x1
 4181 13ea 8401     		.2byte	0x184
 4182 13ec 51030000 		.4byte	0x351
 4183 13f0 8E060000 		.4byte	.LLST34
 4184 13f4 1E       		.uleb128 0x1e
 4185 13f5 96010000 		.4byte	.LASF225
 4186 13f9 01       		.byte	0x1
 4187 13fa 8401     		.2byte	0x184
 4188 13fc BB140000 		.4byte	0x14bb
 4189 1400 E6060000 		.4byte	.LLST35
 4190 1404 2A       		.uleb128 0x2a
 4191 1405 93030000 		.4byte	.LASF226
 4192 1409 01       		.byte	0x1
 4193 140a 8701     		.2byte	0x187
 4194 140c 7D000000 		.4byte	0x7d
 4195 1410 02       		.uleb128 0x2
 4196 1411 91       		.byte	0x91
 4197 1412 6C       		.sleb128 -20
 4198 1413 2B       		.uleb128 0x2b
 4199 1414 F00B0000 		.4byte	.LASF227
 4200 1418 01       		.byte	0x1
 4201 1419 8801     		.2byte	0x188
 4202 141b 51030000 		.4byte	0x351
 4203 141f 28070000 		.4byte	.LLST36
 4204 1423 20       		.uleb128 0x20
 4205 1424 6D736700 		.ascii	"msg\000"
 4206 1428 01       		.byte	0x1
 4207 1429 8A01     		.2byte	0x18a
 4208 142b 8F080000 		.4byte	0x88f
 4209 142f 02       		.uleb128 0x2
 4210 1430 91       		.byte	0x91
ARM GAS  C:\Users\Phuong\AppData\Local\Temp\ccVcCKxe.s 			page 96


 4211 1431 58       		.sleb128 -40
 4212 1432 28       		.uleb128 0x28
 4213 1433 58000000 		.4byte	.LBB3
 4214 1437 14000000 		.4byte	.LBE3-.LBB3
 4215 143b 62140000 		.4byte	0x1462
 4216 143f 2B       		.uleb128 0x2b
 4217 1440 EE0A0000 		.4byte	.LASF228
 4218 1444 01       		.byte	0x1
 4219 1445 B901     		.2byte	0x1b9
 4220 1447 21010000 		.4byte	0x121
 4221 144b 46070000 		.4byte	.LLST37
 4222 144f 2C       		.uleb128 0x2c
 4223 1450 5C000000 		.4byte	.LVL101
 4224 1454 E8190000 		.4byte	0x19e8
 4225 1458 2C       		.uleb128 0x2c
 4226 1459 6C000000 		.4byte	.LVL102
 4227 145d F4190000 		.4byte	0x19f4
 4228 1461 00       		.byte	0
 4229 1462 22       		.uleb128 0x22
 4230 1463 26000000 		.4byte	.LVL97
 4231 1467 8D190000 		.4byte	0x198d
 4232 146b 76140000 		.4byte	0x1476
 4233 146f 1C       		.uleb128 0x1c
 4234 1470 01       		.uleb128 0x1
 4235 1471 50       		.byte	0x50
 4236 1472 02       		.uleb128 0x2
 4237 1473 76       		.byte	0x76
 4238 1474 00       		.sleb128 0
 4239 1475 00       		.byte	0
 4240 1476 22       		.uleb128 0x22
 4241 1477 34000000 		.4byte	.LVL98
 4242 147b 99190000 		.4byte	0x1999
 4243 147f 90140000 		.4byte	0x1490
 4244 1483 1C       		.uleb128 0x1c
 4245 1484 01       		.uleb128 0x1
 4246 1485 50       		.byte	0x50
 4247 1486 02       		.uleb128 0x2
 4248 1487 76       		.byte	0x76
 4249 1488 00       		.sleb128 0
 4250 1489 1C       		.uleb128 0x1c
 4251 148a 01       		.uleb128 0x1
 4252 148b 51       		.byte	0x51
 4253 148c 02       		.uleb128 0x2
 4254 148d 91       		.byte	0x91
 4255 148e 6C       		.sleb128 -20
 4256 148f 00       		.byte	0
 4257 1490 23       		.uleb128 0x23
 4258 1491 48000000 		.4byte	.LVL100
 4259 1495 AA140000 		.4byte	0x14aa
 4260 1499 1C       		.uleb128 0x1c
 4261 149a 01       		.uleb128 0x1
 4262 149b 50       		.byte	0x50
 4263 149c 02       		.uleb128 0x2
 4264 149d 74       		.byte	0x74
 4265 149e 00       		.sleb128 0
 4266 149f 1C       		.uleb128 0x1c
 4267 14a0 01       		.uleb128 0x1
ARM GAS  C:\Users\Phuong\AppData\Local\Temp\ccVcCKxe.s 			page 97


 4268 14a1 51       		.byte	0x51
 4269 14a2 01       		.uleb128 0x1
 4270 14a3 31       		.byte	0x31
 4271 14a4 1C       		.uleb128 0x1c
 4272 14a5 01       		.uleb128 0x1
 4273 14a6 52       		.byte	0x52
 4274 14a7 01       		.uleb128 0x1
 4275 14a8 30       		.byte	0x30
 4276 14a9 00       		.byte	0
 4277 14aa 1B       		.uleb128 0x1b
 4278 14ab 7C000000 		.4byte	.LVL103
 4279 14af 2A0E0000 		.4byte	0xe2a
 4280 14b3 1C       		.uleb128 0x1c
 4281 14b4 01       		.uleb128 0x1
 4282 14b5 51       		.byte	0x51
 4283 14b6 02       		.uleb128 0x2
 4284 14b7 7D       		.byte	0x7d
 4285 14b8 00       		.sleb128 0
 4286 14b9 00       		.byte	0
 4287 14ba 00       		.byte	0
 4288 14bb 06       		.uleb128 0x6
 4289 14bc 04       		.byte	0x4
 4290 14bd 51030000 		.4byte	0x351
 4291 14c1 29       		.uleb128 0x29
 4292 14c2 370A0000 		.4byte	.LASF229
 4293 14c6 01       		.byte	0x1
 4294 14c7 5B02     		.2byte	0x25b
 4295 14c9 2C010000 		.4byte	0x12c
 4296 14cd 00000000 		.4byte	.LFB63
 4297 14d1 22000000 		.4byte	.LFE63-.LFB63
 4298 14d5 01       		.uleb128 0x1
 4299 14d6 9C       		.byte	0x9c
 4300 14d7 14150000 		.4byte	0x1514
 4301 14db 1E       		.uleb128 0x1e
 4302 14dc 56000000 		.4byte	.LASF145
 4303 14e0 01       		.byte	0x1
 4304 14e1 5B02     		.2byte	0x25b
 4305 14e3 51030000 		.4byte	0x351
 4306 14e7 59070000 		.4byte	.LLST38
 4307 14eb 1E       		.uleb128 0x1e
 4308 14ec C20B0000 		.4byte	.LASF216
 4309 14f0 01       		.byte	0x1
 4310 14f1 5B02     		.2byte	0x25b
 4311 14f3 14150000 		.4byte	0x1514
 4312 14f7 AC070000 		.4byte	.LLST39
 4313 14fb 1B       		.uleb128 0x1b
 4314 14fc 14000000 		.4byte	.LVL114
 4315 1500 F10E0000 		.4byte	0xef1
 4316 1504 1C       		.uleb128 0x1c
 4317 1505 01       		.uleb128 0x1
 4318 1506 50       		.byte	0x50
 4319 1507 03       		.uleb128 0x3
 4320 1508 F3       		.byte	0xf3
 4321 1509 01       		.uleb128 0x1
 4322 150a 50       		.byte	0x50
 4323 150b 1C       		.uleb128 0x1c
 4324 150c 01       		.uleb128 0x1
ARM GAS  C:\Users\Phuong\AppData\Local\Temp\ccVcCKxe.s 			page 98


 4325 150d 51       		.byte	0x51
 4326 150e 03       		.uleb128 0x3
 4327 150f F3       		.byte	0xf3
 4328 1510 01       		.uleb128 0x1
 4329 1511 51       		.byte	0x51
 4330 1512 00       		.byte	0
 4331 1513 00       		.byte	0
 4332 1514 06       		.uleb128 0x6
 4333 1515 04       		.byte	0x4
 4334 1516 0B020000 		.4byte	0x20b
 4335 151a 29       		.uleb128 0x29
 4336 151b 620B0000 		.4byte	.LASF230
 4337 151f 01       		.byte	0x1
 4338 1520 6D02     		.2byte	0x26d
 4339 1522 2C010000 		.4byte	0x12c
 4340 1526 00000000 		.4byte	.LFB64
 4341 152a 7C000000 		.4byte	.LFE64-.LFB64
 4342 152e 01       		.uleb128 0x1
 4343 152f 9C       		.byte	0x9c
 4344 1530 EB150000 		.4byte	0x15eb
 4345 1534 1E       		.uleb128 0x1e
 4346 1535 56000000 		.4byte	.LASF145
 4347 1539 01       		.byte	0x1
 4348 153a 6D02     		.2byte	0x26d
 4349 153c 51030000 		.4byte	0x351
 4350 1540 E6070000 		.4byte	.LLST40
 4351 1544 1E       		.uleb128 0x1e
 4352 1545 C20B0000 		.4byte	.LASF216
 4353 1549 01       		.byte	0x1
 4354 154a 6D02     		.2byte	0x26d
 4355 154c EB150000 		.4byte	0x15eb
 4356 1550 6D080000 		.4byte	.LLST41
 4357 1554 21       		.uleb128 0x21
 4358 1555 62756600 		.ascii	"buf\000"
 4359 1559 01       		.byte	0x1
 4360 155a 7002     		.2byte	0x270
 4361 155c 270B0000 		.4byte	0xb27
 4362 1560 C5080000 		.4byte	.LLST42
 4363 1564 21       		.uleb128 0x21
 4364 1565 65727200 		.ascii	"err\000"
 4365 1569 01       		.byte	0x1
 4366 156a 7102     		.2byte	0x271
 4367 156c 2C010000 		.4byte	0x12c
 4368 1570 11090000 		.4byte	.LLST43
 4369 1574 28       		.uleb128 0x28
 4370 1575 1C000000 		.4byte	.LBB4
 4371 1579 46000000 		.4byte	.LBE4-.LBB4
 4372 157d E1150000 		.4byte	0x15e1
 4373 1581 20       		.uleb128 0x20
 4374 1582 7000     		.ascii	"p\000"
 4375 1584 01       		.byte	0x1
 4376 1585 7D02     		.2byte	0x27d
 4377 1587 0B020000 		.4byte	0x20b
 4378 158b 02       		.uleb128 0x2
 4379 158c 91       		.byte	0x91
 4380 158d 6C       		.sleb128 -20
 4381 158e 22       		.uleb128 0x22
ARM GAS  C:\Users\Phuong\AppData\Local\Temp\ccVcCKxe.s 			page 99


 4382 158f 2C000000 		.4byte	.LVL124
 4383 1593 001A0000 		.4byte	0x1a00
 4384 1597 B1150000 		.4byte	0x15b1
 4385 159b 1C       		.uleb128 0x1c
 4386 159c 01       		.uleb128 0x1
 4387 159d 50       		.byte	0x50
 4388 159e 01       		.uleb128 0x1
 4389 159f 36       		.byte	0x36
 4390 15a0 1C       		.uleb128 0x1c
 4391 15a1 01       		.uleb128 0x1
 4392 15a2 51       		.byte	0x51
 4393 15a3 05       		.uleb128 0x5
 4394 15a4 03       		.byte	0x3
 4395 15a5 00000000 		.4byte	.LC13
 4396 15a9 1C       		.uleb128 0x1c
 4397 15aa 01       		.uleb128 0x1
 4398 15ab 52       		.byte	0x52
 4399 15ac 03       		.uleb128 0x3
 4400 15ad 0A       		.byte	0xa
 4401 15ae 8002     		.2byte	0x280
 4402 15b0 00       		.byte	0
 4403 15b1 22       		.uleb128 0x22
 4404 15b2 38000000 		.4byte	.LVL127
 4405 15b6 F10E0000 		.4byte	0xef1
 4406 15ba CB150000 		.4byte	0x15cb
 4407 15be 1C       		.uleb128 0x1c
 4408 15bf 01       		.uleb128 0x1
 4409 15c0 50       		.byte	0x50
 4410 15c1 02       		.uleb128 0x2
 4411 15c2 74       		.byte	0x74
 4412 15c3 00       		.sleb128 0
 4413 15c4 1C       		.uleb128 0x1c
 4414 15c5 01       		.uleb128 0x1
 4415 15c6 51       		.byte	0x51
 4416 15c7 02       		.uleb128 0x2
 4417 15c8 91       		.byte	0x91
 4418 15c9 6C       		.sleb128 -20
 4419 15ca 00       		.byte	0
 4420 15cb 1B       		.uleb128 0x1b
 4421 15cc 44000000 		.4byte	.LVL130
 4422 15d0 C7190000 		.4byte	0x19c7
 4423 15d4 1C       		.uleb128 0x1c
 4424 15d5 01       		.uleb128 0x1
 4425 15d6 50       		.byte	0x50
 4426 15d7 01       		.uleb128 0x1
 4427 15d8 36       		.byte	0x36
 4428 15d9 1C       		.uleb128 0x1c
 4429 15da 01       		.uleb128 0x1
 4430 15db 51       		.byte	0x51
 4431 15dc 02       		.uleb128 0x2
 4432 15dd 76       		.byte	0x76
 4433 15de 00       		.sleb128 0
 4434 15df 00       		.byte	0
 4435 15e0 00       		.byte	0
 4436 15e1 2C       		.uleb128 0x2c
 4437 15e2 66000000 		.4byte	.LVL136
 4438 15e6 F10E0000 		.4byte	0xef1
ARM GAS  C:\Users\Phuong\AppData\Local\Temp\ccVcCKxe.s 			page 100


 4439 15ea 00       		.byte	0
 4440 15eb 06       		.uleb128 0x6
 4441 15ec 04       		.byte	0x4
 4442 15ed 270B0000 		.4byte	0xb27
 4443 15f1 29       		.uleb128 0x29
 4444 15f2 00000000 		.4byte	.LASF231
 4445 15f6 01       		.byte	0x1
 4446 15f7 BE02     		.2byte	0x2be
 4447 15f9 2C010000 		.4byte	0x12c
 4448 15fd 00000000 		.4byte	.LFB66
 4449 1601 24000000 		.4byte	.LFE66-.LFB66
 4450 1605 01       		.uleb128 0x1
 4451 1606 9C       		.byte	0x9c
 4452 1607 5B160000 		.4byte	0x165b
 4453 160b 1E       		.uleb128 0x1e
 4454 160c 56000000 		.4byte	.LASF145
 4455 1610 01       		.byte	0x1
 4456 1611 BE02     		.2byte	0x2be
 4457 1613 51030000 		.4byte	0x351
 4458 1617 2F090000 		.4byte	.LLST44
 4459 161b 1F       		.uleb128 0x1f
 4460 161c 62756600 		.ascii	"buf\000"
 4461 1620 01       		.byte	0x1
 4462 1621 BE02     		.2byte	0x2be
 4463 1623 270B0000 		.4byte	0xb27
 4464 1627 75090000 		.4byte	.LLST45
 4465 162b 20       		.uleb128 0x20
 4466 162c 6D736700 		.ascii	"msg\000"
 4467 1630 01       		.byte	0x1
 4468 1631 C002     		.2byte	0x2c0
 4469 1633 8F080000 		.4byte	0x88f
 4470 1637 02       		.uleb128 0x2
 4471 1638 91       		.byte	0x91
 4472 1639 64       		.sleb128 -28
 4473 163a 21       		.uleb128 0x21
 4474 163b 65727200 		.ascii	"err\000"
 4475 163f 01       		.byte	0x1
 4476 1640 C102     		.2byte	0x2c1
 4477 1642 2C010000 		.4byte	0x12c
 4478 1646 BB090000 		.4byte	.LLST46
 4479 164a 1B       		.uleb128 0x1b
 4480 164b 14000000 		.4byte	.LVL146
 4481 164f 2A0E0000 		.4byte	0xe2a
 4482 1653 1C       		.uleb128 0x1c
 4483 1654 01       		.uleb128 0x1
 4484 1655 51       		.byte	0x51
 4485 1656 02       		.uleb128 0x2
 4486 1657 91       		.byte	0x91
 4487 1658 64       		.sleb128 -28
 4488 1659 00       		.byte	0
 4489 165a 00       		.byte	0
 4490 165b 29       		.uleb128 0x29
 4491 165c 980C0000 		.4byte	.LASF232
 4492 1660 01       		.byte	0x1
 4493 1661 AB02     		.2byte	0x2ab
 4494 1663 2C010000 		.4byte	0x12c
 4495 1667 00000000 		.4byte	.LFB65
ARM GAS  C:\Users\Phuong\AppData\Local\Temp\ccVcCKxe.s 			page 101


 4496 166b 20000000 		.4byte	.LFE65-.LFB65
 4497 166f 01       		.uleb128 0x1
 4498 1670 9C       		.byte	0x9c
 4499 1671 C7160000 		.4byte	0x16c7
 4500 1675 1E       		.uleb128 0x1e
 4501 1676 56000000 		.4byte	.LASF145
 4502 167a 01       		.byte	0x1
 4503 167b AB02     		.2byte	0x2ab
 4504 167d 51030000 		.4byte	0x351
 4505 1681 CE090000 		.4byte	.LLST47
 4506 1685 1F       		.uleb128 0x1f
 4507 1686 62756600 		.ascii	"buf\000"
 4508 168a 01       		.byte	0x1
 4509 168b AB02     		.2byte	0x2ab
 4510 168d 270B0000 		.4byte	0xb27
 4511 1691 080A0000 		.4byte	.LLST48
 4512 1695 1E       		.uleb128 0x1e
 4513 1696 7C0B0000 		.4byte	.LASF50
 4514 169a 01       		.byte	0x1
 4515 169b AB02     		.2byte	0x2ab
 4516 169d 68090000 		.4byte	0x968
 4517 16a1 420A0000 		.4byte	.LLST49
 4518 16a5 1E       		.uleb128 0x1e
 4519 16a6 79050000 		.4byte	.LASF54
 4520 16aa 01       		.byte	0x1
 4521 16ab AB02     		.2byte	0x2ab
 4522 16ad 00010000 		.4byte	0x100
 4523 16b1 950A0000 		.4byte	.LLST50
 4524 16b5 1B       		.uleb128 0x1b
 4525 16b6 18000000 		.4byte	.LVL154
 4526 16ba F1150000 		.4byte	0x15f1
 4527 16be 1C       		.uleb128 0x1c
 4528 16bf 01       		.uleb128 0x1
 4529 16c0 51       		.byte	0x51
 4530 16c1 03       		.uleb128 0x3
 4531 16c2 F3       		.byte	0xf3
 4532 16c3 01       		.uleb128 0x1
 4533 16c4 51       		.byte	0x51
 4534 16c5 00       		.byte	0
 4535 16c6 00       		.byte	0
 4536 16c7 29       		.uleb128 0x29
 4537 16c8 5B0A0000 		.4byte	.LASF233
 4538 16cc 01       		.byte	0x1
 4539 16cd DF02     		.2byte	0x2df
 4540 16cf 2C010000 		.4byte	0x12c
 4541 16d3 00000000 		.4byte	.LFB67
 4542 16d7 84000000 		.4byte	.LFE67-.LFB67
 4543 16db 01       		.uleb128 0x1
 4544 16dc 9C       		.byte	0x9c
 4545 16dd 70170000 		.4byte	0x1770
 4546 16e1 1E       		.uleb128 0x1e
 4547 16e2 56000000 		.4byte	.LASF145
 4548 16e6 01       		.byte	0x1
 4549 16e7 DF02     		.2byte	0x2df
 4550 16e9 51030000 		.4byte	0x351
 4551 16ed CF0A0000 		.4byte	.LLST51
 4552 16f1 1E       		.uleb128 0x1e
ARM GAS  C:\Users\Phuong\AppData\Local\Temp\ccVcCKxe.s 			page 102


 4553 16f2 3A070000 		.4byte	.LASF169
 4554 16f6 01       		.byte	0x1
 4555 16f7 DF02     		.2byte	0x2df
 4556 16f9 98000000 		.4byte	0x98
 4557 16fd 600B0000 		.4byte	.LLST52
 4558 1701 1E       		.uleb128 0x1e
 4559 1702 F8060000 		.4byte	.LASF234
 4560 1706 01       		.byte	0x1
 4561 1707 DF02     		.2byte	0x2df
 4562 1709 6B000000 		.4byte	0x6b
 4563 170d A20B0000 		.4byte	.LLST53
 4564 1711 1E       		.uleb128 0x1e
 4565 1712 210A0000 		.4byte	.LASF170
 4566 1716 01       		.byte	0x1
 4567 1717 E002     		.2byte	0x2e0
 4568 1719 EA000000 		.4byte	0xea
 4569 171d E40B0000 		.4byte	.LLST54
 4570 1721 2D       		.uleb128 0x2d
 4571 1722 5B000000 		.4byte	.LASF235
 4572 1726 01       		.byte	0x1
 4573 1727 E002     		.2byte	0x2e0
 4574 1729 70170000 		.4byte	0x1770
 4575 172d 02       		.uleb128 0x2
 4576 172e 91       		.byte	0x91
 4577 172f 00       		.sleb128 0
 4578 1730 20       		.uleb128 0x20
 4579 1731 6D736700 		.ascii	"msg\000"
 4580 1735 01       		.byte	0x1
 4581 1736 E202     		.2byte	0x2e2
 4582 1738 8F080000 		.4byte	0x88f
 4583 173c 02       		.uleb128 0x2
 4584 173d 91       		.byte	0x91
 4585 173e 5C       		.sleb128 -36
 4586 173f 21       		.uleb128 0x21
 4587 1740 65727200 		.ascii	"err\000"
 4588 1744 01       		.byte	0x1
 4589 1745 E302     		.2byte	0x2e3
 4590 1747 2C010000 		.4byte	0x12c
 4591 174b 1E0C0000 		.4byte	.LLST55
 4592 174f 2B       		.uleb128 0x2b
 4593 1750 4F090000 		.4byte	.LASF236
 4594 1754 01       		.byte	0x1
 4595 1755 E402     		.2byte	0x2e4
 4596 1757 EA000000 		.4byte	0xea
 4597 175b 310C0000 		.4byte	.LLST56
 4598 175f 1B       		.uleb128 0x1b
 4599 1760 4C000000 		.4byte	.LVL163
 4600 1764 2A0E0000 		.4byte	0xe2a
 4601 1768 1C       		.uleb128 0x1c
 4602 1769 01       		.uleb128 0x1
 4603 176a 51       		.byte	0x51
 4604 176b 02       		.uleb128 0x2
 4605 176c 91       		.byte	0x91
 4606 176d 5C       		.sleb128 -36
 4607 176e 00       		.byte	0
 4608 176f 00       		.byte	0
 4609 1770 06       		.uleb128 0x6
ARM GAS  C:\Users\Phuong\AppData\Local\Temp\ccVcCKxe.s 			page 103


 4610 1771 04       		.byte	0x4
 4611 1772 6B000000 		.4byte	0x6b
 4612 1776 29       		.uleb128 0x29
 4613 1777 42070000 		.4byte	.LASF237
 4614 177b 01       		.byte	0x1
 4615 177c 4603     		.2byte	0x346
 4616 177e 2C010000 		.4byte	0x12c
 4617 1782 00000000 		.4byte	.LFB69
 4618 1786 0A000000 		.4byte	.LFE69-.LFB69
 4619 178a 01       		.uleb128 0x1
 4620 178b 9C       		.byte	0x9c
 4621 178c B7170000 		.4byte	0x17b7
 4622 1790 1E       		.uleb128 0x1e
 4623 1791 56000000 		.4byte	.LASF145
 4624 1795 01       		.byte	0x1
 4625 1796 4603     		.2byte	0x346
 4626 1798 51030000 		.4byte	0x351
 4627 179c 4F0C0000 		.4byte	.LLST57
 4628 17a0 1B       		.uleb128 0x1b
 4629 17a1 08000000 		.4byte	.LVL176
 4630 17a5 870E0000 		.4byte	0xe87
 4631 17a9 1C       		.uleb128 0x1c
 4632 17aa 01       		.uleb128 0x1
 4633 17ab 50       		.byte	0x50
 4634 17ac 03       		.uleb128 0x3
 4635 17ad F3       		.byte	0xf3
 4636 17ae 01       		.uleb128 0x1
 4637 17af 50       		.byte	0x50
 4638 17b0 1C       		.uleb128 0x1c
 4639 17b1 01       		.uleb128 0x1
 4640 17b2 51       		.byte	0x51
 4641 17b3 01       		.uleb128 0x1
 4642 17b4 33       		.byte	0x33
 4643 17b5 00       		.byte	0
 4644 17b6 00       		.byte	0
 4645 17b7 29       		.uleb128 0x29
 4646 17b8 0F0D0000 		.4byte	.LASF238
 4647 17bc 01       		.byte	0x1
 4648 17bd 5603     		.2byte	0x356
 4649 17bf 2C010000 		.4byte	0x12c
 4650 17c3 00000000 		.4byte	.LFB70
 4651 17c7 1A000000 		.4byte	.LFE70-.LFB70
 4652 17cb 01       		.uleb128 0x1
 4653 17cc 9C       		.byte	0x9c
 4654 17cd 0B180000 		.4byte	0x180b
 4655 17d1 1E       		.uleb128 0x1e
 4656 17d2 56000000 		.4byte	.LASF145
 4657 17d6 01       		.byte	0x1
 4658 17d7 5603     		.2byte	0x356
 4659 17d9 51030000 		.4byte	0x351
 4660 17dd 700C0000 		.4byte	.LLST58
 4661 17e1 1E       		.uleb128 0x1e
 4662 17e2 D20C0000 		.4byte	.LASF239
 4663 17e6 01       		.byte	0x1
 4664 17e7 5603     		.2byte	0x356
 4665 17e9 EA000000 		.4byte	0xea
 4666 17ed 910C0000 		.4byte	.LLST59
ARM GAS  C:\Users\Phuong\AppData\Local\Temp\ccVcCKxe.s 			page 104


 4667 17f1 1E       		.uleb128 0x1e
 4668 17f2 35010000 		.4byte	.LASF240
 4669 17f6 01       		.byte	0x1
 4670 17f7 5603     		.2byte	0x356
 4671 17f9 EA000000 		.4byte	0xea
 4672 17fd B20C0000 		.4byte	.LLST60
 4673 1801 2C       		.uleb128 0x2c
 4674 1802 18000000 		.4byte	.LVL179
 4675 1806 870E0000 		.4byte	0xe87
 4676 180a 00       		.byte	0
 4677 180b 29       		.uleb128 0x29
 4678 180c 34020000 		.4byte	.LASF241
 4679 1810 01       		.byte	0x1
 4680 1811 6803     		.2byte	0x368
 4681 1813 2C010000 		.4byte	0x12c
 4682 1817 00000000 		.4byte	.LFB71
 4683 181b 38000000 		.4byte	.LFE71-.LFB71
 4684 181f 01       		.uleb128 0x1
 4685 1820 9C       		.byte	0x9c
 4686 1821 95180000 		.4byte	0x1895
 4687 1825 1E       		.uleb128 0x1e
 4688 1826 56000000 		.4byte	.LASF145
 4689 182a 01       		.byte	0x1
 4690 182b 6803     		.2byte	0x368
 4691 182d 51030000 		.4byte	0x351
 4692 1831 D30C0000 		.4byte	.LLST61
 4693 1835 1E       		.uleb128 0x1e
 4694 1836 B80B0000 		.4byte	.LASF173
 4695 183a 01       		.byte	0x1
 4696 183b 6903     		.2byte	0x369
 4697 183d 68090000 		.4byte	0x968
 4698 1841 190D0000 		.4byte	.LLST62
 4699 1845 1E       		.uleb128 0x1e
 4700 1846 270C0000 		.4byte	.LASF174
 4701 184a 01       		.byte	0x1
 4702 184b 6A03     		.2byte	0x36a
 4703 184d 68090000 		.4byte	0x968
 4704 1851 4E0D0000 		.4byte	.LLST63
 4705 1855 1E       		.uleb128 0x1e
 4706 1856 11020000 		.4byte	.LASF175
 4707 185a 01       		.byte	0x1
 4708 185b 6B03     		.2byte	0x36b
 4709 185d 0E030000 		.4byte	0x30e
 4710 1861 770D0000 		.4byte	.LLST64
 4711 1865 20       		.uleb128 0x20
 4712 1866 6D736700 		.ascii	"msg\000"
 4713 186a 01       		.byte	0x1
 4714 186b 6D03     		.2byte	0x36d
 4715 186d 8F080000 		.4byte	0x88f
 4716 1871 02       		.uleb128 0x2
 4717 1872 91       		.byte	0x91
 4718 1873 64       		.sleb128 -28
 4719 1874 21       		.uleb128 0x21
 4720 1875 65727200 		.ascii	"err\000"
 4721 1879 01       		.byte	0x1
 4722 187a 6E03     		.2byte	0x36e
 4723 187c 2C010000 		.4byte	0x12c
ARM GAS  C:\Users\Phuong\AppData\Local\Temp\ccVcCKxe.s 			page 105


 4724 1880 B10D0000 		.4byte	.LLST65
 4725 1884 1B       		.uleb128 0x1b
 4726 1885 26000000 		.4byte	.LVL185
 4727 1889 2A0E0000 		.4byte	0xe2a
 4728 188d 1C       		.uleb128 0x1c
 4729 188e 01       		.uleb128 0x1
 4730 188f 51       		.byte	0x51
 4731 1890 02       		.uleb128 0x2
 4732 1891 74       		.byte	0x74
 4733 1892 00       		.sleb128 0
 4734 1893 00       		.byte	0
 4735 1894 00       		.byte	0
 4736 1895 29       		.uleb128 0x29
 4737 1896 2D030000 		.4byte	.LASF242
 4738 189a 01       		.byte	0x1
 4739 189b 9B03     		.2byte	0x39b
 4740 189d 2C010000 		.4byte	0x12c
 4741 18a1 00000000 		.4byte	.LFB72
 4742 18a5 6C000000 		.4byte	.LFE72-.LFB72
 4743 18a9 01       		.uleb128 0x1
 4744 18aa 9C       		.byte	0x9c
 4745 18ab 6B190000 		.4byte	0x196b
 4746 18af 1E       		.uleb128 0x1e
 4747 18b0 4A090000 		.4byte	.LASF178
 4748 18b4 01       		.byte	0x1
 4749 18b5 9B03     		.2byte	0x39b
 4750 18b7 8D000000 		.4byte	0x8d
 4751 18bb C40D0000 		.4byte	.LLST66
 4752 18bf 1E       		.uleb128 0x1e
 4753 18c0 7C0B0000 		.4byte	.LASF50
 4754 18c4 01       		.byte	0x1
 4755 18c5 9B03     		.2byte	0x39b
 4756 18c7 170A0000 		.4byte	0xa17
 4757 18cb 230E0000 		.4byte	.LLST67
 4758 18cf 20       		.uleb128 0x20
 4759 18d0 6D736700 		.ascii	"msg\000"
 4760 18d4 01       		.byte	0x1
 4761 18d5 9E03     		.2byte	0x39e
 4762 18d7 2D0B0000 		.4byte	0xb2d
 4763 18db 02       		.uleb128 0x2
 4764 18dc 91       		.byte	0x91
 4765 18dd 68       		.sleb128 -24
 4766 18de 20       		.uleb128 0x20
 4767 18df 73656D00 		.ascii	"sem\000"
 4768 18e3 01       		.byte	0x1
 4769 18e4 A003     		.2byte	0x3a0
 4770 18e6 D4000000 		.4byte	0xd4
 4771 18ea 02       		.uleb128 0x2
 4772 18eb 91       		.byte	0x91
 4773 18ec 64       		.sleb128 -28
 4774 18ed 20       		.uleb128 0x20
 4775 18ee 65727200 		.ascii	"err\000"
 4776 18f2 01       		.byte	0x1
 4777 18f3 A203     		.2byte	0x3a2
 4778 18f5 2C010000 		.4byte	0x12c
 4779 18f9 02       		.uleb128 0x2
 4780 18fa 91       		.byte	0x91
ARM GAS  C:\Users\Phuong\AppData\Local\Temp\ccVcCKxe.s 			page 106


 4781 18fb 63       		.sleb128 -29
 4782 18fc 2B       		.uleb128 0x2b
 4783 18fd 0D070000 		.4byte	.LASF243
 4784 1901 01       		.byte	0x1
 4785 1902 A303     		.2byte	0x3a3
 4786 1904 2C010000 		.4byte	0x12c
 4787 1908 690E0000 		.4byte	.LLST68
 4788 190c 22       		.uleb128 0x22
 4789 190d 22000000 		.4byte	.LVL192
 4790 1911 0B1A0000 		.4byte	0x1a0b
 4791 1915 25190000 		.4byte	0x1925
 4792 1919 1C       		.uleb128 0x1c
 4793 191a 01       		.uleb128 0x1
 4794 191b 50       		.byte	0x50
 4795 191c 02       		.uleb128 0x2
 4796 191d 91       		.byte	0x91
 4797 191e 64       		.sleb128 -28
 4798 191f 1C       		.uleb128 0x1c
 4799 1920 01       		.uleb128 0x1
 4800 1921 51       		.byte	0x51
 4801 1922 01       		.uleb128 0x1
 4802 1923 30       		.byte	0x30
 4803 1924 00       		.byte	0
 4804 1925 22       		.uleb128 0x22
 4805 1926 32000000 		.4byte	.LVL193
 4806 192a 161A0000 		.4byte	0x1a16
 4807 192e 3E190000 		.4byte	0x193e
 4808 1932 1C       		.uleb128 0x1c
 4809 1933 01       		.uleb128 0x1
 4810 1934 51       		.byte	0x51
 4811 1935 02       		.uleb128 0x2
 4812 1936 91       		.byte	0x91
 4813 1937 68       		.sleb128 -24
 4814 1938 1C       		.uleb128 0x1c
 4815 1939 01       		.uleb128 0x1
 4816 193a 52       		.byte	0x52
 4817 193b 01       		.uleb128 0x1
 4818 193c 31       		.byte	0x31
 4819 193d 00       		.byte	0
 4820 193e 2C       		.uleb128 0x2c
 4821 193f 3C000000 		.4byte	.LVL196
 4822 1943 B0190000 		.4byte	0x19b0
 4823 1947 22       		.uleb128 0x22
 4824 1948 4C000000 		.4byte	.LVL199
 4825 194c 211A0000 		.4byte	0x1a21
 4826 1950 61190000 		.4byte	0x1961
 4827 1954 1C       		.uleb128 0x1c
 4828 1955 01       		.uleb128 0x1
 4829 1956 50       		.byte	0x50
 4830 1957 03       		.uleb128 0x3
 4831 1958 91       		.byte	0x91
 4832 1959 5C       		.sleb128 -36
 4833 195a 06       		.byte	0x6
 4834 195b 1C       		.uleb128 0x1c
 4835 195c 01       		.uleb128 0x1
 4836 195d 51       		.byte	0x51
 4837 195e 01       		.uleb128 0x1
ARM GAS  C:\Users\Phuong\AppData\Local\Temp\ccVcCKxe.s 			page 107


 4838 195f 30       		.byte	0x30
 4839 1960 00       		.byte	0
 4840 1961 2C       		.uleb128 0x2c
 4841 1962 52000000 		.4byte	.LVL200
 4842 1966 B0190000 		.4byte	0x19b0
 4843 196a 00       		.byte	0
 4844 196b 2E       		.uleb128 0x2e
 4845 196c 43030000 		.4byte	.LASF244
 4846 1970 0A       		.byte	0xa
 4847 1971 5201     		.2byte	0x152
 4848 1973 6E090000 		.4byte	0x96e
 4849 1977 2F       		.uleb128 0x2f
 4850 1978 610C0000 		.4byte	.LASF245
 4851 197c 11       		.byte	0x11
 4852 197d B5       		.byte	0xb5
 4853 197e EA000000 		.4byte	0xea
 4854 1982 30       		.uleb128 0x30
 4855 1983 980B0000 		.4byte	.LASF246
 4856 1987 980B0000 		.4byte	.LASF246
 4857 198b 16       		.byte	0x16
 4858 198c 5F       		.byte	0x5f
 4859 198d 31       		.uleb128 0x31
 4860 198e 9A040000 		.4byte	.LASF247
 4861 1992 9A040000 		.4byte	.LASF247
 4862 1996 17       		.byte	0x17
 4863 1997 2C01     		.2byte	0x12c
 4864 1999 31       		.uleb128 0x31
 4865 199a 63060000 		.4byte	.LASF248
 4866 199e 63060000 		.4byte	.LASF248
 4867 19a2 17       		.byte	0x17
 4868 19a3 0F01     		.2byte	0x10f
 4869 19a5 30       		.uleb128 0x30
 4870 19a6 AC030000 		.4byte	.LASF249
 4871 19aa AC030000 		.4byte	.LASF249
 4872 19ae 17       		.byte	0x17
 4873 19af CE       		.byte	0xce
 4874 19b0 30       		.uleb128 0x30
 4875 19b1 8A090000 		.4byte	.LASF250
 4876 19b5 8A090000 		.4byte	.LASF250
 4877 19b9 17       		.byte	0x17
 4878 19ba C6       		.byte	0xc6
 4879 19bb 31       		.uleb128 0x31
 4880 19bc 0D000000 		.4byte	.LASF251
 4881 19c0 0D000000 		.4byte	.LASF251
 4882 19c4 17       		.byte	0x17
 4883 19c5 2501     		.2byte	0x125
 4884 19c7 30       		.uleb128 0x30
 4885 19c8 7C040000 		.4byte	.LASF252
 4886 19cc 7C040000 		.4byte	.LASF252
 4887 19d0 12       		.byte	0x12
 4888 19d1 95       		.byte	0x95
 4889 19d2 30       		.uleb128 0x30
 4890 19d3 AE080000 		.4byte	.LASF253
 4891 19d7 AE080000 		.4byte	.LASF253
 4892 19db 11       		.byte	0x11
 4893 19dc CF       		.byte	0xcf
 4894 19dd 30       		.uleb128 0x30
ARM GAS  C:\Users\Phuong\AppData\Local\Temp\ccVcCKxe.s 			page 108


 4895 19de AC000000 		.4byte	.LASF254
 4896 19e2 AC000000 		.4byte	.LASF254
 4897 19e6 11       		.byte	0x11
 4898 19e7 D0       		.byte	0xd0
 4899 19e8 31       		.uleb128 0x31
 4900 19e9 79090000 		.4byte	.LASF255
 4901 19ed 79090000 		.4byte	.LASF255
 4902 19f1 17       		.byte	0x17
 4903 19f2 9101     		.2byte	0x191
 4904 19f4 31       		.uleb128 0x31
 4905 19f5 FE010000 		.4byte	.LASF256
 4906 19f9 FE010000 		.4byte	.LASF256
 4907 19fd 17       		.byte	0x17
 4908 19fe 9201     		.2byte	0x192
 4909 1a00 30       		.uleb128 0x30
 4910 1a01 2F090000 		.4byte	.LASF257
 4911 1a05 2F090000 		.4byte	.LASF257
 4912 1a09 12       		.byte	0x12
 4913 1a0a 90       		.byte	0x90
 4914 1a0b 30       		.uleb128 0x30
 4915 1a0c 86060000 		.4byte	.LASF258
 4916 1a10 86060000 		.4byte	.LASF258
 4917 1a14 17       		.byte	0x17
 4918 1a15 B1       		.byte	0xb1
 4919 1a16 30       		.uleb128 0x30
 4920 1a17 FE080000 		.4byte	.LASF259
 4921 1a1b FE080000 		.4byte	.LASF259
 4922 1a1f 13       		.byte	0x13
 4923 1a20 50       		.byte	0x50
 4924 1a21 30       		.uleb128 0x30
 4925 1a22 9C080000 		.4byte	.LASF260
 4926 1a26 9C080000 		.4byte	.LASF260
 4927 1a2a 17       		.byte	0x17
 4928 1a2b C0       		.byte	0xc0
 4929 1a2c 00       		.byte	0
 4930              		.section	.debug_abbrev,"",%progbits
 4931              	.Ldebug_abbrev0:
 4932 0000 01       		.uleb128 0x1
 4933 0001 11       		.uleb128 0x11
 4934 0002 01       		.byte	0x1
 4935 0003 25       		.uleb128 0x25
 4936 0004 0E       		.uleb128 0xe
 4937 0005 13       		.uleb128 0x13
 4938 0006 0B       		.uleb128 0xb
 4939 0007 03       		.uleb128 0x3
 4940 0008 0E       		.uleb128 0xe
 4941 0009 1B       		.uleb128 0x1b
 4942 000a 0E       		.uleb128 0xe
 4943 000b 55       		.uleb128 0x55
 4944 000c 17       		.uleb128 0x17
 4945 000d 11       		.uleb128 0x11
 4946 000e 01       		.uleb128 0x1
 4947 000f 10       		.uleb128 0x10
 4948 0010 17       		.uleb128 0x17
 4949 0011 00       		.byte	0
 4950 0012 00       		.byte	0
 4951 0013 02       		.uleb128 0x2
ARM GAS  C:\Users\Phuong\AppData\Local\Temp\ccVcCKxe.s 			page 109


 4952 0014 24       		.uleb128 0x24
 4953 0015 00       		.byte	0
 4954 0016 0B       		.uleb128 0xb
 4955 0017 0B       		.uleb128 0xb
 4956 0018 3E       		.uleb128 0x3e
 4957 0019 0B       		.uleb128 0xb
 4958 001a 03       		.uleb128 0x3
 4959 001b 0E       		.uleb128 0xe
 4960 001c 00       		.byte	0
 4961 001d 00       		.byte	0
 4962 001e 03       		.uleb128 0x3
 4963 001f 24       		.uleb128 0x24
 4964 0020 00       		.byte	0
 4965 0021 0B       		.uleb128 0xb
 4966 0022 0B       		.uleb128 0xb
 4967 0023 3E       		.uleb128 0x3e
 4968 0024 0B       		.uleb128 0xb
 4969 0025 03       		.uleb128 0x3
 4970 0026 08       		.uleb128 0x8
 4971 0027 00       		.byte	0
 4972 0028 00       		.byte	0
 4973 0029 04       		.uleb128 0x4
 4974 002a 16       		.uleb128 0x16
 4975 002b 00       		.byte	0
 4976 002c 03       		.uleb128 0x3
 4977 002d 0E       		.uleb128 0xe
 4978 002e 3A       		.uleb128 0x3a
 4979 002f 0B       		.uleb128 0xb
 4980 0030 3B       		.uleb128 0x3b
 4981 0031 0B       		.uleb128 0xb
 4982 0032 49       		.uleb128 0x49
 4983 0033 13       		.uleb128 0x13
 4984 0034 00       		.byte	0
 4985 0035 00       		.byte	0
 4986 0036 05       		.uleb128 0x5
 4987 0037 0F       		.uleb128 0xf
 4988 0038 00       		.byte	0
 4989 0039 0B       		.uleb128 0xb
 4990 003a 0B       		.uleb128 0xb
 4991 003b 00       		.byte	0
 4992 003c 00       		.byte	0
 4993 003d 06       		.uleb128 0x6
 4994 003e 0F       		.uleb128 0xf
 4995 003f 00       		.byte	0
 4996 0040 0B       		.uleb128 0xb
 4997 0041 0B       		.uleb128 0xb
 4998 0042 49       		.uleb128 0x49
 4999 0043 13       		.uleb128 0x13
 5000 0044 00       		.byte	0
 5001 0045 00       		.byte	0
 5002 0046 07       		.uleb128 0x7
 5003 0047 26       		.uleb128 0x26
 5004 0048 00       		.byte	0
 5005 0049 49       		.uleb128 0x49
 5006 004a 13       		.uleb128 0x13
 5007 004b 00       		.byte	0
 5008 004c 00       		.byte	0
ARM GAS  C:\Users\Phuong\AppData\Local\Temp\ccVcCKxe.s 			page 110


 5009 004d 08       		.uleb128 0x8
 5010 004e 26       		.uleb128 0x26
 5011 004f 00       		.byte	0
 5012 0050 00       		.byte	0
 5013 0051 00       		.byte	0
 5014 0052 09       		.uleb128 0x9
 5015 0053 15       		.uleb128 0x15
 5016 0054 01       		.byte	0x1
 5017 0055 27       		.uleb128 0x27
 5018 0056 19       		.uleb128 0x19
 5019 0057 01       		.uleb128 0x1
 5020 0058 13       		.uleb128 0x13
 5021 0059 00       		.byte	0
 5022 005a 00       		.byte	0
 5023 005b 0A       		.uleb128 0xa
 5024 005c 05       		.uleb128 0x5
 5025 005d 00       		.byte	0
 5026 005e 49       		.uleb128 0x49
 5027 005f 13       		.uleb128 0x13
 5028 0060 00       		.byte	0
 5029 0061 00       		.byte	0
 5030 0062 0B       		.uleb128 0xb
 5031 0063 04       		.uleb128 0x4
 5032 0064 01       		.byte	0x1
 5033 0065 0B       		.uleb128 0xb
 5034 0066 0B       		.uleb128 0xb
 5035 0067 49       		.uleb128 0x49
 5036 0068 13       		.uleb128 0x13
 5037 0069 3A       		.uleb128 0x3a
 5038 006a 0B       		.uleb128 0xb
 5039 006b 3B       		.uleb128 0x3b
 5040 006c 0B       		.uleb128 0xb
 5041 006d 01       		.uleb128 0x1
 5042 006e 13       		.uleb128 0x13
 5043 006f 00       		.byte	0
 5044 0070 00       		.byte	0
 5045 0071 0C       		.uleb128 0xc
 5046 0072 28       		.uleb128 0x28
 5047 0073 00       		.byte	0
 5048 0074 03       		.uleb128 0x3
 5049 0075 0E       		.uleb128 0xe
 5050 0076 1C       		.uleb128 0x1c
 5051 0077 0B       		.uleb128 0xb
 5052 0078 00       		.byte	0
 5053 0079 00       		.byte	0
 5054 007a 0D       		.uleb128 0xd
 5055 007b 28       		.uleb128 0x28
 5056 007c 00       		.byte	0
 5057 007d 03       		.uleb128 0x3
 5058 007e 0E       		.uleb128 0xe
 5059 007f 1C       		.uleb128 0x1c
 5060 0080 0D       		.uleb128 0xd
 5061 0081 00       		.byte	0
 5062 0082 00       		.byte	0
 5063 0083 0E       		.uleb128 0xe
 5064 0084 13       		.uleb128 0x13
 5065 0085 01       		.byte	0x1
ARM GAS  C:\Users\Phuong\AppData\Local\Temp\ccVcCKxe.s 			page 111


 5066 0086 03       		.uleb128 0x3
 5067 0087 0E       		.uleb128 0xe
 5068 0088 0B       		.uleb128 0xb
 5069 0089 0B       		.uleb128 0xb
 5070 008a 3A       		.uleb128 0x3a
 5071 008b 0B       		.uleb128 0xb
 5072 008c 3B       		.uleb128 0x3b
 5073 008d 0B       		.uleb128 0xb
 5074 008e 01       		.uleb128 0x1
 5075 008f 13       		.uleb128 0x13
 5076 0090 00       		.byte	0
 5077 0091 00       		.byte	0
 5078 0092 0F       		.uleb128 0xf
 5079 0093 0D       		.uleb128 0xd
 5080 0094 00       		.byte	0
 5081 0095 03       		.uleb128 0x3
 5082 0096 0E       		.uleb128 0xe
 5083 0097 3A       		.uleb128 0x3a
 5084 0098 0B       		.uleb128 0xb
 5085 0099 3B       		.uleb128 0x3b
 5086 009a 0B       		.uleb128 0xb
 5087 009b 49       		.uleb128 0x49
 5088 009c 13       		.uleb128 0x13
 5089 009d 38       		.uleb128 0x38
 5090 009e 0B       		.uleb128 0xb
 5091 009f 00       		.byte	0
 5092 00a0 00       		.byte	0
 5093 00a1 10       		.uleb128 0x10
 5094 00a2 0D       		.uleb128 0xd
 5095 00a3 00       		.byte	0
 5096 00a4 03       		.uleb128 0x3
 5097 00a5 08       		.uleb128 0x8
 5098 00a6 3A       		.uleb128 0x3a
 5099 00a7 0B       		.uleb128 0xb
 5100 00a8 3B       		.uleb128 0x3b
 5101 00a9 0B       		.uleb128 0xb
 5102 00aa 49       		.uleb128 0x49
 5103 00ab 13       		.uleb128 0x13
 5104 00ac 38       		.uleb128 0x38
 5105 00ad 0B       		.uleb128 0xb
 5106 00ae 00       		.byte	0
 5107 00af 00       		.byte	0
 5108 00b0 11       		.uleb128 0x11
 5109 00b1 04       		.uleb128 0x4
 5110 00b2 01       		.byte	0x1
 5111 00b3 03       		.uleb128 0x3
 5112 00b4 0E       		.uleb128 0xe
 5113 00b5 0B       		.uleb128 0xb
 5114 00b6 0B       		.uleb128 0xb
 5115 00b7 49       		.uleb128 0x49
 5116 00b8 13       		.uleb128 0x13
 5117 00b9 3A       		.uleb128 0x3a
 5118 00ba 0B       		.uleb128 0xb
 5119 00bb 3B       		.uleb128 0x3b
 5120 00bc 0B       		.uleb128 0xb
 5121 00bd 01       		.uleb128 0x1
 5122 00be 13       		.uleb128 0x13
ARM GAS  C:\Users\Phuong\AppData\Local\Temp\ccVcCKxe.s 			page 112


 5123 00bf 00       		.byte	0
 5124 00c0 00       		.byte	0
 5125 00c1 12       		.uleb128 0x12
 5126 00c2 0D       		.uleb128 0xd
 5127 00c3 00       		.byte	0
 5128 00c4 03       		.uleb128 0x3
 5129 00c5 0E       		.uleb128 0xe
 5130 00c6 3A       		.uleb128 0x3a
 5131 00c7 0B       		.uleb128 0xb
 5132 00c8 3B       		.uleb128 0x3b
 5133 00c9 05       		.uleb128 0x5
 5134 00ca 49       		.uleb128 0x49
 5135 00cb 13       		.uleb128 0x13
 5136 00cc 38       		.uleb128 0x38
 5137 00cd 0B       		.uleb128 0xb
 5138 00ce 00       		.byte	0
 5139 00cf 00       		.byte	0
 5140 00d0 13       		.uleb128 0x13
 5141 00d1 17       		.uleb128 0x17
 5142 00d2 01       		.byte	0x1
 5143 00d3 0B       		.uleb128 0xb
 5144 00d4 0B       		.uleb128 0xb
 5145 00d5 3A       		.uleb128 0x3a
 5146 00d6 0B       		.uleb128 0xb
 5147 00d7 3B       		.uleb128 0x3b
 5148 00d8 0B       		.uleb128 0xb
 5149 00d9 01       		.uleb128 0x1
 5150 00da 13       		.uleb128 0x13
 5151 00db 00       		.byte	0
 5152 00dc 00       		.byte	0
 5153 00dd 14       		.uleb128 0x14
 5154 00de 0D       		.uleb128 0xd
 5155 00df 00       		.byte	0
 5156 00e0 03       		.uleb128 0x3
 5157 00e1 08       		.uleb128 0x8
 5158 00e2 3A       		.uleb128 0x3a
 5159 00e3 0B       		.uleb128 0xb
 5160 00e4 3B       		.uleb128 0x3b
 5161 00e5 0B       		.uleb128 0xb
 5162 00e6 49       		.uleb128 0x49
 5163 00e7 13       		.uleb128 0x13
 5164 00e8 00       		.byte	0
 5165 00e9 00       		.byte	0
 5166 00ea 15       		.uleb128 0x15
 5167 00eb 15       		.uleb128 0x15
 5168 00ec 01       		.byte	0x1
 5169 00ed 27       		.uleb128 0x27
 5170 00ee 19       		.uleb128 0x19
 5171 00ef 49       		.uleb128 0x49
 5172 00f0 13       		.uleb128 0x13
 5173 00f1 01       		.uleb128 0x1
 5174 00f2 13       		.uleb128 0x13
 5175 00f3 00       		.byte	0
 5176 00f4 00       		.byte	0
 5177 00f5 16       		.uleb128 0x16
 5178 00f6 13       		.uleb128 0x13
 5179 00f7 01       		.byte	0x1
ARM GAS  C:\Users\Phuong\AppData\Local\Temp\ccVcCKxe.s 			page 113


 5180 00f8 0B       		.uleb128 0xb
 5181 00f9 0B       		.uleb128 0xb
 5182 00fa 3A       		.uleb128 0x3a
 5183 00fb 0B       		.uleb128 0xb
 5184 00fc 3B       		.uleb128 0x3b
 5185 00fd 0B       		.uleb128 0xb
 5186 00fe 01       		.uleb128 0x1
 5187 00ff 13       		.uleb128 0x13
 5188 0100 00       		.byte	0
 5189 0101 00       		.byte	0
 5190 0102 17       		.uleb128 0x17
 5191 0103 2E       		.uleb128 0x2e
 5192 0104 01       		.byte	0x1
 5193 0105 03       		.uleb128 0x3
 5194 0106 0E       		.uleb128 0xe
 5195 0107 3A       		.uleb128 0x3a
 5196 0108 0B       		.uleb128 0xb
 5197 0109 3B       		.uleb128 0x3b
 5198 010a 0B       		.uleb128 0xb
 5199 010b 27       		.uleb128 0x27
 5200 010c 19       		.uleb128 0x19
 5201 010d 49       		.uleb128 0x49
 5202 010e 13       		.uleb128 0x13
 5203 010f 11       		.uleb128 0x11
 5204 0110 01       		.uleb128 0x1
 5205 0111 12       		.uleb128 0x12
 5206 0112 06       		.uleb128 0x6
 5207 0113 40       		.uleb128 0x40
 5208 0114 18       		.uleb128 0x18
 5209 0115 9742     		.uleb128 0x2117
 5210 0117 19       		.uleb128 0x19
 5211 0118 01       		.uleb128 0x1
 5212 0119 13       		.uleb128 0x13
 5213 011a 00       		.byte	0
 5214 011b 00       		.byte	0
 5215 011c 18       		.uleb128 0x18
 5216 011d 05       		.uleb128 0x5
 5217 011e 00       		.byte	0
 5218 011f 03       		.uleb128 0x3
 5219 0120 08       		.uleb128 0x8
 5220 0121 3A       		.uleb128 0x3a
 5221 0122 0B       		.uleb128 0xb
 5222 0123 3B       		.uleb128 0x3b
 5223 0124 0B       		.uleb128 0xb
 5224 0125 49       		.uleb128 0x49
 5225 0126 13       		.uleb128 0x13
 5226 0127 02       		.uleb128 0x2
 5227 0128 17       		.uleb128 0x17
 5228 0129 00       		.byte	0
 5229 012a 00       		.byte	0
 5230 012b 19       		.uleb128 0x19
 5231 012c 05       		.uleb128 0x5
 5232 012d 00       		.byte	0
 5233 012e 03       		.uleb128 0x3
 5234 012f 0E       		.uleb128 0xe
 5235 0130 3A       		.uleb128 0x3a
 5236 0131 0B       		.uleb128 0xb
ARM GAS  C:\Users\Phuong\AppData\Local\Temp\ccVcCKxe.s 			page 114


 5237 0132 3B       		.uleb128 0x3b
 5238 0133 0B       		.uleb128 0xb
 5239 0134 49       		.uleb128 0x49
 5240 0135 13       		.uleb128 0x13
 5241 0136 02       		.uleb128 0x2
 5242 0137 17       		.uleb128 0x17
 5243 0138 00       		.byte	0
 5244 0139 00       		.byte	0
 5245 013a 1A       		.uleb128 0x1a
 5246 013b 34       		.uleb128 0x34
 5247 013c 00       		.byte	0
 5248 013d 03       		.uleb128 0x3
 5249 013e 08       		.uleb128 0x8
 5250 013f 3A       		.uleb128 0x3a
 5251 0140 0B       		.uleb128 0xb
 5252 0141 3B       		.uleb128 0x3b
 5253 0142 0B       		.uleb128 0xb
 5254 0143 49       		.uleb128 0x49
 5255 0144 13       		.uleb128 0x13
 5256 0145 02       		.uleb128 0x2
 5257 0146 17       		.uleb128 0x17
 5258 0147 00       		.byte	0
 5259 0148 00       		.byte	0
 5260 0149 1B       		.uleb128 0x1b
 5261 014a 898201   		.uleb128 0x4109
 5262 014d 01       		.byte	0x1
 5263 014e 11       		.uleb128 0x11
 5264 014f 01       		.uleb128 0x1
 5265 0150 31       		.uleb128 0x31
 5266 0151 13       		.uleb128 0x13
 5267 0152 00       		.byte	0
 5268 0153 00       		.byte	0
 5269 0154 1C       		.uleb128 0x1c
 5270 0155 8A8201   		.uleb128 0x410a
 5271 0158 00       		.byte	0
 5272 0159 02       		.uleb128 0x2
 5273 015a 18       		.uleb128 0x18
 5274 015b 9142     		.uleb128 0x2111
 5275 015d 18       		.uleb128 0x18
 5276 015e 00       		.byte	0
 5277 015f 00       		.byte	0
 5278 0160 1D       		.uleb128 0x1d
 5279 0161 2E       		.uleb128 0x2e
 5280 0162 01       		.byte	0x1
 5281 0163 03       		.uleb128 0x3
 5282 0164 0E       		.uleb128 0xe
 5283 0165 3A       		.uleb128 0x3a
 5284 0166 0B       		.uleb128 0xb
 5285 0167 3B       		.uleb128 0x3b
 5286 0168 05       		.uleb128 0x5
 5287 0169 27       		.uleb128 0x27
 5288 016a 19       		.uleb128 0x19
 5289 016b 49       		.uleb128 0x49
 5290 016c 13       		.uleb128 0x13
 5291 016d 11       		.uleb128 0x11
 5292 016e 01       		.uleb128 0x1
 5293 016f 12       		.uleb128 0x12
ARM GAS  C:\Users\Phuong\AppData\Local\Temp\ccVcCKxe.s 			page 115


 5294 0170 06       		.uleb128 0x6
 5295 0171 40       		.uleb128 0x40
 5296 0172 18       		.uleb128 0x18
 5297 0173 9742     		.uleb128 0x2117
 5298 0175 19       		.uleb128 0x19
 5299 0176 01       		.uleb128 0x1
 5300 0177 13       		.uleb128 0x13
 5301 0178 00       		.byte	0
 5302 0179 00       		.byte	0
 5303 017a 1E       		.uleb128 0x1e
 5304 017b 05       		.uleb128 0x5
 5305 017c 00       		.byte	0
 5306 017d 03       		.uleb128 0x3
 5307 017e 0E       		.uleb128 0xe
 5308 017f 3A       		.uleb128 0x3a
 5309 0180 0B       		.uleb128 0xb
 5310 0181 3B       		.uleb128 0x3b
 5311 0182 05       		.uleb128 0x5
 5312 0183 49       		.uleb128 0x49
 5313 0184 13       		.uleb128 0x13
 5314 0185 02       		.uleb128 0x2
 5315 0186 17       		.uleb128 0x17
 5316 0187 00       		.byte	0
 5317 0188 00       		.byte	0
 5318 0189 1F       		.uleb128 0x1f
 5319 018a 05       		.uleb128 0x5
 5320 018b 00       		.byte	0
 5321 018c 03       		.uleb128 0x3
 5322 018d 08       		.uleb128 0x8
 5323 018e 3A       		.uleb128 0x3a
 5324 018f 0B       		.uleb128 0xb
 5325 0190 3B       		.uleb128 0x3b
 5326 0191 05       		.uleb128 0x5
 5327 0192 49       		.uleb128 0x49
 5328 0193 13       		.uleb128 0x13
 5329 0194 02       		.uleb128 0x2
 5330 0195 17       		.uleb128 0x17
 5331 0196 00       		.byte	0
 5332 0197 00       		.byte	0
 5333 0198 20       		.uleb128 0x20
 5334 0199 34       		.uleb128 0x34
 5335 019a 00       		.byte	0
 5336 019b 03       		.uleb128 0x3
 5337 019c 08       		.uleb128 0x8
 5338 019d 3A       		.uleb128 0x3a
 5339 019e 0B       		.uleb128 0xb
 5340 019f 3B       		.uleb128 0x3b
 5341 01a0 05       		.uleb128 0x5
 5342 01a1 49       		.uleb128 0x49
 5343 01a2 13       		.uleb128 0x13
 5344 01a3 02       		.uleb128 0x2
 5345 01a4 18       		.uleb128 0x18
 5346 01a5 00       		.byte	0
 5347 01a6 00       		.byte	0
 5348 01a7 21       		.uleb128 0x21
 5349 01a8 34       		.uleb128 0x34
 5350 01a9 00       		.byte	0
ARM GAS  C:\Users\Phuong\AppData\Local\Temp\ccVcCKxe.s 			page 116


 5351 01aa 03       		.uleb128 0x3
 5352 01ab 08       		.uleb128 0x8
 5353 01ac 3A       		.uleb128 0x3a
 5354 01ad 0B       		.uleb128 0xb
 5355 01ae 3B       		.uleb128 0x3b
 5356 01af 05       		.uleb128 0x5
 5357 01b0 49       		.uleb128 0x49
 5358 01b1 13       		.uleb128 0x13
 5359 01b2 02       		.uleb128 0x2
 5360 01b3 17       		.uleb128 0x17
 5361 01b4 00       		.byte	0
 5362 01b5 00       		.byte	0
 5363 01b6 22       		.uleb128 0x22
 5364 01b7 898201   		.uleb128 0x4109
 5365 01ba 01       		.byte	0x1
 5366 01bb 11       		.uleb128 0x11
 5367 01bc 01       		.uleb128 0x1
 5368 01bd 31       		.uleb128 0x31
 5369 01be 13       		.uleb128 0x13
 5370 01bf 01       		.uleb128 0x1
 5371 01c0 13       		.uleb128 0x13
 5372 01c1 00       		.byte	0
 5373 01c2 00       		.byte	0
 5374 01c3 23       		.uleb128 0x23
 5375 01c4 898201   		.uleb128 0x4109
 5376 01c7 01       		.byte	0x1
 5377 01c8 11       		.uleb128 0x11
 5378 01c9 01       		.uleb128 0x1
 5379 01ca 01       		.uleb128 0x1
 5380 01cb 13       		.uleb128 0x13
 5381 01cc 00       		.byte	0
 5382 01cd 00       		.byte	0
 5383 01ce 24       		.uleb128 0x24
 5384 01cf 898201   		.uleb128 0x4109
 5385 01d2 01       		.byte	0x1
 5386 01d3 11       		.uleb128 0x11
 5387 01d4 01       		.uleb128 0x1
 5388 01d5 00       		.byte	0
 5389 01d6 00       		.byte	0
 5390 01d7 25       		.uleb128 0x25
 5391 01d8 2E       		.uleb128 0x2e
 5392 01d9 01       		.byte	0x1
 5393 01da 3F       		.uleb128 0x3f
 5394 01db 19       		.uleb128 0x19
 5395 01dc 03       		.uleb128 0x3
 5396 01dd 0E       		.uleb128 0xe
 5397 01de 3A       		.uleb128 0x3a
 5398 01df 0B       		.uleb128 0xb
 5399 01e0 3B       		.uleb128 0x3b
 5400 01e1 0B       		.uleb128 0xb
 5401 01e2 27       		.uleb128 0x27
 5402 01e3 19       		.uleb128 0x19
 5403 01e4 49       		.uleb128 0x49
 5404 01e5 13       		.uleb128 0x13
 5405 01e6 11       		.uleb128 0x11
 5406 01e7 01       		.uleb128 0x1
 5407 01e8 12       		.uleb128 0x12
ARM GAS  C:\Users\Phuong\AppData\Local\Temp\ccVcCKxe.s 			page 117


 5408 01e9 06       		.uleb128 0x6
 5409 01ea 40       		.uleb128 0x40
 5410 01eb 18       		.uleb128 0x18
 5411 01ec 9742     		.uleb128 0x2117
 5412 01ee 19       		.uleb128 0x19
 5413 01ef 01       		.uleb128 0x1
 5414 01f0 13       		.uleb128 0x13
 5415 01f1 00       		.byte	0
 5416 01f2 00       		.byte	0
 5417 01f3 26       		.uleb128 0x26
 5418 01f4 34       		.uleb128 0x34
 5419 01f5 00       		.byte	0
 5420 01f6 03       		.uleb128 0x3
 5421 01f7 0E       		.uleb128 0xe
 5422 01f8 3A       		.uleb128 0x3a
 5423 01f9 0B       		.uleb128 0xb
 5424 01fa 3B       		.uleb128 0x3b
 5425 01fb 0B       		.uleb128 0xb
 5426 01fc 49       		.uleb128 0x49
 5427 01fd 13       		.uleb128 0x13
 5428 01fe 02       		.uleb128 0x2
 5429 01ff 17       		.uleb128 0x17
 5430 0200 00       		.byte	0
 5431 0201 00       		.byte	0
 5432 0202 27       		.uleb128 0x27
 5433 0203 34       		.uleb128 0x34
 5434 0204 00       		.byte	0
 5435 0205 03       		.uleb128 0x3
 5436 0206 08       		.uleb128 0x8
 5437 0207 3A       		.uleb128 0x3a
 5438 0208 0B       		.uleb128 0xb
 5439 0209 3B       		.uleb128 0x3b
 5440 020a 0B       		.uleb128 0xb
 5441 020b 49       		.uleb128 0x49
 5442 020c 13       		.uleb128 0x13
 5443 020d 02       		.uleb128 0x2
 5444 020e 18       		.uleb128 0x18
 5445 020f 00       		.byte	0
 5446 0210 00       		.byte	0
 5447 0211 28       		.uleb128 0x28
 5448 0212 0B       		.uleb128 0xb
 5449 0213 01       		.byte	0x1
 5450 0214 11       		.uleb128 0x11
 5451 0215 01       		.uleb128 0x1
 5452 0216 12       		.uleb128 0x12
 5453 0217 06       		.uleb128 0x6
 5454 0218 01       		.uleb128 0x1
 5455 0219 13       		.uleb128 0x13
 5456 021a 00       		.byte	0
 5457 021b 00       		.byte	0
 5458 021c 29       		.uleb128 0x29
 5459 021d 2E       		.uleb128 0x2e
 5460 021e 01       		.byte	0x1
 5461 021f 3F       		.uleb128 0x3f
 5462 0220 19       		.uleb128 0x19
 5463 0221 03       		.uleb128 0x3
 5464 0222 0E       		.uleb128 0xe
ARM GAS  C:\Users\Phuong\AppData\Local\Temp\ccVcCKxe.s 			page 118


 5465 0223 3A       		.uleb128 0x3a
 5466 0224 0B       		.uleb128 0xb
 5467 0225 3B       		.uleb128 0x3b
 5468 0226 05       		.uleb128 0x5
 5469 0227 27       		.uleb128 0x27
 5470 0228 19       		.uleb128 0x19
 5471 0229 49       		.uleb128 0x49
 5472 022a 13       		.uleb128 0x13
 5473 022b 11       		.uleb128 0x11
 5474 022c 01       		.uleb128 0x1
 5475 022d 12       		.uleb128 0x12
 5476 022e 06       		.uleb128 0x6
 5477 022f 40       		.uleb128 0x40
 5478 0230 18       		.uleb128 0x18
 5479 0231 9742     		.uleb128 0x2117
 5480 0233 19       		.uleb128 0x19
 5481 0234 01       		.uleb128 0x1
 5482 0235 13       		.uleb128 0x13
 5483 0236 00       		.byte	0
 5484 0237 00       		.byte	0
 5485 0238 2A       		.uleb128 0x2a
 5486 0239 34       		.uleb128 0x34
 5487 023a 00       		.byte	0
 5488 023b 03       		.uleb128 0x3
 5489 023c 0E       		.uleb128 0xe
 5490 023d 3A       		.uleb128 0x3a
 5491 023e 0B       		.uleb128 0xb
 5492 023f 3B       		.uleb128 0x3b
 5493 0240 05       		.uleb128 0x5
 5494 0241 49       		.uleb128 0x49
 5495 0242 13       		.uleb128 0x13
 5496 0243 02       		.uleb128 0x2
 5497 0244 18       		.uleb128 0x18
 5498 0245 00       		.byte	0
 5499 0246 00       		.byte	0
 5500 0247 2B       		.uleb128 0x2b
 5501 0248 34       		.uleb128 0x34
 5502 0249 00       		.byte	0
 5503 024a 03       		.uleb128 0x3
 5504 024b 0E       		.uleb128 0xe
 5505 024c 3A       		.uleb128 0x3a
 5506 024d 0B       		.uleb128 0xb
 5507 024e 3B       		.uleb128 0x3b
 5508 024f 05       		.uleb128 0x5
 5509 0250 49       		.uleb128 0x49
 5510 0251 13       		.uleb128 0x13
 5511 0252 02       		.uleb128 0x2
 5512 0253 17       		.uleb128 0x17
 5513 0254 00       		.byte	0
 5514 0255 00       		.byte	0
 5515 0256 2C       		.uleb128 0x2c
 5516 0257 898201   		.uleb128 0x4109
 5517 025a 00       		.byte	0
 5518 025b 11       		.uleb128 0x11
 5519 025c 01       		.uleb128 0x1
 5520 025d 31       		.uleb128 0x31
 5521 025e 13       		.uleb128 0x13
ARM GAS  C:\Users\Phuong\AppData\Local\Temp\ccVcCKxe.s 			page 119


 5522 025f 00       		.byte	0
 5523 0260 00       		.byte	0
 5524 0261 2D       		.uleb128 0x2d
 5525 0262 05       		.uleb128 0x5
 5526 0263 00       		.byte	0
 5527 0264 03       		.uleb128 0x3
 5528 0265 0E       		.uleb128 0xe
 5529 0266 3A       		.uleb128 0x3a
 5530 0267 0B       		.uleb128 0xb
 5531 0268 3B       		.uleb128 0x3b
 5532 0269 05       		.uleb128 0x5
 5533 026a 49       		.uleb128 0x49
 5534 026b 13       		.uleb128 0x13
 5535 026c 02       		.uleb128 0x2
 5536 026d 18       		.uleb128 0x18
 5537 026e 00       		.byte	0
 5538 026f 00       		.byte	0
 5539 0270 2E       		.uleb128 0x2e
 5540 0271 34       		.uleb128 0x34
 5541 0272 00       		.byte	0
 5542 0273 03       		.uleb128 0x3
 5543 0274 0E       		.uleb128 0xe
 5544 0275 3A       		.uleb128 0x3a
 5545 0276 0B       		.uleb128 0xb
 5546 0277 3B       		.uleb128 0x3b
 5547 0278 05       		.uleb128 0x5
 5548 0279 49       		.uleb128 0x49
 5549 027a 13       		.uleb128 0x13
 5550 027b 3F       		.uleb128 0x3f
 5551 027c 19       		.uleb128 0x19
 5552 027d 3C       		.uleb128 0x3c
 5553 027e 19       		.uleb128 0x19
 5554 027f 00       		.byte	0
 5555 0280 00       		.byte	0
 5556 0281 2F       		.uleb128 0x2f
 5557 0282 34       		.uleb128 0x34
 5558 0283 00       		.byte	0
 5559 0284 03       		.uleb128 0x3
 5560 0285 0E       		.uleb128 0xe
 5561 0286 3A       		.uleb128 0x3a
 5562 0287 0B       		.uleb128 0xb
 5563 0288 3B       		.uleb128 0x3b
 5564 0289 0B       		.uleb128 0xb
 5565 028a 49       		.uleb128 0x49
 5566 028b 13       		.uleb128 0x13
 5567 028c 3F       		.uleb128 0x3f
 5568 028d 19       		.uleb128 0x19
 5569 028e 3C       		.uleb128 0x3c
 5570 028f 19       		.uleb128 0x19
 5571 0290 00       		.byte	0
 5572 0291 00       		.byte	0
 5573 0292 30       		.uleb128 0x30
 5574 0293 2E       		.uleb128 0x2e
 5575 0294 00       		.byte	0
 5576 0295 3F       		.uleb128 0x3f
 5577 0296 19       		.uleb128 0x19
 5578 0297 3C       		.uleb128 0x3c
ARM GAS  C:\Users\Phuong\AppData\Local\Temp\ccVcCKxe.s 			page 120


 5579 0298 19       		.uleb128 0x19
 5580 0299 6E       		.uleb128 0x6e
 5581 029a 0E       		.uleb128 0xe
 5582 029b 03       		.uleb128 0x3
 5583 029c 0E       		.uleb128 0xe
 5584 029d 3A       		.uleb128 0x3a
 5585 029e 0B       		.uleb128 0xb
 5586 029f 3B       		.uleb128 0x3b
 5587 02a0 0B       		.uleb128 0xb
 5588 02a1 00       		.byte	0
 5589 02a2 00       		.byte	0
 5590 02a3 31       		.uleb128 0x31
 5591 02a4 2E       		.uleb128 0x2e
 5592 02a5 00       		.byte	0
 5593 02a6 3F       		.uleb128 0x3f
 5594 02a7 19       		.uleb128 0x19
 5595 02a8 3C       		.uleb128 0x3c
 5596 02a9 19       		.uleb128 0x19
 5597 02aa 6E       		.uleb128 0x6e
 5598 02ab 0E       		.uleb128 0xe
 5599 02ac 03       		.uleb128 0x3
 5600 02ad 0E       		.uleb128 0xe
 5601 02ae 3A       		.uleb128 0x3a
 5602 02af 0B       		.uleb128 0xb
 5603 02b0 3B       		.uleb128 0x3b
 5604 02b1 05       		.uleb128 0x5
 5605 02b2 00       		.byte	0
 5606 02b3 00       		.byte	0
 5607 02b4 00       		.byte	0
 5608              		.section	.debug_loc,"",%progbits
 5609              	.Ldebug_loc0:
 5610              	.LLST0:
 5611 0000 00000000 		.4byte	.LVL0
 5612 0004 0F000000 		.4byte	.LVL1-1
 5613 0008 0100     		.2byte	0x1
 5614 000a 50       		.byte	0x50
 5615 000b 0F000000 		.4byte	.LVL1-1
 5616 000f 1A000000 		.4byte	.LFE53
 5617 0013 0400     		.2byte	0x4
 5618 0015 F3       		.byte	0xf3
 5619 0016 01       		.uleb128 0x1
 5620 0017 50       		.byte	0x50
 5621 0018 9F       		.byte	0x9f
 5622 0019 00000000 		.4byte	0
 5623 001d 00000000 		.4byte	0
 5624              	.LLST1:
 5625 0021 00000000 		.4byte	.LVL0
 5626 0025 0F000000 		.4byte	.LVL1-1
 5627 0029 0100     		.2byte	0x1
 5628 002b 51       		.byte	0x51
 5629 002c 0F000000 		.4byte	.LVL1-1
 5630 0030 18000000 		.4byte	.LVL3
 5631 0034 0100     		.2byte	0x1
 5632 0036 54       		.byte	0x54
 5633 0037 18000000 		.4byte	.LVL3
 5634 003b 1A000000 		.4byte	.LFE53
 5635 003f 0400     		.2byte	0x4
ARM GAS  C:\Users\Phuong\AppData\Local\Temp\ccVcCKxe.s 			page 121


 5636 0041 F3       		.byte	0xf3
 5637 0042 01       		.uleb128 0x1
 5638 0043 51       		.byte	0x51
 5639 0044 9F       		.byte	0x9f
 5640 0045 00000000 		.4byte	0
 5641 0049 00000000 		.4byte	0
 5642              	.LLST2:
 5643 004d 10000000 		.4byte	.LVL1
 5644 0051 16000000 		.4byte	.LVL2
 5645 0055 0100     		.2byte	0x1
 5646 0057 50       		.byte	0x50
 5647 0058 00000000 		.4byte	0
 5648 005c 00000000 		.4byte	0
 5649              	.LLST3:
 5650 0060 00000000 		.4byte	.LVL4
 5651 0064 16000000 		.4byte	.LVL6
 5652 0068 0100     		.2byte	0x1
 5653 006a 50       		.byte	0x50
 5654 006b 16000000 		.4byte	.LVL6
 5655 006f 19000000 		.4byte	.LVL7-1
 5656 0073 0200     		.2byte	0x2
 5657 0075 71       		.byte	0x71
 5658 0076 00       		.sleb128 0
 5659 0077 19000000 		.4byte	.LVL7-1
 5660 007b 1C000000 		.4byte	.LVL8
 5661 007f 0400     		.2byte	0x4
 5662 0081 F3       		.byte	0xf3
 5663 0082 01       		.uleb128 0x1
 5664 0083 50       		.byte	0x50
 5665 0084 9F       		.byte	0x9f
 5666 0085 1C000000 		.4byte	.LVL8
 5667 0089 1E000000 		.4byte	.LVL9
 5668 008d 0100     		.2byte	0x1
 5669 008f 50       		.byte	0x50
 5670 0090 1E000000 		.4byte	.LVL9
 5671 0094 28000000 		.4byte	.LFE68
 5672 0098 0400     		.2byte	0x4
 5673 009a F3       		.byte	0xf3
 5674 009b 01       		.uleb128 0x1
 5675 009c 50       		.byte	0x50
 5676 009d 9F       		.byte	0x9f
 5677 009e 00000000 		.4byte	0
 5678 00a2 00000000 		.4byte	0
 5679              	.LLST4:
 5680 00a6 00000000 		.4byte	.LVL4
 5681 00aa 14000000 		.4byte	.LVL5
 5682 00ae 0100     		.2byte	0x1
 5683 00b0 51       		.byte	0x51
 5684 00b1 14000000 		.4byte	.LVL5
 5685 00b5 19000000 		.4byte	.LVL7-1
 5686 00b9 0200     		.2byte	0x2
 5687 00bb 71       		.byte	0x71
 5688 00bc 08       		.sleb128 8
 5689 00bd 19000000 		.4byte	.LVL7-1
 5690 00c1 1C000000 		.4byte	.LVL8
 5691 00c5 0400     		.2byte	0x4
 5692 00c7 F3       		.byte	0xf3
ARM GAS  C:\Users\Phuong\AppData\Local\Temp\ccVcCKxe.s 			page 122


 5693 00c8 01       		.uleb128 0x1
 5694 00c9 51       		.byte	0x51
 5695 00ca 9F       		.byte	0x9f
 5696 00cb 1C000000 		.4byte	.LVL8
 5697 00cf 20000000 		.4byte	.LVL10
 5698 00d3 0100     		.2byte	0x1
 5699 00d5 51       		.byte	0x51
 5700 00d6 20000000 		.4byte	.LVL10
 5701 00da 28000000 		.4byte	.LFE68
 5702 00de 0400     		.2byte	0x4
 5703 00e0 F3       		.byte	0xf3
 5704 00e1 01       		.uleb128 0x1
 5705 00e2 51       		.byte	0x51
 5706 00e3 9F       		.byte	0x9f
 5707 00e4 00000000 		.4byte	0
 5708 00e8 00000000 		.4byte	0
 5709              	.LLST5:
 5710 00ec 1A000000 		.4byte	.LVL7
 5711 00f0 1C000000 		.4byte	.LVL8
 5712 00f4 0100     		.2byte	0x1
 5713 00f6 50       		.byte	0x50
 5714 00f7 00000000 		.4byte	0
 5715 00fb 00000000 		.4byte	0
 5716              	.LLST6:
 5717 00ff 00000000 		.4byte	.LVL11
 5718 0103 22000000 		.4byte	.LVL12
 5719 0107 0100     		.2byte	0x1
 5720 0109 50       		.byte	0x50
 5721 010a 22000000 		.4byte	.LVL12
 5722 010e D8000000 		.4byte	.LVL24
 5723 0112 0100     		.2byte	0x1
 5724 0114 54       		.byte	0x54
 5725 0115 D8000000 		.4byte	.LVL24
 5726 0119 DA000000 		.4byte	.LVL25
 5727 011d 0100     		.2byte	0x1
 5728 011f 50       		.byte	0x50
 5729 0120 DA000000 		.4byte	.LVL25
 5730 0124 DE000000 		.4byte	.LVL26
 5731 0128 0100     		.2byte	0x1
 5732 012a 54       		.byte	0x54
 5733 012b DE000000 		.4byte	.LVL26
 5734 012f E0000000 		.4byte	.LVL27
 5735 0133 0100     		.2byte	0x1
 5736 0135 50       		.byte	0x50
 5737 0136 E0000000 		.4byte	.LVL27
 5738 013a F6000000 		.4byte	.LVL29
 5739 013e 0100     		.2byte	0x1
 5740 0140 54       		.byte	0x54
 5741 0141 F6000000 		.4byte	.LVL29
 5742 0145 FC000000 		.4byte	.LFE62
 5743 0149 0400     		.2byte	0x4
 5744 014b F3       		.byte	0xf3
 5745 014c 01       		.uleb128 0x1
 5746 014d 50       		.byte	0x50
 5747 014e 9F       		.byte	0x9f
 5748 014f 00000000 		.4byte	0
 5749 0153 00000000 		.4byte	0
ARM GAS  C:\Users\Phuong\AppData\Local\Temp\ccVcCKxe.s 			page 123


 5750              	.LLST7:
 5751 0157 00000000 		.4byte	.LVL11
 5752 015b 25000000 		.4byte	.LVL13-1
 5753 015f 0100     		.2byte	0x1
 5754 0161 51       		.byte	0x51
 5755 0162 25000000 		.4byte	.LVL13-1
 5756 0166 D8000000 		.4byte	.LVL24
 5757 016a 0100     		.2byte	0x1
 5758 016c 55       		.byte	0x55
 5759 016d D8000000 		.4byte	.LVL24
 5760 0171 E4000000 		.4byte	.LVL28
 5761 0175 0100     		.2byte	0x1
 5762 0177 51       		.byte	0x51
 5763 0178 E4000000 		.4byte	.LVL28
 5764 017c F6000000 		.4byte	.LVL30
 5765 0180 0100     		.2byte	0x1
 5766 0182 55       		.byte	0x55
 5767 0183 F6000000 		.4byte	.LVL30
 5768 0187 FC000000 		.4byte	.LFE62
 5769 018b 0400     		.2byte	0x4
 5770 018d F3       		.byte	0xf3
 5771 018e 01       		.uleb128 0x1
 5772 018f 51       		.byte	0x51
 5773 0190 9F       		.byte	0x9f
 5774 0191 00000000 		.4byte	0
 5775 0195 00000000 		.4byte	0
 5776              	.LLST8:
 5777 0199 BC000000 		.4byte	.LVL20
 5778 019d BE000000 		.4byte	.LVL21
 5779 01a1 0100     		.2byte	0x1
 5780 01a3 52       		.byte	0x52
 5781 01a4 C4000000 		.4byte	.LVL22
 5782 01a8 CF000000 		.4byte	.LVL23-1
 5783 01ac 0100     		.2byte	0x1
 5784 01ae 52       		.byte	0x52
 5785 01af 00000000 		.4byte	0
 5786 01b3 00000000 		.4byte	0
 5787              	.LLST9:
 5788 01b7 00000000 		.4byte	.LVL31
 5789 01bb 0B000000 		.4byte	.LVL33-1
 5790 01bf 0100     		.2byte	0x1
 5791 01c1 50       		.byte	0x50
 5792 01c2 0B000000 		.4byte	.LVL33-1
 5793 01c6 60000000 		.4byte	.LFE54
 5794 01ca 0400     		.2byte	0x4
 5795 01cc F3       		.byte	0xf3
 5796 01cd 01       		.uleb128 0x1
 5797 01ce 50       		.byte	0x50
 5798 01cf 9F       		.byte	0x9f
 5799 01d0 00000000 		.4byte	0
 5800 01d4 00000000 		.4byte	0
 5801              	.LLST10:
 5802 01d8 00000000 		.4byte	.LVL31
 5803 01dc 08000000 		.4byte	.LVL32
 5804 01e0 0100     		.2byte	0x1
 5805 01e2 51       		.byte	0x51
 5806 01e3 08000000 		.4byte	.LVL32
ARM GAS  C:\Users\Phuong\AppData\Local\Temp\ccVcCKxe.s 			page 124


 5807 01e7 60000000 		.4byte	.LFE54
 5808 01eb 0400     		.2byte	0x4
 5809 01ed F3       		.byte	0xf3
 5810 01ee 01       		.uleb128 0x1
 5811 01ef 51       		.byte	0x51
 5812 01f0 9F       		.byte	0x9f
 5813 01f1 00000000 		.4byte	0
 5814 01f5 00000000 		.4byte	0
 5815              	.LLST11:
 5816 01f9 00000000 		.4byte	.LVL31
 5817 01fd 0B000000 		.4byte	.LVL33-1
 5818 0201 0100     		.2byte	0x1
 5819 0203 52       		.byte	0x52
 5820 0204 0B000000 		.4byte	.LVL33-1
 5821 0208 60000000 		.4byte	.LFE54
 5822 020c 0400     		.2byte	0x4
 5823 020e F3       		.byte	0xf3
 5824 020f 01       		.uleb128 0x1
 5825 0210 52       		.byte	0x52
 5826 0211 9F       		.byte	0x9f
 5827 0212 00000000 		.4byte	0
 5828 0216 00000000 		.4byte	0
 5829              	.LLST12:
 5830 021a 0E000000 		.4byte	.LVL34
 5831 021e 18000000 		.4byte	.LVL35
 5832 0222 0100     		.2byte	0x1
 5833 0224 50       		.byte	0x50
 5834 0225 18000000 		.4byte	.LVL35
 5835 0229 54000000 		.4byte	.LVL44
 5836 022d 0100     		.2byte	0x1
 5837 022f 54       		.byte	0x54
 5838 0230 54000000 		.4byte	.LVL44
 5839 0234 56000000 		.4byte	.LVL45
 5840 0238 0100     		.2byte	0x1
 5841 023a 50       		.byte	0x50
 5842 023b 56000000 		.4byte	.LVL45
 5843 023f 5A000000 		.4byte	.LVL47
 5844 0243 0100     		.2byte	0x1
 5845 0245 54       		.byte	0x54
 5846 0246 00000000 		.4byte	0
 5847 024a 00000000 		.4byte	0
 5848              	.LLST13:
 5849 024e 1C000000 		.4byte	.LVL36
 5850 0252 26000000 		.4byte	.LVL37
 5851 0256 0100     		.2byte	0x1
 5852 0258 50       		.byte	0x50
 5853 0259 56000000 		.4byte	.LVL45
 5854 025d 58000000 		.4byte	.LVL46
 5855 0261 0100     		.2byte	0x1
 5856 0263 50       		.byte	0x50
 5857 0264 00000000 		.4byte	0
 5858 0268 00000000 		.4byte	0
 5859              	.LLST14:
 5860 026c 00000000 		.4byte	.LVL48
 5861 0270 12000000 		.4byte	.LVL49
 5862 0274 0100     		.2byte	0x1
 5863 0276 50       		.byte	0x50
ARM GAS  C:\Users\Phuong\AppData\Local\Temp\ccVcCKxe.s 			page 125


 5864 0277 12000000 		.4byte	.LVL49
 5865 027b 24000000 		.4byte	.LVL53
 5866 027f 0100     		.2byte	0x1
 5867 0281 54       		.byte	0x54
 5868 0282 24000000 		.4byte	.LVL53
 5869 0286 26000000 		.4byte	.LVL54
 5870 028a 0100     		.2byte	0x1
 5871 028c 50       		.byte	0x50
 5872 028d 26000000 		.4byte	.LVL54
 5873 0291 28000000 		.4byte	.LVL55
 5874 0295 0100     		.2byte	0x1
 5875 0297 54       		.byte	0x54
 5876 0298 28000000 		.4byte	.LVL55
 5877 029c 30000000 		.4byte	.LFE55
 5878 02a0 0400     		.2byte	0x4
 5879 02a2 F3       		.byte	0xf3
 5880 02a3 01       		.uleb128 0x1
 5881 02a4 50       		.byte	0x50
 5882 02a5 9F       		.byte	0x9f
 5883 02a6 00000000 		.4byte	0
 5884 02aa 00000000 		.4byte	0
 5885              	.LLST15:
 5886 02ae 16000000 		.4byte	.LVL50
 5887 02b2 1C000000 		.4byte	.LVL51
 5888 02b6 0100     		.2byte	0x1
 5889 02b8 50       		.byte	0x50
 5890 02b9 00000000 		.4byte	0
 5891 02bd 00000000 		.4byte	0
 5892              	.LLST16:
 5893 02c1 00000000 		.4byte	.LVL56
 5894 02c5 1E000000 		.4byte	.LVL58
 5895 02c9 0100     		.2byte	0x1
 5896 02cb 50       		.byte	0x50
 5897 02cc 1E000000 		.4byte	.LVL58
 5898 02d0 21000000 		.4byte	.LVL59-1
 5899 02d4 0200     		.2byte	0x2
 5900 02d6 71       		.byte	0x71
 5901 02d7 00       		.sleb128 0
 5902 02d8 21000000 		.4byte	.LVL59-1
 5903 02dc 24000000 		.4byte	.LVL60
 5904 02e0 0400     		.2byte	0x4
 5905 02e2 F3       		.byte	0xf3
 5906 02e3 01       		.uleb128 0x1
 5907 02e4 50       		.byte	0x50
 5908 02e5 9F       		.byte	0x9f
 5909 02e6 24000000 		.4byte	.LVL60
 5910 02ea 26000000 		.4byte	.LVL61
 5911 02ee 0100     		.2byte	0x1
 5912 02f0 50       		.byte	0x50
 5913 02f1 26000000 		.4byte	.LVL61
 5914 02f5 2A000000 		.4byte	.LVL62
 5915 02f9 0400     		.2byte	0x4
 5916 02fb F3       		.byte	0xf3
 5917 02fc 01       		.uleb128 0x1
 5918 02fd 50       		.byte	0x50
 5919 02fe 9F       		.byte	0x9f
 5920 02ff 2A000000 		.4byte	.LVL62
ARM GAS  C:\Users\Phuong\AppData\Local\Temp\ccVcCKxe.s 			page 126


 5921 0303 2C000000 		.4byte	.LVL63
 5922 0307 0100     		.2byte	0x1
 5923 0309 50       		.byte	0x50
 5924 030a 2C000000 		.4byte	.LVL63
 5925 030e 30000000 		.4byte	.LVL64
 5926 0312 0400     		.2byte	0x4
 5927 0314 F3       		.byte	0xf3
 5928 0315 01       		.uleb128 0x1
 5929 0316 50       		.byte	0x50
 5930 0317 9F       		.byte	0x9f
 5931 0318 30000000 		.4byte	.LVL64
 5932 031c 32000000 		.4byte	.LVL65
 5933 0320 0100     		.2byte	0x1
 5934 0322 50       		.byte	0x50
 5935 0323 32000000 		.4byte	.LVL65
 5936 0327 3C000000 		.4byte	.LFE56
 5937 032b 0400     		.2byte	0x4
 5938 032d F3       		.byte	0xf3
 5939 032e 01       		.uleb128 0x1
 5940 032f 50       		.byte	0x50
 5941 0330 9F       		.byte	0x9f
 5942 0331 00000000 		.4byte	0
 5943 0335 00000000 		.4byte	0
 5944              	.LLST17:
 5945 0339 00000000 		.4byte	.LVL56
 5946 033d 1C000000 		.4byte	.LVL57
 5947 0341 0100     		.2byte	0x1
 5948 0343 51       		.byte	0x51
 5949 0344 1C000000 		.4byte	.LVL57
 5950 0348 21000000 		.4byte	.LVL59-1
 5951 034c 0200     		.2byte	0x2
 5952 034e 91       		.byte	0x91
 5953 034f 6C       		.sleb128 -20
 5954 0350 21000000 		.4byte	.LVL59-1
 5955 0354 24000000 		.4byte	.LVL60
 5956 0358 0400     		.2byte	0x4
 5957 035a F3       		.byte	0xf3
 5958 035b 01       		.uleb128 0x1
 5959 035c 51       		.byte	0x51
 5960 035d 9F       		.byte	0x9f
 5961 035e 24000000 		.4byte	.LVL60
 5962 0362 34000000 		.4byte	.LVL66
 5963 0366 0100     		.2byte	0x1
 5964 0368 51       		.byte	0x51
 5965 0369 34000000 		.4byte	.LVL66
 5966 036d 3C000000 		.4byte	.LFE56
 5967 0371 0400     		.2byte	0x4
 5968 0373 F3       		.byte	0xf3
 5969 0374 01       		.uleb128 0x1
 5970 0375 51       		.byte	0x51
 5971 0376 9F       		.byte	0x9f
 5972 0377 00000000 		.4byte	0
 5973 037b 00000000 		.4byte	0
 5974              	.LLST18:
 5975 037f 00000000 		.4byte	.LVL56
 5976 0383 21000000 		.4byte	.LVL59-1
 5977 0387 0100     		.2byte	0x1
ARM GAS  C:\Users\Phuong\AppData\Local\Temp\ccVcCKxe.s 			page 127


 5978 0389 52       		.byte	0x52
 5979 038a 21000000 		.4byte	.LVL59-1
 5980 038e 24000000 		.4byte	.LVL60
 5981 0392 0400     		.2byte	0x4
 5982 0394 F3       		.byte	0xf3
 5983 0395 01       		.uleb128 0x1
 5984 0396 52       		.byte	0x52
 5985 0397 9F       		.byte	0x9f
 5986 0398 24000000 		.4byte	.LVL60
 5987 039c 34000000 		.4byte	.LVL66
 5988 03a0 0100     		.2byte	0x1
 5989 03a2 52       		.byte	0x52
 5990 03a3 34000000 		.4byte	.LVL66
 5991 03a7 3C000000 		.4byte	.LFE56
 5992 03ab 0400     		.2byte	0x4
 5993 03ad F3       		.byte	0xf3
 5994 03ae 01       		.uleb128 0x1
 5995 03af 52       		.byte	0x52
 5996 03b0 9F       		.byte	0x9f
 5997 03b1 00000000 		.4byte	0
 5998 03b5 00000000 		.4byte	0
 5999              	.LLST19:
 6000 03b9 00000000 		.4byte	.LVL56
 6001 03bd 21000000 		.4byte	.LVL59-1
 6002 03c1 0100     		.2byte	0x1
 6003 03c3 53       		.byte	0x53
 6004 03c4 21000000 		.4byte	.LVL59-1
 6005 03c8 24000000 		.4byte	.LVL60
 6006 03cc 0400     		.2byte	0x4
 6007 03ce F3       		.byte	0xf3
 6008 03cf 01       		.uleb128 0x1
 6009 03d0 53       		.byte	0x53
 6010 03d1 9F       		.byte	0x9f
 6011 03d2 24000000 		.4byte	.LVL60
 6012 03d6 34000000 		.4byte	.LVL66
 6013 03da 0100     		.2byte	0x1
 6014 03dc 53       		.byte	0x53
 6015 03dd 34000000 		.4byte	.LVL66
 6016 03e1 3C000000 		.4byte	.LFE56
 6017 03e5 0400     		.2byte	0x4
 6018 03e7 F3       		.byte	0xf3
 6019 03e8 01       		.uleb128 0x1
 6020 03e9 53       		.byte	0x53
 6021 03ea 9F       		.byte	0x9f
 6022 03eb 00000000 		.4byte	0
 6023 03ef 00000000 		.4byte	0
 6024              	.LLST20:
 6025 03f3 22000000 		.4byte	.LVL59
 6026 03f7 24000000 		.4byte	.LVL60
 6027 03fb 0100     		.2byte	0x1
 6028 03fd 50       		.byte	0x50
 6029 03fe 00000000 		.4byte	0
 6030 0402 00000000 		.4byte	0
 6031              	.LLST21:
 6032 0406 00000000 		.4byte	.LVL67
 6033 040a 1A000000 		.4byte	.LVL70
 6034 040e 0100     		.2byte	0x1
ARM GAS  C:\Users\Phuong\AppData\Local\Temp\ccVcCKxe.s 			page 128


 6035 0410 50       		.byte	0x50
 6036 0411 1A000000 		.4byte	.LVL70
 6037 0415 1D000000 		.4byte	.LVL71-1
 6038 0419 0200     		.2byte	0x2
 6039 041b 71       		.byte	0x71
 6040 041c 00       		.sleb128 0
 6041 041d 1D000000 		.4byte	.LVL71-1
 6042 0421 20000000 		.4byte	.LVL72
 6043 0425 0400     		.2byte	0x4
 6044 0427 F3       		.byte	0xf3
 6045 0428 01       		.uleb128 0x1
 6046 0429 50       		.byte	0x50
 6047 042a 9F       		.byte	0x9f
 6048 042b 20000000 		.4byte	.LVL72
 6049 042f 22000000 		.4byte	.LVL73
 6050 0433 0100     		.2byte	0x1
 6051 0435 50       		.byte	0x50
 6052 0436 22000000 		.4byte	.LVL73
 6053 043a 30000000 		.4byte	.LFE57
 6054 043e 0400     		.2byte	0x4
 6055 0440 F3       		.byte	0xf3
 6056 0441 01       		.uleb128 0x1
 6057 0442 50       		.byte	0x50
 6058 0443 9F       		.byte	0x9f
 6059 0444 00000000 		.4byte	0
 6060 0448 00000000 		.4byte	0
 6061              	.LLST22:
 6062 044c 00000000 		.4byte	.LVL67
 6063 0450 0E000000 		.4byte	.LVL68
 6064 0454 0100     		.2byte	0x1
 6065 0456 51       		.byte	0x51
 6066 0457 0E000000 		.4byte	.LVL68
 6067 045b 18000000 		.4byte	.LVL69
 6068 045f 0100     		.2byte	0x1
 6069 0461 51       		.byte	0x51
 6070 0462 18000000 		.4byte	.LVL69
 6071 0466 1D000000 		.4byte	.LVL71-1
 6072 046a 0200     		.2byte	0x2
 6073 046c 91       		.byte	0x91
 6074 046d 6C       		.sleb128 -20
 6075 046e 20000000 		.4byte	.LVL72
 6076 0472 24000000 		.4byte	.LVL74
 6077 0476 0100     		.2byte	0x1
 6078 0478 51       		.byte	0x51
 6079 0479 00000000 		.4byte	0
 6080 047d 00000000 		.4byte	0
 6081              	.LLST23:
 6082 0481 00000000 		.4byte	.LVL67
 6083 0485 1D000000 		.4byte	.LVL71-1
 6084 0489 0100     		.2byte	0x1
 6085 048b 52       		.byte	0x52
 6086 048c 1D000000 		.4byte	.LVL71-1
 6087 0490 20000000 		.4byte	.LVL72
 6088 0494 0400     		.2byte	0x4
 6089 0496 F3       		.byte	0xf3
 6090 0497 01       		.uleb128 0x1
 6091 0498 52       		.byte	0x52
ARM GAS  C:\Users\Phuong\AppData\Local\Temp\ccVcCKxe.s 			page 129


 6092 0499 9F       		.byte	0x9f
 6093 049a 20000000 		.4byte	.LVL72
 6094 049e 24000000 		.4byte	.LVL74
 6095 04a2 0100     		.2byte	0x1
 6096 04a4 52       		.byte	0x52
 6097 04a5 24000000 		.4byte	.LVL74
 6098 04a9 30000000 		.4byte	.LFE57
 6099 04ad 0400     		.2byte	0x4
 6100 04af F3       		.byte	0xf3
 6101 04b0 01       		.uleb128 0x1
 6102 04b1 52       		.byte	0x52
 6103 04b2 9F       		.byte	0x9f
 6104 04b3 00000000 		.4byte	0
 6105 04b7 00000000 		.4byte	0
 6106              	.LLST24:
 6107 04bb 1E000000 		.4byte	.LVL71
 6108 04bf 20000000 		.4byte	.LVL72
 6109 04c3 0100     		.2byte	0x1
 6110 04c5 50       		.byte	0x50
 6111 04c6 00000000 		.4byte	0
 6112 04ca 00000000 		.4byte	0
 6113              	.LLST25:
 6114 04ce 00000000 		.4byte	.LVL75
 6115 04d2 1A000000 		.4byte	.LVL78
 6116 04d6 0100     		.2byte	0x1
 6117 04d8 50       		.byte	0x50
 6118 04d9 1A000000 		.4byte	.LVL78
 6119 04dd 1D000000 		.4byte	.LVL79-1
 6120 04e1 0200     		.2byte	0x2
 6121 04e3 71       		.byte	0x71
 6122 04e4 00       		.sleb128 0
 6123 04e5 1D000000 		.4byte	.LVL79-1
 6124 04e9 20000000 		.4byte	.LVL80
 6125 04ed 0400     		.2byte	0x4
 6126 04ef F3       		.byte	0xf3
 6127 04f0 01       		.uleb128 0x1
 6128 04f1 50       		.byte	0x50
 6129 04f2 9F       		.byte	0x9f
 6130 04f3 20000000 		.4byte	.LVL80
 6131 04f7 22000000 		.4byte	.LVL81
 6132 04fb 0100     		.2byte	0x1
 6133 04fd 50       		.byte	0x50
 6134 04fe 22000000 		.4byte	.LVL81
 6135 0502 30000000 		.4byte	.LFE58
 6136 0506 0400     		.2byte	0x4
 6137 0508 F3       		.byte	0xf3
 6138 0509 01       		.uleb128 0x1
 6139 050a 50       		.byte	0x50
 6140 050b 9F       		.byte	0x9f
 6141 050c 00000000 		.4byte	0
 6142 0510 00000000 		.4byte	0
 6143              	.LLST26:
 6144 0514 00000000 		.4byte	.LVL75
 6145 0518 0E000000 		.4byte	.LVL76
 6146 051c 0100     		.2byte	0x1
 6147 051e 51       		.byte	0x51
 6148 051f 0E000000 		.4byte	.LVL76
ARM GAS  C:\Users\Phuong\AppData\Local\Temp\ccVcCKxe.s 			page 130


 6149 0523 18000000 		.4byte	.LVL77
 6150 0527 0100     		.2byte	0x1
 6151 0529 51       		.byte	0x51
 6152 052a 18000000 		.4byte	.LVL77
 6153 052e 1D000000 		.4byte	.LVL79-1
 6154 0532 0200     		.2byte	0x2
 6155 0534 91       		.byte	0x91
 6156 0535 6C       		.sleb128 -20
 6157 0536 20000000 		.4byte	.LVL80
 6158 053a 24000000 		.4byte	.LVL82
 6159 053e 0100     		.2byte	0x1
 6160 0540 51       		.byte	0x51
 6161 0541 00000000 		.4byte	0
 6162 0545 00000000 		.4byte	0
 6163              	.LLST27:
 6164 0549 00000000 		.4byte	.LVL75
 6165 054d 1D000000 		.4byte	.LVL79-1
 6166 0551 0100     		.2byte	0x1
 6167 0553 52       		.byte	0x52
 6168 0554 1D000000 		.4byte	.LVL79-1
 6169 0558 20000000 		.4byte	.LVL80
 6170 055c 0400     		.2byte	0x4
 6171 055e F3       		.byte	0xf3
 6172 055f 01       		.uleb128 0x1
 6173 0560 52       		.byte	0x52
 6174 0561 9F       		.byte	0x9f
 6175 0562 20000000 		.4byte	.LVL80
 6176 0566 24000000 		.4byte	.LVL82
 6177 056a 0100     		.2byte	0x1
 6178 056c 52       		.byte	0x52
 6179 056d 24000000 		.4byte	.LVL82
 6180 0571 30000000 		.4byte	.LFE58
 6181 0575 0400     		.2byte	0x4
 6182 0577 F3       		.byte	0xf3
 6183 0578 01       		.uleb128 0x1
 6184 0579 52       		.byte	0x52
 6185 057a 9F       		.byte	0x9f
 6186 057b 00000000 		.4byte	0
 6187 057f 00000000 		.4byte	0
 6188              	.LLST28:
 6189 0583 1E000000 		.4byte	.LVL79
 6190 0587 20000000 		.4byte	.LVL80
 6191 058b 0100     		.2byte	0x1
 6192 058d 50       		.byte	0x50
 6193 058e 00000000 		.4byte	0
 6194 0592 00000000 		.4byte	0
 6195              	.LLST29:
 6196 0596 00000000 		.4byte	.LVL83
 6197 059a 0E000000 		.4byte	.LVL84
 6198 059e 0100     		.2byte	0x1
 6199 05a0 50       		.byte	0x50
 6200 05a1 0E000000 		.4byte	.LVL84
 6201 05a5 11000000 		.4byte	.LVL85-1
 6202 05a9 0200     		.2byte	0x2
 6203 05ab 71       		.byte	0x71
 6204 05ac 00       		.sleb128 0
 6205 05ad 11000000 		.4byte	.LVL85-1
ARM GAS  C:\Users\Phuong\AppData\Local\Temp\ccVcCKxe.s 			page 131


 6206 05b1 14000000 		.4byte	.LVL86
 6207 05b5 0400     		.2byte	0x4
 6208 05b7 F3       		.byte	0xf3
 6209 05b8 01       		.uleb128 0x1
 6210 05b9 50       		.byte	0x50
 6211 05ba 9F       		.byte	0x9f
 6212 05bb 14000000 		.4byte	.LVL86
 6213 05bf 16000000 		.4byte	.LVL87
 6214 05c3 0100     		.2byte	0x1
 6215 05c5 50       		.byte	0x50
 6216 05c6 16000000 		.4byte	.LVL87
 6217 05ca 20000000 		.4byte	.LFE59
 6218 05ce 0400     		.2byte	0x4
 6219 05d0 F3       		.byte	0xf3
 6220 05d1 01       		.uleb128 0x1
 6221 05d2 50       		.byte	0x50
 6222 05d3 9F       		.byte	0x9f
 6223 05d4 00000000 		.4byte	0
 6224 05d8 00000000 		.4byte	0
 6225              	.LLST30:
 6226 05dc 12000000 		.4byte	.LVL85
 6227 05e0 14000000 		.4byte	.LVL86
 6228 05e4 0100     		.2byte	0x1
 6229 05e6 50       		.byte	0x50
 6230 05e7 00000000 		.4byte	0
 6231 05eb 00000000 		.4byte	0
 6232              	.LLST31:
 6233 05ef 00000000 		.4byte	.LVL88
 6234 05f3 12000000 		.4byte	.LVL90
 6235 05f7 0100     		.2byte	0x1
 6236 05f9 50       		.byte	0x50
 6237 05fa 12000000 		.4byte	.LVL90
 6238 05fe 15000000 		.4byte	.LVL91-1
 6239 0602 0200     		.2byte	0x2
 6240 0604 71       		.byte	0x71
 6241 0605 00       		.sleb128 0
 6242 0606 15000000 		.4byte	.LVL91-1
 6243 060a 18000000 		.4byte	.LVL92
 6244 060e 0400     		.2byte	0x4
 6245 0610 F3       		.byte	0xf3
 6246 0611 01       		.uleb128 0x1
 6247 0612 50       		.byte	0x50
 6248 0613 9F       		.byte	0x9f
 6249 0614 18000000 		.4byte	.LVL92
 6250 0618 1A000000 		.4byte	.LVL93
 6251 061c 0100     		.2byte	0x1
 6252 061e 50       		.byte	0x50
 6253 061f 1A000000 		.4byte	.LVL93
 6254 0623 24000000 		.4byte	.LFE60
 6255 0627 0400     		.2byte	0x4
 6256 0629 F3       		.byte	0xf3
 6257 062a 01       		.uleb128 0x1
 6258 062b 50       		.byte	0x50
 6259 062c 9F       		.byte	0x9f
 6260 062d 00000000 		.4byte	0
 6261 0631 00000000 		.4byte	0
 6262              	.LLST32:
ARM GAS  C:\Users\Phuong\AppData\Local\Temp\ccVcCKxe.s 			page 132


 6263 0635 00000000 		.4byte	.LVL88
 6264 0639 10000000 		.4byte	.LVL89
 6265 063d 0100     		.2byte	0x1
 6266 063f 51       		.byte	0x51
 6267 0640 10000000 		.4byte	.LVL89
 6268 0644 15000000 		.4byte	.LVL91-1
 6269 0648 0200     		.2byte	0x2
 6270 064a 71       		.byte	0x71
 6271 064b 08       		.sleb128 8
 6272 064c 15000000 		.4byte	.LVL91-1
 6273 0650 18000000 		.4byte	.LVL92
 6274 0654 0400     		.2byte	0x4
 6275 0656 F3       		.byte	0xf3
 6276 0657 01       		.uleb128 0x1
 6277 0658 51       		.byte	0x51
 6278 0659 9F       		.byte	0x9f
 6279 065a 18000000 		.4byte	.LVL92
 6280 065e 1C000000 		.4byte	.LVL94
 6281 0662 0100     		.2byte	0x1
 6282 0664 51       		.byte	0x51
 6283 0665 1C000000 		.4byte	.LVL94
 6284 0669 24000000 		.4byte	.LFE60
 6285 066d 0400     		.2byte	0x4
 6286 066f F3       		.byte	0xf3
 6287 0670 01       		.uleb128 0x1
 6288 0671 51       		.byte	0x51
 6289 0672 9F       		.byte	0x9f
 6290 0673 00000000 		.4byte	0
 6291 0677 00000000 		.4byte	0
 6292              	.LLST33:
 6293 067b 16000000 		.4byte	.LVL91
 6294 067f 18000000 		.4byte	.LVL92
 6295 0683 0100     		.2byte	0x1
 6296 0685 50       		.byte	0x50
 6297 0686 00000000 		.4byte	0
 6298 068a 00000000 		.4byte	0
 6299              	.LLST34:
 6300 068e 00000000 		.4byte	.LVL95
 6301 0692 14000000 		.4byte	.LVL96
 6302 0696 0100     		.2byte	0x1
 6303 0698 50       		.byte	0x50
 6304 0699 14000000 		.4byte	.LVL96
 6305 069d 82000000 		.4byte	.LVL104
 6306 06a1 0100     		.2byte	0x1
 6307 06a3 54       		.byte	0x54
 6308 06a4 82000000 		.4byte	.LVL104
 6309 06a8 84000000 		.4byte	.LVL105
 6310 06ac 0100     		.2byte	0x1
 6311 06ae 50       		.byte	0x50
 6312 06af 84000000 		.4byte	.LVL105
 6313 06b3 88000000 		.4byte	.LVL106
 6314 06b7 0100     		.2byte	0x1
 6315 06b9 54       		.byte	0x54
 6316 06ba 88000000 		.4byte	.LVL106
 6317 06be 8A000000 		.4byte	.LVL107
 6318 06c2 0100     		.2byte	0x1
 6319 06c4 50       		.byte	0x50
ARM GAS  C:\Users\Phuong\AppData\Local\Temp\ccVcCKxe.s 			page 133


 6320 06c5 8A000000 		.4byte	.LVL107
 6321 06c9 A6000000 		.4byte	.LVL111
 6322 06cd 0100     		.2byte	0x1
 6323 06cf 54       		.byte	0x54
 6324 06d0 A6000000 		.4byte	.LVL111
 6325 06d4 B0000000 		.4byte	.LFE61
 6326 06d8 0400     		.2byte	0x4
 6327 06da F3       		.byte	0xf3
 6328 06db 01       		.uleb128 0x1
 6329 06dc 50       		.byte	0x50
 6330 06dd 9F       		.byte	0x9f
 6331 06de 00000000 		.4byte	0
 6332 06e2 00000000 		.4byte	0
 6333              	.LLST35:
 6334 06e6 00000000 		.4byte	.LVL95
 6335 06ea 25000000 		.4byte	.LVL97-1
 6336 06ee 0100     		.2byte	0x1
 6337 06f0 51       		.byte	0x51
 6338 06f1 25000000 		.4byte	.LVL97-1
 6339 06f5 82000000 		.4byte	.LVL104
 6340 06f9 0100     		.2byte	0x1
 6341 06fb 55       		.byte	0x55
 6342 06fc 82000000 		.4byte	.LVL104
 6343 0700 8E000000 		.4byte	.LVL108
 6344 0704 0100     		.2byte	0x1
 6345 0706 51       		.byte	0x51
 6346 0707 8E000000 		.4byte	.LVL108
 6347 070b A6000000 		.4byte	.LVL112
 6348 070f 0100     		.2byte	0x1
 6349 0711 55       		.byte	0x55
 6350 0712 A6000000 		.4byte	.LVL112
 6351 0716 B0000000 		.4byte	.LFE61
 6352 071a 0400     		.2byte	0x4
 6353 071c F3       		.byte	0xf3
 6354 071d 01       		.uleb128 0x1
 6355 071e 51       		.byte	0x51
 6356 071f 9F       		.byte	0x9f
 6357 0720 00000000 		.4byte	0
 6358 0724 00000000 		.4byte	0
 6359              	.LLST36:
 6360 0728 3A000000 		.4byte	.LVL99
 6361 072c 82000000 		.4byte	.LVL104
 6362 0730 0100     		.2byte	0x1
 6363 0732 56       		.byte	0x56
 6364 0733 9A000000 		.4byte	.LVL109
 6365 0737 A4000000 		.4byte	.LVL110
 6366 073b 0100     		.2byte	0x1
 6367 073d 56       		.byte	0x56
 6368 073e 00000000 		.4byte	0
 6369 0742 00000000 		.4byte	0
 6370              	.LLST37:
 6371 0746 5C000000 		.4byte	.LVL101
 6372 074a 6B000000 		.4byte	.LVL102-1
 6373 074e 0100     		.2byte	0x1
 6374 0750 50       		.byte	0x50
 6375 0751 00000000 		.4byte	0
 6376 0755 00000000 		.4byte	0
ARM GAS  C:\Users\Phuong\AppData\Local\Temp\ccVcCKxe.s 			page 134


 6377              	.LLST38:
 6378 0759 00000000 		.4byte	.LVL113
 6379 075d 13000000 		.4byte	.LVL114-1
 6380 0761 0100     		.2byte	0x1
 6381 0763 50       		.byte	0x50
 6382 0764 13000000 		.4byte	.LVL114-1
 6383 0768 16000000 		.4byte	.LVL115
 6384 076c 0400     		.2byte	0x4
 6385 076e F3       		.byte	0xf3
 6386 076f 01       		.uleb128 0x1
 6387 0770 50       		.byte	0x50
 6388 0771 9F       		.byte	0x9f
 6389 0772 16000000 		.4byte	.LVL115
 6390 0776 18000000 		.4byte	.LVL116
 6391 077a 0100     		.2byte	0x1
 6392 077c 50       		.byte	0x50
 6393 077d 18000000 		.4byte	.LVL116
 6394 0781 1C000000 		.4byte	.LVL117
 6395 0785 0400     		.2byte	0x4
 6396 0787 F3       		.byte	0xf3
 6397 0788 01       		.uleb128 0x1
 6398 0789 50       		.byte	0x50
 6399 078a 9F       		.byte	0x9f
 6400 078b 1C000000 		.4byte	.LVL117
 6401 078f 1E000000 		.4byte	.LVL118
 6402 0793 0100     		.2byte	0x1
 6403 0795 50       		.byte	0x50
 6404 0796 1E000000 		.4byte	.LVL118
 6405 079a 22000000 		.4byte	.LFE63
 6406 079e 0400     		.2byte	0x4
 6407 07a0 F3       		.byte	0xf3
 6408 07a1 01       		.uleb128 0x1
 6409 07a2 50       		.byte	0x50
 6410 07a3 9F       		.byte	0x9f
 6411 07a4 00000000 		.4byte	0
 6412 07a8 00000000 		.4byte	0
 6413              	.LLST39:
 6414 07ac 00000000 		.4byte	.LVL113
 6415 07b0 13000000 		.4byte	.LVL114-1
 6416 07b4 0100     		.2byte	0x1
 6417 07b6 51       		.byte	0x51
 6418 07b7 13000000 		.4byte	.LVL114-1
 6419 07bb 16000000 		.4byte	.LVL115
 6420 07bf 0400     		.2byte	0x4
 6421 07c1 F3       		.byte	0xf3
 6422 07c2 01       		.uleb128 0x1
 6423 07c3 51       		.byte	0x51
 6424 07c4 9F       		.byte	0x9f
 6425 07c5 16000000 		.4byte	.LVL115
 6426 07c9 20000000 		.4byte	.LVL119
 6427 07cd 0100     		.2byte	0x1
 6428 07cf 51       		.byte	0x51
 6429 07d0 20000000 		.4byte	.LVL119
 6430 07d4 22000000 		.4byte	.LFE63
 6431 07d8 0400     		.2byte	0x4
 6432 07da F3       		.byte	0xf3
 6433 07db 01       		.uleb128 0x1
ARM GAS  C:\Users\Phuong\AppData\Local\Temp\ccVcCKxe.s 			page 135


 6434 07dc 51       		.byte	0x51
 6435 07dd 9F       		.byte	0x9f
 6436 07de 00000000 		.4byte	0
 6437 07e2 00000000 		.4byte	0
 6438              	.LLST40:
 6439 07e6 00000000 		.4byte	.LVL120
 6440 07ea 28000000 		.4byte	.LVL123
 6441 07ee 0100     		.2byte	0x1
 6442 07f0 50       		.byte	0x50
 6443 07f1 28000000 		.4byte	.LVL123
 6444 07f5 3A000000 		.4byte	.LVL128
 6445 07f9 0100     		.2byte	0x1
 6446 07fb 54       		.byte	0x54
 6447 07fc 3A000000 		.4byte	.LVL128
 6448 0800 5C000000 		.4byte	.LVL133
 6449 0804 0400     		.2byte	0x4
 6450 0806 F3       		.byte	0xf3
 6451 0807 01       		.uleb128 0x1
 6452 0808 50       		.byte	0x50
 6453 0809 9F       		.byte	0x9f
 6454 080a 5C000000 		.4byte	.LVL133
 6455 080e 62000000 		.4byte	.LVL135
 6456 0812 0100     		.2byte	0x1
 6457 0814 54       		.byte	0x54
 6458 0815 62000000 		.4byte	.LVL135
 6459 0819 65000000 		.4byte	.LVL136-1
 6460 081d 0100     		.2byte	0x1
 6461 081f 50       		.byte	0x50
 6462 0820 65000000 		.4byte	.LVL136-1
 6463 0824 68000000 		.4byte	.LVL137
 6464 0828 0100     		.2byte	0x1
 6465 082a 54       		.byte	0x54
 6466 082b 68000000 		.4byte	.LVL137
 6467 082f 6A000000 		.4byte	.LVL138
 6468 0833 0100     		.2byte	0x1
 6469 0835 50       		.byte	0x50
 6470 0836 6A000000 		.4byte	.LVL138
 6471 083a 6E000000 		.4byte	.LVL139
 6472 083e 0100     		.2byte	0x1
 6473 0840 54       		.byte	0x54
 6474 0841 6E000000 		.4byte	.LVL139
 6475 0845 70000000 		.4byte	.LVL140
 6476 0849 0100     		.2byte	0x1
 6477 084b 50       		.byte	0x50
 6478 084c 70000000 		.4byte	.LVL140
 6479 0850 72000000 		.4byte	.LVL141
 6480 0854 0100     		.2byte	0x1
 6481 0856 54       		.byte	0x54
 6482 0857 72000000 		.4byte	.LVL141
 6483 085b 7C000000 		.4byte	.LFE64
 6484 085f 0400     		.2byte	0x4
 6485 0861 F3       		.byte	0xf3
 6486 0862 01       		.uleb128 0x1
 6487 0863 50       		.byte	0x50
 6488 0864 9F       		.byte	0x9f
 6489 0865 00000000 		.4byte	0
 6490 0869 00000000 		.4byte	0
ARM GAS  C:\Users\Phuong\AppData\Local\Temp\ccVcCKxe.s 			page 136


 6491              	.LLST41:
 6492 086d 00000000 		.4byte	.LVL120
 6493 0871 26000000 		.4byte	.LVL122
 6494 0875 0100     		.2byte	0x1
 6495 0877 51       		.byte	0x51
 6496 0878 26000000 		.4byte	.LVL122
 6497 087c 62000000 		.4byte	.LVL135
 6498 0880 0100     		.2byte	0x1
 6499 0882 55       		.byte	0x55
 6500 0883 62000000 		.4byte	.LVL135
 6501 0887 65000000 		.4byte	.LVL136-1
 6502 088b 0100     		.2byte	0x1
 6503 088d 51       		.byte	0x51
 6504 088e 65000000 		.4byte	.LVL136-1
 6505 0892 68000000 		.4byte	.LVL137
 6506 0896 0100     		.2byte	0x1
 6507 0898 55       		.byte	0x55
 6508 0899 68000000 		.4byte	.LVL137
 6509 089d 72000000 		.4byte	.LVL141
 6510 08a1 0100     		.2byte	0x1
 6511 08a3 51       		.byte	0x51
 6512 08a4 72000000 		.4byte	.LVL141
 6513 08a8 74000000 		.4byte	.LVL142
 6514 08ac 0100     		.2byte	0x1
 6515 08ae 55       		.byte	0x55
 6516 08af 74000000 		.4byte	.LVL142
 6517 08b3 7C000000 		.4byte	.LFE64
 6518 08b7 0400     		.2byte	0x4
 6519 08b9 F3       		.byte	0xf3
 6520 08ba 01       		.uleb128 0x1
 6521 08bb 51       		.byte	0x51
 6522 08bc 9F       		.byte	0x9f
 6523 08bd 00000000 		.4byte	0
 6524 08c1 00000000 		.4byte	0
 6525              	.LLST42:
 6526 08c5 08000000 		.4byte	.LVL121
 6527 08c9 2E000000 		.4byte	.LVL125
 6528 08cd 0200     		.2byte	0x2
 6529 08cf 30       		.byte	0x30
 6530 08d0 9F       		.byte	0x9f
 6531 08d1 2E000000 		.4byte	.LVL125
 6532 08d5 34000000 		.4byte	.LVL126
 6533 08d9 0100     		.2byte	0x1
 6534 08db 50       		.byte	0x50
 6535 08dc 34000000 		.4byte	.LVL126
 6536 08e0 5C000000 		.4byte	.LVL133
 6537 08e4 0100     		.2byte	0x1
 6538 08e6 56       		.byte	0x56
 6539 08e7 5C000000 		.4byte	.LVL133
 6540 08eb 5E000000 		.4byte	.LVL134
 6541 08ef 0100     		.2byte	0x1
 6542 08f1 50       		.byte	0x50
 6543 08f2 5E000000 		.4byte	.LVL134
 6544 08f6 62000000 		.4byte	.LVL135
 6545 08fa 0100     		.2byte	0x1
 6546 08fc 56       		.byte	0x56
 6547 08fd 62000000 		.4byte	.LVL135
ARM GAS  C:\Users\Phuong\AppData\Local\Temp\ccVcCKxe.s 			page 137


 6548 0901 72000000 		.4byte	.LVL141
 6549 0905 0200     		.2byte	0x2
 6550 0907 30       		.byte	0x30
 6551 0908 9F       		.byte	0x9f
 6552 0909 00000000 		.4byte	0
 6553 090d 00000000 		.4byte	0
 6554              	.LLST43:
 6555 0911 3A000000 		.4byte	.LVL128
 6556 0915 40000000 		.4byte	.LVL129
 6557 0919 0100     		.2byte	0x1
 6558 091b 50       		.byte	0x50
 6559 091c 48000000 		.4byte	.LVL131
 6560 0920 5A000000 		.4byte	.LVL132
 6561 0924 0100     		.2byte	0x1
 6562 0926 50       		.byte	0x50
 6563 0927 00000000 		.4byte	0
 6564 092b 00000000 		.4byte	0
 6565              	.LLST44:
 6566 092f 00000000 		.4byte	.LVL143
 6567 0933 10000000 		.4byte	.LVL145
 6568 0937 0100     		.2byte	0x1
 6569 0939 50       		.byte	0x50
 6570 093a 10000000 		.4byte	.LVL145
 6571 093e 13000000 		.4byte	.LVL146-1
 6572 0942 0200     		.2byte	0x2
 6573 0944 71       		.byte	0x71
 6574 0945 00       		.sleb128 0
 6575 0946 13000000 		.4byte	.LVL146-1
 6576 094a 16000000 		.4byte	.LVL147
 6577 094e 0400     		.2byte	0x4
 6578 0950 F3       		.byte	0xf3
 6579 0951 01       		.uleb128 0x1
 6580 0952 50       		.byte	0x50
 6581 0953 9F       		.byte	0x9f
 6582 0954 16000000 		.4byte	.LVL147
 6583 0958 18000000 		.4byte	.LVL148
 6584 095c 0100     		.2byte	0x1
 6585 095e 50       		.byte	0x50
 6586 095f 18000000 		.4byte	.LVL148
 6587 0963 24000000 		.4byte	.LFE66
 6588 0967 0400     		.2byte	0x4
 6589 0969 F3       		.byte	0xf3
 6590 096a 01       		.uleb128 0x1
 6591 096b 50       		.byte	0x50
 6592 096c 9F       		.byte	0x9f
 6593 096d 00000000 		.4byte	0
 6594 0971 00000000 		.4byte	0
 6595              	.LLST45:
 6596 0975 00000000 		.4byte	.LVL143
 6597 0979 0E000000 		.4byte	.LVL144
 6598 097d 0100     		.2byte	0x1
 6599 097f 51       		.byte	0x51
 6600 0980 0E000000 		.4byte	.LVL144
 6601 0984 13000000 		.4byte	.LVL146-1
 6602 0988 0200     		.2byte	0x2
 6603 098a 91       		.byte	0x91
 6604 098b 6C       		.sleb128 -20
ARM GAS  C:\Users\Phuong\AppData\Local\Temp\ccVcCKxe.s 			page 138


 6605 098c 13000000 		.4byte	.LVL146-1
 6606 0990 16000000 		.4byte	.LVL147
 6607 0994 0400     		.2byte	0x4
 6608 0996 F3       		.byte	0xf3
 6609 0997 01       		.uleb128 0x1
 6610 0998 51       		.byte	0x51
 6611 0999 9F       		.byte	0x9f
 6612 099a 16000000 		.4byte	.LVL147
 6613 099e 1A000000 		.4byte	.LVL149
 6614 09a2 0100     		.2byte	0x1
 6615 09a4 51       		.byte	0x51
 6616 09a5 1A000000 		.4byte	.LVL149
 6617 09a9 24000000 		.4byte	.LFE66
 6618 09ad 0400     		.2byte	0x4
 6619 09af F3       		.byte	0xf3
 6620 09b0 01       		.uleb128 0x1
 6621 09b1 51       		.byte	0x51
 6622 09b2 9F       		.byte	0x9f
 6623 09b3 00000000 		.4byte	0
 6624 09b7 00000000 		.4byte	0
 6625              	.LLST46:
 6626 09bb 14000000 		.4byte	.LVL146
 6627 09bf 16000000 		.4byte	.LVL147
 6628 09c3 0100     		.2byte	0x1
 6629 09c5 50       		.byte	0x50
 6630 09c6 00000000 		.4byte	0
 6631 09ca 00000000 		.4byte	0
 6632              	.LLST47:
 6633 09ce 00000000 		.4byte	.LVL150
 6634 09d2 17000000 		.4byte	.LVL154-1
 6635 09d6 0100     		.2byte	0x1
 6636 09d8 50       		.byte	0x50
 6637 09d9 17000000 		.4byte	.LVL154-1
 6638 09dd 1A000000 		.4byte	.LVL155
 6639 09e1 0400     		.2byte	0x4
 6640 09e3 F3       		.byte	0xf3
 6641 09e4 01       		.uleb128 0x1
 6642 09e5 50       		.byte	0x50
 6643 09e6 9F       		.byte	0x9f
 6644 09e7 1A000000 		.4byte	.LVL155
 6645 09eb 1C000000 		.4byte	.LVL156
 6646 09ef 0100     		.2byte	0x1
 6647 09f1 50       		.byte	0x50
 6648 09f2 1C000000 		.4byte	.LVL156
 6649 09f6 20000000 		.4byte	.LFE65
 6650 09fa 0400     		.2byte	0x4
 6651 09fc F3       		.byte	0xf3
 6652 09fd 01       		.uleb128 0x1
 6653 09fe 50       		.byte	0x50
 6654 09ff 9F       		.byte	0x9f
 6655 0a00 00000000 		.4byte	0
 6656 0a04 00000000 		.4byte	0
 6657              	.LLST48:
 6658 0a08 00000000 		.4byte	.LVL150
 6659 0a0c 17000000 		.4byte	.LVL154-1
 6660 0a10 0100     		.2byte	0x1
 6661 0a12 51       		.byte	0x51
ARM GAS  C:\Users\Phuong\AppData\Local\Temp\ccVcCKxe.s 			page 139


 6662 0a13 17000000 		.4byte	.LVL154-1
 6663 0a17 1A000000 		.4byte	.LVL155
 6664 0a1b 0400     		.2byte	0x4
 6665 0a1d F3       		.byte	0xf3
 6666 0a1e 01       		.uleb128 0x1
 6667 0a1f 51       		.byte	0x51
 6668 0a20 9F       		.byte	0x9f
 6669 0a21 1A000000 		.4byte	.LVL155
 6670 0a25 1E000000 		.4byte	.LVL157
 6671 0a29 0100     		.2byte	0x1
 6672 0a2b 51       		.byte	0x51
 6673 0a2c 1E000000 		.4byte	.LVL157
 6674 0a30 20000000 		.4byte	.LFE65
 6675 0a34 0400     		.2byte	0x4
 6676 0a36 F3       		.byte	0xf3
 6677 0a37 01       		.uleb128 0x1
 6678 0a38 51       		.byte	0x51
 6679 0a39 9F       		.byte	0x9f
 6680 0a3a 00000000 		.4byte	0
 6681 0a3e 00000000 		.4byte	0
 6682              	.LLST49:
 6683 0a42 00000000 		.4byte	.LVL150
 6684 0a46 0C000000 		.4byte	.LVL151
 6685 0a4a 0100     		.2byte	0x1
 6686 0a4c 52       		.byte	0x52
 6687 0a4d 0C000000 		.4byte	.LVL151
 6688 0a51 0E000000 		.4byte	.LVL152
 6689 0a55 0400     		.2byte	0x4
 6690 0a57 F3       		.byte	0xf3
 6691 0a58 01       		.uleb128 0x1
 6692 0a59 52       		.byte	0x52
 6693 0a5a 9F       		.byte	0x9f
 6694 0a5b 0E000000 		.4byte	.LVL152
 6695 0a5f 10000000 		.4byte	.LVL153
 6696 0a63 0100     		.2byte	0x1
 6697 0a65 52       		.byte	0x52
 6698 0a66 10000000 		.4byte	.LVL153
 6699 0a6a 1A000000 		.4byte	.LVL155
 6700 0a6e 0400     		.2byte	0x4
 6701 0a70 F3       		.byte	0xf3
 6702 0a71 01       		.uleb128 0x1
 6703 0a72 52       		.byte	0x52
 6704 0a73 9F       		.byte	0x9f
 6705 0a74 1A000000 		.4byte	.LVL155
 6706 0a78 1E000000 		.4byte	.LVL157
 6707 0a7c 0100     		.2byte	0x1
 6708 0a7e 52       		.byte	0x52
 6709 0a7f 1E000000 		.4byte	.LVL157
 6710 0a83 20000000 		.4byte	.LFE65
 6711 0a87 0400     		.2byte	0x4
 6712 0a89 F3       		.byte	0xf3
 6713 0a8a 01       		.uleb128 0x1
 6714 0a8b 52       		.byte	0x52
 6715 0a8c 9F       		.byte	0x9f
 6716 0a8d 00000000 		.4byte	0
 6717 0a91 00000000 		.4byte	0
 6718              	.LLST50:
ARM GAS  C:\Users\Phuong\AppData\Local\Temp\ccVcCKxe.s 			page 140


 6719 0a95 00000000 		.4byte	.LVL150
 6720 0a99 17000000 		.4byte	.LVL154-1
 6721 0a9d 0100     		.2byte	0x1
 6722 0a9f 53       		.byte	0x53
 6723 0aa0 17000000 		.4byte	.LVL154-1
 6724 0aa4 1A000000 		.4byte	.LVL155
 6725 0aa8 0400     		.2byte	0x4
 6726 0aaa F3       		.byte	0xf3
 6727 0aab 01       		.uleb128 0x1
 6728 0aac 53       		.byte	0x53
 6729 0aad 9F       		.byte	0x9f
 6730 0aae 1A000000 		.4byte	.LVL155
 6731 0ab2 1E000000 		.4byte	.LVL157
 6732 0ab6 0100     		.2byte	0x1
 6733 0ab8 53       		.byte	0x53
 6734 0ab9 1E000000 		.4byte	.LVL157
 6735 0abd 20000000 		.4byte	.LFE65
 6736 0ac1 0400     		.2byte	0x4
 6737 0ac3 F3       		.byte	0xf3
 6738 0ac4 01       		.uleb128 0x1
 6739 0ac5 53       		.byte	0x53
 6740 0ac6 9F       		.byte	0x9f
 6741 0ac7 00000000 		.4byte	0
 6742 0acb 00000000 		.4byte	0
 6743              	.LLST51:
 6744 0acf 00000000 		.4byte	.LVL158
 6745 0ad3 48000000 		.4byte	.LVL162
 6746 0ad7 0100     		.2byte	0x1
 6747 0ad9 50       		.byte	0x50
 6748 0ada 48000000 		.4byte	.LVL162
 6749 0ade 4B000000 		.4byte	.LVL163-1
 6750 0ae2 0200     		.2byte	0x2
 6751 0ae4 71       		.byte	0x71
 6752 0ae5 00       		.sleb128 0
 6753 0ae6 4B000000 		.4byte	.LVL163-1
 6754 0aea 66000000 		.4byte	.LVL164
 6755 0aee 0400     		.2byte	0x4
 6756 0af0 F3       		.byte	0xf3
 6757 0af1 01       		.uleb128 0x1
 6758 0af2 50       		.byte	0x50
 6759 0af3 9F       		.byte	0x9f
 6760 0af4 66000000 		.4byte	.LVL164
 6761 0af8 68000000 		.4byte	.LVL165
 6762 0afc 0100     		.2byte	0x1
 6763 0afe 50       		.byte	0x50
 6764 0aff 68000000 		.4byte	.LVL165
 6765 0b03 6C000000 		.4byte	.LVL166
 6766 0b07 0400     		.2byte	0x4
 6767 0b09 F3       		.byte	0xf3
 6768 0b0a 01       		.uleb128 0x1
 6769 0b0b 50       		.byte	0x50
 6770 0b0c 9F       		.byte	0x9f
 6771 0b0d 6C000000 		.4byte	.LVL166
 6772 0b11 6E000000 		.4byte	.LVL167
 6773 0b15 0100     		.2byte	0x1
 6774 0b17 50       		.byte	0x50
 6775 0b18 6E000000 		.4byte	.LVL167
ARM GAS  C:\Users\Phuong\AppData\Local\Temp\ccVcCKxe.s 			page 141


 6776 0b1c 72000000 		.4byte	.LVL168
 6777 0b20 0400     		.2byte	0x4
 6778 0b22 F3       		.byte	0xf3
 6779 0b23 01       		.uleb128 0x1
 6780 0b24 50       		.byte	0x50
 6781 0b25 9F       		.byte	0x9f
 6782 0b26 72000000 		.4byte	.LVL168
 6783 0b2a 74000000 		.4byte	.LVL169
 6784 0b2e 0100     		.2byte	0x1
 6785 0b30 50       		.byte	0x50
 6786 0b31 74000000 		.4byte	.LVL169
 6787 0b35 76000000 		.4byte	.LVL170
 6788 0b39 0400     		.2byte	0x4
 6789 0b3b F3       		.byte	0xf3
 6790 0b3c 01       		.uleb128 0x1
 6791 0b3d 50       		.byte	0x50
 6792 0b3e 9F       		.byte	0x9f
 6793 0b3f 76000000 		.4byte	.LVL170
 6794 0b43 78000000 		.4byte	.LVL171
 6795 0b47 0100     		.2byte	0x1
 6796 0b49 50       		.byte	0x50
 6797 0b4a 78000000 		.4byte	.LVL171
 6798 0b4e 84000000 		.4byte	.LFE67
 6799 0b52 0400     		.2byte	0x4
 6800 0b54 F3       		.byte	0xf3
 6801 0b55 01       		.uleb128 0x1
 6802 0b56 50       		.byte	0x50
 6803 0b57 9F       		.byte	0x9f
 6804 0b58 00000000 		.4byte	0
 6805 0b5c 00000000 		.4byte	0
 6806              	.LLST52:
 6807 0b60 00000000 		.4byte	.LVL158
 6808 0b64 10000000 		.4byte	.LVL160
 6809 0b68 0100     		.2byte	0x1
 6810 0b6a 51       		.byte	0x51
 6811 0b6b 10000000 		.4byte	.LVL160
 6812 0b6f 66000000 		.4byte	.LVL164
 6813 0b73 0100     		.2byte	0x1
 6814 0b75 55       		.byte	0x55
 6815 0b76 66000000 		.4byte	.LVL164
 6816 0b7a 6C000000 		.4byte	.LVL166
 6817 0b7e 0100     		.2byte	0x1
 6818 0b80 51       		.byte	0x51
 6819 0b81 6C000000 		.4byte	.LVL166
 6820 0b85 7C000000 		.4byte	.LVL174
 6821 0b89 0100     		.2byte	0x1
 6822 0b8b 55       		.byte	0x55
 6823 0b8c 7C000000 		.4byte	.LVL174
 6824 0b90 84000000 		.4byte	.LFE67
 6825 0b94 0400     		.2byte	0x4
 6826 0b96 F3       		.byte	0xf3
 6827 0b97 01       		.uleb128 0x1
 6828 0b98 51       		.byte	0x51
 6829 0b99 9F       		.byte	0x9f
 6830 0b9a 00000000 		.4byte	0
 6831 0b9e 00000000 		.4byte	0
 6832              	.LLST53:
ARM GAS  C:\Users\Phuong\AppData\Local\Temp\ccVcCKxe.s 			page 142


 6833 0ba2 00000000 		.4byte	.LVL158
 6834 0ba6 0E000000 		.4byte	.LVL159
 6835 0baa 0100     		.2byte	0x1
 6836 0bac 52       		.byte	0x52
 6837 0bad 0E000000 		.4byte	.LVL159
 6838 0bb1 66000000 		.4byte	.LVL164
 6839 0bb5 0100     		.2byte	0x1
 6840 0bb7 54       		.byte	0x54
 6841 0bb8 66000000 		.4byte	.LVL164
 6842 0bbc 6C000000 		.4byte	.LVL166
 6843 0bc0 0100     		.2byte	0x1
 6844 0bc2 52       		.byte	0x52
 6845 0bc3 6C000000 		.4byte	.LVL166
 6846 0bc7 7C000000 		.4byte	.LVL173
 6847 0bcb 0100     		.2byte	0x1
 6848 0bcd 54       		.byte	0x54
 6849 0bce 7C000000 		.4byte	.LVL173
 6850 0bd2 84000000 		.4byte	.LFE67
 6851 0bd6 0400     		.2byte	0x4
 6852 0bd8 F3       		.byte	0xf3
 6853 0bd9 01       		.uleb128 0x1
 6854 0bda 52       		.byte	0x52
 6855 0bdb 9F       		.byte	0x9f
 6856 0bdc 00000000 		.4byte	0
 6857 0be0 00000000 		.4byte	0
 6858              	.LLST54:
 6859 0be4 00000000 		.4byte	.LVL158
 6860 0be8 4B000000 		.4byte	.LVL163-1
 6861 0bec 0100     		.2byte	0x1
 6862 0bee 53       		.byte	0x53
 6863 0bef 4B000000 		.4byte	.LVL163-1
 6864 0bf3 66000000 		.4byte	.LVL164
 6865 0bf7 0400     		.2byte	0x4
 6866 0bf9 F3       		.byte	0xf3
 6867 0bfa 01       		.uleb128 0x1
 6868 0bfb 53       		.byte	0x53
 6869 0bfc 9F       		.byte	0x9f
 6870 0bfd 66000000 		.4byte	.LVL164
 6871 0c01 7A000000 		.4byte	.LVL172
 6872 0c05 0100     		.2byte	0x1
 6873 0c07 53       		.byte	0x53
 6874 0c08 7A000000 		.4byte	.LVL172
 6875 0c0c 84000000 		.4byte	.LFE67
 6876 0c10 0400     		.2byte	0x4
 6877 0c12 F3       		.byte	0xf3
 6878 0c13 01       		.uleb128 0x1
 6879 0c14 53       		.byte	0x53
 6880 0c15 9F       		.byte	0x9f
 6881 0c16 00000000 		.4byte	0
 6882 0c1a 00000000 		.4byte	0
 6883              	.LLST55:
 6884 0c1e 4C000000 		.4byte	.LVL163
 6885 0c22 66000000 		.4byte	.LVL164
 6886 0c26 0100     		.2byte	0x1
 6887 0c28 50       		.byte	0x50
 6888 0c29 00000000 		.4byte	0
 6889 0c2d 00000000 		.4byte	0
ARM GAS  C:\Users\Phuong\AppData\Local\Temp\ccVcCKxe.s 			page 143


 6890              	.LLST56:
 6891 0c31 32000000 		.4byte	.LVL161
 6892 0c35 66000000 		.4byte	.LVL164
 6893 0c39 0100     		.2byte	0x1
 6894 0c3b 56       		.byte	0x56
 6895 0c3c 76000000 		.4byte	.LVL170
 6896 0c40 7A000000 		.4byte	.LVL172
 6897 0c44 0100     		.2byte	0x1
 6898 0c46 56       		.byte	0x56
 6899 0c47 00000000 		.4byte	0
 6900 0c4b 00000000 		.4byte	0
 6901              	.LLST57:
 6902 0c4f 00000000 		.4byte	.LVL175
 6903 0c53 07000000 		.4byte	.LVL176-1
 6904 0c57 0100     		.2byte	0x1
 6905 0c59 50       		.byte	0x50
 6906 0c5a 07000000 		.4byte	.LVL176-1
 6907 0c5e 0A000000 		.4byte	.LFE69
 6908 0c62 0400     		.2byte	0x4
 6909 0c64 F3       		.byte	0xf3
 6910 0c65 01       		.uleb128 0x1
 6911 0c66 50       		.byte	0x50
 6912 0c67 9F       		.byte	0x9f
 6913 0c68 00000000 		.4byte	0
 6914 0c6c 00000000 		.4byte	0
 6915              	.LLST58:
 6916 0c70 00000000 		.4byte	.LVL177
 6917 0c74 17000000 		.4byte	.LVL179-1
 6918 0c78 0100     		.2byte	0x1
 6919 0c7a 50       		.byte	0x50
 6920 0c7b 17000000 		.4byte	.LVL179-1
 6921 0c7f 1A000000 		.4byte	.LFE70
 6922 0c83 0400     		.2byte	0x4
 6923 0c85 F3       		.byte	0xf3
 6924 0c86 01       		.uleb128 0x1
 6925 0c87 50       		.byte	0x50
 6926 0c88 9F       		.byte	0x9f
 6927 0c89 00000000 		.4byte	0
 6928 0c8d 00000000 		.4byte	0
 6929              	.LLST59:
 6930 0c91 00000000 		.4byte	.LVL177
 6931 0c95 06000000 		.4byte	.LVL178
 6932 0c99 0100     		.2byte	0x1
 6933 0c9b 51       		.byte	0x51
 6934 0c9c 06000000 		.4byte	.LVL178
 6935 0ca0 1A000000 		.4byte	.LFE70
 6936 0ca4 0400     		.2byte	0x4
 6937 0ca6 F3       		.byte	0xf3
 6938 0ca7 01       		.uleb128 0x1
 6939 0ca8 51       		.byte	0x51
 6940 0ca9 9F       		.byte	0x9f
 6941 0caa 00000000 		.4byte	0
 6942 0cae 00000000 		.4byte	0
 6943              	.LLST60:
 6944 0cb2 00000000 		.4byte	.LVL177
 6945 0cb6 17000000 		.4byte	.LVL179-1
 6946 0cba 0100     		.2byte	0x1
ARM GAS  C:\Users\Phuong\AppData\Local\Temp\ccVcCKxe.s 			page 144


 6947 0cbc 52       		.byte	0x52
 6948 0cbd 17000000 		.4byte	.LVL179-1
 6949 0cc1 1A000000 		.4byte	.LFE70
 6950 0cc5 0400     		.2byte	0x4
 6951 0cc7 F3       		.byte	0xf3
 6952 0cc8 01       		.uleb128 0x1
 6953 0cc9 52       		.byte	0x52
 6954 0cca 9F       		.byte	0x9f
 6955 0ccb 00000000 		.4byte	0
 6956 0ccf 00000000 		.4byte	0
 6957              	.LLST61:
 6958 0cd3 00000000 		.4byte	.LVL180
 6959 0cd7 22000000 		.4byte	.LVL184
 6960 0cdb 0100     		.2byte	0x1
 6961 0cdd 50       		.byte	0x50
 6962 0cde 22000000 		.4byte	.LVL184
 6963 0ce2 25000000 		.4byte	.LVL185-1
 6964 0ce6 0200     		.2byte	0x2
 6965 0ce8 71       		.byte	0x71
 6966 0ce9 00       		.sleb128 0
 6967 0cea 25000000 		.4byte	.LVL185-1
 6968 0cee 28000000 		.4byte	.LVL186
 6969 0cf2 0400     		.2byte	0x4
 6970 0cf4 F3       		.byte	0xf3
 6971 0cf5 01       		.uleb128 0x1
 6972 0cf6 50       		.byte	0x50
 6973 0cf7 9F       		.byte	0x9f
 6974 0cf8 28000000 		.4byte	.LVL186
 6975 0cfc 2A000000 		.4byte	.LVL187
 6976 0d00 0100     		.2byte	0x1
 6977 0d02 50       		.byte	0x50
 6978 0d03 2A000000 		.4byte	.LVL187
 6979 0d07 38000000 		.4byte	.LFE71
 6980 0d0b 0400     		.2byte	0x4
 6981 0d0d F3       		.byte	0xf3
 6982 0d0e 01       		.uleb128 0x1
 6983 0d0f 50       		.byte	0x50
 6984 0d10 9F       		.byte	0x9f
 6985 0d11 00000000 		.4byte	0
 6986 0d15 00000000 		.4byte	0
 6987              	.LLST62:
 6988 0d19 00000000 		.4byte	.LVL180
 6989 0d1d 0E000000 		.4byte	.LVL181
 6990 0d21 0100     		.2byte	0x1
 6991 0d23 51       		.byte	0x51
 6992 0d24 0E000000 		.4byte	.LVL181
 6993 0d28 20000000 		.4byte	.LVL183
 6994 0d2c 0100     		.2byte	0x1
 6995 0d2e 51       		.byte	0x51
 6996 0d2f 20000000 		.4byte	.LVL183
 6997 0d33 25000000 		.4byte	.LVL185-1
 6998 0d37 0200     		.2byte	0x2
 6999 0d39 91       		.byte	0x91
 7000 0d3a 6C       		.sleb128 -20
 7001 0d3b 28000000 		.4byte	.LVL186
 7002 0d3f 2C000000 		.4byte	.LVL188
 7003 0d43 0100     		.2byte	0x1
ARM GAS  C:\Users\Phuong\AppData\Local\Temp\ccVcCKxe.s 			page 145


 7004 0d45 51       		.byte	0x51
 7005 0d46 00000000 		.4byte	0
 7006 0d4a 00000000 		.4byte	0
 7007              	.LLST63:
 7008 0d4e 00000000 		.4byte	.LVL180
 7009 0d52 14000000 		.4byte	.LVL182
 7010 0d56 0100     		.2byte	0x1
 7011 0d58 52       		.byte	0x52
 7012 0d59 14000000 		.4byte	.LVL182
 7013 0d5d 25000000 		.4byte	.LVL185-1
 7014 0d61 0100     		.2byte	0x1
 7015 0d63 52       		.byte	0x52
 7016 0d64 28000000 		.4byte	.LVL186
 7017 0d68 2C000000 		.4byte	.LVL188
 7018 0d6c 0100     		.2byte	0x1
 7019 0d6e 52       		.byte	0x52
 7020 0d6f 00000000 		.4byte	0
 7021 0d73 00000000 		.4byte	0
 7022              	.LLST64:
 7023 0d77 00000000 		.4byte	.LVL180
 7024 0d7b 25000000 		.4byte	.LVL185-1
 7025 0d7f 0100     		.2byte	0x1
 7026 0d81 53       		.byte	0x53
 7027 0d82 25000000 		.4byte	.LVL185-1
 7028 0d86 28000000 		.4byte	.LVL186
 7029 0d8a 0400     		.2byte	0x4
 7030 0d8c F3       		.byte	0xf3
 7031 0d8d 01       		.uleb128 0x1
 7032 0d8e 53       		.byte	0x53
 7033 0d8f 9F       		.byte	0x9f
 7034 0d90 28000000 		.4byte	.LVL186
 7035 0d94 2C000000 		.4byte	.LVL188
 7036 0d98 0100     		.2byte	0x1
 7037 0d9a 53       		.byte	0x53
 7038 0d9b 2C000000 		.4byte	.LVL188
 7039 0d9f 38000000 		.4byte	.LFE71
 7040 0da3 0400     		.2byte	0x4
 7041 0da5 F3       		.byte	0xf3
 7042 0da6 01       		.uleb128 0x1
 7043 0da7 53       		.byte	0x53
 7044 0da8 9F       		.byte	0x9f
 7045 0da9 00000000 		.4byte	0
 7046 0dad 00000000 		.4byte	0
 7047              	.LLST65:
 7048 0db1 26000000 		.4byte	.LVL185
 7049 0db5 28000000 		.4byte	.LVL186
 7050 0db9 0100     		.2byte	0x1
 7051 0dbb 50       		.byte	0x50
 7052 0dbc 00000000 		.4byte	0
 7053 0dc0 00000000 		.4byte	0
 7054              	.LLST66:
 7055 0dc4 00000000 		.4byte	.LVL189
 7056 0dc8 1E000000 		.4byte	.LVL191
 7057 0dcc 0100     		.2byte	0x1
 7058 0dce 50       		.byte	0x50
 7059 0dcf 1E000000 		.4byte	.LVL191
 7060 0dd3 21000000 		.4byte	.LVL192-1
ARM GAS  C:\Users\Phuong\AppData\Local\Temp\ccVcCKxe.s 			page 146


 7061 0dd7 0200     		.2byte	0x2
 7062 0dd9 91       		.byte	0x91
 7063 0dda 68       		.sleb128 -24
 7064 0ddb 21000000 		.4byte	.LVL192-1
 7065 0ddf 5A000000 		.4byte	.LVL201
 7066 0de3 0400     		.2byte	0x4
 7067 0de5 F3       		.byte	0xf3
 7068 0de6 01       		.uleb128 0x1
 7069 0de7 50       		.byte	0x50
 7070 0de8 9F       		.byte	0x9f
 7071 0de9 5A000000 		.4byte	.LVL201
 7072 0ded 5C000000 		.4byte	.LVL202
 7073 0df1 0100     		.2byte	0x1
 7074 0df3 50       		.byte	0x50
 7075 0df4 5C000000 		.4byte	.LVL202
 7076 0df8 60000000 		.4byte	.LVL203
 7077 0dfc 0400     		.2byte	0x4
 7078 0dfe F3       		.byte	0xf3
 7079 0dff 01       		.uleb128 0x1
 7080 0e00 50       		.byte	0x50
 7081 0e01 9F       		.byte	0x9f
 7082 0e02 60000000 		.4byte	.LVL203
 7083 0e06 62000000 		.4byte	.LVL204
 7084 0e0a 0100     		.2byte	0x1
 7085 0e0c 50       		.byte	0x50
 7086 0e0d 62000000 		.4byte	.LVL204
 7087 0e11 6C000000 		.4byte	.LFE72
 7088 0e15 0400     		.2byte	0x4
 7089 0e17 F3       		.byte	0xf3
 7090 0e18 01       		.uleb128 0x1
 7091 0e19 50       		.byte	0x50
 7092 0e1a 9F       		.byte	0x9f
 7093 0e1b 00000000 		.4byte	0
 7094 0e1f 00000000 		.4byte	0
 7095              	.LLST67:
 7096 0e23 00000000 		.4byte	.LVL189
 7097 0e27 1C000000 		.4byte	.LVL190
 7098 0e2b 0100     		.2byte	0x1
 7099 0e2d 51       		.byte	0x51
 7100 0e2e 1C000000 		.4byte	.LVL190
 7101 0e32 21000000 		.4byte	.LVL192-1
 7102 0e36 0200     		.2byte	0x2
 7103 0e38 91       		.byte	0x91
 7104 0e39 6C       		.sleb128 -20
 7105 0e3a 21000000 		.4byte	.LVL192-1
 7106 0e3e 5A000000 		.4byte	.LVL201
 7107 0e42 0400     		.2byte	0x4
 7108 0e44 F3       		.byte	0xf3
 7109 0e45 01       		.uleb128 0x1
 7110 0e46 51       		.byte	0x51
 7111 0e47 9F       		.byte	0x9f
 7112 0e48 5A000000 		.4byte	.LVL201
 7113 0e4c 64000000 		.4byte	.LVL205
 7114 0e50 0100     		.2byte	0x1
 7115 0e52 51       		.byte	0x51
 7116 0e53 64000000 		.4byte	.LVL205
 7117 0e57 6C000000 		.4byte	.LFE72
ARM GAS  C:\Users\Phuong\AppData\Local\Temp\ccVcCKxe.s 			page 147


 7118 0e5b 0400     		.2byte	0x4
 7119 0e5d F3       		.byte	0xf3
 7120 0e5e 01       		.uleb128 0x1
 7121 0e5f 51       		.byte	0x51
 7122 0e60 9F       		.byte	0x9f
 7123 0e61 00000000 		.4byte	0
 7124 0e65 00000000 		.4byte	0
 7125              	.LLST68:
 7126 0e69 34000000 		.4byte	.LVL194
 7127 0e6d 38000000 		.4byte	.LVL195
 7128 0e71 0100     		.2byte	0x1
 7129 0e73 50       		.byte	0x50
 7130 0e74 40000000 		.4byte	.LVL197
 7131 0e78 48000000 		.4byte	.LVL198
 7132 0e7c 0100     		.2byte	0x1
 7133 0e7e 50       		.byte	0x50
 7134 0e7f 00000000 		.4byte	0
 7135 0e83 00000000 		.4byte	0
 7136              		.section	.debug_aranges,"",%progbits
 7137 0000 B4000000 		.4byte	0xb4
 7138 0004 0200     		.2byte	0x2
 7139 0006 00000000 		.4byte	.Ldebug_info0
 7140 000a 04       		.byte	0x4
 7141 000b 00       		.byte	0
 7142 000c 0000     		.2byte	0
 7143 000e 0000     		.2byte	0
 7144 0010 00000000 		.4byte	.LFB53
 7145 0014 1A000000 		.4byte	.LFE53-.LFB53
 7146 0018 00000000 		.4byte	.LFB68
 7147 001c 28000000 		.4byte	.LFE68-.LFB68
 7148 0020 00000000 		.4byte	.LFB62
 7149 0024 FC000000 		.4byte	.LFE62-.LFB62
 7150 0028 00000000 		.4byte	.LFB54
 7151 002c 60000000 		.4byte	.LFE54-.LFB54
 7152 0030 00000000 		.4byte	.LFB55
 7153 0034 30000000 		.4byte	.LFE55-.LFB55
 7154 0038 00000000 		.4byte	.LFB56
 7155 003c 3C000000 		.4byte	.LFE56-.LFB56
 7156 0040 00000000 		.4byte	.LFB57
 7157 0044 30000000 		.4byte	.LFE57-.LFB57
 7158 0048 00000000 		.4byte	.LFB58
 7159 004c 30000000 		.4byte	.LFE58-.LFB58
 7160 0050 00000000 		.4byte	.LFB59
 7161 0054 20000000 		.4byte	.LFE59-.LFB59
 7162 0058 00000000 		.4byte	.LFB60
 7163 005c 24000000 		.4byte	.LFE60-.LFB60
 7164 0060 00000000 		.4byte	.LFB61
 7165 0064 B0000000 		.4byte	.LFE61-.LFB61
 7166 0068 00000000 		.4byte	.LFB63
 7167 006c 22000000 		.4byte	.LFE63-.LFB63
 7168 0070 00000000 		.4byte	.LFB64
 7169 0074 7C000000 		.4byte	.LFE64-.LFB64
 7170 0078 00000000 		.4byte	.LFB66
 7171 007c 24000000 		.4byte	.LFE66-.LFB66
 7172 0080 00000000 		.4byte	.LFB65
 7173 0084 20000000 		.4byte	.LFE65-.LFB65
 7174 0088 00000000 		.4byte	.LFB67
ARM GAS  C:\Users\Phuong\AppData\Local\Temp\ccVcCKxe.s 			page 148


 7175 008c 84000000 		.4byte	.LFE67-.LFB67
 7176 0090 00000000 		.4byte	.LFB69
 7177 0094 0A000000 		.4byte	.LFE69-.LFB69
 7178 0098 00000000 		.4byte	.LFB70
 7179 009c 1A000000 		.4byte	.LFE70-.LFB70
 7180 00a0 00000000 		.4byte	.LFB71
 7181 00a4 38000000 		.4byte	.LFE71-.LFB71
 7182 00a8 00000000 		.4byte	.LFB72
 7183 00ac 6C000000 		.4byte	.LFE72-.LFB72
 7184 00b0 00000000 		.4byte	0
 7185 00b4 00000000 		.4byte	0
 7186              		.section	.debug_ranges,"",%progbits
 7187              	.Ldebug_ranges0:
 7188 0000 00000000 		.4byte	.LFB53
 7189 0004 1A000000 		.4byte	.LFE53
 7190 0008 00000000 		.4byte	.LFB68
 7191 000c 28000000 		.4byte	.LFE68
 7192 0010 00000000 		.4byte	.LFB62
 7193 0014 FC000000 		.4byte	.LFE62
 7194 0018 00000000 		.4byte	.LFB54
 7195 001c 60000000 		.4byte	.LFE54
 7196 0020 00000000 		.4byte	.LFB55
 7197 0024 30000000 		.4byte	.LFE55
 7198 0028 00000000 		.4byte	.LFB56
 7199 002c 3C000000 		.4byte	.LFE56
 7200 0030 00000000 		.4byte	.LFB57
 7201 0034 30000000 		.4byte	.LFE57
 7202 0038 00000000 		.4byte	.LFB58
 7203 003c 30000000 		.4byte	.LFE58
 7204 0040 00000000 		.4byte	.LFB59
 7205 0044 20000000 		.4byte	.LFE59
 7206 0048 00000000 		.4byte	.LFB60
 7207 004c 24000000 		.4byte	.LFE60
 7208 0050 00000000 		.4byte	.LFB61
 7209 0054 B0000000 		.4byte	.LFE61
 7210 0058 00000000 		.4byte	.LFB63
 7211 005c 22000000 		.4byte	.LFE63
 7212 0060 00000000 		.4byte	.LFB64
 7213 0064 7C000000 		.4byte	.LFE64
 7214 0068 00000000 		.4byte	.LFB66
 7215 006c 24000000 		.4byte	.LFE66
 7216 0070 00000000 		.4byte	.LFB65
 7217 0074 20000000 		.4byte	.LFE65
 7218 0078 00000000 		.4byte	.LFB67
 7219 007c 84000000 		.4byte	.LFE67
 7220 0080 00000000 		.4byte	.LFB69
 7221 0084 0A000000 		.4byte	.LFE69
 7222 0088 00000000 		.4byte	.LFB70
 7223 008c 1A000000 		.4byte	.LFE70
 7224 0090 00000000 		.4byte	.LFB71
 7225 0094 38000000 		.4byte	.LFE71
 7226 0098 00000000 		.4byte	.LFB72
 7227 009c 6C000000 		.4byte	.LFE72
 7228 00a0 00000000 		.4byte	0
 7229 00a4 00000000 		.4byte	0
 7230              		.section	.debug_line,"",%progbits
 7231              	.Ldebug_line0:
ARM GAS  C:\Users\Phuong\AppData\Local\Temp\ccVcCKxe.s 			page 149


 7232 0000 44050000 		.section	.debug_str,"MS",%progbits,1
 7232      02004902 
 7232      00000201 
 7232      FB0E0D00 
 7232      01010101 
 7233              	.LASF231:
 7234 0000 6E657463 		.ascii	"netconn_send\000"
 7234      6F6E6E5F 
 7234      73656E64 
 7234      00
 7235              	.LASF251:
 7236 000d 7379735F 		.ascii	"sys_mbox_free\000"
 7236      6D626F78 
 7236      5F667265 
 7236      6500
 7237              	.LASF138:
 7238 001b 7564705F 		.ascii	"udp_pcb\000"
 7238      70636200 
 7239              	.LASF172:
 7240 0023 706F6C6C 		.ascii	"polls_left\000"
 7240      735F6C65 
 7240      667400
 7241              	.LASF149:
 7242 002e 4D454D50 		.ascii	"MEMP_TCP_PCB_LISTEN\000"
 7242      5F544350 
 7242      5F504342 
 7242      5F4C4953 
 7242      54454E00 
 7243              	.LASF208:
 7244 0042 61636B6E 		.ascii	"ackno\000"
 7244      6F00
 7245              	.LASF11:
 7246 0048 63686172 		.ascii	"char\000"
 7246      00
 7247              	.LASF39:
 7248 004d 4552525F 		.ascii	"ERR_ABRT\000"
 7248      41425254 
 7248      00
 7249              	.LASF145:
 7250 0056 636F6E6E 		.ascii	"conn\000"
 7250      00
 7251              	.LASF235:
 7252 005b 62797465 		.ascii	"bytes_written\000"
 7252      735F7772 
 7252      69747465 
 7252      6E00
 7253              	.LASF211:
 7254 0069 75726770 		.ascii	"urgp\000"
 7254      00
 7255              	.LASF126:
 7256 006e 6C697374 		.ascii	"listener\000"
 7256      656E6572 
 7256      00
 7257              	.LASF98:
 7258 0077 706F6C6C 		.ascii	"polltmr\000"
 7258      746D7200 
 7259              	.LASF179:
ARM GAS  C:\Users\Phuong\AppData\Local\Temp\ccVcCKxe.s 			page 150


 7260 007f 7463705F 		.ascii	"tcp_accept_fn\000"
 7260      61636365 
 7260      70745F66 
 7260      6E00
 7261              	.LASF47:
 7262 008d 666C6167 		.ascii	"flags\000"
 7262      7300
 7263              	.LASF41:
 7264 0093 4552525F 		.ascii	"ERR_CLSD\000"
 7264      434C5344 
 7264      00
 7265              	.LASF34:
 7266 009c 4552525F 		.ascii	"ERR_USE\000"
 7266      55534500 
 7267              	.LASF42:
 7268 00a4 4552525F 		.ascii	"ERR_ARG\000"
 7268      41524700 
 7269              	.LASF254:
 7270 00ac 6E657463 		.ascii	"netconn_free\000"
 7270      6F6E6E5F 
 7270      66726565 
 7270      00
 7271              	.LASF82:
 7272 00b9 72656376 		.ascii	"recvmbox\000"
 7272      6D626F78 
 7272      00
 7273              	.LASF142:
 7274 00c2 7261775F 		.ascii	"raw_pcb\000"
 7274      70636200 
 7275              	.LASF198:
 7276 00ca 54494D45 		.ascii	"TIME_WAIT\000"
 7276      5F574149 
 7276      5400
 7277              	.LASF8:
 7278 00d4 756E7369 		.ascii	"unsigned int\000"
 7278      676E6564 
 7278      20696E74 
 7278      00
 7279              	.LASF184:
 7280 00e1 7463705F 		.ascii	"tcp_connected_fn\000"
 7280      636F6E6E 
 7280      65637465 
 7280      645F666E 
 7280      00
 7281              	.LASF43:
 7282 00f2 6E657874 		.ascii	"next\000"
 7282      00
 7283              	.LASF73:
 7284 00f7 4E455443 		.ascii	"NETCONN_EVT_ERROR\000"
 7284      4F4E4E5F 
 7284      4556545F 
 7284      4552524F 
 7284      5200
 7285              	.LASF59:
 7286 0109 4E455443 		.ascii	"NETCONN_UDPNOCHKSUM\000"
 7286      4F4E4E5F 
 7286      5544504E 
ARM GAS  C:\Users\Phuong\AppData\Local\Temp\ccVcCKxe.s 			page 151


 7286      4F43484B 
 7286      53554D00 
 7287              	.LASF25:
 7288 011d 6572725F 		.ascii	"err_t\000"
 7288      7400
 7289              	.LASF168:
 7290 0123 6C6F6361 		.ascii	"local\000"
 7290      6C00
 7291              	.LASF177:
 7292 0129 646E735F 		.ascii	"dns_api_msg\000"
 7292      6170695F 
 7292      6D736700 
 7293              	.LASF240:
 7294 0135 73687574 		.ascii	"shut_tx\000"
 7294      5F747800 
 7295              	.LASF140:
 7296 013d 6D636173 		.ascii	"mcast_ttl\000"
 7296      745F7474 
 7296      6C00
 7297              	.LASF104:
 7298 0147 7263765F 		.ascii	"rcv_ann_right_edge\000"
 7298      616E6E5F 
 7298      72696768 
 7298      745F6564 
 7298      676500
 7299              	.LASF143:
 7300 015a 70726F74 		.ascii	"protocol\000"
 7300      6F636F6C 
 7300      00
 7301              	.LASF218:
 7302 0163 6E657463 		.ascii	"netconn_delete\000"
 7302      6F6E6E5F 
 7302      64656C65 
 7302      746500
 7303              	.LASF217:
 7304 0172 6E657463 		.ascii	"netconn_new_with_proto_and_callback\000"
 7304      6F6E6E5F 
 7304      6E65775F 
 7304      77697468 
 7304      5F70726F 
 7305              	.LASF225:
 7306 0196 6E65775F 		.ascii	"new_conn\000"
 7306      636F6E6E 
 7306      00
 7307              	.LASF99:
 7308 019f 706F6C6C 		.ascii	"pollinterval\000"
 7308      696E7465 
 7308      7276616C 
 7308      00
 7309              	.LASF137:
 7310 01ac 6B656570 		.ascii	"keep_cnt_sent\000"
 7310      5F636E74 
 7310      5F73656E 
 7310      7400
 7311              	.LASF161:
 7312 01ba 4D454D50 		.ascii	"MEMP_PBUF_POOL\000"
 7312      5F504255 
ARM GAS  C:\Users\Phuong\AppData\Local\Temp\ccVcCKxe.s 			page 152


 7312      465F504F 
 7312      4F4C00
 7313              	.LASF181:
 7314 01c9 7463705F 		.ascii	"tcp_sent_fn\000"
 7314      73656E74 
 7314      5F666E00 
 7315              	.LASF62:
 7316 01d5 6E657463 		.ascii	"netconn_state\000"
 7316      6F6E6E5F 
 7316      73746174 
 7316      6500
 7317              	.LASF134:
 7318 01e3 6B656570 		.ascii	"keep_cnt\000"
 7318      5F636E74 
 7318      00
 7319              	.LASF35:
 7320 01ec 4552525F 		.ascii	"ERR_ALREADY\000"
 7320      414C5245 
 7320      41445900 
 7321              	.LASF207:
 7322 01f8 7365716E 		.ascii	"seqno\000"
 7322      6F00
 7323              	.LASF256:
 7324 01fe 7379735F 		.ascii	"sys_arch_unprotect\000"
 7324      61726368 
 7324      5F756E70 
 7324      726F7465 
 7324      637400
 7325              	.LASF175:
 7326 0211 6A6F696E 		.ascii	"join_or_leave\000"
 7326      5F6F725F 
 7326      6C656176 
 7326      6500
 7327              	.LASF102:
 7328 021f 7263765F 		.ascii	"rcv_wnd\000"
 7328      776E6400 
 7329              	.LASF153:
 7330 0227 4D454D50 		.ascii	"MEMP_NETCONN\000"
 7330      5F4E4554 
 7330      434F4E4E 
 7330      00
 7331              	.LASF241:
 7332 0234 6E657463 		.ascii	"netconn_join_leave_group\000"
 7332      6F6E6E5F 
 7332      6A6F696E 
 7332      5F6C6561 
 7332      76655F67 
 7333              	.LASF111:
 7334 024d 63776E64 		.ascii	"cwnd\000"
 7334      00
 7335              	.LASF157:
 7336 0252 4D454D50 		.ascii	"MEMP_IGMP_GROUP\000"
 7336      5F49474D 
 7336      505F4752 
 7336      4F555000 
 7337              	.LASF154:
 7338 0262 4D454D50 		.ascii	"MEMP_TCPIP_MSG_API\000"
ARM GAS  C:\Users\Phuong\AppData\Local\Temp\ccVcCKxe.s 			page 153


 7338      5F544350 
 7338      49505F4D 
 7338      53475F41 
 7338      504900
 7339              	.LASF96:
 7340 0275 6C6F6361 		.ascii	"local_port\000"
 7340      6C5F706F 
 7340      727400
 7341              	.LASF261:
 7342 0280 474E5520 		.ascii	"GNU C11 5.4.1 20160609 (release) [ARM/embedded-5-br"
 7342      43313120 
 7342      352E342E 
 7342      31203230 
 7342      31363036 
 7343 02b3 616E6368 		.ascii	"anch revision 237715] -mcpu=cortex-m0plus -mthumb -"
 7343      20726576 
 7343      6973696F 
 7343      6E203233 
 7343      37373135 
 7344 02e6 67202D4F 		.ascii	"g -Og -ffunction-sections -ffat-lto-objects\000"
 7344      67202D66 
 7344      66756E63 
 7344      74696F6E 
 7344      2D736563 
 7345              	.LASF156:
 7346 0312 4D454D50 		.ascii	"MEMP_ARP_QUEUE\000"
 7346      5F415250 
 7346      5F515545 
 7346      554500
 7347              	.LASF29:
 7348 0321 4552525F 		.ascii	"ERR_TIMEOUT\000"
 7348      54494D45 
 7348      4F555400 
 7349              	.LASF242:
 7350 032d 6E657463 		.ascii	"netconn_gethostbyname\000"
 7350      6F6E6E5F 
 7350      67657468 
 7350      6F737462 
 7350      796E616D 
 7351              	.LASF244:
 7352 0343 69705F61 		.ascii	"ip_addr_any\000"
 7352      6464725F 
 7352      616E7900 
 7353              	.LASF202:
 7354 034f 7463705F 		.ascii	"tcp_seg\000"
 7354      73656700 
 7355              	.LASF7:
 7356 0357 6C6F6E67 		.ascii	"long long unsigned int\000"
 7356      206C6F6E 
 7356      6720756E 
 7356      7369676E 
 7356      65642069 
 7357              	.LASF55:
 7358 036e 4E455443 		.ascii	"NETCONN_INVALID\000"
 7358      4F4E4E5F 
 7358      494E5641 
 7358      4C494400 
ARM GAS  C:\Users\Phuong\AppData\Local\Temp\ccVcCKxe.s 			page 154


 7359              	.LASF51:
 7360 037e 6970345F 		.ascii	"ip4_addr_t\000"
 7360      61646472 
 7360      5F7400
 7361              	.LASF187:
 7362 0389 7463705F 		.ascii	"tcp_state\000"
 7362      73746174 
 7362      6500
 7363              	.LASF226:
 7364 0393 61636365 		.ascii	"accept_ptr\000"
 7364      70745F70 
 7364      747200
 7365              	.LASF105:
 7366 039e 7274696D 		.ascii	"rtime\000"
 7366      6500
 7367              	.LASF32:
 7368 03a4 4552525F 		.ascii	"ERR_VAL\000"
 7368      56414C00 
 7369              	.LASF249:
 7370 03ac 7379735F 		.ascii	"sys_sem_valid\000"
 7370      73656D5F 
 7370      76616C69 
 7370      6400
 7371              	.LASF263:
 7372 03ba 433A5C55 		.ascii	"C:\\Users\\Phuong\\Documents\\PSoC Creator\\Dec0820"
 7372      73657273 
 7372      5C506875 
 7372      6F6E675C 
 7372      446F6375 
 7373 03e8 31385C69 		.ascii	"18\\iot-sdk-iot-dev\\PSOC6_FreeRTOS+LwIP+MbedTLS_Az"
 7373      6F742D73 
 7373      646B2D69 
 7373      6F742D64 
 7373      65765C50 
 7374 0419 7572652D 		.ascii	"ure-IOT-Hub-Demo\\PSOC6_FreeRTOS+LwIP+MbedTLS_Azure"
 7374      494F542D 
 7374      4875622D 
 7374      44656D6F 
 7374      5C50534F 
 7375 044b 2D494F54 		.ascii	"-IOT-Hub-Demo.cydsn\000"
 7375      2D487562 
 7375      2D44656D 
 7375      6F2E6379 
 7375      64736E00 
 7376              	.LASF101:
 7377 045f 7263765F 		.ascii	"rcv_nxt\000"
 7377      6E787400 
 7378              	.LASF155:
 7379 0467 4D454D50 		.ascii	"MEMP_TCPIP_MSG_INPKT\000"
 7379      5F544350 
 7379      49505F4D 
 7379      53475F49 
 7379      4E504B54 
 7380              	.LASF252:
 7381 047c 6D656D70 		.ascii	"memp_free\000"
 7381      5F667265 
 7381      6500
ARM GAS  C:\Users\Phuong\AppData\Local\Temp\ccVcCKxe.s 			page 155


 7382              	.LASF123:
 7383 0486 756E6163 		.ascii	"unacked\000"
 7383      6B656400 
 7384              	.LASF57:
 7385 048e 4E455443 		.ascii	"NETCONN_UDP\000"
 7385      4F4E4E5F 
 7385      55445000 
 7386              	.LASF247:
 7387 049a 7379735F 		.ascii	"sys_mbox_valid\000"
 7387      6D626F78 
 7387      5F76616C 
 7387      696400
 7388              	.LASF197:
 7389 04a9 4C415354 		.ascii	"LAST_ACK\000"
 7389      5F41434B 
 7389      00
 7390              	.LASF201:
 7391 04b2 61636365 		.ascii	"accepts_pending\000"
 7391      7074735F 
 7391      70656E64 
 7391      696E6700 
 7392              	.LASF210:
 7393 04c2 63686B73 		.ascii	"chksum\000"
 7393      756D00
 7394              	.LASF167:
 7395 04c9 69706164 		.ascii	"ipaddr\000"
 7395      647200
 7396              	.LASF14:
 7397 04d0 73697A65 		.ascii	"size_t\000"
 7397      5F7400
 7398              	.LASF44:
 7399 04d7 7061796C 		.ascii	"payload\000"
 7399      6F616400 
 7400              	.LASF129:
 7401 04df 636F6E6E 		.ascii	"connected\000"
 7401      65637465 
 7401      6400
 7402              	.LASF196:
 7403 04e9 434C4F53 		.ascii	"CLOSING\000"
 7403      494E4700 
 7404              	.LASF176:
 7405 04f1 6261636B 		.ascii	"backlog\000"
 7405      6C6F6700 
 7406              	.LASF80:
 7407 04f9 6C617374 		.ascii	"last_err\000"
 7407      5F657272 
 7407      00
 7408              	.LASF110:
 7409 0502 6C617374 		.ascii	"lastack\000"
 7409      61636B00 
 7410              	.LASF162:
 7411 050a 4D454D50 		.ascii	"MEMP_MAX\000"
 7411      5F4D4158 
 7411      00
 7412              	.LASF20:
 7413 0513 73385F74 		.ascii	"s8_t\000"
 7413      00
ARM GAS  C:\Users\Phuong\AppData\Local\Temp\ccVcCKxe.s 			page 156


 7414              	.LASF76:
 7415 0518 4E455443 		.ascii	"NETCONN_LEAVE\000"
 7415      4F4E4E5F 
 7415      4C454156 
 7415      4500
 7416              	.LASF71:
 7417 0526 4E455443 		.ascii	"NETCONN_EVT_SENDPLUS\000"
 7417      4F4E4E5F 
 7417      4556545F 
 7417      53454E44 
 7417      504C5553 
 7418              	.LASF60:
 7419 053b 4E455443 		.ascii	"NETCONN_RAW\000"
 7419      4F4E4E5F 
 7419      52415700 
 7420              	.LASF33:
 7421 0547 4552525F 		.ascii	"ERR_WOULDBLOCK\000"
 7421      574F554C 
 7421      44424C4F 
 7421      434B00
 7422              	.LASF107:
 7423 0556 72747365 		.ascii	"rtseq\000"
 7423      7100
 7424              	.LASF70:
 7425 055c 4E455443 		.ascii	"NETCONN_EVT_RCVMINUS\000"
 7425      4F4E4E5F 
 7425      4556545F 
 7425      5243564D 
 7425      494E5553 
 7426              	.LASF109:
 7427 0571 64757061 		.ascii	"dupacks\000"
 7427      636B7300 
 7428              	.LASF54:
 7429 0579 706F7274 		.ascii	"port\000"
 7429      00
 7430              	.LASF95:
 7431 057e 7072696F 		.ascii	"prio\000"
 7431      00
 7432              	.LASF200:
 7433 0583 61636365 		.ascii	"accept\000"
 7433      707400
 7434              	.LASF160:
 7435 058a 4D454D50 		.ascii	"MEMP_PBUF\000"
 7435      5F504255 
 7435      4600
 7436              	.LASF130:
 7437 0594 706F6C6C 		.ascii	"poll\000"
 7437      00
 7438              	.LASF53:
 7439 0599 6E657462 		.ascii	"netbuf\000"
 7439      756600
 7440              	.LASF24:
 7441 05a0 7379735F 		.ascii	"sys_prot_t\000"
 7441      70726F74 
 7441      5F7400
 7442              	.LASF195:
 7443 05ab 434C4F53 		.ascii	"CLOSE_WAIT\000"
ARM GAS  C:\Users\Phuong\AppData\Local\Temp\ccVcCKxe.s 			page 157


 7443      455F5741 
 7443      495400
 7444              	.LASF15:
 7445 05b6 51756575 		.ascii	"QueueHandle_t\000"
 7445      6548616E 
 7445      646C655F 
 7445      7400
 7446              	.LASF166:
 7447 05c4 70726F74 		.ascii	"proto\000"
 7447      6F00
 7448              	.LASF122:
 7449 05ca 756E7365 		.ascii	"unsent\000"
 7449      6E7400
 7450              	.LASF215:
 7451 05d1 6E657463 		.ascii	"netconn_recv_data\000"
 7451      6F6E6E5F 
 7451      72656376 
 7451      5F646174 
 7451      6100
 7452              	.LASF67:
 7453 05e3 4E455443 		.ascii	"NETCONN_CLOSE\000"
 7453      4F4E4E5F 
 7453      434C4F53 
 7453      4500
 7454              	.LASF127:
 7455 05f1 73656E74 		.ascii	"sent\000"
 7455      00
 7456              	.LASF114:
 7457 05f6 736E645F 		.ascii	"snd_wl1\000"
 7457      776C3100 
 7458              	.LASF115:
 7459 05fe 736E645F 		.ascii	"snd_wl2\000"
 7459      776C3200 
 7460              	.LASF203:
 7461 0606 6F766572 		.ascii	"oversize_left\000"
 7461      73697A65 
 7461      5F6C6566 
 7461      7400
 7462              	.LASF183:
 7463 0614 7463705F 		.ascii	"tcp_err_fn\000"
 7463      6572725F 
 7463      666E00
 7464              	.LASF83:
 7465 061f 61636365 		.ascii	"acceptmbox\000"
 7465      70746D62 
 7465      6F7800
 7466              	.LASF224:
 7467 062a 6E657463 		.ascii	"netconn_accept\000"
 7467      6F6E6E5F 
 7467      61636365 
 7467      707400
 7468              	.LASF116:
 7469 0639 736E645F 		.ascii	"snd_lbb\000"
 7469      6C626200 
 7470              	.LASF144:
 7471 0641 6170695F 		.ascii	"api_msg\000"
 7471      6D736700 
ARM GAS  C:\Users\Phuong\AppData\Local\Temp\ccVcCKxe.s 			page 158


 7472              	.LASF152:
 7473 0649 4D454D50 		.ascii	"MEMP_NETBUF\000"
 7473      5F4E4554 
 7473      42554600 
 7474              	.LASF6:
 7475 0655 6C6F6E67 		.ascii	"long long int\000"
 7475      206C6F6E 
 7475      6720696E 
 7475      7400
 7476              	.LASF248:
 7477 0663 7379735F 		.ascii	"sys_arch_mbox_fetch\000"
 7477      61726368 
 7477      5F6D626F 
 7477      785F6665 
 7477      74636800 
 7478              	.LASF199:
 7479 0677 7463705F 		.ascii	"tcp_pcb_listen\000"
 7479      7063625F 
 7479      6C697374 
 7479      656E00
 7480              	.LASF258:
 7481 0686 7379735F 		.ascii	"sys_sem_new\000"
 7481      73656D5F 
 7481      6E657700 
 7482              	.LASF38:
 7483 0692 4552525F 		.ascii	"ERR_IF\000"
 7483      494600
 7484              	.LASF136:
 7485 0699 70657273 		.ascii	"persist_backoff\000"
 7485      6973745F 
 7485      6261636B 
 7485      6F666600 
 7486              	.LASF148:
 7487 06a9 4D454D50 		.ascii	"MEMP_TCP_PCB\000"
 7487      5F544350 
 7487      5F504342 
 7487      00
 7488              	.LASF19:
 7489 06b6 75385F74 		.ascii	"u8_t\000"
 7489      00
 7490              	.LASF63:
 7491 06bb 4E455443 		.ascii	"NETCONN_NONE\000"
 7491      4F4E4E5F 
 7491      4E4F4E45 
 7491      00
 7492              	.LASF163:
 7493 06c8 7261775F 		.ascii	"raw_recv_fn\000"
 7493      72656376 
 7493      5F666E00 
 7494              	.LASF92:
 7495 06d4 736F5F6F 		.ascii	"so_options\000"
 7495      7074696F 
 7495      6E7300
 7496              	.LASF146:
 7497 06df 4D454D50 		.ascii	"MEMP_RAW_PCB\000"
 7497      5F524157 
 7497      5F504342 
ARM GAS  C:\Users\Phuong\AppData\Local\Temp\ccVcCKxe.s 			page 159


 7497      00
 7498              	.LASF97:
 7499 06ec 72656D6F 		.ascii	"remote_port\000"
 7499      74655F70 
 7499      6F727400 
 7500              	.LASF234:
 7501 06f8 73697A65 		.ascii	"size\000"
 7501      00
 7502              	.LASF219:
 7503 06fd 6E657463 		.ascii	"netconn_getaddr\000"
 7503      6F6E6E5F 
 7503      67657461 
 7503      64647200 
 7504              	.LASF243:
 7505 070d 63626572 		.ascii	"cberr\000"
 7505      7200
 7506              	.LASF103:
 7507 0713 7263765F 		.ascii	"rcv_ann_wnd\000"
 7507      616E6E5F 
 7507      776E6400 
 7508              	.LASF151:
 7509 071f 4D454D50 		.ascii	"MEMP_REASSDATA\000"
 7509      5F524541 
 7509      53534441 
 7509      544100
 7510              	.LASF180:
 7511 072e 7463705F 		.ascii	"tcp_recv_fn\000"
 7511      72656376 
 7511      5F666E00 
 7512              	.LASF169:
 7513 073a 64617461 		.ascii	"dataptr\000"
 7513      70747200 
 7514              	.LASF237:
 7515 0742 6E657463 		.ascii	"netconn_close\000"
 7515      6F6E6E5F 
 7515      636C6F73 
 7515      6500
 7516              	.LASF182:
 7517 0750 7463705F 		.ascii	"tcp_poll_fn\000"
 7517      706F6C6C 
 7517      5F666E00 
 7518              	.LASF139:
 7519 075c 6D756C74 		.ascii	"multicast_ip\000"
 7519      69636173 
 7519      745F6970 
 7519      00
 7520              	.LASF9:
 7521 0769 6C6F6E67 		.ascii	"long double\000"
 7521      20646F75 
 7521      626C6500 
 7522              	.LASF186:
 7523 0775 74637066 		.ascii	"tcpflags_t\000"
 7523      6C616773 
 7523      5F7400
 7524              	.LASF131:
 7525 0780 65727266 		.ascii	"errf\000"
 7525      00
ARM GAS  C:\Users\Phuong\AppData\Local\Temp\ccVcCKxe.s 			page 160


 7526              	.LASF117:
 7527 0785 736E645F 		.ascii	"snd_wnd\000"
 7527      776E6400 
 7528              	.LASF21:
 7529 078d 7531365F 		.ascii	"u16_t\000"
 7529      7400
 7530              	.LASF61:
 7531 0793 6E657463 		.ascii	"netconn_type\000"
 7531      6F6E6E5F 
 7531      74797065 
 7531      00
 7532              	.LASF66:
 7533 07a0 4E455443 		.ascii	"NETCONN_CONNECT\000"
 7533      4F4E4E5F 
 7533      434F4E4E 
 7533      45435400 
 7534              	.LASF1:
 7535 07b0 756E7369 		.ascii	"unsigned char\000"
 7535      676E6564 
 7535      20636861 
 7535      7200
 7536              	.LASF124:
 7537 07be 6F6F7365 		.ascii	"ooseq\000"
 7537      7100
 7538              	.LASF28:
 7539 07c4 4552525F 		.ascii	"ERR_BUF\000"
 7539      42554600 
 7540              	.LASF10:
 7541 07cc 73697A65 		.ascii	"sizetype\000"
 7541      74797065 
 7541      00
 7542              	.LASF188:
 7543 07d5 434C4F53 		.ascii	"CLOSED\000"
 7543      454400
 7544              	.LASF164:
 7545 07dc 7564705F 		.ascii	"udp_recv_fn\000"
 7545      72656376 
 7545      5F666E00 
 7546              	.LASF23:
 7547 07e8 7533325F 		.ascii	"u32_t\000"
 7547      7400
 7548              	.LASF69:
 7549 07ee 4E455443 		.ascii	"NETCONN_EVT_RCVPLUS\000"
 7549      4F4E4E5F 
 7549      4556545F 
 7549      52435650 
 7549      4C555300 
 7550              	.LASF2:
 7551 0802 73686F72 		.ascii	"short int\000"
 7551      7420696E 
 7551      7400
 7552              	.LASF4:
 7553 080c 6C6F6E67 		.ascii	"long int\000"
 7553      20696E74 
 7553      00
 7554              	.LASF212:
 7555 0815 6170696D 		.ascii	"apimsg\000"
ARM GAS  C:\Users\Phuong\AppData\Local\Temp\ccVcCKxe.s 			page 161


 7555      736700
 7556              	.LASF214:
 7557 081c 6E657463 		.ascii	"netconn_close_shutdown\000"
 7557      6F6E6E5F 
 7557      636C6F73 
 7557      655F7368 
 7557      7574646F 
 7558              	.LASF16:
 7559 0833 53656D61 		.ascii	"SemaphoreHandle_t\000"
 7559      70686F72 
 7559      6548616E 
 7559      646C655F 
 7559      7400
 7560              	.LASF165:
 7561 0845 74637069 		.ascii	"tcpip_callback_fn\000"
 7561      705F6361 
 7561      6C6C6261 
 7561      636B5F66 
 7561      6E00
 7562              	.LASF106:
 7563 0857 72747465 		.ascii	"rttest\000"
 7563      737400
 7564              	.LASF87:
 7565 085e 63757272 		.ascii	"current_msg\000"
 7565      656E745F 
 7565      6D736700 
 7566              	.LASF158:
 7567 086a 4D454D50 		.ascii	"MEMP_SYS_TIMEOUT\000"
 7567      5F535953 
 7567      5F54494D 
 7567      454F5554 
 7567      00
 7568              	.LASF100:
 7569 087b 6C617374 		.ascii	"last_timer\000"
 7569      5F74696D 
 7569      657200
 7570              	.LASF147:
 7571 0886 4D454D50 		.ascii	"MEMP_UDP_PCB\000"
 7571      5F554450 
 7571      5F504342 
 7571      00
 7572              	.LASF90:
 7573 0893 6C6F6361 		.ascii	"local_ip\000"
 7573      6C5F6970 
 7573      00
 7574              	.LASF260:
 7575 089c 7379735F 		.ascii	"sys_arch_sem_wait\000"
 7575      61726368 
 7575      5F73656D 
 7575      5F776169 
 7575      7400
 7576              	.LASF253:
 7577 08ae 6E657463 		.ascii	"netconn_alloc\000"
 7577      6F6E6E5F 
 7577      616C6C6F 
 7577      6300
 7578              	.LASF121:
ARM GAS  C:\Users\Phuong\AppData\Local\Temp\ccVcCKxe.s 			page 162


 7579 08bc 756E7365 		.ascii	"unsent_oversize\000"
 7579      6E745F6F 
 7579      76657273 
 7579      697A6500 
 7580              	.LASF190:
 7581 08cc 53594E5F 		.ascii	"SYN_SENT\000"
 7581      53454E54 
 7581      00
 7582              	.LASF17:
 7583 08d5 7379735F 		.ascii	"sys_sem_t\000"
 7583      73656D5F 
 7583      7400
 7584              	.LASF31:
 7585 08df 4552525F 		.ascii	"ERR_INPROGRESS\000"
 7585      494E5052 
 7585      4F475245 
 7585      535300
 7586              	.LASF84:
 7587 08ee 736F636B 		.ascii	"socket\000"
 7587      657400
 7588              	.LASF49:
 7589 08f5 6970345F 		.ascii	"ip4_addr\000"
 7589      61646472 
 7589      00
 7590              	.LASF259:
 7591 08fe 74637069 		.ascii	"tcpip_callback_with_block\000"
 7591      705F6361 
 7591      6C6C6261 
 7591      636B5F77 
 7591      6974685F 
 7592              	.LASF192:
 7593 0918 45535441 		.ascii	"ESTABLISHED\000"
 7593      424C4953 
 7593      48454400 
 7594              	.LASF36:
 7595 0924 4552525F 		.ascii	"ERR_ISCONN\000"
 7595      4953434F 
 7595      4E4E00
 7596              	.LASF257:
 7597 092f 6D656D70 		.ascii	"memp_malloc_fn\000"
 7597      5F6D616C 
 7597      6C6F635F 
 7597      666E00
 7598              	.LASF118:
 7599 093e 736E645F 		.ascii	"snd_wnd_max\000"
 7599      776E645F 
 7599      6D617800 
 7600              	.LASF178:
 7601 094a 6E616D65 		.ascii	"name\000"
 7601      00
 7602              	.LASF236:
 7603 094f 646F6E74 		.ascii	"dontblock\000"
 7603      626C6F63 
 7603      6B00
 7604              	.LASF213:
 7605 0959 6E657463 		.ascii	"netconn_apimsg\000"
 7605      6F6E6E5F 
ARM GAS  C:\Users\Phuong\AppData\Local\Temp\ccVcCKxe.s 			page 163


 7605      6170696D 
 7605      736700
 7606              	.LASF112:
 7607 0968 73737468 		.ascii	"ssthresh\000"
 7607      72657368 
 7607      00
 7608              	.LASF119:
 7609 0971 736E645F 		.ascii	"snd_buf\000"
 7609      62756600 
 7610              	.LASF255:
 7611 0979 7379735F 		.ascii	"sys_arch_protect\000"
 7611      61726368 
 7611      5F70726F 
 7611      74656374 
 7611      00
 7612              	.LASF250:
 7613 098a 7379735F 		.ascii	"sys_sem_free\000"
 7613      73656D5F 
 7613      66726565 
 7613      00
 7614              	.LASF262:
 7615 0997 536F7572 		.ascii	"Source\\LwIP\\src\\api\\api_lib.c\000"
 7615      63655C4C 
 7615      7749505C 
 7615      7372635C 
 7615      6170695C 
 7616              	.LASF141:
 7617 09b5 72656376 		.ascii	"recv_arg\000"
 7617      5F617267 
 7617      00
 7618              	.LASF209:
 7619 09be 5F686472 		.ascii	"_hdrlen_rsvd_flags\000"
 7619      6C656E5F 
 7619      72737664 
 7619      5F666C61 
 7619      677300
 7620              	.LASF220:
 7621 09d1 6E657463 		.ascii	"netconn_bind\000"
 7621      6F6E6E5F 
 7621      62696E64 
 7621      00
 7622              	.LASF18:
 7623 09de 7379735F 		.ascii	"sys_mbox_t\000"
 7623      6D626F78 
 7623      5F7400
 7624              	.LASF5:
 7625 09e9 6C6F6E67 		.ascii	"long unsigned int\000"
 7625      20756E73 
 7625      69676E65 
 7625      6420696E 
 7625      7400
 7626              	.LASF222:
 7627 09fb 6E657463 		.ascii	"netconn_disconnect\000"
 7627      6F6E6E5F 
 7627      64697363 
 7627      6F6E6E65 
 7627      637400
ARM GAS  C:\Users\Phuong\AppData\Local\Temp\ccVcCKxe.s 			page 164


 7628              	.LASF12:
 7629 0a0e 666C6F61 		.ascii	"float\000"
 7629      7400
 7630              	.LASF204:
 7631 0a14 74637068 		.ascii	"tcphdr\000"
 7631      647200
 7632              	.LASF22:
 7633 0a1b 7331365F 		.ascii	"s16_t\000"
 7633      7400
 7634              	.LASF170:
 7635 0a21 61706966 		.ascii	"apiflags\000"
 7635      6C616773 
 7635      00
 7636              	.LASF125:
 7637 0a2a 72656675 		.ascii	"refused_data\000"
 7637      7365645F 
 7637      64617461 
 7637      00
 7638              	.LASF229:
 7639 0a37 6E657463 		.ascii	"netconn_recv_tcp_pbuf\000"
 7639      6F6E6E5F 
 7639      72656376 
 7639      5F746370 
 7639      5F706275 
 7640              	.LASF185:
 7641 0a4d 74637077 		.ascii	"tcpwnd_size_t\000"
 7641      6E645F73 
 7641      697A655F 
 7641      7400
 7642              	.LASF233:
 7643 0a5b 6E657463 		.ascii	"netconn_write_partly\000"
 7643      6F6E6E5F 
 7643      77726974 
 7643      655F7061 
 7643      72746C79 
 7644              	.LASF68:
 7645 0a70 6E657463 		.ascii	"netconn_evt\000"
 7645      6F6E6E5F 
 7645      65767400 
 7646              	.LASF221:
 7647 0a7c 6E657463 		.ascii	"netconn_connect\000"
 7647      6F6E6E5F 
 7647      636F6E6E 
 7647      65637400 
 7648              	.LASF77:
 7649 0a8c 6E657463 		.ascii	"netconn_callback\000"
 7649      6F6E6E5F 
 7649      63616C6C 
 7649      6261636B 
 7649      00
 7650              	.LASF223:
 7651 0a9d 6E657463 		.ascii	"netconn_listen_with_backlog\000"
 7651      6F6E6E5F 
 7651      6C697374 
 7651      656E5F77 
 7651      6974685F 
 7652              	.LASF205:
ARM GAS  C:\Users\Phuong\AppData\Local\Temp\ccVcCKxe.s 			page 165


 7653 0ab9 7463705F 		.ascii	"tcp_hdr\000"
 7653      68647200 
 7654              	.LASF150:
 7655 0ac1 4D454D50 		.ascii	"MEMP_TCP_SEG\000"
 7655      5F544350 
 7655      5F534547 
 7655      00
 7656              	.LASF46:
 7657 0ace 74797065 		.ascii	"type\000"
 7657      00
 7658              	.LASF48:
 7659 0ad3 70627566 		.ascii	"pbuf\000"
 7659      00
 7660              	.LASF193:
 7661 0ad8 46494E5F 		.ascii	"FIN_WAIT_1\000"
 7661      57414954 
 7661      5F3100
 7662              	.LASF194:
 7663 0ae3 46494E5F 		.ascii	"FIN_WAIT_2\000"
 7663      57414954 
 7663      5F3200
 7664              	.LASF228:
 7665 0aee 6E657463 		.ascii	"netconn_set_safe_err_lev\000"
 7665      6F6E6E5F 
 7665      7365745F 
 7665      73616665 
 7665      5F657272 
 7666              	.LASF72:
 7667 0b07 4E455443 		.ascii	"NETCONN_EVT_SENDMINUS\000"
 7667      4F4E4E5F 
 7667      4556545F 
 7667      53454E44 
 7667      4D494E55 
 7668              	.LASF89:
 7669 0b1d 69705F70 		.ascii	"ip_pcb\000"
 7669      636200
 7670              	.LASF56:
 7671 0b24 4E455443 		.ascii	"NETCONN_TCP\000"
 7671      4F4E4E5F 
 7671      54435000 
 7672              	.LASF171:
 7673 0b30 73687574 		.ascii	"shut\000"
 7673      00
 7674              	.LASF132:
 7675 0b35 6B656570 		.ascii	"keep_idle\000"
 7675      5F69646C 
 7675      6500
 7676              	.LASF65:
 7677 0b3f 4E455443 		.ascii	"NETCONN_LISTEN\000"
 7677      4F4E4E5F 
 7677      4C495354 
 7677      454E00
 7678              	.LASF94:
 7679 0b4e 63616C6C 		.ascii	"callback_arg\000"
 7679      6261636B 
 7679      5F617267 
 7679      00
ARM GAS  C:\Users\Phuong\AppData\Local\Temp\ccVcCKxe.s 			page 166


 7680              	.LASF189:
 7681 0b5b 4C495354 		.ascii	"LISTEN\000"
 7681      454E00
 7682              	.LASF230:
 7683 0b62 6E657463 		.ascii	"netconn_recv\000"
 7683      6F6E6E5F 
 7683      72656376 
 7683      00
 7684              	.LASF86:
 7685 0b6f 77726974 		.ascii	"write_offset\000"
 7685      655F6F66 
 7685      66736574 
 7685      00
 7686              	.LASF50:
 7687 0b7c 61646472 		.ascii	"addr\000"
 7687      00
 7688              	.LASF79:
 7689 0b81 73746174 		.ascii	"state\000"
 7689      6500
 7690              	.LASF45:
 7691 0b87 746F745F 		.ascii	"tot_len\000"
 7691      6C656E00 
 7692              	.LASF88:
 7693 0b8f 63616C6C 		.ascii	"callback\000"
 7693      6261636B 
 7693      00
 7694              	.LASF246:
 7695 0b98 74637069 		.ascii	"tcpip_send_msg_wait_sem\000"
 7695      705F7365 
 7695      6E645F6D 
 7695      73675F77 
 7695      6169745F 
 7696              	.LASF40:
 7697 0bb0 4552525F 		.ascii	"ERR_RST\000"
 7697      52535400 
 7698              	.LASF173:
 7699 0bb8 6D756C74 		.ascii	"multiaddr\000"
 7699      69616464 
 7699      7200
 7700              	.LASF216:
 7701 0bc2 6E65775F 		.ascii	"new_buf\000"
 7701      62756600 
 7702              	.LASF85:
 7703 0bca 72656376 		.ascii	"recv_timeout\000"
 7703      5F74696D 
 7703      656F7574 
 7703      00
 7704              	.LASF26:
 7705 0bd7 4552525F 		.ascii	"ERR_OK\000"
 7705      4F4B00
 7706              	.LASF75:
 7707 0bde 4E455443 		.ascii	"NETCONN_JOIN\000"
 7707      4F4E4E5F 
 7707      4A4F494E 
 7707      00
 7708              	.LASF128:
 7709 0beb 72656376 		.ascii	"recv\000"
ARM GAS  C:\Users\Phuong\AppData\Local\Temp\ccVcCKxe.s 			page 167


 7709      00
 7710              	.LASF227:
 7711 0bf0 6E657763 		.ascii	"newconn\000"
 7711      6F6E6E00 
 7712              	.LASF0:
 7713 0bf8 7369676E 		.ascii	"signed char\000"
 7713      65642063 
 7713      68617200 
 7714              	.LASF113:
 7715 0c04 736E645F 		.ascii	"snd_nxt\000"
 7715      6E787400 
 7716              	.LASF93:
 7717 0c0c 7463705F 		.ascii	"tcp_pcb\000"
 7717      70636200 
 7718              	.LASF3:
 7719 0c14 73686F72 		.ascii	"short unsigned int\000"
 7719      7420756E 
 7719      7369676E 
 7719      65642069 
 7719      6E7400
 7720              	.LASF174:
 7721 0c27 6E657469 		.ascii	"netif_addr\000"
 7721      665F6164 
 7721      647200
 7722              	.LASF37:
 7723 0c32 4552525F 		.ascii	"ERR_CONN\000"
 7723      434F4E4E 
 7723      00
 7724              	.LASF58:
 7725 0c3b 4E455443 		.ascii	"NETCONN_UDPLITE\000"
 7725      4F4E4E5F 
 7725      5544504C 
 7725      49544500 
 7726              	.LASF135:
 7727 0c4b 70657273 		.ascii	"persist_cnt\000"
 7727      6973745F 
 7727      636E7400 
 7728              	.LASF91:
 7729 0c57 72656D6F 		.ascii	"remote_ip\000"
 7729      74655F69 
 7729      7000
 7730              	.LASF245:
 7731 0c61 6E657463 		.ascii	"netconn_aborted\000"
 7731      6F6E6E5F 
 7731      61626F72 
 7731      74656400 
 7732              	.LASF30:
 7733 0c71 4552525F 		.ascii	"ERR_RTE\000"
 7733      52544500 
 7734              	.LASF81:
 7735 0c79 6F705F63 		.ascii	"op_completed\000"
 7735      6F6D706C 
 7735      65746564 
 7735      00
 7736              	.LASF13:
 7737 0c86 646F7562 		.ascii	"double\000"
 7737      6C6500
ARM GAS  C:\Users\Phuong\AppData\Local\Temp\ccVcCKxe.s 			page 168


 7738              	.LASF133:
 7739 0c8d 6B656570 		.ascii	"keep_intvl\000"
 7739      5F696E74 
 7739      766C00
 7740              	.LASF232:
 7741 0c98 6E657463 		.ascii	"netconn_sendto\000"
 7741      6F6E6E5F 
 7741      73656E64 
 7741      746F00
 7742              	.LASF52:
 7743 0ca7 69705F61 		.ascii	"ip_addr_t\000"
 7743      6464725F 
 7743      7400
 7744              	.LASF78:
 7745 0cb1 6E657463 		.ascii	"netconn\000"
 7745      6F6E6E00 
 7746              	.LASF159:
 7747 0cb9 4D454D50 		.ascii	"MEMP_NETDB\000"
 7747      5F4E4554 
 7747      444200
 7748              	.LASF64:
 7749 0cc4 4E455443 		.ascii	"NETCONN_WRITE\000"
 7749      4F4E4E5F 
 7749      57524954 
 7749      4500
 7750              	.LASF239:
 7751 0cd2 73687574 		.ascii	"shut_rx\000"
 7751      5F727800 
 7752              	.LASF74:
 7753 0cda 6E657463 		.ascii	"netconn_igmp\000"
 7753      6F6E6E5F 
 7753      69676D70 
 7753      00
 7754              	.LASF108:
 7755 0ce7 6E727478 		.ascii	"nrtx\000"
 7755      00
 7756              	.LASF120:
 7757 0cec 736E645F 		.ascii	"snd_queuelen\000"
 7757      71756575 
 7757      656C656E 
 7757      00
 7758              	.LASF27:
 7759 0cf9 4552525F 		.ascii	"ERR_MEM\000"
 7759      4D454D00 
 7760              	.LASF206:
 7761 0d01 64657374 		.ascii	"dest\000"
 7761      00
 7762              	.LASF191:
 7763 0d06 53594E5F 		.ascii	"SYN_RCVD\000"
 7763      52435644 
 7763      00
 7764              	.LASF238:
 7765 0d0f 6E657463 		.ascii	"netconn_shutdown\000"
 7765      6F6E6E5F 
 7765      73687574 
 7765      646F776E 
 7765      00
ARM GAS  C:\Users\Phuong\AppData\Local\Temp\ccVcCKxe.s 			page 169


 7766              		.ident	"GCC: (GNU Tools for ARM Embedded Processors) 5.4.1 20160609 (release) [ARM/embedded-5-bran
