ARM GAS  C:\Users\Phuong\AppData\Local\Temp\ccVcCKxe.s 			page 1


   1              		.syntax unified
   2              		.cpu cortex-m0plus
   3              		.fpu softvfp
   4              		.eabi_attribute 20, 1
   5              		.eabi_attribute 21, 1
   6              		.eabi_attribute 23, 3
   7              		.eabi_attribute 24, 1
   8              		.eabi_attribute 25, 1
   9              		.eabi_attribute 26, 1
  10              		.eabi_attribute 30, 1
  11              		.eabi_attribute 34, 0
  12              		.eabi_attribute 18, 4
  13              		.thumb
  14              		.syntax unified
  15              		.file	"api_lib.c"
  16              		.text
  17              	.Ltext0:
  18              		.cfi_sections	.debug_frame
  19              		.section	.text.netconn_apimsg,"ax",%progbits
  20              		.align	2
  21              		.code	16
  22              		.thumb_func
  23              		.type	netconn_apimsg, %function
  24              	netconn_apimsg:
  25              	.LFB53:
  26              		.file 1 "Source\\LwIP\\src\\api\\api_lib.c"
   1:Source\LwIP\src\api/api_lib.c **** /**
   2:Source\LwIP\src\api/api_lib.c ****  * @file
   3:Source\LwIP\src\api/api_lib.c ****  * Sequential API External module
   4:Source\LwIP\src\api/api_lib.c ****  * 
   5:Source\LwIP\src\api/api_lib.c ****  * @defgroup netconn Netconn API
   6:Source\LwIP\src\api/api_lib.c ****  * @ingroup sequential_api
   7:Source\LwIP\src\api/api_lib.c ****  * Thread-safe, to be called from non-TCPIP threads only.
   8:Source\LwIP\src\api/api_lib.c ****  * TX/RX handling based on @ref netbuf (containing @ref pbuf)
   9:Source\LwIP\src\api/api_lib.c ****  * to avoid copying data around.
  10:Source\LwIP\src\api/api_lib.c ****  * 
  11:Source\LwIP\src\api/api_lib.c ****  * @defgroup netconn_common Common functions
  12:Source\LwIP\src\api/api_lib.c ****  * @ingroup netconn
  13:Source\LwIP\src\api/api_lib.c ****  * For use with TCP and UDP
  14:Source\LwIP\src\api/api_lib.c ****  * 
  15:Source\LwIP\src\api/api_lib.c ****  * @defgroup netconn_tcp TCP only
  16:Source\LwIP\src\api/api_lib.c ****  * @ingroup netconn
  17:Source\LwIP\src\api/api_lib.c ****  * TCP only functions
  18:Source\LwIP\src\api/api_lib.c ****  * 
  19:Source\LwIP\src\api/api_lib.c ****  * @defgroup netconn_udp UDP only
  20:Source\LwIP\src\api/api_lib.c ****  * @ingroup netconn
  21:Source\LwIP\src\api/api_lib.c ****  * UDP only functions
  22:Source\LwIP\src\api/api_lib.c ****  */
  23:Source\LwIP\src\api/api_lib.c **** 
  24:Source\LwIP\src\api/api_lib.c **** /*
  25:Source\LwIP\src\api/api_lib.c ****  * Copyright (c) 2001-2004 Swedish Institute of Computer Science.
  26:Source\LwIP\src\api/api_lib.c ****  * All rights reserved.
  27:Source\LwIP\src\api/api_lib.c ****  *
  28:Source\LwIP\src\api/api_lib.c ****  * Redistribution and use in source and binary forms, with or without modification,
  29:Source\LwIP\src\api/api_lib.c ****  * are permitted provided that the following conditions are met:
  30:Source\LwIP\src\api/api_lib.c ****  *
  31:Source\LwIP\src\api/api_lib.c ****  * 1. Redistributions of source code must retain the above copyright notice,
ARM GAS  C:\Users\Phuong\AppData\Local\Temp\ccVcCKxe.s 			page 2


  32:Source\LwIP\src\api/api_lib.c ****  *    this list of conditions and the following disclaimer.
  33:Source\LwIP\src\api/api_lib.c ****  * 2. Redistributions in binary form must reproduce the above copyright notice,
  34:Source\LwIP\src\api/api_lib.c ****  *    this list of conditions and the following disclaimer in the documentation
  35:Source\LwIP\src\api/api_lib.c ****  *    and/or other materials provided with the distribution.
  36:Source\LwIP\src\api/api_lib.c ****  * 3. The name of the author may not be used to endorse or promote products
  37:Source\LwIP\src\api/api_lib.c ****  *    derived from this software without specific prior written permission.
  38:Source\LwIP\src\api/api_lib.c ****  *
  39:Source\LwIP\src\api/api_lib.c ****  * THIS SOFTWARE IS PROVIDED BY THE AUTHOR ``AS IS'' AND ANY EXPRESS OR IMPLIED
  40:Source\LwIP\src\api/api_lib.c ****  * WARRANTIES, INCLUDING, BUT NOT LIMITED TO, THE IMPLIED WARRANTIES OF
  41:Source\LwIP\src\api/api_lib.c ****  * MERCHANTABILITY AND FITNESS FOR A PARTICULAR PURPOSE ARE DISCLAIMED. IN NO EVENT
  42:Source\LwIP\src\api/api_lib.c ****  * SHALL THE AUTHOR BE LIABLE FOR ANY DIRECT, INDIRECT, INCIDENTAL, SPECIAL,
  43:Source\LwIP\src\api/api_lib.c ****  * EXEMPLARY, OR CONSEQUENTIAL DAMAGES (INCLUDING, BUT NOT LIMITED TO, PROCUREMENT
  44:Source\LwIP\src\api/api_lib.c ****  * OF SUBSTITUTE GOODS OR SERVICES; LOSS OF USE, DATA, OR PROFITS; OR BUSINESS
  45:Source\LwIP\src\api/api_lib.c ****  * INTERRUPTION) HOWEVER CAUSED AND ON ANY THEORY OF LIABILITY, WHETHER IN
  46:Source\LwIP\src\api/api_lib.c ****  * CONTRACT, STRICT LIABILITY, OR TORT (INCLUDING NEGLIGENCE OR OTHERWISE) ARISING
  47:Source\LwIP\src\api/api_lib.c ****  * IN ANY WAY OUT OF THE USE OF THIS SOFTWARE, EVEN IF ADVISED OF THE POSSIBILITY
  48:Source\LwIP\src\api/api_lib.c ****  * OF SUCH DAMAGE.
  49:Source\LwIP\src\api/api_lib.c ****  *
  50:Source\LwIP\src\api/api_lib.c ****  * This file is part of the lwIP TCP/IP stack.
  51:Source\LwIP\src\api/api_lib.c ****  *
  52:Source\LwIP\src\api/api_lib.c ****  * Author: Adam Dunkels <adam@sics.se>
  53:Source\LwIP\src\api/api_lib.c ****  */
  54:Source\LwIP\src\api/api_lib.c **** 
  55:Source\LwIP\src\api/api_lib.c **** /* This is the part of the API that is linked with
  56:Source\LwIP\src\api/api_lib.c ****    the application */
  57:Source\LwIP\src\api/api_lib.c **** 
  58:Source\LwIP\src\api/api_lib.c **** #include "lwip/opt.h"
  59:Source\LwIP\src\api/api_lib.c **** 
  60:Source\LwIP\src\api/api_lib.c **** #if LWIP_NETCONN /* don't build if not configured for use in lwipopts.h */
  61:Source\LwIP\src\api/api_lib.c **** 
  62:Source\LwIP\src\api/api_lib.c **** #include "lwip/api.h"
  63:Source\LwIP\src\api/api_lib.c **** #include "lwip/memp.h"
  64:Source\LwIP\src\api/api_lib.c **** 
  65:Source\LwIP\src\api/api_lib.c **** #include "lwip/ip.h"
  66:Source\LwIP\src\api/api_lib.c **** #include "lwip/raw.h"
  67:Source\LwIP\src\api/api_lib.c **** #include "lwip/udp.h"
  68:Source\LwIP\src\api/api_lib.c **** #include "lwip/priv/api_msg.h"
  69:Source\LwIP\src\api/api_lib.c **** #include "lwip/priv/tcp_priv.h"
  70:Source\LwIP\src\api/api_lib.c **** #include "lwip/priv/tcpip_priv.h"
  71:Source\LwIP\src\api/api_lib.c **** 
  72:Source\LwIP\src\api/api_lib.c **** #include <string.h>
  73:Source\LwIP\src\api/api_lib.c **** 
  74:Source\LwIP\src\api/api_lib.c **** #define API_MSG_VAR_REF(name)               API_VAR_REF(name)
  75:Source\LwIP\src\api/api_lib.c **** #define API_MSG_VAR_DECLARE(name)           API_VAR_DECLARE(struct api_msg, name)
  76:Source\LwIP\src\api/api_lib.c **** #define API_MSG_VAR_ALLOC(name)             API_VAR_ALLOC(struct api_msg, MEMP_API_MSG, name, ERR_M
  77:Source\LwIP\src\api/api_lib.c **** #define API_MSG_VAR_ALLOC_RETURN_NULL(name) API_VAR_ALLOC(struct api_msg, MEMP_API_MSG, name, NULL)
  78:Source\LwIP\src\api/api_lib.c **** #define API_MSG_VAR_FREE(name)              API_VAR_FREE(MEMP_API_MSG, name)
  79:Source\LwIP\src\api/api_lib.c **** 
  80:Source\LwIP\src\api/api_lib.c **** static err_t netconn_close_shutdown(struct netconn *conn, u8_t how);
  81:Source\LwIP\src\api/api_lib.c **** 
  82:Source\LwIP\src\api/api_lib.c **** /**
  83:Source\LwIP\src\api/api_lib.c ****  * Call the lower part of a netconn_* function
  84:Source\LwIP\src\api/api_lib.c ****  * This function is then running in the thread context
  85:Source\LwIP\src\api/api_lib.c ****  * of tcpip_thread and has exclusive access to lwIP core code.
  86:Source\LwIP\src\api/api_lib.c ****  *
  87:Source\LwIP\src\api/api_lib.c ****  * @param fn function to call
  88:Source\LwIP\src\api/api_lib.c ****  * @param apimsg a struct containing the function to call and its parameters
ARM GAS  C:\Users\Phuong\AppData\Local\Temp\ccVcCKxe.s 			page 3


  89:Source\LwIP\src\api/api_lib.c ****  * @return ERR_OK if the function was called, another err_t if not
  90:Source\LwIP\src\api/api_lib.c ****  */
  91:Source\LwIP\src\api/api_lib.c **** static err_t
  92:Source\LwIP\src\api/api_lib.c **** netconn_apimsg(tcpip_callback_fn fn, struct api_msg *apimsg)
  93:Source\LwIP\src\api/api_lib.c **** {
  27              		.loc 1 93 0
  28              		.cfi_startproc
  29              		@ args = 0, pretend = 0, frame = 0
  30              		@ frame_needed = 0, uses_anonymous_args = 0
  31              	.LVL0:
  32 0000 10B5     		push	{r4, lr}
  33              		.cfi_def_cfa_offset 8
  34              		.cfi_offset 4, -8
  35              		.cfi_offset 14, -4
  36 0002 0C00     		movs	r4, r1
  94:Source\LwIP\src\api/api_lib.c ****   err_t err;
  95:Source\LwIP\src\api/api_lib.c **** 
  96:Source\LwIP\src\api/api_lib.c **** #ifdef LWIP_DEBUG
  97:Source\LwIP\src\api/api_lib.c ****   /* catch functions that don't set err */
  98:Source\LwIP\src\api/api_lib.c ****   apimsg->err = ERR_VAL;
  37              		.loc 1 98 0
  38 0004 FA23     		movs	r3, #250
  39 0006 0B71     		strb	r3, [r1, #4]
  99:Source\LwIP\src\api/api_lib.c **** #endif /* LWIP_DEBUG */
 100:Source\LwIP\src\api/api_lib.c **** 
 101:Source\LwIP\src\api/api_lib.c **** #if LWIP_NETCONN_SEM_PER_THREAD
 102:Source\LwIP\src\api/api_lib.c ****   apimsg->op_completed_sem = LWIP_NETCONN_THREAD_SEM_GET();
 103:Source\LwIP\src\api/api_lib.c **** #endif /* LWIP_NETCONN_SEM_PER_THREAD */
 104:Source\LwIP\src\api/api_lib.c **** 
 105:Source\LwIP\src\api/api_lib.c ****   err = tcpip_send_msg_wait_sem(fn, apimsg, LWIP_API_MSG_SEM(apimsg));
  40              		.loc 1 105 0
  41 0008 0A68     		ldr	r2, [r1]
  42 000a 0C32     		adds	r2, r2, #12
  43 000c FFF7FEFF 		bl	tcpip_send_msg_wait_sem
  44              	.LVL1:
 106:Source\LwIP\src\api/api_lib.c ****   if (err == ERR_OK) {
  45              		.loc 1 106 0
  46 0010 0028     		cmp	r0, #0
  47 0012 01D1     		bne	.L2
 107:Source\LwIP\src\api/api_lib.c ****     return apimsg->err;
  48              		.loc 1 107 0
  49 0014 0420     		movs	r0, #4
  50              	.LVL2:
  51 0016 2056     		ldrsb	r0, [r4, r0]
  52              	.L2:
 108:Source\LwIP\src\api/api_lib.c ****   }
 109:Source\LwIP\src\api/api_lib.c ****   return err;
 110:Source\LwIP\src\api/api_lib.c **** }
  53              		.loc 1 110 0
  54              		@ sp needed
  55              	.LVL3:
  56 0018 10BD     		pop	{r4, pc}
  57              		.cfi_endproc
  58              	.LFE53:
  59              		.size	netconn_apimsg, .-netconn_apimsg
  60 001a C046     		.section	.text.netconn_close_shutdown,"ax",%progbits
  61              		.align	2
ARM GAS  C:\Users\Phuong\AppData\Local\Temp\ccVcCKxe.s 			page 4


  62              		.code	16
  63              		.thumb_func
  64              		.type	netconn_close_shutdown, %function
  65              	netconn_close_shutdown:
  66              	.LFB68:
 111:Source\LwIP\src\api/api_lib.c **** 
 112:Source\LwIP\src\api/api_lib.c **** /**
 113:Source\LwIP\src\api/api_lib.c ****  * Create a new netconn (of a specific type) that has a callback function.
 114:Source\LwIP\src\api/api_lib.c ****  * The corresponding pcb is also created.
 115:Source\LwIP\src\api/api_lib.c ****  *
 116:Source\LwIP\src\api/api_lib.c ****  * @param t the type of 'connection' to create (@see enum netconn_type)
 117:Source\LwIP\src\api/api_lib.c ****  * @param proto the IP protocol for RAW IP pcbs
 118:Source\LwIP\src\api/api_lib.c ****  * @param callback a function to call on status changes (RX available, TX'ed)
 119:Source\LwIP\src\api/api_lib.c ****  * @return a newly allocated struct netconn or
 120:Source\LwIP\src\api/api_lib.c ****  *         NULL on memory error
 121:Source\LwIP\src\api/api_lib.c ****  */
 122:Source\LwIP\src\api/api_lib.c **** struct netconn*
 123:Source\LwIP\src\api/api_lib.c **** netconn_new_with_proto_and_callback(enum netconn_type t, u8_t proto, netconn_callback callback)
 124:Source\LwIP\src\api/api_lib.c **** {
 125:Source\LwIP\src\api/api_lib.c ****   struct netconn *conn;
 126:Source\LwIP\src\api/api_lib.c ****   API_MSG_VAR_DECLARE(msg);
 127:Source\LwIP\src\api/api_lib.c ****   API_MSG_VAR_ALLOC_RETURN_NULL(msg);
 128:Source\LwIP\src\api/api_lib.c **** 
 129:Source\LwIP\src\api/api_lib.c ****   conn = netconn_alloc(t, callback);
 130:Source\LwIP\src\api/api_lib.c ****   if (conn != NULL) {
 131:Source\LwIP\src\api/api_lib.c ****     err_t err;
 132:Source\LwIP\src\api/api_lib.c **** 
 133:Source\LwIP\src\api/api_lib.c ****     API_MSG_VAR_REF(msg).msg.n.proto = proto;
 134:Source\LwIP\src\api/api_lib.c ****     API_MSG_VAR_REF(msg).conn = conn;
 135:Source\LwIP\src\api/api_lib.c ****     err = netconn_apimsg(lwip_netconn_do_newconn, &API_MSG_VAR_REF(msg));
 136:Source\LwIP\src\api/api_lib.c ****     if (err != ERR_OK) {
 137:Source\LwIP\src\api/api_lib.c ****       LWIP_ASSERT("freeing conn without freeing pcb", conn->pcb.tcp == NULL);
 138:Source\LwIP\src\api/api_lib.c ****       LWIP_ASSERT("conn has no recvmbox", sys_mbox_valid(&conn->recvmbox));
 139:Source\LwIP\src\api/api_lib.c **** #if LWIP_TCP
 140:Source\LwIP\src\api/api_lib.c ****       LWIP_ASSERT("conn->acceptmbox shouldn't exist", !sys_mbox_valid(&conn->acceptmbox));
 141:Source\LwIP\src\api/api_lib.c **** #endif /* LWIP_TCP */
 142:Source\LwIP\src\api/api_lib.c **** #if !LWIP_NETCONN_SEM_PER_THREAD
 143:Source\LwIP\src\api/api_lib.c ****       LWIP_ASSERT("conn has no op_completed", sys_sem_valid(&conn->op_completed));
 144:Source\LwIP\src\api/api_lib.c ****       sys_sem_free(&conn->op_completed);
 145:Source\LwIP\src\api/api_lib.c **** #endif /* !LWIP_NETCONN_SEM_PER_THREAD */
 146:Source\LwIP\src\api/api_lib.c ****       sys_mbox_free(&conn->recvmbox);
 147:Source\LwIP\src\api/api_lib.c ****       memp_free(MEMP_NETCONN, conn);
 148:Source\LwIP\src\api/api_lib.c ****       API_MSG_VAR_FREE(msg);
 149:Source\LwIP\src\api/api_lib.c ****       return NULL;
 150:Source\LwIP\src\api/api_lib.c ****     }
 151:Source\LwIP\src\api/api_lib.c ****   }
 152:Source\LwIP\src\api/api_lib.c ****   API_MSG_VAR_FREE(msg);
 153:Source\LwIP\src\api/api_lib.c ****   return conn;
 154:Source\LwIP\src\api/api_lib.c **** }
 155:Source\LwIP\src\api/api_lib.c **** 
 156:Source\LwIP\src\api/api_lib.c **** /**
 157:Source\LwIP\src\api/api_lib.c ****  * @ingroup netconn_common
 158:Source\LwIP\src\api/api_lib.c ****  * Close a netconn 'connection' and free its resources.
 159:Source\LwIP\src\api/api_lib.c ****  * UDP and RAW connection are completely closed, TCP pcbs might still be in a waitstate
 160:Source\LwIP\src\api/api_lib.c ****  * after this returns.
 161:Source\LwIP\src\api/api_lib.c ****  *
 162:Source\LwIP\src\api/api_lib.c ****  * @param conn the netconn to delete
ARM GAS  C:\Users\Phuong\AppData\Local\Temp\ccVcCKxe.s 			page 5


 163:Source\LwIP\src\api/api_lib.c ****  * @return ERR_OK if the connection was deleted
 164:Source\LwIP\src\api/api_lib.c ****  */
 165:Source\LwIP\src\api/api_lib.c **** err_t
 166:Source\LwIP\src\api/api_lib.c **** netconn_delete(struct netconn *conn)
 167:Source\LwIP\src\api/api_lib.c **** {
 168:Source\LwIP\src\api/api_lib.c ****   err_t err;
 169:Source\LwIP\src\api/api_lib.c ****   API_MSG_VAR_DECLARE(msg);
 170:Source\LwIP\src\api/api_lib.c **** 
 171:Source\LwIP\src\api/api_lib.c ****   /* No ASSERT here because possible to get a (conn == NULL) if we got an accept error */
 172:Source\LwIP\src\api/api_lib.c ****   if (conn == NULL) {
 173:Source\LwIP\src\api/api_lib.c ****     return ERR_OK;
 174:Source\LwIP\src\api/api_lib.c ****   }
 175:Source\LwIP\src\api/api_lib.c **** 
 176:Source\LwIP\src\api/api_lib.c ****   API_MSG_VAR_ALLOC(msg);
 177:Source\LwIP\src\api/api_lib.c ****   API_MSG_VAR_REF(msg).conn = conn;
 178:Source\LwIP\src\api/api_lib.c **** #if LWIP_SO_SNDTIMEO || LWIP_SO_LINGER
 179:Source\LwIP\src\api/api_lib.c ****   /* get the time we started, which is later compared to
 180:Source\LwIP\src\api/api_lib.c ****      sys_now() + conn->send_timeout */
 181:Source\LwIP\src\api/api_lib.c ****   API_MSG_VAR_REF(msg).msg.sd.time_started = sys_now();
 182:Source\LwIP\src\api/api_lib.c **** #else /* LWIP_SO_SNDTIMEO || LWIP_SO_LINGER */
 183:Source\LwIP\src\api/api_lib.c **** #if LWIP_TCP
 184:Source\LwIP\src\api/api_lib.c ****   API_MSG_VAR_REF(msg).msg.sd.polls_left =
 185:Source\LwIP\src\api/api_lib.c ****     ((LWIP_TCP_CLOSE_TIMEOUT_MS_DEFAULT + TCP_SLOW_INTERVAL - 1) / TCP_SLOW_INTERVAL) + 1;
 186:Source\LwIP\src\api/api_lib.c **** #endif /* LWIP_TCP */
 187:Source\LwIP\src\api/api_lib.c **** #endif /* LWIP_SO_SNDTIMEO || LWIP_SO_LINGER */
 188:Source\LwIP\src\api/api_lib.c ****   err = netconn_apimsg(lwip_netconn_do_delconn, &API_MSG_VAR_REF(msg));
 189:Source\LwIP\src\api/api_lib.c ****   API_MSG_VAR_FREE(msg);
 190:Source\LwIP\src\api/api_lib.c **** 
 191:Source\LwIP\src\api/api_lib.c ****   if (err != ERR_OK) {
 192:Source\LwIP\src\api/api_lib.c ****     return err;
 193:Source\LwIP\src\api/api_lib.c ****   }
 194:Source\LwIP\src\api/api_lib.c **** 
 195:Source\LwIP\src\api/api_lib.c ****   netconn_free(conn);
 196:Source\LwIP\src\api/api_lib.c **** 
 197:Source\LwIP\src\api/api_lib.c ****   return ERR_OK;
 198:Source\LwIP\src\api/api_lib.c **** }
 199:Source\LwIP\src\api/api_lib.c **** 
 200:Source\LwIP\src\api/api_lib.c **** /**
 201:Source\LwIP\src\api/api_lib.c ****  * Get the local or remote IP address and port of a netconn.
 202:Source\LwIP\src\api/api_lib.c ****  * For RAW netconns, this returns the protocol instead of a port!
 203:Source\LwIP\src\api/api_lib.c ****  *
 204:Source\LwIP\src\api/api_lib.c ****  * @param conn the netconn to query
 205:Source\LwIP\src\api/api_lib.c ****  * @param addr a pointer to which to save the IP address
 206:Source\LwIP\src\api/api_lib.c ****  * @param port a pointer to which to save the port (or protocol for RAW)
 207:Source\LwIP\src\api/api_lib.c ****  * @param local 1 to get the local IP address, 0 to get the remote one
 208:Source\LwIP\src\api/api_lib.c ****  * @return ERR_CONN for invalid connections
 209:Source\LwIP\src\api/api_lib.c ****  *         ERR_OK if the information was retrieved
 210:Source\LwIP\src\api/api_lib.c ****  */
 211:Source\LwIP\src\api/api_lib.c **** err_t
 212:Source\LwIP\src\api/api_lib.c **** netconn_getaddr(struct netconn *conn, ip_addr_t *addr, u16_t *port, u8_t local)
 213:Source\LwIP\src\api/api_lib.c **** {
 214:Source\LwIP\src\api/api_lib.c ****   API_MSG_VAR_DECLARE(msg);
 215:Source\LwIP\src\api/api_lib.c ****   err_t err;
 216:Source\LwIP\src\api/api_lib.c **** 
 217:Source\LwIP\src\api/api_lib.c ****   LWIP_ERROR("netconn_getaddr: invalid conn", (conn != NULL), return ERR_ARG;);
 218:Source\LwIP\src\api/api_lib.c ****   LWIP_ERROR("netconn_getaddr: invalid addr", (addr != NULL), return ERR_ARG;);
 219:Source\LwIP\src\api/api_lib.c ****   LWIP_ERROR("netconn_getaddr: invalid port", (port != NULL), return ERR_ARG;);
ARM GAS  C:\Users\Phuong\AppData\Local\Temp\ccVcCKxe.s 			page 6


 220:Source\LwIP\src\api/api_lib.c **** 
 221:Source\LwIP\src\api/api_lib.c ****   API_MSG_VAR_ALLOC(msg);
 222:Source\LwIP\src\api/api_lib.c ****   API_MSG_VAR_REF(msg).conn = conn;
 223:Source\LwIP\src\api/api_lib.c ****   API_MSG_VAR_REF(msg).msg.ad.local = local;
 224:Source\LwIP\src\api/api_lib.c **** #if LWIP_MPU_COMPATIBLE
 225:Source\LwIP\src\api/api_lib.c ****   err = netconn_apimsg(lwip_netconn_do_getaddr, &API_MSG_VAR_REF(msg));
 226:Source\LwIP\src\api/api_lib.c ****   *addr = msg->msg.ad.ipaddr;
 227:Source\LwIP\src\api/api_lib.c ****   *port = msg->msg.ad.port;
 228:Source\LwIP\src\api/api_lib.c **** #else /* LWIP_MPU_COMPATIBLE */
 229:Source\LwIP\src\api/api_lib.c ****   msg.msg.ad.ipaddr = addr;
 230:Source\LwIP\src\api/api_lib.c ****   msg.msg.ad.port = port;
 231:Source\LwIP\src\api/api_lib.c ****   err = netconn_apimsg(lwip_netconn_do_getaddr, &msg);
 232:Source\LwIP\src\api/api_lib.c **** #endif /* LWIP_MPU_COMPATIBLE */
 233:Source\LwIP\src\api/api_lib.c ****   API_MSG_VAR_FREE(msg);
 234:Source\LwIP\src\api/api_lib.c **** 
 235:Source\LwIP\src\api/api_lib.c ****   return err;
 236:Source\LwIP\src\api/api_lib.c **** }
 237:Source\LwIP\src\api/api_lib.c **** 
 238:Source\LwIP\src\api/api_lib.c **** /**
 239:Source\LwIP\src\api/api_lib.c ****  * @ingroup netconn_common
 240:Source\LwIP\src\api/api_lib.c ****  * Bind a netconn to a specific local IP address and port.
 241:Source\LwIP\src\api/api_lib.c ****  * Binding one netconn twice might not always be checked correctly!
 242:Source\LwIP\src\api/api_lib.c ****  *
 243:Source\LwIP\src\api/api_lib.c ****  * @param conn the netconn to bind
 244:Source\LwIP\src\api/api_lib.c ****  * @param addr the local IP address to bind the netconn to 
 245:Source\LwIP\src\api/api_lib.c ****  *             (use IP4_ADDR_ANY/IP6_ADDR_ANY to bind to all addresses)
 246:Source\LwIP\src\api/api_lib.c ****  * @param port the local port to bind the netconn to (not used for RAW)
 247:Source\LwIP\src\api/api_lib.c ****  * @return ERR_OK if bound, any other err_t on failure
 248:Source\LwIP\src\api/api_lib.c ****  */
 249:Source\LwIP\src\api/api_lib.c **** err_t
 250:Source\LwIP\src\api/api_lib.c **** netconn_bind(struct netconn *conn, const ip_addr_t *addr, u16_t port)
 251:Source\LwIP\src\api/api_lib.c **** {
 252:Source\LwIP\src\api/api_lib.c ****   API_MSG_VAR_DECLARE(msg);
 253:Source\LwIP\src\api/api_lib.c ****   err_t err;
 254:Source\LwIP\src\api/api_lib.c ****   
 255:Source\LwIP\src\api/api_lib.c ****   LWIP_ERROR("netconn_bind: invalid conn", (conn != NULL), return ERR_ARG;);
 256:Source\LwIP\src\api/api_lib.c **** 
 257:Source\LwIP\src\api/api_lib.c **** #if LWIP_IPV4
 258:Source\LwIP\src\api/api_lib.c ****   /* Don't propagate NULL pointer (IP_ADDR_ANY alias) to subsequent functions */
 259:Source\LwIP\src\api/api_lib.c ****   if (addr == NULL) {
 260:Source\LwIP\src\api/api_lib.c ****     addr = IP4_ADDR_ANY;
 261:Source\LwIP\src\api/api_lib.c ****   }
 262:Source\LwIP\src\api/api_lib.c **** #endif /* LWIP_IPV4 */
 263:Source\LwIP\src\api/api_lib.c ****   
 264:Source\LwIP\src\api/api_lib.c **** #if LWIP_IPV4 && LWIP_IPV6
 265:Source\LwIP\src\api/api_lib.c ****   /* "Socket API like" dual-stack support: If IP to bind to is IP6_ADDR_ANY,
 266:Source\LwIP\src\api/api_lib.c ****    * and NETCONN_FLAG_IPV6_V6ONLY is 0, use IP_ANY_TYPE to bind
 267:Source\LwIP\src\api/api_lib.c ****    */
 268:Source\LwIP\src\api/api_lib.c ****   if ((netconn_get_ipv6only(conn) == 0) &&
 269:Source\LwIP\src\api/api_lib.c ****      ip_addr_cmp(addr, IP6_ADDR_ANY)) {
 270:Source\LwIP\src\api/api_lib.c ****     addr = IP_ANY_TYPE;
 271:Source\LwIP\src\api/api_lib.c ****   }
 272:Source\LwIP\src\api/api_lib.c **** #endif /* LWIP_IPV4 && LWIP_IPV6 */
 273:Source\LwIP\src\api/api_lib.c **** 
 274:Source\LwIP\src\api/api_lib.c ****   API_MSG_VAR_ALLOC(msg);
 275:Source\LwIP\src\api/api_lib.c ****   API_MSG_VAR_REF(msg).conn = conn;
 276:Source\LwIP\src\api/api_lib.c ****   API_MSG_VAR_REF(msg).msg.bc.ipaddr = API_MSG_VAR_REF(addr);
ARM GAS  C:\Users\Phuong\AppData\Local\Temp\ccVcCKxe.s 			page 7


 277:Source\LwIP\src\api/api_lib.c ****   API_MSG_VAR_REF(msg).msg.bc.port = port;
 278:Source\LwIP\src\api/api_lib.c ****   err = netconn_apimsg(lwip_netconn_do_bind, &API_MSG_VAR_REF(msg));
 279:Source\LwIP\src\api/api_lib.c ****   API_MSG_VAR_FREE(msg);
 280:Source\LwIP\src\api/api_lib.c **** 
 281:Source\LwIP\src\api/api_lib.c ****   return err;
 282:Source\LwIP\src\api/api_lib.c **** }
 283:Source\LwIP\src\api/api_lib.c **** 
 284:Source\LwIP\src\api/api_lib.c **** /**
 285:Source\LwIP\src\api/api_lib.c ****  * @ingroup netconn_common
 286:Source\LwIP\src\api/api_lib.c ****  * Connect a netconn to a specific remote IP address and port.
 287:Source\LwIP\src\api/api_lib.c ****  *
 288:Source\LwIP\src\api/api_lib.c ****  * @param conn the netconn to connect
 289:Source\LwIP\src\api/api_lib.c ****  * @param addr the remote IP address to connect to
 290:Source\LwIP\src\api/api_lib.c ****  * @param port the remote port to connect to (no used for RAW)
 291:Source\LwIP\src\api/api_lib.c ****  * @return ERR_OK if connected, return value of tcp_/udp_/raw_connect otherwise
 292:Source\LwIP\src\api/api_lib.c ****  */
 293:Source\LwIP\src\api/api_lib.c **** err_t
 294:Source\LwIP\src\api/api_lib.c **** netconn_connect(struct netconn *conn, const ip_addr_t *addr, u16_t port)
 295:Source\LwIP\src\api/api_lib.c **** {
 296:Source\LwIP\src\api/api_lib.c ****   API_MSG_VAR_DECLARE(msg);
 297:Source\LwIP\src\api/api_lib.c ****   err_t err;
 298:Source\LwIP\src\api/api_lib.c **** 
 299:Source\LwIP\src\api/api_lib.c ****   LWIP_ERROR("netconn_connect: invalid conn", (conn != NULL), return ERR_ARG;);
 300:Source\LwIP\src\api/api_lib.c **** 
 301:Source\LwIP\src\api/api_lib.c **** #if LWIP_IPV4
 302:Source\LwIP\src\api/api_lib.c ****   /* Don't propagate NULL pointer (IP_ADDR_ANY alias) to subsequent functions */
 303:Source\LwIP\src\api/api_lib.c ****   if (addr == NULL) {
 304:Source\LwIP\src\api/api_lib.c ****     addr = IP4_ADDR_ANY;
 305:Source\LwIP\src\api/api_lib.c ****   }
 306:Source\LwIP\src\api/api_lib.c **** #endif /* LWIP_IPV4 */
 307:Source\LwIP\src\api/api_lib.c **** 
 308:Source\LwIP\src\api/api_lib.c ****   API_MSG_VAR_ALLOC(msg);
 309:Source\LwIP\src\api/api_lib.c ****   API_MSG_VAR_REF(msg).conn = conn;
 310:Source\LwIP\src\api/api_lib.c ****   API_MSG_VAR_REF(msg).msg.bc.ipaddr = API_MSG_VAR_REF(addr);
 311:Source\LwIP\src\api/api_lib.c ****   API_MSG_VAR_REF(msg).msg.bc.port = port;
 312:Source\LwIP\src\api/api_lib.c ****   err = netconn_apimsg(lwip_netconn_do_connect, &API_MSG_VAR_REF(msg));
 313:Source\LwIP\src\api/api_lib.c ****   API_MSG_VAR_FREE(msg);
 314:Source\LwIP\src\api/api_lib.c **** 
 315:Source\LwIP\src\api/api_lib.c ****   return err;
 316:Source\LwIP\src\api/api_lib.c **** }
 317:Source\LwIP\src\api/api_lib.c **** 
 318:Source\LwIP\src\api/api_lib.c **** /**
 319:Source\LwIP\src\api/api_lib.c ****  * @ingroup netconn_udp
 320:Source\LwIP\src\api/api_lib.c ****  * Disconnect a netconn from its current peer (only valid for UDP netconns).
 321:Source\LwIP\src\api/api_lib.c ****  *
 322:Source\LwIP\src\api/api_lib.c ****  * @param conn the netconn to disconnect
 323:Source\LwIP\src\api/api_lib.c ****  * @return See @ref err_t
 324:Source\LwIP\src\api/api_lib.c ****  */
 325:Source\LwIP\src\api/api_lib.c **** err_t
 326:Source\LwIP\src\api/api_lib.c **** netconn_disconnect(struct netconn *conn)
 327:Source\LwIP\src\api/api_lib.c **** {
 328:Source\LwIP\src\api/api_lib.c ****   API_MSG_VAR_DECLARE(msg);
 329:Source\LwIP\src\api/api_lib.c ****   err_t err;
 330:Source\LwIP\src\api/api_lib.c **** 
 331:Source\LwIP\src\api/api_lib.c ****   LWIP_ERROR("netconn_disconnect: invalid conn", (conn != NULL), return ERR_ARG;);
 332:Source\LwIP\src\api/api_lib.c **** 
 333:Source\LwIP\src\api/api_lib.c ****   API_MSG_VAR_ALLOC(msg);
ARM GAS  C:\Users\Phuong\AppData\Local\Temp\ccVcCKxe.s 			page 8


 334:Source\LwIP\src\api/api_lib.c ****   API_MSG_VAR_REF(msg).conn = conn;
 335:Source\LwIP\src\api/api_lib.c ****   err = netconn_apimsg(lwip_netconn_do_disconnect, &API_MSG_VAR_REF(msg));
 336:Source\LwIP\src\api/api_lib.c ****   API_MSG_VAR_FREE(msg);
 337:Source\LwIP\src\api/api_lib.c **** 
 338:Source\LwIP\src\api/api_lib.c ****   return err;
 339:Source\LwIP\src\api/api_lib.c **** }
 340:Source\LwIP\src\api/api_lib.c **** 
 341:Source\LwIP\src\api/api_lib.c **** /**
 342:Source\LwIP\src\api/api_lib.c ****  * @ingroup netconn_tcp
 343:Source\LwIP\src\api/api_lib.c ****  * Set a TCP netconn into listen mode
 344:Source\LwIP\src\api/api_lib.c ****  *
 345:Source\LwIP\src\api/api_lib.c ****  * @param conn the tcp netconn to set to listen mode
 346:Source\LwIP\src\api/api_lib.c ****  * @param backlog the listen backlog, only used if TCP_LISTEN_BACKLOG==1
 347:Source\LwIP\src\api/api_lib.c ****  * @return ERR_OK if the netconn was set to listen (UDP and RAW netconns
 348:Source\LwIP\src\api/api_lib.c ****  *         don't return any error (yet?))
 349:Source\LwIP\src\api/api_lib.c ****  */
 350:Source\LwIP\src\api/api_lib.c **** err_t
 351:Source\LwIP\src\api/api_lib.c **** netconn_listen_with_backlog(struct netconn *conn, u8_t backlog)
 352:Source\LwIP\src\api/api_lib.c **** {
 353:Source\LwIP\src\api/api_lib.c **** #if LWIP_TCP
 354:Source\LwIP\src\api/api_lib.c ****   API_MSG_VAR_DECLARE(msg);
 355:Source\LwIP\src\api/api_lib.c ****   err_t err;
 356:Source\LwIP\src\api/api_lib.c **** 
 357:Source\LwIP\src\api/api_lib.c ****   /* This does no harm. If TCP_LISTEN_BACKLOG is off, backlog is unused. */
 358:Source\LwIP\src\api/api_lib.c ****   LWIP_UNUSED_ARG(backlog);
 359:Source\LwIP\src\api/api_lib.c **** 
 360:Source\LwIP\src\api/api_lib.c ****   LWIP_ERROR("netconn_listen: invalid conn", (conn != NULL), return ERR_ARG;);
 361:Source\LwIP\src\api/api_lib.c **** 
 362:Source\LwIP\src\api/api_lib.c ****   API_MSG_VAR_ALLOC(msg);
 363:Source\LwIP\src\api/api_lib.c ****   API_MSG_VAR_REF(msg).conn = conn;
 364:Source\LwIP\src\api/api_lib.c **** #if TCP_LISTEN_BACKLOG
 365:Source\LwIP\src\api/api_lib.c ****   API_MSG_VAR_REF(msg).msg.lb.backlog = backlog;
 366:Source\LwIP\src\api/api_lib.c **** #endif /* TCP_LISTEN_BACKLOG */
 367:Source\LwIP\src\api/api_lib.c ****   err = netconn_apimsg(lwip_netconn_do_listen, &API_MSG_VAR_REF(msg));
 368:Source\LwIP\src\api/api_lib.c ****   API_MSG_VAR_FREE(msg);
 369:Source\LwIP\src\api/api_lib.c **** 
 370:Source\LwIP\src\api/api_lib.c ****   return err;
 371:Source\LwIP\src\api/api_lib.c **** #else /* LWIP_TCP */
 372:Source\LwIP\src\api/api_lib.c ****   LWIP_UNUSED_ARG(conn);
 373:Source\LwIP\src\api/api_lib.c ****   LWIP_UNUSED_ARG(backlog);
 374:Source\LwIP\src\api/api_lib.c ****   return ERR_ARG;
 375:Source\LwIP\src\api/api_lib.c **** #endif /* LWIP_TCP */
 376:Source\LwIP\src\api/api_lib.c **** }
 377:Source\LwIP\src\api/api_lib.c **** 
 378:Source\LwIP\src\api/api_lib.c **** /**
 379:Source\LwIP\src\api/api_lib.c ****  * @ingroup netconn_tcp
 380:Source\LwIP\src\api/api_lib.c ****  * Accept a new connection on a TCP listening netconn.
 381:Source\LwIP\src\api/api_lib.c ****  *
 382:Source\LwIP\src\api/api_lib.c ****  * @param conn the TCP listen netconn
 383:Source\LwIP\src\api/api_lib.c ****  * @param new_conn pointer where the new connection is stored
 384:Source\LwIP\src\api/api_lib.c ****  * @return ERR_OK if a new connection has been received or an error
 385:Source\LwIP\src\api/api_lib.c ****  *                code otherwise
 386:Source\LwIP\src\api/api_lib.c ****  */
 387:Source\LwIP\src\api/api_lib.c **** err_t
 388:Source\LwIP\src\api/api_lib.c **** netconn_accept(struct netconn *conn, struct netconn **new_conn)
 389:Source\LwIP\src\api/api_lib.c **** {
 390:Source\LwIP\src\api/api_lib.c **** #if LWIP_TCP
ARM GAS  C:\Users\Phuong\AppData\Local\Temp\ccVcCKxe.s 			page 9


 391:Source\LwIP\src\api/api_lib.c ****   void *accept_ptr;
 392:Source\LwIP\src\api/api_lib.c ****   struct netconn *newconn;
 393:Source\LwIP\src\api/api_lib.c **** #if TCP_LISTEN_BACKLOG
 394:Source\LwIP\src\api/api_lib.c ****   API_MSG_VAR_DECLARE(msg);
 395:Source\LwIP\src\api/api_lib.c **** #endif /* TCP_LISTEN_BACKLOG */
 396:Source\LwIP\src\api/api_lib.c **** 
 397:Source\LwIP\src\api/api_lib.c ****   LWIP_ERROR("netconn_accept: invalid pointer",    (new_conn != NULL),                  return ERR_
 398:Source\LwIP\src\api/api_lib.c ****   *new_conn = NULL;
 399:Source\LwIP\src\api/api_lib.c ****   LWIP_ERROR("netconn_accept: invalid conn",       (conn != NULL),                      return ERR_
 400:Source\LwIP\src\api/api_lib.c **** 
 401:Source\LwIP\src\api/api_lib.c ****   if (ERR_IS_FATAL(conn->last_err)) {
 402:Source\LwIP\src\api/api_lib.c ****     /* don't recv on fatal errors: this might block the application task
 403:Source\LwIP\src\api/api_lib.c ****        waiting on acceptmbox forever! */
 404:Source\LwIP\src\api/api_lib.c ****     return conn->last_err;
 405:Source\LwIP\src\api/api_lib.c ****   }
 406:Source\LwIP\src\api/api_lib.c ****   if (!sys_mbox_valid(&conn->acceptmbox)) {
 407:Source\LwIP\src\api/api_lib.c ****     return ERR_CLSD;
 408:Source\LwIP\src\api/api_lib.c ****   }
 409:Source\LwIP\src\api/api_lib.c **** 
 410:Source\LwIP\src\api/api_lib.c **** #if TCP_LISTEN_BACKLOG
 411:Source\LwIP\src\api/api_lib.c ****   API_MSG_VAR_ALLOC(msg);
 412:Source\LwIP\src\api/api_lib.c **** #endif /* TCP_LISTEN_BACKLOG */
 413:Source\LwIP\src\api/api_lib.c **** 
 414:Source\LwIP\src\api/api_lib.c **** #if LWIP_SO_RCVTIMEO
 415:Source\LwIP\src\api/api_lib.c ****   if (sys_arch_mbox_fetch(&conn->acceptmbox, &accept_ptr, conn->recv_timeout) == SYS_ARCH_TIMEOUT) 
 416:Source\LwIP\src\api/api_lib.c **** #if TCP_LISTEN_BACKLOG
 417:Source\LwIP\src\api/api_lib.c ****     API_MSG_VAR_FREE(msg);
 418:Source\LwIP\src\api/api_lib.c **** #endif /* TCP_LISTEN_BACKLOG */
 419:Source\LwIP\src\api/api_lib.c ****     return ERR_TIMEOUT;
 420:Source\LwIP\src\api/api_lib.c ****   }
 421:Source\LwIP\src\api/api_lib.c **** #else
 422:Source\LwIP\src\api/api_lib.c ****   sys_arch_mbox_fetch(&conn->acceptmbox, &accept_ptr, 0);
 423:Source\LwIP\src\api/api_lib.c **** #endif /* LWIP_SO_RCVTIMEO*/
 424:Source\LwIP\src\api/api_lib.c ****   newconn = (struct netconn *)accept_ptr;
 425:Source\LwIP\src\api/api_lib.c ****   /* Register event with callback */
 426:Source\LwIP\src\api/api_lib.c ****   API_EVENT(conn, NETCONN_EVT_RCVMINUS, 0);
 427:Source\LwIP\src\api/api_lib.c **** 
 428:Source\LwIP\src\api/api_lib.c ****   if (accept_ptr == &netconn_aborted) {
 429:Source\LwIP\src\api/api_lib.c ****     /* a connection has been aborted: out of pcbs or out of netconns during accept */
 430:Source\LwIP\src\api/api_lib.c ****     /* @todo: set netconn error, but this would be fatal and thus block further accepts */
 431:Source\LwIP\src\api/api_lib.c **** #if TCP_LISTEN_BACKLOG
 432:Source\LwIP\src\api/api_lib.c ****     API_MSG_VAR_FREE(msg);
 433:Source\LwIP\src\api/api_lib.c **** #endif /* TCP_LISTEN_BACKLOG */
 434:Source\LwIP\src\api/api_lib.c ****     return ERR_ABRT;
 435:Source\LwIP\src\api/api_lib.c ****   }
 436:Source\LwIP\src\api/api_lib.c ****   if (newconn == NULL) {
 437:Source\LwIP\src\api/api_lib.c ****     /* connection has been aborted */
 438:Source\LwIP\src\api/api_lib.c ****     /* in this special case, we set the netconn error from application thread, as
 439:Source\LwIP\src\api/api_lib.c ****        on a ready-to-accept listening netconn, there should not be anything running
 440:Source\LwIP\src\api/api_lib.c ****        in tcpip_thread */
 441:Source\LwIP\src\api/api_lib.c ****     NETCONN_SET_SAFE_ERR(conn, ERR_CLSD);
 442:Source\LwIP\src\api/api_lib.c **** #if TCP_LISTEN_BACKLOG
 443:Source\LwIP\src\api/api_lib.c ****     API_MSG_VAR_FREE(msg);
 444:Source\LwIP\src\api/api_lib.c **** #endif /* TCP_LISTEN_BACKLOG */
 445:Source\LwIP\src\api/api_lib.c ****     return ERR_CLSD;
 446:Source\LwIP\src\api/api_lib.c ****   }
 447:Source\LwIP\src\api/api_lib.c **** #if TCP_LISTEN_BACKLOG
ARM GAS  C:\Users\Phuong\AppData\Local\Temp\ccVcCKxe.s 			page 10


 448:Source\LwIP\src\api/api_lib.c ****   /* Let the stack know that we have accepted the connection. */
 449:Source\LwIP\src\api/api_lib.c ****   API_MSG_VAR_REF(msg).conn = newconn;
 450:Source\LwIP\src\api/api_lib.c ****   /* don't care for the return value of lwip_netconn_do_recv */
 451:Source\LwIP\src\api/api_lib.c ****   netconn_apimsg(lwip_netconn_do_accepted, &API_MSG_VAR_REF(msg));
 452:Source\LwIP\src\api/api_lib.c ****   API_MSG_VAR_FREE(msg);
 453:Source\LwIP\src\api/api_lib.c **** #endif /* TCP_LISTEN_BACKLOG */
 454:Source\LwIP\src\api/api_lib.c **** 
 455:Source\LwIP\src\api/api_lib.c ****   *new_conn = newconn;
 456:Source\LwIP\src\api/api_lib.c ****   /* don't set conn->last_err: it's only ERR_OK, anyway */
 457:Source\LwIP\src\api/api_lib.c ****   return ERR_OK;
 458:Source\LwIP\src\api/api_lib.c **** #else /* LWIP_TCP */
 459:Source\LwIP\src\api/api_lib.c ****   LWIP_UNUSED_ARG(conn);
 460:Source\LwIP\src\api/api_lib.c ****   LWIP_UNUSED_ARG(new_conn);
 461:Source\LwIP\src\api/api_lib.c ****   return ERR_ARG;
 462:Source\LwIP\src\api/api_lib.c **** #endif /* LWIP_TCP */
 463:Source\LwIP\src\api/api_lib.c **** }
 464:Source\LwIP\src\api/api_lib.c **** 
 465:Source\LwIP\src\api/api_lib.c **** /**
 466:Source\LwIP\src\api/api_lib.c ****  * @ingroup netconn_common
 467:Source\LwIP\src\api/api_lib.c ****  * Receive data: actual implementation that doesn't care whether pbuf or netbuf
 468:Source\LwIP\src\api/api_lib.c ****  * is received
 469:Source\LwIP\src\api/api_lib.c ****  *
 470:Source\LwIP\src\api/api_lib.c ****  * @param conn the netconn from which to receive data
 471:Source\LwIP\src\api/api_lib.c ****  * @param new_buf pointer where a new pbuf/netbuf is stored when received data
 472:Source\LwIP\src\api/api_lib.c ****  * @return ERR_OK if data has been received, an error code otherwise (timeout,
 473:Source\LwIP\src\api/api_lib.c ****  *                memory error or another error)
 474:Source\LwIP\src\api/api_lib.c ****  */
 475:Source\LwIP\src\api/api_lib.c **** static err_t
 476:Source\LwIP\src\api/api_lib.c **** netconn_recv_data(struct netconn *conn, void **new_buf)
 477:Source\LwIP\src\api/api_lib.c **** {
 478:Source\LwIP\src\api/api_lib.c ****   void *buf = NULL;
 479:Source\LwIP\src\api/api_lib.c ****   u16_t len;
 480:Source\LwIP\src\api/api_lib.c **** #if LWIP_TCP
 481:Source\LwIP\src\api/api_lib.c ****   API_MSG_VAR_DECLARE(msg);
 482:Source\LwIP\src\api/api_lib.c **** #if LWIP_MPU_COMPATIBLE
 483:Source\LwIP\src\api/api_lib.c ****   msg = NULL;
 484:Source\LwIP\src\api/api_lib.c **** #endif
 485:Source\LwIP\src\api/api_lib.c **** #endif /* LWIP_TCP */
 486:Source\LwIP\src\api/api_lib.c **** 
 487:Source\LwIP\src\api/api_lib.c ****   LWIP_ERROR("netconn_recv: invalid pointer", (new_buf != NULL), return ERR_ARG;);
 488:Source\LwIP\src\api/api_lib.c ****   *new_buf = NULL;
 489:Source\LwIP\src\api/api_lib.c ****   LWIP_ERROR("netconn_recv: invalid conn",    (conn != NULL),    return ERR_ARG;);
 490:Source\LwIP\src\api/api_lib.c **** #if LWIP_TCP
 491:Source\LwIP\src\api/api_lib.c **** #if (LWIP_UDP || LWIP_RAW)
 492:Source\LwIP\src\api/api_lib.c ****   if (NETCONNTYPE_GROUP(conn->type) == NETCONN_TCP)
 493:Source\LwIP\src\api/api_lib.c **** #endif /* (LWIP_UDP || LWIP_RAW) */
 494:Source\LwIP\src\api/api_lib.c ****   {
 495:Source\LwIP\src\api/api_lib.c ****     if (!sys_mbox_valid(&conn->recvmbox)) {
 496:Source\LwIP\src\api/api_lib.c ****       /* This happens when calling this function after receiving FIN */
 497:Source\LwIP\src\api/api_lib.c ****       return sys_mbox_valid(&conn->acceptmbox) ? ERR_CONN : ERR_CLSD;
 498:Source\LwIP\src\api/api_lib.c ****     }
 499:Source\LwIP\src\api/api_lib.c ****   }
 500:Source\LwIP\src\api/api_lib.c **** #endif /* LWIP_TCP */
 501:Source\LwIP\src\api/api_lib.c ****   LWIP_ERROR("netconn_recv: invalid recvmbox", sys_mbox_valid(&conn->recvmbox), return ERR_CONN;);
 502:Source\LwIP\src\api/api_lib.c **** 
 503:Source\LwIP\src\api/api_lib.c ****   if (ERR_IS_FATAL(conn->last_err)) {
 504:Source\LwIP\src\api/api_lib.c ****     /* don't recv on fatal errors: this might block the application task
ARM GAS  C:\Users\Phuong\AppData\Local\Temp\ccVcCKxe.s 			page 11


 505:Source\LwIP\src\api/api_lib.c ****        waiting on recvmbox forever! */
 506:Source\LwIP\src\api/api_lib.c ****     /* @todo: this does not allow us to fetch data that has been put into recvmbox
 507:Source\LwIP\src\api/api_lib.c ****        before the fatal error occurred - is that a problem? */
 508:Source\LwIP\src\api/api_lib.c ****     return conn->last_err;
 509:Source\LwIP\src\api/api_lib.c ****   }
 510:Source\LwIP\src\api/api_lib.c **** #if LWIP_TCP
 511:Source\LwIP\src\api/api_lib.c **** #if (LWIP_UDP || LWIP_RAW)
 512:Source\LwIP\src\api/api_lib.c ****   if (NETCONNTYPE_GROUP(conn->type) == NETCONN_TCP)
 513:Source\LwIP\src\api/api_lib.c **** #endif /* (LWIP_UDP || LWIP_RAW) */
 514:Source\LwIP\src\api/api_lib.c ****   {
 515:Source\LwIP\src\api/api_lib.c ****     API_MSG_VAR_ALLOC(msg);
 516:Source\LwIP\src\api/api_lib.c ****   }
 517:Source\LwIP\src\api/api_lib.c **** #endif /* LWIP_TCP */
 518:Source\LwIP\src\api/api_lib.c **** 
 519:Source\LwIP\src\api/api_lib.c **** #if LWIP_SO_RCVTIMEO
 520:Source\LwIP\src\api/api_lib.c ****   if (sys_arch_mbox_fetch(&conn->recvmbox, &buf, conn->recv_timeout) == SYS_ARCH_TIMEOUT) {
 521:Source\LwIP\src\api/api_lib.c **** #if LWIP_TCP
 522:Source\LwIP\src\api/api_lib.c **** #if (LWIP_UDP || LWIP_RAW)
 523:Source\LwIP\src\api/api_lib.c ****     if (NETCONNTYPE_GROUP(conn->type) == NETCONN_TCP)
 524:Source\LwIP\src\api/api_lib.c **** #endif /* (LWIP_UDP || LWIP_RAW) */
 525:Source\LwIP\src\api/api_lib.c ****     {
 526:Source\LwIP\src\api/api_lib.c ****       API_MSG_VAR_FREE(msg);
 527:Source\LwIP\src\api/api_lib.c ****     }
 528:Source\LwIP\src\api/api_lib.c **** #endif /* LWIP_TCP */
 529:Source\LwIP\src\api/api_lib.c ****     return ERR_TIMEOUT;
 530:Source\LwIP\src\api/api_lib.c ****   }
 531:Source\LwIP\src\api/api_lib.c **** #else
 532:Source\LwIP\src\api/api_lib.c ****   sys_arch_mbox_fetch(&conn->recvmbox, &buf, 0);
 533:Source\LwIP\src\api/api_lib.c **** #endif /* LWIP_SO_RCVTIMEO*/
 534:Source\LwIP\src\api/api_lib.c **** 
 535:Source\LwIP\src\api/api_lib.c **** #if LWIP_TCP
 536:Source\LwIP\src\api/api_lib.c **** #if (LWIP_UDP || LWIP_RAW)
 537:Source\LwIP\src\api/api_lib.c ****   if (NETCONNTYPE_GROUP(conn->type) == NETCONN_TCP)
 538:Source\LwIP\src\api/api_lib.c **** #endif /* (LWIP_UDP || LWIP_RAW) */
 539:Source\LwIP\src\api/api_lib.c ****   {
 540:Source\LwIP\src\api/api_lib.c ****     /* Let the stack know that we have taken the data. */
 541:Source\LwIP\src\api/api_lib.c ****     /* @todo: Speedup: Don't block and wait for the answer here
 542:Source\LwIP\src\api/api_lib.c ****        (to prevent multiple thread-switches). */
 543:Source\LwIP\src\api/api_lib.c ****     API_MSG_VAR_REF(msg).conn = conn;
 544:Source\LwIP\src\api/api_lib.c ****     if (buf != NULL) {
 545:Source\LwIP\src\api/api_lib.c ****       API_MSG_VAR_REF(msg).msg.r.len = ((struct pbuf *)buf)->tot_len;
 546:Source\LwIP\src\api/api_lib.c ****     } else {
 547:Source\LwIP\src\api/api_lib.c ****       API_MSG_VAR_REF(msg).msg.r.len = 1;
 548:Source\LwIP\src\api/api_lib.c ****     }
 549:Source\LwIP\src\api/api_lib.c **** 
 550:Source\LwIP\src\api/api_lib.c ****     /* don't care for the return value of lwip_netconn_do_recv */
 551:Source\LwIP\src\api/api_lib.c ****     netconn_apimsg(lwip_netconn_do_recv, &API_MSG_VAR_REF(msg));
 552:Source\LwIP\src\api/api_lib.c ****     API_MSG_VAR_FREE(msg);
 553:Source\LwIP\src\api/api_lib.c **** 
 554:Source\LwIP\src\api/api_lib.c ****     /* If we are closed, we indicate that we no longer wish to use the socket */
 555:Source\LwIP\src\api/api_lib.c ****     if (buf == NULL) {
 556:Source\LwIP\src\api/api_lib.c ****       API_EVENT(conn, NETCONN_EVT_RCVMINUS, 0);
 557:Source\LwIP\src\api/api_lib.c ****       if (conn->pcb.ip == NULL) {
 558:Source\LwIP\src\api/api_lib.c ****         /* race condition: RST during recv */
 559:Source\LwIP\src\api/api_lib.c ****         return conn->last_err == ERR_OK ? ERR_RST : conn->last_err;
 560:Source\LwIP\src\api/api_lib.c ****       }
 561:Source\LwIP\src\api/api_lib.c ****       /* RX side is closed, so deallocate the recvmbox */
ARM GAS  C:\Users\Phuong\AppData\Local\Temp\ccVcCKxe.s 			page 12


 562:Source\LwIP\src\api/api_lib.c ****       netconn_close_shutdown(conn, NETCONN_SHUT_RD);
 563:Source\LwIP\src\api/api_lib.c ****       /* Don' store ERR_CLSD as conn->err since we are only half-closed */
 564:Source\LwIP\src\api/api_lib.c ****       return ERR_CLSD;
 565:Source\LwIP\src\api/api_lib.c ****     }
 566:Source\LwIP\src\api/api_lib.c ****     len = ((struct pbuf *)buf)->tot_len;
 567:Source\LwIP\src\api/api_lib.c ****   }
 568:Source\LwIP\src\api/api_lib.c **** #endif /* LWIP_TCP */
 569:Source\LwIP\src\api/api_lib.c **** #if LWIP_TCP && (LWIP_UDP || LWIP_RAW)
 570:Source\LwIP\src\api/api_lib.c ****   else
 571:Source\LwIP\src\api/api_lib.c **** #endif /* LWIP_TCP && (LWIP_UDP || LWIP_RAW) */
 572:Source\LwIP\src\api/api_lib.c **** #if (LWIP_UDP || LWIP_RAW)
 573:Source\LwIP\src\api/api_lib.c ****   {
 574:Source\LwIP\src\api/api_lib.c ****     LWIP_ASSERT("buf != NULL", buf != NULL);
 575:Source\LwIP\src\api/api_lib.c ****     len = netbuf_len((struct netbuf*)buf);
 576:Source\LwIP\src\api/api_lib.c ****   }
 577:Source\LwIP\src\api/api_lib.c **** #endif /* (LWIP_UDP || LWIP_RAW) */
 578:Source\LwIP\src\api/api_lib.c **** 
 579:Source\LwIP\src\api/api_lib.c **** #if LWIP_SO_RCVBUF
 580:Source\LwIP\src\api/api_lib.c ****   SYS_ARCH_DEC(conn->recv_avail, len);
 581:Source\LwIP\src\api/api_lib.c **** #endif /* LWIP_SO_RCVBUF */
 582:Source\LwIP\src\api/api_lib.c ****   /* Register event with callback */
 583:Source\LwIP\src\api/api_lib.c ****   API_EVENT(conn, NETCONN_EVT_RCVMINUS, len);
 584:Source\LwIP\src\api/api_lib.c **** 
 585:Source\LwIP\src\api/api_lib.c ****   LWIP_DEBUGF(API_LIB_DEBUG, ("netconn_recv_data: received %p, len=%"U16_F"\n", buf, len));
 586:Source\LwIP\src\api/api_lib.c **** 
 587:Source\LwIP\src\api/api_lib.c ****   *new_buf = buf;
 588:Source\LwIP\src\api/api_lib.c ****   /* don't set conn->last_err: it's only ERR_OK, anyway */
 589:Source\LwIP\src\api/api_lib.c ****   return ERR_OK;
 590:Source\LwIP\src\api/api_lib.c **** }
 591:Source\LwIP\src\api/api_lib.c **** 
 592:Source\LwIP\src\api/api_lib.c **** /**
 593:Source\LwIP\src\api/api_lib.c ****  * @ingroup netconn_tcp
 594:Source\LwIP\src\api/api_lib.c ****  * Receive data (in form of a pbuf) from a TCP netconn
 595:Source\LwIP\src\api/api_lib.c ****  *
 596:Source\LwIP\src\api/api_lib.c ****  * @param conn the netconn from which to receive data
 597:Source\LwIP\src\api/api_lib.c ****  * @param new_buf pointer where a new pbuf is stored when received data
 598:Source\LwIP\src\api/api_lib.c ****  * @return ERR_OK if data has been received, an error code otherwise (timeout,
 599:Source\LwIP\src\api/api_lib.c ****  *                memory error or another error)
 600:Source\LwIP\src\api/api_lib.c ****  *         ERR_ARG if conn is not a TCP netconn
 601:Source\LwIP\src\api/api_lib.c ****  */
 602:Source\LwIP\src\api/api_lib.c **** err_t
 603:Source\LwIP\src\api/api_lib.c **** netconn_recv_tcp_pbuf(struct netconn *conn, struct pbuf **new_buf)
 604:Source\LwIP\src\api/api_lib.c **** {
 605:Source\LwIP\src\api/api_lib.c ****   LWIP_ERROR("netconn_recv: invalid conn", (conn != NULL) &&
 606:Source\LwIP\src\api/api_lib.c ****              NETCONNTYPE_GROUP(netconn_type(conn)) == NETCONN_TCP, return ERR_ARG;);
 607:Source\LwIP\src\api/api_lib.c **** 
 608:Source\LwIP\src\api/api_lib.c ****   return netconn_recv_data(conn, (void **)new_buf);
 609:Source\LwIP\src\api/api_lib.c **** }
 610:Source\LwIP\src\api/api_lib.c **** 
 611:Source\LwIP\src\api/api_lib.c **** /**
 612:Source\LwIP\src\api/api_lib.c ****  * @ingroup netconn_common
 613:Source\LwIP\src\api/api_lib.c ****  * Receive data (in form of a netbuf containing a packet buffer) from a netconn
 614:Source\LwIP\src\api/api_lib.c ****  *
 615:Source\LwIP\src\api/api_lib.c ****  * @param conn the netconn from which to receive data
 616:Source\LwIP\src\api/api_lib.c ****  * @param new_buf pointer where a new netbuf is stored when received data
 617:Source\LwIP\src\api/api_lib.c ****  * @return ERR_OK if data has been received, an error code otherwise (timeout,
 618:Source\LwIP\src\api/api_lib.c ****  *                memory error or another error)
ARM GAS  C:\Users\Phuong\AppData\Local\Temp\ccVcCKxe.s 			page 13


 619:Source\LwIP\src\api/api_lib.c ****  */
 620:Source\LwIP\src\api/api_lib.c **** err_t
 621:Source\LwIP\src\api/api_lib.c **** netconn_recv(struct netconn *conn, struct netbuf **new_buf)
 622:Source\LwIP\src\api/api_lib.c **** {
 623:Source\LwIP\src\api/api_lib.c **** #if LWIP_TCP
 624:Source\LwIP\src\api/api_lib.c ****   struct netbuf *buf = NULL;
 625:Source\LwIP\src\api/api_lib.c ****   err_t err;
 626:Source\LwIP\src\api/api_lib.c **** #endif /* LWIP_TCP */
 627:Source\LwIP\src\api/api_lib.c **** 
 628:Source\LwIP\src\api/api_lib.c ****   LWIP_ERROR("netconn_recv: invalid pointer", (new_buf != NULL), return ERR_ARG;);
 629:Source\LwIP\src\api/api_lib.c ****   *new_buf = NULL;
 630:Source\LwIP\src\api/api_lib.c ****   LWIP_ERROR("netconn_recv: invalid conn",    (conn != NULL),    return ERR_ARG;);
 631:Source\LwIP\src\api/api_lib.c **** 
 632:Source\LwIP\src\api/api_lib.c **** #if LWIP_TCP
 633:Source\LwIP\src\api/api_lib.c **** #if (LWIP_UDP || LWIP_RAW)
 634:Source\LwIP\src\api/api_lib.c ****   if (NETCONNTYPE_GROUP(conn->type) == NETCONN_TCP)
 635:Source\LwIP\src\api/api_lib.c **** #endif /* (LWIP_UDP || LWIP_RAW) */
 636:Source\LwIP\src\api/api_lib.c ****   {
 637:Source\LwIP\src\api/api_lib.c ****     struct pbuf *p = NULL;
 638:Source\LwIP\src\api/api_lib.c ****     /* This is not a listening netconn, since recvmbox is set */
 639:Source\LwIP\src\api/api_lib.c **** 
 640:Source\LwIP\src\api/api_lib.c ****     buf = (struct netbuf *)memp_malloc(MEMP_NETBUF);
 641:Source\LwIP\src\api/api_lib.c ****     if (buf == NULL) {
 642:Source\LwIP\src\api/api_lib.c ****       return ERR_MEM;
 643:Source\LwIP\src\api/api_lib.c ****     }
 644:Source\LwIP\src\api/api_lib.c **** 
 645:Source\LwIP\src\api/api_lib.c ****     err = netconn_recv_data(conn, (void **)&p);
 646:Source\LwIP\src\api/api_lib.c ****     if (err != ERR_OK) {
 647:Source\LwIP\src\api/api_lib.c ****       memp_free(MEMP_NETBUF, buf);
 648:Source\LwIP\src\api/api_lib.c ****       return err;
 649:Source\LwIP\src\api/api_lib.c ****     }
 650:Source\LwIP\src\api/api_lib.c ****     LWIP_ASSERT("p != NULL", p != NULL);
 651:Source\LwIP\src\api/api_lib.c **** 
 652:Source\LwIP\src\api/api_lib.c ****     buf->p = p;
 653:Source\LwIP\src\api/api_lib.c ****     buf->ptr = p;
 654:Source\LwIP\src\api/api_lib.c ****     buf->port = 0;
 655:Source\LwIP\src\api/api_lib.c ****     ip_addr_set_zero(&buf->addr);
 656:Source\LwIP\src\api/api_lib.c ****     *new_buf = buf;
 657:Source\LwIP\src\api/api_lib.c ****     /* don't set conn->last_err: it's only ERR_OK, anyway */
 658:Source\LwIP\src\api/api_lib.c ****     return ERR_OK;
 659:Source\LwIP\src\api/api_lib.c ****   }
 660:Source\LwIP\src\api/api_lib.c **** #endif /* LWIP_TCP */
 661:Source\LwIP\src\api/api_lib.c **** #if LWIP_TCP && (LWIP_UDP || LWIP_RAW)
 662:Source\LwIP\src\api/api_lib.c ****   else
 663:Source\LwIP\src\api/api_lib.c **** #endif /* LWIP_TCP && (LWIP_UDP || LWIP_RAW) */
 664:Source\LwIP\src\api/api_lib.c ****   {
 665:Source\LwIP\src\api/api_lib.c **** #if (LWIP_UDP || LWIP_RAW)
 666:Source\LwIP\src\api/api_lib.c ****     return netconn_recv_data(conn, (void **)new_buf);
 667:Source\LwIP\src\api/api_lib.c **** #endif /* (LWIP_UDP || LWIP_RAW) */
 668:Source\LwIP\src\api/api_lib.c ****   }
 669:Source\LwIP\src\api/api_lib.c **** }
 670:Source\LwIP\src\api/api_lib.c **** 
 671:Source\LwIP\src\api/api_lib.c **** /**
 672:Source\LwIP\src\api/api_lib.c ****  * @ingroup netconn_udp
 673:Source\LwIP\src\api/api_lib.c ****  * Send data (in form of a netbuf) to a specific remote IP address and port.
 674:Source\LwIP\src\api/api_lib.c ****  * Only to be used for UDP and RAW netconns (not TCP).
 675:Source\LwIP\src\api/api_lib.c ****  *
ARM GAS  C:\Users\Phuong\AppData\Local\Temp\ccVcCKxe.s 			page 14


 676:Source\LwIP\src\api/api_lib.c ****  * @param conn the netconn over which to send data
 677:Source\LwIP\src\api/api_lib.c ****  * @param buf a netbuf containing the data to send
 678:Source\LwIP\src\api/api_lib.c ****  * @param addr the remote IP address to which to send the data
 679:Source\LwIP\src\api/api_lib.c ****  * @param port the remote port to which to send the data
 680:Source\LwIP\src\api/api_lib.c ****  * @return ERR_OK if data was sent, any other err_t on error
 681:Source\LwIP\src\api/api_lib.c ****  */
 682:Source\LwIP\src\api/api_lib.c **** err_t
 683:Source\LwIP\src\api/api_lib.c **** netconn_sendto(struct netconn *conn, struct netbuf *buf, const ip_addr_t *addr, u16_t port)
 684:Source\LwIP\src\api/api_lib.c **** {
 685:Source\LwIP\src\api/api_lib.c ****   if (buf != NULL) {
 686:Source\LwIP\src\api/api_lib.c ****     ip_addr_set(&buf->addr, addr);
 687:Source\LwIP\src\api/api_lib.c ****     buf->port = port;
 688:Source\LwIP\src\api/api_lib.c ****     return netconn_send(conn, buf);
 689:Source\LwIP\src\api/api_lib.c ****   }
 690:Source\LwIP\src\api/api_lib.c ****   return ERR_VAL;
 691:Source\LwIP\src\api/api_lib.c **** }
 692:Source\LwIP\src\api/api_lib.c **** 
 693:Source\LwIP\src\api/api_lib.c **** /**
 694:Source\LwIP\src\api/api_lib.c ****  * @ingroup netconn_udp
 695:Source\LwIP\src\api/api_lib.c ****  * Send data over a UDP or RAW netconn (that is already connected).
 696:Source\LwIP\src\api/api_lib.c ****  *
 697:Source\LwIP\src\api/api_lib.c ****  * @param conn the UDP or RAW netconn over which to send data
 698:Source\LwIP\src\api/api_lib.c ****  * @param buf a netbuf containing the data to send
 699:Source\LwIP\src\api/api_lib.c ****  * @return ERR_OK if data was sent, any other err_t on error
 700:Source\LwIP\src\api/api_lib.c ****  */
 701:Source\LwIP\src\api/api_lib.c **** err_t
 702:Source\LwIP\src\api/api_lib.c **** netconn_send(struct netconn *conn, struct netbuf *buf)
 703:Source\LwIP\src\api/api_lib.c **** {
 704:Source\LwIP\src\api/api_lib.c ****   API_MSG_VAR_DECLARE(msg);
 705:Source\LwIP\src\api/api_lib.c ****   err_t err;
 706:Source\LwIP\src\api/api_lib.c **** 
 707:Source\LwIP\src\api/api_lib.c ****   LWIP_ERROR("netconn_send: invalid conn",  (conn != NULL), return ERR_ARG;);
 708:Source\LwIP\src\api/api_lib.c **** 
 709:Source\LwIP\src\api/api_lib.c ****   LWIP_DEBUGF(API_LIB_DEBUG, ("netconn_send: sending %"U16_F" bytes\n", buf->p->tot_len));
 710:Source\LwIP\src\api/api_lib.c **** 
 711:Source\LwIP\src\api/api_lib.c ****   API_MSG_VAR_ALLOC(msg);
 712:Source\LwIP\src\api/api_lib.c ****   API_MSG_VAR_REF(msg).conn = conn;
 713:Source\LwIP\src\api/api_lib.c ****   API_MSG_VAR_REF(msg).msg.b = buf;
 714:Source\LwIP\src\api/api_lib.c ****   err = netconn_apimsg(lwip_netconn_do_send, &API_MSG_VAR_REF(msg));
 715:Source\LwIP\src\api/api_lib.c ****   API_MSG_VAR_FREE(msg);
 716:Source\LwIP\src\api/api_lib.c **** 
 717:Source\LwIP\src\api/api_lib.c ****   return err;
 718:Source\LwIP\src\api/api_lib.c **** }
 719:Source\LwIP\src\api/api_lib.c **** 
 720:Source\LwIP\src\api/api_lib.c **** /**
 721:Source\LwIP\src\api/api_lib.c ****  * @ingroup netconn_tcp
 722:Source\LwIP\src\api/api_lib.c ****  * Send data over a TCP netconn.
 723:Source\LwIP\src\api/api_lib.c ****  *
 724:Source\LwIP\src\api/api_lib.c ****  * @param conn the TCP netconn over which to send data
 725:Source\LwIP\src\api/api_lib.c ****  * @param dataptr pointer to the application buffer that contains the data to send
 726:Source\LwIP\src\api/api_lib.c ****  * @param size size of the application data to send
 727:Source\LwIP\src\api/api_lib.c ****  * @param apiflags combination of following flags :
 728:Source\LwIP\src\api/api_lib.c ****  * - NETCONN_COPY: data will be copied into memory belonging to the stack
 729:Source\LwIP\src\api/api_lib.c ****  * - NETCONN_MORE: for TCP connection, PSH flag will be set on last segment sent
 730:Source\LwIP\src\api/api_lib.c ****  * - NETCONN_DONTBLOCK: only write the data if all data can be written at once
 731:Source\LwIP\src\api/api_lib.c ****  * @param bytes_written pointer to a location that receives the number of written bytes
 732:Source\LwIP\src\api/api_lib.c ****  * @return ERR_OK if data was sent, any other err_t on error
ARM GAS  C:\Users\Phuong\AppData\Local\Temp\ccVcCKxe.s 			page 15


 733:Source\LwIP\src\api/api_lib.c ****  */
 734:Source\LwIP\src\api/api_lib.c **** err_t
 735:Source\LwIP\src\api/api_lib.c **** netconn_write_partly(struct netconn *conn, const void *dataptr, size_t size,
 736:Source\LwIP\src\api/api_lib.c ****                      u8_t apiflags, size_t *bytes_written)
 737:Source\LwIP\src\api/api_lib.c **** {
 738:Source\LwIP\src\api/api_lib.c ****   API_MSG_VAR_DECLARE(msg);
 739:Source\LwIP\src\api/api_lib.c ****   err_t err;
 740:Source\LwIP\src\api/api_lib.c ****   u8_t dontblock;
 741:Source\LwIP\src\api/api_lib.c **** 
 742:Source\LwIP\src\api/api_lib.c ****   LWIP_ERROR("netconn_write: invalid conn",  (conn != NULL), return ERR_ARG;);
 743:Source\LwIP\src\api/api_lib.c ****   LWIP_ERROR("netconn_write: invalid conn->type",  (NETCONNTYPE_GROUP(conn->type)== NETCONN_TCP), r
 744:Source\LwIP\src\api/api_lib.c ****   if (size == 0) {
 745:Source\LwIP\src\api/api_lib.c ****     return ERR_OK;
 746:Source\LwIP\src\api/api_lib.c ****   }
 747:Source\LwIP\src\api/api_lib.c ****   dontblock = netconn_is_nonblocking(conn) || (apiflags & NETCONN_DONTBLOCK);
 748:Source\LwIP\src\api/api_lib.c **** #if LWIP_SO_SNDTIMEO
 749:Source\LwIP\src\api/api_lib.c ****   if (conn->send_timeout != 0) {
 750:Source\LwIP\src\api/api_lib.c ****     dontblock = 1;
 751:Source\LwIP\src\api/api_lib.c ****   }
 752:Source\LwIP\src\api/api_lib.c **** #endif /* LWIP_SO_SNDTIMEO */
 753:Source\LwIP\src\api/api_lib.c ****   if (dontblock && !bytes_written) {
 754:Source\LwIP\src\api/api_lib.c ****     /* This implies netconn_write() cannot be used for non-blocking send, since
 755:Source\LwIP\src\api/api_lib.c ****        it has no way to return the number of bytes written. */
 756:Source\LwIP\src\api/api_lib.c ****     return ERR_VAL;
 757:Source\LwIP\src\api/api_lib.c ****   }
 758:Source\LwIP\src\api/api_lib.c **** 
 759:Source\LwIP\src\api/api_lib.c ****   API_MSG_VAR_ALLOC(msg);
 760:Source\LwIP\src\api/api_lib.c ****   /* non-blocking write sends as much  */
 761:Source\LwIP\src\api/api_lib.c ****   API_MSG_VAR_REF(msg).conn = conn;
 762:Source\LwIP\src\api/api_lib.c ****   API_MSG_VAR_REF(msg).msg.w.dataptr = dataptr;
 763:Source\LwIP\src\api/api_lib.c ****   API_MSG_VAR_REF(msg).msg.w.apiflags = apiflags;
 764:Source\LwIP\src\api/api_lib.c ****   API_MSG_VAR_REF(msg).msg.w.len = size;
 765:Source\LwIP\src\api/api_lib.c **** #if LWIP_SO_SNDTIMEO
 766:Source\LwIP\src\api/api_lib.c ****   if (conn->send_timeout != 0) {
 767:Source\LwIP\src\api/api_lib.c ****     /* get the time we started, which is later compared to
 768:Source\LwIP\src\api/api_lib.c ****         sys_now() + conn->send_timeout */
 769:Source\LwIP\src\api/api_lib.c ****     API_MSG_VAR_REF(msg).msg.w.time_started = sys_now();
 770:Source\LwIP\src\api/api_lib.c ****   } else {
 771:Source\LwIP\src\api/api_lib.c ****     API_MSG_VAR_REF(msg).msg.w.time_started = 0;
 772:Source\LwIP\src\api/api_lib.c ****   }
 773:Source\LwIP\src\api/api_lib.c **** #endif /* LWIP_SO_SNDTIMEO */
 774:Source\LwIP\src\api/api_lib.c **** 
 775:Source\LwIP\src\api/api_lib.c ****   /* For locking the core: this _can_ be delayed on low memory/low send buffer,
 776:Source\LwIP\src\api/api_lib.c ****      but if it is, this is done inside api_msg.c:do_write(), so we can use the
 777:Source\LwIP\src\api/api_lib.c ****      non-blocking version here. */
 778:Source\LwIP\src\api/api_lib.c ****   err = netconn_apimsg(lwip_netconn_do_write, &API_MSG_VAR_REF(msg));
 779:Source\LwIP\src\api/api_lib.c ****   if ((err == ERR_OK) && (bytes_written != NULL)) {
 780:Source\LwIP\src\api/api_lib.c ****     if (dontblock) {
 781:Source\LwIP\src\api/api_lib.c ****       /* nonblocking write: maybe the data has been sent partly */
 782:Source\LwIP\src\api/api_lib.c ****       *bytes_written = API_MSG_VAR_REF(msg).msg.w.len;
 783:Source\LwIP\src\api/api_lib.c ****     } else {
 784:Source\LwIP\src\api/api_lib.c ****       /* blocking call succeeded: all data has been sent if it */
 785:Source\LwIP\src\api/api_lib.c ****       *bytes_written = size;
 786:Source\LwIP\src\api/api_lib.c ****     }
 787:Source\LwIP\src\api/api_lib.c ****   }
 788:Source\LwIP\src\api/api_lib.c ****   API_MSG_VAR_FREE(msg);
 789:Source\LwIP\src\api/api_lib.c **** 
ARM GAS  C:\Users\Phuong\AppData\Local\Temp\ccVcCKxe.s 			page 16


 790:Source\LwIP\src\api/api_lib.c ****   return err;
 791:Source\LwIP\src\api/api_lib.c **** }
 792:Source\LwIP\src\api/api_lib.c **** 
 793:Source\LwIP\src\api/api_lib.c **** /**
 794:Source\LwIP\src\api/api_lib.c ****  * @ingroup netconn_tcp
 795:Source\LwIP\src\api/api_lib.c ****  * Close or shutdown a TCP netconn (doesn't delete it).
 796:Source\LwIP\src\api/api_lib.c ****  *
 797:Source\LwIP\src\api/api_lib.c ****  * @param conn the TCP netconn to close or shutdown
 798:Source\LwIP\src\api/api_lib.c ****  * @param how fully close or only shutdown one side?
 799:Source\LwIP\src\api/api_lib.c ****  * @return ERR_OK if the netconn was closed, any other err_t on error
 800:Source\LwIP\src\api/api_lib.c ****  */
 801:Source\LwIP\src\api/api_lib.c **** static err_t
 802:Source\LwIP\src\api/api_lib.c **** netconn_close_shutdown(struct netconn *conn, u8_t how)
 803:Source\LwIP\src\api/api_lib.c **** {
  67              		.loc 1 803 0
  68              		.cfi_startproc
  69              		@ args = 0, pretend = 0, frame = 24
  70              		@ frame_needed = 0, uses_anonymous_args = 0
  71              	.LVL4:
  72 0000 00B5     		push	{lr}
  73              		.cfi_def_cfa_offset 4
  74              		.cfi_offset 14, -4
  75 0002 87B0     		sub	sp, sp, #28
  76              		.cfi_def_cfa_offset 32
 804:Source\LwIP\src\api/api_lib.c ****   API_MSG_VAR_DECLARE(msg);
 805:Source\LwIP\src\api/api_lib.c ****   err_t err;
 806:Source\LwIP\src\api/api_lib.c ****   LWIP_UNUSED_ARG(how);
 807:Source\LwIP\src\api/api_lib.c **** 
 808:Source\LwIP\src\api/api_lib.c ****   LWIP_ERROR("netconn_close: invalid conn",  (conn != NULL), return ERR_ARG;);
  77              		.loc 1 808 0
  78 0004 0028     		cmp	r0, #0
  79 0006 09D0     		beq	.L6
 809:Source\LwIP\src\api/api_lib.c **** 
 810:Source\LwIP\src\api/api_lib.c ****   API_MSG_VAR_ALLOC(msg);
 811:Source\LwIP\src\api/api_lib.c ****   API_MSG_VAR_REF(msg).conn = conn;
  80              		.loc 1 811 0
  81 0008 01AB     		add	r3, sp, #4
  82 000a 0190     		str	r0, [sp, #4]
 812:Source\LwIP\src\api/api_lib.c **** #if LWIP_TCP
 813:Source\LwIP\src\api/api_lib.c ****   /* shutting down both ends is the same as closing */
 814:Source\LwIP\src\api/api_lib.c ****   API_MSG_VAR_REF(msg).msg.sd.shut = how;
  83              		.loc 1 814 0
  84 000c 1972     		strb	r1, [r3, #8]
 815:Source\LwIP\src\api/api_lib.c **** #if LWIP_SO_SNDTIMEO || LWIP_SO_LINGER
 816:Source\LwIP\src\api/api_lib.c ****   /* get the time we started, which is later compared to
 817:Source\LwIP\src\api/api_lib.c ****      sys_now() + conn->send_timeout */
 818:Source\LwIP\src\api/api_lib.c ****   API_MSG_VAR_REF(msg).msg.sd.time_started = sys_now();
 819:Source\LwIP\src\api/api_lib.c **** #else /* LWIP_SO_SNDTIMEO || LWIP_SO_LINGER */
 820:Source\LwIP\src\api/api_lib.c ****   API_MSG_VAR_REF(msg).msg.sd.polls_left =
  85              		.loc 1 820 0
  86 000e 2922     		movs	r2, #41
  87 0010 5A72     		strb	r2, [r3, #9]
 821:Source\LwIP\src\api/api_lib.c ****     ((LWIP_TCP_CLOSE_TIMEOUT_MS_DEFAULT + TCP_SLOW_INTERVAL - 1) / TCP_SLOW_INTERVAL) + 1;
 822:Source\LwIP\src\api/api_lib.c **** #endif /* LWIP_SO_SNDTIMEO || LWIP_SO_LINGER */
 823:Source\LwIP\src\api/api_lib.c **** #endif /* LWIP_TCP */
 824:Source\LwIP\src\api/api_lib.c ****   err = netconn_apimsg(lwip_netconn_do_close, &API_MSG_VAR_REF(msg));
  88              		.loc 1 824 0
ARM GAS  C:\Users\Phuong\AppData\Local\Temp\ccVcCKxe.s 			page 17


  89 0012 1900     		movs	r1, r3
  90              	.LVL5:
  91 0014 0348     		ldr	r0, .L7
  92              	.LVL6:
  93 0016 FFF7FEFF 		bl	netconn_apimsg
  94              	.LVL7:
 825:Source\LwIP\src\api/api_lib.c ****   API_MSG_VAR_FREE(msg);
 826:Source\LwIP\src\api/api_lib.c **** 
 827:Source\LwIP\src\api/api_lib.c ****   return err;
  95              		.loc 1 827 0
  96 001a 01E0     		b	.L5
  97              	.LVL8:
  98              	.L6:
 808:Source\LwIP\src\api/api_lib.c **** 
  99              		.loc 1 808 0
 100 001c 1020     		movs	r0, #16
 101              	.LVL9:
 102 001e 4042     		rsbs	r0, r0, #0
 103              	.LVL10:
 104              	.L5:
 828:Source\LwIP\src\api/api_lib.c **** }
 105              		.loc 1 828 0
 106 0020 07B0     		add	sp, sp, #28
 107              		@ sp needed
 108 0022 00BD     		pop	{pc}
 109              	.L8:
 110              		.align	2
 111              	.L7:
 112 0024 00000000 		.word	lwip_netconn_do_close
 113              		.cfi_endproc
 114              	.LFE68:
 115              		.size	netconn_close_shutdown, .-netconn_close_shutdown
 116              		.section	.text.netconn_recv_data,"ax",%progbits
 117              		.align	2
 118              		.code	16
 119              		.thumb_func
 120              		.type	netconn_recv_data, %function
 121              	netconn_recv_data:
 122              	.LFB62:
 477:Source\LwIP\src\api/api_lib.c ****   void *buf = NULL;
 123              		.loc 1 477 0
 124              		.cfi_startproc
 125              		@ args = 0, pretend = 0, frame = 24
 126              		@ frame_needed = 0, uses_anonymous_args = 0
 127              	.LVL11:
 128 0000 70B5     		push	{r4, r5, r6, lr}
 129              		.cfi_def_cfa_offset 16
 130              		.cfi_offset 4, -16
 131              		.cfi_offset 5, -12
 132              		.cfi_offset 6, -8
 133              		.cfi_offset 14, -4
 134 0002 86B0     		sub	sp, sp, #24
 135              		.cfi_def_cfa_offset 40
 136 0004 0400     		movs	r4, r0
 137 0006 0D00     		movs	r5, r1
 478:Source\LwIP\src\api/api_lib.c ****   u16_t len;
 138              		.loc 1 478 0
ARM GAS  C:\Users\Phuong\AppData\Local\Temp\ccVcCKxe.s 			page 18


 139 0008 0023     		movs	r3, #0
 140 000a 0593     		str	r3, [sp, #20]
 487:Source\LwIP\src\api/api_lib.c ****   *new_buf = NULL;
 141              		.loc 1 487 0
 142 000c 0029     		cmp	r1, #0
 143 000e 63D0     		beq	.L20
 488:Source\LwIP\src\api/api_lib.c ****   LWIP_ERROR("netconn_recv: invalid conn",    (conn != NULL),    return ERR_ARG;);
 144              		.loc 1 488 0
 145 0010 0B60     		str	r3, [r1]
 489:Source\LwIP\src\api/api_lib.c **** #if LWIP_TCP
 146              		.loc 1 489 0
 147 0012 0028     		cmp	r0, #0
 148 0014 63D0     		beq	.L21
 492:Source\LwIP\src\api/api_lib.c **** #endif /* (LWIP_UDP || LWIP_RAW) */
 149              		.loc 1 492 0
 150 0016 0378     		ldrb	r3, [r0]
 151 0018 0F22     		movs	r2, #15
 152 001a 9343     		bics	r3, r2
 153 001c 102B     		cmp	r3, #16
 154 001e 0DD1     		bne	.L11
 495:Source\LwIP\src\api/api_lib.c ****       /* This happens when calling this function after receiving FIN */
 155              		.loc 1 495 0
 156 0020 1030     		adds	r0, r0, #16
 157              	.LVL12:
 158 0022 FFF7FEFF 		bl	sys_mbox_valid
 159              	.LVL13:
 160 0026 0028     		cmp	r0, #0
 161 0028 08D1     		bne	.L11
 497:Source\LwIP\src\api/api_lib.c ****     }
 162              		.loc 1 497 0
 163 002a 2000     		movs	r0, r4
 164 002c 1430     		adds	r0, r0, #20
 165 002e FFF7FEFF 		bl	sys_mbox_valid
 166              	.LVL14:
 167 0032 0028     		cmp	r0, #0
 168 0034 56D0     		beq	.L22
 169 0036 0B20     		movs	r0, #11
 170 0038 4042     		rsbs	r0, r0, #0
 171 003a 5BE0     		b	.L10
 172              	.L11:
 501:Source\LwIP\src\api/api_lib.c **** 
 173              		.loc 1 501 0
 174 003c 2600     		movs	r6, r4
 175 003e 1036     		adds	r6, r6, #16
 176 0040 3000     		movs	r0, r6
 177 0042 FFF7FEFF 		bl	sys_mbox_valid
 178              	.LVL15:
 179 0046 0028     		cmp	r0, #0
 180 0048 4FD0     		beq	.L23
 503:Source\LwIP\src\api/api_lib.c ****     /* don't recv on fatal errors: this might block the application task
 181              		.loc 1 503 0
 182 004a 0820     		movs	r0, #8
 183 004c 2056     		ldrsb	r0, [r4, r0]
 184 004e 0300     		movs	r3, r0
 185 0050 0C33     		adds	r3, r3, #12
 186 0052 4FDB     		blt	.L10
 520:Source\LwIP\src\api/api_lib.c **** #if LWIP_TCP
ARM GAS  C:\Users\Phuong\AppData\Local\Temp\ccVcCKxe.s 			page 19


 187              		.loc 1 520 0
 188 0054 E269     		ldr	r2, [r4, #28]
 189 0056 05A9     		add	r1, sp, #20
 190 0058 3000     		movs	r0, r6
 191 005a FFF7FEFF 		bl	sys_arch_mbox_fetch
 192              	.LVL16:
 193 005e 431C     		adds	r3, r0, #1
 194 0060 46D0     		beq	.L24
 537:Source\LwIP\src\api/api_lib.c **** #endif /* (LWIP_UDP || LWIP_RAW) */
 195              		.loc 1 537 0
 196 0062 2378     		ldrb	r3, [r4]
 197 0064 0F22     		movs	r2, #15
 198 0066 9343     		bics	r3, r2
 199 0068 102B     		cmp	r3, #16
 200 006a 28D1     		bne	.L12
 543:Source\LwIP\src\api/api_lib.c ****     if (buf != NULL) {
 201              		.loc 1 543 0
 202 006c 0094     		str	r4, [sp]
 544:Source\LwIP\src\api/api_lib.c ****       API_MSG_VAR_REF(msg).msg.r.len = ((struct pbuf *)buf)->tot_len;
 203              		.loc 1 544 0
 204 006e 059B     		ldr	r3, [sp, #20]
 205 0070 002B     		cmp	r3, #0
 206 0072 02D0     		beq	.L13
 545:Source\LwIP\src\api/api_lib.c ****     } else {
 207              		.loc 1 545 0
 208 0074 1B89     		ldrh	r3, [r3, #8]
 209 0076 0293     		str	r3, [sp, #8]
 210 0078 01E0     		b	.L14
 211              	.L13:
 547:Source\LwIP\src\api/api_lib.c ****     }
 212              		.loc 1 547 0
 213 007a 0123     		movs	r3, #1
 214 007c 0293     		str	r3, [sp, #8]
 215              	.L14:
 551:Source\LwIP\src\api/api_lib.c ****     API_MSG_VAR_FREE(msg);
 216              		.loc 1 551 0
 217 007e 6946     		mov	r1, sp
 218 0080 1D48     		ldr	r0, .L25
 219 0082 FFF7FEFF 		bl	netconn_apimsg
 220              	.LVL17:
 555:Source\LwIP\src\api/api_lib.c ****       API_EVENT(conn, NETCONN_EVT_RCVMINUS, 0);
 221              		.loc 1 555 0
 222 0086 059B     		ldr	r3, [sp, #20]
 223 0088 002B     		cmp	r3, #0
 224 008a 16D1     		bne	.L15
 556:Source\LwIP\src\api/api_lib.c ****       if (conn->pcb.ip == NULL) {
 225              		.loc 1 556 0
 226 008c E36A     		ldr	r3, [r4, #44]
 227 008e 002B     		cmp	r3, #0
 228 0090 03D0     		beq	.L16
 556:Source\LwIP\src\api/api_lib.c ****       if (conn->pcb.ip == NULL) {
 229              		.loc 1 556 0 is_stmt 0 discriminator 1
 230 0092 0022     		movs	r2, #0
 231 0094 0121     		movs	r1, #1
 232 0096 2000     		movs	r0, r4
 233 0098 9847     		blx	r3
 234              	.LVL18:
ARM GAS  C:\Users\Phuong\AppData\Local\Temp\ccVcCKxe.s 			page 20


 235              	.L16:
 557:Source\LwIP\src\api/api_lib.c ****         /* race condition: RST during recv */
 236              		.loc 1 557 0 is_stmt 1
 237 009a 6368     		ldr	r3, [r4, #4]
 238 009c 002B     		cmp	r3, #0
 239 009e 05D1     		bne	.L17
 559:Source\LwIP\src\api/api_lib.c ****       }
 240              		.loc 1 559 0
 241 00a0 0820     		movs	r0, #8
 242 00a2 2056     		ldrsb	r0, [r4, r0]
 243 00a4 0028     		cmp	r0, #0
 244 00a6 25D1     		bne	.L10
 245 00a8 0E38     		subs	r0, r0, #14
 246 00aa 23E0     		b	.L10
 247              	.L17:
 562:Source\LwIP\src\api/api_lib.c ****       /* Don' store ERR_CLSD as conn->err since we are only half-closed */
 248              		.loc 1 562 0
 249 00ac 0121     		movs	r1, #1
 250 00ae 2000     		movs	r0, r4
 251 00b0 FFF7FEFF 		bl	netconn_close_shutdown
 252              	.LVL19:
 564:Source\LwIP\src\api/api_lib.c ****     }
 253              		.loc 1 564 0
 254 00b4 0F20     		movs	r0, #15
 255 00b6 4042     		rsbs	r0, r0, #0
 256 00b8 1CE0     		b	.L10
 257              	.L15:
 566:Source\LwIP\src\api/api_lib.c ****   }
 258              		.loc 1 566 0
 259 00ba 1A89     		ldrh	r2, [r3, #8]
 260              	.LVL20:
 261 00bc 02E0     		b	.L18
 262              	.LVL21:
 263              	.L12:
 575:Source\LwIP\src\api/api_lib.c ****   }
 264              		.loc 1 575 0
 265 00be 059B     		ldr	r3, [sp, #20]
 266 00c0 1B68     		ldr	r3, [r3]
 267 00c2 1A89     		ldrh	r2, [r3, #8]
 268              	.LVL22:
 269              	.L18:
 583:Source\LwIP\src\api/api_lib.c **** 
 270              		.loc 1 583 0
 271 00c4 E36A     		ldr	r3, [r4, #44]
 272 00c6 002B     		cmp	r3, #0
 273 00c8 02D0     		beq	.L19
 583:Source\LwIP\src\api/api_lib.c **** 
 274              		.loc 1 583 0 is_stmt 0 discriminator 1
 275 00ca 0121     		movs	r1, #1
 276 00cc 2000     		movs	r0, r4
 277 00ce 9847     		blx	r3
 278              	.LVL23:
 279              	.L19:
 587:Source\LwIP\src\api/api_lib.c ****   /* don't set conn->last_err: it's only ERR_OK, anyway */
 280              		.loc 1 587 0 is_stmt 1
 281 00d0 059B     		ldr	r3, [sp, #20]
 282 00d2 2B60     		str	r3, [r5]
ARM GAS  C:\Users\Phuong\AppData\Local\Temp\ccVcCKxe.s 			page 21


 589:Source\LwIP\src\api/api_lib.c **** }
 283              		.loc 1 589 0
 284 00d4 0020     		movs	r0, #0
 285 00d6 0DE0     		b	.L10
 286              	.LVL24:
 287              	.L20:
 487:Source\LwIP\src\api/api_lib.c ****   *new_buf = NULL;
 288              		.loc 1 487 0
 289 00d8 1020     		movs	r0, #16
 290              	.LVL25:
 291 00da 4042     		rsbs	r0, r0, #0
 292 00dc 0AE0     		b	.L10
 293              	.LVL26:
 294              	.L21:
 489:Source\LwIP\src\api/api_lib.c **** #if LWIP_TCP
 295              		.loc 1 489 0
 296 00de 1020     		movs	r0, #16
 297              	.LVL27:
 298 00e0 4042     		rsbs	r0, r0, #0
 299 00e2 07E0     		b	.L10
 300              	.LVL28:
 301              	.L22:
 497:Source\LwIP\src\api/api_lib.c ****     }
 302              		.loc 1 497 0
 303 00e4 0F20     		movs	r0, #15
 304 00e6 4042     		rsbs	r0, r0, #0
 305 00e8 04E0     		b	.L10
 306              	.L23:
 501:Source\LwIP\src\api/api_lib.c **** 
 307              		.loc 1 501 0
 308 00ea 0B20     		movs	r0, #11
 309 00ec 4042     		rsbs	r0, r0, #0
 310 00ee 01E0     		b	.L10
 311              	.L24:
 529:Source\LwIP\src\api/api_lib.c ****   }
 312              		.loc 1 529 0
 313 00f0 0320     		movs	r0, #3
 314 00f2 4042     		rsbs	r0, r0, #0
 315              	.L10:
 590:Source\LwIP\src\api/api_lib.c **** 
 316              		.loc 1 590 0
 317 00f4 06B0     		add	sp, sp, #24
 318              		@ sp needed
 319              	.LVL29:
 320              	.LVL30:
 321 00f6 70BD     		pop	{r4, r5, r6, pc}
 322              	.L26:
 323              		.align	2
 324              	.L25:
 325 00f8 00000000 		.word	lwip_netconn_do_recv
 326              		.cfi_endproc
 327              	.LFE62:
 328              		.size	netconn_recv_data, .-netconn_recv_data
 329              		.section	.text.netconn_new_with_proto_and_callback,"ax",%progbits
 330              		.align	2
 331              		.global	netconn_new_with_proto_and_callback
 332              		.code	16
ARM GAS  C:\Users\Phuong\AppData\Local\Temp\ccVcCKxe.s 			page 22


 333              		.thumb_func
 334              		.type	netconn_new_with_proto_and_callback, %function
 335              	netconn_new_with_proto_and_callback:
 336              	.LFB54:
 124:Source\LwIP\src\api/api_lib.c ****   struct netconn *conn;
 337              		.loc 1 124 0
 338              		.cfi_startproc
 339              		@ args = 0, pretend = 0, frame = 24
 340              		@ frame_needed = 0, uses_anonymous_args = 0
 341              	.LVL31:
 342 0000 70B5     		push	{r4, r5, r6, lr}
 343              		.cfi_def_cfa_offset 16
 344              		.cfi_offset 4, -16
 345              		.cfi_offset 5, -12
 346              		.cfi_offset 6, -8
 347              		.cfi_offset 14, -4
 348 0002 86B0     		sub	sp, sp, #24
 349              		.cfi_def_cfa_offset 40
 350 0004 0D00     		movs	r5, r1
 129:Source\LwIP\src\api/api_lib.c ****   if (conn != NULL) {
 351              		.loc 1 129 0
 352 0006 1100     		movs	r1, r2
 353              	.LVL32:
 354 0008 FFF7FEFF 		bl	netconn_alloc
 355              	.LVL33:
 356 000c 041E     		subs	r4, r0, #0
 357              	.LVL34:
 130:Source\LwIP\src\api/api_lib.c ****     err_t err;
 358              		.loc 1 130 0
 359 000e 21D0     		beq	.L29
 360              	.LBB2:
 133:Source\LwIP\src\api/api_lib.c ****     API_MSG_VAR_REF(msg).conn = conn;
 361              		.loc 1 133 0
 362 0010 01A9     		add	r1, sp, #4
 363 0012 0D72     		strb	r5, [r1, #8]
 134:Source\LwIP\src\api/api_lib.c ****     err = netconn_apimsg(lwip_netconn_do_newconn, &API_MSG_VAR_REF(msg));
 364              		.loc 1 134 0
 365 0014 0190     		str	r0, [sp, #4]
 135:Source\LwIP\src\api/api_lib.c ****     if (err != ERR_OK) {
 366              		.loc 1 135 0
 367 0016 1148     		ldr	r0, .L31
 368              	.LVL35:
 369 0018 FFF7FEFF 		bl	netconn_apimsg
 370              	.LVL36:
 136:Source\LwIP\src\api/api_lib.c ****       LWIP_ASSERT("freeing conn without freeing pcb", conn->pcb.tcp == NULL);
 371              		.loc 1 136 0
 372 001c 0028     		cmp	r0, #0
 373 001e 1AD0     		beq	.L30
 138:Source\LwIP\src\api/api_lib.c **** #if LWIP_TCP
 374              		.loc 1 138 0
 375 0020 2500     		movs	r5, r4
 376 0022 1035     		adds	r5, r5, #16
 377 0024 2800     		movs	r0, r5
 378              	.LVL37:
 379 0026 FFF7FEFF 		bl	sys_mbox_valid
 380              	.LVL38:
 140:Source\LwIP\src\api/api_lib.c **** #endif /* LWIP_TCP */
ARM GAS  C:\Users\Phuong\AppData\Local\Temp\ccVcCKxe.s 			page 23


 381              		.loc 1 140 0
 382 002a 2000     		movs	r0, r4
 383 002c 1430     		adds	r0, r0, #20
 384 002e FFF7FEFF 		bl	sys_mbox_valid
 385              	.LVL39:
 143:Source\LwIP\src\api/api_lib.c ****       sys_sem_free(&conn->op_completed);
 386              		.loc 1 143 0
 387 0032 2600     		movs	r6, r4
 388 0034 0C36     		adds	r6, r6, #12
 389 0036 3000     		movs	r0, r6
 390 0038 FFF7FEFF 		bl	sys_sem_valid
 391              	.LVL40:
 144:Source\LwIP\src\api/api_lib.c **** #endif /* !LWIP_NETCONN_SEM_PER_THREAD */
 392              		.loc 1 144 0
 393 003c 3000     		movs	r0, r6
 394 003e FFF7FEFF 		bl	sys_sem_free
 395              	.LVL41:
 146:Source\LwIP\src\api/api_lib.c ****       memp_free(MEMP_NETCONN, conn);
 396              		.loc 1 146 0
 397 0042 2800     		movs	r0, r5
 398 0044 FFF7FEFF 		bl	sys_mbox_free
 399              	.LVL42:
 147:Source\LwIP\src\api/api_lib.c ****       API_MSG_VAR_FREE(msg);
 400              		.loc 1 147 0
 401 0048 2100     		movs	r1, r4
 402 004a 0720     		movs	r0, #7
 403 004c FFF7FEFF 		bl	memp_free
 404              	.LVL43:
 149:Source\LwIP\src\api/api_lib.c ****     }
 405              		.loc 1 149 0
 406 0050 0020     		movs	r0, #0
 407 0052 01E0     		b	.L28
 408              	.LVL44:
 409              	.L29:
 410 0054 00E0     		b	.L28
 411              	.LVL45:
 412              	.L30:
 413              	.LBE2:
 153:Source\LwIP\src\api/api_lib.c **** }
 414              		.loc 1 153 0
 415 0056 2000     		movs	r0, r4
 416              	.LVL46:
 417              	.L28:
 154:Source\LwIP\src\api/api_lib.c **** 
 418              		.loc 1 154 0
 419 0058 06B0     		add	sp, sp, #24
 420              		@ sp needed
 421              	.LVL47:
 422 005a 70BD     		pop	{r4, r5, r6, pc}
 423              	.L32:
 424              		.align	2
 425              	.L31:
 426 005c 00000000 		.word	lwip_netconn_do_newconn
 427              		.cfi_endproc
 428              	.LFE54:
 429              		.size	netconn_new_with_proto_and_callback, .-netconn_new_with_proto_and_callback
 430              		.section	.text.netconn_delete,"ax",%progbits
ARM GAS  C:\Users\Phuong\AppData\Local\Temp\ccVcCKxe.s 			page 24


 431              		.align	2
 432              		.global	netconn_delete
 433              		.code	16
 434              		.thumb_func
 435              		.type	netconn_delete, %function
 436              	netconn_delete:
 437              	.LFB55:
 167:Source\LwIP\src\api/api_lib.c ****   err_t err;
 438              		.loc 1 167 0
 439              		.cfi_startproc
 440              		@ args = 0, pretend = 0, frame = 24
 441              		@ frame_needed = 0, uses_anonymous_args = 0
 442              	.LVL48:
 443 0000 10B5     		push	{r4, lr}
 444              		.cfi_def_cfa_offset 8
 445              		.cfi_offset 4, -8
 446              		.cfi_offset 14, -4
 447 0002 86B0     		sub	sp, sp, #24
 448              		.cfi_def_cfa_offset 32
 449 0004 041E     		subs	r4, r0, #0
 172:Source\LwIP\src\api/api_lib.c ****     return ERR_OK;
 450              		.loc 1 172 0
 451 0006 0DD0     		beq	.L35
 177:Source\LwIP\src\api/api_lib.c **** #if LWIP_SO_SNDTIMEO || LWIP_SO_LINGER
 452              		.loc 1 177 0
 453 0008 01A9     		add	r1, sp, #4
 454 000a 0190     		str	r0, [sp, #4]
 184:Source\LwIP\src\api/api_lib.c ****     ((LWIP_TCP_CLOSE_TIMEOUT_MS_DEFAULT + TCP_SLOW_INTERVAL - 1) / TCP_SLOW_INTERVAL) + 1;
 455              		.loc 1 184 0
 456 000c 2923     		movs	r3, #41
 457 000e 4B72     		strb	r3, [r1, #9]
 188:Source\LwIP\src\api/api_lib.c ****   API_MSG_VAR_FREE(msg);
 458              		.loc 1 188 0
 459 0010 0648     		ldr	r0, .L37
 460              	.LVL49:
 461 0012 FFF7FEFF 		bl	netconn_apimsg
 462              	.LVL50:
 191:Source\LwIP\src\api/api_lib.c ****     return err;
 463              		.loc 1 191 0
 464 0016 0028     		cmp	r0, #0
 465 0018 05D1     		bne	.L34
 195:Source\LwIP\src\api/api_lib.c **** 
 466              		.loc 1 195 0
 467 001a 2000     		movs	r0, r4
 468              	.LVL51:
 469 001c FFF7FEFF 		bl	netconn_free
 470              	.LVL52:
 197:Source\LwIP\src\api/api_lib.c **** }
 471              		.loc 1 197 0
 472 0020 0020     		movs	r0, #0
 473 0022 00E0     		b	.L34
 474              	.LVL53:
 475              	.L35:
 173:Source\LwIP\src\api/api_lib.c ****   }
 476              		.loc 1 173 0
 477 0024 0020     		movs	r0, #0
 478              	.LVL54:
ARM GAS  C:\Users\Phuong\AppData\Local\Temp\ccVcCKxe.s 			page 25


 479              	.L34:
 198:Source\LwIP\src\api/api_lib.c **** 
 480              		.loc 1 198 0
 481 0026 06B0     		add	sp, sp, #24
 482              		@ sp needed
 483              	.LVL55:
 484 0028 10BD     		pop	{r4, pc}
 485              	.L38:
 486 002a C046     		.align	2
 487              	.L37:
 488 002c 00000000 		.word	lwip_netconn_do_delconn
 489              		.cfi_endproc
 490              	.LFE55:
 491              		.size	netconn_delete, .-netconn_delete
 492              		.section	.text.netconn_getaddr,"ax",%progbits
 493              		.align	2
 494              		.global	netconn_getaddr
 495              		.code	16
 496              		.thumb_func
 497              		.type	netconn_getaddr, %function
 498              	netconn_getaddr:
 499              	.LFB56:
 213:Source\LwIP\src\api/api_lib.c ****   API_MSG_VAR_DECLARE(msg);
 500              		.loc 1 213 0
 501              		.cfi_startproc
 502              		@ args = 0, pretend = 0, frame = 24
 503              		@ frame_needed = 0, uses_anonymous_args = 0
 504              	.LVL56:
 505 0000 10B5     		push	{r4, lr}
 506              		.cfi_def_cfa_offset 8
 507              		.cfi_offset 4, -8
 508              		.cfi_offset 14, -4
 509 0002 86B0     		sub	sp, sp, #24
 510              		.cfi_def_cfa_offset 32
 217:Source\LwIP\src\api/api_lib.c ****   LWIP_ERROR("netconn_getaddr: invalid addr", (addr != NULL), return ERR_ARG;);
 511              		.loc 1 217 0
 512 0004 0028     		cmp	r0, #0
 513 0006 0DD0     		beq	.L41
 218:Source\LwIP\src\api/api_lib.c ****   LWIP_ERROR("netconn_getaddr: invalid port", (port != NULL), return ERR_ARG;);
 514              		.loc 1 218 0
 515 0008 0029     		cmp	r1, #0
 516 000a 0ED0     		beq	.L42
 219:Source\LwIP\src\api/api_lib.c **** 
 517              		.loc 1 219 0
 518 000c 002A     		cmp	r2, #0
 519 000e 0FD0     		beq	.L43
 222:Source\LwIP\src\api/api_lib.c ****   API_MSG_VAR_REF(msg).msg.ad.local = local;
 520              		.loc 1 222 0
 521 0010 01AC     		add	r4, sp, #4
 522 0012 0190     		str	r0, [sp, #4]
 223:Source\LwIP\src\api/api_lib.c **** #if LWIP_MPU_COMPATIBLE
 523              		.loc 1 223 0
 524 0014 2374     		strb	r3, [r4, #16]
 229:Source\LwIP\src\api/api_lib.c ****   msg.msg.ad.port = port;
 525              		.loc 1 229 0
 526 0016 0391     		str	r1, [sp, #12]
 230:Source\LwIP\src\api/api_lib.c ****   err = netconn_apimsg(lwip_netconn_do_getaddr, &msg);
ARM GAS  C:\Users\Phuong\AppData\Local\Temp\ccVcCKxe.s 			page 26


 527              		.loc 1 230 0
 528 0018 0492     		str	r2, [sp, #16]
 231:Source\LwIP\src\api/api_lib.c **** #endif /* LWIP_MPU_COMPATIBLE */
 529              		.loc 1 231 0
 530 001a 2100     		movs	r1, r4
 531              	.LVL57:
 532 001c 0648     		ldr	r0, .L44
 533              	.LVL58:
 534 001e FFF7FEFF 		bl	netconn_apimsg
 535              	.LVL59:
 235:Source\LwIP\src\api/api_lib.c **** }
 536              		.loc 1 235 0
 537 0022 07E0     		b	.L40
 538              	.LVL60:
 539              	.L41:
 217:Source\LwIP\src\api/api_lib.c ****   LWIP_ERROR("netconn_getaddr: invalid addr", (addr != NULL), return ERR_ARG;);
 540              		.loc 1 217 0
 541 0024 1020     		movs	r0, #16
 542              	.LVL61:
 543 0026 4042     		rsbs	r0, r0, #0
 544 0028 04E0     		b	.L40
 545              	.LVL62:
 546              	.L42:
 218:Source\LwIP\src\api/api_lib.c ****   LWIP_ERROR("netconn_getaddr: invalid port", (port != NULL), return ERR_ARG;);
 547              		.loc 1 218 0
 548 002a 1020     		movs	r0, #16
 549              	.LVL63:
 550 002c 4042     		rsbs	r0, r0, #0
 551 002e 01E0     		b	.L40
 552              	.LVL64:
 553              	.L43:
 219:Source\LwIP\src\api/api_lib.c **** 
 554              		.loc 1 219 0
 555 0030 1020     		movs	r0, #16
 556              	.LVL65:
 557 0032 4042     		rsbs	r0, r0, #0
 558              	.LVL66:
 559              	.L40:
 236:Source\LwIP\src\api/api_lib.c **** 
 560              		.loc 1 236 0
 561 0034 06B0     		add	sp, sp, #24
 562              		@ sp needed
 563 0036 10BD     		pop	{r4, pc}
 564              	.L45:
 565              		.align	2
 566              	.L44:
 567 0038 00000000 		.word	lwip_netconn_do_getaddr
 568              		.cfi_endproc
 569              	.LFE56:
 570              		.size	netconn_getaddr, .-netconn_getaddr
 571              		.section	.text.netconn_bind,"ax",%progbits
 572              		.align	2
 573              		.global	netconn_bind
 574              		.code	16
 575              		.thumb_func
 576              		.type	netconn_bind, %function
 577              	netconn_bind:
ARM GAS  C:\Users\Phuong\AppData\Local\Temp\ccVcCKxe.s 			page 27


 578              	.LFB57:
 251:Source\LwIP\src\api/api_lib.c ****   API_MSG_VAR_DECLARE(msg);
 579              		.loc 1 251 0
 580              		.cfi_startproc
 581              		@ args = 0, pretend = 0, frame = 24
 582              		@ frame_needed = 0, uses_anonymous_args = 0
 583              	.LVL67:
 584 0000 00B5     		push	{lr}
 585              		.cfi_def_cfa_offset 4
 586              		.cfi_offset 14, -4
 587 0002 87B0     		sub	sp, sp, #28
 588              		.cfi_def_cfa_offset 32
 255:Source\LwIP\src\api/api_lib.c **** 
 589              		.loc 1 255 0
 590 0004 0028     		cmp	r0, #0
 591 0006 0BD0     		beq	.L49
 259:Source\LwIP\src\api/api_lib.c ****     addr = IP4_ADDR_ANY;
 592              		.loc 1 259 0
 593 0008 0029     		cmp	r1, #0
 594 000a 00D1     		bne	.L48
 260:Source\LwIP\src\api/api_lib.c ****   }
 595              		.loc 1 260 0
 596 000c 0649     		ldr	r1, .L51
 597              	.LVL68:
 598              	.L48:
 275:Source\LwIP\src\api/api_lib.c ****   API_MSG_VAR_REF(msg).msg.bc.ipaddr = API_MSG_VAR_REF(addr);
 599              		.loc 1 275 0
 600 000e 01AB     		add	r3, sp, #4
 601 0010 0190     		str	r0, [sp, #4]
 276:Source\LwIP\src\api/api_lib.c ****   API_MSG_VAR_REF(msg).msg.bc.port = port;
 602              		.loc 1 276 0
 603 0012 0391     		str	r1, [sp, #12]
 277:Source\LwIP\src\api/api_lib.c ****   err = netconn_apimsg(lwip_netconn_do_bind, &API_MSG_VAR_REF(msg));
 604              		.loc 1 277 0
 605 0014 9A81     		strh	r2, [r3, #12]
 278:Source\LwIP\src\api/api_lib.c ****   API_MSG_VAR_FREE(msg);
 606              		.loc 1 278 0
 607 0016 1900     		movs	r1, r3
 608              	.LVL69:
 609 0018 0448     		ldr	r0, .L51+4
 610              	.LVL70:
 611 001a FFF7FEFF 		bl	netconn_apimsg
 612              	.LVL71:
 281:Source\LwIP\src\api/api_lib.c **** }
 613              		.loc 1 281 0
 614 001e 01E0     		b	.L47
 615              	.LVL72:
 616              	.L49:
 255:Source\LwIP\src\api/api_lib.c **** 
 617              		.loc 1 255 0
 618 0020 1020     		movs	r0, #16
 619              	.LVL73:
 620 0022 4042     		rsbs	r0, r0, #0
 621              	.LVL74:
 622              	.L47:
 282:Source\LwIP\src\api/api_lib.c **** 
 623              		.loc 1 282 0
ARM GAS  C:\Users\Phuong\AppData\Local\Temp\ccVcCKxe.s 			page 28


 624 0024 07B0     		add	sp, sp, #28
 625              		@ sp needed
 626 0026 00BD     		pop	{pc}
 627              	.L52:
 628              		.align	2
 629              	.L51:
 630 0028 00000000 		.word	ip_addr_any
 631 002c 00000000 		.word	lwip_netconn_do_bind
 632              		.cfi_endproc
 633              	.LFE57:
 634              		.size	netconn_bind, .-netconn_bind
 635              		.section	.text.netconn_connect,"ax",%progbits
 636              		.align	2
 637              		.global	netconn_connect
 638              		.code	16
 639              		.thumb_func
 640              		.type	netconn_connect, %function
 641              	netconn_connect:
 642              	.LFB58:
 295:Source\LwIP\src\api/api_lib.c ****   API_MSG_VAR_DECLARE(msg);
 643              		.loc 1 295 0
 644              		.cfi_startproc
 645              		@ args = 0, pretend = 0, frame = 24
 646              		@ frame_needed = 0, uses_anonymous_args = 0
 647              	.LVL75:
 648 0000 00B5     		push	{lr}
 649              		.cfi_def_cfa_offset 4
 650              		.cfi_offset 14, -4
 651 0002 87B0     		sub	sp, sp, #28
 652              		.cfi_def_cfa_offset 32
 299:Source\LwIP\src\api/api_lib.c **** 
 653              		.loc 1 299 0
 654 0004 0028     		cmp	r0, #0
 655 0006 0BD0     		beq	.L56
 303:Source\LwIP\src\api/api_lib.c ****     addr = IP4_ADDR_ANY;
 656              		.loc 1 303 0
 657 0008 0029     		cmp	r1, #0
 658 000a 00D1     		bne	.L55
 304:Source\LwIP\src\api/api_lib.c ****   }
 659              		.loc 1 304 0
 660 000c 0649     		ldr	r1, .L58
 661              	.LVL76:
 662              	.L55:
 309:Source\LwIP\src\api/api_lib.c ****   API_MSG_VAR_REF(msg).msg.bc.ipaddr = API_MSG_VAR_REF(addr);
 663              		.loc 1 309 0
 664 000e 01AB     		add	r3, sp, #4
 665 0010 0190     		str	r0, [sp, #4]
 310:Source\LwIP\src\api/api_lib.c ****   API_MSG_VAR_REF(msg).msg.bc.port = port;
 666              		.loc 1 310 0
 667 0012 0391     		str	r1, [sp, #12]
 311:Source\LwIP\src\api/api_lib.c ****   err = netconn_apimsg(lwip_netconn_do_connect, &API_MSG_VAR_REF(msg));
 668              		.loc 1 311 0
 669 0014 9A81     		strh	r2, [r3, #12]
 312:Source\LwIP\src\api/api_lib.c ****   API_MSG_VAR_FREE(msg);
 670              		.loc 1 312 0
 671 0016 1900     		movs	r1, r3
 672              	.LVL77:
ARM GAS  C:\Users\Phuong\AppData\Local\Temp\ccVcCKxe.s 			page 29


 673 0018 0448     		ldr	r0, .L58+4
 674              	.LVL78:
 675 001a FFF7FEFF 		bl	netconn_apimsg
 676              	.LVL79:
 315:Source\LwIP\src\api/api_lib.c **** }
 677              		.loc 1 315 0
 678 001e 01E0     		b	.L54
 679              	.LVL80:
 680              	.L56:
 299:Source\LwIP\src\api/api_lib.c **** 
 681              		.loc 1 299 0
 682 0020 1020     		movs	r0, #16
 683              	.LVL81:
 684 0022 4042     		rsbs	r0, r0, #0
 685              	.LVL82:
 686              	.L54:
 316:Source\LwIP\src\api/api_lib.c **** 
 687              		.loc 1 316 0
 688 0024 07B0     		add	sp, sp, #28
 689              		@ sp needed
 690 0026 00BD     		pop	{pc}
 691              	.L59:
 692              		.align	2
 693              	.L58:
 694 0028 00000000 		.word	ip_addr_any
 695 002c 00000000 		.word	lwip_netconn_do_connect
 696              		.cfi_endproc
 697              	.LFE58:
 698              		.size	netconn_connect, .-netconn_connect
 699              		.section	.text.netconn_disconnect,"ax",%progbits
 700              		.align	2
 701              		.global	netconn_disconnect
 702              		.code	16
 703              		.thumb_func
 704              		.type	netconn_disconnect, %function
 705              	netconn_disconnect:
 706              	.LFB59:
 327:Source\LwIP\src\api/api_lib.c ****   API_MSG_VAR_DECLARE(msg);
 707              		.loc 1 327 0
 708              		.cfi_startproc
 709              		@ args = 0, pretend = 0, frame = 24
 710              		@ frame_needed = 0, uses_anonymous_args = 0
 711              	.LVL83:
 712 0000 00B5     		push	{lr}
 713              		.cfi_def_cfa_offset 4
 714              		.cfi_offset 14, -4
 715 0002 87B0     		sub	sp, sp, #28
 716              		.cfi_def_cfa_offset 32
 331:Source\LwIP\src\api/api_lib.c **** 
 717              		.loc 1 331 0
 718 0004 0028     		cmp	r0, #0
 719 0006 05D0     		beq	.L62
 334:Source\LwIP\src\api/api_lib.c ****   err = netconn_apimsg(lwip_netconn_do_disconnect, &API_MSG_VAR_REF(msg));
 720              		.loc 1 334 0
 721 0008 0190     		str	r0, [sp, #4]
 335:Source\LwIP\src\api/api_lib.c ****   API_MSG_VAR_FREE(msg);
 722              		.loc 1 335 0
ARM GAS  C:\Users\Phuong\AppData\Local\Temp\ccVcCKxe.s 			page 30


 723 000a 01A9     		add	r1, sp, #4
 724 000c 0348     		ldr	r0, .L63
 725              	.LVL84:
 726 000e FFF7FEFF 		bl	netconn_apimsg
 727              	.LVL85:
 338:Source\LwIP\src\api/api_lib.c **** }
 728              		.loc 1 338 0
 729 0012 01E0     		b	.L61
 730              	.LVL86:
 731              	.L62:
 331:Source\LwIP\src\api/api_lib.c **** 
 732              		.loc 1 331 0
 733 0014 1020     		movs	r0, #16
 734              	.LVL87:
 735 0016 4042     		rsbs	r0, r0, #0
 736              	.L61:
 339:Source\LwIP\src\api/api_lib.c **** 
 737              		.loc 1 339 0
 738 0018 07B0     		add	sp, sp, #28
 739              		@ sp needed
 740 001a 00BD     		pop	{pc}
 741              	.L64:
 742              		.align	2
 743              	.L63:
 744 001c 00000000 		.word	lwip_netconn_do_disconnect
 745              		.cfi_endproc
 746              	.LFE59:
 747              		.size	netconn_disconnect, .-netconn_disconnect
 748              		.section	.text.netconn_listen_with_backlog,"ax",%progbits
 749              		.align	2
 750              		.global	netconn_listen_with_backlog
 751              		.code	16
 752              		.thumb_func
 753              		.type	netconn_listen_with_backlog, %function
 754              	netconn_listen_with_backlog:
 755              	.LFB60:
 352:Source\LwIP\src\api/api_lib.c **** #if LWIP_TCP
 756              		.loc 1 352 0
 757              		.cfi_startproc
 758              		@ args = 0, pretend = 0, frame = 24
 759              		@ frame_needed = 0, uses_anonymous_args = 0
 760              	.LVL88:
 761 0000 00B5     		push	{lr}
 762              		.cfi_def_cfa_offset 4
 763              		.cfi_offset 14, -4
 764 0002 87B0     		sub	sp, sp, #28
 765              		.cfi_def_cfa_offset 32
 360:Source\LwIP\src\api/api_lib.c **** 
 766              		.loc 1 360 0
 767 0004 0028     		cmp	r0, #0
 768 0006 07D0     		beq	.L67
 363:Source\LwIP\src\api/api_lib.c **** #if TCP_LISTEN_BACKLOG
 769              		.loc 1 363 0
 770 0008 01AB     		add	r3, sp, #4
 771 000a 0190     		str	r0, [sp, #4]
 365:Source\LwIP\src\api/api_lib.c **** #endif /* TCP_LISTEN_BACKLOG */
 772              		.loc 1 365 0
ARM GAS  C:\Users\Phuong\AppData\Local\Temp\ccVcCKxe.s 			page 31


 773 000c 1972     		strb	r1, [r3, #8]
 367:Source\LwIP\src\api/api_lib.c ****   API_MSG_VAR_FREE(msg);
 774              		.loc 1 367 0
 775 000e 1900     		movs	r1, r3
 776              	.LVL89:
 777 0010 0348     		ldr	r0, .L68
 778              	.LVL90:
 779 0012 FFF7FEFF 		bl	netconn_apimsg
 780              	.LVL91:
 370:Source\LwIP\src\api/api_lib.c **** #else /* LWIP_TCP */
 781              		.loc 1 370 0
 782 0016 01E0     		b	.L66
 783              	.LVL92:
 784              	.L67:
 360:Source\LwIP\src\api/api_lib.c **** 
 785              		.loc 1 360 0
 786 0018 1020     		movs	r0, #16
 787              	.LVL93:
 788 001a 4042     		rsbs	r0, r0, #0
 789              	.LVL94:
 790              	.L66:
 376:Source\LwIP\src\api/api_lib.c **** 
 791              		.loc 1 376 0
 792 001c 07B0     		add	sp, sp, #28
 793              		@ sp needed
 794 001e 00BD     		pop	{pc}
 795              	.L69:
 796              		.align	2
 797              	.L68:
 798 0020 00000000 		.word	lwip_netconn_do_listen
 799              		.cfi_endproc
 800              	.LFE60:
 801              		.size	netconn_listen_with_backlog, .-netconn_listen_with_backlog
 802              		.section	.text.netconn_accept,"ax",%progbits
 803              		.align	2
 804              		.global	netconn_accept
 805              		.code	16
 806              		.thumb_func
 807              		.type	netconn_accept, %function
 808              	netconn_accept:
 809              	.LFB61:
 389:Source\LwIP\src\api/api_lib.c **** #if LWIP_TCP
 810              		.loc 1 389 0
 811              		.cfi_startproc
 812              		@ args = 0, pretend = 0, frame = 24
 813              		@ frame_needed = 0, uses_anonymous_args = 0
 814              	.LVL95:
 815 0000 70B5     		push	{r4, r5, r6, lr}
 816              		.cfi_def_cfa_offset 16
 817              		.cfi_offset 4, -16
 818              		.cfi_offset 5, -12
 819              		.cfi_offset 6, -8
 820              		.cfi_offset 14, -4
 821 0002 86B0     		sub	sp, sp, #24
 822              		.cfi_def_cfa_offset 40
 823 0004 0400     		movs	r4, r0
 824 0006 0D1E     		subs	r5, r1, #0
ARM GAS  C:\Users\Phuong\AppData\Local\Temp\ccVcCKxe.s 			page 32


 397:Source\LwIP\src\api/api_lib.c ****   *new_conn = NULL;
 825              		.loc 1 397 0
 826 0008 3BD0     		beq	.L75
 398:Source\LwIP\src\api/api_lib.c ****   LWIP_ERROR("netconn_accept: invalid conn",       (conn != NULL),                      return ERR_
 827              		.loc 1 398 0
 828 000a 0023     		movs	r3, #0
 829 000c 0B60     		str	r3, [r1]
 399:Source\LwIP\src\api/api_lib.c **** 
 830              		.loc 1 399 0
 831 000e 0028     		cmp	r0, #0
 832 0010 3AD0     		beq	.L76
 401:Source\LwIP\src\api/api_lib.c ****     /* don't recv on fatal errors: this might block the application task
 833              		.loc 1 401 0
 834 0012 0820     		movs	r0, #8
 835              	.LVL96:
 836 0014 2056     		ldrsb	r0, [r4, r0]
 837 0016 0300     		movs	r3, r0
 838 0018 0C33     		adds	r3, r3, #12
 839 001a 43DB     		blt	.L71
 406:Source\LwIP\src\api/api_lib.c ****     return ERR_CLSD;
 840              		.loc 1 406 0
 841 001c 2600     		movs	r6, r4
 842 001e 1436     		adds	r6, r6, #20
 843 0020 3000     		movs	r0, r6
 844 0022 FFF7FEFF 		bl	sys_mbox_valid
 845              	.LVL97:
 846 0026 0028     		cmp	r0, #0
 847 0028 31D0     		beq	.L77
 415:Source\LwIP\src\api/api_lib.c **** #if TCP_LISTEN_BACKLOG
 848              		.loc 1 415 0
 849 002a E269     		ldr	r2, [r4, #28]
 850 002c 05A9     		add	r1, sp, #20
 851 002e 3000     		movs	r0, r6
 852 0030 FFF7FEFF 		bl	sys_arch_mbox_fetch
 853              	.LVL98:
 854 0034 431C     		adds	r3, r0, #1
 855 0036 2DD0     		beq	.L78
 424:Source\LwIP\src\api/api_lib.c ****   /* Register event with callback */
 856              		.loc 1 424 0
 857 0038 059E     		ldr	r6, [sp, #20]
 858              	.LVL99:
 426:Source\LwIP\src\api/api_lib.c **** 
 859              		.loc 1 426 0
 860 003a E36A     		ldr	r3, [r4, #44]
 861 003c 002B     		cmp	r3, #0
 862 003e 03D0     		beq	.L72
 426:Source\LwIP\src\api/api_lib.c **** 
 863              		.loc 1 426 0 is_stmt 0 discriminator 1
 864 0040 0022     		movs	r2, #0
 865 0042 0121     		movs	r1, #1
 866 0044 2000     		movs	r0, r4
 867 0046 9847     		blx	r3
 868              	.LVL100:
 869              	.L72:
 428:Source\LwIP\src\api/api_lib.c ****     /* a connection has been aborted: out of pcbs or out of netconns during accept */
 870              		.loc 1 428 0 is_stmt 1
 871 0048 174B     		ldr	r3, .L81
ARM GAS  C:\Users\Phuong\AppData\Local\Temp\ccVcCKxe.s 			page 33


 872 004a 059A     		ldr	r2, [sp, #20]
 873 004c 9A42     		cmp	r2, r3
 874 004e 24D0     		beq	.L79
 436:Source\LwIP\src\api/api_lib.c ****     /* connection has been aborted */
 875              		.loc 1 436 0
 876 0050 002E     		cmp	r6, #0
 877 0052 0ED1     		bne	.L73
 441:Source\LwIP\src\api/api_lib.c **** #if TCP_LISTEN_BACKLOG
 878              		.loc 1 441 0
 879 0054 002C     		cmp	r4, #0
 880 0056 23D0     		beq	.L80
 881              	.LBB3:
 441:Source\LwIP\src\api/api_lib.c **** #if TCP_LISTEN_BACKLOG
 882              		.loc 1 441 0 is_stmt 0 discriminator 1
 883 0058 FFF7FEFF 		bl	sys_arch_protect
 884              	.LVL101:
 885 005c 0823     		movs	r3, #8
 886 005e E356     		ldrsb	r3, [r4, r3]
 887 0060 0C33     		adds	r3, r3, #12
 888 0062 01DB     		blt	.L74
 441:Source\LwIP\src\api/api_lib.c **** #if TCP_LISTEN_BACKLOG
 889              		.loc 1 441 0 discriminator 2
 890 0064 F123     		movs	r3, #241
 891 0066 2372     		strb	r3, [r4, #8]
 892              	.L74:
 441:Source\LwIP\src\api/api_lib.c **** #if TCP_LISTEN_BACKLOG
 893              		.loc 1 441 0 discriminator 4
 894 0068 FFF7FEFF 		bl	sys_arch_unprotect
 895              	.LVL102:
 896              	.LBE3:
 445:Source\LwIP\src\api/api_lib.c ****   }
 897              		.loc 1 445 0 is_stmt 1 discriminator 4
 898 006c 0F20     		movs	r0, #15
 899 006e 4042     		rsbs	r0, r0, #0
 900 0070 18E0     		b	.L71
 901              	.L73:
 449:Source\LwIP\src\api/api_lib.c ****   /* don't care for the return value of lwip_netconn_do_recv */
 902              		.loc 1 449 0
 903 0072 0096     		str	r6, [sp]
 451:Source\LwIP\src\api/api_lib.c ****   API_MSG_VAR_FREE(msg);
 904              		.loc 1 451 0
 905 0074 6946     		mov	r1, sp
 906 0076 0D48     		ldr	r0, .L81+4
 907 0078 FFF7FEFF 		bl	netconn_apimsg
 908              	.LVL103:
 455:Source\LwIP\src\api/api_lib.c ****   /* don't set conn->last_err: it's only ERR_OK, anyway */
 909              		.loc 1 455 0
 910 007c 2E60     		str	r6, [r5]
 457:Source\LwIP\src\api/api_lib.c **** #else /* LWIP_TCP */
 911              		.loc 1 457 0
 912 007e 0020     		movs	r0, #0
 913 0080 10E0     		b	.L71
 914              	.LVL104:
 915              	.L75:
 397:Source\LwIP\src\api/api_lib.c ****   *new_conn = NULL;
 916              		.loc 1 397 0
 917 0082 1020     		movs	r0, #16
ARM GAS  C:\Users\Phuong\AppData\Local\Temp\ccVcCKxe.s 			page 34


 918              	.LVL105:
 919 0084 4042     		rsbs	r0, r0, #0
 920 0086 0DE0     		b	.L71
 921              	.LVL106:
 922              	.L76:
 399:Source\LwIP\src\api/api_lib.c **** 
 923              		.loc 1 399 0
 924 0088 1020     		movs	r0, #16
 925              	.LVL107:
 926 008a 4042     		rsbs	r0, r0, #0
 927 008c 0AE0     		b	.L71
 928              	.LVL108:
 929              	.L77:
 407:Source\LwIP\src\api/api_lib.c ****   }
 930              		.loc 1 407 0
 931 008e 0F20     		movs	r0, #15
 932 0090 4042     		rsbs	r0, r0, #0
 933 0092 07E0     		b	.L71
 934              	.L78:
 419:Source\LwIP\src\api/api_lib.c ****   }
 935              		.loc 1 419 0
 936 0094 0320     		movs	r0, #3
 937 0096 4042     		rsbs	r0, r0, #0
 938 0098 04E0     		b	.L71
 939              	.LVL109:
 940              	.L79:
 434:Source\LwIP\src\api/api_lib.c ****   }
 941              		.loc 1 434 0
 942 009a 0D20     		movs	r0, #13
 943 009c 4042     		rsbs	r0, r0, #0
 944 009e 01E0     		b	.L71
 945              	.L80:
 445:Source\LwIP\src\api/api_lib.c ****   }
 946              		.loc 1 445 0
 947 00a0 0F20     		movs	r0, #15
 948 00a2 4042     		rsbs	r0, r0, #0
 949              	.LVL110:
 950              	.L71:
 463:Source\LwIP\src\api/api_lib.c **** 
 951              		.loc 1 463 0
 952 00a4 06B0     		add	sp, sp, #24
 953              		@ sp needed
 954              	.LVL111:
 955              	.LVL112:
 956 00a6 70BD     		pop	{r4, r5, r6, pc}
 957              	.L82:
 958              		.align	2
 959              	.L81:
 960 00a8 00000000 		.word	netconn_aborted
 961 00ac 00000000 		.word	lwip_netconn_do_accepted
 962              		.cfi_endproc
 963              	.LFE61:
 964              		.size	netconn_accept, .-netconn_accept
 965              		.section	.text.netconn_recv_tcp_pbuf,"ax",%progbits
 966              		.align	2
 967              		.global	netconn_recv_tcp_pbuf
 968              		.code	16
ARM GAS  C:\Users\Phuong\AppData\Local\Temp\ccVcCKxe.s 			page 35


 969              		.thumb_func
 970              		.type	netconn_recv_tcp_pbuf, %function
 971              	netconn_recv_tcp_pbuf:
 972              	.LFB63:
 604:Source\LwIP\src\api/api_lib.c ****   LWIP_ERROR("netconn_recv: invalid conn", (conn != NULL) &&
 973              		.loc 1 604 0
 974              		.cfi_startproc
 975              		@ args = 0, pretend = 0, frame = 0
 976              		@ frame_needed = 0, uses_anonymous_args = 0
 977              	.LVL113:
 978 0000 10B5     		push	{r4, lr}
 979              		.cfi_def_cfa_offset 8
 980              		.cfi_offset 4, -8
 981              		.cfi_offset 14, -4
 605:Source\LwIP\src\api/api_lib.c ****              NETCONNTYPE_GROUP(netconn_type(conn)) == NETCONN_TCP, return ERR_ARG;);
 982              		.loc 1 605 0
 983 0002 0028     		cmp	r0, #0
 984 0004 07D0     		beq	.L85
 605:Source\LwIP\src\api/api_lib.c ****              NETCONNTYPE_GROUP(netconn_type(conn)) == NETCONN_TCP, return ERR_ARG;);
 985              		.loc 1 605 0 is_stmt 0 discriminator 2
 986 0006 0378     		ldrb	r3, [r0]
 987 0008 0F22     		movs	r2, #15
 988 000a 9343     		bics	r3, r2
 989 000c 102B     		cmp	r3, #16
 990 000e 05D1     		bne	.L86
 608:Source\LwIP\src\api/api_lib.c **** }
 991              		.loc 1 608 0 is_stmt 1
 992 0010 FFF7FEFF 		bl	netconn_recv_data
 993              	.LVL114:
 994 0014 04E0     		b	.L84
 995              	.LVL115:
 996              	.L85:
 605:Source\LwIP\src\api/api_lib.c ****              NETCONNTYPE_GROUP(netconn_type(conn)) == NETCONN_TCP, return ERR_ARG;);
 997              		.loc 1 605 0
 998 0016 1020     		movs	r0, #16
 999              	.LVL116:
 1000 0018 4042     		rsbs	r0, r0, #0
 1001 001a 01E0     		b	.L84
 1002              	.LVL117:
 1003              	.L86:
 1004 001c 1020     		movs	r0, #16
 1005              	.LVL118:
 1006 001e 4042     		rsbs	r0, r0, #0
 1007              	.LVL119:
 1008              	.L84:
 609:Source\LwIP\src\api/api_lib.c **** 
 1009              		.loc 1 609 0
 1010              		@ sp needed
 1011 0020 10BD     		pop	{r4, pc}
 1012              		.cfi_endproc
 1013              	.LFE63:
 1014              		.size	netconn_recv_tcp_pbuf, .-netconn_recv_tcp_pbuf
 1015 0022 C046     		.section	.text.netconn_recv,"ax",%progbits
 1016              		.align	2
 1017              		.global	netconn_recv
 1018              		.code	16
 1019              		.thumb_func
ARM GAS  C:\Users\Phuong\AppData\Local\Temp\ccVcCKxe.s 			page 36


 1020              		.type	netconn_recv, %function
 1021              	netconn_recv:
 1022              	.LFB64:
 622:Source\LwIP\src\api/api_lib.c **** #if LWIP_TCP
 1023              		.loc 1 622 0
 1024              		.cfi_startproc
 1025              		@ args = 0, pretend = 0, frame = 8
 1026              		@ frame_needed = 0, uses_anonymous_args = 0
 1027              	.LVL120:
 1028 0000 70B5     		push	{r4, r5, r6, lr}
 1029              		.cfi_def_cfa_offset 16
 1030              		.cfi_offset 4, -16
 1031              		.cfi_offset 5, -12
 1032              		.cfi_offset 6, -8
 1033              		.cfi_offset 14, -4
 1034 0002 82B0     		sub	sp, sp, #8
 1035              		.cfi_def_cfa_offset 24
 1036 0004 0400     		movs	r4, r0
 1037 0006 0D1E     		subs	r5, r1, #0
 1038              	.LVL121:
 628:Source\LwIP\src\api/api_lib.c ****   *new_buf = NULL;
 1039              		.loc 1 628 0
 1040 0008 2ED0     		beq	.L92
 629:Source\LwIP\src\api/api_lib.c ****   LWIP_ERROR("netconn_recv: invalid conn",    (conn != NULL),    return ERR_ARG;);
 1041              		.loc 1 629 0
 1042 000a 0023     		movs	r3, #0
 1043 000c 0B60     		str	r3, [r1]
 630:Source\LwIP\src\api/api_lib.c **** 
 1044              		.loc 1 630 0
 1045 000e 0028     		cmp	r0, #0
 1046 0010 2DD0     		beq	.L93
 634:Source\LwIP\src\api/api_lib.c **** #endif /* (LWIP_UDP || LWIP_RAW) */
 1047              		.loc 1 634 0
 1048 0012 0378     		ldrb	r3, [r0]
 1049 0014 0F22     		movs	r2, #15
 1050 0016 9343     		bics	r3, r2
 1051 0018 102B     		cmp	r3, #16
 1052 001a 22D1     		bne	.L89
 1053              	.LBB4:
 637:Source\LwIP\src\api/api_lib.c ****     /* This is not a listening netconn, since recvmbox is set */
 1054              		.loc 1 637 0
 1055 001c 0023     		movs	r3, #0
 1056 001e 0193     		str	r3, [sp, #4]
 640:Source\LwIP\src\api/api_lib.c ****     if (buf == NULL) {
 1057              		.loc 1 640 0
 1058 0020 A022     		movs	r2, #160
 1059 0022 9200     		lsls	r2, r2, #2
 1060 0024 1449     		ldr	r1, .L95
 1061              	.LVL122:
 1062 0026 0620     		movs	r0, #6
 1063              	.LVL123:
 1064 0028 FFF7FEFF 		bl	memp_malloc_fn
 1065              	.LVL124:
 1066 002c 061E     		subs	r6, r0, #0
 1067              	.LVL125:
 641:Source\LwIP\src\api/api_lib.c ****       return ERR_MEM;
 1068              		.loc 1 641 0
ARM GAS  C:\Users\Phuong\AppData\Local\Temp\ccVcCKxe.s 			page 37


 1069 002e 15D0     		beq	.L94
 645:Source\LwIP\src\api/api_lib.c ****     if (err != ERR_OK) {
 1070              		.loc 1 645 0
 1071 0030 01A9     		add	r1, sp, #4
 1072 0032 2000     		movs	r0, r4
 1073              	.LVL126:
 1074 0034 FFF7FEFF 		bl	netconn_recv_data
 1075              	.LVL127:
 1076 0038 041E     		subs	r4, r0, #0
 1077              	.LVL128:
 646:Source\LwIP\src\api/api_lib.c ****       memp_free(MEMP_NETBUF, buf);
 1078              		.loc 1 646 0
 1079 003a 05D0     		beq	.L91
 647:Source\LwIP\src\api/api_lib.c ****       return err;
 1080              		.loc 1 647 0
 1081 003c 3100     		movs	r1, r6
 1082 003e 0620     		movs	r0, #6
 1083              	.LVL129:
 1084 0040 FFF7FEFF 		bl	memp_free
 1085              	.LVL130:
 648:Source\LwIP\src\api/api_lib.c ****     }
 1086              		.loc 1 648 0
 1087 0044 2000     		movs	r0, r4
 1088 0046 14E0     		b	.L88
 1089              	.LVL131:
 1090              	.L91:
 652:Source\LwIP\src\api/api_lib.c ****     buf->ptr = p;
 1091              		.loc 1 652 0
 1092 0048 019B     		ldr	r3, [sp, #4]
 1093 004a 3360     		str	r3, [r6]
 653:Source\LwIP\src\api/api_lib.c ****     buf->port = 0;
 1094              		.loc 1 653 0
 1095 004c 019B     		ldr	r3, [sp, #4]
 1096 004e 7360     		str	r3, [r6, #4]
 654:Source\LwIP\src\api/api_lib.c ****     ip_addr_set_zero(&buf->addr);
 1097              		.loc 1 654 0
 1098 0050 0023     		movs	r3, #0
 1099 0052 B381     		strh	r3, [r6, #12]
 655:Source\LwIP\src\api/api_lib.c ****     *new_buf = buf;
 1100              		.loc 1 655 0
 1101 0054 B360     		str	r3, [r6, #8]
 656:Source\LwIP\src\api/api_lib.c ****     /* don't set conn->last_err: it's only ERR_OK, anyway */
 1102              		.loc 1 656 0
 1103 0056 2E60     		str	r6, [r5]
 658:Source\LwIP\src\api/api_lib.c ****   }
 1104              		.loc 1 658 0
 1105 0058 0020     		movs	r0, #0
 1106              	.LVL132:
 1107 005a 0AE0     		b	.L88
 1108              	.LVL133:
 1109              	.L94:
 642:Source\LwIP\src\api/api_lib.c ****     }
 1110              		.loc 1 642 0
 1111 005c 0120     		movs	r0, #1
 1112              	.LVL134:
 1113 005e 4042     		rsbs	r0, r0, #0
 1114 0060 07E0     		b	.L88
ARM GAS  C:\Users\Phuong\AppData\Local\Temp\ccVcCKxe.s 			page 38


 1115              	.LVL135:
 1116              	.L89:
 1117              	.LBE4:
 666:Source\LwIP\src\api/api_lib.c **** #endif /* (LWIP_UDP || LWIP_RAW) */
 1118              		.loc 1 666 0
 1119 0062 FFF7FEFF 		bl	netconn_recv_data
 1120              	.LVL136:
 1121 0066 04E0     		b	.L88
 1122              	.LVL137:
 1123              	.L92:
 628:Source\LwIP\src\api/api_lib.c ****   *new_buf = NULL;
 1124              		.loc 1 628 0
 1125 0068 1020     		movs	r0, #16
 1126              	.LVL138:
 1127 006a 4042     		rsbs	r0, r0, #0
 1128 006c 01E0     		b	.L88
 1129              	.LVL139:
 1130              	.L93:
 630:Source\LwIP\src\api/api_lib.c **** 
 1131              		.loc 1 630 0
 1132 006e 1020     		movs	r0, #16
 1133              	.LVL140:
 1134 0070 4042     		rsbs	r0, r0, #0
 1135              	.LVL141:
 1136              	.L88:
 669:Source\LwIP\src\api/api_lib.c **** 
 1137              		.loc 1 669 0 discriminator 1
 1138 0072 02B0     		add	sp, sp, #8
 1139              		@ sp needed
 1140              	.LVL142:
 1141 0074 70BD     		pop	{r4, r5, r6, pc}
 1142              	.L96:
 1143 0076 C046     		.align	2
 1144              	.L95:
 1145 0078 00000000 		.word	.LC13
 1146              		.cfi_endproc
 1147              	.LFE64:
 1148              		.size	netconn_recv, .-netconn_recv
 1149              		.section	.text.netconn_send,"ax",%progbits
 1150              		.align	2
 1151              		.global	netconn_send
 1152              		.code	16
 1153              		.thumb_func
 1154              		.type	netconn_send, %function
 1155              	netconn_send:
 1156              	.LFB66:
 703:Source\LwIP\src\api/api_lib.c ****   API_MSG_VAR_DECLARE(msg);
 1157              		.loc 1 703 0
 1158              		.cfi_startproc
 1159              		@ args = 0, pretend = 0, frame = 24
 1160              		@ frame_needed = 0, uses_anonymous_args = 0
 1161              	.LVL143:
 1162 0000 00B5     		push	{lr}
 1163              		.cfi_def_cfa_offset 4
 1164              		.cfi_offset 14, -4
 1165 0002 87B0     		sub	sp, sp, #28
 1166              		.cfi_def_cfa_offset 32
ARM GAS  C:\Users\Phuong\AppData\Local\Temp\ccVcCKxe.s 			page 39


 707:Source\LwIP\src\api/api_lib.c **** 
 1167              		.loc 1 707 0
 1168 0004 0028     		cmp	r0, #0
 1169 0006 06D0     		beq	.L99
 712:Source\LwIP\src\api/api_lib.c ****   API_MSG_VAR_REF(msg).msg.b = buf;
 1170              		.loc 1 712 0
 1171 0008 0190     		str	r0, [sp, #4]
 713:Source\LwIP\src\api/api_lib.c ****   err = netconn_apimsg(lwip_netconn_do_send, &API_MSG_VAR_REF(msg));
 1172              		.loc 1 713 0
 1173 000a 0391     		str	r1, [sp, #12]
 714:Source\LwIP\src\api/api_lib.c ****   API_MSG_VAR_FREE(msg);
 1174              		.loc 1 714 0
 1175 000c 01A9     		add	r1, sp, #4
 1176              	.LVL144:
 1177 000e 0448     		ldr	r0, .L100
 1178              	.LVL145:
 1179 0010 FFF7FEFF 		bl	netconn_apimsg
 1180              	.LVL146:
 717:Source\LwIP\src\api/api_lib.c **** }
 1181              		.loc 1 717 0
 1182 0014 01E0     		b	.L98
 1183              	.LVL147:
 1184              	.L99:
 707:Source\LwIP\src\api/api_lib.c **** 
 1185              		.loc 1 707 0
 1186 0016 1020     		movs	r0, #16
 1187              	.LVL148:
 1188 0018 4042     		rsbs	r0, r0, #0
 1189              	.LVL149:
 1190              	.L98:
 718:Source\LwIP\src\api/api_lib.c **** 
 1191              		.loc 1 718 0
 1192 001a 07B0     		add	sp, sp, #28
 1193              		@ sp needed
 1194 001c 00BD     		pop	{pc}
 1195              	.L101:
 1196 001e C046     		.align	2
 1197              	.L100:
 1198 0020 00000000 		.word	lwip_netconn_do_send
 1199              		.cfi_endproc
 1200              	.LFE66:
 1201              		.size	netconn_send, .-netconn_send
 1202              		.section	.text.netconn_sendto,"ax",%progbits
 1203              		.align	2
 1204              		.global	netconn_sendto
 1205              		.code	16
 1206              		.thumb_func
 1207              		.type	netconn_sendto, %function
 1208              	netconn_sendto:
 1209              	.LFB65:
 684:Source\LwIP\src\api/api_lib.c ****   if (buf != NULL) {
 1210              		.loc 1 684 0
 1211              		.cfi_startproc
 1212              		@ args = 0, pretend = 0, frame = 0
 1213              		@ frame_needed = 0, uses_anonymous_args = 0
 1214              	.LVL150:
 1215 0000 10B5     		push	{r4, lr}
ARM GAS  C:\Users\Phuong\AppData\Local\Temp\ccVcCKxe.s 			page 40


 1216              		.cfi_def_cfa_offset 8
 1217              		.cfi_offset 4, -8
 1218              		.cfi_offset 14, -4
 685:Source\LwIP\src\api/api_lib.c ****     ip_addr_set(&buf->addr, addr);
 1219              		.loc 1 685 0
 1220 0002 0029     		cmp	r1, #0
 1221 0004 09D0     		beq	.L105
 686:Source\LwIP\src\api/api_lib.c ****     buf->port = port;
 1222              		.loc 1 686 0
 1223 0006 002A     		cmp	r2, #0
 1224 0008 01D0     		beq	.L106
 686:Source\LwIP\src\api/api_lib.c ****     buf->port = port;
 1225              		.loc 1 686 0 is_stmt 0 discriminator 1
 1226 000a 1268     		ldr	r2, [r2]
 1227              	.LVL151:
 1228 000c 00E0     		b	.L104
 1229              	.LVL152:
 1230              	.L106:
 686:Source\LwIP\src\api/api_lib.c ****     buf->port = port;
 1231              		.loc 1 686 0
 1232 000e 0022     		movs	r2, #0
 1233              	.LVL153:
 1234              	.L104:
 686:Source\LwIP\src\api/api_lib.c ****     buf->port = port;
 1235              		.loc 1 686 0 discriminator 4
 1236 0010 8A60     		str	r2, [r1, #8]
 687:Source\LwIP\src\api/api_lib.c ****     return netconn_send(conn, buf);
 1237              		.loc 1 687 0 is_stmt 1 discriminator 4
 1238 0012 8B81     		strh	r3, [r1, #12]
 688:Source\LwIP\src\api/api_lib.c ****   }
 1239              		.loc 1 688 0 discriminator 4
 1240 0014 FFF7FEFF 		bl	netconn_send
 1241              	.LVL154:
 1242 0018 01E0     		b	.L103
 1243              	.LVL155:
 1244              	.L105:
 690:Source\LwIP\src\api/api_lib.c **** }
 1245              		.loc 1 690 0
 1246 001a 0620     		movs	r0, #6
 1247              	.LVL156:
 1248 001c 4042     		rsbs	r0, r0, #0
 1249              	.LVL157:
 1250              	.L103:
 691:Source\LwIP\src\api/api_lib.c **** 
 1251              		.loc 1 691 0
 1252              		@ sp needed
 1253 001e 10BD     		pop	{r4, pc}
 1254              		.cfi_endproc
 1255              	.LFE65:
 1256              		.size	netconn_sendto, .-netconn_sendto
 1257              		.section	.text.netconn_write_partly,"ax",%progbits
 1258              		.align	2
 1259              		.global	netconn_write_partly
 1260              		.code	16
 1261              		.thumb_func
 1262              		.type	netconn_write_partly, %function
 1263              	netconn_write_partly:
ARM GAS  C:\Users\Phuong\AppData\Local\Temp\ccVcCKxe.s 			page 41


 1264              	.LFB67:
 737:Source\LwIP\src\api/api_lib.c ****   API_MSG_VAR_DECLARE(msg);
 1265              		.loc 1 737 0
 1266              		.cfi_startproc
 1267              		@ args = 4, pretend = 0, frame = 24
 1268              		@ frame_needed = 0, uses_anonymous_args = 0
 1269              	.LVL158:
 1270 0000 70B5     		push	{r4, r5, r6, lr}
 1271              		.cfi_def_cfa_offset 16
 1272              		.cfi_offset 4, -16
 1273              		.cfi_offset 5, -12
 1274              		.cfi_offset 6, -8
 1275              		.cfi_offset 14, -4
 1276 0002 86B0     		sub	sp, sp, #24
 1277              		.cfi_def_cfa_offset 40
 1278 0004 0D00     		movs	r5, r1
 1279 0006 1400     		movs	r4, r2
 742:Source\LwIP\src\api/api_lib.c ****   LWIP_ERROR("netconn_write: invalid conn->type",  (NETCONNTYPE_GROUP(conn->type)== NETCONN_TCP), r
 1280              		.loc 1 742 0
 1281 0008 0028     		cmp	r0, #0
 1282 000a 2CD0     		beq	.L112
 743:Source\LwIP\src\api/api_lib.c ****   if (size == 0) {
 1283              		.loc 1 743 0
 1284 000c 0278     		ldrb	r2, [r0]
 1285              	.LVL159:
 1286 000e 0F21     		movs	r1, #15
 1287              	.LVL160:
 1288 0010 8A43     		bics	r2, r1
 1289 0012 102A     		cmp	r2, #16
 1290 0014 2AD1     		bne	.L113
 744:Source\LwIP\src\api/api_lib.c ****     return ERR_OK;
 1291              		.loc 1 744 0
 1292 0016 002C     		cmp	r4, #0
 1293 0018 2BD0     		beq	.L114
 747:Source\LwIP\src\api/api_lib.c **** #if LWIP_SO_SNDTIMEO
 1294              		.loc 1 747 0
 1295 001a 1032     		adds	r2, r2, #16
 1296 001c 825C     		ldrb	r2, [r0, r2]
 1297 001e 9207     		lsls	r2, r2, #30
 1298 0020 03D4     		bmi	.L115
 747:Source\LwIP\src\api/api_lib.c **** #if LWIP_SO_SNDTIMEO
 1299              		.loc 1 747 0 is_stmt 0 discriminator 2
 1300 0022 5A07     		lsls	r2, r3, #29
 1301 0024 03D5     		bpl	.L116
 747:Source\LwIP\src\api/api_lib.c **** #if LWIP_SO_SNDTIMEO
 1302              		.loc 1 747 0
 1303 0026 0126     		movs	r6, #1
 1304 0028 02E0     		b	.L109
 1305              	.L115:
 1306 002a 0126     		movs	r6, #1
 1307 002c 00E0     		b	.L109
 1308              	.L116:
 1309 002e 0026     		movs	r6, #0
 1310              	.L109:
 747:Source\LwIP\src\api/api_lib.c **** #if LWIP_SO_SNDTIMEO
 1311              		.loc 1 747 0 discriminator 6
 1312 0030 F6B2     		uxtb	r6, r6
ARM GAS  C:\Users\Phuong\AppData\Local\Temp\ccVcCKxe.s 			page 42


 1313              	.LVL161:
 753:Source\LwIP\src\api/api_lib.c ****     /* This implies netconn_write() cannot be used for non-blocking send, since
 1314              		.loc 1 753 0 is_stmt 1 discriminator 6
 1315 0032 002E     		cmp	r6, #0
 1316 0034 02D0     		beq	.L110
 753:Source\LwIP\src\api/api_lib.c ****     /* This implies netconn_write() cannot be used for non-blocking send, since
 1317              		.loc 1 753 0 is_stmt 0 discriminator 1
 1318 0036 0A9A     		ldr	r2, [sp, #40]
 1319 0038 002A     		cmp	r2, #0
 1320 003a 1CD0     		beq	.L117
 1321              	.L110:
 761:Source\LwIP\src\api/api_lib.c ****   API_MSG_VAR_REF(msg).msg.w.dataptr = dataptr;
 1322              		.loc 1 761 0 is_stmt 1
 1323 003c 01A9     		add	r1, sp, #4
 1324 003e 0190     		str	r0, [sp, #4]
 762:Source\LwIP\src\api/api_lib.c ****   API_MSG_VAR_REF(msg).msg.w.apiflags = apiflags;
 1325              		.loc 1 762 0
 1326 0040 8D60     		str	r5, [r1, #8]
 763:Source\LwIP\src\api/api_lib.c ****   API_MSG_VAR_REF(msg).msg.w.len = size;
 1327              		.loc 1 763 0
 1328 0042 0B74     		strb	r3, [r1, #16]
 764:Source\LwIP\src\api/api_lib.c **** #if LWIP_SO_SNDTIMEO
 1329              		.loc 1 764 0
 1330 0044 CC60     		str	r4, [r1, #12]
 778:Source\LwIP\src\api/api_lib.c ****   if ((err == ERR_OK) && (bytes_written != NULL)) {
 1331              		.loc 1 778 0
 1332 0046 0E48     		ldr	r0, .L120
 1333              	.LVL162:
 1334 0048 FFF7FEFF 		bl	netconn_apimsg
 1335              	.LVL163:
 779:Source\LwIP\src\api/api_lib.c ****     if (dontblock) {
 1336              		.loc 1 779 0
 1337 004c 0028     		cmp	r0, #0
 1338 004e 14D1     		bne	.L108
 779:Source\LwIP\src\api/api_lib.c ****     if (dontblock) {
 1339              		.loc 1 779 0 is_stmt 0 discriminator 1
 1340 0050 0A9B     		ldr	r3, [sp, #40]
 1341 0052 002B     		cmp	r3, #0
 1342 0054 11D0     		beq	.L108
 780:Source\LwIP\src\api/api_lib.c ****       /* nonblocking write: maybe the data has been sent partly */
 1343              		.loc 1 780 0 is_stmt 1
 1344 0056 002E     		cmp	r6, #0
 1345 0058 02D0     		beq	.L111
 782:Source\LwIP\src\api/api_lib.c ****     } else {
 1346              		.loc 1 782 0
 1347 005a 049A     		ldr	r2, [sp, #16]
 1348 005c 1A60     		str	r2, [r3]
 1349 005e 0CE0     		b	.L108
 1350              	.L111:
 785:Source\LwIP\src\api/api_lib.c ****     }
 1351              		.loc 1 785 0
 1352 0060 0A9B     		ldr	r3, [sp, #40]
 1353 0062 1C60     		str	r4, [r3]
 1354 0064 09E0     		b	.L108
 1355              	.LVL164:
 1356              	.L112:
 742:Source\LwIP\src\api/api_lib.c ****   LWIP_ERROR("netconn_write: invalid conn->type",  (NETCONNTYPE_GROUP(conn->type)== NETCONN_TCP), r
ARM GAS  C:\Users\Phuong\AppData\Local\Temp\ccVcCKxe.s 			page 43


 1357              		.loc 1 742 0
 1358 0066 1020     		movs	r0, #16
 1359              	.LVL165:
 1360 0068 4042     		rsbs	r0, r0, #0
 1361 006a 06E0     		b	.L108
 1362              	.LVL166:
 1363              	.L113:
 743:Source\LwIP\src\api/api_lib.c ****   if (size == 0) {
 1364              		.loc 1 743 0
 1365 006c 0620     		movs	r0, #6
 1366              	.LVL167:
 1367 006e 4042     		rsbs	r0, r0, #0
 1368 0070 03E0     		b	.L108
 1369              	.LVL168:
 1370              	.L114:
 745:Source\LwIP\src\api/api_lib.c ****   }
 1371              		.loc 1 745 0
 1372 0072 0020     		movs	r0, #0
 1373              	.LVL169:
 1374 0074 01E0     		b	.L108
 1375              	.LVL170:
 1376              	.L117:
 756:Source\LwIP\src\api/api_lib.c ****   }
 1377              		.loc 1 756 0
 1378 0076 0620     		movs	r0, #6
 1379              	.LVL171:
 1380 0078 4042     		rsbs	r0, r0, #0
 1381              	.LVL172:
 1382              	.L108:
 791:Source\LwIP\src\api/api_lib.c **** 
 1383              		.loc 1 791 0
 1384 007a 06B0     		add	sp, sp, #24
 1385              		@ sp needed
 1386              	.LVL173:
 1387              	.LVL174:
 1388 007c 70BD     		pop	{r4, r5, r6, pc}
 1389              	.L121:
 1390 007e C046     		.align	2
 1391              	.L120:
 1392 0080 00000000 		.word	lwip_netconn_do_write
 1393              		.cfi_endproc
 1394              	.LFE67:
 1395              		.size	netconn_write_partly, .-netconn_write_partly
 1396              		.section	.text.netconn_close,"ax",%progbits
 1397              		.align	2
 1398              		.global	netconn_close
 1399              		.code	16
 1400              		.thumb_func
 1401              		.type	netconn_close, %function
 1402              	netconn_close:
 1403              	.LFB69:
 829:Source\LwIP\src\api/api_lib.c **** 
 830:Source\LwIP\src\api/api_lib.c **** /**
 831:Source\LwIP\src\api/api_lib.c ****  * @ingroup netconn_tcp
 832:Source\LwIP\src\api/api_lib.c ****  * Close a TCP netconn (doesn't delete it).
 833:Source\LwIP\src\api/api_lib.c ****  *
 834:Source\LwIP\src\api/api_lib.c ****  * @param conn the TCP netconn to close
ARM GAS  C:\Users\Phuong\AppData\Local\Temp\ccVcCKxe.s 			page 44


 835:Source\LwIP\src\api/api_lib.c ****  * @return ERR_OK if the netconn was closed, any other err_t on error
 836:Source\LwIP\src\api/api_lib.c ****  */
 837:Source\LwIP\src\api/api_lib.c **** err_t
 838:Source\LwIP\src\api/api_lib.c **** netconn_close(struct netconn *conn)
 839:Source\LwIP\src\api/api_lib.c **** {
 1404              		.loc 1 839 0
 1405              		.cfi_startproc
 1406              		@ args = 0, pretend = 0, frame = 0
 1407              		@ frame_needed = 0, uses_anonymous_args = 0
 1408              	.LVL175:
 1409 0000 10B5     		push	{r4, lr}
 1410              		.cfi_def_cfa_offset 8
 1411              		.cfi_offset 4, -8
 1412              		.cfi_offset 14, -4
 840:Source\LwIP\src\api/api_lib.c ****   /* shutting down both ends is the same as closing */
 841:Source\LwIP\src\api/api_lib.c ****   return netconn_close_shutdown(conn, NETCONN_SHUT_RDWR);
 1413              		.loc 1 841 0
 1414 0002 0321     		movs	r1, #3
 1415 0004 FFF7FEFF 		bl	netconn_close_shutdown
 1416              	.LVL176:
 842:Source\LwIP\src\api/api_lib.c **** }
 1417              		.loc 1 842 0
 1418              		@ sp needed
 1419 0008 10BD     		pop	{r4, pc}
 1420              		.cfi_endproc
 1421              	.LFE69:
 1422              		.size	netconn_close, .-netconn_close
 1423 000a C046     		.section	.text.netconn_shutdown,"ax",%progbits
 1424              		.align	2
 1425              		.global	netconn_shutdown
 1426              		.code	16
 1427              		.thumb_func
 1428              		.type	netconn_shutdown, %function
 1429              	netconn_shutdown:
 1430              	.LFB70:
 843:Source\LwIP\src\api/api_lib.c **** 
 844:Source\LwIP\src\api/api_lib.c **** /**
 845:Source\LwIP\src\api/api_lib.c ****  * @ingroup netconn_tcp
 846:Source\LwIP\src\api/api_lib.c ****  * Shut down one or both sides of a TCP netconn (doesn't delete it).
 847:Source\LwIP\src\api/api_lib.c ****  *
 848:Source\LwIP\src\api/api_lib.c ****  * @param conn the TCP netconn to shut down
 849:Source\LwIP\src\api/api_lib.c ****  * @param shut_rx shut down the RX side (no more read possible after this)
 850:Source\LwIP\src\api/api_lib.c ****  * @param shut_tx shut down the TX side (no more write possible after this)
 851:Source\LwIP\src\api/api_lib.c ****  * @return ERR_OK if the netconn was closed, any other err_t on error
 852:Source\LwIP\src\api/api_lib.c ****  */
 853:Source\LwIP\src\api/api_lib.c **** err_t
 854:Source\LwIP\src\api/api_lib.c **** netconn_shutdown(struct netconn *conn, u8_t shut_rx, u8_t shut_tx)
 855:Source\LwIP\src\api/api_lib.c **** {
 1431              		.loc 1 855 0
 1432              		.cfi_startproc
 1433              		@ args = 0, pretend = 0, frame = 0
 1434              		@ frame_needed = 0, uses_anonymous_args = 0
 1435              	.LVL177:
 1436 0000 10B5     		push	{r4, lr}
 1437              		.cfi_def_cfa_offset 8
 1438              		.cfi_offset 4, -8
 1439              		.cfi_offset 14, -4
ARM GAS  C:\Users\Phuong\AppData\Local\Temp\ccVcCKxe.s 			page 45


 856:Source\LwIP\src\api/api_lib.c ****   return netconn_close_shutdown(conn, (shut_rx ? NETCONN_SHUT_RD : 0) | (shut_tx ? NETCONN_SHUT_WR 
 1440              		.loc 1 856 0
 1441 0002 4B1E     		subs	r3, r1, #1
 1442 0004 9941     		sbcs	r1, r1, r3
 1443              	.LVL178:
 1444 0006 49B2     		sxtb	r1, r1
 1445 0008 002A     		cmp	r2, #0
 1446 000a 01D0     		beq	.L125
 1447 000c 0223     		movs	r3, #2
 1448 000e 00E0     		b	.L124
 1449              	.L125:
 1450 0010 0023     		movs	r3, #0
 1451              	.L124:
 1452              		.loc 1 856 0 is_stmt 0 discriminator 4
 1453 0012 1943     		orrs	r1, r3
 1454 0014 FFF7FEFF 		bl	netconn_close_shutdown
 1455              	.LVL179:
 857:Source\LwIP\src\api/api_lib.c **** }
 1456              		.loc 1 857 0 is_stmt 1 discriminator 4
 1457              		@ sp needed
 1458 0018 10BD     		pop	{r4, pc}
 1459              		.cfi_endproc
 1460              	.LFE70:
 1461              		.size	netconn_shutdown, .-netconn_shutdown
 1462 001a C046     		.section	.text.netconn_join_leave_group,"ax",%progbits
 1463              		.align	2
 1464              		.global	netconn_join_leave_group
 1465              		.code	16
 1466              		.thumb_func
 1467              		.type	netconn_join_leave_group, %function
 1468              	netconn_join_leave_group:
 1469              	.LFB71:
 858:Source\LwIP\src\api/api_lib.c **** 
 859:Source\LwIP\src\api/api_lib.c **** #if LWIP_IGMP || (LWIP_IPV6 && LWIP_IPV6_MLD)
 860:Source\LwIP\src\api/api_lib.c **** /**
 861:Source\LwIP\src\api/api_lib.c ****  * @ingroup netconn_udp
 862:Source\LwIP\src\api/api_lib.c ****  * Join multicast groups for UDP netconns.
 863:Source\LwIP\src\api/api_lib.c ****  *
 864:Source\LwIP\src\api/api_lib.c ****  * @param conn the UDP netconn for which to change multicast addresses
 865:Source\LwIP\src\api/api_lib.c ****  * @param multiaddr IP address of the multicast group to join or leave
 866:Source\LwIP\src\api/api_lib.c ****  * @param netif_addr the IP address of the network interface on which to send
 867:Source\LwIP\src\api/api_lib.c ****  *                  the igmp message
 868:Source\LwIP\src\api/api_lib.c ****  * @param join_or_leave flag whether to send a join- or leave-message
 869:Source\LwIP\src\api/api_lib.c ****  * @return ERR_OK if the action was taken, any err_t on error
 870:Source\LwIP\src\api/api_lib.c ****  */
 871:Source\LwIP\src\api/api_lib.c **** err_t
 872:Source\LwIP\src\api/api_lib.c **** netconn_join_leave_group(struct netconn *conn,
 873:Source\LwIP\src\api/api_lib.c ****                          const ip_addr_t *multiaddr,
 874:Source\LwIP\src\api/api_lib.c ****                          const ip_addr_t *netif_addr,
 875:Source\LwIP\src\api/api_lib.c ****                          enum netconn_igmp join_or_leave)
 876:Source\LwIP\src\api/api_lib.c **** {
 1470              		.loc 1 876 0
 1471              		.cfi_startproc
 1472              		@ args = 0, pretend = 0, frame = 24
 1473              		@ frame_needed = 0, uses_anonymous_args = 0
 1474              	.LVL180:
 1475 0000 10B5     		push	{r4, lr}
ARM GAS  C:\Users\Phuong\AppData\Local\Temp\ccVcCKxe.s 			page 46


 1476              		.cfi_def_cfa_offset 8
 1477              		.cfi_offset 4, -8
 1478              		.cfi_offset 14, -4
 1479 0002 86B0     		sub	sp, sp, #24
 1480              		.cfi_def_cfa_offset 32
 877:Source\LwIP\src\api/api_lib.c ****   API_MSG_VAR_DECLARE(msg);
 878:Source\LwIP\src\api/api_lib.c ****   err_t err;
 879:Source\LwIP\src\api/api_lib.c **** 
 880:Source\LwIP\src\api/api_lib.c ****   LWIP_ERROR("netconn_join_leave_group: invalid conn",  (conn != NULL), return ERR_ARG;);
 1481              		.loc 1 880 0
 1482 0004 0028     		cmp	r0, #0
 1483 0006 0FD0     		beq	.L130
 881:Source\LwIP\src\api/api_lib.c **** 
 882:Source\LwIP\src\api/api_lib.c ****   API_MSG_VAR_ALLOC(msg);
 883:Source\LwIP\src\api/api_lib.c **** 
 884:Source\LwIP\src\api/api_lib.c **** #if LWIP_IPV4
 885:Source\LwIP\src\api/api_lib.c ****   /* Don't propagate NULL pointer (IP_ADDR_ANY alias) to subsequent functions */
 886:Source\LwIP\src\api/api_lib.c ****   if (multiaddr == NULL) {
 1484              		.loc 1 886 0
 1485 0008 0029     		cmp	r1, #0
 1486 000a 00D1     		bne	.L128
 887:Source\LwIP\src\api/api_lib.c ****     multiaddr = IP4_ADDR_ANY;
 1487              		.loc 1 887 0
 1488 000c 0849     		ldr	r1, .L133
 1489              	.LVL181:
 1490              	.L128:
 888:Source\LwIP\src\api/api_lib.c ****   }
 889:Source\LwIP\src\api/api_lib.c ****   if (netif_addr == NULL) {
 1491              		.loc 1 889 0
 1492 000e 002A     		cmp	r2, #0
 1493 0010 00D1     		bne	.L129
 890:Source\LwIP\src\api/api_lib.c ****     netif_addr = IP4_ADDR_ANY;
 1494              		.loc 1 890 0
 1495 0012 074A     		ldr	r2, .L133
 1496              	.LVL182:
 1497              	.L129:
 891:Source\LwIP\src\api/api_lib.c ****   }
 892:Source\LwIP\src\api/api_lib.c **** #endif /* LWIP_IPV4 */
 893:Source\LwIP\src\api/api_lib.c **** 
 894:Source\LwIP\src\api/api_lib.c ****   API_MSG_VAR_REF(msg).conn = conn;
 1498              		.loc 1 894 0
 1499 0014 01AC     		add	r4, sp, #4
 1500 0016 0190     		str	r0, [sp, #4]
 895:Source\LwIP\src\api/api_lib.c ****   API_MSG_VAR_REF(msg).msg.jl.multiaddr = API_MSG_VAR_REF(multiaddr);
 1501              		.loc 1 895 0
 1502 0018 0391     		str	r1, [sp, #12]
 896:Source\LwIP\src\api/api_lib.c ****   API_MSG_VAR_REF(msg).msg.jl.netif_addr = API_MSG_VAR_REF(netif_addr);
 1503              		.loc 1 896 0
 1504 001a 0492     		str	r2, [sp, #16]
 897:Source\LwIP\src\api/api_lib.c ****   API_MSG_VAR_REF(msg).msg.jl.join_or_leave = join_or_leave;
 1505              		.loc 1 897 0
 1506 001c 2374     		strb	r3, [r4, #16]
 898:Source\LwIP\src\api/api_lib.c ****   err = netconn_apimsg(lwip_netconn_do_join_leave_group, &API_MSG_VAR_REF(msg));
 1507              		.loc 1 898 0
 1508 001e 2100     		movs	r1, r4
 1509              	.LVL183:
 1510 0020 0448     		ldr	r0, .L133+4
ARM GAS  C:\Users\Phuong\AppData\Local\Temp\ccVcCKxe.s 			page 47


 1511              	.LVL184:
 1512 0022 FFF7FEFF 		bl	netconn_apimsg
 1513              	.LVL185:
 899:Source\LwIP\src\api/api_lib.c ****   API_MSG_VAR_FREE(msg);
 900:Source\LwIP\src\api/api_lib.c **** 
 901:Source\LwIP\src\api/api_lib.c ****   return err;
 1514              		.loc 1 901 0
 1515 0026 01E0     		b	.L127
 1516              	.LVL186:
 1517              	.L130:
 880:Source\LwIP\src\api/api_lib.c **** 
 1518              		.loc 1 880 0
 1519 0028 1020     		movs	r0, #16
 1520              	.LVL187:
 1521 002a 4042     		rsbs	r0, r0, #0
 1522              	.LVL188:
 1523              	.L127:
 902:Source\LwIP\src\api/api_lib.c **** }
 1524              		.loc 1 902 0
 1525 002c 06B0     		add	sp, sp, #24
 1526              		@ sp needed
 1527 002e 10BD     		pop	{r4, pc}
 1528              	.L134:
 1529              		.align	2
 1530              	.L133:
 1531 0030 00000000 		.word	ip_addr_any
 1532 0034 00000000 		.word	lwip_netconn_do_join_leave_group
 1533              		.cfi_endproc
 1534              	.LFE71:
 1535              		.size	netconn_join_leave_group, .-netconn_join_leave_group
 1536              		.section	.text.netconn_gethostbyname,"ax",%progbits
 1537              		.align	2
 1538              		.global	netconn_gethostbyname
 1539              		.code	16
 1540              		.thumb_func
 1541              		.type	netconn_gethostbyname, %function
 1542              	netconn_gethostbyname:
 1543              	.LFB72:
 903:Source\LwIP\src\api/api_lib.c **** #endif /* LWIP_IGMP || (LWIP_IPV6 && LWIP_IPV6_MLD) */
 904:Source\LwIP\src\api/api_lib.c **** 
 905:Source\LwIP\src\api/api_lib.c **** #if LWIP_DNS
 906:Source\LwIP\src\api/api_lib.c **** /**
 907:Source\LwIP\src\api/api_lib.c ****  * @ingroup netconn_common
 908:Source\LwIP\src\api/api_lib.c ****  * Execute a DNS query, only one IP address is returned
 909:Source\LwIP\src\api/api_lib.c ****  *
 910:Source\LwIP\src\api/api_lib.c ****  * @param name a string representation of the DNS host name to query
 911:Source\LwIP\src\api/api_lib.c ****  * @param addr a preallocated ip_addr_t where to store the resolved IP address
 912:Source\LwIP\src\api/api_lib.c ****  * @param dns_addrtype IP address type (IPv4 / IPv6)
 913:Source\LwIP\src\api/api_lib.c ****  * @return ERR_OK: resolving succeeded
 914:Source\LwIP\src\api/api_lib.c ****  *         ERR_MEM: memory error, try again later
 915:Source\LwIP\src\api/api_lib.c ****  *         ERR_ARG: dns client not initialized or invalid hostname
 916:Source\LwIP\src\api/api_lib.c ****  *         ERR_VAL: dns server response was invalid
 917:Source\LwIP\src\api/api_lib.c ****  */
 918:Source\LwIP\src\api/api_lib.c **** #if LWIP_IPV4 && LWIP_IPV6
 919:Source\LwIP\src\api/api_lib.c **** err_t
 920:Source\LwIP\src\api/api_lib.c **** netconn_gethostbyname_addrtype(const char *name, ip_addr_t *addr, u8_t dns_addrtype)
 921:Source\LwIP\src\api/api_lib.c **** #else
ARM GAS  C:\Users\Phuong\AppData\Local\Temp\ccVcCKxe.s 			page 48


 922:Source\LwIP\src\api/api_lib.c **** err_t
 923:Source\LwIP\src\api/api_lib.c **** netconn_gethostbyname(const char *name, ip_addr_t *addr)
 924:Source\LwIP\src\api/api_lib.c **** #endif
 925:Source\LwIP\src\api/api_lib.c **** {
 1544              		.loc 1 925 0
 1545              		.cfi_startproc
 1546              		@ args = 0, pretend = 0, frame = 32
 1547              		@ frame_needed = 0, uses_anonymous_args = 0
 1548              	.LVL189:
 1549 0000 10B5     		push	{r4, lr}
 1550              		.cfi_def_cfa_offset 8
 1551              		.cfi_offset 4, -8
 1552              		.cfi_offset 14, -4
 1553 0002 88B0     		sub	sp, sp, #32
 1554              		.cfi_def_cfa_offset 40
 926:Source\LwIP\src\api/api_lib.c ****   API_VAR_DECLARE(struct dns_api_msg, msg);
 927:Source\LwIP\src\api/api_lib.c **** #if !LWIP_MPU_COMPATIBLE
 928:Source\LwIP\src\api/api_lib.c ****   sys_sem_t sem;
 929:Source\LwIP\src\api/api_lib.c **** #endif /* LWIP_MPU_COMPATIBLE */
 930:Source\LwIP\src\api/api_lib.c ****   err_t err;
 931:Source\LwIP\src\api/api_lib.c ****   err_t cberr;
 932:Source\LwIP\src\api/api_lib.c **** 
 933:Source\LwIP\src\api/api_lib.c ****   LWIP_ERROR("netconn_gethostbyname: invalid name", (name != NULL), return ERR_ARG;);
 1555              		.loc 1 933 0
 1556 0004 0028     		cmp	r0, #0
 1557 0006 28D0     		beq	.L138
 934:Source\LwIP\src\api/api_lib.c ****   LWIP_ERROR("netconn_gethostbyname: invalid addr", (addr != NULL), return ERR_ARG;);
 1558              		.loc 1 934 0
 1559 0008 0029     		cmp	r1, #0
 1560 000a 29D0     		beq	.L139
 935:Source\LwIP\src\api/api_lib.c **** #if LWIP_MPU_COMPATIBLE
 936:Source\LwIP\src\api/api_lib.c ****   if (strlen(name) >= DNS_MAX_NAME_LENGTH) {
 937:Source\LwIP\src\api/api_lib.c ****     return ERR_ARG;
 938:Source\LwIP\src\api/api_lib.c ****   }
 939:Source\LwIP\src\api/api_lib.c **** #endif
 940:Source\LwIP\src\api/api_lib.c **** 
 941:Source\LwIP\src\api/api_lib.c ****   API_VAR_ALLOC(struct dns_api_msg, MEMP_DNS_API_MSG, msg, ERR_MEM);
 942:Source\LwIP\src\api/api_lib.c **** #if LWIP_MPU_COMPATIBLE
 943:Source\LwIP\src\api/api_lib.c ****   strncpy(API_VAR_REF(msg).name, name, DNS_MAX_NAME_LENGTH-1);
 944:Source\LwIP\src\api/api_lib.c ****   API_VAR_REF(msg).name[DNS_MAX_NAME_LENGTH-1] = 0;
 945:Source\LwIP\src\api/api_lib.c **** #else /* LWIP_MPU_COMPATIBLE */
 946:Source\LwIP\src\api/api_lib.c ****   msg.err = &err;
 1561              		.loc 1 946 0
 1562 000c 02AB     		add	r3, sp, #8
 1563 000e DC1C     		adds	r4, r3, #3
 1564 0010 0794     		str	r4, [sp, #28]
 947:Source\LwIP\src\api/api_lib.c ****   msg.sem = &sem;
 1565              		.loc 1 947 0
 1566 0012 03AB     		add	r3, sp, #12
 1567 0014 0693     		str	r3, [sp, #24]
 948:Source\LwIP\src\api/api_lib.c ****   API_VAR_REF(msg).addr = API_VAR_REF(addr);
 1568              		.loc 1 948 0
 1569 0016 0591     		str	r1, [sp, #20]
 949:Source\LwIP\src\api/api_lib.c ****   API_VAR_REF(msg).name = name;
 1570              		.loc 1 949 0
 1571 0018 0490     		str	r0, [sp, #16]
 950:Source\LwIP\src\api/api_lib.c **** #endif /* LWIP_MPU_COMPATIBLE */
ARM GAS  C:\Users\Phuong\AppData\Local\Temp\ccVcCKxe.s 			page 49


 951:Source\LwIP\src\api/api_lib.c **** #if LWIP_IPV4 && LWIP_IPV6
 952:Source\LwIP\src\api/api_lib.c ****   API_VAR_REF(msg).dns_addrtype = dns_addrtype;
 953:Source\LwIP\src\api/api_lib.c **** #endif /* LWIP_IPV4 && LWIP_IPV6 */
 954:Source\LwIP\src\api/api_lib.c **** #if LWIP_NETCONN_SEM_PER_THREAD
 955:Source\LwIP\src\api/api_lib.c ****   API_VAR_REF(msg).sem = LWIP_NETCONN_THREAD_SEM_GET();
 956:Source\LwIP\src\api/api_lib.c **** #else /* LWIP_NETCONN_SEM_PER_THREAD*/
 957:Source\LwIP\src\api/api_lib.c ****   err = sys_sem_new(API_EXPR_REF(API_VAR_REF(msg).sem), 0);
 1572              		.loc 1 957 0
 1573 001a 0021     		movs	r1, #0
 1574              	.LVL190:
 1575 001c 1800     		movs	r0, r3
 1576              	.LVL191:
 1577 001e FFF7FEFF 		bl	sys_sem_new
 1578              	.LVL192:
 1579 0022 2070     		strb	r0, [r4]
 958:Source\LwIP\src\api/api_lib.c ****   if (err != ERR_OK) {
 1580              		.loc 1 958 0
 1581 0024 0028     		cmp	r0, #0
 1582 0026 1DD1     		bne	.L136
 959:Source\LwIP\src\api/api_lib.c ****     API_VAR_FREE(MEMP_DNS_API_MSG, msg);
 960:Source\LwIP\src\api/api_lib.c ****     return err;
 961:Source\LwIP\src\api/api_lib.c ****   }
 962:Source\LwIP\src\api/api_lib.c **** #endif /* LWIP_NETCONN_SEM_PER_THREAD */
 963:Source\LwIP\src\api/api_lib.c **** 
 964:Source\LwIP\src\api/api_lib.c ****   cberr = tcpip_callback(lwip_netconn_do_gethostbyname, &API_VAR_REF(msg));
 1583              		.loc 1 964 0
 1584 0028 0122     		movs	r2, #1
 1585 002a 04A9     		add	r1, sp, #16
 1586 002c 0E48     		ldr	r0, .L140
 1587 002e FFF7FEFF 		bl	tcpip_callback_with_block
 1588              	.LVL193:
 1589 0032 041E     		subs	r4, r0, #0
 1590              	.LVL194:
 965:Source\LwIP\src\api/api_lib.c ****   if (cberr != ERR_OK) {
 1591              		.loc 1 965 0
 1592 0034 04D0     		beq	.L137
 966:Source\LwIP\src\api/api_lib.c **** #if !LWIP_NETCONN_SEM_PER_THREAD
 967:Source\LwIP\src\api/api_lib.c ****     sys_sem_free(API_EXPR_REF(API_VAR_REF(msg).sem));
 1593              		.loc 1 967 0
 1594 0036 0698     		ldr	r0, [sp, #24]
 1595              	.LVL195:
 1596 0038 FFF7FEFF 		bl	sys_sem_free
 1597              	.LVL196:
 968:Source\LwIP\src\api/api_lib.c **** #endif /* !LWIP_NETCONN_SEM_PER_THREAD */
 969:Source\LwIP\src\api/api_lib.c ****     API_VAR_FREE(MEMP_DNS_API_MSG, msg);
 970:Source\LwIP\src\api/api_lib.c ****     return cberr;
 1598              		.loc 1 970 0
 1599 003c 2000     		movs	r0, r4
 1600 003e 11E0     		b	.L136
 1601              	.LVL197:
 1602              	.L137:
 971:Source\LwIP\src\api/api_lib.c ****   }
 972:Source\LwIP\src\api/api_lib.c ****   sys_sem_wait(API_EXPR_REF_SEM(API_VAR_REF(msg).sem));
 1603              		.loc 1 972 0
 1604 0040 069B     		ldr	r3, [sp, #24]
 1605 0042 0193     		str	r3, [sp, #4]
 1606 0044 0021     		movs	r1, #0
ARM GAS  C:\Users\Phuong\AppData\Local\Temp\ccVcCKxe.s 			page 50


 1607 0046 1800     		movs	r0, r3
 1608              	.LVL198:
 1609 0048 FFF7FEFF 		bl	sys_arch_sem_wait
 1610              	.LVL199:
 973:Source\LwIP\src\api/api_lib.c **** #if !LWIP_NETCONN_SEM_PER_THREAD
 974:Source\LwIP\src\api/api_lib.c ****   sys_sem_free(API_EXPR_REF(API_VAR_REF(msg).sem));
 1611              		.loc 1 974 0
 1612 004c 0698     		ldr	r0, [sp, #24]
 1613 004e FFF7FEFF 		bl	sys_sem_free
 1614              	.LVL200:
 975:Source\LwIP\src\api/api_lib.c **** #endif /* !LWIP_NETCONN_SEM_PER_THREAD */
 976:Source\LwIP\src\api/api_lib.c **** 
 977:Source\LwIP\src\api/api_lib.c **** #if LWIP_MPU_COMPATIBLE
 978:Source\LwIP\src\api/api_lib.c ****   *addr = msg->addr;
 979:Source\LwIP\src\api/api_lib.c ****   err = msg->err;
 980:Source\LwIP\src\api/api_lib.c **** #endif /* LWIP_MPU_COMPATIBLE */
 981:Source\LwIP\src\api/api_lib.c **** 
 982:Source\LwIP\src\api/api_lib.c ****   API_VAR_FREE(MEMP_DNS_API_MSG, msg);
 983:Source\LwIP\src\api/api_lib.c ****   return err;
 1615              		.loc 1 983 0
 1616 0052 02AB     		add	r3, sp, #8
 1617 0054 0320     		movs	r0, #3
 1618 0056 1856     		ldrsb	r0, [r3, r0]
 1619 0058 04E0     		b	.L136
 1620              	.LVL201:
 1621              	.L138:
 933:Source\LwIP\src\api/api_lib.c ****   LWIP_ERROR("netconn_gethostbyname: invalid addr", (addr != NULL), return ERR_ARG;);
 1622              		.loc 1 933 0
 1623 005a 1020     		movs	r0, #16
 1624              	.LVL202:
 1625 005c 4042     		rsbs	r0, r0, #0
 1626 005e 01E0     		b	.L136
 1627              	.LVL203:
 1628              	.L139:
 934:Source\LwIP\src\api/api_lib.c **** #if LWIP_MPU_COMPATIBLE
 1629              		.loc 1 934 0
 1630 0060 1020     		movs	r0, #16
 1631              	.LVL204:
 1632 0062 4042     		rsbs	r0, r0, #0
 1633              	.LVL205:
 1634              	.L136:
 984:Source\LwIP\src\api/api_lib.c **** }
 1635              		.loc 1 984 0
 1636 0064 08B0     		add	sp, sp, #32
 1637              		@ sp needed
 1638 0066 10BD     		pop	{r4, pc}
 1639              	.L141:
 1640              		.align	2
 1641              	.L140:
 1642 0068 00000000 		.word	lwip_netconn_do_gethostbyname
 1643              		.cfi_endproc
 1644              	.LFE72:
 1645              		.size	netconn_gethostbyname, .-netconn_gethostbyname
 1646              		.section	.rodata.str1.4,"aMS",%progbits,1
 1647              		.align	2
 1648              	.LC13:
 1649 0000 536F7572 		.ascii	"Source\\LwIP\\src\\api\\api_lib.c\000"
ARM GAS  C:\Users\Phuong\AppData\Local\Temp\ccVcCKxe.s 			page 51


 1649      63655C4C 
 1649      7749505C 
 1649      7372635C 
 1649      6170695C 
 1650              		.text
 1651              	.Letext0:
 1652              		.file 2 "c:\\program files (x86)\\cypress\\psoc creator\\4.2\\psoc creator\\import\\gnu\\arm\\5.4.
 1653              		.file 3 ".\\Source\\FreeRTOS\\10.0.1\\Source\\include/queue.h"
 1654              		.file 4 ".\\Source\\FreeRTOS\\10.0.1\\Source\\include/semphr.h"
 1655              		.file 5 ".\\Source\\LwIP\\src\\include/arch/sys_arch.h"
 1656              		.file 6 ".\\Source\\LwIP\\src\\include/arch/cc.h"
 1657              		.file 7 ".\\Source\\LwIP\\src\\include/lwip/err.h"
 1658              		.file 8 ".\\Source\\LwIP\\src\\include/lwip/pbuf.h"
 1659              		.file 9 ".\\Source\\LwIP\\src\\include/lwip/ip4_addr.h"
 1660              		.file 10 ".\\Source\\LwIP\\src\\include/lwip/ip_addr.h"
 1661              		.file 11 ".\\Source\\LwIP\\src\\include/lwip/netbuf.h"
 1662              		.file 12 ".\\Source\\LwIP\\src\\include/lwip/api.h"
 1663              		.file 13 ".\\Source\\LwIP\\src\\include/lwip/ip.h"
 1664              		.file 14 ".\\Source\\LwIP\\src\\include/lwip/tcp.h"
 1665              		.file 15 ".\\Source\\LwIP\\src\\include/lwip/udp.h"
 1666              		.file 16 ".\\Source\\LwIP\\src\\include/lwip/raw.h"
 1667              		.file 17 ".\\Source\\LwIP\\src\\include/lwip/priv/api_msg.h"
 1668              		.file 18 ".\\Source\\LwIP\\src\\include/lwip/memp.h"
 1669              		.file 19 ".\\Source\\LwIP\\src\\include/lwip/tcpip.h"
 1670              		.file 20 ".\\Source\\LwIP\\src\\include/lwip/priv/tcp_priv.h"
 1671              		.file 21 ".\\Source\\LwIP\\src\\include/lwip/prot/tcp.h"
 1672              		.file 22 ".\\Source\\LwIP\\src\\include/lwip/priv/tcpip_priv.h"
 1673              		.file 23 ".\\Source\\LwIP\\src\\include/lwip/sys.h"