ARM GAS  C:\Users\Phuong\AppData\Local\Temp\ccdITQbM.s 			page 1


   1              		.syntax unified
   2              		.cpu cortex-m0plus
   3              		.fpu softvfp
   4              		.eabi_attribute 20, 1
   5              		.eabi_attribute 21, 1
   6              		.eabi_attribute 23, 3
   7              		.eabi_attribute 24, 1
   8              		.eabi_attribute 25, 1
   9              		.eabi_attribute 26, 1
  10              		.eabi_attribute 30, 1
  11              		.eabi_attribute 34, 0
  12              		.eabi_attribute 18, 4
  13              		.thumb
  14              		.syntax unified
  15              		.file	"arc4.c"
  16              		.text
  17              	.Ltext0:
  18              		.cfi_sections	.debug_frame
  19              		.section	.text.mbedtls_arc4_init,"ax",%progbits
  20              		.align	2
  21              		.global	mbedtls_arc4_init
  22              		.code	16
  23              		.thumb_func
  24              		.type	mbedtls_arc4_init, %function
  25              	mbedtls_arc4_init:
  26              	.LFB1:
  27              		.file 1 "Source\\mbedtls_open\\library\\arc4.c"
   1:Source\mbedtls_open\library/arc4.c **** /*
   2:Source\mbedtls_open\library/arc4.c ****  *  An implementation of the ARCFOUR algorithm
   3:Source\mbedtls_open\library/arc4.c ****  *
   4:Source\mbedtls_open\library/arc4.c ****  *  Copyright (C) 2006-2015, ARM Limited, All Rights Reserved
   5:Source\mbedtls_open\library/arc4.c ****  *  SPDX-License-Identifier: Apache-2.0
   6:Source\mbedtls_open\library/arc4.c ****  *
   7:Source\mbedtls_open\library/arc4.c ****  *  Licensed under the Apache License, Version 2.0 (the "License"); you may
   8:Source\mbedtls_open\library/arc4.c ****  *  not use this file except in compliance with the License.
   9:Source\mbedtls_open\library/arc4.c ****  *  You may obtain a copy of the License at
  10:Source\mbedtls_open\library/arc4.c ****  *
  11:Source\mbedtls_open\library/arc4.c ****  *  http://www.apache.org/licenses/LICENSE-2.0
  12:Source\mbedtls_open\library/arc4.c ****  *
  13:Source\mbedtls_open\library/arc4.c ****  *  Unless required by applicable law or agreed to in writing, software
  14:Source\mbedtls_open\library/arc4.c ****  *  distributed under the License is distributed on an "AS IS" BASIS, WITHOUT
  15:Source\mbedtls_open\library/arc4.c ****  *  WARRANTIES OR CONDITIONS OF ANY KIND, either express or implied.
  16:Source\mbedtls_open\library/arc4.c ****  *  See the License for the specific language governing permissions and
  17:Source\mbedtls_open\library/arc4.c ****  *  limitations under the License.
  18:Source\mbedtls_open\library/arc4.c ****  *
  19:Source\mbedtls_open\library/arc4.c ****  *  This file is part of mbed TLS (https://tls.mbed.org)
  20:Source\mbedtls_open\library/arc4.c ****  */
  21:Source\mbedtls_open\library/arc4.c **** /*
  22:Source\mbedtls_open\library/arc4.c ****  *  The ARCFOUR algorithm was publicly disclosed on 94/09.
  23:Source\mbedtls_open\library/arc4.c ****  *
  24:Source\mbedtls_open\library/arc4.c ****  *  http://groups.google.com/group/sci.crypt/msg/10a300c9d21afca0
  25:Source\mbedtls_open\library/arc4.c ****  */
  26:Source\mbedtls_open\library/arc4.c **** 
  27:Source\mbedtls_open\library/arc4.c **** #if !defined(MBEDTLS_CONFIG_FILE)
  28:Source\mbedtls_open\library/arc4.c **** #include "mbedtls/config.h"
  29:Source\mbedtls_open\library/arc4.c **** #else
  30:Source\mbedtls_open\library/arc4.c **** #include MBEDTLS_CONFIG_FILE
ARM GAS  C:\Users\Phuong\AppData\Local\Temp\ccdITQbM.s 			page 2


  31:Source\mbedtls_open\library/arc4.c **** #endif
  32:Source\mbedtls_open\library/arc4.c **** 
  33:Source\mbedtls_open\library/arc4.c **** #if defined(MBEDTLS_ARC4_C)
  34:Source\mbedtls_open\library/arc4.c **** 
  35:Source\mbedtls_open\library/arc4.c **** #include "mbedtls/arc4.h"
  36:Source\mbedtls_open\library/arc4.c **** #include "mbedtls/platform_util.h"
  37:Source\mbedtls_open\library/arc4.c **** 
  38:Source\mbedtls_open\library/arc4.c **** #include <string.h>
  39:Source\mbedtls_open\library/arc4.c **** 
  40:Source\mbedtls_open\library/arc4.c **** #if defined(MBEDTLS_SELF_TEST)
  41:Source\mbedtls_open\library/arc4.c **** #if defined(MBEDTLS_PLATFORM_C)
  42:Source\mbedtls_open\library/arc4.c **** #include "mbedtls/platform.h"
  43:Source\mbedtls_open\library/arc4.c **** #else
  44:Source\mbedtls_open\library/arc4.c **** #include <stdio.h>
  45:Source\mbedtls_open\library/arc4.c **** #define mbedtls_printf printf
  46:Source\mbedtls_open\library/arc4.c **** #endif /* MBEDTLS_PLATFORM_C */
  47:Source\mbedtls_open\library/arc4.c **** #endif /* MBEDTLS_SELF_TEST */
  48:Source\mbedtls_open\library/arc4.c **** 
  49:Source\mbedtls_open\library/arc4.c **** #if !defined(MBEDTLS_ARC4_ALT)
  50:Source\mbedtls_open\library/arc4.c **** 
  51:Source\mbedtls_open\library/arc4.c **** void mbedtls_arc4_init( mbedtls_arc4_context *ctx )
  52:Source\mbedtls_open\library/arc4.c **** {
  28              		.loc 1 52 0
  29              		.cfi_startproc
  30              		@ args = 0, pretend = 0, frame = 0
  31              		@ frame_needed = 0, uses_anonymous_args = 0
  32              	.LVL0:
  33 0000 10B5     		push	{r4, lr}
  34              		.cfi_def_cfa_offset 8
  35              		.cfi_offset 4, -8
  36              		.cfi_offset 14, -4
  53:Source\mbedtls_open\library/arc4.c ****     memset( ctx, 0, sizeof( mbedtls_arc4_context ) );
  37              		.loc 1 53 0
  38 0002 8422     		movs	r2, #132
  39 0004 5200     		lsls	r2, r2, #1
  40 0006 0021     		movs	r1, #0
  41 0008 FFF7FEFF 		bl	memset
  42              	.LVL1:
  54:Source\mbedtls_open\library/arc4.c **** }
  43              		.loc 1 54 0
  44              		@ sp needed
  45 000c 10BD     		pop	{r4, pc}
  46              		.cfi_endproc
  47              	.LFE1:
  48              		.size	mbedtls_arc4_init, .-mbedtls_arc4_init
  49 000e C046     		.section	.text.mbedtls_arc4_free,"ax",%progbits
  50              		.align	2
  51              		.global	mbedtls_arc4_free
  52              		.code	16
  53              		.thumb_func
  54              		.type	mbedtls_arc4_free, %function
  55              	mbedtls_arc4_free:
  56              	.LFB2:
  55:Source\mbedtls_open\library/arc4.c **** 
  56:Source\mbedtls_open\library/arc4.c **** void mbedtls_arc4_free( mbedtls_arc4_context *ctx )
  57:Source\mbedtls_open\library/arc4.c **** {
  57              		.loc 1 57 0
ARM GAS  C:\Users\Phuong\AppData\Local\Temp\ccdITQbM.s 			page 3


  58              		.cfi_startproc
  59              		@ args = 0, pretend = 0, frame = 0
  60              		@ frame_needed = 0, uses_anonymous_args = 0
  61              	.LVL2:
  62 0000 10B5     		push	{r4, lr}
  63              		.cfi_def_cfa_offset 8
  64              		.cfi_offset 4, -8
  65              		.cfi_offset 14, -4
  58:Source\mbedtls_open\library/arc4.c ****     if( ctx == NULL )
  66              		.loc 1 58 0
  67 0002 0028     		cmp	r0, #0
  68 0004 03D0     		beq	.L2
  59:Source\mbedtls_open\library/arc4.c ****         return;
  60:Source\mbedtls_open\library/arc4.c **** 
  61:Source\mbedtls_open\library/arc4.c ****     mbedtls_platform_zeroize( ctx, sizeof( mbedtls_arc4_context ) );
  69              		.loc 1 61 0
  70 0006 8421     		movs	r1, #132
  71 0008 4900     		lsls	r1, r1, #1
  72 000a FFF7FEFF 		bl	mbedtls_platform_zeroize
  73              	.LVL3:
  74              	.L2:
  62:Source\mbedtls_open\library/arc4.c **** }
  75              		.loc 1 62 0
  76              		@ sp needed
  77 000e 10BD     		pop	{r4, pc}
  78              		.cfi_endproc
  79              	.LFE2:
  80              		.size	mbedtls_arc4_free, .-mbedtls_arc4_free
  81              		.section	.text.mbedtls_arc4_setup,"ax",%progbits
  82              		.align	2
  83              		.global	mbedtls_arc4_setup
  84              		.code	16
  85              		.thumb_func
  86              		.type	mbedtls_arc4_setup, %function
  87              	mbedtls_arc4_setup:
  88              	.LFB3:
  63:Source\mbedtls_open\library/arc4.c **** 
  64:Source\mbedtls_open\library/arc4.c **** /*
  65:Source\mbedtls_open\library/arc4.c ****  * ARC4 key schedule
  66:Source\mbedtls_open\library/arc4.c ****  */
  67:Source\mbedtls_open\library/arc4.c **** void mbedtls_arc4_setup( mbedtls_arc4_context *ctx, const unsigned char *key,
  68:Source\mbedtls_open\library/arc4.c ****                  unsigned int keylen )
  69:Source\mbedtls_open\library/arc4.c **** {
  89              		.loc 1 69 0
  90              		.cfi_startproc
  91              		@ args = 0, pretend = 0, frame = 0
  92              		@ frame_needed = 0, uses_anonymous_args = 0
  93              	.LVL4:
  94 0000 F0B5     		push	{r4, r5, r6, r7, lr}
  95              		.cfi_def_cfa_offset 20
  96              		.cfi_offset 4, -20
  97              		.cfi_offset 5, -16
  98              		.cfi_offset 6, -12
  99              		.cfi_offset 7, -8
 100              		.cfi_offset 14, -4
 101 0002 4746     		mov	r7, r8
 102 0004 80B4     		push	{r7}
ARM GAS  C:\Users\Phuong\AppData\Local\Temp\ccdITQbM.s 			page 4


 103              		.cfi_def_cfa_offset 24
 104              		.cfi_offset 8, -24
 105 0006 8C46     		mov	ip, r1
 106 0008 9046     		mov	r8, r2
  70:Source\mbedtls_open\library/arc4.c ****     int i, j, a;
  71:Source\mbedtls_open\library/arc4.c ****     unsigned int k;
  72:Source\mbedtls_open\library/arc4.c ****     unsigned char *m;
  73:Source\mbedtls_open\library/arc4.c **** 
  74:Source\mbedtls_open\library/arc4.c ****     ctx->x = 0;
 107              		.loc 1 74 0
 108 000a 0023     		movs	r3, #0
 109 000c 0360     		str	r3, [r0]
  75:Source\mbedtls_open\library/arc4.c ****     ctx->y = 0;
 110              		.loc 1 75 0
 111 000e 4360     		str	r3, [r0, #4]
  76:Source\mbedtls_open\library/arc4.c ****     m = ctx->m;
 112              		.loc 1 76 0
 113 0010 0830     		adds	r0, r0, #8
 114              	.LVL5:
  77:Source\mbedtls_open\library/arc4.c **** 
  78:Source\mbedtls_open\library/arc4.c ****     for( i = 0; i < 256; i++ )
 115              		.loc 1 78 0
 116 0012 01E0     		b	.L5
 117              	.LVL6:
 118              	.L6:
  79:Source\mbedtls_open\library/arc4.c ****         m[i] = (unsigned char) i;
 119              		.loc 1 79 0 discriminator 3
 120 0014 C354     		strb	r3, [r0, r3]
  78:Source\mbedtls_open\library/arc4.c ****         m[i] = (unsigned char) i;
 121              		.loc 1 78 0 discriminator 3
 122 0016 0133     		adds	r3, r3, #1
 123              	.LVL7:
 124              	.L5:
  78:Source\mbedtls_open\library/arc4.c ****         m[i] = (unsigned char) i;
 125              		.loc 1 78 0 is_stmt 0 discriminator 1
 126 0018 FF2B     		cmp	r3, #255
 127 001a FBDD     		ble	.L6
 128 001c 0024     		movs	r4, #0
 129 001e 0023     		movs	r3, #0
 130              	.LVL8:
 131 0020 0025     		movs	r5, #0
 132 0022 10E0     		b	.L7
 133              	.LVL9:
 134              	.L9:
  80:Source\mbedtls_open\library/arc4.c **** 
  81:Source\mbedtls_open\library/arc4.c ****     j = k = 0;
  82:Source\mbedtls_open\library/arc4.c **** 
  83:Source\mbedtls_open\library/arc4.c ****     for( i = 0; i < 256; i++, k++ )
  84:Source\mbedtls_open\library/arc4.c ****     {
  85:Source\mbedtls_open\library/arc4.c ****         if( k >= keylen ) k = 0;
 135              		.loc 1 85 0 is_stmt 1
 136 0024 4445     		cmp	r4, r8
 137 0026 00D3     		bcc	.L8
 138 0028 0024     		movs	r4, #0
 139              	.LVL10:
 140              	.L8:
  86:Source\mbedtls_open\library/arc4.c **** 
ARM GAS  C:\Users\Phuong\AppData\Local\Temp\ccdITQbM.s 			page 5


  87:Source\mbedtls_open\library/arc4.c ****         a = m[i];
 141              		.loc 1 87 0 discriminator 2
 142 002a 4219     		adds	r2, r0, r5
 143 002c 1778     		ldrb	r7, [r2]
 144              	.LVL11:
  88:Source\mbedtls_open\library/arc4.c ****         j = ( j + a + key[k] ) & 0xFF;
 145              		.loc 1 88 0 discriminator 2
 146 002e DB19     		adds	r3, r3, r7
 147              	.LVL12:
 148 0030 6146     		mov	r1, ip
 149 0032 095D     		ldrb	r1, [r1, r4]
 150 0034 CB18     		adds	r3, r1, r3
 151 0036 FF21     		movs	r1, #255
 152 0038 0B40     		ands	r3, r1
 153              	.LVL13:
  89:Source\mbedtls_open\library/arc4.c ****         m[i] = m[j];
 154              		.loc 1 89 0 discriminator 2
 155 003a C618     		adds	r6, r0, r3
 156 003c 3178     		ldrb	r1, [r6]
 157 003e 1170     		strb	r1, [r2]
  90:Source\mbedtls_open\library/arc4.c ****         m[j] = (unsigned char) a;
 158              		.loc 1 90 0 discriminator 2
 159 0040 3770     		strb	r7, [r6]
  83:Source\mbedtls_open\library/arc4.c ****     {
 160              		.loc 1 83 0 discriminator 2
 161 0042 0135     		adds	r5, r5, #1
 162              	.LVL14:
 163 0044 0134     		adds	r4, r4, #1
 164              	.LVL15:
 165              	.L7:
  83:Source\mbedtls_open\library/arc4.c ****     {
 166              		.loc 1 83 0 is_stmt 0 discriminator 1
 167 0046 FF2D     		cmp	r5, #255
 168 0048 ECDD     		ble	.L9
  91:Source\mbedtls_open\library/arc4.c ****     }
  92:Source\mbedtls_open\library/arc4.c **** }
 169              		.loc 1 92 0 is_stmt 1
 170              		@ sp needed
 171              	.LVL16:
 172              	.LVL17:
 173              	.LVL18:
 174 004a 04BC     		pop	{r2}
 175 004c 9046     		mov	r8, r2
 176 004e F0BD     		pop	{r4, r5, r6, r7, pc}
 177              		.cfi_endproc
 178              	.LFE3:
 179              		.size	mbedtls_arc4_setup, .-mbedtls_arc4_setup
 180              		.section	.text.mbedtls_arc4_crypt,"ax",%progbits
 181              		.align	2
 182              		.global	mbedtls_arc4_crypt
 183              		.code	16
 184              		.thumb_func
 185              		.type	mbedtls_arc4_crypt, %function
 186              	mbedtls_arc4_crypt:
 187              	.LFB4:
  93:Source\mbedtls_open\library/arc4.c **** 
  94:Source\mbedtls_open\library/arc4.c **** /*
ARM GAS  C:\Users\Phuong\AppData\Local\Temp\ccdITQbM.s 			page 6


  95:Source\mbedtls_open\library/arc4.c ****  * ARC4 cipher function
  96:Source\mbedtls_open\library/arc4.c ****  */
  97:Source\mbedtls_open\library/arc4.c **** int mbedtls_arc4_crypt( mbedtls_arc4_context *ctx, size_t length, const unsigned char *input,
  98:Source\mbedtls_open\library/arc4.c ****                 unsigned char *output )
  99:Source\mbedtls_open\library/arc4.c **** {
 188              		.loc 1 99 0
 189              		.cfi_startproc
 190              		@ args = 0, pretend = 0, frame = 0
 191              		@ frame_needed = 0, uses_anonymous_args = 0
 192              	.LVL19:
 193 0000 F0B5     		push	{r4, r5, r6, r7, lr}
 194              		.cfi_def_cfa_offset 20
 195              		.cfi_offset 4, -20
 196              		.cfi_offset 5, -16
 197              		.cfi_offset 6, -12
 198              		.cfi_offset 7, -8
 199              		.cfi_offset 14, -4
 200 0002 5F46     		mov	r7, fp
 201 0004 5646     		mov	r6, r10
 202 0006 4D46     		mov	r5, r9
 203 0008 4446     		mov	r4, r8
 204 000a F0B4     		push	{r4, r5, r6, r7}
 205              		.cfi_def_cfa_offset 36
 206              		.cfi_offset 8, -36
 207              		.cfi_offset 9, -32
 208              		.cfi_offset 10, -28
 209              		.cfi_offset 11, -24
 210 000c 8146     		mov	r9, r0
 211 000e 8B46     		mov	fp, r1
 212 0010 9246     		mov	r10, r2
 213 0012 9C46     		mov	ip, r3
 100:Source\mbedtls_open\library/arc4.c ****     int x, y, a, b;
 101:Source\mbedtls_open\library/arc4.c ****     size_t i;
 102:Source\mbedtls_open\library/arc4.c ****     unsigned char *m;
 103:Source\mbedtls_open\library/arc4.c **** 
 104:Source\mbedtls_open\library/arc4.c ****     x = ctx->x;
 214              		.loc 1 104 0
 215 0014 0300     		movs	r3, r0
 216              	.LVL20:
 217 0016 0668     		ldr	r6, [r0]
 218              	.LVL21:
 105:Source\mbedtls_open\library/arc4.c ****     y = ctx->y;
 219              		.loc 1 105 0
 220 0018 4568     		ldr	r5, [r0, #4]
 221              	.LVL22:
 106:Source\mbedtls_open\library/arc4.c ****     m = ctx->m;
 222              		.loc 1 106 0
 223 001a 0833     		adds	r3, r3, #8
 224              	.LVL23:
 107:Source\mbedtls_open\library/arc4.c **** 
 108:Source\mbedtls_open\library/arc4.c ****     for( i = 0; i < length; i++ )
 225              		.loc 1 108 0
 226 001c 0027     		movs	r7, #0
 227 001e 13E0     		b	.L12
 228              	.LVL24:
 229              	.L13:
 109:Source\mbedtls_open\library/arc4.c ****     {
ARM GAS  C:\Users\Phuong\AppData\Local\Temp\ccdITQbM.s 			page 7


 110:Source\mbedtls_open\library/arc4.c ****         x = ( x + 1 ) & 0xFF; a = m[x];
 230              		.loc 1 110 0 discriminator 3
 231 0020 0136     		adds	r6, r6, #1
 232              	.LVL25:
 233 0022 FF24     		movs	r4, #255
 234 0024 2640     		ands	r6, r4
 235              	.LVL26:
 236 0026 9919     		adds	r1, r3, r6
 237 0028 0878     		ldrb	r0, [r1]
 238              	.LVL27:
 111:Source\mbedtls_open\library/arc4.c ****         y = ( y + a ) & 0xFF; b = m[y];
 239              		.loc 1 111 0 discriminator 3
 240 002a 2D18     		adds	r5, r5, r0
 241              	.LVL28:
 242 002c 2540     		ands	r5, r4
 243              	.LVL29:
 244 002e 5A19     		adds	r2, r3, r5
 245 0030 1478     		ldrb	r4, [r2]
 246              	.LVL30:
 112:Source\mbedtls_open\library/arc4.c **** 
 113:Source\mbedtls_open\library/arc4.c ****         m[x] = (unsigned char) b;
 247              		.loc 1 113 0 discriminator 3
 248 0032 0C70     		strb	r4, [r1]
 114:Source\mbedtls_open\library/arc4.c ****         m[y] = (unsigned char) a;
 249              		.loc 1 114 0 discriminator 3
 250 0034 1070     		strb	r0, [r2]
 115:Source\mbedtls_open\library/arc4.c **** 
 116:Source\mbedtls_open\library/arc4.c ****         output[i] = (unsigned char)
 117:Source\mbedtls_open\library/arc4.c ****             ( input[i] ^ m[(unsigned char)( a + b )] );
 251              		.loc 1 117 0 discriminator 3
 252 0036 5246     		mov	r2, r10
 253 0038 D25D     		ldrb	r2, [r2, r7]
 254 003a 0419     		adds	r4, r0, r4
 255              	.LVL31:
 256 003c E4B2     		uxtb	r4, r4
 257 003e 1C5D     		ldrb	r4, [r3, r4]
 116:Source\mbedtls_open\library/arc4.c ****             ( input[i] ^ m[(unsigned char)( a + b )] );
 258              		.loc 1 116 0 discriminator 3
 259 0040 5440     		eors	r4, r2
 260 0042 6246     		mov	r2, ip
 261 0044 D455     		strb	r4, [r2, r7]
 108:Source\mbedtls_open\library/arc4.c ****     {
 262              		.loc 1 108 0 discriminator 3
 263 0046 0137     		adds	r7, r7, #1
 264              	.LVL32:
 265              	.L12:
 108:Source\mbedtls_open\library/arc4.c ****     {
 266              		.loc 1 108 0 is_stmt 0 discriminator 1
 267 0048 5F45     		cmp	r7, fp
 268 004a E9D3     		bcc	.L13
 118:Source\mbedtls_open\library/arc4.c ****     }
 119:Source\mbedtls_open\library/arc4.c **** 
 120:Source\mbedtls_open\library/arc4.c ****     ctx->x = x;
 269              		.loc 1 120 0 is_stmt 1
 270 004c 4B46     		mov	r3, r9
 271              	.LVL33:
 272 004e 1E60     		str	r6, [r3]
ARM GAS  C:\Users\Phuong\AppData\Local\Temp\ccdITQbM.s 			page 8


 121:Source\mbedtls_open\library/arc4.c ****     ctx->y = y;
 273              		.loc 1 121 0
 274 0050 5D60     		str	r5, [r3, #4]
 122:Source\mbedtls_open\library/arc4.c **** 
 123:Source\mbedtls_open\library/arc4.c ****     return( 0 );
 124:Source\mbedtls_open\library/arc4.c **** }
 275              		.loc 1 124 0
 276 0052 0020     		movs	r0, #0
 277              		@ sp needed
 278              	.LVL34:
 279              	.LVL35:
 280              	.LVL36:
 281              	.LVL37:
 282              	.LVL38:
 283              	.LVL39:
 284 0054 3CBC     		pop	{r2, r3, r4, r5}
 285 0056 9046     		mov	r8, r2
 286 0058 9946     		mov	r9, r3
 287 005a A246     		mov	r10, r4
 288 005c AB46     		mov	fp, r5
 289 005e F0BD     		pop	{r4, r5, r6, r7, pc}
 290              		.cfi_endproc
 291              	.LFE4:
 292              		.size	mbedtls_arc4_crypt, .-mbedtls_arc4_crypt
 293              		.section	.text.mbedtls_arc4_self_test,"ax",%progbits
 294              		.align	2
 295              		.global	mbedtls_arc4_self_test
 296              		.code	16
 297              		.thumb_func
 298              		.type	mbedtls_arc4_self_test, %function
 299              	mbedtls_arc4_self_test:
 300              	.LFB5:
 125:Source\mbedtls_open\library/arc4.c **** 
 126:Source\mbedtls_open\library/arc4.c **** #endif /* !MBEDTLS_ARC4_ALT */
 127:Source\mbedtls_open\library/arc4.c **** 
 128:Source\mbedtls_open\library/arc4.c **** #if defined(MBEDTLS_SELF_TEST)
 129:Source\mbedtls_open\library/arc4.c **** /*
 130:Source\mbedtls_open\library/arc4.c ****  * ARC4 tests vectors as posted by Eric Rescorla in sep. 1994:
 131:Source\mbedtls_open\library/arc4.c ****  *
 132:Source\mbedtls_open\library/arc4.c ****  * http://groups.google.com/group/comp.security.misc/msg/10a300c9d21afca0
 133:Source\mbedtls_open\library/arc4.c ****  */
 134:Source\mbedtls_open\library/arc4.c **** static const unsigned char arc4_test_key[3][8] =
 135:Source\mbedtls_open\library/arc4.c **** {
 136:Source\mbedtls_open\library/arc4.c ****     { 0x01, 0x23, 0x45, 0x67, 0x89, 0xAB, 0xCD, 0xEF },
 137:Source\mbedtls_open\library/arc4.c ****     { 0x01, 0x23, 0x45, 0x67, 0x89, 0xAB, 0xCD, 0xEF },
 138:Source\mbedtls_open\library/arc4.c ****     { 0x00, 0x00, 0x00, 0x00, 0x00, 0x00, 0x00, 0x00 }
 139:Source\mbedtls_open\library/arc4.c **** };
 140:Source\mbedtls_open\library/arc4.c **** 
 141:Source\mbedtls_open\library/arc4.c **** static const unsigned char arc4_test_pt[3][8] =
 142:Source\mbedtls_open\library/arc4.c **** {
 143:Source\mbedtls_open\library/arc4.c ****     { 0x01, 0x23, 0x45, 0x67, 0x89, 0xAB, 0xCD, 0xEF },
 144:Source\mbedtls_open\library/arc4.c ****     { 0x00, 0x00, 0x00, 0x00, 0x00, 0x00, 0x00, 0x00 },
 145:Source\mbedtls_open\library/arc4.c ****     { 0x00, 0x00, 0x00, 0x00, 0x00, 0x00, 0x00, 0x00 }
 146:Source\mbedtls_open\library/arc4.c **** };
 147:Source\mbedtls_open\library/arc4.c **** 
 148:Source\mbedtls_open\library/arc4.c **** static const unsigned char arc4_test_ct[3][8] =
 149:Source\mbedtls_open\library/arc4.c **** {
ARM GAS  C:\Users\Phuong\AppData\Local\Temp\ccdITQbM.s 			page 9


 150:Source\mbedtls_open\library/arc4.c ****     { 0x75, 0xB7, 0x87, 0x80, 0x99, 0xE0, 0xC5, 0x96 },
 151:Source\mbedtls_open\library/arc4.c ****     { 0x74, 0x94, 0xC2, 0xE7, 0x10, 0x4B, 0x08, 0x79 },
 152:Source\mbedtls_open\library/arc4.c ****     { 0xDE, 0x18, 0x89, 0x41, 0xA3, 0x37, 0x5D, 0x3A }
 153:Source\mbedtls_open\library/arc4.c **** };
 154:Source\mbedtls_open\library/arc4.c **** 
 155:Source\mbedtls_open\library/arc4.c **** /*
 156:Source\mbedtls_open\library/arc4.c ****  * Checkup routine
 157:Source\mbedtls_open\library/arc4.c ****  */
 158:Source\mbedtls_open\library/arc4.c **** int mbedtls_arc4_self_test( int verbose )
 159:Source\mbedtls_open\library/arc4.c **** {
 301              		.loc 1 159 0
 302              		.cfi_startproc
 303              		@ args = 0, pretend = 0, frame = 280
 304              		@ frame_needed = 0, uses_anonymous_args = 0
 305              	.LVL40:
 306 0000 F0B5     		push	{r4, r5, r6, r7, lr}
 307              		.cfi_def_cfa_offset 20
 308              		.cfi_offset 4, -20
 309              		.cfi_offset 5, -16
 310              		.cfi_offset 6, -12
 311              		.cfi_offset 7, -8
 312              		.cfi_offset 14, -4
 313 0002 4746     		mov	r7, r8
 314 0004 80B4     		push	{r7}
 315              		.cfi_def_cfa_offset 24
 316              		.cfi_offset 8, -24
 317 0006 C6B0     		sub	sp, sp, #280
 318              		.cfi_def_cfa_offset 304
 319 0008 8046     		mov	r8, r0
 320              	.LVL41:
 160:Source\mbedtls_open\library/arc4.c ****     int i, ret = 0;
 161:Source\mbedtls_open\library/arc4.c ****     unsigned char ibuf[8];
 162:Source\mbedtls_open\library/arc4.c ****     unsigned char obuf[8];
 163:Source\mbedtls_open\library/arc4.c ****     mbedtls_arc4_context ctx;
 164:Source\mbedtls_open\library/arc4.c **** 
 165:Source\mbedtls_open\library/arc4.c ****     mbedtls_arc4_init( &ctx );
 321              		.loc 1 165 0
 322 000a 6846     		mov	r0, sp
 323              	.LVL42:
 324 000c FFF7FEFF 		bl	mbedtls_arc4_init
 325              	.LVL43:
 166:Source\mbedtls_open\library/arc4.c **** 
 167:Source\mbedtls_open\library/arc4.c ****     for( i = 0; i < 3; i++ )
 326              		.loc 1 167 0
 327 0010 0027     		movs	r7, #0
 328 0012 32E0     		b	.L15
 329              	.LVL44:
 330              	.L20:
 168:Source\mbedtls_open\library/arc4.c ****     {
 169:Source\mbedtls_open\library/arc4.c ****         if( verbose != 0 )
 331              		.loc 1 169 0
 332 0014 4346     		mov	r3, r8
 333 0016 002B     		cmp	r3, #0
 334 0018 03D0     		beq	.L16
 335              	.LVL45:
 170:Source\mbedtls_open\library/arc4.c ****             mbedtls_printf( "  ARC4 test #%d: ", i + 1 );
 336              		.loc 1 170 0
ARM GAS  C:\Users\Phuong\AppData\Local\Temp\ccdITQbM.s 			page 10


 337 001a 791C     		adds	r1, r7, #1
 338 001c 2148     		ldr	r0, .L23
 339 001e FFF7FEFF 		bl	printf
 340              	.LVL46:
 341              	.L16:
 171:Source\mbedtls_open\library/arc4.c **** 
 172:Source\mbedtls_open\library/arc4.c ****         memcpy( ibuf, arc4_test_pt[i], 8 );
 342              		.loc 1 172 0
 343 0022 44AE     		add	r6, sp, #272
 344 0024 204D     		ldr	r5, .L23+4
 345 0026 FC00     		lsls	r4, r7, #3
 346 0028 2B19     		adds	r3, r5, r4
 347 002a 3200     		movs	r2, r6
 348 002c 03CB     		ldmia	r3!, {r0, r1}
 349 002e 03C2     		stmia	r2!, {r0, r1}
 173:Source\mbedtls_open\library/arc4.c **** 
 174:Source\mbedtls_open\library/arc4.c ****         mbedtls_arc4_setup( &ctx, arc4_test_key[i], 8 );
 350              		.loc 1 174 0
 351 0030 2900     		movs	r1, r5
 352 0032 1831     		adds	r1, r1, #24
 353 0034 0919     		adds	r1, r1, r4
 354 0036 0822     		movs	r2, #8
 355 0038 6846     		mov	r0, sp
 356 003a FFF7FEFF 		bl	mbedtls_arc4_setup
 357              	.LVL47:
 175:Source\mbedtls_open\library/arc4.c ****         mbedtls_arc4_crypt( &ctx, 8, ibuf, obuf );
 358              		.loc 1 175 0
 359 003e 42AB     		add	r3, sp, #264
 360 0040 3200     		movs	r2, r6
 361 0042 0821     		movs	r1, #8
 362 0044 6846     		mov	r0, sp
 363 0046 FFF7FEFF 		bl	mbedtls_arc4_crypt
 364              	.LVL48:
 176:Source\mbedtls_open\library/arc4.c **** 
 177:Source\mbedtls_open\library/arc4.c ****         if( memcmp( obuf, arc4_test_ct[i], 8 ) != 0 )
 365              		.loc 1 177 0
 366 004a 2900     		movs	r1, r5
 367 004c 3031     		adds	r1, r1, #48
 368 004e 0919     		adds	r1, r1, r4
 369 0050 0822     		movs	r2, #8
 370 0052 42A8     		add	r0, sp, #264
 371 0054 FFF7FEFF 		bl	memcmp
 372              	.LVL49:
 373 0058 0028     		cmp	r0, #0
 374 005a 07D0     		beq	.L17
 178:Source\mbedtls_open\library/arc4.c ****         {
 179:Source\mbedtls_open\library/arc4.c ****             if( verbose != 0 )
 375              		.loc 1 179 0
 376 005c 4346     		mov	r3, r8
 377 005e 002B     		cmp	r3, #0
 378 0060 15D0     		beq	.L21
 379              	.LVL50:
 180:Source\mbedtls_open\library/arc4.c ****                 mbedtls_printf( "failed\n" );
 380              		.loc 1 180 0
 381 0062 1248     		ldr	r0, .L23+8
 382 0064 FFF7FEFF 		bl	puts
 383              	.LVL51:
ARM GAS  C:\Users\Phuong\AppData\Local\Temp\ccdITQbM.s 			page 11


 181:Source\mbedtls_open\library/arc4.c **** 
 182:Source\mbedtls_open\library/arc4.c ****             ret = 1;
 384              		.loc 1 182 0
 385 0068 0124     		movs	r4, #1
 386 006a 13E0     		b	.L18
 387              	.L17:
 183:Source\mbedtls_open\library/arc4.c ****             goto exit;
 184:Source\mbedtls_open\library/arc4.c ****         }
 185:Source\mbedtls_open\library/arc4.c **** 
 186:Source\mbedtls_open\library/arc4.c ****         if( verbose != 0 )
 388              		.loc 1 186 0
 389 006c 4346     		mov	r3, r8
 390 006e 002B     		cmp	r3, #0
 391 0070 02D0     		beq	.L19
 392              	.LVL52:
 187:Source\mbedtls_open\library/arc4.c ****             mbedtls_printf( "passed\n" );
 393              		.loc 1 187 0
 394 0072 0F48     		ldr	r0, .L23+12
 395 0074 FFF7FEFF 		bl	puts
 396              	.LVL53:
 397              	.L19:
 167:Source\mbedtls_open\library/arc4.c ****     {
 398              		.loc 1 167 0 discriminator 2
 399 0078 0137     		adds	r7, r7, #1
 400              	.LVL54:
 401              	.L15:
 167:Source\mbedtls_open\library/arc4.c ****     {
 402              		.loc 1 167 0 is_stmt 0 discriminator 1
 403 007a 022F     		cmp	r7, #2
 404 007c CADD     		ble	.L20
 188:Source\mbedtls_open\library/arc4.c ****     }
 189:Source\mbedtls_open\library/arc4.c **** 
 190:Source\mbedtls_open\library/arc4.c ****     if( verbose != 0 )
 405              		.loc 1 190 0 is_stmt 1
 406 007e 4346     		mov	r3, r8
 407 0080 002B     		cmp	r3, #0
 408 0082 06D0     		beq	.L22
 409              	.LVL55:
 191:Source\mbedtls_open\library/arc4.c ****         mbedtls_printf( "\n" );
 410              		.loc 1 191 0
 411 0084 0A20     		movs	r0, #10
 412 0086 FFF7FEFF 		bl	putchar
 413              	.LVL56:
 160:Source\mbedtls_open\library/arc4.c ****     unsigned char ibuf[8];
 414              		.loc 1 160 0
 415 008a 0024     		movs	r4, #0
 416 008c 02E0     		b	.L18
 417              	.LVL57:
 418              	.L21:
 182:Source\mbedtls_open\library/arc4.c ****             goto exit;
 419              		.loc 1 182 0
 420 008e 0124     		movs	r4, #1
 421 0090 00E0     		b	.L18
 422              	.L22:
 160:Source\mbedtls_open\library/arc4.c ****     unsigned char ibuf[8];
 423              		.loc 1 160 0
 424 0092 0024     		movs	r4, #0
ARM GAS  C:\Users\Phuong\AppData\Local\Temp\ccdITQbM.s 			page 12


 425              	.LVL58:
 426              	.L18:
 192:Source\mbedtls_open\library/arc4.c **** 
 193:Source\mbedtls_open\library/arc4.c **** exit:
 194:Source\mbedtls_open\library/arc4.c ****     mbedtls_arc4_free( &ctx );
 427              		.loc 1 194 0
 428 0094 6846     		mov	r0, sp
 429 0096 FFF7FEFF 		bl	mbedtls_arc4_free
 430              	.LVL59:
 195:Source\mbedtls_open\library/arc4.c **** 
 196:Source\mbedtls_open\library/arc4.c ****     return( ret );
 197:Source\mbedtls_open\library/arc4.c **** }
 431              		.loc 1 197 0
 432 009a 2000     		movs	r0, r4
 433 009c 46B0     		add	sp, sp, #280
 434              		@ sp needed
 435              	.LVL60:
 436              	.LVL61:
 437              	.LVL62:
 438 009e 04BC     		pop	{r2}
 439 00a0 9046     		mov	r8, r2
 440 00a2 F0BD     		pop	{r4, r5, r6, r7, pc}
 441              	.L24:
 442              		.align	2
 443              	.L23:
 444 00a4 00000000 		.word	.LC0
 445 00a8 00000000 		.word	.LANCHOR0
 446 00ac 14000000 		.word	.LC3
 447 00b0 1C000000 		.word	.LC5
 448              		.cfi_endproc
 449              	.LFE5:
 450              		.size	mbedtls_arc4_self_test, .-mbedtls_arc4_self_test
 451              		.section	.rodata
 452              		.align	2
 453              		.set	.LANCHOR0,. + 0
 454              		.type	arc4_test_pt, %object
 455              		.size	arc4_test_pt, 24
 456              	arc4_test_pt:
 457 0000 01       		.byte	1
 458 0001 23       		.byte	35
 459 0002 45       		.byte	69
 460 0003 67       		.byte	103
 461 0004 89       		.byte	-119
 462 0005 AB       		.byte	-85
 463 0006 CD       		.byte	-51
 464 0007 EF       		.byte	-17
 465 0008 00       		.byte	0
 466 0009 00       		.byte	0
 467 000a 00       		.byte	0
 468 000b 00       		.byte	0
 469 000c 00       		.byte	0
 470 000d 00       		.byte	0
 471 000e 00       		.byte	0
 472 000f 00       		.byte	0
 473 0010 00       		.byte	0
 474 0011 00       		.byte	0
 475 0012 00       		.byte	0
ARM GAS  C:\Users\Phuong\AppData\Local\Temp\ccdITQbM.s 			page 13


 476 0013 00       		.byte	0
 477 0014 00       		.byte	0
 478 0015 00       		.byte	0
 479 0016 00       		.byte	0
 480 0017 00       		.byte	0
 481              		.type	arc4_test_key, %object
 482              		.size	arc4_test_key, 24
 483              	arc4_test_key:
 484 0018 01       		.byte	1
 485 0019 23       		.byte	35
 486 001a 45       		.byte	69
 487 001b 67       		.byte	103
 488 001c 89       		.byte	-119
 489 001d AB       		.byte	-85
 490 001e CD       		.byte	-51
 491 001f EF       		.byte	-17
 492 0020 01       		.byte	1
 493 0021 23       		.byte	35
 494 0022 45       		.byte	69
 495 0023 67       		.byte	103
 496 0024 89       		.byte	-119
 497 0025 AB       		.byte	-85
 498 0026 CD       		.byte	-51
 499 0027 EF       		.byte	-17
 500 0028 00       		.byte	0
 501 0029 00       		.byte	0
 502 002a 00       		.byte	0
 503 002b 00       		.byte	0
 504 002c 00       		.byte	0
 505 002d 00       		.byte	0
 506 002e 00       		.byte	0
 507 002f 00       		.byte	0
 508              		.type	arc4_test_ct, %object
 509              		.size	arc4_test_ct, 24
 510              	arc4_test_ct:
 511 0030 75       		.byte	117
 512 0031 B7       		.byte	-73
 513 0032 87       		.byte	-121
 514 0033 80       		.byte	-128
 515 0034 99       		.byte	-103
 516 0035 E0       		.byte	-32
 517 0036 C5       		.byte	-59
 518 0037 96       		.byte	-106
 519 0038 74       		.byte	116
 520 0039 94       		.byte	-108
 521 003a C2       		.byte	-62
 522 003b E7       		.byte	-25
 523 003c 10       		.byte	16
 524 003d 4B       		.byte	75
 525 003e 08       		.byte	8
 526 003f 79       		.byte	121
 527 0040 DE       		.byte	-34
 528 0041 18       		.byte	24
 529 0042 89       		.byte	-119
 530 0043 41       		.byte	65
 531 0044 A3       		.byte	-93
 532 0045 37       		.byte	55
ARM GAS  C:\Users\Phuong\AppData\Local\Temp\ccdITQbM.s 			page 14


 533 0046 5D       		.byte	93
 534 0047 3A       		.byte	58
 535              		.section	.rodata.str1.4,"aMS",%progbits,1
 536              		.align	2
 537              	.LC0:
 538 0000 20204152 		.ascii	"  ARC4 test #%d: \000"
 538      43342074 
 538      65737420 
 538      2325643A 
 538      2000
 539 0012 0000     		.space	2
 540              	.LC3:
 541 0014 6661696C 		.ascii	"failed\000"
 541      656400
 542 001b 00       		.space	1
 543              	.LC5:
 544 001c 70617373 		.ascii	"passed\000"
 544      656400
 545              		.text
 546              	.Letext0:
 547              		.file 2 ".\\Source\\mbedtls_open\\include/mbedtls/arc4.h"
 548              		.file 3 "c:\\program files (x86)\\cypress\\psoc creator\\4.2\\psoc creator\\import\\gnu\\arm\\5.4.
 549              		.file 4 ".\\Source\\mbedtls_open\\include/mbedtls/platform_util.h"
 550              		.file 5 "c:\\program files (x86)\\cypress\\psoc creator\\4.2\\psoc creator\\import\\gnu\\arm\\5.4.
 551              		.file 6 "c:\\program files (x86)\\cypress\\psoc creator\\4.2\\psoc creator\\import\\gnu\\arm\\5.4.
 552              		.file 7 "<built-in>"