ARM GAS  C:\Users\Phuong\AppData\Local\Temp\ccsxpYbh.s 			page 1


   1              		.syntax unified
   2              		.cpu cortex-m0plus
   3              		.fpu softvfp
   4              		.eabi_attribute 20, 1
   5              		.eabi_attribute 21, 1
   6              		.eabi_attribute 23, 3
   7              		.eabi_attribute 24, 1
   8              		.eabi_attribute 25, 1
   9              		.eabi_attribute 26, 1
  10              		.eabi_attribute 30, 1
  11              		.eabi_attribute 34, 0
  12              		.eabi_attribute 18, 4
  13              		.thumb
  14              		.syntax unified
  15              		.file	"asn1write.c"
  16              		.text
  17              	.Ltext0:
  18              		.cfi_sections	.debug_frame
  19              		.section	.text.mbedtls_asn1_write_len,"ax",%progbits
  20              		.align	2
  21              		.global	mbedtls_asn1_write_len
  22              		.code	16
  23              		.thumb_func
  24              		.type	mbedtls_asn1_write_len, %function
  25              	mbedtls_asn1_write_len:
  26              	.LFB1:
  27              		.file 1 "Source\\mbedtls_open\\library\\asn1write.c"
   1:Source\mbedtls_open\library/asn1write.c **** /*
   2:Source\mbedtls_open\library/asn1write.c ****  * ASN.1 buffer writing functionality
   3:Source\mbedtls_open\library/asn1write.c ****  *
   4:Source\mbedtls_open\library/asn1write.c ****  *  Copyright (C) 2006-2015, ARM Limited, All Rights Reserved
   5:Source\mbedtls_open\library/asn1write.c ****  *  SPDX-License-Identifier: Apache-2.0
   6:Source\mbedtls_open\library/asn1write.c ****  *
   7:Source\mbedtls_open\library/asn1write.c ****  *  Licensed under the Apache License, Version 2.0 (the "License"); you may
   8:Source\mbedtls_open\library/asn1write.c ****  *  not use this file except in compliance with the License.
   9:Source\mbedtls_open\library/asn1write.c ****  *  You may obtain a copy of the License at
  10:Source\mbedtls_open\library/asn1write.c ****  *
  11:Source\mbedtls_open\library/asn1write.c ****  *  http://www.apache.org/licenses/LICENSE-2.0
  12:Source\mbedtls_open\library/asn1write.c ****  *
  13:Source\mbedtls_open\library/asn1write.c ****  *  Unless required by applicable law or agreed to in writing, software
  14:Source\mbedtls_open\library/asn1write.c ****  *  distributed under the License is distributed on an "AS IS" BASIS, WITHOUT
  15:Source\mbedtls_open\library/asn1write.c ****  *  WARRANTIES OR CONDITIONS OF ANY KIND, either express or implied.
  16:Source\mbedtls_open\library/asn1write.c ****  *  See the License for the specific language governing permissions and
  17:Source\mbedtls_open\library/asn1write.c ****  *  limitations under the License.
  18:Source\mbedtls_open\library/asn1write.c ****  *
  19:Source\mbedtls_open\library/asn1write.c ****  *  This file is part of mbed TLS (https://tls.mbed.org)
  20:Source\mbedtls_open\library/asn1write.c ****  */
  21:Source\mbedtls_open\library/asn1write.c **** 
  22:Source\mbedtls_open\library/asn1write.c **** #if !defined(MBEDTLS_CONFIG_FILE)
  23:Source\mbedtls_open\library/asn1write.c **** #include "mbedtls/config.h"
  24:Source\mbedtls_open\library/asn1write.c **** #else
  25:Source\mbedtls_open\library/asn1write.c **** #include MBEDTLS_CONFIG_FILE
  26:Source\mbedtls_open\library/asn1write.c **** #endif
  27:Source\mbedtls_open\library/asn1write.c **** 
  28:Source\mbedtls_open\library/asn1write.c **** #if defined(MBEDTLS_ASN1_WRITE_C)
  29:Source\mbedtls_open\library/asn1write.c **** 
  30:Source\mbedtls_open\library/asn1write.c **** #include "mbedtls/asn1write.h"
ARM GAS  C:\Users\Phuong\AppData\Local\Temp\ccsxpYbh.s 			page 2


  31:Source\mbedtls_open\library/asn1write.c **** 
  32:Source\mbedtls_open\library/asn1write.c **** #include <string.h>
  33:Source\mbedtls_open\library/asn1write.c **** 
  34:Source\mbedtls_open\library/asn1write.c **** #if defined(MBEDTLS_PLATFORM_C)
  35:Source\mbedtls_open\library/asn1write.c **** #include "mbedtls/platform.h"
  36:Source\mbedtls_open\library/asn1write.c **** #else
  37:Source\mbedtls_open\library/asn1write.c **** #include <stdlib.h>
  38:Source\mbedtls_open\library/asn1write.c **** #define mbedtls_calloc    calloc
  39:Source\mbedtls_open\library/asn1write.c **** #define mbedtls_free       free
  40:Source\mbedtls_open\library/asn1write.c **** #endif
  41:Source\mbedtls_open\library/asn1write.c **** 
  42:Source\mbedtls_open\library/asn1write.c **** int mbedtls_asn1_write_len( unsigned char **p, unsigned char *start, size_t len )
  43:Source\mbedtls_open\library/asn1write.c **** {
  28              		.loc 1 43 0
  29              		.cfi_startproc
  30              		@ args = 0, pretend = 0, frame = 0
  31              		@ frame_needed = 0, uses_anonymous_args = 0
  32              		@ link register save eliminated.
  33              	.LVL0:
  44:Source\mbedtls_open\library/asn1write.c ****     if( len < 0x80 )
  34              		.loc 1 44 0
  35 0000 7F2A     		cmp	r2, #127
  36 0002 08D8     		bhi	.L2
  45:Source\mbedtls_open\library/asn1write.c ****     {
  46:Source\mbedtls_open\library/asn1write.c ****         if( *p - start < 1 )
  37              		.loc 1 46 0
  38 0004 0368     		ldr	r3, [r0]
  39 0006 591A     		subs	r1, r3, r1
  40              	.LVL1:
  41 0008 0029     		cmp	r1, #0
  42 000a 62DD     		ble	.L7
  47:Source\mbedtls_open\library/asn1write.c ****             return( MBEDTLS_ERR_ASN1_BUF_TOO_SMALL );
  48:Source\mbedtls_open\library/asn1write.c **** 
  49:Source\mbedtls_open\library/asn1write.c ****         *--(*p) = (unsigned char) len;
  43              		.loc 1 49 0
  44 000c 013B     		subs	r3, r3, #1
  45 000e 0360     		str	r3, [r0]
  46 0010 1A70     		strb	r2, [r3]
  50:Source\mbedtls_open\library/asn1write.c ****         return( 1 );
  47              		.loc 1 50 0
  48 0012 0120     		movs	r0, #1
  49              	.LVL2:
  50 0014 6BE0     		b	.L3
  51              	.LVL3:
  52              	.L2:
  51:Source\mbedtls_open\library/asn1write.c ****     }
  52:Source\mbedtls_open\library/asn1write.c **** 
  53:Source\mbedtls_open\library/asn1write.c ****     if( len <= 0xFF )
  53              		.loc 1 53 0
  54 0016 FF2A     		cmp	r2, #255
  55 0018 0DD8     		bhi	.L4
  54:Source\mbedtls_open\library/asn1write.c ****     {
  55:Source\mbedtls_open\library/asn1write.c ****         if( *p - start < 2 )
  56              		.loc 1 55 0
  57 001a 0368     		ldr	r3, [r0]
  58 001c 591A     		subs	r1, r3, r1
  59              	.LVL4:
ARM GAS  C:\Users\Phuong\AppData\Local\Temp\ccsxpYbh.s 			page 3


  60 001e 0129     		cmp	r1, #1
  61 0020 5ADD     		ble	.L8
  56:Source\mbedtls_open\library/asn1write.c ****             return( MBEDTLS_ERR_ASN1_BUF_TOO_SMALL );
  57:Source\mbedtls_open\library/asn1write.c **** 
  58:Source\mbedtls_open\library/asn1write.c ****         *--(*p) = (unsigned char) len;
  62              		.loc 1 58 0
  63 0022 013B     		subs	r3, r3, #1
  64 0024 0360     		str	r3, [r0]
  65 0026 1A70     		strb	r2, [r3]
  59:Source\mbedtls_open\library/asn1write.c ****         *--(*p) = 0x81;
  66              		.loc 1 59 0
  67 0028 0368     		ldr	r3, [r0]
  68 002a 013B     		subs	r3, r3, #1
  69 002c 0360     		str	r3, [r0]
  70 002e 8122     		movs	r2, #129
  71              	.LVL5:
  72 0030 1A70     		strb	r2, [r3]
  60:Source\mbedtls_open\library/asn1write.c ****         return( 2 );
  73              		.loc 1 60 0
  74 0032 0220     		movs	r0, #2
  75              	.LVL6:
  76 0034 5BE0     		b	.L3
  77              	.LVL7:
  78              	.L4:
  61:Source\mbedtls_open\library/asn1write.c ****     }
  62:Source\mbedtls_open\library/asn1write.c **** 
  63:Source\mbedtls_open\library/asn1write.c ****     if( len <= 0xFFFF )
  79              		.loc 1 63 0
  80 0036 2E4B     		ldr	r3, .L12
  81 0038 9A42     		cmp	r2, r3
  82 003a 12D8     		bhi	.L5
  64:Source\mbedtls_open\library/asn1write.c ****     {
  65:Source\mbedtls_open\library/asn1write.c ****         if( *p - start < 3 )
  83              		.loc 1 65 0
  84 003c 0368     		ldr	r3, [r0]
  85 003e 591A     		subs	r1, r3, r1
  86              	.LVL8:
  87 0040 0229     		cmp	r1, #2
  88 0042 4CDD     		ble	.L9
  66:Source\mbedtls_open\library/asn1write.c ****             return( MBEDTLS_ERR_ASN1_BUF_TOO_SMALL );
  67:Source\mbedtls_open\library/asn1write.c **** 
  68:Source\mbedtls_open\library/asn1write.c ****         *--(*p) = ( len       ) & 0xFF;
  89              		.loc 1 68 0
  90 0044 013B     		subs	r3, r3, #1
  91 0046 0360     		str	r3, [r0]
  92 0048 1A70     		strb	r2, [r3]
  69:Source\mbedtls_open\library/asn1write.c ****         *--(*p) = ( len >>  8 ) & 0xFF;
  93              		.loc 1 69 0
  94 004a 0368     		ldr	r3, [r0]
  95 004c 013B     		subs	r3, r3, #1
  96 004e 0360     		str	r3, [r0]
  97 0050 120A     		lsrs	r2, r2, #8
  98              	.LVL9:
  99 0052 1A70     		strb	r2, [r3]
  70:Source\mbedtls_open\library/asn1write.c ****         *--(*p) = 0x82;
 100              		.loc 1 70 0
 101 0054 0368     		ldr	r3, [r0]
ARM GAS  C:\Users\Phuong\AppData\Local\Temp\ccsxpYbh.s 			page 4


 102 0056 013B     		subs	r3, r3, #1
 103 0058 0360     		str	r3, [r0]
 104 005a 8222     		movs	r2, #130
 105 005c 1A70     		strb	r2, [r3]
  71:Source\mbedtls_open\library/asn1write.c ****         return( 3 );
 106              		.loc 1 71 0
 107 005e 0320     		movs	r0, #3
 108              	.LVL10:
 109 0060 45E0     		b	.L3
 110              	.LVL11:
 111              	.L5:
  72:Source\mbedtls_open\library/asn1write.c ****     }
  73:Source\mbedtls_open\library/asn1write.c **** 
  74:Source\mbedtls_open\library/asn1write.c ****     if( len <= 0xFFFFFF )
 112              		.loc 1 74 0
 113 0062 244B     		ldr	r3, .L12+4
 114 0064 9A42     		cmp	r2, r3
 115 0066 17D8     		bhi	.L6
  75:Source\mbedtls_open\library/asn1write.c ****     {
  76:Source\mbedtls_open\library/asn1write.c ****         if( *p - start < 4 )
 116              		.loc 1 76 0
 117 0068 0368     		ldr	r3, [r0]
 118 006a 591A     		subs	r1, r3, r1
 119              	.LVL12:
 120 006c 0329     		cmp	r1, #3
 121 006e 39DD     		ble	.L10
  77:Source\mbedtls_open\library/asn1write.c ****             return( MBEDTLS_ERR_ASN1_BUF_TOO_SMALL );
  78:Source\mbedtls_open\library/asn1write.c **** 
  79:Source\mbedtls_open\library/asn1write.c ****         *--(*p) = ( len       ) & 0xFF;
 122              		.loc 1 79 0
 123 0070 013B     		subs	r3, r3, #1
 124 0072 0360     		str	r3, [r0]
 125 0074 1A70     		strb	r2, [r3]
  80:Source\mbedtls_open\library/asn1write.c ****         *--(*p) = ( len >>  8 ) & 0xFF;
 126              		.loc 1 80 0
 127 0076 0368     		ldr	r3, [r0]
 128 0078 013B     		subs	r3, r3, #1
 129 007a 0360     		str	r3, [r0]
 130 007c 110A     		lsrs	r1, r2, #8
 131 007e 1970     		strb	r1, [r3]
  81:Source\mbedtls_open\library/asn1write.c ****         *--(*p) = ( len >> 16 ) & 0xFF;
 132              		.loc 1 81 0
 133 0080 0368     		ldr	r3, [r0]
 134 0082 013B     		subs	r3, r3, #1
 135 0084 0360     		str	r3, [r0]
 136 0086 120C     		lsrs	r2, r2, #16
 137              	.LVL13:
 138 0088 1A70     		strb	r2, [r3]
  82:Source\mbedtls_open\library/asn1write.c ****         *--(*p) = 0x83;
 139              		.loc 1 82 0
 140 008a 0368     		ldr	r3, [r0]
 141 008c 013B     		subs	r3, r3, #1
 142 008e 0360     		str	r3, [r0]
 143 0090 8322     		movs	r2, #131
 144 0092 1A70     		strb	r2, [r3]
  83:Source\mbedtls_open\library/asn1write.c ****         return( 4 );
 145              		.loc 1 83 0
ARM GAS  C:\Users\Phuong\AppData\Local\Temp\ccsxpYbh.s 			page 5


 146 0094 0420     		movs	r0, #4
 147              	.LVL14:
 148 0096 2AE0     		b	.L3
 149              	.LVL15:
 150              	.L6:
  84:Source\mbedtls_open\library/asn1write.c ****     }
  85:Source\mbedtls_open\library/asn1write.c **** 
  86:Source\mbedtls_open\library/asn1write.c **** #if SIZE_MAX > 0xFFFFFFFF
  87:Source\mbedtls_open\library/asn1write.c ****     if( len <= 0xFFFFFFFF )
  88:Source\mbedtls_open\library/asn1write.c **** #endif
  89:Source\mbedtls_open\library/asn1write.c ****     {
  90:Source\mbedtls_open\library/asn1write.c ****         if( *p - start < 5 )
 151              		.loc 1 90 0
 152 0098 0368     		ldr	r3, [r0]
 153 009a 591A     		subs	r1, r3, r1
 154              	.LVL16:
 155 009c 0429     		cmp	r1, #4
 156 009e 24DD     		ble	.L11
  91:Source\mbedtls_open\library/asn1write.c ****             return( MBEDTLS_ERR_ASN1_BUF_TOO_SMALL );
  92:Source\mbedtls_open\library/asn1write.c **** 
  93:Source\mbedtls_open\library/asn1write.c ****         *--(*p) = ( len       ) & 0xFF;
 157              		.loc 1 93 0
 158 00a0 013B     		subs	r3, r3, #1
 159 00a2 0360     		str	r3, [r0]
 160 00a4 1A70     		strb	r2, [r3]
  94:Source\mbedtls_open\library/asn1write.c ****         *--(*p) = ( len >>  8 ) & 0xFF;
 161              		.loc 1 94 0
 162 00a6 0368     		ldr	r3, [r0]
 163 00a8 013B     		subs	r3, r3, #1
 164 00aa 0360     		str	r3, [r0]
 165 00ac 110A     		lsrs	r1, r2, #8
 166 00ae 1970     		strb	r1, [r3]
  95:Source\mbedtls_open\library/asn1write.c ****         *--(*p) = ( len >> 16 ) & 0xFF;
 167              		.loc 1 95 0
 168 00b0 0368     		ldr	r3, [r0]
 169 00b2 013B     		subs	r3, r3, #1
 170 00b4 0360     		str	r3, [r0]
 171 00b6 110C     		lsrs	r1, r2, #16
 172 00b8 1970     		strb	r1, [r3]
  96:Source\mbedtls_open\library/asn1write.c ****         *--(*p) = ( len >> 24 ) & 0xFF;
 173              		.loc 1 96 0
 174 00ba 0368     		ldr	r3, [r0]
 175 00bc 013B     		subs	r3, r3, #1
 176 00be 0360     		str	r3, [r0]
 177 00c0 120E     		lsrs	r2, r2, #24
 178              	.LVL17:
 179 00c2 1A70     		strb	r2, [r3]
  97:Source\mbedtls_open\library/asn1write.c ****         *--(*p) = 0x84;
 180              		.loc 1 97 0
 181 00c4 0368     		ldr	r3, [r0]
 182 00c6 013B     		subs	r3, r3, #1
 183 00c8 0360     		str	r3, [r0]
 184 00ca 8422     		movs	r2, #132
 185 00cc 1A70     		strb	r2, [r3]
  98:Source\mbedtls_open\library/asn1write.c ****         return( 5 );
 186              		.loc 1 98 0
 187 00ce 0520     		movs	r0, #5
ARM GAS  C:\Users\Phuong\AppData\Local\Temp\ccsxpYbh.s 			page 6


 188              	.LVL18:
 189 00d0 0DE0     		b	.L3
 190              	.LVL19:
 191              	.L7:
  47:Source\mbedtls_open\library/asn1write.c **** 
 192              		.loc 1 47 0
 193 00d2 6C20     		movs	r0, #108
 194              	.LVL20:
 195 00d4 4042     		rsbs	r0, r0, #0
 196 00d6 0AE0     		b	.L3
 197              	.LVL21:
 198              	.L8:
  56:Source\mbedtls_open\library/asn1write.c **** 
 199              		.loc 1 56 0
 200 00d8 6C20     		movs	r0, #108
 201              	.LVL22:
 202 00da 4042     		rsbs	r0, r0, #0
 203 00dc 07E0     		b	.L3
 204              	.LVL23:
 205              	.L9:
  66:Source\mbedtls_open\library/asn1write.c **** 
 206              		.loc 1 66 0
 207 00de 6C20     		movs	r0, #108
 208              	.LVL24:
 209 00e0 4042     		rsbs	r0, r0, #0
 210 00e2 04E0     		b	.L3
 211              	.LVL25:
 212              	.L10:
  77:Source\mbedtls_open\library/asn1write.c **** 
 213              		.loc 1 77 0
 214 00e4 6C20     		movs	r0, #108
 215              	.LVL26:
 216 00e6 4042     		rsbs	r0, r0, #0
 217 00e8 01E0     		b	.L3
 218              	.LVL27:
 219              	.L11:
  91:Source\mbedtls_open\library/asn1write.c **** 
 220              		.loc 1 91 0
 221 00ea 6C20     		movs	r0, #108
 222              	.LVL28:
 223 00ec 4042     		rsbs	r0, r0, #0
 224              	.LVL29:
 225              	.L3:
  99:Source\mbedtls_open\library/asn1write.c ****     }
 100:Source\mbedtls_open\library/asn1write.c **** 
 101:Source\mbedtls_open\library/asn1write.c **** #if SIZE_MAX > 0xFFFFFFFF
 102:Source\mbedtls_open\library/asn1write.c ****     return( MBEDTLS_ERR_ASN1_INVALID_LENGTH );
 103:Source\mbedtls_open\library/asn1write.c **** #endif
 104:Source\mbedtls_open\library/asn1write.c **** }
 226              		.loc 1 104 0
 227              		@ sp needed
 228 00ee 7047     		bx	lr
 229              	.L13:
 230              		.align	2
 231              	.L12:
 232 00f0 FFFF0000 		.word	65535
 233 00f4 FFFFFF00 		.word	16777215
ARM GAS  C:\Users\Phuong\AppData\Local\Temp\ccsxpYbh.s 			page 7


 234              		.cfi_endproc
 235              	.LFE1:
 236              		.size	mbedtls_asn1_write_len, .-mbedtls_asn1_write_len
 237              		.section	.text.mbedtls_asn1_write_tag,"ax",%progbits
 238              		.align	2
 239              		.global	mbedtls_asn1_write_tag
 240              		.code	16
 241              		.thumb_func
 242              		.type	mbedtls_asn1_write_tag, %function
 243              	mbedtls_asn1_write_tag:
 244              	.LFB2:
 105:Source\mbedtls_open\library/asn1write.c **** 
 106:Source\mbedtls_open\library/asn1write.c **** int mbedtls_asn1_write_tag( unsigned char **p, unsigned char *start, unsigned char tag )
 107:Source\mbedtls_open\library/asn1write.c **** {
 245              		.loc 1 107 0
 246              		.cfi_startproc
 247              		@ args = 0, pretend = 0, frame = 0
 248              		@ frame_needed = 0, uses_anonymous_args = 0
 249              		@ link register save eliminated.
 250              	.LVL30:
 108:Source\mbedtls_open\library/asn1write.c ****     if( *p - start < 1 )
 251              		.loc 1 108 0
 252 0000 0368     		ldr	r3, [r0]
 253 0002 591A     		subs	r1, r3, r1
 254              	.LVL31:
 255 0004 0029     		cmp	r1, #0
 256 0006 04DD     		ble	.L16
 109:Source\mbedtls_open\library/asn1write.c ****         return( MBEDTLS_ERR_ASN1_BUF_TOO_SMALL );
 110:Source\mbedtls_open\library/asn1write.c **** 
 111:Source\mbedtls_open\library/asn1write.c ****     *--(*p) = tag;
 257              		.loc 1 111 0
 258 0008 013B     		subs	r3, r3, #1
 259 000a 0360     		str	r3, [r0]
 260 000c 1A70     		strb	r2, [r3]
 112:Source\mbedtls_open\library/asn1write.c **** 
 113:Source\mbedtls_open\library/asn1write.c ****     return( 1 );
 261              		.loc 1 113 0
 262 000e 0120     		movs	r0, #1
 263              	.LVL32:
 264 0010 01E0     		b	.L15
 265              	.LVL33:
 266              	.L16:
 109:Source\mbedtls_open\library/asn1write.c ****         return( MBEDTLS_ERR_ASN1_BUF_TOO_SMALL );
 267              		.loc 1 109 0
 268 0012 6C20     		movs	r0, #108
 269              	.LVL34:
 270 0014 4042     		rsbs	r0, r0, #0
 271              	.L15:
 114:Source\mbedtls_open\library/asn1write.c **** }
 272              		.loc 1 114 0
 273              		@ sp needed
 274 0016 7047     		bx	lr
 275              		.cfi_endproc
 276              	.LFE2:
 277              		.size	mbedtls_asn1_write_tag, .-mbedtls_asn1_write_tag
 278              		.section	.text.mbedtls_asn1_write_raw_buffer,"ax",%progbits
 279              		.align	2
ARM GAS  C:\Users\Phuong\AppData\Local\Temp\ccsxpYbh.s 			page 8


 280              		.global	mbedtls_asn1_write_raw_buffer
 281              		.code	16
 282              		.thumb_func
 283              		.type	mbedtls_asn1_write_raw_buffer, %function
 284              	mbedtls_asn1_write_raw_buffer:
 285              	.LFB3:
 115:Source\mbedtls_open\library/asn1write.c **** 
 116:Source\mbedtls_open\library/asn1write.c **** int mbedtls_asn1_write_raw_buffer( unsigned char **p, unsigned char *start,
 117:Source\mbedtls_open\library/asn1write.c ****                            const unsigned char *buf, size_t size )
 118:Source\mbedtls_open\library/asn1write.c **** {
 286              		.loc 1 118 0
 287              		.cfi_startproc
 288              		@ args = 0, pretend = 0, frame = 0
 289              		@ frame_needed = 0, uses_anonymous_args = 0
 290              	.LVL35:
 291 0000 70B5     		push	{r4, r5, r6, lr}
 292              		.cfi_def_cfa_offset 16
 293              		.cfi_offset 4, -16
 294              		.cfi_offset 5, -12
 295              		.cfi_offset 6, -8
 296              		.cfi_offset 14, -4
 297 0002 1500     		movs	r5, r2
 298 0004 1C00     		movs	r4, r3
 299              	.LVL36:
 119:Source\mbedtls_open\library/asn1write.c ****     size_t len = 0;
 120:Source\mbedtls_open\library/asn1write.c **** 
 121:Source\mbedtls_open\library/asn1write.c ****     if( *p < start || (size_t)( *p - start ) < size )
 300              		.loc 1 121 0
 301 0006 0368     		ldr	r3, [r0]
 302              	.LVL37:
 303 0008 8B42     		cmp	r3, r1
 304 000a 0BD3     		bcc	.L19
 305              		.loc 1 121 0 is_stmt 0 discriminator 1
 306 000c 5A1A     		subs	r2, r3, r1
 307              	.LVL38:
 308 000e A242     		cmp	r2, r4
 309 0010 0BD3     		bcc	.L20
 310              	.LVL39:
 122:Source\mbedtls_open\library/asn1write.c ****         return( MBEDTLS_ERR_ASN1_BUF_TOO_SMALL );
 123:Source\mbedtls_open\library/asn1write.c **** 
 124:Source\mbedtls_open\library/asn1write.c ****     len = size;
 125:Source\mbedtls_open\library/asn1write.c ****     (*p) -= len;
 311              		.loc 1 125 0 is_stmt 1
 312 0012 1B1B     		subs	r3, r3, r4
 313 0014 0360     		str	r3, [r0]
 126:Source\mbedtls_open\library/asn1write.c ****     memcpy( *p, buf, len );
 314              		.loc 1 126 0
 315 0016 2200     		movs	r2, r4
 316 0018 2900     		movs	r1, r5
 317              	.LVL40:
 318 001a 1800     		movs	r0, r3
 319              	.LVL41:
 320 001c FFF7FEFF 		bl	memcpy
 321              	.LVL42:
 127:Source\mbedtls_open\library/asn1write.c **** 
 128:Source\mbedtls_open\library/asn1write.c ****     return( (int) len );
 322              		.loc 1 128 0
ARM GAS  C:\Users\Phuong\AppData\Local\Temp\ccsxpYbh.s 			page 9


 323 0020 2000     		movs	r0, r4
 324 0022 04E0     		b	.L18
 325              	.LVL43:
 326              	.L19:
 122:Source\mbedtls_open\library/asn1write.c **** 
 327              		.loc 1 122 0
 328 0024 6C20     		movs	r0, #108
 329              	.LVL44:
 330 0026 4042     		rsbs	r0, r0, #0
 331 0028 01E0     		b	.L18
 332              	.LVL45:
 333              	.L20:
 334 002a 6C20     		movs	r0, #108
 335              	.LVL46:
 336 002c 4042     		rsbs	r0, r0, #0
 337              	.LVL47:
 338              	.L18:
 129:Source\mbedtls_open\library/asn1write.c **** }
 339              		.loc 1 129 0
 340              		@ sp needed
 341              	.LVL48:
 342              	.LVL49:
 343 002e 70BD     		pop	{r4, r5, r6, pc}
 344              		.cfi_endproc
 345              	.LFE3:
 346              		.size	mbedtls_asn1_write_raw_buffer, .-mbedtls_asn1_write_raw_buffer
 347              		.section	.text.mbedtls_asn1_write_mpi,"ax",%progbits
 348              		.align	2
 349              		.global	mbedtls_asn1_write_mpi
 350              		.code	16
 351              		.thumb_func
 352              		.type	mbedtls_asn1_write_mpi, %function
 353              	mbedtls_asn1_write_mpi:
 354              	.LFB4:
 130:Source\mbedtls_open\library/asn1write.c **** 
 131:Source\mbedtls_open\library/asn1write.c **** #if defined(MBEDTLS_BIGNUM_C)
 132:Source\mbedtls_open\library/asn1write.c **** int mbedtls_asn1_write_mpi( unsigned char **p, unsigned char *start, const mbedtls_mpi *X )
 133:Source\mbedtls_open\library/asn1write.c **** {
 355              		.loc 1 133 0
 356              		.cfi_startproc
 357              		@ args = 0, pretend = 0, frame = 0
 358              		@ frame_needed = 0, uses_anonymous_args = 0
 359              	.LVL50:
 360 0000 F8B5     		push	{r3, r4, r5, r6, r7, lr}
 361              		.cfi_def_cfa_offset 24
 362              		.cfi_offset 3, -24
 363              		.cfi_offset 4, -20
 364              		.cfi_offset 5, -16
 365              		.cfi_offset 6, -12
 366              		.cfi_offset 7, -8
 367              		.cfi_offset 14, -4
 368 0002 0600     		movs	r6, r0
 369 0004 0F00     		movs	r7, r1
 370 0006 1400     		movs	r4, r2
 371              	.LVL51:
 134:Source\mbedtls_open\library/asn1write.c ****     int ret;
 135:Source\mbedtls_open\library/asn1write.c ****     size_t len = 0;
ARM GAS  C:\Users\Phuong\AppData\Local\Temp\ccsxpYbh.s 			page 10


 136:Source\mbedtls_open\library/asn1write.c **** 
 137:Source\mbedtls_open\library/asn1write.c ****     // Write the MPI
 138:Source\mbedtls_open\library/asn1write.c ****     //
 139:Source\mbedtls_open\library/asn1write.c ****     len = mbedtls_mpi_size( X );
 372              		.loc 1 139 0
 373 0008 1000     		movs	r0, r2
 374              	.LVL52:
 375 000a FFF7FEFF 		bl	mbedtls_mpi_size
 376              	.LVL53:
 377 000e 0500     		movs	r5, r0
 378              	.LVL54:
 140:Source\mbedtls_open\library/asn1write.c **** 
 141:Source\mbedtls_open\library/asn1write.c ****     if( *p < start || (size_t)( *p - start ) < len )
 379              		.loc 1 141 0
 380 0010 3168     		ldr	r1, [r6]
 381 0012 B942     		cmp	r1, r7
 382 0014 2BD3     		bcc	.L24
 383              		.loc 1 141 0 is_stmt 0 discriminator 1
 384 0016 CB1B     		subs	r3, r1, r7
 385 0018 9842     		cmp	r0, r3
 386 001a 2BD8     		bhi	.L25
 142:Source\mbedtls_open\library/asn1write.c ****         return( MBEDTLS_ERR_ASN1_BUF_TOO_SMALL );
 143:Source\mbedtls_open\library/asn1write.c **** 
 144:Source\mbedtls_open\library/asn1write.c ****     (*p) -= len;
 387              		.loc 1 144 0 is_stmt 1
 388 001c 091A     		subs	r1, r1, r0
 389 001e 3160     		str	r1, [r6]
 145:Source\mbedtls_open\library/asn1write.c ****     MBEDTLS_MPI_CHK( mbedtls_mpi_write_binary( X, *p, len ) );
 390              		.loc 1 145 0
 391 0020 0200     		movs	r2, r0
 392 0022 2000     		movs	r0, r4
 393              	.LVL55:
 394 0024 FFF7FEFF 		bl	mbedtls_mpi_write_binary
 395              	.LVL56:
 396 0028 0028     		cmp	r0, #0
 397 002a 28D1     		bne	.L22
 146:Source\mbedtls_open\library/asn1write.c **** 
 147:Source\mbedtls_open\library/asn1write.c ****     // DER format assumes 2s complement for numbers, so the leftmost bit
 148:Source\mbedtls_open\library/asn1write.c ****     // should be 0 for positive numbers and 1 for negative numbers.
 149:Source\mbedtls_open\library/asn1write.c ****     //
 150:Source\mbedtls_open\library/asn1write.c ****     if( X->s ==1 && **p & 0x80 )
 398              		.loc 1 150 0
 399 002c 2368     		ldr	r3, [r4]
 400 002e 012B     		cmp	r3, #1
 401 0030 0CD1     		bne	.L23
 402              		.loc 1 150 0 is_stmt 0 discriminator 1
 403 0032 3368     		ldr	r3, [r6]
 404 0034 0022     		movs	r2, #0
 405 0036 9A56     		ldrsb	r2, [r3, r2]
 406 0038 002A     		cmp	r2, #0
 407 003a 07DA     		bge	.L23
 151:Source\mbedtls_open\library/asn1write.c ****     {
 152:Source\mbedtls_open\library/asn1write.c ****         if( *p - start < 1 )
 408              		.loc 1 152 0 is_stmt 1
 409 003c DA1B     		subs	r2, r3, r7
 410 003e 002A     		cmp	r2, #0
 411 0040 1BDD     		ble	.L27
ARM GAS  C:\Users\Phuong\AppData\Local\Temp\ccsxpYbh.s 			page 11


 153:Source\mbedtls_open\library/asn1write.c ****             return( MBEDTLS_ERR_ASN1_BUF_TOO_SMALL );
 154:Source\mbedtls_open\library/asn1write.c **** 
 155:Source\mbedtls_open\library/asn1write.c ****         *--(*p) = 0x00;
 412              		.loc 1 155 0
 413 0042 013B     		subs	r3, r3, #1
 414 0044 3360     		str	r3, [r6]
 415 0046 0022     		movs	r2, #0
 416 0048 1A70     		strb	r2, [r3]
 156:Source\mbedtls_open\library/asn1write.c ****         len += 1;
 417              		.loc 1 156 0
 418 004a 0135     		adds	r5, r5, #1
 419              	.LVL57:
 420              	.L23:
 157:Source\mbedtls_open\library/asn1write.c ****     }
 158:Source\mbedtls_open\library/asn1write.c **** 
 159:Source\mbedtls_open\library/asn1write.c ****     MBEDTLS_ASN1_CHK_ADD( len, mbedtls_asn1_write_len( p, start, len ) );
 421              		.loc 1 159 0
 422 004c 2A00     		movs	r2, r5
 423 004e 3900     		movs	r1, r7
 424 0050 3000     		movs	r0, r6
 425              	.LVL58:
 426 0052 FFF7FEFF 		bl	mbedtls_asn1_write_len
 427              	.LVL59:
 428 0056 0028     		cmp	r0, #0
 429 0058 11DB     		blt	.L22
 430              		.loc 1 159 0 is_stmt 0 discriminator 2
 431 005a 4519     		adds	r5, r0, r5
 432              	.LVL60:
 160:Source\mbedtls_open\library/asn1write.c ****     MBEDTLS_ASN1_CHK_ADD( len, mbedtls_asn1_write_tag( p, start, MBEDTLS_ASN1_INTEGER ) );
 433              		.loc 1 160 0 is_stmt 1 discriminator 2
 434 005c 0222     		movs	r2, #2
 435 005e 3900     		movs	r1, r7
 436 0060 3000     		movs	r0, r6
 437              	.LVL61:
 438 0062 FFF7FEFF 		bl	mbedtls_asn1_write_tag
 439              	.LVL62:
 440 0066 0028     		cmp	r0, #0
 441 0068 09DB     		blt	.L22
 442              	.LVL63:
 161:Source\mbedtls_open\library/asn1write.c **** 
 162:Source\mbedtls_open\library/asn1write.c ****     ret = (int) len;
 443              		.loc 1 162 0 discriminator 2
 444 006a 4019     		adds	r0, r0, r5
 445              	.LVL64:
 446 006c 07E0     		b	.L22
 447              	.LVL65:
 448              	.L24:
 142:Source\mbedtls_open\library/asn1write.c **** 
 449              		.loc 1 142 0
 450 006e 6C20     		movs	r0, #108
 451              	.LVL66:
 452 0070 4042     		rsbs	r0, r0, #0
 453 0072 04E0     		b	.L22
 454              	.LVL67:
 455              	.L25:
 456 0074 6C20     		movs	r0, #108
 457              	.LVL68:
ARM GAS  C:\Users\Phuong\AppData\Local\Temp\ccsxpYbh.s 			page 12


 458 0076 4042     		rsbs	r0, r0, #0
 459 0078 01E0     		b	.L22
 460              	.LVL69:
 461              	.L27:
 153:Source\mbedtls_open\library/asn1write.c **** 
 462              		.loc 1 153 0
 463 007a 6C20     		movs	r0, #108
 464              	.LVL70:
 465 007c 4042     		rsbs	r0, r0, #0
 466              	.LVL71:
 467              	.L22:
 163:Source\mbedtls_open\library/asn1write.c **** 
 164:Source\mbedtls_open\library/asn1write.c **** cleanup:
 165:Source\mbedtls_open\library/asn1write.c ****     return( ret );
 166:Source\mbedtls_open\library/asn1write.c **** }
 468              		.loc 1 166 0
 469              		@ sp needed
 470              	.LVL72:
 471              	.LVL73:
 472              	.LVL74:
 473 007e F8BD     		pop	{r3, r4, r5, r6, r7, pc}
 474              		.cfi_endproc
 475              	.LFE4:
 476              		.size	mbedtls_asn1_write_mpi, .-mbedtls_asn1_write_mpi
 477              		.section	.text.mbedtls_asn1_write_null,"ax",%progbits
 478              		.align	2
 479              		.global	mbedtls_asn1_write_null
 480              		.code	16
 481              		.thumb_func
 482              		.type	mbedtls_asn1_write_null, %function
 483              	mbedtls_asn1_write_null:
 484              	.LFB5:
 167:Source\mbedtls_open\library/asn1write.c **** #endif /* MBEDTLS_BIGNUM_C */
 168:Source\mbedtls_open\library/asn1write.c **** 
 169:Source\mbedtls_open\library/asn1write.c **** int mbedtls_asn1_write_null( unsigned char **p, unsigned char *start )
 170:Source\mbedtls_open\library/asn1write.c **** {
 485              		.loc 1 170 0
 486              		.cfi_startproc
 487              		@ args = 0, pretend = 0, frame = 0
 488              		@ frame_needed = 0, uses_anonymous_args = 0
 489              	.LVL75:
 490 0000 70B5     		push	{r4, r5, r6, lr}
 491              		.cfi_def_cfa_offset 16
 492              		.cfi_offset 4, -16
 493              		.cfi_offset 5, -12
 494              		.cfi_offset 6, -8
 495              		.cfi_offset 14, -4
 496 0002 0500     		movs	r5, r0
 497 0004 0E00     		movs	r6, r1
 498              	.LVL76:
 171:Source\mbedtls_open\library/asn1write.c ****     int ret;
 172:Source\mbedtls_open\library/asn1write.c ****     size_t len = 0;
 173:Source\mbedtls_open\library/asn1write.c **** 
 174:Source\mbedtls_open\library/asn1write.c ****     // Write NULL
 175:Source\mbedtls_open\library/asn1write.c ****     //
 176:Source\mbedtls_open\library/asn1write.c ****     MBEDTLS_ASN1_CHK_ADD( len, mbedtls_asn1_write_len( p, start, 0) );
 499              		.loc 1 176 0
ARM GAS  C:\Users\Phuong\AppData\Local\Temp\ccsxpYbh.s 			page 13


 500 0006 0022     		movs	r2, #0
 501 0008 FFF7FEFF 		bl	mbedtls_asn1_write_len
 502              	.LVL77:
 503 000c 041E     		subs	r4, r0, #0
 504              	.LVL78:
 505 000e 08DB     		blt	.L32
 506              	.LVL79:
 177:Source\mbedtls_open\library/asn1write.c ****     MBEDTLS_ASN1_CHK_ADD( len, mbedtls_asn1_write_tag( p, start, MBEDTLS_ASN1_NULL ) );
 507              		.loc 1 177 0 discriminator 2
 508 0010 0522     		movs	r2, #5
 509 0012 3100     		movs	r1, r6
 510 0014 2800     		movs	r0, r5
 511              	.LVL80:
 512 0016 FFF7FEFF 		bl	mbedtls_asn1_write_tag
 513              	.LVL81:
 514 001a 0028     		cmp	r0, #0
 515 001c 01DB     		blt	.L31
 516 001e 0019     		adds	r0, r0, r4
 517              	.LVL82:
 178:Source\mbedtls_open\library/asn1write.c **** 
 179:Source\mbedtls_open\library/asn1write.c ****     return( (int) len );
 518              		.loc 1 179 0 discriminator 2
 519 0020 FFE7     		b	.L31
 520              	.LVL83:
 521              	.L32:
 522              	.L31:
 180:Source\mbedtls_open\library/asn1write.c **** }
 523              		.loc 1 180 0
 524              		@ sp needed
 525              	.LVL84:
 526              	.LVL85:
 527 0022 70BD     		pop	{r4, r5, r6, pc}
 528              		.cfi_endproc
 529              	.LFE5:
 530              		.size	mbedtls_asn1_write_null, .-mbedtls_asn1_write_null
 531              		.section	.text.mbedtls_asn1_write_oid,"ax",%progbits
 532              		.align	2
 533              		.global	mbedtls_asn1_write_oid
 534              		.code	16
 535              		.thumb_func
 536              		.type	mbedtls_asn1_write_oid, %function
 537              	mbedtls_asn1_write_oid:
 538              	.LFB6:
 181:Source\mbedtls_open\library/asn1write.c **** 
 182:Source\mbedtls_open\library/asn1write.c **** int mbedtls_asn1_write_oid( unsigned char **p, unsigned char *start,
 183:Source\mbedtls_open\library/asn1write.c ****                     const char *oid, size_t oid_len )
 184:Source\mbedtls_open\library/asn1write.c **** {
 539              		.loc 1 184 0
 540              		.cfi_startproc
 541              		@ args = 0, pretend = 0, frame = 0
 542              		@ frame_needed = 0, uses_anonymous_args = 0
 543              	.LVL86:
 544 0000 70B5     		push	{r4, r5, r6, lr}
 545              		.cfi_def_cfa_offset 16
 546              		.cfi_offset 4, -16
 547              		.cfi_offset 5, -12
 548              		.cfi_offset 6, -8
ARM GAS  C:\Users\Phuong\AppData\Local\Temp\ccsxpYbh.s 			page 14


 549              		.cfi_offset 14, -4
 550 0002 0500     		movs	r5, r0
 551 0004 0E00     		movs	r6, r1
 552              	.LVL87:
 185:Source\mbedtls_open\library/asn1write.c ****     int ret;
 186:Source\mbedtls_open\library/asn1write.c ****     size_t len = 0;
 187:Source\mbedtls_open\library/asn1write.c **** 
 188:Source\mbedtls_open\library/asn1write.c ****     MBEDTLS_ASN1_CHK_ADD( len, mbedtls_asn1_write_raw_buffer( p, start,
 553              		.loc 1 188 0
 554 0006 FFF7FEFF 		bl	mbedtls_asn1_write_raw_buffer
 555              	.LVL88:
 556 000a 041E     		subs	r4, r0, #0
 557              	.LVL89:
 558 000c 10DB     		blt	.L36
 559              	.LVL90:
 189:Source\mbedtls_open\library/asn1write.c ****                                   (const unsigned char *) oid, oid_len ) );
 190:Source\mbedtls_open\library/asn1write.c ****     MBEDTLS_ASN1_CHK_ADD( len , mbedtls_asn1_write_len( p, start, len ) );
 560              		.loc 1 190 0 discriminator 2
 561 000e 0200     		movs	r2, r0
 562 0010 3100     		movs	r1, r6
 563 0012 2800     		movs	r0, r5
 564              	.LVL91:
 565 0014 FFF7FEFF 		bl	mbedtls_asn1_write_len
 566              	.LVL92:
 567 0018 0028     		cmp	r0, #0
 568 001a 09DB     		blt	.L35
 569 001c 0419     		adds	r4, r0, r4
 570              	.LVL93:
 191:Source\mbedtls_open\library/asn1write.c ****     MBEDTLS_ASN1_CHK_ADD( len , mbedtls_asn1_write_tag( p, start, MBEDTLS_ASN1_OID ) );
 571              		.loc 1 191 0 discriminator 2
 572 001e 0622     		movs	r2, #6
 573 0020 3100     		movs	r1, r6
 574 0022 2800     		movs	r0, r5
 575              	.LVL94:
 576 0024 FFF7FEFF 		bl	mbedtls_asn1_write_tag
 577              	.LVL95:
 578 0028 0028     		cmp	r0, #0
 579 002a 01DB     		blt	.L35
 580 002c 0019     		adds	r0, r0, r4
 581              	.LVL96:
 192:Source\mbedtls_open\library/asn1write.c **** 
 193:Source\mbedtls_open\library/asn1write.c ****     return( (int) len );
 582              		.loc 1 193 0 discriminator 2
 583 002e FFE7     		b	.L35
 584              	.LVL97:
 585              	.L36:
 586              	.L35:
 194:Source\mbedtls_open\library/asn1write.c **** }
 587              		.loc 1 194 0
 588              		@ sp needed
 589              	.LVL98:
 590              	.LVL99:
 591 0030 70BD     		pop	{r4, r5, r6, pc}
 592              		.cfi_endproc
 593              	.LFE6:
 594              		.size	mbedtls_asn1_write_oid, .-mbedtls_asn1_write_oid
 595 0032 C046     		.section	.text.mbedtls_asn1_write_algorithm_identifier,"ax",%progbits
ARM GAS  C:\Users\Phuong\AppData\Local\Temp\ccsxpYbh.s 			page 15


 596              		.align	2
 597              		.global	mbedtls_asn1_write_algorithm_identifier
 598              		.code	16
 599              		.thumb_func
 600              		.type	mbedtls_asn1_write_algorithm_identifier, %function
 601              	mbedtls_asn1_write_algorithm_identifier:
 602              	.LFB7:
 195:Source\mbedtls_open\library/asn1write.c **** 
 196:Source\mbedtls_open\library/asn1write.c **** int mbedtls_asn1_write_algorithm_identifier( unsigned char **p, unsigned char *start,
 197:Source\mbedtls_open\library/asn1write.c ****                                      const char *oid, size_t oid_len,
 198:Source\mbedtls_open\library/asn1write.c ****                                      size_t par_len )
 199:Source\mbedtls_open\library/asn1write.c **** {
 603              		.loc 1 199 0
 604              		.cfi_startproc
 605              		@ args = 4, pretend = 0, frame = 0
 606              		@ frame_needed = 0, uses_anonymous_args = 0
 607              	.LVL100:
 608 0000 F8B5     		push	{r3, r4, r5, r6, r7, lr}
 609              		.cfi_def_cfa_offset 24
 610              		.cfi_offset 3, -24
 611              		.cfi_offset 4, -20
 612              		.cfi_offset 5, -16
 613              		.cfi_offset 6, -12
 614              		.cfi_offset 7, -8
 615              		.cfi_offset 14, -4
 616 0002 0400     		movs	r4, r0
 617 0004 0D00     		movs	r5, r1
 618 0006 1600     		movs	r6, r2
 619 0008 1F00     		movs	r7, r3
 620              	.LVL101:
 200:Source\mbedtls_open\library/asn1write.c ****     int ret;
 201:Source\mbedtls_open\library/asn1write.c ****     size_t len = 0;
 202:Source\mbedtls_open\library/asn1write.c **** 
 203:Source\mbedtls_open\library/asn1write.c ****     if( par_len == 0 )
 621              		.loc 1 203 0
 622 000a 069B     		ldr	r3, [sp, #24]
 623              	.LVL102:
 624 000c 002B     		cmp	r3, #0
 625 000e 04D1     		bne	.L40
 204:Source\mbedtls_open\library/asn1write.c ****         MBEDTLS_ASN1_CHK_ADD( len, mbedtls_asn1_write_null( p, start ) );
 626              		.loc 1 204 0
 627 0010 FFF7FEFF 		bl	mbedtls_asn1_write_null
 628              	.LVL103:
 629 0014 0028     		cmp	r0, #0
 630 0016 1ADB     		blt	.L41
 631              		.loc 1 204 0 is_stmt 0 discriminator 2
 632 0018 0690     		str	r0, [sp, #24]
 633              	.LVL104:
 634              	.L40:
 205:Source\mbedtls_open\library/asn1write.c ****     else
 206:Source\mbedtls_open\library/asn1write.c ****         len += par_len;
 207:Source\mbedtls_open\library/asn1write.c **** 
 208:Source\mbedtls_open\library/asn1write.c ****     MBEDTLS_ASN1_CHK_ADD( len, mbedtls_asn1_write_oid( p, start, oid, oid_len ) );
 635              		.loc 1 208 0 is_stmt 1
 636 001a 3B00     		movs	r3, r7
 637 001c 3200     		movs	r2, r6
 638 001e 2900     		movs	r1, r5
ARM GAS  C:\Users\Phuong\AppData\Local\Temp\ccsxpYbh.s 			page 16


 639 0020 2000     		movs	r0, r4
 640 0022 FFF7FEFF 		bl	mbedtls_asn1_write_oid
 641              	.LVL105:
 642 0026 0028     		cmp	r0, #0
 643 0028 11DB     		blt	.L41
 644              		.loc 1 208 0 is_stmt 0 discriminator 2
 645 002a 069B     		ldr	r3, [sp, #24]
 646 002c C618     		adds	r6, r0, r3
 647              	.LVL106:
 209:Source\mbedtls_open\library/asn1write.c **** 
 210:Source\mbedtls_open\library/asn1write.c ****     MBEDTLS_ASN1_CHK_ADD( len, mbedtls_asn1_write_len( p, start, len ) );
 648              		.loc 1 210 0 is_stmt 1 discriminator 2
 649 002e 3200     		movs	r2, r6
 650 0030 2900     		movs	r1, r5
 651 0032 2000     		movs	r0, r4
 652              	.LVL107:
 653 0034 FFF7FEFF 		bl	mbedtls_asn1_write_len
 654              	.LVL108:
 655 0038 0028     		cmp	r0, #0
 656 003a 08DB     		blt	.L41
 657 003c 8619     		adds	r6, r0, r6
 658              	.LVL109:
 211:Source\mbedtls_open\library/asn1write.c ****     MBEDTLS_ASN1_CHK_ADD( len, mbedtls_asn1_write_tag( p, start,
 659              		.loc 1 211 0 discriminator 2
 660 003e 3022     		movs	r2, #48
 661 0040 2900     		movs	r1, r5
 662 0042 2000     		movs	r0, r4
 663              	.LVL110:
 664 0044 FFF7FEFF 		bl	mbedtls_asn1_write_tag
 665              	.LVL111:
 666 0048 0028     		cmp	r0, #0
 667 004a 00DB     		blt	.L41
 668 004c 8019     		adds	r0, r0, r6
 669              	.LVL112:
 670              	.L41:
 212:Source\mbedtls_open\library/asn1write.c ****                                        MBEDTLS_ASN1_CONSTRUCTED | MBEDTLS_ASN1_SEQUENCE ) );
 213:Source\mbedtls_open\library/asn1write.c **** 
 214:Source\mbedtls_open\library/asn1write.c ****     return( (int) len );
 215:Source\mbedtls_open\library/asn1write.c **** }
 671              		.loc 1 215 0
 672              		@ sp needed
 673              	.LVL113:
 674              	.LVL114:
 675              	.LVL115:
 676 004e F8BD     		pop	{r3, r4, r5, r6, r7, pc}
 677              		.cfi_endproc
 678              	.LFE7:
 679              		.size	mbedtls_asn1_write_algorithm_identifier, .-mbedtls_asn1_write_algorithm_identifier
 680              		.section	.text.mbedtls_asn1_write_bool,"ax",%progbits
 681              		.align	2
 682              		.global	mbedtls_asn1_write_bool
 683              		.code	16
 684              		.thumb_func
 685              		.type	mbedtls_asn1_write_bool, %function
 686              	mbedtls_asn1_write_bool:
 687              	.LFB8:
 216:Source\mbedtls_open\library/asn1write.c **** 
ARM GAS  C:\Users\Phuong\AppData\Local\Temp\ccsxpYbh.s 			page 17


 217:Source\mbedtls_open\library/asn1write.c **** int mbedtls_asn1_write_bool( unsigned char **p, unsigned char *start, int boolean )
 218:Source\mbedtls_open\library/asn1write.c **** {
 688              		.loc 1 218 0
 689              		.cfi_startproc
 690              		@ args = 0, pretend = 0, frame = 0
 691              		@ frame_needed = 0, uses_anonymous_args = 0
 692              	.LVL116:
 693 0000 70B5     		push	{r4, r5, r6, lr}
 694              		.cfi_def_cfa_offset 16
 695              		.cfi_offset 4, -16
 696              		.cfi_offset 5, -12
 697              		.cfi_offset 6, -8
 698              		.cfi_offset 14, -4
 699 0002 0600     		movs	r6, r0
 700 0004 0D00     		movs	r5, r1
 701              	.LVL117:
 219:Source\mbedtls_open\library/asn1write.c ****     int ret;
 220:Source\mbedtls_open\library/asn1write.c ****     size_t len = 0;
 221:Source\mbedtls_open\library/asn1write.c **** 
 222:Source\mbedtls_open\library/asn1write.c ****     if( *p - start < 1 )
 702              		.loc 1 222 0
 703 0006 0368     		ldr	r3, [r0]
 704 0008 591A     		subs	r1, r3, r1
 705              	.LVL118:
 706 000a 0029     		cmp	r1, #0
 707 000c 18DD     		ble	.L49
 223:Source\mbedtls_open\library/asn1write.c ****         return( MBEDTLS_ERR_ASN1_BUF_TOO_SMALL );
 224:Source\mbedtls_open\library/asn1write.c **** 
 225:Source\mbedtls_open\library/asn1write.c ****     *--(*p) = (boolean) ? 255 : 0;
 708              		.loc 1 225 0
 709 000e 013B     		subs	r3, r3, #1
 710 0010 0360     		str	r3, [r0]
 711 0012 002A     		cmp	r2, #0
 712 0014 01D0     		beq	.L50
 713 0016 FF22     		movs	r2, #255
 714              	.LVL119:
 715 0018 00E0     		b	.L48
 716              	.LVL120:
 717              	.L50:
 718 001a 0022     		movs	r2, #0
 719              	.LVL121:
 720              	.L48:
 721              		.loc 1 225 0 is_stmt 0 discriminator 4
 722 001c 1A70     		strb	r2, [r3]
 723              	.LVL122:
 226:Source\mbedtls_open\library/asn1write.c ****     len++;
 227:Source\mbedtls_open\library/asn1write.c **** 
 228:Source\mbedtls_open\library/asn1write.c ****     MBEDTLS_ASN1_CHK_ADD( len, mbedtls_asn1_write_len( p, start, len ) );
 724              		.loc 1 228 0 is_stmt 1 discriminator 4
 725 001e 0122     		movs	r2, #1
 726 0020 2900     		movs	r1, r5
 727 0022 3000     		movs	r0, r6
 728              	.LVL123:
 729 0024 FFF7FEFF 		bl	mbedtls_asn1_write_len
 730              	.LVL124:
 731 0028 0028     		cmp	r0, #0
 732 002a 0BDB     		blt	.L47
ARM GAS  C:\Users\Phuong\AppData\Local\Temp\ccsxpYbh.s 			page 18


 733              		.loc 1 228 0 is_stmt 0 discriminator 2
 734 002c 441C     		adds	r4, r0, #1
 735              	.LVL125:
 229:Source\mbedtls_open\library/asn1write.c ****     MBEDTLS_ASN1_CHK_ADD( len, mbedtls_asn1_write_tag( p, start, MBEDTLS_ASN1_BOOLEAN ) );
 736              		.loc 1 229 0 is_stmt 1 discriminator 2
 737 002e 0122     		movs	r2, #1
 738 0030 2900     		movs	r1, r5
 739 0032 3000     		movs	r0, r6
 740              	.LVL126:
 741 0034 FFF7FEFF 		bl	mbedtls_asn1_write_tag
 742              	.LVL127:
 743 0038 0028     		cmp	r0, #0
 744 003a 03DB     		blt	.L47
 745 003c 0019     		adds	r0, r0, r4
 746              	.LVL128:
 230:Source\mbedtls_open\library/asn1write.c **** 
 231:Source\mbedtls_open\library/asn1write.c ****     return( (int) len );
 747              		.loc 1 231 0 discriminator 2
 748 003e 01E0     		b	.L47
 749              	.LVL129:
 750              	.L49:
 223:Source\mbedtls_open\library/asn1write.c **** 
 751              		.loc 1 223 0
 752 0040 6C20     		movs	r0, #108
 753              	.LVL130:
 754 0042 4042     		rsbs	r0, r0, #0
 755              	.LVL131:
 756              	.L47:
 232:Source\mbedtls_open\library/asn1write.c **** }
 757              		.loc 1 232 0
 758              		@ sp needed
 759              	.LVL132:
 760              	.LVL133:
 761 0044 70BD     		pop	{r4, r5, r6, pc}
 762              		.cfi_endproc
 763              	.LFE8:
 764              		.size	mbedtls_asn1_write_bool, .-mbedtls_asn1_write_bool
 765 0046 C046     		.section	.text.mbedtls_asn1_write_int,"ax",%progbits
 766              		.align	2
 767              		.global	mbedtls_asn1_write_int
 768              		.code	16
 769              		.thumb_func
 770              		.type	mbedtls_asn1_write_int, %function
 771              	mbedtls_asn1_write_int:
 772              	.LFB9:
 233:Source\mbedtls_open\library/asn1write.c **** 
 234:Source\mbedtls_open\library/asn1write.c **** int mbedtls_asn1_write_int( unsigned char **p, unsigned char *start, int val )
 235:Source\mbedtls_open\library/asn1write.c **** {
 773              		.loc 1 235 0
 774              		.cfi_startproc
 775              		@ args = 0, pretend = 0, frame = 0
 776              		@ frame_needed = 0, uses_anonymous_args = 0
 777              	.LVL134:
 778 0000 70B5     		push	{r4, r5, r6, lr}
 779              		.cfi_def_cfa_offset 16
 780              		.cfi_offset 4, -16
 781              		.cfi_offset 5, -12
ARM GAS  C:\Users\Phuong\AppData\Local\Temp\ccsxpYbh.s 			page 19


 782              		.cfi_offset 6, -8
 783              		.cfi_offset 14, -4
 784 0002 0600     		movs	r6, r0
 785 0004 0D00     		movs	r5, r1
 786              	.LVL135:
 236:Source\mbedtls_open\library/asn1write.c ****     int ret;
 237:Source\mbedtls_open\library/asn1write.c ****     size_t len = 0;
 238:Source\mbedtls_open\library/asn1write.c **** 
 239:Source\mbedtls_open\library/asn1write.c ****     if( *p - start < 1 )
 787              		.loc 1 239 0
 788 0006 0368     		ldr	r3, [r0]
 789 0008 591A     		subs	r1, r3, r1
 790              	.LVL136:
 791 000a 0029     		cmp	r1, #0
 792 000c 26DD     		ble	.L56
 793              	.LVL137:
 240:Source\mbedtls_open\library/asn1write.c ****         return( MBEDTLS_ERR_ASN1_BUF_TOO_SMALL );
 241:Source\mbedtls_open\library/asn1write.c **** 
 242:Source\mbedtls_open\library/asn1write.c ****     len += 1;
 243:Source\mbedtls_open\library/asn1write.c ****     *--(*p) = val;
 794              		.loc 1 243 0
 795 000e 013B     		subs	r3, r3, #1
 796 0010 0360     		str	r3, [r0]
 797 0012 1A70     		strb	r2, [r3]
 244:Source\mbedtls_open\library/asn1write.c **** 
 245:Source\mbedtls_open\library/asn1write.c ****     if( val > 0 && **p & 0x80 )
 798              		.loc 1 245 0
 799 0014 002A     		cmp	r2, #0
 800 0016 0DDD     		ble	.L57
 801              		.loc 1 245 0 is_stmt 0 discriminator 1
 802 0018 0368     		ldr	r3, [r0]
 803 001a 0022     		movs	r2, #0
 804              	.LVL138:
 805 001c 9A56     		ldrsb	r2, [r3, r2]
 806 001e 002A     		cmp	r2, #0
 807 0020 0ADA     		bge	.L58
 246:Source\mbedtls_open\library/asn1write.c ****     {
 247:Source\mbedtls_open\library/asn1write.c ****         if( *p - start < 1 )
 808              		.loc 1 247 0 is_stmt 1
 809 0022 5A1B     		subs	r2, r3, r5
 810 0024 002A     		cmp	r2, #0
 811 0026 1CDD     		ble	.L59
 248:Source\mbedtls_open\library/asn1write.c ****             return( MBEDTLS_ERR_ASN1_BUF_TOO_SMALL );
 249:Source\mbedtls_open\library/asn1write.c **** 
 250:Source\mbedtls_open\library/asn1write.c ****         *--(*p) = 0x00;
 812              		.loc 1 250 0
 813 0028 013B     		subs	r3, r3, #1
 814 002a 0360     		str	r3, [r0]
 815 002c 0022     		movs	r2, #0
 816 002e 1A70     		strb	r2, [r3]
 817              	.LVL139:
 251:Source\mbedtls_open\library/asn1write.c ****         len += 1;
 818              		.loc 1 251 0
 819 0030 0224     		movs	r4, #2
 820 0032 02E0     		b	.L55
 821              	.LVL140:
 822              	.L57:
ARM GAS  C:\Users\Phuong\AppData\Local\Temp\ccsxpYbh.s 			page 20


 242:Source\mbedtls_open\library/asn1write.c ****     *--(*p) = val;
 823              		.loc 1 242 0
 824 0034 0124     		movs	r4, #1
 825 0036 00E0     		b	.L55
 826              	.LVL141:
 827              	.L58:
 828 0038 0124     		movs	r4, #1
 829              	.LVL142:
 830              	.L55:
 252:Source\mbedtls_open\library/asn1write.c ****     }
 253:Source\mbedtls_open\library/asn1write.c **** 
 254:Source\mbedtls_open\library/asn1write.c ****     MBEDTLS_ASN1_CHK_ADD( len, mbedtls_asn1_write_len( p, start, len ) );
 831              		.loc 1 254 0
 832 003a 2200     		movs	r2, r4
 833 003c 2900     		movs	r1, r5
 834 003e 3000     		movs	r0, r6
 835              	.LVL143:
 836 0040 FFF7FEFF 		bl	mbedtls_asn1_write_len
 837              	.LVL144:
 838 0044 0028     		cmp	r0, #0
 839 0046 0EDB     		blt	.L54
 840              		.loc 1 254 0 is_stmt 0 discriminator 2
 841 0048 0419     		adds	r4, r0, r4
 842              	.LVL145:
 255:Source\mbedtls_open\library/asn1write.c ****     MBEDTLS_ASN1_CHK_ADD( len, mbedtls_asn1_write_tag( p, start, MBEDTLS_ASN1_INTEGER ) );
 843              		.loc 1 255 0 is_stmt 1 discriminator 2
 844 004a 0222     		movs	r2, #2
 845 004c 2900     		movs	r1, r5
 846 004e 3000     		movs	r0, r6
 847              	.LVL146:
 848 0050 FFF7FEFF 		bl	mbedtls_asn1_write_tag
 849              	.LVL147:
 850 0054 0028     		cmp	r0, #0
 851 0056 06DB     		blt	.L54
 852 0058 0019     		adds	r0, r0, r4
 853              	.LVL148:
 256:Source\mbedtls_open\library/asn1write.c **** 
 257:Source\mbedtls_open\library/asn1write.c ****     return( (int) len );
 854              		.loc 1 257 0 discriminator 2
 855 005a 04E0     		b	.L54
 856              	.LVL149:
 857              	.L56:
 240:Source\mbedtls_open\library/asn1write.c **** 
 858              		.loc 1 240 0
 859 005c 6C20     		movs	r0, #108
 860              	.LVL150:
 861 005e 4042     		rsbs	r0, r0, #0
 862 0060 01E0     		b	.L54
 863              	.LVL151:
 864              	.L59:
 248:Source\mbedtls_open\library/asn1write.c **** 
 865              		.loc 1 248 0
 866 0062 6C20     		movs	r0, #108
 867              	.LVL152:
 868 0064 4042     		rsbs	r0, r0, #0
 869              	.LVL153:
 870              	.L54:
ARM GAS  C:\Users\Phuong\AppData\Local\Temp\ccsxpYbh.s 			page 21


 258:Source\mbedtls_open\library/asn1write.c **** }
 871              		.loc 1 258 0
 872              		@ sp needed
 873              	.LVL154:
 874              	.LVL155:
 875 0066 70BD     		pop	{r4, r5, r6, pc}
 876              		.cfi_endproc
 877              	.LFE9:
 878              		.size	mbedtls_asn1_write_int, .-mbedtls_asn1_write_int
 879              		.section	.text.mbedtls_asn1_write_printable_string,"ax",%progbits
 880              		.align	2
 881              		.global	mbedtls_asn1_write_printable_string
 882              		.code	16
 883              		.thumb_func
 884              		.type	mbedtls_asn1_write_printable_string, %function
 885              	mbedtls_asn1_write_printable_string:
 886              	.LFB10:
 259:Source\mbedtls_open\library/asn1write.c **** 
 260:Source\mbedtls_open\library/asn1write.c **** int mbedtls_asn1_write_printable_string( unsigned char **p, unsigned char *start,
 261:Source\mbedtls_open\library/asn1write.c ****                                  const char *text, size_t text_len )
 262:Source\mbedtls_open\library/asn1write.c **** {
 887              		.loc 1 262 0
 888              		.cfi_startproc
 889              		@ args = 0, pretend = 0, frame = 0
 890              		@ frame_needed = 0, uses_anonymous_args = 0
 891              	.LVL156:
 892 0000 70B5     		push	{r4, r5, r6, lr}
 893              		.cfi_def_cfa_offset 16
 894              		.cfi_offset 4, -16
 895              		.cfi_offset 5, -12
 896              		.cfi_offset 6, -8
 897              		.cfi_offset 14, -4
 898 0002 0500     		movs	r5, r0
 899 0004 0E00     		movs	r6, r1
 900              	.LVL157:
 263:Source\mbedtls_open\library/asn1write.c ****     int ret;
 264:Source\mbedtls_open\library/asn1write.c ****     size_t len = 0;
 265:Source\mbedtls_open\library/asn1write.c **** 
 266:Source\mbedtls_open\library/asn1write.c ****     MBEDTLS_ASN1_CHK_ADD( len, mbedtls_asn1_write_raw_buffer( p, start,
 901              		.loc 1 266 0
 902 0006 FFF7FEFF 		bl	mbedtls_asn1_write_raw_buffer
 903              	.LVL158:
 904 000a 041E     		subs	r4, r0, #0
 905              	.LVL159:
 906 000c 10DB     		blt	.L64
 907              	.LVL160:
 267:Source\mbedtls_open\library/asn1write.c ****                   (const unsigned char *) text, text_len ) );
 268:Source\mbedtls_open\library/asn1write.c **** 
 269:Source\mbedtls_open\library/asn1write.c ****     MBEDTLS_ASN1_CHK_ADD( len, mbedtls_asn1_write_len( p, start, len ) );
 908              		.loc 1 269 0 discriminator 2
 909 000e 0200     		movs	r2, r0
 910 0010 3100     		movs	r1, r6
 911 0012 2800     		movs	r0, r5
 912              	.LVL161:
 913 0014 FFF7FEFF 		bl	mbedtls_asn1_write_len
 914              	.LVL162:
 915 0018 0028     		cmp	r0, #0
ARM GAS  C:\Users\Phuong\AppData\Local\Temp\ccsxpYbh.s 			page 22


 916 001a 09DB     		blt	.L63
 917 001c 0419     		adds	r4, r0, r4
 918              	.LVL163:
 270:Source\mbedtls_open\library/asn1write.c ****     MBEDTLS_ASN1_CHK_ADD( len, mbedtls_asn1_write_tag( p, start, MBEDTLS_ASN1_PRINTABLE_STRING ) );
 919              		.loc 1 270 0 discriminator 2
 920 001e 1322     		movs	r2, #19
 921 0020 3100     		movs	r1, r6
 922 0022 2800     		movs	r0, r5
 923              	.LVL164:
 924 0024 FFF7FEFF 		bl	mbedtls_asn1_write_tag
 925              	.LVL165:
 926 0028 0028     		cmp	r0, #0
 927 002a 01DB     		blt	.L63
 928 002c 0019     		adds	r0, r0, r4
 929              	.LVL166:
 271:Source\mbedtls_open\library/asn1write.c **** 
 272:Source\mbedtls_open\library/asn1write.c ****     return( (int) len );
 930              		.loc 1 272 0 discriminator 2
 931 002e FFE7     		b	.L63
 932              	.LVL167:
 933              	.L64:
 934              	.L63:
 273:Source\mbedtls_open\library/asn1write.c **** }
 935              		.loc 1 273 0
 936              		@ sp needed
 937              	.LVL168:
 938              	.LVL169:
 939 0030 70BD     		pop	{r4, r5, r6, pc}
 940              		.cfi_endproc
 941              	.LFE10:
 942              		.size	mbedtls_asn1_write_printable_string, .-mbedtls_asn1_write_printable_string
 943 0032 C046     		.section	.text.mbedtls_asn1_write_ia5_string,"ax",%progbits
 944              		.align	2
 945              		.global	mbedtls_asn1_write_ia5_string
 946              		.code	16
 947              		.thumb_func
 948              		.type	mbedtls_asn1_write_ia5_string, %function
 949              	mbedtls_asn1_write_ia5_string:
 950              	.LFB11:
 274:Source\mbedtls_open\library/asn1write.c **** 
 275:Source\mbedtls_open\library/asn1write.c **** int mbedtls_asn1_write_ia5_string( unsigned char **p, unsigned char *start,
 276:Source\mbedtls_open\library/asn1write.c ****                            const char *text, size_t text_len )
 277:Source\mbedtls_open\library/asn1write.c **** {
 951              		.loc 1 277 0
 952              		.cfi_startproc
 953              		@ args = 0, pretend = 0, frame = 0
 954              		@ frame_needed = 0, uses_anonymous_args = 0
 955              	.LVL170:
 956 0000 70B5     		push	{r4, r5, r6, lr}
 957              		.cfi_def_cfa_offset 16
 958              		.cfi_offset 4, -16
 959              		.cfi_offset 5, -12
 960              		.cfi_offset 6, -8
 961              		.cfi_offset 14, -4
 962 0002 0500     		movs	r5, r0
 963 0004 0E00     		movs	r6, r1
 964              	.LVL171:
ARM GAS  C:\Users\Phuong\AppData\Local\Temp\ccsxpYbh.s 			page 23


 278:Source\mbedtls_open\library/asn1write.c ****     int ret;
 279:Source\mbedtls_open\library/asn1write.c ****     size_t len = 0;
 280:Source\mbedtls_open\library/asn1write.c **** 
 281:Source\mbedtls_open\library/asn1write.c ****     MBEDTLS_ASN1_CHK_ADD( len, mbedtls_asn1_write_raw_buffer( p, start,
 965              		.loc 1 281 0
 966 0006 FFF7FEFF 		bl	mbedtls_asn1_write_raw_buffer
 967              	.LVL172:
 968 000a 041E     		subs	r4, r0, #0
 969              	.LVL173:
 970 000c 10DB     		blt	.L69
 971              	.LVL174:
 282:Source\mbedtls_open\library/asn1write.c ****                   (const unsigned char *) text, text_len ) );
 283:Source\mbedtls_open\library/asn1write.c **** 
 284:Source\mbedtls_open\library/asn1write.c ****     MBEDTLS_ASN1_CHK_ADD( len, mbedtls_asn1_write_len( p, start, len ) );
 972              		.loc 1 284 0 discriminator 2
 973 000e 0200     		movs	r2, r0
 974 0010 3100     		movs	r1, r6
 975 0012 2800     		movs	r0, r5
 976              	.LVL175:
 977 0014 FFF7FEFF 		bl	mbedtls_asn1_write_len
 978              	.LVL176:
 979 0018 0028     		cmp	r0, #0
 980 001a 09DB     		blt	.L68
 981 001c 0419     		adds	r4, r0, r4
 982              	.LVL177:
 285:Source\mbedtls_open\library/asn1write.c ****     MBEDTLS_ASN1_CHK_ADD( len, mbedtls_asn1_write_tag( p, start, MBEDTLS_ASN1_IA5_STRING ) );
 983              		.loc 1 285 0 discriminator 2
 984 001e 1622     		movs	r2, #22
 985 0020 3100     		movs	r1, r6
 986 0022 2800     		movs	r0, r5
 987              	.LVL178:
 988 0024 FFF7FEFF 		bl	mbedtls_asn1_write_tag
 989              	.LVL179:
 990 0028 0028     		cmp	r0, #0
 991 002a 01DB     		blt	.L68
 992 002c 0019     		adds	r0, r0, r4
 993              	.LVL180:
 286:Source\mbedtls_open\library/asn1write.c **** 
 287:Source\mbedtls_open\library/asn1write.c ****     return( (int) len );
 994              		.loc 1 287 0 discriminator 2
 995 002e FFE7     		b	.L68
 996              	.LVL181:
 997              	.L69:
 998              	.L68:
 288:Source\mbedtls_open\library/asn1write.c **** }
 999              		.loc 1 288 0
 1000              		@ sp needed
 1001              	.LVL182:
 1002              	.LVL183:
 1003 0030 70BD     		pop	{r4, r5, r6, pc}
 1004              		.cfi_endproc
 1005              	.LFE11:
 1006              		.size	mbedtls_asn1_write_ia5_string, .-mbedtls_asn1_write_ia5_string
 1007 0032 C046     		.section	.text.mbedtls_asn1_write_bitstring,"ax",%progbits
 1008              		.align	2
 1009              		.global	mbedtls_asn1_write_bitstring
 1010              		.code	16
ARM GAS  C:\Users\Phuong\AppData\Local\Temp\ccsxpYbh.s 			page 24


 1011              		.thumb_func
 1012              		.type	mbedtls_asn1_write_bitstring, %function
 1013              	mbedtls_asn1_write_bitstring:
 1014              	.LFB12:
 289:Source\mbedtls_open\library/asn1write.c **** 
 290:Source\mbedtls_open\library/asn1write.c **** int mbedtls_asn1_write_bitstring( unsigned char **p, unsigned char *start,
 291:Source\mbedtls_open\library/asn1write.c ****                           const unsigned char *buf, size_t bits )
 292:Source\mbedtls_open\library/asn1write.c **** {
 1015              		.loc 1 292 0
 1016              		.cfi_startproc
 1017              		@ args = 0, pretend = 0, frame = 0
 1018              		@ frame_needed = 0, uses_anonymous_args = 0
 1019              	.LVL184:
 1020 0000 F0B5     		push	{r4, r5, r6, r7, lr}
 1021              		.cfi_def_cfa_offset 20
 1022              		.cfi_offset 4, -20
 1023              		.cfi_offset 5, -16
 1024              		.cfi_offset 6, -12
 1025              		.cfi_offset 7, -8
 1026              		.cfi_offset 14, -4
 1027 0002 4746     		mov	r7, r8
 1028 0004 80B4     		push	{r7}
 1029              		.cfi_def_cfa_offset 24
 1030              		.cfi_offset 8, -24
 1031 0006 0600     		movs	r6, r0
 1032 0008 0F00     		movs	r7, r1
 1033 000a 1100     		movs	r1, r2
 1034              	.LVL185:
 1035 000c 9846     		mov	r8, r3
 1036              	.LVL186:
 293:Source\mbedtls_open\library/asn1write.c ****     int ret;
 294:Source\mbedtls_open\library/asn1write.c ****     size_t len = 0, size;
 295:Source\mbedtls_open\library/asn1write.c **** 
 296:Source\mbedtls_open\library/asn1write.c ****     size = ( bits / 8 ) + ( ( bits % 8 ) ? 1 : 0 );
 1037              		.loc 1 296 0
 1038 000e DB08     		lsrs	r3, r3, #3
 1039              	.LVL187:
 1040 0010 0724     		movs	r4, #7
 1041 0012 4246     		mov	r2, r8
 1042              	.LVL188:
 1043 0014 1440     		ands	r4, r2
 1044 0016 00D0     		beq	.L73
 1045 0018 0124     		movs	r4, #1
 1046              	.L73:
 1047              		.loc 1 296 0 is_stmt 0 discriminator 4
 1048 001a E418     		adds	r4, r4, r3
 1049              	.LVL189:
 297:Source\mbedtls_open\library/asn1write.c **** 
 298:Source\mbedtls_open\library/asn1write.c ****     // Calculate byte length
 299:Source\mbedtls_open\library/asn1write.c ****     //
 300:Source\mbedtls_open\library/asn1write.c ****     if( *p < start || (size_t)( *p - start ) < size + 1 )
 1050              		.loc 1 300 0 is_stmt 1 discriminator 4
 1051 001c 3368     		ldr	r3, [r6]
 1052 001e BB42     		cmp	r3, r7
 1053 0020 20D3     		bcc	.L75
 1054              		.loc 1 300 0 is_stmt 0 discriminator 1
 1055 0022 DA1B     		subs	r2, r3, r7
ARM GAS  C:\Users\Phuong\AppData\Local\Temp\ccsxpYbh.s 			page 25


 1056 0024 651C     		adds	r5, r4, #1
 1057 0026 AA42     		cmp	r2, r5
 1058 0028 1FD3     		bcc	.L76
 1059              	.LVL190:
 301:Source\mbedtls_open\library/asn1write.c ****         return( MBEDTLS_ERR_ASN1_BUF_TOO_SMALL );
 302:Source\mbedtls_open\library/asn1write.c **** 
 303:Source\mbedtls_open\library/asn1write.c ****     len = size + 1;
 304:Source\mbedtls_open\library/asn1write.c ****     (*p) -= size;
 1060              		.loc 1 304 0 is_stmt 1
 1061 002a 181B     		subs	r0, r3, r4
 1062              	.LVL191:
 1063 002c 3060     		str	r0, [r6]
 305:Source\mbedtls_open\library/asn1write.c ****     memcpy( *p, buf, size );
 1064              		.loc 1 305 0
 1065 002e 2200     		movs	r2, r4
 1066 0030 FFF7FEFF 		bl	memcpy
 1067              	.LVL192:
 306:Source\mbedtls_open\library/asn1write.c **** 
 307:Source\mbedtls_open\library/asn1write.c ****     // Write unused bits
 308:Source\mbedtls_open\library/asn1write.c ****     //
 309:Source\mbedtls_open\library/asn1write.c ****     *--(*p) = (unsigned char) (size * 8 - bits);
 1068              		.loc 1 309 0
 1069 0034 3368     		ldr	r3, [r6]
 1070 0036 013B     		subs	r3, r3, #1
 1071 0038 3360     		str	r3, [r6]
 1072 003a E400     		lsls	r4, r4, #3
 1073              	.LVL193:
 1074 003c 4246     		mov	r2, r8
 1075 003e A41A     		subs	r4, r4, r2
 1076 0040 1C70     		strb	r4, [r3]
 310:Source\mbedtls_open\library/asn1write.c **** 
 311:Source\mbedtls_open\library/asn1write.c ****     MBEDTLS_ASN1_CHK_ADD( len, mbedtls_asn1_write_len( p, start, len ) );
 1077              		.loc 1 311 0
 1078 0042 2A00     		movs	r2, r5
 1079 0044 3900     		movs	r1, r7
 1080 0046 3000     		movs	r0, r6
 1081 0048 FFF7FEFF 		bl	mbedtls_asn1_write_len
 1082              	.LVL194:
 1083 004c 0028     		cmp	r0, #0
 1084 004e 0EDB     		blt	.L74
 1085              		.loc 1 311 0 is_stmt 0 discriminator 2
 1086 0050 4519     		adds	r5, r0, r5
 1087              	.LVL195:
 312:Source\mbedtls_open\library/asn1write.c ****     MBEDTLS_ASN1_CHK_ADD( len, mbedtls_asn1_write_tag( p, start, MBEDTLS_ASN1_BIT_STRING ) );
 1088              		.loc 1 312 0 is_stmt 1 discriminator 2
 1089 0052 0322     		movs	r2, #3
 1090 0054 3900     		movs	r1, r7
 1091 0056 3000     		movs	r0, r6
 1092              	.LVL196:
 1093 0058 FFF7FEFF 		bl	mbedtls_asn1_write_tag
 1094              	.LVL197:
 1095 005c 0028     		cmp	r0, #0
 1096 005e 06DB     		blt	.L74
 1097 0060 4019     		adds	r0, r0, r5
 1098              	.LVL198:
 313:Source\mbedtls_open\library/asn1write.c **** 
 314:Source\mbedtls_open\library/asn1write.c ****     return( (int) len );
ARM GAS  C:\Users\Phuong\AppData\Local\Temp\ccsxpYbh.s 			page 26


 1099              		.loc 1 314 0 discriminator 2
 1100 0062 04E0     		b	.L74
 1101              	.LVL199:
 1102              	.L75:
 301:Source\mbedtls_open\library/asn1write.c **** 
 1103              		.loc 1 301 0
 1104 0064 6C20     		movs	r0, #108
 1105              	.LVL200:
 1106 0066 4042     		rsbs	r0, r0, #0
 1107 0068 01E0     		b	.L74
 1108              	.LVL201:
 1109              	.L76:
 1110 006a 6C20     		movs	r0, #108
 1111              	.LVL202:
 1112 006c 4042     		rsbs	r0, r0, #0
 1113              	.LVL203:
 1114              	.L74:
 315:Source\mbedtls_open\library/asn1write.c **** }
 1115              		.loc 1 315 0
 1116              		@ sp needed
 1117              	.LVL204:
 1118              	.LVL205:
 1119              	.LVL206:
 1120 006e 04BC     		pop	{r2}
 1121 0070 9046     		mov	r8, r2
 1122 0072 F0BD     		pop	{r4, r5, r6, r7, pc}
 1123              		.cfi_endproc
 1124              	.LFE12:
 1125              		.size	mbedtls_asn1_write_bitstring, .-mbedtls_asn1_write_bitstring
 1126              		.section	.text.mbedtls_asn1_write_octet_string,"ax",%progbits
 1127              		.align	2
 1128              		.global	mbedtls_asn1_write_octet_string
 1129              		.code	16
 1130              		.thumb_func
 1131              		.type	mbedtls_asn1_write_octet_string, %function
 1132              	mbedtls_asn1_write_octet_string:
 1133              	.LFB13:
 316:Source\mbedtls_open\library/asn1write.c **** 
 317:Source\mbedtls_open\library/asn1write.c **** int mbedtls_asn1_write_octet_string( unsigned char **p, unsigned char *start,
 318:Source\mbedtls_open\library/asn1write.c ****                              const unsigned char *buf, size_t size )
 319:Source\mbedtls_open\library/asn1write.c **** {
 1134              		.loc 1 319 0
 1135              		.cfi_startproc
 1136              		@ args = 0, pretend = 0, frame = 0
 1137              		@ frame_needed = 0, uses_anonymous_args = 0
 1138              	.LVL207:
 1139 0000 70B5     		push	{r4, r5, r6, lr}
 1140              		.cfi_def_cfa_offset 16
 1141              		.cfi_offset 4, -16
 1142              		.cfi_offset 5, -12
 1143              		.cfi_offset 6, -8
 1144              		.cfi_offset 14, -4
 1145 0002 0500     		movs	r5, r0
 1146 0004 0E00     		movs	r6, r1
 1147              	.LVL208:
 320:Source\mbedtls_open\library/asn1write.c ****     int ret;
 321:Source\mbedtls_open\library/asn1write.c ****     size_t len = 0;
ARM GAS  C:\Users\Phuong\AppData\Local\Temp\ccsxpYbh.s 			page 27


 322:Source\mbedtls_open\library/asn1write.c **** 
 323:Source\mbedtls_open\library/asn1write.c ****     MBEDTLS_ASN1_CHK_ADD( len, mbedtls_asn1_write_raw_buffer( p, start, buf, size ) );
 1148              		.loc 1 323 0
 1149 0006 FFF7FEFF 		bl	mbedtls_asn1_write_raw_buffer
 1150              	.LVL209:
 1151 000a 041E     		subs	r4, r0, #0
 1152              	.LVL210:
 1153 000c 10DB     		blt	.L81
 1154              	.LVL211:
 324:Source\mbedtls_open\library/asn1write.c **** 
 325:Source\mbedtls_open\library/asn1write.c ****     MBEDTLS_ASN1_CHK_ADD( len, mbedtls_asn1_write_len( p, start, len ) );
 1155              		.loc 1 325 0 discriminator 2
 1156 000e 0200     		movs	r2, r0
 1157 0010 3100     		movs	r1, r6
 1158 0012 2800     		movs	r0, r5
 1159              	.LVL212:
 1160 0014 FFF7FEFF 		bl	mbedtls_asn1_write_len
 1161              	.LVL213:
 1162 0018 0028     		cmp	r0, #0
 1163 001a 09DB     		blt	.L80
 1164 001c 0419     		adds	r4, r0, r4
 1165              	.LVL214:
 326:Source\mbedtls_open\library/asn1write.c ****     MBEDTLS_ASN1_CHK_ADD( len, mbedtls_asn1_write_tag( p, start, MBEDTLS_ASN1_OCTET_STRING ) );
 1166              		.loc 1 326 0 discriminator 2
 1167 001e 0422     		movs	r2, #4
 1168 0020 3100     		movs	r1, r6
 1169 0022 2800     		movs	r0, r5
 1170              	.LVL215:
 1171 0024 FFF7FEFF 		bl	mbedtls_asn1_write_tag
 1172              	.LVL216:
 1173 0028 0028     		cmp	r0, #0
 1174 002a 01DB     		blt	.L80
 1175 002c 0019     		adds	r0, r0, r4
 1176              	.LVL217:
 327:Source\mbedtls_open\library/asn1write.c **** 
 328:Source\mbedtls_open\library/asn1write.c ****     return( (int) len );
 1177              		.loc 1 328 0 discriminator 2
 1178 002e FFE7     		b	.L80
 1179              	.LVL218:
 1180              	.L81:
 1181              	.L80:
 329:Source\mbedtls_open\library/asn1write.c **** }
 1182              		.loc 1 329 0
 1183              		@ sp needed
 1184              	.LVL219:
 1185              	.LVL220:
 1186 0030 70BD     		pop	{r4, r5, r6, pc}
 1187              		.cfi_endproc
 1188              	.LFE13:
 1189              		.size	mbedtls_asn1_write_octet_string, .-mbedtls_asn1_write_octet_string
 1190 0032 C046     		.section	.text.mbedtls_asn1_store_named_data,"ax",%progbits
 1191              		.align	2
 1192              		.global	mbedtls_asn1_store_named_data
 1193              		.code	16
 1194              		.thumb_func
 1195              		.type	mbedtls_asn1_store_named_data, %function
 1196              	mbedtls_asn1_store_named_data:
ARM GAS  C:\Users\Phuong\AppData\Local\Temp\ccsxpYbh.s 			page 28


 1197              	.LFB14:
 330:Source\mbedtls_open\library/asn1write.c **** 
 331:Source\mbedtls_open\library/asn1write.c **** mbedtls_asn1_named_data *mbedtls_asn1_store_named_data( mbedtls_asn1_named_data **head,
 332:Source\mbedtls_open\library/asn1write.c ****                                         const char *oid, size_t oid_len,
 333:Source\mbedtls_open\library/asn1write.c ****                                         const unsigned char *val,
 334:Source\mbedtls_open\library/asn1write.c ****                                         size_t val_len )
 335:Source\mbedtls_open\library/asn1write.c **** {
 1198              		.loc 1 335 0
 1199              		.cfi_startproc
 1200              		@ args = 4, pretend = 0, frame = 8
 1201              		@ frame_needed = 0, uses_anonymous_args = 0
 1202              	.LVL221:
 1203 0000 F0B5     		push	{r4, r5, r6, r7, lr}
 1204              		.cfi_def_cfa_offset 20
 1205              		.cfi_offset 4, -20
 1206              		.cfi_offset 5, -16
 1207              		.cfi_offset 6, -12
 1208              		.cfi_offset 7, -8
 1209              		.cfi_offset 14, -4
 1210 0002 83B0     		sub	sp, sp, #12
 1211              		.cfi_def_cfa_offset 32
 1212 0004 0700     		movs	r7, r0
 1213 0006 0191     		str	r1, [sp, #4]
 1214 0008 1600     		movs	r6, r2
 1215 000a 1D00     		movs	r5, r3
 336:Source\mbedtls_open\library/asn1write.c ****     mbedtls_asn1_named_data *cur;
 337:Source\mbedtls_open\library/asn1write.c **** 
 338:Source\mbedtls_open\library/asn1write.c ****     if( ( cur = mbedtls_asn1_find_named_data( *head, oid, oid_len ) ) == NULL )
 1216              		.loc 1 338 0
 1217 000c 0068     		ldr	r0, [r0]
 1218              	.LVL222:
 1219 000e FFF7FEFF 		bl	mbedtls_asn1_find_named_data
 1220              	.LVL223:
 1221 0012 041E     		subs	r4, r0, #0
 1222              	.LVL224:
 1223 0014 2BD1     		bne	.L85
 339:Source\mbedtls_open\library/asn1write.c ****     {
 340:Source\mbedtls_open\library/asn1write.c ****         // Add new entry if not present yet based on OID
 341:Source\mbedtls_open\library/asn1write.c ****         //
 342:Source\mbedtls_open\library/asn1write.c ****         cur = (mbedtls_asn1_named_data*)mbedtls_calloc( 1,
 1224              		.loc 1 342 0
 1225 0016 2021     		movs	r1, #32
 1226 0018 0120     		movs	r0, #1
 1227              	.LVL225:
 1228 001a FFF7FEFF 		bl	calloc
 1229              	.LVL226:
 1230 001e 041E     		subs	r4, r0, #0
 1231              	.LVL227:
 343:Source\mbedtls_open\library/asn1write.c ****                                             sizeof(mbedtls_asn1_named_data) );
 344:Source\mbedtls_open\library/asn1write.c ****         if( cur == NULL )
 1232              		.loc 1 344 0
 1233 0020 3ED0     		beq	.L90
 345:Source\mbedtls_open\library/asn1write.c ****             return( NULL );
 346:Source\mbedtls_open\library/asn1write.c **** 
 347:Source\mbedtls_open\library/asn1write.c ****         cur->oid.len = oid_len;
 1234              		.loc 1 347 0
 1235 0022 4660     		str	r6, [r0, #4]
ARM GAS  C:\Users\Phuong\AppData\Local\Temp\ccsxpYbh.s 			page 29


 348:Source\mbedtls_open\library/asn1write.c ****         cur->oid.p = mbedtls_calloc( 1, oid_len );
 1236              		.loc 1 348 0
 1237 0024 3100     		movs	r1, r6
 1238 0026 0120     		movs	r0, #1
 1239              	.LVL228:
 1240 0028 FFF7FEFF 		bl	calloc
 1241              	.LVL229:
 1242 002c A060     		str	r0, [r4, #8]
 349:Source\mbedtls_open\library/asn1write.c ****         if( cur->oid.p == NULL )
 1243              		.loc 1 349 0
 1244 002e 0028     		cmp	r0, #0
 1245 0030 04D1     		bne	.L87
 350:Source\mbedtls_open\library/asn1write.c ****         {
 351:Source\mbedtls_open\library/asn1write.c ****             mbedtls_free( cur );
 1246              		.loc 1 351 0
 1247 0032 2000     		movs	r0, r4
 1248 0034 FFF7FEFF 		bl	free
 1249              	.LVL230:
 352:Source\mbedtls_open\library/asn1write.c ****             return( NULL );
 1250              		.loc 1 352 0
 1251 0038 0020     		movs	r0, #0
 1252 003a 36E0     		b	.L86
 1253              	.L87:
 353:Source\mbedtls_open\library/asn1write.c ****         }
 354:Source\mbedtls_open\library/asn1write.c **** 
 355:Source\mbedtls_open\library/asn1write.c ****         memcpy( cur->oid.p, oid, oid_len );
 1254              		.loc 1 355 0
 1255 003c 3200     		movs	r2, r6
 1256 003e 0199     		ldr	r1, [sp, #4]
 1257 0040 FFF7FEFF 		bl	memcpy
 1258              	.LVL231:
 356:Source\mbedtls_open\library/asn1write.c **** 
 357:Source\mbedtls_open\library/asn1write.c ****         cur->val.len = val_len;
 1259              		.loc 1 357 0
 1260 0044 089B     		ldr	r3, [sp, #32]
 1261 0046 2361     		str	r3, [r4, #16]
 358:Source\mbedtls_open\library/asn1write.c ****         cur->val.p = mbedtls_calloc( 1, val_len );
 1262              		.loc 1 358 0
 1263 0048 1900     		movs	r1, r3
 1264 004a 0120     		movs	r0, #1
 1265 004c FFF7FEFF 		bl	calloc
 1266              	.LVL232:
 1267 0050 6061     		str	r0, [r4, #20]
 359:Source\mbedtls_open\library/asn1write.c ****         if( cur->val.p == NULL )
 1268              		.loc 1 359 0
 1269 0052 0028     		cmp	r0, #0
 1270 0054 07D1     		bne	.L88
 360:Source\mbedtls_open\library/asn1write.c ****         {
 361:Source\mbedtls_open\library/asn1write.c ****             mbedtls_free( cur->oid.p );
 1271              		.loc 1 361 0
 1272 0056 A068     		ldr	r0, [r4, #8]
 1273 0058 FFF7FEFF 		bl	free
 1274              	.LVL233:
 362:Source\mbedtls_open\library/asn1write.c ****             mbedtls_free( cur );
 1275              		.loc 1 362 0
 1276 005c 2000     		movs	r0, r4
 1277 005e FFF7FEFF 		bl	free
ARM GAS  C:\Users\Phuong\AppData\Local\Temp\ccsxpYbh.s 			page 30


 1278              	.LVL234:
 363:Source\mbedtls_open\library/asn1write.c ****             return( NULL );
 1279              		.loc 1 363 0
 1280 0062 0020     		movs	r0, #0
 1281 0064 21E0     		b	.L86
 1282              	.L88:
 364:Source\mbedtls_open\library/asn1write.c ****         }
 365:Source\mbedtls_open\library/asn1write.c **** 
 366:Source\mbedtls_open\library/asn1write.c ****         cur->next = *head;
 1283              		.loc 1 366 0
 1284 0066 3B68     		ldr	r3, [r7]
 1285 0068 A361     		str	r3, [r4, #24]
 367:Source\mbedtls_open\library/asn1write.c ****         *head = cur;
 1286              		.loc 1 367 0
 1287 006a 3C60     		str	r4, [r7]
 1288 006c 0FE0     		b	.L89
 1289              	.LVL235:
 1290              	.L85:
 368:Source\mbedtls_open\library/asn1write.c ****     }
 369:Source\mbedtls_open\library/asn1write.c ****     else if( cur->val.len < val_len )
 1291              		.loc 1 369 0
 1292 006e 089B     		ldr	r3, [sp, #32]
 1293 0070 0269     		ldr	r2, [r0, #16]
 1294 0072 9342     		cmp	r3, r2
 1295 0074 0BD9     		bls	.L89
 1296              	.LBB2:
 370:Source\mbedtls_open\library/asn1write.c ****     {
 371:Source\mbedtls_open\library/asn1write.c ****         /*
 372:Source\mbedtls_open\library/asn1write.c ****          * Enlarge existing value buffer if needed
 373:Source\mbedtls_open\library/asn1write.c ****          * Preserve old data until the allocation succeeded, to leave list in
 374:Source\mbedtls_open\library/asn1write.c ****          * a consistent state in case allocation fails.
 375:Source\mbedtls_open\library/asn1write.c ****          */
 376:Source\mbedtls_open\library/asn1write.c ****         void *p = mbedtls_calloc( 1, val_len );
 1297              		.loc 1 376 0
 1298 0076 1900     		movs	r1, r3
 1299 0078 0120     		movs	r0, #1
 1300              	.LVL236:
 1301 007a FFF7FEFF 		bl	calloc
 1302              	.LVL237:
 1303 007e 061E     		subs	r6, r0, #0
 1304              	.LVL238:
 377:Source\mbedtls_open\library/asn1write.c ****         if( p == NULL )
 1305              		.loc 1 377 0
 1306 0080 10D0     		beq	.L91
 378:Source\mbedtls_open\library/asn1write.c ****             return( NULL );
 379:Source\mbedtls_open\library/asn1write.c **** 
 380:Source\mbedtls_open\library/asn1write.c ****         mbedtls_free( cur->val.p );
 1307              		.loc 1 380 0
 1308 0082 6069     		ldr	r0, [r4, #20]
 1309              	.LVL239:
 1310 0084 FFF7FEFF 		bl	free
 1311              	.LVL240:
 381:Source\mbedtls_open\library/asn1write.c ****         cur->val.p = p;
 1312              		.loc 1 381 0
 1313 0088 6661     		str	r6, [r4, #20]
 382:Source\mbedtls_open\library/asn1write.c ****         cur->val.len = val_len;
 1314              		.loc 1 382 0
ARM GAS  C:\Users\Phuong\AppData\Local\Temp\ccsxpYbh.s 			page 31


 1315 008a 089B     		ldr	r3, [sp, #32]
 1316 008c 2361     		str	r3, [r4, #16]
 1317              	.LVL241:
 1318              	.L89:
 1319              	.LBE2:
 383:Source\mbedtls_open\library/asn1write.c ****     }
 384:Source\mbedtls_open\library/asn1write.c **** 
 385:Source\mbedtls_open\library/asn1write.c ****     if( val != NULL )
 1320              		.loc 1 385 0
 1321 008e 002D     		cmp	r5, #0
 1322 0090 0AD0     		beq	.L92
 386:Source\mbedtls_open\library/asn1write.c ****         memcpy( cur->val.p, val, val_len );
 1323              		.loc 1 386 0
 1324 0092 089A     		ldr	r2, [sp, #32]
 1325 0094 2900     		movs	r1, r5
 1326 0096 6069     		ldr	r0, [r4, #20]
 1327 0098 FFF7FEFF 		bl	memcpy
 1328              	.LVL242:
 387:Source\mbedtls_open\library/asn1write.c **** 
 388:Source\mbedtls_open\library/asn1write.c ****     return( cur );
 1329              		.loc 1 388 0
 1330 009c 2000     		movs	r0, r4
 1331 009e 04E0     		b	.L86
 1332              	.LVL243:
 1333              	.L90:
 345:Source\mbedtls_open\library/asn1write.c **** 
 1334              		.loc 1 345 0
 1335 00a0 0020     		movs	r0, #0
 1336              	.LVL244:
 1337 00a2 02E0     		b	.L86
 1338              	.LVL245:
 1339              	.L91:
 1340              	.LBB3:
 378:Source\mbedtls_open\library/asn1write.c **** 
 1341              		.loc 1 378 0
 1342 00a4 0020     		movs	r0, #0
 1343              	.LVL246:
 1344 00a6 00E0     		b	.L86
 1345              	.LVL247:
 1346              	.L92:
 1347              	.LBE3:
 1348              		.loc 1 388 0
 1349 00a8 2000     		movs	r0, r4
 1350              	.L86:
 389:Source\mbedtls_open\library/asn1write.c **** }
 1351              		.loc 1 389 0
 1352 00aa 03B0     		add	sp, sp, #12
 1353              		@ sp needed
 1354              	.LVL248:
 1355              	.LVL249:
 1356              	.LVL250:
 1357 00ac F0BD     		pop	{r4, r5, r6, r7, pc}
 1358              		.cfi_endproc
 1359              	.LFE14:
 1360              		.size	mbedtls_asn1_store_named_data, .-mbedtls_asn1_store_named_data
 1361 00ae C046     		.text
 1362              	.Letext0:
ARM GAS  C:\Users\Phuong\AppData\Local\Temp\ccsxpYbh.s 			page 32


 1363              		.file 2 "c:\\program files (x86)\\cypress\\psoc creator\\4.2\\psoc creator\\import\\gnu\\arm\\5.4.
 1364              		.file 3 "c:\\program files (x86)\\cypress\\psoc creator\\4.2\\psoc creator\\import\\gnu\\arm\\5.4.
 1365              		.file 4 "c:\\program files (x86)\\cypress\\psoc creator\\4.2\\psoc creator\\import\\gnu\\arm\\5.4.
 1366              		.file 5 ".\\Source\\mbedtls_open\\include/mbedtls/bignum.h"
 1367              		.file 6 ".\\Source\\mbedtls_open\\include/mbedtls/asn1.h"
 1368              		.file 7 "c:\\program files (x86)\\cypress\\psoc creator\\4.2\\psoc creator\\import\\gnu\\arm\\5.4.