ARM GAS  C:\Users\Phuong\AppData\Local\Temp\ccMA8gCn.s 			page 1


   1              		.syntax unified
   2              		.cpu cortex-m0plus
   3              		.fpu softvfp
   4              		.eabi_attribute 20, 1
   5              		.eabi_attribute 21, 1
   6              		.eabi_attribute 23, 3
   7              		.eabi_attribute 24, 1
   8              		.eabi_attribute 25, 1
   9              		.eabi_attribute 26, 1
  10              		.eabi_attribute 30, 1
  11              		.eabi_attribute 34, 0
  12              		.eabi_attribute 18, 4
  13              		.thumb
  14              		.syntax unified
  15              		.file	"async_operation.c"
  16              		.text
  17              	.Ltext0:
  18              		.cfi_sections	.debug_frame
  19              		.section	.text.async_operation_create,"ax",%progbits
  20              		.align	2
  21              		.global	async_operation_create
  22              		.code	16
  23              		.thumb_func
  24              		.type	async_operation_create, %function
  25              	async_operation_create:
  26              	.LFB1:
  27              		.file 1 "Source\\azure_iot_sdk\\uamqp\\src\\async_operation.c"
   1:Source\azure_iot_sdk\uamqp\src/async_operation.c **** // Copyright (c) Microsoft. All rights reserved.
   2:Source\azure_iot_sdk\uamqp\src/async_operation.c **** // Licensed under the MIT license. See LICENSE file in the project root for full license informatio
   3:Source\azure_iot_sdk\uamqp\src/async_operation.c **** 
   4:Source\azure_iot_sdk\uamqp\src/async_operation.c **** #include <stdlib.h>
   5:Source\azure_iot_sdk\uamqp\src/async_operation.c **** #include <stdint.h>
   6:Source\azure_iot_sdk\uamqp\src/async_operation.c **** #include <stddef.h>
   7:Source\azure_iot_sdk\uamqp\src/async_operation.c **** #include <string.h>
   8:Source\azure_iot_sdk\uamqp\src/async_operation.c **** #include "azure_c_shared_utility/optimize_size.h"
   9:Source\azure_iot_sdk\uamqp\src/async_operation.c **** #include "azure_c_shared_utility/gballoc.h"
  10:Source\azure_iot_sdk\uamqp\src/async_operation.c **** #include "azure_c_shared_utility/xlogging.h"
  11:Source\azure_iot_sdk\uamqp\src/async_operation.c **** #include "azure_uamqp_c/async_operation.h"
  12:Source\azure_iot_sdk\uamqp\src/async_operation.c **** 
  13:Source\azure_iot_sdk\uamqp\src/async_operation.c **** typedef struct ASYNC_OPERATION_INSTANCE_TAG
  14:Source\azure_iot_sdk\uamqp\src/async_operation.c **** {
  15:Source\azure_iot_sdk\uamqp\src/async_operation.c ****     ASYNC_OPERATION_CANCEL_HANDLER_FUNC async_operation_cancel_handler;
  16:Source\azure_iot_sdk\uamqp\src/async_operation.c **** } ASYNC_OPERATION_INSTANCE;
  17:Source\azure_iot_sdk\uamqp\src/async_operation.c **** 
  18:Source\azure_iot_sdk\uamqp\src/async_operation.c **** ASYNC_OPERATION_HANDLE async_operation_create(ASYNC_OPERATION_CANCEL_HANDLER_FUNC async_operation_c
  19:Source\azure_iot_sdk\uamqp\src/async_operation.c **** {
  28              		.loc 1 19 0
  29              		.cfi_startproc
  30              		@ args = 0, pretend = 0, frame = 0
  31              		@ frame_needed = 0, uses_anonymous_args = 0
  32              	.LVL0:
  33 0000 30B5     		push	{r4, r5, lr}
  34              		.cfi_def_cfa_offset 12
  35              		.cfi_offset 4, -12
  36              		.cfi_offset 5, -8
  37              		.cfi_offset 14, -4
  38 0002 83B0     		sub	sp, sp, #12
ARM GAS  C:\Users\Phuong\AppData\Local\Temp\ccMA8gCn.s 			page 2


  39              		.cfi_def_cfa_offset 24
  40 0004 051E     		subs	r5, r0, #0
  20:Source\azure_iot_sdk\uamqp\src/async_operation.c ****     ASYNC_OPERATION_INSTANCE* async_operation;
  21:Source\azure_iot_sdk\uamqp\src/async_operation.c **** 
  22:Source\azure_iot_sdk\uamqp\src/async_operation.c ****     if (async_operation_cancel_handler == NULL)
  41              		.loc 1 22 0
  42 0006 0ED1     		bne	.L2
  43              	.LBB2:
  23:Source\azure_iot_sdk\uamqp\src/async_operation.c ****     {
  24:Source\azure_iot_sdk\uamqp\src/async_operation.c ****         /* Codes_SRS_ASYNC_OPERATION_01_002: [ If `async_operation_cancel_handler` is NULL, `async_
  25:Source\azure_iot_sdk\uamqp\src/async_operation.c ****         LogError("Cannot allocate memory for async operation");
  44              		.loc 1 25 0 discriminator 3
  45 0008 FFF7FEFF 		bl	xlogging_get_log_function
  46              	.LVL1:
  47 000c 041E     		subs	r4, r0, #0
  48              	.LVL2:
  49 000e 30D0     		beq	.L6
  50              		.loc 1 25 0 is_stmt 0 discriminator 4
  51 0010 1B4B     		ldr	r3, .L8
  52 0012 0193     		str	r3, [sp, #4]
  53 0014 0123     		movs	r3, #1
  54 0016 0093     		str	r3, [sp]
  55 0018 1833     		adds	r3, r3, #24
  56 001a 1A4A     		ldr	r2, .L8+4
  57 001c 1A49     		ldr	r1, .L8+8
  58 001e 0020     		movs	r0, #0
  59              	.LVL3:
  60 0020 A047     		blx	r4
  61              	.LVL4:
  62              	.LBE2:
  26:Source\azure_iot_sdk\uamqp\src/async_operation.c ****         async_operation = NULL;
  63              		.loc 1 26 0 is_stmt 1 discriminator 4
  64 0022 0024     		movs	r4, #0
  65              	.LVL5:
  66 0024 28E0     		b	.L3
  67              	.LVL6:
  68              	.L2:
  27:Source\azure_iot_sdk\uamqp\src/async_operation.c ****     }
  28:Source\azure_iot_sdk\uamqp\src/async_operation.c ****     else if (context_size < sizeof(ASYNC_OPERATION_INSTANCE))
  69              		.loc 1 28 0
  70 0026 0329     		cmp	r1, #3
  71 0028 0ED8     		bhi	.L4
  72              	.LBB3:
  29:Source\azure_iot_sdk\uamqp\src/async_operation.c ****     {
  30:Source\azure_iot_sdk\uamqp\src/async_operation.c ****         /* Codes_SRS_ASYNC_OPERATION_01_003: [ If `context_size` is less than the size of the `asyn
  31:Source\azure_iot_sdk\uamqp\src/async_operation.c ****         LogError("Context size too small");
  73              		.loc 1 31 0 discriminator 3
  74 002a FFF7FEFF 		bl	xlogging_get_log_function
  75              	.LVL7:
  76 002e 041E     		subs	r4, r0, #0
  77              	.LVL8:
  78 0030 21D0     		beq	.L7
  79              		.loc 1 31 0 is_stmt 0 discriminator 4
  80 0032 164B     		ldr	r3, .L8+12
  81 0034 0193     		str	r3, [sp, #4]
  82 0036 0123     		movs	r3, #1
  83 0038 0093     		str	r3, [sp]
ARM GAS  C:\Users\Phuong\AppData\Local\Temp\ccMA8gCn.s 			page 3


  84 003a 1E33     		adds	r3, r3, #30
  85 003c 114A     		ldr	r2, .L8+4
  86 003e 1249     		ldr	r1, .L8+8
  87 0040 0020     		movs	r0, #0
  88              	.LVL9:
  89 0042 A047     		blx	r4
  90              	.LVL10:
  91              	.LBE3:
  32:Source\azure_iot_sdk\uamqp\src/async_operation.c ****         async_operation = NULL;
  92              		.loc 1 32 0 is_stmt 1 discriminator 4
  93 0044 0024     		movs	r4, #0
  94              	.LVL11:
  95 0046 17E0     		b	.L3
  96              	.LVL12:
  97              	.L4:
  33:Source\azure_iot_sdk\uamqp\src/async_operation.c ****     }
  34:Source\azure_iot_sdk\uamqp\src/async_operation.c ****     else
  35:Source\azure_iot_sdk\uamqp\src/async_operation.c ****     {
  36:Source\azure_iot_sdk\uamqp\src/async_operation.c ****         async_operation = (ASYNC_OPERATION_INSTANCE*)malloc(context_size);
  98              		.loc 1 36 0
  99 0048 0800     		movs	r0, r1
 100              	.LVL13:
 101 004a FFF7FEFF 		bl	malloc
 102              	.LVL14:
 103 004e 041E     		subs	r4, r0, #0
 104              	.LVL15:
  37:Source\azure_iot_sdk\uamqp\src/async_operation.c ****         if (async_operation == NULL)
 105              		.loc 1 37 0
 106 0050 0DD1     		bne	.L5
 107              	.LBB4:
  38:Source\azure_iot_sdk\uamqp\src/async_operation.c ****         {
  39:Source\azure_iot_sdk\uamqp\src/async_operation.c ****             /* Codes_SRS_ASYNC_OPERATION_01_004: [ If allocating memory for the new asynchronous op
  40:Source\azure_iot_sdk\uamqp\src/async_operation.c ****             LogError("Cannot allocate memory for async operation");
 108              		.loc 1 40 0 discriminator 3
 109 0052 FFF7FEFF 		bl	xlogging_get_log_function
 110              	.LVL16:
 111 0056 051E     		subs	r5, r0, #0
 112              	.LVL17:
 113 0058 0ED0     		beq	.L3
 114              		.loc 1 40 0 is_stmt 0 discriminator 4
 115 005a 094B     		ldr	r3, .L8
 116 005c 0193     		str	r3, [sp, #4]
 117 005e 0123     		movs	r3, #1
 118 0060 0093     		str	r3, [sp]
 119 0062 2733     		adds	r3, r3, #39
 120 0064 074A     		ldr	r2, .L8+4
 121 0066 0849     		ldr	r1, .L8+8
 122 0068 0020     		movs	r0, #0
 123              	.LVL18:
 124 006a A847     		blx	r5
 125              	.LVL19:
 126 006c 04E0     		b	.L3
 127              	.LVL20:
 128              	.L5:
 129              	.LBE4:
  41:Source\azure_iot_sdk\uamqp\src/async_operation.c ****         }
  42:Source\azure_iot_sdk\uamqp\src/async_operation.c ****         else
ARM GAS  C:\Users\Phuong\AppData\Local\Temp\ccMA8gCn.s 			page 4


  43:Source\azure_iot_sdk\uamqp\src/async_operation.c ****         {
  44:Source\azure_iot_sdk\uamqp\src/async_operation.c ****             /* Codes_SRS_ASYNC_OPERATION_01_001: [ `async_operation_create` shall return a non-NULL
  45:Source\azure_iot_sdk\uamqp\src/async_operation.c ****             async_operation->async_operation_cancel_handler = async_operation_cancel_handler;
 130              		.loc 1 45 0 is_stmt 1
 131 006e 0560     		str	r5, [r0]
 132 0070 02E0     		b	.L3
 133              	.LVL21:
 134              	.L6:
  26:Source\azure_iot_sdk\uamqp\src/async_operation.c ****     }
 135              		.loc 1 26 0
 136 0072 0024     		movs	r4, #0
 137 0074 00E0     		b	.L3
 138              	.LVL22:
 139              	.L7:
  32:Source\azure_iot_sdk\uamqp\src/async_operation.c ****     }
 140              		.loc 1 32 0
 141 0076 0024     		movs	r4, #0
 142              	.LVL23:
 143              	.L3:
  46:Source\azure_iot_sdk\uamqp\src/async_operation.c ****         }
  47:Source\azure_iot_sdk\uamqp\src/async_operation.c ****     }
  48:Source\azure_iot_sdk\uamqp\src/async_operation.c **** 
  49:Source\azure_iot_sdk\uamqp\src/async_operation.c ****     return async_operation;
  50:Source\azure_iot_sdk\uamqp\src/async_operation.c **** }
 144              		.loc 1 50 0
 145 0078 2000     		movs	r0, r4
 146 007a 03B0     		add	sp, sp, #12
 147              		@ sp needed
 148              	.LVL24:
 149 007c 30BD     		pop	{r4, r5, pc}
 150              	.L9:
 151 007e C046     		.align	2
 152              	.L8:
 153 0080 34000000 		.word	.LC3
 154 0084 00000000 		.word	.LANCHOR0
 155 0088 00000000 		.word	.LC1
 156 008c 60000000 		.word	.LC5
 157              		.cfi_endproc
 158              	.LFE1:
 159              		.size	async_operation_create, .-async_operation_create
 160              		.section	.text.async_operation_destroy,"ax",%progbits
 161              		.align	2
 162              		.global	async_operation_destroy
 163              		.code	16
 164              		.thumb_func
 165              		.type	async_operation_destroy, %function
 166              	async_operation_destroy:
 167              	.LFB2:
  51:Source\azure_iot_sdk\uamqp\src/async_operation.c **** 
  52:Source\azure_iot_sdk\uamqp\src/async_operation.c **** void async_operation_destroy(ASYNC_OPERATION_HANDLE async_operation)
  53:Source\azure_iot_sdk\uamqp\src/async_operation.c **** {
 168              		.loc 1 53 0
 169              		.cfi_startproc
 170              		@ args = 0, pretend = 0, frame = 0
 171              		@ frame_needed = 0, uses_anonymous_args = 0
 172              	.LVL25:
 173 0000 10B5     		push	{r4, lr}
ARM GAS  C:\Users\Phuong\AppData\Local\Temp\ccMA8gCn.s 			page 5


 174              		.cfi_def_cfa_offset 8
 175              		.cfi_offset 4, -8
 176              		.cfi_offset 14, -4
 177 0002 82B0     		sub	sp, sp, #8
 178              		.cfi_def_cfa_offset 16
  54:Source\azure_iot_sdk\uamqp\src/async_operation.c ****     if (async_operation == NULL)
 179              		.loc 1 54 0
 180 0004 0028     		cmp	r0, #0
 181 0006 0ED1     		bne	.L11
 182              	.LBB5:
  55:Source\azure_iot_sdk\uamqp\src/async_operation.c ****     {
  56:Source\azure_iot_sdk\uamqp\src/async_operation.c ****         /* Codes_SRS_ASYNC_OPERATION_01_006: [ If `async_operation` is NULL, `async_operation_destr
  57:Source\azure_iot_sdk\uamqp\src/async_operation.c ****         LogError("NULL async_operation");
 183              		.loc 1 57 0 discriminator 3
 184 0008 FFF7FEFF 		bl	xlogging_get_log_function
 185              	.LVL26:
 186 000c 041E     		subs	r4, r0, #0
 187              	.LVL27:
 188 000e 0CD0     		beq	.L10
 189              		.loc 1 57 0 is_stmt 0 discriminator 4
 190 0010 074B     		ldr	r3, .L13
 191 0012 0193     		str	r3, [sp, #4]
 192 0014 0123     		movs	r3, #1
 193 0016 0093     		str	r3, [sp]
 194 0018 3833     		adds	r3, r3, #56
 195 001a 064A     		ldr	r2, .L13+4
 196 001c 1832     		adds	r2, r2, #24
 197 001e 0649     		ldr	r1, .L13+8
 198 0020 0020     		movs	r0, #0
 199              	.LVL28:
 200 0022 A047     		blx	r4
 201              	.LVL29:
 202 0024 01E0     		b	.L10
 203              	.LVL30:
 204              	.L11:
 205              	.LBE5:
  58:Source\azure_iot_sdk\uamqp\src/async_operation.c ****     }
  59:Source\azure_iot_sdk\uamqp\src/async_operation.c ****     else
  60:Source\azure_iot_sdk\uamqp\src/async_operation.c ****     {
  61:Source\azure_iot_sdk\uamqp\src/async_operation.c ****         /* Codes_SRS_ASYNC_OPERATION_01_005: [ `async_operation_destroy` shall free all recources a
  62:Source\azure_iot_sdk\uamqp\src/async_operation.c ****         free(async_operation);
 206              		.loc 1 62 0 is_stmt 1
 207 0026 FFF7FEFF 		bl	free
 208              	.LVL31:
 209              	.L10:
  63:Source\azure_iot_sdk\uamqp\src/async_operation.c ****     }
  64:Source\azure_iot_sdk\uamqp\src/async_operation.c **** }
 210              		.loc 1 64 0
 211 002a 02B0     		add	sp, sp, #8
 212              		@ sp needed
 213 002c 10BD     		pop	{r4, pc}
 214              	.L14:
 215 002e C046     		.align	2
 216              	.L13:
 217 0030 78000000 		.word	.LC9
 218 0034 00000000 		.word	.LANCHOR0
 219 0038 00000000 		.word	.LC1
ARM GAS  C:\Users\Phuong\AppData\Local\Temp\ccMA8gCn.s 			page 6


 220              		.cfi_endproc
 221              	.LFE2:
 222              		.size	async_operation_destroy, .-async_operation_destroy
 223              		.section	.text.async_operation_cancel,"ax",%progbits
 224              		.align	2
 225              		.global	async_operation_cancel
 226              		.code	16
 227              		.thumb_func
 228              		.type	async_operation_cancel, %function
 229              	async_operation_cancel:
 230              	.LFB3:
  65:Source\azure_iot_sdk\uamqp\src/async_operation.c **** 
  66:Source\azure_iot_sdk\uamqp\src/async_operation.c **** int async_operation_cancel(ASYNC_OPERATION_HANDLE async_operation)
  67:Source\azure_iot_sdk\uamqp\src/async_operation.c **** {
 231              		.loc 1 67 0
 232              		.cfi_startproc
 233              		@ args = 0, pretend = 0, frame = 0
 234              		@ frame_needed = 0, uses_anonymous_args = 0
 235              	.LVL32:
 236 0000 10B5     		push	{r4, lr}
 237              		.cfi_def_cfa_offset 8
 238              		.cfi_offset 4, -8
 239              		.cfi_offset 14, -4
 240 0002 82B0     		sub	sp, sp, #8
 241              		.cfi_def_cfa_offset 16
  68:Source\azure_iot_sdk\uamqp\src/async_operation.c ****     int result;
  69:Source\azure_iot_sdk\uamqp\src/async_operation.c **** 
  70:Source\azure_iot_sdk\uamqp\src/async_operation.c ****     if (async_operation == NULL)
 242              		.loc 1 70 0
 243 0004 0028     		cmp	r0, #0
 244 0006 0FD1     		bne	.L16
 245              	.LBB6:
  71:Source\azure_iot_sdk\uamqp\src/async_operation.c ****     {
  72:Source\azure_iot_sdk\uamqp\src/async_operation.c ****         LogError("NULL async_operation");
 246              		.loc 1 72 0 discriminator 3
 247 0008 FFF7FEFF 		bl	xlogging_get_log_function
 248              	.LVL33:
 249 000c 041E     		subs	r4, r0, #0
 250              	.LVL34:
 251 000e 0FD0     		beq	.L18
 252              		.loc 1 72 0 is_stmt 0 discriminator 4
 253 0010 094B     		ldr	r3, .L19
 254 0012 0193     		str	r3, [sp, #4]
 255 0014 0123     		movs	r3, #1
 256 0016 0093     		str	r3, [sp]
 257 0018 4733     		adds	r3, r3, #71
 258 001a 084A     		ldr	r2, .L19+4
 259 001c 3032     		adds	r2, r2, #48
 260 001e 0849     		ldr	r1, .L19+8
 261 0020 0020     		movs	r0, #0
 262              	.LVL35:
 263 0022 A047     		blx	r4
 264              	.LVL36:
 265              	.LBE6:
  73:Source\azure_iot_sdk\uamqp\src/async_operation.c ****         result = __FAILURE__;
 266              		.loc 1 73 0 is_stmt 1 discriminator 4
 267 0024 4920     		movs	r0, #73
ARM GAS  C:\Users\Phuong\AppData\Local\Temp\ccMA8gCn.s 			page 7


 268 0026 04E0     		b	.L17
 269              	.LVL37:
 270              	.L16:
  74:Source\azure_iot_sdk\uamqp\src/async_operation.c ****     }
  75:Source\azure_iot_sdk\uamqp\src/async_operation.c ****     else
  76:Source\azure_iot_sdk\uamqp\src/async_operation.c ****     {
  77:Source\azure_iot_sdk\uamqp\src/async_operation.c ****         /* Codes_SRS_ASYNC_OPERATION_01_007: [ `async_operation_cancel` shall cancel the operation 
  78:Source\azure_iot_sdk\uamqp\src/async_operation.c ****         async_operation->async_operation_cancel_handler(async_operation);
 271              		.loc 1 78 0
 272 0028 0368     		ldr	r3, [r0]
 273 002a 9847     		blx	r3
 274              	.LVL38:
  79:Source\azure_iot_sdk\uamqp\src/async_operation.c **** 
  80:Source\azure_iot_sdk\uamqp\src/async_operation.c ****         /* Codes_SRS_ASYNC_OPERATION_01_008: [ On success `async_operation_cancel` shall return 0.]
  81:Source\azure_iot_sdk\uamqp\src/async_operation.c ****         result = 0;
 275              		.loc 1 81 0
 276 002c 0020     		movs	r0, #0
 277 002e 00E0     		b	.L17
 278              	.LVL39:
 279              	.L18:
  73:Source\azure_iot_sdk\uamqp\src/async_operation.c ****     }
 280              		.loc 1 73 0
 281 0030 4920     		movs	r0, #73
 282              	.LVL40:
 283              	.L17:
  82:Source\azure_iot_sdk\uamqp\src/async_operation.c ****     }
  83:Source\azure_iot_sdk\uamqp\src/async_operation.c **** 
  84:Source\azure_iot_sdk\uamqp\src/async_operation.c ****     return result;
  85:Source\azure_iot_sdk\uamqp\src/async_operation.c **** }
 284              		.loc 1 85 0
 285 0032 02B0     		add	sp, sp, #8
 286              		@ sp needed
 287 0034 10BD     		pop	{r4, pc}
 288              	.L20:
 289 0036 C046     		.align	2
 290              	.L19:
 291 0038 78000000 		.word	.LC9
 292 003c 00000000 		.word	.LANCHOR0
 293 0040 00000000 		.word	.LC1
 294              		.cfi_endproc
 295              	.LFE3:
 296              		.size	async_operation_cancel, .-async_operation_cancel
 297              		.section	.rodata
 298              		.align	2
 299              		.set	.LANCHOR0,. + 0
 300              		.type	__func__.5871, %object
 301              		.size	__func__.5871, 23
 302              	__func__.5871:
 303 0000 6173796E 		.ascii	"async_operation_create\000"
 303      635F6F70 
 303      65726174 
 303      696F6E5F 
 303      63726561 
 304 0017 00       		.space	1
 305              		.type	__func__.5884, %object
 306              		.size	__func__.5884, 24
 307              	__func__.5884:
ARM GAS  C:\Users\Phuong\AppData\Local\Temp\ccMA8gCn.s 			page 8


 308 0018 6173796E 		.ascii	"async_operation_destroy\000"
 308      635F6F70 
 308      65726174 
 308      696F6E5F 
 308      64657374 
 309              		.type	__func__.5892, %object
 310              		.size	__func__.5892, 23
 311              	__func__.5892:
 312 0030 6173796E 		.ascii	"async_operation_cancel\000"
 312      635F6F70 
 312      65726174 
 312      696F6E5F 
 312      63616E63 
 313              		.section	.rodata.str1.4,"aMS",%progbits,1
 314              		.align	2
 315              	.LC1:
 316 0000 536F7572 		.ascii	"Source\\azure_iot_sdk\\uamqp\\src\\async_operation."
 316      63655C61 
 316      7A757265 
 316      5F696F74 
 316      5F73646B 
 317 002f 6300     		.ascii	"c\000"
 318 0031 000000   		.space	3
 319              	.LC3:
 320 0034 43616E6E 		.ascii	"Cannot allocate memory for async operation\000"
 320      6F742061 
 320      6C6C6F63 
 320      61746520 
 320      6D656D6F 
 321 005f 00       		.space	1
 322              	.LC5:
 323 0060 436F6E74 		.ascii	"Context size too small\000"
 323      65787420 
 323      73697A65 
 323      20746F6F 
 323      20736D61 
 324 0077 00       		.space	1
 325              	.LC9:
 326 0078 4E554C4C 		.ascii	"NULL async_operation\000"
 326      20617379 
 326      6E635F6F 
 326      70657261 
 326      74696F6E 
 327              		.text
 328              	.Letext0:
 329              		.file 2 "c:\\program files (x86)\\cypress\\psoc creator\\4.2\\psoc creator\\import\\gnu\\arm\\5.4.
 330              		.file 3 ".\\Source\\azure_iot_sdk\\c-utility\\inc/azure_c_shared_utility/xlogging.h"
 331              		.file 4 ".\\Source\\azure_iot_sdk\\uamqp\\inc/azure_uamqp_c/async_operation.h"
 332              		.file 5 "c:\\program files (x86)\\cypress\\psoc creator\\4.2\\psoc creator\\import\\gnu\\arm\\5.4.