ARM GAS  C:\Users\Phuong\AppData\Local\Temp\cc7FPrJa.s 			page 1


   1              		.syntax unified
   2              		.cpu cortex-m0plus
   3              		.fpu softvfp
   4              		.eabi_attribute 20, 1
   5              		.eabi_attribute 21, 1
   6              		.eabi_attribute 23, 3
   7              		.eabi_attribute 24, 1
   8              		.eabi_attribute 25, 1
   9              		.eabi_attribute 26, 1
  10              		.eabi_attribute 30, 1
  11              		.eabi_attribute 34, 0
  12              		.eabi_attribute 18, 4
  13              		.thumb
  14              		.syntax unified
  15              		.file	"base64_2.c"
  16              		.text
  17              	.Ltext0:
  18              		.cfi_sections	.debug_frame
  19              		.section	.text.base64char,"ax",%progbits
  20              		.align	2
  21              		.code	16
  22              		.thumb_func
  23              		.type	base64char, %function
  24              	base64char:
  25              	.LFB1:
  26              		.file 1 "Source\\azure_iot_sdk\\c-utility\\src\\base64_2.c"
   1:Source\azure_iot_sdk\c-utility\src/base64_2.c **** // Copyright (c) Microsoft. All rights reserved.
   2:Source\azure_iot_sdk\c-utility\src/base64_2.c **** // Licensed under the MIT license. See LICENSE file in the project root for full license informatio
   3:Source\azure_iot_sdk\c-utility\src/base64_2.c **** 
   4:Source\azure_iot_sdk\c-utility\src/base64_2.c **** #include <stdlib.h>
   5:Source\azure_iot_sdk\c-utility\src/base64_2.c **** #include "azure_c_shared_utility/gballoc.h"
   6:Source\azure_iot_sdk\c-utility\src/base64_2.c **** #include <stddef.h>
   7:Source\azure_iot_sdk\c-utility\src/base64_2.c **** #include <stdint.h>
   8:Source\azure_iot_sdk\c-utility\src/base64_2.c **** #include "azure_c_shared_utility/base64.h"
   9:Source\azure_iot_sdk\c-utility\src/base64_2.c **** #include "azure_c_shared_utility/xlogging.h"
  10:Source\azure_iot_sdk\c-utility\src/base64_2.c **** 
  11:Source\azure_iot_sdk\c-utility\src/base64_2.c **** 
  12:Source\azure_iot_sdk\c-utility\src/base64_2.c **** #define splitInt(intVal, bytePos)   (char)((intVal >> (bytePos << 3)) & 0xFF)
  13:Source\azure_iot_sdk\c-utility\src/base64_2.c **** #define joinChars(a, b, c, d) (uint32_t)((uint32_t)a + ((uint32_t)b << 8) + ((uint32_t)c << 16) + (
  14:Source\azure_iot_sdk\c-utility\src/base64_2.c **** 
  15:Source\azure_iot_sdk\c-utility\src/base64_2.c **** static char base64char(unsigned char val)
  16:Source\azure_iot_sdk\c-utility\src/base64_2.c **** {
  27              		.loc 1 16 0
  28              		.cfi_startproc
  29              		@ args = 0, pretend = 0, frame = 0
  30              		@ frame_needed = 0, uses_anonymous_args = 0
  31              		@ link register save eliminated.
  32              	.LVL0:
  17:Source\azure_iot_sdk\c-utility\src/base64_2.c ****     char result;
  18:Source\azure_iot_sdk\c-utility\src/base64_2.c **** 
  19:Source\azure_iot_sdk\c-utility\src/base64_2.c ****     if (val < 26)
  33              		.loc 1 19 0
  34 0000 1928     		cmp	r0, #25
  35 0002 02D8     		bhi	.L2
  20:Source\azure_iot_sdk\c-utility\src/base64_2.c ****     {
  21:Source\azure_iot_sdk\c-utility\src/base64_2.c ****         result = 'A' + (char)val;
  36              		.loc 1 21 0
ARM GAS  C:\Users\Phuong\AppData\Local\Temp\cc7FPrJa.s 			page 2


  37 0004 4130     		adds	r0, r0, #65
  38              	.LVL1:
  39 0006 C0B2     		uxtb	r0, r0
  40              	.LVL2:
  41 0008 0EE0     		b	.L3
  42              	.LVL3:
  43              	.L2:
  22:Source\azure_iot_sdk\c-utility\src/base64_2.c ****     }
  23:Source\azure_iot_sdk\c-utility\src/base64_2.c ****     else if (val < 52)
  44              		.loc 1 23 0
  45 000a 3328     		cmp	r0, #51
  46 000c 02D8     		bhi	.L4
  24:Source\azure_iot_sdk\c-utility\src/base64_2.c ****     {
  25:Source\azure_iot_sdk\c-utility\src/base64_2.c ****         result = 'a' + ((char)val - 26);
  47              		.loc 1 25 0
  48 000e 4730     		adds	r0, r0, #71
  49              	.LVL4:
  50 0010 C0B2     		uxtb	r0, r0
  51              	.LVL5:
  52 0012 09E0     		b	.L3
  53              	.LVL6:
  54              	.L4:
  26:Source\azure_iot_sdk\c-utility\src/base64_2.c ****     }
  27:Source\azure_iot_sdk\c-utility\src/base64_2.c ****     else if (val < 62)
  55              		.loc 1 27 0
  56 0014 3D28     		cmp	r0, #61
  57 0016 02D8     		bhi	.L5
  28:Source\azure_iot_sdk\c-utility\src/base64_2.c ****     {
  29:Source\azure_iot_sdk\c-utility\src/base64_2.c ****         result = '0' + ((char)val - 52);
  58              		.loc 1 29 0
  59 0018 0438     		subs	r0, r0, #4
  60              	.LVL7:
  61 001a C0B2     		uxtb	r0, r0
  62              	.LVL8:
  63 001c 04E0     		b	.L3
  64              	.LVL9:
  65              	.L5:
  30:Source\azure_iot_sdk\c-utility\src/base64_2.c ****     }
  31:Source\azure_iot_sdk\c-utility\src/base64_2.c ****     else if (val == 62)
  66              		.loc 1 31 0
  67 001e 3E28     		cmp	r0, #62
  68 0020 01D1     		bne	.L6
  32:Source\azure_iot_sdk\c-utility\src/base64_2.c ****     {
  33:Source\azure_iot_sdk\c-utility\src/base64_2.c ****         result = '+';
  69              		.loc 1 33 0
  70 0022 1338     		subs	r0, r0, #19
  71              	.LVL10:
  72 0024 00E0     		b	.L3
  73              	.LVL11:
  74              	.L6:
  34:Source\azure_iot_sdk\c-utility\src/base64_2.c ****     }
  35:Source\azure_iot_sdk\c-utility\src/base64_2.c ****     else
  36:Source\azure_iot_sdk\c-utility\src/base64_2.c ****     {
  37:Source\azure_iot_sdk\c-utility\src/base64_2.c ****         result = '/';
  75              		.loc 1 37 0
  76 0026 2F20     		movs	r0, #47
  77              	.LVL12:
ARM GAS  C:\Users\Phuong\AppData\Local\Temp\cc7FPrJa.s 			page 3


  78              	.L3:
  38:Source\azure_iot_sdk\c-utility\src/base64_2.c ****     }
  39:Source\azure_iot_sdk\c-utility\src/base64_2.c **** 
  40:Source\azure_iot_sdk\c-utility\src/base64_2.c ****     return result;
  41:Source\azure_iot_sdk\c-utility\src/base64_2.c **** }
  79              		.loc 1 41 0
  80              		@ sp needed
  81 0028 7047     		bx	lr
  82              		.cfi_endproc
  83              	.LFE1:
  84              		.size	base64char, .-base64char
  85 002a C046     		.section	.text.base64b16,"ax",%progbits
  86              		.align	2
  87              		.code	16
  88              		.thumb_func
  89              		.type	base64b16, %function
  90              	base64b16:
  91              	.LFB2:
  42:Source\azure_iot_sdk\c-utility\src/base64_2.c **** 
  43:Source\azure_iot_sdk\c-utility\src/base64_2.c **** static char base64b16(unsigned char val)
  44:Source\azure_iot_sdk\c-utility\src/base64_2.c **** {
  92              		.loc 1 44 0
  93              		.cfi_startproc
  94              		@ args = 0, pretend = 0, frame = 16
  95              		@ frame_needed = 0, uses_anonymous_args = 0
  96              	.LVL13:
  97 0000 70B5     		push	{r4, r5, r6, lr}
  98              		.cfi_def_cfa_offset 16
  99              		.cfi_offset 4, -16
 100              		.cfi_offset 5, -12
 101              		.cfi_offset 6, -8
 102              		.cfi_offset 14, -4
 103 0002 84B0     		sub	sp, sp, #16
 104              		.cfi_def_cfa_offset 32
  45:Source\azure_iot_sdk\c-utility\src/base64_2.c ****     const uint32_t base64b16values[4] = {
 105              		.loc 1 45 0
 106 0004 6B46     		mov	r3, sp
 107 0006 084A     		ldr	r2, .L8
 108 0008 6946     		mov	r1, sp
 109 000a 70CA     		ldmia	r2!, {r4, r5, r6}
 110 000c 70C1     		stmia	r1!, {r4, r5, r6}
 111 000e 1268     		ldr	r2, [r2]
 112 0010 0A60     		str	r2, [r1]
  46:Source\azure_iot_sdk\c-utility\src/base64_2.c ****         joinChars('A', 'E', 'I', 'M'),
  47:Source\azure_iot_sdk\c-utility\src/base64_2.c ****         joinChars('Q', 'U', 'Y', 'c'),
  48:Source\azure_iot_sdk\c-utility\src/base64_2.c ****         joinChars('g', 'k', 'o', 's'),
  49:Source\azure_iot_sdk\c-utility\src/base64_2.c ****         joinChars('w', '0', '4', '8')
  50:Source\azure_iot_sdk\c-utility\src/base64_2.c ****     };
  51:Source\azure_iot_sdk\c-utility\src/base64_2.c ****     return splitInt(base64b16values[val >> 2], (val & 0x03));
 113              		.loc 1 51 0
 114 0012 8208     		lsrs	r2, r0, #2
 115 0014 9200     		lsls	r2, r2, #2
 116 0016 D358     		ldr	r3, [r2, r3]
 117 0018 C000     		lsls	r0, r0, #3
 118              	.LVL14:
 119 001a 1822     		movs	r2, #24
 120 001c 1040     		ands	r0, r2
ARM GAS  C:\Users\Phuong\AppData\Local\Temp\cc7FPrJa.s 			page 4


 121 001e C340     		lsrs	r3, r3, r0
 122 0020 D8B2     		uxtb	r0, r3
  52:Source\azure_iot_sdk\c-utility\src/base64_2.c **** }
 123              		.loc 1 52 0
 124 0022 04B0     		add	sp, sp, #16
 125              		@ sp needed
 126 0024 70BD     		pop	{r4, r5, r6, pc}
 127              	.L9:
 128 0026 C046     		.align	2
 129              	.L8:
 130 0028 00000000 		.word	.LANCHOR0
 131              		.cfi_endproc
 132              	.LFE2:
 133              		.size	base64b16, .-base64b16
 134              		.section	.text.base64b8,"ax",%progbits
 135              		.align	2
 136              		.code	16
 137              		.thumb_func
 138              		.type	base64b8, %function
 139              	base64b8:
 140              	.LFB3:
  53:Source\azure_iot_sdk\c-utility\src/base64_2.c **** 
  54:Source\azure_iot_sdk\c-utility\src/base64_2.c **** static char base64b8(unsigned char val)
  55:Source\azure_iot_sdk\c-utility\src/base64_2.c **** {
 141              		.loc 1 55 0
 142              		.cfi_startproc
 143              		@ args = 0, pretend = 0, frame = 0
 144              		@ frame_needed = 0, uses_anonymous_args = 0
 145              		@ link register save eliminated.
 146              	.LVL15:
  56:Source\azure_iot_sdk\c-utility\src/base64_2.c ****     const uint32_t base64b8values = joinChars('A', 'Q', 'g', 'w');
  57:Source\azure_iot_sdk\c-utility\src/base64_2.c ****     return splitInt(base64b8values, val);
 147              		.loc 1 57 0
 148 0000 C300     		lsls	r3, r0, #3
 149 0002 0248     		ldr	r0, .L11
 150              	.LVL16:
 151 0004 D840     		lsrs	r0, r0, r3
 152 0006 C0B2     		uxtb	r0, r0
  58:Source\azure_iot_sdk\c-utility\src/base64_2.c **** }
 153              		.loc 1 58 0
 154              		@ sp needed
 155 0008 7047     		bx	lr
 156              	.L12:
 157 000a C046     		.align	2
 158              	.L11:
 159 000c 41516777 		.word	2003259713
 160              		.cfi_endproc
 161              	.LFE3:
 162              		.size	base64b8, .-base64b8
 163              		.section	.text.base64toValue,"ax",%progbits
 164              		.align	2
 165              		.code	16
 166              		.thumb_func
 167              		.type	base64toValue, %function
 168              	base64toValue:
 169              	.LFB4:
  59:Source\azure_iot_sdk\c-utility\src/base64_2.c **** 
ARM GAS  C:\Users\Phuong\AppData\Local\Temp\cc7FPrJa.s 			page 5


  60:Source\azure_iot_sdk\c-utility\src/base64_2.c **** static int base64toValue(char base64character, unsigned char* value)
  61:Source\azure_iot_sdk\c-utility\src/base64_2.c **** {
 170              		.loc 1 61 0
 171              		.cfi_startproc
 172              		@ args = 0, pretend = 0, frame = 0
 173              		@ frame_needed = 0, uses_anonymous_args = 0
 174              		@ link register save eliminated.
 175              	.LVL17:
  62:Source\azure_iot_sdk\c-utility\src/base64_2.c ****     int result = 0;
  63:Source\azure_iot_sdk\c-utility\src/base64_2.c ****     if (('A' <= base64character) && (base64character <= 'Z'))
 176              		.loc 1 63 0
 177 0000 0300     		movs	r3, r0
 178 0002 413B     		subs	r3, r3, #65
 179 0004 DBB2     		uxtb	r3, r3
 180 0006 192B     		cmp	r3, #25
 181 0008 02D8     		bhi	.L14
  64:Source\azure_iot_sdk\c-utility\src/base64_2.c ****     {
  65:Source\azure_iot_sdk\c-utility\src/base64_2.c ****         *value = base64character - 'A';
 182              		.loc 1 65 0
 183 000a 0B70     		strb	r3, [r1]
  62:Source\azure_iot_sdk\c-utility\src/base64_2.c ****     int result = 0;
 184              		.loc 1 62 0
 185 000c 0020     		movs	r0, #0
 186              	.LVL18:
 187 000e 21E0     		b	.L15
 188              	.LVL19:
 189              	.L14:
  66:Source\azure_iot_sdk\c-utility\src/base64_2.c ****     }
  67:Source\azure_iot_sdk\c-utility\src/base64_2.c ****     else if (('a' <= base64character) && (base64character <= 'z'))
 190              		.loc 1 67 0
 191 0010 0300     		movs	r3, r0
 192 0012 613B     		subs	r3, r3, #97
 193 0014 DBB2     		uxtb	r3, r3
 194 0016 192B     		cmp	r3, #25
 195 0018 03D8     		bhi	.L16
  68:Source\azure_iot_sdk\c-utility\src/base64_2.c ****     {
  69:Source\azure_iot_sdk\c-utility\src/base64_2.c ****         *value = ('Z' - 'A') + 1 + (base64character - 'a');
 196              		.loc 1 69 0
 197 001a 4738     		subs	r0, r0, #71
 198              	.LVL20:
 199 001c 0870     		strb	r0, [r1]
  62:Source\azure_iot_sdk\c-utility\src/base64_2.c ****     if (('A' <= base64character) && (base64character <= 'Z'))
 200              		.loc 1 62 0
 201 001e 0020     		movs	r0, #0
 202 0020 18E0     		b	.L15
 203              	.LVL21:
 204              	.L16:
  70:Source\azure_iot_sdk\c-utility\src/base64_2.c ****     }
  71:Source\azure_iot_sdk\c-utility\src/base64_2.c ****     else if (('0' <= base64character) && (base64character <= '9'))
 205              		.loc 1 71 0
 206 0022 0300     		movs	r3, r0
 207 0024 303B     		subs	r3, r3, #48
 208 0026 DBB2     		uxtb	r3, r3
 209 0028 092B     		cmp	r3, #9
 210 002a 03D8     		bhi	.L17
  72:Source\azure_iot_sdk\c-utility\src/base64_2.c ****     {
  73:Source\azure_iot_sdk\c-utility\src/base64_2.c ****         *value = ('Z' - 'A') + 1 + ('z' - 'a') + 1 + (base64character - '0');
ARM GAS  C:\Users\Phuong\AppData\Local\Temp\cc7FPrJa.s 			page 6


 211              		.loc 1 73 0
 212 002c 0430     		adds	r0, r0, #4
 213              	.LVL22:
 214 002e 0870     		strb	r0, [r1]
  62:Source\azure_iot_sdk\c-utility\src/base64_2.c ****     if (('A' <= base64character) && (base64character <= 'Z'))
 215              		.loc 1 62 0
 216 0030 0020     		movs	r0, #0
 217 0032 0FE0     		b	.L15
 218              	.LVL23:
 219              	.L17:
  74:Source\azure_iot_sdk\c-utility\src/base64_2.c ****     }
  75:Source\azure_iot_sdk\c-utility\src/base64_2.c ****     else if ('+' == base64character)
 220              		.loc 1 75 0
 221 0034 2B28     		cmp	r0, #43
 222 0036 03D1     		bne	.L18
  76:Source\azure_iot_sdk\c-utility\src/base64_2.c ****     {
  77:Source\azure_iot_sdk\c-utility\src/base64_2.c ****         *value = 62;
 223              		.loc 1 77 0
 224 0038 3E23     		movs	r3, #62
 225 003a 0B70     		strb	r3, [r1]
  62:Source\azure_iot_sdk\c-utility\src/base64_2.c ****     if (('A' <= base64character) && (base64character <= 'Z'))
 226              		.loc 1 62 0
 227 003c 0020     		movs	r0, #0
 228              	.LVL24:
 229 003e 09E0     		b	.L15
 230              	.LVL25:
 231              	.L18:
  78:Source\azure_iot_sdk\c-utility\src/base64_2.c ****     }
  79:Source\azure_iot_sdk\c-utility\src/base64_2.c ****     else if ('/' == base64character)
 232              		.loc 1 79 0
 233 0040 2F28     		cmp	r0, #47
 234 0042 03D1     		bne	.L19
  80:Source\azure_iot_sdk\c-utility\src/base64_2.c ****     {
  81:Source\azure_iot_sdk\c-utility\src/base64_2.c ****         *value = 63;
 235              		.loc 1 81 0
 236 0044 3F23     		movs	r3, #63
 237 0046 0B70     		strb	r3, [r1]
  62:Source\azure_iot_sdk\c-utility\src/base64_2.c ****     if (('A' <= base64character) && (base64character <= 'Z'))
 238              		.loc 1 62 0
 239 0048 0020     		movs	r0, #0
 240              	.LVL26:
 241 004a 03E0     		b	.L15
 242              	.LVL27:
 243              	.L19:
  82:Source\azure_iot_sdk\c-utility\src/base64_2.c ****     }
  83:Source\azure_iot_sdk\c-utility\src/base64_2.c ****     else
  84:Source\azure_iot_sdk\c-utility\src/base64_2.c ****     {
  85:Source\azure_iot_sdk\c-utility\src/base64_2.c ****         *value = 0;
 244              		.loc 1 85 0
 245 004c 0023     		movs	r3, #0
 246 004e 0B70     		strb	r3, [r1]
 247              	.LVL28:
  86:Source\azure_iot_sdk\c-utility\src/base64_2.c ****         result = -1;
 248              		.loc 1 86 0
 249 0050 0120     		movs	r0, #1
 250              	.LVL29:
 251 0052 4042     		rsbs	r0, r0, #0
ARM GAS  C:\Users\Phuong\AppData\Local\Temp\cc7FPrJa.s 			page 7


 252              	.LVL30:
 253              	.L15:
  87:Source\azure_iot_sdk\c-utility\src/base64_2.c ****     }
  88:Source\azure_iot_sdk\c-utility\src/base64_2.c ****     return result;
  89:Source\azure_iot_sdk\c-utility\src/base64_2.c **** }
 254              		.loc 1 89 0
 255              		@ sp needed
 256 0054 7047     		bx	lr
 257              		.cfi_endproc
 258              	.LFE4:
 259              		.size	base64toValue, .-base64toValue
 260 0056 C046     		.section	.text.numberOfBase64Characters,"ax",%progbits
 261              		.align	2
 262              		.code	16
 263              		.thumb_func
 264              		.type	numberOfBase64Characters, %function
 265              	numberOfBase64Characters:
 266              	.LFB5:
  90:Source\azure_iot_sdk\c-utility\src/base64_2.c **** 
  91:Source\azure_iot_sdk\c-utility\src/base64_2.c **** static size_t numberOfBase64Characters(const char* encodedString)
  92:Source\azure_iot_sdk\c-utility\src/base64_2.c **** {
 267              		.loc 1 92 0
 268              		.cfi_startproc
 269              		@ args = 0, pretend = 0, frame = 8
 270              		@ frame_needed = 0, uses_anonymous_args = 0
 271              	.LVL31:
 272 0000 30B5     		push	{r4, r5, lr}
 273              		.cfi_def_cfa_offset 12
 274              		.cfi_offset 4, -12
 275              		.cfi_offset 5, -8
 276              		.cfi_offset 14, -4
 277 0002 83B0     		sub	sp, sp, #12
 278              		.cfi_def_cfa_offset 24
 279 0004 0500     		movs	r5, r0
 280              	.LVL32:
  93:Source\azure_iot_sdk\c-utility\src/base64_2.c ****     size_t length = 0;
 281              		.loc 1 93 0
 282 0006 0024     		movs	r4, #0
  94:Source\azure_iot_sdk\c-utility\src/base64_2.c ****     unsigned char junkChar;
  95:Source\azure_iot_sdk\c-utility\src/base64_2.c ****     while (base64toValue(encodedString[length],&junkChar) != -1)
 283              		.loc 1 95 0
 284 0008 00E0     		b	.L21
 285              	.LVL33:
 286              	.L22:
  96:Source\azure_iot_sdk\c-utility\src/base64_2.c ****     {
  97:Source\azure_iot_sdk\c-utility\src/base64_2.c ****         length++;
 287              		.loc 1 97 0
 288 000a 0134     		adds	r4, r4, #1
 289              	.LVL34:
 290              	.L21:
  95:Source\azure_iot_sdk\c-utility\src/base64_2.c ****     {
 291              		.loc 1 95 0
 292 000c 285D     		ldrb	r0, [r5, r4]
 293 000e 6B46     		mov	r3, sp
 294 0010 D91D     		adds	r1, r3, #7
 295 0012 FFF7FEFF 		bl	base64toValue
 296              	.LVL35:
ARM GAS  C:\Users\Phuong\AppData\Local\Temp\cc7FPrJa.s 			page 8


 297 0016 431C     		adds	r3, r0, #1
 298 0018 F7D1     		bne	.L22
  98:Source\azure_iot_sdk\c-utility\src/base64_2.c ****     }
  99:Source\azure_iot_sdk\c-utility\src/base64_2.c ****     return length;
 100:Source\azure_iot_sdk\c-utility\src/base64_2.c **** }
 299              		.loc 1 100 0
 300 001a 2000     		movs	r0, r4
 301 001c 03B0     		add	sp, sp, #12
 302              		@ sp needed
 303              	.LVL36:
 304              	.LVL37:
 305 001e 30BD     		pop	{r4, r5, pc}
 306              		.cfi_endproc
 307              	.LFE5:
 308              		.size	numberOfBase64Characters, .-numberOfBase64Characters
 309              		.section	.text.Base64decode,"ax",%progbits
 310              		.align	2
 311              		.code	16
 312              		.thumb_func
 313              		.type	Base64decode, %function
 314              	Base64decode:
 315              	.LFB7:
 101:Source\azure_iot_sdk\c-utility\src/base64_2.c **** 
 102:Source\azure_iot_sdk\c-utility\src/base64_2.c **** /*returns the count of original bytes before being base64 encoded*/
 103:Source\azure_iot_sdk\c-utility\src/base64_2.c **** /*notice NO validation of the content of encodedString. Its length is validated to be a multiple of
 104:Source\azure_iot_sdk\c-utility\src/base64_2.c **** static size_t Base64decode_len(const char *encodedString)
 105:Source\azure_iot_sdk\c-utility\src/base64_2.c **** {
 106:Source\azure_iot_sdk\c-utility\src/base64_2.c ****     size_t result;
 107:Source\azure_iot_sdk\c-utility\src/base64_2.c ****     size_t sourceLength = strlen(encodedString);
 108:Source\azure_iot_sdk\c-utility\src/base64_2.c **** 
 109:Source\azure_iot_sdk\c-utility\src/base64_2.c ****     if (sourceLength == 0)
 110:Source\azure_iot_sdk\c-utility\src/base64_2.c ****     {
 111:Source\azure_iot_sdk\c-utility\src/base64_2.c ****         result = 0;
 112:Source\azure_iot_sdk\c-utility\src/base64_2.c ****     }
 113:Source\azure_iot_sdk\c-utility\src/base64_2.c ****     else
 114:Source\azure_iot_sdk\c-utility\src/base64_2.c ****     {
 115:Source\azure_iot_sdk\c-utility\src/base64_2.c ****         result = sourceLength / 4 * 3;
 116:Source\azure_iot_sdk\c-utility\src/base64_2.c ****         if (encodedString[sourceLength - 1] == '=')
 117:Source\azure_iot_sdk\c-utility\src/base64_2.c ****         {
 118:Source\azure_iot_sdk\c-utility\src/base64_2.c ****             if (encodedString[sourceLength - 2] == '=')
 119:Source\azure_iot_sdk\c-utility\src/base64_2.c ****             {
 120:Source\azure_iot_sdk\c-utility\src/base64_2.c ****                 result --;
 121:Source\azure_iot_sdk\c-utility\src/base64_2.c ****             }
 122:Source\azure_iot_sdk\c-utility\src/base64_2.c ****             result--;
 123:Source\azure_iot_sdk\c-utility\src/base64_2.c ****         }
 124:Source\azure_iot_sdk\c-utility\src/base64_2.c ****     }
 125:Source\azure_iot_sdk\c-utility\src/base64_2.c ****     return result;
 126:Source\azure_iot_sdk\c-utility\src/base64_2.c **** }
 127:Source\azure_iot_sdk\c-utility\src/base64_2.c **** 
 128:Source\azure_iot_sdk\c-utility\src/base64_2.c **** static void Base64decode(unsigned char *decodedString, const char *base64String)
 129:Source\azure_iot_sdk\c-utility\src/base64_2.c **** {
 316              		.loc 1 129 0
 317              		.cfi_startproc
 318              		@ args = 0, pretend = 0, frame = 8
 319              		@ frame_needed = 0, uses_anonymous_args = 0
 320              	.LVL38:
 321 0000 F0B5     		push	{r4, r5, r6, r7, lr}
ARM GAS  C:\Users\Phuong\AppData\Local\Temp\cc7FPrJa.s 			page 9


 322              		.cfi_def_cfa_offset 20
 323              		.cfi_offset 4, -20
 324              		.cfi_offset 5, -16
 325              		.cfi_offset 6, -12
 326              		.cfi_offset 7, -8
 327              		.cfi_offset 14, -4
 328 0002 5F46     		mov	r7, fp
 329 0004 5646     		mov	r6, r10
 330 0006 4D46     		mov	r5, r9
 331 0008 4446     		mov	r4, r8
 332 000a F0B4     		push	{r4, r5, r6, r7}
 333              		.cfi_def_cfa_offset 36
 334              		.cfi_offset 8, -36
 335              		.cfi_offset 9, -32
 336              		.cfi_offset 10, -28
 337              		.cfi_offset 11, -24
 338 000c 83B0     		sub	sp, sp, #12
 339              		.cfi_def_cfa_offset 48
 340 000e 8046     		mov	r8, r0
 341 0010 0E00     		movs	r6, r1
 130:Source\azure_iot_sdk\c-utility\src/base64_2.c **** 
 131:Source\azure_iot_sdk\c-utility\src/base64_2.c ****     size_t numberOfEncodedChars;
 132:Source\azure_iot_sdk\c-utility\src/base64_2.c ****     size_t indexOfFirstEncodedChar;
 133:Source\azure_iot_sdk\c-utility\src/base64_2.c ****     size_t decodedIndex;
 134:Source\azure_iot_sdk\c-utility\src/base64_2.c **** 
 135:Source\azure_iot_sdk\c-utility\src/base64_2.c ****     //
 136:Source\azure_iot_sdk\c-utility\src/base64_2.c ****     // We can only operate on individual bytes.  If we attempt to work
 137:Source\azure_iot_sdk\c-utility\src/base64_2.c ****     // on anything larger we could get an alignment fault on some
 138:Source\azure_iot_sdk\c-utility\src/base64_2.c ****     // architectures
 139:Source\azure_iot_sdk\c-utility\src/base64_2.c ****     //
 140:Source\azure_iot_sdk\c-utility\src/base64_2.c **** 
 141:Source\azure_iot_sdk\c-utility\src/base64_2.c ****     numberOfEncodedChars = numberOfBase64Characters(base64String);
 342              		.loc 1 141 0
 343 0012 0800     		movs	r0, r1
 344              	.LVL39:
 345 0014 FFF7FEFF 		bl	numberOfBase64Characters
 346              	.LVL40:
 347 0018 0700     		movs	r7, r0
 348              	.LVL41:
 142:Source\azure_iot_sdk\c-utility\src/base64_2.c ****     indexOfFirstEncodedChar = 0;
 143:Source\azure_iot_sdk\c-utility\src/base64_2.c ****     decodedIndex = 0;
 349              		.loc 1 143 0
 350 001a 0025     		movs	r5, #0
 142:Source\azure_iot_sdk\c-utility\src/base64_2.c ****     indexOfFirstEncodedChar = 0;
 351              		.loc 1 142 0
 352 001c 0024     		movs	r4, #0
 144:Source\azure_iot_sdk\c-utility\src/base64_2.c ****     while (numberOfEncodedChars >= 4)
 353              		.loc 1 144 0
 354 001e 35E0     		b	.L24
 355              	.LVL42:
 356              	.L25:
 357              	.LBB2:
 145:Source\azure_iot_sdk\c-utility\src/base64_2.c ****     {
 146:Source\azure_iot_sdk\c-utility\src/base64_2.c ****         unsigned char c1;
 147:Source\azure_iot_sdk\c-utility\src/base64_2.c ****         unsigned char c2;
 148:Source\azure_iot_sdk\c-utility\src/base64_2.c ****         unsigned char c3;
 149:Source\azure_iot_sdk\c-utility\src/base64_2.c ****         unsigned char c4;
ARM GAS  C:\Users\Phuong\AppData\Local\Temp\cc7FPrJa.s 			page 10


 150:Source\azure_iot_sdk\c-utility\src/base64_2.c ****         (void)base64toValue(base64String[indexOfFirstEncodedChar], &c1);
 358              		.loc 1 150 0
 359 0020 305D     		ldrb	r0, [r6, r4]
 360 0022 01AB     		add	r3, sp, #4
 361 0024 9B46     		mov	fp, r3
 362 0026 1900     		movs	r1, r3
 363 0028 FFF7FEFF 		bl	base64toValue
 364              	.LVL43:
 151:Source\azure_iot_sdk\c-utility\src/base64_2.c ****         (void)base64toValue(base64String[indexOfFirstEncodedChar + 1], &c2);
 365              		.loc 1 151 0
 366 002c 631C     		adds	r3, r4, #1
 367 002e F05C     		ldrb	r0, [r6, r3]
 368 0030 0523     		movs	r3, #5
 369 0032 6B44     		add	r3, r3, sp
 370 0034 9A46     		mov	r10, r3
 371 0036 1900     		movs	r1, r3
 372 0038 FFF7FEFF 		bl	base64toValue
 373              	.LVL44:
 152:Source\azure_iot_sdk\c-utility\src/base64_2.c ****         (void)base64toValue(base64String[indexOfFirstEncodedChar + 2], &c3);
 374              		.loc 1 152 0
 375 003c A31C     		adds	r3, r4, #2
 376 003e F05C     		ldrb	r0, [r6, r3]
 377 0040 0623     		movs	r3, #6
 378 0042 6B44     		add	r3, r3, sp
 379 0044 9946     		mov	r9, r3
 380 0046 1900     		movs	r1, r3
 381 0048 FFF7FEFF 		bl	base64toValue
 382              	.LVL45:
 153:Source\azure_iot_sdk\c-utility\src/base64_2.c ****         (void)base64toValue(base64String[indexOfFirstEncodedChar + 3], &c4);
 383              		.loc 1 153 0
 384 004c E31C     		adds	r3, r4, #3
 385 004e F05C     		ldrb	r0, [r6, r3]
 386 0050 6B46     		mov	r3, sp
 387 0052 D91D     		adds	r1, r3, #7
 388 0054 FFF7FEFF 		bl	base64toValue
 389              	.LVL46:
 154:Source\azure_iot_sdk\c-utility\src/base64_2.c ****         decodedString[decodedIndex] = (c1 << 2) | (c2 >> 4);
 390              		.loc 1 154 0
 391 0058 5B46     		mov	r3, fp
 392 005a 1A78     		ldrb	r2, [r3]
 393 005c 9200     		lsls	r2, r2, #2
 394 005e 5346     		mov	r3, r10
 395 0060 1B78     		ldrb	r3, [r3]
 396 0062 1909     		lsrs	r1, r3, #4
 397 0064 0A43     		orrs	r2, r1
 398 0066 4146     		mov	r1, r8
 399 0068 4A55     		strb	r2, [r1, r5]
 155:Source\azure_iot_sdk\c-utility\src/base64_2.c ****         decodedIndex++;
 400              		.loc 1 155 0
 401 006a 691C     		adds	r1, r5, #1
 402              	.LVL47:
 156:Source\azure_iot_sdk\c-utility\src/base64_2.c ****         decodedString[decodedIndex] = ((c2 & 0x0f) << 4) | (c3 >> 2);
 403              		.loc 1 156 0
 404 006c 1A01     		lsls	r2, r3, #4
 405 006e 4B46     		mov	r3, r9
 406 0070 1B78     		ldrb	r3, [r3]
 407 0072 9808     		lsrs	r0, r3, #2
ARM GAS  C:\Users\Phuong\AppData\Local\Temp\cc7FPrJa.s 			page 11


 408 0074 0243     		orrs	r2, r0
 409 0076 4046     		mov	r0, r8
 410 0078 4254     		strb	r2, [r0, r1]
 157:Source\azure_iot_sdk\c-utility\src/base64_2.c ****         decodedIndex++;
 411              		.loc 1 157 0
 412 007a AA1C     		adds	r2, r5, #2
 413              	.LVL48:
 158:Source\azure_iot_sdk\c-utility\src/base64_2.c ****         decodedString[decodedIndex] = ((c3 & 0x03) << 6) | c4;
 414              		.loc 1 158 0
 415 007c 9B01     		lsls	r3, r3, #6
 416 007e 6946     		mov	r1, sp
 417 0080 C979     		ldrb	r1, [r1, #7]
 418 0082 0B43     		orrs	r3, r1
 419 0084 8354     		strb	r3, [r0, r2]
 159:Source\azure_iot_sdk\c-utility\src/base64_2.c ****         decodedIndex++;
 420              		.loc 1 159 0
 421 0086 0335     		adds	r5, r5, #3
 422              	.LVL49:
 160:Source\azure_iot_sdk\c-utility\src/base64_2.c ****         numberOfEncodedChars -= 4;
 423              		.loc 1 160 0
 424 0088 043F     		subs	r7, r7, #4
 425              	.LVL50:
 161:Source\azure_iot_sdk\c-utility\src/base64_2.c ****         indexOfFirstEncodedChar += 4;
 426              		.loc 1 161 0
 427 008a 0434     		adds	r4, r4, #4
 428              	.LVL51:
 429              	.L24:
 430              	.LBE2:
 144:Source\azure_iot_sdk\c-utility\src/base64_2.c ****     {
 431              		.loc 1 144 0
 432 008c 032F     		cmp	r7, #3
 433 008e C7D8     		bhi	.L25
 162:Source\azure_iot_sdk\c-utility\src/base64_2.c **** 
 163:Source\azure_iot_sdk\c-utility\src/base64_2.c ****     }
 164:Source\azure_iot_sdk\c-utility\src/base64_2.c **** 
 165:Source\azure_iot_sdk\c-utility\src/base64_2.c ****     if (numberOfEncodedChars == 2)
 434              		.loc 1 165 0
 435 0090 022F     		cmp	r7, #2
 436 0092 14D1     		bne	.L26
 437              	.LBB3:
 166:Source\azure_iot_sdk\c-utility\src/base64_2.c ****     {
 167:Source\azure_iot_sdk\c-utility\src/base64_2.c ****         unsigned char c1;
 168:Source\azure_iot_sdk\c-utility\src/base64_2.c ****         unsigned char c2;
 169:Source\azure_iot_sdk\c-utility\src/base64_2.c ****         (void)base64toValue(base64String[indexOfFirstEncodedChar], &c1);
 438              		.loc 1 169 0
 439 0094 305D     		ldrb	r0, [r6, r4]
 440 0096 6B46     		mov	r3, sp
 441 0098 9F1D     		adds	r7, r3, #6
 442              	.LVL52:
 443 009a 3900     		movs	r1, r7
 444 009c FFF7FEFF 		bl	base64toValue
 445              	.LVL53:
 170:Source\azure_iot_sdk\c-utility\src/base64_2.c ****         (void)base64toValue(base64String[indexOfFirstEncodedChar + 1], &c2);
 446              		.loc 1 170 0
 447 00a0 0134     		adds	r4, r4, #1
 448              	.LVL54:
 449 00a2 305D     		ldrb	r0, [r6, r4]
ARM GAS  C:\Users\Phuong\AppData\Local\Temp\cc7FPrJa.s 			page 12


 450 00a4 6B46     		mov	r3, sp
 451 00a6 DC1D     		adds	r4, r3, #7
 452              	.LVL55:
 453 00a8 2100     		movs	r1, r4
 454 00aa FFF7FEFF 		bl	base64toValue
 455              	.LVL56:
 171:Source\azure_iot_sdk\c-utility\src/base64_2.c ****         decodedString[decodedIndex] = (c1 << 2) | (c2 >> 4);
 456              		.loc 1 171 0
 457 00ae 3B78     		ldrb	r3, [r7]
 458 00b0 9A00     		lsls	r2, r3, #2
 459 00b2 2378     		ldrb	r3, [r4]
 460 00b4 1B09     		lsrs	r3, r3, #4
 461 00b6 1343     		orrs	r3, r2
 462 00b8 4246     		mov	r2, r8
 463 00ba 5355     		strb	r3, [r2, r5]
 464              	.LBE3:
 465 00bc 24E0     		b	.L23
 466              	.LVL57:
 467              	.L26:
 172:Source\azure_iot_sdk\c-utility\src/base64_2.c ****     }
 173:Source\azure_iot_sdk\c-utility\src/base64_2.c ****     else if (numberOfEncodedChars == 3)
 468              		.loc 1 173 0
 469 00be 032F     		cmp	r7, #3
 470 00c0 22D1     		bne	.L23
 471              	.LBB4:
 174:Source\azure_iot_sdk\c-utility\src/base64_2.c ****     {
 175:Source\azure_iot_sdk\c-utility\src/base64_2.c ****         unsigned char c1;
 176:Source\azure_iot_sdk\c-utility\src/base64_2.c ****         unsigned char c2;
 177:Source\azure_iot_sdk\c-utility\src/base64_2.c ****         unsigned char c3;
 178:Source\azure_iot_sdk\c-utility\src/base64_2.c ****         (void)base64toValue(base64String[indexOfFirstEncodedChar], &c1);
 472              		.loc 1 178 0
 473 00c2 305D     		ldrb	r0, [r6, r4]
 474 00c4 0523     		movs	r3, #5
 475 00c6 6B44     		add	r3, r3, sp
 476 00c8 9946     		mov	r9, r3
 477 00ca 1900     		movs	r1, r3
 478 00cc FFF7FEFF 		bl	base64toValue
 479              	.LVL58:
 179:Source\azure_iot_sdk\c-utility\src/base64_2.c ****         (void)base64toValue(base64String[indexOfFirstEncodedChar + 1], &c2);
 480              		.loc 1 179 0
 481 00d0 631C     		adds	r3, r4, #1
 482 00d2 F05C     		ldrb	r0, [r6, r3]
 483 00d4 6B46     		mov	r3, sp
 484 00d6 9F1D     		adds	r7, r3, #6
 485              	.LVL59:
 486 00d8 3900     		movs	r1, r7
 487 00da FFF7FEFF 		bl	base64toValue
 488              	.LVL60:
 180:Source\azure_iot_sdk\c-utility\src/base64_2.c ****         (void)base64toValue(base64String[indexOfFirstEncodedChar + 2], &c3);
 489              		.loc 1 180 0
 490 00de 0234     		adds	r4, r4, #2
 491              	.LVL61:
 492 00e0 305D     		ldrb	r0, [r6, r4]
 493 00e2 6B46     		mov	r3, sp
 494 00e4 DC1D     		adds	r4, r3, #7
 495              	.LVL62:
 496 00e6 2100     		movs	r1, r4
ARM GAS  C:\Users\Phuong\AppData\Local\Temp\cc7FPrJa.s 			page 13


 497 00e8 FFF7FEFF 		bl	base64toValue
 498              	.LVL63:
 181:Source\azure_iot_sdk\c-utility\src/base64_2.c ****         decodedString[decodedIndex] = (c1 << 2) | (c2 >> 4);
 499              		.loc 1 181 0
 500 00ec 4B46     		mov	r3, r9
 501 00ee 1A78     		ldrb	r2, [r3]
 502 00f0 9200     		lsls	r2, r2, #2
 503 00f2 3B78     		ldrb	r3, [r7]
 504 00f4 1909     		lsrs	r1, r3, #4
 505 00f6 0A43     		orrs	r2, r1
 506 00f8 4146     		mov	r1, r8
 507 00fa 4A55     		strb	r2, [r1, r5]
 182:Source\azure_iot_sdk\c-utility\src/base64_2.c ****         decodedIndex++;
 508              		.loc 1 182 0
 509 00fc 0135     		adds	r5, r5, #1
 510              	.LVL64:
 183:Source\azure_iot_sdk\c-utility\src/base64_2.c ****         decodedString[decodedIndex] = ((c2 & 0x0f) << 4) | (c3 >> 2);
 511              		.loc 1 183 0
 512 00fe 1B01     		lsls	r3, r3, #4
 513 0100 2278     		ldrb	r2, [r4]
 514 0102 9208     		lsrs	r2, r2, #2
 515 0104 1343     		orrs	r3, r2
 516 0106 4B55     		strb	r3, [r1, r5]
 517              	.L23:
 518              	.LBE4:
 184:Source\azure_iot_sdk\c-utility\src/base64_2.c ****     }
 185:Source\azure_iot_sdk\c-utility\src/base64_2.c **** }
 519              		.loc 1 185 0
 520 0108 03B0     		add	sp, sp, #12
 521              		@ sp needed
 522              	.LVL65:
 523              	.LVL66:
 524              	.LVL67:
 525 010a 3CBC     		pop	{r2, r3, r4, r5}
 526 010c 9046     		mov	r8, r2
 527 010e 9946     		mov	r9, r3
 528 0110 A246     		mov	r10, r4
 529 0112 AB46     		mov	fp, r5
 530 0114 F0BD     		pop	{r4, r5, r6, r7, pc}
 531              		.cfi_endproc
 532              	.LFE7:
 533              		.size	Base64decode, .-Base64decode
 534 0116 C046     		.section	.text.Base64decode_len,"ax",%progbits
 535              		.align	2
 536              		.code	16
 537              		.thumb_func
 538              		.type	Base64decode_len, %function
 539              	Base64decode_len:
 540              	.LFB6:
 105:Source\azure_iot_sdk\c-utility\src/base64_2.c ****     size_t result;
 541              		.loc 1 105 0
 542              		.cfi_startproc
 543              		@ args = 0, pretend = 0, frame = 0
 544              		@ frame_needed = 0, uses_anonymous_args = 0
 545              	.LVL68:
 546 0000 10B5     		push	{r4, lr}
 547              		.cfi_def_cfa_offset 8
ARM GAS  C:\Users\Phuong\AppData\Local\Temp\cc7FPrJa.s 			page 14


 548              		.cfi_offset 4, -8
 549              		.cfi_offset 14, -4
 550 0002 0400     		movs	r4, r0
 107:Source\azure_iot_sdk\c-utility\src/base64_2.c **** 
 551              		.loc 1 107 0
 552 0004 FFF7FEFF 		bl	strlen
 553              	.LVL69:
 109:Source\azure_iot_sdk\c-utility\src/base64_2.c ****     {
 554              		.loc 1 109 0
 555 0008 0028     		cmp	r0, #0
 556 000a 0DD0     		beq	.L31
 115:Source\azure_iot_sdk\c-utility\src/base64_2.c ****         if (encodedString[sourceLength - 1] == '=')
 557              		.loc 1 115 0
 558 000c 8308     		lsrs	r3, r0, #2
 559 000e 5A00     		lsls	r2, r3, #1
 560 0010 D318     		adds	r3, r2, r3
 561              	.LVL70:
 116:Source\azure_iot_sdk\c-utility\src/base64_2.c ****         {
 562              		.loc 1 116 0
 563 0012 421E     		subs	r2, r0, #1
 564 0014 A25C     		ldrb	r2, [r4, r2]
 565 0016 3D2A     		cmp	r2, #61
 566 0018 07D1     		bne	.L29
 118:Source\azure_iot_sdk\c-utility\src/base64_2.c ****             {
 567              		.loc 1 118 0
 568 001a 0238     		subs	r0, r0, #2
 569              	.LVL71:
 570 001c 225C     		ldrb	r2, [r4, r0]
 571 001e 3D2A     		cmp	r2, #61
 572 0020 00D1     		bne	.L30
 120:Source\azure_iot_sdk\c-utility\src/base64_2.c ****             }
 573              		.loc 1 120 0
 574 0022 013B     		subs	r3, r3, #1
 575              	.LVL72:
 576              	.L30:
 122:Source\azure_iot_sdk\c-utility\src/base64_2.c ****         }
 577              		.loc 1 122 0
 578 0024 013B     		subs	r3, r3, #1
 579              	.LVL73:
 580 0026 00E0     		b	.L29
 581              	.LVL74:
 582              	.L31:
 111:Source\azure_iot_sdk\c-utility\src/base64_2.c ****     }
 583              		.loc 1 111 0
 584 0028 0023     		movs	r3, #0
 585              	.LVL75:
 586              	.L29:
 126:Source\azure_iot_sdk\c-utility\src/base64_2.c **** 
 587              		.loc 1 126 0
 588 002a 1800     		movs	r0, r3
 589              		@ sp needed
 590              	.LVL76:
 591 002c 10BD     		pop	{r4, pc}
 592              		.cfi_endproc
 593              	.LFE6:
 594              		.size	Base64decode_len, .-Base64decode_len
 595              		.global	__aeabi_uidiv
ARM GAS  C:\Users\Phuong\AppData\Local\Temp\cc7FPrJa.s 			page 15


 596 002e C046     		.section	.text.Base64_Encode_Internal,"ax",%progbits
 597              		.align	2
 598              		.code	16
 599              		.thumb_func
 600              		.type	Base64_Encode_Internal, %function
 601              	Base64_Encode_Internal:
 602              	.LFB9:
 186:Source\azure_iot_sdk\c-utility\src/base64_2.c **** 
 187:Source\azure_iot_sdk\c-utility\src/base64_2.c **** BUFFER_HANDLE Base64_Decoder(const char* source)
 188:Source\azure_iot_sdk\c-utility\src/base64_2.c **** {
 189:Source\azure_iot_sdk\c-utility\src/base64_2.c ****     BUFFER_HANDLE result;
 190:Source\azure_iot_sdk\c-utility\src/base64_2.c ****     /*Codes_SRS_BASE64_06_008: [If source is NULL then Base64_Decode shall return NULL.]*/
 191:Source\azure_iot_sdk\c-utility\src/base64_2.c ****     if (source == NULL)
 192:Source\azure_iot_sdk\c-utility\src/base64_2.c ****     {
 193:Source\azure_iot_sdk\c-utility\src/base64_2.c ****         LogError("invalid parameter const char* source=%p", source);
 194:Source\azure_iot_sdk\c-utility\src/base64_2.c ****         result = NULL;
 195:Source\azure_iot_sdk\c-utility\src/base64_2.c ****     }
 196:Source\azure_iot_sdk\c-utility\src/base64_2.c ****     else
 197:Source\azure_iot_sdk\c-utility\src/base64_2.c ****     {
 198:Source\azure_iot_sdk\c-utility\src/base64_2.c ****         if ((strlen(source) % 4) != 0)
 199:Source\azure_iot_sdk\c-utility\src/base64_2.c ****         {
 200:Source\azure_iot_sdk\c-utility\src/base64_2.c ****             /*Codes_SRS_BASE64_06_011: [If the source string has an invalid length for a base 64 en
 201:Source\azure_iot_sdk\c-utility\src/base64_2.c ****             LogError("Invalid length Base64 string!");
 202:Source\azure_iot_sdk\c-utility\src/base64_2.c ****             result = NULL;
 203:Source\azure_iot_sdk\c-utility\src/base64_2.c ****         }
 204:Source\azure_iot_sdk\c-utility\src/base64_2.c ****         else
 205:Source\azure_iot_sdk\c-utility\src/base64_2.c ****         {
 206:Source\azure_iot_sdk\c-utility\src/base64_2.c ****             if ((result = BUFFER_new()) == NULL)
 207:Source\azure_iot_sdk\c-utility\src/base64_2.c ****             {
 208:Source\azure_iot_sdk\c-utility\src/base64_2.c ****                 /*Codes_SRS_BASE64_06_010: [If there is any memory allocation failure during the de
 209:Source\azure_iot_sdk\c-utility\src/base64_2.c ****                 LogError("Could not create a buffer to decoding.");
 210:Source\azure_iot_sdk\c-utility\src/base64_2.c ****             }
 211:Source\azure_iot_sdk\c-utility\src/base64_2.c ****             else
 212:Source\azure_iot_sdk\c-utility\src/base64_2.c ****             {
 213:Source\azure_iot_sdk\c-utility\src/base64_2.c ****                 size_t sizeOfOutputBuffer = Base64decode_len(source);
 214:Source\azure_iot_sdk\c-utility\src/base64_2.c ****                 /*Codes_SRS_BASE64_06_009: [If the string pointed to by source is zero length then 
 215:Source\azure_iot_sdk\c-utility\src/base64_2.c ****                 if (sizeOfOutputBuffer > 0)
 216:Source\azure_iot_sdk\c-utility\src/base64_2.c ****                 {
 217:Source\azure_iot_sdk\c-utility\src/base64_2.c ****                     if (BUFFER_pre_build(result, sizeOfOutputBuffer) != 0)
 218:Source\azure_iot_sdk\c-utility\src/base64_2.c ****                     {
 219:Source\azure_iot_sdk\c-utility\src/base64_2.c ****                         /*Codes_SRS_BASE64_06_010: [If there is any memory allocation failure durin
 220:Source\azure_iot_sdk\c-utility\src/base64_2.c ****                         LogError("Could not prebuild a buffer for base 64 decoding.");
 221:Source\azure_iot_sdk\c-utility\src/base64_2.c ****                         BUFFER_delete(result);
 222:Source\azure_iot_sdk\c-utility\src/base64_2.c ****                         result = NULL;
 223:Source\azure_iot_sdk\c-utility\src/base64_2.c ****                     }
 224:Source\azure_iot_sdk\c-utility\src/base64_2.c ****                     else
 225:Source\azure_iot_sdk\c-utility\src/base64_2.c ****                     {
 226:Source\azure_iot_sdk\c-utility\src/base64_2.c ****                         Base64decode(BUFFER_u_char(result), source);
 227:Source\azure_iot_sdk\c-utility\src/base64_2.c ****                     }
 228:Source\azure_iot_sdk\c-utility\src/base64_2.c ****                 }
 229:Source\azure_iot_sdk\c-utility\src/base64_2.c ****             }
 230:Source\azure_iot_sdk\c-utility\src/base64_2.c ****         }
 231:Source\azure_iot_sdk\c-utility\src/base64_2.c ****     }
 232:Source\azure_iot_sdk\c-utility\src/base64_2.c ****     return result;
 233:Source\azure_iot_sdk\c-utility\src/base64_2.c **** }
 234:Source\azure_iot_sdk\c-utility\src/base64_2.c **** 
 235:Source\azure_iot_sdk\c-utility\src/base64_2.c **** 
ARM GAS  C:\Users\Phuong\AppData\Local\Temp\cc7FPrJa.s 			page 16


 236:Source\azure_iot_sdk\c-utility\src/base64_2.c **** static STRING_HANDLE Base64_Encode_Internal(const unsigned char* source, size_t size)
 237:Source\azure_iot_sdk\c-utility\src/base64_2.c **** {
 603              		.loc 1 237 0
 604              		.cfi_startproc
 605              		@ args = 0, pretend = 0, frame = 8
 606              		@ frame_needed = 0, uses_anonymous_args = 0
 607              	.LVL77:
 608 0000 F0B5     		push	{r4, r5, r6, r7, lr}
 609              		.cfi_def_cfa_offset 20
 610              		.cfi_offset 4, -20
 611              		.cfi_offset 5, -16
 612              		.cfi_offset 6, -12
 613              		.cfi_offset 7, -8
 614              		.cfi_offset 14, -4
 615 0002 5F46     		mov	r7, fp
 616 0004 5646     		mov	r6, r10
 617 0006 4D46     		mov	r5, r9
 618 0008 4446     		mov	r4, r8
 619 000a F0B4     		push	{r4, r5, r6, r7}
 620              		.cfi_def_cfa_offset 36
 621              		.cfi_offset 8, -36
 622              		.cfi_offset 9, -32
 623              		.cfi_offset 10, -28
 624              		.cfi_offset 11, -24
 625 000c 85B0     		sub	sp, sp, #20
 626              		.cfi_def_cfa_offset 56
 627 000e 8146     		mov	r9, r0
 628 0010 8A46     		mov	r10, r1
 629              	.LVL78:
 238:Source\azure_iot_sdk\c-utility\src/base64_2.c ****     STRING_HANDLE result;
 239:Source\azure_iot_sdk\c-utility\src/base64_2.c ****     size_t neededSize = 0;
 240:Source\azure_iot_sdk\c-utility\src/base64_2.c ****     char* encoded;
 241:Source\azure_iot_sdk\c-utility\src/base64_2.c ****     size_t currentPosition = 0;
 242:Source\azure_iot_sdk\c-utility\src/base64_2.c ****     neededSize += (size == 0) ? (0) : ((((size - 1) / 3) + 1) * 4);
 630              		.loc 1 242 0
 631 0012 0029     		cmp	r1, #0
 632 0014 06D0     		beq	.L39
 633              		.loc 1 242 0 is_stmt 0 discriminator 1
 634 0016 481E     		subs	r0, r1, #1
 635              	.LVL79:
 636 0018 0321     		movs	r1, #3
 637              	.LVL80:
 638 001a FFF7FEFF 		bl	__aeabi_uidiv
 639              	.LVL81:
 640 001e 0130     		adds	r0, r0, #1
 641 0020 8000     		lsls	r0, r0, #2
 642 0022 00E0     		b	.L33
 643              	.LVL82:
 644              	.L39:
 645              		.loc 1 242 0
 646 0024 0020     		movs	r0, #0
 647              	.LVL83:
 648              	.L33:
 243:Source\azure_iot_sdk\c-utility\src/base64_2.c ****     neededSize += 1; /*+1 because \0 at the end of the string*/
 649              		.loc 1 243 0 is_stmt 1 discriminator 4
 650 0026 0130     		adds	r0, r0, #1
 651              	.LVL84:
ARM GAS  C:\Users\Phuong\AppData\Local\Temp\cc7FPrJa.s 			page 17


 244:Source\azure_iot_sdk\c-utility\src/base64_2.c ****     /*Codes_SRS_BASE64_06_006: [If when allocating memory to produce the encoding a failure occurs 
 245:Source\azure_iot_sdk\c-utility\src/base64_2.c ****     encoded = (char*)malloc(neededSize);
 652              		.loc 1 245 0 discriminator 4
 653 0028 FFF7FEFF 		bl	malloc
 654              	.LVL85:
 655 002c 8046     		mov	r8, r0
 656              	.LVL86:
 246:Source\azure_iot_sdk\c-utility\src/base64_2.c ****     if (encoded == NULL)
 657              		.loc 1 246 0 discriminator 4
 658 002e 0028     		cmp	r0, #0
 659 0030 3DD1     		bne	.L40
 660              	.LVL87:
 661              	.LBB5:
 247:Source\azure_iot_sdk\c-utility\src/base64_2.c ****     {
 248:Source\azure_iot_sdk\c-utility\src/base64_2.c ****         result = NULL;
 249:Source\azure_iot_sdk\c-utility\src/base64_2.c ****         LogError("Base64_Encoder:: Allocation failed.");
 662              		.loc 1 249 0
 663 0032 FFF7FEFF 		bl	xlogging_get_log_function
 664              	.LVL88:
 665 0036 041E     		subs	r4, r0, #0
 666              	.LVL89:
 667 0038 00D1     		bne	.LCB647
 668 003a 91E0     		b	.L41	@long jump
 669              	.LCB647:
 670              		.loc 1 249 0 is_stmt 0 discriminator 4
 671 003c 4D4B     		ldr	r3, .L42
 672 003e 0193     		str	r3, [sp, #4]
 673 0040 0123     		movs	r3, #1
 674 0042 0093     		str	r3, [sp]
 675 0044 F833     		adds	r3, r3, #248
 676 0046 4C4A     		ldr	r2, .L42+4
 677 0048 1032     		adds	r2, r2, #16
 678 004a 4C49     		ldr	r1, .L42+8
 679 004c 0020     		movs	r0, #0
 680              	.LVL90:
 681 004e A047     		blx	r4
 682              	.LVL91:
 683              	.LBE5:
 248:Source\azure_iot_sdk\c-utility\src/base64_2.c ****         LogError("Base64_Encoder:: Allocation failed.");
 684              		.loc 1 248 0 is_stmt 1 discriminator 4
 685 0050 0024     		movs	r4, #0
 686              	.LVL92:
 687 0052 86E0     		b	.L35
 688              	.LVL93:
 689              	.L36:
 690              	.LBB6:
 691              	.LBB7:
 250:Source\azure_iot_sdk\c-utility\src/base64_2.c ****     }
 251:Source\azure_iot_sdk\c-utility\src/base64_2.c ****     else
 252:Source\azure_iot_sdk\c-utility\src/base64_2.c ****     {
 253:Source\azure_iot_sdk\c-utility\src/base64_2.c ****         /*b0            b1(+1)          b2(+2)
 254:Source\azure_iot_sdk\c-utility\src/base64_2.c ****         7 6 5 4 3 2 1 0 7 6 5 4 3 2 1 0 7 6 5 4 3 2 1 0
 255:Source\azure_iot_sdk\c-utility\src/base64_2.c ****         |----c1---| |----c2---| |----c3---| |----c4---|
 256:Source\azure_iot_sdk\c-utility\src/base64_2.c ****         */
 257:Source\azure_iot_sdk\c-utility\src/base64_2.c **** 
 258:Source\azure_iot_sdk\c-utility\src/base64_2.c ****         size_t destinationPosition = 0;
 259:Source\azure_iot_sdk\c-utility\src/base64_2.c ****         while (size - currentPosition >= 3)
ARM GAS  C:\Users\Phuong\AppData\Local\Temp\cc7FPrJa.s 			page 18


 260:Source\azure_iot_sdk\c-utility\src/base64_2.c ****         {
 261:Source\azure_iot_sdk\c-utility\src/base64_2.c ****             char c1 = base64char(source[currentPosition] >> 2);
 692              		.loc 1 261 0
 693 0054 4B46     		mov	r3, r9
 694 0056 9C5D     		ldrb	r4, [r3, r6]
 695 0058 A008     		lsrs	r0, r4, #2
 696 005a FFF7FEFF 		bl	base64char
 697              	.LVL94:
 698 005e 8346     		mov	fp, r0
 699              	.LVL95:
 262:Source\azure_iot_sdk\c-utility\src/base64_2.c ****             char c2 = base64char(
 263:Source\azure_iot_sdk\c-utility\src/base64_2.c ****                 ((source[currentPosition] & 3) << 4) |
 700              		.loc 1 263 0
 701 0060 2001     		lsls	r0, r4, #4
 264:Source\azure_iot_sdk\c-utility\src/base64_2.c ****                     (source[currentPosition + 1] >> 4)
 702              		.loc 1 264 0
 703 0062 4B46     		mov	r3, r9
 704 0064 9F19     		adds	r7, r3, r6
 705 0066 7C78     		ldrb	r4, [r7, #1]
 262:Source\azure_iot_sdk\c-utility\src/base64_2.c ****             char c2 = base64char(
 706              		.loc 1 262 0
 707 0068 3023     		movs	r3, #48
 708 006a 1840     		ands	r0, r3
 709 006c 2309     		lsrs	r3, r4, #4
 710 006e 1843     		orrs	r0, r3
 711 0070 FFF7FEFF 		bl	base64char
 712              	.LVL96:
 713 0074 0390     		str	r0, [sp, #12]
 714              	.LVL97:
 265:Source\azure_iot_sdk\c-utility\src/base64_2.c ****             );
 266:Source\azure_iot_sdk\c-utility\src/base64_2.c ****             char c3 = base64char(
 267:Source\azure_iot_sdk\c-utility\src/base64_2.c ****                 ((source[currentPosition + 1] & 0x0F) << 2) |
 715              		.loc 1 267 0
 716 0076 A400     		lsls	r4, r4, #2
 268:Source\azure_iot_sdk\c-utility\src/base64_2.c ****                     ((source[currentPosition + 2] >> 6) & 3)
 717              		.loc 1 268 0
 718 0078 BF78     		ldrb	r7, [r7, #2]
 266:Source\azure_iot_sdk\c-utility\src/base64_2.c ****                 ((source[currentPosition + 1] & 0x0F) << 2) |
 719              		.loc 1 266 0
 720 007a 3C20     		movs	r0, #60
 721 007c 0440     		ands	r4, r0
 722 007e B809     		lsrs	r0, r7, #6
 723 0080 2043     		orrs	r0, r4
 724 0082 FFF7FEFF 		bl	base64char
 725              	.LVL98:
 726 0086 0400     		movs	r4, r0
 727              	.LVL99:
 269:Source\azure_iot_sdk\c-utility\src/base64_2.c ****             );
 270:Source\azure_iot_sdk\c-utility\src/base64_2.c ****             char c4 = base64char(
 728              		.loc 1 270 0
 729 0088 3F20     		movs	r0, #63
 730 008a 3840     		ands	r0, r7
 731 008c FFF7FEFF 		bl	base64char
 732              	.LVL100:
 271:Source\azure_iot_sdk\c-utility\src/base64_2.c ****                 source[currentPosition + 2] & 0x3F
 272:Source\azure_iot_sdk\c-utility\src/base64_2.c ****             );
 273:Source\azure_iot_sdk\c-utility\src/base64_2.c ****             currentPosition += 3;
ARM GAS  C:\Users\Phuong\AppData\Local\Temp\cc7FPrJa.s 			page 19


 733              		.loc 1 273 0
 734 0090 0336     		adds	r6, r6, #3
 735              	.LVL101:
 274:Source\azure_iot_sdk\c-utility\src/base64_2.c ****             encoded[destinationPosition++] = c1;
 736              		.loc 1 274 0
 737 0092 6B1C     		adds	r3, r5, #1
 738              	.LVL102:
 739 0094 4246     		mov	r2, r8
 740 0096 5946     		mov	r1, fp
 741 0098 5155     		strb	r1, [r2, r5]
 275:Source\azure_iot_sdk\c-utility\src/base64_2.c ****             encoded[destinationPosition++] = c2;
 742              		.loc 1 275 0
 743 009a AA1C     		adds	r2, r5, #2
 744              	.LVL103:
 745 009c 4146     		mov	r1, r8
 746 009e 6F46     		mov	r7, sp
 747 00a0 3F7B     		ldrb	r7, [r7, #12]
 748 00a2 CF54     		strb	r7, [r1, r3]
 276:Source\azure_iot_sdk\c-utility\src/base64_2.c ****             encoded[destinationPosition++] = c3;
 749              		.loc 1 276 0
 750 00a4 EB1C     		adds	r3, r5, #3
 751              	.LVL104:
 752 00a6 8C54     		strb	r4, [r1, r2]
 753              	.LVL105:
 277:Source\azure_iot_sdk\c-utility\src/base64_2.c ****             encoded[destinationPosition++] = c4;
 754              		.loc 1 277 0
 755 00a8 C854     		strb	r0, [r1, r3]
 756 00aa 0435     		adds	r5, r5, #4
 757              	.LVL106:
 758 00ac 01E0     		b	.L34
 759              	.LVL107:
 760              	.L40:
 761              	.LBE7:
 762              	.LBE6:
 763 00ae 0025     		movs	r5, #0
 764 00b0 0026     		movs	r6, #0
 765              	.LVL108:
 766              	.L34:
 767              	.LBB11:
 259:Source\azure_iot_sdk\c-utility\src/base64_2.c ****         {
 768              		.loc 1 259 0
 769 00b2 5346     		mov	r3, r10
 770 00b4 9B1B     		subs	r3, r3, r6
 771 00b6 022B     		cmp	r3, #2
 772 00b8 CCD8     		bhi	.L36
 278:Source\azure_iot_sdk\c-utility\src/base64_2.c **** 
 279:Source\azure_iot_sdk\c-utility\src/base64_2.c ****         }
 280:Source\azure_iot_sdk\c-utility\src/base64_2.c ****         if (size - currentPosition == 2)
 773              		.loc 1 280 0
 774 00ba 1FD1     		bne	.L37
 775              	.LBB8:
 281:Source\azure_iot_sdk\c-utility\src/base64_2.c ****         {
 282:Source\azure_iot_sdk\c-utility\src/base64_2.c ****             char c1 = base64char(source[currentPosition] >> 2);
 776              		.loc 1 282 0
 777 00bc 4B46     		mov	r3, r9
 778 00be 9C5D     		ldrb	r4, [r3, r6]
 779 00c0 A008     		lsrs	r0, r4, #2
ARM GAS  C:\Users\Phuong\AppData\Local\Temp\cc7FPrJa.s 			page 20


 780 00c2 FFF7FEFF 		bl	base64char
 781              	.LVL109:
 782 00c6 0700     		movs	r7, r0
 783              	.LVL110:
 283:Source\azure_iot_sdk\c-utility\src/base64_2.c ****             char c2 = base64char(
 284:Source\azure_iot_sdk\c-utility\src/base64_2.c ****                 ((source[currentPosition] & 0x03) << 4) |
 784              		.loc 1 284 0
 785 00c8 2401     		lsls	r4, r4, #4
 285:Source\azure_iot_sdk\c-utility\src/base64_2.c ****                     (source[currentPosition + 1] >> 4)
 786              		.loc 1 285 0
 787 00ca 4E44     		add	r6, r6, r9
 788              	.LVL111:
 789 00cc 7678     		ldrb	r6, [r6, #1]
 283:Source\azure_iot_sdk\c-utility\src/base64_2.c ****             char c2 = base64char(
 790              		.loc 1 283 0
 791 00ce 3020     		movs	r0, #48
 792 00d0 0440     		ands	r4, r0
 793 00d2 3009     		lsrs	r0, r6, #4
 794 00d4 2043     		orrs	r0, r4
 795 00d6 FFF7FEFF 		bl	base64char
 796              	.LVL112:
 797 00da 0400     		movs	r4, r0
 798              	.LVL113:
 286:Source\azure_iot_sdk\c-utility\src/base64_2.c ****             );
 287:Source\azure_iot_sdk\c-utility\src/base64_2.c ****             char c3 = base64b16(source[currentPosition + 1] & 0x0F);
 799              		.loc 1 287 0
 800 00dc 0F20     		movs	r0, #15
 801 00de 3040     		ands	r0, r6
 802 00e0 FFF7FEFF 		bl	base64b16
 803              	.LVL114:
 288:Source\azure_iot_sdk\c-utility\src/base64_2.c ****             encoded[destinationPosition++] = c1;
 804              		.loc 1 288 0
 805 00e4 6B1C     		adds	r3, r5, #1
 806              	.LVL115:
 807 00e6 4246     		mov	r2, r8
 808 00e8 5755     		strb	r7, [r2, r5]
 289:Source\azure_iot_sdk\c-utility\src/base64_2.c ****             encoded[destinationPosition++] = c2;
 809              		.loc 1 289 0
 810 00ea AA1C     		adds	r2, r5, #2
 811              	.LVL116:
 812 00ec 4146     		mov	r1, r8
 813 00ee CC54     		strb	r4, [r1, r3]
 290:Source\azure_iot_sdk\c-utility\src/base64_2.c ****             encoded[destinationPosition++] = c3;
 814              		.loc 1 290 0
 815 00f0 EB1C     		adds	r3, r5, #3
 816              	.LVL117:
 817 00f2 8854     		strb	r0, [r1, r2]
 818              	.LVL118:
 291:Source\azure_iot_sdk\c-utility\src/base64_2.c ****             encoded[destinationPosition++] = '=';
 819              		.loc 1 291 0
 820 00f4 3D22     		movs	r2, #61
 821 00f6 CA54     		strb	r2, [r1, r3]
 822 00f8 0435     		adds	r5, r5, #4
 823              	.LVL119:
 824              	.LBE8:
 825 00fa 16E0     		b	.L38
 826              	.LVL120:
ARM GAS  C:\Users\Phuong\AppData\Local\Temp\cc7FPrJa.s 			page 21


 827              	.L37:
 292:Source\azure_iot_sdk\c-utility\src/base64_2.c ****         }
 293:Source\azure_iot_sdk\c-utility\src/base64_2.c ****         else if (size - currentPosition == 1)
 828              		.loc 1 293 0
 829 00fc 012B     		cmp	r3, #1
 830 00fe 14D1     		bne	.L38
 831              	.LBB9:
 294:Source\azure_iot_sdk\c-utility\src/base64_2.c ****         {
 295:Source\azure_iot_sdk\c-utility\src/base64_2.c ****             char c1 = base64char(source[currentPosition] >> 2);
 832              		.loc 1 295 0
 833 0100 4B46     		mov	r3, r9
 834 0102 9C5D     		ldrb	r4, [r3, r6]
 835 0104 A008     		lsrs	r0, r4, #2
 836 0106 FFF7FEFF 		bl	base64char
 837              	.LVL121:
 838 010a 0600     		movs	r6, r0
 839              	.LVL122:
 296:Source\azure_iot_sdk\c-utility\src/base64_2.c ****             char c2 = base64b8(source[currentPosition] & 0x03);
 840              		.loc 1 296 0
 841 010c 0320     		movs	r0, #3
 842 010e 2040     		ands	r0, r4
 843 0110 FFF7FEFF 		bl	base64b8
 844              	.LVL123:
 297:Source\azure_iot_sdk\c-utility\src/base64_2.c ****             encoded[destinationPosition++] = c1;
 845              		.loc 1 297 0
 846 0114 6B1C     		adds	r3, r5, #1
 847              	.LVL124:
 848 0116 4246     		mov	r2, r8
 849 0118 5655     		strb	r6, [r2, r5]
 298:Source\azure_iot_sdk\c-utility\src/base64_2.c ****             encoded[destinationPosition++] = c2;
 850              		.loc 1 298 0
 851 011a A91C     		adds	r1, r5, #2
 852              	.LVL125:
 853 011c D054     		strb	r0, [r2, r3]
 299:Source\azure_iot_sdk\c-utility\src/base64_2.c ****             encoded[destinationPosition++] = '=';
 854              		.loc 1 299 0
 855 011e EB1C     		adds	r3, r5, #3
 856              	.LVL126:
 857 0120 3D22     		movs	r2, #61
 858 0122 4046     		mov	r0, r8
 859              	.LVL127:
 860 0124 4254     		strb	r2, [r0, r1]
 861              	.LVL128:
 300:Source\azure_iot_sdk\c-utility\src/base64_2.c ****             encoded[destinationPosition++] = '=';
 862              		.loc 1 300 0
 863 0126 C254     		strb	r2, [r0, r3]
 864 0128 0435     		adds	r5, r5, #4
 865              	.LVL129:
 866              	.L38:
 867              	.LBE9:
 301:Source\azure_iot_sdk\c-utility\src/base64_2.c ****         }
 302:Source\azure_iot_sdk\c-utility\src/base64_2.c **** 
 303:Source\azure_iot_sdk\c-utility\src/base64_2.c ****         /*null terminating the string*/
 304:Source\azure_iot_sdk\c-utility\src/base64_2.c ****         encoded[destinationPosition] = '\0';
 868              		.loc 1 304 0
 869 012a 4544     		add	r5, r5, r8
 870              	.LVL130:
ARM GAS  C:\Users\Phuong\AppData\Local\Temp\cc7FPrJa.s 			page 22


 871 012c 0023     		movs	r3, #0
 872 012e 2B70     		strb	r3, [r5]
 305:Source\azure_iot_sdk\c-utility\src/base64_2.c ****         /*Codes_SRS_BASE64_06_007: [Otherwise Base64_Encoder shall return a pointer to STRING, that
 306:Source\azure_iot_sdk\c-utility\src/base64_2.c ****         result = STRING_new_with_memory(encoded);
 873              		.loc 1 306 0
 874 0130 4046     		mov	r0, r8
 875 0132 FFF7FEFF 		bl	STRING_new_with_memory
 876              	.LVL131:
 877 0136 041E     		subs	r4, r0, #0
 878              	.LVL132:
 307:Source\azure_iot_sdk\c-utility\src/base64_2.c ****         if (result == NULL)
 879              		.loc 1 307 0
 880 0138 13D1     		bne	.L35
 308:Source\azure_iot_sdk\c-utility\src/base64_2.c ****         {
 309:Source\azure_iot_sdk\c-utility\src/base64_2.c ****             free(encoded);
 881              		.loc 1 309 0
 882 013a 4046     		mov	r0, r8
 883              	.LVL133:
 884 013c FFF7FEFF 		bl	free
 885              	.LVL134:
 886              	.LBB10:
 310:Source\azure_iot_sdk\c-utility\src/base64_2.c ****             LogError("Base64_Encoder:: Allocation failed for return value.");
 887              		.loc 1 310 0
 888 0140 FFF7FEFF 		bl	xlogging_get_log_function
 889              	.LVL135:
 890 0144 051E     		subs	r5, r0, #0
 891              	.LVL136:
 892 0146 0CD0     		beq	.L35
 893              		.loc 1 310 0 is_stmt 0 discriminator 4
 894 0148 0D4B     		ldr	r3, .L42+12
 895 014a 0193     		str	r3, [sp, #4]
 896 014c 0123     		movs	r3, #1
 897 014e 0093     		str	r3, [sp]
 898 0150 3633     		adds	r3, r3, #54
 899 0152 FF33     		adds	r3, r3, #255
 900 0154 084A     		ldr	r2, .L42+4
 901 0156 1032     		adds	r2, r2, #16
 902 0158 0849     		ldr	r1, .L42+8
 903 015a 0020     		movs	r0, #0
 904              	.LVL137:
 905 015c A847     		blx	r5
 906              	.LVL138:
 907 015e 00E0     		b	.L35
 908              	.LVL139:
 909              	.L41:
 910              	.LBE10:
 911              	.LBE11:
 248:Source\azure_iot_sdk\c-utility\src/base64_2.c ****         LogError("Base64_Encoder:: Allocation failed.");
 912              		.loc 1 248 0 is_stmt 1
 913 0160 0024     		movs	r4, #0
 914              	.LVL140:
 915              	.L35:
 311:Source\azure_iot_sdk\c-utility\src/base64_2.c ****         }
 312:Source\azure_iot_sdk\c-utility\src/base64_2.c ****     }
 313:Source\azure_iot_sdk\c-utility\src/base64_2.c ****     return result;
 314:Source\azure_iot_sdk\c-utility\src/base64_2.c **** }
 916              		.loc 1 314 0
ARM GAS  C:\Users\Phuong\AppData\Local\Temp\cc7FPrJa.s 			page 23


 917 0162 2000     		movs	r0, r4
 918 0164 05B0     		add	sp, sp, #20
 919              		@ sp needed
 920              	.LVL141:
 921              	.LVL142:
 922              	.LVL143:
 923              	.LVL144:
 924 0166 3CBC     		pop	{r2, r3, r4, r5}
 925 0168 9046     		mov	r8, r2
 926 016a 9946     		mov	r9, r3
 927 016c A246     		mov	r10, r4
 928 016e AB46     		mov	fp, r5
 929 0170 F0BD     		pop	{r4, r5, r6, r7, pc}
 930              	.L43:
 931 0172 C046     		.align	2
 932              	.L42:
 933 0174 30000000 		.word	.LC5
 934 0178 00000000 		.word	.LANCHOR0
 935 017c 00000000 		.word	.LC3
 936 0180 54000000 		.word	.LC7
 937              		.cfi_endproc
 938              	.LFE9:
 939              		.size	Base64_Encode_Internal, .-Base64_Encode_Internal
 940              		.section	.text.Base64_Decoder,"ax",%progbits
 941              		.align	2
 942              		.global	Base64_Decoder
 943              		.code	16
 944              		.thumb_func
 945              		.type	Base64_Decoder, %function
 946              	Base64_Decoder:
 947              	.LFB8:
 188:Source\azure_iot_sdk\c-utility\src/base64_2.c ****     BUFFER_HANDLE result;
 948              		.loc 1 188 0
 949              		.cfi_startproc
 950              		@ args = 0, pretend = 0, frame = 0
 951              		@ frame_needed = 0, uses_anonymous_args = 0
 952              	.LVL145:
 953 0000 30B5     		push	{r4, r5, lr}
 954              		.cfi_def_cfa_offset 12
 955              		.cfi_offset 4, -12
 956              		.cfi_offset 5, -8
 957              		.cfi_offset 14, -4
 958 0002 85B0     		sub	sp, sp, #20
 959              		.cfi_def_cfa_offset 32
 960 0004 041E     		subs	r4, r0, #0
 191:Source\azure_iot_sdk\c-utility\src/base64_2.c ****     {
 961              		.loc 1 191 0
 962 0006 10D1     		bne	.L45
 963              	.LBB12:
 193:Source\azure_iot_sdk\c-utility\src/base64_2.c ****         result = NULL;
 964              		.loc 1 193 0 discriminator 3
 965 0008 FFF7FEFF 		bl	xlogging_get_log_function
 966              	.LVL146:
 967 000c 051E     		subs	r5, r0, #0
 968              	.LVL147:
 969 000e 58D0     		beq	.L51
 193:Source\azure_iot_sdk\c-utility\src/base64_2.c ****         result = NULL;
ARM GAS  C:\Users\Phuong\AppData\Local\Temp\cc7FPrJa.s 			page 24


 970              		.loc 1 193 0 is_stmt 0 discriminator 4
 971 0010 0294     		str	r4, [sp, #8]
 972 0012 2F4B     		ldr	r3, .L53
 973 0014 0193     		str	r3, [sp, #4]
 974 0016 0123     		movs	r3, #1
 975 0018 0093     		str	r3, [sp]
 976 001a C033     		adds	r3, r3, #192
 977 001c 2D4A     		ldr	r2, .L53+4
 978 001e 2832     		adds	r2, r2, #40
 979 0020 2D49     		ldr	r1, .L53+8
 980 0022 0020     		movs	r0, #0
 981              	.LVL148:
 982 0024 A847     		blx	r5
 983              	.LVL149:
 984              	.LBE12:
 194:Source\azure_iot_sdk\c-utility\src/base64_2.c ****     }
 985              		.loc 1 194 0 is_stmt 1 discriminator 4
 986 0026 0025     		movs	r5, #0
 987              	.LVL150:
 988 0028 4EE0     		b	.L46
 989              	.LVL151:
 990              	.L45:
 198:Source\azure_iot_sdk\c-utility\src/base64_2.c ****         {
 991              		.loc 1 198 0
 992 002a FFF7FEFF 		bl	strlen
 993              	.LVL152:
 994 002e 8307     		lsls	r3, r0, #30
 995 0030 0FD0     		beq	.L47
 996              	.LBB13:
 201:Source\azure_iot_sdk\c-utility\src/base64_2.c ****             result = NULL;
 997              		.loc 1 201 0 discriminator 3
 998 0032 FFF7FEFF 		bl	xlogging_get_log_function
 999              	.LVL153:
 1000 0036 041E     		subs	r4, r0, #0
 1001              	.LVL154:
 1002 0038 45D0     		beq	.L52
 201:Source\azure_iot_sdk\c-utility\src/base64_2.c ****             result = NULL;
 1003              		.loc 1 201 0 is_stmt 0 discriminator 4
 1004 003a 284B     		ldr	r3, .L53+12
 1005 003c 0193     		str	r3, [sp, #4]
 1006 003e 0123     		movs	r3, #1
 1007 0040 0093     		str	r3, [sp]
 1008 0042 C833     		adds	r3, r3, #200
 1009 0044 234A     		ldr	r2, .L53+4
 1010 0046 2832     		adds	r2, r2, #40
 1011 0048 2349     		ldr	r1, .L53+8
 1012 004a 0020     		movs	r0, #0
 1013              	.LVL155:
 1014 004c A047     		blx	r4
 1015              	.LVL156:
 1016              	.LBE13:
 202:Source\azure_iot_sdk\c-utility\src/base64_2.c ****         }
 1017              		.loc 1 202 0 is_stmt 1 discriminator 4
 1018 004e 0025     		movs	r5, #0
 1019 0050 3AE0     		b	.L46
 1020              	.LVL157:
 1021              	.L47:
ARM GAS  C:\Users\Phuong\AppData\Local\Temp\cc7FPrJa.s 			page 25


 206:Source\azure_iot_sdk\c-utility\src/base64_2.c ****             {
 1022              		.loc 1 206 0
 1023 0052 FFF7FEFF 		bl	BUFFER_new
 1024              	.LVL158:
 1025 0056 051E     		subs	r5, r0, #0
 1026              	.LVL159:
 1027 0058 0ED1     		bne	.L48
 1028              	.LBB14:
 209:Source\azure_iot_sdk\c-utility\src/base64_2.c ****             }
 1029              		.loc 1 209 0 discriminator 3
 1030 005a FFF7FEFF 		bl	xlogging_get_log_function
 1031              	.LVL160:
 1032 005e 041E     		subs	r4, r0, #0
 1033              	.LVL161:
 1034 0060 32D0     		beq	.L46
 209:Source\azure_iot_sdk\c-utility\src/base64_2.c ****             }
 1035              		.loc 1 209 0 is_stmt 0 discriminator 4
 1036 0062 1F4B     		ldr	r3, .L53+16
 1037 0064 0193     		str	r3, [sp, #4]
 1038 0066 0123     		movs	r3, #1
 1039 0068 0093     		str	r3, [sp]
 1040 006a D033     		adds	r3, r3, #208
 1041 006c 194A     		ldr	r2, .L53+4
 1042 006e 2832     		adds	r2, r2, #40
 1043 0070 1949     		ldr	r1, .L53+8
 1044 0072 0020     		movs	r0, #0
 1045              	.LVL162:
 1046 0074 A047     		blx	r4
 1047              	.LVL163:
 1048 0076 27E0     		b	.L46
 1049              	.LVL164:
 1050              	.L48:
 1051              	.LBE14:
 1052              	.LBB15:
 213:Source\azure_iot_sdk\c-utility\src/base64_2.c ****                 /*Codes_SRS_BASE64_06_009: [If the string pointed to by source is zero length then 
 1053              		.loc 1 213 0 is_stmt 1
 1054 0078 2000     		movs	r0, r4
 1055              	.LVL165:
 1056 007a FFF7FEFF 		bl	Base64decode_len
 1057              	.LVL166:
 215:Source\azure_iot_sdk\c-utility\src/base64_2.c ****                 {
 1058              		.loc 1 215 0
 1059 007e 0028     		cmp	r0, #0
 1060 0080 22D0     		beq	.L46
 217:Source\azure_iot_sdk\c-utility\src/base64_2.c ****                     {
 1061              		.loc 1 217 0
 1062 0082 0100     		movs	r1, r0
 1063 0084 2800     		movs	r0, r5
 1064              	.LVL167:
 1065 0086 FFF7FEFF 		bl	BUFFER_pre_build
 1066              	.LVL168:
 1067 008a 0028     		cmp	r0, #0
 1068 008c 12D0     		beq	.L49
 1069              	.LBB16:
 220:Source\azure_iot_sdk\c-utility\src/base64_2.c ****                         BUFFER_delete(result);
 1070              		.loc 1 220 0 discriminator 3
 1071 008e FFF7FEFF 		bl	xlogging_get_log_function
ARM GAS  C:\Users\Phuong\AppData\Local\Temp\cc7FPrJa.s 			page 26


 1072              	.LVL169:
 1073 0092 041E     		subs	r4, r0, #0
 1074              	.LVL170:
 1075 0094 09D0     		beq	.L50
 220:Source\azure_iot_sdk\c-utility\src/base64_2.c ****                         BUFFER_delete(result);
 1076              		.loc 1 220 0 is_stmt 0 discriminator 4
 1077 0096 134B     		ldr	r3, .L53+20
 1078 0098 0193     		str	r3, [sp, #4]
 1079 009a 0123     		movs	r3, #1
 1080 009c 0093     		str	r3, [sp]
 1081 009e DB33     		adds	r3, r3, #219
 1082 00a0 0C4A     		ldr	r2, .L53+4
 1083 00a2 2832     		adds	r2, r2, #40
 1084 00a4 0C49     		ldr	r1, .L53+8
 1085 00a6 0020     		movs	r0, #0
 1086              	.LVL171:
 1087 00a8 A047     		blx	r4
 1088              	.LVL172:
 1089              	.L50:
 1090              	.LBE16:
 221:Source\azure_iot_sdk\c-utility\src/base64_2.c ****                         result = NULL;
 1091              		.loc 1 221 0 is_stmt 1
 1092 00aa 2800     		movs	r0, r5
 1093 00ac FFF7FEFF 		bl	BUFFER_delete
 1094              	.LVL173:
 222:Source\azure_iot_sdk\c-utility\src/base64_2.c ****                     }
 1095              		.loc 1 222 0
 1096 00b0 0025     		movs	r5, #0
 1097 00b2 09E0     		b	.L46
 1098              	.LVL174:
 1099              	.L49:
 226:Source\azure_iot_sdk\c-utility\src/base64_2.c ****                     }
 1100              		.loc 1 226 0
 1101 00b4 2800     		movs	r0, r5
 1102 00b6 FFF7FEFF 		bl	BUFFER_u_char
 1103              	.LVL175:
 1104 00ba 2100     		movs	r1, r4
 1105 00bc FFF7FEFF 		bl	Base64decode
 1106              	.LVL176:
 1107 00c0 02E0     		b	.L46
 1108              	.LVL177:
 1109              	.L51:
 1110              	.LBE15:
 194:Source\azure_iot_sdk\c-utility\src/base64_2.c ****     }
 1111              		.loc 1 194 0
 1112 00c2 0025     		movs	r5, #0
 1113 00c4 00E0     		b	.L46
 1114              	.LVL178:
 1115              	.L52:
 202:Source\azure_iot_sdk\c-utility\src/base64_2.c ****         }
 1116              		.loc 1 202 0
 1117 00c6 0025     		movs	r5, #0
 1118              	.LVL179:
 1119              	.L46:
 233:Source\azure_iot_sdk\c-utility\src/base64_2.c **** 
 1120              		.loc 1 233 0
 1121 00c8 2800     		movs	r0, r5
ARM GAS  C:\Users\Phuong\AppData\Local\Temp\cc7FPrJa.s 			page 27


 1122 00ca 05B0     		add	sp, sp, #20
 1123              		@ sp needed
 1124              	.LVL180:
 1125 00cc 30BD     		pop	{r4, r5, pc}
 1126              	.L54:
 1127 00ce C046     		.align	2
 1128              	.L53:
 1129 00d0 8C000000 		.word	.LC11
 1130 00d4 00000000 		.word	.LANCHOR0
 1131 00d8 00000000 		.word	.LC3
 1132 00dc B4000000 		.word	.LC13
 1133 00e0 D4000000 		.word	.LC15
 1134 00e4 FC000000 		.word	.LC17
 1135              		.cfi_endproc
 1136              	.LFE8:
 1137              		.size	Base64_Decoder, .-Base64_Decoder
 1138              		.section	.text.Base64_Encode_Bytes,"ax",%progbits
 1139              		.align	2
 1140              		.global	Base64_Encode_Bytes
 1141              		.code	16
 1142              		.thumb_func
 1143              		.type	Base64_Encode_Bytes, %function
 1144              	Base64_Encode_Bytes:
 1145              	.LFB10:
 315:Source\azure_iot_sdk\c-utility\src/base64_2.c **** 
 316:Source\azure_iot_sdk\c-utility\src/base64_2.c **** STRING_HANDLE Base64_Encode_Bytes(const unsigned char* source, size_t size)
 317:Source\azure_iot_sdk\c-utility\src/base64_2.c **** {
 1146              		.loc 1 317 0
 1147              		.cfi_startproc
 1148              		@ args = 0, pretend = 0, frame = 0
 1149              		@ frame_needed = 0, uses_anonymous_args = 0
 1150              	.LVL181:
 1151 0000 10B5     		push	{r4, lr}
 1152              		.cfi_def_cfa_offset 8
 1153              		.cfi_offset 4, -8
 1154              		.cfi_offset 14, -4
 318:Source\azure_iot_sdk\c-utility\src/base64_2.c ****     STRING_HANDLE result;
 319:Source\azure_iot_sdk\c-utility\src/base64_2.c ****     /*Codes_SRS_BASE64_02_001: [If source is NULL then Base64_Encode_Bytes shall return NULL.] */
 320:Source\azure_iot_sdk\c-utility\src/base64_2.c ****     if (source == NULL)
 1155              		.loc 1 320 0
 1156 0002 0028     		cmp	r0, #0
 1157 0004 07D0     		beq	.L58
 321:Source\azure_iot_sdk\c-utility\src/base64_2.c ****     {
 322:Source\azure_iot_sdk\c-utility\src/base64_2.c ****         result = NULL;
 323:Source\azure_iot_sdk\c-utility\src/base64_2.c ****     }
 324:Source\azure_iot_sdk\c-utility\src/base64_2.c ****     /*Codes_SRS_BASE64_02_002: [If source is not NULL and size is zero, then Base64_Encode_Bytes sh
 325:Source\azure_iot_sdk\c-utility\src/base64_2.c ****     else if (size == 0)
 1158              		.loc 1 325 0
 1159 0006 0029     		cmp	r1, #0
 1160 0008 02D1     		bne	.L57
 326:Source\azure_iot_sdk\c-utility\src/base64_2.c ****     {
 327:Source\azure_iot_sdk\c-utility\src/base64_2.c ****         result = STRING_new(); /*empty string*/
 1161              		.loc 1 327 0
 1162 000a FFF7FEFF 		bl	STRING_new
 1163              	.LVL182:
 1164 000e 03E0     		b	.L56
 1165              	.LVL183:
ARM GAS  C:\Users\Phuong\AppData\Local\Temp\cc7FPrJa.s 			page 28


 1166              	.L57:
 328:Source\azure_iot_sdk\c-utility\src/base64_2.c ****     }
 329:Source\azure_iot_sdk\c-utility\src/base64_2.c ****     else
 330:Source\azure_iot_sdk\c-utility\src/base64_2.c ****     {
 331:Source\azure_iot_sdk\c-utility\src/base64_2.c ****         result = Base64_Encode_Internal(source, size);
 1167              		.loc 1 331 0
 1168 0010 FFF7FEFF 		bl	Base64_Encode_Internal
 1169              	.LVL184:
 1170 0014 00E0     		b	.L56
 1171              	.LVL185:
 1172              	.L58:
 322:Source\azure_iot_sdk\c-utility\src/base64_2.c ****     }
 1173              		.loc 1 322 0
 1174 0016 0020     		movs	r0, #0
 1175              	.LVL186:
 1176              	.L56:
 332:Source\azure_iot_sdk\c-utility\src/base64_2.c ****     }
 333:Source\azure_iot_sdk\c-utility\src/base64_2.c ****     return result;
 334:Source\azure_iot_sdk\c-utility\src/base64_2.c **** }
 1177              		.loc 1 334 0
 1178              		@ sp needed
 1179 0018 10BD     		pop	{r4, pc}
 1180              		.cfi_endproc
 1181              	.LFE10:
 1182              		.size	Base64_Encode_Bytes, .-Base64_Encode_Bytes
 1183 001a C046     		.section	.text.Base64_Encoder,"ax",%progbits
 1184              		.align	2
 1185              		.global	Base64_Encoder
 1186              		.code	16
 1187              		.thumb_func
 1188              		.type	Base64_Encoder, %function
 1189              	Base64_Encoder:
 1190              	.LFB11:
 335:Source\azure_iot_sdk\c-utility\src/base64_2.c **** 
 336:Source\azure_iot_sdk\c-utility\src/base64_2.c **** STRING_HANDLE Base64_Encoder(BUFFER_HANDLE input)
 337:Source\azure_iot_sdk\c-utility\src/base64_2.c **** {
 1191              		.loc 1 337 0
 1192              		.cfi_startproc
 1193              		@ args = 0, pretend = 0, frame = 8
 1194              		@ frame_needed = 0, uses_anonymous_args = 0
 1195              	.LVL187:
 1196 0000 10B5     		push	{r4, lr}
 1197              		.cfi_def_cfa_offset 8
 1198              		.cfi_offset 4, -8
 1199              		.cfi_offset 14, -4
 1200 0002 84B0     		sub	sp, sp, #16
 1201              		.cfi_def_cfa_offset 24
 1202 0004 041E     		subs	r4, r0, #0
 338:Source\azure_iot_sdk\c-utility\src/base64_2.c ****     STRING_HANDLE result;
 339:Source\azure_iot_sdk\c-utility\src/base64_2.c ****     /*the following will happen*/
 340:Source\azure_iot_sdk\c-utility\src/base64_2.c ****     /*1. the "data" of the binary shall be "eaten" 3 characters at a time and produce 4 base64 enco
 341:Source\azure_iot_sdk\c-utility\src/base64_2.c ****     /*2. the remaining characters (1 or 2) shall be encoded.*/
 342:Source\azure_iot_sdk\c-utility\src/base64_2.c ****     /*there's a level of assumption that 'a' corresponds to 0b000000 and that '_' corresponds to 0b
 343:Source\azure_iot_sdk\c-utility\src/base64_2.c ****     /*the encoding will use the optional [=] or [==] at the end of the encoded string, so that othe
 344:Source\azure_iot_sdk\c-utility\src/base64_2.c ****     /*these are the bits of the 3 normal bytes to be encoded*/
 345:Source\azure_iot_sdk\c-utility\src/base64_2.c **** 
 346:Source\azure_iot_sdk\c-utility\src/base64_2.c ****     /*Codes_SRS_BASE64_06_001: [If input is NULL then Base64_Encoder shall return NULL.]*/
ARM GAS  C:\Users\Phuong\AppData\Local\Temp\cc7FPrJa.s 			page 29


 347:Source\azure_iot_sdk\c-utility\src/base64_2.c ****     if (input == NULL)
 1203              		.loc 1 347 0
 1204 0006 10D1     		bne	.L60
 1205              	.LVL188:
 1206              	.LBB17:
 348:Source\azure_iot_sdk\c-utility\src/base64_2.c ****     {
 349:Source\azure_iot_sdk\c-utility\src/base64_2.c ****         result = NULL;
 350:Source\azure_iot_sdk\c-utility\src/base64_2.c ****         LogError("Base64_Encoder:: NULL input");
 1207              		.loc 1 350 0
 1208 0008 FFF7FEFF 		bl	xlogging_get_log_function
 1209              	.LVL189:
 1210 000c 041E     		subs	r4, r0, #0
 1211              	.LVL190:
 1212 000e 2FD0     		beq	.L65
 1213              		.loc 1 350 0 is_stmt 0 discriminator 4
 1214 0010 194B     		ldr	r3, .L67
 1215 0012 0193     		str	r3, [sp, #4]
 1216 0014 0123     		movs	r3, #1
 1217 0016 0093     		str	r3, [sp]
 1218 0018 5E33     		adds	r3, r3, #94
 1219 001a FF33     		adds	r3, r3, #255
 1220 001c 174A     		ldr	r2, .L67+4
 1221 001e 3832     		adds	r2, r2, #56
 1222 0020 1749     		ldr	r1, .L67+8
 1223 0022 0020     		movs	r0, #0
 1224              	.LVL191:
 1225 0024 A047     		blx	r4
 1226              	.LVL192:
 1227              	.LBE17:
 349:Source\azure_iot_sdk\c-utility\src/base64_2.c ****         LogError("Base64_Encoder:: NULL input");
 1228              		.loc 1 349 0 is_stmt 1 discriminator 4
 1229 0026 0020     		movs	r0, #0
 1230 0028 23E0     		b	.L61
 1231              	.LVL193:
 1232              	.L60:
 1233              	.LBB18:
 351:Source\azure_iot_sdk\c-utility\src/base64_2.c ****     }
 352:Source\azure_iot_sdk\c-utility\src/base64_2.c ****     else
 353:Source\azure_iot_sdk\c-utility\src/base64_2.c ****     {
 354:Source\azure_iot_sdk\c-utility\src/base64_2.c ****         size_t inputSize;
 355:Source\azure_iot_sdk\c-utility\src/base64_2.c ****         const unsigned char* inputBinary;
 356:Source\azure_iot_sdk\c-utility\src/base64_2.c ****         if ((BUFFER_content(input, &inputBinary) != 0) ||
 1234              		.loc 1 356 0
 1235 002a 03A9     		add	r1, sp, #12
 1236 002c FFF7FEFF 		bl	BUFFER_content
 1237              	.LVL194:
 1238 0030 0028     		cmp	r0, #0
 1239 0032 05D1     		bne	.L62
 357:Source\azure_iot_sdk\c-utility\src/base64_2.c ****             (BUFFER_size(input, &inputSize) != 0))
 1240              		.loc 1 357 0 discriminator 1
 1241 0034 02A9     		add	r1, sp, #8
 1242 0036 2000     		movs	r0, r4
 1243 0038 FFF7FEFF 		bl	BUFFER_size
 1244              	.LVL195:
 356:Source\azure_iot_sdk\c-utility\src/base64_2.c ****             (BUFFER_size(input, &inputSize) != 0))
 1245              		.loc 1 356 0 discriminator 1
 1246 003c 0028     		cmp	r0, #0
ARM GAS  C:\Users\Phuong\AppData\Local\Temp\cc7FPrJa.s 			page 30


 1247 003e 10D0     		beq	.L63
 1248              	.L62:
 1249              	.LVL196:
 1250              	.LBB19:
 358:Source\azure_iot_sdk\c-utility\src/base64_2.c ****         {
 359:Source\azure_iot_sdk\c-utility\src/base64_2.c ****             result = NULL;
 360:Source\azure_iot_sdk\c-utility\src/base64_2.c ****             LogError("Base64_Encoder:: BUFFER_routines failure.");
 1251              		.loc 1 360 0
 1252 0040 FFF7FEFF 		bl	xlogging_get_log_function
 1253              	.LVL197:
 1254 0044 041E     		subs	r4, r0, #0
 1255              	.LVL198:
 1256 0046 11D0     		beq	.L66
 1257              		.loc 1 360 0 is_stmt 0 discriminator 4
 1258 0048 0E4B     		ldr	r3, .L67+12
 1259 004a 0193     		str	r3, [sp, #4]
 1260 004c 0123     		movs	r3, #1
 1261 004e 0093     		str	r3, [sp]
 1262 0050 6833     		adds	r3, r3, #104
 1263 0052 FF33     		adds	r3, r3, #255
 1264 0054 094A     		ldr	r2, .L67+4
 1265 0056 3832     		adds	r2, r2, #56
 1266 0058 0949     		ldr	r1, .L67+8
 1267 005a 0020     		movs	r0, #0
 1268              	.LVL199:
 1269 005c A047     		blx	r4
 1270              	.LVL200:
 1271              	.LBE19:
 359:Source\azure_iot_sdk\c-utility\src/base64_2.c ****             LogError("Base64_Encoder:: BUFFER_routines failure.");
 1272              		.loc 1 359 0 is_stmt 1 discriminator 4
 1273 005e 0020     		movs	r0, #0
 1274 0060 07E0     		b	.L61
 1275              	.LVL201:
 1276              	.L63:
 361:Source\azure_iot_sdk\c-utility\src/base64_2.c ****         }
 362:Source\azure_iot_sdk\c-utility\src/base64_2.c ****         else
 363:Source\azure_iot_sdk\c-utility\src/base64_2.c ****         {
 364:Source\azure_iot_sdk\c-utility\src/base64_2.c ****             result = Base64_Encode_Internal(inputBinary, inputSize);
 1277              		.loc 1 364 0
 1278 0062 0299     		ldr	r1, [sp, #8]
 1279 0064 0398     		ldr	r0, [sp, #12]
 1280 0066 FFF7FEFF 		bl	Base64_Encode_Internal
 1281              	.LVL202:
 1282 006a 02E0     		b	.L61
 1283              	.LVL203:
 1284              	.L66:
 359:Source\azure_iot_sdk\c-utility\src/base64_2.c ****             LogError("Base64_Encoder:: BUFFER_routines failure.");
 1285              		.loc 1 359 0
 1286 006c 0020     		movs	r0, #0
 1287              	.LVL204:
 1288 006e 00E0     		b	.L61
 1289              	.LVL205:
 1290              	.L65:
 1291              	.LBE18:
 349:Source\azure_iot_sdk\c-utility\src/base64_2.c ****         LogError("Base64_Encoder:: NULL input");
 1292              		.loc 1 349 0
 1293 0070 0020     		movs	r0, #0
ARM GAS  C:\Users\Phuong\AppData\Local\Temp\cc7FPrJa.s 			page 31


 1294              	.LVL206:
 1295              	.L61:
 365:Source\azure_iot_sdk\c-utility\src/base64_2.c ****         }
 366:Source\azure_iot_sdk\c-utility\src/base64_2.c ****     }
 367:Source\azure_iot_sdk\c-utility\src/base64_2.c ****     return result;
 368:Source\azure_iot_sdk\c-utility\src/base64_2.c **** }
 1296              		.loc 1 368 0
 1297 0072 04B0     		add	sp, sp, #16
 1298              		@ sp needed
 1299 0074 10BD     		pop	{r4, pc}
 1300              	.L68:
 1301 0076 C046     		.align	2
 1302              	.L67:
 1303 0078 30010000 		.word	.LC21
 1304 007c 00000000 		.word	.LANCHOR0
 1305 0080 00000000 		.word	.LC3
 1306 0084 4C010000 		.word	.LC23
 1307              		.cfi_endproc
 1308              	.LFE11:
 1309              		.size	Base64_Encoder, .-Base64_Encoder
 1310              		.section	.rodata
 1311              		.align	2
 1312              		.set	.LANCHOR0,. + 0
 1313              	.LC0:
 1314 0000 4145494D 		.word	1296647489
 1315 0004 51555963 		.word	1666798929
 1316 0008 676B6F73 		.word	1936681831
 1317 000c 77303438 		.word	942944375
 1318              		.type	__func__.6040, %object
 1319              		.size	__func__.6040, 23
 1320              	__func__.6040:
 1321 0010 42617365 		.ascii	"Base64_Encode_Internal\000"
 1321      36345F45 
 1321      6E636F64 
 1321      655F496E 
 1321      7465726E 
 1322 0027 00       		.space	1
 1323              		.type	__func__.6018, %object
 1324              		.size	__func__.6018, 15
 1325              	__func__.6018:
 1326 0028 42617365 		.ascii	"Base64_Decoder\000"
 1326      36345F44 
 1326      65636F64 
 1326      657200
 1327 0037 00       		.space	1
 1328              		.type	__func__.6069, %object
 1329              		.size	__func__.6069, 15
 1330              	__func__.6069:
 1331 0038 42617365 		.ascii	"Base64_Encoder\000"
 1331      36345F45 
 1331      6E636F64 
 1331      657200
 1332              		.section	.rodata.str1.4,"aMS",%progbits,1
 1333              		.align	2
 1334              	.LC3:
 1335 0000 536F7572 		.ascii	"Source\\azure_iot_sdk\\c-utility\\src\\base64_2.c\000"
 1335      63655C61 
ARM GAS  C:\Users\Phuong\AppData\Local\Temp\cc7FPrJa.s 			page 32


 1335      7A757265 
 1335      5F696F74 
 1335      5F73646B 
 1336 002e 0000     		.space	2
 1337              	.LC5:
 1338 0030 42617365 		.ascii	"Base64_Encoder:: Allocation failed.\000"
 1338      36345F45 
 1338      6E636F64 
 1338      65723A3A 
 1338      20416C6C 
 1339              	.LC7:
 1340 0054 42617365 		.ascii	"Base64_Encoder:: Allocation failed for return value"
 1340      36345F45 
 1340      6E636F64 
 1340      65723A3A 
 1340      20416C6C 
 1341 0087 2E00     		.ascii	".\000"
 1342 0089 000000   		.space	3
 1343              	.LC11:
 1344 008c 696E7661 		.ascii	"invalid parameter const char* source=%p\000"
 1344      6C696420 
 1344      70617261 
 1344      6D657465 
 1344      7220636F 
 1345              	.LC13:
 1346 00b4 496E7661 		.ascii	"Invalid length Base64 string!\000"
 1346      6C696420 
 1346      6C656E67 
 1346      74682042 
 1346      61736536 
 1347 00d2 0000     		.space	2
 1348              	.LC15:
 1349 00d4 436F756C 		.ascii	"Could not create a buffer to decoding.\000"
 1349      64206E6F 
 1349      74206372 
 1349      65617465 
 1349      20612062 
 1350 00fb 00       		.space	1
 1351              	.LC17:
 1352 00fc 436F756C 		.ascii	"Could not prebuild a buffer for base 64 decoding.\000"
 1352      64206E6F 
 1352      74207072 
 1352      65627569 
 1352      6C642061 
 1353 012e 0000     		.space	2
 1354              	.LC21:
 1355 0130 42617365 		.ascii	"Base64_Encoder:: NULL input\000"
 1355      36345F45 
 1355      6E636F64 
 1355      65723A3A 
 1355      204E554C 
 1356              	.LC23:
 1357 014c 42617365 		.ascii	"Base64_Encoder:: BUFFER_routines failure.\000"
 1357      36345F45 
 1357      6E636F64 
 1357      65723A3A 
 1357      20425546 
ARM GAS  C:\Users\Phuong\AppData\Local\Temp\cc7FPrJa.s 			page 33


 1358              		.text
 1359              	.Letext0:
 1360              		.file 2 "c:\\program files (x86)\\cypress\\psoc creator\\4.2\\psoc creator\\import\\gnu\\arm\\5.4.
 1361              		.file 3 "c:\\program files (x86)\\cypress\\psoc creator\\4.2\\psoc creator\\import\\gnu\\arm\\5.4.
 1362              		.file 4 "c:\\program files (x86)\\cypress\\psoc creator\\4.2\\psoc creator\\import\\gnu\\arm\\5.4.
 1363              		.file 5 ".\\Source\\azure_iot_sdk\\c-utility\\inc/azure_c_shared_utility/strings_types.h"
 1364              		.file 6 ".\\Source\\azure_iot_sdk\\c-utility\\inc/azure_c_shared_utility/buffer_.h"
 1365              		.file 7 ".\\Source\\azure_iot_sdk\\c-utility\\inc/azure_c_shared_utility/xlogging.h"
 1366              		.file 8 "c:\\program files (x86)\\cypress\\psoc creator\\4.2\\psoc creator\\import\\gnu\\arm\\5.4.
 1367              		.file 9 ".\\Source\\azure_iot_sdk\\c-utility\\inc/azure_c_shared_utility/strings.h"
 1368              		.file 10 "c:\\program files (x86)\\cypress\\psoc creator\\4.2\\psoc creator\\import\\gnu\\arm\\5.4