ARM GAS  C:\Users\Phuong\AppData\Local\Temp\cciUg6zJ.s 			page 1


   1              		.syntax unified
   2              		.cpu cortex-m0plus
   3              		.fpu softvfp
   4              		.eabi_attribute 20, 1
   5              		.eabi_attribute 21, 1
   6              		.eabi_attribute 23, 3
   7              		.eabi_attribute 24, 1
   8              		.eabi_attribute 25, 1
   9              		.eabi_attribute 26, 1
  10              		.eabi_attribute 30, 1
  11              		.eabi_attribute 34, 0
  12              		.eabi_attribute 18, 4
  13              		.thumb
  14              		.syntax unified
  15              		.file	"bignum.c"
  16              		.text
  17              	.Ltext0:
  18              		.cfi_sections	.debug_frame
  19              		.section	.text.mbedtls_clz,"ax",%progbits
  20              		.align	2
  21              		.code	16
  22              		.thumb_func
  23              		.type	mbedtls_clz, %function
  24              	mbedtls_clz:
  25              	.LFB14:
  26              		.file 1 "Source\\mbedtls_open\\library\\bignum.c"
   1:Source\mbedtls_open\library/bignum.c **** /*
   2:Source\mbedtls_open\library/bignum.c ****  *  Multi-precision integer library
   3:Source\mbedtls_open\library/bignum.c ****  *
   4:Source\mbedtls_open\library/bignum.c ****  *  Copyright (C) 2006-2015, ARM Limited, All Rights Reserved
   5:Source\mbedtls_open\library/bignum.c ****  *  SPDX-License-Identifier: Apache-2.0
   6:Source\mbedtls_open\library/bignum.c ****  *
   7:Source\mbedtls_open\library/bignum.c ****  *  Licensed under the Apache License, Version 2.0 (the "License"); you may
   8:Source\mbedtls_open\library/bignum.c ****  *  not use this file except in compliance with the License.
   9:Source\mbedtls_open\library/bignum.c ****  *  You may obtain a copy of the License at
  10:Source\mbedtls_open\library/bignum.c ****  *
  11:Source\mbedtls_open\library/bignum.c ****  *  http://www.apache.org/licenses/LICENSE-2.0
  12:Source\mbedtls_open\library/bignum.c ****  *
  13:Source\mbedtls_open\library/bignum.c ****  *  Unless required by applicable law or agreed to in writing, software
  14:Source\mbedtls_open\library/bignum.c ****  *  distributed under the License is distributed on an "AS IS" BASIS, WITHOUT
  15:Source\mbedtls_open\library/bignum.c ****  *  WARRANTIES OR CONDITIONS OF ANY KIND, either express or implied.
  16:Source\mbedtls_open\library/bignum.c ****  *  See the License for the specific language governing permissions and
  17:Source\mbedtls_open\library/bignum.c ****  *  limitations under the License.
  18:Source\mbedtls_open\library/bignum.c ****  *
  19:Source\mbedtls_open\library/bignum.c ****  *  This file is part of mbed TLS (https://tls.mbed.org)
  20:Source\mbedtls_open\library/bignum.c ****  */
  21:Source\mbedtls_open\library/bignum.c **** 
  22:Source\mbedtls_open\library/bignum.c **** /*
  23:Source\mbedtls_open\library/bignum.c ****  *  The following sources were referenced in the design of this Multi-precision
  24:Source\mbedtls_open\library/bignum.c ****  *  Integer library:
  25:Source\mbedtls_open\library/bignum.c ****  *
  26:Source\mbedtls_open\library/bignum.c ****  *  [1] Handbook of Applied Cryptography - 1997
  27:Source\mbedtls_open\library/bignum.c ****  *      Menezes, van Oorschot and Vanstone
  28:Source\mbedtls_open\library/bignum.c ****  *
  29:Source\mbedtls_open\library/bignum.c ****  *  [2] Multi-Precision Math
  30:Source\mbedtls_open\library/bignum.c ****  *      Tom St Denis
  31:Source\mbedtls_open\library/bignum.c ****  *      https://github.com/libtom/libtommath/blob/develop/tommath.pdf
ARM GAS  C:\Users\Phuong\AppData\Local\Temp\cciUg6zJ.s 			page 2


  32:Source\mbedtls_open\library/bignum.c ****  *
  33:Source\mbedtls_open\library/bignum.c ****  *  [3] GNU Multi-Precision Arithmetic Library
  34:Source\mbedtls_open\library/bignum.c ****  *      https://gmplib.org/manual/index.html
  35:Source\mbedtls_open\library/bignum.c ****  *
  36:Source\mbedtls_open\library/bignum.c ****  */
  37:Source\mbedtls_open\library/bignum.c **** 
  38:Source\mbedtls_open\library/bignum.c **** #if !defined(MBEDTLS_CONFIG_FILE)
  39:Source\mbedtls_open\library/bignum.c **** #include "mbedtls/config.h"
  40:Source\mbedtls_open\library/bignum.c **** #else
  41:Source\mbedtls_open\library/bignum.c **** #include MBEDTLS_CONFIG_FILE
  42:Source\mbedtls_open\library/bignum.c **** #endif
  43:Source\mbedtls_open\library/bignum.c **** 
  44:Source\mbedtls_open\library/bignum.c **** #if defined(MBEDTLS_BIGNUM_C)
  45:Source\mbedtls_open\library/bignum.c **** 
  46:Source\mbedtls_open\library/bignum.c **** #include "mbedtls/bignum.h"
  47:Source\mbedtls_open\library/bignum.c **** #include "mbedtls/bn_mul.h"
  48:Source\mbedtls_open\library/bignum.c **** #include "mbedtls/platform_util.h"
  49:Source\mbedtls_open\library/bignum.c **** 
  50:Source\mbedtls_open\library/bignum.c **** #include <string.h>
  51:Source\mbedtls_open\library/bignum.c **** 
  52:Source\mbedtls_open\library/bignum.c **** #if defined(MBEDTLS_PLATFORM_C)
  53:Source\mbedtls_open\library/bignum.c **** #include "mbedtls/platform.h"
  54:Source\mbedtls_open\library/bignum.c **** #else
  55:Source\mbedtls_open\library/bignum.c **** #include <stdio.h>
  56:Source\mbedtls_open\library/bignum.c **** #include <stdlib.h>
  57:Source\mbedtls_open\library/bignum.c **** #define mbedtls_printf     printf
  58:Source\mbedtls_open\library/bignum.c **** #define mbedtls_calloc    calloc
  59:Source\mbedtls_open\library/bignum.c **** #define mbedtls_free       free
  60:Source\mbedtls_open\library/bignum.c **** #endif
  61:Source\mbedtls_open\library/bignum.c **** 
  62:Source\mbedtls_open\library/bignum.c **** #define ciL    (sizeof(mbedtls_mpi_uint))         /* chars in limb  */
  63:Source\mbedtls_open\library/bignum.c **** #define biL    (ciL << 3)               /* bits  in limb  */
  64:Source\mbedtls_open\library/bignum.c **** #define biH    (ciL << 2)               /* half limb size */
  65:Source\mbedtls_open\library/bignum.c **** 
  66:Source\mbedtls_open\library/bignum.c **** #define MPI_SIZE_T_MAX  ( (size_t) -1 ) /* SIZE_T_MAX is not standard */
  67:Source\mbedtls_open\library/bignum.c **** 
  68:Source\mbedtls_open\library/bignum.c **** /*
  69:Source\mbedtls_open\library/bignum.c ****  * Convert between bits/chars and number of limbs
  70:Source\mbedtls_open\library/bignum.c ****  * Divide first in order to avoid potential overflows
  71:Source\mbedtls_open\library/bignum.c ****  */
  72:Source\mbedtls_open\library/bignum.c **** #define BITS_TO_LIMBS(i)  ( (i) / biL + ( (i) % biL != 0 ) )
  73:Source\mbedtls_open\library/bignum.c **** #define CHARS_TO_LIMBS(i) ( (i) / ciL + ( (i) % ciL != 0 ) )
  74:Source\mbedtls_open\library/bignum.c **** 
  75:Source\mbedtls_open\library/bignum.c **** /* Implementation that should never be optimized out by the compiler */
  76:Source\mbedtls_open\library/bignum.c **** static void mbedtls_mpi_zeroize( mbedtls_mpi_uint *v, size_t n )
  77:Source\mbedtls_open\library/bignum.c **** {
  78:Source\mbedtls_open\library/bignum.c ****     mbedtls_platform_zeroize( v, ciL * n );
  79:Source\mbedtls_open\library/bignum.c **** }
  80:Source\mbedtls_open\library/bignum.c **** 
  81:Source\mbedtls_open\library/bignum.c **** /*
  82:Source\mbedtls_open\library/bignum.c ****  * Initialize one MPI
  83:Source\mbedtls_open\library/bignum.c ****  */
  84:Source\mbedtls_open\library/bignum.c **** void mbedtls_mpi_init( mbedtls_mpi *X )
  85:Source\mbedtls_open\library/bignum.c **** {
  86:Source\mbedtls_open\library/bignum.c ****     if( X == NULL )
  87:Source\mbedtls_open\library/bignum.c ****         return;
  88:Source\mbedtls_open\library/bignum.c **** 
ARM GAS  C:\Users\Phuong\AppData\Local\Temp\cciUg6zJ.s 			page 3


  89:Source\mbedtls_open\library/bignum.c ****     X->s = 1;
  90:Source\mbedtls_open\library/bignum.c ****     X->n = 0;
  91:Source\mbedtls_open\library/bignum.c ****     X->p = NULL;
  92:Source\mbedtls_open\library/bignum.c **** }
  93:Source\mbedtls_open\library/bignum.c **** 
  94:Source\mbedtls_open\library/bignum.c **** /*
  95:Source\mbedtls_open\library/bignum.c ****  * Unallocate one MPI
  96:Source\mbedtls_open\library/bignum.c ****  */
  97:Source\mbedtls_open\library/bignum.c **** void mbedtls_mpi_free( mbedtls_mpi *X )
  98:Source\mbedtls_open\library/bignum.c **** {
  99:Source\mbedtls_open\library/bignum.c ****     if( X == NULL )
 100:Source\mbedtls_open\library/bignum.c ****         return;
 101:Source\mbedtls_open\library/bignum.c **** 
 102:Source\mbedtls_open\library/bignum.c ****     if( X->p != NULL )
 103:Source\mbedtls_open\library/bignum.c ****     {
 104:Source\mbedtls_open\library/bignum.c ****         mbedtls_mpi_zeroize( X->p, X->n );
 105:Source\mbedtls_open\library/bignum.c ****         mbedtls_free( X->p );
 106:Source\mbedtls_open\library/bignum.c ****     }
 107:Source\mbedtls_open\library/bignum.c **** 
 108:Source\mbedtls_open\library/bignum.c ****     X->s = 1;
 109:Source\mbedtls_open\library/bignum.c ****     X->n = 0;
 110:Source\mbedtls_open\library/bignum.c ****     X->p = NULL;
 111:Source\mbedtls_open\library/bignum.c **** }
 112:Source\mbedtls_open\library/bignum.c **** 
 113:Source\mbedtls_open\library/bignum.c **** /*
 114:Source\mbedtls_open\library/bignum.c ****  * Enlarge to the specified number of limbs
 115:Source\mbedtls_open\library/bignum.c ****  */
 116:Source\mbedtls_open\library/bignum.c **** int mbedtls_mpi_grow( mbedtls_mpi *X, size_t nblimbs )
 117:Source\mbedtls_open\library/bignum.c **** {
 118:Source\mbedtls_open\library/bignum.c ****     mbedtls_mpi_uint *p;
 119:Source\mbedtls_open\library/bignum.c **** 
 120:Source\mbedtls_open\library/bignum.c ****     if( nblimbs > MBEDTLS_MPI_MAX_LIMBS )
 121:Source\mbedtls_open\library/bignum.c ****         return( MBEDTLS_ERR_MPI_ALLOC_FAILED );
 122:Source\mbedtls_open\library/bignum.c **** 
 123:Source\mbedtls_open\library/bignum.c ****     if( X->n < nblimbs )
 124:Source\mbedtls_open\library/bignum.c ****     {
 125:Source\mbedtls_open\library/bignum.c ****         if( ( p = (mbedtls_mpi_uint*)mbedtls_calloc( nblimbs, ciL ) ) == NULL )
 126:Source\mbedtls_open\library/bignum.c ****             return( MBEDTLS_ERR_MPI_ALLOC_FAILED );
 127:Source\mbedtls_open\library/bignum.c **** 
 128:Source\mbedtls_open\library/bignum.c ****         if( X->p != NULL )
 129:Source\mbedtls_open\library/bignum.c ****         {
 130:Source\mbedtls_open\library/bignum.c ****             memcpy( p, X->p, X->n * ciL );
 131:Source\mbedtls_open\library/bignum.c ****             mbedtls_mpi_zeroize( X->p, X->n );
 132:Source\mbedtls_open\library/bignum.c ****             mbedtls_free( X->p );
 133:Source\mbedtls_open\library/bignum.c ****         }
 134:Source\mbedtls_open\library/bignum.c **** 
 135:Source\mbedtls_open\library/bignum.c ****         X->n = nblimbs;
 136:Source\mbedtls_open\library/bignum.c ****         X->p = p;
 137:Source\mbedtls_open\library/bignum.c ****     }
 138:Source\mbedtls_open\library/bignum.c **** 
 139:Source\mbedtls_open\library/bignum.c ****     return( 0 );
 140:Source\mbedtls_open\library/bignum.c **** }
 141:Source\mbedtls_open\library/bignum.c **** 
 142:Source\mbedtls_open\library/bignum.c **** /*
 143:Source\mbedtls_open\library/bignum.c ****  * Resize down as much as possible,
 144:Source\mbedtls_open\library/bignum.c ****  * while keeping at least the specified number of limbs
 145:Source\mbedtls_open\library/bignum.c ****  */
ARM GAS  C:\Users\Phuong\AppData\Local\Temp\cciUg6zJ.s 			page 4


 146:Source\mbedtls_open\library/bignum.c **** int mbedtls_mpi_shrink( mbedtls_mpi *X, size_t nblimbs )
 147:Source\mbedtls_open\library/bignum.c **** {
 148:Source\mbedtls_open\library/bignum.c ****     mbedtls_mpi_uint *p;
 149:Source\mbedtls_open\library/bignum.c ****     size_t i;
 150:Source\mbedtls_open\library/bignum.c **** 
 151:Source\mbedtls_open\library/bignum.c ****     /* Actually resize up in this case */
 152:Source\mbedtls_open\library/bignum.c ****     if( X->n <= nblimbs )
 153:Source\mbedtls_open\library/bignum.c ****         return( mbedtls_mpi_grow( X, nblimbs ) );
 154:Source\mbedtls_open\library/bignum.c **** 
 155:Source\mbedtls_open\library/bignum.c ****     for( i = X->n - 1; i > 0; i-- )
 156:Source\mbedtls_open\library/bignum.c ****         if( X->p[i] != 0 )
 157:Source\mbedtls_open\library/bignum.c ****             break;
 158:Source\mbedtls_open\library/bignum.c ****     i++;
 159:Source\mbedtls_open\library/bignum.c **** 
 160:Source\mbedtls_open\library/bignum.c ****     if( i < nblimbs )
 161:Source\mbedtls_open\library/bignum.c ****         i = nblimbs;
 162:Source\mbedtls_open\library/bignum.c **** 
 163:Source\mbedtls_open\library/bignum.c ****     if( ( p = (mbedtls_mpi_uint*)mbedtls_calloc( i, ciL ) ) == NULL )
 164:Source\mbedtls_open\library/bignum.c ****         return( MBEDTLS_ERR_MPI_ALLOC_FAILED );
 165:Source\mbedtls_open\library/bignum.c **** 
 166:Source\mbedtls_open\library/bignum.c ****     if( X->p != NULL )
 167:Source\mbedtls_open\library/bignum.c ****     {
 168:Source\mbedtls_open\library/bignum.c ****         memcpy( p, X->p, i * ciL );
 169:Source\mbedtls_open\library/bignum.c ****         mbedtls_mpi_zeroize( X->p, X->n );
 170:Source\mbedtls_open\library/bignum.c ****         mbedtls_free( X->p );
 171:Source\mbedtls_open\library/bignum.c ****     }
 172:Source\mbedtls_open\library/bignum.c **** 
 173:Source\mbedtls_open\library/bignum.c ****     X->n = i;
 174:Source\mbedtls_open\library/bignum.c ****     X->p = p;
 175:Source\mbedtls_open\library/bignum.c **** 
 176:Source\mbedtls_open\library/bignum.c ****     return( 0 );
 177:Source\mbedtls_open\library/bignum.c **** }
 178:Source\mbedtls_open\library/bignum.c **** 
 179:Source\mbedtls_open\library/bignum.c **** /*
 180:Source\mbedtls_open\library/bignum.c ****  * Copy the contents of Y into X
 181:Source\mbedtls_open\library/bignum.c ****  */
 182:Source\mbedtls_open\library/bignum.c **** int mbedtls_mpi_copy( mbedtls_mpi *X, const mbedtls_mpi *Y )
 183:Source\mbedtls_open\library/bignum.c **** {
 184:Source\mbedtls_open\library/bignum.c ****     int ret = 0;
 185:Source\mbedtls_open\library/bignum.c ****     size_t i;
 186:Source\mbedtls_open\library/bignum.c **** 
 187:Source\mbedtls_open\library/bignum.c ****     if( X == Y )
 188:Source\mbedtls_open\library/bignum.c ****         return( 0 );
 189:Source\mbedtls_open\library/bignum.c **** 
 190:Source\mbedtls_open\library/bignum.c ****     if( Y->p == NULL )
 191:Source\mbedtls_open\library/bignum.c ****     {
 192:Source\mbedtls_open\library/bignum.c ****         mbedtls_mpi_free( X );
 193:Source\mbedtls_open\library/bignum.c ****         return( 0 );
 194:Source\mbedtls_open\library/bignum.c ****     }
 195:Source\mbedtls_open\library/bignum.c **** 
 196:Source\mbedtls_open\library/bignum.c ****     for( i = Y->n - 1; i > 0; i-- )
 197:Source\mbedtls_open\library/bignum.c ****         if( Y->p[i] != 0 )
 198:Source\mbedtls_open\library/bignum.c ****             break;
 199:Source\mbedtls_open\library/bignum.c ****     i++;
 200:Source\mbedtls_open\library/bignum.c **** 
 201:Source\mbedtls_open\library/bignum.c ****     X->s = Y->s;
 202:Source\mbedtls_open\library/bignum.c **** 
ARM GAS  C:\Users\Phuong\AppData\Local\Temp\cciUg6zJ.s 			page 5


 203:Source\mbedtls_open\library/bignum.c ****     if( X->n < i )
 204:Source\mbedtls_open\library/bignum.c ****     {
 205:Source\mbedtls_open\library/bignum.c ****         MBEDTLS_MPI_CHK( mbedtls_mpi_grow( X, i ) );
 206:Source\mbedtls_open\library/bignum.c ****     }
 207:Source\mbedtls_open\library/bignum.c ****     else
 208:Source\mbedtls_open\library/bignum.c ****     {
 209:Source\mbedtls_open\library/bignum.c ****         memset( X->p + i, 0, ( X->n - i ) * ciL );
 210:Source\mbedtls_open\library/bignum.c ****     }
 211:Source\mbedtls_open\library/bignum.c **** 
 212:Source\mbedtls_open\library/bignum.c ****     memcpy( X->p, Y->p, i * ciL );
 213:Source\mbedtls_open\library/bignum.c **** 
 214:Source\mbedtls_open\library/bignum.c **** cleanup:
 215:Source\mbedtls_open\library/bignum.c **** 
 216:Source\mbedtls_open\library/bignum.c ****     return( ret );
 217:Source\mbedtls_open\library/bignum.c **** }
 218:Source\mbedtls_open\library/bignum.c **** 
 219:Source\mbedtls_open\library/bignum.c **** /*
 220:Source\mbedtls_open\library/bignum.c ****  * Swap the contents of X and Y
 221:Source\mbedtls_open\library/bignum.c ****  */
 222:Source\mbedtls_open\library/bignum.c **** void mbedtls_mpi_swap( mbedtls_mpi *X, mbedtls_mpi *Y )
 223:Source\mbedtls_open\library/bignum.c **** {
 224:Source\mbedtls_open\library/bignum.c ****     mbedtls_mpi T;
 225:Source\mbedtls_open\library/bignum.c **** 
 226:Source\mbedtls_open\library/bignum.c ****     memcpy( &T,  X, sizeof( mbedtls_mpi ) );
 227:Source\mbedtls_open\library/bignum.c ****     memcpy(  X,  Y, sizeof( mbedtls_mpi ) );
 228:Source\mbedtls_open\library/bignum.c ****     memcpy(  Y, &T, sizeof( mbedtls_mpi ) );
 229:Source\mbedtls_open\library/bignum.c **** }
 230:Source\mbedtls_open\library/bignum.c **** 
 231:Source\mbedtls_open\library/bignum.c **** /*
 232:Source\mbedtls_open\library/bignum.c ****  * Conditionally assign X = Y, without leaking information
 233:Source\mbedtls_open\library/bignum.c ****  * about whether the assignment was made or not.
 234:Source\mbedtls_open\library/bignum.c ****  * (Leaking information about the respective sizes of X and Y is ok however.)
 235:Source\mbedtls_open\library/bignum.c ****  */
 236:Source\mbedtls_open\library/bignum.c **** int mbedtls_mpi_safe_cond_assign( mbedtls_mpi *X, const mbedtls_mpi *Y, unsigned char assign )
 237:Source\mbedtls_open\library/bignum.c **** {
 238:Source\mbedtls_open\library/bignum.c ****     int ret = 0;
 239:Source\mbedtls_open\library/bignum.c ****     size_t i;
 240:Source\mbedtls_open\library/bignum.c **** 
 241:Source\mbedtls_open\library/bignum.c ****     /* make sure assign is 0 or 1 in a time-constant manner */
 242:Source\mbedtls_open\library/bignum.c ****     assign = (assign | (unsigned char)-assign) >> 7;
 243:Source\mbedtls_open\library/bignum.c **** 
 244:Source\mbedtls_open\library/bignum.c ****     MBEDTLS_MPI_CHK( mbedtls_mpi_grow( X, Y->n ) );
 245:Source\mbedtls_open\library/bignum.c **** 
 246:Source\mbedtls_open\library/bignum.c ****     X->s = X->s * ( 1 - assign ) + Y->s * assign;
 247:Source\mbedtls_open\library/bignum.c **** 
 248:Source\mbedtls_open\library/bignum.c ****     for( i = 0; i < Y->n; i++ )
 249:Source\mbedtls_open\library/bignum.c ****         X->p[i] = X->p[i] * ( 1 - assign ) + Y->p[i] * assign;
 250:Source\mbedtls_open\library/bignum.c **** 
 251:Source\mbedtls_open\library/bignum.c ****     for( ; i < X->n; i++ )
 252:Source\mbedtls_open\library/bignum.c ****         X->p[i] *= ( 1 - assign );
 253:Source\mbedtls_open\library/bignum.c **** 
 254:Source\mbedtls_open\library/bignum.c **** cleanup:
 255:Source\mbedtls_open\library/bignum.c ****     return( ret );
 256:Source\mbedtls_open\library/bignum.c **** }
 257:Source\mbedtls_open\library/bignum.c **** 
 258:Source\mbedtls_open\library/bignum.c **** /*
 259:Source\mbedtls_open\library/bignum.c ****  * Conditionally swap X and Y, without leaking information
ARM GAS  C:\Users\Phuong\AppData\Local\Temp\cciUg6zJ.s 			page 6


 260:Source\mbedtls_open\library/bignum.c ****  * about whether the swap was made or not.
 261:Source\mbedtls_open\library/bignum.c ****  * Here it is not ok to simply swap the pointers, which whould lead to
 262:Source\mbedtls_open\library/bignum.c ****  * different memory access patterns when X and Y are used afterwards.
 263:Source\mbedtls_open\library/bignum.c ****  */
 264:Source\mbedtls_open\library/bignum.c **** int mbedtls_mpi_safe_cond_swap( mbedtls_mpi *X, mbedtls_mpi *Y, unsigned char swap )
 265:Source\mbedtls_open\library/bignum.c **** {
 266:Source\mbedtls_open\library/bignum.c ****     int ret, s;
 267:Source\mbedtls_open\library/bignum.c ****     size_t i;
 268:Source\mbedtls_open\library/bignum.c ****     mbedtls_mpi_uint tmp;
 269:Source\mbedtls_open\library/bignum.c **** 
 270:Source\mbedtls_open\library/bignum.c ****     if( X == Y )
 271:Source\mbedtls_open\library/bignum.c ****         return( 0 );
 272:Source\mbedtls_open\library/bignum.c **** 
 273:Source\mbedtls_open\library/bignum.c ****     /* make sure swap is 0 or 1 in a time-constant manner */
 274:Source\mbedtls_open\library/bignum.c ****     swap = (swap | (unsigned char)-swap) >> 7;
 275:Source\mbedtls_open\library/bignum.c **** 
 276:Source\mbedtls_open\library/bignum.c ****     MBEDTLS_MPI_CHK( mbedtls_mpi_grow( X, Y->n ) );
 277:Source\mbedtls_open\library/bignum.c ****     MBEDTLS_MPI_CHK( mbedtls_mpi_grow( Y, X->n ) );
 278:Source\mbedtls_open\library/bignum.c **** 
 279:Source\mbedtls_open\library/bignum.c ****     s = X->s;
 280:Source\mbedtls_open\library/bignum.c ****     X->s = X->s * ( 1 - swap ) + Y->s * swap;
 281:Source\mbedtls_open\library/bignum.c ****     Y->s = Y->s * ( 1 - swap ) +    s * swap;
 282:Source\mbedtls_open\library/bignum.c **** 
 283:Source\mbedtls_open\library/bignum.c **** 
 284:Source\mbedtls_open\library/bignum.c ****     for( i = 0; i < X->n; i++ )
 285:Source\mbedtls_open\library/bignum.c ****     {
 286:Source\mbedtls_open\library/bignum.c ****         tmp = X->p[i];
 287:Source\mbedtls_open\library/bignum.c ****         X->p[i] = X->p[i] * ( 1 - swap ) + Y->p[i] * swap;
 288:Source\mbedtls_open\library/bignum.c ****         Y->p[i] = Y->p[i] * ( 1 - swap ) +     tmp * swap;
 289:Source\mbedtls_open\library/bignum.c ****     }
 290:Source\mbedtls_open\library/bignum.c **** 
 291:Source\mbedtls_open\library/bignum.c **** cleanup:
 292:Source\mbedtls_open\library/bignum.c ****     return( ret );
 293:Source\mbedtls_open\library/bignum.c **** }
 294:Source\mbedtls_open\library/bignum.c **** 
 295:Source\mbedtls_open\library/bignum.c **** /*
 296:Source\mbedtls_open\library/bignum.c ****  * Set value from integer
 297:Source\mbedtls_open\library/bignum.c ****  */
 298:Source\mbedtls_open\library/bignum.c **** int mbedtls_mpi_lset( mbedtls_mpi *X, mbedtls_mpi_sint z )
 299:Source\mbedtls_open\library/bignum.c **** {
 300:Source\mbedtls_open\library/bignum.c ****     int ret;
 301:Source\mbedtls_open\library/bignum.c **** 
 302:Source\mbedtls_open\library/bignum.c ****     MBEDTLS_MPI_CHK( mbedtls_mpi_grow( X, 1 ) );
 303:Source\mbedtls_open\library/bignum.c ****     memset( X->p, 0, X->n * ciL );
 304:Source\mbedtls_open\library/bignum.c **** 
 305:Source\mbedtls_open\library/bignum.c ****     X->p[0] = ( z < 0 ) ? -z : z;
 306:Source\mbedtls_open\library/bignum.c ****     X->s    = ( z < 0 ) ? -1 : 1;
 307:Source\mbedtls_open\library/bignum.c **** 
 308:Source\mbedtls_open\library/bignum.c **** cleanup:
 309:Source\mbedtls_open\library/bignum.c **** 
 310:Source\mbedtls_open\library/bignum.c ****     return( ret );
 311:Source\mbedtls_open\library/bignum.c **** }
 312:Source\mbedtls_open\library/bignum.c **** 
 313:Source\mbedtls_open\library/bignum.c **** /*
 314:Source\mbedtls_open\library/bignum.c ****  * Get a specific bit
 315:Source\mbedtls_open\library/bignum.c ****  */
 316:Source\mbedtls_open\library/bignum.c **** int mbedtls_mpi_get_bit( const mbedtls_mpi *X, size_t pos )
ARM GAS  C:\Users\Phuong\AppData\Local\Temp\cciUg6zJ.s 			page 7


 317:Source\mbedtls_open\library/bignum.c **** {
 318:Source\mbedtls_open\library/bignum.c ****     if( X->n * biL <= pos )
 319:Source\mbedtls_open\library/bignum.c ****         return( 0 );
 320:Source\mbedtls_open\library/bignum.c **** 
 321:Source\mbedtls_open\library/bignum.c ****     return( ( X->p[pos / biL] >> ( pos % biL ) ) & 0x01 );
 322:Source\mbedtls_open\library/bignum.c **** }
 323:Source\mbedtls_open\library/bignum.c **** 
 324:Source\mbedtls_open\library/bignum.c **** /*
 325:Source\mbedtls_open\library/bignum.c ****  * Set a bit to a specific value of 0 or 1
 326:Source\mbedtls_open\library/bignum.c ****  */
 327:Source\mbedtls_open\library/bignum.c **** int mbedtls_mpi_set_bit( mbedtls_mpi *X, size_t pos, unsigned char val )
 328:Source\mbedtls_open\library/bignum.c **** {
 329:Source\mbedtls_open\library/bignum.c ****     int ret = 0;
 330:Source\mbedtls_open\library/bignum.c ****     size_t off = pos / biL;
 331:Source\mbedtls_open\library/bignum.c ****     size_t idx = pos % biL;
 332:Source\mbedtls_open\library/bignum.c **** 
 333:Source\mbedtls_open\library/bignum.c ****     if( val != 0 && val != 1 )
 334:Source\mbedtls_open\library/bignum.c ****         return( MBEDTLS_ERR_MPI_BAD_INPUT_DATA );
 335:Source\mbedtls_open\library/bignum.c **** 
 336:Source\mbedtls_open\library/bignum.c ****     if( X->n * biL <= pos )
 337:Source\mbedtls_open\library/bignum.c ****     {
 338:Source\mbedtls_open\library/bignum.c ****         if( val == 0 )
 339:Source\mbedtls_open\library/bignum.c ****             return( 0 );
 340:Source\mbedtls_open\library/bignum.c **** 
 341:Source\mbedtls_open\library/bignum.c ****         MBEDTLS_MPI_CHK( mbedtls_mpi_grow( X, off + 1 ) );
 342:Source\mbedtls_open\library/bignum.c ****     }
 343:Source\mbedtls_open\library/bignum.c **** 
 344:Source\mbedtls_open\library/bignum.c ****     X->p[off] &= ~( (mbedtls_mpi_uint) 0x01 << idx );
 345:Source\mbedtls_open\library/bignum.c ****     X->p[off] |= (mbedtls_mpi_uint) val << idx;
 346:Source\mbedtls_open\library/bignum.c **** 
 347:Source\mbedtls_open\library/bignum.c **** cleanup:
 348:Source\mbedtls_open\library/bignum.c **** 
 349:Source\mbedtls_open\library/bignum.c ****     return( ret );
 350:Source\mbedtls_open\library/bignum.c **** }
 351:Source\mbedtls_open\library/bignum.c **** 
 352:Source\mbedtls_open\library/bignum.c **** /*
 353:Source\mbedtls_open\library/bignum.c ****  * Return the number of less significant zero-bits
 354:Source\mbedtls_open\library/bignum.c ****  */
 355:Source\mbedtls_open\library/bignum.c **** size_t mbedtls_mpi_lsb( const mbedtls_mpi *X )
 356:Source\mbedtls_open\library/bignum.c **** {
 357:Source\mbedtls_open\library/bignum.c ****     size_t i, j, count = 0;
 358:Source\mbedtls_open\library/bignum.c **** 
 359:Source\mbedtls_open\library/bignum.c ****     for( i = 0; i < X->n; i++ )
 360:Source\mbedtls_open\library/bignum.c ****         for( j = 0; j < biL; j++, count++ )
 361:Source\mbedtls_open\library/bignum.c ****             if( ( ( X->p[i] >> j ) & 1 ) != 0 )
 362:Source\mbedtls_open\library/bignum.c ****                 return( count );
 363:Source\mbedtls_open\library/bignum.c **** 
 364:Source\mbedtls_open\library/bignum.c ****     return( 0 );
 365:Source\mbedtls_open\library/bignum.c **** }
 366:Source\mbedtls_open\library/bignum.c **** 
 367:Source\mbedtls_open\library/bignum.c **** /*
 368:Source\mbedtls_open\library/bignum.c ****  * Count leading zero bits in a given integer
 369:Source\mbedtls_open\library/bignum.c ****  */
 370:Source\mbedtls_open\library/bignum.c **** static size_t mbedtls_clz( const mbedtls_mpi_uint x )
 371:Source\mbedtls_open\library/bignum.c **** {
  27              		.loc 1 371 0
  28              		.cfi_startproc
ARM GAS  C:\Users\Phuong\AppData\Local\Temp\cciUg6zJ.s 			page 8


  29              		@ args = 0, pretend = 0, frame = 0
  30              		@ frame_needed = 0, uses_anonymous_args = 0
  31              		@ link register save eliminated.
  32              	.LVL0:
 372:Source\mbedtls_open\library/bignum.c ****     size_t j;
 373:Source\mbedtls_open\library/bignum.c ****     mbedtls_mpi_uint mask = (mbedtls_mpi_uint) 1 << (biL - 1);
  33              		.loc 1 373 0
  34 0000 8022     		movs	r2, #128
  35 0002 1206     		lsls	r2, r2, #24
 374:Source\mbedtls_open\library/bignum.c **** 
 375:Source\mbedtls_open\library/bignum.c ****     for( j = 0; j < biL; j++ )
  36              		.loc 1 375 0
  37 0004 0023     		movs	r3, #0
  38 0006 03E0     		b	.L2
  39              	.LVL1:
  40              	.L4:
 376:Source\mbedtls_open\library/bignum.c ****     {
 377:Source\mbedtls_open\library/bignum.c ****         if( x & mask ) break;
  41              		.loc 1 377 0
  42 0008 1042     		tst	r0, r2
  43 000a 03D1     		bne	.L3
 378:Source\mbedtls_open\library/bignum.c **** 
 379:Source\mbedtls_open\library/bignum.c ****         mask >>= 1;
  44              		.loc 1 379 0 discriminator 2
  45 000c 5208     		lsrs	r2, r2, #1
  46              	.LVL2:
 375:Source\mbedtls_open\library/bignum.c ****     {
  47              		.loc 1 375 0 discriminator 2
  48 000e 0133     		adds	r3, r3, #1
  49              	.LVL3:
  50              	.L2:
 375:Source\mbedtls_open\library/bignum.c ****     {
  51              		.loc 1 375 0 is_stmt 0 discriminator 1
  52 0010 1F2B     		cmp	r3, #31
  53 0012 F9D9     		bls	.L4
  54              	.L3:
 380:Source\mbedtls_open\library/bignum.c ****     }
 381:Source\mbedtls_open\library/bignum.c **** 
 382:Source\mbedtls_open\library/bignum.c ****     return j;
 383:Source\mbedtls_open\library/bignum.c **** }
  55              		.loc 1 383 0 is_stmt 1
  56 0014 1800     		movs	r0, r3
  57              	.LVL4:
  58              		@ sp needed
  59 0016 7047     		bx	lr
  60              		.cfi_endproc
  61              	.LFE14:
  62              		.size	mbedtls_clz, .-mbedtls_clz
  63              		.section	.text.mpi_get_digit,"ax",%progbits
  64              		.align	2
  65              		.code	16
  66              		.thumb_func
  67              		.type	mpi_get_digit, %function
  68              	mpi_get_digit:
  69              	.LFB17:
 384:Source\mbedtls_open\library/bignum.c **** 
 385:Source\mbedtls_open\library/bignum.c **** /*
ARM GAS  C:\Users\Phuong\AppData\Local\Temp\cciUg6zJ.s 			page 9


 386:Source\mbedtls_open\library/bignum.c ****  * Return the number of bits
 387:Source\mbedtls_open\library/bignum.c ****  */
 388:Source\mbedtls_open\library/bignum.c **** size_t mbedtls_mpi_bitlen( const mbedtls_mpi *X )
 389:Source\mbedtls_open\library/bignum.c **** {
 390:Source\mbedtls_open\library/bignum.c ****     size_t i, j;
 391:Source\mbedtls_open\library/bignum.c **** 
 392:Source\mbedtls_open\library/bignum.c ****     if( X->n == 0 )
 393:Source\mbedtls_open\library/bignum.c ****         return( 0 );
 394:Source\mbedtls_open\library/bignum.c **** 
 395:Source\mbedtls_open\library/bignum.c ****     for( i = X->n - 1; i > 0; i-- )
 396:Source\mbedtls_open\library/bignum.c ****         if( X->p[i] != 0 )
 397:Source\mbedtls_open\library/bignum.c ****             break;
 398:Source\mbedtls_open\library/bignum.c **** 
 399:Source\mbedtls_open\library/bignum.c ****     j = biL - mbedtls_clz( X->p[i] );
 400:Source\mbedtls_open\library/bignum.c **** 
 401:Source\mbedtls_open\library/bignum.c ****     return( ( i * biL ) + j );
 402:Source\mbedtls_open\library/bignum.c **** }
 403:Source\mbedtls_open\library/bignum.c **** 
 404:Source\mbedtls_open\library/bignum.c **** /*
 405:Source\mbedtls_open\library/bignum.c ****  * Return the total size in bytes
 406:Source\mbedtls_open\library/bignum.c ****  */
 407:Source\mbedtls_open\library/bignum.c **** size_t mbedtls_mpi_size( const mbedtls_mpi *X )
 408:Source\mbedtls_open\library/bignum.c **** {
 409:Source\mbedtls_open\library/bignum.c ****     return( ( mbedtls_mpi_bitlen( X ) + 7 ) >> 3 );
 410:Source\mbedtls_open\library/bignum.c **** }
 411:Source\mbedtls_open\library/bignum.c **** 
 412:Source\mbedtls_open\library/bignum.c **** /*
 413:Source\mbedtls_open\library/bignum.c ****  * Convert an ASCII character to digit value
 414:Source\mbedtls_open\library/bignum.c ****  */
 415:Source\mbedtls_open\library/bignum.c **** static int mpi_get_digit( mbedtls_mpi_uint *d, int radix, char c )
 416:Source\mbedtls_open\library/bignum.c **** {
  70              		.loc 1 416 0
  71              		.cfi_startproc
  72              		@ args = 0, pretend = 0, frame = 0
  73              		@ frame_needed = 0, uses_anonymous_args = 0
  74              		@ link register save eliminated.
  75              	.LVL5:
 417:Source\mbedtls_open\library/bignum.c ****     *d = 255;
  76              		.loc 1 417 0
  77 0000 FF23     		movs	r3, #255
  78 0002 0360     		str	r3, [r0]
 418:Source\mbedtls_open\library/bignum.c **** 
 419:Source\mbedtls_open\library/bignum.c ****     if( c >= 0x30 && c <= 0x39 ) *d = c - 0x30;
  79              		.loc 1 419 0
  80 0004 1300     		movs	r3, r2
  81 0006 303B     		subs	r3, r3, #48
  82 0008 DBB2     		uxtb	r3, r3
  83 000a 092B     		cmp	r3, #9
  84 000c 02D8     		bhi	.L6
  85              		.loc 1 419 0 is_stmt 0 discriminator 1
  86 000e 1300     		movs	r3, r2
  87 0010 303B     		subs	r3, r3, #48
  88 0012 0360     		str	r3, [r0]
  89              	.L6:
 420:Source\mbedtls_open\library/bignum.c ****     if( c >= 0x41 && c <= 0x46 ) *d = c - 0x37;
  90              		.loc 1 420 0 is_stmt 1
  91 0014 1300     		movs	r3, r2
ARM GAS  C:\Users\Phuong\AppData\Local\Temp\cciUg6zJ.s 			page 10


  92 0016 413B     		subs	r3, r3, #65
  93 0018 DBB2     		uxtb	r3, r3
  94 001a 052B     		cmp	r3, #5
  95 001c 02D8     		bhi	.L7
  96              		.loc 1 420 0 is_stmt 0 discriminator 1
  97 001e 1300     		movs	r3, r2
  98 0020 373B     		subs	r3, r3, #55
  99 0022 0360     		str	r3, [r0]
 100              	.L7:
 421:Source\mbedtls_open\library/bignum.c ****     if( c >= 0x61 && c <= 0x66 ) *d = c - 0x57;
 101              		.loc 1 421 0 is_stmt 1
 102 0024 1300     		movs	r3, r2
 103 0026 613B     		subs	r3, r3, #97
 104 0028 DBB2     		uxtb	r3, r3
 105 002a 052B     		cmp	r3, #5
 106 002c 01D8     		bhi	.L8
 107              		.loc 1 421 0 is_stmt 0 discriminator 1
 108 002e 573A     		subs	r2, r2, #87
 109              	.LVL6:
 110 0030 0260     		str	r2, [r0]
 111              	.L8:
 422:Source\mbedtls_open\library/bignum.c **** 
 423:Source\mbedtls_open\library/bignum.c ****     if( *d >= (mbedtls_mpi_uint) radix )
 112              		.loc 1 423 0 is_stmt 1
 113 0032 0368     		ldr	r3, [r0]
 114 0034 8B42     		cmp	r3, r1
 115 0036 02D3     		bcc	.L10
 424:Source\mbedtls_open\library/bignum.c ****         return( MBEDTLS_ERR_MPI_INVALID_CHARACTER );
 116              		.loc 1 424 0
 117 0038 0620     		movs	r0, #6
 118              	.LVL7:
 119 003a 4042     		rsbs	r0, r0, #0
 120 003c 00E0     		b	.L9
 121              	.LVL8:
 122              	.L10:
 425:Source\mbedtls_open\library/bignum.c **** 
 426:Source\mbedtls_open\library/bignum.c ****     return( 0 );
 123              		.loc 1 426 0
 124 003e 0020     		movs	r0, #0
 125              	.LVL9:
 126              	.L9:
 427:Source\mbedtls_open\library/bignum.c **** }
 127              		.loc 1 427 0
 128              		@ sp needed
 129 0040 7047     		bx	lr
 130              		.cfi_endproc
 131              	.LFE17:
 132              		.size	mpi_get_digit, .-mpi_get_digit
 133 0042 C046     		.section	.text.mpi_sub_hlp,"ax",%progbits
 134              		.align	2
 135              		.code	16
 136              		.thumb_func
 137              		.type	mpi_sub_hlp, %function
 138              	mpi_sub_hlp:
 139              	.LFB29:
 428:Source\mbedtls_open\library/bignum.c **** 
 429:Source\mbedtls_open\library/bignum.c **** /*
ARM GAS  C:\Users\Phuong\AppData\Local\Temp\cciUg6zJ.s 			page 11


 430:Source\mbedtls_open\library/bignum.c ****  * Import from an ASCII string
 431:Source\mbedtls_open\library/bignum.c ****  */
 432:Source\mbedtls_open\library/bignum.c **** int mbedtls_mpi_read_string( mbedtls_mpi *X, int radix, const char *s )
 433:Source\mbedtls_open\library/bignum.c **** {
 434:Source\mbedtls_open\library/bignum.c ****     int ret;
 435:Source\mbedtls_open\library/bignum.c ****     size_t i, j, slen, n;
 436:Source\mbedtls_open\library/bignum.c ****     mbedtls_mpi_uint d;
 437:Source\mbedtls_open\library/bignum.c ****     mbedtls_mpi T;
 438:Source\mbedtls_open\library/bignum.c **** 
 439:Source\mbedtls_open\library/bignum.c ****     if( radix < 2 || radix > 16 )
 440:Source\mbedtls_open\library/bignum.c ****         return( MBEDTLS_ERR_MPI_BAD_INPUT_DATA );
 441:Source\mbedtls_open\library/bignum.c **** 
 442:Source\mbedtls_open\library/bignum.c ****     mbedtls_mpi_init( &T );
 443:Source\mbedtls_open\library/bignum.c **** 
 444:Source\mbedtls_open\library/bignum.c ****     slen = strlen( s );
 445:Source\mbedtls_open\library/bignum.c **** 
 446:Source\mbedtls_open\library/bignum.c ****     if( radix == 16 )
 447:Source\mbedtls_open\library/bignum.c ****     {
 448:Source\mbedtls_open\library/bignum.c ****         if( slen > MPI_SIZE_T_MAX >> 2 )
 449:Source\mbedtls_open\library/bignum.c ****             return( MBEDTLS_ERR_MPI_BAD_INPUT_DATA );
 450:Source\mbedtls_open\library/bignum.c **** 
 451:Source\mbedtls_open\library/bignum.c ****         n = BITS_TO_LIMBS( slen << 2 );
 452:Source\mbedtls_open\library/bignum.c **** 
 453:Source\mbedtls_open\library/bignum.c ****         MBEDTLS_MPI_CHK( mbedtls_mpi_grow( X, n ) );
 454:Source\mbedtls_open\library/bignum.c ****         MBEDTLS_MPI_CHK( mbedtls_mpi_lset( X, 0 ) );
 455:Source\mbedtls_open\library/bignum.c **** 
 456:Source\mbedtls_open\library/bignum.c ****         for( i = slen, j = 0; i > 0; i--, j++ )
 457:Source\mbedtls_open\library/bignum.c ****         {
 458:Source\mbedtls_open\library/bignum.c ****             if( i == 1 && s[i - 1] == '-' )
 459:Source\mbedtls_open\library/bignum.c ****             {
 460:Source\mbedtls_open\library/bignum.c ****                 X->s = -1;
 461:Source\mbedtls_open\library/bignum.c ****                 break;
 462:Source\mbedtls_open\library/bignum.c ****             }
 463:Source\mbedtls_open\library/bignum.c **** 
 464:Source\mbedtls_open\library/bignum.c ****             MBEDTLS_MPI_CHK( mpi_get_digit( &d, radix, s[i - 1] ) );
 465:Source\mbedtls_open\library/bignum.c ****             X->p[j / ( 2 * ciL )] |= d << ( ( j % ( 2 * ciL ) ) << 2 );
 466:Source\mbedtls_open\library/bignum.c ****         }
 467:Source\mbedtls_open\library/bignum.c ****     }
 468:Source\mbedtls_open\library/bignum.c ****     else
 469:Source\mbedtls_open\library/bignum.c ****     {
 470:Source\mbedtls_open\library/bignum.c ****         MBEDTLS_MPI_CHK( mbedtls_mpi_lset( X, 0 ) );
 471:Source\mbedtls_open\library/bignum.c **** 
 472:Source\mbedtls_open\library/bignum.c ****         for( i = 0; i < slen; i++ )
 473:Source\mbedtls_open\library/bignum.c ****         {
 474:Source\mbedtls_open\library/bignum.c ****             if( i == 0 && s[i] == '-' )
 475:Source\mbedtls_open\library/bignum.c ****             {
 476:Source\mbedtls_open\library/bignum.c ****                 X->s = -1;
 477:Source\mbedtls_open\library/bignum.c ****                 continue;
 478:Source\mbedtls_open\library/bignum.c ****             }
 479:Source\mbedtls_open\library/bignum.c **** 
 480:Source\mbedtls_open\library/bignum.c ****             MBEDTLS_MPI_CHK( mpi_get_digit( &d, radix, s[i] ) );
 481:Source\mbedtls_open\library/bignum.c ****             MBEDTLS_MPI_CHK( mbedtls_mpi_mul_int( &T, X, radix ) );
 482:Source\mbedtls_open\library/bignum.c **** 
 483:Source\mbedtls_open\library/bignum.c ****             if( X->s == 1 )
 484:Source\mbedtls_open\library/bignum.c ****             {
 485:Source\mbedtls_open\library/bignum.c ****                 MBEDTLS_MPI_CHK( mbedtls_mpi_add_int( X, &T, d ) );
 486:Source\mbedtls_open\library/bignum.c ****             }
ARM GAS  C:\Users\Phuong\AppData\Local\Temp\cciUg6zJ.s 			page 12


 487:Source\mbedtls_open\library/bignum.c ****             else
 488:Source\mbedtls_open\library/bignum.c ****             {
 489:Source\mbedtls_open\library/bignum.c ****                 MBEDTLS_MPI_CHK( mbedtls_mpi_sub_int( X, &T, d ) );
 490:Source\mbedtls_open\library/bignum.c ****             }
 491:Source\mbedtls_open\library/bignum.c ****         }
 492:Source\mbedtls_open\library/bignum.c ****     }
 493:Source\mbedtls_open\library/bignum.c **** 
 494:Source\mbedtls_open\library/bignum.c **** cleanup:
 495:Source\mbedtls_open\library/bignum.c **** 
 496:Source\mbedtls_open\library/bignum.c ****     mbedtls_mpi_free( &T );
 497:Source\mbedtls_open\library/bignum.c **** 
 498:Source\mbedtls_open\library/bignum.c ****     return( ret );
 499:Source\mbedtls_open\library/bignum.c **** }
 500:Source\mbedtls_open\library/bignum.c **** 
 501:Source\mbedtls_open\library/bignum.c **** /*
 502:Source\mbedtls_open\library/bignum.c ****  * Helper to write the digits high-order first
 503:Source\mbedtls_open\library/bignum.c ****  */
 504:Source\mbedtls_open\library/bignum.c **** static int mpi_write_hlp( mbedtls_mpi *X, int radix, char **p )
 505:Source\mbedtls_open\library/bignum.c **** {
 506:Source\mbedtls_open\library/bignum.c ****     int ret;
 507:Source\mbedtls_open\library/bignum.c ****     mbedtls_mpi_uint r;
 508:Source\mbedtls_open\library/bignum.c **** 
 509:Source\mbedtls_open\library/bignum.c ****     if( radix < 2 || radix > 16 )
 510:Source\mbedtls_open\library/bignum.c ****         return( MBEDTLS_ERR_MPI_BAD_INPUT_DATA );
 511:Source\mbedtls_open\library/bignum.c **** 
 512:Source\mbedtls_open\library/bignum.c ****     MBEDTLS_MPI_CHK( mbedtls_mpi_mod_int( &r, X, radix ) );
 513:Source\mbedtls_open\library/bignum.c ****     MBEDTLS_MPI_CHK( mbedtls_mpi_div_int( X, NULL, X, radix ) );
 514:Source\mbedtls_open\library/bignum.c **** 
 515:Source\mbedtls_open\library/bignum.c ****     if( mbedtls_mpi_cmp_int( X, 0 ) != 0 )
 516:Source\mbedtls_open\library/bignum.c ****         MBEDTLS_MPI_CHK( mpi_write_hlp( X, radix, p ) );
 517:Source\mbedtls_open\library/bignum.c **** 
 518:Source\mbedtls_open\library/bignum.c ****     if( r < 10 )
 519:Source\mbedtls_open\library/bignum.c ****         *(*p)++ = (char)( r + 0x30 );
 520:Source\mbedtls_open\library/bignum.c ****     else
 521:Source\mbedtls_open\library/bignum.c ****         *(*p)++ = (char)( r + 0x37 );
 522:Source\mbedtls_open\library/bignum.c **** 
 523:Source\mbedtls_open\library/bignum.c **** cleanup:
 524:Source\mbedtls_open\library/bignum.c **** 
 525:Source\mbedtls_open\library/bignum.c ****     return( ret );
 526:Source\mbedtls_open\library/bignum.c **** }
 527:Source\mbedtls_open\library/bignum.c **** 
 528:Source\mbedtls_open\library/bignum.c **** /*
 529:Source\mbedtls_open\library/bignum.c ****  * Export into an ASCII string
 530:Source\mbedtls_open\library/bignum.c ****  */
 531:Source\mbedtls_open\library/bignum.c **** int mbedtls_mpi_write_string( const mbedtls_mpi *X, int radix,
 532:Source\mbedtls_open\library/bignum.c ****                               char *buf, size_t buflen, size_t *olen )
 533:Source\mbedtls_open\library/bignum.c **** {
 534:Source\mbedtls_open\library/bignum.c ****     int ret = 0;
 535:Source\mbedtls_open\library/bignum.c ****     size_t n;
 536:Source\mbedtls_open\library/bignum.c ****     char *p;
 537:Source\mbedtls_open\library/bignum.c ****     mbedtls_mpi T;
 538:Source\mbedtls_open\library/bignum.c **** 
 539:Source\mbedtls_open\library/bignum.c ****     if( radix < 2 || radix > 16 )
 540:Source\mbedtls_open\library/bignum.c ****         return( MBEDTLS_ERR_MPI_BAD_INPUT_DATA );
 541:Source\mbedtls_open\library/bignum.c **** 
 542:Source\mbedtls_open\library/bignum.c ****     n = mbedtls_mpi_bitlen( X );
 543:Source\mbedtls_open\library/bignum.c ****     if( radix >=  4 ) n >>= 1;
ARM GAS  C:\Users\Phuong\AppData\Local\Temp\cciUg6zJ.s 			page 13


 544:Source\mbedtls_open\library/bignum.c ****     if( radix >= 16 ) n >>= 1;
 545:Source\mbedtls_open\library/bignum.c ****     /*
 546:Source\mbedtls_open\library/bignum.c ****      * Round up the buffer length to an even value to ensure that there is
 547:Source\mbedtls_open\library/bignum.c ****      * enough room for hexadecimal values that can be represented in an odd
 548:Source\mbedtls_open\library/bignum.c ****      * number of digits.
 549:Source\mbedtls_open\library/bignum.c ****      */
 550:Source\mbedtls_open\library/bignum.c ****     n += 3 + ( ( n + 1 ) & 1 );
 551:Source\mbedtls_open\library/bignum.c **** 
 552:Source\mbedtls_open\library/bignum.c ****     if( buflen < n )
 553:Source\mbedtls_open\library/bignum.c ****     {
 554:Source\mbedtls_open\library/bignum.c ****         *olen = n;
 555:Source\mbedtls_open\library/bignum.c ****         return( MBEDTLS_ERR_MPI_BUFFER_TOO_SMALL );
 556:Source\mbedtls_open\library/bignum.c ****     }
 557:Source\mbedtls_open\library/bignum.c **** 
 558:Source\mbedtls_open\library/bignum.c ****     p = buf;
 559:Source\mbedtls_open\library/bignum.c ****     mbedtls_mpi_init( &T );
 560:Source\mbedtls_open\library/bignum.c **** 
 561:Source\mbedtls_open\library/bignum.c ****     if( X->s == -1 )
 562:Source\mbedtls_open\library/bignum.c ****         *p++ = '-';
 563:Source\mbedtls_open\library/bignum.c **** 
 564:Source\mbedtls_open\library/bignum.c ****     if( radix == 16 )
 565:Source\mbedtls_open\library/bignum.c ****     {
 566:Source\mbedtls_open\library/bignum.c ****         int c;
 567:Source\mbedtls_open\library/bignum.c ****         size_t i, j, k;
 568:Source\mbedtls_open\library/bignum.c **** 
 569:Source\mbedtls_open\library/bignum.c ****         for( i = X->n, k = 0; i > 0; i-- )
 570:Source\mbedtls_open\library/bignum.c ****         {
 571:Source\mbedtls_open\library/bignum.c ****             for( j = ciL; j > 0; j-- )
 572:Source\mbedtls_open\library/bignum.c ****             {
 573:Source\mbedtls_open\library/bignum.c ****                 c = ( X->p[i - 1] >> ( ( j - 1 ) << 3) ) & 0xFF;
 574:Source\mbedtls_open\library/bignum.c **** 
 575:Source\mbedtls_open\library/bignum.c ****                 if( c == 0 && k == 0 && ( i + j ) != 2 )
 576:Source\mbedtls_open\library/bignum.c ****                     continue;
 577:Source\mbedtls_open\library/bignum.c **** 
 578:Source\mbedtls_open\library/bignum.c ****                 *(p++) = "0123456789ABCDEF" [c / 16];
 579:Source\mbedtls_open\library/bignum.c ****                 *(p++) = "0123456789ABCDEF" [c % 16];
 580:Source\mbedtls_open\library/bignum.c ****                 k = 1;
 581:Source\mbedtls_open\library/bignum.c ****             }
 582:Source\mbedtls_open\library/bignum.c ****         }
 583:Source\mbedtls_open\library/bignum.c ****     }
 584:Source\mbedtls_open\library/bignum.c ****     else
 585:Source\mbedtls_open\library/bignum.c ****     {
 586:Source\mbedtls_open\library/bignum.c ****         MBEDTLS_MPI_CHK( mbedtls_mpi_copy( &T, X ) );
 587:Source\mbedtls_open\library/bignum.c **** 
 588:Source\mbedtls_open\library/bignum.c ****         if( T.s == -1 )
 589:Source\mbedtls_open\library/bignum.c ****             T.s = 1;
 590:Source\mbedtls_open\library/bignum.c **** 
 591:Source\mbedtls_open\library/bignum.c ****         MBEDTLS_MPI_CHK( mpi_write_hlp( &T, radix, &p ) );
 592:Source\mbedtls_open\library/bignum.c ****     }
 593:Source\mbedtls_open\library/bignum.c **** 
 594:Source\mbedtls_open\library/bignum.c ****     *p++ = '\0';
 595:Source\mbedtls_open\library/bignum.c ****     *olen = p - buf;
 596:Source\mbedtls_open\library/bignum.c **** 
 597:Source\mbedtls_open\library/bignum.c **** cleanup:
 598:Source\mbedtls_open\library/bignum.c **** 
 599:Source\mbedtls_open\library/bignum.c ****     mbedtls_mpi_free( &T );
 600:Source\mbedtls_open\library/bignum.c **** 
ARM GAS  C:\Users\Phuong\AppData\Local\Temp\cciUg6zJ.s 			page 14


 601:Source\mbedtls_open\library/bignum.c ****     return( ret );
 602:Source\mbedtls_open\library/bignum.c **** }
 603:Source\mbedtls_open\library/bignum.c **** 
 604:Source\mbedtls_open\library/bignum.c **** #if defined(MBEDTLS_FS_IO)
 605:Source\mbedtls_open\library/bignum.c **** /*
 606:Source\mbedtls_open\library/bignum.c ****  * Read X from an opened file
 607:Source\mbedtls_open\library/bignum.c ****  */
 608:Source\mbedtls_open\library/bignum.c **** int mbedtls_mpi_read_file( mbedtls_mpi *X, int radix, FILE *fin )
 609:Source\mbedtls_open\library/bignum.c **** {
 610:Source\mbedtls_open\library/bignum.c ****     mbedtls_mpi_uint d;
 611:Source\mbedtls_open\library/bignum.c ****     size_t slen;
 612:Source\mbedtls_open\library/bignum.c ****     char *p;
 613:Source\mbedtls_open\library/bignum.c ****     /*
 614:Source\mbedtls_open\library/bignum.c ****      * Buffer should have space for (short) label and decimal formatted MPI,
 615:Source\mbedtls_open\library/bignum.c ****      * newline characters and '\0'
 616:Source\mbedtls_open\library/bignum.c ****      */
 617:Source\mbedtls_open\library/bignum.c ****     char s[ MBEDTLS_MPI_RW_BUFFER_SIZE ];
 618:Source\mbedtls_open\library/bignum.c **** 
 619:Source\mbedtls_open\library/bignum.c ****     memset( s, 0, sizeof( s ) );
 620:Source\mbedtls_open\library/bignum.c ****     if( fgets( s, sizeof( s ) - 1, fin ) == NULL )
 621:Source\mbedtls_open\library/bignum.c ****         return( MBEDTLS_ERR_MPI_FILE_IO_ERROR );
 622:Source\mbedtls_open\library/bignum.c **** 
 623:Source\mbedtls_open\library/bignum.c ****     slen = strlen( s );
 624:Source\mbedtls_open\library/bignum.c ****     if( slen == sizeof( s ) - 2 )
 625:Source\mbedtls_open\library/bignum.c ****         return( MBEDTLS_ERR_MPI_BUFFER_TOO_SMALL );
 626:Source\mbedtls_open\library/bignum.c **** 
 627:Source\mbedtls_open\library/bignum.c ****     if( slen > 0 && s[slen - 1] == '\n' ) { slen--; s[slen] = '\0'; }
 628:Source\mbedtls_open\library/bignum.c ****     if( slen > 0 && s[slen - 1] == '\r' ) { slen--; s[slen] = '\0'; }
 629:Source\mbedtls_open\library/bignum.c **** 
 630:Source\mbedtls_open\library/bignum.c ****     p = s + slen;
 631:Source\mbedtls_open\library/bignum.c ****     while( p-- > s )
 632:Source\mbedtls_open\library/bignum.c ****         if( mpi_get_digit( &d, radix, *p ) != 0 )
 633:Source\mbedtls_open\library/bignum.c ****             break;
 634:Source\mbedtls_open\library/bignum.c **** 
 635:Source\mbedtls_open\library/bignum.c ****     return( mbedtls_mpi_read_string( X, radix, p + 1 ) );
 636:Source\mbedtls_open\library/bignum.c **** }
 637:Source\mbedtls_open\library/bignum.c **** 
 638:Source\mbedtls_open\library/bignum.c **** /*
 639:Source\mbedtls_open\library/bignum.c ****  * Write X into an opened file (or stdout if fout == NULL)
 640:Source\mbedtls_open\library/bignum.c ****  */
 641:Source\mbedtls_open\library/bignum.c **** int mbedtls_mpi_write_file( const char *p, const mbedtls_mpi *X, int radix, FILE *fout )
 642:Source\mbedtls_open\library/bignum.c **** {
 643:Source\mbedtls_open\library/bignum.c ****     int ret;
 644:Source\mbedtls_open\library/bignum.c ****     size_t n, slen, plen;
 645:Source\mbedtls_open\library/bignum.c ****     /*
 646:Source\mbedtls_open\library/bignum.c ****      * Buffer should have space for (short) label and decimal formatted MPI,
 647:Source\mbedtls_open\library/bignum.c ****      * newline characters and '\0'
 648:Source\mbedtls_open\library/bignum.c ****      */
 649:Source\mbedtls_open\library/bignum.c ****     char s[ MBEDTLS_MPI_RW_BUFFER_SIZE ];
 650:Source\mbedtls_open\library/bignum.c **** 
 651:Source\mbedtls_open\library/bignum.c ****     memset( s, 0, sizeof( s ) );
 652:Source\mbedtls_open\library/bignum.c **** 
 653:Source\mbedtls_open\library/bignum.c ****     MBEDTLS_MPI_CHK( mbedtls_mpi_write_string( X, radix, s, sizeof( s ) - 2, &n ) );
 654:Source\mbedtls_open\library/bignum.c **** 
 655:Source\mbedtls_open\library/bignum.c ****     if( p == NULL ) p = "";
 656:Source\mbedtls_open\library/bignum.c **** 
 657:Source\mbedtls_open\library/bignum.c ****     plen = strlen( p );
ARM GAS  C:\Users\Phuong\AppData\Local\Temp\cciUg6zJ.s 			page 15


 658:Source\mbedtls_open\library/bignum.c ****     slen = strlen( s );
 659:Source\mbedtls_open\library/bignum.c ****     s[slen++] = '\r';
 660:Source\mbedtls_open\library/bignum.c ****     s[slen++] = '\n';
 661:Source\mbedtls_open\library/bignum.c **** 
 662:Source\mbedtls_open\library/bignum.c ****     if( fout != NULL )
 663:Source\mbedtls_open\library/bignum.c ****     {
 664:Source\mbedtls_open\library/bignum.c ****         if( fwrite( p, 1, plen, fout ) != plen ||
 665:Source\mbedtls_open\library/bignum.c ****             fwrite( s, 1, slen, fout ) != slen )
 666:Source\mbedtls_open\library/bignum.c ****             return( MBEDTLS_ERR_MPI_FILE_IO_ERROR );
 667:Source\mbedtls_open\library/bignum.c ****     }
 668:Source\mbedtls_open\library/bignum.c ****     else
 669:Source\mbedtls_open\library/bignum.c ****         mbedtls_printf( "%s%s", p, s );
 670:Source\mbedtls_open\library/bignum.c **** 
 671:Source\mbedtls_open\library/bignum.c **** cleanup:
 672:Source\mbedtls_open\library/bignum.c **** 
 673:Source\mbedtls_open\library/bignum.c ****     return( ret );
 674:Source\mbedtls_open\library/bignum.c **** }
 675:Source\mbedtls_open\library/bignum.c **** #endif /* MBEDTLS_FS_IO */
 676:Source\mbedtls_open\library/bignum.c **** 
 677:Source\mbedtls_open\library/bignum.c **** /*
 678:Source\mbedtls_open\library/bignum.c ****  * Import X from unsigned binary data, big endian
 679:Source\mbedtls_open\library/bignum.c ****  */
 680:Source\mbedtls_open\library/bignum.c **** int mbedtls_mpi_read_binary( mbedtls_mpi *X, const unsigned char *buf, size_t buflen )
 681:Source\mbedtls_open\library/bignum.c **** {
 682:Source\mbedtls_open\library/bignum.c ****     int ret;
 683:Source\mbedtls_open\library/bignum.c ****     size_t i, j;
 684:Source\mbedtls_open\library/bignum.c ****     size_t const limbs = CHARS_TO_LIMBS( buflen );
 685:Source\mbedtls_open\library/bignum.c **** 
 686:Source\mbedtls_open\library/bignum.c ****     /* Ensure that target MPI has exactly the necessary number of limbs */
 687:Source\mbedtls_open\library/bignum.c ****     if( X->n != limbs )
 688:Source\mbedtls_open\library/bignum.c ****     {
 689:Source\mbedtls_open\library/bignum.c ****         mbedtls_mpi_free( X );
 690:Source\mbedtls_open\library/bignum.c ****         mbedtls_mpi_init( X );
 691:Source\mbedtls_open\library/bignum.c ****         MBEDTLS_MPI_CHK( mbedtls_mpi_grow( X, limbs ) );
 692:Source\mbedtls_open\library/bignum.c ****     }
 693:Source\mbedtls_open\library/bignum.c **** 
 694:Source\mbedtls_open\library/bignum.c ****     MBEDTLS_MPI_CHK( mbedtls_mpi_lset( X, 0 ) );
 695:Source\mbedtls_open\library/bignum.c **** 
 696:Source\mbedtls_open\library/bignum.c ****     for( i = buflen, j = 0; i > 0; i--, j++ )
 697:Source\mbedtls_open\library/bignum.c ****         X->p[j / ciL] |= ((mbedtls_mpi_uint) buf[i - 1]) << ((j % ciL) << 3);
 698:Source\mbedtls_open\library/bignum.c **** 
 699:Source\mbedtls_open\library/bignum.c **** cleanup:
 700:Source\mbedtls_open\library/bignum.c **** 
 701:Source\mbedtls_open\library/bignum.c ****     return( ret );
 702:Source\mbedtls_open\library/bignum.c **** }
 703:Source\mbedtls_open\library/bignum.c **** 
 704:Source\mbedtls_open\library/bignum.c **** /*
 705:Source\mbedtls_open\library/bignum.c ****  * Export X into unsigned binary data, big endian
 706:Source\mbedtls_open\library/bignum.c ****  */
 707:Source\mbedtls_open\library/bignum.c **** int mbedtls_mpi_write_binary( const mbedtls_mpi *X, unsigned char *buf, size_t buflen )
 708:Source\mbedtls_open\library/bignum.c **** {
 709:Source\mbedtls_open\library/bignum.c ****     size_t i, j, n;
 710:Source\mbedtls_open\library/bignum.c **** 
 711:Source\mbedtls_open\library/bignum.c ****     n = mbedtls_mpi_size( X );
 712:Source\mbedtls_open\library/bignum.c **** 
 713:Source\mbedtls_open\library/bignum.c ****     if( buflen < n )
 714:Source\mbedtls_open\library/bignum.c ****         return( MBEDTLS_ERR_MPI_BUFFER_TOO_SMALL );
ARM GAS  C:\Users\Phuong\AppData\Local\Temp\cciUg6zJ.s 			page 16


 715:Source\mbedtls_open\library/bignum.c **** 
 716:Source\mbedtls_open\library/bignum.c ****     memset( buf, 0, buflen );
 717:Source\mbedtls_open\library/bignum.c **** 
 718:Source\mbedtls_open\library/bignum.c ****     for( i = buflen - 1, j = 0; n > 0; i--, j++, n-- )
 719:Source\mbedtls_open\library/bignum.c ****         buf[i] = (unsigned char)( X->p[j / ciL] >> ((j % ciL) << 3) );
 720:Source\mbedtls_open\library/bignum.c **** 
 721:Source\mbedtls_open\library/bignum.c ****     return( 0 );
 722:Source\mbedtls_open\library/bignum.c **** }
 723:Source\mbedtls_open\library/bignum.c **** 
 724:Source\mbedtls_open\library/bignum.c **** /*
 725:Source\mbedtls_open\library/bignum.c ****  * Left-shift: X <<= count
 726:Source\mbedtls_open\library/bignum.c ****  */
 727:Source\mbedtls_open\library/bignum.c **** int mbedtls_mpi_shift_l( mbedtls_mpi *X, size_t count )
 728:Source\mbedtls_open\library/bignum.c **** {
 729:Source\mbedtls_open\library/bignum.c ****     int ret;
 730:Source\mbedtls_open\library/bignum.c ****     size_t i, v0, t1;
 731:Source\mbedtls_open\library/bignum.c ****     mbedtls_mpi_uint r0 = 0, r1;
 732:Source\mbedtls_open\library/bignum.c **** 
 733:Source\mbedtls_open\library/bignum.c ****     v0 = count / (biL    );
 734:Source\mbedtls_open\library/bignum.c ****     t1 = count & (biL - 1);
 735:Source\mbedtls_open\library/bignum.c **** 
 736:Source\mbedtls_open\library/bignum.c ****     i = mbedtls_mpi_bitlen( X ) + count;
 737:Source\mbedtls_open\library/bignum.c **** 
 738:Source\mbedtls_open\library/bignum.c ****     if( X->n * biL < i )
 739:Source\mbedtls_open\library/bignum.c ****         MBEDTLS_MPI_CHK( mbedtls_mpi_grow( X, BITS_TO_LIMBS( i ) ) );
 740:Source\mbedtls_open\library/bignum.c **** 
 741:Source\mbedtls_open\library/bignum.c ****     ret = 0;
 742:Source\mbedtls_open\library/bignum.c **** 
 743:Source\mbedtls_open\library/bignum.c ****     /*
 744:Source\mbedtls_open\library/bignum.c ****      * shift by count / limb_size
 745:Source\mbedtls_open\library/bignum.c ****      */
 746:Source\mbedtls_open\library/bignum.c ****     if( v0 > 0 )
 747:Source\mbedtls_open\library/bignum.c ****     {
 748:Source\mbedtls_open\library/bignum.c ****         for( i = X->n; i > v0; i-- )
 749:Source\mbedtls_open\library/bignum.c ****             X->p[i - 1] = X->p[i - v0 - 1];
 750:Source\mbedtls_open\library/bignum.c **** 
 751:Source\mbedtls_open\library/bignum.c ****         for( ; i > 0; i-- )
 752:Source\mbedtls_open\library/bignum.c ****             X->p[i - 1] = 0;
 753:Source\mbedtls_open\library/bignum.c ****     }
 754:Source\mbedtls_open\library/bignum.c **** 
 755:Source\mbedtls_open\library/bignum.c ****     /*
 756:Source\mbedtls_open\library/bignum.c ****      * shift by count % limb_size
 757:Source\mbedtls_open\library/bignum.c ****      */
 758:Source\mbedtls_open\library/bignum.c ****     if( t1 > 0 )
 759:Source\mbedtls_open\library/bignum.c ****     {
 760:Source\mbedtls_open\library/bignum.c ****         for( i = v0; i < X->n; i++ )
 761:Source\mbedtls_open\library/bignum.c ****         {
 762:Source\mbedtls_open\library/bignum.c ****             r1 = X->p[i] >> (biL - t1);
 763:Source\mbedtls_open\library/bignum.c ****             X->p[i] <<= t1;
 764:Source\mbedtls_open\library/bignum.c ****             X->p[i] |= r0;
 765:Source\mbedtls_open\library/bignum.c ****             r0 = r1;
 766:Source\mbedtls_open\library/bignum.c ****         }
 767:Source\mbedtls_open\library/bignum.c ****     }
 768:Source\mbedtls_open\library/bignum.c **** 
 769:Source\mbedtls_open\library/bignum.c **** cleanup:
 770:Source\mbedtls_open\library/bignum.c **** 
 771:Source\mbedtls_open\library/bignum.c ****     return( ret );
ARM GAS  C:\Users\Phuong\AppData\Local\Temp\cciUg6zJ.s 			page 17


 772:Source\mbedtls_open\library/bignum.c **** }
 773:Source\mbedtls_open\library/bignum.c **** 
 774:Source\mbedtls_open\library/bignum.c **** /*
 775:Source\mbedtls_open\library/bignum.c ****  * Right-shift: X >>= count
 776:Source\mbedtls_open\library/bignum.c ****  */
 777:Source\mbedtls_open\library/bignum.c **** int mbedtls_mpi_shift_r( mbedtls_mpi *X, size_t count )
 778:Source\mbedtls_open\library/bignum.c **** {
 779:Source\mbedtls_open\library/bignum.c ****     size_t i, v0, v1;
 780:Source\mbedtls_open\library/bignum.c ****     mbedtls_mpi_uint r0 = 0, r1;
 781:Source\mbedtls_open\library/bignum.c **** 
 782:Source\mbedtls_open\library/bignum.c ****     v0 = count /  biL;
 783:Source\mbedtls_open\library/bignum.c ****     v1 = count & (biL - 1);
 784:Source\mbedtls_open\library/bignum.c **** 
 785:Source\mbedtls_open\library/bignum.c ****     if( v0 > X->n || ( v0 == X->n && v1 > 0 ) )
 786:Source\mbedtls_open\library/bignum.c ****         return mbedtls_mpi_lset( X, 0 );
 787:Source\mbedtls_open\library/bignum.c **** 
 788:Source\mbedtls_open\library/bignum.c ****     /*
 789:Source\mbedtls_open\library/bignum.c ****      * shift by count / limb_size
 790:Source\mbedtls_open\library/bignum.c ****      */
 791:Source\mbedtls_open\library/bignum.c ****     if( v0 > 0 )
 792:Source\mbedtls_open\library/bignum.c ****     {
 793:Source\mbedtls_open\library/bignum.c ****         for( i = 0; i < X->n - v0; i++ )
 794:Source\mbedtls_open\library/bignum.c ****             X->p[i] = X->p[i + v0];
 795:Source\mbedtls_open\library/bignum.c **** 
 796:Source\mbedtls_open\library/bignum.c ****         for( ; i < X->n; i++ )
 797:Source\mbedtls_open\library/bignum.c ****             X->p[i] = 0;
 798:Source\mbedtls_open\library/bignum.c ****     }
 799:Source\mbedtls_open\library/bignum.c **** 
 800:Source\mbedtls_open\library/bignum.c ****     /*
 801:Source\mbedtls_open\library/bignum.c ****      * shift by count % limb_size
 802:Source\mbedtls_open\library/bignum.c ****      */
 803:Source\mbedtls_open\library/bignum.c ****     if( v1 > 0 )
 804:Source\mbedtls_open\library/bignum.c ****     {
 805:Source\mbedtls_open\library/bignum.c ****         for( i = X->n; i > 0; i-- )
 806:Source\mbedtls_open\library/bignum.c ****         {
 807:Source\mbedtls_open\library/bignum.c ****             r1 = X->p[i - 1] << (biL - v1);
 808:Source\mbedtls_open\library/bignum.c ****             X->p[i - 1] >>= v1;
 809:Source\mbedtls_open\library/bignum.c ****             X->p[i - 1] |= r0;
 810:Source\mbedtls_open\library/bignum.c ****             r0 = r1;
 811:Source\mbedtls_open\library/bignum.c ****         }
 812:Source\mbedtls_open\library/bignum.c ****     }
 813:Source\mbedtls_open\library/bignum.c **** 
 814:Source\mbedtls_open\library/bignum.c ****     return( 0 );
 815:Source\mbedtls_open\library/bignum.c **** }
 816:Source\mbedtls_open\library/bignum.c **** 
 817:Source\mbedtls_open\library/bignum.c **** /*
 818:Source\mbedtls_open\library/bignum.c ****  * Compare unsigned values
 819:Source\mbedtls_open\library/bignum.c ****  */
 820:Source\mbedtls_open\library/bignum.c **** int mbedtls_mpi_cmp_abs( const mbedtls_mpi *X, const mbedtls_mpi *Y )
 821:Source\mbedtls_open\library/bignum.c **** {
 822:Source\mbedtls_open\library/bignum.c ****     size_t i, j;
 823:Source\mbedtls_open\library/bignum.c **** 
 824:Source\mbedtls_open\library/bignum.c ****     for( i = X->n; i > 0; i-- )
 825:Source\mbedtls_open\library/bignum.c ****         if( X->p[i - 1] != 0 )
 826:Source\mbedtls_open\library/bignum.c ****             break;
 827:Source\mbedtls_open\library/bignum.c **** 
 828:Source\mbedtls_open\library/bignum.c ****     for( j = Y->n; j > 0; j-- )
ARM GAS  C:\Users\Phuong\AppData\Local\Temp\cciUg6zJ.s 			page 18


 829:Source\mbedtls_open\library/bignum.c ****         if( Y->p[j - 1] != 0 )
 830:Source\mbedtls_open\library/bignum.c ****             break;
 831:Source\mbedtls_open\library/bignum.c **** 
 832:Source\mbedtls_open\library/bignum.c ****     if( i == 0 && j == 0 )
 833:Source\mbedtls_open\library/bignum.c ****         return( 0 );
 834:Source\mbedtls_open\library/bignum.c **** 
 835:Source\mbedtls_open\library/bignum.c ****     if( i > j ) return(  1 );
 836:Source\mbedtls_open\library/bignum.c ****     if( j > i ) return( -1 );
 837:Source\mbedtls_open\library/bignum.c **** 
 838:Source\mbedtls_open\library/bignum.c ****     for( ; i > 0; i-- )
 839:Source\mbedtls_open\library/bignum.c ****     {
 840:Source\mbedtls_open\library/bignum.c ****         if( X->p[i - 1] > Y->p[i - 1] ) return(  1 );
 841:Source\mbedtls_open\library/bignum.c ****         if( X->p[i - 1] < Y->p[i - 1] ) return( -1 );
 842:Source\mbedtls_open\library/bignum.c ****     }
 843:Source\mbedtls_open\library/bignum.c **** 
 844:Source\mbedtls_open\library/bignum.c ****     return( 0 );
 845:Source\mbedtls_open\library/bignum.c **** }
 846:Source\mbedtls_open\library/bignum.c **** 
 847:Source\mbedtls_open\library/bignum.c **** /*
 848:Source\mbedtls_open\library/bignum.c ****  * Compare signed values
 849:Source\mbedtls_open\library/bignum.c ****  */
 850:Source\mbedtls_open\library/bignum.c **** int mbedtls_mpi_cmp_mpi( const mbedtls_mpi *X, const mbedtls_mpi *Y )
 851:Source\mbedtls_open\library/bignum.c **** {
 852:Source\mbedtls_open\library/bignum.c ****     size_t i, j;
 853:Source\mbedtls_open\library/bignum.c **** 
 854:Source\mbedtls_open\library/bignum.c ****     for( i = X->n; i > 0; i-- )
 855:Source\mbedtls_open\library/bignum.c ****         if( X->p[i - 1] != 0 )
 856:Source\mbedtls_open\library/bignum.c ****             break;
 857:Source\mbedtls_open\library/bignum.c **** 
 858:Source\mbedtls_open\library/bignum.c ****     for( j = Y->n; j > 0; j-- )
 859:Source\mbedtls_open\library/bignum.c ****         if( Y->p[j - 1] != 0 )
 860:Source\mbedtls_open\library/bignum.c ****             break;
 861:Source\mbedtls_open\library/bignum.c **** 
 862:Source\mbedtls_open\library/bignum.c ****     if( i == 0 && j == 0 )
 863:Source\mbedtls_open\library/bignum.c ****         return( 0 );
 864:Source\mbedtls_open\library/bignum.c **** 
 865:Source\mbedtls_open\library/bignum.c ****     if( i > j ) return(  X->s );
 866:Source\mbedtls_open\library/bignum.c ****     if( j > i ) return( -Y->s );
 867:Source\mbedtls_open\library/bignum.c **** 
 868:Source\mbedtls_open\library/bignum.c ****     if( X->s > 0 && Y->s < 0 ) return(  1 );
 869:Source\mbedtls_open\library/bignum.c ****     if( Y->s > 0 && X->s < 0 ) return( -1 );
 870:Source\mbedtls_open\library/bignum.c **** 
 871:Source\mbedtls_open\library/bignum.c ****     for( ; i > 0; i-- )
 872:Source\mbedtls_open\library/bignum.c ****     {
 873:Source\mbedtls_open\library/bignum.c ****         if( X->p[i - 1] > Y->p[i - 1] ) return(  X->s );
 874:Source\mbedtls_open\library/bignum.c ****         if( X->p[i - 1] < Y->p[i - 1] ) return( -X->s );
 875:Source\mbedtls_open\library/bignum.c ****     }
 876:Source\mbedtls_open\library/bignum.c **** 
 877:Source\mbedtls_open\library/bignum.c ****     return( 0 );
 878:Source\mbedtls_open\library/bignum.c **** }
 879:Source\mbedtls_open\library/bignum.c **** 
 880:Source\mbedtls_open\library/bignum.c **** /*
 881:Source\mbedtls_open\library/bignum.c ****  * Compare signed values
 882:Source\mbedtls_open\library/bignum.c ****  */
 883:Source\mbedtls_open\library/bignum.c **** int mbedtls_mpi_cmp_int( const mbedtls_mpi *X, mbedtls_mpi_sint z )
 884:Source\mbedtls_open\library/bignum.c **** {
 885:Source\mbedtls_open\library/bignum.c ****     mbedtls_mpi Y;
ARM GAS  C:\Users\Phuong\AppData\Local\Temp\cciUg6zJ.s 			page 19


 886:Source\mbedtls_open\library/bignum.c ****     mbedtls_mpi_uint p[1];
 887:Source\mbedtls_open\library/bignum.c **** 
 888:Source\mbedtls_open\library/bignum.c ****     *p  = ( z < 0 ) ? -z : z;
 889:Source\mbedtls_open\library/bignum.c ****     Y.s = ( z < 0 ) ? -1 : 1;
 890:Source\mbedtls_open\library/bignum.c ****     Y.n = 1;
 891:Source\mbedtls_open\library/bignum.c ****     Y.p = p;
 892:Source\mbedtls_open\library/bignum.c **** 
 893:Source\mbedtls_open\library/bignum.c ****     return( mbedtls_mpi_cmp_mpi( X, &Y ) );
 894:Source\mbedtls_open\library/bignum.c **** }
 895:Source\mbedtls_open\library/bignum.c **** 
 896:Source\mbedtls_open\library/bignum.c **** /*
 897:Source\mbedtls_open\library/bignum.c ****  * Unsigned addition: X = |A| + |B|  (HAC 14.7)
 898:Source\mbedtls_open\library/bignum.c ****  */
 899:Source\mbedtls_open\library/bignum.c **** int mbedtls_mpi_add_abs( mbedtls_mpi *X, const mbedtls_mpi *A, const mbedtls_mpi *B )
 900:Source\mbedtls_open\library/bignum.c **** {
 901:Source\mbedtls_open\library/bignum.c ****     int ret;
 902:Source\mbedtls_open\library/bignum.c ****     size_t i, j;
 903:Source\mbedtls_open\library/bignum.c ****     mbedtls_mpi_uint *o, *p, c, tmp;
 904:Source\mbedtls_open\library/bignum.c **** 
 905:Source\mbedtls_open\library/bignum.c ****     if( X == B )
 906:Source\mbedtls_open\library/bignum.c ****     {
 907:Source\mbedtls_open\library/bignum.c ****         const mbedtls_mpi *T = A; A = X; B = T;
 908:Source\mbedtls_open\library/bignum.c ****     }
 909:Source\mbedtls_open\library/bignum.c **** 
 910:Source\mbedtls_open\library/bignum.c ****     if( X != A )
 911:Source\mbedtls_open\library/bignum.c ****         MBEDTLS_MPI_CHK( mbedtls_mpi_copy( X, A ) );
 912:Source\mbedtls_open\library/bignum.c **** 
 913:Source\mbedtls_open\library/bignum.c ****     /*
 914:Source\mbedtls_open\library/bignum.c ****      * X should always be positive as a result of unsigned additions.
 915:Source\mbedtls_open\library/bignum.c ****      */
 916:Source\mbedtls_open\library/bignum.c ****     X->s = 1;
 917:Source\mbedtls_open\library/bignum.c **** 
 918:Source\mbedtls_open\library/bignum.c ****     for( j = B->n; j > 0; j-- )
 919:Source\mbedtls_open\library/bignum.c ****         if( B->p[j - 1] != 0 )
 920:Source\mbedtls_open\library/bignum.c ****             break;
 921:Source\mbedtls_open\library/bignum.c **** 
 922:Source\mbedtls_open\library/bignum.c ****     MBEDTLS_MPI_CHK( mbedtls_mpi_grow( X, j ) );
 923:Source\mbedtls_open\library/bignum.c **** 
 924:Source\mbedtls_open\library/bignum.c ****     o = B->p; p = X->p; c = 0;
 925:Source\mbedtls_open\library/bignum.c **** 
 926:Source\mbedtls_open\library/bignum.c ****     /*
 927:Source\mbedtls_open\library/bignum.c ****      * tmp is used because it might happen that p == o
 928:Source\mbedtls_open\library/bignum.c ****      */
 929:Source\mbedtls_open\library/bignum.c ****     for( i = 0; i < j; i++, o++, p++ )
 930:Source\mbedtls_open\library/bignum.c ****     {
 931:Source\mbedtls_open\library/bignum.c ****         tmp= *o;
 932:Source\mbedtls_open\library/bignum.c ****         *p +=  c; c  = ( *p <  c );
 933:Source\mbedtls_open\library/bignum.c ****         *p += tmp; c += ( *p < tmp );
 934:Source\mbedtls_open\library/bignum.c ****     }
 935:Source\mbedtls_open\library/bignum.c **** 
 936:Source\mbedtls_open\library/bignum.c ****     while( c != 0 )
 937:Source\mbedtls_open\library/bignum.c ****     {
 938:Source\mbedtls_open\library/bignum.c ****         if( i >= X->n )
 939:Source\mbedtls_open\library/bignum.c ****         {
 940:Source\mbedtls_open\library/bignum.c ****             MBEDTLS_MPI_CHK( mbedtls_mpi_grow( X, i + 1 ) );
 941:Source\mbedtls_open\library/bignum.c ****             p = X->p + i;
 942:Source\mbedtls_open\library/bignum.c ****         }
ARM GAS  C:\Users\Phuong\AppData\Local\Temp\cciUg6zJ.s 			page 20


 943:Source\mbedtls_open\library/bignum.c **** 
 944:Source\mbedtls_open\library/bignum.c ****         *p += c; c = ( *p < c ); i++; p++;
 945:Source\mbedtls_open\library/bignum.c ****     }
 946:Source\mbedtls_open\library/bignum.c **** 
 947:Source\mbedtls_open\library/bignum.c **** cleanup:
 948:Source\mbedtls_open\library/bignum.c **** 
 949:Source\mbedtls_open\library/bignum.c ****     return( ret );
 950:Source\mbedtls_open\library/bignum.c **** }
 951:Source\mbedtls_open\library/bignum.c **** 
 952:Source\mbedtls_open\library/bignum.c **** /*
 953:Source\mbedtls_open\library/bignum.c ****  * Helper for mbedtls_mpi subtraction
 954:Source\mbedtls_open\library/bignum.c ****  */
 955:Source\mbedtls_open\library/bignum.c **** static void mpi_sub_hlp( size_t n, mbedtls_mpi_uint *s, mbedtls_mpi_uint *d )
 956:Source\mbedtls_open\library/bignum.c **** {
 140              		.loc 1 956 0
 141              		.cfi_startproc
 142              		@ args = 0, pretend = 0, frame = 0
 143              		@ frame_needed = 0, uses_anonymous_args = 0
 144              	.LVL10:
 145 0000 F0B5     		push	{r4, r5, r6, r7, lr}
 146              		.cfi_def_cfa_offset 20
 147              		.cfi_offset 4, -20
 148              		.cfi_offset 5, -16
 149              		.cfi_offset 6, -12
 150              		.cfi_offset 7, -8
 151              		.cfi_offset 14, -4
 152              	.LVL11:
 957:Source\mbedtls_open\library/bignum.c ****     size_t i;
 958:Source\mbedtls_open\library/bignum.c ****     mbedtls_mpi_uint c, z;
 959:Source\mbedtls_open\library/bignum.c **** 
 960:Source\mbedtls_open\library/bignum.c ****     for( i = c = 0; i < n; i++, s++, d++ )
 153              		.loc 1 960 0
 154 0002 0023     		movs	r3, #0
 155 0004 0026     		movs	r6, #0
 156 0006 0DE0     		b	.L12
 157              	.LVL12:
 158              	.L13:
 961:Source\mbedtls_open\library/bignum.c ****     {
 962:Source\mbedtls_open\library/bignum.c ****         z = ( *d <  c );     *d -=  c;
 159              		.loc 1 962 0 discriminator 3
 160 0008 1468     		ldr	r4, [r2]
 161 000a 9C42     		cmp	r4, r3
 162 000c AD41     		sbcs	r5, r5, r5
 163 000e 6D42     		rsbs	r5, r5, #0
 164              	.LVL13:
 165 0010 E41A     		subs	r4, r4, r3
 166 0012 1460     		str	r4, [r2]
 963:Source\mbedtls_open\library/bignum.c ****         c = ( *d < *s ) + z; *d -= *s;
 167              		.loc 1 963 0 discriminator 3
 168 0014 80C9     		ldmia	r1!, {r7}
 169              	.LVL14:
 170 0016 BC42     		cmp	r4, r7
 171 0018 9B41     		sbcs	r3, r3, r3
 172              	.LVL15:
 173 001a 5B42     		rsbs	r3, r3, #0
 174 001c EB18     		adds	r3, r5, r3
 175              	.LVL16:
ARM GAS  C:\Users\Phuong\AppData\Local\Temp\cciUg6zJ.s 			page 21


 176 001e E41B     		subs	r4, r4, r7
 177 0020 10C2     		stmia	r2!, {r4}
 178              	.LVL17:
 960:Source\mbedtls_open\library/bignum.c ****     {
 179              		.loc 1 960 0 discriminator 3
 180 0022 0136     		adds	r6, r6, #1
 181              	.LVL18:
 182              	.L12:
 960:Source\mbedtls_open\library/bignum.c ****     {
 183              		.loc 1 960 0 is_stmt 0 discriminator 1
 184 0024 8642     		cmp	r6, r0
 185 0026 EFD3     		bcc	.L13
 186 0028 05E0     		b	.L14
 187              	.LVL19:
 188              	.L15:
 964:Source\mbedtls_open\library/bignum.c ****     }
 965:Source\mbedtls_open\library/bignum.c **** 
 966:Source\mbedtls_open\library/bignum.c ****     while( c != 0 )
 967:Source\mbedtls_open\library/bignum.c ****     {
 968:Source\mbedtls_open\library/bignum.c ****         z = ( *d < c ); *d -= c;
 189              		.loc 1 968 0 is_stmt 1
 190 002a 1168     		ldr	r1, [r2]
 191              	.LVL20:
 192 002c C81A     		subs	r0, r1, r3
 193 002e 01C2     		stmia	r2!, {r0}
 194              	.LVL21:
 969:Source\mbedtls_open\library/bignum.c ****         c = z; d++;
 195              		.loc 1 969 0
 196 0030 9942     		cmp	r1, r3
 197 0032 9B41     		sbcs	r3, r3, r3
 198              	.LVL22:
 199 0034 5B42     		rsbs	r3, r3, #0
 200              	.L14:
 201              	.LVL23:
 966:Source\mbedtls_open\library/bignum.c ****     {
 202              		.loc 1 966 0
 203 0036 002B     		cmp	r3, #0
 204 0038 F7D1     		bne	.L15
 970:Source\mbedtls_open\library/bignum.c ****     }
 971:Source\mbedtls_open\library/bignum.c **** }
 205              		.loc 1 971 0
 206              		@ sp needed
 207              	.LVL24:
 208 003a F0BD     		pop	{r4, r5, r6, r7, pc}
 209              		.cfi_endproc
 210              	.LFE29:
 211              		.size	mpi_sub_hlp, .-mpi_sub_hlp
 212              		.section	.text.mpi_mul_hlp,"ax",%progbits
 213              		.align	2
 214              		.code	16
 215              		.thumb_func
 216              		.type	mpi_mul_hlp, %function
 217              	mpi_mul_hlp:
 218              	.LFB35:
 972:Source\mbedtls_open\library/bignum.c **** 
 973:Source\mbedtls_open\library/bignum.c **** /*
 974:Source\mbedtls_open\library/bignum.c ****  * Unsigned subtraction: X = |A| - |B|  (HAC 14.9)
ARM GAS  C:\Users\Phuong\AppData\Local\Temp\cciUg6zJ.s 			page 22


 975:Source\mbedtls_open\library/bignum.c ****  */
 976:Source\mbedtls_open\library/bignum.c **** int mbedtls_mpi_sub_abs( mbedtls_mpi *X, const mbedtls_mpi *A, const mbedtls_mpi *B )
 977:Source\mbedtls_open\library/bignum.c **** {
 978:Source\mbedtls_open\library/bignum.c ****     mbedtls_mpi TB;
 979:Source\mbedtls_open\library/bignum.c ****     int ret;
 980:Source\mbedtls_open\library/bignum.c ****     size_t n;
 981:Source\mbedtls_open\library/bignum.c **** 
 982:Source\mbedtls_open\library/bignum.c ****     if( mbedtls_mpi_cmp_abs( A, B ) < 0 )
 983:Source\mbedtls_open\library/bignum.c ****         return( MBEDTLS_ERR_MPI_NEGATIVE_VALUE );
 984:Source\mbedtls_open\library/bignum.c **** 
 985:Source\mbedtls_open\library/bignum.c ****     mbedtls_mpi_init( &TB );
 986:Source\mbedtls_open\library/bignum.c **** 
 987:Source\mbedtls_open\library/bignum.c ****     if( X == B )
 988:Source\mbedtls_open\library/bignum.c ****     {
 989:Source\mbedtls_open\library/bignum.c ****         MBEDTLS_MPI_CHK( mbedtls_mpi_copy( &TB, B ) );
 990:Source\mbedtls_open\library/bignum.c ****         B = &TB;
 991:Source\mbedtls_open\library/bignum.c ****     }
 992:Source\mbedtls_open\library/bignum.c **** 
 993:Source\mbedtls_open\library/bignum.c ****     if( X != A )
 994:Source\mbedtls_open\library/bignum.c ****         MBEDTLS_MPI_CHK( mbedtls_mpi_copy( X, A ) );
 995:Source\mbedtls_open\library/bignum.c **** 
 996:Source\mbedtls_open\library/bignum.c ****     /*
 997:Source\mbedtls_open\library/bignum.c ****      * X should always be positive as a result of unsigned subtractions.
 998:Source\mbedtls_open\library/bignum.c ****      */
 999:Source\mbedtls_open\library/bignum.c ****     X->s = 1;
1000:Source\mbedtls_open\library/bignum.c **** 
1001:Source\mbedtls_open\library/bignum.c ****     ret = 0;
1002:Source\mbedtls_open\library/bignum.c **** 
1003:Source\mbedtls_open\library/bignum.c ****     for( n = B->n; n > 0; n-- )
1004:Source\mbedtls_open\library/bignum.c ****         if( B->p[n - 1] != 0 )
1005:Source\mbedtls_open\library/bignum.c ****             break;
1006:Source\mbedtls_open\library/bignum.c **** 
1007:Source\mbedtls_open\library/bignum.c ****     mpi_sub_hlp( n, B->p, X->p );
1008:Source\mbedtls_open\library/bignum.c **** 
1009:Source\mbedtls_open\library/bignum.c **** cleanup:
1010:Source\mbedtls_open\library/bignum.c **** 
1011:Source\mbedtls_open\library/bignum.c ****     mbedtls_mpi_free( &TB );
1012:Source\mbedtls_open\library/bignum.c **** 
1013:Source\mbedtls_open\library/bignum.c ****     return( ret );
1014:Source\mbedtls_open\library/bignum.c **** }
1015:Source\mbedtls_open\library/bignum.c **** 
1016:Source\mbedtls_open\library/bignum.c **** /*
1017:Source\mbedtls_open\library/bignum.c ****  * Signed addition: X = A + B
1018:Source\mbedtls_open\library/bignum.c ****  */
1019:Source\mbedtls_open\library/bignum.c **** int mbedtls_mpi_add_mpi( mbedtls_mpi *X, const mbedtls_mpi *A, const mbedtls_mpi *B )
1020:Source\mbedtls_open\library/bignum.c **** {
1021:Source\mbedtls_open\library/bignum.c ****     int ret, s = A->s;
1022:Source\mbedtls_open\library/bignum.c **** 
1023:Source\mbedtls_open\library/bignum.c ****     if( A->s * B->s < 0 )
1024:Source\mbedtls_open\library/bignum.c ****     {
1025:Source\mbedtls_open\library/bignum.c ****         if( mbedtls_mpi_cmp_abs( A, B ) >= 0 )
1026:Source\mbedtls_open\library/bignum.c ****         {
1027:Source\mbedtls_open\library/bignum.c ****             MBEDTLS_MPI_CHK( mbedtls_mpi_sub_abs( X, A, B ) );
1028:Source\mbedtls_open\library/bignum.c ****             X->s =  s;
1029:Source\mbedtls_open\library/bignum.c ****         }
1030:Source\mbedtls_open\library/bignum.c ****         else
1031:Source\mbedtls_open\library/bignum.c ****         {
ARM GAS  C:\Users\Phuong\AppData\Local\Temp\cciUg6zJ.s 			page 23


1032:Source\mbedtls_open\library/bignum.c ****             MBEDTLS_MPI_CHK( mbedtls_mpi_sub_abs( X, B, A ) );
1033:Source\mbedtls_open\library/bignum.c ****             X->s = -s;
1034:Source\mbedtls_open\library/bignum.c ****         }
1035:Source\mbedtls_open\library/bignum.c ****     }
1036:Source\mbedtls_open\library/bignum.c ****     else
1037:Source\mbedtls_open\library/bignum.c ****     {
1038:Source\mbedtls_open\library/bignum.c ****         MBEDTLS_MPI_CHK( mbedtls_mpi_add_abs( X, A, B ) );
1039:Source\mbedtls_open\library/bignum.c ****         X->s = s;
1040:Source\mbedtls_open\library/bignum.c ****     }
1041:Source\mbedtls_open\library/bignum.c **** 
1042:Source\mbedtls_open\library/bignum.c **** cleanup:
1043:Source\mbedtls_open\library/bignum.c **** 
1044:Source\mbedtls_open\library/bignum.c ****     return( ret );
1045:Source\mbedtls_open\library/bignum.c **** }
1046:Source\mbedtls_open\library/bignum.c **** 
1047:Source\mbedtls_open\library/bignum.c **** /*
1048:Source\mbedtls_open\library/bignum.c ****  * Signed subtraction: X = A - B
1049:Source\mbedtls_open\library/bignum.c ****  */
1050:Source\mbedtls_open\library/bignum.c **** int mbedtls_mpi_sub_mpi( mbedtls_mpi *X, const mbedtls_mpi *A, const mbedtls_mpi *B )
1051:Source\mbedtls_open\library/bignum.c **** {
1052:Source\mbedtls_open\library/bignum.c ****     int ret, s = A->s;
1053:Source\mbedtls_open\library/bignum.c **** 
1054:Source\mbedtls_open\library/bignum.c ****     if( A->s * B->s > 0 )
1055:Source\mbedtls_open\library/bignum.c ****     {
1056:Source\mbedtls_open\library/bignum.c ****         if( mbedtls_mpi_cmp_abs( A, B ) >= 0 )
1057:Source\mbedtls_open\library/bignum.c ****         {
1058:Source\mbedtls_open\library/bignum.c ****             MBEDTLS_MPI_CHK( mbedtls_mpi_sub_abs( X, A, B ) );
1059:Source\mbedtls_open\library/bignum.c ****             X->s =  s;
1060:Source\mbedtls_open\library/bignum.c ****         }
1061:Source\mbedtls_open\library/bignum.c ****         else
1062:Source\mbedtls_open\library/bignum.c ****         {
1063:Source\mbedtls_open\library/bignum.c ****             MBEDTLS_MPI_CHK( mbedtls_mpi_sub_abs( X, B, A ) );
1064:Source\mbedtls_open\library/bignum.c ****             X->s = -s;
1065:Source\mbedtls_open\library/bignum.c ****         }
1066:Source\mbedtls_open\library/bignum.c ****     }
1067:Source\mbedtls_open\library/bignum.c ****     else
1068:Source\mbedtls_open\library/bignum.c ****     {
1069:Source\mbedtls_open\library/bignum.c ****         MBEDTLS_MPI_CHK( mbedtls_mpi_add_abs( X, A, B ) );
1070:Source\mbedtls_open\library/bignum.c ****         X->s = s;
1071:Source\mbedtls_open\library/bignum.c ****     }
1072:Source\mbedtls_open\library/bignum.c **** 
1073:Source\mbedtls_open\library/bignum.c **** cleanup:
1074:Source\mbedtls_open\library/bignum.c **** 
1075:Source\mbedtls_open\library/bignum.c ****     return( ret );
1076:Source\mbedtls_open\library/bignum.c **** }
1077:Source\mbedtls_open\library/bignum.c **** 
1078:Source\mbedtls_open\library/bignum.c **** /*
1079:Source\mbedtls_open\library/bignum.c ****  * Signed addition: X = A + b
1080:Source\mbedtls_open\library/bignum.c ****  */
1081:Source\mbedtls_open\library/bignum.c **** int mbedtls_mpi_add_int( mbedtls_mpi *X, const mbedtls_mpi *A, mbedtls_mpi_sint b )
1082:Source\mbedtls_open\library/bignum.c **** {
1083:Source\mbedtls_open\library/bignum.c ****     mbedtls_mpi _B;
1084:Source\mbedtls_open\library/bignum.c ****     mbedtls_mpi_uint p[1];
1085:Source\mbedtls_open\library/bignum.c **** 
1086:Source\mbedtls_open\library/bignum.c ****     p[0] = ( b < 0 ) ? -b : b;
1087:Source\mbedtls_open\library/bignum.c ****     _B.s = ( b < 0 ) ? -1 : 1;
1088:Source\mbedtls_open\library/bignum.c ****     _B.n = 1;
ARM GAS  C:\Users\Phuong\AppData\Local\Temp\cciUg6zJ.s 			page 24


1089:Source\mbedtls_open\library/bignum.c ****     _B.p = p;
1090:Source\mbedtls_open\library/bignum.c **** 
1091:Source\mbedtls_open\library/bignum.c ****     return( mbedtls_mpi_add_mpi( X, A, &_B ) );
1092:Source\mbedtls_open\library/bignum.c **** }
1093:Source\mbedtls_open\library/bignum.c **** 
1094:Source\mbedtls_open\library/bignum.c **** /*
1095:Source\mbedtls_open\library/bignum.c ****  * Signed subtraction: X = A - b
1096:Source\mbedtls_open\library/bignum.c ****  */
1097:Source\mbedtls_open\library/bignum.c **** int mbedtls_mpi_sub_int( mbedtls_mpi *X, const mbedtls_mpi *A, mbedtls_mpi_sint b )
1098:Source\mbedtls_open\library/bignum.c **** {
1099:Source\mbedtls_open\library/bignum.c ****     mbedtls_mpi _B;
1100:Source\mbedtls_open\library/bignum.c ****     mbedtls_mpi_uint p[1];
1101:Source\mbedtls_open\library/bignum.c **** 
1102:Source\mbedtls_open\library/bignum.c ****     p[0] = ( b < 0 ) ? -b : b;
1103:Source\mbedtls_open\library/bignum.c ****     _B.s = ( b < 0 ) ? -1 : 1;
1104:Source\mbedtls_open\library/bignum.c ****     _B.n = 1;
1105:Source\mbedtls_open\library/bignum.c ****     _B.p = p;
1106:Source\mbedtls_open\library/bignum.c **** 
1107:Source\mbedtls_open\library/bignum.c ****     return( mbedtls_mpi_sub_mpi( X, A, &_B ) );
1108:Source\mbedtls_open\library/bignum.c **** }
1109:Source\mbedtls_open\library/bignum.c **** 
1110:Source\mbedtls_open\library/bignum.c **** /*
1111:Source\mbedtls_open\library/bignum.c ****  * Helper for mbedtls_mpi multiplication
1112:Source\mbedtls_open\library/bignum.c ****  */
1113:Source\mbedtls_open\library/bignum.c **** static
1114:Source\mbedtls_open\library/bignum.c **** #if defined(__APPLE__) && defined(__arm__)
1115:Source\mbedtls_open\library/bignum.c **** /*
1116:Source\mbedtls_open\library/bignum.c ****  * Apple LLVM version 4.2 (clang-425.0.24) (based on LLVM 3.2svn)
1117:Source\mbedtls_open\library/bignum.c ****  * appears to need this to prevent bad ARM code generation at -O3.
1118:Source\mbedtls_open\library/bignum.c ****  */
1119:Source\mbedtls_open\library/bignum.c **** __attribute__ ((noinline))
1120:Source\mbedtls_open\library/bignum.c **** #endif
1121:Source\mbedtls_open\library/bignum.c **** void mpi_mul_hlp( size_t i, mbedtls_mpi_uint *s, mbedtls_mpi_uint *d, mbedtls_mpi_uint b )
1122:Source\mbedtls_open\library/bignum.c **** {
 219              		.loc 1 1122 0
 220              		.cfi_startproc
 221              		@ args = 0, pretend = 0, frame = 24
 222              		@ frame_needed = 0, uses_anonymous_args = 0
 223              	.LVL25:
 224 0000 F0B5     		push	{r4, r5, r6, r7, lr}
 225              		.cfi_def_cfa_offset 20
 226              		.cfi_offset 4, -20
 227              		.cfi_offset 5, -16
 228              		.cfi_offset 6, -12
 229              		.cfi_offset 7, -8
 230              		.cfi_offset 14, -4
 231 0002 4F46     		mov	r7, r9
 232 0004 4646     		mov	r6, r8
 233 0006 C0B4     		push	{r6, r7}
 234              		.cfi_def_cfa_offset 28
 235              		.cfi_offset 8, -28
 236              		.cfi_offset 9, -24
 237 0008 87B0     		sub	sp, sp, #28
 238              		.cfi_def_cfa_offset 56
 239 000a 8446     		mov	ip, r0
 240 000c 0391     		str	r1, [sp, #12]
 241 000e 0292     		str	r2, [sp, #8]
ARM GAS  C:\Users\Phuong\AppData\Local\Temp\cciUg6zJ.s 			page 25


 242 0010 0193     		str	r3, [sp, #4]
1123:Source\mbedtls_open\library/bignum.c ****     mbedtls_mpi_uint c = 0, t = 0;
 243              		.loc 1 1123 0
 244 0012 0023     		movs	r3, #0
 245              	.LVL26:
 246 0014 0593     		str	r3, [sp, #20]
 247              	.LVL27:
1124:Source\mbedtls_open\library/bignum.c **** 
1125:Source\mbedtls_open\library/bignum.c **** #if defined(MULADDC_HUIT)
1126:Source\mbedtls_open\library/bignum.c ****     for( ; i >= 8; i -= 8 )
1127:Source\mbedtls_open\library/bignum.c ****     {
1128:Source\mbedtls_open\library/bignum.c ****         MULADDC_INIT
1129:Source\mbedtls_open\library/bignum.c ****         MULADDC_HUIT
1130:Source\mbedtls_open\library/bignum.c ****         MULADDC_STOP
1131:Source\mbedtls_open\library/bignum.c ****     }
1132:Source\mbedtls_open\library/bignum.c **** 
1133:Source\mbedtls_open\library/bignum.c ****     for( ; i > 0; i-- )
1134:Source\mbedtls_open\library/bignum.c ****     {
1135:Source\mbedtls_open\library/bignum.c ****         MULADDC_INIT
1136:Source\mbedtls_open\library/bignum.c ****         MULADDC_CORE
1137:Source\mbedtls_open\library/bignum.c ****         MULADDC_STOP
1138:Source\mbedtls_open\library/bignum.c ****     }
1139:Source\mbedtls_open\library/bignum.c **** #else /* MULADDC_HUIT */
1140:Source\mbedtls_open\library/bignum.c ****     for( ; i >= 16; i -= 16 )
 248              		.loc 1 1140 0
 249 0016 DFE1     		b	.L17
 250              	.LVL28:
 251              	.L18:
1141:Source\mbedtls_open\library/bignum.c ****     {
1142:Source\mbedtls_open\library/bignum.c ****         MULADDC_INIT
 252              		.loc 1 1142 0 discriminator 2
 253              		.syntax divided
 254              	@ 1142 "Source\mbedtls_open\library\bignum.c" 1
 255 0018 0398     		ldr    r0, [sp, #12]                      
 256 001a 0299     		ldr    r1, [sp, #8]                      
 257 001c 059A     		ldr    r2, [sp, #20]                      
 258 001e 019B     		ldr    r3, [sp, #4]                      
 259 0020 1F0C     		lsr    r7, r3, #16                 
 260 0022 B946     		mov    r9, r7                      
 261 0024 1F04     		lsl    r7, r3, #16                 
 262 0026 3F0C     		lsr    r7, r7, #16                 
 263 0028 B846     		mov    r8, r7                      
 264 002a 40C8     		ldmia  r0!, {r6}                   
 265 002c 370C     		lsr    r7, r6, #16                 
 266 002e 3604     		lsl    r6, r6, #16                 
 267 0030 360C     		lsr    r6, r6, #16                 
 268 0032 4446     		mov    r4, r8                      
 269 0034 7443     		mul    r4, r6                      
 270 0036 4B46     		mov    r3, r9                      
 271 0038 5E43     		mul    r6, r3                      
 272 003a 4D46     		mov    r5, r9                      
 273 003c 7D43     		mul    r5, r7                      
 274 003e 4346     		mov    r3, r8                      
 275 0040 5F43     		mul    r7, r3                      
 276 0042 330C     		lsr    r3, r6, #16                 
 277 0044 ED18     		add    r5, r5, r3                  
 278 0046 3B0C     		lsr    r3, r7, #16                 
ARM GAS  C:\Users\Phuong\AppData\Local\Temp\cciUg6zJ.s 			page 26


 279 0048 ED18     		add    r5, r5, r3                  
 280 004a A418     		add    r4, r4, r2                  
 281 004c 0022     		mov    r2, #0                      
 282 004e 5541     		adc    r5, r2                      
 283 0050 3304     		lsl    r3, r6, #16                 
 284 0052 E418     		add    r4, r4, r3                  
 285 0054 5541     		adc    r5, r2                      
 286 0056 3B04     		lsl    r3, r7, #16                 
 287 0058 E418     		add    r4, r4, r3                  
 288 005a 5541     		adc    r5, r2                      
 289 005c 0B68     		ldr    r3, [r1]                    
 290 005e E418     		add    r4, r4, r3                  
 291 0060 6A41     		adc    r2, r5                      
 292 0062 10C1     		stmia  r1!, {r4}                   
 293 0064 40C8     		ldmia  r0!, {r6}                   
 294 0066 370C     		lsr    r7, r6, #16                 
 295 0068 3604     		lsl    r6, r6, #16                 
 296 006a 360C     		lsr    r6, r6, #16                 
 297 006c 4446     		mov    r4, r8                      
 298 006e 7443     		mul    r4, r6                      
 299 0070 4B46     		mov    r3, r9                      
 300 0072 5E43     		mul    r6, r3                      
 301 0074 4D46     		mov    r5, r9                      
 302 0076 7D43     		mul    r5, r7                      
 303 0078 4346     		mov    r3, r8                      
 304 007a 5F43     		mul    r7, r3                      
 305 007c 330C     		lsr    r3, r6, #16                 
 306 007e ED18     		add    r5, r5, r3                  
 307 0080 3B0C     		lsr    r3, r7, #16                 
 308 0082 ED18     		add    r5, r5, r3                  
 309 0084 A418     		add    r4, r4, r2                  
 310 0086 0022     		mov    r2, #0                      
 311 0088 5541     		adc    r5, r2                      
 312 008a 3304     		lsl    r3, r6, #16                 
 313 008c E418     		add    r4, r4, r3                  
 314 008e 5541     		adc    r5, r2                      
 315 0090 3B04     		lsl    r3, r7, #16                 
 316 0092 E418     		add    r4, r4, r3                  
 317 0094 5541     		adc    r5, r2                      
 318 0096 0B68     		ldr    r3, [r1]                    
 319 0098 E418     		add    r4, r4, r3                  
 320 009a 6A41     		adc    r2, r5                      
 321 009c 10C1     		stmia  r1!, {r4}                   
 322 009e 40C8     		ldmia  r0!, {r6}                   
 323 00a0 370C     		lsr    r7, r6, #16                 
 324 00a2 3604     		lsl    r6, r6, #16                 
 325 00a4 360C     		lsr    r6, r6, #16                 
 326 00a6 4446     		mov    r4, r8                      
 327 00a8 7443     		mul    r4, r6                      
 328 00aa 4B46     		mov    r3, r9                      
 329 00ac 5E43     		mul    r6, r3                      
 330 00ae 4D46     		mov    r5, r9                      
 331 00b0 7D43     		mul    r5, r7                      
 332 00b2 4346     		mov    r3, r8                      
 333 00b4 5F43     		mul    r7, r3                      
 334 00b6 330C     		lsr    r3, r6, #16                 
 335 00b8 ED18     		add    r5, r5, r3                  
ARM GAS  C:\Users\Phuong\AppData\Local\Temp\cciUg6zJ.s 			page 27


 336 00ba 3B0C     		lsr    r3, r7, #16                 
 337 00bc ED18     		add    r5, r5, r3                  
 338 00be A418     		add    r4, r4, r2                  
 339 00c0 0022     		mov    r2, #0                      
 340 00c2 5541     		adc    r5, r2                      
 341 00c4 3304     		lsl    r3, r6, #16                 
 342 00c6 E418     		add    r4, r4, r3                  
 343 00c8 5541     		adc    r5, r2                      
 344 00ca 3B04     		lsl    r3, r7, #16                 
 345 00cc E418     		add    r4, r4, r3                  
 346 00ce 5541     		adc    r5, r2                      
 347 00d0 0B68     		ldr    r3, [r1]                    
 348 00d2 E418     		add    r4, r4, r3                  
 349 00d4 6A41     		adc    r2, r5                      
 350 00d6 10C1     		stmia  r1!, {r4}                   
 351 00d8 40C8     		ldmia  r0!, {r6}                   
 352 00da 370C     		lsr    r7, r6, #16                 
 353 00dc 3604     		lsl    r6, r6, #16                 
 354 00de 360C     		lsr    r6, r6, #16                 
 355 00e0 4446     		mov    r4, r8                      
 356 00e2 7443     		mul    r4, r6                      
 357 00e4 4B46     		mov    r3, r9                      
 358 00e6 5E43     		mul    r6, r3                      
 359 00e8 4D46     		mov    r5, r9                      
 360 00ea 7D43     		mul    r5, r7                      
 361 00ec 4346     		mov    r3, r8                      
 362 00ee 5F43     		mul    r7, r3                      
 363 00f0 330C     		lsr    r3, r6, #16                 
 364 00f2 ED18     		add    r5, r5, r3                  
 365 00f4 3B0C     		lsr    r3, r7, #16                 
 366 00f6 ED18     		add    r5, r5, r3                  
 367 00f8 A418     		add    r4, r4, r2                  
 368 00fa 0022     		mov    r2, #0                      
 369 00fc 5541     		adc    r5, r2                      
 370 00fe 3304     		lsl    r3, r6, #16                 
 371 0100 E418     		add    r4, r4, r3                  
 372 0102 5541     		adc    r5, r2                      
 373 0104 3B04     		lsl    r3, r7, #16                 
 374 0106 E418     		add    r4, r4, r3                  
 375 0108 5541     		adc    r5, r2                      
 376 010a 0B68     		ldr    r3, [r1]                    
 377 010c E418     		add    r4, r4, r3                  
 378 010e 6A41     		adc    r2, r5                      
 379 0110 10C1     		stmia  r1!, {r4}                   
 380 0112 40C8     		ldmia  r0!, {r6}                   
 381 0114 370C     		lsr    r7, r6, #16                 
 382 0116 3604     		lsl    r6, r6, #16                 
 383 0118 360C     		lsr    r6, r6, #16                 
 384 011a 4446     		mov    r4, r8                      
 385 011c 7443     		mul    r4, r6                      
 386 011e 4B46     		mov    r3, r9                      
 387 0120 5E43     		mul    r6, r3                      
 388 0122 4D46     		mov    r5, r9                      
 389 0124 7D43     		mul    r5, r7                      
 390 0126 4346     		mov    r3, r8                      
 391 0128 5F43     		mul    r7, r3                      
 392 012a 330C     		lsr    r3, r6, #16                 
ARM GAS  C:\Users\Phuong\AppData\Local\Temp\cciUg6zJ.s 			page 28


 393 012c ED18     		add    r5, r5, r3                  
 394 012e 3B0C     		lsr    r3, r7, #16                 
 395 0130 ED18     		add    r5, r5, r3                  
 396 0132 A418     		add    r4, r4, r2                  
 397 0134 0022     		mov    r2, #0                      
 398 0136 5541     		adc    r5, r2                      
 399 0138 3304     		lsl    r3, r6, #16                 
 400 013a E418     		add    r4, r4, r3                  
 401 013c 5541     		adc    r5, r2                      
 402 013e 3B04     		lsl    r3, r7, #16                 
 403 0140 E418     		add    r4, r4, r3                  
 404 0142 5541     		adc    r5, r2                      
 405 0144 0B68     		ldr    r3, [r1]                    
 406 0146 E418     		add    r4, r4, r3                  
 407 0148 6A41     		adc    r2, r5                      
 408 014a 10C1     		stmia  r1!, {r4}                   
 409 014c 40C8     		ldmia  r0!, {r6}                   
 410 014e 370C     		lsr    r7, r6, #16                 
 411 0150 3604     		lsl    r6, r6, #16                 
 412 0152 360C     		lsr    r6, r6, #16                 
 413 0154 4446     		mov    r4, r8                      
 414 0156 7443     		mul    r4, r6                      
 415 0158 4B46     		mov    r3, r9                      
 416 015a 5E43     		mul    r6, r3                      
 417 015c 4D46     		mov    r5, r9                      
 418 015e 7D43     		mul    r5, r7                      
 419 0160 4346     		mov    r3, r8                      
 420 0162 5F43     		mul    r7, r3                      
 421 0164 330C     		lsr    r3, r6, #16                 
 422 0166 ED18     		add    r5, r5, r3                  
 423 0168 3B0C     		lsr    r3, r7, #16                 
 424 016a ED18     		add    r5, r5, r3                  
 425 016c A418     		add    r4, r4, r2                  
 426 016e 0022     		mov    r2, #0                      
 427 0170 5541     		adc    r5, r2                      
 428 0172 3304     		lsl    r3, r6, #16                 
 429 0174 E418     		add    r4, r4, r3                  
 430 0176 5541     		adc    r5, r2                      
 431 0178 3B04     		lsl    r3, r7, #16                 
 432 017a E418     		add    r4, r4, r3                  
 433 017c 5541     		adc    r5, r2                      
 434 017e 0B68     		ldr    r3, [r1]                    
 435 0180 E418     		add    r4, r4, r3                  
 436 0182 6A41     		adc    r2, r5                      
 437 0184 10C1     		stmia  r1!, {r4}                   
 438 0186 40C8     		ldmia  r0!, {r6}                   
 439 0188 370C     		lsr    r7, r6, #16                 
 440 018a 3604     		lsl    r6, r6, #16                 
 441 018c 360C     		lsr    r6, r6, #16                 
 442 018e 4446     		mov    r4, r8                      
 443 0190 7443     		mul    r4, r6                      
 444 0192 4B46     		mov    r3, r9                      
 445 0194 5E43     		mul    r6, r3                      
 446 0196 4D46     		mov    r5, r9                      
 447 0198 7D43     		mul    r5, r7                      
 448 019a 4346     		mov    r3, r8                      
 449 019c 5F43     		mul    r7, r3                      
ARM GAS  C:\Users\Phuong\AppData\Local\Temp\cciUg6zJ.s 			page 29


 450 019e 330C     		lsr    r3, r6, #16                 
 451 01a0 ED18     		add    r5, r5, r3                  
 452 01a2 3B0C     		lsr    r3, r7, #16                 
 453 01a4 ED18     		add    r5, r5, r3                  
 454 01a6 A418     		add    r4, r4, r2                  
 455 01a8 0022     		mov    r2, #0                      
 456 01aa 5541     		adc    r5, r2                      
 457 01ac 3304     		lsl    r3, r6, #16                 
 458 01ae E418     		add    r4, r4, r3                  
 459 01b0 5541     		adc    r5, r2                      
 460 01b2 3B04     		lsl    r3, r7, #16                 
 461 01b4 E418     		add    r4, r4, r3                  
 462 01b6 5541     		adc    r5, r2                      
 463 01b8 0B68     		ldr    r3, [r1]                    
 464 01ba E418     		add    r4, r4, r3                  
 465 01bc 6A41     		adc    r2, r5                      
 466 01be 10C1     		stmia  r1!, {r4}                   
 467 01c0 40C8     		ldmia  r0!, {r6}                   
 468 01c2 370C     		lsr    r7, r6, #16                 
 469 01c4 3604     		lsl    r6, r6, #16                 
 470 01c6 360C     		lsr    r6, r6, #16                 
 471 01c8 4446     		mov    r4, r8                      
 472 01ca 7443     		mul    r4, r6                      
 473 01cc 4B46     		mov    r3, r9                      
 474 01ce 5E43     		mul    r6, r3                      
 475 01d0 4D46     		mov    r5, r9                      
 476 01d2 7D43     		mul    r5, r7                      
 477 01d4 4346     		mov    r3, r8                      
 478 01d6 5F43     		mul    r7, r3                      
 479 01d8 330C     		lsr    r3, r6, #16                 
 480 01da ED18     		add    r5, r5, r3                  
 481 01dc 3B0C     		lsr    r3, r7, #16                 
 482 01de ED18     		add    r5, r5, r3                  
 483 01e0 A418     		add    r4, r4, r2                  
 484 01e2 0022     		mov    r2, #0                      
 485 01e4 5541     		adc    r5, r2                      
 486 01e6 3304     		lsl    r3, r6, #16                 
 487 01e8 E418     		add    r4, r4, r3                  
 488 01ea 5541     		adc    r5, r2                      
 489 01ec 3B04     		lsl    r3, r7, #16                 
 490 01ee E418     		add    r4, r4, r3                  
 491 01f0 5541     		adc    r5, r2                      
 492 01f2 0B68     		ldr    r3, [r1]                    
 493 01f4 E418     		add    r4, r4, r3                  
 494 01f6 6A41     		adc    r2, r5                      
 495 01f8 10C1     		stmia  r1!, {r4}                   
 496 01fa 40C8     		ldmia  r0!, {r6}                   
 497 01fc 370C     		lsr    r7, r6, #16                 
 498 01fe 3604     		lsl    r6, r6, #16                 
 499 0200 360C     		lsr    r6, r6, #16                 
 500 0202 4446     		mov    r4, r8                      
 501 0204 7443     		mul    r4, r6                      
 502 0206 4B46     		mov    r3, r9                      
 503 0208 5E43     		mul    r6, r3                      
 504 020a 4D46     		mov    r5, r9                      
 505 020c 7D43     		mul    r5, r7                      
 506 020e 4346     		mov    r3, r8                      
ARM GAS  C:\Users\Phuong\AppData\Local\Temp\cciUg6zJ.s 			page 30


 507 0210 5F43     		mul    r7, r3                      
 508 0212 330C     		lsr    r3, r6, #16                 
 509 0214 ED18     		add    r5, r5, r3                  
 510 0216 3B0C     		lsr    r3, r7, #16                 
 511 0218 ED18     		add    r5, r5, r3                  
 512 021a A418     		add    r4, r4, r2                  
 513 021c 0022     		mov    r2, #0                      
 514 021e 5541     		adc    r5, r2                      
 515 0220 3304     		lsl    r3, r6, #16                 
 516 0222 E418     		add    r4, r4, r3                  
 517 0224 5541     		adc    r5, r2                      
 518 0226 3B04     		lsl    r3, r7, #16                 
 519 0228 E418     		add    r4, r4, r3                  
 520 022a 5541     		adc    r5, r2                      
 521 022c 0B68     		ldr    r3, [r1]                    
 522 022e E418     		add    r4, r4, r3                  
 523 0230 6A41     		adc    r2, r5                      
 524 0232 10C1     		stmia  r1!, {r4}                   
 525 0234 40C8     		ldmia  r0!, {r6}                   
 526 0236 370C     		lsr    r7, r6, #16                 
 527 0238 3604     		lsl    r6, r6, #16                 
 528 023a 360C     		lsr    r6, r6, #16                 
 529 023c 4446     		mov    r4, r8                      
 530 023e 7443     		mul    r4, r6                      
 531 0240 4B46     		mov    r3, r9                      
 532 0242 5E43     		mul    r6, r3                      
 533 0244 4D46     		mov    r5, r9                      
 534 0246 7D43     		mul    r5, r7                      
 535 0248 4346     		mov    r3, r8                      
 536 024a 5F43     		mul    r7, r3                      
 537 024c 330C     		lsr    r3, r6, #16                 
 538 024e ED18     		add    r5, r5, r3                  
 539 0250 3B0C     		lsr    r3, r7, #16                 
 540 0252 ED18     		add    r5, r5, r3                  
 541 0254 A418     		add    r4, r4, r2                  
 542 0256 0022     		mov    r2, #0                      
 543 0258 5541     		adc    r5, r2                      
 544 025a 3304     		lsl    r3, r6, #16                 
 545 025c E418     		add    r4, r4, r3                  
 546 025e 5541     		adc    r5, r2                      
 547 0260 3B04     		lsl    r3, r7, #16                 
 548 0262 E418     		add    r4, r4, r3                  
 549 0264 5541     		adc    r5, r2                      
 550 0266 0B68     		ldr    r3, [r1]                    
 551 0268 E418     		add    r4, r4, r3                  
 552 026a 6A41     		adc    r2, r5                      
 553 026c 10C1     		stmia  r1!, {r4}                   
 554 026e 40C8     		ldmia  r0!, {r6}                   
 555 0270 370C     		lsr    r7, r6, #16                 
 556 0272 3604     		lsl    r6, r6, #16                 
 557 0274 360C     		lsr    r6, r6, #16                 
 558 0276 4446     		mov    r4, r8                      
 559 0278 7443     		mul    r4, r6                      
 560 027a 4B46     		mov    r3, r9                      
 561 027c 5E43     		mul    r6, r3                      
 562 027e 4D46     		mov    r5, r9                      
 563 0280 7D43     		mul    r5, r7                      
ARM GAS  C:\Users\Phuong\AppData\Local\Temp\cciUg6zJ.s 			page 31


 564 0282 4346     		mov    r3, r8                      
 565 0284 5F43     		mul    r7, r3                      
 566 0286 330C     		lsr    r3, r6, #16                 
 567 0288 ED18     		add    r5, r5, r3                  
 568 028a 3B0C     		lsr    r3, r7, #16                 
 569 028c ED18     		add    r5, r5, r3                  
 570 028e A418     		add    r4, r4, r2                  
 571 0290 0022     		mov    r2, #0                      
 572 0292 5541     		adc    r5, r2                      
 573 0294 3304     		lsl    r3, r6, #16                 
 574 0296 E418     		add    r4, r4, r3                  
 575 0298 5541     		adc    r5, r2                      
 576 029a 3B04     		lsl    r3, r7, #16                 
 577 029c E418     		add    r4, r4, r3                  
 578 029e 5541     		adc    r5, r2                      
 579 02a0 0B68     		ldr    r3, [r1]                    
 580 02a2 E418     		add    r4, r4, r3                  
 581 02a4 6A41     		adc    r2, r5                      
 582 02a6 10C1     		stmia  r1!, {r4}                   
 583 02a8 40C8     		ldmia  r0!, {r6}                   
 584 02aa 370C     		lsr    r7, r6, #16                 
 585 02ac 3604     		lsl    r6, r6, #16                 
 586 02ae 360C     		lsr    r6, r6, #16                 
 587 02b0 4446     		mov    r4, r8                      
 588 02b2 7443     		mul    r4, r6                      
 589 02b4 4B46     		mov    r3, r9                      
 590 02b6 5E43     		mul    r6, r3                      
 591 02b8 4D46     		mov    r5, r9                      
 592 02ba 7D43     		mul    r5, r7                      
 593 02bc 4346     		mov    r3, r8                      
 594 02be 5F43     		mul    r7, r3                      
 595 02c0 330C     		lsr    r3, r6, #16                 
 596 02c2 ED18     		add    r5, r5, r3                  
 597 02c4 3B0C     		lsr    r3, r7, #16                 
 598 02c6 ED18     		add    r5, r5, r3                  
 599 02c8 A418     		add    r4, r4, r2                  
 600 02ca 0022     		mov    r2, #0                      
 601 02cc 5541     		adc    r5, r2                      
 602 02ce 3304     		lsl    r3, r6, #16                 
 603 02d0 E418     		add    r4, r4, r3                  
 604 02d2 5541     		adc    r5, r2                      
 605 02d4 3B04     		lsl    r3, r7, #16                 
 606 02d6 E418     		add    r4, r4, r3                  
 607 02d8 5541     		adc    r5, r2                      
 608 02da 0B68     		ldr    r3, [r1]                    
 609 02dc E418     		add    r4, r4, r3                  
 610 02de 6A41     		adc    r2, r5                      
 611 02e0 10C1     		stmia  r1!, {r4}                   
 612 02e2 40C8     		ldmia  r0!, {r6}                   
 613 02e4 370C     		lsr    r7, r6, #16                 
 614 02e6 3604     		lsl    r6, r6, #16                 
 615 02e8 360C     		lsr    r6, r6, #16                 
 616 02ea 4446     		mov    r4, r8                      
 617 02ec 7443     		mul    r4, r6                      
 618 02ee 4B46     		mov    r3, r9                      
 619 02f0 5E43     		mul    r6, r3                      
 620 02f2 4D46     		mov    r5, r9                      
ARM GAS  C:\Users\Phuong\AppData\Local\Temp\cciUg6zJ.s 			page 32


 621 02f4 7D43     		mul    r5, r7                      
 622 02f6 4346     		mov    r3, r8                      
 623 02f8 5F43     		mul    r7, r3                      
 624 02fa 330C     		lsr    r3, r6, #16                 
 625 02fc ED18     		add    r5, r5, r3                  
 626 02fe 3B0C     		lsr    r3, r7, #16                 
 627 0300 ED18     		add    r5, r5, r3                  
 628 0302 A418     		add    r4, r4, r2                  
 629 0304 0022     		mov    r2, #0                      
 630 0306 5541     		adc    r5, r2                      
 631 0308 3304     		lsl    r3, r6, #16                 
 632 030a E418     		add    r4, r4, r3                  
 633 030c 5541     		adc    r5, r2                      
 634 030e 3B04     		lsl    r3, r7, #16                 
 635 0310 E418     		add    r4, r4, r3                  
 636 0312 5541     		adc    r5, r2                      
 637 0314 0B68     		ldr    r3, [r1]                    
 638 0316 E418     		add    r4, r4, r3                  
 639 0318 6A41     		adc    r2, r5                      
 640 031a 10C1     		stmia  r1!, {r4}                   
 641 031c 40C8     		ldmia  r0!, {r6}                   
 642 031e 370C     		lsr    r7, r6, #16                 
 643 0320 3604     		lsl    r6, r6, #16                 
 644 0322 360C     		lsr    r6, r6, #16                 
 645 0324 4446     		mov    r4, r8                      
 646 0326 7443     		mul    r4, r6                      
 647 0328 4B46     		mov    r3, r9                      
 648 032a 5E43     		mul    r6, r3                      
 649 032c 4D46     		mov    r5, r9                      
 650 032e 7D43     		mul    r5, r7                      
 651 0330 4346     		mov    r3, r8                      
 652 0332 5F43     		mul    r7, r3                      
 653 0334 330C     		lsr    r3, r6, #16                 
 654 0336 ED18     		add    r5, r5, r3                  
 655 0338 3B0C     		lsr    r3, r7, #16                 
 656 033a ED18     		add    r5, r5, r3                  
 657 033c A418     		add    r4, r4, r2                  
 658 033e 0022     		mov    r2, #0                      
 659 0340 5541     		adc    r5, r2                      
 660 0342 3304     		lsl    r3, r6, #16                 
 661 0344 E418     		add    r4, r4, r3                  
 662 0346 5541     		adc    r5, r2                      
 663 0348 3B04     		lsl    r3, r7, #16                 
 664 034a E418     		add    r4, r4, r3                  
 665 034c 5541     		adc    r5, r2                      
 666 034e 0B68     		ldr    r3, [r1]                    
 667 0350 E418     		add    r4, r4, r3                  
 668 0352 6A41     		adc    r2, r5                      
 669 0354 10C1     		stmia  r1!, {r4}                   
 670 0356 40C8     		ldmia  r0!, {r6}                   
 671 0358 370C     		lsr    r7, r6, #16                 
 672 035a 3604     		lsl    r6, r6, #16                 
 673 035c 360C     		lsr    r6, r6, #16                 
 674 035e 4446     		mov    r4, r8                      
 675 0360 7443     		mul    r4, r6                      
 676 0362 4B46     		mov    r3, r9                      
 677 0364 5E43     		mul    r6, r3                      
ARM GAS  C:\Users\Phuong\AppData\Local\Temp\cciUg6zJ.s 			page 33


 678 0366 4D46     		mov    r5, r9                      
 679 0368 7D43     		mul    r5, r7                      
 680 036a 4346     		mov    r3, r8                      
 681 036c 5F43     		mul    r7, r3                      
 682 036e 330C     		lsr    r3, r6, #16                 
 683 0370 ED18     		add    r5, r5, r3                  
 684 0372 3B0C     		lsr    r3, r7, #16                 
 685 0374 ED18     		add    r5, r5, r3                  
 686 0376 A418     		add    r4, r4, r2                  
 687 0378 0022     		mov    r2, #0                      
 688 037a 5541     		adc    r5, r2                      
 689 037c 3304     		lsl    r3, r6, #16                 
 690 037e E418     		add    r4, r4, r3                  
 691 0380 5541     		adc    r5, r2                      
 692 0382 3B04     		lsl    r3, r7, #16                 
 693 0384 E418     		add    r4, r4, r3                  
 694 0386 5541     		adc    r5, r2                      
 695 0388 0B68     		ldr    r3, [r1]                    
 696 038a E418     		add    r4, r4, r3                  
 697 038c 6A41     		adc    r2, r5                      
 698 038e 10C1     		stmia  r1!, {r4}                   
 699 0390 40C8     		ldmia  r0!, {r6}                   
 700 0392 370C     		lsr    r7, r6, #16                 
 701 0394 3604     		lsl    r6, r6, #16                 
 702 0396 360C     		lsr    r6, r6, #16                 
 703 0398 4446     		mov    r4, r8                      
 704 039a 7443     		mul    r4, r6                      
 705 039c 4B46     		mov    r3, r9                      
 706 039e 5E43     		mul    r6, r3                      
 707 03a0 4D46     		mov    r5, r9                      
 708 03a2 7D43     		mul    r5, r7                      
 709 03a4 4346     		mov    r3, r8                      
 710 03a6 5F43     		mul    r7, r3                      
 711 03a8 330C     		lsr    r3, r6, #16                 
 712 03aa ED18     		add    r5, r5, r3                  
 713 03ac 3B0C     		lsr    r3, r7, #16                 
 714 03ae ED18     		add    r5, r5, r3                  
 715 03b0 A418     		add    r4, r4, r2                  
 716 03b2 0022     		mov    r2, #0                      
 717 03b4 5541     		adc    r5, r2                      
 718 03b6 3304     		lsl    r3, r6, #16                 
 719 03b8 E418     		add    r4, r4, r3                  
 720 03ba 5541     		adc    r5, r2                      
 721 03bc 3B04     		lsl    r3, r7, #16                 
 722 03be E418     		add    r4, r4, r3                  
 723 03c0 5541     		adc    r5, r2                      
 724 03c2 0B68     		ldr    r3, [r1]                    
 725 03c4 E418     		add    r4, r4, r3                  
 726 03c6 6A41     		adc    r2, r5                      
 727 03c8 10C1     		stmia  r1!, {r4}                   
 728 03ca 0592     		str    r2, [sp, #20]                      
 729 03cc 0291     		str    r1, [sp, #8]                      
 730 03ce 0390     		str    r0, [sp, #12]                      
 731              		
 732              	@ 0 "" 2
 733              	.LVL29:
1140:Source\mbedtls_open\library/bignum.c ****     {
ARM GAS  C:\Users\Phuong\AppData\Local\Temp\cciUg6zJ.s 			page 34


 734              		.loc 1 1140 0 discriminator 2
 735              		.thumb
 736              		.syntax unified
 737 03d0 1023     		movs	r3, #16
 738 03d2 5B42     		rsbs	r3, r3, #0
 739 03d4 9846     		mov	r8, r3
 740 03d6 C444     		add	ip, ip, r8
 741              	.LVL30:
 742              	.L17:
1140:Source\mbedtls_open\library/bignum.c ****     {
 743              		.loc 1 1140 0 is_stmt 0 discriminator 1
 744 03d8 6346     		mov	r3, ip
 745 03da 0F2B     		cmp	r3, #15
 746 03dc 00D9     		bls	.LCB263
 747 03de 1BE6     		b	.L18	@long jump
 748              	.LCB263:
 749              	.LVL31:
 750 03e0 F7E0     		b	.L19
 751              	.L20:
1143:Source\mbedtls_open\library/bignum.c ****         MULADDC_CORE   MULADDC_CORE
1144:Source\mbedtls_open\library/bignum.c ****         MULADDC_CORE   MULADDC_CORE
1145:Source\mbedtls_open\library/bignum.c ****         MULADDC_CORE   MULADDC_CORE
1146:Source\mbedtls_open\library/bignum.c ****         MULADDC_CORE   MULADDC_CORE
1147:Source\mbedtls_open\library/bignum.c **** 
1148:Source\mbedtls_open\library/bignum.c ****         MULADDC_CORE   MULADDC_CORE
1149:Source\mbedtls_open\library/bignum.c ****         MULADDC_CORE   MULADDC_CORE
1150:Source\mbedtls_open\library/bignum.c ****         MULADDC_CORE   MULADDC_CORE
1151:Source\mbedtls_open\library/bignum.c ****         MULADDC_CORE   MULADDC_CORE
1152:Source\mbedtls_open\library/bignum.c ****         MULADDC_STOP
1153:Source\mbedtls_open\library/bignum.c ****     }
1154:Source\mbedtls_open\library/bignum.c **** 
1155:Source\mbedtls_open\library/bignum.c ****     for( ; i >= 8; i -= 8 )
1156:Source\mbedtls_open\library/bignum.c ****     {
1157:Source\mbedtls_open\library/bignum.c ****         MULADDC_INIT
 752              		.loc 1 1157 0 is_stmt 1 discriminator 2
 753              		.syntax divided
 754              	@ 1157 "Source\mbedtls_open\library\bignum.c" 1
 755 03e2 0398     		ldr    r0, [sp, #12]                      
 756 03e4 0299     		ldr    r1, [sp, #8]                      
 757 03e6 059A     		ldr    r2, [sp, #20]                      
 758 03e8 019B     		ldr    r3, [sp, #4]                      
 759 03ea 1F0C     		lsr    r7, r3, #16                 
 760 03ec B946     		mov    r9, r7                      
 761 03ee 1F04     		lsl    r7, r3, #16                 
 762 03f0 3F0C     		lsr    r7, r7, #16                 
 763 03f2 B846     		mov    r8, r7                      
 764 03f4 40C8     		ldmia  r0!, {r6}                   
 765 03f6 370C     		lsr    r7, r6, #16                 
 766 03f8 3604     		lsl    r6, r6, #16                 
 767 03fa 360C     		lsr    r6, r6, #16                 
 768 03fc 4446     		mov    r4, r8                      
 769 03fe 7443     		mul    r4, r6                      
 770 0400 4B46     		mov    r3, r9                      
 771 0402 5E43     		mul    r6, r3                      
 772 0404 4D46     		mov    r5, r9                      
 773 0406 7D43     		mul    r5, r7                      
 774 0408 4346     		mov    r3, r8                      
ARM GAS  C:\Users\Phuong\AppData\Local\Temp\cciUg6zJ.s 			page 35


 775 040a 5F43     		mul    r7, r3                      
 776 040c 330C     		lsr    r3, r6, #16                 
 777 040e ED18     		add    r5, r5, r3                  
 778 0410 3B0C     		lsr    r3, r7, #16                 
 779 0412 ED18     		add    r5, r5, r3                  
 780 0414 A418     		add    r4, r4, r2                  
 781 0416 0022     		mov    r2, #0                      
 782 0418 5541     		adc    r5, r2                      
 783 041a 3304     		lsl    r3, r6, #16                 
 784 041c E418     		add    r4, r4, r3                  
 785 041e 5541     		adc    r5, r2                      
 786 0420 3B04     		lsl    r3, r7, #16                 
 787 0422 E418     		add    r4, r4, r3                  
 788 0424 5541     		adc    r5, r2                      
 789 0426 0B68     		ldr    r3, [r1]                    
 790 0428 E418     		add    r4, r4, r3                  
 791 042a 6A41     		adc    r2, r5                      
 792 042c 10C1     		stmia  r1!, {r4}                   
 793 042e 40C8     		ldmia  r0!, {r6}                   
 794 0430 370C     		lsr    r7, r6, #16                 
 795 0432 3604     		lsl    r6, r6, #16                 
 796 0434 360C     		lsr    r6, r6, #16                 
 797 0436 4446     		mov    r4, r8                      
 798 0438 7443     		mul    r4, r6                      
 799 043a 4B46     		mov    r3, r9                      
 800 043c 5E43     		mul    r6, r3                      
 801 043e 4D46     		mov    r5, r9                      
 802 0440 7D43     		mul    r5, r7                      
 803 0442 4346     		mov    r3, r8                      
 804 0444 5F43     		mul    r7, r3                      
 805 0446 330C     		lsr    r3, r6, #16                 
 806 0448 ED18     		add    r5, r5, r3                  
 807 044a 3B0C     		lsr    r3, r7, #16                 
 808 044c ED18     		add    r5, r5, r3                  
 809 044e A418     		add    r4, r4, r2                  
 810 0450 0022     		mov    r2, #0                      
 811 0452 5541     		adc    r5, r2                      
 812 0454 3304     		lsl    r3, r6, #16                 
 813 0456 E418     		add    r4, r4, r3                  
 814 0458 5541     		adc    r5, r2                      
 815 045a 3B04     		lsl    r3, r7, #16                 
 816 045c E418     		add    r4, r4, r3                  
 817 045e 5541     		adc    r5, r2                      
 818 0460 0B68     		ldr    r3, [r1]                    
 819 0462 E418     		add    r4, r4, r3                  
 820 0464 6A41     		adc    r2, r5                      
 821 0466 10C1     		stmia  r1!, {r4}                   
 822 0468 40C8     		ldmia  r0!, {r6}                   
 823 046a 370C     		lsr    r7, r6, #16                 
 824 046c 3604     		lsl    r6, r6, #16                 
 825 046e 360C     		lsr    r6, r6, #16                 
 826 0470 4446     		mov    r4, r8                      
 827 0472 7443     		mul    r4, r6                      
 828 0474 4B46     		mov    r3, r9                      
 829 0476 5E43     		mul    r6, r3                      
 830 0478 4D46     		mov    r5, r9                      
 831 047a 7D43     		mul    r5, r7                      
ARM GAS  C:\Users\Phuong\AppData\Local\Temp\cciUg6zJ.s 			page 36


 832 047c 4346     		mov    r3, r8                      
 833 047e 5F43     		mul    r7, r3                      
 834 0480 330C     		lsr    r3, r6, #16                 
 835 0482 ED18     		add    r5, r5, r3                  
 836 0484 3B0C     		lsr    r3, r7, #16                 
 837 0486 ED18     		add    r5, r5, r3                  
 838 0488 A418     		add    r4, r4, r2                  
 839 048a 0022     		mov    r2, #0                      
 840 048c 5541     		adc    r5, r2                      
 841 048e 3304     		lsl    r3, r6, #16                 
 842 0490 E418     		add    r4, r4, r3                  
 843 0492 5541     		adc    r5, r2                      
 844 0494 3B04     		lsl    r3, r7, #16                 
 845 0496 E418     		add    r4, r4, r3                  
 846 0498 5541     		adc    r5, r2                      
 847 049a 0B68     		ldr    r3, [r1]                    
 848 049c E418     		add    r4, r4, r3                  
 849 049e 6A41     		adc    r2, r5                      
 850 04a0 10C1     		stmia  r1!, {r4}                   
 851 04a2 40C8     		ldmia  r0!, {r6}                   
 852 04a4 370C     		lsr    r7, r6, #16                 
 853 04a6 3604     		lsl    r6, r6, #16                 
 854 04a8 360C     		lsr    r6, r6, #16                 
 855 04aa 4446     		mov    r4, r8                      
 856 04ac 7443     		mul    r4, r6                      
 857 04ae 4B46     		mov    r3, r9                      
 858 04b0 5E43     		mul    r6, r3                      
 859 04b2 4D46     		mov    r5, r9                      
 860 04b4 7D43     		mul    r5, r7                      
 861 04b6 4346     		mov    r3, r8                      
 862 04b8 5F43     		mul    r7, r3                      
 863 04ba 330C     		lsr    r3, r6, #16                 
 864 04bc ED18     		add    r5, r5, r3                  
 865 04be 3B0C     		lsr    r3, r7, #16                 
 866 04c0 ED18     		add    r5, r5, r3                  
 867 04c2 A418     		add    r4, r4, r2                  
 868 04c4 0022     		mov    r2, #0                      
 869 04c6 5541     		adc    r5, r2                      
 870 04c8 3304     		lsl    r3, r6, #16                 
 871 04ca E418     		add    r4, r4, r3                  
 872 04cc 5541     		adc    r5, r2                      
 873 04ce 3B04     		lsl    r3, r7, #16                 
 874 04d0 E418     		add    r4, r4, r3                  
 875 04d2 5541     		adc    r5, r2                      
 876 04d4 0B68     		ldr    r3, [r1]                    
 877 04d6 E418     		add    r4, r4, r3                  
 878 04d8 6A41     		adc    r2, r5                      
 879 04da 10C1     		stmia  r1!, {r4}                   
 880 04dc 40C8     		ldmia  r0!, {r6}                   
 881 04de 370C     		lsr    r7, r6, #16                 
 882 04e0 3604     		lsl    r6, r6, #16                 
 883 04e2 360C     		lsr    r6, r6, #16                 
 884 04e4 4446     		mov    r4, r8                      
 885 04e6 7443     		mul    r4, r6                      
 886 04e8 4B46     		mov    r3, r9                      
 887 04ea 5E43     		mul    r6, r3                      
 888 04ec 4D46     		mov    r5, r9                      
ARM GAS  C:\Users\Phuong\AppData\Local\Temp\cciUg6zJ.s 			page 37


 889 04ee 7D43     		mul    r5, r7                      
 890 04f0 4346     		mov    r3, r8                      
 891 04f2 5F43     		mul    r7, r3                      
 892 04f4 330C     		lsr    r3, r6, #16                 
 893 04f6 ED18     		add    r5, r5, r3                  
 894 04f8 3B0C     		lsr    r3, r7, #16                 
 895 04fa ED18     		add    r5, r5, r3                  
 896 04fc A418     		add    r4, r4, r2                  
 897 04fe 0022     		mov    r2, #0                      
 898 0500 5541     		adc    r5, r2                      
 899 0502 3304     		lsl    r3, r6, #16                 
 900 0504 E418     		add    r4, r4, r3                  
 901 0506 5541     		adc    r5, r2                      
 902 0508 3B04     		lsl    r3, r7, #16                 
 903 050a E418     		add    r4, r4, r3                  
 904 050c 5541     		adc    r5, r2                      
 905 050e 0B68     		ldr    r3, [r1]                    
 906 0510 E418     		add    r4, r4, r3                  
 907 0512 6A41     		adc    r2, r5                      
 908 0514 10C1     		stmia  r1!, {r4}                   
 909 0516 40C8     		ldmia  r0!, {r6}                   
 910 0518 370C     		lsr    r7, r6, #16                 
 911 051a 3604     		lsl    r6, r6, #16                 
 912 051c 360C     		lsr    r6, r6, #16                 
 913 051e 4446     		mov    r4, r8                      
 914 0520 7443     		mul    r4, r6                      
 915 0522 4B46     		mov    r3, r9                      
 916 0524 5E43     		mul    r6, r3                      
 917 0526 4D46     		mov    r5, r9                      
 918 0528 7D43     		mul    r5, r7                      
 919 052a 4346     		mov    r3, r8                      
 920 052c 5F43     		mul    r7, r3                      
 921 052e 330C     		lsr    r3, r6, #16                 
 922 0530 ED18     		add    r5, r5, r3                  
 923 0532 3B0C     		lsr    r3, r7, #16                 
 924 0534 ED18     		add    r5, r5, r3                  
 925 0536 A418     		add    r4, r4, r2                  
 926 0538 0022     		mov    r2, #0                      
 927 053a 5541     		adc    r5, r2                      
 928 053c 3304     		lsl    r3, r6, #16                 
 929 053e E418     		add    r4, r4, r3                  
 930 0540 5541     		adc    r5, r2                      
 931 0542 3B04     		lsl    r3, r7, #16                 
 932 0544 E418     		add    r4, r4, r3                  
 933 0546 5541     		adc    r5, r2                      
 934 0548 0B68     		ldr    r3, [r1]                    
 935 054a E418     		add    r4, r4, r3                  
 936 054c 6A41     		adc    r2, r5                      
 937 054e 10C1     		stmia  r1!, {r4}                   
 938 0550 40C8     		ldmia  r0!, {r6}                   
 939 0552 370C     		lsr    r7, r6, #16                 
 940 0554 3604     		lsl    r6, r6, #16                 
 941 0556 360C     		lsr    r6, r6, #16                 
 942 0558 4446     		mov    r4, r8                      
 943 055a 7443     		mul    r4, r6                      
 944 055c 4B46     		mov    r3, r9                      
 945 055e 5E43     		mul    r6, r3                      
ARM GAS  C:\Users\Phuong\AppData\Local\Temp\cciUg6zJ.s 			page 38


 946 0560 4D46     		mov    r5, r9                      
 947 0562 7D43     		mul    r5, r7                      
 948 0564 4346     		mov    r3, r8                      
 949 0566 5F43     		mul    r7, r3                      
 950 0568 330C     		lsr    r3, r6, #16                 
 951 056a ED18     		add    r5, r5, r3                  
 952 056c 3B0C     		lsr    r3, r7, #16                 
 953 056e ED18     		add    r5, r5, r3                  
 954 0570 A418     		add    r4, r4, r2                  
 955 0572 0022     		mov    r2, #0                      
 956 0574 5541     		adc    r5, r2                      
 957 0576 3304     		lsl    r3, r6, #16                 
 958 0578 E418     		add    r4, r4, r3                  
 959 057a 5541     		adc    r5, r2                      
 960 057c 3B04     		lsl    r3, r7, #16                 
 961 057e E418     		add    r4, r4, r3                  
 962 0580 5541     		adc    r5, r2                      
 963 0582 0B68     		ldr    r3, [r1]                    
 964 0584 E418     		add    r4, r4, r3                  
 965 0586 6A41     		adc    r2, r5                      
 966 0588 10C1     		stmia  r1!, {r4}                   
 967 058a 40C8     		ldmia  r0!, {r6}                   
 968 058c 370C     		lsr    r7, r6, #16                 
 969 058e 3604     		lsl    r6, r6, #16                 
 970 0590 360C     		lsr    r6, r6, #16                 
 971 0592 4446     		mov    r4, r8                      
 972 0594 7443     		mul    r4, r6                      
 973 0596 4B46     		mov    r3, r9                      
 974 0598 5E43     		mul    r6, r3                      
 975 059a 4D46     		mov    r5, r9                      
 976 059c 7D43     		mul    r5, r7                      
 977 059e 4346     		mov    r3, r8                      
 978 05a0 5F43     		mul    r7, r3                      
 979 05a2 330C     		lsr    r3, r6, #16                 
 980 05a4 ED18     		add    r5, r5, r3                  
 981 05a6 3B0C     		lsr    r3, r7, #16                 
 982 05a8 ED18     		add    r5, r5, r3                  
 983 05aa A418     		add    r4, r4, r2                  
 984 05ac 0022     		mov    r2, #0                      
 985 05ae 5541     		adc    r5, r2                      
 986 05b0 3304     		lsl    r3, r6, #16                 
 987 05b2 E418     		add    r4, r4, r3                  
 988 05b4 5541     		adc    r5, r2                      
 989 05b6 3B04     		lsl    r3, r7, #16                 
 990 05b8 E418     		add    r4, r4, r3                  
 991 05ba 5541     		adc    r5, r2                      
 992 05bc 0B68     		ldr    r3, [r1]                    
 993 05be E418     		add    r4, r4, r3                  
 994 05c0 6A41     		adc    r2, r5                      
 995 05c2 10C1     		stmia  r1!, {r4}                   
 996 05c4 0592     		str    r2, [sp, #20]                      
 997 05c6 0291     		str    r1, [sp, #8]                      
 998 05c8 0390     		str    r0, [sp, #12]                      
 999              		
 1000              	@ 0 "" 2
 1001              	.LVL32:
1155:Source\mbedtls_open\library/bignum.c ****     {
ARM GAS  C:\Users\Phuong\AppData\Local\Temp\cciUg6zJ.s 			page 39


 1002              		.loc 1 1155 0 discriminator 2
 1003              		.thumb
 1004              		.syntax unified
 1005 05ca 0823     		movs	r3, #8
 1006 05cc 5B42     		rsbs	r3, r3, #0
 1007 05ce 9846     		mov	r8, r3
 1008 05d0 C444     		add	ip, ip, r8
 1009              	.LVL33:
 1010              	.L19:
1155:Source\mbedtls_open\library/bignum.c ****     {
 1011              		.loc 1 1155 0 is_stmt 0 discriminator 1
 1012 05d2 6346     		mov	r3, ip
 1013 05d4 072B     		cmp	r3, #7
 1014 05d6 00D9     		bls	.LCB284
 1015 05d8 03E7     		b	.L20	@long jump
 1016              	.LCB284:
 1017              	.LVL34:
 1018 05da 2CE0     		b	.L21
 1019              	.L22:
1158:Source\mbedtls_open\library/bignum.c ****         MULADDC_CORE   MULADDC_CORE
1159:Source\mbedtls_open\library/bignum.c ****         MULADDC_CORE   MULADDC_CORE
1160:Source\mbedtls_open\library/bignum.c **** 
1161:Source\mbedtls_open\library/bignum.c ****         MULADDC_CORE   MULADDC_CORE
1162:Source\mbedtls_open\library/bignum.c ****         MULADDC_CORE   MULADDC_CORE
1163:Source\mbedtls_open\library/bignum.c ****         MULADDC_STOP
1164:Source\mbedtls_open\library/bignum.c ****     }
1165:Source\mbedtls_open\library/bignum.c **** 
1166:Source\mbedtls_open\library/bignum.c ****     for( ; i > 0; i-- )
1167:Source\mbedtls_open\library/bignum.c ****     {
1168:Source\mbedtls_open\library/bignum.c ****         MULADDC_INIT
 1020              		.loc 1 1168 0 is_stmt 1 discriminator 2
 1021              		.syntax divided
 1022              	@ 1168 "Source\mbedtls_open\library\bignum.c" 1
 1023 05dc 0398     		ldr    r0, [sp, #12]                      
 1024 05de 0299     		ldr    r1, [sp, #8]                      
 1025 05e0 059A     		ldr    r2, [sp, #20]                      
 1026 05e2 019B     		ldr    r3, [sp, #4]                      
 1027 05e4 1F0C     		lsr    r7, r3, #16                 
 1028 05e6 B946     		mov    r9, r7                      
 1029 05e8 1F04     		lsl    r7, r3, #16                 
 1030 05ea 3F0C     		lsr    r7, r7, #16                 
 1031 05ec B846     		mov    r8, r7                      
 1032 05ee 40C8     		ldmia  r0!, {r6}                   
 1033 05f0 370C     		lsr    r7, r6, #16                 
 1034 05f2 3604     		lsl    r6, r6, #16                 
 1035 05f4 360C     		lsr    r6, r6, #16                 
 1036 05f6 4446     		mov    r4, r8                      
 1037 05f8 7443     		mul    r4, r6                      
 1038 05fa 4B46     		mov    r3, r9                      
 1039 05fc 5E43     		mul    r6, r3                      
 1040 05fe 4D46     		mov    r5, r9                      
 1041 0600 7D43     		mul    r5, r7                      
 1042 0602 4346     		mov    r3, r8                      
 1043 0604 5F43     		mul    r7, r3                      
 1044 0606 330C     		lsr    r3, r6, #16                 
 1045 0608 ED18     		add    r5, r5, r3                  
 1046 060a 3B0C     		lsr    r3, r7, #16                 
ARM GAS  C:\Users\Phuong\AppData\Local\Temp\cciUg6zJ.s 			page 40


 1047 060c ED18     		add    r5, r5, r3                  
 1048 060e A418     		add    r4, r4, r2                  
 1049 0610 0022     		mov    r2, #0                      
 1050 0612 5541     		adc    r5, r2                      
 1051 0614 3304     		lsl    r3, r6, #16                 
 1052 0616 E418     		add    r4, r4, r3                  
 1053 0618 5541     		adc    r5, r2                      
 1054 061a 3B04     		lsl    r3, r7, #16                 
 1055 061c E418     		add    r4, r4, r3                  
 1056 061e 5541     		adc    r5, r2                      
 1057 0620 0B68     		ldr    r3, [r1]                    
 1058 0622 E418     		add    r4, r4, r3                  
 1059 0624 6A41     		adc    r2, r5                      
 1060 0626 10C1     		stmia  r1!, {r4}                   
 1061 0628 0592     		str    r2, [sp, #20]                      
 1062 062a 0291     		str    r1, [sp, #8]                      
 1063 062c 0390     		str    r0, [sp, #12]                      
 1064              		
 1065              	@ 0 "" 2
 1066              	.LVL35:
1166:Source\mbedtls_open\library/bignum.c ****     {
 1067              		.loc 1 1166 0 discriminator 2
 1068              		.thumb
 1069              		.syntax unified
 1070 062e 0123     		movs	r3, #1
 1071 0630 5B42     		rsbs	r3, r3, #0
 1072 0632 9846     		mov	r8, r3
 1073 0634 C444     		add	ip, ip, r8
 1074              	.LVL36:
 1075              	.L21:
1166:Source\mbedtls_open\library/bignum.c ****     {
 1076              		.loc 1 1166 0 is_stmt 0 discriminator 1
 1077 0636 6346     		mov	r3, ip
 1078 0638 002B     		cmp	r3, #0
 1079 063a CFD1     		bne	.L22
 1080              	.LVL37:
 1081              	.L23:
1169:Source\mbedtls_open\library/bignum.c ****         MULADDC_CORE
1170:Source\mbedtls_open\library/bignum.c ****         MULADDC_STOP
1171:Source\mbedtls_open\library/bignum.c ****     }
1172:Source\mbedtls_open\library/bignum.c **** #endif /* MULADDC_HUIT */
1173:Source\mbedtls_open\library/bignum.c **** 
1174:Source\mbedtls_open\library/bignum.c ****     t++;
1175:Source\mbedtls_open\library/bignum.c **** 
1176:Source\mbedtls_open\library/bignum.c ****     do {
1177:Source\mbedtls_open\library/bignum.c ****         *d += c; c = ( *d < c ); d++;
 1082              		.loc 1 1177 0 is_stmt 1 discriminator 1
 1083 063c 029A     		ldr	r2, [sp, #8]
 1084 063e 1368     		ldr	r3, [r2]
 1085 0640 0599     		ldr	r1, [sp, #20]
 1086 0642 8C46     		mov	ip, r1
 1087 0644 6344     		add	r3, r3, ip
 1088 0646 1360     		str	r3, [r2]
 1089 0648 029A     		ldr	r2, [sp, #8]
 1090 064a 08CA     		ldmia	r2!, {r3}
 1091 064c 0599     		ldr	r1, [sp, #20]
 1092 064e 8B42     		cmp	r3, r1
ARM GAS  C:\Users\Phuong\AppData\Local\Temp\cciUg6zJ.s 			page 41


 1093 0650 9B41     		sbcs	r3, r3, r3
 1094 0652 5B42     		rsbs	r3, r3, #0
 1095 0654 0593     		str	r3, [sp, #20]
 1096 0656 0292     		str	r2, [sp, #8]
1178:Source\mbedtls_open\library/bignum.c ****     }
1179:Source\mbedtls_open\library/bignum.c ****     while( c != 0 );
 1097              		.loc 1 1179 0 discriminator 1
 1098 0658 002B     		cmp	r3, #0
 1099 065a EFD1     		bne	.L23
1180:Source\mbedtls_open\library/bignum.c **** }
 1100              		.loc 1 1180 0
 1101 065c 07B0     		add	sp, sp, #28
 1102              		@ sp needed
 1103 065e 0CBC     		pop	{r2, r3}
 1104 0660 9046     		mov	r8, r2
 1105 0662 9946     		mov	r9, r3
 1106 0664 F0BD     		pop	{r4, r5, r6, r7, pc}
 1107              		.cfi_endproc
 1108              	.LFE35:
 1109              		.size	mpi_mul_hlp, .-mpi_mul_hlp
 1110              		.global	__aeabi_uldivmod
 1111 0666 C046     		.section	.text.mbedtls_int_div_int,"ax",%progbits
 1112              		.align	2
 1113              		.code	16
 1114              		.thumb_func
 1115              		.type	mbedtls_int_div_int, %function
 1116              	mbedtls_int_div_int:
 1117              	.LFB38:
1181:Source\mbedtls_open\library/bignum.c **** 
1182:Source\mbedtls_open\library/bignum.c **** /*
1183:Source\mbedtls_open\library/bignum.c ****  * Baseline multiplication: X = A * B  (HAC 14.12)
1184:Source\mbedtls_open\library/bignum.c ****  */
1185:Source\mbedtls_open\library/bignum.c **** int mbedtls_mpi_mul_mpi( mbedtls_mpi *X, const mbedtls_mpi *A, const mbedtls_mpi *B )
1186:Source\mbedtls_open\library/bignum.c **** {
1187:Source\mbedtls_open\library/bignum.c ****     int ret;
1188:Source\mbedtls_open\library/bignum.c ****     size_t i, j;
1189:Source\mbedtls_open\library/bignum.c ****     mbedtls_mpi TA, TB;
1190:Source\mbedtls_open\library/bignum.c **** 
1191:Source\mbedtls_open\library/bignum.c ****     mbedtls_mpi_init( &TA ); mbedtls_mpi_init( &TB );
1192:Source\mbedtls_open\library/bignum.c **** 
1193:Source\mbedtls_open\library/bignum.c ****     if( X == A ) { MBEDTLS_MPI_CHK( mbedtls_mpi_copy( &TA, A ) ); A = &TA; }
1194:Source\mbedtls_open\library/bignum.c ****     if( X == B ) { MBEDTLS_MPI_CHK( mbedtls_mpi_copy( &TB, B ) ); B = &TB; }
1195:Source\mbedtls_open\library/bignum.c **** 
1196:Source\mbedtls_open\library/bignum.c ****     for( i = A->n; i > 0; i-- )
1197:Source\mbedtls_open\library/bignum.c ****         if( A->p[i - 1] != 0 )
1198:Source\mbedtls_open\library/bignum.c ****             break;
1199:Source\mbedtls_open\library/bignum.c **** 
1200:Source\mbedtls_open\library/bignum.c ****     for( j = B->n; j > 0; j-- )
1201:Source\mbedtls_open\library/bignum.c ****         if( B->p[j - 1] != 0 )
1202:Source\mbedtls_open\library/bignum.c ****             break;
1203:Source\mbedtls_open\library/bignum.c **** 
1204:Source\mbedtls_open\library/bignum.c ****     MBEDTLS_MPI_CHK( mbedtls_mpi_grow( X, i + j ) );
1205:Source\mbedtls_open\library/bignum.c ****     MBEDTLS_MPI_CHK( mbedtls_mpi_lset( X, 0 ) );
1206:Source\mbedtls_open\library/bignum.c **** 
1207:Source\mbedtls_open\library/bignum.c ****     for( ; j > 0; j-- )
1208:Source\mbedtls_open\library/bignum.c ****         mpi_mul_hlp( i, A->p, X->p + j - 1, B->p[j - 1] );
1209:Source\mbedtls_open\library/bignum.c **** 
ARM GAS  C:\Users\Phuong\AppData\Local\Temp\cciUg6zJ.s 			page 42


1210:Source\mbedtls_open\library/bignum.c ****     X->s = A->s * B->s;
1211:Source\mbedtls_open\library/bignum.c **** 
1212:Source\mbedtls_open\library/bignum.c **** cleanup:
1213:Source\mbedtls_open\library/bignum.c **** 
1214:Source\mbedtls_open\library/bignum.c ****     mbedtls_mpi_free( &TB ); mbedtls_mpi_free( &TA );
1215:Source\mbedtls_open\library/bignum.c **** 
1216:Source\mbedtls_open\library/bignum.c ****     return( ret );
1217:Source\mbedtls_open\library/bignum.c **** }
1218:Source\mbedtls_open\library/bignum.c **** 
1219:Source\mbedtls_open\library/bignum.c **** /*
1220:Source\mbedtls_open\library/bignum.c ****  * Baseline multiplication: X = A * b
1221:Source\mbedtls_open\library/bignum.c ****  */
1222:Source\mbedtls_open\library/bignum.c **** int mbedtls_mpi_mul_int( mbedtls_mpi *X, const mbedtls_mpi *A, mbedtls_mpi_uint b )
1223:Source\mbedtls_open\library/bignum.c **** {
1224:Source\mbedtls_open\library/bignum.c ****     mbedtls_mpi _B;
1225:Source\mbedtls_open\library/bignum.c ****     mbedtls_mpi_uint p[1];
1226:Source\mbedtls_open\library/bignum.c **** 
1227:Source\mbedtls_open\library/bignum.c ****     _B.s = 1;
1228:Source\mbedtls_open\library/bignum.c ****     _B.n = 1;
1229:Source\mbedtls_open\library/bignum.c ****     _B.p = p;
1230:Source\mbedtls_open\library/bignum.c ****     p[0] = b;
1231:Source\mbedtls_open\library/bignum.c **** 
1232:Source\mbedtls_open\library/bignum.c ****     return( mbedtls_mpi_mul_mpi( X, A, &_B ) );
1233:Source\mbedtls_open\library/bignum.c **** }
1234:Source\mbedtls_open\library/bignum.c **** 
1235:Source\mbedtls_open\library/bignum.c **** /*
1236:Source\mbedtls_open\library/bignum.c ****  * Unsigned integer divide - double mbedtls_mpi_uint dividend, u1/u0, and
1237:Source\mbedtls_open\library/bignum.c ****  * mbedtls_mpi_uint divisor, d
1238:Source\mbedtls_open\library/bignum.c ****  */
1239:Source\mbedtls_open\library/bignum.c **** static mbedtls_mpi_uint mbedtls_int_div_int( mbedtls_mpi_uint u1,
1240:Source\mbedtls_open\library/bignum.c ****             mbedtls_mpi_uint u0, mbedtls_mpi_uint d, mbedtls_mpi_uint *r )
1241:Source\mbedtls_open\library/bignum.c **** {
 1118              		.loc 1 1241 0
 1119              		.cfi_startproc
 1120              		@ args = 0, pretend = 0, frame = 0
 1121              		@ frame_needed = 0, uses_anonymous_args = 0
 1122              	.LVL38:
 1123 0000 F8B5     		push	{r3, r4, r5, r6, r7, lr}
 1124              		.cfi_def_cfa_offset 24
 1125              		.cfi_offset 3, -24
 1126              		.cfi_offset 4, -20
 1127              		.cfi_offset 5, -16
 1128              		.cfi_offset 6, -12
 1129              		.cfi_offset 7, -8
 1130              		.cfi_offset 14, -4
 1131 0002 0700     		movs	r7, r0
 1132 0004 0D00     		movs	r5, r1
 1133 0006 1400     		movs	r4, r2
 1134 0008 1E00     		movs	r6, r3
1242:Source\mbedtls_open\library/bignum.c **** #if defined(MBEDTLS_HAVE_UDBL)
1243:Source\mbedtls_open\library/bignum.c ****     mbedtls_t_udbl dividend, quotient;
1244:Source\mbedtls_open\library/bignum.c **** #else
1245:Source\mbedtls_open\library/bignum.c ****     const mbedtls_mpi_uint radix = (mbedtls_mpi_uint) 1 << biH;
1246:Source\mbedtls_open\library/bignum.c ****     const mbedtls_mpi_uint uint_halfword_mask = ( (mbedtls_mpi_uint) 1 << biH ) - 1;
1247:Source\mbedtls_open\library/bignum.c ****     mbedtls_mpi_uint d0, d1, q0, q1, rAX, r0, quotient;
1248:Source\mbedtls_open\library/bignum.c ****     mbedtls_mpi_uint u0_msw, u0_lsw;
1249:Source\mbedtls_open\library/bignum.c ****     size_t s;
ARM GAS  C:\Users\Phuong\AppData\Local\Temp\cciUg6zJ.s 			page 43


1250:Source\mbedtls_open\library/bignum.c **** #endif
1251:Source\mbedtls_open\library/bignum.c **** 
1252:Source\mbedtls_open\library/bignum.c ****     /*
1253:Source\mbedtls_open\library/bignum.c ****      * Check for overflow
1254:Source\mbedtls_open\library/bignum.c ****      */
1255:Source\mbedtls_open\library/bignum.c ****     if( 0 == d || u1 >= d )
 1135              		.loc 1 1255 0
 1136 000a 002A     		cmp	r2, #0
 1137 000c 01D0     		beq	.L25
 1138              		.loc 1 1255 0 is_stmt 0 discriminator 1
 1139 000e 8242     		cmp	r2, r0
 1140 0010 05D8     		bhi	.L26
 1141              	.L25:
1256:Source\mbedtls_open\library/bignum.c ****     {
1257:Source\mbedtls_open\library/bignum.c ****         if (r != NULL) *r = ~0;
 1142              		.loc 1 1257 0 is_stmt 1
 1143 0012 002E     		cmp	r6, #0
 1144 0014 12D0     		beq	.L31
 1145              		.loc 1 1257 0 is_stmt 0 discriminator 1
 1146 0016 0120     		movs	r0, #1
 1147              	.LVL39:
 1148 0018 4042     		rsbs	r0, r0, #0
 1149 001a 3060     		str	r0, [r6]
 1150 001c 10E0     		b	.L27
 1151              	.LVL40:
 1152              	.L26:
1258:Source\mbedtls_open\library/bignum.c **** 
1259:Source\mbedtls_open\library/bignum.c ****         return ( ~0 );
1260:Source\mbedtls_open\library/bignum.c ****     }
1261:Source\mbedtls_open\library/bignum.c **** 
1262:Source\mbedtls_open\library/bignum.c **** #if defined(MBEDTLS_HAVE_UDBL)
1263:Source\mbedtls_open\library/bignum.c ****     dividend  = (mbedtls_t_udbl) u1 << biL;
1264:Source\mbedtls_open\library/bignum.c ****     dividend |= (mbedtls_t_udbl) u0;
1265:Source\mbedtls_open\library/bignum.c ****     quotient = dividend / d;
 1153              		.loc 1 1265 0 is_stmt 1
 1154 001e 0023     		movs	r3, #0
 1155              	.LVL41:
 1156 0020 0800     		movs	r0, r1
 1157              	.LVL42:
 1158 0022 3900     		movs	r1, r7
 1159              	.LVL43:
 1160 0024 FFF7FEFF 		bl	__aeabi_uldivmod
 1161              	.LVL44:
1266:Source\mbedtls_open\library/bignum.c ****     if( quotient > ( (mbedtls_t_udbl) 1 << biL ) - 1 )
 1162              		.loc 1 1266 0
 1163 0028 0029     		cmp	r1, #0
 1164 002a 01D0     		beq	.L28
1267:Source\mbedtls_open\library/bignum.c ****         quotient = ( (mbedtls_t_udbl) 1 << biL ) - 1;
 1165              		.loc 1 1267 0
 1166 002c 0120     		movs	r0, #1
 1167              	.LVL45:
 1168 002e 4042     		rsbs	r0, r0, #0
 1169              	.L28:
1268:Source\mbedtls_open\library/bignum.c **** 
1269:Source\mbedtls_open\library/bignum.c ****     if( r != NULL )
 1170              		.loc 1 1269 0
 1171 0030 002E     		cmp	r6, #0
ARM GAS  C:\Users\Phuong\AppData\Local\Temp\cciUg6zJ.s 			page 44


 1172 0032 05D0     		beq	.L27
1270:Source\mbedtls_open\library/bignum.c ****         *r = (mbedtls_mpi_uint)( dividend - (quotient * d ) );
 1173              		.loc 1 1270 0
 1174 0034 4443     		muls	r4, r0
 1175              	.LVL46:
 1176 0036 2C1B     		subs	r4, r5, r4
 1177 0038 3460     		str	r4, [r6]
1271:Source\mbedtls_open\library/bignum.c **** 
1272:Source\mbedtls_open\library/bignum.c ****     return (mbedtls_mpi_uint) quotient;
 1178              		.loc 1 1272 0
 1179 003a 01E0     		b	.L27
 1180              	.LVL47:
 1181              	.L31:
1259:Source\mbedtls_open\library/bignum.c ****     }
 1182              		.loc 1 1259 0
 1183 003c 0120     		movs	r0, #1
 1184              	.LVL48:
 1185 003e 4042     		rsbs	r0, r0, #0
 1186              	.LVL49:
 1187              	.L27:
1273:Source\mbedtls_open\library/bignum.c **** #else
1274:Source\mbedtls_open\library/bignum.c **** 
1275:Source\mbedtls_open\library/bignum.c ****     /*
1276:Source\mbedtls_open\library/bignum.c ****      * Algorithm D, Section 4.3.1 - The Art of Computer Programming
1277:Source\mbedtls_open\library/bignum.c ****      *   Vol. 2 - Seminumerical Algorithms, Knuth
1278:Source\mbedtls_open\library/bignum.c ****      */
1279:Source\mbedtls_open\library/bignum.c **** 
1280:Source\mbedtls_open\library/bignum.c ****     /*
1281:Source\mbedtls_open\library/bignum.c ****      * Normalize the divisor, d, and dividend, u0, u1
1282:Source\mbedtls_open\library/bignum.c ****      */
1283:Source\mbedtls_open\library/bignum.c ****     s = mbedtls_clz( d );
1284:Source\mbedtls_open\library/bignum.c ****     d = d << s;
1285:Source\mbedtls_open\library/bignum.c **** 
1286:Source\mbedtls_open\library/bignum.c ****     u1 = u1 << s;
1287:Source\mbedtls_open\library/bignum.c ****     u1 |= ( u0 >> ( biL - s ) ) & ( -(mbedtls_mpi_sint)s >> ( biL - 1 ) );
1288:Source\mbedtls_open\library/bignum.c ****     u0 =  u0 << s;
1289:Source\mbedtls_open\library/bignum.c **** 
1290:Source\mbedtls_open\library/bignum.c ****     d1 = d >> biH;
1291:Source\mbedtls_open\library/bignum.c ****     d0 = d & uint_halfword_mask;
1292:Source\mbedtls_open\library/bignum.c **** 
1293:Source\mbedtls_open\library/bignum.c ****     u0_msw = u0 >> biH;
1294:Source\mbedtls_open\library/bignum.c ****     u0_lsw = u0 & uint_halfword_mask;
1295:Source\mbedtls_open\library/bignum.c **** 
1296:Source\mbedtls_open\library/bignum.c ****     /*
1297:Source\mbedtls_open\library/bignum.c ****      * Find the first quotient and remainder
1298:Source\mbedtls_open\library/bignum.c ****      */
1299:Source\mbedtls_open\library/bignum.c ****     q1 = u1 / d1;
1300:Source\mbedtls_open\library/bignum.c ****     r0 = u1 - d1 * q1;
1301:Source\mbedtls_open\library/bignum.c **** 
1302:Source\mbedtls_open\library/bignum.c ****     while( q1 >= radix || ( q1 * d0 > radix * r0 + u0_msw ) )
1303:Source\mbedtls_open\library/bignum.c ****     {
1304:Source\mbedtls_open\library/bignum.c ****         q1 -= 1;
1305:Source\mbedtls_open\library/bignum.c ****         r0 += d1;
1306:Source\mbedtls_open\library/bignum.c **** 
1307:Source\mbedtls_open\library/bignum.c ****         if ( r0 >= radix ) break;
1308:Source\mbedtls_open\library/bignum.c ****     }
1309:Source\mbedtls_open\library/bignum.c **** 
ARM GAS  C:\Users\Phuong\AppData\Local\Temp\cciUg6zJ.s 			page 45


1310:Source\mbedtls_open\library/bignum.c ****     rAX = ( u1 * radix ) + ( u0_msw - q1 * d );
1311:Source\mbedtls_open\library/bignum.c ****     q0 = rAX / d1;
1312:Source\mbedtls_open\library/bignum.c ****     r0 = rAX - q0 * d1;
1313:Source\mbedtls_open\library/bignum.c **** 
1314:Source\mbedtls_open\library/bignum.c ****     while( q0 >= radix || ( q0 * d0 > radix * r0 + u0_lsw ) )
1315:Source\mbedtls_open\library/bignum.c ****     {
1316:Source\mbedtls_open\library/bignum.c ****         q0 -= 1;
1317:Source\mbedtls_open\library/bignum.c ****         r0 += d1;
1318:Source\mbedtls_open\library/bignum.c **** 
1319:Source\mbedtls_open\library/bignum.c ****         if ( r0 >= radix ) break;
1320:Source\mbedtls_open\library/bignum.c ****     }
1321:Source\mbedtls_open\library/bignum.c **** 
1322:Source\mbedtls_open\library/bignum.c ****     if (r != NULL)
1323:Source\mbedtls_open\library/bignum.c ****         *r = ( rAX * radix + u0_lsw - q0 * d ) >> s;
1324:Source\mbedtls_open\library/bignum.c **** 
1325:Source\mbedtls_open\library/bignum.c ****     quotient = q1 * radix + q0;
1326:Source\mbedtls_open\library/bignum.c **** 
1327:Source\mbedtls_open\library/bignum.c ****     return quotient;
1328:Source\mbedtls_open\library/bignum.c **** #endif
1329:Source\mbedtls_open\library/bignum.c **** }
 1188              		.loc 1 1329 0
 1189              		@ sp needed
 1190              	.LVL50:
 1191              	.LVL51:
 1192              	.LVL52:
 1193 0040 F8BD     		pop	{r3, r4, r5, r6, r7, pc}
 1194              		.cfi_endproc
 1195              	.LFE38:
 1196              		.size	mbedtls_int_div_int, .-mbedtls_int_div_int
 1197 0042 C046     		.section	.text.mpi_montg_init,"ax",%progbits
 1198              		.align	2
 1199              		.code	16
 1200              		.thumb_func
 1201              		.type	mpi_montg_init, %function
 1202              	mpi_montg_init:
 1203              	.LFB43:
1330:Source\mbedtls_open\library/bignum.c **** 
1331:Source\mbedtls_open\library/bignum.c **** /*
1332:Source\mbedtls_open\library/bignum.c ****  * Division by mbedtls_mpi: A = Q * B + R  (HAC 14.20)
1333:Source\mbedtls_open\library/bignum.c ****  */
1334:Source\mbedtls_open\library/bignum.c **** int mbedtls_mpi_div_mpi( mbedtls_mpi *Q, mbedtls_mpi *R, const mbedtls_mpi *A, const mbedtls_mpi *B
1335:Source\mbedtls_open\library/bignum.c **** {
1336:Source\mbedtls_open\library/bignum.c ****     int ret;
1337:Source\mbedtls_open\library/bignum.c ****     size_t i, n, t, k;
1338:Source\mbedtls_open\library/bignum.c ****     mbedtls_mpi X, Y, Z, T1, T2;
1339:Source\mbedtls_open\library/bignum.c **** 
1340:Source\mbedtls_open\library/bignum.c ****     if( mbedtls_mpi_cmp_int( B, 0 ) == 0 )
1341:Source\mbedtls_open\library/bignum.c ****         return( MBEDTLS_ERR_MPI_DIVISION_BY_ZERO );
1342:Source\mbedtls_open\library/bignum.c **** 
1343:Source\mbedtls_open\library/bignum.c ****     mbedtls_mpi_init( &X ); mbedtls_mpi_init( &Y ); mbedtls_mpi_init( &Z );
1344:Source\mbedtls_open\library/bignum.c ****     mbedtls_mpi_init( &T1 ); mbedtls_mpi_init( &T2 );
1345:Source\mbedtls_open\library/bignum.c **** 
1346:Source\mbedtls_open\library/bignum.c ****     if( mbedtls_mpi_cmp_abs( A, B ) < 0 )
1347:Source\mbedtls_open\library/bignum.c ****     {
1348:Source\mbedtls_open\library/bignum.c ****         if( Q != NULL ) MBEDTLS_MPI_CHK( mbedtls_mpi_lset( Q, 0 ) );
1349:Source\mbedtls_open\library/bignum.c ****         if( R != NULL ) MBEDTLS_MPI_CHK( mbedtls_mpi_copy( R, A ) );
1350:Source\mbedtls_open\library/bignum.c ****         return( 0 );
ARM GAS  C:\Users\Phuong\AppData\Local\Temp\cciUg6zJ.s 			page 46


1351:Source\mbedtls_open\library/bignum.c ****     }
1352:Source\mbedtls_open\library/bignum.c **** 
1353:Source\mbedtls_open\library/bignum.c ****     MBEDTLS_MPI_CHK( mbedtls_mpi_copy( &X, A ) );
1354:Source\mbedtls_open\library/bignum.c ****     MBEDTLS_MPI_CHK( mbedtls_mpi_copy( &Y, B ) );
1355:Source\mbedtls_open\library/bignum.c ****     X.s = Y.s = 1;
1356:Source\mbedtls_open\library/bignum.c **** 
1357:Source\mbedtls_open\library/bignum.c ****     MBEDTLS_MPI_CHK( mbedtls_mpi_grow( &Z, A->n + 2 ) );
1358:Source\mbedtls_open\library/bignum.c ****     MBEDTLS_MPI_CHK( mbedtls_mpi_lset( &Z,  0 ) );
1359:Source\mbedtls_open\library/bignum.c ****     MBEDTLS_MPI_CHK( mbedtls_mpi_grow( &T1, 2 ) );
1360:Source\mbedtls_open\library/bignum.c ****     MBEDTLS_MPI_CHK( mbedtls_mpi_grow( &T2, 3 ) );
1361:Source\mbedtls_open\library/bignum.c **** 
1362:Source\mbedtls_open\library/bignum.c ****     k = mbedtls_mpi_bitlen( &Y ) % biL;
1363:Source\mbedtls_open\library/bignum.c ****     if( k < biL - 1 )
1364:Source\mbedtls_open\library/bignum.c ****     {
1365:Source\mbedtls_open\library/bignum.c ****         k = biL - 1 - k;
1366:Source\mbedtls_open\library/bignum.c ****         MBEDTLS_MPI_CHK( mbedtls_mpi_shift_l( &X, k ) );
1367:Source\mbedtls_open\library/bignum.c ****         MBEDTLS_MPI_CHK( mbedtls_mpi_shift_l( &Y, k ) );
1368:Source\mbedtls_open\library/bignum.c ****     }
1369:Source\mbedtls_open\library/bignum.c ****     else k = 0;
1370:Source\mbedtls_open\library/bignum.c **** 
1371:Source\mbedtls_open\library/bignum.c ****     n = X.n - 1;
1372:Source\mbedtls_open\library/bignum.c ****     t = Y.n - 1;
1373:Source\mbedtls_open\library/bignum.c ****     MBEDTLS_MPI_CHK( mbedtls_mpi_shift_l( &Y, biL * ( n - t ) ) );
1374:Source\mbedtls_open\library/bignum.c **** 
1375:Source\mbedtls_open\library/bignum.c ****     while( mbedtls_mpi_cmp_mpi( &X, &Y ) >= 0 )
1376:Source\mbedtls_open\library/bignum.c ****     {
1377:Source\mbedtls_open\library/bignum.c ****         Z.p[n - t]++;
1378:Source\mbedtls_open\library/bignum.c ****         MBEDTLS_MPI_CHK( mbedtls_mpi_sub_mpi( &X, &X, &Y ) );
1379:Source\mbedtls_open\library/bignum.c ****     }
1380:Source\mbedtls_open\library/bignum.c ****     MBEDTLS_MPI_CHK( mbedtls_mpi_shift_r( &Y, biL * ( n - t ) ) );
1381:Source\mbedtls_open\library/bignum.c **** 
1382:Source\mbedtls_open\library/bignum.c ****     for( i = n; i > t ; i-- )
1383:Source\mbedtls_open\library/bignum.c ****     {
1384:Source\mbedtls_open\library/bignum.c ****         if( X.p[i] >= Y.p[t] )
1385:Source\mbedtls_open\library/bignum.c ****             Z.p[i - t - 1] = ~0;
1386:Source\mbedtls_open\library/bignum.c ****         else
1387:Source\mbedtls_open\library/bignum.c ****         {
1388:Source\mbedtls_open\library/bignum.c ****             Z.p[i - t - 1] = mbedtls_int_div_int( X.p[i], X.p[i - 1],
1389:Source\mbedtls_open\library/bignum.c ****                                                             Y.p[t], NULL);
1390:Source\mbedtls_open\library/bignum.c ****         }
1391:Source\mbedtls_open\library/bignum.c **** 
1392:Source\mbedtls_open\library/bignum.c ****         Z.p[i - t - 1]++;
1393:Source\mbedtls_open\library/bignum.c ****         do
1394:Source\mbedtls_open\library/bignum.c ****         {
1395:Source\mbedtls_open\library/bignum.c ****             Z.p[i - t - 1]--;
1396:Source\mbedtls_open\library/bignum.c **** 
1397:Source\mbedtls_open\library/bignum.c ****             MBEDTLS_MPI_CHK( mbedtls_mpi_lset( &T1, 0 ) );
1398:Source\mbedtls_open\library/bignum.c ****             T1.p[0] = ( t < 1 ) ? 0 : Y.p[t - 1];
1399:Source\mbedtls_open\library/bignum.c ****             T1.p[1] = Y.p[t];
1400:Source\mbedtls_open\library/bignum.c ****             MBEDTLS_MPI_CHK( mbedtls_mpi_mul_int( &T1, &T1, Z.p[i - t - 1] ) );
1401:Source\mbedtls_open\library/bignum.c **** 
1402:Source\mbedtls_open\library/bignum.c ****             MBEDTLS_MPI_CHK( mbedtls_mpi_lset( &T2, 0 ) );
1403:Source\mbedtls_open\library/bignum.c ****             T2.p[0] = ( i < 2 ) ? 0 : X.p[i - 2];
1404:Source\mbedtls_open\library/bignum.c ****             T2.p[1] = ( i < 1 ) ? 0 : X.p[i - 1];
1405:Source\mbedtls_open\library/bignum.c ****             T2.p[2] = X.p[i];
1406:Source\mbedtls_open\library/bignum.c ****         }
1407:Source\mbedtls_open\library/bignum.c ****         while( mbedtls_mpi_cmp_mpi( &T1, &T2 ) > 0 );
ARM GAS  C:\Users\Phuong\AppData\Local\Temp\cciUg6zJ.s 			page 47


1408:Source\mbedtls_open\library/bignum.c **** 
1409:Source\mbedtls_open\library/bignum.c ****         MBEDTLS_MPI_CHK( mbedtls_mpi_mul_int( &T1, &Y, Z.p[i - t - 1] ) );
1410:Source\mbedtls_open\library/bignum.c ****         MBEDTLS_MPI_CHK( mbedtls_mpi_shift_l( &T1,  biL * ( i - t - 1 ) ) );
1411:Source\mbedtls_open\library/bignum.c ****         MBEDTLS_MPI_CHK( mbedtls_mpi_sub_mpi( &X, &X, &T1 ) );
1412:Source\mbedtls_open\library/bignum.c **** 
1413:Source\mbedtls_open\library/bignum.c ****         if( mbedtls_mpi_cmp_int( &X, 0 ) < 0 )
1414:Source\mbedtls_open\library/bignum.c ****         {
1415:Source\mbedtls_open\library/bignum.c ****             MBEDTLS_MPI_CHK( mbedtls_mpi_copy( &T1, &Y ) );
1416:Source\mbedtls_open\library/bignum.c ****             MBEDTLS_MPI_CHK( mbedtls_mpi_shift_l( &T1, biL * ( i - t - 1 ) ) );
1417:Source\mbedtls_open\library/bignum.c ****             MBEDTLS_MPI_CHK( mbedtls_mpi_add_mpi( &X, &X, &T1 ) );
1418:Source\mbedtls_open\library/bignum.c ****             Z.p[i - t - 1]--;
1419:Source\mbedtls_open\library/bignum.c ****         }
1420:Source\mbedtls_open\library/bignum.c ****     }
1421:Source\mbedtls_open\library/bignum.c **** 
1422:Source\mbedtls_open\library/bignum.c ****     if( Q != NULL )
1423:Source\mbedtls_open\library/bignum.c ****     {
1424:Source\mbedtls_open\library/bignum.c ****         MBEDTLS_MPI_CHK( mbedtls_mpi_copy( Q, &Z ) );
1425:Source\mbedtls_open\library/bignum.c ****         Q->s = A->s * B->s;
1426:Source\mbedtls_open\library/bignum.c ****     }
1427:Source\mbedtls_open\library/bignum.c **** 
1428:Source\mbedtls_open\library/bignum.c ****     if( R != NULL )
1429:Source\mbedtls_open\library/bignum.c ****     {
1430:Source\mbedtls_open\library/bignum.c ****         MBEDTLS_MPI_CHK( mbedtls_mpi_shift_r( &X, k ) );
1431:Source\mbedtls_open\library/bignum.c ****         X.s = A->s;
1432:Source\mbedtls_open\library/bignum.c ****         MBEDTLS_MPI_CHK( mbedtls_mpi_copy( R, &X ) );
1433:Source\mbedtls_open\library/bignum.c **** 
1434:Source\mbedtls_open\library/bignum.c ****         if( mbedtls_mpi_cmp_int( R, 0 ) == 0 )
1435:Source\mbedtls_open\library/bignum.c ****             R->s = 1;
1436:Source\mbedtls_open\library/bignum.c ****     }
1437:Source\mbedtls_open\library/bignum.c **** 
1438:Source\mbedtls_open\library/bignum.c **** cleanup:
1439:Source\mbedtls_open\library/bignum.c **** 
1440:Source\mbedtls_open\library/bignum.c ****     mbedtls_mpi_free( &X ); mbedtls_mpi_free( &Y ); mbedtls_mpi_free( &Z );
1441:Source\mbedtls_open\library/bignum.c ****     mbedtls_mpi_free( &T1 ); mbedtls_mpi_free( &T2 );
1442:Source\mbedtls_open\library/bignum.c **** 
1443:Source\mbedtls_open\library/bignum.c ****     return( ret );
1444:Source\mbedtls_open\library/bignum.c **** }
1445:Source\mbedtls_open\library/bignum.c **** 
1446:Source\mbedtls_open\library/bignum.c **** /*
1447:Source\mbedtls_open\library/bignum.c ****  * Division by int: A = Q * b + R
1448:Source\mbedtls_open\library/bignum.c ****  */
1449:Source\mbedtls_open\library/bignum.c **** int mbedtls_mpi_div_int( mbedtls_mpi *Q, mbedtls_mpi *R, const mbedtls_mpi *A, mbedtls_mpi_sint b )
1450:Source\mbedtls_open\library/bignum.c **** {
1451:Source\mbedtls_open\library/bignum.c ****     mbedtls_mpi _B;
1452:Source\mbedtls_open\library/bignum.c ****     mbedtls_mpi_uint p[1];
1453:Source\mbedtls_open\library/bignum.c **** 
1454:Source\mbedtls_open\library/bignum.c ****     p[0] = ( b < 0 ) ? -b : b;
1455:Source\mbedtls_open\library/bignum.c ****     _B.s = ( b < 0 ) ? -1 : 1;
1456:Source\mbedtls_open\library/bignum.c ****     _B.n = 1;
1457:Source\mbedtls_open\library/bignum.c ****     _B.p = p;
1458:Source\mbedtls_open\library/bignum.c **** 
1459:Source\mbedtls_open\library/bignum.c ****     return( mbedtls_mpi_div_mpi( Q, R, A, &_B ) );
1460:Source\mbedtls_open\library/bignum.c **** }
1461:Source\mbedtls_open\library/bignum.c **** 
1462:Source\mbedtls_open\library/bignum.c **** /*
1463:Source\mbedtls_open\library/bignum.c ****  * Modulo: R = A mod B
1464:Source\mbedtls_open\library/bignum.c ****  */
ARM GAS  C:\Users\Phuong\AppData\Local\Temp\cciUg6zJ.s 			page 48


1465:Source\mbedtls_open\library/bignum.c **** int mbedtls_mpi_mod_mpi( mbedtls_mpi *R, const mbedtls_mpi *A, const mbedtls_mpi *B )
1466:Source\mbedtls_open\library/bignum.c **** {
1467:Source\mbedtls_open\library/bignum.c ****     int ret;
1468:Source\mbedtls_open\library/bignum.c **** 
1469:Source\mbedtls_open\library/bignum.c ****     if( mbedtls_mpi_cmp_int( B, 0 ) < 0 )
1470:Source\mbedtls_open\library/bignum.c ****         return( MBEDTLS_ERR_MPI_NEGATIVE_VALUE );
1471:Source\mbedtls_open\library/bignum.c **** 
1472:Source\mbedtls_open\library/bignum.c ****     MBEDTLS_MPI_CHK( mbedtls_mpi_div_mpi( NULL, R, A, B ) );
1473:Source\mbedtls_open\library/bignum.c **** 
1474:Source\mbedtls_open\library/bignum.c ****     while( mbedtls_mpi_cmp_int( R, 0 ) < 0 )
1475:Source\mbedtls_open\library/bignum.c ****       MBEDTLS_MPI_CHK( mbedtls_mpi_add_mpi( R, R, B ) );
1476:Source\mbedtls_open\library/bignum.c **** 
1477:Source\mbedtls_open\library/bignum.c ****     while( mbedtls_mpi_cmp_mpi( R, B ) >= 0 )
1478:Source\mbedtls_open\library/bignum.c ****       MBEDTLS_MPI_CHK( mbedtls_mpi_sub_mpi( R, R, B ) );
1479:Source\mbedtls_open\library/bignum.c **** 
1480:Source\mbedtls_open\library/bignum.c **** cleanup:
1481:Source\mbedtls_open\library/bignum.c **** 
1482:Source\mbedtls_open\library/bignum.c ****     return( ret );
1483:Source\mbedtls_open\library/bignum.c **** }
1484:Source\mbedtls_open\library/bignum.c **** 
1485:Source\mbedtls_open\library/bignum.c **** /*
1486:Source\mbedtls_open\library/bignum.c ****  * Modulo: r = A mod b
1487:Source\mbedtls_open\library/bignum.c ****  */
1488:Source\mbedtls_open\library/bignum.c **** int mbedtls_mpi_mod_int( mbedtls_mpi_uint *r, const mbedtls_mpi *A, mbedtls_mpi_sint b )
1489:Source\mbedtls_open\library/bignum.c **** {
1490:Source\mbedtls_open\library/bignum.c ****     size_t i;
1491:Source\mbedtls_open\library/bignum.c ****     mbedtls_mpi_uint x, y, z;
1492:Source\mbedtls_open\library/bignum.c **** 
1493:Source\mbedtls_open\library/bignum.c ****     if( b == 0 )
1494:Source\mbedtls_open\library/bignum.c ****         return( MBEDTLS_ERR_MPI_DIVISION_BY_ZERO );
1495:Source\mbedtls_open\library/bignum.c **** 
1496:Source\mbedtls_open\library/bignum.c ****     if( b < 0 )
1497:Source\mbedtls_open\library/bignum.c ****         return( MBEDTLS_ERR_MPI_NEGATIVE_VALUE );
1498:Source\mbedtls_open\library/bignum.c **** 
1499:Source\mbedtls_open\library/bignum.c ****     /*
1500:Source\mbedtls_open\library/bignum.c ****      * handle trivial cases
1501:Source\mbedtls_open\library/bignum.c ****      */
1502:Source\mbedtls_open\library/bignum.c ****     if( b == 1 )
1503:Source\mbedtls_open\library/bignum.c ****     {
1504:Source\mbedtls_open\library/bignum.c ****         *r = 0;
1505:Source\mbedtls_open\library/bignum.c ****         return( 0 );
1506:Source\mbedtls_open\library/bignum.c ****     }
1507:Source\mbedtls_open\library/bignum.c **** 
1508:Source\mbedtls_open\library/bignum.c ****     if( b == 2 )
1509:Source\mbedtls_open\library/bignum.c ****     {
1510:Source\mbedtls_open\library/bignum.c ****         *r = A->p[0] & 1;
1511:Source\mbedtls_open\library/bignum.c ****         return( 0 );
1512:Source\mbedtls_open\library/bignum.c ****     }
1513:Source\mbedtls_open\library/bignum.c **** 
1514:Source\mbedtls_open\library/bignum.c ****     /*
1515:Source\mbedtls_open\library/bignum.c ****      * general case
1516:Source\mbedtls_open\library/bignum.c ****      */
1517:Source\mbedtls_open\library/bignum.c ****     for( i = A->n, y = 0; i > 0; i-- )
1518:Source\mbedtls_open\library/bignum.c ****     {
1519:Source\mbedtls_open\library/bignum.c ****         x  = A->p[i - 1];
1520:Source\mbedtls_open\library/bignum.c ****         y  = ( y << biH ) | ( x >> biH );
1521:Source\mbedtls_open\library/bignum.c ****         z  = y / b;
ARM GAS  C:\Users\Phuong\AppData\Local\Temp\cciUg6zJ.s 			page 49


1522:Source\mbedtls_open\library/bignum.c ****         y -= z * b;
1523:Source\mbedtls_open\library/bignum.c **** 
1524:Source\mbedtls_open\library/bignum.c ****         x <<= biH;
1525:Source\mbedtls_open\library/bignum.c ****         y  = ( y << biH ) | ( x >> biH );
1526:Source\mbedtls_open\library/bignum.c ****         z  = y / b;
1527:Source\mbedtls_open\library/bignum.c ****         y -= z * b;
1528:Source\mbedtls_open\library/bignum.c ****     }
1529:Source\mbedtls_open\library/bignum.c **** 
1530:Source\mbedtls_open\library/bignum.c ****     /*
1531:Source\mbedtls_open\library/bignum.c ****      * If A is negative, then the current y represents a negative value.
1532:Source\mbedtls_open\library/bignum.c ****      * Flipping it to the positive side.
1533:Source\mbedtls_open\library/bignum.c ****      */
1534:Source\mbedtls_open\library/bignum.c ****     if( A->s < 0 && y != 0 )
1535:Source\mbedtls_open\library/bignum.c ****         y = b - y;
1536:Source\mbedtls_open\library/bignum.c **** 
1537:Source\mbedtls_open\library/bignum.c ****     *r = y;
1538:Source\mbedtls_open\library/bignum.c **** 
1539:Source\mbedtls_open\library/bignum.c ****     return( 0 );
1540:Source\mbedtls_open\library/bignum.c **** }
1541:Source\mbedtls_open\library/bignum.c **** 
1542:Source\mbedtls_open\library/bignum.c **** /*
1543:Source\mbedtls_open\library/bignum.c ****  * Fast Montgomery initialization (thanks to Tom St Denis)
1544:Source\mbedtls_open\library/bignum.c ****  */
1545:Source\mbedtls_open\library/bignum.c **** static void mpi_montg_init( mbedtls_mpi_uint *mm, const mbedtls_mpi *N )
1546:Source\mbedtls_open\library/bignum.c **** {
 1204              		.loc 1 1546 0
 1205              		.cfi_startproc
 1206              		@ args = 0, pretend = 0, frame = 0
 1207              		@ frame_needed = 0, uses_anonymous_args = 0
 1208              	.LVL53:
 1209 0000 30B5     		push	{r4, r5, lr}
 1210              		.cfi_def_cfa_offset 12
 1211              		.cfi_offset 4, -12
 1212              		.cfi_offset 5, -8
 1213              		.cfi_offset 14, -4
1547:Source\mbedtls_open\library/bignum.c ****     mbedtls_mpi_uint x, m0 = N->p[0];
 1214              		.loc 1 1547 0
 1215 0002 8B68     		ldr	r3, [r1, #8]
 1216 0004 1C68     		ldr	r4, [r3]
 1217              	.LVL54:
1548:Source\mbedtls_open\library/bignum.c ****     unsigned int i;
1549:Source\mbedtls_open\library/bignum.c **** 
1550:Source\mbedtls_open\library/bignum.c ****     x  = m0;
1551:Source\mbedtls_open\library/bignum.c ****     x += ( ( m0 + 2 ) & 4 ) << 1;
 1218              		.loc 1 1551 0
 1219 0006 A31C     		adds	r3, r4, #2
 1220 0008 5B00     		lsls	r3, r3, #1
 1221 000a 0822     		movs	r2, #8
 1222 000c 1340     		ands	r3, r2
 1223 000e E318     		adds	r3, r4, r3
 1224              	.LVL55:
1552:Source\mbedtls_open\library/bignum.c **** 
1553:Source\mbedtls_open\library/bignum.c ****     for( i = biL; i >= 8; i /= 2 )
 1225              		.loc 1 1553 0
 1226 0010 2021     		movs	r1, #32
 1227              	.LVL56:
 1228 0012 05E0     		b	.L34
ARM GAS  C:\Users\Phuong\AppData\Local\Temp\cciUg6zJ.s 			page 50


 1229              	.LVL57:
 1230              	.L35:
1554:Source\mbedtls_open\library/bignum.c ****         x *= ( 2 - ( m0 * x ) );
 1231              		.loc 1 1554 0 discriminator 3
 1232 0014 2500     		movs	r5, r4
 1233 0016 5D43     		muls	r5, r3
 1234 0018 0222     		movs	r2, #2
 1235 001a 521B     		subs	r2, r2, r5
 1236 001c 5343     		muls	r3, r2
 1237              	.LVL58:
1553:Source\mbedtls_open\library/bignum.c ****         x *= ( 2 - ( m0 * x ) );
 1238              		.loc 1 1553 0 discriminator 3
 1239 001e 4908     		lsrs	r1, r1, #1
 1240              	.LVL59:
 1241              	.L34:
1553:Source\mbedtls_open\library/bignum.c ****         x *= ( 2 - ( m0 * x ) );
 1242              		.loc 1 1553 0 is_stmt 0 discriminator 1
 1243 0020 0729     		cmp	r1, #7
 1244 0022 F7D8     		bhi	.L35
1555:Source\mbedtls_open\library/bignum.c **** 
1556:Source\mbedtls_open\library/bignum.c ****     *mm = ~x + 1;
 1245              		.loc 1 1556 0 is_stmt 1
 1246 0024 5B42     		rsbs	r3, r3, #0
 1247              	.LVL60:
 1248 0026 0360     		str	r3, [r0]
1557:Source\mbedtls_open\library/bignum.c **** }
 1249              		.loc 1 1557 0
 1250              		@ sp needed
 1251              	.LVL61:
 1252 0028 30BD     		pop	{r4, r5, pc}
 1253              		.cfi_endproc
 1254              	.LFE43:
 1255              		.size	mpi_montg_init, .-mpi_montg_init
 1256 002a C046     		.section	.text.mbedtls_mpi_zeroize,"ax",%progbits
 1257              		.align	2
 1258              		.code	16
 1259              		.thumb_func
 1260              		.type	mbedtls_mpi_zeroize, %function
 1261              	mbedtls_mpi_zeroize:
 1262              	.LFB1:
  77:Source\mbedtls_open\library/bignum.c ****     mbedtls_platform_zeroize( v, ciL * n );
 1263              		.loc 1 77 0
 1264              		.cfi_startproc
 1265              		@ args = 0, pretend = 0, frame = 0
 1266              		@ frame_needed = 0, uses_anonymous_args = 0
 1267              	.LVL62:
 1268 0000 10B5     		push	{r4, lr}
 1269              		.cfi_def_cfa_offset 8
 1270              		.cfi_offset 4, -8
 1271              		.cfi_offset 14, -4
  78:Source\mbedtls_open\library/bignum.c **** }
 1272              		.loc 1 78 0
 1273 0002 8900     		lsls	r1, r1, #2
 1274              	.LVL63:
 1275 0004 FFF7FEFF 		bl	mbedtls_platform_zeroize
 1276              	.LVL64:
  79:Source\mbedtls_open\library/bignum.c **** 
ARM GAS  C:\Users\Phuong\AppData\Local\Temp\cciUg6zJ.s 			page 51


 1277              		.loc 1 79 0
 1278              		@ sp needed
 1279 0008 10BD     		pop	{r4, pc}
 1280              		.cfi_endproc
 1281              	.LFE1:
 1282              		.size	mbedtls_mpi_zeroize, .-mbedtls_mpi_zeroize
 1283 000a C046     		.section	.text.mbedtls_mpi_init,"ax",%progbits
 1284              		.align	2
 1285              		.global	mbedtls_mpi_init
 1286              		.code	16
 1287              		.thumb_func
 1288              		.type	mbedtls_mpi_init, %function
 1289              	mbedtls_mpi_init:
 1290              	.LFB2:
  85:Source\mbedtls_open\library/bignum.c ****     if( X == NULL )
 1291              		.loc 1 85 0
 1292              		.cfi_startproc
 1293              		@ args = 0, pretend = 0, frame = 0
 1294              		@ frame_needed = 0, uses_anonymous_args = 0
 1295              		@ link register save eliminated.
 1296              	.LVL65:
  86:Source\mbedtls_open\library/bignum.c ****         return;
 1297              		.loc 1 86 0
 1298 0000 0028     		cmp	r0, #0
 1299 0002 04D0     		beq	.L37
  89:Source\mbedtls_open\library/bignum.c ****     X->n = 0;
 1300              		.loc 1 89 0
 1301 0004 0123     		movs	r3, #1
 1302 0006 0360     		str	r3, [r0]
  90:Source\mbedtls_open\library/bignum.c ****     X->p = NULL;
 1303              		.loc 1 90 0
 1304 0008 0023     		movs	r3, #0
 1305 000a 4360     		str	r3, [r0, #4]
  91:Source\mbedtls_open\library/bignum.c **** }
 1306              		.loc 1 91 0
 1307 000c 8360     		str	r3, [r0, #8]
 1308              	.L37:
  92:Source\mbedtls_open\library/bignum.c **** 
 1309              		.loc 1 92 0
 1310              		@ sp needed
 1311 000e 7047     		bx	lr
 1312              		.cfi_endproc
 1313              	.LFE2:
 1314              		.size	mbedtls_mpi_init, .-mbedtls_mpi_init
 1315              		.section	.text.mbedtls_mpi_free,"ax",%progbits
 1316              		.align	2
 1317              		.global	mbedtls_mpi_free
 1318              		.code	16
 1319              		.thumb_func
 1320              		.type	mbedtls_mpi_free, %function
 1321              	mbedtls_mpi_free:
 1322              	.LFB3:
  98:Source\mbedtls_open\library/bignum.c ****     if( X == NULL )
 1323              		.loc 1 98 0
 1324              		.cfi_startproc
 1325              		@ args = 0, pretend = 0, frame = 0
 1326              		@ frame_needed = 0, uses_anonymous_args = 0
ARM GAS  C:\Users\Phuong\AppData\Local\Temp\cciUg6zJ.s 			page 52


 1327              	.LVL66:
 1328 0000 10B5     		push	{r4, lr}
 1329              		.cfi_def_cfa_offset 8
 1330              		.cfi_offset 4, -8
 1331              		.cfi_offset 14, -4
 1332 0002 041E     		subs	r4, r0, #0
  99:Source\mbedtls_open\library/bignum.c ****         return;
 1333              		.loc 1 99 0
 1334 0004 0DD0     		beq	.L39
 102:Source\mbedtls_open\library/bignum.c ****     {
 1335              		.loc 1 102 0
 1336 0006 8068     		ldr	r0, [r0, #8]
 1337              	.LVL67:
 1338 0008 0028     		cmp	r0, #0
 1339 000a 05D0     		beq	.L41
 104:Source\mbedtls_open\library/bignum.c ****         mbedtls_free( X->p );
 1340              		.loc 1 104 0
 1341 000c 6168     		ldr	r1, [r4, #4]
 1342 000e FFF7FEFF 		bl	mbedtls_mpi_zeroize
 1343              	.LVL68:
 105:Source\mbedtls_open\library/bignum.c ****     }
 1344              		.loc 1 105 0
 1345 0012 A068     		ldr	r0, [r4, #8]
 1346 0014 FFF7FEFF 		bl	free
 1347              	.LVL69:
 1348              	.L41:
 108:Source\mbedtls_open\library/bignum.c ****     X->n = 0;
 1349              		.loc 1 108 0
 1350 0018 0123     		movs	r3, #1
 1351 001a 2360     		str	r3, [r4]
 109:Source\mbedtls_open\library/bignum.c ****     X->p = NULL;
 1352              		.loc 1 109 0
 1353 001c 0023     		movs	r3, #0
 1354 001e 6360     		str	r3, [r4, #4]
 110:Source\mbedtls_open\library/bignum.c **** }
 1355              		.loc 1 110 0
 1356 0020 A360     		str	r3, [r4, #8]
 1357              	.L39:
 111:Source\mbedtls_open\library/bignum.c **** 
 1358              		.loc 1 111 0
 1359              		@ sp needed
 1360              	.LVL70:
 1361 0022 10BD     		pop	{r4, pc}
 1362              		.cfi_endproc
 1363              	.LFE3:
 1364              		.size	mbedtls_mpi_free, .-mbedtls_mpi_free
 1365              		.section	.text.mbedtls_mpi_grow,"ax",%progbits
 1366              		.align	2
 1367              		.global	mbedtls_mpi_grow
 1368              		.code	16
 1369              		.thumb_func
 1370              		.type	mbedtls_mpi_grow, %function
 1371              	mbedtls_mpi_grow:
 1372              	.LFB4:
 117:Source\mbedtls_open\library/bignum.c ****     mbedtls_mpi_uint *p;
 1373              		.loc 1 117 0
 1374              		.cfi_startproc
ARM GAS  C:\Users\Phuong\AppData\Local\Temp\cciUg6zJ.s 			page 53


 1375              		@ args = 0, pretend = 0, frame = 0
 1376              		@ frame_needed = 0, uses_anonymous_args = 0
 1377              	.LVL71:
 1378 0000 F8B5     		push	{r3, r4, r5, r6, r7, lr}
 1379              		.cfi_def_cfa_offset 24
 1380              		.cfi_offset 3, -24
 1381              		.cfi_offset 4, -20
 1382              		.cfi_offset 5, -16
 1383              		.cfi_offset 6, -12
 1384              		.cfi_offset 7, -8
 1385              		.cfi_offset 14, -4
 1386 0002 0400     		movs	r4, r0
 1387 0004 0D00     		movs	r5, r1
 120:Source\mbedtls_open\library/bignum.c ****         return( MBEDTLS_ERR_MPI_ALLOC_FAILED );
 1388              		.loc 1 120 0
 1389 0006 124B     		ldr	r3, .L48
 1390 0008 9942     		cmp	r1, r3
 1391 000a 19D8     		bhi	.L45
 123:Source\mbedtls_open\library/bignum.c ****     {
 1392              		.loc 1 123 0
 1393 000c 4668     		ldr	r6, [r0, #4]
 1394 000e B142     		cmp	r1, r6
 1395 0010 19D9     		bls	.L46
 125:Source\mbedtls_open\library/bignum.c ****             return( MBEDTLS_ERR_MPI_ALLOC_FAILED );
 1396              		.loc 1 125 0
 1397 0012 0421     		movs	r1, #4
 1398              	.LVL72:
 1399 0014 2800     		movs	r0, r5
 1400              	.LVL73:
 1401 0016 FFF7FEFF 		bl	calloc
 1402              	.LVL74:
 1403 001a 071E     		subs	r7, r0, #0
 1404              	.LVL75:
 1405 001c 15D0     		beq	.L47
 128:Source\mbedtls_open\library/bignum.c ****         {
 1406              		.loc 1 128 0
 1407 001e A168     		ldr	r1, [r4, #8]
 1408 0020 0029     		cmp	r1, #0
 1409 0022 09D0     		beq	.L44
 130:Source\mbedtls_open\library/bignum.c ****             mbedtls_mpi_zeroize( X->p, X->n );
 1410              		.loc 1 130 0
 1411 0024 B200     		lsls	r2, r6, #2
 1412 0026 FFF7FEFF 		bl	memcpy
 1413              	.LVL76:
 131:Source\mbedtls_open\library/bignum.c ****             mbedtls_free( X->p );
 1414              		.loc 1 131 0
 1415 002a 6168     		ldr	r1, [r4, #4]
 1416 002c A068     		ldr	r0, [r4, #8]
 1417 002e FFF7FEFF 		bl	mbedtls_mpi_zeroize
 1418              	.LVL77:
 132:Source\mbedtls_open\library/bignum.c ****         }
 1419              		.loc 1 132 0
 1420 0032 A068     		ldr	r0, [r4, #8]
 1421 0034 FFF7FEFF 		bl	free
 1422              	.LVL78:
 1423              	.L44:
 135:Source\mbedtls_open\library/bignum.c ****         X->p = p;
ARM GAS  C:\Users\Phuong\AppData\Local\Temp\cciUg6zJ.s 			page 54


 1424              		.loc 1 135 0
 1425 0038 6560     		str	r5, [r4, #4]
 136:Source\mbedtls_open\library/bignum.c ****     }
 1426              		.loc 1 136 0
 1427 003a A760     		str	r7, [r4, #8]
 139:Source\mbedtls_open\library/bignum.c **** }
 1428              		.loc 1 139 0
 1429 003c 0020     		movs	r0, #0
 1430 003e 06E0     		b	.L43
 1431              	.LVL79:
 1432              	.L45:
 121:Source\mbedtls_open\library/bignum.c **** 
 1433              		.loc 1 121 0
 1434 0040 1020     		movs	r0, #16
 1435              	.LVL80:
 1436 0042 4042     		rsbs	r0, r0, #0
 1437 0044 03E0     		b	.L43
 1438              	.LVL81:
 1439              	.L46:
 139:Source\mbedtls_open\library/bignum.c **** }
 1440              		.loc 1 139 0
 1441 0046 0020     		movs	r0, #0
 1442              	.LVL82:
 1443 0048 01E0     		b	.L43
 1444              	.LVL83:
 1445              	.L47:
 126:Source\mbedtls_open\library/bignum.c **** 
 1446              		.loc 1 126 0
 1447 004a 1020     		movs	r0, #16
 1448              	.LVL84:
 1449 004c 4042     		rsbs	r0, r0, #0
 1450              	.LVL85:
 1451              	.L43:
 140:Source\mbedtls_open\library/bignum.c **** 
 1452              		.loc 1 140 0
 1453              		@ sp needed
 1454              	.LVL86:
 1455              	.LVL87:
 1456 004e F8BD     		pop	{r3, r4, r5, r6, r7, pc}
 1457              	.L49:
 1458              		.align	2
 1459              	.L48:
 1460 0050 10270000 		.word	10000
 1461              		.cfi_endproc
 1462              	.LFE4:
 1463              		.size	mbedtls_mpi_grow, .-mbedtls_mpi_grow
 1464              		.section	.text.mbedtls_mpi_shrink,"ax",%progbits
 1465              		.align	2
 1466              		.global	mbedtls_mpi_shrink
 1467              		.code	16
 1468              		.thumb_func
 1469              		.type	mbedtls_mpi_shrink, %function
 1470              	mbedtls_mpi_shrink:
 1471              	.LFB5:
 147:Source\mbedtls_open\library/bignum.c ****     mbedtls_mpi_uint *p;
 1472              		.loc 1 147 0
 1473              		.cfi_startproc
ARM GAS  C:\Users\Phuong\AppData\Local\Temp\cciUg6zJ.s 			page 55


 1474              		@ args = 0, pretend = 0, frame = 0
 1475              		@ frame_needed = 0, uses_anonymous_args = 0
 1476              	.LVL88:
 1477 0000 70B5     		push	{r4, r5, r6, lr}
 1478              		.cfi_def_cfa_offset 16
 1479              		.cfi_offset 4, -16
 1480              		.cfi_offset 5, -12
 1481              		.cfi_offset 6, -8
 1482              		.cfi_offset 14, -4
 1483 0002 0400     		movs	r4, r0
 1484 0004 0D00     		movs	r5, r1
 152:Source\mbedtls_open\library/bignum.c ****         return( mbedtls_mpi_grow( X, nblimbs ) );
 1485              		.loc 1 152 0
 1486 0006 4368     		ldr	r3, [r0, #4]
 1487 0008 8B42     		cmp	r3, r1
 1488 000a 02D8     		bhi	.L51
 153:Source\mbedtls_open\library/bignum.c **** 
 1489              		.loc 1 153 0
 1490 000c FFF7FEFF 		bl	mbedtls_mpi_grow
 1491              	.LVL89:
 1492 0010 26E0     		b	.L52
 1493              	.LVL90:
 1494              	.L51:
 155:Source\mbedtls_open\library/bignum.c ****         if( X->p[i] != 0 )
 1495              		.loc 1 155 0
 1496 0012 013B     		subs	r3, r3, #1
 1497              	.LVL91:
 1498 0014 05E0     		b	.L53
 1499              	.LVL92:
 1500              	.L55:
 156:Source\mbedtls_open\library/bignum.c ****             break;
 1501              		.loc 1 156 0
 1502 0016 9A00     		lsls	r2, r3, #2
 1503 0018 A168     		ldr	r1, [r4, #8]
 1504 001a 5258     		ldr	r2, [r2, r1]
 1505 001c 002A     		cmp	r2, #0
 1506 001e 02D1     		bne	.L54
 155:Source\mbedtls_open\library/bignum.c ****         if( X->p[i] != 0 )
 1507              		.loc 1 155 0 discriminator 2
 1508 0020 013B     		subs	r3, r3, #1
 1509              	.LVL93:
 1510              	.L53:
 155:Source\mbedtls_open\library/bignum.c ****         if( X->p[i] != 0 )
 1511              		.loc 1 155 0 is_stmt 0 discriminator 1
 1512 0022 002B     		cmp	r3, #0
 1513 0024 F7D1     		bne	.L55
 1514              	.L54:
 158:Source\mbedtls_open\library/bignum.c **** 
 1515              		.loc 1 158 0 is_stmt 1
 1516 0026 0133     		adds	r3, r3, #1
 1517              	.LVL94:
 160:Source\mbedtls_open\library/bignum.c ****         i = nblimbs;
 1518              		.loc 1 160 0
 1519 0028 9D42     		cmp	r5, r3
 1520 002a 00D8     		bhi	.L56
 158:Source\mbedtls_open\library/bignum.c **** 
 1521              		.loc 1 158 0
ARM GAS  C:\Users\Phuong\AppData\Local\Temp\cciUg6zJ.s 			page 56


 1522 002c 1D00     		movs	r5, r3
 1523              	.LVL95:
 1524              	.L56:
 163:Source\mbedtls_open\library/bignum.c ****         return( MBEDTLS_ERR_MPI_ALLOC_FAILED );
 1525              		.loc 1 163 0
 1526 002e 0421     		movs	r1, #4
 1527 0030 2800     		movs	r0, r5
 1528              	.LVL96:
 1529 0032 FFF7FEFF 		bl	calloc
 1530              	.LVL97:
 1531 0036 061E     		subs	r6, r0, #0
 1532              	.LVL98:
 1533 0038 10D0     		beq	.L58
 166:Source\mbedtls_open\library/bignum.c ****     {
 1534              		.loc 1 166 0
 1535 003a A168     		ldr	r1, [r4, #8]
 1536 003c 0029     		cmp	r1, #0
 1537 003e 09D0     		beq	.L57
 168:Source\mbedtls_open\library/bignum.c ****         mbedtls_mpi_zeroize( X->p, X->n );
 1538              		.loc 1 168 0
 1539 0040 AA00     		lsls	r2, r5, #2
 1540 0042 FFF7FEFF 		bl	memcpy
 1541              	.LVL99:
 169:Source\mbedtls_open\library/bignum.c ****         mbedtls_free( X->p );
 1542              		.loc 1 169 0
 1543 0046 6168     		ldr	r1, [r4, #4]
 1544 0048 A068     		ldr	r0, [r4, #8]
 1545 004a FFF7FEFF 		bl	mbedtls_mpi_zeroize
 1546              	.LVL100:
 170:Source\mbedtls_open\library/bignum.c ****     }
 1547              		.loc 1 170 0
 1548 004e A068     		ldr	r0, [r4, #8]
 1549 0050 FFF7FEFF 		bl	free
 1550              	.LVL101:
 1551              	.L57:
 173:Source\mbedtls_open\library/bignum.c ****     X->p = p;
 1552              		.loc 1 173 0
 1553 0054 6560     		str	r5, [r4, #4]
 174:Source\mbedtls_open\library/bignum.c **** 
 1554              		.loc 1 174 0
 1555 0056 A660     		str	r6, [r4, #8]
 176:Source\mbedtls_open\library/bignum.c **** }
 1556              		.loc 1 176 0
 1557 0058 0020     		movs	r0, #0
 1558 005a 01E0     		b	.L52
 1559              	.LVL102:
 1560              	.L58:
 164:Source\mbedtls_open\library/bignum.c **** 
 1561              		.loc 1 164 0
 1562 005c 1020     		movs	r0, #16
 1563              	.LVL103:
 1564 005e 4042     		rsbs	r0, r0, #0
 1565              	.LVL104:
 1566              	.L52:
 177:Source\mbedtls_open\library/bignum.c **** 
 1567              		.loc 1 177 0
 1568              		@ sp needed
ARM GAS  C:\Users\Phuong\AppData\Local\Temp\cciUg6zJ.s 			page 57


 1569              	.LVL105:
 1570 0060 70BD     		pop	{r4, r5, r6, pc}
 1571              		.cfi_endproc
 1572              	.LFE5:
 1573              		.size	mbedtls_mpi_shrink, .-mbedtls_mpi_shrink
 1574 0062 C046     		.section	.text.mbedtls_mpi_copy,"ax",%progbits
 1575              		.align	2
 1576              		.global	mbedtls_mpi_copy
 1577              		.code	16
 1578              		.thumb_func
 1579              		.type	mbedtls_mpi_copy, %function
 1580              	mbedtls_mpi_copy:
 1581              	.LFB6:
 183:Source\mbedtls_open\library/bignum.c ****     int ret = 0;
 1582              		.loc 1 183 0
 1583              		.cfi_startproc
 1584              		@ args = 0, pretend = 0, frame = 0
 1585              		@ frame_needed = 0, uses_anonymous_args = 0
 1586              	.LVL106:
 1587 0000 F8B5     		push	{r3, r4, r5, r6, r7, lr}
 1588              		.cfi_def_cfa_offset 24
 1589              		.cfi_offset 3, -24
 1590              		.cfi_offset 4, -20
 1591              		.cfi_offset 5, -16
 1592              		.cfi_offset 6, -12
 1593              		.cfi_offset 7, -8
 1594              		.cfi_offset 14, -4
 1595 0002 0700     		movs	r7, r0
 1596 0004 0D00     		movs	r5, r1
 1597              	.LVL107:
 187:Source\mbedtls_open\library/bignum.c ****         return( 0 );
 1598              		.loc 1 187 0
 1599 0006 8842     		cmp	r0, r1
 1600 0008 2ED0     		beq	.L67
 190:Source\mbedtls_open\library/bignum.c ****     {
 1601              		.loc 1 190 0
 1602 000a 8968     		ldr	r1, [r1, #8]
 1603              	.LVL108:
 1604 000c 0029     		cmp	r1, #0
 1605 000e 03D1     		bne	.L61
 192:Source\mbedtls_open\library/bignum.c ****         return( 0 );
 1606              		.loc 1 192 0
 1607 0010 FFF7FEFF 		bl	mbedtls_mpi_free
 1608              	.LVL109:
 193:Source\mbedtls_open\library/bignum.c ****     }
 1609              		.loc 1 193 0
 1610 0014 0020     		movs	r0, #0
 1611 0016 29E0     		b	.L60
 1612              	.LVL110:
 1613              	.L61:
 196:Source\mbedtls_open\library/bignum.c ****         if( Y->p[i] != 0 )
 1614              		.loc 1 196 0
 1615 0018 6B68     		ldr	r3, [r5, #4]
 1616 001a 5A1E     		subs	r2, r3, #1
 1617              	.LVL111:
 1618 001c 04E0     		b	.L62
 1619              	.L64:
ARM GAS  C:\Users\Phuong\AppData\Local\Temp\cciUg6zJ.s 			page 58


 197:Source\mbedtls_open\library/bignum.c ****             break;
 1620              		.loc 1 197 0
 1621 001e 9300     		lsls	r3, r2, #2
 1622 0020 5B58     		ldr	r3, [r3, r1]
 1623 0022 002B     		cmp	r3, #0
 1624 0024 02D1     		bne	.L63
 196:Source\mbedtls_open\library/bignum.c ****         if( Y->p[i] != 0 )
 1625              		.loc 1 196 0 discriminator 2
 1626 0026 013A     		subs	r2, r2, #1
 1627              	.LVL112:
 1628              	.L62:
 196:Source\mbedtls_open\library/bignum.c ****         if( Y->p[i] != 0 )
 1629              		.loc 1 196 0 is_stmt 0 discriminator 1
 1630 0028 002A     		cmp	r2, #0
 1631 002a F8D1     		bne	.L64
 1632              	.L63:
 199:Source\mbedtls_open\library/bignum.c **** 
 1633              		.loc 1 199 0 is_stmt 1
 1634 002c 541C     		adds	r4, r2, #1
 1635              	.LVL113:
 201:Source\mbedtls_open\library/bignum.c **** 
 1636              		.loc 1 201 0
 1637 002e 2B68     		ldr	r3, [r5]
 1638 0030 3B60     		str	r3, [r7]
 203:Source\mbedtls_open\library/bignum.c ****     {
 1639              		.loc 1 203 0
 1640 0032 7A68     		ldr	r2, [r7, #4]
 1641 0034 9442     		cmp	r4, r2
 1642 0036 06D9     		bls	.L65
 205:Source\mbedtls_open\library/bignum.c ****     }
 1643              		.loc 1 205 0
 1644 0038 2100     		movs	r1, r4
 1645 003a 3800     		movs	r0, r7
 1646              	.LVL114:
 1647 003c FFF7FEFF 		bl	mbedtls_mpi_grow
 1648              	.LVL115:
 1649 0040 061E     		subs	r6, r0, #0
 1650              	.LVL116:
 1651 0042 0AD0     		beq	.L66
 1652 0044 12E0     		b	.L68
 1653              	.LVL117:
 1654              	.L65:
 209:Source\mbedtls_open\library/bignum.c ****     }
 1655              		.loc 1 209 0
 1656 0046 A000     		lsls	r0, r4, #2
 1657              	.LVL118:
 1658 0048 121B     		subs	r2, r2, r4
 1659 004a 9200     		lsls	r2, r2, #2
 1660 004c BB68     		ldr	r3, [r7, #8]
 1661 004e 9C46     		mov	ip, r3
 1662 0050 6044     		add	r0, r0, ip
 1663 0052 0021     		movs	r1, #0
 1664 0054 FFF7FEFF 		bl	memset
 1665              	.LVL119:
 184:Source\mbedtls_open\library/bignum.c ****     size_t i;
 1666              		.loc 1 184 0
 1667 0058 0026     		movs	r6, #0
ARM GAS  C:\Users\Phuong\AppData\Local\Temp\cciUg6zJ.s 			page 59


 1668              	.LVL120:
 1669              	.L66:
 212:Source\mbedtls_open\library/bignum.c **** 
 1670              		.loc 1 212 0
 1671 005a B868     		ldr	r0, [r7, #8]
 1672 005c A968     		ldr	r1, [r5, #8]
 1673 005e A200     		lsls	r2, r4, #2
 1674 0060 FFF7FEFF 		bl	memcpy
 1675              	.LVL121:
 1676 0064 3000     		movs	r0, r6
 1677 0066 01E0     		b	.L60
 1678              	.LVL122:
 1679              	.L67:
 188:Source\mbedtls_open\library/bignum.c **** 
 1680              		.loc 1 188 0
 1681 0068 0020     		movs	r0, #0
 1682              	.LVL123:
 1683 006a FFE7     		b	.L60
 1684              	.LVL124:
 1685              	.L68:
 1686              	.L60:
 217:Source\mbedtls_open\library/bignum.c **** 
 1687              		.loc 1 217 0
 1688              		@ sp needed
 1689              	.LVL125:
 1690              	.LVL126:
 1691 006c F8BD     		pop	{r3, r4, r5, r6, r7, pc}
 1692              		.cfi_endproc
 1693              	.LFE6:
 1694              		.size	mbedtls_mpi_copy, .-mbedtls_mpi_copy
 1695 006e C046     		.section	.text.mbedtls_mpi_swap,"ax",%progbits
 1696              		.align	2
 1697              		.global	mbedtls_mpi_swap
 1698              		.code	16
 1699              		.thumb_func
 1700              		.type	mbedtls_mpi_swap, %function
 1701              	mbedtls_mpi_swap:
 1702              	.LFB7:
 223:Source\mbedtls_open\library/bignum.c ****     mbedtls_mpi T;
 1703              		.loc 1 223 0
 1704              		.cfi_startproc
 1705              		@ args = 0, pretend = 0, frame = 16
 1706              		@ frame_needed = 0, uses_anonymous_args = 0
 1707              	.LVL127:
 1708 0000 30B5     		push	{r4, r5, lr}
 1709              		.cfi_def_cfa_offset 12
 1710              		.cfi_offset 4, -12
 1711              		.cfi_offset 5, -8
 1712              		.cfi_offset 14, -4
 1713 0002 85B0     		sub	sp, sp, #20
 1714              		.cfi_def_cfa_offset 32
 1715 0004 0500     		movs	r5, r0
 1716 0006 0C00     		movs	r4, r1
 226:Source\mbedtls_open\library/bignum.c ****     memcpy(  X,  Y, sizeof( mbedtls_mpi ) );
 1717              		.loc 1 226 0
 1718 0008 0C22     		movs	r2, #12
 1719 000a 0100     		movs	r1, r0
ARM GAS  C:\Users\Phuong\AppData\Local\Temp\cciUg6zJ.s 			page 60


 1720              	.LVL128:
 1721 000c 01A8     		add	r0, sp, #4
 1722              	.LVL129:
 1723 000e FFF7FEFF 		bl	memcpy
 1724              	.LVL130:
 227:Source\mbedtls_open\library/bignum.c ****     memcpy(  Y, &T, sizeof( mbedtls_mpi ) );
 1725              		.loc 1 227 0
 1726 0012 0C22     		movs	r2, #12
 1727 0014 2100     		movs	r1, r4
 1728 0016 2800     		movs	r0, r5
 1729 0018 FFF7FEFF 		bl	memcpy
 1730              	.LVL131:
 228:Source\mbedtls_open\library/bignum.c **** }
 1731              		.loc 1 228 0
 1732 001c 0C22     		movs	r2, #12
 1733 001e 01A9     		add	r1, sp, #4
 1734 0020 2000     		movs	r0, r4
 1735 0022 FFF7FEFF 		bl	memcpy
 1736              	.LVL132:
 229:Source\mbedtls_open\library/bignum.c **** 
 1737              		.loc 1 229 0
 1738 0026 05B0     		add	sp, sp, #20
 1739              		@ sp needed
 1740              	.LVL133:
 1741              	.LVL134:
 1742 0028 30BD     		pop	{r4, r5, pc}
 1743              		.cfi_endproc
 1744              	.LFE7:
 1745              		.size	mbedtls_mpi_swap, .-mbedtls_mpi_swap
 1746 002a C046     		.section	.text.mbedtls_mpi_safe_cond_assign,"ax",%progbits
 1747              		.align	2
 1748              		.global	mbedtls_mpi_safe_cond_assign
 1749              		.code	16
 1750              		.thumb_func
 1751              		.type	mbedtls_mpi_safe_cond_assign, %function
 1752              	mbedtls_mpi_safe_cond_assign:
 1753              	.LFB8:
 237:Source\mbedtls_open\library/bignum.c ****     int ret = 0;
 1754              		.loc 1 237 0
 1755              		.cfi_startproc
 1756              		@ args = 0, pretend = 0, frame = 8
 1757              		@ frame_needed = 0, uses_anonymous_args = 0
 1758              	.LVL135:
 1759 0000 F0B5     		push	{r4, r5, r6, r7, lr}
 1760              		.cfi_def_cfa_offset 20
 1761              		.cfi_offset 4, -20
 1762              		.cfi_offset 5, -16
 1763              		.cfi_offset 6, -12
 1764              		.cfi_offset 7, -8
 1765              		.cfi_offset 14, -4
 1766 0002 4746     		mov	r7, r8
 1767 0004 80B4     		push	{r7}
 1768              		.cfi_def_cfa_offset 24
 1769              		.cfi_offset 8, -24
 1770 0006 82B0     		sub	sp, sp, #8
 1771              		.cfi_def_cfa_offset 32
 1772 0008 0400     		movs	r4, r0
ARM GAS  C:\Users\Phuong\AppData\Local\Temp\cciUg6zJ.s 			page 61


 1773 000a 0D00     		movs	r5, r1
 1774              	.LVL136:
 242:Source\mbedtls_open\library/bignum.c **** 
 1775              		.loc 1 242 0
 1776 000c 5342     		rsbs	r3, r2, #0
 1777 000e DBB2     		uxtb	r3, r3
 1778 0010 1A43     		orrs	r2, r3
 1779              	.LVL137:
 1780 0012 D309     		lsrs	r3, r2, #7
 1781 0014 9846     		mov	r8, r3
 1782              	.LVL138:
 244:Source\mbedtls_open\library/bignum.c **** 
 1783              		.loc 1 244 0
 1784 0016 4968     		ldr	r1, [r1, #4]
 1785              	.LVL139:
 1786 0018 FFF7FEFF 		bl	mbedtls_mpi_grow
 1787              	.LVL140:
 1788 001c 0190     		str	r0, [sp, #4]
 1789              	.LVL141:
 1790 001e 0028     		cmp	r0, #0
 1791 0020 26D1     		bne	.L71
 246:Source\mbedtls_open\library/bignum.c **** 
 1792              		.loc 1 246 0
 1793 0022 0127     		movs	r7, #1
 1794 0024 4346     		mov	r3, r8
 1795 0026 FF1A     		subs	r7, r7, r3
 1796 0028 2268     		ldr	r2, [r4]
 1797 002a 7A43     		muls	r2, r7
 1798 002c 2B68     		ldr	r3, [r5]
 1799 002e 4146     		mov	r1, r8
 1800 0030 4B43     		muls	r3, r1
 1801 0032 D318     		adds	r3, r2, r3
 1802 0034 2360     		str	r3, [r4]
 1803              	.LVL142:
 248:Source\mbedtls_open\library/bignum.c ****         X->p[i] = X->p[i] * ( 1 - assign ) + Y->p[i] * assign;
 1804              		.loc 1 248 0
 1805 0036 0023     		movs	r3, #0
 1806 0038 0BE0     		b	.L72
 1807              	.LVL143:
 1808              	.L73:
 249:Source\mbedtls_open\library/bignum.c **** 
 1809              		.loc 1 249 0 discriminator 3
 1810 003a 9900     		lsls	r1, r3, #2
 1811 003c A268     		ldr	r2, [r4, #8]
 1812 003e 5218     		adds	r2, r2, r1
 1813 0040 1068     		ldr	r0, [r2]
 1814 0042 7843     		muls	r0, r7
 1815 0044 AE68     		ldr	r6, [r5, #8]
 1816 0046 7158     		ldr	r1, [r6, r1]
 1817 0048 4646     		mov	r6, r8
 1818 004a 7143     		muls	r1, r6
 1819 004c 4118     		adds	r1, r0, r1
 1820 004e 1160     		str	r1, [r2]
 248:Source\mbedtls_open\library/bignum.c ****         X->p[i] = X->p[i] * ( 1 - assign ) + Y->p[i] * assign;
 1821              		.loc 1 248 0 discriminator 3
 1822 0050 0133     		adds	r3, r3, #1
 1823              	.LVL144:
ARM GAS  C:\Users\Phuong\AppData\Local\Temp\cciUg6zJ.s 			page 62


 1824              	.L72:
 248:Source\mbedtls_open\library/bignum.c ****         X->p[i] = X->p[i] * ( 1 - assign ) + Y->p[i] * assign;
 1825              		.loc 1 248 0 is_stmt 0 discriminator 1
 1826 0052 6A68     		ldr	r2, [r5, #4]
 1827 0054 9342     		cmp	r3, r2
 1828 0056 F0D3     		bcc	.L73
 1829 0058 07E0     		b	.L74
 1830              	.L75:
 252:Source\mbedtls_open\library/bignum.c **** 
 1831              		.loc 1 252 0 is_stmt 1 discriminator 2
 1832 005a 9A00     		lsls	r2, r3, #2
 1833 005c A168     		ldr	r1, [r4, #8]
 1834 005e 8C46     		mov	ip, r1
 1835 0060 6244     		add	r2, r2, ip
 1836 0062 1168     		ldr	r1, [r2]
 1837 0064 7943     		muls	r1, r7
 1838 0066 1160     		str	r1, [r2]
 251:Source\mbedtls_open\library/bignum.c ****         X->p[i] *= ( 1 - assign );
 1839              		.loc 1 251 0 discriminator 2
 1840 0068 0133     		adds	r3, r3, #1
 1841              	.LVL145:
 1842              	.L74:
 251:Source\mbedtls_open\library/bignum.c ****         X->p[i] *= ( 1 - assign );
 1843              		.loc 1 251 0 is_stmt 0 discriminator 1
 1844 006a 6268     		ldr	r2, [r4, #4]
 1845 006c 9342     		cmp	r3, r2
 1846 006e F4D3     		bcc	.L75
 1847              	.LVL146:
 1848              	.L71:
 256:Source\mbedtls_open\library/bignum.c **** 
 1849              		.loc 1 256 0 is_stmt 1
 1850 0070 0198     		ldr	r0, [sp, #4]
 1851 0072 02B0     		add	sp, sp, #8
 1852              		@ sp needed
 1853              	.LVL147:
 1854              	.LVL148:
 1855              	.LVL149:
 1856 0074 04BC     		pop	{r2}
 1857 0076 9046     		mov	r8, r2
 1858 0078 F0BD     		pop	{r4, r5, r6, r7, pc}
 1859              		.cfi_endproc
 1860              	.LFE8:
 1861              		.size	mbedtls_mpi_safe_cond_assign, .-mbedtls_mpi_safe_cond_assign
 1862 007a C046     		.section	.text.mbedtls_mpi_safe_cond_swap,"ax",%progbits
 1863              		.align	2
 1864              		.global	mbedtls_mpi_safe_cond_swap
 1865              		.code	16
 1866              		.thumb_func
 1867              		.type	mbedtls_mpi_safe_cond_swap, %function
 1868              	mbedtls_mpi_safe_cond_swap:
 1869              	.LFB9:
 265:Source\mbedtls_open\library/bignum.c ****     int ret, s;
 1870              		.loc 1 265 0
 1871              		.cfi_startproc
 1872              		@ args = 0, pretend = 0, frame = 8
 1873              		@ frame_needed = 0, uses_anonymous_args = 0
 1874              	.LVL150:
ARM GAS  C:\Users\Phuong\AppData\Local\Temp\cciUg6zJ.s 			page 63


 1875 0000 F0B5     		push	{r4, r5, r6, r7, lr}
 1876              		.cfi_def_cfa_offset 20
 1877              		.cfi_offset 4, -20
 1878              		.cfi_offset 5, -16
 1879              		.cfi_offset 6, -12
 1880              		.cfi_offset 7, -8
 1881              		.cfi_offset 14, -4
 1882 0002 5746     		mov	r7, r10
 1883 0004 4E46     		mov	r6, r9
 1884 0006 4546     		mov	r5, r8
 1885 0008 E0B4     		push	{r5, r6, r7}
 1886              		.cfi_def_cfa_offset 32
 1887              		.cfi_offset 8, -32
 1888              		.cfi_offset 9, -28
 1889              		.cfi_offset 10, -24
 1890 000a 82B0     		sub	sp, sp, #8
 1891              		.cfi_def_cfa_offset 40
 1892 000c 0600     		movs	r6, r0
 1893 000e 0D00     		movs	r5, r1
 270:Source\mbedtls_open\library/bignum.c ****         return( 0 );
 1894              		.loc 1 270 0
 1895 0010 8842     		cmp	r0, r1
 1896 0012 3FD0     		beq	.L80
 274:Source\mbedtls_open\library/bignum.c **** 
 1897              		.loc 1 274 0
 1898 0014 5342     		rsbs	r3, r2, #0
 1899 0016 DCB2     		uxtb	r4, r3
 1900 0018 1443     		orrs	r4, r2
 1901 001a E409     		lsrs	r4, r4, #7
 1902              	.LVL151:
 276:Source\mbedtls_open\library/bignum.c ****     MBEDTLS_MPI_CHK( mbedtls_mpi_grow( Y, X->n ) );
 1903              		.loc 1 276 0
 1904 001c 4968     		ldr	r1, [r1, #4]
 1905              	.LVL152:
 1906 001e FFF7FEFF 		bl	mbedtls_mpi_grow
 1907              	.LVL153:
 1908 0022 0028     		cmp	r0, #0
 1909 0024 39D1     		bne	.L77
 277:Source\mbedtls_open\library/bignum.c **** 
 1910              		.loc 1 277 0
 1911 0026 7168     		ldr	r1, [r6, #4]
 1912 0028 2800     		movs	r0, r5
 1913              	.LVL154:
 1914 002a FFF7FEFF 		bl	mbedtls_mpi_grow
 1915              	.LVL155:
 1916 002e 0190     		str	r0, [sp, #4]
 1917              	.LVL156:
 1918 0030 0028     		cmp	r0, #0
 1919 0032 31D1     		bne	.L82
 279:Source\mbedtls_open\library/bignum.c ****     X->s = X->s * ( 1 - swap ) + Y->s * swap;
 1920              		.loc 1 279 0
 1921 0034 3368     		ldr	r3, [r6]
 1922              	.LVL157:
 280:Source\mbedtls_open\library/bignum.c ****     Y->s = Y->s * ( 1 - swap ) +    s * swap;
 1923              		.loc 1 280 0
 1924 0036 0122     		movs	r2, #1
 1925 0038 121B     		subs	r2, r2, r4
ARM GAS  C:\Users\Phuong\AppData\Local\Temp\cciUg6zJ.s 			page 64


 1926 003a 9246     		mov	r10, r2
 1927 003c 1100     		movs	r1, r2
 1928 003e 5943     		muls	r1, r3
 1929 0040 2A68     		ldr	r2, [r5]
 1930 0042 6243     		muls	r2, r4
 1931 0044 8A18     		adds	r2, r1, r2
 1932 0046 3260     		str	r2, [r6]
 281:Source\mbedtls_open\library/bignum.c **** 
 1933              		.loc 1 281 0
 1934 0048 2A68     		ldr	r2, [r5]
 1935 004a 5146     		mov	r1, r10
 1936 004c 4A43     		muls	r2, r1
 1937 004e 6343     		muls	r3, r4
 1938              	.LVL158:
 1939 0050 D318     		adds	r3, r2, r3
 1940 0052 2B60     		str	r3, [r5]
 1941              	.LVL159:
 284:Source\mbedtls_open\library/bignum.c ****     {
 1942              		.loc 1 284 0
 1943 0054 0027     		movs	r7, #0
 1944 0056 18E0     		b	.L78
 1945              	.LVL160:
 1946              	.L79:
 286:Source\mbedtls_open\library/bignum.c ****         X->p[i] = X->p[i] * ( 1 - swap ) + Y->p[i] * swap;
 1947              		.loc 1 286 0 discriminator 3
 1948 0058 BB00     		lsls	r3, r7, #2
 1949 005a B268     		ldr	r2, [r6, #8]
 1950 005c 9046     		mov	r8, r2
 1951 005e 9844     		add	r8, r8, r3
 1952 0060 4246     		mov	r2, r8
 1953 0062 1168     		ldr	r1, [r2]
 1954              	.LVL161:
 287:Source\mbedtls_open\library/bignum.c ****         Y->p[i] = Y->p[i] * ( 1 - swap ) +     tmp * swap;
 1955              		.loc 1 287 0 discriminator 3
 1956 0064 5246     		mov	r2, r10
 1957 0066 4A43     		muls	r2, r1
 1958 0068 9146     		mov	r9, r2
 1959 006a AA68     		ldr	r2, [r5, #8]
 1960 006c D258     		ldr	r2, [r2, r3]
 1961 006e 6243     		muls	r2, r4
 1962 0070 4A44     		add	r2, r2, r9
 1963 0072 4046     		mov	r0, r8
 1964 0074 0260     		str	r2, [r0]
 288:Source\mbedtls_open\library/bignum.c ****     }
 1965              		.loc 1 288 0 discriminator 3
 1966 0076 AA68     		ldr	r2, [r5, #8]
 1967 0078 9446     		mov	ip, r2
 1968 007a 6344     		add	r3, r3, ip
 1969 007c 1A68     		ldr	r2, [r3]
 1970 007e 5046     		mov	r0, r10
 1971 0080 4243     		muls	r2, r0
 1972 0082 6143     		muls	r1, r4
 1973              	.LVL162:
 1974 0084 5118     		adds	r1, r2, r1
 1975 0086 1960     		str	r1, [r3]
 284:Source\mbedtls_open\library/bignum.c ****     {
 1976              		.loc 1 284 0 discriminator 3
ARM GAS  C:\Users\Phuong\AppData\Local\Temp\cciUg6zJ.s 			page 65


 1977 0088 0137     		adds	r7, r7, #1
 1978              	.LVL163:
 1979              	.L78:
 284:Source\mbedtls_open\library/bignum.c ****     {
 1980              		.loc 1 284 0 is_stmt 0 discriminator 1
 1981 008a 7368     		ldr	r3, [r6, #4]
 1982 008c 9F42     		cmp	r7, r3
 1983 008e E3D3     		bcc	.L79
 277:Source\mbedtls_open\library/bignum.c **** 
 1984              		.loc 1 277 0 is_stmt 1
 1985 0090 0198     		ldr	r0, [sp, #4]
 1986 0092 02E0     		b	.L77
 1987              	.LVL164:
 1988              	.L80:
 271:Source\mbedtls_open\library/bignum.c **** 
 1989              		.loc 1 271 0
 1990 0094 0020     		movs	r0, #0
 1991              	.LVL165:
 1992 0096 00E0     		b	.L77
 1993              	.LVL166:
 1994              	.L82:
 277:Source\mbedtls_open\library/bignum.c **** 
 1995              		.loc 1 277 0
 1996 0098 0198     		ldr	r0, [sp, #4]
 1997              	.LVL167:
 1998              	.L77:
 293:Source\mbedtls_open\library/bignum.c **** 
 1999              		.loc 1 293 0
 2000 009a 02B0     		add	sp, sp, #8
 2001              		@ sp needed
 2002              	.LVL168:
 2003              	.LVL169:
 2004 009c 1CBC     		pop	{r2, r3, r4}
 2005 009e 9046     		mov	r8, r2
 2006 00a0 9946     		mov	r9, r3
 2007 00a2 A246     		mov	r10, r4
 2008 00a4 F0BD     		pop	{r4, r5, r6, r7, pc}
 2009              		.cfi_endproc
 2010              	.LFE9:
 2011              		.size	mbedtls_mpi_safe_cond_swap, .-mbedtls_mpi_safe_cond_swap
 2012 00a6 C046     		.section	.text.mbedtls_mpi_lset,"ax",%progbits
 2013              		.align	2
 2014              		.global	mbedtls_mpi_lset
 2015              		.code	16
 2016              		.thumb_func
 2017              		.type	mbedtls_mpi_lset, %function
 2018              	mbedtls_mpi_lset:
 2019              	.LFB10:
 299:Source\mbedtls_open\library/bignum.c ****     int ret;
 2020              		.loc 1 299 0
 2021              		.cfi_startproc
 2022              		@ args = 0, pretend = 0, frame = 0
 2023              		@ frame_needed = 0, uses_anonymous_args = 0
 2024              	.LVL170:
 2025 0000 70B5     		push	{r4, r5, r6, lr}
 2026              		.cfi_def_cfa_offset 16
 2027              		.cfi_offset 4, -16
ARM GAS  C:\Users\Phuong\AppData\Local\Temp\cciUg6zJ.s 			page 66


 2028              		.cfi_offset 5, -12
 2029              		.cfi_offset 6, -8
 2030              		.cfi_offset 14, -4
 2031 0002 0400     		movs	r4, r0
 2032 0004 0E00     		movs	r6, r1
 302:Source\mbedtls_open\library/bignum.c ****     memset( X->p, 0, X->n * ciL );
 2033              		.loc 1 302 0
 2034 0006 0121     		movs	r1, #1
 2035              	.LVL171:
 2036 0008 FFF7FEFF 		bl	mbedtls_mpi_grow
 2037              	.LVL172:
 2038 000c 051E     		subs	r5, r0, #0
 2039              	.LVL173:
 2040 000e 11D1     		bne	.L84
 303:Source\mbedtls_open\library/bignum.c **** 
 2041              		.loc 1 303 0
 2042 0010 6368     		ldr	r3, [r4, #4]
 2043 0012 9A00     		lsls	r2, r3, #2
 2044 0014 0021     		movs	r1, #0
 2045 0016 A068     		ldr	r0, [r4, #8]
 2046              	.LVL174:
 2047 0018 FFF7FEFF 		bl	memset
 2048              	.LVL175:
 305:Source\mbedtls_open\library/bignum.c ****     X->s    = ( z < 0 ) ? -1 : 1;
 2049              		.loc 1 305 0
 2050 001c A368     		ldr	r3, [r4, #8]
 2051 001e F117     		asrs	r1, r6, #31
 2052 0020 7218     		adds	r2, r6, r1
 2053 0022 4A40     		eors	r2, r1
 2054 0024 1A60     		str	r2, [r3]
 306:Source\mbedtls_open\library/bignum.c **** 
 2055              		.loc 1 306 0
 2056 0026 002E     		cmp	r6, #0
 2057 0028 02DA     		bge	.L86
 2058 002a 0123     		movs	r3, #1
 2059 002c 5B42     		rsbs	r3, r3, #0
 2060 002e 00E0     		b	.L85
 2061              	.L86:
 2062 0030 0123     		movs	r3, #1
 2063              	.L85:
 306:Source\mbedtls_open\library/bignum.c **** 
 2064              		.loc 1 306 0 is_stmt 0 discriminator 4
 2065 0032 2360     		str	r3, [r4]
 2066              	.L84:
 311:Source\mbedtls_open\library/bignum.c **** 
 2067              		.loc 1 311 0 is_stmt 1
 2068 0034 2800     		movs	r0, r5
 2069              		@ sp needed
 2070              	.LVL176:
 2071              	.LVL177:
 2072              	.LVL178:
 2073 0036 70BD     		pop	{r4, r5, r6, pc}
 2074              		.cfi_endproc
 2075              	.LFE10:
 2076              		.size	mbedtls_mpi_lset, .-mbedtls_mpi_lset
 2077              		.section	.text.mbedtls_mpi_get_bit,"ax",%progbits
 2078              		.align	2
ARM GAS  C:\Users\Phuong\AppData\Local\Temp\cciUg6zJ.s 			page 67


 2079              		.global	mbedtls_mpi_get_bit
 2080              		.code	16
 2081              		.thumb_func
 2082              		.type	mbedtls_mpi_get_bit, %function
 2083              	mbedtls_mpi_get_bit:
 2084              	.LFB11:
 317:Source\mbedtls_open\library/bignum.c ****     if( X->n * biL <= pos )
 2085              		.loc 1 317 0
 2086              		.cfi_startproc
 2087              		@ args = 0, pretend = 0, frame = 0
 2088              		@ frame_needed = 0, uses_anonymous_args = 0
 2089              		@ link register save eliminated.
 2090              	.LVL179:
 318:Source\mbedtls_open\library/bignum.c ****         return( 0 );
 2091              		.loc 1 318 0
 2092 0000 4368     		ldr	r3, [r0, #4]
 2093 0002 5B01     		lsls	r3, r3, #5
 2094 0004 8B42     		cmp	r3, r1
 2095 0006 09D9     		bls	.L89
 321:Source\mbedtls_open\library/bignum.c **** }
 2096              		.loc 1 321 0
 2097 0008 8268     		ldr	r2, [r0, #8]
 2098 000a 4B09     		lsrs	r3, r1, #5
 2099 000c 9B00     		lsls	r3, r3, #2
 2100 000e 9858     		ldr	r0, [r3, r2]
 2101              	.LVL180:
 2102 0010 1F23     		movs	r3, #31
 2103 0012 1940     		ands	r1, r3
 2104              	.LVL181:
 2105 0014 C840     		lsrs	r0, r0, r1
 2106 0016 1E3B     		subs	r3, r3, #30
 2107 0018 1840     		ands	r0, r3
 2108 001a 00E0     		b	.L88
 2109              	.LVL182:
 2110              	.L89:
 319:Source\mbedtls_open\library/bignum.c **** 
 2111              		.loc 1 319 0
 2112 001c 0020     		movs	r0, #0
 2113              	.LVL183:
 2114              	.L88:
 322:Source\mbedtls_open\library/bignum.c **** 
 2115              		.loc 1 322 0
 2116              		@ sp needed
 2117 001e 7047     		bx	lr
 2118              		.cfi_endproc
 2119              	.LFE11:
 2120              		.size	mbedtls_mpi_get_bit, .-mbedtls_mpi_get_bit
 2121              		.section	.text.mbedtls_mpi_set_bit,"ax",%progbits
 2122              		.align	2
 2123              		.global	mbedtls_mpi_set_bit
 2124              		.code	16
 2125              		.thumb_func
 2126              		.type	mbedtls_mpi_set_bit, %function
 2127              	mbedtls_mpi_set_bit:
 2128              	.LFB12:
 328:Source\mbedtls_open\library/bignum.c ****     int ret = 0;
 2129              		.loc 1 328 0
ARM GAS  C:\Users\Phuong\AppData\Local\Temp\cciUg6zJ.s 			page 68


 2130              		.cfi_startproc
 2131              		@ args = 0, pretend = 0, frame = 0
 2132              		@ frame_needed = 0, uses_anonymous_args = 0
 2133              	.LVL184:
 2134 0000 F8B5     		push	{r3, r4, r5, r6, r7, lr}
 2135              		.cfi_def_cfa_offset 24
 2136              		.cfi_offset 3, -24
 2137              		.cfi_offset 4, -20
 2138              		.cfi_offset 5, -16
 2139              		.cfi_offset 6, -12
 2140              		.cfi_offset 7, -8
 2141              		.cfi_offset 14, -4
 2142 0002 0700     		movs	r7, r0
 2143 0004 1400     		movs	r4, r2
 2144              	.LVL185:
 330:Source\mbedtls_open\library/bignum.c ****     size_t idx = pos % biL;
 2145              		.loc 1 330 0
 2146 0006 4D09     		lsrs	r5, r1, #5
 2147              	.LVL186:
 331:Source\mbedtls_open\library/bignum.c **** 
 2148              		.loc 1 331 0
 2149 0008 1F26     		movs	r6, #31
 2150 000a 0E40     		ands	r6, r1
 2151              	.LVL187:
 333:Source\mbedtls_open\library/bignum.c ****         return( MBEDTLS_ERR_MPI_BAD_INPUT_DATA );
 2152              		.loc 1 333 0
 2153 000c 012A     		cmp	r2, #1
 2154 000e 1BD8     		bhi	.L93
 336:Source\mbedtls_open\library/bignum.c ****     {
 2155              		.loc 1 336 0
 2156 0010 4368     		ldr	r3, [r0, #4]
 2157 0012 5B01     		lsls	r3, r3, #5
 2158 0014 9942     		cmp	r1, r3
 2159 0016 07D3     		bcc	.L94
 338:Source\mbedtls_open\library/bignum.c ****             return( 0 );
 2160              		.loc 1 338 0
 2161 0018 002A     		cmp	r2, #0
 2162 001a 18D0     		beq	.L95
 341:Source\mbedtls_open\library/bignum.c ****     }
 2163              		.loc 1 341 0
 2164 001c 691C     		adds	r1, r5, #1
 2165              	.LVL188:
 2166 001e FFF7FEFF 		bl	mbedtls_mpi_grow
 2167              	.LVL189:
 2168 0022 0028     		cmp	r0, #0
 2169 0024 01D0     		beq	.L92
 2170 0026 13E0     		b	.L91
 2171              	.LVL190:
 2172              	.L94:
 329:Source\mbedtls_open\library/bignum.c ****     size_t off = pos / biL;
 2173              		.loc 1 329 0
 2174 0028 0020     		movs	r0, #0
 2175              	.LVL191:
 2176              	.L92:
 344:Source\mbedtls_open\library/bignum.c ****     X->p[off] |= (mbedtls_mpi_uint) val << idx;
 2177              		.loc 1 344 0
 2178 002a AD00     		lsls	r5, r5, #2
ARM GAS  C:\Users\Phuong\AppData\Local\Temp\cciUg6zJ.s 			page 69


 2179              	.LVL192:
 2180 002c BB68     		ldr	r3, [r7, #8]
 2181 002e 5B19     		adds	r3, r3, r5
 2182 0030 0122     		movs	r2, #1
 2183 0032 B240     		lsls	r2, r2, r6
 2184 0034 1968     		ldr	r1, [r3]
 2185 0036 9143     		bics	r1, r2
 2186 0038 1960     		str	r1, [r3]
 345:Source\mbedtls_open\library/bignum.c **** 
 2187              		.loc 1 345 0
 2188 003a BB68     		ldr	r3, [r7, #8]
 2189 003c 5D19     		adds	r5, r3, r5
 2190 003e B440     		lsls	r4, r4, r6
 2191 0040 2B68     		ldr	r3, [r5]
 2192 0042 1C43     		orrs	r4, r3
 2193 0044 2C60     		str	r4, [r5]
 2194 0046 03E0     		b	.L91
 2195              	.LVL193:
 2196              	.L93:
 334:Source\mbedtls_open\library/bignum.c **** 
 2197              		.loc 1 334 0
 2198 0048 0420     		movs	r0, #4
 2199              	.LVL194:
 2200 004a 4042     		rsbs	r0, r0, #0
 2201 004c 00E0     		b	.L91
 2202              	.LVL195:
 2203              	.L95:
 339:Source\mbedtls_open\library/bignum.c **** 
 2204              		.loc 1 339 0
 2205 004e 0020     		movs	r0, #0
 2206              	.LVL196:
 2207              	.L91:
 350:Source\mbedtls_open\library/bignum.c **** 
 2208              		.loc 1 350 0
 2209              		@ sp needed
 2210              	.LVL197:
 2211              	.LVL198:
 2212 0050 F8BD     		pop	{r3, r4, r5, r6, r7, pc}
 2213              		.cfi_endproc
 2214              	.LFE12:
 2215              		.size	mbedtls_mpi_set_bit, .-mbedtls_mpi_set_bit
 2216 0052 C046     		.section	.text.mbedtls_mpi_lsb,"ax",%progbits
 2217              		.align	2
 2218              		.global	mbedtls_mpi_lsb
 2219              		.code	16
 2220              		.thumb_func
 2221              		.type	mbedtls_mpi_lsb, %function
 2222              	mbedtls_mpi_lsb:
 2223              	.LFB13:
 356:Source\mbedtls_open\library/bignum.c ****     size_t i, j, count = 0;
 2224              		.loc 1 356 0
 2225              		.cfi_startproc
 2226              		@ args = 0, pretend = 0, frame = 0
 2227              		@ frame_needed = 0, uses_anonymous_args = 0
 2228              	.LVL199:
 2229 0000 30B5     		push	{r4, r5, lr}
 2230              		.cfi_def_cfa_offset 12
ARM GAS  C:\Users\Phuong\AppData\Local\Temp\cciUg6zJ.s 			page 70


 2231              		.cfi_offset 4, -12
 2232              		.cfi_offset 5, -8
 2233              		.cfi_offset 14, -4
 2234              	.LVL200:
 357:Source\mbedtls_open\library/bignum.c **** 
 2235              		.loc 1 357 0
 2236 0002 0021     		movs	r1, #0
 359:Source\mbedtls_open\library/bignum.c ****         for( j = 0; j < biL; j++, count++ )
 2237              		.loc 1 359 0
 2238 0004 0024     		movs	r4, #0
 2239 0006 0CE0     		b	.L98
 2240              	.LVL201:
 2241              	.L100:
 361:Source\mbedtls_open\library/bignum.c ****                 return( count );
 2242              		.loc 1 361 0
 2243 0008 A200     		lsls	r2, r4, #2
 2244 000a 8568     		ldr	r5, [r0, #8]
 2245 000c 5259     		ldr	r2, [r2, r5]
 2246 000e DA40     		lsrs	r2, r2, r3
 2247 0010 D207     		lsls	r2, r2, #31
 2248 0012 0BD4     		bmi	.L102
 360:Source\mbedtls_open\library/bignum.c ****             if( ( ( X->p[i] >> j ) & 1 ) != 0 )
 2249              		.loc 1 360 0 discriminator 2
 2250 0014 0133     		adds	r3, r3, #1
 2251              	.LVL202:
 2252 0016 0131     		adds	r1, r1, #1
 2253              	.LVL203:
 2254 0018 00E0     		b	.L101
 2255              	.LVL204:
 2256              	.L103:
 2257 001a 0023     		movs	r3, #0
 2258              	.L101:
 2259              	.LVL205:
 360:Source\mbedtls_open\library/bignum.c ****             if( ( ( X->p[i] >> j ) & 1 ) != 0 )
 2260              		.loc 1 360 0 is_stmt 0 discriminator 1
 2261 001c 1F2B     		cmp	r3, #31
 2262 001e F3D9     		bls	.L100
 359:Source\mbedtls_open\library/bignum.c ****         for( j = 0; j < biL; j++, count++ )
 2263              		.loc 1 359 0 is_stmt 1 discriminator 2
 2264 0020 0134     		adds	r4, r4, #1
 2265              	.LVL206:
 2266              	.L98:
 359:Source\mbedtls_open\library/bignum.c ****         for( j = 0; j < biL; j++, count++ )
 2267              		.loc 1 359 0 is_stmt 0 discriminator 1
 2268 0022 4368     		ldr	r3, [r0, #4]
 2269 0024 9C42     		cmp	r4, r3
 2270 0026 F8D3     		bcc	.L103
 364:Source\mbedtls_open\library/bignum.c **** }
 2271              		.loc 1 364 0 is_stmt 1
 2272 0028 0020     		movs	r0, #0
 2273              	.LVL207:
 2274 002a 00E0     		b	.L99
 2275              	.LVL208:
 2276              	.L102:
 362:Source\mbedtls_open\library/bignum.c **** 
 2277              		.loc 1 362 0
 2278 002c 0800     		movs	r0, r1
ARM GAS  C:\Users\Phuong\AppData\Local\Temp\cciUg6zJ.s 			page 71


 2279              	.LVL209:
 2280              	.L99:
 365:Source\mbedtls_open\library/bignum.c **** 
 2281              		.loc 1 365 0
 2282              		@ sp needed
 2283              	.LVL210:
 2284 002e 30BD     		pop	{r4, r5, pc}
 2285              		.cfi_endproc
 2286              	.LFE13:
 2287              		.size	mbedtls_mpi_lsb, .-mbedtls_mpi_lsb
 2288              		.section	.text.mbedtls_mpi_bitlen,"ax",%progbits
 2289              		.align	2
 2290              		.global	mbedtls_mpi_bitlen
 2291              		.code	16
 2292              		.thumb_func
 2293              		.type	mbedtls_mpi_bitlen, %function
 2294              	mbedtls_mpi_bitlen:
 2295              	.LFB15:
 389:Source\mbedtls_open\library/bignum.c ****     size_t i, j;
 2296              		.loc 1 389 0
 2297              		.cfi_startproc
 2298              		@ args = 0, pretend = 0, frame = 0
 2299              		@ frame_needed = 0, uses_anonymous_args = 0
 2300              	.LVL211:
 2301 0000 10B5     		push	{r4, lr}
 2302              		.cfi_def_cfa_offset 8
 2303              		.cfi_offset 4, -8
 2304              		.cfi_offset 14, -4
 392:Source\mbedtls_open\library/bignum.c ****         return( 0 );
 2305              		.loc 1 392 0
 2306 0002 4468     		ldr	r4, [r0, #4]
 2307 0004 002C     		cmp	r4, #0
 2308 0006 12D0     		beq	.L105
 395:Source\mbedtls_open\library/bignum.c ****         if( X->p[i] != 0 )
 2309              		.loc 1 395 0
 2310 0008 013C     		subs	r4, r4, #1
 2311              	.LVL212:
 2312 000a 05E0     		b	.L106
 2313              	.L108:
 396:Source\mbedtls_open\library/bignum.c ****             break;
 2314              		.loc 1 396 0
 2315 000c A300     		lsls	r3, r4, #2
 2316 000e 8268     		ldr	r2, [r0, #8]
 2317 0010 9B58     		ldr	r3, [r3, r2]
 2318 0012 002B     		cmp	r3, #0
 2319 0014 02D1     		bne	.L107
 395:Source\mbedtls_open\library/bignum.c ****         if( X->p[i] != 0 )
 2320              		.loc 1 395 0 discriminator 2
 2321 0016 013C     		subs	r4, r4, #1
 2322              	.LVL213:
 2323              	.L106:
 395:Source\mbedtls_open\library/bignum.c ****         if( X->p[i] != 0 )
 2324              		.loc 1 395 0 is_stmt 0 discriminator 1
 2325 0018 002C     		cmp	r4, #0
 2326 001a F7D1     		bne	.L108
 2327              	.L107:
 399:Source\mbedtls_open\library/bignum.c **** 
ARM GAS  C:\Users\Phuong\AppData\Local\Temp\cciUg6zJ.s 			page 72


 2328              		.loc 1 399 0 is_stmt 1
 2329 001c 8268     		ldr	r2, [r0, #8]
 2330 001e A300     		lsls	r3, r4, #2
 2331 0020 D058     		ldr	r0, [r2, r3]
 2332              	.LVL214:
 2333 0022 FFF7FEFF 		bl	mbedtls_clz
 2334              	.LVL215:
 2335 0026 2023     		movs	r3, #32
 2336 0028 181A     		subs	r0, r3, r0
 2337              	.LVL216:
 401:Source\mbedtls_open\library/bignum.c **** }
 2338              		.loc 1 401 0
 2339 002a 6401     		lsls	r4, r4, #5
 2340              	.LVL217:
 2341 002c 0419     		adds	r4, r0, r4
 2342              	.LVL218:
 2343              	.L105:
 402:Source\mbedtls_open\library/bignum.c **** 
 2344              		.loc 1 402 0
 2345 002e 2000     		movs	r0, r4
 2346              		@ sp needed
 2347 0030 10BD     		pop	{r4, pc}
 2348              		.cfi_endproc
 2349              	.LFE15:
 2350              		.size	mbedtls_mpi_bitlen, .-mbedtls_mpi_bitlen
 2351 0032 C046     		.section	.text.mbedtls_mpi_size,"ax",%progbits
 2352              		.align	2
 2353              		.global	mbedtls_mpi_size
 2354              		.code	16
 2355              		.thumb_func
 2356              		.type	mbedtls_mpi_size, %function
 2357              	mbedtls_mpi_size:
 2358              	.LFB16:
 408:Source\mbedtls_open\library/bignum.c ****     return( ( mbedtls_mpi_bitlen( X ) + 7 ) >> 3 );
 2359              		.loc 1 408 0
 2360              		.cfi_startproc
 2361              		@ args = 0, pretend = 0, frame = 0
 2362              		@ frame_needed = 0, uses_anonymous_args = 0
 2363              	.LVL219:
 2364 0000 10B5     		push	{r4, lr}
 2365              		.cfi_def_cfa_offset 8
 2366              		.cfi_offset 4, -8
 2367              		.cfi_offset 14, -4
 409:Source\mbedtls_open\library/bignum.c **** }
 2368              		.loc 1 409 0
 2369 0002 FFF7FEFF 		bl	mbedtls_mpi_bitlen
 2370              	.LVL220:
 2371 0006 0730     		adds	r0, r0, #7
 2372 0008 C008     		lsrs	r0, r0, #3
 410:Source\mbedtls_open\library/bignum.c **** 
 2373              		.loc 1 410 0
 2374              		@ sp needed
 2375 000a 10BD     		pop	{r4, pc}
 2376              		.cfi_endproc
 2377              	.LFE16:
 2378              		.size	mbedtls_mpi_size, .-mbedtls_mpi_size
 2379              		.section	.text.mbedtls_mpi_read_binary,"ax",%progbits
ARM GAS  C:\Users\Phuong\AppData\Local\Temp\cciUg6zJ.s 			page 73


 2380              		.align	2
 2381              		.global	mbedtls_mpi_read_binary
 2382              		.code	16
 2383              		.thumb_func
 2384              		.type	mbedtls_mpi_read_binary, %function
 2385              	mbedtls_mpi_read_binary:
 2386              	.LFB21:
 681:Source\mbedtls_open\library/bignum.c ****     int ret;
 2387              		.loc 1 681 0
 2388              		.cfi_startproc
 2389              		@ args = 0, pretend = 0, frame = 8
 2390              		@ frame_needed = 0, uses_anonymous_args = 0
 2391              	.LVL221:
 2392 0000 F0B5     		push	{r4, r5, r6, r7, lr}
 2393              		.cfi_def_cfa_offset 20
 2394              		.cfi_offset 4, -20
 2395              		.cfi_offset 5, -16
 2396              		.cfi_offset 6, -12
 2397              		.cfi_offset 7, -8
 2398              		.cfi_offset 14, -4
 2399 0002 83B0     		sub	sp, sp, #12
 2400              		.cfi_def_cfa_offset 32
 2401 0004 0500     		movs	r5, r0
 2402 0006 0E00     		movs	r6, r1
 2403 0008 1400     		movs	r4, r2
 684:Source\mbedtls_open\library/bignum.c **** 
 2404              		.loc 1 684 0
 2405 000a 9708     		lsrs	r7, r2, #2
 2406 000c 0323     		movs	r3, #3
 2407 000e 1340     		ands	r3, r2
 2408 0010 5A1E     		subs	r2, r3, #1
 2409 0012 9341     		sbcs	r3, r3, r2
 2410              	.LVL222:
 2411 0014 FF18     		adds	r7, r7, r3
 2412              	.LVL223:
 687:Source\mbedtls_open\library/bignum.c ****     {
 2413              		.loc 1 687 0
 2414 0016 4368     		ldr	r3, [r0, #4]
 2415 0018 9F42     		cmp	r7, r3
 2416 001a 0BD0     		beq	.L111
 689:Source\mbedtls_open\library/bignum.c ****         mbedtls_mpi_init( X );
 2417              		.loc 1 689 0
 2418 001c FFF7FEFF 		bl	mbedtls_mpi_free
 2419              	.LVL224:
 690:Source\mbedtls_open\library/bignum.c ****         MBEDTLS_MPI_CHK( mbedtls_mpi_grow( X, limbs ) );
 2420              		.loc 1 690 0
 2421 0020 2800     		movs	r0, r5
 2422 0022 FFF7FEFF 		bl	mbedtls_mpi_init
 2423              	.LVL225:
 691:Source\mbedtls_open\library/bignum.c ****     }
 2424              		.loc 1 691 0
 2425 0026 3900     		movs	r1, r7
 2426 0028 2800     		movs	r0, r5
 2427 002a FFF7FEFF 		bl	mbedtls_mpi_grow
 2428              	.LVL226:
 2429 002e 0190     		str	r0, [sp, #4]
 2430              	.LVL227:
ARM GAS  C:\Users\Phuong\AppData\Local\Temp\cciUg6zJ.s 			page 74


 2431 0030 0028     		cmp	r0, #0
 2432 0032 19D1     		bne	.L112
 2433              	.LVL228:
 2434              	.L111:
 694:Source\mbedtls_open\library/bignum.c **** 
 2435              		.loc 1 694 0
 2436 0034 0021     		movs	r1, #0
 2437 0036 2800     		movs	r0, r5
 2438 0038 FFF7FEFF 		bl	mbedtls_mpi_lset
 2439              	.LVL229:
 2440 003c 0190     		str	r0, [sp, #4]
 2441              	.LVL230:
 2442 003e 0028     		cmp	r0, #0
 2443 0040 12D1     		bne	.L112
 2444 0042 0021     		movs	r1, #0
 2445 0044 0EE0     		b	.L113
 2446              	.LVL231:
 2447              	.L114:
 697:Source\mbedtls_open\library/bignum.c **** 
 2448              		.loc 1 697 0 discriminator 3
 2449 0046 8B08     		lsrs	r3, r1, #2
 2450 0048 9B00     		lsls	r3, r3, #2
 2451 004a AA68     		ldr	r2, [r5, #8]
 2452 004c 9446     		mov	ip, r2
 2453 004e 6344     		add	r3, r3, ip
 2454 0050 013C     		subs	r4, r4, #1
 2455              	.LVL232:
 2456 0052 325D     		ldrb	r2, [r6, r4]
 2457 0054 CF00     		lsls	r7, r1, #3
 2458 0056 1820     		movs	r0, #24
 2459 0058 0740     		ands	r7, r0
 2460 005a BA40     		lsls	r2, r2, r7
 2461 005c 1868     		ldr	r0, [r3]
 2462 005e 0243     		orrs	r2, r0
 2463 0060 1A60     		str	r2, [r3]
 2464              	.LVL233:
 696:Source\mbedtls_open\library/bignum.c ****         X->p[j / ciL] |= ((mbedtls_mpi_uint) buf[i - 1]) << ((j % ciL) << 3);
 2465              		.loc 1 696 0 discriminator 3
 2466 0062 0131     		adds	r1, r1, #1
 2467              	.LVL234:
 2468              	.L113:
 696:Source\mbedtls_open\library/bignum.c ****         X->p[j / ciL] |= ((mbedtls_mpi_uint) buf[i - 1]) << ((j % ciL) << 3);
 2469              		.loc 1 696 0 is_stmt 0 discriminator 1
 2470 0064 002C     		cmp	r4, #0
 2471 0066 EED1     		bne	.L114
 2472              	.LVL235:
 2473              	.L112:
 702:Source\mbedtls_open\library/bignum.c **** 
 2474              		.loc 1 702 0 is_stmt 1
 2475 0068 0198     		ldr	r0, [sp, #4]
 2476 006a 03B0     		add	sp, sp, #12
 2477              		@ sp needed
 2478              	.LVL236:
 2479              	.LVL237:
 2480 006c F0BD     		pop	{r4, r5, r6, r7, pc}
 2481              		.cfi_endproc
 2482              	.LFE21:
ARM GAS  C:\Users\Phuong\AppData\Local\Temp\cciUg6zJ.s 			page 75


 2483              		.size	mbedtls_mpi_read_binary, .-mbedtls_mpi_read_binary
 2484 006e C046     		.section	.text.mbedtls_mpi_write_binary,"ax",%progbits
 2485              		.align	2
 2486              		.global	mbedtls_mpi_write_binary
 2487              		.code	16
 2488              		.thumb_func
 2489              		.type	mbedtls_mpi_write_binary, %function
 2490              	mbedtls_mpi_write_binary:
 2491              	.LFB22:
 708:Source\mbedtls_open\library/bignum.c ****     size_t i, j, n;
 2492              		.loc 1 708 0
 2493              		.cfi_startproc
 2494              		@ args = 0, pretend = 0, frame = 0
 2495              		@ frame_needed = 0, uses_anonymous_args = 0
 2496              	.LVL238:
 2497 0000 F8B5     		push	{r3, r4, r5, r6, r7, lr}
 2498              		.cfi_def_cfa_offset 24
 2499              		.cfi_offset 3, -24
 2500              		.cfi_offset 4, -20
 2501              		.cfi_offset 5, -16
 2502              		.cfi_offset 6, -12
 2503              		.cfi_offset 7, -8
 2504              		.cfi_offset 14, -4
 2505 0002 0500     		movs	r5, r0
 2506 0004 0E00     		movs	r6, r1
 2507 0006 1700     		movs	r7, r2
 711:Source\mbedtls_open\library/bignum.c **** 
 2508              		.loc 1 711 0
 2509 0008 FFF7FEFF 		bl	mbedtls_mpi_size
 2510              	.LVL239:
 2511 000c 0400     		movs	r4, r0
 2512              	.LVL240:
 713:Source\mbedtls_open\library/bignum.c ****         return( MBEDTLS_ERR_MPI_BUFFER_TOO_SMALL );
 2513              		.loc 1 713 0
 2514 000e B842     		cmp	r0, r7
 2515 0010 17D8     		bhi	.L119
 716:Source\mbedtls_open\library/bignum.c **** 
 2516              		.loc 1 716 0
 2517 0012 3A00     		movs	r2, r7
 2518 0014 0021     		movs	r1, #0
 2519 0016 3000     		movs	r0, r6
 2520              	.LVL241:
 2521 0018 FFF7FEFF 		bl	memset
 2522              	.LVL242:
 718:Source\mbedtls_open\library/bignum.c ****         buf[i] = (unsigned char)( X->p[j / ciL] >> ((j % ciL) << 3) );
 2523              		.loc 1 718 0
 2524 001c 7A1E     		subs	r2, r7, #1
 2525              	.LVL243:
 2526 001e 0023     		movs	r3, #0
 2527 0020 0BE0     		b	.L117
 2528              	.LVL244:
 2529              	.L118:
 719:Source\mbedtls_open\library/bignum.c **** 
 2530              		.loc 1 719 0 discriminator 3
 2531 0022 9908     		lsrs	r1, r3, #2
 2532 0024 8900     		lsls	r1, r1, #2
 2533 0026 A868     		ldr	r0, [r5, #8]
ARM GAS  C:\Users\Phuong\AppData\Local\Temp\cciUg6zJ.s 			page 76


 2534 0028 0958     		ldr	r1, [r1, r0]
 2535 002a D800     		lsls	r0, r3, #3
 2536 002c 1827     		movs	r7, #24
 2537 002e 3840     		ands	r0, r7
 2538 0030 C140     		lsrs	r1, r1, r0
 2539 0032 B154     		strb	r1, [r6, r2]
 718:Source\mbedtls_open\library/bignum.c ****         buf[i] = (unsigned char)( X->p[j / ciL] >> ((j % ciL) << 3) );
 2540              		.loc 1 718 0 discriminator 3
 2541 0034 013A     		subs	r2, r2, #1
 2542              	.LVL245:
 2543 0036 0133     		adds	r3, r3, #1
 2544              	.LVL246:
 2545 0038 013C     		subs	r4, r4, #1
 2546              	.LVL247:
 2547              	.L117:
 718:Source\mbedtls_open\library/bignum.c ****         buf[i] = (unsigned char)( X->p[j / ciL] >> ((j % ciL) << 3) );
 2548              		.loc 1 718 0 is_stmt 0 discriminator 1
 2549 003a 002C     		cmp	r4, #0
 2550 003c F1D1     		bne	.L118
 721:Source\mbedtls_open\library/bignum.c **** }
 2551              		.loc 1 721 0 is_stmt 1
 2552 003e 0020     		movs	r0, #0
 2553 0040 01E0     		b	.L116
 2554              	.LVL248:
 2555              	.L119:
 714:Source\mbedtls_open\library/bignum.c **** 
 2556              		.loc 1 714 0
 2557 0042 0820     		movs	r0, #8
 2558              	.LVL249:
 2559 0044 4042     		rsbs	r0, r0, #0
 2560              	.LVL250:
 2561              	.L116:
 722:Source\mbedtls_open\library/bignum.c **** 
 2562              		.loc 1 722 0
 2563              		@ sp needed
 2564              	.LVL251:
 2565              	.LVL252:
 2566              	.LVL253:
 2567 0046 F8BD     		pop	{r3, r4, r5, r6, r7, pc}
 2568              		.cfi_endproc
 2569              	.LFE22:
 2570              		.size	mbedtls_mpi_write_binary, .-mbedtls_mpi_write_binary
 2571              		.section	.text.mbedtls_mpi_shift_l,"ax",%progbits
 2572              		.align	2
 2573              		.global	mbedtls_mpi_shift_l
 2574              		.code	16
 2575              		.thumb_func
 2576              		.type	mbedtls_mpi_shift_l, %function
 2577              	mbedtls_mpi_shift_l:
 2578              	.LFB23:
 728:Source\mbedtls_open\library/bignum.c ****     int ret;
 2579              		.loc 1 728 0
 2580              		.cfi_startproc
 2581              		@ args = 0, pretend = 0, frame = 0
 2582              		@ frame_needed = 0, uses_anonymous_args = 0
 2583              	.LVL254:
 2584 0000 F0B5     		push	{r4, r5, r6, r7, lr}
ARM GAS  C:\Users\Phuong\AppData\Local\Temp\cciUg6zJ.s 			page 77


 2585              		.cfi_def_cfa_offset 20
 2586              		.cfi_offset 4, -20
 2587              		.cfi_offset 5, -16
 2588              		.cfi_offset 6, -12
 2589              		.cfi_offset 7, -8
 2590              		.cfi_offset 14, -4
 2591 0002 4746     		mov	r7, r8
 2592 0004 80B4     		push	{r7}
 2593              		.cfi_def_cfa_offset 24
 2594              		.cfi_offset 8, -24
 2595 0006 0500     		movs	r5, r0
 2596 0008 0F00     		movs	r7, r1
 2597              	.LVL255:
 733:Source\mbedtls_open\library/bignum.c ****     t1 = count & (biL - 1);
 2598              		.loc 1 733 0
 2599 000a 4C09     		lsrs	r4, r1, #5
 2600              	.LVL256:
 734:Source\mbedtls_open\library/bignum.c **** 
 2601              		.loc 1 734 0
 2602 000c 1F26     		movs	r6, #31
 2603 000e 0E40     		ands	r6, r1
 2604              	.LVL257:
 736:Source\mbedtls_open\library/bignum.c **** 
 2605              		.loc 1 736 0
 2606 0010 FFF7FEFF 		bl	mbedtls_mpi_bitlen
 2607              	.LVL258:
 2608 0014 3818     		adds	r0, r7, r0
 2609              	.LVL259:
 738:Source\mbedtls_open\library/bignum.c ****         MBEDTLS_MPI_CHK( mbedtls_mpi_grow( X, BITS_TO_LIMBS( i ) ) );
 2610              		.loc 1 738 0
 2611 0016 6B68     		ldr	r3, [r5, #4]
 2612 0018 5B01     		lsls	r3, r3, #5
 2613 001a 9842     		cmp	r0, r3
 2614 001c 0AD9     		bls	.L121
 739:Source\mbedtls_open\library/bignum.c **** 
 2615              		.loc 1 739 0
 2616 001e 4109     		lsrs	r1, r0, #5
 2617 0020 1F23     		movs	r3, #31
 2618 0022 1840     		ands	r0, r3
 2619              	.LVL260:
 2620 0024 431E     		subs	r3, r0, #1
 2621 0026 9841     		sbcs	r0, r0, r3
 2622 0028 0918     		adds	r1, r1, r0
 2623 002a 2800     		movs	r0, r5
 2624 002c FFF7FEFF 		bl	mbedtls_mpi_grow
 2625              	.LVL261:
 2626 0030 0028     		cmp	r0, #0
 2627 0032 3BD1     		bne	.L122
 2628              	.LVL262:
 2629              	.L121:
 746:Source\mbedtls_open\library/bignum.c ****     {
 2630              		.loc 1 746 0
 2631 0034 002C     		cmp	r4, #0
 2632 0036 1BD0     		beq	.L123
 748:Source\mbedtls_open\library/bignum.c ****             X->p[i - 1] = X->p[i - v0 - 1];
 2633              		.loc 1 748 0
 2634 0038 6B68     		ldr	r3, [r5, #4]
ARM GAS  C:\Users\Phuong\AppData\Local\Temp\cciUg6zJ.s 			page 78


 2635              	.LVL263:
 2636 003a 0BE0     		b	.L124
 2637              	.LVL264:
 2638              	.L125:
 749:Source\mbedtls_open\library/bignum.c **** 
 2639              		.loc 1 749 0 discriminator 3
 2640 003c A968     		ldr	r1, [r5, #8]
 2641 003e 1D4A     		ldr	r2, .L131
 2642 0040 9818     		adds	r0, r3, r2
 2643 0042 8000     		lsls	r0, r0, #2
 2644 0044 1A1B     		subs	r2, r3, r4
 2645 0046 1B4F     		ldr	r7, .L131
 2646 0048 BC46     		mov	ip, r7
 2647 004a 6244     		add	r2, r2, ip
 2648 004c 9200     		lsls	r2, r2, #2
 2649 004e 5258     		ldr	r2, [r2, r1]
 2650 0050 0A50     		str	r2, [r1, r0]
 748:Source\mbedtls_open\library/bignum.c ****             X->p[i - 1] = X->p[i - v0 - 1];
 2651              		.loc 1 748 0 discriminator 3
 2652 0052 013B     		subs	r3, r3, #1
 2653              	.LVL265:
 2654              	.L124:
 748:Source\mbedtls_open\library/bignum.c ****             X->p[i - 1] = X->p[i - v0 - 1];
 2655              		.loc 1 748 0 is_stmt 0 discriminator 1
 2656 0054 A342     		cmp	r3, r4
 2657 0056 F1D8     		bhi	.L125
 2658 0058 08E0     		b	.L126
 2659              	.L127:
 752:Source\mbedtls_open\library/bignum.c ****     }
 2660              		.loc 1 752 0 is_stmt 1 discriminator 2
 2661 005a 164A     		ldr	r2, .L131
 2662 005c 9A18     		adds	r2, r3, r2
 2663 005e 9200     		lsls	r2, r2, #2
 2664 0060 A968     		ldr	r1, [r5, #8]
 2665 0062 8C46     		mov	ip, r1
 2666 0064 6244     		add	r2, r2, ip
 2667 0066 0021     		movs	r1, #0
 2668 0068 1160     		str	r1, [r2]
 751:Source\mbedtls_open\library/bignum.c ****             X->p[i - 1] = 0;
 2669              		.loc 1 751 0 discriminator 2
 2670 006a 013B     		subs	r3, r3, #1
 2671              	.LVL266:
 2672              	.L126:
 751:Source\mbedtls_open\library/bignum.c ****             X->p[i - 1] = 0;
 2673              		.loc 1 751 0 is_stmt 0 discriminator 1
 2674 006c 002B     		cmp	r3, #0
 2675 006e F4D1     		bne	.L127
 2676              	.LVL267:
 2677              	.L123:
 758:Source\mbedtls_open\library/bignum.c ****     {
 2678              		.loc 1 758 0 is_stmt 1
 2679 0070 002E     		cmp	r6, #0
 2680 0072 16D1     		bne	.L130
 741:Source\mbedtls_open\library/bignum.c **** 
 2681              		.loc 1 741 0
 2682 0074 0020     		movs	r0, #0
 2683 0076 19E0     		b	.L122
ARM GAS  C:\Users\Phuong\AppData\Local\Temp\cciUg6zJ.s 			page 79


 2684              	.LVL268:
 2685              	.L129:
 762:Source\mbedtls_open\library/bignum.c ****             X->p[i] <<= t1;
 2686              		.loc 1 762 0 discriminator 3
 2687 0078 A300     		lsls	r3, r4, #2
 2688 007a AA68     		ldr	r2, [r5, #8]
 2689 007c D218     		adds	r2, r2, r3
 2690 007e 1768     		ldr	r7, [r2]
 2691 0080 2020     		movs	r0, #32
 2692 0082 801B     		subs	r0, r0, r6
 2693 0084 8046     		mov	r8, r0
 2694              	.LVL269:
 763:Source\mbedtls_open\library/bignum.c ****             X->p[i] |= r0;
 2695              		.loc 1 763 0 discriminator 3
 2696 0086 3800     		movs	r0, r7
 2697              	.LVL270:
 2698 0088 B040     		lsls	r0, r0, r6
 2699 008a 1060     		str	r0, [r2]
 764:Source\mbedtls_open\library/bignum.c ****             r0 = r1;
 2700              		.loc 1 764 0 discriminator 3
 2701 008c AA68     		ldr	r2, [r5, #8]
 2702 008e 9446     		mov	ip, r2
 2703 0090 6344     		add	r3, r3, ip
 2704 0092 1A68     		ldr	r2, [r3]
 2705 0094 1143     		orrs	r1, r2
 2706              	.LVL271:
 2707 0096 1960     		str	r1, [r3]
 2708              	.LVL272:
 760:Source\mbedtls_open\library/bignum.c ****         {
 2709              		.loc 1 760 0 discriminator 3
 2710 0098 0134     		adds	r4, r4, #1
 2711              	.LVL273:
 765:Source\mbedtls_open\library/bignum.c ****         }
 2712              		.loc 1 765 0 discriminator 3
 2713 009a 3900     		movs	r1, r7
 2714 009c 4346     		mov	r3, r8
 2715 009e D940     		lsrs	r1, r1, r3
 2716              	.LVL274:
 2717 00a0 00E0     		b	.L128
 2718              	.LVL275:
 2719              	.L130:
 2720 00a2 0021     		movs	r1, #0
 2721              	.LVL276:
 2722              	.L128:
 760:Source\mbedtls_open\library/bignum.c ****         {
 2723              		.loc 1 760 0 discriminator 1
 2724 00a4 6B68     		ldr	r3, [r5, #4]
 2725 00a6 9C42     		cmp	r4, r3
 2726 00a8 E6D3     		bcc	.L129
 741:Source\mbedtls_open\library/bignum.c **** 
 2727              		.loc 1 741 0
 2728 00aa 0020     		movs	r0, #0
 2729              	.LVL277:
 2730              	.L122:
 772:Source\mbedtls_open\library/bignum.c **** 
 2731              		.loc 1 772 0
 2732              		@ sp needed
ARM GAS  C:\Users\Phuong\AppData\Local\Temp\cciUg6zJ.s 			page 80


 2733              	.LVL278:
 2734              	.LVL279:
 2735 00ac 04BC     		pop	{r2}
 2736 00ae 9046     		mov	r8, r2
 2737 00b0 F0BD     		pop	{r4, r5, r6, r7, pc}
 2738              	.L132:
 2739 00b2 C046     		.align	2
 2740              	.L131:
 2741 00b4 FFFFFF3F 		.word	1073741823
 2742              		.cfi_endproc
 2743              	.LFE23:
 2744              		.size	mbedtls_mpi_shift_l, .-mbedtls_mpi_shift_l
 2745              		.section	.text.mbedtls_mpi_shift_r,"ax",%progbits
 2746              		.align	2
 2747              		.global	mbedtls_mpi_shift_r
 2748              		.code	16
 2749              		.thumb_func
 2750              		.type	mbedtls_mpi_shift_r, %function
 2751              	mbedtls_mpi_shift_r:
 2752              	.LFB24:
 778:Source\mbedtls_open\library/bignum.c ****     size_t i, v0, v1;
 2753              		.loc 1 778 0
 2754              		.cfi_startproc
 2755              		@ args = 0, pretend = 0, frame = 0
 2756              		@ frame_needed = 0, uses_anonymous_args = 0
 2757              	.LVL280:
 2758 0000 F0B5     		push	{r4, r5, r6, r7, lr}
 2759              		.cfi_def_cfa_offset 20
 2760              		.cfi_offset 4, -20
 2761              		.cfi_offset 5, -16
 2762              		.cfi_offset 6, -12
 2763              		.cfi_offset 7, -8
 2764              		.cfi_offset 14, -4
 2765 0002 4746     		mov	r7, r8
 2766 0004 80B4     		push	{r7}
 2767              		.cfi_def_cfa_offset 24
 2768              		.cfi_offset 8, -24
 2769              	.LVL281:
 782:Source\mbedtls_open\library/bignum.c ****     v1 = count & (biL - 1);
 2770              		.loc 1 782 0
 2771 0006 4C09     		lsrs	r4, r1, #5
 2772              	.LVL282:
 783:Source\mbedtls_open\library/bignum.c **** 
 2773              		.loc 1 783 0
 2774 0008 1F23     		movs	r3, #31
 2775 000a 1940     		ands	r1, r3
 2776              	.LVL283:
 785:Source\mbedtls_open\library/bignum.c ****         return mbedtls_mpi_lset( X, 0 );
 2777              		.loc 1 785 0
 2778 000c 4368     		ldr	r3, [r0, #4]
 2779 000e 9C42     		cmp	r4, r3
 2780 0010 02D8     		bhi	.L134
 785:Source\mbedtls_open\library/bignum.c ****         return mbedtls_mpi_lset( X, 0 );
 2781              		.loc 1 785 0 is_stmt 0 discriminator 1
 2782 0012 05D1     		bne	.L135
 785:Source\mbedtls_open\library/bignum.c ****         return mbedtls_mpi_lset( X, 0 );
 2783              		.loc 1 785 0 discriminator 2
ARM GAS  C:\Users\Phuong\AppData\Local\Temp\cciUg6zJ.s 			page 81


 2784 0014 0029     		cmp	r1, #0
 2785 0016 03D0     		beq	.L135
 2786              	.L134:
 786:Source\mbedtls_open\library/bignum.c **** 
 2787              		.loc 1 786 0 is_stmt 1
 2788 0018 0021     		movs	r1, #0
 2789              	.LVL284:
 2790 001a FFF7FEFF 		bl	mbedtls_mpi_lset
 2791              	.LVL285:
 2792 001e 3AE0     		b	.L136
 2793              	.LVL286:
 2794              	.L135:
 791:Source\mbedtls_open\library/bignum.c ****     {
 2795              		.loc 1 791 0
 2796 0020 002C     		cmp	r4, #0
 2797 0022 08D1     		bne	.L144
 2798 0024 17E0     		b	.L138
 2799              	.LVL287:
 2800              	.L139:
 794:Source\mbedtls_open\library/bignum.c **** 
 2801              		.loc 1 794 0 discriminator 3
 2802 0026 8568     		ldr	r5, [r0, #8]
 2803 0028 9E00     		lsls	r6, r3, #2
 2804 002a 1A19     		adds	r2, r3, r4
 2805 002c 9200     		lsls	r2, r2, #2
 2806 002e 5259     		ldr	r2, [r2, r5]
 2807 0030 AA51     		str	r2, [r5, r6]
 793:Source\mbedtls_open\library/bignum.c ****             X->p[i] = X->p[i + v0];
 2808              		.loc 1 793 0 discriminator 3
 2809 0032 0133     		adds	r3, r3, #1
