ARM GAS  C:\Users\Phuong\AppData\Local\Temp\ccLcWjsJ.s 			page 1


   1              		.syntax unified
   2              		.cpu cortex-m0plus
   3              		.fpu softvfp
   4              		.eabi_attribute 20, 1
   5              		.eabi_attribute 21, 1
   6              		.eabi_attribute 23, 3
   7              		.eabi_attribute 24, 1
   8              		.eabi_attribute 25, 1
   9              		.eabi_attribute 26, 1
  10              		.eabi_attribute 30, 1
  11              		.eabi_attribute 34, 0
  12              		.eabi_attribute 18, 4
  13              		.thumb
  14              		.syntax unified
  15              		.file	"blowfish.c"
  16              		.text
  17              	.Ltext0:
  18              		.cfi_sections	.debug_frame
  19              		.section	.text.F,"ax",%progbits
  20              		.align	2
  21              		.code	16
  22              		.thumb_func
  23              		.type	F, %function
  24              	F:
  25              	.LFB0:
  26              		.file 1 "Source\\mbedtls_open\\library\\blowfish.c"
   1:Source\mbedtls_open\library/blowfish.c **** /*
   2:Source\mbedtls_open\library/blowfish.c ****  *  Blowfish implementation
   3:Source\mbedtls_open\library/blowfish.c ****  *
   4:Source\mbedtls_open\library/blowfish.c ****  *  Copyright (C) 2006-2015, ARM Limited, All Rights Reserved
   5:Source\mbedtls_open\library/blowfish.c ****  *  SPDX-License-Identifier: Apache-2.0
   6:Source\mbedtls_open\library/blowfish.c ****  *
   7:Source\mbedtls_open\library/blowfish.c ****  *  Licensed under the Apache License, Version 2.0 (the "License"); you may
   8:Source\mbedtls_open\library/blowfish.c ****  *  not use this file except in compliance with the License.
   9:Source\mbedtls_open\library/blowfish.c ****  *  You may obtain a copy of the License at
  10:Source\mbedtls_open\library/blowfish.c ****  *
  11:Source\mbedtls_open\library/blowfish.c ****  *  http://www.apache.org/licenses/LICENSE-2.0
  12:Source\mbedtls_open\library/blowfish.c ****  *
  13:Source\mbedtls_open\library/blowfish.c ****  *  Unless required by applicable law or agreed to in writing, software
  14:Source\mbedtls_open\library/blowfish.c ****  *  distributed under the License is distributed on an "AS IS" BASIS, WITHOUT
  15:Source\mbedtls_open\library/blowfish.c ****  *  WARRANTIES OR CONDITIONS OF ANY KIND, either express or implied.
  16:Source\mbedtls_open\library/blowfish.c ****  *  See the License for the specific language governing permissions and
  17:Source\mbedtls_open\library/blowfish.c ****  *  limitations under the License.
  18:Source\mbedtls_open\library/blowfish.c ****  *
  19:Source\mbedtls_open\library/blowfish.c ****  *  This file is part of mbed TLS (https://tls.mbed.org)
  20:Source\mbedtls_open\library/blowfish.c ****  */
  21:Source\mbedtls_open\library/blowfish.c **** /*
  22:Source\mbedtls_open\library/blowfish.c ****  *  The Blowfish block cipher was designed by Bruce Schneier in 1993.
  23:Source\mbedtls_open\library/blowfish.c ****  *  http://www.schneier.com/blowfish.html
  24:Source\mbedtls_open\library/blowfish.c ****  *  http://en.wikipedia.org/wiki/Blowfish_%28cipher%29
  25:Source\mbedtls_open\library/blowfish.c ****  *
  26:Source\mbedtls_open\library/blowfish.c ****  */
  27:Source\mbedtls_open\library/blowfish.c **** 
  28:Source\mbedtls_open\library/blowfish.c **** #if !defined(MBEDTLS_CONFIG_FILE)
  29:Source\mbedtls_open\library/blowfish.c **** #include "mbedtls/config.h"
  30:Source\mbedtls_open\library/blowfish.c **** #else
  31:Source\mbedtls_open\library/blowfish.c **** #include MBEDTLS_CONFIG_FILE
ARM GAS  C:\Users\Phuong\AppData\Local\Temp\ccLcWjsJ.s 			page 2


  32:Source\mbedtls_open\library/blowfish.c **** #endif
  33:Source\mbedtls_open\library/blowfish.c **** 
  34:Source\mbedtls_open\library/blowfish.c **** #if defined(MBEDTLS_BLOWFISH_C)
  35:Source\mbedtls_open\library/blowfish.c **** 
  36:Source\mbedtls_open\library/blowfish.c **** #include "mbedtls/blowfish.h"
  37:Source\mbedtls_open\library/blowfish.c **** #include "mbedtls/platform_util.h"
  38:Source\mbedtls_open\library/blowfish.c **** 
  39:Source\mbedtls_open\library/blowfish.c **** #include <string.h>
  40:Source\mbedtls_open\library/blowfish.c **** 
  41:Source\mbedtls_open\library/blowfish.c **** #if !defined(MBEDTLS_BLOWFISH_ALT)
  42:Source\mbedtls_open\library/blowfish.c **** 
  43:Source\mbedtls_open\library/blowfish.c **** /*
  44:Source\mbedtls_open\library/blowfish.c ****  * 32-bit integer manipulation macros (big endian)
  45:Source\mbedtls_open\library/blowfish.c ****  */
  46:Source\mbedtls_open\library/blowfish.c **** #ifndef GET_UINT32_BE
  47:Source\mbedtls_open\library/blowfish.c **** #define GET_UINT32_BE(n,b,i)                            \
  48:Source\mbedtls_open\library/blowfish.c **** {                                                       \
  49:Source\mbedtls_open\library/blowfish.c ****     (n) = ( (uint32_t) (b)[(i)    ] << 24 )             \
  50:Source\mbedtls_open\library/blowfish.c ****         | ( (uint32_t) (b)[(i) + 1] << 16 )             \
  51:Source\mbedtls_open\library/blowfish.c ****         | ( (uint32_t) (b)[(i) + 2] <<  8 )             \
  52:Source\mbedtls_open\library/blowfish.c ****         | ( (uint32_t) (b)[(i) + 3]       );            \
  53:Source\mbedtls_open\library/blowfish.c **** }
  54:Source\mbedtls_open\library/blowfish.c **** #endif
  55:Source\mbedtls_open\library/blowfish.c **** 
  56:Source\mbedtls_open\library/blowfish.c **** #ifndef PUT_UINT32_BE
  57:Source\mbedtls_open\library/blowfish.c **** #define PUT_UINT32_BE(n,b,i)                            \
  58:Source\mbedtls_open\library/blowfish.c **** {                                                       \
  59:Source\mbedtls_open\library/blowfish.c ****     (b)[(i)    ] = (unsigned char) ( (n) >> 24 );       \
  60:Source\mbedtls_open\library/blowfish.c ****     (b)[(i) + 1] = (unsigned char) ( (n) >> 16 );       \
  61:Source\mbedtls_open\library/blowfish.c ****     (b)[(i) + 2] = (unsigned char) ( (n) >>  8 );       \
  62:Source\mbedtls_open\library/blowfish.c ****     (b)[(i) + 3] = (unsigned char) ( (n)       );       \
  63:Source\mbedtls_open\library/blowfish.c **** }
  64:Source\mbedtls_open\library/blowfish.c **** #endif
  65:Source\mbedtls_open\library/blowfish.c **** 
  66:Source\mbedtls_open\library/blowfish.c **** static const uint32_t P[MBEDTLS_BLOWFISH_ROUNDS + 2] = {
  67:Source\mbedtls_open\library/blowfish.c ****         0x243F6A88L, 0x85A308D3L, 0x13198A2EL, 0x03707344L,
  68:Source\mbedtls_open\library/blowfish.c ****         0xA4093822L, 0x299F31D0L, 0x082EFA98L, 0xEC4E6C89L,
  69:Source\mbedtls_open\library/blowfish.c ****         0x452821E6L, 0x38D01377L, 0xBE5466CFL, 0x34E90C6CL,
  70:Source\mbedtls_open\library/blowfish.c ****         0xC0AC29B7L, 0xC97C50DDL, 0x3F84D5B5L, 0xB5470917L,
  71:Source\mbedtls_open\library/blowfish.c ****         0x9216D5D9L, 0x8979FB1BL
  72:Source\mbedtls_open\library/blowfish.c **** };
  73:Source\mbedtls_open\library/blowfish.c **** 
  74:Source\mbedtls_open\library/blowfish.c **** /* declarations of data at the end of this file */
  75:Source\mbedtls_open\library/blowfish.c **** static const uint32_t S[4][256];
  76:Source\mbedtls_open\library/blowfish.c **** 
  77:Source\mbedtls_open\library/blowfish.c **** static uint32_t F( mbedtls_blowfish_context *ctx, uint32_t x )
  78:Source\mbedtls_open\library/blowfish.c **** {
  27              		.loc 1 78 0
  28              		.cfi_startproc
  29              		@ args = 0, pretend = 0, frame = 0
  30              		@ frame_needed = 0, uses_anonymous_args = 0
  31              	.LVL0:
  32 0000 30B5     		push	{r4, r5, lr}
  33              		.cfi_def_cfa_offset 12
  34              		.cfi_offset 4, -12
  35              		.cfi_offset 5, -8
  36              		.cfi_offset 14, -4
ARM GAS  C:\Users\Phuong\AppData\Local\Temp\ccLcWjsJ.s 			page 3


  79:Source\mbedtls_open\library/blowfish.c ****    unsigned short a, b, c, d;
  80:Source\mbedtls_open\library/blowfish.c ****    uint32_t  y;
  81:Source\mbedtls_open\library/blowfish.c **** 
  82:Source\mbedtls_open\library/blowfish.c ****    d = (unsigned short)(x & 0xFF);
  37              		.loc 1 82 0
  38 0002 FF25     		movs	r5, #255
  39 0004 0C00     		movs	r4, r1
  40 0006 2C40     		ands	r4, r5
  41              	.LVL1:
  83:Source\mbedtls_open\library/blowfish.c ****    x >>= 8;
  42              		.loc 1 83 0
  43 0008 0A0A     		lsrs	r2, r1, #8
  44              	.LVL2:
  84:Source\mbedtls_open\library/blowfish.c ****    c = (unsigned short)(x & 0xFF);
  45              		.loc 1 84 0
  46 000a 2A40     		ands	r2, r5
  47              	.LVL3:
  85:Source\mbedtls_open\library/blowfish.c ****    x >>= 8;
  86:Source\mbedtls_open\library/blowfish.c ****    b = (unsigned short)(x & 0xFF);
  48              		.loc 1 86 0
  49 000c 0B0C     		lsrs	r3, r1, #16
  50              	.LVL4:
  51 000e 2B40     		ands	r3, r5
  52              	.LVL5:
  87:Source\mbedtls_open\library/blowfish.c ****    x >>= 8;
  88:Source\mbedtls_open\library/blowfish.c ****    a = (unsigned short)(x & 0xFF);
  53              		.loc 1 88 0
  54 0010 090E     		lsrs	r1, r1, #24
  55              	.LVL6:
  56 0012 2940     		ands	r1, r5
  57              	.LVL7:
  89:Source\mbedtls_open\library/blowfish.c ****    y = ctx->S[0][a] + ctx->S[1][b];
  58              		.loc 1 89 0
  59 0014 1231     		adds	r1, r1, #18
  60              	.LVL8:
  61 0016 8900     		lsls	r1, r1, #2
  62              	.LVL9:
  63 0018 0958     		ldr	r1, [r1, r0]
  64 001a 1333     		adds	r3, r3, #19
  65              	.LVL10:
  66 001c FF33     		adds	r3, r3, #255
  67              	.LVL11:
  68 001e 9B00     		lsls	r3, r3, #2
  69              	.LVL12:
  70 0020 1B58     		ldr	r3, [r3, r0]
  71 0022 C918     		adds	r1, r1, r3
  72              	.LVL13:
  90:Source\mbedtls_open\library/blowfish.c ****    y = y ^ ctx->S[2][c];
  73              		.loc 1 90 0
  74 0024 064B     		ldr	r3, .L2
  75 0026 9C46     		mov	ip, r3
  76 0028 6244     		add	r2, r2, ip
  77              	.LVL14:
  78 002a 9200     		lsls	r2, r2, #2
  79              	.LVL15:
  80 002c 1358     		ldr	r3, [r2, r0]
  81 002e 0A00     		movs	r2, r1
ARM GAS  C:\Users\Phuong\AppData\Local\Temp\ccLcWjsJ.s 			page 4


  82 0030 5A40     		eors	r2, r3
  83              	.LVL16:
  91:Source\mbedtls_open\library/blowfish.c ****    y = y + ctx->S[3][d];
  84              		.loc 1 91 0
  85 0032 044B     		ldr	r3, .L2+4
  86 0034 E318     		adds	r3, r4, r3
  87 0036 9B00     		lsls	r3, r3, #2
  88 0038 1B58     		ldr	r3, [r3, r0]
  89 003a D018     		adds	r0, r2, r3
  90              	.LVL17:
  92:Source\mbedtls_open\library/blowfish.c **** 
  93:Source\mbedtls_open\library/blowfish.c ****    return( y );
  94:Source\mbedtls_open\library/blowfish.c **** }
  91              		.loc 1 94 0
  92              		@ sp needed
  93              	.LVL18:
  94              	.LVL19:
  95 003c 30BD     		pop	{r4, r5, pc}
  96              	.L3:
  97 003e C046     		.align	2
  98              	.L2:
  99 0040 12020000 		.word	530
 100 0044 12030000 		.word	786
 101              		.cfi_endproc
 102              	.LFE0:
 103              		.size	F, .-F
 104              		.section	.text.blowfish_enc,"ax",%progbits
 105              		.align	2
 106              		.code	16
 107              		.thumb_func
 108              		.type	blowfish_enc, %function
 109              	blowfish_enc:
 110              	.LFB1:
  95:Source\mbedtls_open\library/blowfish.c **** 
  96:Source\mbedtls_open\library/blowfish.c **** static void blowfish_enc( mbedtls_blowfish_context *ctx, uint32_t *xl, uint32_t *xr )
  97:Source\mbedtls_open\library/blowfish.c **** {
 111              		.loc 1 97 0
 112              		.cfi_startproc
 113              		@ args = 0, pretend = 0, frame = 0
 114              		@ frame_needed = 0, uses_anonymous_args = 0
 115              	.LVL20:
 116 0000 F8B5     		push	{r3, r4, r5, r6, r7, lr}
 117              		.cfi_def_cfa_offset 24
 118              		.cfi_offset 3, -24
 119              		.cfi_offset 4, -20
 120              		.cfi_offset 5, -16
 121              		.cfi_offset 6, -12
 122              		.cfi_offset 7, -8
 123              		.cfi_offset 14, -4
 124 0002 4F46     		mov	r7, r9
 125 0004 4646     		mov	r6, r8
 126 0006 C0B4     		push	{r6, r7}
 127              		.cfi_def_cfa_offset 32
 128              		.cfi_offset 8, -32
 129              		.cfi_offset 9, -28
 130 0008 0600     		movs	r6, r0
 131 000a 8946     		mov	r9, r1
ARM GAS  C:\Users\Phuong\AppData\Local\Temp\ccLcWjsJ.s 			page 5


 132 000c 9046     		mov	r8, r2
  98:Source\mbedtls_open\library/blowfish.c ****     uint32_t  Xl, Xr, temp;
  99:Source\mbedtls_open\library/blowfish.c ****     short i;
 100:Source\mbedtls_open\library/blowfish.c **** 
 101:Source\mbedtls_open\library/blowfish.c ****     Xl = *xl;
 133              		.loc 1 101 0
 134 000e 0868     		ldr	r0, [r1]
 135              	.LVL21:
 102:Source\mbedtls_open\library/blowfish.c ****     Xr = *xr;
 136              		.loc 1 102 0
 137 0010 1768     		ldr	r7, [r2]
 138              	.LVL22:
 103:Source\mbedtls_open\library/blowfish.c **** 
 104:Source\mbedtls_open\library/blowfish.c ****     for( i = 0; i < MBEDTLS_BLOWFISH_ROUNDS; ++i )
 139              		.loc 1 104 0
 140 0012 0024     		movs	r4, #0
 141 0014 0AE0     		b	.L5
 142              	.LVL23:
 143              	.L6:
 105:Source\mbedtls_open\library/blowfish.c ****     {
 106:Source\mbedtls_open\library/blowfish.c ****         Xl = Xl ^ ctx->P[i];
 144              		.loc 1 106 0 discriminator 3
 145 0016 A300     		lsls	r3, r4, #2
 146 0018 9D59     		ldr	r5, [r3, r6]
 147 001a 4540     		eors	r5, r0
 148              	.LVL24:
 107:Source\mbedtls_open\library/blowfish.c ****         Xr = F( ctx, Xl ) ^ Xr;
 149              		.loc 1 107 0 discriminator 3
 150 001c 2900     		movs	r1, r5
 151 001e 3000     		movs	r0, r6
 152 0020 FFF7FEFF 		bl	F
 153              	.LVL25:
 154 0024 7840     		eors	r0, r7
 155              	.LVL26:
 104:Source\mbedtls_open\library/blowfish.c ****     {
 156              		.loc 1 104 0 discriminator 3
 157 0026 0134     		adds	r4, r4, #1
 158              	.LVL27:
 159 0028 24B2     		sxth	r4, r4
 160              	.LVL28:
 108:Source\mbedtls_open\library/blowfish.c **** 
 109:Source\mbedtls_open\library/blowfish.c ****         temp = Xl;
 110:Source\mbedtls_open\library/blowfish.c ****         Xl = Xr;
 111:Source\mbedtls_open\library/blowfish.c ****         Xr = temp;
 161              		.loc 1 111 0 discriminator 3
 162 002a 2F00     		movs	r7, r5
 163              	.LVL29:
 164              	.L5:
 104:Source\mbedtls_open\library/blowfish.c ****     {
 165              		.loc 1 104 0 discriminator 1
 166 002c 0F2C     		cmp	r4, #15
 167 002e F2DD     		ble	.L6
 168              	.LVL30:
 112:Source\mbedtls_open\library/blowfish.c ****     }
 113:Source\mbedtls_open\library/blowfish.c **** 
 114:Source\mbedtls_open\library/blowfish.c ****     temp = Xl;
 115:Source\mbedtls_open\library/blowfish.c ****     Xl = Xr;
ARM GAS  C:\Users\Phuong\AppData\Local\Temp\ccLcWjsJ.s 			page 6


 116:Source\mbedtls_open\library/blowfish.c ****     Xr = temp;
 117:Source\mbedtls_open\library/blowfish.c **** 
 118:Source\mbedtls_open\library/blowfish.c ****     Xr = Xr ^ ctx->P[MBEDTLS_BLOWFISH_ROUNDS];
 169              		.loc 1 118 0
 170 0030 336C     		ldr	r3, [r6, #64]
 171 0032 5840     		eors	r0, r3
 172              	.LVL31:
 119:Source\mbedtls_open\library/blowfish.c ****     Xl = Xl ^ ctx->P[MBEDTLS_BLOWFISH_ROUNDS + 1];
 173              		.loc 1 119 0
 174 0034 736C     		ldr	r3, [r6, #68]
 175 0036 5F40     		eors	r7, r3
 176              	.LVL32:
 120:Source\mbedtls_open\library/blowfish.c **** 
 121:Source\mbedtls_open\library/blowfish.c ****     *xl = Xl;
 177              		.loc 1 121 0
 178 0038 4B46     		mov	r3, r9
 179 003a 1F60     		str	r7, [r3]
 122:Source\mbedtls_open\library/blowfish.c ****     *xr = Xr;
 180              		.loc 1 122 0
 181 003c 4346     		mov	r3, r8
 182 003e 1860     		str	r0, [r3]
 123:Source\mbedtls_open\library/blowfish.c **** }
 183              		.loc 1 123 0
 184              		@ sp needed
 185              	.LVL33:
 186              	.LVL34:
 187              	.LVL35:
 188              	.LVL36:
 189              	.LVL37:
 190 0040 0CBC     		pop	{r2, r3}
 191 0042 9046     		mov	r8, r2
 192 0044 9946     		mov	r9, r3
 193 0046 F8BD     		pop	{r3, r4, r5, r6, r7, pc}
 194              		.cfi_endproc
 195              	.LFE1:
 196              		.size	blowfish_enc, .-blowfish_enc
 197              		.section	.text.blowfish_dec,"ax",%progbits
 198              		.align	2
 199              		.code	16
 200              		.thumb_func
 201              		.type	blowfish_dec, %function
 202              	blowfish_dec:
 203              	.LFB2:
 124:Source\mbedtls_open\library/blowfish.c **** 
 125:Source\mbedtls_open\library/blowfish.c **** static void blowfish_dec( mbedtls_blowfish_context *ctx, uint32_t *xl, uint32_t *xr )
 126:Source\mbedtls_open\library/blowfish.c **** {
 204              		.loc 1 126 0
 205              		.cfi_startproc
 206              		@ args = 0, pretend = 0, frame = 0
 207              		@ frame_needed = 0, uses_anonymous_args = 0
 208              	.LVL38:
 209 0000 F8B5     		push	{r3, r4, r5, r6, r7, lr}
 210              		.cfi_def_cfa_offset 24
 211              		.cfi_offset 3, -24
 212              		.cfi_offset 4, -20
 213              		.cfi_offset 5, -16
 214              		.cfi_offset 6, -12
ARM GAS  C:\Users\Phuong\AppData\Local\Temp\ccLcWjsJ.s 			page 7


 215              		.cfi_offset 7, -8
 216              		.cfi_offset 14, -4
 217 0002 4F46     		mov	r7, r9
 218 0004 4646     		mov	r6, r8
 219 0006 C0B4     		push	{r6, r7}
 220              		.cfi_def_cfa_offset 32
 221              		.cfi_offset 8, -32
 222              		.cfi_offset 9, -28
 223 0008 0600     		movs	r6, r0
 224 000a 8946     		mov	r9, r1
 225 000c 9046     		mov	r8, r2
 127:Source\mbedtls_open\library/blowfish.c ****     uint32_t  Xl, Xr, temp;
 128:Source\mbedtls_open\library/blowfish.c ****     short i;
 129:Source\mbedtls_open\library/blowfish.c **** 
 130:Source\mbedtls_open\library/blowfish.c ****     Xl = *xl;
 226              		.loc 1 130 0
 227 000e 0868     		ldr	r0, [r1]
 228              	.LVL39:
 131:Source\mbedtls_open\library/blowfish.c ****     Xr = *xr;
 229              		.loc 1 131 0
 230 0010 1768     		ldr	r7, [r2]
 231              	.LVL40:
 132:Source\mbedtls_open\library/blowfish.c **** 
 133:Source\mbedtls_open\library/blowfish.c ****     for( i = MBEDTLS_BLOWFISH_ROUNDS + 1; i > 1; --i )
 232              		.loc 1 133 0
 233 0012 1124     		movs	r4, #17
 234 0014 0AE0     		b	.L8
 235              	.LVL41:
 236              	.L9:
 134:Source\mbedtls_open\library/blowfish.c ****     {
 135:Source\mbedtls_open\library/blowfish.c ****         Xl = Xl ^ ctx->P[i];
 237              		.loc 1 135 0 discriminator 3
 238 0016 A300     		lsls	r3, r4, #2
 239 0018 9D59     		ldr	r5, [r3, r6]
 240 001a 4540     		eors	r5, r0
 241              	.LVL42:
 136:Source\mbedtls_open\library/blowfish.c ****         Xr = F( ctx, Xl ) ^ Xr;
 242              		.loc 1 136 0 discriminator 3
 243 001c 2900     		movs	r1, r5
 244 001e 3000     		movs	r0, r6
 245 0020 FFF7FEFF 		bl	F
 246              	.LVL43:
 247 0024 7840     		eors	r0, r7
 248              	.LVL44:
 133:Source\mbedtls_open\library/blowfish.c ****     {
 249              		.loc 1 133 0 discriminator 3
 250 0026 013C     		subs	r4, r4, #1
 251              	.LVL45:
 252 0028 24B2     		sxth	r4, r4
 253              	.LVL46:
 137:Source\mbedtls_open\library/blowfish.c **** 
 138:Source\mbedtls_open\library/blowfish.c ****         temp = Xl;
 139:Source\mbedtls_open\library/blowfish.c ****         Xl = Xr;
 140:Source\mbedtls_open\library/blowfish.c ****         Xr = temp;
 254              		.loc 1 140 0 discriminator 3
 255 002a 2F00     		movs	r7, r5
 256              	.LVL47:
ARM GAS  C:\Users\Phuong\AppData\Local\Temp\ccLcWjsJ.s 			page 8


 257              	.L8:
 133:Source\mbedtls_open\library/blowfish.c ****     {
 258              		.loc 1 133 0 discriminator 1
 259 002c 012C     		cmp	r4, #1
 260 002e F2DC     		bgt	.L9
 261              	.LVL48:
 141:Source\mbedtls_open\library/blowfish.c ****     }
 142:Source\mbedtls_open\library/blowfish.c **** 
 143:Source\mbedtls_open\library/blowfish.c ****     temp = Xl;
 144:Source\mbedtls_open\library/blowfish.c ****     Xl = Xr;
 145:Source\mbedtls_open\library/blowfish.c ****     Xr = temp;
 146:Source\mbedtls_open\library/blowfish.c **** 
 147:Source\mbedtls_open\library/blowfish.c ****     Xr = Xr ^ ctx->P[1];
 262              		.loc 1 147 0
 263 0030 7368     		ldr	r3, [r6, #4]
 264 0032 5840     		eors	r0, r3
 265              	.LVL49:
 148:Source\mbedtls_open\library/blowfish.c ****     Xl = Xl ^ ctx->P[0];
 266              		.loc 1 148 0
 267 0034 3368     		ldr	r3, [r6]
 268 0036 5F40     		eors	r7, r3
 269              	.LVL50:
 149:Source\mbedtls_open\library/blowfish.c **** 
 150:Source\mbedtls_open\library/blowfish.c ****     *xl = Xl;
 270              		.loc 1 150 0
 271 0038 4B46     		mov	r3, r9
 272 003a 1F60     		str	r7, [r3]
 151:Source\mbedtls_open\library/blowfish.c ****     *xr = Xr;
 273              		.loc 1 151 0
 274 003c 4346     		mov	r3, r8
 275 003e 1860     		str	r0, [r3]
 152:Source\mbedtls_open\library/blowfish.c **** }
 276              		.loc 1 152 0
 277              		@ sp needed
 278              	.LVL51:
 279              	.LVL52:
 280              	.LVL53:
 281              	.LVL54:
 282              	.LVL55:
 283 0040 0CBC     		pop	{r2, r3}
 284 0042 9046     		mov	r8, r2
 285 0044 9946     		mov	r9, r3
 286 0046 F8BD     		pop	{r3, r4, r5, r6, r7, pc}
 287              		.cfi_endproc
 288              	.LFE2:
 289              		.size	blowfish_dec, .-blowfish_dec
 290              		.section	.text.mbedtls_blowfish_init,"ax",%progbits
 291              		.align	2
 292              		.global	mbedtls_blowfish_init
 293              		.code	16
 294              		.thumb_func
 295              		.type	mbedtls_blowfish_init, %function
 296              	mbedtls_blowfish_init:
 297              	.LFB3:
 153:Source\mbedtls_open\library/blowfish.c **** 
 154:Source\mbedtls_open\library/blowfish.c **** void mbedtls_blowfish_init( mbedtls_blowfish_context *ctx )
 155:Source\mbedtls_open\library/blowfish.c **** {
ARM GAS  C:\Users\Phuong\AppData\Local\Temp\ccLcWjsJ.s 			page 9


 298              		.loc 1 155 0
 299              		.cfi_startproc
 300              		@ args = 0, pretend = 0, frame = 0
 301              		@ frame_needed = 0, uses_anonymous_args = 0
 302              	.LVL56:
 303 0000 10B5     		push	{r4, lr}
 304              		.cfi_def_cfa_offset 8
 305              		.cfi_offset 4, -8
 306              		.cfi_offset 14, -4
 156:Source\mbedtls_open\library/blowfish.c ****     memset( ctx, 0, sizeof( mbedtls_blowfish_context ) );
 307              		.loc 1 156 0
 308 0002 024A     		ldr	r2, .L11
 309 0004 0021     		movs	r1, #0
 310 0006 FFF7FEFF 		bl	memset
 311              	.LVL57:
 157:Source\mbedtls_open\library/blowfish.c **** }
 312              		.loc 1 157 0
 313              		@ sp needed
 314 000a 10BD     		pop	{r4, pc}
 315              	.L12:
 316              		.align	2
 317              	.L11:
 318 000c 48100000 		.word	4168
 319              		.cfi_endproc
 320              	.LFE3:
 321              		.size	mbedtls_blowfish_init, .-mbedtls_blowfish_init
 322              		.section	.text.mbedtls_blowfish_free,"ax",%progbits
 323              		.align	2
 324              		.global	mbedtls_blowfish_free
 325              		.code	16
 326              		.thumb_func
 327              		.type	mbedtls_blowfish_free, %function
 328              	mbedtls_blowfish_free:
 329              	.LFB4:
 158:Source\mbedtls_open\library/blowfish.c **** 
 159:Source\mbedtls_open\library/blowfish.c **** void mbedtls_blowfish_free( mbedtls_blowfish_context *ctx )
 160:Source\mbedtls_open\library/blowfish.c **** {
 330              		.loc 1 160 0
 331              		.cfi_startproc
 332              		@ args = 0, pretend = 0, frame = 0
 333              		@ frame_needed = 0, uses_anonymous_args = 0
 334              	.LVL58:
 335 0000 10B5     		push	{r4, lr}
 336              		.cfi_def_cfa_offset 8
 337              		.cfi_offset 4, -8
 338              		.cfi_offset 14, -4
 161:Source\mbedtls_open\library/blowfish.c ****     if( ctx == NULL )
 339              		.loc 1 161 0
 340 0002 0028     		cmp	r0, #0
 341 0004 02D0     		beq	.L13
 162:Source\mbedtls_open\library/blowfish.c ****         return;
 163:Source\mbedtls_open\library/blowfish.c **** 
 164:Source\mbedtls_open\library/blowfish.c ****     mbedtls_platform_zeroize( ctx, sizeof( mbedtls_blowfish_context ) );
 342              		.loc 1 164 0
 343 0006 0249     		ldr	r1, .L15
 344 0008 FFF7FEFF 		bl	mbedtls_platform_zeroize
 345              	.LVL59:
ARM GAS  C:\Users\Phuong\AppData\Local\Temp\ccLcWjsJ.s 			page 10


 346              	.L13:
 165:Source\mbedtls_open\library/blowfish.c **** }
 347              		.loc 1 165 0
 348              		@ sp needed
 349 000c 10BD     		pop	{r4, pc}
 350              	.L16:
 351 000e C046     		.align	2
 352              	.L15:
 353 0010 48100000 		.word	4168
 354              		.cfi_endproc
 355              	.LFE4:
 356              		.size	mbedtls_blowfish_free, .-mbedtls_blowfish_free
 357              		.section	.text.mbedtls_blowfish_setkey,"ax",%progbits
 358              		.align	2
 359              		.global	mbedtls_blowfish_setkey
 360              		.code	16
 361              		.thumb_func
 362              		.type	mbedtls_blowfish_setkey, %function
 363              	mbedtls_blowfish_setkey:
 364              	.LFB5:
 166:Source\mbedtls_open\library/blowfish.c **** 
 167:Source\mbedtls_open\library/blowfish.c **** /*
 168:Source\mbedtls_open\library/blowfish.c ****  * Blowfish key schedule
 169:Source\mbedtls_open\library/blowfish.c ****  */
 170:Source\mbedtls_open\library/blowfish.c **** int mbedtls_blowfish_setkey( mbedtls_blowfish_context *ctx, const unsigned char *key,
 171:Source\mbedtls_open\library/blowfish.c ****                      unsigned int keybits )
 172:Source\mbedtls_open\library/blowfish.c **** {
 365              		.loc 1 172 0
 366              		.cfi_startproc
 367              		@ args = 0, pretend = 0, frame = 8
 368              		@ frame_needed = 0, uses_anonymous_args = 0
 369              	.LVL60:
 370 0000 F0B5     		push	{r4, r5, r6, r7, lr}
 371              		.cfi_def_cfa_offset 20
 372              		.cfi_offset 4, -20
 373              		.cfi_offset 5, -16
 374              		.cfi_offset 6, -12
 375              		.cfi_offset 7, -8
 376              		.cfi_offset 14, -4
 377 0002 83B0     		sub	sp, sp, #12
 378              		.cfi_def_cfa_offset 32
 379 0004 0400     		movs	r4, r0
 173:Source\mbedtls_open\library/blowfish.c ****     unsigned int i, j, k;
 174:Source\mbedtls_open\library/blowfish.c ****     uint32_t data, datal, datar;
 175:Source\mbedtls_open\library/blowfish.c **** 
 176:Source\mbedtls_open\library/blowfish.c ****     if( keybits < MBEDTLS_BLOWFISH_MIN_KEY_BITS || keybits > MBEDTLS_BLOWFISH_MAX_KEY_BITS ||
 380              		.loc 1 176 0
 381 0006 1000     		movs	r0, r2
 382              	.LVL61:
 383 0008 2038     		subs	r0, r0, #32
 384 000a D023     		movs	r3, #208
 385 000c 5B00     		lsls	r3, r3, #1
 386 000e 9842     		cmp	r0, r3
 387 0010 5FD8     		bhi	.L31
 388              		.loc 1 176 0 is_stmt 0 discriminator 1
 389 0012 5307     		lsls	r3, r2, #29
 390 0014 60D1     		bne	.L32
ARM GAS  C:\Users\Phuong\AppData\Local\Temp\ccLcWjsJ.s 			page 11


 177:Source\mbedtls_open\library/blowfish.c ****         ( keybits % 8 ) )
 178:Source\mbedtls_open\library/blowfish.c ****     {
 179:Source\mbedtls_open\library/blowfish.c ****         return( MBEDTLS_ERR_BLOWFISH_INVALID_KEY_LENGTH );
 180:Source\mbedtls_open\library/blowfish.c ****     }
 181:Source\mbedtls_open\library/blowfish.c **** 
 182:Source\mbedtls_open\library/blowfish.c ****     keybits >>= 3;
 391              		.loc 1 182 0 is_stmt 1
 392 0016 D208     		lsrs	r2, r2, #3
 393              	.LVL62:
 183:Source\mbedtls_open\library/blowfish.c **** 
 184:Source\mbedtls_open\library/blowfish.c ****     for( i = 0; i < 4; i++ )
 394              		.loc 1 184 0
 395 0018 0027     		movs	r7, #0
 396 001a 0DE0     		b	.L19
 397              	.LVL63:
 398              	.L20:
 185:Source\mbedtls_open\library/blowfish.c ****     {
 186:Source\mbedtls_open\library/blowfish.c ****         for( j = 0; j < 256; j++ )
 187:Source\mbedtls_open\library/blowfish.c ****             ctx->S[i][j] = S[i][j];
 399              		.loc 1 187 0 discriminator 3
 400 001c 3B02     		lsls	r3, r7, #8
 401 001e 1B18     		adds	r3, r3, r0
 402 0020 9E00     		lsls	r6, r3, #2
 403 0022 2F4D     		ldr	r5, .L37
 404 0024 7559     		ldr	r5, [r6, r5]
 405 0026 1233     		adds	r3, r3, #18
 406 0028 9B00     		lsls	r3, r3, #2
 407 002a 1D51     		str	r5, [r3, r4]
 186:Source\mbedtls_open\library/blowfish.c ****             ctx->S[i][j] = S[i][j];
 408              		.loc 1 186 0 discriminator 3
 409 002c 0130     		adds	r0, r0, #1
 410              	.LVL64:
 411 002e 00E0     		b	.L21
 412              	.LVL65:
 413              	.L33:
 414 0030 0020     		movs	r0, #0
 415              	.L21:
 416              	.LVL66:
 186:Source\mbedtls_open\library/blowfish.c ****             ctx->S[i][j] = S[i][j];
 417              		.loc 1 186 0 is_stmt 0 discriminator 1
 418 0032 FF28     		cmp	r0, #255
 419 0034 F2D9     		bls	.L20
 184:Source\mbedtls_open\library/blowfish.c ****     {
 420              		.loc 1 184 0 is_stmt 1 discriminator 2
 421 0036 0137     		adds	r7, r7, #1
 422              	.LVL67:
 423              	.L19:
 184:Source\mbedtls_open\library/blowfish.c ****     {
 424              		.loc 1 184 0 is_stmt 0 discriminator 1
 425 0038 032F     		cmp	r7, #3
 426 003a F9D9     		bls	.L33
 427 003c 0025     		movs	r5, #0
 428 003e 0027     		movs	r7, #0
 429              	.LVL68:
 430 0040 14E0     		b	.L22
 431              	.LVL69:
 432              	.L24:
ARM GAS  C:\Users\Phuong\AppData\Local\Temp\ccLcWjsJ.s 			page 12


 188:Source\mbedtls_open\library/blowfish.c ****     }
 189:Source\mbedtls_open\library/blowfish.c **** 
 190:Source\mbedtls_open\library/blowfish.c ****     j = 0;
 191:Source\mbedtls_open\library/blowfish.c ****     for( i = 0; i < MBEDTLS_BLOWFISH_ROUNDS + 2; ++i )
 192:Source\mbedtls_open\library/blowfish.c ****     {
 193:Source\mbedtls_open\library/blowfish.c ****         data = 0x00000000;
 194:Source\mbedtls_open\library/blowfish.c ****         for( k = 0; k < 4; ++k )
 195:Source\mbedtls_open\library/blowfish.c ****         {
 196:Source\mbedtls_open\library/blowfish.c ****             data = ( data << 8 ) | key[j++];
 433              		.loc 1 196 0 is_stmt 1
 434 0042 1B02     		lsls	r3, r3, #8
 435              	.LVL70:
 436 0044 6E1C     		adds	r6, r5, #1
 437              	.LVL71:
 438 0046 4D5D     		ldrb	r5, [r1, r5]
 439 0048 2B43     		orrs	r3, r5
 440              	.LVL72:
 197:Source\mbedtls_open\library/blowfish.c ****             if( j >= keybits )
 441              		.loc 1 197 0
 442 004a B242     		cmp	r2, r6
 443 004c 01D9     		bls	.L34
 196:Source\mbedtls_open\library/blowfish.c ****             if( j >= keybits )
 444              		.loc 1 196 0
 445 004e 3500     		movs	r5, r6
 446 0050 00E0     		b	.L23
 447              	.L34:
 198:Source\mbedtls_open\library/blowfish.c ****                 j = 0;
 448              		.loc 1 198 0
 449 0052 0025     		movs	r5, #0
 450              	.L23:
 451              	.LVL73:
 194:Source\mbedtls_open\library/blowfish.c ****         {
 452              		.loc 1 194 0 discriminator 2
 453 0054 0130     		adds	r0, r0, #1
 454              	.LVL74:
 455 0056 01E0     		b	.L25
 456              	.LVL75:
 457              	.L35:
 458 0058 0023     		movs	r3, #0
 459 005a 0020     		movs	r0, #0
 460              	.L25:
 461              	.LVL76:
 194:Source\mbedtls_open\library/blowfish.c ****         {
 462              		.loc 1 194 0 is_stmt 0 discriminator 1
 463 005c 0328     		cmp	r0, #3
 464 005e F0D9     		bls	.L24
 199:Source\mbedtls_open\library/blowfish.c ****         }
 200:Source\mbedtls_open\library/blowfish.c ****         ctx->P[i] = P[i] ^ data;
 465              		.loc 1 200 0 is_stmt 1 discriminator 2
 466 0060 BE00     		lsls	r6, r7, #2
 467 0062 2048     		ldr	r0, .L37+4
 468              	.LVL77:
 469 0064 3058     		ldr	r0, [r6, r0]
 470 0066 4340     		eors	r3, r0
 471              	.LVL78:
 472 0068 3351     		str	r3, [r6, r4]
 191:Source\mbedtls_open\library/blowfish.c ****     {
ARM GAS  C:\Users\Phuong\AppData\Local\Temp\ccLcWjsJ.s 			page 13


 473              		.loc 1 191 0 discriminator 2
 474 006a 0137     		adds	r7, r7, #1
 475              	.LVL79:
 476              	.L22:
 191:Source\mbedtls_open\library/blowfish.c ****     {
 477              		.loc 1 191 0 is_stmt 0 discriminator 1
 478 006c 112F     		cmp	r7, #17
 479 006e F3D9     		bls	.L35
 201:Source\mbedtls_open\library/blowfish.c ****     }
 202:Source\mbedtls_open\library/blowfish.c **** 
 203:Source\mbedtls_open\library/blowfish.c ****     datal = 0x00000000;
 480              		.loc 1 203 0 is_stmt 1
 481 0070 0023     		movs	r3, #0
 482 0072 0193     		str	r3, [sp, #4]
 204:Source\mbedtls_open\library/blowfish.c ****     datar = 0x00000000;
 483              		.loc 1 204 0
 484 0074 0093     		str	r3, [sp]
 485              	.LVL80:
 205:Source\mbedtls_open\library/blowfish.c **** 
 206:Source\mbedtls_open\library/blowfish.c ****     for( i = 0; i < MBEDTLS_BLOWFISH_ROUNDS + 2; i += 2 )
 486              		.loc 1 206 0
 487 0076 0025     		movs	r5, #0
 488              	.LVL81:
 489 0078 0CE0     		b	.L26
 490              	.LVL82:
 491              	.L27:
 207:Source\mbedtls_open\library/blowfish.c ****     {
 208:Source\mbedtls_open\library/blowfish.c ****         blowfish_enc( ctx, &datal, &datar );
 492              		.loc 1 208 0 discriminator 3
 493 007a 6A46     		mov	r2, sp
 494 007c 01A9     		add	r1, sp, #4
 495 007e 2000     		movs	r0, r4
 496 0080 FFF7FEFF 		bl	blowfish_enc
 497              	.LVL83:
 209:Source\mbedtls_open\library/blowfish.c ****         ctx->P[i] = datal;
 498              		.loc 1 209 0 discriminator 3
 499 0084 AB00     		lsls	r3, r5, #2
 500 0086 019A     		ldr	r2, [sp, #4]
 501 0088 1A51     		str	r2, [r3, r4]
 210:Source\mbedtls_open\library/blowfish.c ****         ctx->P[i + 1] = datar;
 502              		.loc 1 210 0 discriminator 3
 503 008a 6B1C     		adds	r3, r5, #1
 504 008c 9B00     		lsls	r3, r3, #2
 505 008e 009A     		ldr	r2, [sp]
 506 0090 1A51     		str	r2, [r3, r4]
 206:Source\mbedtls_open\library/blowfish.c ****     {
 507              		.loc 1 206 0 discriminator 3
 508 0092 0235     		adds	r5, r5, #2
 509              	.LVL84:
 510              	.L26:
 206:Source\mbedtls_open\library/blowfish.c ****     {
 511              		.loc 1 206 0 is_stmt 0 discriminator 1
 512 0094 112D     		cmp	r5, #17
 513 0096 F0D9     		bls	.L27
 514 0098 0026     		movs	r6, #0
 515 009a 16E0     		b	.L28
 516              	.LVL85:
ARM GAS  C:\Users\Phuong\AppData\Local\Temp\ccLcWjsJ.s 			page 14


 517              	.L29:
 211:Source\mbedtls_open\library/blowfish.c ****     }
 212:Source\mbedtls_open\library/blowfish.c **** 
 213:Source\mbedtls_open\library/blowfish.c ****     for( i = 0; i < 4; i++ )
 214:Source\mbedtls_open\library/blowfish.c ****     {
 215:Source\mbedtls_open\library/blowfish.c ****        for( j = 0; j < 256; j += 2 )
 216:Source\mbedtls_open\library/blowfish.c ****        {
 217:Source\mbedtls_open\library/blowfish.c ****             blowfish_enc( ctx, &datal, &datar );
 518              		.loc 1 217 0 is_stmt 1 discriminator 3
 519 009c 6A46     		mov	r2, sp
 520 009e 01A9     		add	r1, sp, #4
 521 00a0 2000     		movs	r0, r4
 522 00a2 FFF7FEFF 		bl	blowfish_enc
 523              	.LVL86:
 218:Source\mbedtls_open\library/blowfish.c ****             ctx->S[i][j] = datal;
 524              		.loc 1 218 0 discriminator 3
 525 00a6 3102     		lsls	r1, r6, #8
 526 00a8 4A19     		adds	r2, r1, r5
 527 00aa 1232     		adds	r2, r2, #18
 528 00ac 9200     		lsls	r2, r2, #2
 529 00ae 019B     		ldr	r3, [sp, #4]
 530 00b0 1351     		str	r3, [r2, r4]
 219:Source\mbedtls_open\library/blowfish.c ****             ctx->S[i][j + 1] = datar;
 531              		.loc 1 219 0 discriminator 3
 532 00b2 6B1C     		adds	r3, r5, #1
 533 00b4 CB18     		adds	r3, r1, r3
 534 00b6 1233     		adds	r3, r3, #18
 535 00b8 9B00     		lsls	r3, r3, #2
 536 00ba 009A     		ldr	r2, [sp]
 537 00bc 1A51     		str	r2, [r3, r4]
 215:Source\mbedtls_open\library/blowfish.c ****        {
 538              		.loc 1 215 0 discriminator 3
 539 00be 0235     		adds	r5, r5, #2
 540              	.LVL87:
 541 00c0 00E0     		b	.L30
 542              	.LVL88:
 543              	.L36:
 544 00c2 0025     		movs	r5, #0
 545              	.L30:
 546              	.LVL89:
 215:Source\mbedtls_open\library/blowfish.c ****        {
 547              		.loc 1 215 0 is_stmt 0 discriminator 1
 548 00c4 FF2D     		cmp	r5, #255
 549 00c6 E9D9     		bls	.L29
 213:Source\mbedtls_open\library/blowfish.c ****     {
 550              		.loc 1 213 0 is_stmt 1 discriminator 2
 551 00c8 0136     		adds	r6, r6, #1
 552              	.LVL90:
 553              	.L28:
 213:Source\mbedtls_open\library/blowfish.c ****     {
 554              		.loc 1 213 0 is_stmt 0 discriminator 1
 555 00ca 032E     		cmp	r6, #3
 556 00cc F9D9     		bls	.L36
 220:Source\mbedtls_open\library/blowfish.c ****         }
 221:Source\mbedtls_open\library/blowfish.c ****     }
 222:Source\mbedtls_open\library/blowfish.c ****     return( 0 );
 557              		.loc 1 222 0 is_stmt 1
ARM GAS  C:\Users\Phuong\AppData\Local\Temp\ccLcWjsJ.s 			page 15


 558 00ce 0020     		movs	r0, #0
 559 00d0 04E0     		b	.L18
 560              	.LVL91:
 561              	.L31:
 179:Source\mbedtls_open\library/blowfish.c ****     }
 562              		.loc 1 179 0
 563 00d2 1620     		movs	r0, #22
 564 00d4 4042     		rsbs	r0, r0, #0
 565 00d6 01E0     		b	.L18
 566              	.L32:
 567 00d8 1620     		movs	r0, #22
 568 00da 4042     		rsbs	r0, r0, #0
 569              	.LVL92:
 570              	.L18:
 223:Source\mbedtls_open\library/blowfish.c **** }
 571              		.loc 1 223 0
 572 00dc 03B0     		add	sp, sp, #12
 573              		@ sp needed
 574              	.LVL93:
 575 00de F0BD     		pop	{r4, r5, r6, r7, pc}
 576              	.L38:
 577              		.align	2
 578              	.L37:
 579 00e0 00000000 		.word	.LANCHOR0
 580 00e4 00100000 		.word	.LANCHOR1
 581              		.cfi_endproc
 582              	.LFE5:
 583              		.size	mbedtls_blowfish_setkey, .-mbedtls_blowfish_setkey
 584              		.section	.text.mbedtls_blowfish_crypt_ecb,"ax",%progbits
 585              		.align	2
 586              		.global	mbedtls_blowfish_crypt_ecb
 587              		.code	16
 588              		.thumb_func
 589              		.type	mbedtls_blowfish_crypt_ecb, %function
 590              	mbedtls_blowfish_crypt_ecb:
 591              	.LFB6:
 224:Source\mbedtls_open\library/blowfish.c **** 
 225:Source\mbedtls_open\library/blowfish.c **** /*
 226:Source\mbedtls_open\library/blowfish.c ****  * Blowfish-ECB block encryption/decryption
 227:Source\mbedtls_open\library/blowfish.c ****  */
 228:Source\mbedtls_open\library/blowfish.c **** int mbedtls_blowfish_crypt_ecb( mbedtls_blowfish_context *ctx,
 229:Source\mbedtls_open\library/blowfish.c ****                     int mode,
 230:Source\mbedtls_open\library/blowfish.c ****                     const unsigned char input[MBEDTLS_BLOWFISH_BLOCKSIZE],
 231:Source\mbedtls_open\library/blowfish.c ****                     unsigned char output[MBEDTLS_BLOWFISH_BLOCKSIZE] )
 232:Source\mbedtls_open\library/blowfish.c **** {
 592              		.loc 1 232 0
 593              		.cfi_startproc
 594              		@ args = 0, pretend = 0, frame = 8
 595              		@ frame_needed = 0, uses_anonymous_args = 0
 596              	.LVL94:
 597 0000 30B5     		push	{r4, r5, lr}
 598              		.cfi_def_cfa_offset 12
 599              		.cfi_offset 4, -12
 600              		.cfi_offset 5, -8
 601              		.cfi_offset 14, -4
 602 0002 83B0     		sub	sp, sp, #12
 603              		.cfi_def_cfa_offset 24
ARM GAS  C:\Users\Phuong\AppData\Local\Temp\ccLcWjsJ.s 			page 16


 604 0004 1C00     		movs	r4, r3
 233:Source\mbedtls_open\library/blowfish.c ****     uint32_t X0, X1;
 234:Source\mbedtls_open\library/blowfish.c **** 
 235:Source\mbedtls_open\library/blowfish.c ****     GET_UINT32_BE( X0, input,  0 );
 605              		.loc 1 235 0
 606 0006 1378     		ldrb	r3, [r2]
 607              	.LVL95:
 608 0008 1D06     		lsls	r5, r3, #24
 609 000a 5378     		ldrb	r3, [r2, #1]
 610 000c 1B04     		lsls	r3, r3, #16
 611 000e 2B43     		orrs	r3, r5
 612 0010 9578     		ldrb	r5, [r2, #2]
 613 0012 2D02     		lsls	r5, r5, #8
 614 0014 2B43     		orrs	r3, r5
 615 0016 D578     		ldrb	r5, [r2, #3]
 616 0018 2B43     		orrs	r3, r5
 617 001a 0193     		str	r3, [sp, #4]
 236:Source\mbedtls_open\library/blowfish.c ****     GET_UINT32_BE( X1, input,  4 );
 618              		.loc 1 236 0
 619 001c 1379     		ldrb	r3, [r2, #4]
 620 001e 1D06     		lsls	r5, r3, #24
 621 0020 5379     		ldrb	r3, [r2, #5]
 622 0022 1B04     		lsls	r3, r3, #16
 623 0024 2B43     		orrs	r3, r5
 624 0026 9579     		ldrb	r5, [r2, #6]
 625 0028 2D02     		lsls	r5, r5, #8
 626 002a 2B43     		orrs	r3, r5
 627 002c D279     		ldrb	r2, [r2, #7]
 628              	.LVL96:
 629 002e 1343     		orrs	r3, r2
 630 0030 0093     		str	r3, [sp]
 237:Source\mbedtls_open\library/blowfish.c **** 
 238:Source\mbedtls_open\library/blowfish.c ****     if( mode == MBEDTLS_BLOWFISH_DECRYPT )
 631              		.loc 1 238 0
 632 0032 0029     		cmp	r1, #0
 633 0034 04D1     		bne	.L40
 239:Source\mbedtls_open\library/blowfish.c ****     {
 240:Source\mbedtls_open\library/blowfish.c ****         blowfish_dec( ctx, &X0, &X1 );
 634              		.loc 1 240 0
 635 0036 6A46     		mov	r2, sp
 636 0038 01A9     		add	r1, sp, #4
 637              	.LVL97:
 638 003a FFF7FEFF 		bl	blowfish_dec
 639              	.LVL98:
 640 003e 03E0     		b	.L41
 641              	.LVL99:
 642              	.L40:
 241:Source\mbedtls_open\library/blowfish.c ****     }
 242:Source\mbedtls_open\library/blowfish.c ****     else /* MBEDTLS_BLOWFISH_ENCRYPT */
 243:Source\mbedtls_open\library/blowfish.c ****     {
 244:Source\mbedtls_open\library/blowfish.c ****         blowfish_enc( ctx, &X0, &X1 );
 643              		.loc 1 244 0
 644 0040 6A46     		mov	r2, sp
 645 0042 01A9     		add	r1, sp, #4
 646              	.LVL100:
 647 0044 FFF7FEFF 		bl	blowfish_enc
 648              	.LVL101:
ARM GAS  C:\Users\Phuong\AppData\Local\Temp\ccLcWjsJ.s 			page 17


 649              	.L41:
 245:Source\mbedtls_open\library/blowfish.c ****     }
 246:Source\mbedtls_open\library/blowfish.c **** 
 247:Source\mbedtls_open\library/blowfish.c ****     PUT_UINT32_BE( X0, output,  0 );
 650              		.loc 1 247 0
 651 0048 019B     		ldr	r3, [sp, #4]
 652 004a 1A0E     		lsrs	r2, r3, #24
 653 004c 2270     		strb	r2, [r4]
 654 004e 1A0C     		lsrs	r2, r3, #16
 655 0050 6270     		strb	r2, [r4, #1]
 656 0052 1A0A     		lsrs	r2, r3, #8
 657 0054 A270     		strb	r2, [r4, #2]
 658 0056 E370     		strb	r3, [r4, #3]
 248:Source\mbedtls_open\library/blowfish.c ****     PUT_UINT32_BE( X1, output,  4 );
 659              		.loc 1 248 0
 660 0058 009B     		ldr	r3, [sp]
 661 005a 1A0E     		lsrs	r2, r3, #24
 662 005c 2271     		strb	r2, [r4, #4]
 663 005e 1A0C     		lsrs	r2, r3, #16
 664 0060 6271     		strb	r2, [r4, #5]
 665 0062 1A0A     		lsrs	r2, r3, #8
 666 0064 A271     		strb	r2, [r4, #6]
 667 0066 E371     		strb	r3, [r4, #7]
 249:Source\mbedtls_open\library/blowfish.c **** 
 250:Source\mbedtls_open\library/blowfish.c ****     return( 0 );
 251:Source\mbedtls_open\library/blowfish.c **** }
 668              		.loc 1 251 0
 669 0068 0020     		movs	r0, #0
 670 006a 03B0     		add	sp, sp, #12
 671              		@ sp needed
 672              	.LVL102:
 673 006c 30BD     		pop	{r4, r5, pc}
 674              		.cfi_endproc
 675              	.LFE6:
 676              		.size	mbedtls_blowfish_crypt_ecb, .-mbedtls_blowfish_crypt_ecb
 677 006e C046     		.section	.text.mbedtls_blowfish_crypt_cbc,"ax",%progbits
 678              		.align	2
 679              		.global	mbedtls_blowfish_crypt_cbc
 680              		.code	16
 681              		.thumb_func
 682              		.type	mbedtls_blowfish_crypt_cbc, %function
 683              	mbedtls_blowfish_crypt_cbc:
 684              	.LFB7:
 252:Source\mbedtls_open\library/blowfish.c **** 
 253:Source\mbedtls_open\library/blowfish.c **** #if defined(MBEDTLS_CIPHER_MODE_CBC)
 254:Source\mbedtls_open\library/blowfish.c **** /*
 255:Source\mbedtls_open\library/blowfish.c ****  * Blowfish-CBC buffer encryption/decryption
 256:Source\mbedtls_open\library/blowfish.c ****  */
 257:Source\mbedtls_open\library/blowfish.c **** int mbedtls_blowfish_crypt_cbc( mbedtls_blowfish_context *ctx,
 258:Source\mbedtls_open\library/blowfish.c ****                     int mode,
 259:Source\mbedtls_open\library/blowfish.c ****                     size_t length,
 260:Source\mbedtls_open\library/blowfish.c ****                     unsigned char iv[MBEDTLS_BLOWFISH_BLOCKSIZE],
 261:Source\mbedtls_open\library/blowfish.c ****                     const unsigned char *input,
 262:Source\mbedtls_open\library/blowfish.c ****                     unsigned char *output )
 263:Source\mbedtls_open\library/blowfish.c **** {
 685              		.loc 1 263 0
 686              		.cfi_startproc
ARM GAS  C:\Users\Phuong\AppData\Local\Temp\ccLcWjsJ.s 			page 18


 687              		@ args = 8, pretend = 0, frame = 16
 688              		@ frame_needed = 0, uses_anonymous_args = 0
 689              	.LVL103:
 690 0000 F0B5     		push	{r4, r5, r6, r7, lr}
 691              		.cfi_def_cfa_offset 20
 692              		.cfi_offset 4, -20
 693              		.cfi_offset 5, -16
 694              		.cfi_offset 6, -12
 695              		.cfi_offset 7, -8
 696              		.cfi_offset 14, -4
 697 0002 85B0     		sub	sp, sp, #20
 698              		.cfi_def_cfa_offset 40
 699 0004 0090     		str	r0, [sp]
 700 0006 0191     		str	r1, [sp, #4]
 701 0008 1500     		movs	r5, r2
 702 000a 1F00     		movs	r7, r3
 703 000c 0A9C     		ldr	r4, [sp, #40]
 704 000e 0B9E     		ldr	r6, [sp, #44]
 264:Source\mbedtls_open\library/blowfish.c ****     int i;
 265:Source\mbedtls_open\library/blowfish.c ****     unsigned char temp[MBEDTLS_BLOWFISH_BLOCKSIZE];
 266:Source\mbedtls_open\library/blowfish.c **** 
 267:Source\mbedtls_open\library/blowfish.c ****     if( length % MBEDTLS_BLOWFISH_BLOCKSIZE )
 705              		.loc 1 267 0
 706 0010 5307     		lsls	r3, r2, #29
 707 0012 3ED1     		bne	.L51
 708              	.LVL104:
 268:Source\mbedtls_open\library/blowfish.c ****         return( MBEDTLS_ERR_BLOWFISH_INVALID_INPUT_LENGTH );
 269:Source\mbedtls_open\library/blowfish.c **** 
 270:Source\mbedtls_open\library/blowfish.c ****     if( mode == MBEDTLS_BLOWFISH_DECRYPT )
 709              		.loc 1 270 0
 710 0014 0029     		cmp	r1, #0
 711 0016 1DD0     		beq	.L44
 712 0018 37E0     		b	.L45
 713              	.LVL105:
 714              	.L48:
 271:Source\mbedtls_open\library/blowfish.c ****     {
 272:Source\mbedtls_open\library/blowfish.c ****         while( length > 0 )
 273:Source\mbedtls_open\library/blowfish.c ****         {
 274:Source\mbedtls_open\library/blowfish.c ****             memcpy( temp, input, MBEDTLS_BLOWFISH_BLOCKSIZE );
 715              		.loc 1 274 0
 716 001a 0822     		movs	r2, #8
 717 001c 2100     		movs	r1, r4
 718 001e 02A8     		add	r0, sp, #8
 719 0020 FFF7FEFF 		bl	memcpy
 720              	.LVL106:
 275:Source\mbedtls_open\library/blowfish.c ****             mbedtls_blowfish_crypt_ecb( ctx, mode, input, output );
 721              		.loc 1 275 0
 722 0024 3300     		movs	r3, r6
 723 0026 2200     		movs	r2, r4
 724 0028 0199     		ldr	r1, [sp, #4]
 725 002a 0098     		ldr	r0, [sp]
 726 002c FFF7FEFF 		bl	mbedtls_blowfish_crypt_ecb
 727              	.LVL107:
 276:Source\mbedtls_open\library/blowfish.c **** 
 277:Source\mbedtls_open\library/blowfish.c ****             for( i = 0; i < MBEDTLS_BLOWFISH_BLOCKSIZE;i++ )
 728              		.loc 1 277 0
 729 0030 0023     		movs	r3, #0
ARM GAS  C:\Users\Phuong\AppData\Local\Temp\ccLcWjsJ.s 			page 19


 730 0032 05E0     		b	.L46
 731              	.LVL108:
 732              	.L47:
 278:Source\mbedtls_open\library/blowfish.c ****                 output[i] = (unsigned char)( output[i] ^ iv[i] );
 733              		.loc 1 278 0 discriminator 3
 734 0034 F118     		adds	r1, r6, r3
 735 0036 0878     		ldrb	r0, [r1]
 736 0038 FA5C     		ldrb	r2, [r7, r3]
 737 003a 4240     		eors	r2, r0
 738 003c 0A70     		strb	r2, [r1]
 277:Source\mbedtls_open\library/blowfish.c ****                 output[i] = (unsigned char)( output[i] ^ iv[i] );
 739              		.loc 1 277 0 discriminator 3
 740 003e 0133     		adds	r3, r3, #1
 741              	.LVL109:
 742              	.L46:
 277:Source\mbedtls_open\library/blowfish.c ****                 output[i] = (unsigned char)( output[i] ^ iv[i] );
 743              		.loc 1 277 0 is_stmt 0 discriminator 1
 744 0040 072B     		cmp	r3, #7
 745 0042 F7DD     		ble	.L47
 279:Source\mbedtls_open\library/blowfish.c **** 
 280:Source\mbedtls_open\library/blowfish.c ****             memcpy( iv, temp, MBEDTLS_BLOWFISH_BLOCKSIZE );
 746              		.loc 1 280 0 is_stmt 1
 747 0044 0822     		movs	r2, #8
 748 0046 02A9     		add	r1, sp, #8
 749 0048 3800     		movs	r0, r7
 750 004a FFF7FEFF 		bl	memcpy
 751              	.LVL110:
 281:Source\mbedtls_open\library/blowfish.c **** 
 282:Source\mbedtls_open\library/blowfish.c ****             input  += MBEDTLS_BLOWFISH_BLOCKSIZE;
 752              		.loc 1 282 0
 753 004e 0834     		adds	r4, r4, #8
 754              	.LVL111:
 283:Source\mbedtls_open\library/blowfish.c ****             output += MBEDTLS_BLOWFISH_BLOCKSIZE;
 755              		.loc 1 283 0
 756 0050 0836     		adds	r6, r6, #8
 757              	.LVL112:
 284:Source\mbedtls_open\library/blowfish.c ****             length -= MBEDTLS_BLOWFISH_BLOCKSIZE;
 758              		.loc 1 284 0
 759 0052 083D     		subs	r5, r5, #8
 760              	.LVL113:
 761              	.L44:
 272:Source\mbedtls_open\library/blowfish.c ****         {
 762              		.loc 1 272 0
 763 0054 002D     		cmp	r5, #0
 764 0056 E0D1     		bne	.L48
 285:Source\mbedtls_open\library/blowfish.c ****         }
 286:Source\mbedtls_open\library/blowfish.c ****     }
 287:Source\mbedtls_open\library/blowfish.c ****     else
 288:Source\mbedtls_open\library/blowfish.c ****     {
 289:Source\mbedtls_open\library/blowfish.c ****         while( length > 0 )
 290:Source\mbedtls_open\library/blowfish.c ****         {
 291:Source\mbedtls_open\library/blowfish.c ****             for( i = 0; i < MBEDTLS_BLOWFISH_BLOCKSIZE; i++ )
 292:Source\mbedtls_open\library/blowfish.c ****                 output[i] = (unsigned char)( input[i] ^ iv[i] );
 293:Source\mbedtls_open\library/blowfish.c **** 
 294:Source\mbedtls_open\library/blowfish.c ****             mbedtls_blowfish_crypt_ecb( ctx, mode, output, output );
 295:Source\mbedtls_open\library/blowfish.c ****             memcpy( iv, output, MBEDTLS_BLOWFISH_BLOCKSIZE );
 296:Source\mbedtls_open\library/blowfish.c **** 
ARM GAS  C:\Users\Phuong\AppData\Local\Temp\ccLcWjsJ.s 			page 20


 297:Source\mbedtls_open\library/blowfish.c ****             input  += MBEDTLS_BLOWFISH_BLOCKSIZE;
 298:Source\mbedtls_open\library/blowfish.c ****             output += MBEDTLS_BLOWFISH_BLOCKSIZE;
 299:Source\mbedtls_open\library/blowfish.c ****             length -= MBEDTLS_BLOWFISH_BLOCKSIZE;
 300:Source\mbedtls_open\library/blowfish.c ****         }
 301:Source\mbedtls_open\library/blowfish.c ****     }
 302:Source\mbedtls_open\library/blowfish.c **** 
 303:Source\mbedtls_open\library/blowfish.c ****     return( 0 );
 765              		.loc 1 303 0
 766 0058 0020     		movs	r0, #0
 767 005a 1CE0     		b	.L43
 768              	.LVL114:
 769              	.L49:
 292:Source\mbedtls_open\library/blowfish.c **** 
 770              		.loc 1 292 0 discriminator 3
 771 005c E15C     		ldrb	r1, [r4, r3]
 772 005e FA5C     		ldrb	r2, [r7, r3]
 773 0060 4A40     		eors	r2, r1
 774 0062 F254     		strb	r2, [r6, r3]
 291:Source\mbedtls_open\library/blowfish.c ****                 output[i] = (unsigned char)( input[i] ^ iv[i] );
 775              		.loc 1 291 0 discriminator 3
 776 0064 0133     		adds	r3, r3, #1
 777              	.LVL115:
 778 0066 00E0     		b	.L50
 779              	.LVL116:
 780              	.L52:
 781 0068 0023     		movs	r3, #0
 782              	.L50:
 783              	.LVL117:
 291:Source\mbedtls_open\library/blowfish.c ****                 output[i] = (unsigned char)( input[i] ^ iv[i] );
 784              		.loc 1 291 0 is_stmt 0 discriminator 1
 785 006a 072B     		cmp	r3, #7
 786 006c F6DD     		ble	.L49
 294:Source\mbedtls_open\library/blowfish.c ****             memcpy( iv, output, MBEDTLS_BLOWFISH_BLOCKSIZE );
 787              		.loc 1 294 0 is_stmt 1
 788 006e 3300     		movs	r3, r6
 789              	.LVL118:
 790 0070 3200     		movs	r2, r6
 791 0072 0199     		ldr	r1, [sp, #4]
 792 0074 0098     		ldr	r0, [sp]
 793 0076 FFF7FEFF 		bl	mbedtls_blowfish_crypt_ecb
 794              	.LVL119:
 295:Source\mbedtls_open\library/blowfish.c **** 
 795              		.loc 1 295 0
 796 007a 0822     		movs	r2, #8
 797 007c 3100     		movs	r1, r6
 798 007e 3800     		movs	r0, r7
 799 0080 FFF7FEFF 		bl	memcpy
 800              	.LVL120:
 297:Source\mbedtls_open\library/blowfish.c ****             output += MBEDTLS_BLOWFISH_BLOCKSIZE;
 801              		.loc 1 297 0
 802 0084 0834     		adds	r4, r4, #8
 803              	.LVL121:
 298:Source\mbedtls_open\library/blowfish.c ****             length -= MBEDTLS_BLOWFISH_BLOCKSIZE;
 804              		.loc 1 298 0
 805 0086 0836     		adds	r6, r6, #8
 806              	.LVL122:
 299:Source\mbedtls_open\library/blowfish.c ****         }
ARM GAS  C:\Users\Phuong\AppData\Local\Temp\ccLcWjsJ.s 			page 21


 807              		.loc 1 299 0
 808 0088 083D     		subs	r5, r5, #8
 809              	.LVL123:
 810              	.L45:
 289:Source\mbedtls_open\library/blowfish.c ****         {
 811              		.loc 1 289 0
 812 008a 002D     		cmp	r5, #0
 813 008c ECD1     		bne	.L52
 814              		.loc 1 303 0
 815 008e 0020     		movs	r0, #0
 816 0090 01E0     		b	.L43
 817              	.LVL124:
 818              	.L51:
 268:Source\mbedtls_open\library/blowfish.c **** 
 819              		.loc 1 268 0
 820 0092 1820     		movs	r0, #24
 821              	.LVL125:
 822 0094 4042     		rsbs	r0, r0, #0
 823              	.LVL126:
 824              	.L43:
 304:Source\mbedtls_open\library/blowfish.c **** }
 825              		.loc 1 304 0
 826 0096 05B0     		add	sp, sp, #20
 827              	.LVL127:
 828              		@ sp needed
 829              	.LVL128:
 830              	.LVL129:
 831 0098 F0BD     		pop	{r4, r5, r6, r7, pc}
 832              		.cfi_endproc
 833              	.LFE7:
 834              		.size	mbedtls_blowfish_crypt_cbc, .-mbedtls_blowfish_crypt_cbc
 835 009a C046     		.section	.text.mbedtls_blowfish_crypt_cfb64,"ax",%progbits
 836              		.align	2
 837              		.global	mbedtls_blowfish_crypt_cfb64
 838              		.code	16
 839              		.thumb_func
 840              		.type	mbedtls_blowfish_crypt_cfb64, %function
 841              	mbedtls_blowfish_crypt_cfb64:
 842              	.LFB8:
 305:Source\mbedtls_open\library/blowfish.c **** #endif /* MBEDTLS_CIPHER_MODE_CBC */
 306:Source\mbedtls_open\library/blowfish.c **** 
 307:Source\mbedtls_open\library/blowfish.c **** #if defined(MBEDTLS_CIPHER_MODE_CFB)
 308:Source\mbedtls_open\library/blowfish.c **** /*
 309:Source\mbedtls_open\library/blowfish.c ****  * Blowfish CFB buffer encryption/decryption
 310:Source\mbedtls_open\library/blowfish.c ****  */
 311:Source\mbedtls_open\library/blowfish.c **** int mbedtls_blowfish_crypt_cfb64( mbedtls_blowfish_context *ctx,
 312:Source\mbedtls_open\library/blowfish.c ****                        int mode,
 313:Source\mbedtls_open\library/blowfish.c ****                        size_t length,
 314:Source\mbedtls_open\library/blowfish.c ****                        size_t *iv_off,
 315:Source\mbedtls_open\library/blowfish.c ****                        unsigned char iv[MBEDTLS_BLOWFISH_BLOCKSIZE],
 316:Source\mbedtls_open\library/blowfish.c ****                        const unsigned char *input,
 317:Source\mbedtls_open\library/blowfish.c ****                        unsigned char *output )
 318:Source\mbedtls_open\library/blowfish.c **** {
 843              		.loc 1 318 0
 844              		.cfi_startproc
 845              		@ args = 12, pretend = 0, frame = 8
 846              		@ frame_needed = 0, uses_anonymous_args = 0
ARM GAS  C:\Users\Phuong\AppData\Local\Temp\ccLcWjsJ.s 			page 22


 847              	.LVL130:
 848 0000 F0B5     		push	{r4, r5, r6, r7, lr}
 849              		.cfi_def_cfa_offset 20
 850              		.cfi_offset 4, -20
 851              		.cfi_offset 5, -16
 852              		.cfi_offset 6, -12
 853              		.cfi_offset 7, -8
 854              		.cfi_offset 14, -4
 855 0002 4F46     		mov	r7, r9
 856 0004 4646     		mov	r6, r8
 857 0006 C0B4     		push	{r6, r7}
 858              		.cfi_def_cfa_offset 28
 859              		.cfi_offset 8, -28
 860              		.cfi_offset 9, -24
 861 0008 83B0     		sub	sp, sp, #12
 862              		.cfi_def_cfa_offset 40
 863 000a 0190     		str	r0, [sp, #4]
 864 000c 9846     		mov	r8, r3
 865 000e 0A9E     		ldr	r6, [sp, #40]
 866 0010 0B9D     		ldr	r5, [sp, #44]
 867 0012 0C9F     		ldr	r7, [sp, #48]
 319:Source\mbedtls_open\library/blowfish.c ****     int c;
 320:Source\mbedtls_open\library/blowfish.c ****     size_t n = *iv_off;
 868              		.loc 1 320 0
 869 0014 1C68     		ldr	r4, [r3]
 870              	.LVL131:
 321:Source\mbedtls_open\library/blowfish.c **** 
 322:Source\mbedtls_open\library/blowfish.c ****     if( mode == MBEDTLS_BLOWFISH_DECRYPT )
 871              		.loc 1 322 0
 872 0016 0029     		cmp	r1, #0
 873 0018 14D0     		beq	.L54
 874 001a 2CE0     		b	.L55
 875              	.LVL132:
 876              	.L57:
 323:Source\mbedtls_open\library/blowfish.c ****     {
 324:Source\mbedtls_open\library/blowfish.c ****         while( length-- )
 325:Source\mbedtls_open\library/blowfish.c ****         {
 326:Source\mbedtls_open\library/blowfish.c ****             if( n == 0 )
 877              		.loc 1 326 0
 878 001c 002C     		cmp	r4, #0
 879 001e 05D1     		bne	.L56
 327:Source\mbedtls_open\library/blowfish.c ****                 mbedtls_blowfish_crypt_ecb( ctx, MBEDTLS_BLOWFISH_ENCRYPT, iv, iv );
 880              		.loc 1 327 0
 881 0020 3300     		movs	r3, r6
 882              	.LVL133:
 883 0022 3200     		movs	r2, r6
 884 0024 0121     		movs	r1, #1
 885 0026 0198     		ldr	r0, [sp, #4]
 886 0028 FFF7FEFF 		bl	mbedtls_blowfish_crypt_ecb
 887              	.LVL134:
 888              	.L56:
 328:Source\mbedtls_open\library/blowfish.c **** 
 329:Source\mbedtls_open\library/blowfish.c ****             c = *input++;
 889              		.loc 1 329 0
 890 002c 2978     		ldrb	r1, [r5]
 891              	.LVL135:
 330:Source\mbedtls_open\library/blowfish.c ****             *output++ = (unsigned char)( c ^ iv[n] );
ARM GAS  C:\Users\Phuong\AppData\Local\Temp\ccLcWjsJ.s 			page 23


 892              		.loc 1 330 0
 893 002e 3219     		adds	r2, r6, r4
 894 0030 1378     		ldrb	r3, [r2]
 895 0032 4B40     		eors	r3, r1
 896 0034 3B70     		strb	r3, [r7]
 331:Source\mbedtls_open\library/blowfish.c ****             iv[n] = (unsigned char) c;
 897              		.loc 1 331 0
 898 0036 1170     		strb	r1, [r2]
 332:Source\mbedtls_open\library/blowfish.c **** 
 333:Source\mbedtls_open\library/blowfish.c ****             n = ( n + 1 ) % MBEDTLS_BLOWFISH_BLOCKSIZE;
 899              		.loc 1 333 0
 900 0038 0134     		adds	r4, r4, #1
 901              	.LVL136:
 902 003a 0723     		movs	r3, #7
 903 003c 1C40     		ands	r4, r3
 904              	.LVL137:
 324:Source\mbedtls_open\library/blowfish.c ****         {
 905              		.loc 1 324 0
 906 003e 4A46     		mov	r2, r9
 330:Source\mbedtls_open\library/blowfish.c ****             iv[n] = (unsigned char) c;
 907              		.loc 1 330 0
 908 0040 0137     		adds	r7, r7, #1
 909              	.LVL138:
 329:Source\mbedtls_open\library/blowfish.c ****             *output++ = (unsigned char)( c ^ iv[n] );
 910              		.loc 1 329 0
 911 0042 0135     		adds	r5, r5, #1
 912              	.LVL139:
 913              	.L54:
 324:Source\mbedtls_open\library/blowfish.c ****         {
 914              		.loc 1 324 0
 915 0044 531E     		subs	r3, r2, #1
 916 0046 9946     		mov	r9, r3
 917              	.LVL140:
 918 0048 002A     		cmp	r2, #0
 919 004a E7D1     		bne	.L57
 920 004c 17E0     		b	.L58
 921              	.L60:
 334:Source\mbedtls_open\library/blowfish.c ****         }
 335:Source\mbedtls_open\library/blowfish.c ****     }
 336:Source\mbedtls_open\library/blowfish.c ****     else
 337:Source\mbedtls_open\library/blowfish.c ****     {
 338:Source\mbedtls_open\library/blowfish.c ****         while( length-- )
 339:Source\mbedtls_open\library/blowfish.c ****         {
 340:Source\mbedtls_open\library/blowfish.c ****             if( n == 0 )
 922              		.loc 1 340 0
 923 004e 002C     		cmp	r4, #0
 924 0050 05D1     		bne	.L59
 341:Source\mbedtls_open\library/blowfish.c ****                 mbedtls_blowfish_crypt_ecb( ctx, MBEDTLS_BLOWFISH_ENCRYPT, iv, iv );
 925              		.loc 1 341 0
 926 0052 3300     		movs	r3, r6
 927              	.LVL141:
 928 0054 3200     		movs	r2, r6
 929 0056 0121     		movs	r1, #1
 930 0058 0198     		ldr	r0, [sp, #4]
 931 005a FFF7FEFF 		bl	mbedtls_blowfish_crypt_ecb
 932              	.LVL142:
 933              	.L59:
ARM GAS  C:\Users\Phuong\AppData\Local\Temp\ccLcWjsJ.s 			page 24


 342:Source\mbedtls_open\library/blowfish.c **** 
 343:Source\mbedtls_open\library/blowfish.c ****             iv[n] = *output++ = (unsigned char)( iv[n] ^ *input++ );
 934              		.loc 1 343 0
 935 005e 3219     		adds	r2, r6, r4
 936 0060 1178     		ldrb	r1, [r2]
 937              	.LVL143:
 938 0062 2B78     		ldrb	r3, [r5]
 939 0064 4B40     		eors	r3, r1
 940 0066 3B70     		strb	r3, [r7]
 941 0068 1370     		strb	r3, [r2]
 344:Source\mbedtls_open\library/blowfish.c **** 
 345:Source\mbedtls_open\library/blowfish.c ****             n = ( n + 1 ) % MBEDTLS_BLOWFISH_BLOCKSIZE;
 942              		.loc 1 345 0
 943 006a 0134     		adds	r4, r4, #1
 944              	.LVL144:
 945 006c 0723     		movs	r3, #7
 946 006e 1C40     		ands	r4, r3
 947              	.LVL145:
 338:Source\mbedtls_open\library/blowfish.c ****         {
 948              		.loc 1 338 0
 949 0070 4A46     		mov	r2, r9
 343:Source\mbedtls_open\library/blowfish.c **** 
 950              		.loc 1 343 0
 951 0072 0137     		adds	r7, r7, #1
 952              	.LVL146:
 953 0074 0135     		adds	r5, r5, #1
 954              	.LVL147:
 955              	.L55:
 338:Source\mbedtls_open\library/blowfish.c ****         {
 956              		.loc 1 338 0
 957 0076 531E     		subs	r3, r2, #1
 958 0078 9946     		mov	r9, r3
 959              	.LVL148:
 960 007a 002A     		cmp	r2, #0
 961 007c E7D1     		bne	.L60
 962              	.L58:
 346:Source\mbedtls_open\library/blowfish.c ****         }
 347:Source\mbedtls_open\library/blowfish.c ****     }
 348:Source\mbedtls_open\library/blowfish.c **** 
 349:Source\mbedtls_open\library/blowfish.c ****     *iv_off = n;
 963              		.loc 1 349 0
 964 007e 4346     		mov	r3, r8
 965              	.LVL149:
 966 0080 1C60     		str	r4, [r3]
 350:Source\mbedtls_open\library/blowfish.c **** 
 351:Source\mbedtls_open\library/blowfish.c ****     return( 0 );
 352:Source\mbedtls_open\library/blowfish.c **** }
 967              		.loc 1 352 0
 968 0082 0020     		movs	r0, #0
 969 0084 03B0     		add	sp, sp, #12
 970              		@ sp needed
 971              	.LVL150:
 972              	.LVL151:
 973              	.LVL152:
 974              	.LVL153:
 975              	.LVL154:
 976 0086 0CBC     		pop	{r2, r3}
ARM GAS  C:\Users\Phuong\AppData\Local\Temp\ccLcWjsJ.s 			page 25


 977 0088 9046     		mov	r8, r2
 978 008a 9946     		mov	r9, r3
 979 008c F0BD     		pop	{r4, r5, r6, r7, pc}
 980              		.cfi_endproc
 981              	.LFE8:
 982              		.size	mbedtls_blowfish_crypt_cfb64, .-mbedtls_blowfish_crypt_cfb64
 983 008e C046     		.section	.text.mbedtls_blowfish_crypt_ctr,"ax",%progbits
 984              		.align	2
 985              		.global	mbedtls_blowfish_crypt_ctr
 986              		.code	16
 987              		.thumb_func
 988              		.type	mbedtls_blowfish_crypt_ctr, %function
 989              	mbedtls_blowfish_crypt_ctr:
 990              	.LFB9:
 353:Source\mbedtls_open\library/blowfish.c **** #endif /*MBEDTLS_CIPHER_MODE_CFB */
 354:Source\mbedtls_open\library/blowfish.c **** 
 355:Source\mbedtls_open\library/blowfish.c **** #if defined(MBEDTLS_CIPHER_MODE_CTR)
 356:Source\mbedtls_open\library/blowfish.c **** /*
 357:Source\mbedtls_open\library/blowfish.c ****  * Blowfish CTR buffer encryption/decryption
 358:Source\mbedtls_open\library/blowfish.c ****  */
 359:Source\mbedtls_open\library/blowfish.c **** int mbedtls_blowfish_crypt_ctr( mbedtls_blowfish_context *ctx,
 360:Source\mbedtls_open\library/blowfish.c ****                        size_t length,
 361:Source\mbedtls_open\library/blowfish.c ****                        size_t *nc_off,
 362:Source\mbedtls_open\library/blowfish.c ****                        unsigned char nonce_counter[MBEDTLS_BLOWFISH_BLOCKSIZE],
 363:Source\mbedtls_open\library/blowfish.c ****                        unsigned char stream_block[MBEDTLS_BLOWFISH_BLOCKSIZE],
 364:Source\mbedtls_open\library/blowfish.c ****                        const unsigned char *input,
 365:Source\mbedtls_open\library/blowfish.c ****                        unsigned char *output )
 366:Source\mbedtls_open\library/blowfish.c **** {
 991              		.loc 1 366 0
 992              		.cfi_startproc
 993              		@ args = 12, pretend = 0, frame = 8
 994              		@ frame_needed = 0, uses_anonymous_args = 0
 995              	.LVL155:
 996 0000 F0B5     		push	{r4, r5, r6, r7, lr}
 997              		.cfi_def_cfa_offset 20
 998              		.cfi_offset 4, -20
 999              		.cfi_offset 5, -16
 1000              		.cfi_offset 6, -12
 1001              		.cfi_offset 7, -8
 1002              		.cfi_offset 14, -4
 1003 0002 5746     		mov	r7, r10
 1004 0004 4E46     		mov	r6, r9
 1005 0006 4546     		mov	r5, r8
 1006 0008 E0B4     		push	{r5, r6, r7}
 1007              		.cfi_def_cfa_offset 32
 1008              		.cfi_offset 8, -32
 1009              		.cfi_offset 9, -28
 1010              		.cfi_offset 10, -24
 1011 000a 82B0     		sub	sp, sp, #8
 1012              		.cfi_def_cfa_offset 40
 1013 000c 0190     		str	r0, [sp, #4]
 1014 000e 9146     		mov	r9, r2
 1015 0010 1F00     		movs	r7, r3
 1016 0012 0A9B     		ldr	r3, [sp, #40]
 1017              	.LVL156:
 1018 0014 9A46     		mov	r10, r3
 1019 0016 0B9E     		ldr	r6, [sp, #44]
ARM GAS  C:\Users\Phuong\AppData\Local\Temp\ccLcWjsJ.s 			page 26


 1020 0018 0C9D     		ldr	r5, [sp, #48]
 367:Source\mbedtls_open\library/blowfish.c ****     int c, i;
 368:Source\mbedtls_open\library/blowfish.c ****     size_t n = *nc_off;
 1021              		.loc 1 368 0
 1022 001a 1468     		ldr	r4, [r2]
 1023              	.LVL157:
 369:Source\mbedtls_open\library/blowfish.c **** 
 370:Source\mbedtls_open\library/blowfish.c ****     while( length-- )
 1024              		.loc 1 370 0
 1025 001c 1FE0     		b	.L62
 1026              	.LVL158:
 1027              	.L66:
 371:Source\mbedtls_open\library/blowfish.c ****     {
 372:Source\mbedtls_open\library/blowfish.c ****         if( n == 0 ) {
 1028              		.loc 1 372 0
 1029 001e 002C     		cmp	r4, #0
 1030 0020 12D1     		bne	.L63
 373:Source\mbedtls_open\library/blowfish.c ****             mbedtls_blowfish_crypt_ecb( ctx, MBEDTLS_BLOWFISH_ENCRYPT, nonce_counter,
 1031              		.loc 1 373 0
 1032 0022 5346     		mov	r3, r10
 1033              	.LVL159:
 1034 0024 3A00     		movs	r2, r7
 1035 0026 0121     		movs	r1, #1
 1036 0028 0198     		ldr	r0, [sp, #4]
 1037 002a FFF7FEFF 		bl	mbedtls_blowfish_crypt_ecb
 1038              	.LVL160:
 374:Source\mbedtls_open\library/blowfish.c ****                                 stream_block );
 375:Source\mbedtls_open\library/blowfish.c **** 
 376:Source\mbedtls_open\library/blowfish.c ****             for( i = MBEDTLS_BLOWFISH_BLOCKSIZE; i > 0; i-- )
 1039              		.loc 1 376 0
 1040 002e 0821     		movs	r1, #8
 1041 0030 08E0     		b	.L64
 1042              	.LVL161:
 1043              	.L65:
 377:Source\mbedtls_open\library/blowfish.c ****                 if( ++nonce_counter[i - 1] != 0 )
 1044              		.loc 1 377 0
 1045 0032 4A1E     		subs	r2, r1, #1
 1046 0034 BA18     		adds	r2, r7, r2
 1047 0036 1378     		ldrb	r3, [r2]
 1048 0038 0133     		adds	r3, r3, #1
 1049 003a DBB2     		uxtb	r3, r3
 1050 003c 1370     		strb	r3, [r2]
 1051 003e 002B     		cmp	r3, #0
 1052 0040 02D1     		bne	.L63
 376:Source\mbedtls_open\library/blowfish.c ****                 if( ++nonce_counter[i - 1] != 0 )
 1053              		.loc 1 376 0 discriminator 2
 1054 0042 0139     		subs	r1, r1, #1
 1055              	.LVL162:
 1056              	.L64:
 376:Source\mbedtls_open\library/blowfish.c ****                 if( ++nonce_counter[i - 1] != 0 )
 1057              		.loc 1 376 0 is_stmt 0 discriminator 1
 1058 0044 0029     		cmp	r1, #0
 1059 0046 F4DC     		bgt	.L65
 1060              	.LVL163:
 1061              	.L63:
 378:Source\mbedtls_open\library/blowfish.c ****                     break;
 379:Source\mbedtls_open\library/blowfish.c ****         }
ARM GAS  C:\Users\Phuong\AppData\Local\Temp\ccLcWjsJ.s 			page 27


 380:Source\mbedtls_open\library/blowfish.c ****         c = *input++;
 1062              		.loc 1 380 0 is_stmt 1
 1063 0048 3278     		ldrb	r2, [r6]
 1064              	.LVL164:
 381:Source\mbedtls_open\library/blowfish.c ****         *output++ = (unsigned char)( c ^ stream_block[n] );
 1065              		.loc 1 381 0
 1066 004a 5346     		mov	r3, r10
 1067 004c 1B5D     		ldrb	r3, [r3, r4]
 1068 004e 5340     		eors	r3, r2
 1069 0050 2B70     		strb	r3, [r5]
 382:Source\mbedtls_open\library/blowfish.c **** 
 383:Source\mbedtls_open\library/blowfish.c ****         n = ( n + 1 ) % MBEDTLS_BLOWFISH_BLOCKSIZE;
 1070              		.loc 1 383 0
 1071 0052 0134     		adds	r4, r4, #1
 1072              	.LVL165:
 1073 0054 0723     		movs	r3, #7
 1074 0056 1C40     		ands	r4, r3
 1075              	.LVL166:
 370:Source\mbedtls_open\library/blowfish.c ****     {
 1076              		.loc 1 370 0
 1077 0058 4146     		mov	r1, r8
 381:Source\mbedtls_open\library/blowfish.c ****         *output++ = (unsigned char)( c ^ stream_block[n] );
 1078              		.loc 1 381 0
 1079 005a 0135     		adds	r5, r5, #1
 1080              	.LVL167:
 380:Source\mbedtls_open\library/blowfish.c ****         *output++ = (unsigned char)( c ^ stream_block[n] );
 1081              		.loc 1 380 0
 1082 005c 0136     		adds	r6, r6, #1
 1083              	.LVL168:
 1084              	.L62:
 370:Source\mbedtls_open\library/blowfish.c ****     {
 1085              		.loc 1 370 0
 1086 005e 4B1E     		subs	r3, r1, #1
 1087 0060 9846     		mov	r8, r3
 1088              	.LVL169:
 1089 0062 0029     		cmp	r1, #0
 1090 0064 DBD1     		bne	.L66
 384:Source\mbedtls_open\library/blowfish.c ****     }
 385:Source\mbedtls_open\library/blowfish.c **** 
 386:Source\mbedtls_open\library/blowfish.c ****     *nc_off = n;
 1091              		.loc 1 386 0
 1092 0066 4B46     		mov	r3, r9
 1093              	.LVL170:
 1094 0068 1C60     		str	r4, [r3]
 387:Source\mbedtls_open\library/blowfish.c **** 
 388:Source\mbedtls_open\library/blowfish.c ****     return( 0 );
 389:Source\mbedtls_open\library/blowfish.c **** }
 1095              		.loc 1 389 0
 1096 006a 0020     		movs	r0, #0
 1097 006c 02B0     		add	sp, sp, #8
 1098              		@ sp needed
 1099              	.LVL171:
 1100              	.LVL172:
 1101              	.LVL173:
 1102              	.LVL174:
 1103              	.LVL175:
 1104              	.LVL176:
ARM GAS  C:\Users\Phuong\AppData\Local\Temp\ccLcWjsJ.s 			page 28


 1105 006e 1CBC     		pop	{r2, r3, r4}
 1106 0070 9046     		mov	r8, r2
 1107 0072 9946     		mov	r9, r3
 1108 0074 A246     		mov	r10, r4
 1109 0076 F0BD     		pop	{r4, r5, r6, r7, pc}
 1110              		.cfi_endproc
 1111              	.LFE9:
 1112              		.size	mbedtls_blowfish_crypt_ctr, .-mbedtls_blowfish_crypt_ctr
 1113              		.section	.rodata
 1114              		.align	2
 1115              		.set	.LANCHOR0,. + 0
 1116              		.set	.LANCHOR1,. + 4096
 1117              		.type	S, %object
 1118              		.size	S, 4096
 1119              	S:
 1120 0000 A60B31D1 		.word	-785314906
 1121 0004 ACB5DF98 		.word	-1730169428
 1122 0008 DB72FD2F 		.word	805139163
 1123 000c B7DF1AD0 		.word	-803545161
 1124 0010 EDAFE1B8 		.word	-1193168915
 1125 0014 967E266A 		.word	1780907670
 1126 0018 45907CBA 		.word	-1166241723
 1127 001c 997F2CF1 		.word	-248741991
 1128 0020 4799A124 		.word	614570311
 1129 0024 F76C91B3 		.word	-1282315017
 1130 0028 E2F20108 		.word	134345442
 1131 002c 16FC8E85 		.word	-2054226922
 1132 0030 D8206963 		.word	1667834072
 1133 0034 694E5771 		.word	1901547113
 1134 0038 A3FE58A4 		.word	-1537671517
 1135 003c 7E3D93F4 		.word	-191677058
 1136 0040 8F74950D 		.word	227898511
 1137 0044 58B68E72 		.word	1921955416
 1138 0048 58CD8B71 		.word	1904987480
 1139 004c EE4A1582 		.word	-2112533778
 1140 0050 1DA4547B 		.word	2069144605
 1141 0054 B5595AC2 		.word	-1034266187
 1142 0058 39D5309C 		.word	-1674521287
 1143 005c 1360F22A 		.word	720527379
 1144 0060 23B0D1C5 		.word	-976113629
 1145 0064 F0856028 		.word	677414384
 1146 0068 187941CA 		.word	-901678824
 1147 006c EF38DBB8 		.word	-1193592593
 1148 0070 B0DC798E 		.word	-1904616272
 1149 0074 0E183A60 		.word	1614419982
 1150 0078 8B0E9E6C 		.word	1822297739
 1151 007c 3E8A1EB0 		.word	-1340175810
 1152 0080 C17715D7 		.word	-686458943
 1153 0084 274B31BD 		.word	-1120842969
 1154 0088 DA2FAF78 		.word	2024746970
 1155 008c 605C6055 		.word	1432378464
 1156 0090 F32555E6 		.word	-430627341
 1157 0094 94AB55AA 		.word	-1437226092
 1158 0098 62984857 		.word	1464375394
 1159 009c 4014E863 		.word	1676153920
 1160 00a0 6A39CA55 		.word	1439316330
 1161 00a4 B610AB2A 		.word	715854006
ARM GAS  C:\Users\Phuong\AppData\Local\Temp\ccLcWjsJ.s 			page 29


 1162 00a8 345CCCB4 		.word	-1261675468
 1163 00ac CEE84111 		.word	289532110
 1164 00b0 AF8654A1 		.word	-1588296017
 1165 00b4 93E9727C 		.word	2087905683
 1166 00b8 1114EEB3 		.word	-1276242927
 1167 00bc 2ABC6F63 		.word	1668267050
 1168 00c0 5DC5A92B 		.word	732546397
 1169 00c4 F6311874 		.word	1947742710
 1170 00c8 163E5CCE 		.word	-832815594
 1171 00cc 1E93879B 		.word	-1685613794
 1172 00d0 33BAD6AF 		.word	-1344882125
 1173 00d4 5CCF246C 		.word	1814351708
 1174 00d8 8153327A 		.word	2050118529
 1175 00dc 77869528 		.word	680887927
 1176 00e0 98488F3B 		.word	999245976
 1177 00e4 AFB94B6B 		.word	1800124847
 1178 00e8 1BE8BFC4 		.word	-994056165
 1179 00ec 93212866 		.word	1713906067
 1180 00f0 CC09D861 		.word	1641548236
 1181 00f4 91A921FB 		.word	-81679983
 1182 00f8 60AC7C48 		.word	1216130144
 1183 00fc 3280EC5D 		.word	1575780402
 1184 0100 5D5D84EF 		.word	-276538019
 1185 0104 B17585E9 		.word	-377129551
 1186 0108 022326DC 		.word	-601480446
 1187 010c 881B65EB 		.word	-345695352
 1188 0110 813E8923 		.word	596196993
 1189 0114 C5AC96D3 		.word	-745100091
 1190 0118 F36F6D0F 		.word	258830323
 1191 011c 3942F483 		.word	-2081144263
 1192 0120 82440B2E 		.word	772490370
 1193 0124 042084A4 		.word	-1534844924
 1194 0128 4AF0C869 		.word	1774776394
 1195 012c 5E9B1F9E 		.word	-1642095778
 1196 0130 4268C621 		.word	566650946
 1197 0134 9A6CE9F6 		.word	-152474470
 1198 0138 619C0C67 		.word	1728879713
 1199 013c F088D3AB 		.word	-1412200208
 1200 0140 D2A0516A 		.word	1783734482
 1201 0144 682F54D8 		.word	-665571480
 1202 0148 28A70F96 		.word	-1777359064
 1203 014c A33351AB 		.word	-1420741725
 1204 0150 6C0BEF6E 		.word	1861159788
 1205 0154 E43B7A13 		.word	326777828
 1206 0158 50F03BBA 		.word	-1170476976
 1207 015c 982AFB7E 		.word	2130389656
 1208 0160 1D65F1A1 		.word	-1578015459
 1209 0164 7601AF39 		.word	967770486
 1210 0168 3E59CA66 		.word	1724537150
 1211 016c 880E4382 		.word	-2109534584
 1212 0170 1986EE8C 		.word	-1930525159
 1213 0174 B49F6F45 		.word	1164943284
 1214 0178 C3A5847D 		.word	2105845187
 1215 017c BE5E8B3B 		.word	998989502
 1216 0180 D8756FE0 		.word	-529566248
 1217 0184 7320C185 		.word	-2050940813
 1218 0188 9F441A40 		.word	1075463327
ARM GAS  C:\Users\Phuong\AppData\Local\Temp\ccLcWjsJ.s 			page 30


 1219 018c A66AC156 		.word	1455516326
 1220 0190 62AAD34E 		.word	1322494562
 1221 0194 06773F36 		.word	910128902
 1222 0198 72DFFE1B 		.word	469688178
 1223 019c 3D029B42 		.word	1117454909
 1224 01a0 24D7D037 		.word	936433444
 1225 01a4 48120AD0 		.word	-804646328
 1226 01a8 D3EA0FDB 		.word	-619713837
 1227 01ac 9BC0F149 		.word	1240580251
 1228 01b0 C9725307 		.word	122909385
 1229 01b4 7B1B9980 		.word	-2137449605
 1230 01b8 D879D425 		.word	634681816
 1231 01bc F7DEE8F6 		.word	-152510729
 1232 01c0 1A50FEE3 		.word	-469872614
 1233 01c4 3B4C79B6 		.word	-1233564613
 1234 01c8 BDE06C97 		.word	-1754472259
 1235 01cc BA06C004 		.word	79693498
 1236 01d0 B64FA9C1 		.word	-1045868618
 1237 01d4 C4609F40 		.word	1084186820
 1238 01d8 C29E5C5E 		.word	1583128258
 1239 01dc 63246A19 		.word	426386531
 1240 01e0 AF6FFB68 		.word	1761308591
 1241 01e4 B5536C3E 		.word	1047286709
 1242 01e8 EBB23913 		.word	322548459
 1243 01ec 6FEC523B 		.word	995290223
 1244 01f0 1F51FC6D 		.word	1845252383
 1245 01f4 2C95309B 		.word	-1691314900
 1246 01f8 444581CC 		.word	-863943356
 1247 01fc 09BD5EAF 		.word	-1352745719
 1248 0200 04D0E3BE 		.word	-1092366332
 1249 0204 FD4A33DE 		.word	-567063811
 1250 0208 07280F66 		.word	1712269319
 1251 020c B34B2E19 		.word	422464435
 1252 0210 57A8CBC0 		.word	-1060394921
 1253 0214 0F74C845 		.word	1170764815
 1254 0218 395F0BD2 		.word	-771006663
 1255 021c DBFBD3B9 		.word	-1177289765
 1256 0220 BDC07955 		.word	1434042557
 1257 0224 0A32601A 		.word	442511882
 1258 0228 C600A1D6 		.word	-694091578
 1259 022c 79722C40 		.word	1076654713
 1260 0230 FE259F67 		.word	1738483198
 1261 0234 CCA31FFB 		.word	-81812532
 1262 0238 F8E9A58E 		.word	-1901729288
 1263 023c F82232DB 		.word	-617471240
 1264 0240 DF16753C 		.word	1014306527
 1265 0244 156B61FD 		.word	-43947243
 1266 0248 C81E502F 		.word	793779912
 1267 024c AB5205AD 		.word	-1392160085
 1268 0250 FAB53D32 		.word	842905082
 1269 0254 608723FD 		.word	-48003232
 1270 0258 487B3153 		.word	1395751752
 1271 025c 82DF003E 		.word	1040244610
 1272 0260 BB575C9E 		.word	-1638115397
 1273 0264 A08C6FCA 		.word	-898659168
 1274 0268 2E56871A 		.word	445077038
 1275 026c DB6917DF 		.word	-552113701
ARM GAS  C:\Users\Phuong\AppData\Local\Temp\ccLcWjsJ.s 			page 31


 1276 0270 F6A842D5 		.word	-717051658
 1277 0274 C3FF7E28 		.word	679411651
 1278 0278 C63267AC 		.word	-1402522938
 1279 027c 73554F8C 		.word	-1940957837
 1280 0280 B0275B69 		.word	1767581616
 1281 0284 C858CABB 		.word	-1144366904
 1282 0288 5DA3FFE1 		.word	-503340195
 1283 028c A011F0B8 		.word	-1192226400
 1284 0290 983DFA10 		.word	284835224
 1285 0294 B88321FD 		.word	-48135240
 1286 0298 6CB5FC4A 		.word	1258075500
 1287 029c 5BD3D12D 		.word	768725851
 1288 02a0 79E4539A 		.word	-1705778055
 1289 02a4 6545F8B6 		.word	-1225243291
 1290 02a8 BC498ED2 		.word	-762426948
 1291 02ac 9097FB4B 		.word	1274779536
 1292 02b0 DAF2DDE1 		.word	-505548070
 1293 02b4 337ECBA4 		.word	-1530167757
 1294 02b8 4113FB62 		.word	1660621633
 1295 02bc E8C6E4CE 		.word	-823867672
 1296 02c0 DACA20EF 		.word	-283063590
 1297 02c4 014C7736 		.word	913787905
 1298 02c8 FE9E7ED0 		.word	-797008130
 1299 02cc B41FF12B 		.word	737222580
 1300 02d0 4DDADB95 		.word	-1780753843
 1301 02d4 989190AE 		.word	-1366257256
 1302 02d8 718EADEA 		.word	-357724559
 1303 02dc A0D5936B 		.word	1804850592
 1304 02e0 D0D18ED0 		.word	-795946544
 1305 02e4 E025C7AF 		.word	-1345903136
 1306 02e8 2F5B3C8E 		.word	-1908647121
 1307 02ec B794758E 		.word	-1904896841
 1308 02f0 FBE2F68F 		.word	-1879645445
 1309 02f4 642B12F2 		.word	-233690268
 1310 02f8 12B88888 		.word	-2004305902
 1311 02fc 1CF00D90 		.word	-1878134756
 1312 0300 A05EAD4F 		.word	1336762016
 1313 0304 1CC38F68 		.word	1754252060
 1314 0308 91F1CFD1 		.word	-774901359
 1315 030c ADC1A8B3 		.word	-1280786003
 1316 0310 18222F2F 		.word	791618072
 1317 0314 77170EBE 		.word	-1106372745
 1318 0318 FE2D75EA 		.word	-361419266
 1319 031c A11F028B 		.word	-1962795103
 1320 0320 0FCCA0E5 		.word	-442446833
 1321 0324 E8746FB5 		.word	-1250986776
 1322 0328 D6F3AC18 		.word	413987798
 1323 032c 99E289CE 		.word	-829824359
 1324 0330 E04FA8B4 		.word	-1264037920
 1325 0334 B7E013FD 		.word	-49028937
 1326 0338 813BC47C 		.word	2093235073
 1327 033c D9A8ADD2 		.word	-760370983
 1328 0340 66A25F16 		.word	375366246
 1329 0344 05779580 		.word	-2137688315
 1330 0348 1473CC93 		.word	-1815317740
 1331 034c 77141A21 		.word	555357303
 1332 0350 6520ADE6 		.word	-424861595
ARM GAS  C:\Users\Phuong\AppData\Local\Temp\ccLcWjsJ.s 			page 32


 1333 0354 86FAB577 		.word	2008414854
 1334 0358 F54254C7 		.word	-950779147
 1335 035c CF359DFB 		.word	-73583153
 1336 0360 0CAFCDEB 		.word	-338841844
 1337 0364 A0893E7B 		.word	2067696032
 1338 0368 D31B41D6 		.word	-700376109
 1339 036c 497E1EAE 		.word	-1373733303
 1340 0370 2D0E2500 		.word	2428461
 1341 0374 5EB37120 		.word	544322398
 1342 0378 BB006822 		.word	577241275
 1343 037c AFE0B857 		.word	1471733935
 1344 0380 9B366424 		.word	610547355
 1345 0384 1EB909F0 		.word	-267798242
 1346 0388 1D916355 		.word	1432588573
 1347 038c AAA6DF59 		.word	1507829418
 1348 0390 8943C178 		.word	2025931657
 1349 0394 7F535AD9 		.word	-648391809
 1350 0398 A25B7D20 		.word	545086370
 1351 039c C5B9E502 		.word	48609733
 1352 03a0 76032683 		.word	-2094660746
 1353 03a4 A9CF9562 		.word	1653985193
 1354 03a8 6819C811 		.word	298326376
 1355 03ac 414A734E 		.word	1316178497
 1356 03b0 CA2D47B3 		.word	-1287180854
 1357 03b4 4AA9147B 		.word	2064951626
 1358 03b8 5200511B 		.word	458293330
 1359 03bc 1529539A 		.word	-1705826027
 1360 03c0 3F570FD6 		.word	-703637697
 1361 03c4 E4C69BBC 		.word	-1130641692
 1362 03c8 76A4602B 		.word	727753846
 1363 03cc 0074E681 		.word	-2115603456
 1364 03d0 B56FBA08 		.word	146436021
 1365 03d4 1FE91B57 		.word	1461446943
 1366 03d8 6BEC96F2 		.word	-224990101
 1367 03dc 15D90D2A 		.word	705550613
 1368 03e0 216563B6 		.word	-1235000031
 1369 03e4 B6F9B9E7 		.word	-407242314
 1370 03e8 2E0534FF 		.word	-13368018
 1371 03ec 645685C5 		.word	-981117340
 1372 03f0 5D2DB053 		.word	1404054877
 1373 03f4 A18F9FA9 		.word	-1449160799
 1374 03f8 9947BA08 		.word	146425753
 1375 03fc 6A07856E 		.word	1854211946
 1376 0400 E9707A4B 		.word	1266315497
 1377 0404 4429B3B5 		.word	-1246549692
 1378 0408 2E0975DB 		.word	-613086930
 1379 040c 232619C4 		.word	-1004984797
 1380 0410 B0A66EAD 		.word	-1385257296
 1381 0414 7DDFA749 		.word	1235738493
 1382 0418 B860EE9C 		.word	-1662099272
 1383 041c 66B2ED8F 		.word	-1880247706
 1384 0420 718CAAEC 		.word	-324367247
 1385 0424 FF179A69 		.word	1771706367
 1386 0428 6C526456 		.word	1449415276
 1387 042c E19EB1C2 		.word	-1028546847
 1388 0430 A5023619 		.word	422970021
 1389 0434 294C0975 		.word	1963543593
ARM GAS  C:\Users\Phuong\AppData\Local\Temp\ccLcWjsJ.s 			page 33


 1390 0438 401359A0 		.word	-1604775104
 1391 043c 3E3A18E4 		.word	-468174274
 1392 0440 9A98543F 		.word	1062508698
 1393 0444 659D425B 		.word	1531092325
 1394 0448 D6E48F6B 		.word	1804592342
 1395 044c D63FF799 		.word	-1711849514
 1396 0450 079CD2A1 		.word	-1580033017
 1397 0454 F530E8EF 		.word	-269995787
 1398 0458 E6382D4D 		.word	1294809318
 1399 045c C15D25F0 		.word	-265986623
 1400 0460 8620DD4C 		.word	1289560198
 1401 0464 26EB7084 		.word	-2072974554
 1402 0468 C6E98263 		.word	1669523910
 1403 046c 5ECC1E02 		.word	35572830
 1404 0470 3F6B6809 		.word	157838143
 1405 0474 C9EFBA3E 		.word	1052438473
 1406 0478 1418973C 		.word	1016535060
 1407 047c A1706A6B 		.word	1802137761
 1408 0480 84357F68 		.word	1753167236
 1409 0484 86E2A052 		.word	1386275462
 1410 0488 05539CB7 		.word	-1214491899
 1411 048c 370750AA 		.word	-1437595849
 1412 0490 1C84073E 		.word	1040679964
 1413 0494 5CAEDE7F 		.word	2145300060
 1414 0498 EC447D8E 		.word	-1904392980
 1415 049c B8F21657 		.word	1461121720
 1416 04a0 37DA3AB0 		.word	-1338320329
 1417 04a4 0D0C50F0 		.word	-263189491
 1418 04a8 041F1CF0 		.word	-266592508
 1419 04ac FFB30002 		.word	33600511
 1420 04b0 1AF50CAE 		.word	-1374882534
 1421 04b4 B274B53C 		.word	1018524850
 1422 04b8 587A8325 		.word	629373528
 1423 04bc BD2109DC 		.word	-603381315
 1424 04c0 F91391D1 		.word	-779021319
 1425 04c4 F62FA97C 		.word	2091462646
 1426 04c8 73473294 		.word	-1808644237
 1427 04cc 0147F522 		.word	586499841
 1428 04d0 81E5E53A 		.word	988145025
 1429 04d4 DCDAC237 		.word	935516892
 1430 04d8 3476B5C8 		.word	-927631820
 1431 04dc A7DDF39A 		.word	-1695294041
 1432 04e0 466144A9 		.word	-1455136442
 1433 04e4 0E03D00F 		.word	265290510
 1434 04e8 3EC7C8EC 		.word	-322386114
 1435 04ec 411E75A4 		.word	-1535828415
 1436 04f0 99CD38E2 		.word	-499593831
 1437 04f4 2F0EEA3B 		.word	1005194799
 1438 04f8 A1BB8032 		.word	847297441
 1439 04fc 31B33E18 		.word	406762289
 1440 0500 388B544E 		.word	1314163512
 1441 0504 08B96D4F 		.word	1332590856
 1442 0508 030D426F 		.word	1866599683
 1443 050c BF040AF6 		.word	-167115585
 1444 0510 9012B82C 		.word	750260880
 1445 0514 797C9724 		.word	613907577
 1446 0518 72B07956 		.word	1450815602
ARM GAS  C:\Users\Phuong\AppData\Local\Temp\ccLcWjsJ.s 			page 34


 1447 051c AF89AFBC 		.word	-1129346641
 1448 0520 1F779ADE 		.word	-560302305
 1449 0524 100893D9 		.word	-644675568
 1450 0528 12AE8BB3 		.word	-1282691566
 1451 052c 2E3FCFDC 		.word	-590397650
 1452 0530 1F721255 		.word	1427272223
 1453 0534 24716B2E 		.word	778793252
 1454 0538 E6DD1A50 		.word	1343938022
 1455 053c 87CD849F 		.word	-1618686585
 1456 0540 1847587A 		.word	2052605720
 1457 0544 17DA0874 		.word	1946737175
 1458 0548 BC9A9FBC 		.word	-1130390852
 1459 054c 8C7D4BE9 		.word	-380928628
 1460 0550 3AEC7AEC 		.word	-327488454
 1461 0554 FA1D85DB 		.word	-612033030
 1462 0558 66430963 		.word	1661551462
 1463 055c D2C364C4 		.word	-1000029230
 1464 0560 47181CEF 		.word	-283371449
 1465 0564 08D91532 		.word	840292616
 1466 0568 373B43DD 		.word	-582796489
 1467 056c 16BAC224 		.word	616741398
 1468 0570 434DA112 		.word	312560963
 1469 0574 51C4652A 		.word	711312465
 1470 0578 02009450 		.word	1351876610
 1471 057c DDE43A13 		.word	322626781
 1472 0580 9EF8DF71 		.word	1910503582
 1473 0584 554E3110 		.word	271666773
 1474 0588 D677AC81 		.word	-2119403562
 1475 058c 9B19115F 		.word	1594956187
 1476 0590 F1563504 		.word	70604529
 1477 0594 6BC7A3D7 		.word	-677132437
 1478 0598 3B18113C 		.word	1007753275
 1479 059c 09A52459 		.word	1495573769
 1480 05a0 EDE68FF2 		.word	-225450259
 1481 05a4 FAFBF197 		.word	-1745748998
 1482 05a8 2CBFBA9E 		.word	-1631928532
 1483 05ac 6E3C151E 		.word	504708206
 1484 05b0 7045E386 		.word	-2031925904
 1485 05b4 B16FE9EA 		.word	-353800271
 1486 05b8 0A5E0E86 		.word	-2045878774
 1487 05bc B32A3E5A 		.word	1514023603
 1488 05c0 1CE71F77 		.word	1998579484
 1489 05c4 FA063D4E 		.word	1312622330
 1490 05c8 B9DC6529 		.word	694541497
 1491 05cc 0F1DE799 		.word	-1712906993
 1492 05d0 D6893E80 		.word	-2143385130
 1493 05d4 25C86652 		.word	1382467621
 1494 05d8 78C94C2E 		.word	776784248
 1495 05dc 6AB3109C 		.word	-1676627094
 1496 05e0 BA0E15C6 		.word	-971698502
 1497 05e4 78EAE294 		.word	-1797068168
 1498 05e8 533CFCA5 		.word	-1510196141
 1499 05ec F42D0A1E 		.word	503983604
 1500 05f0 A74EF7F2 		.word	-218673497
 1501 05f4 3D2B1D36 		.word	907881277
 1502 05f8 0F263919 		.word	423175695
 1503 05fc 6079C219 		.word	432175456
ARM GAS  C:\Users\Phuong\AppData\Local\Temp\ccLcWjsJ.s 			page 35


 1504 0600 08A72352 		.word	1378068232
 1505 0604 B61213F7 		.word	-149744970
 1506 0608 6EFEADEB 		.word	-340918674
 1507 060c 661FC3EA 		.word	-356311194
 1508 0610 9545BCE3 		.word	-474200683
 1509 0614 83C87BA6 		.word	-1501837181
 1510 0618 D1377FB1 		.word	-1317062703
 1511 061c 28FF8C01 		.word	26017576
 1512 0620 EFDD32C3 		.word	-1020076561
 1513 0624 A55A6CBE 		.word	-1100195163
 1514 0628 85215865 		.word	1700274565
 1515 062c 0298AB68 		.word	1756076034
 1516 0630 0FA5CEEE 		.word	-288447217
 1517 0634 3B952FDB 		.word	-617638597
 1518 0638 AD7DEF2A 		.word	720338349
 1519 063c 842F6E5B 		.word	1533947780
 1520 0640 28B62115 		.word	354530856
 1521 0644 70610729 		.word	688349552
 1522 0648 7547DDEC 		.word	-321042571
 1523 064c 10159F61 		.word	1637815568
 1524 0650 30A8CC13 		.word	332179504
 1525 0654 96BD61EB 		.word	-345916010
 1526 0658 1EFE3403 		.word	53804574
 1527 065c CF6303AA 		.word	-1442618417
 1528 0660 905C73B5 		.word	-1250730864
 1529 0664 39A2704C 		.word	1282449977
 1530 0668 0B9E9ED5 		.word	-711025141
 1531 066c 14DEAACB 		.word	-877994476
 1532 0670 BC86CCEE 		.word	-288586052
 1533 0674 A72C6260 		.word	1617046695
 1534 0678 AB5CAB9C 		.word	-1666491221
 1535 067c 6E84F3B2 		.word	-1292663698
 1536 0680 AF1E8B64 		.word	1686838959
 1537 0684 CAF0BD19 		.word	431878346
 1538 0688 B96923A0 		.word	-1608291911
 1539 068c 50BB5A65 		.word	1700445008
 1540 0690 325A6840 		.word	1080580658
 1541 0694 B3B42A3C 		.word	1009431731
 1542 0698 D5E99E31 		.word	832498133
 1543 069c F7B821C0 		.word	-1071531785
 1544 06a0 190B549B 		.word	-1688990951
 1545 06a4 99A05F87 		.word	-2023776103
 1546 06a8 7E99F795 		.word	-1778935426
 1547 06ac A87D3D62 		.word	1648197032
 1548 06b0 9A8837F8 		.word	-130578278
 1549 06b4 772DE397 		.word	-1746719369
 1550 06b8 5F93ED11 		.word	300782431
 1551 06bc 81126816 		.word	375919233
 1552 06c0 2988350E 		.word	238389289
 1553 06c4 D61FE6C7 		.word	-941219882
 1554 06c8 A1DFDE96 		.word	-1763778655
 1555 06cc 99BA5878 		.word	2019080857
 1556 06d0 A584F557 		.word	1475708069
 1557 06d4 6372221B 		.word	455242339
 1558 06d8 FFC3839B 		.word	-1685863425
 1559 06dc 9646C21A 		.word	448939670
 1560 06e0 EB0AB3CD 		.word	-843904277
ARM GAS  C:\Users\Phuong\AppData\Local\Temp\ccLcWjsJ.s 			page 36


 1561 06e4 54302E53 		.word	1395535956
 1562 06e8 E448D98F 		.word	-1881585436
 1563 06ec 2831BC6D 		.word	1841049896
 1564 06f0 EFF2EB58 		.word	1491858159
 1565 06f4 EAFFC634 		.word	885456874
 1566 06f8 61ED28FE 		.word	-30872223
 1567 06fc 733C7CEE 		.word	-293847949
 1568 0700 D9144A5D 		.word	1565136089
 1569 0704 E3B764E8 		.word	-396052509
 1570 0708 145D1042 		.word	1108368660
 1571 070c E0133E20 		.word	540939232
 1572 0710 B6E2EE45 		.word	1173283510
 1573 0714 EAABAAA3 		.word	-1549095958
 1574 0718 154F6CDB 		.word	-613658859
 1575 071c D04FCBFA 		.word	-87339056
 1576 0720 42F442C7 		.word	-951913406
 1577 0724 B5BB6AEF 		.word	-278217803
 1578 0728 1D3B4F65 		.word	1699691293
 1579 072c 0521CD41 		.word	1103962373
 1580 0730 9E791ED8 		.word	-669091426
 1581 0734 C74D8586 		.word	-2038084153
 1582 0738 6A474BE4 		.word	-464828566
 1583 073c 5062813D 		.word	1031889488
 1584 0740 F2A162CF 		.word	-815619598
 1585 0744 46268D5B 		.word	1535977030
 1586 0748 A08388FC 		.word	-58162272
 1587 074c A3B6C7C1 		.word	-1043876189
 1588 0750 C324157F 		.word	2132092099
 1589 0754 9274CB69 		.word	1774941330
 1590 0758 0B8A8447 		.word	1199868427
 1591 075c 85B29256 		.word	1452454533
 1592 0760 00BF5B09 		.word	157007616
 1593 0764 9D4819AD 		.word	-1390851939
 1594 0768 74B16214 		.word	342012276
 1595 076c 000E8223 		.word	595725824
 1596 0770 2A8D4258 		.word	1480756522
 1597 0774 EAF5550C 		.word	206960106
 1598 0778 3EF4AD1D 		.word	497939518
 1599 077c 61703F23 		.word	591360097
 1600 0780 92F07233 		.word	863170706
 1601 0784 417E938D 		.word	-1919713727
 1602 0788 F1EC5FD6 		.word	-698356495
 1603 078c DB3B226C 		.word	1814182875
 1604 0790 5937DE7C 		.word	2094937945
 1605 0794 6074EECB 		.word	-873565088
 1606 0798 A7F28540 		.word	1082520231
 1607 079c 6E3277CE 		.word	-831049106
 1608 07a0 848007A6 		.word	-1509457788
 1609 07a4 9E50F819 		.word	435703966
 1610 07a8 55D8EFE8 		.word	-386934699
 1611 07ac 3597D961 		.word	1641649973
 1612 07b0 AAA769A9 		.word	-1452693590
 1613 07b4 C2060CC5 		.word	-989067582
 1614 07b8 FCAB045A 		.word	1510255612
 1615 07bc DCCA0B80 		.word	-2146710820
 1616 07c0 2E7A449E 		.word	-1639679442
 1617 07c4 843445C3 		.word	-1018874748
ARM GAS  C:\Users\Phuong\AppData\Local\Temp\ccLcWjsJ.s 			page 37


 1618 07c8 0567D5FD 		.word	-36346107
 1619 07cc C99E1E0E 		.word	236887753
 1620 07d0 D3DB73DB 		.word	-613164077
 1621 07d4 CD885510 		.word	274041037
 1622 07d8 79DA5F67 		.word	1734335097
 1623 07dc 404367E3 		.word	-479771840
 1624 07e0 6534C4C5 		.word	-976997275
 1625 07e4 D8383E71 		.word	1899903192
 1626 07e8 9EF8283D 		.word	1026095262
 1627 07ec 20FF6DF1 		.word	-244449504
 1628 07f0 E7213E15 		.word	356393447
 1629 07f4 4A3DB08F 		.word	-1884275382
 1630 07f8 2B9FE3E6 		.word	-421290197
 1631 07fc F7AD83DB 		.word	-612127241
 1632 0800 685A3DE9 		.word	-381855128
 1633 0804 F7408194 		.word	-1803468553
 1634 0808 1C264CF6 		.word	-162781668
 1635 080c 34296994 		.word	-1805047500
 1636 0810 F7201541 		.word	1091903735
 1637 0814 F7D40276 		.word	1979897079
 1638 0818 2E6BF4BC 		.word	-1124832466
 1639 081c 6800A2D4 		.word	-727580568
 1640 0820 712408D4 		.word	-737663887
 1641 0824 6AF42033 		.word	857797738
 1642 0828 B7D4B743 		.word	1136121015
 1643 082c AF610050 		.word	1342202287
 1644 0830 2EF6391E 		.word	507115054
 1645 0834 46452497 		.word	-1759230650
 1646 0838 744F2114 		.word	337727348
 1647 083c 40888BBF 		.word	-1081374656
 1648 0840 1DFC954D 		.word	1301675037
 1649 0844 AF91B596 		.word	-1766485585
 1650 0848 D3DDF470 		.word	1895095763
 1651 084c 452FA066 		.word	1721773893
 1652 0850 EC09BCBF 		.word	-1078195732
 1653 0854 8597BD03 		.word	62756741
 1654 0858 D06DAC7F 		.word	2142006736
 1655 085c 0485CB31 		.word	835421444
 1656 0860 B327EB96 		.word	-1762973773
 1657 0864 4139FD55 		.word	1442658625
 1658 0868 E64725DA 		.word	-635090970
 1659 086c 9A0ACAAB 		.word	-1412822374
 1660 0870 25785028 		.word	676362277
 1661 0874 F4290453 		.word	1392781812
 1662 0878 DA862C0A 		.word	170690266
 1663 087c FB6DB6E9 		.word	-373920261
 1664 0880 6214DC68 		.word	1759253602
 1665 0884 006948D7 		.word	-683120384
 1666 0888 A4C00E68 		.word	1745797284
 1667 088c EE8DA127 		.word	664899054
 1668 0890 A2FE3F4F 		.word	1329594018
 1669 0894 8CAD87E8 		.word	-393761396
 1670 0898 06E08CB5 		.word	-1249058810
 1671 089c B6D6F47A 		.word	2062866102
 1672 08a0 7C1ECEAA 		.word	-1429332356
 1673 08a4 EC5F37D3 		.word	-751345684
 1674 08a8 99A378CE 		.word	-830954599
ARM GAS  C:\Users\Phuong\AppData\Local\Temp\ccLcWjsJ.s 			page 38


 1675 08ac 422A6B40 		.word	1080764994
 1676 08b0 359EFE20 		.word	553557557
 1677 08b4 B985F3D9 		.word	-638351943
 1678 08b8 ABD739EE 		.word	-298199125
 1679 08bc 8B4E123B 		.word	991055499
 1680 08c0 F7FAC91D 		.word	499776247
 1681 08c4 56186D4B 		.word	1265440854
 1682 08c8 3166A326 		.word	648242737
 1683 08cc B297E3EA 		.word	-354183246
 1684 08d0 74FA6E3A 		.word	980351604
 1685 08d4 32435BDD 		.word	-581221582
 1686 08d8 F7E74168 		.word	1749149687
 1687 08dc FB2078CA 		.word	-898096901
 1688 08e0 4EF50AFB 		.word	-83167922
 1689 08e4 97B3FED8 		.word	-654396521
 1690 08e8 AC564045 		.word	1161844396
 1691 08ec 279548BA 		.word	-1169648345
 1692 08f0 3A3A5355 		.word	1431517754
 1693 08f4 878D8320 		.word	545492359
 1694 08f8 B7A96BFE 		.word	-26498633
 1695 08fc 4B9596D0 		.word	-795437749
 1696 0900 BC67A855 		.word	1437099964
 1697 0904 589A15A1 		.word	-1592419752
 1698 0908 6329A9CC 		.word	-861329053
 1699 090c 33DBE199 		.word	-1713251533
 1700 0910 564A2AA6 		.word	-1507177898
 1701 0914 F925313F 		.word	1060185593
 1702 0918 1C7EF45E 		.word	1593081372
 1703 091c 7C312990 		.word	-1876348548
 1704 0920 02E8F8FD 		.word	-34019326
 1705 0924 702F2704 		.word	69676912
 1706 0928 5C15BB80 		.word	-2135222948
 1707 092c E32C2805 		.word	86519011
 1708 0930 4815C195 		.word	-1782508216
 1709 0934 226DC6E4 		.word	-456757982
 1710 0938 3F13C148 		.word	1220612927
 1711 093c DC860FC7 		.word	-955283748
 1712 0940 EEC9F907 		.word	133810670
 1713 0944 0F1F0441 		.word	1090789135
 1714 0948 A4794740 		.word	1078426020
 1715 094c 176E885D 		.word	1569222167
 1716 0950 EB515F32 		.word	845107691
 1717 0954 D1C09BD5 		.word	-711212847
 1718 0958 8FC1BCF2 		.word	-222510705
 1719 095c 64351141 		.word	1091646820
 1720 0960 34787B25 		.word	628848692
 1721 0964 609C2A60 		.word	1613405280
 1722 0968 A3E8F8DF 		.word	-537335645
 1723 096c 1B6C631F 		.word	526609435
 1724 0970 C2B4120E 		.word	236106946
 1725 0974 9E32E102 		.word	48312990
 1726 0978 D14F66AF 		.word	-1352249391
 1727 097c 1581D1CA 		.word	-892239595
 1728 0980 E095236B 		.word	1797494240
 1729 0984 E1923E33 		.word	859738849
 1730 0988 620B243B 		.word	992217954
 1731 098c 22B9BEEE 		.word	-289490654
ARM GAS  C:\Users\Phuong\AppData\Local\Temp\ccLcWjsJ.s 			page 39


 1732 0990 0EA2B285 		.word	-2051890674
 1733 0994 990DBAE6 		.word	-424014439
 1734 0998 8C0C72DE 		.word	-562951028
 1735 099c 28F7A22D 		.word	765654824
 1736 09a0 457812D0 		.word	-804095931
 1737 09a4 FD94B795 		.word	-1783130883
 1738 09a8 62087D64 		.word	1685915746
 1739 09ac F0F5CCE7 		.word	-405998096
 1740 09b0 6FA34954 		.word	1414112111
 1741 09b4 FA487D87 		.word	-2021832454
 1742 09b8 27FD9DC3 		.word	-1013056217
 1743 09bc 1E8D3EF3 		.word	-214004450
 1744 09c0 4163470A 		.word	172450625
 1745 09c4 74FF2E99 		.word	-1724973196
 1746 09c8 AB6E6F3A 		.word	980381355
 1747 09cc 37FDF8F4 		.word	-185008841
 1748 09d0 60DC12A8 		.word	-1475158944
 1749 09d4 F8DDEBA1 		.word	-1578377736
 1750 09d8 4CE11B99 		.word	-1726226100
 1751 09dc 0D6B6EDB 		.word	-613520627
 1752 09e0 10557BC6 		.word	-964995824
 1753 09e4 372C676D 		.word	1835478071
 1754 09e8 3BD46527 		.word	660984891
 1755 09ec 04E8D0DC 		.word	-590288892
 1756 09f0 C70D29F1 		.word	-248967737
 1757 09f4 A3FF00CC 		.word	-872349789
 1758 09f8 920F39B5 		.word	-1254551662
 1759 09fc 0BED0F69 		.word	1762651403
 1760 0a00 FB9F7B66 		.word	1719377915
 1761 0a04 9C7DDBCE 		.word	-824476260
 1762 0a08 0BCF91A0 		.word	-1601057013
 1763 0a0c A35E15D9 		.word	-652910941
 1764 0a10 882F13BB 		.word	-1156370552
 1765 0a14 24AD5B51 		.word	1364962596
 1766 0a18 BF79947B 		.word	2073328063
 1767 0a1c EBD63B76 		.word	1983633131
 1768 0a20 B32E3937 		.word	926494387
 1769 0a24 795911CC 		.word	-871278215
 1770 0a28 97E22680 		.word	-2144935273
 1771 0a2c 2D312EF4 		.word	-198299347
 1772 0a30 A7AD4268 		.word	1749200295
 1773 0a34 3B2B6AC6 		.word	-966120645
 1774 0a38 CC4C7512 		.word	309677260
 1775 0a3c 1CF12E78 		.word	2016342300
 1776 0a40 3742126A 		.word	1779581495
 1777 0a44 E75192B7 		.word	-1215147545
 1778 0a48 E6BBA106 		.word	111262694
 1779 0a4c 5063FB4B 		.word	1274766160
 1780 0a50 18106B1A 		.word	443224088
 1781 0a54 FAEDCA11 		.word	298511866
 1782 0a58 D8BD253D 		.word	1025883608
 1783 0a5c C9C3E1E2 		.word	-488520759
 1784 0a60 59164244 		.word	1145181785
 1785 0a64 8613120A 		.word	168956806
 1786 0a68 6EEC0CD9 		.word	-653464466
 1787 0a6c 2AEAABD5 		.word	-710153686
 1788 0a70 4E67AF64 		.word	1689216846
ARM GAS  C:\Users\Phuong\AppData\Local\Temp\ccLcWjsJ.s 			page 40


 1789 0a74 5FA886DA 		.word	-628709281
 1790 0a78 88E9BFBE 		.word	-1094719096
 1791 0a7c FEC3E464 		.word	1692713982
 1792 0a80 5780BC9D 		.word	-1648590761
 1793 0a84 86C0F7F0 		.word	-252198778
 1794 0a88 F87B7860 		.word	1618508792
 1795 0a8c 4D600360 		.word	1610833997
 1796 0a90 4683FDD1 		.word	-771914938
 1797 0a94 B01F38F6 		.word	-164094032
 1798 0a98 04AE4577 		.word	2001055236
 1799 0a9c CCFC36D7 		.word	-684262196
 1800 0aa0 336B4283 		.word	-2092799181
 1801 0aa4 71AB1EF0 		.word	-266425487
 1802 0aa8 874180B0 		.word	-1333771897
 1803 0aac 5F5E003C 		.word	1006657119
 1804 0ab0 BE57A077 		.word	2006996926
 1805 0ab4 24AEE8BD 		.word	-1108824540
 1806 0ab8 99424655 		.word	1430667929
 1807 0abc 612E58BF 		.word	-1084739999
 1808 0ac0 8FF4584E 		.word	1314452623
 1809 0ac4 A2FDDDF2 		.word	-220332638
 1810 0ac8 38EF74F4 		.word	-193663176
 1811 0acc C2BD8987 		.word	-2021016126
 1812 0ad0 C3F96653 		.word	1399257539
 1813 0ad4 748EB3C8 		.word	-927756684
 1814 0ad8 55F275B4 		.word	-1267338667
 1815 0adc B9D9FC46 		.word	1190975929
 1816 0ae0 6126EB7A 		.word	2062231137
 1817 0ae4 84DF1D8B 		.word	-1960976508
 1818 0ae8 790E6A84 		.word	-2073424263
 1819 0aec E2955F91 		.word	-1856006686
 1820 0af0 8E596E46 		.word	1181637006
 1821 0af4 7057B420 		.word	548689776
 1822 0af8 9155D58C 		.word	-1932175983
 1823 0afc 4CDE02C9 		.word	-922558900
 1824 0b00 E1AC0BB9 		.word	-1190417183
 1825 0b04 D00582BB 		.word	-1149106736
 1826 0b08 4862A811 		.word	296247880
 1827 0b0c 9EA97475 		.word	1970579870
 1828 0b10 B6197FB7 		.word	-1216407114
 1829 0b14 09DCA9E0 		.word	-525738999
 1830 0b18 A1092D66 		.word	1714227617
 1831 0b1c 334632C4 		.word	-1003338189
 1832 0b20 021F5AE8 		.word	-396747006
 1833 0b24 8CBEF009 		.word	166772364
 1834 0b28 25A0994A 		.word	1251581989
 1835 0b2c 10FE6E1D 		.word	493813264
 1836 0b30 1D3DB91A 		.word	448347421
 1837 0b34 DFA4A50B 		.word	195405023
 1838 0b38 0FF286A1 		.word	-1584991729
 1839 0b3c 69F16828 		.word	677966185
 1840 0b40 83DAB7DC 		.word	-591930749
 1841 0b44 FE063957 		.word	1463355134
 1842 0b48 9BCEE2A1 		.word	-1578971493
 1843 0b4c 527FCD4F 		.word	1338867538
 1844 0b50 015E1150 		.word	1343315457
 1845 0b54 FA8306A7 		.word	-1492745222
ARM GAS  C:\Users\Phuong\AppData\Local\Temp\ccLcWjsJ.s 			page 41


 1846 0b58 C4B502A0 		.word	-1610435132
 1847 0b5c 27D0E60D 		.word	233230375
 1848 0b60 278CF89A 		.word	-1694987225
 1849 0b64 41863F77 		.word	2000651841
 1850 0b68 064C60C3 		.word	-1017099258
 1851 0b6c B506A861 		.word	1638401717
 1852 0b70 287A17F0 		.word	-266896856
 1853 0b74 E086F5C0 		.word	-1057650976
 1854 0b78 AA586000 		.word	6314154
 1855 0b7c 627DDC30 		.word	819756386
 1856 0b80 D79EE611 		.word	300326615
 1857 0b84 63EA3823 		.word	590932579
 1858 0b88 94DDC253 		.word	1405279636
 1859 0b8c 3416C2C2 		.word	-1027467724
 1860 0b90 56EECBBB 		.word	-1144263082
 1861 0b94 DEB6BC90 		.word	-1866680610
 1862 0b98 A17DFCEB 		.word	-335774303
 1863 0b9c 761D59CE 		.word	-833020554
 1864 0ba0 09E4056F 		.word	1862657033
 1865 0ba4 88017C4B 		.word	1266418056
 1866 0ba8 3D0A7239 		.word	963775037
 1867 0bac 247C927C 		.word	2089974820
 1868 0bb0 5F72E386 		.word	-2031914401
 1869 0bb4 B99D4D72 		.word	1917689273
 1870 0bb8 B45BC11A 		.word	448879540
 1871 0bbc FCB89ED3 		.word	-744572676
 1872 0bc0 785554ED 		.word	-313240200
 1873 0bc4 B5A5FC08 		.word	150775221
 1874 0bc8 D37C3DD8 		.word	-667058989
 1875 0bcc C40FAD4D 		.word	1303187396
 1876 0bd0 5EEF501E 		.word	508620638
 1877 0bd4 F8E661B1 		.word	-1318983944
 1878 0bd8 D91485A2 		.word	-1568336679
 1879 0bdc 3C13516C 		.word	1817252668
 1880 0be0 E7C7D56F 		.word	1876281319
 1881 0be4 C44EE156 		.word	1457606340
 1882 0be8 CEBF2A36 		.word	908771278
 1883 0bec 37C8C6DD 		.word	-574175177
 1884 0bf0 34329AD7 		.word	-677760460
 1885 0bf4 12826392 		.word	-1838972398
 1886 0bf8 8EFA0E67 		.word	1729034894
 1887 0bfc E0006040 		.word	1080033504
 1888 0c00 37CE393A 		.word	976866871
 1889 0c04 CFF5FAD3 		.word	-738527793
 1890 0c08 3777C2AB 		.word	-1413318857
 1891 0c0c 1B2DC55A 		.word	1522871579
 1892 0c10 9E67B05C 		.word	1555064734
 1893 0c14 4237A34F 		.word	1336096578
 1894 0c18 402782D3 		.word	-746444992
 1895 0c1c BE9BBC99 		.word	-1715692610
 1896 0c20 9D8E11D5 		.word	-720269667
 1897 0c24 15730FBF 		.word	-1089506539
 1898 0c28 7E1C2DD6 		.word	-701686658
 1899 0c2c 7BC400C7 		.word	-956251013
 1900 0c30 6B1B8CB7 		.word	-1215554709
 1901 0c34 4590A121 		.word	564236357
 1902 0c38 BEB16EB2 		.word	-1301368386
ARM GAS  C:\Users\Phuong\AppData\Local\Temp\ccLcWjsJ.s 			page 42


 1903 0c3c B46E366A 		.word	1781952180
 1904 0c40 2FAB4857 		.word	1464380207
 1905 0c44 796E94BC 		.word	-1131123079
 1906 0c48 D276A3C6 		.word	-962365742
 1907 0c4c C8C24965 		.word	1699332808
 1908 0c50 EEF80F53 		.word	1393555694
 1909 0c54 7DDE8D46 		.word	1183702653
 1910 0c58 1D0A73D5 		.word	-713881059
 1911 0c5c C64DD04C 		.word	1288719814
 1912 0c60 DBBB3929 		.word	691649499
 1913 0c64 5046BAA9 		.word	-1447410096
 1914 0c68 E82695AC 		.word	-1399511320
 1915 0c6c 04E35EBE 		.word	-1101077756
 1916 0c70 F0D5FAA1 		.word	-1577396752
 1917 0c74 9A512D6A 		.word	1781354906
 1918 0c78 E28CEF63 		.word	1676643554
 1919 0c7c 22EE869A 		.word	-1702433246
 1920 0c80 B8C289C0 		.word	-1064713544
 1921 0c84 F62E2443 		.word	1126444790
 1922 0c88 AA031EA5 		.word	-1524759638
 1923 0c8c A4D0F29C 		.word	-1661808476
 1924 0c90 BA61C083 		.word	-2084544070
 1925 0c94 4D6AE99B 		.word	-1679201715
 1926 0c98 5015E58F 		.word	-1880812208
 1927 0c9c D65B64BA 		.word	-1167828010
 1928 0ca0 F9A22628 		.word	673620729
 1929 0ca4 E13A3AA7 		.word	-1489356063
 1930 0ca8 8695A94B 		.word	1269405062
 1931 0cac E96255EF 		.word	-279616791
 1932 0cb0 D3EF2FC7 		.word	-953159725
 1933 0cb4 DAF752F7 		.word	-145557542
 1934 0cb8 696F043F 		.word	1057255273
 1935 0cbc 590AFA77 		.word	2012875353
 1936 0cc0 15A9E480 		.word	-2132498155
 1937 0cc4 0186B087 		.word	-2018474495
 1938 0cc8 ADE6099B 		.word	-1693849939
 1939 0ccc 93E53E3B 		.word	993977747
 1940 0cd0 5AFD90E9 		.word	-376373926
 1941 0cd4 97D7349E 		.word	-1640704105
 1942 0cd8 D9B7F02C 		.word	753973209
 1943 0cdc 518B2B02 		.word	36408145
 1944 0ce0 3AACD596 		.word	-1764381638
 1945 0ce4 7DA67D01 		.word	25011837
 1946 0ce8 D63ECFD1 		.word	-774947114
 1947 0cec 282D7D7C 		.word	2088578344
 1948 0cf0 CF259F1F 		.word	530523599
 1949 0cf4 9BB8F2AD 		.word	-1376601957
 1950 0cf8 72B4D65A 		.word	1524020338
 1951 0cfc 4CF5885A 		.word	1518925132
 1952 0d00 71AC29E0 		.word	-534139791
 1953 0d04 E6A519E0 		.word	-535190042
 1954 0d08 FDACB047 		.word	1202760957
 1955 0d0c 9BFA93ED 		.word	-309069157
 1956 0d10 8DC4D3E8 		.word	-388774771
 1957 0d14 CC573B28 		.word	674977740
 1958 0d18 2966D5F8 		.word	-120232407
 1959 0d1c 282E1379 		.word	2031300136
ARM GAS  C:\Users\Phuong\AppData\Local\Temp\ccLcWjsJ.s 			page 43


 1960 0d20 91015F78 		.word	2019492241
 1961 0d24 556075ED 		.word	-311074731
 1962 0d28 440E96F7 		.word	-141160892
 1963 0d2c 8C5ED3E3 		.word	-472686964
 1964 0d30 D46D0515 		.word	352677332
 1965 0d34 BA6DF488 		.word	-1997247046
 1966 0d38 2561A103 		.word	60907813
 1967 0d3c BDF06405 		.word	90501309
 1968 0d40 159EEBC3 		.word	-1007968747
 1969 0d44 A257903C 		.word	1016092578
 1970 0d48 EC1A2797 		.word	-1759044884
 1971 0d4c 2A073AA9 		.word	-1455814870
 1972 0d50 9B6D3F1B 		.word	457141659
 1973 0d54 F521631E 		.word	509813237
 1974 0d58 FB669CF5 		.word	-174299397
 1975 0d5c 19F3DC26 		.word	652014361
 1976 0d60 28D93375 		.word	1966332200
 1977 0d64 F5FD55B1 		.word	-1319764491
 1978 0d68 82345603 		.word	55981186
 1979 0d6c BB3CBA8A 		.word	-1967506245
 1980 0d70 11775128 		.word	676427537
 1981 0d74 F8D90AC2 		.word	-1039476232
 1982 0d78 6751CCAB 		.word	-1412673177
 1983 0d7c 5F92ADCC 		.word	-861040033
 1984 0d80 5117E84D 		.word	1307055953
 1985 0d84 8EDC3038 		.word	942726286
 1986 0d88 62589D37 		.word	933058658
 1987 0d8c 91F92093 		.word	-1826555503
 1988 0d90 C2907AEA 		.word	-361066302
 1989 0d94 CE7B3EFB 		.word	-79791154
 1990 0d98 64CE2151 		.word	1361170020
 1991 0d9c 32BE4F77 		.word	2001714738
 1992 0da0 7EE3B6A8 		.word	-1464409218
 1993 0da4 463D29C3 		.word	-1020707514
 1994 0da8 6953DE48 		.word	1222529897
 1995 0dac 80E61364 		.word	1679025792
 1996 0db0 1008AEA2 		.word	-1565652976
 1997 0db4 24B26DDD 		.word	-580013532
 1998 0db8 FD2D8569 		.word	1770335741
 1999 0dbc 66210709 		.word	151462246
 2000 0dc0 0A469AB3 		.word	-1281735158
 2001 0dc4 DDC04564 		.word	1682292957
 2002 0dc8 CFDE6C58 		.word	1483529935
 2003 0dcc AEC8201C 		.word	471910574
 2004 0dd0 DDF7BE5B 		.word	1539241949
 2005 0dd4 408D581B 		.word	458788160
 2006 0dd8 7F01D2CC 		.word	-858652289
 2007 0ddc BBE3B46B 		.word	1807016891
 2008 0de0 7E6AA2DD 		.word	-576558466
 2009 0de4 45FF593A 		.word	978976581
 2010 0de8 440A353E 		.word	1043663428
 2011 0dec D5CDB4BC 		.word	-1129001515
 2012 0df0 A8CEEA72 		.word	1927990952
 2013 0df4 BB8464FA 		.word	-94075717
 2014 0df8 AE12668D 		.word	-1922690386
 2015 0dfc 476F3CBF 		.word	-1086558393
 2016 0e00 63E49BD2 		.word	-761535389
ARM GAS  C:\Users\Phuong\AppData\Local\Temp\ccLcWjsJ.s 			page 44


 2017 0e04 9E5D2F54 		.word	1412390302
 2018 0e08 1B77C2AE 		.word	-1362987237
 2019 0e0c 70634EF6 		.word	-162634896
 2020 0e10 8D0D0E74 		.word	1947078029
 2021 0e14 57135BE7 		.word	-413461673
 2022 0e18 711672F8 		.word	-126740879
 2023 0e1c 5D7D53AF 		.word	-1353482915
 2024 0e20 08CB4040 		.word	1077988104
 2025 0e24 CCE2B44E 		.word	1320477388
 2026 0e28 6A46D234 		.word	886195818
 2027 0e2c 84AF1501 		.word	18198404
 2028 0e30 2804B0E1 		.word	-508558296
 2029 0e34 1D3A9895 		.word	-1785185763
 2030 0e38 B49FB806 		.word	112762804
 2031 0e3c 48A06ECE 		.word	-831610808
 2032 0e40 823B3F6F 		.word	1866414978
 2033 0e44 82AB2035 		.word	891333506
 2034 0e48 4B1D1A01 		.word	18488651
 2035 0e4c F8277227 		.word	661792760
 2036 0e50 B1601561 		.word	1628790961
 2037 0e54 DC3F93E7 		.word	-409780260
 2038 0e58 2B793ABB 		.word	-1153795797
 2039 0e5c BD254534 		.word	876946877
 2040 0e60 E13988A0 		.word	-1601685023
 2041 0e64 4B79CE51 		.word	1372485963
 2042 0e68 B7C9322F 		.word	791857591
 2043 0e6c C9BA1FA0 		.word	-1608533303
 2044 0e70 7EC81CE0 		.word	-534984578
 2045 0e74 F6D1C7BC 		.word	-1127755274
 2046 0e78 C31101CF 		.word	-822013501
 2047 0e7c C7AAE8A1 		.word	-1578587449
 2048 0e80 4987901A 		.word	445679433
 2049 0e84 9ABD4FD4 		.word	-732971622
 2050 0e88 CBDEDAD0 		.word	-790962485
 2051 0e8c 38DA0AD5 		.word	-720709064
 2052 0e90 2AC33903 		.word	54117162
 2053 0e94 673691C6 		.word	-963561881
 2054 0e98 7C31F98D 		.word	-1913048708
 2055 0e9c 4F2BB1E0 		.word	-525259953
 2056 0ea0 B7599EF7 		.word	-140617289
 2057 0ea4 3ABBF543 		.word	1140177722
 2058 0ea8 FF19D5F2 		.word	-220915201
 2059 0eac 9C45D927 		.word	668550556
 2060 0eb0 2C2297BF 		.word	-1080614356
 2061 0eb4 2AFCE615 		.word	367459370
 2062 0eb8 71FC910F 		.word	261225585
 2063 0ebc 2515949B 		.word	-1684794075
 2064 0ec0 6193E5FA 		.word	-85617823
 2065 0ec4 EB9CB6CE 		.word	-826893077
 2066 0ec8 5964A8C2 		.word	-1029151655
 2067 0ecc D1A8BA12 		.word	314222801
 2068 0ed0 5E07C1B6 		.word	-1228863650
 2069 0ed4 0C6A05E3 		.word	-486184436
 2070 0ed8 6550D210 		.word	282218597
 2071 0edc 42A403CB 		.word	-888953790
 2072 0ee0 0E6EECE0 		.word	-521376242
 2073 0ee4 3BDB9816 		.word	379116347
ARM GAS  C:\Users\Phuong\AppData\Local\Temp\ccLcWjsJ.s 			page 45


 2074 0ee8 BEA0984C 		.word	1285071038
 2075 0eec 64E97832 		.word	846784868
 2076 0ef0 32951F9F 		.word	-1625320142
 2077 0ef4 DF92D3E0 		.word	-523005217
 2078 0ef8 2B34A0D3 		.word	-744475605
 2079 0efc 1EF27189 		.word	-1989021154
 2080 0f00 41740A1B 		.word	453669953
 2081 0f04 8C34A34B 		.word	1268987020
 2082 0f08 2071BEC5 		.word	-977374944
 2083 0f0c D83276C3 		.word	-1015663912
 2084 0f10 8D9F35DF 		.word	-550133875
 2085 0f14 2E2F999B 		.word	-1684459730
 2086 0f18 476F0BE6 		.word	-435458233
 2087 0f1c 1DF1E30F 		.word	266596637
 2088 0f20 54DA4CE5 		.word	-447948204
 2089 0f24 91D8DA1E 		.word	517658769
 2090 0f28 CF7962CE 		.word	-832407089
 2091 0f2c 6F7E3ECD 		.word	-851542417
 2092 0f30 66B11816 		.word	370717030
 2093 0f34 051D2CFD 		.word	-47440635
 2094 0f38 C5D28F84 		.word	-2070949179
 2095 0f3c 9922FBF6 		.word	-151313767
 2096 0f40 57F323F5 		.word	-182193321
 2097 0f44 237632A6 		.word	-1506642397
 2098 0f48 3135A893 		.word	-1817692879
 2099 0f4c 02CDCC56 		.word	1456262402
 2100 0f50 6281F0AC 		.word	-1393524382
 2101 0f54 B5EB755A 		.word	1517677493
 2102 0f58 9736166E 		.word	1846949527
 2103 0f5c CC73D288 		.word	-1999473716
 2104 0f60 926296DE 		.word	-560569710
 2105 0f64 D049B981 		.word	-2118563376
 2106 0f68 1B90504C 		.word	1280348187
 2107 0f6c 1456C671 		.word	1908823572
 2108 0f70 BDC7C6E6 		.word	-423180355
 2109 0f74 0A147A32 		.word	846861322
 2110 0f78 06D0E145 		.word	1172426758
 2111 0f7c 9A7BF2C3 		.word	-1007518822
 2112 0f80 FD53AAC9 		.word	-911584259
 2113 0f84 000FA862 		.word	1655181056
 2114 0f88 E2BF25BB 		.word	-1155153950
 2115 0f8c F6D2BD35 		.word	901632758
 2116 0f90 05691271 		.word	1897031941
 2117 0f94 220204B2 		.word	-1308360158
 2118 0f98 7CCFCBB6 		.word	-1228157060
 2119 0f9c 2B9C76CD 		.word	-847864789
 2120 0fa0 C03E1153 		.word	1393639104
 2121 0fa4 D3E34016 		.word	373351379
 2122 0fa8 60BDAB38 		.word	950779232
 2123 0fac F0AD4725 		.word	625454576
 2124 0fb0 9C2038BA 		.word	-1170726756
 2125 0fb4 76CE46F7 		.word	-146354570
 2126 0fb8 C5A1AF77 		.word	2007998917
 2127 0fbc 60607520 		.word	544563296
 2128 0fc0 4EFECB85 		.word	-2050228658
 2129 0fc4 D88DE88A 		.word	-1964470824
 2130 0fc8 B0F9AA7A 		.word	2058025392
ARM GAS  C:\Users\Phuong\AppData\Local\Temp\ccLcWjsJ.s 			page 46


 2131 0fcc 7EAAF94C 		.word	1291430526
 2132 0fd0 5CC24819 		.word	424198748
 2133 0fd4 8C8AFB02 		.word	50039436
 2134 0fd8 E46AC301 		.word	29584100
 2135 0fdc F9E1EBD6 		.word	-689184263
 2136 0fe0 69F8D490 		.word	-1865090967
 2137 0fe4 A0DE5CA6 		.word	-1503863136
 2138 0fe8 2D25093F 		.word	1057563949
 2139 0fec 9FE608C2 		.word	-1039604065
 2140 0ff0 32614EB7 		.word	-1219600078
 2141 0ff4 5BE277CE 		.word	-831004069
 2142 0ff8 E3DF8F57 		.word	1469046755
 2143 0ffc E672C33A 		.word	985887462
 2144              		.type	P, %object
 2145              		.size	P, 72
 2146              	P:
 2147 1000 886A3F24 		.word	608135816
 2148 1004 D308A385 		.word	-2052912941
 2149 1008 2E8A1913 		.word	320440878
 2150 100c 44737003 		.word	57701188
 2151 1010 223809A4 		.word	-1542899678
 2152 1014 D0319F29 		.word	698298832
 2153 1018 98FA2E08 		.word	137296536
 2154 101c 896C4EEC 		.word	-330404727
 2155 1020 E6212845 		.word	1160258022
 2156 1024 7713D038 		.word	953160567
 2157 1028 CF6654BE 		.word	-1101764913
 2158 102c 6C0CE934 		.word	887688300
 2159 1030 B729ACC0 		.word	-1062458953
 2160 1034 DD507CC9 		.word	-914599715
 2161 1038 B5D5843F 		.word	1065670069
 2162 103c 170947B5 		.word	-1253635817
 2163 1040 D9D51692 		.word	-1843997223
 2164 1044 1BFB7989 		.word	-1988494565
 2165              		.text
 2166              	.Letext0:
 2167              		.file 2 "c:\\program files (x86)\\cypress\\psoc creator\\4.2\\psoc creator\\import\\gnu\\arm\\5.4.
 2168              		.file 3 "c:\\program files (x86)\\cypress\\psoc creator\\4.2\\psoc creator\\import\\gnu\\arm\\5.4.
 2169              		.file 4 "c:\\program files (x86)\\cypress\\psoc creator\\4.2\\psoc creator\\import\\gnu\\arm\\5.4.
 2170              		.file 5 ".\\Source\\mbedtls_open\\include/mbedtls/blowfish.h"
 2171              		.file 6 ".\\Source\\mbedtls_open\\include/mbedtls/platform_util.h"