ARM GAS  C:\Users\Phuong\AppData\Local\Temp\ccVRtur0.s 			page 1


   1              		.syntax unified
   2              		.cpu cortex-m0plus
   3              		.fpu softvfp
   4              		.eabi_attribute 20, 1
   5              		.eabi_attribute 21, 1
   6              		.eabi_attribute 23, 3
   7              		.eabi_attribute 24, 1
   8              		.eabi_attribute 25, 1
   9              		.eabi_attribute 26, 1
  10              		.eabi_attribute 30, 1
  11              		.eabi_attribute 34, 0
  12              		.eabi_attribute 18, 4
  13              		.thumb
  14              		.syntax unified
  15              		.file	"buffer.c"
  16              		.text
  17              	.Ltext0:
  18              		.cfi_sections	.debug_frame
  19              		.section	.text.BUFFER_safemalloc,"ax",%progbits
  20              		.align	2
  21              		.code	16
  22              		.thumb_func
  23              		.type	BUFFER_safemalloc, %function
  24              	BUFFER_safemalloc:
  25              	.LFB2:
  26              		.file 1 "Source\\azure_iot_sdk\\c-utility\\src\\buffer.c"
   1:Source\azure_iot_sdk\c-utility\src/buffer.c **** // Copyright (c) Microsoft. All rights reserved.
   2:Source\azure_iot_sdk\c-utility\src/buffer.c **** // Licensed under the MIT license. See LICENSE file in the project root for full license informatio
   3:Source\azure_iot_sdk\c-utility\src/buffer.c **** 
   4:Source\azure_iot_sdk\c-utility\src/buffer.c **** #include <stdlib.h>
   5:Source\azure_iot_sdk\c-utility\src/buffer.c **** #include <stddef.h>
   6:Source\azure_iot_sdk\c-utility\src/buffer.c **** #include <string.h>
   7:Source\azure_iot_sdk\c-utility\src/buffer.c **** #include <stdbool.h>
   8:Source\azure_iot_sdk\c-utility\src/buffer.c **** #include "azure_c_shared_utility/gballoc.h"
   9:Source\azure_iot_sdk\c-utility\src/buffer.c **** #include "azure_c_shared_utility/buffer_.h"
  10:Source\azure_iot_sdk\c-utility\src/buffer.c **** #include "azure_c_shared_utility/optimize_size.h"
  11:Source\azure_iot_sdk\c-utility\src/buffer.c **** #include "azure_c_shared_utility/xlogging.h"
  12:Source\azure_iot_sdk\c-utility\src/buffer.c **** 
  13:Source\azure_iot_sdk\c-utility\src/buffer.c **** typedef struct BUFFER_TAG
  14:Source\azure_iot_sdk\c-utility\src/buffer.c **** {
  15:Source\azure_iot_sdk\c-utility\src/buffer.c ****     unsigned char* buffer;
  16:Source\azure_iot_sdk\c-utility\src/buffer.c ****     size_t size;
  17:Source\azure_iot_sdk\c-utility\src/buffer.c **** } BUFFER;
  18:Source\azure_iot_sdk\c-utility\src/buffer.c **** 
  19:Source\azure_iot_sdk\c-utility\src/buffer.c **** /* Codes_SRS_BUFFER_07_001: [BUFFER_new shall allocate a BUFFER_HANDLE that will contain a NULL uns
  20:Source\azure_iot_sdk\c-utility\src/buffer.c **** BUFFER_HANDLE BUFFER_new(void)
  21:Source\azure_iot_sdk\c-utility\src/buffer.c **** {
  22:Source\azure_iot_sdk\c-utility\src/buffer.c ****     BUFFER* temp = (BUFFER*)malloc(sizeof(BUFFER));
  23:Source\azure_iot_sdk\c-utility\src/buffer.c ****     /* Codes_SRS_BUFFER_07_002: [BUFFER_new shall return NULL on any error that occurs.] */
  24:Source\azure_iot_sdk\c-utility\src/buffer.c ****     if (temp != NULL)
  25:Source\azure_iot_sdk\c-utility\src/buffer.c ****     {
  26:Source\azure_iot_sdk\c-utility\src/buffer.c ****         temp->buffer = NULL;
  27:Source\azure_iot_sdk\c-utility\src/buffer.c ****         temp->size = 0;
  28:Source\azure_iot_sdk\c-utility\src/buffer.c ****     }
  29:Source\azure_iot_sdk\c-utility\src/buffer.c ****     return (BUFFER_HANDLE)temp;
  30:Source\azure_iot_sdk\c-utility\src/buffer.c **** }
  31:Source\azure_iot_sdk\c-utility\src/buffer.c **** 
ARM GAS  C:\Users\Phuong\AppData\Local\Temp\ccVRtur0.s 			page 2


  32:Source\azure_iot_sdk\c-utility\src/buffer.c **** static int BUFFER_safemalloc(BUFFER* handleptr, size_t size)
  33:Source\azure_iot_sdk\c-utility\src/buffer.c **** {
  27              		.loc 1 33 0
  28              		.cfi_startproc
  29              		@ args = 0, pretend = 0, frame = 0
  30              		@ frame_needed = 0, uses_anonymous_args = 0
  31              	.LVL0:
  32 0000 30B5     		push	{r4, r5, lr}
  33              		.cfi_def_cfa_offset 12
  34              		.cfi_offset 4, -12
  35              		.cfi_offset 5, -8
  36              		.cfi_offset 14, -4
  37 0002 83B0     		sub	sp, sp, #12
  38              		.cfi_def_cfa_offset 24
  39 0004 0500     		movs	r5, r0
  40 0006 0C1E     		subs	r4, r1, #0
  41              	.LVL1:
  34:Source\azure_iot_sdk\c-utility\src/buffer.c ****     int result;
  35:Source\azure_iot_sdk\c-utility\src/buffer.c ****     size_t sizetomalloc = size;
  36:Source\azure_iot_sdk\c-utility\src/buffer.c ****     if (size == 0)
  42              		.loc 1 36 0
  43 0008 01D0     		beq	.L5
  35:Source\azure_iot_sdk\c-utility\src/buffer.c ****     if (size == 0)
  44              		.loc 1 35 0
  45 000a 0800     		movs	r0, r1
  46              	.LVL2:
  47 000c 00E0     		b	.L2
  48              	.LVL3:
  49              	.L5:
  37:Source\azure_iot_sdk\c-utility\src/buffer.c ****     {
  38:Source\azure_iot_sdk\c-utility\src/buffer.c ****         sizetomalloc = 1;
  50              		.loc 1 38 0
  51 000e 0120     		movs	r0, #1
  52              	.LVL4:
  53              	.L2:
  39:Source\azure_iot_sdk\c-utility\src/buffer.c ****     }
  40:Source\azure_iot_sdk\c-utility\src/buffer.c ****     handleptr->buffer = (unsigned char*)malloc(sizetomalloc);
  54              		.loc 1 40 0
  55 0010 FFF7FEFF 		bl	malloc
  56              	.LVL5:
  57 0014 2860     		str	r0, [r5]
  41:Source\azure_iot_sdk\c-utility\src/buffer.c ****     if (handleptr->buffer == NULL)
  58              		.loc 1 41 0
  59 0016 0028     		cmp	r0, #0
  60 0018 0ED1     		bne	.L3
  61              	.LBB2:
  42:Source\azure_iot_sdk\c-utility\src/buffer.c ****     {
  43:Source\azure_iot_sdk\c-utility\src/buffer.c ****         /*Codes_SRS_BUFFER_02_003: [If allocating memory fails, then BUFFER_create shall return NUL
  44:Source\azure_iot_sdk\c-utility\src/buffer.c ****         LogError("Failure allocating data");
  62              		.loc 1 44 0 discriminator 3
  63 001a FFF7FEFF 		bl	xlogging_get_log_function
  64              	.LVL6:
  65 001e 041E     		subs	r4, r0, #0
  66              	.LVL7:
  67 0020 0DD0     		beq	.L6
  68              		.loc 1 44 0 is_stmt 0 discriminator 4
  69 0022 084B     		ldr	r3, .L7
ARM GAS  C:\Users\Phuong\AppData\Local\Temp\ccVRtur0.s 			page 3


  70 0024 0193     		str	r3, [sp, #4]
  71 0026 0123     		movs	r3, #1
  72 0028 0093     		str	r3, [sp]
  73 002a 2B33     		adds	r3, r3, #43
  74 002c 064A     		ldr	r2, .L7+4
  75 002e 0749     		ldr	r1, .L7+8
  76 0030 0020     		movs	r0, #0
  77              	.LVL8:
  78 0032 A047     		blx	r4
  79              	.LVL9:
  80              	.LBE2:
  45:Source\azure_iot_sdk\c-utility\src/buffer.c ****         result = __FAILURE__;
  81              		.loc 1 45 0 is_stmt 1 discriminator 4
  82 0034 2D20     		movs	r0, #45
  83 0036 03E0     		b	.L4
  84              	.LVL10:
  85              	.L3:
  46:Source\azure_iot_sdk\c-utility\src/buffer.c ****     }
  47:Source\azure_iot_sdk\c-utility\src/buffer.c ****     else
  48:Source\azure_iot_sdk\c-utility\src/buffer.c ****     {
  49:Source\azure_iot_sdk\c-utility\src/buffer.c ****         // we still consider the real buffer size is 0
  50:Source\azure_iot_sdk\c-utility\src/buffer.c ****         handleptr->size = size;
  86              		.loc 1 50 0
  87 0038 6C60     		str	r4, [r5, #4]
  88              	.LVL11:
  51:Source\azure_iot_sdk\c-utility\src/buffer.c ****         result = 0;
  89              		.loc 1 51 0
  90 003a 0020     		movs	r0, #0
  91 003c 00E0     		b	.L4
  92              	.LVL12:
  93              	.L6:
  45:Source\azure_iot_sdk\c-utility\src/buffer.c ****         result = __FAILURE__;
  94              		.loc 1 45 0
  95 003e 2D20     		movs	r0, #45
  96              	.LVL13:
  97              	.L4:
  52:Source\azure_iot_sdk\c-utility\src/buffer.c ****     }
  53:Source\azure_iot_sdk\c-utility\src/buffer.c ****     return result;
  54:Source\azure_iot_sdk\c-utility\src/buffer.c **** }
  98              		.loc 1 54 0
  99 0040 03B0     		add	sp, sp, #12
 100              		@ sp needed
 101              	.LVL14:
 102 0042 30BD     		pop	{r4, r5, pc}
 103              	.L8:
 104              		.align	2
 105              	.L7:
 106 0044 2C000000 		.word	.LC3
 107 0048 00000000 		.word	.LANCHOR0
 108 004c 00000000 		.word	.LC1
 109              		.cfi_endproc
 110              	.LFE2:
 111              		.size	BUFFER_safemalloc, .-BUFFER_safemalloc
 112              		.section	.text.BUFFER_new,"ax",%progbits
 113              		.align	2
 114              		.global	BUFFER_new
 115              		.code	16
ARM GAS  C:\Users\Phuong\AppData\Local\Temp\ccVRtur0.s 			page 4


 116              		.thumb_func
 117              		.type	BUFFER_new, %function
 118              	BUFFER_new:
 119              	.LFB1:
  21:Source\azure_iot_sdk\c-utility\src/buffer.c ****     BUFFER* temp = (BUFFER*)malloc(sizeof(BUFFER));
 120              		.loc 1 21 0
 121              		.cfi_startproc
 122              		@ args = 0, pretend = 0, frame = 0
 123              		@ frame_needed = 0, uses_anonymous_args = 0
 124 0000 10B5     		push	{r4, lr}
 125              		.cfi_def_cfa_offset 8
 126              		.cfi_offset 4, -8
 127              		.cfi_offset 14, -4
  22:Source\azure_iot_sdk\c-utility\src/buffer.c ****     /* Codes_SRS_BUFFER_07_002: [BUFFER_new shall return NULL on any error that occurs.] */
 128              		.loc 1 22 0
 129 0002 0820     		movs	r0, #8
 130 0004 FFF7FEFF 		bl	malloc
 131              	.LVL15:
  24:Source\azure_iot_sdk\c-utility\src/buffer.c ****     {
 132              		.loc 1 24 0
 133 0008 0028     		cmp	r0, #0
 134 000a 02D0     		beq	.L10
  26:Source\azure_iot_sdk\c-utility\src/buffer.c ****         temp->size = 0;
 135              		.loc 1 26 0
 136 000c 0023     		movs	r3, #0
 137 000e 0360     		str	r3, [r0]
  27:Source\azure_iot_sdk\c-utility\src/buffer.c ****     }
 138              		.loc 1 27 0
 139 0010 4360     		str	r3, [r0, #4]
 140              	.L10:
  30:Source\azure_iot_sdk\c-utility\src/buffer.c **** 
 141              		.loc 1 30 0
 142              		@ sp needed
 143 0012 10BD     		pop	{r4, pc}
 144              		.cfi_endproc
 145              	.LFE1:
 146              		.size	BUFFER_new, .-BUFFER_new
 147              		.section	.text.BUFFER_create,"ax",%progbits
 148              		.align	2
 149              		.global	BUFFER_create
 150              		.code	16
 151              		.thumb_func
 152              		.type	BUFFER_create, %function
 153              	BUFFER_create:
 154              	.LFB3:
  55:Source\azure_iot_sdk\c-utility\src/buffer.c **** 
  56:Source\azure_iot_sdk\c-utility\src/buffer.c **** BUFFER_HANDLE BUFFER_create(const unsigned char* source, size_t size)
  57:Source\azure_iot_sdk\c-utility\src/buffer.c **** {
 155              		.loc 1 57 0
 156              		.cfi_startproc
 157              		@ args = 0, pretend = 0, frame = 0
 158              		@ frame_needed = 0, uses_anonymous_args = 0
 159              	.LVL16:
 160 0000 70B5     		push	{r4, r5, r6, lr}
 161              		.cfi_def_cfa_offset 16
 162              		.cfi_offset 4, -16
 163              		.cfi_offset 5, -12
ARM GAS  C:\Users\Phuong\AppData\Local\Temp\ccVRtur0.s 			page 5


 164              		.cfi_offset 6, -8
 165              		.cfi_offset 14, -4
 166 0002 84B0     		sub	sp, sp, #16
 167              		.cfi_def_cfa_offset 32
 168 0004 0500     		movs	r5, r0
 169 0006 0E00     		movs	r6, r1
  58:Source\azure_iot_sdk\c-utility\src/buffer.c ****     BUFFER* result;
  59:Source\azure_iot_sdk\c-utility\src/buffer.c ****     /*Codes_SRS_BUFFER_02_001: [If source is NULL then BUFFER_create shall return NULL.]*/
  60:Source\azure_iot_sdk\c-utility\src/buffer.c ****     if (source == NULL)
 170              		.loc 1 60 0
 171 0008 0028     		cmp	r0, #0
 172 000a 10D1     		bne	.L12
 173              	.LBB3:
  61:Source\azure_iot_sdk\c-utility\src/buffer.c ****     {
  62:Source\azure_iot_sdk\c-utility\src/buffer.c ****         LogError("invalid parameter source: %p", source);
 174              		.loc 1 62 0 discriminator 3
 175 000c FFF7FEFF 		bl	xlogging_get_log_function
 176              	.LVL17:
 177 0010 041E     		subs	r4, r0, #0
 178              	.LVL18:
 179 0012 3ED0     		beq	.L17
 180              		.loc 1 62 0 is_stmt 0 discriminator 4
 181 0014 0295     		str	r5, [sp, #8]
 182 0016 214B     		ldr	r3, .L18
 183 0018 0193     		str	r3, [sp, #4]
 184 001a 0123     		movs	r3, #1
 185 001c 0093     		str	r3, [sp]
 186 001e 3D33     		adds	r3, r3, #61
 187 0020 1F4A     		ldr	r2, .L18+4
 188 0022 1432     		adds	r2, r2, #20
 189 0024 1F49     		ldr	r1, .L18+8
 190 0026 0020     		movs	r0, #0
 191              	.LVL19:
 192 0028 A047     		blx	r4
 193              	.LVL20:
 194              	.LBE3:
  63:Source\azure_iot_sdk\c-utility\src/buffer.c ****         result = NULL;
 195              		.loc 1 63 0 is_stmt 1 discriminator 4
 196 002a 0024     		movs	r4, #0
 197              	.LVL21:
 198 002c 32E0     		b	.L13
 199              	.LVL22:
 200              	.L12:
  64:Source\azure_iot_sdk\c-utility\src/buffer.c ****     }
  65:Source\azure_iot_sdk\c-utility\src/buffer.c ****     else
  66:Source\azure_iot_sdk\c-utility\src/buffer.c ****     {
  67:Source\azure_iot_sdk\c-utility\src/buffer.c ****         /*Codes_SRS_BUFFER_02_002: [Otherwise, BUFFER_create shall allocate memory to hold size byt
  68:Source\azure_iot_sdk\c-utility\src/buffer.c ****         result = (BUFFER*)malloc(sizeof(BUFFER));
 201              		.loc 1 68 0
 202 002e 0820     		movs	r0, #8
 203              	.LVL23:
 204 0030 FFF7FEFF 		bl	malloc
 205              	.LVL24:
 206 0034 041E     		subs	r4, r0, #0
 207              	.LVL25:
  69:Source\azure_iot_sdk\c-utility\src/buffer.c ****         if (result == NULL)
 208              		.loc 1 69 0
ARM GAS  C:\Users\Phuong\AppData\Local\Temp\ccVRtur0.s 			page 6


 209 0036 0ED1     		bne	.L14
 210              	.LBB4:
  70:Source\azure_iot_sdk\c-utility\src/buffer.c ****         {
  71:Source\azure_iot_sdk\c-utility\src/buffer.c ****             /*Codes_SRS_BUFFER_02_003: [If allocating memory fails, then BUFFER_create shall return
  72:Source\azure_iot_sdk\c-utility\src/buffer.c ****             /*fallthrough*/
  73:Source\azure_iot_sdk\c-utility\src/buffer.c ****             LogError("Failure allocating BUFFER structure");
 211              		.loc 1 73 0 discriminator 3
 212 0038 FFF7FEFF 		bl	xlogging_get_log_function
 213              	.LVL26:
 214 003c 051E     		subs	r5, r0, #0
 215              	.LVL27:
 216 003e 29D0     		beq	.L13
 217              		.loc 1 73 0 is_stmt 0 discriminator 4
 218 0040 194B     		ldr	r3, .L18+12
 219 0042 0193     		str	r3, [sp, #4]
 220 0044 0123     		movs	r3, #1
 221 0046 0093     		str	r3, [sp]
 222 0048 4833     		adds	r3, r3, #72
 223 004a 154A     		ldr	r2, .L18+4
 224 004c 1432     		adds	r2, r2, #20
 225 004e 1549     		ldr	r1, .L18+8
 226 0050 0020     		movs	r0, #0
 227              	.LVL28:
 228 0052 A847     		blx	r5
 229              	.LVL29:
 230 0054 1EE0     		b	.L13
 231              	.LVL30:
 232              	.L14:
 233              	.LBE4:
  74:Source\azure_iot_sdk\c-utility\src/buffer.c ****         }
  75:Source\azure_iot_sdk\c-utility\src/buffer.c ****         else
  76:Source\azure_iot_sdk\c-utility\src/buffer.c ****         {
  77:Source\azure_iot_sdk\c-utility\src/buffer.c ****             /* Codes_SRS_BUFFER_02_005: [If size parameter is 0 then 1 byte of memory shall be allo
  78:Source\azure_iot_sdk\c-utility\src/buffer.c ****             if (BUFFER_safemalloc(result, size) != 0)
 234              		.loc 1 78 0 is_stmt 1
 235 0056 3100     		movs	r1, r6
 236 0058 FFF7FEFF 		bl	BUFFER_safemalloc
 237              	.LVL31:
 238 005c 0028     		cmp	r0, #0
 239 005e 12D0     		beq	.L15
 240              	.LBB5:
  79:Source\azure_iot_sdk\c-utility\src/buffer.c ****             {
  80:Source\azure_iot_sdk\c-utility\src/buffer.c ****                 LogError("unable to BUFFER_safemalloc ");
 241              		.loc 1 80 0 discriminator 3
 242 0060 FFF7FEFF 		bl	xlogging_get_log_function
 243              	.LVL32:
 244 0064 051E     		subs	r5, r0, #0
 245              	.LVL33:
 246 0066 09D0     		beq	.L16
 247              		.loc 1 80 0 is_stmt 0 discriminator 4
 248 0068 104B     		ldr	r3, .L18+16
 249 006a 0193     		str	r3, [sp, #4]
 250 006c 0123     		movs	r3, #1
 251 006e 0093     		str	r3, [sp]
 252 0070 4F33     		adds	r3, r3, #79
 253 0072 0B4A     		ldr	r2, .L18+4
 254 0074 1432     		adds	r2, r2, #20
ARM GAS  C:\Users\Phuong\AppData\Local\Temp\ccVRtur0.s 			page 7


 255 0076 0B49     		ldr	r1, .L18+8
 256 0078 0020     		movs	r0, #0
 257              	.LVL34:
 258 007a A847     		blx	r5
 259              	.LVL35:
 260              	.L16:
 261              	.LBE5:
  81:Source\azure_iot_sdk\c-utility\src/buffer.c ****                 free(result);
 262              		.loc 1 81 0 is_stmt 1
 263 007c 2000     		movs	r0, r4
 264 007e FFF7FEFF 		bl	free
 265              	.LVL36:
  82:Source\azure_iot_sdk\c-utility\src/buffer.c ****                 result = NULL;
 266              		.loc 1 82 0
 267 0082 0024     		movs	r4, #0
 268 0084 06E0     		b	.L13
 269              	.LVL37:
 270              	.L15:
  83:Source\azure_iot_sdk\c-utility\src/buffer.c ****             }
  84:Source\azure_iot_sdk\c-utility\src/buffer.c ****             else
  85:Source\azure_iot_sdk\c-utility\src/buffer.c ****             {
  86:Source\azure_iot_sdk\c-utility\src/buffer.c ****                 /*Codes_SRS_BUFFER_02_004: [Otherwise, BUFFER_create shall return a non-NULL handle
  87:Source\azure_iot_sdk\c-utility\src/buffer.c ****                 (void)memcpy(result->buffer, source, size);
 271              		.loc 1 87 0
 272 0086 3200     		movs	r2, r6
 273 0088 2900     		movs	r1, r5
 274 008a 2068     		ldr	r0, [r4]
 275 008c FFF7FEFF 		bl	memcpy
 276              	.LVL38:
 277 0090 00E0     		b	.L13
 278              	.LVL39:
 279              	.L17:
  63:Source\azure_iot_sdk\c-utility\src/buffer.c ****     }
 280              		.loc 1 63 0
 281 0092 0024     		movs	r4, #0
 282              	.LVL40:
 283              	.L13:
  88:Source\azure_iot_sdk\c-utility\src/buffer.c ****             }
  89:Source\azure_iot_sdk\c-utility\src/buffer.c ****         }
  90:Source\azure_iot_sdk\c-utility\src/buffer.c ****     }
  91:Source\azure_iot_sdk\c-utility\src/buffer.c ****     return (BUFFER_HANDLE)result;
  92:Source\azure_iot_sdk\c-utility\src/buffer.c **** }
 284              		.loc 1 92 0
 285 0094 2000     		movs	r0, r4
 286 0096 04B0     		add	sp, sp, #16
 287              		@ sp needed
 288              	.LVL41:
 289              	.LVL42:
 290 0098 70BD     		pop	{r4, r5, r6, pc}
 291              	.L19:
 292 009a C046     		.align	2
 293              	.L18:
 294 009c 44000000 		.word	.LC7
 295 00a0 00000000 		.word	.LANCHOR0
 296 00a4 00000000 		.word	.LC1
 297 00a8 64000000 		.word	.LC9
 298 00ac 88000000 		.word	.LC11
ARM GAS  C:\Users\Phuong\AppData\Local\Temp\ccVRtur0.s 			page 8


 299              		.cfi_endproc
 300              	.LFE3:
 301              		.size	BUFFER_create, .-BUFFER_create
 302              		.section	.text.BUFFER_delete,"ax",%progbits
 303              		.align	2
 304              		.global	BUFFER_delete
 305              		.code	16
 306              		.thumb_func
 307              		.type	BUFFER_delete, %function
 308              	BUFFER_delete:
 309              	.LFB4:
  93:Source\azure_iot_sdk\c-utility\src/buffer.c **** 
  94:Source\azure_iot_sdk\c-utility\src/buffer.c **** /* Codes_SRS_BUFFER_07_003: [BUFFER_delete shall delete the data associated with the BUFFER_HANDLE 
  95:Source\azure_iot_sdk\c-utility\src/buffer.c **** void BUFFER_delete(BUFFER_HANDLE handle)
  96:Source\azure_iot_sdk\c-utility\src/buffer.c **** {
 310              		.loc 1 96 0
 311              		.cfi_startproc
 312              		@ args = 0, pretend = 0, frame = 0
 313              		@ frame_needed = 0, uses_anonymous_args = 0
 314              	.LVL43:
 315 0000 10B5     		push	{r4, lr}
 316              		.cfi_def_cfa_offset 8
 317              		.cfi_offset 4, -8
 318              		.cfi_offset 14, -4
 319 0002 041E     		subs	r4, r0, #0
  97:Source\azure_iot_sdk\c-utility\src/buffer.c ****     /* Codes_SRS_BUFFER_07_004: [BUFFER_delete shall not delete any BUFFER_HANDLE that is NULL.] */
  98:Source\azure_iot_sdk\c-utility\src/buffer.c ****     if (handle != NULL)
 320              		.loc 1 98 0
 321 0004 07D0     		beq	.L20
 322              	.LVL44:
 323              	.LBB6:
  99:Source\azure_iot_sdk\c-utility\src/buffer.c ****     {
 100:Source\azure_iot_sdk\c-utility\src/buffer.c ****         BUFFER* b = (BUFFER*)handle;
 101:Source\azure_iot_sdk\c-utility\src/buffer.c ****         if (b->buffer != NULL)
 324              		.loc 1 101 0
 325 0006 0068     		ldr	r0, [r0]
 326              	.LVL45:
 327 0008 0028     		cmp	r0, #0
 328 000a 01D0     		beq	.L22
 102:Source\azure_iot_sdk\c-utility\src/buffer.c ****         {
 103:Source\azure_iot_sdk\c-utility\src/buffer.c ****             /* Codes_SRS_BUFFER_07_003: [BUFFER_delete shall delete the data associated with the BU
 104:Source\azure_iot_sdk\c-utility\src/buffer.c ****             free(b->buffer);
 329              		.loc 1 104 0
 330 000c FFF7FEFF 		bl	free
 331              	.LVL46:
 332              	.L22:
 105:Source\azure_iot_sdk\c-utility\src/buffer.c ****         }
 106:Source\azure_iot_sdk\c-utility\src/buffer.c ****         free(b);
 333              		.loc 1 106 0
 334 0010 2000     		movs	r0, r4
 335 0012 FFF7FEFF 		bl	free
 336              	.LVL47:
 337              	.L20:
 338              	.LBE6:
 107:Source\azure_iot_sdk\c-utility\src/buffer.c ****     }
 108:Source\azure_iot_sdk\c-utility\src/buffer.c **** }
 339              		.loc 1 108 0
ARM GAS  C:\Users\Phuong\AppData\Local\Temp\ccVRtur0.s 			page 9


 340              		@ sp needed
 341              	.LVL48:
 342 0016 10BD     		pop	{r4, pc}
 343              		.cfi_endproc
 344              	.LFE4:
 345              		.size	BUFFER_delete, .-BUFFER_delete
 346              		.section	.text.BUFFER_build,"ax",%progbits
 347              		.align	2
 348              		.global	BUFFER_build
 349              		.code	16
 350              		.thumb_func
 351              		.type	BUFFER_build, %function
 352              	BUFFER_build:
 353              	.LFB5:
 109:Source\azure_iot_sdk\c-utility\src/buffer.c **** 
 110:Source\azure_iot_sdk\c-utility\src/buffer.c **** /*return 0 if the buffer was copied*/
 111:Source\azure_iot_sdk\c-utility\src/buffer.c **** /*else return different than zero*/
 112:Source\azure_iot_sdk\c-utility\src/buffer.c **** /* Codes_SRS_BUFFER_07_008: [BUFFER_build allocates size_t bytes, copies the unsigned char* into th
 113:Source\azure_iot_sdk\c-utility\src/buffer.c **** int BUFFER_build(BUFFER_HANDLE handle, const unsigned char* source, size_t size)
 114:Source\azure_iot_sdk\c-utility\src/buffer.c **** {
 354              		.loc 1 114 0
 355              		.cfi_startproc
 356              		@ args = 0, pretend = 0, frame = 0
 357              		@ frame_needed = 0, uses_anonymous_args = 0
 358              	.LVL49:
 359 0000 70B5     		push	{r4, r5, r6, lr}
 360              		.cfi_def_cfa_offset 16
 361              		.cfi_offset 4, -16
 362              		.cfi_offset 5, -12
 363              		.cfi_offset 6, -8
 364              		.cfi_offset 14, -4
 365 0002 82B0     		sub	sp, sp, #8
 366              		.cfi_def_cfa_offset 24
 367 0004 0400     		movs	r4, r0
 368 0006 0E00     		movs	r6, r1
 369 0008 1500     		movs	r5, r2
 115:Source\azure_iot_sdk\c-utility\src/buffer.c ****     int result;
 116:Source\azure_iot_sdk\c-utility\src/buffer.c ****     if (handle == NULL)
 370              		.loc 1 116 0
 371 000a 0028     		cmp	r0, #0
 372 000c 29D0     		beq	.L27
 117:Source\azure_iot_sdk\c-utility\src/buffer.c ****     {
 118:Source\azure_iot_sdk\c-utility\src/buffer.c ****         /* Codes_SRS_BUFFER_07_009: [BUFFER_build shall return nonzero if handle is NULL ] */
 119:Source\azure_iot_sdk\c-utility\src/buffer.c ****         result = __FAILURE__;
 120:Source\azure_iot_sdk\c-utility\src/buffer.c ****     }
 121:Source\azure_iot_sdk\c-utility\src/buffer.c ****     /* Codes_SRS_BUFFER_01_002: [The size argument can be zero, in which case the underlying buffer
 122:Source\azure_iot_sdk\c-utility\src/buffer.c ****     else if (size == 0)
 373              		.loc 1 122 0
 374 000e 002A     		cmp	r2, #0
 375 0010 07D1     		bne	.L25
 376              	.LVL50:
 377              	.LBB7:
 123:Source\azure_iot_sdk\c-utility\src/buffer.c ****     {
 124:Source\azure_iot_sdk\c-utility\src/buffer.c ****         /* Codes_SRS_BUFFER_01_003: [If size is zero, source can be NULL.] */
 125:Source\azure_iot_sdk\c-utility\src/buffer.c ****         BUFFER* b = (BUFFER*)handle;
 126:Source\azure_iot_sdk\c-utility\src/buffer.c ****         free(b->buffer);
 378              		.loc 1 126 0
ARM GAS  C:\Users\Phuong\AppData\Local\Temp\ccVRtur0.s 			page 10


 379 0012 0068     		ldr	r0, [r0]
 380              	.LVL51:
 381 0014 FFF7FEFF 		bl	free
 382              	.LVL52:
 127:Source\azure_iot_sdk\c-utility\src/buffer.c ****         b->buffer = NULL;
 383              		.loc 1 127 0
 384 0018 0023     		movs	r3, #0
 385 001a 2360     		str	r3, [r4]
 128:Source\azure_iot_sdk\c-utility\src/buffer.c ****         b->size = 0;
 386              		.loc 1 128 0
 387 001c 6360     		str	r3, [r4, #4]
 388              	.LVL53:
 129:Source\azure_iot_sdk\c-utility\src/buffer.c **** 
 130:Source\azure_iot_sdk\c-utility\src/buffer.c ****         result = 0;
 389              		.loc 1 130 0
 390 001e 0020     		movs	r0, #0
 391              	.LBE7:
 392 0020 24E0     		b	.L24
 393              	.LVL54:
 394              	.L25:
 131:Source\azure_iot_sdk\c-utility\src/buffer.c ****     }
 132:Source\azure_iot_sdk\c-utility\src/buffer.c ****     else
 133:Source\azure_iot_sdk\c-utility\src/buffer.c ****     {
 134:Source\azure_iot_sdk\c-utility\src/buffer.c ****         if (source == NULL)
 395              		.loc 1 134 0
 396 0022 0029     		cmp	r1, #0
 397 0024 1FD0     		beq	.L28
 398              	.LVL55:
 399              	.LBB8:
 135:Source\azure_iot_sdk\c-utility\src/buffer.c ****         {
 136:Source\azure_iot_sdk\c-utility\src/buffer.c ****             /* Codes_SRS_BUFFER_01_001: [If size is positive and source is NULL, BUFFER_build shall
 137:Source\azure_iot_sdk\c-utility\src/buffer.c ****             result = __FAILURE__;
 138:Source\azure_iot_sdk\c-utility\src/buffer.c ****         }
 139:Source\azure_iot_sdk\c-utility\src/buffer.c ****         else
 140:Source\azure_iot_sdk\c-utility\src/buffer.c ****         {
 141:Source\azure_iot_sdk\c-utility\src/buffer.c ****             BUFFER* b = (BUFFER*)handle;
 142:Source\azure_iot_sdk\c-utility\src/buffer.c ****             /* Codes_SRS_BUFFER_07_011: [BUFFER_build shall overwrite previous contents if the buff
 143:Source\azure_iot_sdk\c-utility\src/buffer.c ****             unsigned char* newBuffer = (unsigned char*)realloc(b->buffer, size);
 400              		.loc 1 143 0
 401 0026 1100     		movs	r1, r2
 402              	.LVL56:
 403 0028 0068     		ldr	r0, [r0]
 404              	.LVL57:
 405 002a FFF7FEFF 		bl	realloc
 406              	.LVL58:
 144:Source\azure_iot_sdk\c-utility\src/buffer.c ****             if (newBuffer == NULL)
 407              		.loc 1 144 0
 408 002e 0028     		cmp	r0, #0
 409 0030 0FD1     		bne	.L26
 410              	.LBB9:
 145:Source\azure_iot_sdk\c-utility\src/buffer.c ****             {
 146:Source\azure_iot_sdk\c-utility\src/buffer.c ****                 /* Codes_SRS_BUFFER_07_010: [BUFFER_build shall return nonzero if any error is enco
 147:Source\azure_iot_sdk\c-utility\src/buffer.c ****                 LogError("Failure reallocating buffer");
 411              		.loc 1 147 0 discriminator 3
 412 0032 FFF7FEFF 		bl	xlogging_get_log_function
 413              	.LVL59:
 414 0036 041E     		subs	r4, r0, #0
ARM GAS  C:\Users\Phuong\AppData\Local\Temp\ccVRtur0.s 			page 11


 415              	.LVL60:
 416 0038 17D0     		beq	.L29
 417              		.loc 1 147 0 is_stmt 0 discriminator 4
 418 003a 0D4B     		ldr	r3, .L30
 419 003c 0193     		str	r3, [sp, #4]
 420 003e 0123     		movs	r3, #1
 421 0040 0093     		str	r3, [sp]
 422 0042 9233     		adds	r3, r3, #146
 423 0044 0B4A     		ldr	r2, .L30+4
 424 0046 2432     		adds	r2, r2, #36
 425 0048 0B49     		ldr	r1, .L30+8
 426 004a 0020     		movs	r0, #0
 427              	.LVL61:
 428 004c A047     		blx	r4
 429              	.LVL62:
 430              	.LBE9:
 148:Source\azure_iot_sdk\c-utility\src/buffer.c ****                 result = __FAILURE__;
 431              		.loc 1 148 0 is_stmt 1 discriminator 4
 432 004e 9420     		movs	r0, #148
 433 0050 0CE0     		b	.L24
 434              	.LVL63:
 435              	.L26:
 149:Source\azure_iot_sdk\c-utility\src/buffer.c ****             }
 150:Source\azure_iot_sdk\c-utility\src/buffer.c ****             else
 151:Source\azure_iot_sdk\c-utility\src/buffer.c ****             {
 152:Source\azure_iot_sdk\c-utility\src/buffer.c ****                 b->buffer = newBuffer;
 436              		.loc 1 152 0
 437 0052 2060     		str	r0, [r4]
 153:Source\azure_iot_sdk\c-utility\src/buffer.c ****                 b->size = size;
 438              		.loc 1 153 0
 439 0054 6560     		str	r5, [r4, #4]
 154:Source\azure_iot_sdk\c-utility\src/buffer.c ****                 /* Codes_SRS_BUFFER_01_002: [The size argument can be zero, in which case nothing s
 155:Source\azure_iot_sdk\c-utility\src/buffer.c ****                 (void)memcpy(b->buffer, source, size);
 440              		.loc 1 155 0
 441 0056 2A00     		movs	r2, r5
 442 0058 3100     		movs	r1, r6
 443 005a FFF7FEFF 		bl	memcpy
 444              	.LVL64:
 156:Source\azure_iot_sdk\c-utility\src/buffer.c **** 
 157:Source\azure_iot_sdk\c-utility\src/buffer.c ****                 result = 0;
 445              		.loc 1 157 0
 446 005e 0020     		movs	r0, #0
 447 0060 04E0     		b	.L24
 448              	.LVL65:
 449              	.L27:
 450              	.LBE8:
 119:Source\azure_iot_sdk\c-utility\src/buffer.c ****     }
 451              		.loc 1 119 0
 452 0062 7720     		movs	r0, #119
 453              	.LVL66:
 454 0064 02E0     		b	.L24
 455              	.LVL67:
 456              	.L28:
 137:Source\azure_iot_sdk\c-utility\src/buffer.c ****         }
 457              		.loc 1 137 0
 458 0066 8920     		movs	r0, #137
 459              	.LVL68:
ARM GAS  C:\Users\Phuong\AppData\Local\Temp\ccVRtur0.s 			page 12


 460 0068 00E0     		b	.L24
 461              	.LVL69:
 462              	.L29:
 463              	.LBB10:
 148:Source\azure_iot_sdk\c-utility\src/buffer.c ****             }
 464              		.loc 1 148 0
 465 006a 9420     		movs	r0, #148
 466              	.LVL70:
 467              	.L24:
 468              	.LBE10:
 158:Source\azure_iot_sdk\c-utility\src/buffer.c ****             }
 159:Source\azure_iot_sdk\c-utility\src/buffer.c ****         }
 160:Source\azure_iot_sdk\c-utility\src/buffer.c ****     }
 161:Source\azure_iot_sdk\c-utility\src/buffer.c **** 
 162:Source\azure_iot_sdk\c-utility\src/buffer.c ****     return result;
 163:Source\azure_iot_sdk\c-utility\src/buffer.c **** }
 469              		.loc 1 163 0
 470 006c 02B0     		add	sp, sp, #8
 471              		@ sp needed
 472              	.LVL71:
 473              	.LVL72:
 474 006e 70BD     		pop	{r4, r5, r6, pc}
 475              	.L31:
 476              		.align	2
 477              	.L30:
 478 0070 A8000000 		.word	.LC15
 479 0074 00000000 		.word	.LANCHOR0
 480 0078 00000000 		.word	.LC1
 481              		.cfi_endproc
 482              	.LFE5:
 483              		.size	BUFFER_build, .-BUFFER_build
 484              		.section	.text.BUFFER_append_build,"ax",%progbits
 485              		.align	2
 486              		.global	BUFFER_append_build
 487              		.code	16
 488              		.thumb_func
 489              		.type	BUFFER_append_build, %function
 490              	BUFFER_append_build:
 491              	.LFB6:
 164:Source\azure_iot_sdk\c-utility\src/buffer.c **** 
 165:Source\azure_iot_sdk\c-utility\src/buffer.c **** int BUFFER_append_build(BUFFER_HANDLE handle, const unsigned char* source, size_t size)
 166:Source\azure_iot_sdk\c-utility\src/buffer.c **** {
 492              		.loc 1 166 0
 493              		.cfi_startproc
 494              		@ args = 0, pretend = 0, frame = 0
 495              		@ frame_needed = 0, uses_anonymous_args = 0
 496              	.LVL73:
 497 0000 F0B5     		push	{r4, r5, r6, r7, lr}
 498              		.cfi_def_cfa_offset 20
 499              		.cfi_offset 4, -20
 500              		.cfi_offset 5, -16
 501              		.cfi_offset 6, -12
 502              		.cfi_offset 7, -8
 503              		.cfi_offset 14, -4
 504 0002 87B0     		sub	sp, sp, #28
 505              		.cfi_def_cfa_offset 48
 506 0004 0400     		movs	r4, r0
ARM GAS  C:\Users\Phuong\AppData\Local\Temp\ccVRtur0.s 			page 13


 507 0006 0E00     		movs	r6, r1
 508 0008 1500     		movs	r5, r2
 167:Source\azure_iot_sdk\c-utility\src/buffer.c ****     int result;
 168:Source\azure_iot_sdk\c-utility\src/buffer.c ****     if (handle == NULL || source == NULL || size == 0)
 509              		.loc 1 168 0
 510 000a 0028     		cmp	r0, #0
 511 000c 03D0     		beq	.L33
 512              		.loc 1 168 0 is_stmt 0 discriminator 1
 513 000e 0029     		cmp	r1, #0
 514 0010 01D0     		beq	.L33
 515              		.loc 1 168 0 discriminator 2
 516 0012 002A     		cmp	r2, #0
 517 0014 12D1     		bne	.L34
 518              	.L33:
 519              	.LBB11:
 169:Source\azure_iot_sdk\c-utility\src/buffer.c ****     {
 170:Source\azure_iot_sdk\c-utility\src/buffer.c ****         /* Codes_SRS_BUFFER_07_029: [ BUFFER_append_build shall return nonzero if handle or source 
 171:Source\azure_iot_sdk\c-utility\src/buffer.c ****         LogError("BUFFER_append_build failed invalid parameter handle: %p, source: %p, size: %lu", 
 520              		.loc 1 171 0 is_stmt 1 discriminator 3
 521 0016 FFF7FEFF 		bl	xlogging_get_log_function
 522              	.LVL74:
 523 001a 071E     		subs	r7, r0, #0
 524              	.LVL75:
 525 001c 52D0     		beq	.L39
 526              		.loc 1 171 0 is_stmt 0 discriminator 4
 527 001e 0495     		str	r5, [sp, #16]
 528 0020 0396     		str	r6, [sp, #12]
 529 0022 0294     		str	r4, [sp, #8]
 530 0024 2B4B     		ldr	r3, .L42
 531 0026 0193     		str	r3, [sp, #4]
 532 0028 0123     		movs	r3, #1
 533 002a 0093     		str	r3, [sp]
 534 002c AA33     		adds	r3, r3, #170
 535 002e 2A4A     		ldr	r2, .L42+4
 536 0030 3432     		adds	r2, r2, #52
 537 0032 2A49     		ldr	r1, .L42+8
 538 0034 0020     		movs	r0, #0
 539              	.LVL76:
 540 0036 B847     		blx	r7
 541              	.LVL77:
 542              	.LBE11:
 172:Source\azure_iot_sdk\c-utility\src/buffer.c ****         result = __FAILURE__;
 543              		.loc 1 172 0 is_stmt 1 discriminator 4
 544 0038 AC20     		movs	r0, #172
 545 003a 48E0     		b	.L35
 546              	.LVL78:
 547              	.L34:
 173:Source\azure_iot_sdk\c-utility\src/buffer.c ****     }
 174:Source\azure_iot_sdk\c-utility\src/buffer.c ****     else
 175:Source\azure_iot_sdk\c-utility\src/buffer.c ****     {
 176:Source\azure_iot_sdk\c-utility\src/buffer.c ****         if (handle->buffer == NULL)
 548              		.loc 1 176 0
 549 003c 0068     		ldr	r0, [r0]
 550              	.LVL79:
 551 003e 0028     		cmp	r0, #0
 552 0040 1CD1     		bne	.L36
 177:Source\azure_iot_sdk\c-utility\src/buffer.c ****         {
ARM GAS  C:\Users\Phuong\AppData\Local\Temp\ccVRtur0.s 			page 14


 178:Source\azure_iot_sdk\c-utility\src/buffer.c ****             /* Codes_SRS_BUFFER_07_030: [ if handle->buffer is NULL BUFFER_append_build shall alloc
 179:Source\azure_iot_sdk\c-utility\src/buffer.c ****             if (BUFFER_safemalloc(handle, size) != 0)
 553              		.loc 1 179 0
 554 0042 1100     		movs	r1, r2
 555              	.LVL80:
 556 0044 2000     		movs	r0, r4
 557 0046 FFF7FEFF 		bl	BUFFER_safemalloc
 558              	.LVL81:
 559 004a 0028     		cmp	r0, #0
 560 004c 0FD0     		beq	.L37
 561              	.LBB12:
 180:Source\azure_iot_sdk\c-utility\src/buffer.c ****             {
 181:Source\azure_iot_sdk\c-utility\src/buffer.c ****                 /* Codes_SRS_BUFFER_07_035: [ If any error is encountered BUFFER_append_build shall
 182:Source\azure_iot_sdk\c-utility\src/buffer.c ****                 LogError("Failure with BUFFER_safemalloc");
 562              		.loc 1 182 0 discriminator 3
 563 004e FFF7FEFF 		bl	xlogging_get_log_function
 564              	.LVL82:
 565 0052 041E     		subs	r4, r0, #0
 566              	.LVL83:
 567 0054 38D0     		beq	.L40
 568              		.loc 1 182 0 is_stmt 0 discriminator 4
 569 0056 224B     		ldr	r3, .L42+12
 570 0058 0193     		str	r3, [sp, #4]
 571 005a 0123     		movs	r3, #1
 572 005c 0093     		str	r3, [sp]
 573 005e B533     		adds	r3, r3, #181
 574 0060 1D4A     		ldr	r2, .L42+4
 575 0062 3432     		adds	r2, r2, #52
 576 0064 1D49     		ldr	r1, .L42+8
 577 0066 0020     		movs	r0, #0
 578              	.LVL84:
 579 0068 A047     		blx	r4
 580              	.LVL85:
 581              	.LBE12:
 183:Source\azure_iot_sdk\c-utility\src/buffer.c ****                 result = __FAILURE__;
 582              		.loc 1 183 0 is_stmt 1 discriminator 4
 583 006a B720     		movs	r0, #183
 584 006c 2FE0     		b	.L35
 585              	.LVL86:
 586              	.L37:
 184:Source\azure_iot_sdk\c-utility\src/buffer.c ****             }
 185:Source\azure_iot_sdk\c-utility\src/buffer.c ****             else
 186:Source\azure_iot_sdk\c-utility\src/buffer.c ****             {
 187:Source\azure_iot_sdk\c-utility\src/buffer.c ****                 /* Codes_SRS_BUFFER_07_031: [ ... and copy the contents of source to handle->buffer
 188:Source\azure_iot_sdk\c-utility\src/buffer.c ****                 (void)memcpy(handle->buffer, source, size);
 587              		.loc 1 188 0
 588 006e 2068     		ldr	r0, [r4]
 589 0070 2A00     		movs	r2, r5
 590 0072 3100     		movs	r1, r6
 591 0074 FFF7FEFF 		bl	memcpy
 592              	.LVL87:
 189:Source\azure_iot_sdk\c-utility\src/buffer.c ****                 /* Codes_SRS_BUFFER_07_034: [ On success BUFFER_append_build shall return 0 ] */
 190:Source\azure_iot_sdk\c-utility\src/buffer.c ****                 result = 0;
 593              		.loc 1 190 0
 594 0078 0020     		movs	r0, #0
 595 007a 28E0     		b	.L35
 596              	.LVL88:
ARM GAS  C:\Users\Phuong\AppData\Local\Temp\ccVRtur0.s 			page 15


 597              	.L36:
 598              	.LBB13:
 191:Source\azure_iot_sdk\c-utility\src/buffer.c ****             }
 192:Source\azure_iot_sdk\c-utility\src/buffer.c ****         }
 193:Source\azure_iot_sdk\c-utility\src/buffer.c ****         else
 194:Source\azure_iot_sdk\c-utility\src/buffer.c ****         {
 195:Source\azure_iot_sdk\c-utility\src/buffer.c ****             /* Codes_SRS_BUFFER_07_032: [ if handle->buffer is not NULL BUFFER_append_build shall r
 196:Source\azure_iot_sdk\c-utility\src/buffer.c ****             unsigned char* temp = (unsigned char*)realloc(handle->buffer, handle->size + size);
 599              		.loc 1 196 0
 600 007c 6368     		ldr	r3, [r4, #4]
 601 007e D118     		adds	r1, r2, r3
 602              	.LVL89:
 603 0080 FFF7FEFF 		bl	realloc
 604              	.LVL90:
 197:Source\azure_iot_sdk\c-utility\src/buffer.c ****             if (temp == NULL)
 605              		.loc 1 197 0
 606 0084 0028     		cmp	r0, #0
 607 0086 0FD1     		bne	.L38
 608              	.LBB14:
 198:Source\azure_iot_sdk\c-utility\src/buffer.c ****             {
 199:Source\azure_iot_sdk\c-utility\src/buffer.c ****                 /* Codes_SRS_BUFFER_07_035: [ If any error is encountered BUFFER_append_build shall
 200:Source\azure_iot_sdk\c-utility\src/buffer.c ****                 LogError("Failure reallocating temporary buffer");
 609              		.loc 1 200 0 discriminator 3
 610 0088 FFF7FEFF 		bl	xlogging_get_log_function
 611              	.LVL91:
 612 008c 041E     		subs	r4, r0, #0
 613              	.LVL92:
 614 008e 1DD0     		beq	.L41
 615              		.loc 1 200 0 is_stmt 0 discriminator 4
 616 0090 144B     		ldr	r3, .L42+16
 617 0092 0193     		str	r3, [sp, #4]
 618 0094 0123     		movs	r3, #1
 619 0096 0093     		str	r3, [sp]
 620 0098 C733     		adds	r3, r3, #199
 621 009a 0F4A     		ldr	r2, .L42+4
 622 009c 3432     		adds	r2, r2, #52
 623 009e 0F49     		ldr	r1, .L42+8
 624 00a0 0020     		movs	r0, #0
 625              	.LVL93:
 626 00a2 A047     		blx	r4
 627              	.LVL94:
 628              	.LBE14:
 201:Source\azure_iot_sdk\c-utility\src/buffer.c ****                 result = __FAILURE__;
 629              		.loc 1 201 0 is_stmt 1 discriminator 4
 630 00a4 C920     		movs	r0, #201
 631 00a6 12E0     		b	.L35
 632              	.LVL95:
 633              	.L38:
 202:Source\azure_iot_sdk\c-utility\src/buffer.c ****             }
 203:Source\azure_iot_sdk\c-utility\src/buffer.c ****             else
 204:Source\azure_iot_sdk\c-utility\src/buffer.c ****             {
 205:Source\azure_iot_sdk\c-utility\src/buffer.c ****                 /* Codes_SRS_BUFFER_07_033: [ ... and copy the contents of source to the end of the
 206:Source\azure_iot_sdk\c-utility\src/buffer.c ****                 handle->buffer = temp;
 634              		.loc 1 206 0
 635 00a8 2060     		str	r0, [r4]
 207:Source\azure_iot_sdk\c-utility\src/buffer.c ****                 // Append the BUFFER
 208:Source\azure_iot_sdk\c-utility\src/buffer.c ****                 (void)memcpy(&handle->buffer[handle->size], source, size);
ARM GAS  C:\Users\Phuong\AppData\Local\Temp\ccVRtur0.s 			page 16


 636              		.loc 1 208 0
 637 00aa 6368     		ldr	r3, [r4, #4]
 638 00ac 9C46     		mov	ip, r3
 639 00ae 6044     		add	r0, r0, ip
 640              	.LVL96:
 641 00b0 2A00     		movs	r2, r5
 642 00b2 3100     		movs	r1, r6
 643 00b4 FFF7FEFF 		bl	memcpy
 644              	.LVL97:
 209:Source\azure_iot_sdk\c-utility\src/buffer.c ****                 handle->size += size;
 645              		.loc 1 209 0
 646 00b8 6368     		ldr	r3, [r4, #4]
 647 00ba 9C46     		mov	ip, r3
 648 00bc 6544     		add	r5, r5, ip
 649              	.LVL98:
 650 00be 6560     		str	r5, [r4, #4]
 651              	.LVL99:
 210:Source\azure_iot_sdk\c-utility\src/buffer.c ****                 /* Codes_SRS_BUFFER_07_034: [ On success BUFFER_append_build shall return 0 ] */
 211:Source\azure_iot_sdk\c-utility\src/buffer.c ****                 result = 0;
 652              		.loc 1 211 0
 653 00c0 0020     		movs	r0, #0
 654 00c2 04E0     		b	.L35
 655              	.LVL100:
 656              	.L39:
 657              	.LBE13:
 172:Source\azure_iot_sdk\c-utility\src/buffer.c ****     }
 658              		.loc 1 172 0
 659 00c4 AC20     		movs	r0, #172
 660              	.LVL101:
 661 00c6 02E0     		b	.L35
 662              	.LVL102:
 663              	.L40:
 183:Source\azure_iot_sdk\c-utility\src/buffer.c ****             }
 664              		.loc 1 183 0
 665 00c8 B720     		movs	r0, #183
 666              	.LVL103:
 667 00ca 00E0     		b	.L35
 668              	.LVL104:
 669              	.L41:
 670              	.LBB15:
 201:Source\azure_iot_sdk\c-utility\src/buffer.c ****             }
 671              		.loc 1 201 0
 672 00cc C920     		movs	r0, #201
 673              	.LVL105:
 674              	.L35:
 675              	.LBE15:
 212:Source\azure_iot_sdk\c-utility\src/buffer.c ****             }
 213:Source\azure_iot_sdk\c-utility\src/buffer.c ****         }
 214:Source\azure_iot_sdk\c-utility\src/buffer.c ****     }
 215:Source\azure_iot_sdk\c-utility\src/buffer.c ****     return result;
 216:Source\azure_iot_sdk\c-utility\src/buffer.c **** }
 676              		.loc 1 216 0
 677 00ce 07B0     		add	sp, sp, #28
 678              		@ sp needed
 679              	.LVL106:
 680 00d0 F0BD     		pop	{r4, r5, r6, r7, pc}
 681              	.L43:
ARM GAS  C:\Users\Phuong\AppData\Local\Temp\ccVRtur0.s 			page 17


 682 00d2 C046     		.align	2
 683              	.L42:
 684 00d4 C4000000 		.word	.LC19
 685 00d8 00000000 		.word	.LANCHOR0
 686 00dc 00000000 		.word	.LC1
 687 00e0 14010000 		.word	.LC21
 688 00e4 34010000 		.word	.LC23
 689              		.cfi_endproc
 690              	.LFE6:
 691              		.size	BUFFER_append_build, .-BUFFER_append_build
 692              		.section	.text.BUFFER_pre_build,"ax",%progbits
 693              		.align	2
 694              		.global	BUFFER_pre_build
 695              		.code	16
 696              		.thumb_func
 697              		.type	BUFFER_pre_build, %function
 698              	BUFFER_pre_build:
 699              	.LFB7:
 217:Source\azure_iot_sdk\c-utility\src/buffer.c **** 
 218:Source\azure_iot_sdk\c-utility\src/buffer.c **** /*return 0 if the buffer was pre-build(that is, had its space allocated)*/
 219:Source\azure_iot_sdk\c-utility\src/buffer.c **** /*else return different than zero*/
 220:Source\azure_iot_sdk\c-utility\src/buffer.c **** /* Codes_SRS_BUFFER_07_005: [BUFFER_pre_build allocates size_t bytes of BUFFER_HANDLE and returns z
 221:Source\azure_iot_sdk\c-utility\src/buffer.c **** int BUFFER_pre_build(BUFFER_HANDLE handle, size_t size)
 222:Source\azure_iot_sdk\c-utility\src/buffer.c **** {
 700              		.loc 1 222 0
 701              		.cfi_startproc
 702              		@ args = 0, pretend = 0, frame = 0
 703              		@ frame_needed = 0, uses_anonymous_args = 0
 704              	.LVL107:
 705 0000 30B5     		push	{r4, r5, lr}
 706              		.cfi_def_cfa_offset 12
 707              		.cfi_offset 4, -12
 708              		.cfi_offset 5, -8
 709              		.cfi_offset 14, -4
 710 0002 83B0     		sub	sp, sp, #12
 711              		.cfi_def_cfa_offset 24
 712 0004 0400     		movs	r4, r0
 713 0006 0D00     		movs	r5, r1
 223:Source\azure_iot_sdk\c-utility\src/buffer.c ****     int result;
 224:Source\azure_iot_sdk\c-utility\src/buffer.c ****     if (handle == NULL)
 714              		.loc 1 224 0
 715 0008 0028     		cmp	r0, #0
 716 000a 2DD0     		beq	.L48
 225:Source\azure_iot_sdk\c-utility\src/buffer.c ****     {
 226:Source\azure_iot_sdk\c-utility\src/buffer.c ****         /* Codes_SRS_BUFFER_07_006: [If handle is NULL or size is 0 then BUFFER_pre_build shall ret
 227:Source\azure_iot_sdk\c-utility\src/buffer.c ****         result = __FAILURE__;
 228:Source\azure_iot_sdk\c-utility\src/buffer.c ****     }
 229:Source\azure_iot_sdk\c-utility\src/buffer.c ****     else if (size == 0)
 717              		.loc 1 229 0
 718 000c 0029     		cmp	r1, #0
 719 000e 2DD0     		beq	.L49
 720              	.LVL108:
 721              	.LBB16:
 230:Source\azure_iot_sdk\c-utility\src/buffer.c ****     {
 231:Source\azure_iot_sdk\c-utility\src/buffer.c ****         /* Codes_SRS_BUFFER_07_006: [If handle is NULL or size is 0 then BUFFER_pre_build shall ret
 232:Source\azure_iot_sdk\c-utility\src/buffer.c ****         result = __FAILURE__;
 233:Source\azure_iot_sdk\c-utility\src/buffer.c ****     }
ARM GAS  C:\Users\Phuong\AppData\Local\Temp\ccVRtur0.s 			page 18


 234:Source\azure_iot_sdk\c-utility\src/buffer.c ****     else
 235:Source\azure_iot_sdk\c-utility\src/buffer.c ****     {
 236:Source\azure_iot_sdk\c-utility\src/buffer.c ****         BUFFER* b = (BUFFER*)handle;
 237:Source\azure_iot_sdk\c-utility\src/buffer.c ****         if (b->buffer != NULL)
 722              		.loc 1 237 0
 723 0010 0368     		ldr	r3, [r0]
 724 0012 002B     		cmp	r3, #0
 725 0014 0FD0     		beq	.L46
 726              	.LBB17:
 238:Source\azure_iot_sdk\c-utility\src/buffer.c ****         {
 239:Source\azure_iot_sdk\c-utility\src/buffer.c ****             /* Codes_SRS_BUFFER_07_007: [BUFFER_pre_build shall return nonzero if the buffer has be
 240:Source\azure_iot_sdk\c-utility\src/buffer.c ****             LogError("Failure buffer data is NULL");
 727              		.loc 1 240 0 discriminator 3
 728 0016 FFF7FEFF 		bl	xlogging_get_log_function
 729              	.LVL109:
 730 001a 041E     		subs	r4, r0, #0
 731              	.LVL110:
 732 001c 28D0     		beq	.L50
 733              		.loc 1 240 0 is_stmt 0 discriminator 4
 734 001e 174B     		ldr	r3, .L52
 735 0020 0193     		str	r3, [sp, #4]
 736 0022 0123     		movs	r3, #1
 737 0024 0093     		str	r3, [sp]
 738 0026 EF33     		adds	r3, r3, #239
 739 0028 154A     		ldr	r2, .L52+4
 740 002a 4832     		adds	r2, r2, #72
 741 002c 1549     		ldr	r1, .L52+8
 742 002e 0020     		movs	r0, #0
 743              	.LVL111:
 744 0030 A047     		blx	r4
 745              	.LVL112:
 746              	.LBE17:
 241:Source\azure_iot_sdk\c-utility\src/buffer.c ****             result = __FAILURE__;
 747              		.loc 1 241 0 is_stmt 1 discriminator 4
 748 0032 F120     		movs	r0, #241
 749 0034 1FE0     		b	.L45
 750              	.LVL113:
 751              	.L46:
 242:Source\azure_iot_sdk\c-utility\src/buffer.c ****         }
 243:Source\azure_iot_sdk\c-utility\src/buffer.c ****         else
 244:Source\azure_iot_sdk\c-utility\src/buffer.c ****         {
 245:Source\azure_iot_sdk\c-utility\src/buffer.c ****             if ((b->buffer = (unsigned char*)malloc(size)) == NULL)
 752              		.loc 1 245 0
 753 0036 0800     		movs	r0, r1
 754              	.LVL114:
 755 0038 FFF7FEFF 		bl	malloc
 756              	.LVL115:
 757 003c 2060     		str	r0, [r4]
 758 003e 0028     		cmp	r0, #0
 759 0040 0FD1     		bne	.L47
 760              	.LBB18:
 246:Source\azure_iot_sdk\c-utility\src/buffer.c ****             {
 247:Source\azure_iot_sdk\c-utility\src/buffer.c ****                 /* Codes_SRS_BUFFER_07_013: [BUFFER_pre_build shall return nonzero if any error is 
 248:Source\azure_iot_sdk\c-utility\src/buffer.c ****                 LogError("Failure allocating buffer");
 761              		.loc 1 248 0 discriminator 3
 762 0042 FFF7FEFF 		bl	xlogging_get_log_function
 763              	.LVL116:
ARM GAS  C:\Users\Phuong\AppData\Local\Temp\ccVRtur0.s 			page 19


 764 0046 041E     		subs	r4, r0, #0
 765              	.LVL117:
 766 0048 14D0     		beq	.L51
 767              		.loc 1 248 0 is_stmt 0 discriminator 4
 768 004a 0F4B     		ldr	r3, .L52+12
 769 004c 0193     		str	r3, [sp, #4]
 770 004e 0123     		movs	r3, #1
 771 0050 0093     		str	r3, [sp]
 772 0052 F733     		adds	r3, r3, #247
 773 0054 0A4A     		ldr	r2, .L52+4
 774 0056 4832     		adds	r2, r2, #72
 775 0058 0A49     		ldr	r1, .L52+8
 776 005a 0020     		movs	r0, #0
 777              	.LVL118:
 778 005c A047     		blx	r4
 779              	.LVL119:
 780              	.LBE18:
 249:Source\azure_iot_sdk\c-utility\src/buffer.c ****                 result = __FAILURE__;
 781              		.loc 1 249 0 is_stmt 1 discriminator 4
 782 005e F920     		movs	r0, #249
 783 0060 09E0     		b	.L45
 784              	.LVL120:
 785              	.L47:
 250:Source\azure_iot_sdk\c-utility\src/buffer.c ****             }
 251:Source\azure_iot_sdk\c-utility\src/buffer.c ****             else
 252:Source\azure_iot_sdk\c-utility\src/buffer.c ****             {
 253:Source\azure_iot_sdk\c-utility\src/buffer.c ****                 b->size = size;
 786              		.loc 1 253 0
 787 0062 6560     		str	r5, [r4, #4]
 788              	.LVL121:
 254:Source\azure_iot_sdk\c-utility\src/buffer.c ****                 result = 0;
 789              		.loc 1 254 0
 790 0064 0020     		movs	r0, #0
 791 0066 06E0     		b	.L45
 792              	.LVL122:
 793              	.L48:
 794              	.LBE16:
 227:Source\azure_iot_sdk\c-utility\src/buffer.c ****     }
 795              		.loc 1 227 0
 796 0068 E320     		movs	r0, #227
 797              	.LVL123:
 798 006a 04E0     		b	.L45
 799              	.LVL124:
 800              	.L49:
 232:Source\azure_iot_sdk\c-utility\src/buffer.c ****     }
 801              		.loc 1 232 0
 802 006c E820     		movs	r0, #232
 803              	.LVL125:
 804 006e 02E0     		b	.L45
 805              	.LVL126:
 806              	.L50:
 807              	.LBB19:
 241:Source\azure_iot_sdk\c-utility\src/buffer.c ****         }
 808              		.loc 1 241 0
 809 0070 F120     		movs	r0, #241
 810              	.LVL127:
 811 0072 00E0     		b	.L45
ARM GAS  C:\Users\Phuong\AppData\Local\Temp\ccVRtur0.s 			page 20


 812              	.LVL128:
 813              	.L51:
 249:Source\azure_iot_sdk\c-utility\src/buffer.c ****             }
 814              		.loc 1 249 0
 815 0074 F920     		movs	r0, #249
 816              	.LVL129:
 817              	.L45:
 818              	.LBE19:
 255:Source\azure_iot_sdk\c-utility\src/buffer.c ****             }
 256:Source\azure_iot_sdk\c-utility\src/buffer.c ****         }
 257:Source\azure_iot_sdk\c-utility\src/buffer.c ****     }
 258:Source\azure_iot_sdk\c-utility\src/buffer.c ****     return result;
 259:Source\azure_iot_sdk\c-utility\src/buffer.c **** }
 819              		.loc 1 259 0
 820 0076 03B0     		add	sp, sp, #12
 821              		@ sp needed
 822              	.LVL130:
 823 0078 30BD     		pop	{r4, r5, pc}
 824              	.L53:
 825 007a C046     		.align	2
 826              	.L52:
 827 007c 5C010000 		.word	.LC27
 828 0080 00000000 		.word	.LANCHOR0
 829 0084 00000000 		.word	.LC1
 830 0088 78010000 		.word	.LC29
 831              		.cfi_endproc
 832              	.LFE7:
 833              		.size	BUFFER_pre_build, .-BUFFER_pre_build
 834              		.section	.text.BUFFER_content,"ax",%progbits
 835              		.align	2
 836              		.global	BUFFER_content
 837              		.code	16
 838              		.thumb_func
 839              		.type	BUFFER_content, %function
 840              	BUFFER_content:
 841              	.LFB8:
 260:Source\azure_iot_sdk\c-utility\src/buffer.c **** 
 261:Source\azure_iot_sdk\c-utility\src/buffer.c **** /* Codes_SRS_BUFFER_07_019: [BUFFER_content shall return the data contained within the BUFFER_HANDL
 262:Source\azure_iot_sdk\c-utility\src/buffer.c **** int BUFFER_content(BUFFER_HANDLE handle, const unsigned char** content)
 263:Source\azure_iot_sdk\c-utility\src/buffer.c **** {
 842              		.loc 1 263 0
 843              		.cfi_startproc
 844              		@ args = 0, pretend = 0, frame = 0
 845              		@ frame_needed = 0, uses_anonymous_args = 0
 846              		@ link register save eliminated.
 847              	.LVL131:
 264:Source\azure_iot_sdk\c-utility\src/buffer.c ****     int result;
 265:Source\azure_iot_sdk\c-utility\src/buffer.c ****     if ((handle == NULL) || (content == NULL))
 848              		.loc 1 265 0
 849 0000 0028     		cmp	r0, #0
 850 0002 05D0     		beq	.L56
 851              		.loc 1 265 0 is_stmt 0 discriminator 1
 852 0004 0029     		cmp	r1, #0
 853 0006 06D0     		beq	.L57
 854              	.LVL132:
 855              	.LBB20:
 266:Source\azure_iot_sdk\c-utility\src/buffer.c ****     {
ARM GAS  C:\Users\Phuong\AppData\Local\Temp\ccVRtur0.s 			page 21


 267:Source\azure_iot_sdk\c-utility\src/buffer.c ****         /* Codes_SRS_BUFFER_07_020: [If the handle and/or content*is NULL BUFFER_content shall retu
 268:Source\azure_iot_sdk\c-utility\src/buffer.c ****         result = __FAILURE__;
 269:Source\azure_iot_sdk\c-utility\src/buffer.c ****     }
 270:Source\azure_iot_sdk\c-utility\src/buffer.c ****     else
 271:Source\azure_iot_sdk\c-utility\src/buffer.c ****     {
 272:Source\azure_iot_sdk\c-utility\src/buffer.c ****         BUFFER* b = (BUFFER*)handle;
 273:Source\azure_iot_sdk\c-utility\src/buffer.c ****         *content = b->buffer;
 856              		.loc 1 273 0 is_stmt 1
 857 0008 0368     		ldr	r3, [r0]
 858 000a 0B60     		str	r3, [r1]
 859              	.LVL133:
 274:Source\azure_iot_sdk\c-utility\src/buffer.c ****         result = 0;
 860              		.loc 1 274 0
 861 000c 0020     		movs	r0, #0
 862              	.LVL134:
 863 000e 04E0     		b	.L55
 864              	.LVL135:
 865              	.L56:
 866              	.LBE20:
 268:Source\azure_iot_sdk\c-utility\src/buffer.c ****     }
 867              		.loc 1 268 0
 868 0010 8620     		movs	r0, #134
 869              	.LVL136:
 870 0012 4000     		lsls	r0, r0, #1
 871 0014 01E0     		b	.L55
 872              	.LVL137:
 873              	.L57:
 874 0016 8620     		movs	r0, #134
 875              	.LVL138:
 876 0018 4000     		lsls	r0, r0, #1
 877              	.L55:
 878              	.LVL139:
 275:Source\azure_iot_sdk\c-utility\src/buffer.c ****     }
 276:Source\azure_iot_sdk\c-utility\src/buffer.c ****     return result;
 277:Source\azure_iot_sdk\c-utility\src/buffer.c **** }
 879              		.loc 1 277 0
 880              		@ sp needed
 881 001a 7047     		bx	lr
 882              		.cfi_endproc
 883              	.LFE8:
 884              		.size	BUFFER_content, .-BUFFER_content
 885              		.section	.text.BUFFER_unbuild,"ax",%progbits
 886              		.align	2
 887              		.global	BUFFER_unbuild
 888              		.code	16
 889              		.thumb_func
 890              		.type	BUFFER_unbuild, %function
 891              	BUFFER_unbuild:
 892              	.LFB9:
 278:Source\azure_iot_sdk\c-utility\src/buffer.c **** 
 279:Source\azure_iot_sdk\c-utility\src/buffer.c **** /*return 0 if everything went ok and whatever was built in the buffer was unbuilt*/
 280:Source\azure_iot_sdk\c-utility\src/buffer.c **** /* Codes_SRS_BUFFER_07_012: [BUFFER_unbuild shall clear the underlying unsigned char* data associat
 281:Source\azure_iot_sdk\c-utility\src/buffer.c **** extern int BUFFER_unbuild(BUFFER_HANDLE handle)
 282:Source\azure_iot_sdk\c-utility\src/buffer.c **** {
 893              		.loc 1 282 0
 894              		.cfi_startproc
 895              		@ args = 0, pretend = 0, frame = 0
ARM GAS  C:\Users\Phuong\AppData\Local\Temp\ccVRtur0.s 			page 22


 896              		@ frame_needed = 0, uses_anonymous_args = 0
 897              	.LVL140:
 898 0000 30B5     		push	{r4, r5, lr}
 899              		.cfi_def_cfa_offset 12
 900              		.cfi_offset 4, -12
 901              		.cfi_offset 5, -8
 902              		.cfi_offset 14, -4
 903 0002 83B0     		sub	sp, sp, #12
 904              		.cfi_def_cfa_offset 24
 905 0004 041E     		subs	r4, r0, #0
 283:Source\azure_iot_sdk\c-utility\src/buffer.c ****     int result;
 284:Source\azure_iot_sdk\c-utility\src/buffer.c ****     if (handle == NULL)
 906              		.loc 1 284 0
 907 0006 19D0     		beq	.L61
 908              	.LVL141:
 909              	.LBB21:
 285:Source\azure_iot_sdk\c-utility\src/buffer.c ****     {
 286:Source\azure_iot_sdk\c-utility\src/buffer.c ****         /* Codes_SRS_BUFFER_07_014: [BUFFER_unbuild shall return a nonzero value if BUFFER_HANDLE i
 287:Source\azure_iot_sdk\c-utility\src/buffer.c ****         result = __FAILURE__;
 288:Source\azure_iot_sdk\c-utility\src/buffer.c ****     }
 289:Source\azure_iot_sdk\c-utility\src/buffer.c ****     else
 290:Source\azure_iot_sdk\c-utility\src/buffer.c ****     {
 291:Source\azure_iot_sdk\c-utility\src/buffer.c ****         BUFFER* b = (BUFFER*)handle;
 292:Source\azure_iot_sdk\c-utility\src/buffer.c ****         if (b->buffer != NULL)
 910              		.loc 1 292 0
 911 0008 0368     		ldr	r3, [r0]
 912 000a 002B     		cmp	r3, #0
 913 000c 19D0     		beq	.L62
 914              	.LBB22:
 293:Source\azure_iot_sdk\c-utility\src/buffer.c ****         {
 294:Source\azure_iot_sdk\c-utility\src/buffer.c ****             LogError("Failure buffer data is NULL");
 915              		.loc 1 294 0 discriminator 3
 916 000e FFF7FEFF 		bl	xlogging_get_log_function
 917              	.LVL142:
 918 0012 051E     		subs	r5, r0, #0
 919              	.LVL143:
 920 0014 0AD0     		beq	.L60
 921              		.loc 1 294 0 is_stmt 0 discriminator 4
 922 0016 0D4B     		ldr	r3, .L63
 923 0018 0193     		str	r3, [sp, #4]
 924 001a 0123     		movs	r3, #1
 925 001c 0093     		str	r3, [sp]
 926 001e 2633     		adds	r3, r3, #38
 927 0020 FF33     		adds	r3, r3, #255
 928 0022 0B4A     		ldr	r2, .L63+4
 929 0024 5C32     		adds	r2, r2, #92
 930 0026 0B49     		ldr	r1, .L63+8
 931 0028 0020     		movs	r0, #0
 932              	.LVL144:
 933 002a A847     		blx	r5
 934              	.LVL145:
 935              	.L60:
 936              	.LBE22:
 295:Source\azure_iot_sdk\c-utility\src/buffer.c ****             free(b->buffer);
 937              		.loc 1 295 0 is_stmt 1
 938 002c 2068     		ldr	r0, [r4]
 939 002e FFF7FEFF 		bl	free
ARM GAS  C:\Users\Phuong\AppData\Local\Temp\ccVRtur0.s 			page 23


 940              	.LVL146:
 296:Source\azure_iot_sdk\c-utility\src/buffer.c ****             b->buffer = NULL;
 941              		.loc 1 296 0
 942 0032 0023     		movs	r3, #0
 943 0034 2360     		str	r3, [r4]
 297:Source\azure_iot_sdk\c-utility\src/buffer.c ****             b->size = 0;
 944              		.loc 1 297 0
 945 0036 6360     		str	r3, [r4, #4]
 946              	.LVL147:
 298:Source\azure_iot_sdk\c-utility\src/buffer.c ****             result = 0;
 947              		.loc 1 298 0
 948 0038 0020     		movs	r0, #0
 949 003a 04E0     		b	.L59
 950              	.LVL148:
 951              	.L61:
 952              	.LBE21:
 287:Source\azure_iot_sdk\c-utility\src/buffer.c ****     }
 953              		.loc 1 287 0
 954 003c 2020     		movs	r0, #32
 955              	.LVL149:
 956 003e FF30     		adds	r0, r0, #255
 957 0040 01E0     		b	.L59
 958              	.LVL150:
 959              	.L62:
 960              	.LBB23:
 299:Source\azure_iot_sdk\c-utility\src/buffer.c ****         }
 300:Source\azure_iot_sdk\c-utility\src/buffer.c ****         else
 301:Source\azure_iot_sdk\c-utility\src/buffer.c ****         {
 302:Source\azure_iot_sdk\c-utility\src/buffer.c ****             /* Codes_SRS_BUFFER_07_015: [BUFFER_unbuild shall return a nonzero value if the unsigne
 303:Source\azure_iot_sdk\c-utility\src/buffer.c ****             result = __FAILURE__;
 961              		.loc 1 303 0
 962 0042 3020     		movs	r0, #48
 963              	.LVL151:
 964 0044 FF30     		adds	r0, r0, #255
 965              	.LVL152:
 966              	.L59:
 967              	.LBE23:
 304:Source\azure_iot_sdk\c-utility\src/buffer.c ****         }
 305:Source\azure_iot_sdk\c-utility\src/buffer.c ****     }
 306:Source\azure_iot_sdk\c-utility\src/buffer.c ****     return result;
 307:Source\azure_iot_sdk\c-utility\src/buffer.c **** }
 968              		.loc 1 307 0
 969 0046 03B0     		add	sp, sp, #12
 970              		@ sp needed
 971              	.LVL153:
 972 0048 30BD     		pop	{r4, r5, pc}
 973              	.L64:
 974 004a C046     		.align	2
 975              	.L63:
 976 004c 5C010000 		.word	.LC27
 977 0050 00000000 		.word	.LANCHOR0
 978 0054 00000000 		.word	.LC1
 979              		.cfi_endproc
 980              	.LFE9:
 981              		.size	BUFFER_unbuild, .-BUFFER_unbuild
 982              		.section	.text.BUFFER_enlarge,"ax",%progbits
 983              		.align	2
ARM GAS  C:\Users\Phuong\AppData\Local\Temp\ccVRtur0.s 			page 24


 984              		.global	BUFFER_enlarge
 985              		.code	16
 986              		.thumb_func
 987              		.type	BUFFER_enlarge, %function
 988              	BUFFER_enlarge:
 989              	.LFB10:
 308:Source\azure_iot_sdk\c-utility\src/buffer.c **** 
 309:Source\azure_iot_sdk\c-utility\src/buffer.c **** /* Codes_SRS_BUFFER_07_016: [BUFFER_enlarge shall increase the size of the unsigned char* reference
 310:Source\azure_iot_sdk\c-utility\src/buffer.c **** int BUFFER_enlarge(BUFFER_HANDLE handle, size_t enlargeSize)
 311:Source\azure_iot_sdk\c-utility\src/buffer.c **** {
 990              		.loc 1 311 0
 991              		.cfi_startproc
 992              		@ args = 0, pretend = 0, frame = 0
 993              		@ frame_needed = 0, uses_anonymous_args = 0
 994              	.LVL154:
 995 0000 30B5     		push	{r4, r5, lr}
 996              		.cfi_def_cfa_offset 12
 997              		.cfi_offset 4, -12
 998              		.cfi_offset 5, -8
 999              		.cfi_offset 14, -4
 1000 0002 83B0     		sub	sp, sp, #12
 1001              		.cfi_def_cfa_offset 24
 1002 0004 0400     		movs	r4, r0
 1003 0006 0D00     		movs	r5, r1
 312:Source\azure_iot_sdk\c-utility\src/buffer.c ****     int result;
 313:Source\azure_iot_sdk\c-utility\src/buffer.c ****     if (handle == NULL)
 1004              		.loc 1 313 0
 1005 0008 0028     		cmp	r0, #0
 1006 000a 11D1     		bne	.L66
 1007              	.LBB24:
 314:Source\azure_iot_sdk\c-utility\src/buffer.c ****     {
 315:Source\azure_iot_sdk\c-utility\src/buffer.c ****         /* Codes_SRS_BUFFER_07_017: [BUFFER_enlarge shall return a nonzero result if any parameters
 316:Source\azure_iot_sdk\c-utility\src/buffer.c ****         LogError("Failure: handle is invalid.");
 1008              		.loc 1 316 0 discriminator 3
 1009 000c FFF7FEFF 		bl	xlogging_get_log_function
 1010              	.LVL155:
 1011 0010 041E     		subs	r4, r0, #0
 1012              	.LVL156:
 1013 0012 41D0     		beq	.L70
 1014              		.loc 1 316 0 is_stmt 0 discriminator 4
 1015 0014 254B     		ldr	r3, .L73
 1016 0016 0193     		str	r3, [sp, #4]
 1017 0018 0123     		movs	r3, #1
 1018 001a 0093     		str	r3, [sp]
 1019 001c 3C33     		adds	r3, r3, #60
 1020 001e FF33     		adds	r3, r3, #255
 1021 0020 234A     		ldr	r2, .L73+4
 1022 0022 6C32     		adds	r2, r2, #108
 1023 0024 2349     		ldr	r1, .L73+8
 1024 0026 0020     		movs	r0, #0
 1025              	.LVL157:
 1026 0028 A047     		blx	r4
 1027              	.LVL158:
 1028              	.LBE24:
 317:Source\azure_iot_sdk\c-utility\src/buffer.c ****         result = __FAILURE__;
 1029              		.loc 1 317 0 is_stmt 1 discriminator 4
 1030 002a 3E20     		movs	r0, #62
ARM GAS  C:\Users\Phuong\AppData\Local\Temp\ccVRtur0.s 			page 25


 1031 002c FF30     		adds	r0, r0, #255
 1032 002e 3BE0     		b	.L67
 1033              	.LVL159:
 1034              	.L66:
 318:Source\azure_iot_sdk\c-utility\src/buffer.c ****     }
 319:Source\azure_iot_sdk\c-utility\src/buffer.c ****     else if (enlargeSize == 0)
 1035              		.loc 1 319 0
 1036 0030 0029     		cmp	r1, #0
 1037 0032 11D1     		bne	.L68
 1038              	.LBB25:
 320:Source\azure_iot_sdk\c-utility\src/buffer.c ****     {
 321:Source\azure_iot_sdk\c-utility\src/buffer.c ****         /* Codes_SRS_BUFFER_07_017: [BUFFER_enlarge shall return a nonzero result if any parameters
 322:Source\azure_iot_sdk\c-utility\src/buffer.c ****         LogError("Failure: enlargeSize size is 0.");
 1039              		.loc 1 322 0 discriminator 3
 1040 0034 FFF7FEFF 		bl	xlogging_get_log_function
 1041              	.LVL160:
 1042 0038 041E     		subs	r4, r0, #0
 1043              	.LVL161:
 1044 003a 30D0     		beq	.L71
 1045              		.loc 1 322 0 is_stmt 0 discriminator 4
 1046 003c 1E4B     		ldr	r3, .L73+12
 1047 003e 0193     		str	r3, [sp, #4]
 1048 0040 0123     		movs	r3, #1
 1049 0042 0093     		str	r3, [sp]
 1050 0044 4233     		adds	r3, r3, #66
 1051 0046 FF33     		adds	r3, r3, #255
 1052 0048 194A     		ldr	r2, .L73+4
 1053 004a 6C32     		adds	r2, r2, #108
 1054 004c 1949     		ldr	r1, .L73+8
 1055 004e 0020     		movs	r0, #0
 1056              	.LVL162:
 1057 0050 A047     		blx	r4
 1058              	.LVL163:
 1059              	.LBE25:
 323:Source\azure_iot_sdk\c-utility\src/buffer.c ****         result = __FAILURE__;
 1060              		.loc 1 323 0 is_stmt 1 discriminator 4
 1061 0052 4420     		movs	r0, #68
 1062 0054 FF30     		adds	r0, r0, #255
 1063 0056 27E0     		b	.L67
 1064              	.LVL164:
 1065              	.L68:
 1066              	.LBB26:
 324:Source\azure_iot_sdk\c-utility\src/buffer.c ****     }
 325:Source\azure_iot_sdk\c-utility\src/buffer.c ****     else
 326:Source\azure_iot_sdk\c-utility\src/buffer.c ****     {
 327:Source\azure_iot_sdk\c-utility\src/buffer.c ****         BUFFER* b = (BUFFER*)handle;
 328:Source\azure_iot_sdk\c-utility\src/buffer.c ****         unsigned char* temp = (unsigned char*)realloc(b->buffer, b->size + enlargeSize);
 1067              		.loc 1 328 0
 1068 0058 4368     		ldr	r3, [r0, #4]
 1069 005a C918     		adds	r1, r1, r3
 1070              	.LVL165:
 1071 005c 0068     		ldr	r0, [r0]
 1072              	.LVL166:
 1073 005e FFF7FEFF 		bl	realloc
 1074              	.LVL167:
 329:Source\azure_iot_sdk\c-utility\src/buffer.c ****         if (temp == NULL)
 1075              		.loc 1 329 0
ARM GAS  C:\Users\Phuong\AppData\Local\Temp\ccVRtur0.s 			page 26


 1076 0062 0028     		cmp	r0, #0
 1077 0064 11D1     		bne	.L69
 1078              	.LBB27:
 330:Source\azure_iot_sdk\c-utility\src/buffer.c ****         {
 331:Source\azure_iot_sdk\c-utility\src/buffer.c ****             /* Codes_SRS_BUFFER_07_018: [BUFFER_enlarge shall return a nonzero result if any error 
 332:Source\azure_iot_sdk\c-utility\src/buffer.c ****             LogError("Failure: allocating temp buffer.");
 1079              		.loc 1 332 0 discriminator 3
 1080 0066 FFF7FEFF 		bl	xlogging_get_log_function
 1081              	.LVL168:
 1082 006a 041E     		subs	r4, r0, #0
 1083              	.LVL169:
 1084 006c 1AD0     		beq	.L72
 1085              		.loc 1 332 0 is_stmt 0 discriminator 4
 1086 006e 134B     		ldr	r3, .L73+16
 1087 0070 0193     		str	r3, [sp, #4]
 1088 0072 0123     		movs	r3, #1
 1089 0074 0093     		str	r3, [sp]
 1090 0076 4C33     		adds	r3, r3, #76
 1091 0078 FF33     		adds	r3, r3, #255
 1092 007a 0D4A     		ldr	r2, .L73+4
 1093 007c 6C32     		adds	r2, r2, #108
 1094 007e 0D49     		ldr	r1, .L73+8
 1095 0080 0020     		movs	r0, #0
 1096              	.LVL170:
 1097 0082 A047     		blx	r4
 1098              	.LVL171:
 1099              	.LBE27:
 333:Source\azure_iot_sdk\c-utility\src/buffer.c ****             result = __FAILURE__;
 1100              		.loc 1 333 0 is_stmt 1 discriminator 4
 1101 0084 4E20     		movs	r0, #78
 1102 0086 FF30     		adds	r0, r0, #255
 1103 0088 0EE0     		b	.L67
 1104              	.LVL172:
 1105              	.L69:
 334:Source\azure_iot_sdk\c-utility\src/buffer.c ****         }
 335:Source\azure_iot_sdk\c-utility\src/buffer.c ****         else
 336:Source\azure_iot_sdk\c-utility\src/buffer.c ****         {
 337:Source\azure_iot_sdk\c-utility\src/buffer.c ****             b->buffer = temp;
 1106              		.loc 1 337 0
 1107 008a 2060     		str	r0, [r4]
 338:Source\azure_iot_sdk\c-utility\src/buffer.c ****             b->size += enlargeSize;
 1108              		.loc 1 338 0
 1109 008c 6368     		ldr	r3, [r4, #4]
 1110 008e 9C46     		mov	ip, r3
 1111 0090 6544     		add	r5, r5, ip
 1112              	.LVL173:
 1113 0092 6560     		str	r5, [r4, #4]
 1114              	.LVL174:
 339:Source\azure_iot_sdk\c-utility\src/buffer.c ****             result = 0;
 1115              		.loc 1 339 0
 1116 0094 0020     		movs	r0, #0
 1117              	.LVL175:
 1118 0096 07E0     		b	.L67
 1119              	.LVL176:
 1120              	.L70:
 1121              	.LBE26:
 317:Source\azure_iot_sdk\c-utility\src/buffer.c ****     }
ARM GAS  C:\Users\Phuong\AppData\Local\Temp\ccVRtur0.s 			page 27


 1122              		.loc 1 317 0
 1123 0098 3E20     		movs	r0, #62
 1124              	.LVL177:
 1125 009a FF30     		adds	r0, r0, #255
 1126 009c 04E0     		b	.L67
 1127              	.LVL178:
 1128              	.L71:
 323:Source\azure_iot_sdk\c-utility\src/buffer.c ****     }
 1129              		.loc 1 323 0
 1130 009e 4420     		movs	r0, #68
 1131              	.LVL179:
 1132 00a0 FF30     		adds	r0, r0, #255
 1133 00a2 01E0     		b	.L67
 1134              	.LVL180:
 1135              	.L72:
 1136              	.LBB28:
 333:Source\azure_iot_sdk\c-utility\src/buffer.c ****         }
 1137              		.loc 1 333 0
 1138 00a4 4E20     		movs	r0, #78
 1139              	.LVL181:
 1140 00a6 FF30     		adds	r0, r0, #255
 1141              	.LVL182:
 1142              	.L67:
 1143              	.LBE28:
 340:Source\azure_iot_sdk\c-utility\src/buffer.c ****         }
 341:Source\azure_iot_sdk\c-utility\src/buffer.c ****     }
 342:Source\azure_iot_sdk\c-utility\src/buffer.c ****     return result;
 343:Source\azure_iot_sdk\c-utility\src/buffer.c **** }
 1144              		.loc 1 343 0
 1145 00a8 03B0     		add	sp, sp, #12
 1146              		@ sp needed
 1147 00aa 30BD     		pop	{r4, r5, pc}
 1148              	.L74:
 1149              		.align	2
 1150              	.L73:
 1151 00ac 94010000 		.word	.LC36
 1152 00b0 00000000 		.word	.LANCHOR0
 1153 00b4 00000000 		.word	.LC1
 1154 00b8 B0010000 		.word	.LC38
 1155 00bc D0010000 		.word	.LC40
 1156              		.cfi_endproc
 1157              	.LFE10:
 1158              		.size	BUFFER_enlarge, .-BUFFER_enlarge
 1159              		.section	.text.BUFFER_shrink,"ax",%progbits
 1160              		.align	2
 1161              		.global	BUFFER_shrink
 1162              		.code	16
 1163              		.thumb_func
 1164              		.type	BUFFER_shrink, %function
 1165              	BUFFER_shrink:
 1166              	.LFB11:
 344:Source\azure_iot_sdk\c-utility\src/buffer.c **** 
 345:Source\azure_iot_sdk\c-utility\src/buffer.c **** int BUFFER_shrink(BUFFER_HANDLE handle, size_t decreaseSize, bool fromEnd)
 346:Source\azure_iot_sdk\c-utility\src/buffer.c **** {
 1167              		.loc 1 346 0
 1168              		.cfi_startproc
 1169              		@ args = 0, pretend = 0, frame = 8
ARM GAS  C:\Users\Phuong\AppData\Local\Temp\ccVRtur0.s 			page 28


 1170              		@ frame_needed = 0, uses_anonymous_args = 0
 1171              	.LVL183:
 1172 0000 F0B5     		push	{r4, r5, r6, r7, lr}
 1173              		.cfi_def_cfa_offset 20
 1174              		.cfi_offset 4, -20
 1175              		.cfi_offset 5, -16
 1176              		.cfi_offset 6, -12
 1177              		.cfi_offset 7, -8
 1178              		.cfi_offset 14, -4
 1179 0002 85B0     		sub	sp, sp, #20
 1180              		.cfi_def_cfa_offset 40
 1181 0004 0400     		movs	r4, r0
 1182 0006 0F00     		movs	r7, r1
 1183 0008 0392     		str	r2, [sp, #12]
 347:Source\azure_iot_sdk\c-utility\src/buffer.c ****     int result;
 348:Source\azure_iot_sdk\c-utility\src/buffer.c ****     if (handle == NULL)
 1184              		.loc 1 348 0
 1185 000a 0028     		cmp	r0, #0
 1186 000c 11D1     		bne	.L76
 1187              	.LBB29:
 349:Source\azure_iot_sdk\c-utility\src/buffer.c ****     {
 350:Source\azure_iot_sdk\c-utility\src/buffer.c ****         /* Codes_SRS_BUFFER_07_036: [ if handle is NULL, BUFFER_shrink shall return a non-null valu
 351:Source\azure_iot_sdk\c-utility\src/buffer.c ****         LogError("Failure: handle is invalid.");
 1188              		.loc 1 351 0 discriminator 3
 1189 000e FFF7FEFF 		bl	xlogging_get_log_function
 1190              	.LVL184:
 1191 0012 041E     		subs	r4, r0, #0
 1192              	.LVL185:
 1193 0014 71D0     		beq	.L83
 1194              		.loc 1 351 0 is_stmt 0 discriminator 4
 1195 0016 3F4B     		ldr	r3, .L87
 1196 0018 0193     		str	r3, [sp, #4]
 1197 001a 0123     		movs	r3, #1
 1198 001c 0093     		str	r3, [sp]
 1199 001e 6023     		movs	r3, #96
 1200 0020 FF33     		adds	r3, r3, #255
 1201 0022 3D4A     		ldr	r2, .L87+4
 1202 0024 7C32     		adds	r2, r2, #124
 1203 0026 3D49     		ldr	r1, .L87+8
 1204 0028 0020     		movs	r0, #0
 1205              	.LVL186:
 1206 002a A047     		blx	r4
 1207              	.LVL187:
 1208              	.LBE29:
 352:Source\azure_iot_sdk\c-utility\src/buffer.c ****         result = __FAILURE__;
 1209              		.loc 1 352 0 is_stmt 1 discriminator 4
 1210 002c B020     		movs	r0, #176
 1211 002e 4000     		lsls	r0, r0, #1
 1212 0030 6EE0     		b	.L77
 1213              	.LVL188:
 1214              	.L76:
 353:Source\azure_iot_sdk\c-utility\src/buffer.c ****     }
 354:Source\azure_iot_sdk\c-utility\src/buffer.c ****     else if (decreaseSize == 0)
 1215              		.loc 1 354 0
 1216 0032 0029     		cmp	r1, #0
 1217 0034 11D1     		bne	.L78
 1218              	.LBB30:
ARM GAS  C:\Users\Phuong\AppData\Local\Temp\ccVRtur0.s 			page 29


 355:Source\azure_iot_sdk\c-utility\src/buffer.c ****     {
 356:Source\azure_iot_sdk\c-utility\src/buffer.c ****         /* Codes_SRS_BUFFER_07_037: [ If decreaseSize is equal zero, BUFFER_shrink shall return a n
 357:Source\azure_iot_sdk\c-utility\src/buffer.c ****         LogError("Failure: decrease size is 0.");
 1219              		.loc 1 357 0 discriminator 3
 1220 0036 FFF7FEFF 		bl	xlogging_get_log_function
 1221              	.LVL189:
 1222 003a 041E     		subs	r4, r0, #0
 1223              	.LVL190:
 1224 003c 60D0     		beq	.L84
 1225              		.loc 1 357 0 is_stmt 0 discriminator 4
 1226 003e 384B     		ldr	r3, .L87+12
 1227 0040 0193     		str	r3, [sp, #4]
 1228 0042 0123     		movs	r3, #1
 1229 0044 0093     		str	r3, [sp]
 1230 0046 6623     		movs	r3, #102
 1231 0048 FF33     		adds	r3, r3, #255
 1232 004a 334A     		ldr	r2, .L87+4
 1233 004c 7C32     		adds	r2, r2, #124
 1234 004e 3349     		ldr	r1, .L87+8
 1235 0050 0020     		movs	r0, #0
 1236              	.LVL191:
 1237 0052 A047     		blx	r4
 1238              	.LVL192:
 1239              	.LBE30:
 358:Source\azure_iot_sdk\c-utility\src/buffer.c ****         result = __FAILURE__;
 1240              		.loc 1 358 0 is_stmt 1 discriminator 4
 1241 0054 B320     		movs	r0, #179
 1242 0056 4000     		lsls	r0, r0, #1
 1243 0058 5AE0     		b	.L77
 1244              	.LVL193:
 1245              	.L78:
 359:Source\azure_iot_sdk\c-utility\src/buffer.c ****     }
 360:Source\azure_iot_sdk\c-utility\src/buffer.c ****     else if (decreaseSize > handle->size)
 1246              		.loc 1 360 0
 1247 005a 4068     		ldr	r0, [r0, #4]
 1248              	.LVL194:
 1249 005c 8142     		cmp	r1, r0
 1250 005e 11D9     		bls	.L79
 1251              	.LBB31:
 361:Source\azure_iot_sdk\c-utility\src/buffer.c ****     {
 362:Source\azure_iot_sdk\c-utility\src/buffer.c ****         /* Codes_SRS_BUFFER_07_038: [ If decreaseSize is less than the size of the buffer, BUFFER_s
 363:Source\azure_iot_sdk\c-utility\src/buffer.c ****         LogError("Failure: decrease size is less than buffer size.");
 1252              		.loc 1 363 0 discriminator 3
 1253 0060 FFF7FEFF 		bl	xlogging_get_log_function
 1254              	.LVL195:
 1255 0064 041E     		subs	r4, r0, #0
 1256              	.LVL196:
 1257 0066 4ED0     		beq	.L85
 1258              		.loc 1 363 0 is_stmt 0 discriminator 4
 1259 0068 2E4B     		ldr	r3, .L87+16
 1260 006a 0193     		str	r3, [sp, #4]
 1261 006c 0123     		movs	r3, #1
 1262 006e 0093     		str	r3, [sp]
 1263 0070 6C23     		movs	r3, #108
 1264 0072 FF33     		adds	r3, r3, #255
 1265 0074 284A     		ldr	r2, .L87+4
 1266 0076 7C32     		adds	r2, r2, #124
ARM GAS  C:\Users\Phuong\AppData\Local\Temp\ccVRtur0.s 			page 30


 1267 0078 2849     		ldr	r1, .L87+8
 1268 007a 0020     		movs	r0, #0
 1269              	.LVL197:
 1270 007c A047     		blx	r4
 1271              	.LVL198:
 1272              	.LBE31:
 364:Source\azure_iot_sdk\c-utility\src/buffer.c ****         result = __FAILURE__;
 1273              		.loc 1 364 0 is_stmt 1 discriminator 4
 1274 007e B620     		movs	r0, #182
 1275 0080 4000     		lsls	r0, r0, #1
 1276 0082 45E0     		b	.L77
 1277              	.LVL199:
 1278              	.L79:
 1279              	.LBB32:
 365:Source\azure_iot_sdk\c-utility\src/buffer.c ****     }
 366:Source\azure_iot_sdk\c-utility\src/buffer.c ****     else
 367:Source\azure_iot_sdk\c-utility\src/buffer.c ****     {
 368:Source\azure_iot_sdk\c-utility\src/buffer.c ****         /* Codes_SRS_BUFFER_07_039: [ BUFFER_shrink shall allocate a temporary buffer of existing b
 369:Source\azure_iot_sdk\c-utility\src/buffer.c ****         size_t alloc_size = handle->size - decreaseSize;
 1280              		.loc 1 369 0
 1281 0084 451A     		subs	r5, r0, r1
 1282              	.LVL200:
 370:Source\azure_iot_sdk\c-utility\src/buffer.c ****         if (alloc_size == 0)
 1283              		.loc 1 370 0
 1284 0086 07D1     		bne	.L80
 371:Source\azure_iot_sdk\c-utility\src/buffer.c ****         {
 372:Source\azure_iot_sdk\c-utility\src/buffer.c ****             /* Codes_SRS_BUFFER_07_043: [ If the decreaseSize is equal the buffer size , BUFFER_shr
 373:Source\azure_iot_sdk\c-utility\src/buffer.c ****             free(handle->buffer);
 1285              		.loc 1 373 0
 1286 0088 2068     		ldr	r0, [r4]
 1287 008a FFF7FEFF 		bl	free
 1288              	.LVL201:
 374:Source\azure_iot_sdk\c-utility\src/buffer.c ****             handle->buffer = NULL;
 1289              		.loc 1 374 0
 1290 008e 0023     		movs	r3, #0
 1291 0090 2360     		str	r3, [r4]
 375:Source\azure_iot_sdk\c-utility\src/buffer.c ****             handle->size = 0;
 1292              		.loc 1 375 0
 1293 0092 6360     		str	r3, [r4, #4]
 1294              	.LVL202:
 376:Source\azure_iot_sdk\c-utility\src/buffer.c ****             result = 0;
 1295              		.loc 1 376 0
 1296 0094 0020     		movs	r0, #0
 1297 0096 3BE0     		b	.L77
 1298              	.LVL203:
 1299              	.L80:
 1300              	.LBB33:
 377:Source\azure_iot_sdk\c-utility\src/buffer.c ****         }
 378:Source\azure_iot_sdk\c-utility\src/buffer.c ****         else
 379:Source\azure_iot_sdk\c-utility\src/buffer.c ****         {
 380:Source\azure_iot_sdk\c-utility\src/buffer.c ****             unsigned char* tmp = malloc(alloc_size);
 1301              		.loc 1 380 0
 1302 0098 2800     		movs	r0, r5
 1303 009a FFF7FEFF 		bl	malloc
 1304              	.LVL204:
 1305 009e 061E     		subs	r6, r0, #0
 1306              	.LVL205:
ARM GAS  C:\Users\Phuong\AppData\Local\Temp\ccVRtur0.s 			page 31


 381:Source\azure_iot_sdk\c-utility\src/buffer.c ****             if (tmp == NULL)
 1307              		.loc 1 381 0
 1308 00a0 11D1     		bne	.L81
 1309              	.LBB34:
 382:Source\azure_iot_sdk\c-utility\src/buffer.c ****             {
 383:Source\azure_iot_sdk\c-utility\src/buffer.c ****                 /* Codes_SRS_BUFFER_07_042: [ If a failure is encountered, BUFFER_shrink shall retu
 384:Source\azure_iot_sdk\c-utility\src/buffer.c ****                 LogError("Failure: allocating temp buffer.");
 1310              		.loc 1 384 0 discriminator 3
 1311 00a2 FFF7FEFF 		bl	xlogging_get_log_function
 1312              	.LVL206:
 1313 00a6 041E     		subs	r4, r0, #0
 1314              	.LVL207:
 1315 00a8 30D0     		beq	.L86
 1316              		.loc 1 384 0 is_stmt 0 discriminator 4
 1317 00aa 1F4B     		ldr	r3, .L87+20
 1318 00ac 0193     		str	r3, [sp, #4]
 1319 00ae 0123     		movs	r3, #1
 1320 00b0 0093     		str	r3, [sp]
 1321 00b2 8033     		adds	r3, r3, #128
 1322 00b4 FF33     		adds	r3, r3, #255
 1323 00b6 184A     		ldr	r2, .L87+4
 1324 00b8 7C32     		adds	r2, r2, #124
 1325 00ba 1849     		ldr	r1, .L87+8
 1326 00bc 0020     		movs	r0, #0
 1327              	.LVL208:
 1328 00be A047     		blx	r4
 1329              	.LVL209:
 1330              	.LBE34:
 385:Source\azure_iot_sdk\c-utility\src/buffer.c ****                 result = __FAILURE__;
 1331              		.loc 1 385 0 is_stmt 1 discriminator 4
 1332 00c0 8220     		movs	r0, #130
 1333 00c2 FF30     		adds	r0, r0, #255
 1334 00c4 24E0     		b	.L77
 1335              	.LVL210:
 1336              	.L81:
 386:Source\azure_iot_sdk\c-utility\src/buffer.c ****             }
 387:Source\azure_iot_sdk\c-utility\src/buffer.c ****             else
 388:Source\azure_iot_sdk\c-utility\src/buffer.c ****             {
 389:Source\azure_iot_sdk\c-utility\src/buffer.c ****                 if (fromEnd)
 1337              		.loc 1 389 0
 1338 00c6 039B     		ldr	r3, [sp, #12]
 1339 00c8 002B     		cmp	r3, #0
 1340 00ca 0AD0     		beq	.L82
 390:Source\azure_iot_sdk\c-utility\src/buffer.c ****                 {
 391:Source\azure_iot_sdk\c-utility\src/buffer.c ****                     /* Codes_SRS_BUFFER_07_040: [ if the fromEnd variable is true, BUFFER_shrink sh
 392:Source\azure_iot_sdk\c-utility\src/buffer.c ****                     memcpy(tmp, handle->buffer, alloc_size);
 1341              		.loc 1 392 0
 1342 00cc 2A00     		movs	r2, r5
 1343 00ce 2168     		ldr	r1, [r4]
 1344 00d0 FFF7FEFF 		bl	memcpy
 1345              	.LVL211:
 393:Source\azure_iot_sdk\c-utility\src/buffer.c ****                     free(handle->buffer);
 1346              		.loc 1 393 0
 1347 00d4 2068     		ldr	r0, [r4]
 1348 00d6 FFF7FEFF 		bl	free
 1349              	.LVL212:
 394:Source\azure_iot_sdk\c-utility\src/buffer.c ****                     handle->buffer = tmp;
ARM GAS  C:\Users\Phuong\AppData\Local\Temp\ccVRtur0.s 			page 32


 1350              		.loc 1 394 0
 1351 00da 2660     		str	r6, [r4]
 395:Source\azure_iot_sdk\c-utility\src/buffer.c ****                     handle->size = alloc_size;
 1352              		.loc 1 395 0
 1353 00dc 6560     		str	r5, [r4, #4]
 1354              	.LVL213:
 396:Source\azure_iot_sdk\c-utility\src/buffer.c ****                     result = 0;
 1355              		.loc 1 396 0
 1356 00de 0020     		movs	r0, #0
 1357 00e0 16E0     		b	.L77
 1358              	.LVL214:
 1359              	.L82:
 397:Source\azure_iot_sdk\c-utility\src/buffer.c ****                 }
 398:Source\azure_iot_sdk\c-utility\src/buffer.c ****                 else
 399:Source\azure_iot_sdk\c-utility\src/buffer.c ****                 {
 400:Source\azure_iot_sdk\c-utility\src/buffer.c ****                     /* Codes_SRS_BUFFER_07_041: [ if the fromEnd variable is false, BUFFER_shrink s
 401:Source\azure_iot_sdk\c-utility\src/buffer.c ****                     memcpy(tmp, handle->buffer + decreaseSize, alloc_size);
 1360              		.loc 1 401 0
 1361 00e2 2368     		ldr	r3, [r4]
 1362 00e4 D919     		adds	r1, r3, r7
 1363 00e6 2A00     		movs	r2, r5
 1364 00e8 FFF7FEFF 		bl	memcpy
 1365              	.LVL215:
 402:Source\azure_iot_sdk\c-utility\src/buffer.c ****                     free(handle->buffer);
 1366              		.loc 1 402 0
 1367 00ec 2068     		ldr	r0, [r4]
 1368 00ee FFF7FEFF 		bl	free
 1369              	.LVL216:
 403:Source\azure_iot_sdk\c-utility\src/buffer.c ****                     handle->buffer = tmp;
 1370              		.loc 1 403 0
 1371 00f2 2660     		str	r6, [r4]
 404:Source\azure_iot_sdk\c-utility\src/buffer.c ****                     handle->size = alloc_size;
 1372              		.loc 1 404 0
 1373 00f4 6560     		str	r5, [r4, #4]
 1374              	.LVL217:
 405:Source\azure_iot_sdk\c-utility\src/buffer.c ****                     result = 0;
 1375              		.loc 1 405 0
 1376 00f6 0020     		movs	r0, #0
 1377 00f8 0AE0     		b	.L77
 1378              	.LVL218:
 1379              	.L83:
 1380              	.LBE33:
 1381              	.LBE32:
 352:Source\azure_iot_sdk\c-utility\src/buffer.c ****     }
 1382              		.loc 1 352 0
 1383 00fa B020     		movs	r0, #176
 1384              	.LVL219:
 1385 00fc 4000     		lsls	r0, r0, #1
 1386 00fe 07E0     		b	.L77
 1387              	.LVL220:
 1388              	.L84:
 358:Source\azure_iot_sdk\c-utility\src/buffer.c ****     }
 1389              		.loc 1 358 0
 1390 0100 B320     		movs	r0, #179
 1391              	.LVL221:
 1392 0102 4000     		lsls	r0, r0, #1
 1393 0104 04E0     		b	.L77
ARM GAS  C:\Users\Phuong\AppData\Local\Temp\ccVRtur0.s 			page 33


 1394              	.LVL222:
 1395              	.L85:
 364:Source\azure_iot_sdk\c-utility\src/buffer.c ****     }
 1396              		.loc 1 364 0
 1397 0106 B620     		movs	r0, #182
 1398              	.LVL223:
 1399 0108 4000     		lsls	r0, r0, #1
 1400 010a 01E0     		b	.L77
 1401              	.LVL224:
 1402              	.L86:
 1403              	.LBB36:
 1404              	.LBB35:
 385:Source\azure_iot_sdk\c-utility\src/buffer.c ****             }
 1405              		.loc 1 385 0
 1406 010c 8220     		movs	r0, #130
 1407              	.LVL225:
 1408 010e FF30     		adds	r0, r0, #255
 1409              	.LVL226:
 1410              	.L77:
 1411              	.LBE35:
 1412              	.LBE36:
 406:Source\azure_iot_sdk\c-utility\src/buffer.c ****                 }
 407:Source\azure_iot_sdk\c-utility\src/buffer.c ****             }
 408:Source\azure_iot_sdk\c-utility\src/buffer.c ****         }
 409:Source\azure_iot_sdk\c-utility\src/buffer.c ****     }
 410:Source\azure_iot_sdk\c-utility\src/buffer.c ****     return result;
 411:Source\azure_iot_sdk\c-utility\src/buffer.c **** }
 1413              		.loc 1 411 0
 1414 0110 05B0     		add	sp, sp, #20
 1415              		@ sp needed
 1416              	.LVL227:
 1417 0112 F0BD     		pop	{r4, r5, r6, r7, pc}
 1418              	.L88:
 1419              		.align	2
 1420              	.L87:
 1421 0114 94010000 		.word	.LC36
 1422 0118 00000000 		.word	.LANCHOR0
 1423 011c 00000000 		.word	.LC1
 1424 0120 F4010000 		.word	.LC45
 1425 0124 14020000 		.word	.LC47
 1426 0128 D0010000 		.word	.LC40
 1427              		.cfi_endproc
 1428              	.LFE11:
 1429              		.size	BUFFER_shrink, .-BUFFER_shrink
 1430              		.section	.text.BUFFER_size,"ax",%progbits
 1431              		.align	2
 1432              		.global	BUFFER_size
 1433              		.code	16
 1434              		.thumb_func
 1435              		.type	BUFFER_size, %function
 1436              	BUFFER_size:
 1437              	.LFB12:
 412:Source\azure_iot_sdk\c-utility\src/buffer.c **** 
 413:Source\azure_iot_sdk\c-utility\src/buffer.c **** /* Codes_SRS_BUFFER_07_021: [BUFFER_size shall place the size of the associated buffer in the size 
 414:Source\azure_iot_sdk\c-utility\src/buffer.c **** int BUFFER_size(BUFFER_HANDLE handle, size_t* size)
 415:Source\azure_iot_sdk\c-utility\src/buffer.c **** {
 1438              		.loc 1 415 0
ARM GAS  C:\Users\Phuong\AppData\Local\Temp\ccVRtur0.s 			page 34


 1439              		.cfi_startproc
 1440              		@ args = 0, pretend = 0, frame = 0
 1441              		@ frame_needed = 0, uses_anonymous_args = 0
 1442              		@ link register save eliminated.
 1443              	.LVL228:
 416:Source\azure_iot_sdk\c-utility\src/buffer.c ****     int result;
 417:Source\azure_iot_sdk\c-utility\src/buffer.c ****     if ((handle == NULL) || (size == NULL))
 1444              		.loc 1 417 0
 1445 0000 0028     		cmp	r0, #0
 1446 0002 05D0     		beq	.L91
 1447              		.loc 1 417 0 is_stmt 0 discriminator 1
 1448 0004 0029     		cmp	r1, #0
 1449 0006 06D0     		beq	.L92
 1450              	.LVL229:
 1451              	.LBB37:
 418:Source\azure_iot_sdk\c-utility\src/buffer.c ****     {
 419:Source\azure_iot_sdk\c-utility\src/buffer.c ****         /* Codes_SRS_BUFFER_07_022: [BUFFER_size shall return a nonzero value for any error that is
 420:Source\azure_iot_sdk\c-utility\src/buffer.c ****         result = __FAILURE__;
 421:Source\azure_iot_sdk\c-utility\src/buffer.c ****     }
 422:Source\azure_iot_sdk\c-utility\src/buffer.c ****     else
 423:Source\azure_iot_sdk\c-utility\src/buffer.c ****     {
 424:Source\azure_iot_sdk\c-utility\src/buffer.c ****         BUFFER* b = (BUFFER*)handle;
 425:Source\azure_iot_sdk\c-utility\src/buffer.c ****         *size = b->size;
 1452              		.loc 1 425 0 is_stmt 1
 1453 0008 4368     		ldr	r3, [r0, #4]
 1454 000a 0B60     		str	r3, [r1]
 1455              	.LVL230:
 426:Source\azure_iot_sdk\c-utility\src/buffer.c ****         result = 0;
 1456              		.loc 1 426 0
 1457 000c 0020     		movs	r0, #0
 1458              	.LVL231:
 1459 000e 04E0     		b	.L90
 1460              	.LVL232:
 1461              	.L91:
 1462              	.LBE37:
 420:Source\azure_iot_sdk\c-utility\src/buffer.c ****     }
 1463              		.loc 1 420 0
 1464 0010 D220     		movs	r0, #210
 1465              	.LVL233:
 1466 0012 4000     		lsls	r0, r0, #1
 1467 0014 01E0     		b	.L90
 1468              	.LVL234:
 1469              	.L92:
 1470 0016 D220     		movs	r0, #210
 1471              	.LVL235:
 1472 0018 4000     		lsls	r0, r0, #1
 1473              	.L90:
 1474              	.LVL236:
 427:Source\azure_iot_sdk\c-utility\src/buffer.c ****     }
 428:Source\azure_iot_sdk\c-utility\src/buffer.c ****     return result;
 429:Source\azure_iot_sdk\c-utility\src/buffer.c **** }
 1475              		.loc 1 429 0
 1476              		@ sp needed
 1477 001a 7047     		bx	lr
 1478              		.cfi_endproc
 1479              	.LFE12:
 1480              		.size	BUFFER_size, .-BUFFER_size
ARM GAS  C:\Users\Phuong\AppData\Local\Temp\ccVRtur0.s 			page 35


 1481              		.section	.text.BUFFER_append,"ax",%progbits
 1482              		.align	2
 1483              		.global	BUFFER_append
 1484              		.code	16
 1485              		.thumb_func
 1486              		.type	BUFFER_append, %function
 1487              	BUFFER_append:
 1488              	.LFB13:
 430:Source\azure_iot_sdk\c-utility\src/buffer.c **** 
 431:Source\azure_iot_sdk\c-utility\src/buffer.c **** /* Codes_SRS_BUFFER_07_024: [BUFFER_append concatenates b2 onto b1 without modifying b2 and shall r
 432:Source\azure_iot_sdk\c-utility\src/buffer.c **** int BUFFER_append(BUFFER_HANDLE handle1, BUFFER_HANDLE handle2)
 433:Source\azure_iot_sdk\c-utility\src/buffer.c **** {
 1489              		.loc 1 433 0
 1490              		.cfi_startproc
 1491              		@ args = 0, pretend = 0, frame = 0
 1492              		@ frame_needed = 0, uses_anonymous_args = 0
 1493              	.LVL237:
 1494 0000 30B5     		push	{r4, r5, lr}
 1495              		.cfi_def_cfa_offset 12
 1496              		.cfi_offset 4, -12
 1497              		.cfi_offset 5, -8
 1498              		.cfi_offset 14, -4
 1499 0002 83B0     		sub	sp, sp, #12
 1500              		.cfi_def_cfa_offset 24
 1501 0004 0400     		movs	r4, r0
 1502 0006 0D00     		movs	r5, r1
 434:Source\azure_iot_sdk\c-utility\src/buffer.c ****     int result;
 435:Source\azure_iot_sdk\c-utility\src/buffer.c ****     if ( (handle1 == NULL) || (handle2 == NULL) || (handle1 == handle2) )
 1503              		.loc 1 435 0
 1504 0008 0028     		cmp	r0, #0
 1505 000a 34D0     		beq	.L96
 1506              		.loc 1 435 0 is_stmt 0 discriminator 1
 1507 000c 0029     		cmp	r1, #0
 1508 000e 35D0     		beq	.L97
 1509              		.loc 1 435 0 discriminator 2
 1510 0010 8842     		cmp	r0, r1
 1511 0012 36D0     		beq	.L98
 1512              	.LVL238:
 1513              	.LBB38:
 436:Source\azure_iot_sdk\c-utility\src/buffer.c ****     {
 437:Source\azure_iot_sdk\c-utility\src/buffer.c ****         /* Codes_SRS_BUFFER_07_023: [BUFFER_append shall return a nonzero upon any error that is en
 438:Source\azure_iot_sdk\c-utility\src/buffer.c ****         result = __FAILURE__;
 439:Source\azure_iot_sdk\c-utility\src/buffer.c ****     }
 440:Source\azure_iot_sdk\c-utility\src/buffer.c ****     else
 441:Source\azure_iot_sdk\c-utility\src/buffer.c ****     {
 442:Source\azure_iot_sdk\c-utility\src/buffer.c ****         BUFFER* b1 = (BUFFER*)handle1;
 443:Source\azure_iot_sdk\c-utility\src/buffer.c ****         BUFFER* b2 = (BUFFER*)handle2;
 444:Source\azure_iot_sdk\c-utility\src/buffer.c ****         if (b1->buffer == NULL)
 1514              		.loc 1 444 0 is_stmt 1
 1515 0014 0068     		ldr	r0, [r0]
 1516              	.LVL239:
 1517 0016 0028     		cmp	r0, #0
 1518 0018 36D0     		beq	.L99
 445:Source\azure_iot_sdk\c-utility\src/buffer.c ****         {
 446:Source\azure_iot_sdk\c-utility\src/buffer.c ****             /* Codes_SRS_BUFFER_07_023: [BUFFER_append shall return a nonzero upon any error that i
 447:Source\azure_iot_sdk\c-utility\src/buffer.c ****             result = __FAILURE__;
 448:Source\azure_iot_sdk\c-utility\src/buffer.c ****         }
ARM GAS  C:\Users\Phuong\AppData\Local\Temp\ccVRtur0.s 			page 36


 449:Source\azure_iot_sdk\c-utility\src/buffer.c ****         else if (b2->buffer == NULL)
 1519              		.loc 1 449 0
 1520 001a 0B68     		ldr	r3, [r1]
 1521 001c 002B     		cmp	r3, #0
 1522 001e 36D0     		beq	.L100
 450:Source\azure_iot_sdk\c-utility\src/buffer.c ****         {
 451:Source\azure_iot_sdk\c-utility\src/buffer.c ****             /* Codes_SRS_BUFFER_07_023: [BUFFER_append shall return a nonzero upon any error that i
 452:Source\azure_iot_sdk\c-utility\src/buffer.c ****             result = __FAILURE__;
 453:Source\azure_iot_sdk\c-utility\src/buffer.c ****         }
 454:Source\azure_iot_sdk\c-utility\src/buffer.c ****         else
 455:Source\azure_iot_sdk\c-utility\src/buffer.c ****         {
 456:Source\azure_iot_sdk\c-utility\src/buffer.c ****             if (b2->size ==0)
 1523              		.loc 1 456 0
 1524 0020 4968     		ldr	r1, [r1, #4]
 1525              	.LVL240:
 1526 0022 0029     		cmp	r1, #0
 1527 0024 36D0     		beq	.L101
 1528              	.LBB39:
 457:Source\azure_iot_sdk\c-utility\src/buffer.c ****             {
 458:Source\azure_iot_sdk\c-utility\src/buffer.c ****                 // b2->size = 0, whatever b1->size is, do nothing
 459:Source\azure_iot_sdk\c-utility\src/buffer.c ****                 result = 0;
 460:Source\azure_iot_sdk\c-utility\src/buffer.c ****             }
 461:Source\azure_iot_sdk\c-utility\src/buffer.c ****             else
 462:Source\azure_iot_sdk\c-utility\src/buffer.c ****             {
 463:Source\azure_iot_sdk\c-utility\src/buffer.c ****                 // b2->size != 0, whatever b1->size is
 464:Source\azure_iot_sdk\c-utility\src/buffer.c ****                 unsigned char* temp = (unsigned char*)realloc(b1->buffer, b1->size + b2->size);
 1529              		.loc 1 464 0
 1530 0026 6368     		ldr	r3, [r4, #4]
 1531 0028 9C46     		mov	ip, r3
 1532 002a 6144     		add	r1, r1, ip
 1533 002c FFF7FEFF 		bl	realloc
 1534              	.LVL241:
 465:Source\azure_iot_sdk\c-utility\src/buffer.c ****                 if (temp == NULL)
 1535              		.loc 1 465 0
 1536 0030 0028     		cmp	r0, #0
 1537 0032 11D1     		bne	.L95
 1538              	.LBB40:
 466:Source\azure_iot_sdk\c-utility\src/buffer.c ****                 {
 467:Source\azure_iot_sdk\c-utility\src/buffer.c ****                     /* Codes_SRS_BUFFER_07_023: [BUFFER_append shall return a nonzero upon any erro
 468:Source\azure_iot_sdk\c-utility\src/buffer.c ****                     LogError("Failure: allocating temp buffer.");
 1539              		.loc 1 468 0 discriminator 3
 1540 0034 FFF7FEFF 		bl	xlogging_get_log_function
 1541              	.LVL242:
 1542 0038 041E     		subs	r4, r0, #0
 1543              	.LVL243:
 1544 003a 2DD0     		beq	.L102
 1545              		.loc 1 468 0 is_stmt 0 discriminator 4
 1546 003c 184B     		ldr	r3, .L103
 1547 003e 0193     		str	r3, [sp, #4]
 1548 0040 0123     		movs	r3, #1
 1549 0042 0093     		str	r3, [sp]
 1550 0044 D433     		adds	r3, r3, #212
 1551 0046 FF33     		adds	r3, r3, #255
 1552 0048 164A     		ldr	r2, .L103+4
 1553 004a 0C32     		adds	r2, r2, #12
 1554 004c 1649     		ldr	r1, .L103+8
 1555 004e 0020     		movs	r0, #0
ARM GAS  C:\Users\Phuong\AppData\Local\Temp\ccVRtur0.s 			page 37


 1556              	.LVL244:
 1557 0050 A047     		blx	r4
 1558              	.LVL245:
 1559              	.LBE40:
 469:Source\azure_iot_sdk\c-utility\src/buffer.c ****                     result = __FAILURE__;
 1560              		.loc 1 469 0 is_stmt 1 discriminator 4
 1561 0052 D620     		movs	r0, #214
 1562 0054 FF30     		adds	r0, r0, #255
 1563 0056 21E0     		b	.L94
 1564              	.LVL246:
 1565              	.L95:
 470:Source\azure_iot_sdk\c-utility\src/buffer.c ****                 }
 471:Source\azure_iot_sdk\c-utility\src/buffer.c ****                 else
 472:Source\azure_iot_sdk\c-utility\src/buffer.c ****                 {
 473:Source\azure_iot_sdk\c-utility\src/buffer.c ****                     /* Codes_SRS_BUFFER_07_024: [BUFFER_append concatenates b2 onto b1 without modi
 474:Source\azure_iot_sdk\c-utility\src/buffer.c ****                     b1->buffer = temp;
 1566              		.loc 1 474 0
 1567 0058 2060     		str	r0, [r4]
 475:Source\azure_iot_sdk\c-utility\src/buffer.c ****                     // Append the BUFFER
 476:Source\azure_iot_sdk\c-utility\src/buffer.c ****                     (void)memcpy(&b1->buffer[b1->size], b2->buffer, b2->size);
 1568              		.loc 1 476 0
 1569 005a 6368     		ldr	r3, [r4, #4]
 1570 005c 9C46     		mov	ip, r3
 1571 005e 6044     		add	r0, r0, ip
 1572              	.LVL247:
 1573 0060 6A68     		ldr	r2, [r5, #4]
 1574 0062 2968     		ldr	r1, [r5]
 1575 0064 FFF7FEFF 		bl	memcpy
 1576              	.LVL248:
 477:Source\azure_iot_sdk\c-utility\src/buffer.c ****                     b1->size += b2->size;
 1577              		.loc 1 477 0
 1578 0068 6B68     		ldr	r3, [r5, #4]
 1579 006a 6268     		ldr	r2, [r4, #4]
 1580 006c 9446     		mov	ip, r2
 1581 006e 6344     		add	r3, r3, ip
 1582 0070 6360     		str	r3, [r4, #4]
 1583              	.LVL249:
 478:Source\azure_iot_sdk\c-utility\src/buffer.c ****                     result = 0;
 1584              		.loc 1 478 0
 1585 0072 0020     		movs	r0, #0
 1586 0074 12E0     		b	.L94
 1587              	.LVL250:
 1588              	.L96:
 1589              	.LBE39:
 1590              	.LBE38:
 438:Source\azure_iot_sdk\c-utility\src/buffer.c ****     }
 1591              		.loc 1 438 0
 1592 0076 DB20     		movs	r0, #219
 1593              	.LVL251:
 1594 0078 4000     		lsls	r0, r0, #1
 1595 007a 0FE0     		b	.L94
 1596              	.LVL252:
 1597              	.L97:
 1598 007c DB20     		movs	r0, #219
 1599              	.LVL253:
 1600 007e 4000     		lsls	r0, r0, #1
 1601 0080 0CE0     		b	.L94
ARM GAS  C:\Users\Phuong\AppData\Local\Temp\ccVRtur0.s 			page 38


 1602              	.LVL254:
 1603              	.L98:
 1604 0082 DB20     		movs	r0, #219
 1605              	.LVL255:
 1606 0084 4000     		lsls	r0, r0, #1
 1607 0086 09E0     		b	.L94
 1608              	.LVL256:
 1609              	.L99:
 1610              	.LBB42:
 447:Source\azure_iot_sdk\c-utility\src/buffer.c ****         }
 1611              		.loc 1 447 0
 1612 0088 C020     		movs	r0, #192
 1613 008a FF30     		adds	r0, r0, #255
 1614 008c 06E0     		b	.L94
 1615              	.L100:
 452:Source\azure_iot_sdk\c-utility\src/buffer.c ****         }
 1616              		.loc 1 452 0
 1617 008e E220     		movs	r0, #226
 1618 0090 4000     		lsls	r0, r0, #1
 1619 0092 03E0     		b	.L94
 1620              	.LVL257:
 1621              	.L101:
 459:Source\azure_iot_sdk\c-utility\src/buffer.c ****             }
 1622              		.loc 1 459 0
 1623 0094 0020     		movs	r0, #0
 1624 0096 01E0     		b	.L94
 1625              	.LVL258:
 1626              	.L102:
 1627              	.LBB41:
 469:Source\azure_iot_sdk\c-utility\src/buffer.c ****                 }
 1628              		.loc 1 469 0
 1629 0098 D620     		movs	r0, #214
 1630              	.LVL259:
 1631 009a FF30     		adds	r0, r0, #255
 1632              	.LVL260:
 1633              	.L94:
 1634              	.LBE41:
 1635              	.LBE42:
 479:Source\azure_iot_sdk\c-utility\src/buffer.c ****                 }
 480:Source\azure_iot_sdk\c-utility\src/buffer.c ****             }
 481:Source\azure_iot_sdk\c-utility\src/buffer.c ****         }
 482:Source\azure_iot_sdk\c-utility\src/buffer.c ****     }
 483:Source\azure_iot_sdk\c-utility\src/buffer.c ****     return result;
 484:Source\azure_iot_sdk\c-utility\src/buffer.c **** }
 1636              		.loc 1 484 0
 1637 009c 03B0     		add	sp, sp, #12
 1638              		@ sp needed
 1639              	.LVL261:
 1640 009e 30BD     		pop	{r4, r5, pc}
 1641              	.L104:
 1642              		.align	2
 1643              	.L103:
 1644 00a0 D0010000 		.word	.LC40
 1645 00a4 80000000 		.word	.LANCHOR1
 1646 00a8 00000000 		.word	.LC1
 1647              		.cfi_endproc
 1648              	.LFE13:
ARM GAS  C:\Users\Phuong\AppData\Local\Temp\ccVRtur0.s 			page 39


 1649              		.size	BUFFER_append, .-BUFFER_append
 1650              		.section	.text.BUFFER_prepend,"ax",%progbits
 1651              		.align	2
 1652              		.global	BUFFER_prepend
 1653              		.code	16
 1654              		.thumb_func
 1655              		.type	BUFFER_prepend, %function
 1656              	BUFFER_prepend:
 1657              	.LFB14:
 485:Source\azure_iot_sdk\c-utility\src/buffer.c **** 
 486:Source\azure_iot_sdk\c-utility\src/buffer.c **** int BUFFER_prepend(BUFFER_HANDLE handle1, BUFFER_HANDLE handle2)
 487:Source\azure_iot_sdk\c-utility\src/buffer.c **** {
 1658              		.loc 1 487 0
 1659              		.cfi_startproc
 1660              		@ args = 0, pretend = 0, frame = 0
 1661              		@ frame_needed = 0, uses_anonymous_args = 0
 1662              	.LVL262:
 1663 0000 F0B5     		push	{r4, r5, r6, r7, lr}
 1664              		.cfi_def_cfa_offset 20
 1665              		.cfi_offset 4, -20
 1666              		.cfi_offset 5, -16
 1667              		.cfi_offset 6, -12
 1668              		.cfi_offset 7, -8
 1669              		.cfi_offset 14, -4
 1670 0002 4746     		mov	r7, r8
 1671 0004 80B4     		push	{r7}
 1672              		.cfi_def_cfa_offset 24
 1673              		.cfi_offset 8, -24
 1674 0006 82B0     		sub	sp, sp, #8
 1675              		.cfi_def_cfa_offset 32
 1676 0008 0400     		movs	r4, r0
 1677 000a 0D00     		movs	r5, r1
 488:Source\azure_iot_sdk\c-utility\src/buffer.c ****     int result;
 489:Source\azure_iot_sdk\c-utility\src/buffer.c ****     if ((handle1 == NULL) || (handle2 == NULL) || (handle1 == handle2))
 1678              		.loc 1 489 0
 1679 000c 0028     		cmp	r0, #0
 1680 000e 3BD0     		beq	.L108
 1681              		.loc 1 489 0 is_stmt 0 discriminator 1
 1682 0010 0029     		cmp	r1, #0
 1683 0012 3CD0     		beq	.L109
 1684              		.loc 1 489 0 discriminator 2
 1685 0014 8842     		cmp	r0, r1
 1686 0016 3DD0     		beq	.L110
 1687              	.LVL263:
 1688              	.LBB43:
 490:Source\azure_iot_sdk\c-utility\src/buffer.c ****     {
 491:Source\azure_iot_sdk\c-utility\src/buffer.c ****         /* Codes_SRS_BUFFER_01_005: [ BUFFER_prepend shall return a non-zero upon value any error t
 492:Source\azure_iot_sdk\c-utility\src/buffer.c ****         result = __FAILURE__;
 493:Source\azure_iot_sdk\c-utility\src/buffer.c ****     }
 494:Source\azure_iot_sdk\c-utility\src/buffer.c ****     else
 495:Source\azure_iot_sdk\c-utility\src/buffer.c ****     {
 496:Source\azure_iot_sdk\c-utility\src/buffer.c ****         BUFFER* b1 = (BUFFER*)handle1;
 497:Source\azure_iot_sdk\c-utility\src/buffer.c ****         BUFFER* b2 = (BUFFER*)handle2;
 498:Source\azure_iot_sdk\c-utility\src/buffer.c ****         if (b1->buffer == NULL)
 1689              		.loc 1 498 0 is_stmt 1
 1690 0018 0368     		ldr	r3, [r0]
 1691 001a 002B     		cmp	r3, #0
ARM GAS  C:\Users\Phuong\AppData\Local\Temp\ccVRtur0.s 			page 40


 1692 001c 3DD0     		beq	.L111
 499:Source\azure_iot_sdk\c-utility\src/buffer.c ****         {
 500:Source\azure_iot_sdk\c-utility\src/buffer.c ****             /* Codes_SRS_BUFFER_01_005: [ BUFFER_prepend shall return a non-zero upon value any err
 501:Source\azure_iot_sdk\c-utility\src/buffer.c ****             result = __FAILURE__;
 502:Source\azure_iot_sdk\c-utility\src/buffer.c ****         }
 503:Source\azure_iot_sdk\c-utility\src/buffer.c ****         else if (b2->buffer == NULL)
 1693              		.loc 1 503 0
 1694 001e 0E68     		ldr	r6, [r1]
 1695 0020 002E     		cmp	r6, #0
 1696 0022 3DD0     		beq	.L112
 504:Source\azure_iot_sdk\c-utility\src/buffer.c ****         {
 505:Source\azure_iot_sdk\c-utility\src/buffer.c ****             /* Codes_SRS_BUFFER_01_005: [ BUFFER_prepend shall return a non-zero upon value any err
 506:Source\azure_iot_sdk\c-utility\src/buffer.c ****             result = __FAILURE__;
 507:Source\azure_iot_sdk\c-utility\src/buffer.c ****         }
 508:Source\azure_iot_sdk\c-utility\src/buffer.c ****         else
 509:Source\azure_iot_sdk\c-utility\src/buffer.c ****         {
 510:Source\azure_iot_sdk\c-utility\src/buffer.c ****             //put b2 ahead of b1: [b2][b1], return b1
 511:Source\azure_iot_sdk\c-utility\src/buffer.c ****             if (b2->size ==0)
 1697              		.loc 1 511 0
 1698 0024 4F68     		ldr	r7, [r1, #4]
 1699 0026 002F     		cmp	r7, #0
 1700 0028 3DD0     		beq	.L113
 1701              	.LBB44:
 512:Source\azure_iot_sdk\c-utility\src/buffer.c ****             {
 513:Source\azure_iot_sdk\c-utility\src/buffer.c ****                 // do nothing
 514:Source\azure_iot_sdk\c-utility\src/buffer.c ****                 result = 0;
 515:Source\azure_iot_sdk\c-utility\src/buffer.c ****             }
 516:Source\azure_iot_sdk\c-utility\src/buffer.c ****             else
 517:Source\azure_iot_sdk\c-utility\src/buffer.c ****             {
 518:Source\azure_iot_sdk\c-utility\src/buffer.c ****                 // b2->size != 0
 519:Source\azure_iot_sdk\c-utility\src/buffer.c ****                 unsigned char* temp = (unsigned char*)malloc(b1->size + b2->size);
 1702              		.loc 1 519 0
 1703 002a 4368     		ldr	r3, [r0, #4]
 1704 002c F818     		adds	r0, r7, r3
 1705              	.LVL264:
 1706 002e FFF7FEFF 		bl	malloc
 1707              	.LVL265:
 1708 0032 8046     		mov	r8, r0
 1709              	.LVL266:
 520:Source\azure_iot_sdk\c-utility\src/buffer.c ****                 if (temp == NULL)
 1710              		.loc 1 520 0
 1711 0034 0028     		cmp	r0, #0
 1712 0036 10D1     		bne	.L107
 1713              	.LBB45:
 521:Source\azure_iot_sdk\c-utility\src/buffer.c ****                 {
 522:Source\azure_iot_sdk\c-utility\src/buffer.c ****                     /* Codes_SRS_BUFFER_01_005: [ BUFFER_prepend shall return a non-zero upon value
 523:Source\azure_iot_sdk\c-utility\src/buffer.c ****                     LogError("Failure: allocating temp buffer.");
 1714              		.loc 1 523 0 discriminator 3
 1715 0038 FFF7FEFF 		bl	xlogging_get_log_function
 1716              	.LVL267:
 1717 003c 041E     		subs	r4, r0, #0
 1718              	.LVL268:
 1719 003e 34D0     		beq	.L114
 1720              		.loc 1 523 0 is_stmt 0 discriminator 4
 1721 0040 1D4B     		ldr	r3, .L115
 1722 0042 0193     		str	r3, [sp, #4]
 1723 0044 0123     		movs	r3, #1
ARM GAS  C:\Users\Phuong\AppData\Local\Temp\ccVRtur0.s 			page 41


 1724 0046 0093     		str	r3, [sp]
 1725 0048 1C4B     		ldr	r3, .L115+4
 1726 004a 1D4A     		ldr	r2, .L115+8
 1727 004c 1C32     		adds	r2, r2, #28
 1728 004e 1D49     		ldr	r1, .L115+12
 1729 0050 0020     		movs	r0, #0
 1730              	.LVL269:
 1731 0052 A047     		blx	r4
 1732              	.LVL270:
 1733              	.LBE45:
 524:Source\azure_iot_sdk\c-utility\src/buffer.c ****                     result = __FAILURE__;
 1734              		.loc 1 524 0 is_stmt 1 discriminator 4
 1735 0054 8320     		movs	r0, #131
 1736 0056 8000     		lsls	r0, r0, #2
 1737 0058 29E0     		b	.L106
 1738              	.LVL271:
 1739              	.L107:
 525:Source\azure_iot_sdk\c-utility\src/buffer.c ****                 }
 526:Source\azure_iot_sdk\c-utility\src/buffer.c ****                 else
 527:Source\azure_iot_sdk\c-utility\src/buffer.c ****                 {
 528:Source\azure_iot_sdk\c-utility\src/buffer.c ****                     /* Codes_SRS_BUFFER_01_004: [ BUFFER_prepend concatenates handle1 onto handle2 
 529:Source\azure_iot_sdk\c-utility\src/buffer.c ****                     // Append the BUFFER
 530:Source\azure_iot_sdk\c-utility\src/buffer.c ****                     (void)memcpy(temp, b2->buffer, b2->size);
 1740              		.loc 1 530 0
 1741 005a 3A00     		movs	r2, r7
 1742 005c 3100     		movs	r1, r6
 1743 005e FFF7FEFF 		bl	memcpy
 1744              	.LVL272:
 531:Source\azure_iot_sdk\c-utility\src/buffer.c ****                     // start from b1->size to append b1
 532:Source\azure_iot_sdk\c-utility\src/buffer.c ****                     (void)memcpy(&temp[b2->size], b1->buffer, b1->size);
 1745              		.loc 1 532 0
 1746 0062 6B68     		ldr	r3, [r5, #4]
 1747 0064 4344     		add	r3, r3, r8
 1748 0066 1800     		movs	r0, r3
 1749 0068 6268     		ldr	r2, [r4, #4]
 1750 006a 2168     		ldr	r1, [r4]
 1751 006c FFF7FEFF 		bl	memcpy
 1752              	.LVL273:
 533:Source\azure_iot_sdk\c-utility\src/buffer.c ****                     free(b1->buffer);
 1753              		.loc 1 533 0
 1754 0070 2068     		ldr	r0, [r4]
 1755 0072 FFF7FEFF 		bl	free
 1756              	.LVL274:
 534:Source\azure_iot_sdk\c-utility\src/buffer.c ****                     b1->buffer = temp;
 1757              		.loc 1 534 0
 1758 0076 4346     		mov	r3, r8
 1759 0078 2360     		str	r3, [r4]
 535:Source\azure_iot_sdk\c-utility\src/buffer.c ****                     b1->size += b2->size;
 1760              		.loc 1 535 0
 1761 007a 6B68     		ldr	r3, [r5, #4]
 1762 007c 6268     		ldr	r2, [r4, #4]
 1763 007e 9446     		mov	ip, r2
 1764 0080 6344     		add	r3, r3, ip
 1765 0082 6360     		str	r3, [r4, #4]
 1766              	.LVL275:
 536:Source\azure_iot_sdk\c-utility\src/buffer.c ****                     result = 0;
 1767              		.loc 1 536 0
ARM GAS  C:\Users\Phuong\AppData\Local\Temp\ccVRtur0.s 			page 42


 1768 0084 0020     		movs	r0, #0
 1769 0086 12E0     		b	.L106
 1770              	.LVL276:
 1771              	.L108:
 1772              	.LBE44:
 1773              	.LBE43:
 492:Source\azure_iot_sdk\c-utility\src/buffer.c ****     }
 1774              		.loc 1 492 0
 1775 0088 F620     		movs	r0, #246
 1776              	.LVL277:
 1777 008a 4000     		lsls	r0, r0, #1
 1778 008c 0FE0     		b	.L106
 1779              	.LVL278:
 1780              	.L109:
 1781 008e F620     		movs	r0, #246
 1782              	.LVL279:
 1783 0090 4000     		lsls	r0, r0, #1
 1784 0092 0CE0     		b	.L106
 1785              	.LVL280:
 1786              	.L110:
 1787 0094 F620     		movs	r0, #246
 1788              	.LVL281:
 1789 0096 4000     		lsls	r0, r0, #1
 1790 0098 09E0     		b	.L106
 1791              	.LVL282:
 1792              	.L111:
 1793              	.LBB47:
 501:Source\azure_iot_sdk\c-utility\src/buffer.c ****         }
 1794              		.loc 1 501 0
 1795 009a F620     		movs	r0, #246
 1796              	.LVL283:
 1797 009c FF30     		adds	r0, r0, #255
 1798 009e 06E0     		b	.L106
 1799              	.LVL284:
 1800              	.L112:
 506:Source\azure_iot_sdk\c-utility\src/buffer.c ****         }
 1801              		.loc 1 506 0
 1802 00a0 FD20     		movs	r0, #253
 1803              	.LVL285:
 1804 00a2 4000     		lsls	r0, r0, #1
 1805 00a4 03E0     		b	.L106
 1806              	.LVL286:
 1807              	.L113:
 514:Source\azure_iot_sdk\c-utility\src/buffer.c ****             }
 1808              		.loc 1 514 0
 1809 00a6 0020     		movs	r0, #0
 1810              	.LVL287:
 1811 00a8 01E0     		b	.L106
 1812              	.LVL288:
 1813              	.L114:
 1814              	.LBB46:
 524:Source\azure_iot_sdk\c-utility\src/buffer.c ****                 }
 1815              		.loc 1 524 0
 1816 00aa 8320     		movs	r0, #131
 1817              	.LVL289:
 1818 00ac 8000     		lsls	r0, r0, #2
 1819              	.LVL290:
ARM GAS  C:\Users\Phuong\AppData\Local\Temp\ccVRtur0.s 			page 43


 1820              	.L106:
 1821              	.LBE46:
 1822              	.LBE47:
 537:Source\azure_iot_sdk\c-utility\src/buffer.c ****                 }
 538:Source\azure_iot_sdk\c-utility\src/buffer.c ****             }
 539:Source\azure_iot_sdk\c-utility\src/buffer.c ****         }
 540:Source\azure_iot_sdk\c-utility\src/buffer.c ****     }
 541:Source\azure_iot_sdk\c-utility\src/buffer.c ****     return result;
 542:Source\azure_iot_sdk\c-utility\src/buffer.c **** }
 1823              		.loc 1 542 0
 1824 00ae 02B0     		add	sp, sp, #8
 1825              		@ sp needed
 1826              	.LVL291:
 1827 00b0 04BC     		pop	{r2}
 1828 00b2 9046     		mov	r8, r2
 1829 00b4 F0BD     		pop	{r4, r5, r6, r7, pc}
 1830              	.L116:
 1831 00b6 C046     		.align	2
 1832              	.L115:
 1833 00b8 D0010000 		.word	.LC40
 1834 00bc 0B020000 		.word	523
 1835 00c0 80000000 		.word	.LANCHOR1
 1836 00c4 00000000 		.word	.LC1
 1837              		.cfi_endproc
 1838              	.LFE14:
 1839              		.size	BUFFER_prepend, .-BUFFER_prepend
 1840              		.section	.text.BUFFER_fill,"ax",%progbits
 1841              		.align	2
 1842              		.global	BUFFER_fill
 1843              		.code	16
 1844              		.thumb_func
 1845              		.type	BUFFER_fill, %function
 1846              	BUFFER_fill:
 1847              	.LFB15:
 543:Source\azure_iot_sdk\c-utility\src/buffer.c **** 
 544:Source\azure_iot_sdk\c-utility\src/buffer.c **** int BUFFER_fill(BUFFER_HANDLE handle, unsigned char fill_char)
 545:Source\azure_iot_sdk\c-utility\src/buffer.c **** {
 1848              		.loc 1 545 0
 1849              		.cfi_startproc
 1850              		@ args = 0, pretend = 0, frame = 0
 1851              		@ frame_needed = 0, uses_anonymous_args = 0
 1852              	.LVL292:
 1853 0000 10B5     		push	{r4, lr}
 1854              		.cfi_def_cfa_offset 8
 1855              		.cfi_offset 4, -8
 1856              		.cfi_offset 14, -4
 1857 0002 82B0     		sub	sp, sp, #8
 1858              		.cfi_def_cfa_offset 16
 546:Source\azure_iot_sdk\c-utility\src/buffer.c ****     int result;
 547:Source\azure_iot_sdk\c-utility\src/buffer.c ****     if (handle == NULL)
 1859              		.loc 1 547 0
 1860 0004 0028     		cmp	r0, #0
 1861 0006 13D1     		bne	.L121
 1862              	.LBB48:
 548:Source\azure_iot_sdk\c-utility\src/buffer.c ****     {
 549:Source\azure_iot_sdk\c-utility\src/buffer.c ****         /* Codes_SRS_BUFFER_07_002: [ If handle is NULL BUFFER_fill shall return a non-zero value. 
 550:Source\azure_iot_sdk\c-utility\src/buffer.c ****         LogError("Invalid parameter specified, handle == NULL.");
ARM GAS  C:\Users\Phuong\AppData\Local\Temp\ccVRtur0.s 			page 44


 1863              		.loc 1 550 0 discriminator 3
 1864 0008 FFF7FEFF 		bl	xlogging_get_log_function
 1865              	.LVL293:
 1866 000c 041E     		subs	r4, r0, #0
 1867              	.LVL294:
 1868 000e 15D0     		beq	.L122
 1869              		.loc 1 550 0 is_stmt 0 discriminator 4
 1870 0010 0C4B     		ldr	r3, .L123
 1871 0012 0193     		str	r3, [sp, #4]
 1872 0014 0123     		movs	r3, #1
 1873 0016 0093     		str	r3, [sp]
 1874 0018 0B4B     		ldr	r3, .L123+4
 1875 001a 0C4A     		ldr	r2, .L123+8
 1876 001c 2C32     		adds	r2, r2, #44
 1877 001e 0C49     		ldr	r1, .L123+12
 1878 0020 0020     		movs	r0, #0
 1879              	.LVL295:
 1880 0022 A047     		blx	r4
 1881              	.LVL296:
 1882              	.LBE48:
 551:Source\azure_iot_sdk\c-utility\src/buffer.c ****         result = __FAILURE__;
 1883              		.loc 1 551 0 is_stmt 1 discriminator 4
 1884 0024 0B48     		ldr	r0, .L123+16
 1885 0026 0AE0     		b	.L119
 1886              	.LVL297:
 1887              	.L120:
 1888              	.LBB49:
 552:Source\azure_iot_sdk\c-utility\src/buffer.c ****     }
 553:Source\azure_iot_sdk\c-utility\src/buffer.c ****     else
 554:Source\azure_iot_sdk\c-utility\src/buffer.c ****     {
 555:Source\azure_iot_sdk\c-utility\src/buffer.c ****         size_t index;
 556:Source\azure_iot_sdk\c-utility\src/buffer.c ****         /* Codes_SRS_BUFFER_07_001: [ BUFFER_fill shall fill the supplied BUFFER_HANDLE with the su
 557:Source\azure_iot_sdk\c-utility\src/buffer.c ****         BUFFER* buffer_data = (BUFFER*)handle;
 558:Source\azure_iot_sdk\c-utility\src/buffer.c ****         for (index = 0; index < buffer_data->size; index++)
 559:Source\azure_iot_sdk\c-utility\src/buffer.c ****         {
 560:Source\azure_iot_sdk\c-utility\src/buffer.c ****             buffer_data->buffer[index] = fill_char;
 1889              		.loc 1 560 0 discriminator 3
 1890 0028 0268     		ldr	r2, [r0]
 1891 002a D154     		strb	r1, [r2, r3]
 558:Source\azure_iot_sdk\c-utility\src/buffer.c ****         {
 1892              		.loc 1 558 0 discriminator 3
 1893 002c 0133     		adds	r3, r3, #1
 1894              	.LVL298:
 1895 002e 00E0     		b	.L118
 1896              	.LVL299:
 1897              	.L121:
 1898              	.LBE49:
 1899 0030 0023     		movs	r3, #0
 1900              	.L118:
 1901              	.LVL300:
 1902              	.LBB50:
 558:Source\azure_iot_sdk\c-utility\src/buffer.c ****         {
 1903              		.loc 1 558 0 is_stmt 0 discriminator 1
 1904 0032 4268     		ldr	r2, [r0, #4]
 1905 0034 9342     		cmp	r3, r2
 1906 0036 F7D3     		bcc	.L120
 561:Source\azure_iot_sdk\c-utility\src/buffer.c ****         }
ARM GAS  C:\Users\Phuong\AppData\Local\Temp\ccVRtur0.s 			page 45


 562:Source\azure_iot_sdk\c-utility\src/buffer.c ****         result = 0;
 1907              		.loc 1 562 0 is_stmt 1
 1908 0038 0020     		movs	r0, #0
 1909              	.LVL301:
 1910 003a 00E0     		b	.L119
 1911              	.LVL302:
 1912              	.L122:
 1913              	.LBE50:
 551:Source\azure_iot_sdk\c-utility\src/buffer.c ****     }
 1914              		.loc 1 551 0
 1915 003c 0548     		ldr	r0, .L123+16
 1916              	.LVL303:
 1917              	.L119:
 563:Source\azure_iot_sdk\c-utility\src/buffer.c ****     }
 564:Source\azure_iot_sdk\c-utility\src/buffer.c ****     return result;
 565:Source\azure_iot_sdk\c-utility\src/buffer.c **** }
 1918              		.loc 1 565 0
 1919 003e 02B0     		add	sp, sp, #8
 1920              		@ sp needed
 1921 0040 10BD     		pop	{r4, pc}
 1922              	.L124:
 1923 0042 C046     		.align	2
 1924              	.L123:
 1925 0044 48020000 		.word	.LC58
 1926 0048 26020000 		.word	550
 1927 004c 80000000 		.word	.LANCHOR1
 1928 0050 00000000 		.word	.LC1
 1929 0054 27020000 		.word	551
 1930              		.cfi_endproc
 1931              	.LFE15:
 1932              		.size	BUFFER_fill, .-BUFFER_fill
 1933              		.section	.text.BUFFER_u_char,"ax",%progbits
 1934              		.align	2
 1935              		.global	BUFFER_u_char
 1936              		.code	16
 1937              		.thumb_func
 1938              		.type	BUFFER_u_char, %function
 1939              	BUFFER_u_char:
 1940              	.LFB16:
 566:Source\azure_iot_sdk\c-utility\src/buffer.c **** 
 567:Source\azure_iot_sdk\c-utility\src/buffer.c **** 
 568:Source\azure_iot_sdk\c-utility\src/buffer.c **** /* Codes_SRS_BUFFER_07_025: [BUFFER_u_char shall return a pointer to the underlying unsigned char*.
 569:Source\azure_iot_sdk\c-utility\src/buffer.c **** unsigned char* BUFFER_u_char(BUFFER_HANDLE handle)
 570:Source\azure_iot_sdk\c-utility\src/buffer.c **** {
 1941              		.loc 1 570 0
 1942              		.cfi_startproc
 1943              		@ args = 0, pretend = 0, frame = 0
 1944              		@ frame_needed = 0, uses_anonymous_args = 0
 1945              		@ link register save eliminated.
 1946              	.LVL304:
 571:Source\azure_iot_sdk\c-utility\src/buffer.c ****     BUFFER* handleData = (BUFFER*)handle;
 572:Source\azure_iot_sdk\c-utility\src/buffer.c ****     unsigned char* result;
 573:Source\azure_iot_sdk\c-utility\src/buffer.c ****     if (handle == NULL || handleData->size == 0)
 1947              		.loc 1 573 0
 1948 0000 0028     		cmp	r0, #0
 1949 0002 04D0     		beq	.L127
 1950              		.loc 1 573 0 is_stmt 0 discriminator 1
ARM GAS  C:\Users\Phuong\AppData\Local\Temp\ccVRtur0.s 			page 46


 1951 0004 4368     		ldr	r3, [r0, #4]
 1952 0006 002B     		cmp	r3, #0
 1953 0008 03D0     		beq	.L128
 574:Source\azure_iot_sdk\c-utility\src/buffer.c ****     {
 575:Source\azure_iot_sdk\c-utility\src/buffer.c ****         /* Codes_SRS_BUFFER_07_026: [BUFFER_u_char shall return NULL for any error that is encounte
 576:Source\azure_iot_sdk\c-utility\src/buffer.c ****         /* Codes_SRS_BUFFER_07_029: [BUFFER_u_char shall return NULL if underlying buffer size is z
 577:Source\azure_iot_sdk\c-utility\src/buffer.c ****         result = NULL;
 578:Source\azure_iot_sdk\c-utility\src/buffer.c ****     }
 579:Source\azure_iot_sdk\c-utility\src/buffer.c ****     else
 580:Source\azure_iot_sdk\c-utility\src/buffer.c ****     {
 581:Source\azure_iot_sdk\c-utility\src/buffer.c ****         result = handleData->buffer;
 1954              		.loc 1 581 0 is_stmt 1
 1955 000a 0068     		ldr	r0, [r0]
 1956              	.LVL305:
 1957 000c 02E0     		b	.L126
 1958              	.LVL306:
 1959              	.L127:
 577:Source\azure_iot_sdk\c-utility\src/buffer.c ****     }
 1960              		.loc 1 577 0
 1961 000e 0020     		movs	r0, #0
 1962              	.LVL307:
 1963 0010 00E0     		b	.L126
 1964              	.LVL308:
 1965              	.L128:
 1966 0012 0020     		movs	r0, #0
 1967              	.LVL309:
 1968              	.L126:
 582:Source\azure_iot_sdk\c-utility\src/buffer.c ****     }
 583:Source\azure_iot_sdk\c-utility\src/buffer.c ****     return result;
 584:Source\azure_iot_sdk\c-utility\src/buffer.c **** }
 1969              		.loc 1 584 0
 1970              		@ sp needed
 1971 0014 7047     		bx	lr
 1972              		.cfi_endproc
 1973              	.LFE16:
 1974              		.size	BUFFER_u_char, .-BUFFER_u_char
 1975 0016 C046     		.section	.text.BUFFER_length,"ax",%progbits
 1976              		.align	2
 1977              		.global	BUFFER_length
 1978              		.code	16
 1979              		.thumb_func
 1980              		.type	BUFFER_length, %function
 1981              	BUFFER_length:
 1982              	.LFB17:
 585:Source\azure_iot_sdk\c-utility\src/buffer.c **** 
 586:Source\azure_iot_sdk\c-utility\src/buffer.c **** /* Codes_SRS_BUFFER_07_027: [BUFFER_length shall return the size of the underlying buffer.] */
 587:Source\azure_iot_sdk\c-utility\src/buffer.c **** size_t BUFFER_length(BUFFER_HANDLE handle)
 588:Source\azure_iot_sdk\c-utility\src/buffer.c **** {
 1983              		.loc 1 588 0
 1984              		.cfi_startproc
 1985              		@ args = 0, pretend = 0, frame = 0
 1986              		@ frame_needed = 0, uses_anonymous_args = 0
 1987              		@ link register save eliminated.
 1988              	.LVL310:
 589:Source\azure_iot_sdk\c-utility\src/buffer.c ****     size_t result;
 590:Source\azure_iot_sdk\c-utility\src/buffer.c ****     if (handle == NULL)
 1989              		.loc 1 590 0
ARM GAS  C:\Users\Phuong\AppData\Local\Temp\ccVRtur0.s 			page 47


 1990 0000 0028     		cmp	r0, #0
 1991 0002 01D0     		beq	.L131
 1992              	.LVL311:
 1993              	.LBB51:
 591:Source\azure_iot_sdk\c-utility\src/buffer.c ****     {
 592:Source\azure_iot_sdk\c-utility\src/buffer.c ****         /* Codes_SRS_BUFFER_07_028: [BUFFER_length shall return zero for any error that is encounte
 593:Source\azure_iot_sdk\c-utility\src/buffer.c ****         result = 0;
 594:Source\azure_iot_sdk\c-utility\src/buffer.c ****     }
 595:Source\azure_iot_sdk\c-utility\src/buffer.c ****     else
 596:Source\azure_iot_sdk\c-utility\src/buffer.c ****     {
 597:Source\azure_iot_sdk\c-utility\src/buffer.c ****         BUFFER* b = (BUFFER*)handle;
 598:Source\azure_iot_sdk\c-utility\src/buffer.c ****         result = b->size;
 1994              		.loc 1 598 0
 1995 0004 4068     		ldr	r0, [r0, #4]
 1996              	.LVL312:
 1997 0006 00E0     		b	.L130
 1998              	.LVL313:
 1999              	.L131:
 2000              	.LBE51:
 593:Source\azure_iot_sdk\c-utility\src/buffer.c ****     }
 2001              		.loc 1 593 0
 2002 0008 0020     		movs	r0, #0
 2003              	.LVL314:
 2004              	.L130:
 599:Source\azure_iot_sdk\c-utility\src/buffer.c ****     }
 600:Source\azure_iot_sdk\c-utility\src/buffer.c ****     return result;
 601:Source\azure_iot_sdk\c-utility\src/buffer.c **** }
 2005              		.loc 1 601 0
 2006              		@ sp needed
 2007 000a 7047     		bx	lr
 2008              		.cfi_endproc
 2009              	.LFE17:
 2010              		.size	BUFFER_length, .-BUFFER_length
 2011              		.section	.text.BUFFER_clone,"ax",%progbits
 2012              		.align	2
 2013              		.global	BUFFER_clone
 2014              		.code	16
 2015              		.thumb_func
 2016              		.type	BUFFER_clone, %function
 2017              	BUFFER_clone:
 2018              	.LFB18:
 602:Source\azure_iot_sdk\c-utility\src/buffer.c **** 
 603:Source\azure_iot_sdk\c-utility\src/buffer.c **** BUFFER_HANDLE BUFFER_clone(BUFFER_HANDLE handle)
 604:Source\azure_iot_sdk\c-utility\src/buffer.c **** {
 2019              		.loc 1 604 0
 2020              		.cfi_startproc
 2021              		@ args = 0, pretend = 0, frame = 0
 2022              		@ frame_needed = 0, uses_anonymous_args = 0
 2023              	.LVL315:
 2024 0000 30B5     		push	{r4, r5, lr}
 2025              		.cfi_def_cfa_offset 12
 2026              		.cfi_offset 4, -12
 2027              		.cfi_offset 5, -8
 2028              		.cfi_offset 14, -4
 2029 0002 83B0     		sub	sp, sp, #12
 2030              		.cfi_def_cfa_offset 24
 2031 0004 051E     		subs	r5, r0, #0
ARM GAS  C:\Users\Phuong\AppData\Local\Temp\ccVRtur0.s 			page 48


 605:Source\azure_iot_sdk\c-utility\src/buffer.c ****     BUFFER_HANDLE result;
 606:Source\azure_iot_sdk\c-utility\src/buffer.c ****     if (handle == NULL)
 2032              		.loc 1 606 0
 2033 0006 24D0     		beq	.L135
 2034              	.LVL316:
 2035              	.LBB52:
 607:Source\azure_iot_sdk\c-utility\src/buffer.c ****     {
 608:Source\azure_iot_sdk\c-utility\src/buffer.c ****         result = NULL;
 609:Source\azure_iot_sdk\c-utility\src/buffer.c ****     }
 610:Source\azure_iot_sdk\c-utility\src/buffer.c ****     else
 611:Source\azure_iot_sdk\c-utility\src/buffer.c ****     {
 612:Source\azure_iot_sdk\c-utility\src/buffer.c ****         BUFFER* suppliedBuff = (BUFFER*)handle;
 613:Source\azure_iot_sdk\c-utility\src/buffer.c ****         BUFFER* b = (BUFFER*)malloc(sizeof(BUFFER));
 2036              		.loc 1 613 0
 2037 0008 0820     		movs	r0, #8
 2038              	.LVL317:
 2039 000a FFF7FEFF 		bl	malloc
 2040              	.LVL318:
 2041 000e 041E     		subs	r4, r0, #0
 2042              	.LVL319:
 614:Source\azure_iot_sdk\c-utility\src/buffer.c ****         if (b != NULL)
 2043              		.loc 1 614 0
 2044 0010 22D0     		beq	.L133
 615:Source\azure_iot_sdk\c-utility\src/buffer.c ****         {
 616:Source\azure_iot_sdk\c-utility\src/buffer.c ****             if (BUFFER_safemalloc(b, suppliedBuff->size) != 0)
 2045              		.loc 1 616 0
 2046 0012 6968     		ldr	r1, [r5, #4]
 2047 0014 FFF7FEFF 		bl	BUFFER_safemalloc
 2048              	.LVL320:
 2049 0018 0028     		cmp	r0, #0
 2050 001a 12D0     		beq	.L134
 617:Source\azure_iot_sdk\c-utility\src/buffer.c ****             {
 618:Source\azure_iot_sdk\c-utility\src/buffer.c ****                 free(b);
 2051              		.loc 1 618 0
 2052 001c 2000     		movs	r0, r4
 2053 001e FFF7FEFF 		bl	free
 2054              	.LVL321:
 2055              	.LBB53:
 619:Source\azure_iot_sdk\c-utility\src/buffer.c ****                 LogError("Failure: allocating temp buffer.");
 2056              		.loc 1 619 0
 2057 0022 FFF7FEFF 		bl	xlogging_get_log_function
 2058              	.LVL322:
 2059 0026 041E     		subs	r4, r0, #0
 2060              	.LVL323:
 2061 0028 15D0     		beq	.L136
 2062              		.loc 1 619 0 is_stmt 0 discriminator 4
 2063 002a 0D4B     		ldr	r3, .L137
 2064 002c 0193     		str	r3, [sp, #4]
 2065 002e 0123     		movs	r3, #1
 2066 0030 0093     		str	r3, [sp]
 2067 0032 0C4B     		ldr	r3, .L137+4
 2068 0034 0C4A     		ldr	r2, .L137+8
 2069 0036 3832     		adds	r2, r2, #56
 2070 0038 0C49     		ldr	r1, .L137+12
 2071 003a 0020     		movs	r0, #0
 2072              	.LVL324:
 2073 003c A047     		blx	r4
ARM GAS  C:\Users\Phuong\AppData\Local\Temp\ccVRtur0.s 			page 49


 2074              	.LVL325:
 2075              	.LBE53:
 620:Source\azure_iot_sdk\c-utility\src/buffer.c ****                 result = NULL;
 2076              		.loc 1 620 0 is_stmt 1 discriminator 4
 2077 003e 0024     		movs	r4, #0
 2078              	.LVL326:
 2079 0040 0AE0     		b	.L133
 2080              	.LVL327:
 2081              	.L134:
 621:Source\azure_iot_sdk\c-utility\src/buffer.c ****             }
 622:Source\azure_iot_sdk\c-utility\src/buffer.c ****             else
 623:Source\azure_iot_sdk\c-utility\src/buffer.c ****             {
 624:Source\azure_iot_sdk\c-utility\src/buffer.c ****                 (void)memcpy(b->buffer, suppliedBuff->buffer, suppliedBuff->size);
 2082              		.loc 1 624 0
 2083 0042 6A68     		ldr	r2, [r5, #4]
 2084 0044 2968     		ldr	r1, [r5]
 2085 0046 2068     		ldr	r0, [r4]
 2086 0048 FFF7FEFF 		bl	memcpy
 2087              	.LVL328:
 625:Source\azure_iot_sdk\c-utility\src/buffer.c ****                 b->size = suppliedBuff->size;
 2088              		.loc 1 625 0
 2089 004c 6B68     		ldr	r3, [r5, #4]
 2090 004e 6360     		str	r3, [r4, #4]
 2091              	.LVL329:
 2092 0050 02E0     		b	.L133
 2093              	.LVL330:
 2094              	.L135:
 2095              	.LBE52:
 608:Source\azure_iot_sdk\c-utility\src/buffer.c ****     }
 2096              		.loc 1 608 0
 2097 0052 0024     		movs	r4, #0
 2098 0054 00E0     		b	.L133
 2099              	.LVL331:
 2100              	.L136:
 2101              	.LBB54:
 620:Source\azure_iot_sdk\c-utility\src/buffer.c ****             }
 2102              		.loc 1 620 0
 2103 0056 0024     		movs	r4, #0
 2104              	.LVL332:
 2105              	.L133:
 2106              	.LBE54:
 626:Source\azure_iot_sdk\c-utility\src/buffer.c ****                 result = (BUFFER_HANDLE)b;
 627:Source\azure_iot_sdk\c-utility\src/buffer.c ****             }
 628:Source\azure_iot_sdk\c-utility\src/buffer.c ****         }
 629:Source\azure_iot_sdk\c-utility\src/buffer.c ****         else
 630:Source\azure_iot_sdk\c-utility\src/buffer.c ****         {
 631:Source\azure_iot_sdk\c-utility\src/buffer.c ****             result = NULL;
 632:Source\azure_iot_sdk\c-utility\src/buffer.c ****         }
 633:Source\azure_iot_sdk\c-utility\src/buffer.c ****     }
 634:Source\azure_iot_sdk\c-utility\src/buffer.c ****     return result;
 635:Source\azure_iot_sdk\c-utility\src/buffer.c **** }
 2107              		.loc 1 635 0
 2108 0058 2000     		movs	r0, r4
 2109 005a 03B0     		add	sp, sp, #12
 2110              		@ sp needed
 2111              	.LVL333:
 2112              	.LVL334:
ARM GAS  C:\Users\Phuong\AppData\Local\Temp\ccVRtur0.s 			page 50


 2113 005c 30BD     		pop	{r4, r5, pc}
 2114              	.L138:
 2115 005e C046     		.align	2
 2116              	.L137:
 2117 0060 D0010000 		.word	.LC40
 2118 0064 6B020000 		.word	619
 2119 0068 80000000 		.word	.LANCHOR1
 2120 006c 00000000 		.word	.LC1
 2121              		.cfi_endproc
 2122              	.LFE18:
 2123              		.size	BUFFER_clone, .-BUFFER_clone
 2124              		.section	.rodata
 2125              		.align	2
 2126              		.set	.LANCHOR0,. + 0
 2127              		.set	.LANCHOR1,. + 128
 2128              		.type	__func__.5898, %object
 2129              		.size	__func__.5898, 18
 2130              	__func__.5898:
 2131 0000 42554646 		.ascii	"BUFFER_safemalloc\000"
 2131      45525F73 
 2131      6166656D 
 2131      616C6C6F 
 2131      6300
 2132 0012 0000     		.space	2
 2133              		.type	__func__.5907, %object
 2134              		.size	__func__.5907, 14
 2135              	__func__.5907:
 2136 0014 42554646 		.ascii	"BUFFER_create\000"
 2136      45525F63 
 2136      72656174 
 2136      6500
 2137 0022 0000     		.space	2
 2138              		.type	__func__.5930, %object
 2139              		.size	__func__.5930, 13
 2140              	__func__.5930:
 2141 0024 42554646 		.ascii	"BUFFER_build\000"
 2141      45525F62 
 2141      75696C64 
 2141      00
 2142 0031 000000   		.space	3
 2143              		.type	__func__.5940, %object
 2144              		.size	__func__.5940, 20
 2145              	__func__.5940:
 2146 0034 42554646 		.ascii	"BUFFER_append_build\000"
 2146      45525F61 
 2146      7070656E 
 2146      645F6275 
 2146      696C6400 
 2147              		.type	__func__.5957, %object
 2148              		.size	__func__.5957, 17
 2149              	__func__.5957:
 2150 0048 42554646 		.ascii	"BUFFER_pre_build\000"
 2150      45525F70 
 2150      72655F62 
 2150      75696C64 
 2150      00
 2151 0059 000000   		.space	3
ARM GAS  C:\Users\Phuong\AppData\Local\Temp\ccVRtur0.s 			page 51


 2152              		.type	__func__.5975, %object
 2153              		.size	__func__.5975, 15
 2154              	__func__.5975:
 2155 005c 42554646 		.ascii	"BUFFER_unbuild\000"
 2155      45525F75 
 2155      6E627569 
 2155      6C6400
 2156 006b 00       		.space	1
 2157              		.type	__func__.5984, %object
 2158              		.size	__func__.5984, 15
 2159              	__func__.5984:
 2160 006c 42554646 		.ascii	"BUFFER_enlarge\000"
 2160      45525F65 
 2160      6E6C6172 
 2160      676500
 2161 007b 00       		.space	1
 2162              		.type	__func__.6002, %object
 2163              		.size	__func__.6002, 14
 2164              	__func__.6002:
 2165 007c 42554646 		.ascii	"BUFFER_shrink\000"
 2165      45525F73 
 2165      6872696E 
 2165      6B00
 2166 008a 0000     		.space	2
 2167              		.type	__func__.6031, %object
 2168              		.size	__func__.6031, 14
 2169              	__func__.6031:
 2170 008c 42554646 		.ascii	"BUFFER_append\000"
 2170      45525F61 
 2170      7070656E 
 2170      6400
 2171 009a 0000     		.space	2
 2172              		.type	__func__.6043, %object
 2173              		.size	__func__.6043, 15
 2174              	__func__.6043:
 2175 009c 42554646 		.ascii	"BUFFER_prepend\000"
 2175      45525F70 
 2175      72657065 
 2175      6E6400
 2176 00ab 00       		.space	1
 2177              		.type	__func__.6052, %object
 2178              		.size	__func__.6052, 12
 2179              	__func__.6052:
 2180 00ac 42554646 		.ascii	"BUFFER_fill\000"
 2180      45525F66 
 2180      696C6C00 
 2181              		.type	__func__.6077, %object
 2182              		.size	__func__.6077, 13
 2183              	__func__.6077:
 2184 00b8 42554646 		.ascii	"BUFFER_clone\000"
 2184      45525F63 
 2184      6C6F6E65 
 2184      00
 2185              		.section	.rodata.str1.4,"aMS",%progbits,1
 2186              		.align	2
 2187              	.LC1:
 2188 0000 536F7572 		.ascii	"Source\\azure_iot_sdk\\c-utility\\src\\buffer.c\000"
ARM GAS  C:\Users\Phuong\AppData\Local\Temp\ccVRtur0.s 			page 52


 2188      63655C61 
 2188      7A757265 
 2188      5F696F74 
 2188      5F73646B 
 2189              	.LC3:
 2190 002c 4661696C 		.ascii	"Failure allocating data\000"
 2190      75726520 
 2190      616C6C6F 
 2190      63617469 
 2190      6E672064 
 2191              	.LC7:
 2192 0044 696E7661 		.ascii	"invalid parameter source: %p\000"
 2192      6C696420 
 2192      70617261 
 2192      6D657465 
 2192      7220736F 
 2193 0061 000000   		.space	3
 2194              	.LC9:
 2195 0064 4661696C 		.ascii	"Failure allocating BUFFER structure\000"
 2195      75726520 
 2195      616C6C6F 
 2195      63617469 
 2195      6E672042 
 2196              	.LC11:
 2197 0088 756E6162 		.ascii	"unable to BUFFER_safemalloc \000"
 2197      6C652074 
 2197      6F204255 
 2197      46464552 
 2197      5F736166 
 2198 00a5 000000   		.space	3
 2199              	.LC15:
 2200 00a8 4661696C 		.ascii	"Failure reallocating buffer\000"
 2200      75726520 
 2200      7265616C 
 2200      6C6F6361 
 2200      74696E67 
 2201              	.LC19:
 2202 00c4 42554646 		.ascii	"BUFFER_append_build failed invalid parameter handle"
 2202      45525F61 
 2202      7070656E 
 2202      645F6275 
 2202      696C6420 
 2203 00f7 3A202570 		.ascii	": %p, source: %p, size: %lu\000"
 2203      2C20736F 
 2203      75726365 
 2203      3A202570 
 2203      2C207369 
 2204 0113 00       		.space	1
 2205              	.LC21:
 2206 0114 4661696C 		.ascii	"Failure with BUFFER_safemalloc\000"
 2206      75726520 
 2206      77697468 
 2206      20425546 
 2206      4645525F 
 2207 0133 00       		.space	1
 2208              	.LC23:
 2209 0134 4661696C 		.ascii	"Failure reallocating temporary buffer\000"
ARM GAS  C:\Users\Phuong\AppData\Local\Temp\ccVRtur0.s 			page 53


 2209      75726520 
 2209      7265616C 
 2209      6C6F6361 
 2209      74696E67 
 2210 015a 0000     		.space	2
 2211              	.LC27:
 2212 015c 4661696C 		.ascii	"Failure buffer data is NULL\000"
 2212      75726520 
 2212      62756666 
 2212      65722064 
 2212      61746120 
 2213              	.LC29:
 2214 0178 4661696C 		.ascii	"Failure allocating buffer\000"
 2214      75726520 
 2214      616C6C6F 
 2214      63617469 
 2214      6E672062 
 2215 0192 0000     		.space	2
 2216              	.LC36:
 2217 0194 4661696C 		.ascii	"Failure: handle is invalid.\000"
 2217      7572653A 
 2217      2068616E 
 2217      646C6520 
 2217      69732069 
 2218              	.LC38:
 2219 01b0 4661696C 		.ascii	"Failure: enlargeSize size is 0.\000"
 2219      7572653A 
 2219      20656E6C 
 2219      61726765 
 2219      53697A65 
 2220              	.LC40:
 2221 01d0 4661696C 		.ascii	"Failure: allocating temp buffer.\000"
 2221      7572653A 
 2221      20616C6C 
 2221      6F636174 
 2221      696E6720 
 2222 01f1 000000   		.space	3
 2223              	.LC45:
 2224 01f4 4661696C 		.ascii	"Failure: decrease size is 0.\000"
 2224      7572653A 
 2224      20646563 
 2224      72656173 
 2224      65207369 
 2225 0211 000000   		.space	3
 2226              	.LC47:
 2227 0214 4661696C 		.ascii	"Failure: decrease size is less than buffer size.\000"
 2227      7572653A 
 2227      20646563 
 2227      72656173 
 2227      65207369 
 2228 0245 000000   		.space	3
 2229              	.LC58:
 2230 0248 496E7661 		.ascii	"Invalid parameter specified, handle == NULL.\000"
 2230      6C696420 
 2230      70617261 
 2230      6D657465 
 2230      72207370 
ARM GAS  C:\Users\Phuong\AppData\Local\Temp\ccVRtur0.s 			page 54


 2231              		.text
 2232              	.Letext0:
 2233              		.file 2 "c:\\program files (x86)\\cypress\\psoc creator\\4.2\\psoc creator\\import\\gnu\\arm\\5.4.
 2234              		.file 3 ".\\Source\\azure_iot_sdk\\c-utility\\inc/azure_c_shared_utility/buffer_.h"
 2235              		.file 4 ".\\Source\\azure_iot_sdk\\c-utility\\inc/azure_c_shared_utility/xlogging.h"
 2236              		.file 5 "c:\\program files (x86)\\cypress\\psoc creator\\4.2\\psoc creator\\import\\gnu\\arm\\5.4.
 2237              		.section	.debug_info,"",%progbits
 2238              	.Ldebug_info0:
 2239 0000 C8130000 		.4byte	0x13c8
 2240 0004 0400     		.2byte	0x4
 2241 0006 00000000 		.4byte	.Ldebug_abbrev0
 2242 000a 04       		.byte	0x4
 2243 000b 01       		.uleb128 0x1
 2244 000c 23030000 		.4byte	.LASF63
 2245 0010 0C       		.byte	0xc
 2246 0011 12010000 		.4byte	.LASF64
 2247 0015 D7010000 		.4byte	.LASF65
 2248 0019 38010000 		.4byte	.Ldebug_ranges0+0x138
 2249 001d 00000000 		.4byte	0
 2250 0021 00000000 		.4byte	.Ldebug_line0
 2251 0025 02       		.uleb128 0x2
 2252 0026 3A000000 		.4byte	.LASF12
 2253 002a 02       		.byte	0x2
 2254 002b D8       		.byte	0xd8
 2255 002c 30000000 		.4byte	0x30
 2256 0030 03       		.uleb128 0x3
 2257 0031 04       		.byte	0x4
 2258 0032 07       		.byte	0x7
 2259 0033 3E010000 		.4byte	.LASF0
 2260 0037 04       		.uleb128 0x4
 2261 0038 04       		.byte	0x4
 2262 0039 05       		.byte	0x5
 2263 003a 696E7400 		.ascii	"int\000"
 2264 003e 03       		.uleb128 0x3
 2265 003f 08       		.byte	0x8
 2266 0040 05       		.byte	0x5
 2267 0041 91000000 		.4byte	.LASF1
 2268 0045 03       		.uleb128 0x3
 2269 0046 08       		.byte	0x8
 2270 0047 04       		.byte	0x4
 2271 0048 CB010000 		.4byte	.LASF2
 2272 004c 03       		.uleb128 0x3
 2273 004d 01       		.byte	0x1
 2274 004e 06       		.byte	0x6
 2275 004f 9F000000 		.4byte	.LASF3
 2276 0053 03       		.uleb128 0x3
 2277 0054 01       		.byte	0x1
 2278 0055 08       		.byte	0x8
 2279 0056 CA020000 		.4byte	.LASF4
 2280 005a 03       		.uleb128 0x3
 2281 005b 02       		.byte	0x2
 2282 005c 05       		.byte	0x5
 2283 005d E7020000 		.4byte	.LASF5
 2284 0061 03       		.uleb128 0x3
 2285 0062 02       		.byte	0x2
 2286 0063 07       		.byte	0x7
 2287 0064 8A010000 		.4byte	.LASF6
ARM GAS  C:\Users\Phuong\AppData\Local\Temp\ccVRtur0.s 			page 55


 2288 0068 03       		.uleb128 0x3
 2289 0069 04       		.byte	0x4
 2290 006a 05       		.byte	0x5
 2291 006b D5000000 		.4byte	.LASF7
 2292 006f 03       		.uleb128 0x3
 2293 0070 04       		.byte	0x4
 2294 0071 07       		.byte	0x7
 2295 0072 5B010000 		.4byte	.LASF8
 2296 0076 03       		.uleb128 0x3
 2297 0077 08       		.byte	0x8
 2298 0078 07       		.byte	0x7
 2299 0079 4C000000 		.4byte	.LASF9
 2300 007d 03       		.uleb128 0x3
 2301 007e 04       		.byte	0x4
 2302 007f 07       		.byte	0x7
 2303 0080 BA010000 		.4byte	.LASF10
 2304 0084 03       		.uleb128 0x3
 2305 0085 01       		.byte	0x1
 2306 0086 08       		.byte	0x8
 2307 0087 B5030000 		.4byte	.LASF11
 2308 008b 05       		.uleb128 0x5
 2309 008c 04       		.byte	0x4
 2310 008d 53000000 		.4byte	0x53
 2311 0091 05       		.uleb128 0x5
 2312 0092 04       		.byte	0x4
 2313 0093 97000000 		.4byte	0x97
 2314 0097 06       		.uleb128 0x6
 2315 0098 84000000 		.4byte	0x84
 2316 009c 02       		.uleb128 0x2
 2317 009d 04010000 		.4byte	.LASF13
 2318 00a1 03       		.byte	0x3
 2319 00a2 12       		.byte	0x12
 2320 00a3 A7000000 		.4byte	0xa7
 2321 00a7 05       		.uleb128 0x5
 2322 00a8 04       		.byte	0x4
 2323 00a9 AD000000 		.4byte	0xad
 2324 00ad 07       		.uleb128 0x7
 2325 00ae 41000000 		.4byte	.LASF66
 2326 00b2 08       		.byte	0x8
 2327 00b3 01       		.byte	0x1
 2328 00b4 0D       		.byte	0xd
 2329 00b5 D2000000 		.4byte	0xd2
 2330 00b9 08       		.uleb128 0x8
 2331 00ba DB030000 		.4byte	.LASF14
 2332 00be 01       		.byte	0x1
 2333 00bf 0F       		.byte	0xf
 2334 00c0 8B000000 		.4byte	0x8b
 2335 00c4 00       		.byte	0
 2336 00c5 08       		.uleb128 0x8
 2337 00c6 85010000 		.4byte	.LASF15
 2338 00ca 01       		.byte	0x1
 2339 00cb 10       		.byte	0x10
 2340 00cc 25000000 		.4byte	0x25
 2341 00d0 04       		.byte	0x4
 2342 00d1 00       		.byte	0
 2343 00d2 09       		.uleb128 0x9
 2344 00d3 4E040000 		.4byte	.LASF67
ARM GAS  C:\Users\Phuong\AppData\Local\Temp\ccVRtur0.s 			page 56


 2345 00d7 01       		.byte	0x1
 2346 00d8 53000000 		.4byte	0x53
 2347 00dc 04       		.byte	0x4
 2348 00dd 22       		.byte	0x22
 2349 00de F5000000 		.4byte	0xf5
 2350 00e2 0A       		.uleb128 0xa
 2351 00e3 68000000 		.4byte	.LASF16
 2352 00e7 00       		.byte	0
 2353 00e8 0A       		.uleb128 0xa
 2354 00e9 72040000 		.4byte	.LASF17
 2355 00ed 01       		.byte	0x1
 2356 00ee 0A       		.uleb128 0xa
 2357 00ef 2D000000 		.4byte	.LASF18
 2358 00f3 02       		.byte	0x2
 2359 00f4 00       		.byte	0
 2360 00f5 02       		.uleb128 0x2
 2361 00f6 B7020000 		.4byte	.LASF19
 2362 00fa 04       		.byte	0x4
 2363 00fb 27       		.byte	0x27
 2364 00fc D2000000 		.4byte	0xd2
 2365 0100 02       		.uleb128 0x2
 2366 0101 7A010000 		.4byte	.LASF20
 2367 0105 04       		.byte	0x4
 2368 0106 2F       		.byte	0x2f
 2369 0107 0B010000 		.4byte	0x10b
 2370 010b 05       		.uleb128 0x5
 2371 010c 04       		.byte	0x4
 2372 010d 11010000 		.4byte	0x111
 2373 0111 0B       		.uleb128 0xb
 2374 0112 36010000 		.4byte	0x136
 2375 0116 0C       		.uleb128 0xc
 2376 0117 F5000000 		.4byte	0xf5
 2377 011b 0C       		.uleb128 0xc
 2378 011c 91000000 		.4byte	0x91
 2379 0120 0C       		.uleb128 0xc
 2380 0121 91000000 		.4byte	0x91
 2381 0125 0C       		.uleb128 0xc
 2382 0126 37000000 		.4byte	0x37
 2383 012a 0C       		.uleb128 0xc
 2384 012b 30000000 		.4byte	0x30
 2385 012f 0C       		.uleb128 0xc
 2386 0130 91000000 		.4byte	0x91
 2387 0134 0D       		.uleb128 0xd
 2388 0135 00       		.byte	0
 2389 0136 02       		.uleb128 0x2
 2390 0137 D4030000 		.4byte	.LASF21
 2391 013b 01       		.byte	0x1
 2392 013c 11       		.byte	0x11
 2393 013d AD000000 		.4byte	0xad
 2394 0141 0E       		.uleb128 0xe
 2395 0142 8B020000 		.4byte	.LASF68
 2396 0146 01       		.byte	0x1
 2397 0147 20       		.byte	0x20
 2398 0148 37000000 		.4byte	0x37
 2399 014c 00000000 		.4byte	.LFB2
 2400 0150 50000000 		.4byte	.LFE2-.LFB2
 2401 0154 01       		.uleb128 0x1
ARM GAS  C:\Users\Phuong\AppData\Local\Temp\ccVRtur0.s 			page 57


 2402 0155 9C       		.byte	0x9c
 2403 0156 09020000 		.4byte	0x209
 2404 015a 0F       		.uleb128 0xf
 2405 015b 00000000 		.4byte	.LASF22
 2406 015f 01       		.byte	0x1
 2407 0160 20       		.byte	0x20
 2408 0161 09020000 		.4byte	0x209
 2409 0165 00000000 		.4byte	.LLST0
 2410 0169 0F       		.uleb128 0xf
 2411 016a 85010000 		.4byte	.LASF15
 2412 016e 01       		.byte	0x1
 2413 016f 20       		.byte	0x20
 2414 0170 25000000 		.4byte	0x25
 2415 0174 42000000 		.4byte	.LLST1
 2416 0178 10       		.uleb128 0x10
 2417 0179 5F040000 		.4byte	.LASF23
 2418 017d 01       		.byte	0x1
 2419 017e 22       		.byte	0x22
 2420 017f 37000000 		.4byte	0x37
 2421 0183 87000000 		.4byte	.LLST2
 2422 0187 10       		.uleb128 0x10
 2423 0188 9D020000 		.4byte	.LASF24
 2424 018c 01       		.byte	0x1
 2425 018d 23       		.byte	0x23
 2426 018e 25000000 		.4byte	0x25
 2427 0192 A6000000 		.4byte	.LLST3
 2428 0196 11       		.uleb128 0x11
 2429 0197 0E030000 		.4byte	.LASF29
 2430 019b 1F020000 		.4byte	0x21f
 2431 019f 05       		.uleb128 0x5
 2432 01a0 03       		.byte	0x3
 2433 01a1 00000000 		.4byte	__func__.5898
 2434 01a5 12       		.uleb128 0x12
 2435 01a6 1A000000 		.4byte	.LBB2
 2436 01aa 1A000000 		.4byte	.LBE2-.LBB2
 2437 01ae FF010000 		.4byte	0x1ff
 2438 01b2 13       		.uleb128 0x13
 2439 01b3 6C00     		.ascii	"l\000"
 2440 01b5 01       		.byte	0x1
 2441 01b6 2C       		.byte	0x2c
 2442 01b7 00010000 		.4byte	0x100
 2443 01bb C4000000 		.4byte	.LLST4
 2444 01bf 14       		.uleb128 0x14
 2445 01c0 1E000000 		.4byte	.LVL6
 2446 01c4 96130000 		.4byte	0x1396
 2447 01c8 15       		.uleb128 0x15
 2448 01c9 34000000 		.4byte	.LVL9
 2449 01cd 02       		.uleb128 0x2
 2450 01ce 74       		.byte	0x74
 2451 01cf 00       		.sleb128 0
 2452 01d0 16       		.uleb128 0x16
 2453 01d1 01       		.uleb128 0x1
 2454 01d2 50       		.byte	0x50
 2455 01d3 01       		.uleb128 0x1
 2456 01d4 30       		.byte	0x30
 2457 01d5 16       		.uleb128 0x16
 2458 01d6 01       		.uleb128 0x1
ARM GAS  C:\Users\Phuong\AppData\Local\Temp\ccVRtur0.s 			page 58


 2459 01d7 51       		.byte	0x51
 2460 01d8 05       		.uleb128 0x5
 2461 01d9 03       		.byte	0x3
 2462 01da 00000000 		.4byte	.LC1
 2463 01de 16       		.uleb128 0x16
 2464 01df 01       		.uleb128 0x1
 2465 01e0 52       		.byte	0x52
 2466 01e1 05       		.uleb128 0x5
 2467 01e2 03       		.byte	0x3
 2468 01e3 00000000 		.4byte	.LANCHOR0
 2469 01e7 16       		.uleb128 0x16
 2470 01e8 01       		.uleb128 0x1
 2471 01e9 53       		.byte	0x53
 2472 01ea 02       		.uleb128 0x2
 2473 01eb 08       		.byte	0x8
 2474 01ec 2C       		.byte	0x2c
 2475 01ed 16       		.uleb128 0x16
 2476 01ee 02       		.uleb128 0x2
 2477 01ef 7D       		.byte	0x7d
 2478 01f0 00       		.sleb128 0
 2479 01f1 01       		.uleb128 0x1
 2480 01f2 31       		.byte	0x31
 2481 01f3 16       		.uleb128 0x16
 2482 01f4 02       		.uleb128 0x2
 2483 01f5 7D       		.byte	0x7d
 2484 01f6 04       		.sleb128 4
 2485 01f7 05       		.uleb128 0x5
 2486 01f8 03       		.byte	0x3
 2487 01f9 2C000000 		.4byte	.LC3
 2488 01fd 00       		.byte	0
 2489 01fe 00       		.byte	0
 2490 01ff 14       		.uleb128 0x14
 2491 0200 14000000 		.4byte	.LVL5
 2492 0204 A1130000 		.4byte	0x13a1
 2493 0208 00       		.byte	0
 2494 0209 05       		.uleb128 0x5
 2495 020a 04       		.byte	0x4
 2496 020b 36010000 		.4byte	0x136
 2497 020f 17       		.uleb128 0x17
 2498 0210 97000000 		.4byte	0x97
 2499 0214 1F020000 		.4byte	0x21f
 2500 0218 18       		.uleb128 0x18
 2501 0219 7D000000 		.4byte	0x7d
 2502 021d 11       		.byte	0x11
 2503 021e 00       		.byte	0
 2504 021f 06       		.uleb128 0x6
 2505 0220 0F020000 		.4byte	0x20f
 2506 0224 19       		.uleb128 0x19
 2507 0225 B9000000 		.4byte	.LASF26
 2508 0229 01       		.byte	0x1
 2509 022a 14       		.byte	0x14
 2510 022b 9C000000 		.4byte	0x9c
 2511 022f 00000000 		.4byte	.LFB1
 2512 0233 14000000 		.4byte	.LFE1-.LFB1
 2513 0237 01       		.uleb128 0x1
 2514 0238 9C       		.byte	0x9c
 2515 0239 5A020000 		.4byte	0x25a
ARM GAS  C:\Users\Phuong\AppData\Local\Temp\ccVRtur0.s 			page 59


 2516 023d 1A       		.uleb128 0x1a
 2517 023e D0000000 		.4byte	.LASF25
 2518 0242 01       		.byte	0x1
 2519 0243 16       		.byte	0x16
 2520 0244 09020000 		.4byte	0x209
 2521 0248 01       		.uleb128 0x1
 2522 0249 50       		.byte	0x50
 2523 024a 1B       		.uleb128 0x1b
 2524 024b 08000000 		.4byte	.LVL15
 2525 024f A1130000 		.4byte	0x13a1
 2526 0253 16       		.uleb128 0x16
 2527 0254 01       		.uleb128 0x1
 2528 0255 50       		.byte	0x50
 2529 0256 01       		.uleb128 0x1
 2530 0257 38       		.byte	0x38
 2531 0258 00       		.byte	0
 2532 0259 00       		.byte	0
 2533 025a 19       		.uleb128 0x19
 2534 025b F1020000 		.4byte	.LASF27
 2535 025f 01       		.byte	0x1
 2536 0260 38       		.byte	0x38
 2537 0261 9C000000 		.4byte	0x9c
 2538 0265 00000000 		.4byte	.LFB3
 2539 0269 B0000000 		.4byte	.LFE3-.LFB3
 2540 026d 01       		.uleb128 0x1
 2541 026e 9C       		.byte	0x9c
 2542 026f 16040000 		.4byte	0x416
 2543 0273 0F       		.uleb128 0xf
 2544 0274 A7010000 		.4byte	.LASF28
 2545 0278 01       		.byte	0x1
 2546 0279 38       		.byte	0x38
 2547 027a 16040000 		.4byte	0x416
 2548 027e ED000000 		.4byte	.LLST5
 2549 0282 0F       		.uleb128 0xf
 2550 0283 85010000 		.4byte	.LASF15
 2551 0287 01       		.byte	0x1
 2552 0288 38       		.byte	0x38
 2553 0289 25000000 		.4byte	0x25
 2554 028d 61010000 		.4byte	.LLST6
 2555 0291 10       		.uleb128 0x10
 2556 0292 5F040000 		.4byte	.LASF23
 2557 0296 01       		.byte	0x1
 2558 0297 3A       		.byte	0x3a
 2559 0298 09020000 		.4byte	0x209
 2560 029c A3010000 		.4byte	.LLST7
 2561 02a0 11       		.uleb128 0x11
 2562 02a1 0E030000 		.4byte	.LASF29
 2563 02a5 31040000 		.4byte	0x431
 2564 02a9 05       		.uleb128 0x5
 2565 02aa 03       		.byte	0x3
 2566 02ab 14000000 		.4byte	__func__.5907
 2567 02af 12       		.uleb128 0x12
 2568 02b0 0C000000 		.4byte	.LBB3
 2569 02b4 1E000000 		.4byte	.LBE3-.LBB3
 2570 02b8 10030000 		.4byte	0x310
 2571 02bc 13       		.uleb128 0x13
 2572 02bd 6C00     		.ascii	"l\000"
ARM GAS  C:\Users\Phuong\AppData\Local\Temp\ccVRtur0.s 			page 60


 2573 02bf 01       		.byte	0x1
 2574 02c0 3E       		.byte	0x3e
 2575 02c1 00010000 		.4byte	0x100
 2576 02c5 04020000 		.4byte	.LLST8
 2577 02c9 14       		.uleb128 0x14
 2578 02ca 10000000 		.4byte	.LVL17
 2579 02ce 96130000 		.4byte	0x1396
 2580 02d2 15       		.uleb128 0x15
 2581 02d3 2A000000 		.4byte	.LVL20
 2582 02d7 02       		.uleb128 0x2
 2583 02d8 74       		.byte	0x74
 2584 02d9 00       		.sleb128 0
 2585 02da 16       		.uleb128 0x16
 2586 02db 01       		.uleb128 0x1
 2587 02dc 50       		.byte	0x50
 2588 02dd 01       		.uleb128 0x1
 2589 02de 30       		.byte	0x30
 2590 02df 16       		.uleb128 0x16
 2591 02e0 01       		.uleb128 0x1
 2592 02e1 51       		.byte	0x51
 2593 02e2 05       		.uleb128 0x5
 2594 02e3 03       		.byte	0x3
 2595 02e4 00000000 		.4byte	.LC1
 2596 02e8 16       		.uleb128 0x16
 2597 02e9 01       		.uleb128 0x1
 2598 02ea 52       		.byte	0x52
 2599 02eb 05       		.uleb128 0x5
 2600 02ec 03       		.byte	0x3
 2601 02ed 14000000 		.4byte	.LANCHOR0+20
 2602 02f1 16       		.uleb128 0x16
 2603 02f2 01       		.uleb128 0x1
 2604 02f3 53       		.byte	0x53
 2605 02f4 02       		.uleb128 0x2
 2606 02f5 08       		.byte	0x8
 2607 02f6 3E       		.byte	0x3e
 2608 02f7 16       		.uleb128 0x16
 2609 02f8 02       		.uleb128 0x2
 2610 02f9 7D       		.byte	0x7d
 2611 02fa 00       		.sleb128 0
 2612 02fb 01       		.uleb128 0x1
 2613 02fc 31       		.byte	0x31
 2614 02fd 16       		.uleb128 0x16
 2615 02fe 02       		.uleb128 0x2
 2616 02ff 7D       		.byte	0x7d
 2617 0300 04       		.sleb128 4
 2618 0301 05       		.uleb128 0x5
 2619 0302 03       		.byte	0x3
 2620 0303 44000000 		.4byte	.LC7
 2621 0307 16       		.uleb128 0x16
 2622 0308 02       		.uleb128 0x2
 2623 0309 7D       		.byte	0x7d
 2624 030a 08       		.sleb128 8
 2625 030b 02       		.uleb128 0x2
 2626 030c 75       		.byte	0x75
 2627 030d 00       		.sleb128 0
 2628 030e 00       		.byte	0
 2629 030f 00       		.byte	0
ARM GAS  C:\Users\Phuong\AppData\Local\Temp\ccVRtur0.s 			page 61


 2630 0310 12       		.uleb128 0x12
 2631 0311 38000000 		.4byte	.LBB4
 2632 0315 1E000000 		.4byte	.LBE4-.LBB4
 2633 0319 6A030000 		.4byte	0x36a
 2634 031d 13       		.uleb128 0x13
 2635 031e 6C00     		.ascii	"l\000"
 2636 0320 01       		.byte	0x1
 2637 0321 49       		.byte	0x49
 2638 0322 00010000 		.4byte	0x100
 2639 0326 2D020000 		.4byte	.LLST9
 2640 032a 14       		.uleb128 0x14
 2641 032b 3C000000 		.4byte	.LVL26
 2642 032f 96130000 		.4byte	0x1396
 2643 0333 15       		.uleb128 0x15
 2644 0334 54000000 		.4byte	.LVL29
 2645 0338 02       		.uleb128 0x2
 2646 0339 75       		.byte	0x75
 2647 033a 00       		.sleb128 0
 2648 033b 16       		.uleb128 0x16
 2649 033c 01       		.uleb128 0x1
 2650 033d 50       		.byte	0x50
 2651 033e 01       		.uleb128 0x1
 2652 033f 30       		.byte	0x30
 2653 0340 16       		.uleb128 0x16
 2654 0341 01       		.uleb128 0x1
 2655 0342 51       		.byte	0x51
 2656 0343 05       		.uleb128 0x5
 2657 0344 03       		.byte	0x3
 2658 0345 00000000 		.4byte	.LC1
 2659 0349 16       		.uleb128 0x16
 2660 034a 01       		.uleb128 0x1
 2661 034b 52       		.byte	0x52
 2662 034c 05       		.uleb128 0x5
 2663 034d 03       		.byte	0x3
 2664 034e 14000000 		.4byte	.LANCHOR0+20
 2665 0352 16       		.uleb128 0x16
 2666 0353 01       		.uleb128 0x1
 2667 0354 53       		.byte	0x53
 2668 0355 02       		.uleb128 0x2
 2669 0356 08       		.byte	0x8
 2670 0357 49       		.byte	0x49
 2671 0358 16       		.uleb128 0x16
 2672 0359 02       		.uleb128 0x2
 2673 035a 7D       		.byte	0x7d
 2674 035b 00       		.sleb128 0
 2675 035c 01       		.uleb128 0x1
 2676 035d 31       		.byte	0x31
 2677 035e 16       		.uleb128 0x16
 2678 035f 02       		.uleb128 0x2
 2679 0360 7D       		.byte	0x7d
 2680 0361 04       		.sleb128 4
 2681 0362 05       		.uleb128 0x5
 2682 0363 03       		.byte	0x3
 2683 0364 64000000 		.4byte	.LC9
 2684 0368 00       		.byte	0
 2685 0369 00       		.byte	0
 2686 036a 12       		.uleb128 0x12
ARM GAS  C:\Users\Phuong\AppData\Local\Temp\ccVRtur0.s 			page 62


 2687 036b 60000000 		.4byte	.LBB5
 2688 036f 1C000000 		.4byte	.LBE5-.LBB5
 2689 0373 C4030000 		.4byte	0x3c4
 2690 0377 13       		.uleb128 0x13
 2691 0378 6C00     		.ascii	"l\000"
 2692 037a 01       		.byte	0x1
 2693 037b 50       		.byte	0x50
 2694 037c 00010000 		.4byte	0x100
 2695 0380 4B020000 		.4byte	.LLST10
 2696 0384 14       		.uleb128 0x14
 2697 0385 64000000 		.4byte	.LVL32
 2698 0389 96130000 		.4byte	0x1396
 2699 038d 15       		.uleb128 0x15
 2700 038e 7C000000 		.4byte	.LVL35
 2701 0392 02       		.uleb128 0x2
 2702 0393 75       		.byte	0x75
 2703 0394 00       		.sleb128 0
 2704 0395 16       		.uleb128 0x16
 2705 0396 01       		.uleb128 0x1
 2706 0397 50       		.byte	0x50
 2707 0398 01       		.uleb128 0x1
 2708 0399 30       		.byte	0x30
 2709 039a 16       		.uleb128 0x16
 2710 039b 01       		.uleb128 0x1
 2711 039c 51       		.byte	0x51
 2712 039d 05       		.uleb128 0x5
 2713 039e 03       		.byte	0x3
 2714 039f 00000000 		.4byte	.LC1
 2715 03a3 16       		.uleb128 0x16
 2716 03a4 01       		.uleb128 0x1
 2717 03a5 52       		.byte	0x52
 2718 03a6 05       		.uleb128 0x5
 2719 03a7 03       		.byte	0x3
 2720 03a8 14000000 		.4byte	.LANCHOR0+20
 2721 03ac 16       		.uleb128 0x16
 2722 03ad 01       		.uleb128 0x1
 2723 03ae 53       		.byte	0x53
 2724 03af 02       		.uleb128 0x2
 2725 03b0 08       		.byte	0x8
 2726 03b1 50       		.byte	0x50
 2727 03b2 16       		.uleb128 0x16
 2728 03b3 02       		.uleb128 0x2
 2729 03b4 7D       		.byte	0x7d
 2730 03b5 00       		.sleb128 0
 2731 03b6 01       		.uleb128 0x1
 2732 03b7 31       		.byte	0x31
 2733 03b8 16       		.uleb128 0x16
 2734 03b9 02       		.uleb128 0x2
 2735 03ba 7D       		.byte	0x7d
 2736 03bb 04       		.sleb128 4
 2737 03bc 05       		.uleb128 0x5
 2738 03bd 03       		.byte	0x3
 2739 03be 88000000 		.4byte	.LC11
 2740 03c2 00       		.byte	0
 2741 03c3 00       		.byte	0
 2742 03c4 1C       		.uleb128 0x1c
 2743 03c5 34000000 		.4byte	.LVL24
ARM GAS  C:\Users\Phuong\AppData\Local\Temp\ccVRtur0.s 			page 63


 2744 03c9 A1130000 		.4byte	0x13a1
 2745 03cd D7030000 		.4byte	0x3d7
 2746 03d1 16       		.uleb128 0x16
 2747 03d2 01       		.uleb128 0x1
 2748 03d3 50       		.byte	0x50
 2749 03d4 01       		.uleb128 0x1
 2750 03d5 38       		.byte	0x38
 2751 03d6 00       		.byte	0
 2752 03d7 1C       		.uleb128 0x1c
 2753 03d8 5C000000 		.4byte	.LVL31
 2754 03dc 41010000 		.4byte	0x141
 2755 03e0 EB030000 		.4byte	0x3eb
 2756 03e4 16       		.uleb128 0x16
 2757 03e5 01       		.uleb128 0x1
 2758 03e6 51       		.byte	0x51
 2759 03e7 02       		.uleb128 0x2
 2760 03e8 76       		.byte	0x76
 2761 03e9 00       		.sleb128 0
 2762 03ea 00       		.byte	0
 2763 03eb 1C       		.uleb128 0x1c
 2764 03ec 82000000 		.4byte	.LVL36
 2765 03f0 AC130000 		.4byte	0x13ac
 2766 03f4 FF030000 		.4byte	0x3ff
 2767 03f8 16       		.uleb128 0x16
 2768 03f9 01       		.uleb128 0x1
 2769 03fa 50       		.byte	0x50
 2770 03fb 02       		.uleb128 0x2
 2771 03fc 74       		.byte	0x74
 2772 03fd 00       		.sleb128 0
 2773 03fe 00       		.byte	0
 2774 03ff 1B       		.uleb128 0x1b
 2775 0400 90000000 		.4byte	.LVL38
 2776 0404 B7130000 		.4byte	0x13b7
 2777 0408 16       		.uleb128 0x16
 2778 0409 01       		.uleb128 0x1
 2779 040a 51       		.byte	0x51
 2780 040b 02       		.uleb128 0x2
 2781 040c 75       		.byte	0x75
 2782 040d 00       		.sleb128 0
 2783 040e 16       		.uleb128 0x16
 2784 040f 01       		.uleb128 0x1
 2785 0410 52       		.byte	0x52
 2786 0411 02       		.uleb128 0x2
 2787 0412 76       		.byte	0x76
 2788 0413 00       		.sleb128 0
 2789 0414 00       		.byte	0
 2790 0415 00       		.byte	0
 2791 0416 05       		.uleb128 0x5
 2792 0417 04       		.byte	0x4
 2793 0418 1C040000 		.4byte	0x41c
 2794 041c 06       		.uleb128 0x6
 2795 041d 53000000 		.4byte	0x53
 2796 0421 17       		.uleb128 0x17
 2797 0422 97000000 		.4byte	0x97
 2798 0426 31040000 		.4byte	0x431
 2799 042a 18       		.uleb128 0x18
 2800 042b 7D000000 		.4byte	0x7d
ARM GAS  C:\Users\Phuong\AppData\Local\Temp\ccVRtur0.s 			page 64


 2801 042f 0D       		.byte	0xd
 2802 0430 00       		.byte	0
 2803 0431 06       		.uleb128 0x6
 2804 0432 21040000 		.4byte	0x421
 2805 0436 1D       		.uleb128 0x1d
 2806 0437 75000000 		.4byte	.LASF69
 2807 043b 01       		.byte	0x1
 2808 043c 5F       		.byte	0x5f
 2809 043d 00000000 		.4byte	.LFB4
 2810 0441 18000000 		.4byte	.LFE4-.LFB4
 2811 0445 01       		.uleb128 0x1
 2812 0446 9C       		.byte	0x9c
 2813 0447 8B040000 		.4byte	0x48b
 2814 044b 0F       		.uleb128 0xf
 2815 044c 34040000 		.4byte	.LASF30
 2816 0450 01       		.byte	0x1
 2817 0451 5F       		.byte	0x5f
 2818 0452 9C000000 		.4byte	0x9c
 2819 0456 69020000 		.4byte	.LLST11
 2820 045a 1E       		.uleb128 0x1e
 2821 045b 06000000 		.4byte	.LBB6
 2822 045f 10000000 		.4byte	.LBE6-.LBB6
 2823 0463 13       		.uleb128 0x13
 2824 0464 6200     		.ascii	"b\000"
 2825 0466 01       		.byte	0x1
 2826 0467 64       		.byte	0x64
 2827 0468 09020000 		.4byte	0x209
 2828 046c 95020000 		.4byte	.LLST12
 2829 0470 14       		.uleb128 0x14
 2830 0471 10000000 		.4byte	.LVL46
 2831 0475 AC130000 		.4byte	0x13ac
 2832 0479 1B       		.uleb128 0x1b
 2833 047a 16000000 		.4byte	.LVL47
 2834 047e AC130000 		.4byte	0x13ac
 2835 0482 16       		.uleb128 0x16
 2836 0483 01       		.uleb128 0x1
 2837 0484 50       		.byte	0x50
 2838 0485 02       		.uleb128 0x2
 2839 0486 74       		.byte	0x74
 2840 0487 00       		.sleb128 0
 2841 0488 00       		.byte	0
 2842 0489 00       		.byte	0
 2843 048a 00       		.byte	0
 2844 048b 19       		.uleb128 0x19
 2845 048c 20000000 		.4byte	.LASF31
 2846 0490 01       		.byte	0x1
 2847 0491 71       		.byte	0x71
 2848 0492 37000000 		.4byte	0x37
 2849 0496 00000000 		.4byte	.LFB5
 2850 049a 7C000000 		.4byte	.LFE5-.LFB5
 2851 049e 01       		.uleb128 0x1
 2852 049f 9C       		.byte	0x9c
 2853 04a0 BA050000 		.4byte	0x5ba
 2854 04a4 0F       		.uleb128 0xf
 2855 04a5 34040000 		.4byte	.LASF30
 2856 04a9 01       		.byte	0x1
 2857 04aa 71       		.byte	0x71
ARM GAS  C:\Users\Phuong\AppData\Local\Temp\ccVRtur0.s 			page 65


 2858 04ab 9C000000 		.4byte	0x9c
 2859 04af B3020000 		.4byte	.LLST13
 2860 04b3 0F       		.uleb128 0xf
 2861 04b4 A7010000 		.4byte	.LASF28
 2862 04b8 01       		.byte	0x1
 2863 04b9 71       		.byte	0x71
 2864 04ba 16040000 		.4byte	0x416
 2865 04be 3A030000 		.4byte	.LLST14
 2866 04c2 0F       		.uleb128 0xf
 2867 04c3 85010000 		.4byte	.LASF15
 2868 04c7 01       		.byte	0x1
 2869 04c8 71       		.byte	0x71
 2870 04c9 25000000 		.4byte	0x25
 2871 04cd 92030000 		.4byte	.LLST15
 2872 04d1 10       		.uleb128 0x10
 2873 04d2 5F040000 		.4byte	.LASF23
 2874 04d6 01       		.byte	0x1
 2875 04d7 73       		.byte	0x73
 2876 04d8 37000000 		.4byte	0x37
 2877 04dc EA030000 		.4byte	.LLST16
 2878 04e0 11       		.uleb128 0x11
 2879 04e1 0E030000 		.4byte	.LASF29
 2880 04e5 CA050000 		.4byte	0x5ca
 2881 04e9 05       		.uleb128 0x5
 2882 04ea 03       		.byte	0x3
 2883 04eb 24000000 		.4byte	__func__.5930
 2884 04ef 12       		.uleb128 0x12
 2885 04f0 12000000 		.4byte	.LBB7
 2886 04f4 0E000000 		.4byte	.LBE7-.LBB7
 2887 04f8 13050000 		.4byte	0x513
 2888 04fc 13       		.uleb128 0x13
 2889 04fd 6200     		.ascii	"b\000"
 2890 04ff 01       		.byte	0x1
 2891 0500 7D       		.byte	0x7d
 2892 0501 09020000 		.4byte	0x209
 2893 0505 15040000 		.4byte	.LLST17
 2894 0509 14       		.uleb128 0x14
 2895 050a 18000000 		.4byte	.LVL52
 2896 050e AC130000 		.4byte	0x13ac
 2897 0512 00       		.byte	0
 2898 0513 1F       		.uleb128 0x1f
 2899 0514 00000000 		.4byte	.Ldebug_ranges0+0
 2900 0518 13       		.uleb128 0x13
 2901 0519 6200     		.ascii	"b\000"
 2902 051b 01       		.byte	0x1
 2903 051c 8D       		.byte	0x8d
 2904 051d 09020000 		.4byte	0x209
 2905 0521 33040000 		.4byte	.LLST18
 2906 0525 10       		.uleb128 0x10
 2907 0526 FA030000 		.4byte	.LASF32
 2908 052a 01       		.byte	0x1
 2909 052b 8F       		.byte	0x8f
 2910 052c 8B000000 		.4byte	0x8b
 2911 0530 78040000 		.4byte	.LLST19
 2912 0534 12       		.uleb128 0x12
 2913 0535 32000000 		.4byte	.LBB9
 2914 0539 1C000000 		.4byte	.LBE9-.LBB9
ARM GAS  C:\Users\Phuong\AppData\Local\Temp\ccVRtur0.s 			page 66


 2915 053d 8E050000 		.4byte	0x58e
 2916 0541 13       		.uleb128 0x13
 2917 0542 6C00     		.ascii	"l\000"
 2918 0544 01       		.byte	0x1
 2919 0545 93       		.byte	0x93
 2920 0546 00010000 		.4byte	0x100
 2921 054a 96040000 		.4byte	.LLST20
 2922 054e 14       		.uleb128 0x14
 2923 054f 36000000 		.4byte	.LVL59
 2924 0553 96130000 		.4byte	0x1396
 2925 0557 15       		.uleb128 0x15
 2926 0558 4E000000 		.4byte	.LVL62
 2927 055c 02       		.uleb128 0x2
 2928 055d 74       		.byte	0x74
 2929 055e 00       		.sleb128 0
 2930 055f 16       		.uleb128 0x16
 2931 0560 01       		.uleb128 0x1
 2932 0561 50       		.byte	0x50
 2933 0562 01       		.uleb128 0x1
 2934 0563 30       		.byte	0x30
 2935 0564 16       		.uleb128 0x16
 2936 0565 01       		.uleb128 0x1
 2937 0566 51       		.byte	0x51
 2938 0567 05       		.uleb128 0x5
 2939 0568 03       		.byte	0x3
 2940 0569 00000000 		.4byte	.LC1
 2941 056d 16       		.uleb128 0x16
 2942 056e 01       		.uleb128 0x1
 2943 056f 52       		.byte	0x52
 2944 0570 05       		.uleb128 0x5
 2945 0571 03       		.byte	0x3
 2946 0572 24000000 		.4byte	.LANCHOR0+36
 2947 0576 16       		.uleb128 0x16
 2948 0577 01       		.uleb128 0x1
 2949 0578 53       		.byte	0x53
 2950 0579 02       		.uleb128 0x2
 2951 057a 08       		.byte	0x8
 2952 057b 93       		.byte	0x93
 2953 057c 16       		.uleb128 0x16
 2954 057d 02       		.uleb128 0x2
 2955 057e 7D       		.byte	0x7d
 2956 057f 00       		.sleb128 0
 2957 0580 01       		.uleb128 0x1
 2958 0581 31       		.byte	0x31
 2959 0582 16       		.uleb128 0x16
 2960 0583 02       		.uleb128 0x2
 2961 0584 7D       		.byte	0x7d
 2962 0585 04       		.sleb128 4
 2963 0586 05       		.uleb128 0x5
 2964 0587 03       		.byte	0x3
 2965 0588 A8000000 		.4byte	.LC15
 2966 058c 00       		.byte	0
 2967 058d 00       		.byte	0
 2968 058e 1C       		.uleb128 0x1c
 2969 058f 2E000000 		.4byte	.LVL58
 2970 0593 C0130000 		.4byte	0x13c0
 2971 0597 A2050000 		.4byte	0x5a2
ARM GAS  C:\Users\Phuong\AppData\Local\Temp\ccVRtur0.s 			page 67


 2972 059b 16       		.uleb128 0x16
 2973 059c 01       		.uleb128 0x1
 2974 059d 51       		.byte	0x51
 2975 059e 02       		.uleb128 0x2
 2976 059f 75       		.byte	0x75
 2977 05a0 00       		.sleb128 0
 2978 05a1 00       		.byte	0
 2979 05a2 1B       		.uleb128 0x1b
 2980 05a3 5E000000 		.4byte	.LVL64
 2981 05a7 B7130000 		.4byte	0x13b7
 2982 05ab 16       		.uleb128 0x16
 2983 05ac 01       		.uleb128 0x1
 2984 05ad 51       		.byte	0x51
 2985 05ae 02       		.uleb128 0x2
 2986 05af 76       		.byte	0x76
 2987 05b0 00       		.sleb128 0
 2988 05b1 16       		.uleb128 0x16
 2989 05b2 01       		.uleb128 0x1
 2990 05b3 52       		.byte	0x52
 2991 05b4 02       		.uleb128 0x2
 2992 05b5 75       		.byte	0x75
 2993 05b6 00       		.sleb128 0
 2994 05b7 00       		.byte	0
 2995 05b8 00       		.byte	0
 2996 05b9 00       		.byte	0
 2997 05ba 17       		.uleb128 0x17
 2998 05bb 97000000 		.4byte	0x97
 2999 05bf CA050000 		.4byte	0x5ca
 3000 05c3 18       		.uleb128 0x18
 3001 05c4 7D000000 		.4byte	0x7d
 3002 05c8 0C       		.byte	0xc
 3003 05c9 00       		.byte	0
 3004 05ca 06       		.uleb128 0x6
 3005 05cb BA050000 		.4byte	0x5ba
 3006 05cf 19       		.uleb128 0x19
 3007 05d0 BA030000 		.4byte	.LASF33
 3008 05d4 01       		.byte	0x1
 3009 05d5 A5       		.byte	0xa5
 3010 05d6 37000000 		.4byte	0x37
 3011 05da 00000000 		.4byte	.LFB6
 3012 05de E8000000 		.4byte	.LFE6-.LFB6
 3013 05e2 01       		.uleb128 0x1
 3014 05e3 9C       		.byte	0x9c
 3015 05e4 BF070000 		.4byte	0x7bf
 3016 05e8 0F       		.uleb128 0xf
 3017 05e9 34040000 		.4byte	.LASF30
 3018 05ed 01       		.byte	0x1
 3019 05ee A5       		.byte	0xa5
 3020 05ef 9C000000 		.4byte	0x9c
 3021 05f3 BF040000 		.4byte	.LLST21
 3022 05f7 0F       		.uleb128 0xf
 3023 05f8 A7010000 		.4byte	.LASF28
 3024 05fc 01       		.byte	0x1
 3025 05fd A5       		.byte	0xa5
 3026 05fe 16040000 		.4byte	0x416
 3027 0602 33050000 		.4byte	.LLST22
 3028 0606 0F       		.uleb128 0xf
ARM GAS  C:\Users\Phuong\AppData\Local\Temp\ccVRtur0.s 			page 68


 3029 0607 85010000 		.4byte	.LASF15
 3030 060b 01       		.byte	0x1
 3031 060c A5       		.byte	0xa5
 3032 060d 25000000 		.4byte	0x25
 3033 0611 8B050000 		.4byte	.LLST23
 3034 0615 10       		.uleb128 0x10
 3035 0616 5F040000 		.4byte	.LASF23
 3036 061a 01       		.byte	0x1
 3037 061b A7       		.byte	0xa7
 3038 061c 37000000 		.4byte	0x37
 3039 0620 FC050000 		.4byte	.LLST24
 3040 0624 11       		.uleb128 0x11
 3041 0625 0E030000 		.4byte	.LASF29
 3042 0629 CF070000 		.4byte	0x7cf
 3043 062d 05       		.uleb128 0x5
 3044 062e 03       		.byte	0x3
 3045 062f 34000000 		.4byte	__func__.5940
 3046 0633 12       		.uleb128 0x12
 3047 0634 16000000 		.4byte	.LBB11
 3048 0638 22000000 		.4byte	.LBE11-.LBB11
 3049 063c A2060000 		.4byte	0x6a2
 3050 0640 13       		.uleb128 0x13
 3051 0641 6C00     		.ascii	"l\000"
 3052 0643 01       		.byte	0x1
 3053 0644 AB       		.byte	0xab
 3054 0645 00010000 		.4byte	0x100
 3055 0649 27060000 		.4byte	.LLST25
 3056 064d 14       		.uleb128 0x14
 3057 064e 1A000000 		.4byte	.LVL74
 3058 0652 96130000 		.4byte	0x1396
 3059 0656 15       		.uleb128 0x15
 3060 0657 38000000 		.4byte	.LVL77
 3061 065b 02       		.uleb128 0x2
 3062 065c 77       		.byte	0x77
 3063 065d 00       		.sleb128 0
 3064 065e 16       		.uleb128 0x16
 3065 065f 01       		.uleb128 0x1
 3066 0660 50       		.byte	0x50
 3067 0661 01       		.uleb128 0x1
 3068 0662 30       		.byte	0x30
 3069 0663 16       		.uleb128 0x16
 3070 0664 01       		.uleb128 0x1
 3071 0665 51       		.byte	0x51
 3072 0666 05       		.uleb128 0x5
 3073 0667 03       		.byte	0x3
 3074 0668 00000000 		.4byte	.LC1
 3075 066c 16       		.uleb128 0x16
 3076 066d 01       		.uleb128 0x1
 3077 066e 52       		.byte	0x52
 3078 066f 05       		.uleb128 0x5
 3079 0670 03       		.byte	0x3
 3080 0671 34000000 		.4byte	.LANCHOR0+52
 3081 0675 16       		.uleb128 0x16
 3082 0676 01       		.uleb128 0x1
 3083 0677 53       		.byte	0x53
 3084 0678 02       		.uleb128 0x2
 3085 0679 08       		.byte	0x8
ARM GAS  C:\Users\Phuong\AppData\Local\Temp\ccVRtur0.s 			page 69


 3086 067a AB       		.byte	0xab
 3087 067b 16       		.uleb128 0x16
 3088 067c 02       		.uleb128 0x2
 3089 067d 7D       		.byte	0x7d
 3090 067e 00       		.sleb128 0
 3091 067f 01       		.uleb128 0x1
 3092 0680 31       		.byte	0x31
 3093 0681 16       		.uleb128 0x16
 3094 0682 02       		.uleb128 0x2
 3095 0683 7D       		.byte	0x7d
 3096 0684 04       		.sleb128 4
 3097 0685 05       		.uleb128 0x5
 3098 0686 03       		.byte	0x3
 3099 0687 C4000000 		.4byte	.LC19
 3100 068b 16       		.uleb128 0x16
 3101 068c 02       		.uleb128 0x2
 3102 068d 7D       		.byte	0x7d
 3103 068e 08       		.sleb128 8
 3104 068f 02       		.uleb128 0x2
 3105 0690 74       		.byte	0x74
 3106 0691 00       		.sleb128 0
 3107 0692 16       		.uleb128 0x16
 3108 0693 02       		.uleb128 0x2
 3109 0694 7D       		.byte	0x7d
 3110 0695 0C       		.sleb128 12
 3111 0696 02       		.uleb128 0x2
 3112 0697 76       		.byte	0x76
 3113 0698 00       		.sleb128 0
 3114 0699 16       		.uleb128 0x16
 3115 069a 02       		.uleb128 0x2
 3116 069b 7D       		.byte	0x7d
 3117 069c 10       		.sleb128 16
 3118 069d 02       		.uleb128 0x2
 3119 069e 75       		.byte	0x75
 3120 069f 00       		.sleb128 0
 3121 06a0 00       		.byte	0
 3122 06a1 00       		.byte	0
 3123 06a2 12       		.uleb128 0x12
 3124 06a3 4E000000 		.4byte	.LBB12
 3125 06a7 1C000000 		.4byte	.LBE12-.LBB12
 3126 06ab FC060000 		.4byte	0x6fc
 3127 06af 13       		.uleb128 0x13
 3128 06b0 6C00     		.ascii	"l\000"
 3129 06b2 01       		.byte	0x1
 3130 06b3 B6       		.byte	0xb6
 3131 06b4 00010000 		.4byte	0x100
 3132 06b8 5B060000 		.4byte	.LLST26
 3133 06bc 14       		.uleb128 0x14
 3134 06bd 52000000 		.4byte	.LVL82
 3135 06c1 96130000 		.4byte	0x1396
 3136 06c5 15       		.uleb128 0x15
 3137 06c6 6A000000 		.4byte	.LVL85
 3138 06ca 02       		.uleb128 0x2
 3139 06cb 74       		.byte	0x74
 3140 06cc 00       		.sleb128 0
 3141 06cd 16       		.uleb128 0x16
 3142 06ce 01       		.uleb128 0x1
ARM GAS  C:\Users\Phuong\AppData\Local\Temp\ccVRtur0.s 			page 70


 3143 06cf 50       		.byte	0x50
 3144 06d0 01       		.uleb128 0x1
 3145 06d1 30       		.byte	0x30
 3146 06d2 16       		.uleb128 0x16
 3147 06d3 01       		.uleb128 0x1
 3148 06d4 51       		.byte	0x51
 3149 06d5 05       		.uleb128 0x5
 3150 06d6 03       		.byte	0x3
 3151 06d7 00000000 		.4byte	.LC1
 3152 06db 16       		.uleb128 0x16
 3153 06dc 01       		.uleb128 0x1
 3154 06dd 52       		.byte	0x52
 3155 06de 05       		.uleb128 0x5
 3156 06df 03       		.byte	0x3
 3157 06e0 34000000 		.4byte	.LANCHOR0+52
 3158 06e4 16       		.uleb128 0x16
 3159 06e5 01       		.uleb128 0x1
 3160 06e6 53       		.byte	0x53
 3161 06e7 02       		.uleb128 0x2
 3162 06e8 08       		.byte	0x8
 3163 06e9 B6       		.byte	0xb6
 3164 06ea 16       		.uleb128 0x16
 3165 06eb 02       		.uleb128 0x2
 3166 06ec 7D       		.byte	0x7d
 3167 06ed 00       		.sleb128 0
 3168 06ee 01       		.uleb128 0x1
 3169 06ef 31       		.byte	0x31
 3170 06f0 16       		.uleb128 0x16
 3171 06f1 02       		.uleb128 0x2
 3172 06f2 7D       		.byte	0x7d
 3173 06f3 04       		.sleb128 4
 3174 06f4 05       		.uleb128 0x5
 3175 06f5 03       		.byte	0x3
 3176 06f6 14010000 		.4byte	.LC21
 3177 06fa 00       		.byte	0
 3178 06fb 00       		.byte	0
 3179 06fc 20       		.uleb128 0x20
 3180 06fd 18000000 		.4byte	.Ldebug_ranges0+0x18
 3181 0701 8E070000 		.4byte	0x78e
 3182 0705 10       		.uleb128 0x10
 3183 0706 D0000000 		.4byte	.LASF25
 3184 070a 01       		.byte	0x1
 3185 070b C4       		.byte	0xc4
 3186 070c 8B000000 		.4byte	0x8b
 3187 0710 8F060000 		.4byte	.LLST27
 3188 0714 12       		.uleb128 0x12
 3189 0715 88000000 		.4byte	.LBB14
 3190 0719 1C000000 		.4byte	.LBE14-.LBB14
 3191 071d 6E070000 		.4byte	0x76e
 3192 0721 13       		.uleb128 0x13
 3193 0722 6C00     		.ascii	"l\000"
 3194 0724 01       		.byte	0x1
 3195 0725 C8       		.byte	0xc8
 3196 0726 00010000 		.4byte	0x100
 3197 072a B9060000 		.4byte	.LLST28
 3198 072e 14       		.uleb128 0x14
 3199 072f 8C000000 		.4byte	.LVL91
ARM GAS  C:\Users\Phuong\AppData\Local\Temp\ccVRtur0.s 			page 71


 3200 0733 96130000 		.4byte	0x1396
 3201 0737 15       		.uleb128 0x15
 3202 0738 A4000000 		.4byte	.LVL94
 3203 073c 02       		.uleb128 0x2
 3204 073d 74       		.byte	0x74
 3205 073e 00       		.sleb128 0
 3206 073f 16       		.uleb128 0x16
 3207 0740 01       		.uleb128 0x1
 3208 0741 50       		.byte	0x50
 3209 0742 01       		.uleb128 0x1
 3210 0743 30       		.byte	0x30
 3211 0744 16       		.uleb128 0x16
 3212 0745 01       		.uleb128 0x1
 3213 0746 51       		.byte	0x51
 3214 0747 05       		.uleb128 0x5
 3215 0748 03       		.byte	0x3
 3216 0749 00000000 		.4byte	.LC1
 3217 074d 16       		.uleb128 0x16
 3218 074e 01       		.uleb128 0x1
 3219 074f 52       		.byte	0x52
 3220 0750 05       		.uleb128 0x5
 3221 0751 03       		.byte	0x3
 3222 0752 34000000 		.4byte	.LANCHOR0+52
 3223 0756 16       		.uleb128 0x16
 3224 0757 01       		.uleb128 0x1
 3225 0758 53       		.byte	0x53
 3226 0759 02       		.uleb128 0x2
 3227 075a 08       		.byte	0x8
 3228 075b C8       		.byte	0xc8
 3229 075c 16       		.uleb128 0x16
 3230 075d 02       		.uleb128 0x2
 3231 075e 7D       		.byte	0x7d
 3232 075f 00       		.sleb128 0
 3233 0760 01       		.uleb128 0x1
 3234 0761 31       		.byte	0x31
 3235 0762 16       		.uleb128 0x16
 3236 0763 02       		.uleb128 0x2
 3237 0764 7D       		.byte	0x7d
 3238 0765 04       		.sleb128 4
 3239 0766 05       		.uleb128 0x5
 3240 0767 03       		.byte	0x3
 3241 0768 34010000 		.4byte	.LC23
 3242 076c 00       		.byte	0
 3243 076d 00       		.byte	0
 3244 076e 14       		.uleb128 0x14
 3245 076f 84000000 		.4byte	.LVL90
 3246 0773 C0130000 		.4byte	0x13c0
 3247 0777 1B       		.uleb128 0x1b
 3248 0778 B8000000 		.4byte	.LVL97
 3249 077c B7130000 		.4byte	0x13b7
 3250 0780 16       		.uleb128 0x16
 3251 0781 01       		.uleb128 0x1
 3252 0782 51       		.byte	0x51
 3253 0783 02       		.uleb128 0x2
 3254 0784 76       		.byte	0x76
 3255 0785 00       		.sleb128 0
 3256 0786 16       		.uleb128 0x16
ARM GAS  C:\Users\Phuong\AppData\Local\Temp\ccVRtur0.s 			page 72


 3257 0787 01       		.uleb128 0x1
 3258 0788 52       		.byte	0x52
 3259 0789 02       		.uleb128 0x2
 3260 078a 75       		.byte	0x75
 3261 078b 00       		.sleb128 0
 3262 078c 00       		.byte	0
 3263 078d 00       		.byte	0
 3264 078e 1C       		.uleb128 0x1c
 3265 078f 4A000000 		.4byte	.LVL81
 3266 0793 41010000 		.4byte	0x141
 3267 0797 A8070000 		.4byte	0x7a8
 3268 079b 16       		.uleb128 0x16
 3269 079c 01       		.uleb128 0x1
 3270 079d 50       		.byte	0x50
 3271 079e 02       		.uleb128 0x2
 3272 079f 74       		.byte	0x74
 3273 07a0 00       		.sleb128 0
 3274 07a1 16       		.uleb128 0x16
 3275 07a2 01       		.uleb128 0x1
 3276 07a3 51       		.byte	0x51
 3277 07a4 02       		.uleb128 0x2
 3278 07a5 75       		.byte	0x75
 3279 07a6 00       		.sleb128 0
 3280 07a7 00       		.byte	0
 3281 07a8 1B       		.uleb128 0x1b
 3282 07a9 78000000 		.4byte	.LVL87
 3283 07ad B7130000 		.4byte	0x13b7
 3284 07b1 16       		.uleb128 0x16
 3285 07b2 01       		.uleb128 0x1
 3286 07b3 51       		.byte	0x51
 3287 07b4 02       		.uleb128 0x2
 3288 07b5 76       		.byte	0x76
 3289 07b6 00       		.sleb128 0
 3290 07b7 16       		.uleb128 0x16
 3291 07b8 01       		.uleb128 0x1
 3292 07b9 52       		.byte	0x52
 3293 07ba 02       		.uleb128 0x2
 3294 07bb 75       		.byte	0x75
 3295 07bc 00       		.sleb128 0
 3296 07bd 00       		.byte	0
 3297 07be 00       		.byte	0
 3298 07bf 17       		.uleb128 0x17
 3299 07c0 97000000 		.4byte	0x97
 3300 07c4 CF070000 		.4byte	0x7cf
 3301 07c8 18       		.uleb128 0x18
 3302 07c9 7D000000 		.4byte	0x7d
 3303 07cd 13       		.byte	0x13
 3304 07ce 00       		.byte	0
 3305 07cf 06       		.uleb128 0x6
 3306 07d0 BF070000 		.4byte	0x7bf
 3307 07d4 19       		.uleb128 0x19
 3308 07d5 F3000000 		.4byte	.LASF34
 3309 07d9 01       		.byte	0x1
 3310 07da DD       		.byte	0xdd
 3311 07db 37000000 		.4byte	0x37
 3312 07df 00000000 		.4byte	.LFB7
 3313 07e3 8C000000 		.4byte	.LFE7-.LFB7
ARM GAS  C:\Users\Phuong\AppData\Local\Temp\ccVRtur0.s 			page 73


 3314 07e7 01       		.uleb128 0x1
 3315 07e8 9C       		.byte	0x9c
 3316 07e9 01090000 		.4byte	0x901
 3317 07ed 0F       		.uleb128 0xf
 3318 07ee 34040000 		.4byte	.LASF30
 3319 07f2 01       		.byte	0x1
 3320 07f3 DD       		.byte	0xdd
 3321 07f4 9C000000 		.4byte	0x9c
 3322 07f8 E2060000 		.4byte	.LLST29
 3323 07fc 0F       		.uleb128 0xf
 3324 07fd 85010000 		.4byte	.LASF15
 3325 0801 01       		.byte	0x1
 3326 0802 DD       		.byte	0xdd
 3327 0803 25000000 		.4byte	0x25
 3328 0807 77070000 		.4byte	.LLST30
 3329 080b 10       		.uleb128 0x10
 3330 080c 5F040000 		.4byte	.LASF23
 3331 0810 01       		.byte	0x1
 3332 0811 DF       		.byte	0xdf
 3333 0812 37000000 		.4byte	0x37
 3334 0816 CF070000 		.4byte	.LLST31
 3335 081a 11       		.uleb128 0x11
 3336 081b 0E030000 		.4byte	.LASF29
 3337 081f 11090000 		.4byte	0x911
 3338 0823 05       		.uleb128 0x5
 3339 0824 03       		.byte	0x3
 3340 0825 48000000 		.4byte	__func__.5957
 3341 0829 1F       		.uleb128 0x1f
 3342 082a 30000000 		.4byte	.Ldebug_ranges0+0x30
 3343 082e 13       		.uleb128 0x13
 3344 082f 6200     		.ascii	"b\000"
 3345 0831 01       		.byte	0x1
 3346 0832 EC       		.byte	0xec
 3347 0833 09020000 		.4byte	0x209
 3348 0837 EE070000 		.4byte	.LLST32
 3349 083b 12       		.uleb128 0x12
 3350 083c 16000000 		.4byte	.LBB17
 3351 0840 1C000000 		.4byte	.LBE17-.LBB17
 3352 0844 95080000 		.4byte	0x895
 3353 0848 13       		.uleb128 0x13
 3354 0849 6C00     		.ascii	"l\000"
 3355 084b 01       		.byte	0x1
 3356 084c F0       		.byte	0xf0
 3357 084d 00010000 		.4byte	0x100
 3358 0851 57080000 		.4byte	.LLST33
 3359 0855 14       		.uleb128 0x14
 3360 0856 1A000000 		.4byte	.LVL109
 3361 085a 96130000 		.4byte	0x1396
 3362 085e 15       		.uleb128 0x15
 3363 085f 32000000 		.4byte	.LVL112
 3364 0863 02       		.uleb128 0x2
 3365 0864 74       		.byte	0x74
 3366 0865 00       		.sleb128 0
 3367 0866 16       		.uleb128 0x16
 3368 0867 01       		.uleb128 0x1
 3369 0868 50       		.byte	0x50
 3370 0869 01       		.uleb128 0x1
ARM GAS  C:\Users\Phuong\AppData\Local\Temp\ccVRtur0.s 			page 74


 3371 086a 30       		.byte	0x30
 3372 086b 16       		.uleb128 0x16
 3373 086c 01       		.uleb128 0x1
 3374 086d 51       		.byte	0x51
 3375 086e 05       		.uleb128 0x5
 3376 086f 03       		.byte	0x3
 3377 0870 00000000 		.4byte	.LC1
 3378 0874 16       		.uleb128 0x16
 3379 0875 01       		.uleb128 0x1
 3380 0876 52       		.byte	0x52
 3381 0877 05       		.uleb128 0x5
 3382 0878 03       		.byte	0x3
 3383 0879 48000000 		.4byte	.LANCHOR0+72
 3384 087d 16       		.uleb128 0x16
 3385 087e 01       		.uleb128 0x1
 3386 087f 53       		.byte	0x53
 3387 0880 02       		.uleb128 0x2
 3388 0881 08       		.byte	0x8
 3389 0882 F0       		.byte	0xf0
 3390 0883 16       		.uleb128 0x16
 3391 0884 02       		.uleb128 0x2
 3392 0885 7D       		.byte	0x7d
 3393 0886 00       		.sleb128 0
 3394 0887 01       		.uleb128 0x1
 3395 0888 31       		.byte	0x31
 3396 0889 16       		.uleb128 0x16
 3397 088a 02       		.uleb128 0x2
 3398 088b 7D       		.byte	0x7d
 3399 088c 04       		.sleb128 4
 3400 088d 05       		.uleb128 0x5
 3401 088e 03       		.byte	0x3
 3402 088f 5C010000 		.4byte	.LC27
 3403 0893 00       		.byte	0
 3404 0894 00       		.byte	0
 3405 0895 12       		.uleb128 0x12
 3406 0896 42000000 		.4byte	.LBB18
 3407 089a 1C000000 		.4byte	.LBE18-.LBB18
 3408 089e EF080000 		.4byte	0x8ef
 3409 08a2 13       		.uleb128 0x13
 3410 08a3 6C00     		.ascii	"l\000"
 3411 08a5 01       		.byte	0x1
 3412 08a6 F8       		.byte	0xf8
 3413 08a7 00010000 		.4byte	0x100
 3414 08ab 8B080000 		.4byte	.LLST34
 3415 08af 14       		.uleb128 0x14
 3416 08b0 46000000 		.4byte	.LVL116
 3417 08b4 96130000 		.4byte	0x1396
 3418 08b8 15       		.uleb128 0x15
 3419 08b9 5E000000 		.4byte	.LVL119
 3420 08bd 02       		.uleb128 0x2
 3421 08be 74       		.byte	0x74
 3422 08bf 00       		.sleb128 0
 3423 08c0 16       		.uleb128 0x16
 3424 08c1 01       		.uleb128 0x1
 3425 08c2 50       		.byte	0x50
 3426 08c3 01       		.uleb128 0x1
 3427 08c4 30       		.byte	0x30
ARM GAS  C:\Users\Phuong\AppData\Local\Temp\ccVRtur0.s 			page 75


 3428 08c5 16       		.uleb128 0x16
 3429 08c6 01       		.uleb128 0x1
 3430 08c7 51       		.byte	0x51
 3431 08c8 05       		.uleb128 0x5
 3432 08c9 03       		.byte	0x3
 3433 08ca 00000000 		.4byte	.LC1
 3434 08ce 16       		.uleb128 0x16
 3435 08cf 01       		.uleb128 0x1
 3436 08d0 52       		.byte	0x52
 3437 08d1 05       		.uleb128 0x5
 3438 08d2 03       		.byte	0x3
 3439 08d3 48000000 		.4byte	.LANCHOR0+72
 3440 08d7 16       		.uleb128 0x16
 3441 08d8 01       		.uleb128 0x1
 3442 08d9 53       		.byte	0x53
 3443 08da 02       		.uleb128 0x2
 3444 08db 08       		.byte	0x8
 3445 08dc F8       		.byte	0xf8
 3446 08dd 16       		.uleb128 0x16
 3447 08de 02       		.uleb128 0x2
 3448 08df 7D       		.byte	0x7d
 3449 08e0 00       		.sleb128 0
 3450 08e1 01       		.uleb128 0x1
 3451 08e2 31       		.byte	0x31
 3452 08e3 16       		.uleb128 0x16
 3453 08e4 02       		.uleb128 0x2
 3454 08e5 7D       		.byte	0x7d
 3455 08e6 04       		.sleb128 4
 3456 08e7 05       		.uleb128 0x5
 3457 08e8 03       		.byte	0x3
 3458 08e9 78010000 		.4byte	.LC29
 3459 08ed 00       		.byte	0
 3460 08ee 00       		.byte	0
 3461 08ef 1B       		.uleb128 0x1b
 3462 08f0 3C000000 		.4byte	.LVL115
 3463 08f4 A1130000 		.4byte	0x13a1
 3464 08f8 16       		.uleb128 0x16
 3465 08f9 01       		.uleb128 0x1
 3466 08fa 50       		.byte	0x50
 3467 08fb 02       		.uleb128 0x2
 3468 08fc 75       		.byte	0x75
 3469 08fd 00       		.sleb128 0
 3470 08fe 00       		.byte	0
 3471 08ff 00       		.byte	0
 3472 0900 00       		.byte	0
 3473 0901 17       		.uleb128 0x17
 3474 0902 97000000 		.4byte	0x97
 3475 0906 11090000 		.4byte	0x911
 3476 090a 18       		.uleb128 0x18
 3477 090b 7D000000 		.4byte	0x7d
 3478 090f 10       		.byte	0x10
 3479 0910 00       		.byte	0
 3480 0911 06       		.uleb128 0x6
 3481 0912 01090000 		.4byte	0x901
 3482 0916 21       		.uleb128 0x21
 3483 0917 7C020000 		.4byte	.LASF35
 3484 091b 01       		.byte	0x1
ARM GAS  C:\Users\Phuong\AppData\Local\Temp\ccVRtur0.s 			page 76


 3485 091c 0601     		.2byte	0x106
 3486 091e 37000000 		.4byte	0x37
 3487 0922 00000000 		.4byte	.LFB8
 3488 0926 1C000000 		.4byte	.LFE8-.LFB8
 3489 092a 01       		.uleb128 0x1
 3490 092b 9C       		.byte	0x9c
 3491 092c 77090000 		.4byte	0x977
 3492 0930 22       		.uleb128 0x22
 3493 0931 34040000 		.4byte	.LASF30
 3494 0935 01       		.byte	0x1
 3495 0936 0601     		.2byte	0x106
 3496 0938 9C000000 		.4byte	0x9c
 3497 093c B4080000 		.4byte	.LLST35
 3498 0940 23       		.uleb128 0x23
 3499 0941 C3010000 		.4byte	.LASF36
 3500 0945 01       		.byte	0x1
 3501 0946 0601     		.2byte	0x106
 3502 0948 77090000 		.4byte	0x977
 3503 094c 01       		.uleb128 0x1
 3504 094d 51       		.byte	0x51
 3505 094e 24       		.uleb128 0x24
 3506 094f 5F040000 		.4byte	.LASF23
 3507 0953 01       		.byte	0x1
 3508 0954 0801     		.2byte	0x108
 3509 0956 37000000 		.4byte	0x37
 3510 095a 07090000 		.4byte	.LLST36
 3511 095e 1E       		.uleb128 0x1e
 3512 095f 08000000 		.4byte	.LBB20
 3513 0963 08000000 		.4byte	.LBE20-.LBB20
 3514 0967 25       		.uleb128 0x25
 3515 0968 6200     		.ascii	"b\000"
 3516 096a 01       		.byte	0x1
 3517 096b 1001     		.2byte	0x110
 3518 096d 09020000 		.4byte	0x209
 3519 0971 26090000 		.4byte	.LLST37
 3520 0975 00       		.byte	0
 3521 0976 00       		.byte	0
 3522 0977 05       		.uleb128 0x5
 3523 0978 04       		.byte	0x4
 3524 0979 16040000 		.4byte	0x416
 3525 097d 21       		.uleb128 0x21
 3526 097e 11000000 		.4byte	.LASF37
 3527 0982 01       		.byte	0x1
 3528 0983 1901     		.2byte	0x119
 3529 0985 37000000 		.4byte	0x37
 3530 0989 00000000 		.4byte	.LFB9
 3531 098d 58000000 		.4byte	.LFE9-.LFB9
 3532 0991 01       		.uleb128 0x1
 3533 0992 9C       		.byte	0x9c
 3534 0993 400A0000 		.4byte	0xa40
 3535 0997 22       		.uleb128 0x22
 3536 0998 34040000 		.4byte	.LASF30
 3537 099c 01       		.byte	0x1
 3538 099d 1901     		.2byte	0x119
 3539 099f 9C000000 		.4byte	0x9c
 3540 09a3 47090000 		.4byte	.LLST38
 3541 09a7 24       		.uleb128 0x24
ARM GAS  C:\Users\Phuong\AppData\Local\Temp\ccVRtur0.s 			page 77


 3542 09a8 5F040000 		.4byte	.LASF23
 3543 09ac 01       		.byte	0x1
 3544 09ad 1B01     		.2byte	0x11b
 3545 09af 37000000 		.4byte	0x37
 3546 09b3 9F090000 		.4byte	.LLST39
 3547 09b7 11       		.uleb128 0x11
 3548 09b8 0E030000 		.4byte	.LASF29
 3549 09bc 500A0000 		.4byte	0xa50
 3550 09c0 05       		.uleb128 0x5
 3551 09c1 03       		.byte	0x3
 3552 09c2 5C000000 		.4byte	__func__.5975
 3553 09c6 1F       		.uleb128 0x1f
 3554 09c7 48000000 		.4byte	.Ldebug_ranges0+0x48
 3555 09cb 25       		.uleb128 0x25
 3556 09cc 6200     		.ascii	"b\000"
 3557 09ce 01       		.byte	0x1
 3558 09cf 2301     		.2byte	0x123
 3559 09d1 09020000 		.4byte	0x209
 3560 09d5 BE090000 		.4byte	.LLST40
 3561 09d9 12       		.uleb128 0x12
 3562 09da 0E000000 		.4byte	.LBB22
 3563 09de 1E000000 		.4byte	.LBE22-.LBB22
 3564 09e2 350A0000 		.4byte	0xa35
 3565 09e6 25       		.uleb128 0x25
 3566 09e7 6C00     		.ascii	"l\000"
 3567 09e9 01       		.byte	0x1
 3568 09ea 2601     		.2byte	0x126
 3569 09ec 00010000 		.4byte	0x100
 3570 09f0 F2090000 		.4byte	.LLST41
 3571 09f4 14       		.uleb128 0x14
 3572 09f5 12000000 		.4byte	.LVL142
 3573 09f9 96130000 		.4byte	0x1396
 3574 09fd 15       		.uleb128 0x15
 3575 09fe 2C000000 		.4byte	.LVL145
 3576 0a02 02       		.uleb128 0x2
 3577 0a03 75       		.byte	0x75
 3578 0a04 00       		.sleb128 0
 3579 0a05 16       		.uleb128 0x16
 3580 0a06 01       		.uleb128 0x1
 3581 0a07 50       		.byte	0x50
 3582 0a08 01       		.uleb128 0x1
 3583 0a09 30       		.byte	0x30
 3584 0a0a 16       		.uleb128 0x16
 3585 0a0b 01       		.uleb128 0x1
 3586 0a0c 51       		.byte	0x51
 3587 0a0d 05       		.uleb128 0x5
 3588 0a0e 03       		.byte	0x3
 3589 0a0f 00000000 		.4byte	.LC1
 3590 0a13 16       		.uleb128 0x16
 3591 0a14 01       		.uleb128 0x1
 3592 0a15 52       		.byte	0x52
 3593 0a16 05       		.uleb128 0x5
 3594 0a17 03       		.byte	0x3
 3595 0a18 5C000000 		.4byte	.LANCHOR0+92
 3596 0a1c 16       		.uleb128 0x16
 3597 0a1d 01       		.uleb128 0x1
 3598 0a1e 53       		.byte	0x53
ARM GAS  C:\Users\Phuong\AppData\Local\Temp\ccVRtur0.s 			page 78


 3599 0a1f 03       		.uleb128 0x3
 3600 0a20 0A       		.byte	0xa
 3601 0a21 2601     		.2byte	0x126
 3602 0a23 16       		.uleb128 0x16
 3603 0a24 02       		.uleb128 0x2
 3604 0a25 7D       		.byte	0x7d
 3605 0a26 00       		.sleb128 0
 3606 0a27 01       		.uleb128 0x1
 3607 0a28 31       		.byte	0x31
 3608 0a29 16       		.uleb128 0x16
 3609 0a2a 02       		.uleb128 0x2
 3610 0a2b 7D       		.byte	0x7d
 3611 0a2c 04       		.sleb128 4
 3612 0a2d 05       		.uleb128 0x5
 3613 0a2e 03       		.byte	0x3
 3614 0a2f 5C010000 		.4byte	.LC27
 3615 0a33 00       		.byte	0
 3616 0a34 00       		.byte	0
 3617 0a35 14       		.uleb128 0x14
 3618 0a36 32000000 		.4byte	.LVL146
 3619 0a3a AC130000 		.4byte	0x13ac
 3620 0a3e 00       		.byte	0
 3621 0a3f 00       		.byte	0
 3622 0a40 17       		.uleb128 0x17
 3623 0a41 97000000 		.4byte	0x97
 3624 0a45 500A0000 		.4byte	0xa50
 3625 0a49 18       		.uleb128 0x18
 3626 0a4a 7D000000 		.4byte	0x7d
 3627 0a4e 0E       		.byte	0xe
 3628 0a4f 00       		.byte	0
 3629 0a50 06       		.uleb128 0x6
 3630 0a51 400A0000 		.4byte	0xa40
 3631 0a55 21       		.uleb128 0x21
 3632 0a56 FF020000 		.4byte	.LASF38
 3633 0a5a 01       		.byte	0x1
 3634 0a5b 3601     		.2byte	0x136
 3635 0a5d 37000000 		.4byte	0x37
 3636 0a61 00000000 		.4byte	.LFB10
 3637 0a65 C0000000 		.4byte	.LFE10-.LFB10
 3638 0a69 01       		.uleb128 0x1
 3639 0a6a 9C       		.byte	0x9c
 3640 0a6b F00B0000 		.4byte	0xbf0
 3641 0a6f 22       		.uleb128 0x22
 3642 0a70 34040000 		.4byte	.LASF30
 3643 0a74 01       		.byte	0x1
 3644 0a75 3601     		.2byte	0x136
 3645 0a77 9C000000 		.4byte	0x9c
 3646 0a7b 100A0000 		.4byte	.LLST42
 3647 0a7f 22       		.uleb128 0x22
 3648 0a80 17030000 		.4byte	.LASF39
 3649 0a84 01       		.byte	0x1
 3650 0a85 3601     		.2byte	0x136
 3651 0a87 25000000 		.4byte	0x25
 3652 0a8b 9D0A0000 		.4byte	.LLST43
 3653 0a8f 24       		.uleb128 0x24
 3654 0a90 5F040000 		.4byte	.LASF23
 3655 0a94 01       		.byte	0x1
ARM GAS  C:\Users\Phuong\AppData\Local\Temp\ccVRtur0.s 			page 79


 3656 0a95 3801     		.2byte	0x138
 3657 0a97 37000000 		.4byte	0x37
 3658 0a9b 0E0B0000 		.4byte	.LLST44
 3659 0a9f 11       		.uleb128 0x11
 3660 0aa0 0E030000 		.4byte	.LASF29
 3661 0aa4 F00B0000 		.4byte	0xbf0
 3662 0aa8 05       		.uleb128 0x5
 3663 0aa9 03       		.byte	0x3
 3664 0aaa 6C000000 		.4byte	__func__.5984
 3665 0aae 12       		.uleb128 0x12
 3666 0aaf 0C000000 		.4byte	.LBB24
 3667 0ab3 1E000000 		.4byte	.LBE24-.LBB24
 3668 0ab7 0A0B0000 		.4byte	0xb0a
 3669 0abb 25       		.uleb128 0x25
 3670 0abc 6C00     		.ascii	"l\000"
 3671 0abe 01       		.byte	0x1
 3672 0abf 3C01     		.2byte	0x13c
 3673 0ac1 00010000 		.4byte	0x100
 3674 0ac5 2D0B0000 		.4byte	.LLST45
 3675 0ac9 14       		.uleb128 0x14
 3676 0aca 10000000 		.4byte	.LVL155
 3677 0ace 96130000 		.4byte	0x1396
 3678 0ad2 15       		.uleb128 0x15
 3679 0ad3 2A000000 		.4byte	.LVL158
 3680 0ad7 02       		.uleb128 0x2
 3681 0ad8 74       		.byte	0x74
 3682 0ad9 00       		.sleb128 0
 3683 0ada 16       		.uleb128 0x16
 3684 0adb 01       		.uleb128 0x1
 3685 0adc 50       		.byte	0x50
 3686 0add 01       		.uleb128 0x1
 3687 0ade 30       		.byte	0x30
 3688 0adf 16       		.uleb128 0x16
 3689 0ae0 01       		.uleb128 0x1
 3690 0ae1 51       		.byte	0x51
 3691 0ae2 05       		.uleb128 0x5
 3692 0ae3 03       		.byte	0x3
 3693 0ae4 00000000 		.4byte	.LC1
 3694 0ae8 16       		.uleb128 0x16
 3695 0ae9 01       		.uleb128 0x1
 3696 0aea 52       		.byte	0x52
 3697 0aeb 05       		.uleb128 0x5
 3698 0aec 03       		.byte	0x3
 3699 0aed 6C000000 		.4byte	.LANCHOR0+108
 3700 0af1 16       		.uleb128 0x16
 3701 0af2 01       		.uleb128 0x1
 3702 0af3 53       		.byte	0x53
 3703 0af4 03       		.uleb128 0x3
 3704 0af5 0A       		.byte	0xa
 3705 0af6 3C01     		.2byte	0x13c
 3706 0af8 16       		.uleb128 0x16
 3707 0af9 02       		.uleb128 0x2
 3708 0afa 7D       		.byte	0x7d
 3709 0afb 00       		.sleb128 0
 3710 0afc 01       		.uleb128 0x1
 3711 0afd 31       		.byte	0x31
 3712 0afe 16       		.uleb128 0x16
ARM GAS  C:\Users\Phuong\AppData\Local\Temp\ccVRtur0.s 			page 80


 3713 0aff 02       		.uleb128 0x2
 3714 0b00 7D       		.byte	0x7d
 3715 0b01 04       		.sleb128 4
 3716 0b02 05       		.uleb128 0x5
 3717 0b03 03       		.byte	0x3
 3718 0b04 94010000 		.4byte	.LC36
 3719 0b08 00       		.byte	0
 3720 0b09 00       		.byte	0
 3721 0b0a 12       		.uleb128 0x12
 3722 0b0b 34000000 		.4byte	.LBB25
 3723 0b0f 1E000000 		.4byte	.LBE25-.LBB25
 3724 0b13 660B0000 		.4byte	0xb66
 3725 0b17 25       		.uleb128 0x25
 3726 0b18 6C00     		.ascii	"l\000"
 3727 0b1a 01       		.byte	0x1
 3728 0b1b 4201     		.2byte	0x142
 3729 0b1d 00010000 		.4byte	0x100
 3730 0b21 610B0000 		.4byte	.LLST46
 3731 0b25 14       		.uleb128 0x14
 3732 0b26 38000000 		.4byte	.LVL160
 3733 0b2a 96130000 		.4byte	0x1396
 3734 0b2e 15       		.uleb128 0x15
 3735 0b2f 52000000 		.4byte	.LVL163
 3736 0b33 02       		.uleb128 0x2
 3737 0b34 74       		.byte	0x74
 3738 0b35 00       		.sleb128 0
 3739 0b36 16       		.uleb128 0x16
 3740 0b37 01       		.uleb128 0x1
 3741 0b38 50       		.byte	0x50
 3742 0b39 01       		.uleb128 0x1
 3743 0b3a 30       		.byte	0x30
 3744 0b3b 16       		.uleb128 0x16
 3745 0b3c 01       		.uleb128 0x1
 3746 0b3d 51       		.byte	0x51
 3747 0b3e 05       		.uleb128 0x5
 3748 0b3f 03       		.byte	0x3
 3749 0b40 00000000 		.4byte	.LC1
 3750 0b44 16       		.uleb128 0x16
 3751 0b45 01       		.uleb128 0x1
 3752 0b46 52       		.byte	0x52
 3753 0b47 05       		.uleb128 0x5
 3754 0b48 03       		.byte	0x3
 3755 0b49 6C000000 		.4byte	.LANCHOR0+108
 3756 0b4d 16       		.uleb128 0x16
 3757 0b4e 01       		.uleb128 0x1
 3758 0b4f 53       		.byte	0x53
 3759 0b50 03       		.uleb128 0x3
 3760 0b51 0A       		.byte	0xa
 3761 0b52 4201     		.2byte	0x142
 3762 0b54 16       		.uleb128 0x16
 3763 0b55 02       		.uleb128 0x2
 3764 0b56 7D       		.byte	0x7d
 3765 0b57 00       		.sleb128 0
 3766 0b58 01       		.uleb128 0x1
 3767 0b59 31       		.byte	0x31
 3768 0b5a 16       		.uleb128 0x16
 3769 0b5b 02       		.uleb128 0x2
ARM GAS  C:\Users\Phuong\AppData\Local\Temp\ccVRtur0.s 			page 81


 3770 0b5c 7D       		.byte	0x7d
 3771 0b5d 04       		.sleb128 4
 3772 0b5e 05       		.uleb128 0x5
 3773 0b5f 03       		.byte	0x3
 3774 0b60 B0010000 		.4byte	.LC38
 3775 0b64 00       		.byte	0
 3776 0b65 00       		.byte	0
 3777 0b66 1F       		.uleb128 0x1f
 3778 0b67 60000000 		.4byte	.Ldebug_ranges0+0x60
 3779 0b6b 25       		.uleb128 0x25
 3780 0b6c 6200     		.ascii	"b\000"
 3781 0b6e 01       		.byte	0x1
 3782 0b6f 4701     		.2byte	0x147
 3783 0b71 09020000 		.4byte	0x209
 3784 0b75 950B0000 		.4byte	.LLST47
 3785 0b79 24       		.uleb128 0x24
 3786 0b7a D0000000 		.4byte	.LASF25
 3787 0b7e 01       		.byte	0x1
 3788 0b7f 4801     		.2byte	0x148
 3789 0b81 8B000000 		.4byte	0x8b
 3790 0b85 DA0B0000 		.4byte	.LLST48
 3791 0b89 12       		.uleb128 0x12
 3792 0b8a 66000000 		.4byte	.LBB27
 3793 0b8e 1E000000 		.4byte	.LBE27-.LBB27
 3794 0b92 E50B0000 		.4byte	0xbe5
 3795 0b96 25       		.uleb128 0x25
 3796 0b97 6C00     		.ascii	"l\000"
 3797 0b99 01       		.byte	0x1
 3798 0b9a 4C01     		.2byte	0x14c
 3799 0b9c 00010000 		.4byte	0x100
 3800 0ba0 040C0000 		.4byte	.LLST49
 3801 0ba4 14       		.uleb128 0x14
 3802 0ba5 6A000000 		.4byte	.LVL168
 3803 0ba9 96130000 		.4byte	0x1396
 3804 0bad 15       		.uleb128 0x15
 3805 0bae 84000000 		.4byte	.LVL171
 3806 0bb2 02       		.uleb128 0x2
 3807 0bb3 74       		.byte	0x74
 3808 0bb4 00       		.sleb128 0
 3809 0bb5 16       		.uleb128 0x16
 3810 0bb6 01       		.uleb128 0x1
 3811 0bb7 50       		.byte	0x50
 3812 0bb8 01       		.uleb128 0x1
 3813 0bb9 30       		.byte	0x30
 3814 0bba 16       		.uleb128 0x16
 3815 0bbb 01       		.uleb128 0x1
 3816 0bbc 51       		.byte	0x51
 3817 0bbd 05       		.uleb128 0x5
 3818 0bbe 03       		.byte	0x3
 3819 0bbf 00000000 		.4byte	.LC1
 3820 0bc3 16       		.uleb128 0x16
 3821 0bc4 01       		.uleb128 0x1
 3822 0bc5 52       		.byte	0x52
 3823 0bc6 05       		.uleb128 0x5
 3824 0bc7 03       		.byte	0x3
 3825 0bc8 6C000000 		.4byte	.LANCHOR0+108
 3826 0bcc 16       		.uleb128 0x16
ARM GAS  C:\Users\Phuong\AppData\Local\Temp\ccVRtur0.s 			page 82


 3827 0bcd 01       		.uleb128 0x1
 3828 0bce 53       		.byte	0x53
 3829 0bcf 03       		.uleb128 0x3
 3830 0bd0 0A       		.byte	0xa
 3831 0bd1 4C01     		.2byte	0x14c
 3832 0bd3 16       		.uleb128 0x16
 3833 0bd4 02       		.uleb128 0x2
 3834 0bd5 7D       		.byte	0x7d
 3835 0bd6 00       		.sleb128 0
 3836 0bd7 01       		.uleb128 0x1
 3837 0bd8 31       		.byte	0x31
 3838 0bd9 16       		.uleb128 0x16
 3839 0bda 02       		.uleb128 0x2
 3840 0bdb 7D       		.byte	0x7d
 3841 0bdc 04       		.sleb128 4
 3842 0bdd 05       		.uleb128 0x5
 3843 0bde 03       		.byte	0x3
 3844 0bdf D0010000 		.4byte	.LC40
 3845 0be3 00       		.byte	0
 3846 0be4 00       		.byte	0
 3847 0be5 14       		.uleb128 0x14
 3848 0be6 62000000 		.4byte	.LVL167
 3849 0bea C0130000 		.4byte	0x13c0
 3850 0bee 00       		.byte	0
 3851 0bef 00       		.byte	0
 3852 0bf0 06       		.uleb128 0x6
 3853 0bf1 400A0000 		.4byte	0xa40
 3854 0bf5 21       		.uleb128 0x21
 3855 0bf6 DE000000 		.4byte	.LASF40
 3856 0bfa 01       		.byte	0x1
 3857 0bfb 5901     		.2byte	0x159
 3858 0bfd 37000000 		.4byte	0x37
 3859 0c01 00000000 		.4byte	.LFB11
 3860 0c05 2C010000 		.4byte	.LFE11-.LFB11
 3861 0c09 01       		.uleb128 0x1
 3862 0c0a 9C       		.byte	0x9c
 3863 0c0b 560E0000 		.4byte	0xe56
 3864 0c0f 22       		.uleb128 0x22
 3865 0c10 34040000 		.4byte	.LASF30
 3866 0c14 01       		.byte	0x1
 3867 0c15 5901     		.2byte	0x159
 3868 0c17 9C000000 		.4byte	0x9c
 3869 0c1b 380C0000 		.4byte	.LLST50
 3870 0c1f 22       		.uleb128 0x22
 3871 0c20 6D010000 		.4byte	.LASF41
 3872 0c24 01       		.byte	0x1
 3873 0c25 5901     		.2byte	0x159
 3874 0c27 25000000 		.4byte	0x25
 3875 0c2b DE0C0000 		.4byte	.LLST51
 3876 0c2f 22       		.uleb128 0x22
 3877 0c30 04040000 		.4byte	.LASF42
 3878 0c34 01       		.byte	0x1
 3879 0c35 5901     		.2byte	0x159
 3880 0c37 560E0000 		.4byte	0xe56
 3881 0c3b 620D0000 		.4byte	.LLST52
 3882 0c3f 24       		.uleb128 0x24
 3883 0c40 5F040000 		.4byte	.LASF23
ARM GAS  C:\Users\Phuong\AppData\Local\Temp\ccVRtur0.s 			page 83


 3884 0c44 01       		.byte	0x1
 3885 0c45 5B01     		.2byte	0x15b
 3886 0c47 37000000 		.4byte	0x37
 3887 0c4b E70D0000 		.4byte	.LLST53
 3888 0c4f 11       		.uleb128 0x11
 3889 0c50 0E030000 		.4byte	.LASF29
 3890 0c54 5D0E0000 		.4byte	0xe5d
 3891 0c58 05       		.uleb128 0x5
 3892 0c59 03       		.byte	0x3
 3893 0c5a 7C000000 		.4byte	__func__.6002
 3894 0c5e 12       		.uleb128 0x12
 3895 0c5f 0E000000 		.4byte	.LBB29
 3896 0c63 1E000000 		.4byte	.LBE29-.LBB29
 3897 0c67 BA0C0000 		.4byte	0xcba
 3898 0c6b 25       		.uleb128 0x25
 3899 0c6c 6C00     		.ascii	"l\000"
 3900 0c6e 01       		.byte	0x1
 3901 0c6f 5F01     		.2byte	0x15f
 3902 0c71 00010000 		.4byte	0x100
 3903 0c75 1E0E0000 		.4byte	.LLST54
 3904 0c79 14       		.uleb128 0x14
 3905 0c7a 12000000 		.4byte	.LVL184
 3906 0c7e 96130000 		.4byte	0x1396
 3907 0c82 15       		.uleb128 0x15
 3908 0c83 2C000000 		.4byte	.LVL187
 3909 0c87 02       		.uleb128 0x2
 3910 0c88 74       		.byte	0x74
 3911 0c89 00       		.sleb128 0
 3912 0c8a 16       		.uleb128 0x16
 3913 0c8b 01       		.uleb128 0x1
 3914 0c8c 50       		.byte	0x50
 3915 0c8d 01       		.uleb128 0x1
 3916 0c8e 30       		.byte	0x30
 3917 0c8f 16       		.uleb128 0x16
 3918 0c90 01       		.uleb128 0x1
 3919 0c91 51       		.byte	0x51
 3920 0c92 05       		.uleb128 0x5
 3921 0c93 03       		.byte	0x3
 3922 0c94 00000000 		.4byte	.LC1
 3923 0c98 16       		.uleb128 0x16
 3924 0c99 01       		.uleb128 0x1
 3925 0c9a 52       		.byte	0x52
 3926 0c9b 05       		.uleb128 0x5
 3927 0c9c 03       		.byte	0x3
 3928 0c9d 7C000000 		.4byte	.LANCHOR0+124
 3929 0ca1 16       		.uleb128 0x16
 3930 0ca2 01       		.uleb128 0x1
 3931 0ca3 53       		.byte	0x53
 3932 0ca4 03       		.uleb128 0x3
 3933 0ca5 0A       		.byte	0xa
 3934 0ca6 5F01     		.2byte	0x15f
 3935 0ca8 16       		.uleb128 0x16
 3936 0ca9 02       		.uleb128 0x2
 3937 0caa 7D       		.byte	0x7d
 3938 0cab 00       		.sleb128 0
 3939 0cac 01       		.uleb128 0x1
 3940 0cad 31       		.byte	0x31
ARM GAS  C:\Users\Phuong\AppData\Local\Temp\ccVRtur0.s 			page 84


 3941 0cae 16       		.uleb128 0x16
 3942 0caf 02       		.uleb128 0x2
 3943 0cb0 7D       		.byte	0x7d
 3944 0cb1 04       		.sleb128 4
 3945 0cb2 05       		.uleb128 0x5
 3946 0cb3 03       		.byte	0x3
 3947 0cb4 94010000 		.4byte	.LC36
 3948 0cb8 00       		.byte	0
 3949 0cb9 00       		.byte	0
 3950 0cba 12       		.uleb128 0x12
 3951 0cbb 36000000 		.4byte	.LBB30
 3952 0cbf 1E000000 		.4byte	.LBE30-.LBB30
 3953 0cc3 160D0000 		.4byte	0xd16
 3954 0cc7 25       		.uleb128 0x25
 3955 0cc8 6C00     		.ascii	"l\000"
 3956 0cca 01       		.byte	0x1
 3957 0ccb 6501     		.2byte	0x165
 3958 0ccd 00010000 		.4byte	0x100
 3959 0cd1 520E0000 		.4byte	.LLST55
 3960 0cd5 14       		.uleb128 0x14
 3961 0cd6 3A000000 		.4byte	.LVL189
 3962 0cda 96130000 		.4byte	0x1396
 3963 0cde 15       		.uleb128 0x15
 3964 0cdf 54000000 		.4byte	.LVL192
 3965 0ce3 02       		.uleb128 0x2
 3966 0ce4 74       		.byte	0x74
 3967 0ce5 00       		.sleb128 0
 3968 0ce6 16       		.uleb128 0x16
 3969 0ce7 01       		.uleb128 0x1
 3970 0ce8 50       		.byte	0x50
 3971 0ce9 01       		.uleb128 0x1
 3972 0cea 30       		.byte	0x30
 3973 0ceb 16       		.uleb128 0x16
 3974 0cec 01       		.uleb128 0x1
 3975 0ced 51       		.byte	0x51
 3976 0cee 05       		.uleb128 0x5
 3977 0cef 03       		.byte	0x3
 3978 0cf0 00000000 		.4byte	.LC1
 3979 0cf4 16       		.uleb128 0x16
 3980 0cf5 01       		.uleb128 0x1
 3981 0cf6 52       		.byte	0x52
 3982 0cf7 05       		.uleb128 0x5
 3983 0cf8 03       		.byte	0x3
 3984 0cf9 7C000000 		.4byte	.LANCHOR0+124
 3985 0cfd 16       		.uleb128 0x16
 3986 0cfe 01       		.uleb128 0x1
 3987 0cff 53       		.byte	0x53
 3988 0d00 03       		.uleb128 0x3
 3989 0d01 0A       		.byte	0xa
 3990 0d02 6501     		.2byte	0x165
 3991 0d04 16       		.uleb128 0x16
 3992 0d05 02       		.uleb128 0x2
 3993 0d06 7D       		.byte	0x7d
 3994 0d07 00       		.sleb128 0
 3995 0d08 01       		.uleb128 0x1
 3996 0d09 31       		.byte	0x31
 3997 0d0a 16       		.uleb128 0x16
ARM GAS  C:\Users\Phuong\AppData\Local\Temp\ccVRtur0.s 			page 85


 3998 0d0b 02       		.uleb128 0x2
 3999 0d0c 7D       		.byte	0x7d
 4000 0d0d 04       		.sleb128 4
 4001 0d0e 05       		.uleb128 0x5
 4002 0d0f 03       		.byte	0x3
 4003 0d10 F4010000 		.4byte	.LC45
 4004 0d14 00       		.byte	0
 4005 0d15 00       		.byte	0
 4006 0d16 12       		.uleb128 0x12
 4007 0d17 60000000 		.4byte	.LBB31
 4008 0d1b 1E000000 		.4byte	.LBE31-.LBB31
 4009 0d1f 720D0000 		.4byte	0xd72
 4010 0d23 25       		.uleb128 0x25
 4011 0d24 6C00     		.ascii	"l\000"
 4012 0d26 01       		.byte	0x1
 4013 0d27 6B01     		.2byte	0x16b
 4014 0d29 00010000 		.4byte	0x100
 4015 0d2d 860E0000 		.4byte	.LLST56
 4016 0d31 14       		.uleb128 0x14
 4017 0d32 64000000 		.4byte	.LVL195
 4018 0d36 96130000 		.4byte	0x1396
 4019 0d3a 15       		.uleb128 0x15
 4020 0d3b 7E000000 		.4byte	.LVL198
 4021 0d3f 02       		.uleb128 0x2
 4022 0d40 74       		.byte	0x74
 4023 0d41 00       		.sleb128 0
 4024 0d42 16       		.uleb128 0x16
 4025 0d43 01       		.uleb128 0x1
 4026 0d44 50       		.byte	0x50
 4027 0d45 01       		.uleb128 0x1
 4028 0d46 30       		.byte	0x30
 4029 0d47 16       		.uleb128 0x16
 4030 0d48 01       		.uleb128 0x1
 4031 0d49 51       		.byte	0x51
 4032 0d4a 05       		.uleb128 0x5
 4033 0d4b 03       		.byte	0x3
 4034 0d4c 00000000 		.4byte	.LC1
 4035 0d50 16       		.uleb128 0x16
 4036 0d51 01       		.uleb128 0x1
 4037 0d52 52       		.byte	0x52
 4038 0d53 05       		.uleb128 0x5
 4039 0d54 03       		.byte	0x3
 4040 0d55 7C000000 		.4byte	.LANCHOR0+124
 4041 0d59 16       		.uleb128 0x16
 4042 0d5a 01       		.uleb128 0x1
 4043 0d5b 53       		.byte	0x53
 4044 0d5c 03       		.uleb128 0x3
 4045 0d5d 0A       		.byte	0xa
 4046 0d5e 6B01     		.2byte	0x16b
 4047 0d60 16       		.uleb128 0x16
 4048 0d61 02       		.uleb128 0x2
 4049 0d62 7D       		.byte	0x7d
 4050 0d63 00       		.sleb128 0
 4051 0d64 01       		.uleb128 0x1
 4052 0d65 31       		.byte	0x31
 4053 0d66 16       		.uleb128 0x16
 4054 0d67 02       		.uleb128 0x2
ARM GAS  C:\Users\Phuong\AppData\Local\Temp\ccVRtur0.s 			page 86


 4055 0d68 7D       		.byte	0x7d
 4056 0d69 04       		.sleb128 4
 4057 0d6a 05       		.uleb128 0x5
 4058 0d6b 03       		.byte	0x3
 4059 0d6c 14020000 		.4byte	.LC47
 4060 0d70 00       		.byte	0
 4061 0d71 00       		.byte	0
 4062 0d72 1F       		.uleb128 0x1f
 4063 0d73 78000000 		.4byte	.Ldebug_ranges0+0x78
 4064 0d77 24       		.uleb128 0x24
 4065 0d78 EF030000 		.4byte	.LASF43
 4066 0d7c 01       		.byte	0x1
 4067 0d7d 7101     		.2byte	0x171
 4068 0d7f 25000000 		.4byte	0x25
 4069 0d83 BA0E0000 		.4byte	.LLST57
 4070 0d87 20       		.uleb128 0x20
 4071 0d88 90000000 		.4byte	.Ldebug_ranges0+0x90
 4072 0d8c 4B0E0000 		.4byte	0xe4b
 4073 0d90 25       		.uleb128 0x25
 4074 0d91 746D7000 		.ascii	"tmp\000"
 4075 0d95 01       		.byte	0x1
 4076 0d96 7C01     		.2byte	0x17c
 4077 0d98 8B000000 		.4byte	0x8b
 4078 0d9c D80E0000 		.4byte	.LLST58
 4079 0da0 12       		.uleb128 0x12
 4080 0da1 A2000000 		.4byte	.LBB34
 4081 0da5 1E000000 		.4byte	.LBE34-.LBB34
 4082 0da9 FC0D0000 		.4byte	0xdfc
 4083 0dad 25       		.uleb128 0x25
 4084 0dae 6C00     		.ascii	"l\000"
 4085 0db0 01       		.byte	0x1
 4086 0db1 8001     		.2byte	0x180
 4087 0db3 00010000 		.4byte	0x100
 4088 0db7 2D0F0000 		.4byte	.LLST59
 4089 0dbb 14       		.uleb128 0x14
 4090 0dbc A6000000 		.4byte	.LVL206
 4091 0dc0 96130000 		.4byte	0x1396
 4092 0dc4 15       		.uleb128 0x15
 4093 0dc5 C0000000 		.4byte	.LVL209
 4094 0dc9 02       		.uleb128 0x2
 4095 0dca 74       		.byte	0x74
 4096 0dcb 00       		.sleb128 0
 4097 0dcc 16       		.uleb128 0x16
 4098 0dcd 01       		.uleb128 0x1
 4099 0dce 50       		.byte	0x50
 4100 0dcf 01       		.uleb128 0x1
 4101 0dd0 30       		.byte	0x30
 4102 0dd1 16       		.uleb128 0x16
 4103 0dd2 01       		.uleb128 0x1
 4104 0dd3 51       		.byte	0x51
 4105 0dd4 05       		.uleb128 0x5
 4106 0dd5 03       		.byte	0x3
 4107 0dd6 00000000 		.4byte	.LC1
 4108 0dda 16       		.uleb128 0x16
 4109 0ddb 01       		.uleb128 0x1
 4110 0ddc 52       		.byte	0x52
 4111 0ddd 05       		.uleb128 0x5
ARM GAS  C:\Users\Phuong\AppData\Local\Temp\ccVRtur0.s 			page 87


 4112 0dde 03       		.byte	0x3
 4113 0ddf 7C000000 		.4byte	.LANCHOR0+124
 4114 0de3 16       		.uleb128 0x16
 4115 0de4 01       		.uleb128 0x1
 4116 0de5 53       		.byte	0x53
 4117 0de6 03       		.uleb128 0x3
 4118 0de7 0A       		.byte	0xa
 4119 0de8 8001     		.2byte	0x180
 4120 0dea 16       		.uleb128 0x16
 4121 0deb 02       		.uleb128 0x2
 4122 0dec 7D       		.byte	0x7d
 4123 0ded 00       		.sleb128 0
 4124 0dee 01       		.uleb128 0x1
 4125 0def 31       		.byte	0x31
 4126 0df0 16       		.uleb128 0x16
 4127 0df1 02       		.uleb128 0x2
 4128 0df2 7D       		.byte	0x7d
 4129 0df3 04       		.sleb128 4
 4130 0df4 05       		.uleb128 0x5
 4131 0df5 03       		.byte	0x3
 4132 0df6 D0010000 		.4byte	.LC40
 4133 0dfa 00       		.byte	0
 4134 0dfb 00       		.byte	0
 4135 0dfc 1C       		.uleb128 0x1c
 4136 0dfd 9E000000 		.4byte	.LVL204
 4137 0e01 A1130000 		.4byte	0x13a1
 4138 0e05 100E0000 		.4byte	0xe10
 4139 0e09 16       		.uleb128 0x16
 4140 0e0a 01       		.uleb128 0x1
 4141 0e0b 50       		.byte	0x50
 4142 0e0c 02       		.uleb128 0x2
 4143 0e0d 75       		.byte	0x75
 4144 0e0e 00       		.sleb128 0
 4145 0e0f 00       		.byte	0
 4146 0e10 1C       		.uleb128 0x1c
 4147 0e11 D4000000 		.4byte	.LVL211
 4148 0e15 B7130000 		.4byte	0x13b7
 4149 0e19 240E0000 		.4byte	0xe24
 4150 0e1d 16       		.uleb128 0x16
 4151 0e1e 01       		.uleb128 0x1
 4152 0e1f 52       		.byte	0x52
 4153 0e20 02       		.uleb128 0x2
 4154 0e21 75       		.byte	0x75
 4155 0e22 00       		.sleb128 0
 4156 0e23 00       		.byte	0
 4157 0e24 14       		.uleb128 0x14
 4158 0e25 DA000000 		.4byte	.LVL212
 4159 0e29 AC130000 		.4byte	0x13ac
 4160 0e2d 1C       		.uleb128 0x1c
 4161 0e2e EC000000 		.4byte	.LVL215
 4162 0e32 B7130000 		.4byte	0x13b7
 4163 0e36 410E0000 		.4byte	0xe41
 4164 0e3a 16       		.uleb128 0x16
 4165 0e3b 01       		.uleb128 0x1
 4166 0e3c 52       		.byte	0x52
 4167 0e3d 02       		.uleb128 0x2
 4168 0e3e 75       		.byte	0x75
ARM GAS  C:\Users\Phuong\AppData\Local\Temp\ccVRtur0.s 			page 88


 4169 0e3f 00       		.sleb128 0
 4170 0e40 00       		.byte	0
 4171 0e41 14       		.uleb128 0x14
 4172 0e42 F2000000 		.4byte	.LVL216
 4173 0e46 AC130000 		.4byte	0x13ac
 4174 0e4a 00       		.byte	0
 4175 0e4b 14       		.uleb128 0x14
 4176 0e4c 8E000000 		.4byte	.LVL201
 4177 0e50 AC130000 		.4byte	0x13ac
 4178 0e54 00       		.byte	0
 4179 0e55 00       		.byte	0
 4180 0e56 03       		.uleb128 0x3
 4181 0e57 01       		.byte	0x1
 4182 0e58 02       		.byte	0x2
 4183 0e59 C4020000 		.4byte	.LASF44
 4184 0e5d 06       		.uleb128 0x6
 4185 0e5e 21040000 		.4byte	0x421
 4186 0e62 21       		.uleb128 0x21
 4187 0e63 66040000 		.4byte	.LASF45
 4188 0e67 01       		.byte	0x1
 4189 0e68 9E01     		.2byte	0x19e
 4190 0e6a 37000000 		.4byte	0x37
 4191 0e6e 00000000 		.4byte	.LFB12
 4192 0e72 1C000000 		.4byte	.LFE12-.LFB12
 4193 0e76 01       		.uleb128 0x1
 4194 0e77 9C       		.byte	0x9c
 4195 0e78 C30E0000 		.4byte	0xec3
 4196 0e7c 22       		.uleb128 0x22
 4197 0e7d 34040000 		.4byte	.LASF30
 4198 0e81 01       		.byte	0x1
 4199 0e82 9E01     		.2byte	0x19e
 4200 0e84 9C000000 		.4byte	0x9c
 4201 0e88 610F0000 		.4byte	.LLST60
 4202 0e8c 23       		.uleb128 0x23
 4203 0e8d 85010000 		.4byte	.LASF15
 4204 0e91 01       		.byte	0x1
 4205 0e92 9E01     		.2byte	0x19e
 4206 0e94 C30E0000 		.4byte	0xec3
 4207 0e98 01       		.uleb128 0x1
 4208 0e99 51       		.byte	0x51
 4209 0e9a 24       		.uleb128 0x24
 4210 0e9b 5F040000 		.4byte	.LASF23
 4211 0e9f 01       		.byte	0x1
 4212 0ea0 A001     		.2byte	0x1a0
 4213 0ea2 37000000 		.4byte	0x37
 4214 0ea6 B40F0000 		.4byte	.LLST61
 4215 0eaa 1E       		.uleb128 0x1e
 4216 0eab 08000000 		.4byte	.LBB37
 4217 0eaf 08000000 		.4byte	.LBE37-.LBB37
 4218 0eb3 25       		.uleb128 0x25
 4219 0eb4 6200     		.ascii	"b\000"
 4220 0eb6 01       		.byte	0x1
 4221 0eb7 A801     		.2byte	0x1a8
 4222 0eb9 09020000 		.4byte	0x209
 4223 0ebd D30F0000 		.4byte	.LLST62
 4224 0ec1 00       		.byte	0
 4225 0ec2 00       		.byte	0
ARM GAS  C:\Users\Phuong\AppData\Local\Temp\ccVRtur0.s 			page 89


 4226 0ec3 05       		.uleb128 0x5
 4227 0ec4 04       		.byte	0x4
 4228 0ec5 25000000 		.4byte	0x25
 4229 0ec9 21       		.uleb128 0x21
 4230 0eca AB000000 		.4byte	.LASF46
 4231 0ece 01       		.byte	0x1
 4232 0ecf B001     		.2byte	0x1b0
 4233 0ed1 37000000 		.4byte	0x37
 4234 0ed5 00000000 		.4byte	.LFB13
 4235 0ed9 AC000000 		.4byte	.LFE13-.LFB13
 4236 0edd 01       		.uleb128 0x1
 4237 0ede 9C       		.byte	0x9c
 4238 0edf CB0F0000 		.4byte	0xfcb
 4239 0ee3 22       		.uleb128 0x22
 4240 0ee4 4B010000 		.4byte	.LASF47
 4241 0ee8 01       		.byte	0x1
 4242 0ee9 B001     		.2byte	0x1b0
 4243 0eeb 9C000000 		.4byte	0x9c
 4244 0eef F40F0000 		.4byte	.LLST63
 4245 0ef3 22       		.uleb128 0x22
 4246 0ef4 53010000 		.4byte	.LASF48
 4247 0ef8 01       		.byte	0x1
 4248 0ef9 B001     		.2byte	0x1b0
 4249 0efb 9C000000 		.4byte	0x9c
 4250 0eff 7B100000 		.4byte	.LLST64
 4251 0f03 24       		.uleb128 0x24
 4252 0f04 5F040000 		.4byte	.LASF23
 4253 0f08 01       		.byte	0x1
 4254 0f09 B201     		.2byte	0x1b2
 4255 0f0b 37000000 		.4byte	0x37
 4256 0f0f BD100000 		.4byte	.LLST65
 4257 0f13 11       		.uleb128 0x11
 4258 0f14 0E030000 		.4byte	.LASF29
 4259 0f18 CB0F0000 		.4byte	0xfcb
 4260 0f1c 05       		.uleb128 0x5
 4261 0f1d 03       		.byte	0x3
 4262 0f1e 8C000000 		.4byte	__func__.6031
 4263 0f22 1F       		.uleb128 0x1f
 4264 0f23 A8000000 		.4byte	.Ldebug_ranges0+0xa8
 4265 0f27 25       		.uleb128 0x25
 4266 0f28 623100   		.ascii	"b1\000"
 4267 0f2b 01       		.byte	0x1
 4268 0f2c BA01     		.2byte	0x1ba
 4269 0f2e 09020000 		.4byte	0x209
 4270 0f32 DC100000 		.4byte	.LLST66
 4271 0f36 25       		.uleb128 0x25
 4272 0f37 623200   		.ascii	"b2\000"
 4273 0f3a 01       		.byte	0x1
 4274 0f3b BB01     		.2byte	0x1bb
 4275 0f3d 09020000 		.4byte	0x209
 4276 0f41 2C110000 		.4byte	.LLST67
 4277 0f45 1F       		.uleb128 0x1f
 4278 0f46 C0000000 		.4byte	.Ldebug_ranges0+0xc0
 4279 0f4a 24       		.uleb128 0x24
 4280 0f4b D0000000 		.4byte	.LASF25
 4281 0f4f 01       		.byte	0x1
 4282 0f50 D001     		.2byte	0x1d0
ARM GAS  C:\Users\Phuong\AppData\Local\Temp\ccVRtur0.s 			page 90


 4283 0f52 8B000000 		.4byte	0x8b
 4284 0f56 60110000 		.4byte	.LLST68
 4285 0f5a 12       		.uleb128 0x12
 4286 0f5b 34000000 		.4byte	.LBB40
 4287 0f5f 1E000000 		.4byte	.LBE40-.LBB40
 4288 0f63 B60F0000 		.4byte	0xfb6
 4289 0f67 25       		.uleb128 0x25
 4290 0f68 6C00     		.ascii	"l\000"
 4291 0f6a 01       		.byte	0x1
 4292 0f6b D401     		.2byte	0x1d4
 4293 0f6d 00010000 		.4byte	0x100
 4294 0f71 8A110000 		.4byte	.LLST69
 4295 0f75 14       		.uleb128 0x14
 4296 0f76 38000000 		.4byte	.LVL242
 4297 0f7a 96130000 		.4byte	0x1396
 4298 0f7e 15       		.uleb128 0x15
 4299 0f7f 52000000 		.4byte	.LVL245
 4300 0f83 02       		.uleb128 0x2
 4301 0f84 74       		.byte	0x74
 4302 0f85 00       		.sleb128 0
 4303 0f86 16       		.uleb128 0x16
 4304 0f87 01       		.uleb128 0x1
 4305 0f88 50       		.byte	0x50
 4306 0f89 01       		.uleb128 0x1
 4307 0f8a 30       		.byte	0x30
 4308 0f8b 16       		.uleb128 0x16
 4309 0f8c 01       		.uleb128 0x1
 4310 0f8d 51       		.byte	0x51
 4311 0f8e 05       		.uleb128 0x5
 4312 0f8f 03       		.byte	0x3
 4313 0f90 00000000 		.4byte	.LC1
 4314 0f94 16       		.uleb128 0x16
 4315 0f95 01       		.uleb128 0x1
 4316 0f96 52       		.byte	0x52
 4317 0f97 05       		.uleb128 0x5
 4318 0f98 03       		.byte	0x3
 4319 0f99 8C000000 		.4byte	.LANCHOR1+12
 4320 0f9d 16       		.uleb128 0x16
 4321 0f9e 01       		.uleb128 0x1
 4322 0f9f 53       		.byte	0x53
 4323 0fa0 03       		.uleb128 0x3
 4324 0fa1 0A       		.byte	0xa
 4325 0fa2 D401     		.2byte	0x1d4
 4326 0fa4 16       		.uleb128 0x16
 4327 0fa5 02       		.uleb128 0x2
 4328 0fa6 7D       		.byte	0x7d
 4329 0fa7 00       		.sleb128 0
 4330 0fa8 01       		.uleb128 0x1
 4331 0fa9 31       		.byte	0x31
 4332 0faa 16       		.uleb128 0x16
 4333 0fab 02       		.uleb128 0x2
 4334 0fac 7D       		.byte	0x7d
 4335 0fad 04       		.sleb128 4
 4336 0fae 05       		.uleb128 0x5
 4337 0faf 03       		.byte	0x3
 4338 0fb0 D0010000 		.4byte	.LC40
 4339 0fb4 00       		.byte	0
ARM GAS  C:\Users\Phuong\AppData\Local\Temp\ccVRtur0.s 			page 91


 4340 0fb5 00       		.byte	0
 4341 0fb6 14       		.uleb128 0x14
 4342 0fb7 30000000 		.4byte	.LVL241
 4343 0fbb C0130000 		.4byte	0x13c0
 4344 0fbf 14       		.uleb128 0x14
 4345 0fc0 68000000 		.4byte	.LVL248
 4346 0fc4 B7130000 		.4byte	0x13b7
 4347 0fc8 00       		.byte	0
 4348 0fc9 00       		.byte	0
 4349 0fca 00       		.byte	0
 4350 0fcb 06       		.uleb128 0x6
 4351 0fcc 21040000 		.4byte	0x421
 4352 0fd0 21       		.uleb128 0x21
 4353 0fd1 D8020000 		.4byte	.LASF49
 4354 0fd5 01       		.byte	0x1
 4355 0fd6 E601     		.2byte	0x1e6
 4356 0fd8 37000000 		.4byte	0x37
 4357 0fdc 00000000 		.4byte	.LFB14
 4358 0fe0 C8000000 		.4byte	.LFE14-.LFB14
 4359 0fe4 01       		.uleb128 0x1
 4360 0fe5 9C       		.byte	0x9c
 4361 0fe6 F5100000 		.4byte	0x10f5
 4362 0fea 22       		.uleb128 0x22
 4363 0feb 4B010000 		.4byte	.LASF47
 4364 0fef 01       		.byte	0x1
 4365 0ff0 E601     		.2byte	0x1e6
 4366 0ff2 9C000000 		.4byte	0x9c
 4367 0ff6 BE110000 		.4byte	.LLST70
 4368 0ffa 22       		.uleb128 0x22
 4369 0ffb 53010000 		.4byte	.LASF48
 4370 0fff 01       		.byte	0x1
 4371 1000 E601     		.2byte	0x1e6
 4372 1002 9C000000 		.4byte	0x9c
 4373 1006 87120000 		.4byte	.LLST71
 4374 100a 24       		.uleb128 0x24
 4375 100b 5F040000 		.4byte	.LASF23
 4376 100f 01       		.byte	0x1
 4377 1010 E801     		.2byte	0x1e8
 4378 1012 37000000 		.4byte	0x37
 4379 1016 C9120000 		.4byte	.LLST72
 4380 101a 11       		.uleb128 0x11
 4381 101b 0E030000 		.4byte	.LASF29
 4382 101f F5100000 		.4byte	0x10f5
 4383 1023 05       		.uleb128 0x5
 4384 1024 03       		.byte	0x3
 4385 1025 9C000000 		.4byte	__func__.6043
 4386 1029 1F       		.uleb128 0x1f
 4387 102a D8000000 		.4byte	.Ldebug_ranges0+0xd8
 4388 102e 25       		.uleb128 0x25
 4389 102f 623100   		.ascii	"b1\000"
 4390 1032 01       		.byte	0x1
 4391 1033 F001     		.2byte	0x1f0
 4392 1035 09020000 		.4byte	0x209
 4393 1039 E8120000 		.4byte	.LLST73
 4394 103d 25       		.uleb128 0x25
 4395 103e 623200   		.ascii	"b2\000"
 4396 1041 01       		.byte	0x1
ARM GAS  C:\Users\Phuong\AppData\Local\Temp\ccVRtur0.s 			page 92


 4397 1042 F101     		.2byte	0x1f1
 4398 1044 09020000 		.4byte	0x209
 4399 1048 6F130000 		.4byte	.LLST74
 4400 104c 1F       		.uleb128 0x1f
 4401 104d F0000000 		.4byte	.Ldebug_ranges0+0xf0
 4402 1051 24       		.uleb128 0x24
 4403 1052 D0000000 		.4byte	.LASF25
 4404 1056 01       		.byte	0x1
 4405 1057 0702     		.2byte	0x207
 4406 1059 8B000000 		.4byte	0x8b
 4407 105d A3130000 		.4byte	.LLST75
 4408 1061 12       		.uleb128 0x12
 4409 1062 38000000 		.4byte	.LBB45
 4410 1066 1C000000 		.4byte	.LBE45-.LBB45
 4411 106a BD100000 		.4byte	0x10bd
 4412 106e 25       		.uleb128 0x25
 4413 106f 6C00     		.ascii	"l\000"
 4414 1071 01       		.byte	0x1
 4415 1072 0B02     		.2byte	0x20b
 4416 1074 00010000 		.4byte	0x100
 4417 1078 E2130000 		.4byte	.LLST76
 4418 107c 14       		.uleb128 0x14
 4419 107d 3C000000 		.4byte	.LVL267
 4420 1081 96130000 		.4byte	0x1396
 4421 1085 15       		.uleb128 0x15
 4422 1086 54000000 		.4byte	.LVL270
 4423 108a 02       		.uleb128 0x2
 4424 108b 74       		.byte	0x74
 4425 108c 00       		.sleb128 0
 4426 108d 16       		.uleb128 0x16
 4427 108e 01       		.uleb128 0x1
 4428 108f 50       		.byte	0x50
 4429 1090 01       		.uleb128 0x1
 4430 1091 30       		.byte	0x30
 4431 1092 16       		.uleb128 0x16
 4432 1093 01       		.uleb128 0x1
 4433 1094 51       		.byte	0x51
 4434 1095 05       		.uleb128 0x5
 4435 1096 03       		.byte	0x3
 4436 1097 00000000 		.4byte	.LC1
 4437 109b 16       		.uleb128 0x16
 4438 109c 01       		.uleb128 0x1
 4439 109d 52       		.byte	0x52
 4440 109e 05       		.uleb128 0x5
 4441 109f 03       		.byte	0x3
 4442 10a0 9C000000 		.4byte	.LANCHOR1+28
 4443 10a4 16       		.uleb128 0x16
 4444 10a5 01       		.uleb128 0x1
 4445 10a6 53       		.byte	0x53
 4446 10a7 03       		.uleb128 0x3
 4447 10a8 0A       		.byte	0xa
 4448 10a9 0B02     		.2byte	0x20b
 4449 10ab 16       		.uleb128 0x16
 4450 10ac 02       		.uleb128 0x2
 4451 10ad 7D       		.byte	0x7d
 4452 10ae 00       		.sleb128 0
 4453 10af 01       		.uleb128 0x1
ARM GAS  C:\Users\Phuong\AppData\Local\Temp\ccVRtur0.s 			page 93


 4454 10b0 31       		.byte	0x31
 4455 10b1 16       		.uleb128 0x16
 4456 10b2 02       		.uleb128 0x2
 4457 10b3 7D       		.byte	0x7d
 4458 10b4 04       		.sleb128 4
 4459 10b5 05       		.uleb128 0x5
 4460 10b6 03       		.byte	0x3
 4461 10b7 D0010000 		.4byte	.LC40
 4462 10bb 00       		.byte	0
 4463 10bc 00       		.byte	0
 4464 10bd 14       		.uleb128 0x14
 4465 10be 32000000 		.4byte	.LVL265
 4466 10c2 A1130000 		.4byte	0x13a1
 4467 10c6 1C       		.uleb128 0x1c
 4468 10c7 62000000 		.4byte	.LVL272
 4469 10cb B7130000 		.4byte	0x13b7
 4470 10cf E0100000 		.4byte	0x10e0
 4471 10d3 16       		.uleb128 0x16
 4472 10d4 01       		.uleb128 0x1
 4473 10d5 51       		.byte	0x51
 4474 10d6 02       		.uleb128 0x2
 4475 10d7 76       		.byte	0x76
 4476 10d8 00       		.sleb128 0
 4477 10d9 16       		.uleb128 0x16
 4478 10da 01       		.uleb128 0x1
 4479 10db 52       		.byte	0x52
 4480 10dc 02       		.uleb128 0x2
 4481 10dd 77       		.byte	0x77
 4482 10de 00       		.sleb128 0
 4483 10df 00       		.byte	0
 4484 10e0 14       		.uleb128 0x14
 4485 10e1 70000000 		.4byte	.LVL273
 4486 10e5 B7130000 		.4byte	0x13b7
 4487 10e9 14       		.uleb128 0x14
 4488 10ea 76000000 		.4byte	.LVL274
 4489 10ee AC130000 		.4byte	0x13ac
 4490 10f2 00       		.byte	0
 4491 10f3 00       		.byte	0
 4492 10f4 00       		.byte	0
 4493 10f5 06       		.uleb128 0x6
 4494 10f6 400A0000 		.4byte	0xa40
 4495 10fa 21       		.uleb128 0x21
 4496 10fb AE010000 		.4byte	.LASF50
 4497 10ff 01       		.byte	0x1
 4498 1100 2002     		.2byte	0x220
 4499 1102 37000000 		.4byte	0x37
 4500 1106 00000000 		.4byte	.LFB15
 4501 110a 58000000 		.4byte	.LFE15-.LFB15
 4502 110e 01       		.uleb128 0x1
 4503 110f 9C       		.byte	0x9c
 4504 1110 D0110000 		.4byte	0x11d0
 4505 1114 22       		.uleb128 0x22
 4506 1115 34040000 		.4byte	.LASF30
 4507 1119 01       		.byte	0x1
 4508 111a 2002     		.2byte	0x220
 4509 111c 9C000000 		.4byte	0x9c
 4510 1120 16140000 		.4byte	.LLST77
ARM GAS  C:\Users\Phuong\AppData\Local\Temp\ccVRtur0.s 			page 94


 4511 1124 22       		.uleb128 0x22
 4512 1125 9D010000 		.4byte	.LASF51
 4513 1129 01       		.byte	0x1
 4514 112a 2002     		.2byte	0x220
 4515 112c 53000000 		.4byte	0x53
 4516 1130 50140000 		.4byte	.LLST78
 4517 1134 26       		.uleb128 0x26
 4518 1135 5F040000 		.4byte	.LASF23
 4519 1139 01       		.byte	0x1
 4520 113a 2202     		.2byte	0x222
 4521 113c 37000000 		.4byte	0x37
 4522 1140 01       		.uleb128 0x1
 4523 1141 50       		.byte	0x50
 4524 1142 11       		.uleb128 0x11
 4525 1143 0E030000 		.4byte	.LASF29
 4526 1147 E0110000 		.4byte	0x11e0
 4527 114b 05       		.uleb128 0x5
 4528 114c 03       		.byte	0x3
 4529 114d AC000000 		.4byte	__func__.6052
 4530 1151 12       		.uleb128 0x12
 4531 1152 08000000 		.4byte	.LBB48
 4532 1156 1C000000 		.4byte	.LBE48-.LBB48
 4533 115a AD110000 		.4byte	0x11ad
 4534 115e 25       		.uleb128 0x25
 4535 115f 6C00     		.ascii	"l\000"
 4536 1161 01       		.byte	0x1
 4537 1162 2602     		.2byte	0x226
 4538 1164 00010000 		.4byte	0x100
 4539 1168 8A140000 		.4byte	.LLST79
 4540 116c 14       		.uleb128 0x14
 4541 116d 0C000000 		.4byte	.LVL293
 4542 1171 96130000 		.4byte	0x1396
 4543 1175 15       		.uleb128 0x15
 4544 1176 24000000 		.4byte	.LVL296
 4545 117a 02       		.uleb128 0x2
 4546 117b 74       		.byte	0x74
 4547 117c 00       		.sleb128 0
 4548 117d 16       		.uleb128 0x16
 4549 117e 01       		.uleb128 0x1
 4550 117f 50       		.byte	0x50
 4551 1180 01       		.uleb128 0x1
 4552 1181 30       		.byte	0x30
 4553 1182 16       		.uleb128 0x16
 4554 1183 01       		.uleb128 0x1
 4555 1184 51       		.byte	0x51
 4556 1185 05       		.uleb128 0x5
 4557 1186 03       		.byte	0x3
 4558 1187 00000000 		.4byte	.LC1
 4559 118b 16       		.uleb128 0x16
 4560 118c 01       		.uleb128 0x1
 4561 118d 52       		.byte	0x52
 4562 118e 05       		.uleb128 0x5
 4563 118f 03       		.byte	0x3
 4564 1190 AC000000 		.4byte	.LANCHOR1+44
 4565 1194 16       		.uleb128 0x16
 4566 1195 01       		.uleb128 0x1
 4567 1196 53       		.byte	0x53
ARM GAS  C:\Users\Phuong\AppData\Local\Temp\ccVRtur0.s 			page 95


 4568 1197 03       		.uleb128 0x3
 4569 1198 0A       		.byte	0xa
 4570 1199 2602     		.2byte	0x226
 4571 119b 16       		.uleb128 0x16
 4572 119c 02       		.uleb128 0x2
 4573 119d 7D       		.byte	0x7d
 4574 119e 00       		.sleb128 0
 4575 119f 01       		.uleb128 0x1
 4576 11a0 31       		.byte	0x31
 4577 11a1 16       		.uleb128 0x16
 4578 11a2 02       		.uleb128 0x2
 4579 11a3 7D       		.byte	0x7d
 4580 11a4 04       		.sleb128 4
 4581 11a5 05       		.uleb128 0x5
 4582 11a6 03       		.byte	0x3
 4583 11a7 48020000 		.4byte	.LC58
 4584 11ab 00       		.byte	0
 4585 11ac 00       		.byte	0
 4586 11ad 1F       		.uleb128 0x1f
 4587 11ae 08010000 		.4byte	.Ldebug_ranges0+0x108
 4588 11b2 24       		.uleb128 0x24
 4589 11b3 CE030000 		.4byte	.LASF52
 4590 11b7 01       		.byte	0x1
 4591 11b8 2B02     		.2byte	0x22b
 4592 11ba 25000000 		.4byte	0x25
 4593 11be B3140000 		.4byte	.LLST80
 4594 11c2 27       		.uleb128 0x27
 4595 11c3 C4000000 		.4byte	.LASF53
 4596 11c7 01       		.byte	0x1
 4597 11c8 2D02     		.2byte	0x22d
 4598 11ca 09020000 		.4byte	0x209
 4599 11ce 00       		.byte	0
 4600 11cf 00       		.byte	0
 4601 11d0 17       		.uleb128 0x17
 4602 11d1 97000000 		.4byte	0x97
 4603 11d5 E0110000 		.4byte	0x11e0
 4604 11d9 18       		.uleb128 0x18
 4605 11da 7D000000 		.4byte	0x7d
 4606 11de 0B       		.byte	0xb
 4607 11df 00       		.byte	0
 4608 11e0 06       		.uleb128 0x6
 4609 11e1 D0110000 		.4byte	0x11d0
 4610 11e5 21       		.uleb128 0x21
 4611 11e6 26040000 		.4byte	.LASF54
 4612 11ea 01       		.byte	0x1
 4613 11eb 3902     		.2byte	0x239
 4614 11ed 8B000000 		.4byte	0x8b
 4615 11f1 00000000 		.4byte	.LFB16
 4616 11f5 16000000 		.4byte	.LFE16-.LFB16
 4617 11f9 01       		.uleb128 0x1
 4618 11fa 9C       		.byte	0x9c
 4619 11fb 30120000 		.4byte	0x1230
 4620 11ff 22       		.uleb128 0x22
 4621 1200 34040000 		.4byte	.LASF30
 4622 1204 01       		.byte	0x1
 4623 1205 3902     		.2byte	0x239
 4624 1207 9C000000 		.4byte	0x9c
ARM GAS  C:\Users\Phuong\AppData\Local\Temp\ccVRtur0.s 			page 96


 4625 120b D1140000 		.4byte	.LLST81
 4626 120f 24       		.uleb128 0x24
 4627 1210 3B040000 		.4byte	.LASF55
 4628 1214 01       		.byte	0x1
 4629 1215 3B02     		.2byte	0x23b
 4630 1217 09020000 		.4byte	0x209
 4631 121b 24150000 		.4byte	.LLST82
 4632 121f 24       		.uleb128 0x24
 4633 1220 5F040000 		.4byte	.LASF23
 4634 1224 01       		.byte	0x1
 4635 1225 3C02     		.2byte	0x23c
 4636 1227 8B000000 		.4byte	0x8b
 4637 122b 77150000 		.4byte	.LLST83
 4638 122f 00       		.byte	0
 4639 1230 21       		.uleb128 0x21
 4640 1231 83000000 		.4byte	.LASF56
 4641 1235 01       		.byte	0x1
 4642 1236 4B02     		.2byte	0x24b
 4643 1238 25000000 		.4byte	0x25
 4644 123c 00000000 		.4byte	.LFB17
 4645 1240 0C000000 		.4byte	.LFE17-.LFB17
 4646 1244 01       		.uleb128 0x1
 4647 1245 9C       		.byte	0x9c
 4648 1246 83120000 		.4byte	0x1283
 4649 124a 22       		.uleb128 0x22
 4650 124b 34040000 		.4byte	.LASF30
 4651 124f 01       		.byte	0x1
 4652 1250 4B02     		.2byte	0x24b
 4653 1252 9C000000 		.4byte	0x9c
 4654 1256 95150000 		.4byte	.LLST84
 4655 125a 24       		.uleb128 0x24
 4656 125b 5F040000 		.4byte	.LASF23
 4657 125f 01       		.byte	0x1
 4658 1260 4D02     		.2byte	0x24d
 4659 1262 25000000 		.4byte	0x25
 4660 1266 CF150000 		.4byte	.LLST85
 4661 126a 1E       		.uleb128 0x1e
 4662 126b 04000000 		.4byte	.LBB51
 4663 126f 04000000 		.4byte	.LBE51-.LBB51
 4664 1273 25       		.uleb128 0x25
 4665 1274 6200     		.ascii	"b\000"
 4666 1276 01       		.byte	0x1
 4667 1277 5502     		.2byte	0x255
 4668 1279 09020000 		.4byte	0x209
 4669 127d ED150000 		.4byte	.LLST86
 4670 1281 00       		.byte	0
 4671 1282 00       		.byte	0
 4672 1283 21       		.uleb128 0x21
 4673 1284 E2030000 		.4byte	.LASF57
 4674 1288 01       		.byte	0x1
 4675 1289 5B02     		.2byte	0x25b
 4676 128b 9C000000 		.4byte	0x9c
 4677 128f 00000000 		.4byte	.LFB18
 4678 1293 70000000 		.4byte	.LFE18-.LFB18
 4679 1297 01       		.uleb128 0x1
 4680 1298 9C       		.byte	0x9c
 4681 1299 91130000 		.4byte	0x1391
ARM GAS  C:\Users\Phuong\AppData\Local\Temp\ccVRtur0.s 			page 97


 4682 129d 22       		.uleb128 0x22
 4683 129e 34040000 		.4byte	.LASF30
 4684 12a2 01       		.byte	0x1
 4685 12a3 5B02     		.2byte	0x25b
 4686 12a5 9C000000 		.4byte	0x9c
 4687 12a9 0E160000 		.4byte	.LLST87
 4688 12ad 24       		.uleb128 0x24
 4689 12ae 5F040000 		.4byte	.LASF23
 4690 12b2 01       		.byte	0x1
 4691 12b3 5D02     		.2byte	0x25d
 4692 12b5 9C000000 		.4byte	0x9c
 4693 12b9 50160000 		.4byte	.LLST88
 4694 12bd 11       		.uleb128 0x11
 4695 12be 0E030000 		.4byte	.LASF29
 4696 12c2 91130000 		.4byte	0x1391
 4697 12c6 05       		.uleb128 0x5
 4698 12c7 03       		.byte	0x3
 4699 12c8 B8000000 		.4byte	__func__.6077
 4700 12cc 1F       		.uleb128 0x1f
 4701 12cd 20010000 		.4byte	.Ldebug_ranges0+0x120
 4702 12d1 24       		.uleb128 0x24
 4703 12d2 AA020000 		.4byte	.LASF58
 4704 12d6 01       		.byte	0x1
 4705 12d7 6402     		.2byte	0x264
 4706 12d9 09020000 		.4byte	0x209
 4707 12dd 79160000 		.4byte	.LLST89
 4708 12e1 25       		.uleb128 0x25
 4709 12e2 6200     		.ascii	"b\000"
 4710 12e4 01       		.byte	0x1
 4711 12e5 6502     		.2byte	0x265
 4712 12e7 09020000 		.4byte	0x209
 4713 12eb A2160000 		.4byte	.LLST90
 4714 12ef 12       		.uleb128 0x12
 4715 12f0 22000000 		.4byte	.LBB53
 4716 12f4 1C000000 		.4byte	.LBE53-.LBB53
 4717 12f8 4B130000 		.4byte	0x134b
 4718 12fc 25       		.uleb128 0x25
 4719 12fd 6C00     		.ascii	"l\000"
 4720 12ff 01       		.byte	0x1
 4721 1300 6B02     		.2byte	0x26b
 4722 1302 00010000 		.4byte	0x100
 4723 1306 CB160000 		.4byte	.LLST91
 4724 130a 14       		.uleb128 0x14
 4725 130b 26000000 		.4byte	.LVL322
 4726 130f 96130000 		.4byte	0x1396
 4727 1313 15       		.uleb128 0x15
 4728 1314 3E000000 		.4byte	.LVL325
 4729 1318 02       		.uleb128 0x2
 4730 1319 74       		.byte	0x74
 4731 131a 00       		.sleb128 0
 4732 131b 16       		.uleb128 0x16
 4733 131c 01       		.uleb128 0x1
 4734 131d 50       		.byte	0x50
 4735 131e 01       		.uleb128 0x1
 4736 131f 30       		.byte	0x30
 4737 1320 16       		.uleb128 0x16
 4738 1321 01       		.uleb128 0x1
ARM GAS  C:\Users\Phuong\AppData\Local\Temp\ccVRtur0.s 			page 98


 4739 1322 51       		.byte	0x51
 4740 1323 05       		.uleb128 0x5
 4741 1324 03       		.byte	0x3
 4742 1325 00000000 		.4byte	.LC1
 4743 1329 16       		.uleb128 0x16
 4744 132a 01       		.uleb128 0x1
 4745 132b 52       		.byte	0x52
 4746 132c 05       		.uleb128 0x5
 4747 132d 03       		.byte	0x3
 4748 132e B8000000 		.4byte	.LANCHOR1+56
 4749 1332 16       		.uleb128 0x16
 4750 1333 01       		.uleb128 0x1
 4751 1334 53       		.byte	0x53
 4752 1335 03       		.uleb128 0x3
 4753 1336 0A       		.byte	0xa
 4754 1337 6B02     		.2byte	0x26b
 4755 1339 16       		.uleb128 0x16
 4756 133a 02       		.uleb128 0x2
 4757 133b 7D       		.byte	0x7d
 4758 133c 00       		.sleb128 0
 4759 133d 01       		.uleb128 0x1
 4760 133e 31       		.byte	0x31
 4761 133f 16       		.uleb128 0x16
 4762 1340 02       		.uleb128 0x2
 4763 1341 7D       		.byte	0x7d
 4764 1342 04       		.sleb128 4
 4765 1343 05       		.uleb128 0x5
 4766 1344 03       		.byte	0x3
 4767 1345 D0010000 		.4byte	.LC40
 4768 1349 00       		.byte	0
 4769 134a 00       		.byte	0
 4770 134b 1C       		.uleb128 0x1c
 4771 134c 0E000000 		.4byte	.LVL318
 4772 1350 A1130000 		.4byte	0x13a1
 4773 1354 5E130000 		.4byte	0x135e
 4774 1358 16       		.uleb128 0x16
 4775 1359 01       		.uleb128 0x1
 4776 135a 50       		.byte	0x50
 4777 135b 01       		.uleb128 0x1
 4778 135c 38       		.byte	0x38
 4779 135d 00       		.byte	0
 4780 135e 1C       		.uleb128 0x1c
 4781 135f 18000000 		.4byte	.LVL320
 4782 1363 41010000 		.4byte	0x141
 4783 1367 72130000 		.4byte	0x1372
 4784 136b 16       		.uleb128 0x16
 4785 136c 01       		.uleb128 0x1
 4786 136d 50       		.byte	0x50
 4787 136e 02       		.uleb128 0x2
 4788 136f 74       		.byte	0x74
 4789 1370 00       		.sleb128 0
 4790 1371 00       		.byte	0
 4791 1372 1C       		.uleb128 0x1c
 4792 1373 22000000 		.4byte	.LVL321
 4793 1377 AC130000 		.4byte	0x13ac
 4794 137b 86130000 		.4byte	0x1386
 4795 137f 16       		.uleb128 0x16
ARM GAS  C:\Users\Phuong\AppData\Local\Temp\ccVRtur0.s 			page 99


 4796 1380 01       		.uleb128 0x1
 4797 1381 50       		.byte	0x50
 4798 1382 02       		.uleb128 0x2
 4799 1383 74       		.byte	0x74
 4800 1384 00       		.sleb128 0
 4801 1385 00       		.byte	0
 4802 1386 14       		.uleb128 0x14
 4803 1387 4C000000 		.4byte	.LVL328
 4804 138b B7130000 		.4byte	0x13b7
 4805 138f 00       		.byte	0
 4806 1390 00       		.byte	0
 4807 1391 06       		.uleb128 0x6
 4808 1392 BA050000 		.4byte	0x5ba
 4809 1396 28       		.uleb128 0x28
 4810 1397 0C040000 		.4byte	.LASF59
 4811 139b 0C040000 		.4byte	.LASF59
 4812 139f 04       		.byte	0x4
 4813 13a0 9D       		.byte	0x9d
 4814 13a1 28       		.uleb128 0x28
 4815 13a2 0A000000 		.4byte	.LASF60
 4816 13a6 0A000000 		.4byte	.LASF60
 4817 13aa 05       		.byte	0x5
 4818 13ab 64       		.byte	0x64
 4819 13ac 28       		.uleb128 0x28
 4820 13ad 63000000 		.4byte	.LASF61
 4821 13b1 63000000 		.4byte	.LASF61
 4822 13b5 05       		.byte	0x5
 4823 13b6 59       		.byte	0x59
 4824 13b7 29       		.uleb128 0x29
 4825 13b8 EC000000 		.4byte	.LASF70
 4826 13bc EC000000 		.4byte	.LASF70
 4827 13c0 28       		.uleb128 0x28
 4828 13c1 46040000 		.4byte	.LASF62
 4829 13c5 46040000 		.4byte	.LASF62
 4830 13c9 05       		.byte	0x5
 4831 13ca 89       		.byte	0x89
 4832 13cb 00       		.byte	0
 4833              		.section	.debug_abbrev,"",%progbits
 4834              	.Ldebug_abbrev0:
 4835 0000 01       		.uleb128 0x1
 4836 0001 11       		.uleb128 0x11
 4837 0002 01       		.byte	0x1
 4838 0003 25       		.uleb128 0x25
 4839 0004 0E       		.uleb128 0xe
 4840 0005 13       		.uleb128 0x13
 4841 0006 0B       		.uleb128 0xb
 4842 0007 03       		.uleb128 0x3
 4843 0008 0E       		.uleb128 0xe
 4844 0009 1B       		.uleb128 0x1b
 4845 000a 0E       		.uleb128 0xe
 4846 000b 55       		.uleb128 0x55
 4847 000c 17       		.uleb128 0x17
 4848 000d 11       		.uleb128 0x11
 4849 000e 01       		.uleb128 0x1
 4850 000f 10       		.uleb128 0x10
 4851 0010 17       		.uleb128 0x17
 4852 0011 00       		.byte	0
ARM GAS  C:\Users\Phuong\AppData\Local\Temp\ccVRtur0.s 			page 100


 4853 0012 00       		.byte	0
 4854 0013 02       		.uleb128 0x2
 4855 0014 16       		.uleb128 0x16
 4856 0015 00       		.byte	0
 4857 0016 03       		.uleb128 0x3
 4858 0017 0E       		.uleb128 0xe
 4859 0018 3A       		.uleb128 0x3a
 4860 0019 0B       		.uleb128 0xb
 4861 001a 3B       		.uleb128 0x3b
 4862 001b 0B       		.uleb128 0xb
 4863 001c 49       		.uleb128 0x49
 4864 001d 13       		.uleb128 0x13
 4865 001e 00       		.byte	0
 4866 001f 00       		.byte	0
 4867 0020 03       		.uleb128 0x3
 4868 0021 24       		.uleb128 0x24
 4869 0022 00       		.byte	0
 4870 0023 0B       		.uleb128 0xb
 4871 0024 0B       		.uleb128 0xb
 4872 0025 3E       		.uleb128 0x3e
 4873 0026 0B       		.uleb128 0xb
 4874 0027 03       		.uleb128 0x3
 4875 0028 0E       		.uleb128 0xe
 4876 0029 00       		.byte	0
 4877 002a 00       		.byte	0
 4878 002b 04       		.uleb128 0x4
 4879 002c 24       		.uleb128 0x24
 4880 002d 00       		.byte	0
 4881 002e 0B       		.uleb128 0xb
 4882 002f 0B       		.uleb128 0xb
 4883 0030 3E       		.uleb128 0x3e
 4884 0031 0B       		.uleb128 0xb
 4885 0032 03       		.uleb128 0x3
 4886 0033 08       		.uleb128 0x8
 4887 0034 00       		.byte	0
 4888 0035 00       		.byte	0
 4889 0036 05       		.uleb128 0x5
 4890 0037 0F       		.uleb128 0xf
 4891 0038 00       		.byte	0
 4892 0039 0B       		.uleb128 0xb
 4893 003a 0B       		.uleb128 0xb
 4894 003b 49       		.uleb128 0x49
 4895 003c 13       		.uleb128 0x13
 4896 003d 00       		.byte	0
 4897 003e 00       		.byte	0
 4898 003f 06       		.uleb128 0x6
 4899 0040 26       		.uleb128 0x26
 4900 0041 00       		.byte	0
 4901 0042 49       		.uleb128 0x49
 4902 0043 13       		.uleb128 0x13
 4903 0044 00       		.byte	0
 4904 0045 00       		.byte	0
 4905 0046 07       		.uleb128 0x7
 4906 0047 13       		.uleb128 0x13
 4907 0048 01       		.byte	0x1
 4908 0049 03       		.uleb128 0x3
 4909 004a 0E       		.uleb128 0xe
ARM GAS  C:\Users\Phuong\AppData\Local\Temp\ccVRtur0.s 			page 101


 4910 004b 0B       		.uleb128 0xb
 4911 004c 0B       		.uleb128 0xb
 4912 004d 3A       		.uleb128 0x3a
 4913 004e 0B       		.uleb128 0xb
 4914 004f 3B       		.uleb128 0x3b
 4915 0050 0B       		.uleb128 0xb
 4916 0051 01       		.uleb128 0x1
 4917 0052 13       		.uleb128 0x13
 4918 0053 00       		.byte	0
 4919 0054 00       		.byte	0
 4920 0055 08       		.uleb128 0x8
 4921 0056 0D       		.uleb128 0xd
 4922 0057 00       		.byte	0
 4923 0058 03       		.uleb128 0x3
 4924 0059 0E       		.uleb128 0xe
 4925 005a 3A       		.uleb128 0x3a
 4926 005b 0B       		.uleb128 0xb
 4927 005c 3B       		.uleb128 0x3b
 4928 005d 0B       		.uleb128 0xb
 4929 005e 49       		.uleb128 0x49
 4930 005f 13       		.uleb128 0x13
 4931 0060 38       		.uleb128 0x38
 4932 0061 0B       		.uleb128 0xb
 4933 0062 00       		.byte	0
 4934 0063 00       		.byte	0
 4935 0064 09       		.uleb128 0x9
 4936 0065 04       		.uleb128 0x4
 4937 0066 01       		.byte	0x1
 4938 0067 03       		.uleb128 0x3
 4939 0068 0E       		.uleb128 0xe
 4940 0069 0B       		.uleb128 0xb
 4941 006a 0B       		.uleb128 0xb
 4942 006b 49       		.uleb128 0x49
 4943 006c 13       		.uleb128 0x13
 4944 006d 3A       		.uleb128 0x3a
 4945 006e 0B       		.uleb128 0xb
 4946 006f 3B       		.uleb128 0x3b
 4947 0070 0B       		.uleb128 0xb
 4948 0071 01       		.uleb128 0x1
 4949 0072 13       		.uleb128 0x13
 4950 0073 00       		.byte	0
 4951 0074 00       		.byte	0
 4952 0075 0A       		.uleb128 0xa
 4953 0076 28       		.uleb128 0x28
 4954 0077 00       		.byte	0
 4955 0078 03       		.uleb128 0x3
 4956 0079 0E       		.uleb128 0xe
 4957 007a 1C       		.uleb128 0x1c
 4958 007b 0B       		.uleb128 0xb
 4959 007c 00       		.byte	0
 4960 007d 00       		.byte	0
 4961 007e 0B       		.uleb128 0xb
 4962 007f 15       		.uleb128 0x15
 4963 0080 01       		.byte	0x1
 4964 0081 27       		.uleb128 0x27
 4965 0082 19       		.uleb128 0x19
 4966 0083 01       		.uleb128 0x1
ARM GAS  C:\Users\Phuong\AppData\Local\Temp\ccVRtur0.s 			page 102


 4967 0084 13       		.uleb128 0x13
 4968 0085 00       		.byte	0
 4969 0086 00       		.byte	0
 4970 0087 0C       		.uleb128 0xc
 4971 0088 05       		.uleb128 0x5
 4972 0089 00       		.byte	0
 4973 008a 49       		.uleb128 0x49
 4974 008b 13       		.uleb128 0x13
 4975 008c 00       		.byte	0
 4976 008d 00       		.byte	0
 4977 008e 0D       		.uleb128 0xd
 4978 008f 18       		.uleb128 0x18
 4979 0090 00       		.byte	0
 4980 0091 00       		.byte	0
 4981 0092 00       		.byte	0
 4982 0093 0E       		.uleb128 0xe
 4983 0094 2E       		.uleb128 0x2e
 4984 0095 01       		.byte	0x1
 4985 0096 03       		.uleb128 0x3
 4986 0097 0E       		.uleb128 0xe
 4987 0098 3A       		.uleb128 0x3a
 4988 0099 0B       		.uleb128 0xb
 4989 009a 3B       		.uleb128 0x3b
 4990 009b 0B       		.uleb128 0xb
 4991 009c 27       		.uleb128 0x27
 4992 009d 19       		.uleb128 0x19
 4993 009e 49       		.uleb128 0x49
 4994 009f 13       		.uleb128 0x13
 4995 00a0 11       		.uleb128 0x11
 4996 00a1 01       		.uleb128 0x1
 4997 00a2 12       		.uleb128 0x12
 4998 00a3 06       		.uleb128 0x6
 4999 00a4 40       		.uleb128 0x40
 5000 00a5 18       		.uleb128 0x18
 5001 00a6 9742     		.uleb128 0x2117
 5002 00a8 19       		.uleb128 0x19
 5003 00a9 01       		.uleb128 0x1
 5004 00aa 13       		.uleb128 0x13
 5005 00ab 00       		.byte	0
 5006 00ac 00       		.byte	0
 5007 00ad 0F       		.uleb128 0xf
 5008 00ae 05       		.uleb128 0x5
 5009 00af 00       		.byte	0
 5010 00b0 03       		.uleb128 0x3
 5011 00b1 0E       		.uleb128 0xe
 5012 00b2 3A       		.uleb128 0x3a
 5013 00b3 0B       		.uleb128 0xb
 5014 00b4 3B       		.uleb128 0x3b
 5015 00b5 0B       		.uleb128 0xb
 5016 00b6 49       		.uleb128 0x49
 5017 00b7 13       		.uleb128 0x13
 5018 00b8 02       		.uleb128 0x2
 5019 00b9 17       		.uleb128 0x17
 5020 00ba 00       		.byte	0
 5021 00bb 00       		.byte	0
 5022 00bc 10       		.uleb128 0x10
 5023 00bd 34       		.uleb128 0x34
ARM GAS  C:\Users\Phuong\AppData\Local\Temp\ccVRtur0.s 			page 103


 5024 00be 00       		.byte	0
 5025 00bf 03       		.uleb128 0x3
 5026 00c0 0E       		.uleb128 0xe
 5027 00c1 3A       		.uleb128 0x3a
 5028 00c2 0B       		.uleb128 0xb
 5029 00c3 3B       		.uleb128 0x3b
 5030 00c4 0B       		.uleb128 0xb
 5031 00c5 49       		.uleb128 0x49
 5032 00c6 13       		.uleb128 0x13
 5033 00c7 02       		.uleb128 0x2
 5034 00c8 17       		.uleb128 0x17
 5035 00c9 00       		.byte	0
 5036 00ca 00       		.byte	0
 5037 00cb 11       		.uleb128 0x11
 5038 00cc 34       		.uleb128 0x34
 5039 00cd 00       		.byte	0
 5040 00ce 03       		.uleb128 0x3
 5041 00cf 0E       		.uleb128 0xe
 5042 00d0 49       		.uleb128 0x49
 5043 00d1 13       		.uleb128 0x13
 5044 00d2 34       		.uleb128 0x34
 5045 00d3 19       		.uleb128 0x19
 5046 00d4 02       		.uleb128 0x2
 5047 00d5 18       		.uleb128 0x18
 5048 00d6 00       		.byte	0
 5049 00d7 00       		.byte	0
 5050 00d8 12       		.uleb128 0x12
 5051 00d9 0B       		.uleb128 0xb
 5052 00da 01       		.byte	0x1
 5053 00db 11       		.uleb128 0x11
 5054 00dc 01       		.uleb128 0x1
 5055 00dd 12       		.uleb128 0x12
 5056 00de 06       		.uleb128 0x6
 5057 00df 01       		.uleb128 0x1
 5058 00e0 13       		.uleb128 0x13
 5059 00e1 00       		.byte	0
 5060 00e2 00       		.byte	0
 5061 00e3 13       		.uleb128 0x13
 5062 00e4 34       		.uleb128 0x34
 5063 00e5 00       		.byte	0
 5064 00e6 03       		.uleb128 0x3
 5065 00e7 08       		.uleb128 0x8
 5066 00e8 3A       		.uleb128 0x3a
 5067 00e9 0B       		.uleb128 0xb
 5068 00ea 3B       		.uleb128 0x3b
 5069 00eb 0B       		.uleb128 0xb
 5070 00ec 49       		.uleb128 0x49
 5071 00ed 13       		.uleb128 0x13
 5072 00ee 02       		.uleb128 0x2
 5073 00ef 17       		.uleb128 0x17
 5074 00f0 00       		.byte	0
 5075 00f1 00       		.byte	0
 5076 00f2 14       		.uleb128 0x14
 5077 00f3 898201   		.uleb128 0x4109
 5078 00f6 00       		.byte	0
 5079 00f7 11       		.uleb128 0x11
 5080 00f8 01       		.uleb128 0x1
ARM GAS  C:\Users\Phuong\AppData\Local\Temp\ccVRtur0.s 			page 104


 5081 00f9 31       		.uleb128 0x31
 5082 00fa 13       		.uleb128 0x13
 5083 00fb 00       		.byte	0
 5084 00fc 00       		.byte	0
 5085 00fd 15       		.uleb128 0x15
 5086 00fe 898201   		.uleb128 0x4109
 5087 0101 01       		.byte	0x1
 5088 0102 11       		.uleb128 0x11
 5089 0103 01       		.uleb128 0x1
 5090 0104 9342     		.uleb128 0x2113
 5091 0106 18       		.uleb128 0x18
 5092 0107 00       		.byte	0
 5093 0108 00       		.byte	0
 5094 0109 16       		.uleb128 0x16
 5095 010a 8A8201   		.uleb128 0x410a
 5096 010d 00       		.byte	0
 5097 010e 02       		.uleb128 0x2
 5098 010f 18       		.uleb128 0x18
 5099 0110 9142     		.uleb128 0x2111
 5100 0112 18       		.uleb128 0x18
 5101 0113 00       		.byte	0
 5102 0114 00       		.byte	0
 5103 0115 17       		.uleb128 0x17
 5104 0116 01       		.uleb128 0x1
 5105 0117 01       		.byte	0x1
 5106 0118 49       		.uleb128 0x49
 5107 0119 13       		.uleb128 0x13
 5108 011a 01       		.uleb128 0x1
 5109 011b 13       		.uleb128 0x13
 5110 011c 00       		.byte	0
 5111 011d 00       		.byte	0
 5112 011e 18       		.uleb128 0x18
 5113 011f 21       		.uleb128 0x21
 5114 0120 00       		.byte	0
 5115 0121 49       		.uleb128 0x49
 5116 0122 13       		.uleb128 0x13
 5117 0123 2F       		.uleb128 0x2f
 5118 0124 0B       		.uleb128 0xb
 5119 0125 00       		.byte	0
 5120 0126 00       		.byte	0
 5121 0127 19       		.uleb128 0x19
 5122 0128 2E       		.uleb128 0x2e
 5123 0129 01       		.byte	0x1
 5124 012a 3F       		.uleb128 0x3f
 5125 012b 19       		.uleb128 0x19
 5126 012c 03       		.uleb128 0x3
 5127 012d 0E       		.uleb128 0xe
 5128 012e 3A       		.uleb128 0x3a
 5129 012f 0B       		.uleb128 0xb
 5130 0130 3B       		.uleb128 0x3b
 5131 0131 0B       		.uleb128 0xb
 5132 0132 27       		.uleb128 0x27
 5133 0133 19       		.uleb128 0x19
 5134 0134 49       		.uleb128 0x49
 5135 0135 13       		.uleb128 0x13
 5136 0136 11       		.uleb128 0x11
 5137 0137 01       		.uleb128 0x1
ARM GAS  C:\Users\Phuong\AppData\Local\Temp\ccVRtur0.s 			page 105


 5138 0138 12       		.uleb128 0x12
 5139 0139 06       		.uleb128 0x6
 5140 013a 40       		.uleb128 0x40
 5141 013b 18       		.uleb128 0x18
 5142 013c 9742     		.uleb128 0x2117
 5143 013e 19       		.uleb128 0x19
 5144 013f 01       		.uleb128 0x1
 5145 0140 13       		.uleb128 0x13
 5146 0141 00       		.byte	0
 5147 0142 00       		.byte	0
 5148 0143 1A       		.uleb128 0x1a
 5149 0144 34       		.uleb128 0x34
 5150 0145 00       		.byte	0
 5151 0146 03       		.uleb128 0x3
 5152 0147 0E       		.uleb128 0xe
 5153 0148 3A       		.uleb128 0x3a
 5154 0149 0B       		.uleb128 0xb
 5155 014a 3B       		.uleb128 0x3b
 5156 014b 0B       		.uleb128 0xb
 5157 014c 49       		.uleb128 0x49
 5158 014d 13       		.uleb128 0x13
 5159 014e 02       		.uleb128 0x2
 5160 014f 18       		.uleb128 0x18
 5161 0150 00       		.byte	0
 5162 0151 00       		.byte	0
 5163 0152 1B       		.uleb128 0x1b
 5164 0153 898201   		.uleb128 0x4109
 5165 0156 01       		.byte	0x1
 5166 0157 11       		.uleb128 0x11
 5167 0158 01       		.uleb128 0x1
 5168 0159 31       		.uleb128 0x31
 5169 015a 13       		.uleb128 0x13
 5170 015b 00       		.byte	0
 5171 015c 00       		.byte	0
 5172 015d 1C       		.uleb128 0x1c
 5173 015e 898201   		.uleb128 0x4109
 5174 0161 01       		.byte	0x1
 5175 0162 11       		.uleb128 0x11
 5176 0163 01       		.uleb128 0x1
 5177 0164 31       		.uleb128 0x31
 5178 0165 13       		.uleb128 0x13
 5179 0166 01       		.uleb128 0x1
 5180 0167 13       		.uleb128 0x13
 5181 0168 00       		.byte	0
 5182 0169 00       		.byte	0
 5183 016a 1D       		.uleb128 0x1d
 5184 016b 2E       		.uleb128 0x2e
 5185 016c 01       		.byte	0x1
 5186 016d 3F       		.uleb128 0x3f
 5187 016e 19       		.uleb128 0x19
 5188 016f 03       		.uleb128 0x3
 5189 0170 0E       		.uleb128 0xe
 5190 0171 3A       		.uleb128 0x3a
 5191 0172 0B       		.uleb128 0xb
 5192 0173 3B       		.uleb128 0x3b
 5193 0174 0B       		.uleb128 0xb
 5194 0175 27       		.uleb128 0x27
ARM GAS  C:\Users\Phuong\AppData\Local\Temp\ccVRtur0.s 			page 106


 5195 0176 19       		.uleb128 0x19
 5196 0177 11       		.uleb128 0x11
 5197 0178 01       		.uleb128 0x1
 5198 0179 12       		.uleb128 0x12
 5199 017a 06       		.uleb128 0x6
 5200 017b 40       		.uleb128 0x40
 5201 017c 18       		.uleb128 0x18
 5202 017d 9742     		.uleb128 0x2117
 5203 017f 19       		.uleb128 0x19
 5204 0180 01       		.uleb128 0x1
 5205 0181 13       		.uleb128 0x13
 5206 0182 00       		.byte	0
 5207 0183 00       		.byte	0
 5208 0184 1E       		.uleb128 0x1e
 5209 0185 0B       		.uleb128 0xb
 5210 0186 01       		.byte	0x1
 5211 0187 11       		.uleb128 0x11
 5212 0188 01       		.uleb128 0x1
 5213 0189 12       		.uleb128 0x12
 5214 018a 06       		.uleb128 0x6
 5215 018b 00       		.byte	0
 5216 018c 00       		.byte	0
 5217 018d 1F       		.uleb128 0x1f
 5218 018e 0B       		.uleb128 0xb
 5219 018f 01       		.byte	0x1
 5220 0190 55       		.uleb128 0x55
 5221 0191 17       		.uleb128 0x17
 5222 0192 00       		.byte	0
 5223 0193 00       		.byte	0
 5224 0194 20       		.uleb128 0x20
 5225 0195 0B       		.uleb128 0xb
 5226 0196 01       		.byte	0x1
 5227 0197 55       		.uleb128 0x55
 5228 0198 17       		.uleb128 0x17
 5229 0199 01       		.uleb128 0x1
 5230 019a 13       		.uleb128 0x13
 5231 019b 00       		.byte	0
 5232 019c 00       		.byte	0
 5233 019d 21       		.uleb128 0x21
 5234 019e 2E       		.uleb128 0x2e
 5235 019f 01       		.byte	0x1
 5236 01a0 3F       		.uleb128 0x3f
 5237 01a1 19       		.uleb128 0x19
 5238 01a2 03       		.uleb128 0x3
 5239 01a3 0E       		.uleb128 0xe
 5240 01a4 3A       		.uleb128 0x3a
 5241 01a5 0B       		.uleb128 0xb
 5242 01a6 3B       		.uleb128 0x3b
 5243 01a7 05       		.uleb128 0x5
 5244 01a8 27       		.uleb128 0x27
 5245 01a9 19       		.uleb128 0x19
 5246 01aa 49       		.uleb128 0x49
 5247 01ab 13       		.uleb128 0x13
 5248 01ac 11       		.uleb128 0x11
 5249 01ad 01       		.uleb128 0x1
 5250 01ae 12       		.uleb128 0x12
 5251 01af 06       		.uleb128 0x6
ARM GAS  C:\Users\Phuong\AppData\Local\Temp\ccVRtur0.s 			page 107


 5252 01b0 40       		.uleb128 0x40
 5253 01b1 18       		.uleb128 0x18
 5254 01b2 9742     		.uleb128 0x2117
 5255 01b4 19       		.uleb128 0x19
 5256 01b5 01       		.uleb128 0x1
 5257 01b6 13       		.uleb128 0x13
 5258 01b7 00       		.byte	0
 5259 01b8 00       		.byte	0
 5260 01b9 22       		.uleb128 0x22
 5261 01ba 05       		.uleb128 0x5
 5262 01bb 00       		.byte	0
 5263 01bc 03       		.uleb128 0x3
 5264 01bd 0E       		.uleb128 0xe
 5265 01be 3A       		.uleb128 0x3a
 5266 01bf 0B       		.uleb128 0xb
 5267 01c0 3B       		.uleb128 0x3b
 5268 01c1 05       		.uleb128 0x5
 5269 01c2 49       		.uleb128 0x49
 5270 01c3 13       		.uleb128 0x13
 5271 01c4 02       		.uleb128 0x2
 5272 01c5 17       		.uleb128 0x17
 5273 01c6 00       		.byte	0
 5274 01c7 00       		.byte	0
 5275 01c8 23       		.uleb128 0x23
 5276 01c9 05       		.uleb128 0x5
 5277 01ca 00       		.byte	0
 5278 01cb 03       		.uleb128 0x3
 5279 01cc 0E       		.uleb128 0xe
 5280 01cd 3A       		.uleb128 0x3a
 5281 01ce 0B       		.uleb128 0xb
 5282 01cf 3B       		.uleb128 0x3b
 5283 01d0 05       		.uleb128 0x5
 5284 01d1 49       		.uleb128 0x49
 5285 01d2 13       		.uleb128 0x13
 5286 01d3 02       		.uleb128 0x2
 5287 01d4 18       		.uleb128 0x18
 5288 01d5 00       		.byte	0
 5289 01d6 00       		.byte	0
 5290 01d7 24       		.uleb128 0x24
 5291 01d8 34       		.uleb128 0x34
 5292 01d9 00       		.byte	0
 5293 01da 03       		.uleb128 0x3
 5294 01db 0E       		.uleb128 0xe
 5295 01dc 3A       		.uleb128 0x3a
 5296 01dd 0B       		.uleb128 0xb
 5297 01de 3B       		.uleb128 0x3b
 5298 01df 05       		.uleb128 0x5
 5299 01e0 49       		.uleb128 0x49
 5300 01e1 13       		.uleb128 0x13
 5301 01e2 02       		.uleb128 0x2
 5302 01e3 17       		.uleb128 0x17
 5303 01e4 00       		.byte	0
 5304 01e5 00       		.byte	0
 5305 01e6 25       		.uleb128 0x25
 5306 01e7 34       		.uleb128 0x34
 5307 01e8 00       		.byte	0
 5308 01e9 03       		.uleb128 0x3
ARM GAS  C:\Users\Phuong\AppData\Local\Temp\ccVRtur0.s 			page 108


 5309 01ea 08       		.uleb128 0x8
 5310 01eb 3A       		.uleb128 0x3a
 5311 01ec 0B       		.uleb128 0xb
 5312 01ed 3B       		.uleb128 0x3b
 5313 01ee 05       		.uleb128 0x5
 5314 01ef 49       		.uleb128 0x49
 5315 01f0 13       		.uleb128 0x13
 5316 01f1 02       		.uleb128 0x2
 5317 01f2 17       		.uleb128 0x17
 5318 01f3 00       		.byte	0
 5319 01f4 00       		.byte	0
 5320 01f5 26       		.uleb128 0x26
 5321 01f6 34       		.uleb128 0x34
 5322 01f7 00       		.byte	0
 5323 01f8 03       		.uleb128 0x3
 5324 01f9 0E       		.uleb128 0xe
 5325 01fa 3A       		.uleb128 0x3a
 5326 01fb 0B       		.uleb128 0xb
 5327 01fc 3B       		.uleb128 0x3b
 5328 01fd 05       		.uleb128 0x5
 5329 01fe 49       		.uleb128 0x49
 5330 01ff 13       		.uleb128 0x13
 5331 0200 02       		.uleb128 0x2
 5332 0201 18       		.uleb128 0x18
 5333 0202 00       		.byte	0
 5334 0203 00       		.byte	0
 5335 0204 27       		.uleb128 0x27
 5336 0205 34       		.uleb128 0x34
 5337 0206 00       		.byte	0
 5338 0207 03       		.uleb128 0x3
 5339 0208 0E       		.uleb128 0xe
 5340 0209 3A       		.uleb128 0x3a
 5341 020a 0B       		.uleb128 0xb
 5342 020b 3B       		.uleb128 0x3b
 5343 020c 05       		.uleb128 0x5
 5344 020d 49       		.uleb128 0x49
 5345 020e 13       		.uleb128 0x13
 5346 020f 00       		.byte	0
 5347 0210 00       		.byte	0
 5348 0211 28       		.uleb128 0x28
 5349 0212 2E       		.uleb128 0x2e
 5350 0213 00       		.byte	0
 5351 0214 3F       		.uleb128 0x3f
 5352 0215 19       		.uleb128 0x19
 5353 0216 3C       		.uleb128 0x3c
 5354 0217 19       		.uleb128 0x19
 5355 0218 6E       		.uleb128 0x6e
 5356 0219 0E       		.uleb128 0xe
 5357 021a 03       		.uleb128 0x3
 5358 021b 0E       		.uleb128 0xe
 5359 021c 3A       		.uleb128 0x3a
 5360 021d 0B       		.uleb128 0xb
 5361 021e 3B       		.uleb128 0x3b
 5362 021f 0B       		.uleb128 0xb
 5363 0220 00       		.byte	0
 5364 0221 00       		.byte	0
 5365 0222 29       		.uleb128 0x29
ARM GAS  C:\Users\Phuong\AppData\Local\Temp\ccVRtur0.s 			page 109


 5366 0223 2E       		.uleb128 0x2e
 5367 0224 00       		.byte	0
 5368 0225 3F       		.uleb128 0x3f
 5369 0226 19       		.uleb128 0x19
 5370 0227 3C       		.uleb128 0x3c
 5371 0228 19       		.uleb128 0x19
 5372 0229 6E       		.uleb128 0x6e
 5373 022a 0E       		.uleb128 0xe
 5374 022b 03       		.uleb128 0x3
 5375 022c 0E       		.uleb128 0xe
 5376 022d 00       		.byte	0
 5377 022e 00       		.byte	0
 5378 022f 00       		.byte	0
 5379              		.section	.debug_loc,"",%progbits
 5380              	.Ldebug_loc0:
 5381              	.LLST0:
 5382 0000 00000000 		.4byte	.LVL0
 5383 0004 0C000000 		.4byte	.LVL2
 5384 0008 0100     		.2byte	0x1
 5385 000a 50       		.byte	0x50
 5386 000b 0C000000 		.4byte	.LVL2
 5387 000f 0E000000 		.4byte	.LVL3
 5388 0013 0100     		.2byte	0x1
 5389 0015 55       		.byte	0x55
 5390 0016 0E000000 		.4byte	.LVL3
 5391 001a 10000000 		.4byte	.LVL4
 5392 001e 0100     		.2byte	0x1
 5393 0020 50       		.byte	0x50
 5394 0021 10000000 		.4byte	.LVL4
 5395 0025 42000000 		.4byte	.LVL14
 5396 0029 0100     		.2byte	0x1
 5397 002b 55       		.byte	0x55
 5398 002c 42000000 		.4byte	.LVL14
 5399 0030 50000000 		.4byte	.LFE2
 5400 0034 0400     		.2byte	0x4
 5401 0036 F3       		.byte	0xf3
 5402 0037 01       		.uleb128 0x1
 5403 0038 50       		.byte	0x50
 5404 0039 9F       		.byte	0x9f
 5405 003a 00000000 		.4byte	0
 5406 003e 00000000 		.4byte	0
 5407              	.LLST1:
 5408 0042 00000000 		.4byte	.LVL0
 5409 0046 13000000 		.4byte	.LVL5-1
 5410 004a 0100     		.2byte	0x1
 5411 004c 51       		.byte	0x51
 5412 004d 13000000 		.4byte	.LVL5-1
 5413 0051 20000000 		.4byte	.LVL7
 5414 0055 0100     		.2byte	0x1
 5415 0057 54       		.byte	0x54
 5416 0058 20000000 		.4byte	.LVL7
 5417 005c 38000000 		.4byte	.LVL10
 5418 0060 0400     		.2byte	0x4
 5419 0062 F3       		.byte	0xf3
 5420 0063 01       		.uleb128 0x1
 5421 0064 51       		.byte	0x51
 5422 0065 9F       		.byte	0x9f
ARM GAS  C:\Users\Phuong\AppData\Local\Temp\ccVRtur0.s 			page 110


 5423 0066 38000000 		.4byte	.LVL10
 5424 006a 3E000000 		.4byte	.LVL12
 5425 006e 0100     		.2byte	0x1
 5426 0070 54       		.byte	0x54
 5427 0071 3E000000 		.4byte	.LVL12
 5428 0075 50000000 		.4byte	.LFE2
 5429 0079 0400     		.2byte	0x4
 5430 007b F3       		.byte	0xf3
 5431 007c 01       		.uleb128 0x1
 5432 007d 51       		.byte	0x51
 5433 007e 9F       		.byte	0x9f
 5434 007f 00000000 		.4byte	0
 5435 0083 00000000 		.4byte	0
 5436              	.LLST2:
 5437 0087 3A000000 		.4byte	.LVL11
 5438 008b 3E000000 		.4byte	.LVL12
 5439 008f 0200     		.2byte	0x2
 5440 0091 30       		.byte	0x30
 5441 0092 9F       		.byte	0x9f
 5442 0093 40000000 		.4byte	.LVL13
 5443 0097 50000000 		.4byte	.LFE2
 5444 009b 0100     		.2byte	0x1
 5445 009d 50       		.byte	0x50
 5446 009e 00000000 		.4byte	0
 5447 00a2 00000000 		.4byte	0
 5448              	.LLST3:
 5449 00a6 08000000 		.4byte	.LVL1
 5450 00aa 10000000 		.4byte	.LVL4
 5451 00ae 0100     		.2byte	0x1
 5452 00b0 51       		.byte	0x51
 5453 00b1 10000000 		.4byte	.LVL4
 5454 00b5 13000000 		.4byte	.LVL5-1
 5455 00b9 0100     		.2byte	0x1
 5456 00bb 50       		.byte	0x50
 5457 00bc 00000000 		.4byte	0
 5458 00c0 00000000 		.4byte	0
 5459              	.LLST4:
 5460 00c4 20000000 		.4byte	.LVL7
 5461 00c8 32000000 		.4byte	.LVL8
 5462 00cc 0100     		.2byte	0x1
 5463 00ce 50       		.byte	0x50
 5464 00cf 32000000 		.4byte	.LVL8
 5465 00d3 38000000 		.4byte	.LVL10
 5466 00d7 0100     		.2byte	0x1
 5467 00d9 54       		.byte	0x54
 5468 00da 3E000000 		.4byte	.LVL12
 5469 00de 40000000 		.4byte	.LVL13
 5470 00e2 0100     		.2byte	0x1
 5471 00e4 50       		.byte	0x50
 5472 00e5 00000000 		.4byte	0
 5473 00e9 00000000 		.4byte	0
 5474              	.LLST5:
 5475 00ed 00000000 		.4byte	.LVL16
 5476 00f1 0F000000 		.4byte	.LVL17-1
 5477 00f5 0100     		.2byte	0x1
 5478 00f7 50       		.byte	0x50
 5479 00f8 0F000000 		.4byte	.LVL17-1
ARM GAS  C:\Users\Phuong\AppData\Local\Temp\ccVRtur0.s 			page 111


 5480 00fc 2E000000 		.4byte	.LVL22
 5481 0100 0100     		.2byte	0x1
 5482 0102 55       		.byte	0x55
 5483 0103 2E000000 		.4byte	.LVL22
 5484 0107 30000000 		.4byte	.LVL23
 5485 010b 0100     		.2byte	0x1
 5486 010d 50       		.byte	0x50
 5487 010e 30000000 		.4byte	.LVL23
 5488 0112 3E000000 		.4byte	.LVL27
 5489 0116 0100     		.2byte	0x1
 5490 0118 55       		.byte	0x55
 5491 0119 3E000000 		.4byte	.LVL27
 5492 011d 56000000 		.4byte	.LVL30
 5493 0121 0400     		.2byte	0x4
 5494 0123 F3       		.byte	0xf3
 5495 0124 01       		.uleb128 0x1
 5496 0125 50       		.byte	0x50
 5497 0126 9F       		.byte	0x9f
 5498 0127 56000000 		.4byte	.LVL30
 5499 012b 66000000 		.4byte	.LVL33
 5500 012f 0100     		.2byte	0x1
 5501 0131 55       		.byte	0x55
 5502 0132 66000000 		.4byte	.LVL33
 5503 0136 86000000 		.4byte	.LVL37
 5504 013a 0400     		.2byte	0x4
 5505 013c F3       		.byte	0xf3
 5506 013d 01       		.uleb128 0x1
 5507 013e 50       		.byte	0x50
 5508 013f 9F       		.byte	0x9f
 5509 0140 86000000 		.4byte	.LVL37
 5510 0144 94000000 		.4byte	.LVL40
 5511 0148 0100     		.2byte	0x1
 5512 014a 55       		.byte	0x55
 5513 014b 94000000 		.4byte	.LVL40
 5514 014f B0000000 		.4byte	.LFE3
 5515 0153 0400     		.2byte	0x4
 5516 0155 F3       		.byte	0xf3
 5517 0156 01       		.uleb128 0x1
 5518 0157 50       		.byte	0x50
 5519 0158 9F       		.byte	0x9f
 5520 0159 00000000 		.4byte	0
 5521 015d 00000000 		.4byte	0
 5522              	.LLST6:
 5523 0161 00000000 		.4byte	.LVL16
 5524 0165 0F000000 		.4byte	.LVL17-1
 5525 0169 0100     		.2byte	0x1
 5526 016b 51       		.byte	0x51
 5527 016c 0F000000 		.4byte	.LVL17-1
 5528 0170 2E000000 		.4byte	.LVL22
 5529 0174 0100     		.2byte	0x1
 5530 0176 56       		.byte	0x56
 5531 0177 2E000000 		.4byte	.LVL22
 5532 017b 33000000 		.4byte	.LVL24-1
 5533 017f 0100     		.2byte	0x1
 5534 0181 51       		.byte	0x51
 5535 0182 33000000 		.4byte	.LVL24-1
 5536 0186 98000000 		.4byte	.LVL42
ARM GAS  C:\Users\Phuong\AppData\Local\Temp\ccVRtur0.s 			page 112


 5537 018a 0100     		.2byte	0x1
 5538 018c 56       		.byte	0x56
 5539 018d 98000000 		.4byte	.LVL42
 5540 0191 B0000000 		.4byte	.LFE3
 5541 0195 0400     		.2byte	0x4
 5542 0197 F3       		.byte	0xf3
 5543 0198 01       		.uleb128 0x1
 5544 0199 51       		.byte	0x51
 5545 019a 9F       		.byte	0x9f
 5546 019b 00000000 		.4byte	0
 5547 019f 00000000 		.4byte	0
 5548              	.LLST7:
 5549 01a3 36000000 		.4byte	.LVL25
 5550 01a7 3B000000 		.4byte	.LVL26-1
 5551 01ab 0100     		.2byte	0x1
 5552 01ad 50       		.byte	0x50
 5553 01ae 3B000000 		.4byte	.LVL26-1
 5554 01b2 56000000 		.4byte	.LVL30
 5555 01b6 0100     		.2byte	0x1
 5556 01b8 54       		.byte	0x54
 5557 01b9 56000000 		.4byte	.LVL30
 5558 01bd 5B000000 		.4byte	.LVL31-1
 5559 01c1 0100     		.2byte	0x1
 5560 01c3 50       		.byte	0x50
 5561 01c4 5B000000 		.4byte	.LVL31-1
 5562 01c8 82000000 		.4byte	.LVL36
 5563 01cc 0100     		.2byte	0x1
 5564 01ce 54       		.byte	0x54
 5565 01cf 82000000 		.4byte	.LVL36
 5566 01d3 86000000 		.4byte	.LVL37
 5567 01d7 0200     		.2byte	0x2
 5568 01d9 30       		.byte	0x30
 5569 01da 9F       		.byte	0x9f
 5570 01db 86000000 		.4byte	.LVL37
 5571 01df 92000000 		.4byte	.LVL39
 5572 01e3 0100     		.2byte	0x1
 5573 01e5 54       		.byte	0x54
 5574 01e6 94000000 		.4byte	.LVL40
 5575 01ea 98000000 		.4byte	.LVL41
 5576 01ee 0100     		.2byte	0x1
 5577 01f0 54       		.byte	0x54
 5578 01f1 98000000 		.4byte	.LVL41
 5579 01f5 B0000000 		.4byte	.LFE3
 5580 01f9 0100     		.2byte	0x1
 5581 01fb 50       		.byte	0x50
 5582 01fc 00000000 		.4byte	0
 5583 0200 00000000 		.4byte	0
 5584              	.LLST8:
 5585 0204 12000000 		.4byte	.LVL18
 5586 0208 28000000 		.4byte	.LVL19
 5587 020c 0100     		.2byte	0x1
 5588 020e 50       		.byte	0x50
 5589 020f 28000000 		.4byte	.LVL19
 5590 0213 2C000000 		.4byte	.LVL21
 5591 0217 0100     		.2byte	0x1
 5592 0219 54       		.byte	0x54
 5593 021a 92000000 		.4byte	.LVL39
ARM GAS  C:\Users\Phuong\AppData\Local\Temp\ccVRtur0.s 			page 113


 5594 021e 94000000 		.4byte	.LVL40
 5595 0222 0100     		.2byte	0x1
 5596 0224 50       		.byte	0x50
 5597 0225 00000000 		.4byte	0
 5598 0229 00000000 		.4byte	0
 5599              	.LLST9:
 5600 022d 3E000000 		.4byte	.LVL27
 5601 0231 52000000 		.4byte	.LVL28
 5602 0235 0100     		.2byte	0x1
 5603 0237 50       		.byte	0x50
 5604 0238 52000000 		.4byte	.LVL28
 5605 023c 56000000 		.4byte	.LVL30
 5606 0240 0100     		.2byte	0x1
 5607 0242 55       		.byte	0x55
 5608 0243 00000000 		.4byte	0
 5609 0247 00000000 		.4byte	0
 5610              	.LLST10:
 5611 024b 66000000 		.4byte	.LVL33
 5612 024f 7A000000 		.4byte	.LVL34
 5613 0253 0100     		.2byte	0x1
 5614 0255 50       		.byte	0x50
 5615 0256 7A000000 		.4byte	.LVL34
 5616 025a 86000000 		.4byte	.LVL37
 5617 025e 0100     		.2byte	0x1
 5618 0260 55       		.byte	0x55
 5619 0261 00000000 		.4byte	0
 5620 0265 00000000 		.4byte	0
 5621              	.LLST11:
 5622 0269 00000000 		.4byte	.LVL43
 5623 026d 08000000 		.4byte	.LVL45
 5624 0271 0100     		.2byte	0x1
 5625 0273 50       		.byte	0x50
 5626 0274 08000000 		.4byte	.LVL45
 5627 0278 16000000 		.4byte	.LVL48
 5628 027c 0100     		.2byte	0x1
 5629 027e 54       		.byte	0x54
 5630 027f 16000000 		.4byte	.LVL48
 5631 0283 18000000 		.4byte	.LFE4
 5632 0287 0400     		.2byte	0x4
 5633 0289 F3       		.byte	0xf3
 5634 028a 01       		.uleb128 0x1
 5635 028b 50       		.byte	0x50
 5636 028c 9F       		.byte	0x9f
 5637 028d 00000000 		.4byte	0
 5638 0291 00000000 		.4byte	0
 5639              	.LLST12:
 5640 0295 06000000 		.4byte	.LVL44
 5641 0299 08000000 		.4byte	.LVL45
 5642 029d 0100     		.2byte	0x1
 5643 029f 50       		.byte	0x50
 5644 02a0 08000000 		.4byte	.LVL45
 5645 02a4 16000000 		.4byte	.LVL47
 5646 02a8 0100     		.2byte	0x1
 5647 02aa 54       		.byte	0x54
 5648 02ab 00000000 		.4byte	0
 5649 02af 00000000 		.4byte	0
 5650              	.LLST13:
ARM GAS  C:\Users\Phuong\AppData\Local\Temp\ccVRtur0.s 			page 114


 5651 02b3 00000000 		.4byte	.LVL49
 5652 02b7 14000000 		.4byte	.LVL51
 5653 02bb 0100     		.2byte	0x1
 5654 02bd 50       		.byte	0x50
 5655 02be 14000000 		.4byte	.LVL51
 5656 02c2 22000000 		.4byte	.LVL54
 5657 02c6 0100     		.2byte	0x1
 5658 02c8 54       		.byte	0x54
 5659 02c9 22000000 		.4byte	.LVL54
 5660 02cd 2A000000 		.4byte	.LVL57
 5661 02d1 0100     		.2byte	0x1
 5662 02d3 50       		.byte	0x50
 5663 02d4 2A000000 		.4byte	.LVL57
 5664 02d8 38000000 		.4byte	.LVL60
 5665 02dc 0100     		.2byte	0x1
 5666 02de 54       		.byte	0x54
 5667 02df 38000000 		.4byte	.LVL60
 5668 02e3 52000000 		.4byte	.LVL63
 5669 02e7 0400     		.2byte	0x4
 5670 02e9 F3       		.byte	0xf3
 5671 02ea 01       		.uleb128 0x1
 5672 02eb 50       		.byte	0x50
 5673 02ec 9F       		.byte	0x9f
 5674 02ed 52000000 		.4byte	.LVL63
 5675 02f1 62000000 		.4byte	.LVL65
 5676 02f5 0100     		.2byte	0x1
 5677 02f7 54       		.byte	0x54
 5678 02f8 62000000 		.4byte	.LVL65
 5679 02fc 64000000 		.4byte	.LVL66
 5680 0300 0100     		.2byte	0x1
 5681 0302 50       		.byte	0x50
 5682 0303 64000000 		.4byte	.LVL66
 5683 0307 66000000 		.4byte	.LVL67
 5684 030b 0100     		.2byte	0x1
 5685 030d 54       		.byte	0x54
 5686 030e 66000000 		.4byte	.LVL67
 5687 0312 68000000 		.4byte	.LVL68
 5688 0316 0100     		.2byte	0x1
 5689 0318 50       		.byte	0x50
 5690 0319 68000000 		.4byte	.LVL68
 5691 031d 6A000000 		.4byte	.LVL69
 5692 0321 0100     		.2byte	0x1
 5693 0323 54       		.byte	0x54
 5694 0324 6A000000 		.4byte	.LVL69
 5695 0328 7C000000 		.4byte	.LFE5
 5696 032c 0400     		.2byte	0x4
 5697 032e F3       		.byte	0xf3
 5698 032f 01       		.uleb128 0x1
 5699 0330 50       		.byte	0x50
 5700 0331 9F       		.byte	0x9f
 5701 0332 00000000 		.4byte	0
 5702 0336 00000000 		.4byte	0
 5703              	.LLST14:
 5704 033a 00000000 		.4byte	.LVL49
 5705 033e 17000000 		.4byte	.LVL52-1
 5706 0342 0100     		.2byte	0x1
 5707 0344 51       		.byte	0x51
ARM GAS  C:\Users\Phuong\AppData\Local\Temp\ccVRtur0.s 			page 115


 5708 0345 17000000 		.4byte	.LVL52-1
 5709 0349 22000000 		.4byte	.LVL54
 5710 034d 0100     		.2byte	0x1
 5711 034f 56       		.byte	0x56
 5712 0350 22000000 		.4byte	.LVL54
 5713 0354 28000000 		.4byte	.LVL56
 5714 0358 0100     		.2byte	0x1
 5715 035a 51       		.byte	0x51
 5716 035b 28000000 		.4byte	.LVL56
 5717 035f 62000000 		.4byte	.LVL65
 5718 0363 0100     		.2byte	0x1
 5719 0365 56       		.byte	0x56
 5720 0366 62000000 		.4byte	.LVL65
 5721 036a 6A000000 		.4byte	.LVL69
 5722 036e 0100     		.2byte	0x1
 5723 0370 51       		.byte	0x51
 5724 0371 6A000000 		.4byte	.LVL69
 5725 0375 6E000000 		.4byte	.LVL72
 5726 0379 0100     		.2byte	0x1
 5727 037b 56       		.byte	0x56
 5728 037c 6E000000 		.4byte	.LVL72
 5729 0380 7C000000 		.4byte	.LFE5
 5730 0384 0400     		.2byte	0x4
 5731 0386 F3       		.byte	0xf3
 5732 0387 01       		.uleb128 0x1
 5733 0388 51       		.byte	0x51
 5734 0389 9F       		.byte	0x9f
 5735 038a 00000000 		.4byte	0
 5736 038e 00000000 		.4byte	0
 5737              	.LLST15:
 5738 0392 00000000 		.4byte	.LVL49
 5739 0396 17000000 		.4byte	.LVL52-1
 5740 039a 0100     		.2byte	0x1
 5741 039c 52       		.byte	0x52
 5742 039d 17000000 		.4byte	.LVL52-1
 5743 03a1 22000000 		.4byte	.LVL54
 5744 03a5 0100     		.2byte	0x1
 5745 03a7 55       		.byte	0x55
 5746 03a8 22000000 		.4byte	.LVL54
 5747 03ac 2D000000 		.4byte	.LVL58-1
 5748 03b0 0100     		.2byte	0x1
 5749 03b2 52       		.byte	0x52
 5750 03b3 2D000000 		.4byte	.LVL58-1
 5751 03b7 62000000 		.4byte	.LVL65
 5752 03bb 0100     		.2byte	0x1
 5753 03bd 55       		.byte	0x55
 5754 03be 62000000 		.4byte	.LVL65
 5755 03c2 6A000000 		.4byte	.LVL69
 5756 03c6 0100     		.2byte	0x1
 5757 03c8 52       		.byte	0x52
 5758 03c9 6A000000 		.4byte	.LVL69
 5759 03cd 6E000000 		.4byte	.LVL71
 5760 03d1 0100     		.2byte	0x1
 5761 03d3 55       		.byte	0x55
 5762 03d4 6E000000 		.4byte	.LVL71
 5763 03d8 7C000000 		.4byte	.LFE5
 5764 03dc 0400     		.2byte	0x4
ARM GAS  C:\Users\Phuong\AppData\Local\Temp\ccVRtur0.s 			page 116


 5765 03de F3       		.byte	0xf3
 5766 03df 01       		.uleb128 0x1
 5767 03e0 52       		.byte	0x52
 5768 03e1 9F       		.byte	0x9f
 5769 03e2 00000000 		.4byte	0
 5770 03e6 00000000 		.4byte	0
 5771              	.LLST16:
 5772 03ea 1E000000 		.4byte	.LVL53
 5773 03ee 22000000 		.4byte	.LVL54
 5774 03f2 0200     		.2byte	0x2
 5775 03f4 30       		.byte	0x30
 5776 03f5 9F       		.byte	0x9f
 5777 03f6 5E000000 		.4byte	.LVL64
 5778 03fa 62000000 		.4byte	.LVL65
 5779 03fe 0200     		.2byte	0x2
 5780 0400 30       		.byte	0x30
 5781 0401 9F       		.byte	0x9f
 5782 0402 6C000000 		.4byte	.LVL70
 5783 0406 7C000000 		.4byte	.LFE5
 5784 040a 0100     		.2byte	0x1
 5785 040c 50       		.byte	0x50
 5786 040d 00000000 		.4byte	0
 5787 0411 00000000 		.4byte	0
 5788              	.LLST17:
 5789 0415 12000000 		.4byte	.LVL50
 5790 0419 14000000 		.4byte	.LVL51
 5791 041d 0100     		.2byte	0x1
 5792 041f 50       		.byte	0x50
 5793 0420 14000000 		.4byte	.LVL51
 5794 0424 22000000 		.4byte	.LVL54
 5795 0428 0100     		.2byte	0x1
 5796 042a 54       		.byte	0x54
 5797 042b 00000000 		.4byte	0
 5798 042f 00000000 		.4byte	0
 5799              	.LLST18:
 5800 0433 26000000 		.4byte	.LVL55
 5801 0437 2A000000 		.4byte	.LVL57
 5802 043b 0100     		.2byte	0x1
 5803 043d 50       		.byte	0x50
 5804 043e 2A000000 		.4byte	.LVL57
 5805 0442 38000000 		.4byte	.LVL60
 5806 0446 0100     		.2byte	0x1
 5807 0448 54       		.byte	0x54
 5808 0449 38000000 		.4byte	.LVL60
 5809 044d 52000000 		.4byte	.LVL63
 5810 0451 0400     		.2byte	0x4
 5811 0453 F3       		.byte	0xf3
 5812 0454 01       		.uleb128 0x1
 5813 0455 50       		.byte	0x50
 5814 0456 9F       		.byte	0x9f
 5815 0457 52000000 		.4byte	.LVL63
 5816 045b 62000000 		.4byte	.LVL65
 5817 045f 0100     		.2byte	0x1
 5818 0461 54       		.byte	0x54
 5819 0462 6A000000 		.4byte	.LVL69
 5820 0466 6C000000 		.4byte	.LVL70
 5821 046a 0400     		.2byte	0x4
ARM GAS  C:\Users\Phuong\AppData\Local\Temp\ccVRtur0.s 			page 117


 5822 046c F3       		.byte	0xf3
 5823 046d 01       		.uleb128 0x1
 5824 046e 50       		.byte	0x50
 5825 046f 9F       		.byte	0x9f
 5826 0470 00000000 		.4byte	0
 5827 0474 00000000 		.4byte	0
 5828              	.LLST19:
 5829 0478 2E000000 		.4byte	.LVL58
 5830 047c 35000000 		.4byte	.LVL59-1
 5831 0480 0100     		.2byte	0x1
 5832 0482 50       		.byte	0x50
 5833 0483 52000000 		.4byte	.LVL63
 5834 0487 5D000000 		.4byte	.LVL64-1
 5835 048b 0100     		.2byte	0x1
 5836 048d 50       		.byte	0x50
 5837 048e 00000000 		.4byte	0
 5838 0492 00000000 		.4byte	0
 5839              	.LLST20:
 5840 0496 38000000 		.4byte	.LVL60
 5841 049a 4C000000 		.4byte	.LVL61
 5842 049e 0100     		.2byte	0x1
 5843 04a0 50       		.byte	0x50
 5844 04a1 4C000000 		.4byte	.LVL61
 5845 04a5 52000000 		.4byte	.LVL63
 5846 04a9 0100     		.2byte	0x1
 5847 04ab 54       		.byte	0x54
 5848 04ac 6A000000 		.4byte	.LVL69
 5849 04b0 6C000000 		.4byte	.LVL70
 5850 04b4 0100     		.2byte	0x1
 5851 04b6 50       		.byte	0x50
 5852 04b7 00000000 		.4byte	0
 5853 04bb 00000000 		.4byte	0
 5854              	.LLST21:
 5855 04bf 00000000 		.4byte	.LVL73
 5856 04c3 19000000 		.4byte	.LVL74-1
 5857 04c7 0100     		.2byte	0x1
 5858 04c9 50       		.byte	0x50
 5859 04ca 19000000 		.4byte	.LVL74-1
 5860 04ce 3C000000 		.4byte	.LVL78
 5861 04d2 0100     		.2byte	0x1
 5862 04d4 54       		.byte	0x54
 5863 04d5 3C000000 		.4byte	.LVL78
 5864 04d9 3E000000 		.4byte	.LVL79
 5865 04dd 0100     		.2byte	0x1
 5866 04df 50       		.byte	0x50
 5867 04e0 3E000000 		.4byte	.LVL79
 5868 04e4 54000000 		.4byte	.LVL83
 5869 04e8 0100     		.2byte	0x1
 5870 04ea 54       		.byte	0x54
 5871 04eb 54000000 		.4byte	.LVL83
 5872 04ef 6E000000 		.4byte	.LVL86
 5873 04f3 0400     		.2byte	0x4
 5874 04f5 F3       		.byte	0xf3
 5875 04f6 01       		.uleb128 0x1
 5876 04f7 50       		.byte	0x50
 5877 04f8 9F       		.byte	0x9f
 5878 04f9 6E000000 		.4byte	.LVL86
ARM GAS  C:\Users\Phuong\AppData\Local\Temp\ccVRtur0.s 			page 118


 5879 04fd 8E000000 		.4byte	.LVL92
 5880 0501 0100     		.2byte	0x1
 5881 0503 54       		.byte	0x54
 5882 0504 8E000000 		.4byte	.LVL92
 5883 0508 A8000000 		.4byte	.LVL95
 5884 050c 0400     		.2byte	0x4
 5885 050e F3       		.byte	0xf3
 5886 050f 01       		.uleb128 0x1
 5887 0510 50       		.byte	0x50
 5888 0511 9F       		.byte	0x9f
 5889 0512 A8000000 		.4byte	.LVL95
 5890 0516 C8000000 		.4byte	.LVL102
 5891 051a 0100     		.2byte	0x1
 5892 051c 54       		.byte	0x54
 5893 051d C8000000 		.4byte	.LVL102
 5894 0521 E8000000 		.4byte	.LFE6
 5895 0525 0400     		.2byte	0x4
 5896 0527 F3       		.byte	0xf3
 5897 0528 01       		.uleb128 0x1
 5898 0529 50       		.byte	0x50
 5899 052a 9F       		.byte	0x9f
 5900 052b 00000000 		.4byte	0
 5901 052f 00000000 		.4byte	0
 5902              	.LLST22:
 5903 0533 00000000 		.4byte	.LVL73
 5904 0537 19000000 		.4byte	.LVL74-1
 5905 053b 0100     		.2byte	0x1
 5906 053d 51       		.byte	0x51
 5907 053e 19000000 		.4byte	.LVL74-1
 5908 0542 3C000000 		.4byte	.LVL78
 5909 0546 0100     		.2byte	0x1
 5910 0548 56       		.byte	0x56
 5911 0549 3C000000 		.4byte	.LVL78
 5912 054d 44000000 		.4byte	.LVL80
 5913 0551 0100     		.2byte	0x1
 5914 0553 51       		.byte	0x51
 5915 0554 44000000 		.4byte	.LVL80
 5916 0558 7C000000 		.4byte	.LVL88
 5917 055c 0100     		.2byte	0x1
 5918 055e 56       		.byte	0x56
 5919 055f 7C000000 		.4byte	.LVL88
 5920 0563 80000000 		.4byte	.LVL89
 5921 0567 0100     		.2byte	0x1
 5922 0569 51       		.byte	0x51
 5923 056a 80000000 		.4byte	.LVL89
 5924 056e D0000000 		.4byte	.LVL106
 5925 0572 0100     		.2byte	0x1
 5926 0574 56       		.byte	0x56
 5927 0575 D0000000 		.4byte	.LVL106
 5928 0579 E8000000 		.4byte	.LFE6
 5929 057d 0400     		.2byte	0x4
 5930 057f F3       		.byte	0xf3
 5931 0580 01       		.uleb128 0x1
 5932 0581 51       		.byte	0x51
 5933 0582 9F       		.byte	0x9f
 5934 0583 00000000 		.4byte	0
 5935 0587 00000000 		.4byte	0
ARM GAS  C:\Users\Phuong\AppData\Local\Temp\ccVRtur0.s 			page 119


 5936              	.LLST23:
 5937 058b 00000000 		.4byte	.LVL73
 5938 058f 19000000 		.4byte	.LVL74-1
 5939 0593 0100     		.2byte	0x1
 5940 0595 52       		.byte	0x52
 5941 0596 19000000 		.4byte	.LVL74-1
 5942 059a 3C000000 		.4byte	.LVL78
 5943 059e 0100     		.2byte	0x1
 5944 05a0 55       		.byte	0x55
 5945 05a1 3C000000 		.4byte	.LVL78
 5946 05a5 49000000 		.4byte	.LVL81-1
 5947 05a9 0100     		.2byte	0x1
 5948 05ab 52       		.byte	0x52
 5949 05ac 49000000 		.4byte	.LVL81-1
 5950 05b0 7C000000 		.4byte	.LVL88
 5951 05b4 0100     		.2byte	0x1
 5952 05b6 55       		.byte	0x55
 5953 05b7 7C000000 		.4byte	.LVL88
 5954 05bb 83000000 		.4byte	.LVL90-1
 5955 05bf 0100     		.2byte	0x1
 5956 05c1 52       		.byte	0x52
 5957 05c2 83000000 		.4byte	.LVL90-1
 5958 05c6 BE000000 		.4byte	.LVL98
 5959 05ca 0100     		.2byte	0x1
 5960 05cc 55       		.byte	0x55
 5961 05cd BE000000 		.4byte	.LVL98
 5962 05d1 C4000000 		.4byte	.LVL100
 5963 05d5 0400     		.2byte	0x4
 5964 05d7 F3       		.byte	0xf3
 5965 05d8 01       		.uleb128 0x1
 5966 05d9 52       		.byte	0x52
 5967 05da 9F       		.byte	0x9f
 5968 05db C4000000 		.4byte	.LVL100
 5969 05df CE000000 		.4byte	.LVL105
 5970 05e3 0100     		.2byte	0x1
 5971 05e5 55       		.byte	0x55
 5972 05e6 CE000000 		.4byte	.LVL105
 5973 05ea E8000000 		.4byte	.LFE6
 5974 05ee 0400     		.2byte	0x4
 5975 05f0 F3       		.byte	0xf3
 5976 05f1 01       		.uleb128 0x1
 5977 05f2 52       		.byte	0x52
 5978 05f3 9F       		.byte	0x9f
 5979 05f4 00000000 		.4byte	0
 5980 05f8 00000000 		.4byte	0
 5981              	.LLST24:
 5982 05fc 78000000 		.4byte	.LVL87
 5983 0600 7C000000 		.4byte	.LVL88
 5984 0604 0200     		.2byte	0x2
 5985 0606 30       		.byte	0x30
 5986 0607 9F       		.byte	0x9f
 5987 0608 C0000000 		.4byte	.LVL99
 5988 060c C4000000 		.4byte	.LVL100
 5989 0610 0200     		.2byte	0x2
 5990 0612 30       		.byte	0x30
 5991 0613 9F       		.byte	0x9f
 5992 0614 CE000000 		.4byte	.LVL105
ARM GAS  C:\Users\Phuong\AppData\Local\Temp\ccVRtur0.s 			page 120


 5993 0618 E8000000 		.4byte	.LFE6
 5994 061c 0100     		.2byte	0x1
 5995 061e 50       		.byte	0x50
 5996 061f 00000000 		.4byte	0
 5997 0623 00000000 		.4byte	0
 5998              	.LLST25:
 5999 0627 1C000000 		.4byte	.LVL75
 6000 062b 36000000 		.4byte	.LVL76
 6001 062f 0100     		.2byte	0x1
 6002 0631 50       		.byte	0x50
 6003 0632 36000000 		.4byte	.LVL76
 6004 0636 3C000000 		.4byte	.LVL78
 6005 063a 0100     		.2byte	0x1
 6006 063c 57       		.byte	0x57
 6007 063d C4000000 		.4byte	.LVL100
 6008 0641 C6000000 		.4byte	.LVL101
 6009 0645 0100     		.2byte	0x1
 6010 0647 50       		.byte	0x50
 6011 0648 C6000000 		.4byte	.LVL101
 6012 064c C8000000 		.4byte	.LVL102
 6013 0650 0100     		.2byte	0x1
 6014 0652 57       		.byte	0x57
 6015 0653 00000000 		.4byte	0
 6016 0657 00000000 		.4byte	0
 6017              	.LLST26:
 6018 065b 54000000 		.4byte	.LVL83
 6019 065f 68000000 		.4byte	.LVL84
 6020 0663 0100     		.2byte	0x1
 6021 0665 50       		.byte	0x50
 6022 0666 68000000 		.4byte	.LVL84
 6023 066a 6E000000 		.4byte	.LVL86
 6024 066e 0100     		.2byte	0x1
 6025 0670 54       		.byte	0x54
 6026 0671 C8000000 		.4byte	.LVL102
 6027 0675 CA000000 		.4byte	.LVL103
 6028 0679 0100     		.2byte	0x1
 6029 067b 50       		.byte	0x50
 6030 067c CA000000 		.4byte	.LVL103
 6031 0680 CC000000 		.4byte	.LVL104
 6032 0684 0100     		.2byte	0x1
 6033 0686 54       		.byte	0x54
 6034 0687 00000000 		.4byte	0
 6035 068b 00000000 		.4byte	0
 6036              	.LLST27:
 6037 068f 84000000 		.4byte	.LVL90
 6038 0693 8B000000 		.4byte	.LVL91-1
 6039 0697 0100     		.2byte	0x1
 6040 0699 50       		.byte	0x50
 6041 069a A8000000 		.4byte	.LVL95
 6042 069e B0000000 		.4byte	.LVL96
 6043 06a2 0100     		.2byte	0x1
 6044 06a4 50       		.byte	0x50
 6045 06a5 B0000000 		.4byte	.LVL96
 6046 06a9 B7000000 		.4byte	.LVL97-1
 6047 06ad 0200     		.2byte	0x2
 6048 06af 74       		.byte	0x74
 6049 06b0 00       		.sleb128 0
ARM GAS  C:\Users\Phuong\AppData\Local\Temp\ccVRtur0.s 			page 121


 6050 06b1 00000000 		.4byte	0
 6051 06b5 00000000 		.4byte	0
 6052              	.LLST28:
 6053 06b9 8E000000 		.4byte	.LVL92
 6054 06bd A2000000 		.4byte	.LVL93
 6055 06c1 0100     		.2byte	0x1
 6056 06c3 50       		.byte	0x50
 6057 06c4 A2000000 		.4byte	.LVL93
 6058 06c8 A8000000 		.4byte	.LVL95
 6059 06cc 0100     		.2byte	0x1
 6060 06ce 54       		.byte	0x54
 6061 06cf CC000000 		.4byte	.LVL104
 6062 06d3 CE000000 		.4byte	.LVL105
 6063 06d7 0100     		.2byte	0x1
 6064 06d9 50       		.byte	0x50
 6065 06da 00000000 		.4byte	0
 6066 06de 00000000 		.4byte	0
 6067              	.LLST29:
 6068 06e2 00000000 		.4byte	.LVL107
 6069 06e6 19000000 		.4byte	.LVL109-1
 6070 06ea 0100     		.2byte	0x1
 6071 06ec 50       		.byte	0x50
 6072 06ed 19000000 		.4byte	.LVL109-1
 6073 06f1 1C000000 		.4byte	.LVL110
 6074 06f5 0100     		.2byte	0x1
 6075 06f7 54       		.byte	0x54
 6076 06f8 1C000000 		.4byte	.LVL110
 6077 06fc 36000000 		.4byte	.LVL113
 6078 0700 0400     		.2byte	0x4
 6079 0702 F3       		.byte	0xf3
 6080 0703 01       		.uleb128 0x1
 6081 0704 50       		.byte	0x50
 6082 0705 9F       		.byte	0x9f
 6083 0706 36000000 		.4byte	.LVL113
 6084 070a 38000000 		.4byte	.LVL114
 6085 070e 0100     		.2byte	0x1
 6086 0710 50       		.byte	0x50
 6087 0711 38000000 		.4byte	.LVL114
 6088 0715 48000000 		.4byte	.LVL117
 6089 0719 0100     		.2byte	0x1
 6090 071b 54       		.byte	0x54
 6091 071c 48000000 		.4byte	.LVL117
 6092 0720 62000000 		.4byte	.LVL120
 6093 0724 0400     		.2byte	0x4
 6094 0726 F3       		.byte	0xf3
 6095 0727 01       		.uleb128 0x1
 6096 0728 50       		.byte	0x50
 6097 0729 9F       		.byte	0x9f
 6098 072a 62000000 		.4byte	.LVL120
 6099 072e 68000000 		.4byte	.LVL122
 6100 0732 0100     		.2byte	0x1
 6101 0734 54       		.byte	0x54
 6102 0735 68000000 		.4byte	.LVL122
 6103 0739 6A000000 		.4byte	.LVL123
 6104 073d 0100     		.2byte	0x1
 6105 073f 50       		.byte	0x50
 6106 0740 6A000000 		.4byte	.LVL123
ARM GAS  C:\Users\Phuong\AppData\Local\Temp\ccVRtur0.s 			page 122


 6107 0744 6C000000 		.4byte	.LVL124
 6108 0748 0100     		.2byte	0x1
 6109 074a 54       		.byte	0x54
 6110 074b 6C000000 		.4byte	.LVL124
 6111 074f 6E000000 		.4byte	.LVL125
 6112 0753 0100     		.2byte	0x1
 6113 0755 50       		.byte	0x50
 6114 0756 6E000000 		.4byte	.LVL125
 6115 075a 70000000 		.4byte	.LVL126
 6116 075e 0100     		.2byte	0x1
 6117 0760 54       		.byte	0x54
 6118 0761 70000000 		.4byte	.LVL126
 6119 0765 8C000000 		.4byte	.LFE7
 6120 0769 0400     		.2byte	0x4
 6121 076b F3       		.byte	0xf3
 6122 076c 01       		.uleb128 0x1
 6123 076d 50       		.byte	0x50
 6124 076e 9F       		.byte	0x9f
 6125 076f 00000000 		.4byte	0
 6126 0773 00000000 		.4byte	0
 6127              	.LLST30:
 6128 0777 00000000 		.4byte	.LVL107
 6129 077b 19000000 		.4byte	.LVL109-1
 6130 077f 0100     		.2byte	0x1
 6131 0781 51       		.byte	0x51
 6132 0782 19000000 		.4byte	.LVL109-1
 6133 0786 36000000 		.4byte	.LVL113
 6134 078a 0100     		.2byte	0x1
 6135 078c 55       		.byte	0x55
 6136 078d 36000000 		.4byte	.LVL113
 6137 0791 3B000000 		.4byte	.LVL115-1
 6138 0795 0100     		.2byte	0x1
 6139 0797 51       		.byte	0x51
 6140 0798 3B000000 		.4byte	.LVL115-1
 6141 079c 68000000 		.4byte	.LVL122
 6142 07a0 0100     		.2byte	0x1
 6143 07a2 55       		.byte	0x55
 6144 07a3 68000000 		.4byte	.LVL122
 6145 07a7 70000000 		.4byte	.LVL126
 6146 07ab 0100     		.2byte	0x1
 6147 07ad 51       		.byte	0x51
 6148 07ae 70000000 		.4byte	.LVL126
 6149 07b2 78000000 		.4byte	.LVL130
 6150 07b6 0100     		.2byte	0x1
 6151 07b8 55       		.byte	0x55
 6152 07b9 78000000 		.4byte	.LVL130
 6153 07bd 8C000000 		.4byte	.LFE7
 6154 07c1 0400     		.2byte	0x4
 6155 07c3 F3       		.byte	0xf3
 6156 07c4 01       		.uleb128 0x1
 6157 07c5 51       		.byte	0x51
 6158 07c6 9F       		.byte	0x9f
 6159 07c7 00000000 		.4byte	0
 6160 07cb 00000000 		.4byte	0
 6161              	.LLST31:
 6162 07cf 64000000 		.4byte	.LVL121
 6163 07d3 68000000 		.4byte	.LVL122
ARM GAS  C:\Users\Phuong\AppData\Local\Temp\ccVRtur0.s 			page 123


 6164 07d7 0200     		.2byte	0x2
 6165 07d9 30       		.byte	0x30
 6166 07da 9F       		.byte	0x9f
 6167 07db 76000000 		.4byte	.LVL129
 6168 07df 8C000000 		.4byte	.LFE7
 6169 07e3 0100     		.2byte	0x1
 6170 07e5 50       		.byte	0x50
 6171 07e6 00000000 		.4byte	0
 6172 07ea 00000000 		.4byte	0
 6173              	.LLST32:
 6174 07ee 10000000 		.4byte	.LVL108
 6175 07f2 19000000 		.4byte	.LVL109-1
 6176 07f6 0100     		.2byte	0x1
 6177 07f8 50       		.byte	0x50
 6178 07f9 19000000 		.4byte	.LVL109-1
 6179 07fd 1C000000 		.4byte	.LVL110
 6180 0801 0100     		.2byte	0x1
 6181 0803 54       		.byte	0x54
 6182 0804 1C000000 		.4byte	.LVL110
 6183 0808 36000000 		.4byte	.LVL113
 6184 080c 0400     		.2byte	0x4
 6185 080e F3       		.byte	0xf3
 6186 080f 01       		.uleb128 0x1
 6187 0810 50       		.byte	0x50
 6188 0811 9F       		.byte	0x9f
 6189 0812 36000000 		.4byte	.LVL113
 6190 0816 38000000 		.4byte	.LVL114
 6191 081a 0100     		.2byte	0x1
 6192 081c 50       		.byte	0x50
 6193 081d 38000000 		.4byte	.LVL114
 6194 0821 48000000 		.4byte	.LVL117
 6195 0825 0100     		.2byte	0x1
 6196 0827 54       		.byte	0x54
 6197 0828 48000000 		.4byte	.LVL117
 6198 082c 62000000 		.4byte	.LVL120
 6199 0830 0400     		.2byte	0x4
 6200 0832 F3       		.byte	0xf3
 6201 0833 01       		.uleb128 0x1
 6202 0834 50       		.byte	0x50
 6203 0835 9F       		.byte	0x9f
 6204 0836 62000000 		.4byte	.LVL120
 6205 083a 68000000 		.4byte	.LVL122
 6206 083e 0100     		.2byte	0x1
 6207 0840 54       		.byte	0x54
 6208 0841 70000000 		.4byte	.LVL126
 6209 0845 76000000 		.4byte	.LVL129
 6210 0849 0400     		.2byte	0x4
 6211 084b F3       		.byte	0xf3
 6212 084c 01       		.uleb128 0x1
 6213 084d 50       		.byte	0x50
 6214 084e 9F       		.byte	0x9f
 6215 084f 00000000 		.4byte	0
 6216 0853 00000000 		.4byte	0
 6217              	.LLST33:
 6218 0857 1C000000 		.4byte	.LVL110
 6219 085b 30000000 		.4byte	.LVL111
 6220 085f 0100     		.2byte	0x1
ARM GAS  C:\Users\Phuong\AppData\Local\Temp\ccVRtur0.s 			page 124


 6221 0861 50       		.byte	0x50
 6222 0862 30000000 		.4byte	.LVL111
 6223 0866 36000000 		.4byte	.LVL113
 6224 086a 0100     		.2byte	0x1
 6225 086c 54       		.byte	0x54
 6226 086d 70000000 		.4byte	.LVL126
 6227 0871 72000000 		.4byte	.LVL127
 6228 0875 0100     		.2byte	0x1
 6229 0877 50       		.byte	0x50
 6230 0878 72000000 		.4byte	.LVL127
 6231 087c 74000000 		.4byte	.LVL128
 6232 0880 0100     		.2byte	0x1
 6233 0882 54       		.byte	0x54
 6234 0883 00000000 		.4byte	0
 6235 0887 00000000 		.4byte	0
 6236              	.LLST34:
 6237 088b 48000000 		.4byte	.LVL117
 6238 088f 5C000000 		.4byte	.LVL118
 6239 0893 0100     		.2byte	0x1
 6240 0895 50       		.byte	0x50
 6241 0896 5C000000 		.4byte	.LVL118
 6242 089a 62000000 		.4byte	.LVL120
 6243 089e 0100     		.2byte	0x1
 6244 08a0 54       		.byte	0x54
 6245 08a1 74000000 		.4byte	.LVL128
 6246 08a5 76000000 		.4byte	.LVL129
 6247 08a9 0100     		.2byte	0x1
 6248 08ab 50       		.byte	0x50
 6249 08ac 00000000 		.4byte	0
 6250 08b0 00000000 		.4byte	0
 6251              	.LLST35:
 6252 08b4 00000000 		.4byte	.LVL131
 6253 08b8 0E000000 		.4byte	.LVL134
 6254 08bc 0100     		.2byte	0x1
 6255 08be 50       		.byte	0x50
 6256 08bf 0E000000 		.4byte	.LVL134
 6257 08c3 10000000 		.4byte	.LVL135
 6258 08c7 0400     		.2byte	0x4
 6259 08c9 F3       		.byte	0xf3
 6260 08ca 01       		.uleb128 0x1
 6261 08cb 50       		.byte	0x50
 6262 08cc 9F       		.byte	0x9f
 6263 08cd 10000000 		.4byte	.LVL135
 6264 08d1 12000000 		.4byte	.LVL136
 6265 08d5 0100     		.2byte	0x1
 6266 08d7 50       		.byte	0x50
 6267 08d8 12000000 		.4byte	.LVL136
 6268 08dc 16000000 		.4byte	.LVL137
 6269 08e0 0400     		.2byte	0x4
 6270 08e2 F3       		.byte	0xf3
 6271 08e3 01       		.uleb128 0x1
 6272 08e4 50       		.byte	0x50
 6273 08e5 9F       		.byte	0x9f
 6274 08e6 16000000 		.4byte	.LVL137
 6275 08ea 18000000 		.4byte	.LVL138
 6276 08ee 0100     		.2byte	0x1
 6277 08f0 50       		.byte	0x50
ARM GAS  C:\Users\Phuong\AppData\Local\Temp\ccVRtur0.s 			page 125


 6278 08f1 18000000 		.4byte	.LVL138
 6279 08f5 1C000000 		.4byte	.LFE8
 6280 08f9 0400     		.2byte	0x4
 6281 08fb F3       		.byte	0xf3
 6282 08fc 01       		.uleb128 0x1
 6283 08fd 50       		.byte	0x50
 6284 08fe 9F       		.byte	0x9f
 6285 08ff 00000000 		.4byte	0
 6286 0903 00000000 		.4byte	0
 6287              	.LLST36:
 6288 0907 0C000000 		.4byte	.LVL133
 6289 090b 10000000 		.4byte	.LVL135
 6290 090f 0200     		.2byte	0x2
 6291 0911 30       		.byte	0x30
 6292 0912 9F       		.byte	0x9f
 6293 0913 1A000000 		.4byte	.LVL139
 6294 0917 1C000000 		.4byte	.LFE8
 6295 091b 0100     		.2byte	0x1
 6296 091d 50       		.byte	0x50
 6297 091e 00000000 		.4byte	0
 6298 0922 00000000 		.4byte	0
 6299              	.LLST37:
 6300 0926 08000000 		.4byte	.LVL132
 6301 092a 0E000000 		.4byte	.LVL134
 6302 092e 0100     		.2byte	0x1
 6303 0930 50       		.byte	0x50
 6304 0931 0E000000 		.4byte	.LVL134
 6305 0935 10000000 		.4byte	.LVL135
 6306 0939 0400     		.2byte	0x4
 6307 093b F3       		.byte	0xf3
 6308 093c 01       		.uleb128 0x1
 6309 093d 50       		.byte	0x50
 6310 093e 9F       		.byte	0x9f
 6311 093f 00000000 		.4byte	0
 6312 0943 00000000 		.4byte	0
 6313              	.LLST38:
 6314 0947 00000000 		.4byte	.LVL140
 6315 094b 11000000 		.4byte	.LVL142-1
 6316 094f 0100     		.2byte	0x1
 6317 0951 50       		.byte	0x50
 6318 0952 11000000 		.4byte	.LVL142-1
 6319 0956 3C000000 		.4byte	.LVL148
 6320 095a 0100     		.2byte	0x1
 6321 095c 54       		.byte	0x54
 6322 095d 3C000000 		.4byte	.LVL148
 6323 0961 3E000000 		.4byte	.LVL149
 6324 0965 0100     		.2byte	0x1
 6325 0967 50       		.byte	0x50
 6326 0968 3E000000 		.4byte	.LVL149
 6327 096c 42000000 		.4byte	.LVL150
 6328 0970 0100     		.2byte	0x1
 6329 0972 54       		.byte	0x54
 6330 0973 42000000 		.4byte	.LVL150
 6331 0977 44000000 		.4byte	.LVL151
 6332 097b 0100     		.2byte	0x1
 6333 097d 50       		.byte	0x50
 6334 097e 44000000 		.4byte	.LVL151
ARM GAS  C:\Users\Phuong\AppData\Local\Temp\ccVRtur0.s 			page 126


 6335 0982 48000000 		.4byte	.LVL153
 6336 0986 0100     		.2byte	0x1
 6337 0988 54       		.byte	0x54
 6338 0989 48000000 		.4byte	.LVL153
 6339 098d 58000000 		.4byte	.LFE9
 6340 0991 0400     		.2byte	0x4
 6341 0993 F3       		.byte	0xf3
 6342 0994 01       		.uleb128 0x1
 6343 0995 50       		.byte	0x50
 6344 0996 9F       		.byte	0x9f
 6345 0997 00000000 		.4byte	0
 6346 099b 00000000 		.4byte	0
 6347              	.LLST39:
 6348 099f 38000000 		.4byte	.LVL147
 6349 09a3 3C000000 		.4byte	.LVL148
 6350 09a7 0200     		.2byte	0x2
 6351 09a9 30       		.byte	0x30
 6352 09aa 9F       		.byte	0x9f
 6353 09ab 46000000 		.4byte	.LVL152
 6354 09af 58000000 		.4byte	.LFE9
 6355 09b3 0100     		.2byte	0x1
 6356 09b5 50       		.byte	0x50
 6357 09b6 00000000 		.4byte	0
 6358 09ba 00000000 		.4byte	0
 6359              	.LLST40:
 6360 09be 08000000 		.4byte	.LVL141
 6361 09c2 11000000 		.4byte	.LVL142-1
 6362 09c6 0100     		.2byte	0x1
 6363 09c8 50       		.byte	0x50
 6364 09c9 11000000 		.4byte	.LVL142-1
 6365 09cd 3C000000 		.4byte	.LVL148
 6366 09d1 0100     		.2byte	0x1
 6367 09d3 54       		.byte	0x54
 6368 09d4 42000000 		.4byte	.LVL150
 6369 09d8 44000000 		.4byte	.LVL151
 6370 09dc 0100     		.2byte	0x1
 6371 09de 50       		.byte	0x50
 6372 09df 44000000 		.4byte	.LVL151
 6373 09e3 46000000 		.4byte	.LVL152
 6374 09e7 0100     		.2byte	0x1
 6375 09e9 54       		.byte	0x54
 6376 09ea 00000000 		.4byte	0
 6377 09ee 00000000 		.4byte	0
 6378              	.LLST41:
 6379 09f2 14000000 		.4byte	.LVL143
 6380 09f6 2A000000 		.4byte	.LVL144
 6381 09fa 0100     		.2byte	0x1
 6382 09fc 50       		.byte	0x50
 6383 09fd 2A000000 		.4byte	.LVL144
 6384 0a01 3C000000 		.4byte	.LVL148
 6385 0a05 0100     		.2byte	0x1
 6386 0a07 55       		.byte	0x55
 6387 0a08 00000000 		.4byte	0
 6388 0a0c 00000000 		.4byte	0
 6389              	.LLST42:
 6390 0a10 00000000 		.4byte	.LVL154
 6391 0a14 0F000000 		.4byte	.LVL155-1
ARM GAS  C:\Users\Phuong\AppData\Local\Temp\ccVRtur0.s 			page 127


 6392 0a18 0100     		.2byte	0x1
 6393 0a1a 50       		.byte	0x50
 6394 0a1b 0F000000 		.4byte	.LVL155-1
 6395 0a1f 12000000 		.4byte	.LVL156
 6396 0a23 0100     		.2byte	0x1
 6397 0a25 54       		.byte	0x54
 6398 0a26 12000000 		.4byte	.LVL156
 6399 0a2a 30000000 		.4byte	.LVL159
 6400 0a2e 0400     		.2byte	0x4
 6401 0a30 F3       		.byte	0xf3
 6402 0a31 01       		.uleb128 0x1
 6403 0a32 50       		.byte	0x50
 6404 0a33 9F       		.byte	0x9f
 6405 0a34 30000000 		.4byte	.LVL159
 6406 0a38 37000000 		.4byte	.LVL160-1
 6407 0a3c 0100     		.2byte	0x1
 6408 0a3e 50       		.byte	0x50
 6409 0a3f 37000000 		.4byte	.LVL160-1
 6410 0a43 3A000000 		.4byte	.LVL161
 6411 0a47 0100     		.2byte	0x1
 6412 0a49 54       		.byte	0x54
 6413 0a4a 3A000000 		.4byte	.LVL161
 6414 0a4e 58000000 		.4byte	.LVL164
 6415 0a52 0400     		.2byte	0x4
 6416 0a54 F3       		.byte	0xf3
 6417 0a55 01       		.uleb128 0x1
 6418 0a56 50       		.byte	0x50
 6419 0a57 9F       		.byte	0x9f
 6420 0a58 58000000 		.4byte	.LVL164
 6421 0a5c 5E000000 		.4byte	.LVL166
 6422 0a60 0100     		.2byte	0x1
 6423 0a62 50       		.byte	0x50
 6424 0a63 5E000000 		.4byte	.LVL166
 6425 0a67 6C000000 		.4byte	.LVL169
 6426 0a6b 0100     		.2byte	0x1
 6427 0a6d 54       		.byte	0x54
 6428 0a6e 6C000000 		.4byte	.LVL169
 6429 0a72 8A000000 		.4byte	.LVL172
 6430 0a76 0400     		.2byte	0x4
 6431 0a78 F3       		.byte	0xf3
 6432 0a79 01       		.uleb128 0x1
 6433 0a7a 50       		.byte	0x50
 6434 0a7b 9F       		.byte	0x9f
 6435 0a7c 8A000000 		.4byte	.LVL172
 6436 0a80 98000000 		.4byte	.LVL176
 6437 0a84 0100     		.2byte	0x1
 6438 0a86 54       		.byte	0x54
 6439 0a87 98000000 		.4byte	.LVL176
 6440 0a8b C0000000 		.4byte	.LFE10
 6441 0a8f 0400     		.2byte	0x4
 6442 0a91 F3       		.byte	0xf3
 6443 0a92 01       		.uleb128 0x1
 6444 0a93 50       		.byte	0x50
 6445 0a94 9F       		.byte	0x9f
 6446 0a95 00000000 		.4byte	0
 6447 0a99 00000000 		.4byte	0
 6448              	.LLST43:
ARM GAS  C:\Users\Phuong\AppData\Local\Temp\ccVRtur0.s 			page 128


 6449 0a9d 00000000 		.4byte	.LVL154
 6450 0aa1 0F000000 		.4byte	.LVL155-1
 6451 0aa5 0100     		.2byte	0x1
 6452 0aa7 51       		.byte	0x51
 6453 0aa8 0F000000 		.4byte	.LVL155-1
 6454 0aac 30000000 		.4byte	.LVL159
 6455 0ab0 0100     		.2byte	0x1
 6456 0ab2 55       		.byte	0x55
 6457 0ab3 30000000 		.4byte	.LVL159
 6458 0ab7 37000000 		.4byte	.LVL160-1
 6459 0abb 0100     		.2byte	0x1
 6460 0abd 51       		.byte	0x51
 6461 0abe 37000000 		.4byte	.LVL160-1
 6462 0ac2 58000000 		.4byte	.LVL164
 6463 0ac6 0100     		.2byte	0x1
 6464 0ac8 55       		.byte	0x55
 6465 0ac9 58000000 		.4byte	.LVL164
 6466 0acd 5C000000 		.4byte	.LVL165
 6467 0ad1 0100     		.2byte	0x1
 6468 0ad3 51       		.byte	0x51
 6469 0ad4 5C000000 		.4byte	.LVL165
 6470 0ad8 92000000 		.4byte	.LVL173
 6471 0adc 0100     		.2byte	0x1
 6472 0ade 55       		.byte	0x55
 6473 0adf 92000000 		.4byte	.LVL173
 6474 0ae3 98000000 		.4byte	.LVL176
 6475 0ae7 0400     		.2byte	0x4
 6476 0ae9 F3       		.byte	0xf3
 6477 0aea 01       		.uleb128 0x1
 6478 0aeb 51       		.byte	0x51
 6479 0aec 9F       		.byte	0x9f
 6480 0aed 98000000 		.4byte	.LVL176
 6481 0af1 A8000000 		.4byte	.LVL182
 6482 0af5 0100     		.2byte	0x1
 6483 0af7 55       		.byte	0x55
 6484 0af8 A8000000 		.4byte	.LVL182
 6485 0afc C0000000 		.4byte	.LFE10
 6486 0b00 0400     		.2byte	0x4
 6487 0b02 F3       		.byte	0xf3
 6488 0b03 01       		.uleb128 0x1
 6489 0b04 51       		.byte	0x51
 6490 0b05 9F       		.byte	0x9f
 6491 0b06 00000000 		.4byte	0
 6492 0b0a 00000000 		.4byte	0
 6493              	.LLST44:
 6494 0b0e 94000000 		.4byte	.LVL174
 6495 0b12 98000000 		.4byte	.LVL176
 6496 0b16 0200     		.2byte	0x2
 6497 0b18 30       		.byte	0x30
 6498 0b19 9F       		.byte	0x9f
 6499 0b1a A8000000 		.4byte	.LVL182
 6500 0b1e C0000000 		.4byte	.LFE10
 6501 0b22 0100     		.2byte	0x1
 6502 0b24 50       		.byte	0x50
 6503 0b25 00000000 		.4byte	0
 6504 0b29 00000000 		.4byte	0
 6505              	.LLST45:
ARM GAS  C:\Users\Phuong\AppData\Local\Temp\ccVRtur0.s 			page 129


 6506 0b2d 12000000 		.4byte	.LVL156
 6507 0b31 28000000 		.4byte	.LVL157
 6508 0b35 0100     		.2byte	0x1
 6509 0b37 50       		.byte	0x50
 6510 0b38 28000000 		.4byte	.LVL157
 6511 0b3c 30000000 		.4byte	.LVL159
 6512 0b40 0100     		.2byte	0x1
 6513 0b42 54       		.byte	0x54
 6514 0b43 98000000 		.4byte	.LVL176
 6515 0b47 9A000000 		.4byte	.LVL177
 6516 0b4b 0100     		.2byte	0x1
 6517 0b4d 50       		.byte	0x50
 6518 0b4e 9A000000 		.4byte	.LVL177
 6519 0b52 9E000000 		.4byte	.LVL178
 6520 0b56 0100     		.2byte	0x1
 6521 0b58 54       		.byte	0x54
 6522 0b59 00000000 		.4byte	0
 6523 0b5d 00000000 		.4byte	0
 6524              	.LLST46:
 6525 0b61 3A000000 		.4byte	.LVL161
 6526 0b65 50000000 		.4byte	.LVL162
 6527 0b69 0100     		.2byte	0x1
 6528 0b6b 50       		.byte	0x50
 6529 0b6c 50000000 		.4byte	.LVL162
 6530 0b70 58000000 		.4byte	.LVL164
 6531 0b74 0100     		.2byte	0x1
 6532 0b76 54       		.byte	0x54
 6533 0b77 9E000000 		.4byte	.LVL178
 6534 0b7b A0000000 		.4byte	.LVL179
 6535 0b7f 0100     		.2byte	0x1
 6536 0b81 50       		.byte	0x50
 6537 0b82 A0000000 		.4byte	.LVL179
 6538 0b86 A4000000 		.4byte	.LVL180
 6539 0b8a 0100     		.2byte	0x1
 6540 0b8c 54       		.byte	0x54
 6541 0b8d 00000000 		.4byte	0
 6542 0b91 00000000 		.4byte	0
 6543              	.LLST47:
 6544 0b95 58000000 		.4byte	.LVL164
 6545 0b99 5E000000 		.4byte	.LVL166
 6546 0b9d 0100     		.2byte	0x1
 6547 0b9f 50       		.byte	0x50
 6548 0ba0 5E000000 		.4byte	.LVL166
 6549 0ba4 6C000000 		.4byte	.LVL169
 6550 0ba8 0100     		.2byte	0x1
 6551 0baa 54       		.byte	0x54
 6552 0bab 6C000000 		.4byte	.LVL169
 6553 0baf 8A000000 		.4byte	.LVL172
 6554 0bb3 0400     		.2byte	0x4
 6555 0bb5 F3       		.byte	0xf3
 6556 0bb6 01       		.uleb128 0x1
 6557 0bb7 50       		.byte	0x50
 6558 0bb8 9F       		.byte	0x9f
 6559 0bb9 8A000000 		.4byte	.LVL172
 6560 0bbd 98000000 		.4byte	.LVL176
 6561 0bc1 0100     		.2byte	0x1
 6562 0bc3 54       		.byte	0x54
ARM GAS  C:\Users\Phuong\AppData\Local\Temp\ccVRtur0.s 			page 130


 6563 0bc4 A4000000 		.4byte	.LVL180
 6564 0bc8 A8000000 		.4byte	.LVL182
 6565 0bcc 0400     		.2byte	0x4
 6566 0bce F3       		.byte	0xf3
 6567 0bcf 01       		.uleb128 0x1
 6568 0bd0 50       		.byte	0x50
 6569 0bd1 9F       		.byte	0x9f
 6570 0bd2 00000000 		.4byte	0
 6571 0bd6 00000000 		.4byte	0
 6572              	.LLST48:
 6573 0bda 62000000 		.4byte	.LVL167
 6574 0bde 69000000 		.4byte	.LVL168-1
 6575 0be2 0100     		.2byte	0x1
 6576 0be4 50       		.byte	0x50
 6577 0be5 8A000000 		.4byte	.LVL172
 6578 0be9 96000000 		.4byte	.LVL175
 6579 0bed 0100     		.2byte	0x1
 6580 0bef 50       		.byte	0x50
 6581 0bf0 96000000 		.4byte	.LVL175
 6582 0bf4 98000000 		.4byte	.LVL176
 6583 0bf8 0200     		.2byte	0x2
 6584 0bfa 74       		.byte	0x74
 6585 0bfb 00       		.sleb128 0
 6586 0bfc 00000000 		.4byte	0
 6587 0c00 00000000 		.4byte	0
 6588              	.LLST49:
 6589 0c04 6C000000 		.4byte	.LVL169
 6590 0c08 82000000 		.4byte	.LVL170
 6591 0c0c 0100     		.2byte	0x1
 6592 0c0e 50       		.byte	0x50
 6593 0c0f 82000000 		.4byte	.LVL170
 6594 0c13 8A000000 		.4byte	.LVL172
 6595 0c17 0100     		.2byte	0x1
 6596 0c19 54       		.byte	0x54
 6597 0c1a A4000000 		.4byte	.LVL180
 6598 0c1e A6000000 		.4byte	.LVL181
 6599 0c22 0100     		.2byte	0x1
 6600 0c24 50       		.byte	0x50
 6601 0c25 A6000000 		.4byte	.LVL181
 6602 0c29 A8000000 		.4byte	.LVL182
 6603 0c2d 0100     		.2byte	0x1
 6604 0c2f 54       		.byte	0x54
 6605 0c30 00000000 		.4byte	0
 6606 0c34 00000000 		.4byte	0
 6607              	.LLST50:
 6608 0c38 00000000 		.4byte	.LVL183
 6609 0c3c 11000000 		.4byte	.LVL184-1
 6610 0c40 0100     		.2byte	0x1
 6611 0c42 50       		.byte	0x50
 6612 0c43 11000000 		.4byte	.LVL184-1
 6613 0c47 14000000 		.4byte	.LVL185
 6614 0c4b 0100     		.2byte	0x1
 6615 0c4d 54       		.byte	0x54
 6616 0c4e 14000000 		.4byte	.LVL185
 6617 0c52 32000000 		.4byte	.LVL188
 6618 0c56 0400     		.2byte	0x4
 6619 0c58 F3       		.byte	0xf3
ARM GAS  C:\Users\Phuong\AppData\Local\Temp\ccVRtur0.s 			page 131


 6620 0c59 01       		.uleb128 0x1
 6621 0c5a 50       		.byte	0x50
 6622 0c5b 9F       		.byte	0x9f
 6623 0c5c 32000000 		.4byte	.LVL188
 6624 0c60 39000000 		.4byte	.LVL189-1
 6625 0c64 0100     		.2byte	0x1
 6626 0c66 50       		.byte	0x50
 6627 0c67 39000000 		.4byte	.LVL189-1
 6628 0c6b 3C000000 		.4byte	.LVL190
 6629 0c6f 0100     		.2byte	0x1
 6630 0c71 54       		.byte	0x54
 6631 0c72 3C000000 		.4byte	.LVL190
 6632 0c76 5A000000 		.4byte	.LVL193
 6633 0c7a 0400     		.2byte	0x4
 6634 0c7c F3       		.byte	0xf3
 6635 0c7d 01       		.uleb128 0x1
 6636 0c7e 50       		.byte	0x50
 6637 0c7f 9F       		.byte	0x9f
 6638 0c80 5A000000 		.4byte	.LVL193
 6639 0c84 5C000000 		.4byte	.LVL194
 6640 0c88 0100     		.2byte	0x1
 6641 0c8a 50       		.byte	0x50
 6642 0c8b 5C000000 		.4byte	.LVL194
 6643 0c8f 66000000 		.4byte	.LVL196
 6644 0c93 0100     		.2byte	0x1
 6645 0c95 54       		.byte	0x54
 6646 0c96 66000000 		.4byte	.LVL196
 6647 0c9a 84000000 		.4byte	.LVL199
 6648 0c9e 0400     		.2byte	0x4
 6649 0ca0 F3       		.byte	0xf3
 6650 0ca1 01       		.uleb128 0x1
 6651 0ca2 50       		.byte	0x50
 6652 0ca3 9F       		.byte	0x9f
 6653 0ca4 84000000 		.4byte	.LVL199
 6654 0ca8 A8000000 		.4byte	.LVL207
 6655 0cac 0100     		.2byte	0x1
 6656 0cae 54       		.byte	0x54
 6657 0caf A8000000 		.4byte	.LVL207
 6658 0cb3 C6000000 		.4byte	.LVL210
 6659 0cb7 0400     		.2byte	0x4
 6660 0cb9 F3       		.byte	0xf3
 6661 0cba 01       		.uleb128 0x1
 6662 0cbb 50       		.byte	0x50
 6663 0cbc 9F       		.byte	0x9f
 6664 0cbd C6000000 		.4byte	.LVL210
 6665 0cc1 FA000000 		.4byte	.LVL218
 6666 0cc5 0100     		.2byte	0x1
 6667 0cc7 54       		.byte	0x54
 6668 0cc8 FA000000 		.4byte	.LVL218
 6669 0ccc 2C010000 		.4byte	.LFE11
 6670 0cd0 0400     		.2byte	0x4
 6671 0cd2 F3       		.byte	0xf3
 6672 0cd3 01       		.uleb128 0x1
 6673 0cd4 50       		.byte	0x50
 6674 0cd5 9F       		.byte	0x9f
 6675 0cd6 00000000 		.4byte	0
 6676 0cda 00000000 		.4byte	0
ARM GAS  C:\Users\Phuong\AppData\Local\Temp\ccVRtur0.s 			page 132


 6677              	.LLST51:
 6678 0cde 00000000 		.4byte	.LVL183
 6679 0ce2 11000000 		.4byte	.LVL184-1
 6680 0ce6 0100     		.2byte	0x1
 6681 0ce8 51       		.byte	0x51
 6682 0ce9 11000000 		.4byte	.LVL184-1
 6683 0ced 32000000 		.4byte	.LVL188
 6684 0cf1 0100     		.2byte	0x1
 6685 0cf3 57       		.byte	0x57
 6686 0cf4 32000000 		.4byte	.LVL188
 6687 0cf8 39000000 		.4byte	.LVL189-1
 6688 0cfc 0100     		.2byte	0x1
 6689 0cfe 51       		.byte	0x51
 6690 0cff 39000000 		.4byte	.LVL189-1
 6691 0d03 5A000000 		.4byte	.LVL193
 6692 0d07 0100     		.2byte	0x1
 6693 0d09 57       		.byte	0x57
 6694 0d0a 5A000000 		.4byte	.LVL193
 6695 0d0e 63000000 		.4byte	.LVL195-1
 6696 0d12 0100     		.2byte	0x1
 6697 0d14 51       		.byte	0x51
 6698 0d15 63000000 		.4byte	.LVL195-1
 6699 0d19 84000000 		.4byte	.LVL199
 6700 0d1d 0100     		.2byte	0x1
 6701 0d1f 57       		.byte	0x57
 6702 0d20 84000000 		.4byte	.LVL199
 6703 0d24 8D000000 		.4byte	.LVL201-1
 6704 0d28 0100     		.2byte	0x1
 6705 0d2a 51       		.byte	0x51
 6706 0d2b 8D000000 		.4byte	.LVL201-1
 6707 0d2f 98000000 		.4byte	.LVL203
 6708 0d33 0100     		.2byte	0x1
 6709 0d35 57       		.byte	0x57
 6710 0d36 98000000 		.4byte	.LVL203
 6711 0d3a 9D000000 		.4byte	.LVL204-1
 6712 0d3e 0100     		.2byte	0x1
 6713 0d40 51       		.byte	0x51
 6714 0d41 9D000000 		.4byte	.LVL204-1
 6715 0d45 12010000 		.4byte	.LVL227
 6716 0d49 0100     		.2byte	0x1
 6717 0d4b 57       		.byte	0x57
 6718 0d4c 12010000 		.4byte	.LVL227
 6719 0d50 2C010000 		.4byte	.LFE11
 6720 0d54 0400     		.2byte	0x4
 6721 0d56 F3       		.byte	0xf3
 6722 0d57 01       		.uleb128 0x1
 6723 0d58 51       		.byte	0x51
 6724 0d59 9F       		.byte	0x9f
 6725 0d5a 00000000 		.4byte	0
 6726 0d5e 00000000 		.4byte	0
 6727              	.LLST52:
 6728 0d62 00000000 		.4byte	.LVL183
 6729 0d66 11000000 		.4byte	.LVL184-1
 6730 0d6a 0100     		.2byte	0x1
 6731 0d6c 52       		.byte	0x52
 6732 0d6d 11000000 		.4byte	.LVL184-1
 6733 0d71 32000000 		.4byte	.LVL188
ARM GAS  C:\Users\Phuong\AppData\Local\Temp\ccVRtur0.s 			page 133


 6734 0d75 0400     		.2byte	0x4
 6735 0d77 F3       		.byte	0xf3
 6736 0d78 01       		.uleb128 0x1
 6737 0d79 52       		.byte	0x52
 6738 0d7a 9F       		.byte	0x9f
 6739 0d7b 32000000 		.4byte	.LVL188
 6740 0d7f 39000000 		.4byte	.LVL189-1
 6741 0d83 0100     		.2byte	0x1
 6742 0d85 52       		.byte	0x52
 6743 0d86 39000000 		.4byte	.LVL189-1
 6744 0d8a 5A000000 		.4byte	.LVL193
 6745 0d8e 0400     		.2byte	0x4
 6746 0d90 F3       		.byte	0xf3
 6747 0d91 01       		.uleb128 0x1
 6748 0d92 52       		.byte	0x52
 6749 0d93 9F       		.byte	0x9f
 6750 0d94 5A000000 		.4byte	.LVL193
 6751 0d98 63000000 		.4byte	.LVL195-1
 6752 0d9c 0100     		.2byte	0x1
 6753 0d9e 52       		.byte	0x52
 6754 0d9f 63000000 		.4byte	.LVL195-1
 6755 0da3 84000000 		.4byte	.LVL199
 6756 0da7 0400     		.2byte	0x4
 6757 0da9 F3       		.byte	0xf3
 6758 0daa 01       		.uleb128 0x1
 6759 0dab 52       		.byte	0x52
 6760 0dac 9F       		.byte	0x9f
 6761 0dad 84000000 		.4byte	.LVL199
 6762 0db1 8D000000 		.4byte	.LVL201-1
 6763 0db5 0100     		.2byte	0x1
 6764 0db7 52       		.byte	0x52
 6765 0db8 8D000000 		.4byte	.LVL201-1
 6766 0dbc 98000000 		.4byte	.LVL203
 6767 0dc0 0400     		.2byte	0x4
 6768 0dc2 F3       		.byte	0xf3
 6769 0dc3 01       		.uleb128 0x1
 6770 0dc4 52       		.byte	0x52
 6771 0dc5 9F       		.byte	0x9f
 6772 0dc6 98000000 		.4byte	.LVL203
 6773 0dca 9D000000 		.4byte	.LVL204-1
 6774 0dce 0100     		.2byte	0x1
 6775 0dd0 52       		.byte	0x52
 6776 0dd1 9D000000 		.4byte	.LVL204-1
 6777 0dd5 2C010000 		.4byte	.LFE11
 6778 0dd9 0400     		.2byte	0x4
 6779 0ddb F3       		.byte	0xf3
 6780 0ddc 01       		.uleb128 0x1
 6781 0ddd 52       		.byte	0x52
 6782 0dde 9F       		.byte	0x9f
 6783 0ddf 00000000 		.4byte	0
 6784 0de3 00000000 		.4byte	0
 6785              	.LLST53:
 6786 0de7 94000000 		.4byte	.LVL202
 6787 0deb 98000000 		.4byte	.LVL203
 6788 0def 0200     		.2byte	0x2
 6789 0df1 30       		.byte	0x30
 6790 0df2 9F       		.byte	0x9f
ARM GAS  C:\Users\Phuong\AppData\Local\Temp\ccVRtur0.s 			page 134


 6791 0df3 DE000000 		.4byte	.LVL213
 6792 0df7 E2000000 		.4byte	.LVL214
 6793 0dfb 0200     		.2byte	0x2
 6794 0dfd 30       		.byte	0x30
 6795 0dfe 9F       		.byte	0x9f
 6796 0dff F6000000 		.4byte	.LVL217
 6797 0e03 FA000000 		.4byte	.LVL218
 6798 0e07 0200     		.2byte	0x2
 6799 0e09 30       		.byte	0x30
 6800 0e0a 9F       		.byte	0x9f
 6801 0e0b 10010000 		.4byte	.LVL226
 6802 0e0f 2C010000 		.4byte	.LFE11
 6803 0e13 0100     		.2byte	0x1
 6804 0e15 50       		.byte	0x50
 6805 0e16 00000000 		.4byte	0
 6806 0e1a 00000000 		.4byte	0
 6807              	.LLST54:
 6808 0e1e 14000000 		.4byte	.LVL185
 6809 0e22 2A000000 		.4byte	.LVL186
 6810 0e26 0100     		.2byte	0x1
 6811 0e28 50       		.byte	0x50
 6812 0e29 2A000000 		.4byte	.LVL186
 6813 0e2d 32000000 		.4byte	.LVL188
 6814 0e31 0100     		.2byte	0x1
 6815 0e33 54       		.byte	0x54
 6816 0e34 FA000000 		.4byte	.LVL218
 6817 0e38 FC000000 		.4byte	.LVL219
 6818 0e3c 0100     		.2byte	0x1
 6819 0e3e 50       		.byte	0x50
 6820 0e3f FC000000 		.4byte	.LVL219
 6821 0e43 00010000 		.4byte	.LVL220
 6822 0e47 0100     		.2byte	0x1
 6823 0e49 54       		.byte	0x54
 6824 0e4a 00000000 		.4byte	0
 6825 0e4e 00000000 		.4byte	0
 6826              	.LLST55:
 6827 0e52 3C000000 		.4byte	.LVL190
 6828 0e56 52000000 		.4byte	.LVL191
 6829 0e5a 0100     		.2byte	0x1
 6830 0e5c 50       		.byte	0x50
 6831 0e5d 52000000 		.4byte	.LVL191
 6832 0e61 5A000000 		.4byte	.LVL193
 6833 0e65 0100     		.2byte	0x1
 6834 0e67 54       		.byte	0x54
 6835 0e68 00010000 		.4byte	.LVL220
 6836 0e6c 02010000 		.4byte	.LVL221
 6837 0e70 0100     		.2byte	0x1
 6838 0e72 50       		.byte	0x50
 6839 0e73 02010000 		.4byte	.LVL221
 6840 0e77 06010000 		.4byte	.LVL222
 6841 0e7b 0100     		.2byte	0x1
 6842 0e7d 54       		.byte	0x54
 6843 0e7e 00000000 		.4byte	0
 6844 0e82 00000000 		.4byte	0
 6845              	.LLST56:
 6846 0e86 66000000 		.4byte	.LVL196
 6847 0e8a 7C000000 		.4byte	.LVL197
ARM GAS  C:\Users\Phuong\AppData\Local\Temp\ccVRtur0.s 			page 135


 6848 0e8e 0100     		.2byte	0x1
 6849 0e90 50       		.byte	0x50
 6850 0e91 7C000000 		.4byte	.LVL197
 6851 0e95 84000000 		.4byte	.LVL199
 6852 0e99 0100     		.2byte	0x1
 6853 0e9b 54       		.byte	0x54
 6854 0e9c 06010000 		.4byte	.LVL222
 6855 0ea0 08010000 		.4byte	.LVL223
 6856 0ea4 0100     		.2byte	0x1
 6857 0ea6 50       		.byte	0x50
 6858 0ea7 08010000 		.4byte	.LVL223
 6859 0eab 0C010000 		.4byte	.LVL224
 6860 0eaf 0100     		.2byte	0x1
 6861 0eb1 54       		.byte	0x54
 6862 0eb2 00000000 		.4byte	0
 6863 0eb6 00000000 		.4byte	0
 6864              	.LLST57:
 6865 0eba 86000000 		.4byte	.LVL200
 6866 0ebe FA000000 		.4byte	.LVL218
 6867 0ec2 0100     		.2byte	0x1
 6868 0ec4 55       		.byte	0x55
 6869 0ec5 0C010000 		.4byte	.LVL224
 6870 0ec9 10010000 		.4byte	.LVL226
 6871 0ecd 0100     		.2byte	0x1
 6872 0ecf 55       		.byte	0x55
 6873 0ed0 00000000 		.4byte	0
 6874 0ed4 00000000 		.4byte	0
 6875              	.LLST58:
 6876 0ed8 A0000000 		.4byte	.LVL205
 6877 0edc A5000000 		.4byte	.LVL206-1
 6878 0ee0 0100     		.2byte	0x1
 6879 0ee2 50       		.byte	0x50
 6880 0ee3 A5000000 		.4byte	.LVL206-1
 6881 0ee7 C6000000 		.4byte	.LVL210
 6882 0eeb 0100     		.2byte	0x1
 6883 0eed 56       		.byte	0x56
 6884 0eee C6000000 		.4byte	.LVL210
 6885 0ef2 D3000000 		.4byte	.LVL211-1
 6886 0ef6 0100     		.2byte	0x1
 6887 0ef8 50       		.byte	0x50
 6888 0ef9 D3000000 		.4byte	.LVL211-1
 6889 0efd E2000000 		.4byte	.LVL214
 6890 0f01 0100     		.2byte	0x1
 6891 0f03 56       		.byte	0x56
 6892 0f04 E2000000 		.4byte	.LVL214
 6893 0f08 EB000000 		.4byte	.LVL215-1
 6894 0f0c 0100     		.2byte	0x1
 6895 0f0e 50       		.byte	0x50
 6896 0f0f EB000000 		.4byte	.LVL215-1
 6897 0f13 FA000000 		.4byte	.LVL218
 6898 0f17 0100     		.2byte	0x1
 6899 0f19 56       		.byte	0x56
 6900 0f1a 0C010000 		.4byte	.LVL224
 6901 0f1e 10010000 		.4byte	.LVL226
 6902 0f22 0100     		.2byte	0x1
 6903 0f24 56       		.byte	0x56
 6904 0f25 00000000 		.4byte	0
ARM GAS  C:\Users\Phuong\AppData\Local\Temp\ccVRtur0.s 			page 136


 6905 0f29 00000000 		.4byte	0
 6906              	.LLST59:
 6907 0f2d A8000000 		.4byte	.LVL207
 6908 0f31 BE000000 		.4byte	.LVL208
 6909 0f35 0100     		.2byte	0x1
 6910 0f37 50       		.byte	0x50
 6911 0f38 BE000000 		.4byte	.LVL208
 6912 0f3c C6000000 		.4byte	.LVL210
 6913 0f40 0100     		.2byte	0x1
 6914 0f42 54       		.byte	0x54
 6915 0f43 0C010000 		.4byte	.LVL224
 6916 0f47 0E010000 		.4byte	.LVL225
 6917 0f4b 0100     		.2byte	0x1
 6918 0f4d 50       		.byte	0x50
 6919 0f4e 0E010000 		.4byte	.LVL225
 6920 0f52 10010000 		.4byte	.LVL226
 6921 0f56 0100     		.2byte	0x1
 6922 0f58 54       		.byte	0x54
 6923 0f59 00000000 		.4byte	0
 6924 0f5d 00000000 		.4byte	0
 6925              	.LLST60:
 6926 0f61 00000000 		.4byte	.LVL228
 6927 0f65 0E000000 		.4byte	.LVL231
 6928 0f69 0100     		.2byte	0x1
 6929 0f6b 50       		.byte	0x50
 6930 0f6c 0E000000 		.4byte	.LVL231
 6931 0f70 10000000 		.4byte	.LVL232
 6932 0f74 0400     		.2byte	0x4
 6933 0f76 F3       		.byte	0xf3
 6934 0f77 01       		.uleb128 0x1
 6935 0f78 50       		.byte	0x50
 6936 0f79 9F       		.byte	0x9f
 6937 0f7a 10000000 		.4byte	.LVL232
 6938 0f7e 12000000 		.4byte	.LVL233
 6939 0f82 0100     		.2byte	0x1
 6940 0f84 50       		.byte	0x50
 6941 0f85 12000000 		.4byte	.LVL233
 6942 0f89 16000000 		.4byte	.LVL234
 6943 0f8d 0400     		.2byte	0x4
 6944 0f8f F3       		.byte	0xf3
 6945 0f90 01       		.uleb128 0x1
 6946 0f91 50       		.byte	0x50
 6947 0f92 9F       		.byte	0x9f
 6948 0f93 16000000 		.4byte	.LVL234
 6949 0f97 18000000 		.4byte	.LVL235
 6950 0f9b 0100     		.2byte	0x1
 6951 0f9d 50       		.byte	0x50
 6952 0f9e 18000000 		.4byte	.LVL235
 6953 0fa2 1C000000 		.4byte	.LFE12
 6954 0fa6 0400     		.2byte	0x4
 6955 0fa8 F3       		.byte	0xf3
 6956 0fa9 01       		.uleb128 0x1
 6957 0faa 50       		.byte	0x50
 6958 0fab 9F       		.byte	0x9f
 6959 0fac 00000000 		.4byte	0
 6960 0fb0 00000000 		.4byte	0
 6961              	.LLST61:
ARM GAS  C:\Users\Phuong\AppData\Local\Temp\ccVRtur0.s 			page 137


 6962 0fb4 0C000000 		.4byte	.LVL230
 6963 0fb8 10000000 		.4byte	.LVL232
 6964 0fbc 0200     		.2byte	0x2
 6965 0fbe 30       		.byte	0x30
 6966 0fbf 9F       		.byte	0x9f
 6967 0fc0 1A000000 		.4byte	.LVL236
 6968 0fc4 1C000000 		.4byte	.LFE12
 6969 0fc8 0100     		.2byte	0x1
 6970 0fca 50       		.byte	0x50
 6971 0fcb 00000000 		.4byte	0
 6972 0fcf 00000000 		.4byte	0
 6973              	.LLST62:
 6974 0fd3 08000000 		.4byte	.LVL229
 6975 0fd7 0E000000 		.4byte	.LVL231
 6976 0fdb 0100     		.2byte	0x1
 6977 0fdd 50       		.byte	0x50
 6978 0fde 0E000000 		.4byte	.LVL231
 6979 0fe2 10000000 		.4byte	.LVL232
 6980 0fe6 0400     		.2byte	0x4
 6981 0fe8 F3       		.byte	0xf3
 6982 0fe9 01       		.uleb128 0x1
 6983 0fea 50       		.byte	0x50
 6984 0feb 9F       		.byte	0x9f
 6985 0fec 00000000 		.4byte	0
 6986 0ff0 00000000 		.4byte	0
 6987              	.LLST63:
 6988 0ff4 00000000 		.4byte	.LVL237
 6989 0ff8 16000000 		.4byte	.LVL239
 6990 0ffc 0100     		.2byte	0x1
 6991 0ffe 50       		.byte	0x50
 6992 0fff 16000000 		.4byte	.LVL239
 6993 1003 3A000000 		.4byte	.LVL243
 6994 1007 0100     		.2byte	0x1
 6995 1009 54       		.byte	0x54
 6996 100a 3A000000 		.4byte	.LVL243
 6997 100e 58000000 		.4byte	.LVL246
 6998 1012 0400     		.2byte	0x4
 6999 1014 F3       		.byte	0xf3
 7000 1015 01       		.uleb128 0x1
 7001 1016 50       		.byte	0x50
 7002 1017 9F       		.byte	0x9f
 7003 1018 58000000 		.4byte	.LVL246
 7004 101c 76000000 		.4byte	.LVL250
 7005 1020 0100     		.2byte	0x1
 7006 1022 54       		.byte	0x54
 7007 1023 76000000 		.4byte	.LVL250
 7008 1027 78000000 		.4byte	.LVL251
 7009 102b 0100     		.2byte	0x1
 7010 102d 50       		.byte	0x50
 7011 102e 78000000 		.4byte	.LVL251
 7012 1032 7C000000 		.4byte	.LVL252
 7013 1036 0100     		.2byte	0x1
 7014 1038 54       		.byte	0x54
 7015 1039 7C000000 		.4byte	.LVL252
 7016 103d 7E000000 		.4byte	.LVL253
 7017 1041 0100     		.2byte	0x1
 7018 1043 50       		.byte	0x50
ARM GAS  C:\Users\Phuong\AppData\Local\Temp\ccVRtur0.s 			page 138


 7019 1044 7E000000 		.4byte	.LVL253
 7020 1048 82000000 		.4byte	.LVL254
 7021 104c 0100     		.2byte	0x1
 7022 104e 54       		.byte	0x54
 7023 104f 82000000 		.4byte	.LVL254
 7024 1053 84000000 		.4byte	.LVL255
 7025 1057 0100     		.2byte	0x1
 7026 1059 50       		.byte	0x50
 7027 105a 84000000 		.4byte	.LVL255
 7028 105e 98000000 		.4byte	.LVL258
 7029 1062 0100     		.2byte	0x1
 7030 1064 54       		.byte	0x54
 7031 1065 98000000 		.4byte	.LVL258
 7032 1069 AC000000 		.4byte	.LFE13
 7033 106d 0400     		.2byte	0x4
 7034 106f F3       		.byte	0xf3
 7035 1070 01       		.uleb128 0x1
 7036 1071 50       		.byte	0x50
 7037 1072 9F       		.byte	0x9f
 7038 1073 00000000 		.4byte	0
 7039 1077 00000000 		.4byte	0
 7040              	.LLST64:
 7041 107b 00000000 		.4byte	.LVL237
 7042 107f 22000000 		.4byte	.LVL240
 7043 1083 0100     		.2byte	0x1
 7044 1085 51       		.byte	0x51
 7045 1086 22000000 		.4byte	.LVL240
 7046 108a 76000000 		.4byte	.LVL250
 7047 108e 0100     		.2byte	0x1
 7048 1090 55       		.byte	0x55
 7049 1091 76000000 		.4byte	.LVL250
 7050 1095 94000000 		.4byte	.LVL257
 7051 1099 0100     		.2byte	0x1
 7052 109b 51       		.byte	0x51
 7053 109c 94000000 		.4byte	.LVL257
 7054 10a0 9E000000 		.4byte	.LVL261
 7055 10a4 0100     		.2byte	0x1
 7056 10a6 55       		.byte	0x55
 7057 10a7 9E000000 		.4byte	.LVL261
 7058 10ab AC000000 		.4byte	.LFE13
 7059 10af 0400     		.2byte	0x4
 7060 10b1 F3       		.byte	0xf3
 7061 10b2 01       		.uleb128 0x1
 7062 10b3 51       		.byte	0x51
 7063 10b4 9F       		.byte	0x9f
 7064 10b5 00000000 		.4byte	0
 7065 10b9 00000000 		.4byte	0
 7066              	.LLST65:
 7067 10bd 72000000 		.4byte	.LVL249
 7068 10c1 76000000 		.4byte	.LVL250
 7069 10c5 0200     		.2byte	0x2
 7070 10c7 30       		.byte	0x30
 7071 10c8 9F       		.byte	0x9f
 7072 10c9 9C000000 		.4byte	.LVL260
 7073 10cd AC000000 		.4byte	.LFE13
 7074 10d1 0100     		.2byte	0x1
 7075 10d3 50       		.byte	0x50
ARM GAS  C:\Users\Phuong\AppData\Local\Temp\ccVRtur0.s 			page 139


 7076 10d4 00000000 		.4byte	0
 7077 10d8 00000000 		.4byte	0
 7078              	.LLST66:
 7079 10dc 14000000 		.4byte	.LVL238
 7080 10e0 16000000 		.4byte	.LVL239
 7081 10e4 0100     		.2byte	0x1
 7082 10e6 50       		.byte	0x50
 7083 10e7 16000000 		.4byte	.LVL239
 7084 10eb 3A000000 		.4byte	.LVL243
 7085 10ef 0100     		.2byte	0x1
 7086 10f1 54       		.byte	0x54
 7087 10f2 3A000000 		.4byte	.LVL243
 7088 10f6 58000000 		.4byte	.LVL246
 7089 10fa 0400     		.2byte	0x4
 7090 10fc F3       		.byte	0xf3
 7091 10fd 01       		.uleb128 0x1
 7092 10fe 50       		.byte	0x50
 7093 10ff 9F       		.byte	0x9f
 7094 1100 58000000 		.4byte	.LVL246
 7095 1104 76000000 		.4byte	.LVL250
 7096 1108 0100     		.2byte	0x1
 7097 110a 54       		.byte	0x54
 7098 110b 88000000 		.4byte	.LVL256
 7099 110f 98000000 		.4byte	.LVL258
 7100 1113 0100     		.2byte	0x1
 7101 1115 54       		.byte	0x54
 7102 1116 98000000 		.4byte	.LVL258
 7103 111a 9C000000 		.4byte	.LVL260
 7104 111e 0400     		.2byte	0x4
 7105 1120 F3       		.byte	0xf3
 7106 1121 01       		.uleb128 0x1
 7107 1122 50       		.byte	0x50
 7108 1123 9F       		.byte	0x9f
 7109 1124 00000000 		.4byte	0
 7110 1128 00000000 		.4byte	0
 7111              	.LLST67:
 7112 112c 14000000 		.4byte	.LVL238
 7113 1130 22000000 		.4byte	.LVL240
 7114 1134 0100     		.2byte	0x1
 7115 1136 51       		.byte	0x51
 7116 1137 22000000 		.4byte	.LVL240
 7117 113b 76000000 		.4byte	.LVL250
 7118 113f 0100     		.2byte	0x1
 7119 1141 55       		.byte	0x55
 7120 1142 88000000 		.4byte	.LVL256
 7121 1146 94000000 		.4byte	.LVL257
 7122 114a 0100     		.2byte	0x1
 7123 114c 51       		.byte	0x51
 7124 114d 94000000 		.4byte	.LVL257
 7125 1151 9C000000 		.4byte	.LVL260
 7126 1155 0100     		.2byte	0x1
 7127 1157 55       		.byte	0x55
 7128 1158 00000000 		.4byte	0
 7129 115c 00000000 		.4byte	0
 7130              	.LLST68:
 7131 1160 30000000 		.4byte	.LVL241
 7132 1164 37000000 		.4byte	.LVL242-1
ARM GAS  C:\Users\Phuong\AppData\Local\Temp\ccVRtur0.s 			page 140


 7133 1168 0100     		.2byte	0x1
 7134 116a 50       		.byte	0x50
 7135 116b 58000000 		.4byte	.LVL246
 7136 116f 60000000 		.4byte	.LVL247
 7137 1173 0100     		.2byte	0x1
 7138 1175 50       		.byte	0x50
 7139 1176 60000000 		.4byte	.LVL247
 7140 117a 67000000 		.4byte	.LVL248-1
 7141 117e 0200     		.2byte	0x2
 7142 1180 74       		.byte	0x74
 7143 1181 00       		.sleb128 0
 7144 1182 00000000 		.4byte	0
 7145 1186 00000000 		.4byte	0
 7146              	.LLST69:
 7147 118a 3A000000 		.4byte	.LVL243
 7148 118e 50000000 		.4byte	.LVL244
 7149 1192 0100     		.2byte	0x1
 7150 1194 50       		.byte	0x50
 7151 1195 50000000 		.4byte	.LVL244
 7152 1199 58000000 		.4byte	.LVL246
 7153 119d 0100     		.2byte	0x1
 7154 119f 54       		.byte	0x54
 7155 11a0 98000000 		.4byte	.LVL258
 7156 11a4 9A000000 		.4byte	.LVL259
 7157 11a8 0100     		.2byte	0x1
 7158 11aa 50       		.byte	0x50
 7159 11ab 9A000000 		.4byte	.LVL259
 7160 11af 9C000000 		.4byte	.LVL260
 7161 11b3 0100     		.2byte	0x1
 7162 11b5 54       		.byte	0x54
 7163 11b6 00000000 		.4byte	0
 7164 11ba 00000000 		.4byte	0
 7165              	.LLST70:
 7166 11be 00000000 		.4byte	.LVL262
 7167 11c2 2E000000 		.4byte	.LVL264
 7168 11c6 0100     		.2byte	0x1
 7169 11c8 50       		.byte	0x50
 7170 11c9 2E000000 		.4byte	.LVL264
 7171 11cd 3E000000 		.4byte	.LVL268
 7172 11d1 0100     		.2byte	0x1
 7173 11d3 54       		.byte	0x54
 7174 11d4 3E000000 		.4byte	.LVL268
 7175 11d8 5A000000 		.4byte	.LVL271
 7176 11dc 0400     		.2byte	0x4
 7177 11de F3       		.byte	0xf3
 7178 11df 01       		.uleb128 0x1
 7179 11e0 50       		.byte	0x50
 7180 11e1 9F       		.byte	0x9f
 7181 11e2 5A000000 		.4byte	.LVL271
 7182 11e6 88000000 		.4byte	.LVL276
 7183 11ea 0100     		.2byte	0x1
 7184 11ec 54       		.byte	0x54
 7185 11ed 88000000 		.4byte	.LVL276
 7186 11f1 8A000000 		.4byte	.LVL277
 7187 11f5 0100     		.2byte	0x1
 7188 11f7 50       		.byte	0x50
 7189 11f8 8A000000 		.4byte	.LVL277
ARM GAS  C:\Users\Phuong\AppData\Local\Temp\ccVRtur0.s 			page 141


 7190 11fc 8E000000 		.4byte	.LVL278
 7191 1200 0100     		.2byte	0x1
 7192 1202 54       		.byte	0x54
 7193 1203 8E000000 		.4byte	.LVL278
 7194 1207 90000000 		.4byte	.LVL279
 7195 120b 0100     		.2byte	0x1
 7196 120d 50       		.byte	0x50
 7197 120e 90000000 		.4byte	.LVL279
 7198 1212 94000000 		.4byte	.LVL280
 7199 1216 0100     		.2byte	0x1
 7200 1218 54       		.byte	0x54
 7201 1219 94000000 		.4byte	.LVL280
 7202 121d 96000000 		.4byte	.LVL281
 7203 1221 0100     		.2byte	0x1
 7204 1223 50       		.byte	0x50
 7205 1224 96000000 		.4byte	.LVL281
 7206 1228 9A000000 		.4byte	.LVL282
 7207 122c 0100     		.2byte	0x1
 7208 122e 54       		.byte	0x54
 7209 122f 9A000000 		.4byte	.LVL282
 7210 1233 9C000000 		.4byte	.LVL283
 7211 1237 0100     		.2byte	0x1
 7212 1239 50       		.byte	0x50
 7213 123a 9C000000 		.4byte	.LVL283
 7214 123e A0000000 		.4byte	.LVL284
 7215 1242 0100     		.2byte	0x1
 7216 1244 54       		.byte	0x54
 7217 1245 A0000000 		.4byte	.LVL284
 7218 1249 A2000000 		.4byte	.LVL285
 7219 124d 0100     		.2byte	0x1
 7220 124f 50       		.byte	0x50
 7221 1250 A2000000 		.4byte	.LVL285
 7222 1254 A6000000 		.4byte	.LVL286
 7223 1258 0100     		.2byte	0x1
 7224 125a 54       		.byte	0x54
 7225 125b A6000000 		.4byte	.LVL286
 7226 125f A8000000 		.4byte	.LVL287
 7227 1263 0100     		.2byte	0x1
 7228 1265 50       		.byte	0x50
 7229 1266 A8000000 		.4byte	.LVL287
 7230 126a AA000000 		.4byte	.LVL288
 7231 126e 0100     		.2byte	0x1
 7232 1270 54       		.byte	0x54
 7233 1271 AA000000 		.4byte	.LVL288
 7234 1275 C8000000 		.4byte	.LFE14
 7235 1279 0400     		.2byte	0x4
 7236 127b F3       		.byte	0xf3
 7237 127c 01       		.uleb128 0x1
 7238 127d 50       		.byte	0x50
 7239 127e 9F       		.byte	0x9f
 7240 127f 00000000 		.4byte	0
 7241 1283 00000000 		.4byte	0
 7242              	.LLST71:
 7243 1287 00000000 		.4byte	.LVL262
 7244 128b 31000000 		.4byte	.LVL265-1
 7245 128f 0100     		.2byte	0x1
 7246 1291 51       		.byte	0x51
ARM GAS  C:\Users\Phuong\AppData\Local\Temp\ccVRtur0.s 			page 142


 7247 1292 31000000 		.4byte	.LVL265-1
 7248 1296 88000000 		.4byte	.LVL276
 7249 129a 0100     		.2byte	0x1
 7250 129c 55       		.byte	0x55
 7251 129d 88000000 		.4byte	.LVL276
 7252 12a1 AA000000 		.4byte	.LVL288
 7253 12a5 0100     		.2byte	0x1
 7254 12a7 51       		.byte	0x51
 7255 12a8 AA000000 		.4byte	.LVL288
 7256 12ac B0000000 		.4byte	.LVL291
 7257 12b0 0100     		.2byte	0x1
 7258 12b2 55       		.byte	0x55
 7259 12b3 B0000000 		.4byte	.LVL291
 7260 12b7 C8000000 		.4byte	.LFE14
 7261 12bb 0400     		.2byte	0x4
 7262 12bd F3       		.byte	0xf3
 7263 12be 01       		.uleb128 0x1
 7264 12bf 51       		.byte	0x51
 7265 12c0 9F       		.byte	0x9f
 7266 12c1 00000000 		.4byte	0
 7267 12c5 00000000 		.4byte	0
 7268              	.LLST72:
 7269 12c9 84000000 		.4byte	.LVL275
 7270 12cd 88000000 		.4byte	.LVL276
 7271 12d1 0200     		.2byte	0x2
 7272 12d3 30       		.byte	0x30
 7273 12d4 9F       		.byte	0x9f
 7274 12d5 AE000000 		.4byte	.LVL290
 7275 12d9 C8000000 		.4byte	.LFE14
 7276 12dd 0100     		.2byte	0x1
 7277 12df 50       		.byte	0x50
 7278 12e0 00000000 		.4byte	0
 7279 12e4 00000000 		.4byte	0
 7280              	.LLST73:
 7281 12e8 18000000 		.4byte	.LVL263
 7282 12ec 2E000000 		.4byte	.LVL264
 7283 12f0 0100     		.2byte	0x1
 7284 12f2 50       		.byte	0x50
 7285 12f3 2E000000 		.4byte	.LVL264
 7286 12f7 3E000000 		.4byte	.LVL268
 7287 12fb 0100     		.2byte	0x1
 7288 12fd 54       		.byte	0x54
 7289 12fe 3E000000 		.4byte	.LVL268
 7290 1302 5A000000 		.4byte	.LVL271
 7291 1306 0400     		.2byte	0x4
 7292 1308 F3       		.byte	0xf3
 7293 1309 01       		.uleb128 0x1
 7294 130a 50       		.byte	0x50
 7295 130b 9F       		.byte	0x9f
 7296 130c 5A000000 		.4byte	.LVL271
 7297 1310 88000000 		.4byte	.LVL276
 7298 1314 0100     		.2byte	0x1
 7299 1316 54       		.byte	0x54
 7300 1317 9A000000 		.4byte	.LVL282
 7301 131b 9C000000 		.4byte	.LVL283
 7302 131f 0100     		.2byte	0x1
 7303 1321 50       		.byte	0x50
ARM GAS  C:\Users\Phuong\AppData\Local\Temp\ccVRtur0.s 			page 143


 7304 1322 9C000000 		.4byte	.LVL283
 7305 1326 A0000000 		.4byte	.LVL284
 7306 132a 0100     		.2byte	0x1
 7307 132c 54       		.byte	0x54
 7308 132d A0000000 		.4byte	.LVL284
 7309 1331 A2000000 		.4byte	.LVL285
 7310 1335 0100     		.2byte	0x1
 7311 1337 50       		.byte	0x50
 7312 1338 A2000000 		.4byte	.LVL285
 7313 133c A6000000 		.4byte	.LVL286
 7314 1340 0100     		.2byte	0x1
 7315 1342 54       		.byte	0x54
 7316 1343 A6000000 		.4byte	.LVL286
 7317 1347 A8000000 		.4byte	.LVL287
 7318 134b 0100     		.2byte	0x1
 7319 134d 50       		.byte	0x50
 7320 134e A8000000 		.4byte	.LVL287
 7321 1352 AA000000 		.4byte	.LVL288
 7322 1356 0100     		.2byte	0x1
 7323 1358 54       		.byte	0x54
 7324 1359 AA000000 		.4byte	.LVL288
 7325 135d AE000000 		.4byte	.LVL290
 7326 1361 0400     		.2byte	0x4
 7327 1363 F3       		.byte	0xf3
 7328 1364 01       		.uleb128 0x1
 7329 1365 50       		.byte	0x50
 7330 1366 9F       		.byte	0x9f
 7331 1367 00000000 		.4byte	0
 7332 136b 00000000 		.4byte	0
 7333              	.LLST74:
 7334 136f 18000000 		.4byte	.LVL263
 7335 1373 31000000 		.4byte	.LVL265-1
 7336 1377 0100     		.2byte	0x1
 7337 1379 51       		.byte	0x51
 7338 137a 31000000 		.4byte	.LVL265-1
 7339 137e 88000000 		.4byte	.LVL276
 7340 1382 0100     		.2byte	0x1
 7341 1384 55       		.byte	0x55
 7342 1385 9A000000 		.4byte	.LVL282
 7343 1389 AA000000 		.4byte	.LVL288
 7344 138d 0100     		.2byte	0x1
 7345 138f 51       		.byte	0x51
 7346 1390 AA000000 		.4byte	.LVL288
 7347 1394 AE000000 		.4byte	.LVL290
 7348 1398 0100     		.2byte	0x1
 7349 139a 55       		.byte	0x55
 7350 139b 00000000 		.4byte	0
 7351 139f 00000000 		.4byte	0
 7352              	.LLST75:
 7353 13a3 34000000 		.4byte	.LVL266
 7354 13a7 3B000000 		.4byte	.LVL267-1
 7355 13ab 0100     		.2byte	0x1
 7356 13ad 50       		.byte	0x50
 7357 13ae 3B000000 		.4byte	.LVL267-1
 7358 13b2 5A000000 		.4byte	.LVL271
 7359 13b6 0100     		.2byte	0x1
 7360 13b8 58       		.byte	0x58
ARM GAS  C:\Users\Phuong\AppData\Local\Temp\ccVRtur0.s 			page 144


 7361 13b9 5A000000 		.4byte	.LVL271
 7362 13bd 61000000 		.4byte	.LVL272-1
 7363 13c1 0100     		.2byte	0x1
 7364 13c3 50       		.byte	0x50
 7365 13c4 61000000 		.4byte	.LVL272-1
 7366 13c8 88000000 		.4byte	.LVL276
 7367 13cc 0100     		.2byte	0x1
 7368 13ce 58       		.byte	0x58
 7369 13cf AA000000 		.4byte	.LVL288
 7370 13d3 AE000000 		.4byte	.LVL290
 7371 13d7 0100     		.2byte	0x1
 7372 13d9 58       		.byte	0x58
 7373 13da 00000000 		.4byte	0
 7374 13de 00000000 		.4byte	0
 7375              	.LLST76:
 7376 13e2 3E000000 		.4byte	.LVL268
 7377 13e6 52000000 		.4byte	.LVL269
 7378 13ea 0100     		.2byte	0x1
 7379 13ec 50       		.byte	0x50
 7380 13ed 52000000 		.4byte	.LVL269
 7381 13f1 5A000000 		.4byte	.LVL271
 7382 13f5 0100     		.2byte	0x1
 7383 13f7 54       		.byte	0x54
 7384 13f8 AA000000 		.4byte	.LVL288
 7385 13fc AC000000 		.4byte	.LVL289
 7386 1400 0100     		.2byte	0x1
 7387 1402 50       		.byte	0x50
 7388 1403 AC000000 		.4byte	.LVL289
 7389 1407 AE000000 		.4byte	.LVL290
 7390 140b 0100     		.2byte	0x1
 7391 140d 54       		.byte	0x54
 7392 140e 00000000 		.4byte	0
 7393 1412 00000000 		.4byte	0
 7394              	.LLST77:
 7395 1416 00000000 		.4byte	.LVL292
 7396 141a 0B000000 		.4byte	.LVL293-1
 7397 141e 0100     		.2byte	0x1
 7398 1420 50       		.byte	0x50
 7399 1421 0B000000 		.4byte	.LVL293-1
 7400 1425 28000000 		.4byte	.LVL297
 7401 1429 0400     		.2byte	0x4
 7402 142b F3       		.byte	0xf3
 7403 142c 01       		.uleb128 0x1
 7404 142d 50       		.byte	0x50
 7405 142e 9F       		.byte	0x9f
 7406 142f 28000000 		.4byte	.LVL297
 7407 1433 3A000000 		.4byte	.LVL301
 7408 1437 0100     		.2byte	0x1
 7409 1439 50       		.byte	0x50
 7410 143a 3A000000 		.4byte	.LVL301
 7411 143e 58000000 		.4byte	.LFE15
 7412 1442 0400     		.2byte	0x4
 7413 1444 F3       		.byte	0xf3
 7414 1445 01       		.uleb128 0x1
 7415 1446 50       		.byte	0x50
 7416 1447 9F       		.byte	0x9f
 7417 1448 00000000 		.4byte	0
ARM GAS  C:\Users\Phuong\AppData\Local\Temp\ccVRtur0.s 			page 145


 7418 144c 00000000 		.4byte	0
 7419              	.LLST78:
 7420 1450 00000000 		.4byte	.LVL292
 7421 1454 0B000000 		.4byte	.LVL293-1
 7422 1458 0100     		.2byte	0x1
 7423 145a 51       		.byte	0x51
 7424 145b 0B000000 		.4byte	.LVL293-1
 7425 145f 28000000 		.4byte	.LVL297
 7426 1463 0400     		.2byte	0x4
 7427 1465 F3       		.byte	0xf3
 7428 1466 01       		.uleb128 0x1
 7429 1467 51       		.byte	0x51
 7430 1468 9F       		.byte	0x9f
 7431 1469 28000000 		.4byte	.LVL297
 7432 146d 3C000000 		.4byte	.LVL302
 7433 1471 0100     		.2byte	0x1
 7434 1473 51       		.byte	0x51
 7435 1474 3C000000 		.4byte	.LVL302
 7436 1478 58000000 		.4byte	.LFE15
 7437 147c 0400     		.2byte	0x4
 7438 147e F3       		.byte	0xf3
 7439 147f 01       		.uleb128 0x1
 7440 1480 51       		.byte	0x51
 7441 1481 9F       		.byte	0x9f
 7442 1482 00000000 		.4byte	0
 7443 1486 00000000 		.4byte	0
 7444              	.LLST79:
 7445 148a 0E000000 		.4byte	.LVL294
 7446 148e 22000000 		.4byte	.LVL295
 7447 1492 0100     		.2byte	0x1
 7448 1494 50       		.byte	0x50
 7449 1495 22000000 		.4byte	.LVL295
 7450 1499 28000000 		.4byte	.LVL297
 7451 149d 0100     		.2byte	0x1
 7452 149f 54       		.byte	0x54
 7453 14a0 3C000000 		.4byte	.LVL302
 7454 14a4 3E000000 		.4byte	.LVL303
 7455 14a8 0100     		.2byte	0x1
 7456 14aa 50       		.byte	0x50
 7457 14ab 00000000 		.4byte	0
 7458 14af 00000000 		.4byte	0
 7459              	.LLST80:
 7460 14b3 28000000 		.4byte	.LVL297
 7461 14b7 30000000 		.4byte	.LVL299
 7462 14bb 0100     		.2byte	0x1
 7463 14bd 53       		.byte	0x53
 7464 14be 32000000 		.4byte	.LVL300
 7465 14c2 3C000000 		.4byte	.LVL302
 7466 14c6 0100     		.2byte	0x1
 7467 14c8 53       		.byte	0x53
 7468 14c9 00000000 		.4byte	0
 7469 14cd 00000000 		.4byte	0
 7470              	.LLST81:
 7471 14d1 00000000 		.4byte	.LVL304
 7472 14d5 0C000000 		.4byte	.LVL305
 7473 14d9 0100     		.2byte	0x1
 7474 14db 50       		.byte	0x50
ARM GAS  C:\Users\Phuong\AppData\Local\Temp\ccVRtur0.s 			page 146


 7475 14dc 0C000000 		.4byte	.LVL305
 7476 14e0 0E000000 		.4byte	.LVL306
 7477 14e4 0400     		.2byte	0x4
 7478 14e6 F3       		.byte	0xf3
 7479 14e7 01       		.uleb128 0x1
 7480 14e8 50       		.byte	0x50
 7481 14e9 9F       		.byte	0x9f
 7482 14ea 0E000000 		.4byte	.LVL306
 7483 14ee 10000000 		.4byte	.LVL307
 7484 14f2 0100     		.2byte	0x1
 7485 14f4 50       		.byte	0x50
 7486 14f5 10000000 		.4byte	.LVL307
 7487 14f9 12000000 		.4byte	.LVL308
 7488 14fd 0400     		.2byte	0x4
 7489 14ff F3       		.byte	0xf3
 7490 1500 01       		.uleb128 0x1
 7491 1501 50       		.byte	0x50
 7492 1502 9F       		.byte	0x9f
 7493 1503 12000000 		.4byte	.LVL308
 7494 1507 14000000 		.4byte	.LVL309
 7495 150b 0100     		.2byte	0x1
 7496 150d 50       		.byte	0x50
 7497 150e 14000000 		.4byte	.LVL309
 7498 1512 16000000 		.4byte	.LFE16
 7499 1516 0400     		.2byte	0x4
 7500 1518 F3       		.byte	0xf3
 7501 1519 01       		.uleb128 0x1
 7502 151a 50       		.byte	0x50
 7503 151b 9F       		.byte	0x9f
 7504 151c 00000000 		.4byte	0
 7505 1520 00000000 		.4byte	0
 7506              	.LLST82:
 7507 1524 00000000 		.4byte	.LVL304
 7508 1528 0C000000 		.4byte	.LVL305
 7509 152c 0100     		.2byte	0x1
 7510 152e 50       		.byte	0x50
 7511 152f 0C000000 		.4byte	.LVL305
 7512 1533 0E000000 		.4byte	.LVL306
 7513 1537 0400     		.2byte	0x4
 7514 1539 F3       		.byte	0xf3
 7515 153a 01       		.uleb128 0x1
 7516 153b 50       		.byte	0x50
 7517 153c 9F       		.byte	0x9f
 7518 153d 0E000000 		.4byte	.LVL306
 7519 1541 10000000 		.4byte	.LVL307
 7520 1545 0100     		.2byte	0x1
 7521 1547 50       		.byte	0x50
 7522 1548 10000000 		.4byte	.LVL307
 7523 154c 12000000 		.4byte	.LVL308
 7524 1550 0400     		.2byte	0x4
 7525 1552 F3       		.byte	0xf3
 7526 1553 01       		.uleb128 0x1
 7527 1554 50       		.byte	0x50
 7528 1555 9F       		.byte	0x9f
 7529 1556 12000000 		.4byte	.LVL308
 7530 155a 14000000 		.4byte	.LVL309
 7531 155e 0100     		.2byte	0x1
ARM GAS  C:\Users\Phuong\AppData\Local\Temp\ccVRtur0.s 			page 147


 7532 1560 50       		.byte	0x50
 7533 1561 14000000 		.4byte	.LVL309
 7534 1565 16000000 		.4byte	.LFE16
 7535 1569 0400     		.2byte	0x4
 7536 156b F3       		.byte	0xf3
 7537 156c 01       		.uleb128 0x1
 7538 156d 50       		.byte	0x50
 7539 156e 9F       		.byte	0x9f
 7540 156f 00000000 		.4byte	0
 7541 1573 00000000 		.4byte	0
 7542              	.LLST83:
 7543 1577 0C000000 		.4byte	.LVL305
 7544 157b 0E000000 		.4byte	.LVL306
 7545 157f 0100     		.2byte	0x1
 7546 1581 50       		.byte	0x50
 7547 1582 14000000 		.4byte	.LVL309
 7548 1586 16000000 		.4byte	.LFE16
 7549 158a 0100     		.2byte	0x1
 7550 158c 50       		.byte	0x50
 7551 158d 00000000 		.4byte	0
 7552 1591 00000000 		.4byte	0
 7553              	.LLST84:
 7554 1595 00000000 		.4byte	.LVL310
 7555 1599 06000000 		.4byte	.LVL312
 7556 159d 0100     		.2byte	0x1
 7557 159f 50       		.byte	0x50
 7558 15a0 06000000 		.4byte	.LVL312
 7559 15a4 08000000 		.4byte	.LVL313
 7560 15a8 0400     		.2byte	0x4
 7561 15aa F3       		.byte	0xf3
 7562 15ab 01       		.uleb128 0x1
 7563 15ac 50       		.byte	0x50
 7564 15ad 9F       		.byte	0x9f
 7565 15ae 08000000 		.4byte	.LVL313
 7566 15b2 0A000000 		.4byte	.LVL314
 7567 15b6 0100     		.2byte	0x1
 7568 15b8 50       		.byte	0x50
 7569 15b9 0A000000 		.4byte	.LVL314
 7570 15bd 0C000000 		.4byte	.LFE17
 7571 15c1 0400     		.2byte	0x4
 7572 15c3 F3       		.byte	0xf3
 7573 15c4 01       		.uleb128 0x1
 7574 15c5 50       		.byte	0x50
 7575 15c6 9F       		.byte	0x9f
 7576 15c7 00000000 		.4byte	0
 7577 15cb 00000000 		.4byte	0
 7578              	.LLST85:
 7579 15cf 06000000 		.4byte	.LVL312
 7580 15d3 08000000 		.4byte	.LVL313
 7581 15d7 0100     		.2byte	0x1
 7582 15d9 50       		.byte	0x50
 7583 15da 0A000000 		.4byte	.LVL314
 7584 15de 0C000000 		.4byte	.LFE17
 7585 15e2 0100     		.2byte	0x1
 7586 15e4 50       		.byte	0x50
 7587 15e5 00000000 		.4byte	0
 7588 15e9 00000000 		.4byte	0
ARM GAS  C:\Users\Phuong\AppData\Local\Temp\ccVRtur0.s 			page 148


 7589              	.LLST86:
 7590 15ed 04000000 		.4byte	.LVL311
 7591 15f1 06000000 		.4byte	.LVL312
 7592 15f5 0100     		.2byte	0x1
 7593 15f7 50       		.byte	0x50
 7594 15f8 06000000 		.4byte	.LVL312
 7595 15fc 08000000 		.4byte	.LVL313
 7596 1600 0400     		.2byte	0x4
 7597 1602 F3       		.byte	0xf3
 7598 1603 01       		.uleb128 0x1
 7599 1604 50       		.byte	0x50
 7600 1605 9F       		.byte	0x9f
 7601 1606 00000000 		.4byte	0
 7602 160a 00000000 		.4byte	0
 7603              	.LLST87:
 7604 160e 00000000 		.4byte	.LVL315
 7605 1612 0A000000 		.4byte	.LVL317
 7606 1616 0100     		.2byte	0x1
 7607 1618 50       		.byte	0x50
 7608 1619 0A000000 		.4byte	.LVL317
 7609 161d 52000000 		.4byte	.LVL330
 7610 1621 0100     		.2byte	0x1
 7611 1623 55       		.byte	0x55
 7612 1624 52000000 		.4byte	.LVL330
 7613 1628 56000000 		.4byte	.LVL331
 7614 162c 0100     		.2byte	0x1
 7615 162e 50       		.byte	0x50
 7616 162f 56000000 		.4byte	.LVL331
 7617 1633 5C000000 		.4byte	.LVL334
 7618 1637 0100     		.2byte	0x1
 7619 1639 55       		.byte	0x55
 7620 163a 5C000000 		.4byte	.LVL334
 7621 163e 70000000 		.4byte	.LFE18
 7622 1642 0400     		.2byte	0x4
 7623 1644 F3       		.byte	0xf3
 7624 1645 01       		.uleb128 0x1
 7625 1646 50       		.byte	0x50
 7626 1647 9F       		.byte	0x9f
 7627 1648 00000000 		.4byte	0
 7628 164c 00000000 		.4byte	0
 7629              	.LLST88:
 7630 1650 50000000 		.4byte	.LVL329
 7631 1654 52000000 		.4byte	.LVL330
 7632 1658 0100     		.2byte	0x1
 7633 165a 54       		.byte	0x54
 7634 165b 58000000 		.4byte	.LVL332
 7635 165f 5C000000 		.4byte	.LVL333
 7636 1663 0100     		.2byte	0x1
 7637 1665 54       		.byte	0x54
 7638 1666 5C000000 		.4byte	.LVL333
 7639 166a 70000000 		.4byte	.LFE18
 7640 166e 0100     		.2byte	0x1
 7641 1670 50       		.byte	0x50
 7642 1671 00000000 		.4byte	0
 7643 1675 00000000 		.4byte	0
 7644              	.LLST89:
 7645 1679 08000000 		.4byte	.LVL316
ARM GAS  C:\Users\Phuong\AppData\Local\Temp\ccVRtur0.s 			page 149


 7646 167d 0A000000 		.4byte	.LVL317
 7647 1681 0100     		.2byte	0x1
 7648 1683 50       		.byte	0x50
 7649 1684 0A000000 		.4byte	.LVL317
 7650 1688 52000000 		.4byte	.LVL330
 7651 168c 0100     		.2byte	0x1
 7652 168e 55       		.byte	0x55
 7653 168f 56000000 		.4byte	.LVL331
 7654 1693 58000000 		.4byte	.LVL332
 7655 1697 0100     		.2byte	0x1
 7656 1699 55       		.byte	0x55
 7657 169a 00000000 		.4byte	0
 7658 169e 00000000 		.4byte	0
 7659              	.LLST90:
 7660 16a2 10000000 		.4byte	.LVL319
 7661 16a6 17000000 		.4byte	.LVL320-1
 7662 16aa 0100     		.2byte	0x1
 7663 16ac 50       		.byte	0x50
 7664 16ad 17000000 		.4byte	.LVL320-1
 7665 16b1 28000000 		.4byte	.LVL323
 7666 16b5 0100     		.2byte	0x1
 7667 16b7 54       		.byte	0x54
 7668 16b8 42000000 		.4byte	.LVL327
 7669 16bc 52000000 		.4byte	.LVL330
 7670 16c0 0100     		.2byte	0x1
 7671 16c2 54       		.byte	0x54
 7672 16c3 00000000 		.4byte	0
 7673 16c7 00000000 		.4byte	0
 7674              	.LLST91:
 7675 16cb 28000000 		.4byte	.LVL323
 7676 16cf 3C000000 		.4byte	.LVL324
 7677 16d3 0100     		.2byte	0x1
 7678 16d5 50       		.byte	0x50
 7679 16d6 3C000000 		.4byte	.LVL324
 7680 16da 40000000 		.4byte	.LVL326
 7681 16de 0100     		.2byte	0x1
 7682 16e0 54       		.byte	0x54
 7683 16e1 56000000 		.4byte	.LVL331
 7684 16e5 58000000 		.4byte	.LVL332
 7685 16e9 0100     		.2byte	0x1
 7686 16eb 50       		.byte	0x50
 7687 16ec 00000000 		.4byte	0
 7688 16f0 00000000 		.4byte	0
 7689              		.section	.debug_aranges,"",%progbits
 7690 0000 A4000000 		.4byte	0xa4
 7691 0004 0200     		.2byte	0x2
 7692 0006 00000000 		.4byte	.Ldebug_info0
 7693 000a 04       		.byte	0x4
 7694 000b 00       		.byte	0
 7695 000c 0000     		.2byte	0
 7696 000e 0000     		.2byte	0
 7697 0010 00000000 		.4byte	.LFB2
 7698 0014 50000000 		.4byte	.LFE2-.LFB2
 7699 0018 00000000 		.4byte	.LFB1
 7700 001c 14000000 		.4byte	.LFE1-.LFB1
 7701 0020 00000000 		.4byte	.LFB3
 7702 0024 B0000000 		.4byte	.LFE3-.LFB3
ARM GAS  C:\Users\Phuong\AppData\Local\Temp\ccVRtur0.s 			page 150


 7703 0028 00000000 		.4byte	.LFB4
 7704 002c 18000000 		.4byte	.LFE4-.LFB4
 7705 0030 00000000 		.4byte	.LFB5
 7706 0034 7C000000 		.4byte	.LFE5-.LFB5
 7707 0038 00000000 		.4byte	.LFB6
 7708 003c E8000000 		.4byte	.LFE6-.LFB6
 7709 0040 00000000 		.4byte	.LFB7
 7710 0044 8C000000 		.4byte	.LFE7-.LFB7
 7711 0048 00000000 		.4byte	.LFB8
 7712 004c 1C000000 		.4byte	.LFE8-.LFB8
 7713 0050 00000000 		.4byte	.LFB9
 7714 0054 58000000 		.4byte	.LFE9-.LFB9
 7715 0058 00000000 		.4byte	.LFB10
 7716 005c C0000000 		.4byte	.LFE10-.LFB10
 7717 0060 00000000 		.4byte	.LFB11
 7718 0064 2C010000 		.4byte	.LFE11-.LFB11
 7719 0068 00000000 		.4byte	.LFB12
 7720 006c 1C000000 		.4byte	.LFE12-.LFB12
 7721 0070 00000000 		.4byte	.LFB13
 7722 0074 AC000000 		.4byte	.LFE13-.LFB13
 7723 0078 00000000 		.4byte	.LFB14
 7724 007c C8000000 		.4byte	.LFE14-.LFB14
 7725 0080 00000000 		.4byte	.LFB15
 7726 0084 58000000 		.4byte	.LFE15-.LFB15
 7727 0088 00000000 		.4byte	.LFB16
 7728 008c 16000000 		.4byte	.LFE16-.LFB16
 7729 0090 00000000 		.4byte	.LFB17
 7730 0094 0C000000 		.4byte	.LFE17-.LFB17
 7731 0098 00000000 		.4byte	.LFB18
 7732 009c 70000000 		.4byte	.LFE18-.LFB18
 7733 00a0 00000000 		.4byte	0
 7734 00a4 00000000 		.4byte	0
 7735              		.section	.debug_ranges,"",%progbits
 7736              	.Ldebug_ranges0:
 7737 0000 26000000 		.4byte	.LBB8
 7738 0004 62000000 		.4byte	.LBE8
 7739 0008 6A000000 		.4byte	.LBB10
 7740 000c 6C000000 		.4byte	.LBE10
 7741 0010 00000000 		.4byte	0
 7742 0014 00000000 		.4byte	0
 7743 0018 7C000000 		.4byte	.LBB13
 7744 001c C4000000 		.4byte	.LBE13
 7745 0020 CC000000 		.4byte	.LBB15
 7746 0024 CE000000 		.4byte	.LBE15
 7747 0028 00000000 		.4byte	0
 7748 002c 00000000 		.4byte	0
 7749 0030 10000000 		.4byte	.LBB16
 7750 0034 68000000 		.4byte	.LBE16
 7751 0038 70000000 		.4byte	.LBB19
 7752 003c 76000000 		.4byte	.LBE19
 7753 0040 00000000 		.4byte	0
 7754 0044 00000000 		.4byte	0
 7755 0048 08000000 		.4byte	.LBB21
 7756 004c 3C000000 		.4byte	.LBE21
 7757 0050 42000000 		.4byte	.LBB23
 7758 0054 46000000 		.4byte	.LBE23
 7759 0058 00000000 		.4byte	0
ARM GAS  C:\Users\Phuong\AppData\Local\Temp\ccVRtur0.s 			page 151


 7760 005c 00000000 		.4byte	0
 7761 0060 58000000 		.4byte	.LBB26
 7762 0064 98000000 		.4byte	.LBE26
 7763 0068 A4000000 		.4byte	.LBB28
 7764 006c A8000000 		.4byte	.LBE28
 7765 0070 00000000 		.4byte	0
 7766 0074 00000000 		.4byte	0
 7767 0078 84000000 		.4byte	.LBB32
 7768 007c FA000000 		.4byte	.LBE32
 7769 0080 0C010000 		.4byte	.LBB36
 7770 0084 10010000 		.4byte	.LBE36
 7771 0088 00000000 		.4byte	0
 7772 008c 00000000 		.4byte	0
 7773 0090 98000000 		.4byte	.LBB33
 7774 0094 FA000000 		.4byte	.LBE33
 7775 0098 0C010000 		.4byte	.LBB35
 7776 009c 10010000 		.4byte	.LBE35
 7777 00a0 00000000 		.4byte	0
 7778 00a4 00000000 		.4byte	0
 7779 00a8 14000000 		.4byte	.LBB38
 7780 00ac 76000000 		.4byte	.LBE38
 7781 00b0 88000000 		.4byte	.LBB42
 7782 00b4 9C000000 		.4byte	.LBE42
 7783 00b8 00000000 		.4byte	0
 7784 00bc 00000000 		.4byte	0
 7785 00c0 26000000 		.4byte	.LBB39
 7786 00c4 76000000 		.4byte	.LBE39
 7787 00c8 98000000 		.4byte	.LBB41
 7788 00cc 9C000000 		.4byte	.LBE41
 7789 00d0 00000000 		.4byte	0
 7790 00d4 00000000 		.4byte	0
 7791 00d8 18000000 		.4byte	.LBB43
 7792 00dc 88000000 		.4byte	.LBE43
 7793 00e0 9A000000 		.4byte	.LBB47
 7794 00e4 AE000000 		.4byte	.LBE47
 7795 00e8 00000000 		.4byte	0
 7796 00ec 00000000 		.4byte	0
 7797 00f0 2A000000 		.4byte	.LBB44
 7798 00f4 88000000 		.4byte	.LBE44
 7799 00f8 AA000000 		.4byte	.LBB46
 7800 00fc AE000000 		.4byte	.LBE46
 7801 0100 00000000 		.4byte	0
 7802 0104 00000000 		.4byte	0
 7803 0108 28000000 		.4byte	.LBB49
 7804 010c 30000000 		.4byte	.LBE49
 7805 0110 32000000 		.4byte	.LBB50
 7806 0114 3C000000 		.4byte	.LBE50
 7807 0118 00000000 		.4byte	0
 7808 011c 00000000 		.4byte	0
 7809 0120 08000000 		.4byte	.LBB52
 7810 0124 52000000 		.4byte	.LBE52
 7811 0128 56000000 		.4byte	.LBB54
 7812 012c 58000000 		.4byte	.LBE54
 7813 0130 00000000 		.4byte	0
 7814 0134 00000000 		.4byte	0
 7815 0138 00000000 		.4byte	.LFB2
 7816 013c 50000000 		.4byte	.LFE2
ARM GAS  C:\Users\Phuong\AppData\Local\Temp\ccVRtur0.s 			page 152


 7817 0140 00000000 		.4byte	.LFB1
 7818 0144 14000000 		.4byte	.LFE1
 7819 0148 00000000 		.4byte	.LFB3
 7820 014c B0000000 		.4byte	.LFE3
 7821 0150 00000000 		.4byte	.LFB4
 7822 0154 18000000 		.4byte	.LFE4
 7823 0158 00000000 		.4byte	.LFB5
 7824 015c 7C000000 		.4byte	.LFE5
 7825 0160 00000000 		.4byte	.LFB6
 7826 0164 E8000000 		.4byte	.LFE6
 7827 0168 00000000 		.4byte	.LFB7
 7828 016c 8C000000 		.4byte	.LFE7
 7829 0170 00000000 		.4byte	.LFB8
 7830 0174 1C000000 		.4byte	.LFE8
 7831 0178 00000000 		.4byte	.LFB9
 7832 017c 58000000 		.4byte	.LFE9
 7833 0180 00000000 		.4byte	.LFB10
 7834 0184 C0000000 		.4byte	.LFE10
 7835 0188 00000000 		.4byte	.LFB11
 7836 018c 2C010000 		.4byte	.LFE11
 7837 0190 00000000 		.4byte	.LFB12
 7838 0194 1C000000 		.4byte	.LFE12
 7839 0198 00000000 		.4byte	.LFB13
 7840 019c AC000000 		.4byte	.LFE13
 7841 01a0 00000000 		.4byte	.LFB14
 7842 01a4 C8000000 		.4byte	.LFE14
 7843 01a8 00000000 		.4byte	.LFB15
 7844 01ac 58000000 		.4byte	.LFE15
 7845 01b0 00000000 		.4byte	.LFB16
 7846 01b4 16000000 		.4byte	.LFE16
 7847 01b8 00000000 		.4byte	.LFB17
 7848 01bc 0C000000 		.4byte	.LFE17
 7849 01c0 00000000 		.4byte	.LFB18
 7850 01c4 70000000 		.4byte	.LFE18
 7851 01c8 00000000 		.4byte	0
 7852 01cc 00000000 		.4byte	0
 7853              		.section	.debug_line,"",%progbits
 7854              	.Ldebug_line0:
 7855 0000 6F050000 		.section	.debug_str,"MS",%progbits,1
 7855      02008F01 
 7855      00000201 
 7855      FB0E0D00 
 7855      01010101 
 7856              	.LASF22:
 7857 0000 68616E64 		.ascii	"handleptr\000"
 7857      6C657074 
 7857      7200
 7858              	.LASF60:
 7859 000a 6D616C6C 		.ascii	"malloc\000"
 7859      6F6300
 7860              	.LASF37:
 7861 0011 42554646 		.ascii	"BUFFER_unbuild\000"
 7861      45525F75 
 7861      6E627569 
 7861      6C6400
 7862              	.LASF31:
 7863 0020 42554646 		.ascii	"BUFFER_build\000"
ARM GAS  C:\Users\Phuong\AppData\Local\Temp\ccVRtur0.s 			page 153


 7863      45525F62 
 7863      75696C64 
 7863      00
 7864              	.LASF18:
 7865 002d 415A5F4C 		.ascii	"AZ_LOG_TRACE\000"
 7865      4F475F54 
 7865      52414345 
 7865      00
 7866              	.LASF12:
 7867 003a 73697A65 		.ascii	"size_t\000"
 7867      5F7400
 7868              	.LASF66:
 7869 0041 42554646 		.ascii	"BUFFER_TAG\000"
 7869      45525F54 
 7869      414700
 7870              	.LASF9:
 7871 004c 6C6F6E67 		.ascii	"long long unsigned int\000"
 7871      206C6F6E 
 7871      6720756E 
 7871      7369676E 
 7871      65642069 
 7872              	.LASF61:
 7873 0063 66726565 		.ascii	"free\000"
 7873      00
 7874              	.LASF16:
 7875 0068 415A5F4C 		.ascii	"AZ_LOG_ERROR\000"
 7875      4F475F45 
 7875      52524F52 
 7875      00
 7876              	.LASF69:
 7877 0075 42554646 		.ascii	"BUFFER_delete\000"
 7877      45525F64 
 7877      656C6574 
 7877      6500
 7878              	.LASF56:
 7879 0083 42554646 		.ascii	"BUFFER_length\000"
 7879      45525F6C 
 7879      656E6774 
 7879      6800
 7880              	.LASF1:
 7881 0091 6C6F6E67 		.ascii	"long long int\000"
 7881      206C6F6E 
 7881      6720696E 
 7881      7400
 7882              	.LASF3:
 7883 009f 7369676E 		.ascii	"signed char\000"
 7883      65642063 
 7883      68617200 
 7884              	.LASF46:
 7885 00ab 42554646 		.ascii	"BUFFER_append\000"
 7885      45525F61 
 7885      7070656E 
 7885      6400
 7886              	.LASF26:
 7887 00b9 42554646 		.ascii	"BUFFER_new\000"
 7887      45525F6E 
 7887      657700
ARM GAS  C:\Users\Phuong\AppData\Local\Temp\ccVRtur0.s 			page 154


 7888              	.LASF53:
 7889 00c4 62756666 		.ascii	"buffer_data\000"
 7889      65725F64 
 7889      61746100 
 7890              	.LASF25:
 7891 00d0 74656D70 		.ascii	"temp\000"
 7891      00
 7892              	.LASF7:
 7893 00d5 6C6F6E67 		.ascii	"long int\000"
 7893      20696E74 
 7893      00
 7894              	.LASF40:
 7895 00de 42554646 		.ascii	"BUFFER_shrink\000"
 7895      45525F73 
 7895      6872696E 
 7895      6B00
 7896              	.LASF70:
 7897 00ec 6D656D63 		.ascii	"memcpy\000"
 7897      707900
 7898              	.LASF34:
 7899 00f3 42554646 		.ascii	"BUFFER_pre_build\000"
 7899      45525F70 
 7899      72655F62 
 7899      75696C64 
 7899      00
 7900              	.LASF13:
 7901 0104 42554646 		.ascii	"BUFFER_HANDLE\000"
 7901      45525F48 
 7901      414E444C 
 7901      4500
 7902              	.LASF64:
 7903 0112 536F7572 		.ascii	"Source\\azure_iot_sdk\\c-utility\\src\\buffer.c\000"
 7903      63655C61 
 7903      7A757265 
 7903      5F696F74 
 7903      5F73646B 
 7904              	.LASF0:
 7905 013e 756E7369 		.ascii	"unsigned int\000"
 7905      676E6564 
 7905      20696E74 
 7905      00
 7906              	.LASF47:
 7907 014b 68616E64 		.ascii	"handle1\000"
 7907      6C653100 
 7908              	.LASF48:
 7909 0153 68616E64 		.ascii	"handle2\000"
 7909      6C653200 
 7910              	.LASF8:
 7911 015b 6C6F6E67 		.ascii	"long unsigned int\000"
 7911      20756E73 
 7911      69676E65 
 7911      6420696E 
 7911      7400
 7912              	.LASF41:
 7913 016d 64656372 		.ascii	"decreaseSize\000"
 7913      65617365 
 7913      53697A65 
ARM GAS  C:\Users\Phuong\AppData\Local\Temp\ccVRtur0.s 			page 155


 7913      00
 7914              	.LASF20:
 7915 017a 4C4F4747 		.ascii	"LOGGER_LOG\000"
 7915      45525F4C 
 7915      4F4700
 7916              	.LASF15:
 7917 0185 73697A65 		.ascii	"size\000"
 7917      00
 7918              	.LASF6:
 7919 018a 73686F72 		.ascii	"short unsigned int\000"
 7919      7420756E 
 7919      7369676E 
 7919      65642069 
 7919      6E7400
 7920              	.LASF51:
 7921 019d 66696C6C 		.ascii	"fill_char\000"
 7921      5F636861 
 7921      7200
 7922              	.LASF28:
 7923 01a7 736F7572 		.ascii	"source\000"
 7923      636500
 7924              	.LASF50:
 7925 01ae 42554646 		.ascii	"BUFFER_fill\000"
 7925      45525F66 
 7925      696C6C00 
 7926              	.LASF10:
 7927 01ba 73697A65 		.ascii	"sizetype\000"
 7927      74797065 
 7927      00
 7928              	.LASF36:
 7929 01c3 636F6E74 		.ascii	"content\000"
 7929      656E7400 
 7930              	.LASF2:
 7931 01cb 6C6F6E67 		.ascii	"long double\000"
 7931      20646F75 
 7931      626C6500 
 7932              	.LASF65:
 7933 01d7 433A5C55 		.ascii	"C:\\Users\\Phuong\\Documents\\PSoC Creator\\Dec0820"
 7933      73657273 
 7933      5C506875 
 7933      6F6E675C 
 7933      446F6375 
 7934 0205 31385C69 		.ascii	"18\\iot-sdk-iot-dev\\PSOC6_FreeRTOS+LwIP+MbedTLS_Az"
 7934      6F742D73 
 7934      646B2D69 
 7934      6F742D64 
 7934      65765C50 
 7935 0236 7572652D 		.ascii	"ure-IOT-Hub-Demo\\PSOC6_FreeRTOS+LwIP+MbedTLS_Azure"
 7935      494F542D 
 7935      4875622D 
 7935      44656D6F 
 7935      5C50534F 
 7936 0268 2D494F54 		.ascii	"-IOT-Hub-Demo.cydsn\000"
 7936      2D487562 
 7936      2D44656D 
 7936      6F2E6379 
 7936      64736E00 
ARM GAS  C:\Users\Phuong\AppData\Local\Temp\ccVRtur0.s 			page 156


 7937              	.LASF35:
 7938 027c 42554646 		.ascii	"BUFFER_content\000"
 7938      45525F63 
 7938      6F6E7465 
 7938      6E7400
 7939              	.LASF68:
 7940 028b 42554646 		.ascii	"BUFFER_safemalloc\000"
 7940      45525F73 
 7940      6166656D 
 7940      616C6C6F 
 7940      6300
 7941              	.LASF24:
 7942 029d 73697A65 		.ascii	"sizetomalloc\000"
 7942      746F6D61 
 7942      6C6C6F63 
 7942      00
 7943              	.LASF58:
 7944 02aa 73757070 		.ascii	"suppliedBuff\000"
 7944      6C696564 
 7944      42756666 
 7944      00
 7945              	.LASF19:
 7946 02b7 4C4F475F 		.ascii	"LOG_CATEGORY\000"
 7946      43415445 
 7946      474F5259 
 7946      00
 7947              	.LASF44:
 7948 02c4 5F426F6F 		.ascii	"_Bool\000"
 7948      6C00
 7949              	.LASF4:
 7950 02ca 756E7369 		.ascii	"unsigned char\000"
 7950      676E6564 
 7950      20636861 
 7950      7200
 7951              	.LASF49:
 7952 02d8 42554646 		.ascii	"BUFFER_prepend\000"
 7952      45525F70 
 7952      72657065 
 7952      6E6400
 7953              	.LASF5:
 7954 02e7 73686F72 		.ascii	"short int\000"
 7954      7420696E 
 7954      7400
 7955              	.LASF27:
 7956 02f1 42554646 		.ascii	"BUFFER_create\000"
 7956      45525F63 
 7956      72656174 
 7956      6500
 7957              	.LASF38:
 7958 02ff 42554646 		.ascii	"BUFFER_enlarge\000"
 7958      45525F65 
 7958      6E6C6172 
 7958      676500
 7959              	.LASF29:
 7960 030e 5F5F6675 		.ascii	"__func__\000"
 7960      6E635F5F 
 7960      00
ARM GAS  C:\Users\Phuong\AppData\Local\Temp\ccVRtur0.s 			page 157


 7961              	.LASF39:
 7962 0317 656E6C61 		.ascii	"enlargeSize\000"
 7962      72676553 
 7962      697A6500 
 7963              	.LASF63:
 7964 0323 474E5520 		.ascii	"GNU C11 5.4.1 20160609 (release) [ARM/embedded-5-br"
 7964      43313120 
 7964      352E342E 
 7964      31203230 
 7964      31363036 
 7965 0356 616E6368 		.ascii	"anch revision 237715] -mcpu=cortex-m0plus -mthumb -"
 7965      20726576 
 7965      6973696F 
 7965      6E203233 
 7965      37373135 
 7966 0389 67202D4F 		.ascii	"g -Og -ffunction-sections -ffat-lto-objects\000"
 7966      67202D66 
 7966      66756E63 
 7966      74696F6E 
 7966      2D736563 
 7967              	.LASF11:
 7968 03b5 63686172 		.ascii	"char\000"
 7968      00
 7969              	.LASF33:
 7970 03ba 42554646 		.ascii	"BUFFER_append_build\000"
 7970      45525F61 
 7970      7070656E 
 7970      645F6275 
 7970      696C6400 
 7971              	.LASF52:
 7972 03ce 696E6465 		.ascii	"index\000"
 7972      7800
 7973              	.LASF21:
 7974 03d4 42554646 		.ascii	"BUFFER\000"
 7974      455200
 7975              	.LASF14:
 7976 03db 62756666 		.ascii	"buffer\000"
 7976      657200
 7977              	.LASF57:
 7978 03e2 42554646 		.ascii	"BUFFER_clone\000"
 7978      45525F63 
 7978      6C6F6E65 
 7978      00
 7979              	.LASF43:
 7980 03ef 616C6C6F 		.ascii	"alloc_size\000"
 7980      635F7369 
 7980      7A6500
 7981              	.LASF32:
 7982 03fa 6E657742 		.ascii	"newBuffer\000"
 7982      75666665 
 7982      7200
 7983              	.LASF42:
 7984 0404 66726F6D 		.ascii	"fromEnd\000"
 7984      456E6400 
 7985              	.LASF59:
 7986 040c 786C6F67 		.ascii	"xlogging_get_log_function\000"
 7986      67696E67 
ARM GAS  C:\Users\Phuong\AppData\Local\Temp\ccVRtur0.s 			page 158


 7986      5F676574 
 7986      5F6C6F67 
 7986      5F66756E 
 7987              	.LASF54:
 7988 0426 42554646 		.ascii	"BUFFER_u_char\000"
 7988      45525F75 
 7988      5F636861 
 7988      7200
 7989              	.LASF30:
 7990 0434 68616E64 		.ascii	"handle\000"
 7990      6C6500
 7991              	.LASF55:
 7992 043b 68616E64 		.ascii	"handleData\000"
 7992      6C654461 
 7992      746100
 7993              	.LASF62:
 7994 0446 7265616C 		.ascii	"realloc\000"
 7994      6C6F6300 
 7995              	.LASF67:
 7996 044e 4C4F475F 		.ascii	"LOG_CATEGORY_TAG\000"
 7996      43415445 
 7996      474F5259 
 7996      5F544147 
 7996      00
 7997              	.LASF23:
 7998 045f 72657375 		.ascii	"result\000"
 7998      6C7400
 7999              	.LASF45:
 8000 0466 42554646 		.ascii	"BUFFER_size\000"
 8000      45525F73 
 8000      697A6500 
 8001              	.LASF17:
 8002 0472 415A5F4C 		.ascii	"AZ_LOG_INFO\000"
 8002      4F475F49 
 8002      4E464F00 
 8003              		.ident	"GCC: (GNU Tools for ARM Embedded Processors) 5.4.1 20160609 (release) [ARM/embedded-5-bran
