ARM GAS  C:\Users\Phuong\AppData\Local\Temp\ccVRtur0.s 			page 1


   1              		.syntax unified
   2              		.cpu cortex-m0plus
   3              		.fpu softvfp
   4              		.eabi_attribute 20, 1
   5              		.eabi_attribute 21, 1
   6              		.eabi_attribute 23, 3
   7              		.eabi_attribute 24, 1
   8              		.eabi_attribute 25, 1
   9              		.eabi_attribute 26, 1
  10              		.eabi_attribute 30, 1
  11              		.eabi_attribute 34, 0
  12              		.eabi_attribute 18, 4
  13              		.thumb
  14              		.syntax unified
  15              		.file	"buffer.c"
  16              		.text
  17              	.Ltext0:
  18              		.cfi_sections	.debug_frame
  19              		.section	.text.BUFFER_safemalloc,"ax",%progbits
  20              		.align	2
  21              		.code	16
  22              		.thumb_func
  23              		.type	BUFFER_safemalloc, %function
  24              	BUFFER_safemalloc:
  25              	.LFB2:
  26              		.file 1 "Source\\azure_iot_sdk\\c-utility\\src\\buffer.c"
   1:Source\azure_iot_sdk\c-utility\src/buffer.c **** // Copyright (c) Microsoft. All rights reserved.
   2:Source\azure_iot_sdk\c-utility\src/buffer.c **** // Licensed under the MIT license. See LICENSE file in the project root for full license informatio
   3:Source\azure_iot_sdk\c-utility\src/buffer.c **** 
   4:Source\azure_iot_sdk\c-utility\src/buffer.c **** #include <stdlib.h>
   5:Source\azure_iot_sdk\c-utility\src/buffer.c **** #include <stddef.h>
   6:Source\azure_iot_sdk\c-utility\src/buffer.c **** #include <string.h>
   7:Source\azure_iot_sdk\c-utility\src/buffer.c **** #include <stdbool.h>
   8:Source\azure_iot_sdk\c-utility\src/buffer.c **** #include "azure_c_shared_utility/gballoc.h"
   9:Source\azure_iot_sdk\c-utility\src/buffer.c **** #include "azure_c_shared_utility/buffer_.h"
  10:Source\azure_iot_sdk\c-utility\src/buffer.c **** #include "azure_c_shared_utility/optimize_size.h"
  11:Source\azure_iot_sdk\c-utility\src/buffer.c **** #include "azure_c_shared_utility/xlogging.h"
  12:Source\azure_iot_sdk\c-utility\src/buffer.c **** 
  13:Source\azure_iot_sdk\c-utility\src/buffer.c **** typedef struct BUFFER_TAG
  14:Source\azure_iot_sdk\c-utility\src/buffer.c **** {
  15:Source\azure_iot_sdk\c-utility\src/buffer.c ****     unsigned char* buffer;
  16:Source\azure_iot_sdk\c-utility\src/buffer.c ****     size_t size;
  17:Source\azure_iot_sdk\c-utility\src/buffer.c **** } BUFFER;
  18:Source\azure_iot_sdk\c-utility\src/buffer.c **** 
  19:Source\azure_iot_sdk\c-utility\src/buffer.c **** /* Codes_SRS_BUFFER_07_001: [BUFFER_new shall allocate a BUFFER_HANDLE that will contain a NULL uns
  20:Source\azure_iot_sdk\c-utility\src/buffer.c **** BUFFER_HANDLE BUFFER_new(void)
  21:Source\azure_iot_sdk\c-utility\src/buffer.c **** {
  22:Source\azure_iot_sdk\c-utility\src/buffer.c ****     BUFFER* temp = (BUFFER*)malloc(sizeof(BUFFER));
  23:Source\azure_iot_sdk\c-utility\src/buffer.c ****     /* Codes_SRS_BUFFER_07_002: [BUFFER_new shall return NULL on any error that occurs.] */
  24:Source\azure_iot_sdk\c-utility\src/buffer.c ****     if (temp != NULL)
  25:Source\azure_iot_sdk\c-utility\src/buffer.c ****     {
  26:Source\azure_iot_sdk\c-utility\src/buffer.c ****         temp->buffer = NULL;
  27:Source\azure_iot_sdk\c-utility\src/buffer.c ****         temp->size = 0;
  28:Source\azure_iot_sdk\c-utility\src/buffer.c ****     }
  29:Source\azure_iot_sdk\c-utility\src/buffer.c ****     return (BUFFER_HANDLE)temp;
  30:Source\azure_iot_sdk\c-utility\src/buffer.c **** }
  31:Source\azure_iot_sdk\c-utility\src/buffer.c **** 
ARM GAS  C:\Users\Phuong\AppData\Local\Temp\ccVRtur0.s 			page 2


  32:Source\azure_iot_sdk\c-utility\src/buffer.c **** static int BUFFER_safemalloc(BUFFER* handleptr, size_t size)
  33:Source\azure_iot_sdk\c-utility\src/buffer.c **** {
  27              		.loc 1 33 0
  28              		.cfi_startproc
  29              		@ args = 0, pretend = 0, frame = 0
  30              		@ frame_needed = 0, uses_anonymous_args = 0
  31              	.LVL0:
  32 0000 30B5     		push	{r4, r5, lr}
  33              		.cfi_def_cfa_offset 12
  34              		.cfi_offset 4, -12
  35              		.cfi_offset 5, -8
  36              		.cfi_offset 14, -4
  37 0002 83B0     		sub	sp, sp, #12
  38              		.cfi_def_cfa_offset 24
  39 0004 0500     		movs	r5, r0
  40 0006 0C1E     		subs	r4, r1, #0
  41              	.LVL1:
  34:Source\azure_iot_sdk\c-utility\src/buffer.c ****     int result;
  35:Source\azure_iot_sdk\c-utility\src/buffer.c ****     size_t sizetomalloc = size;
  36:Source\azure_iot_sdk\c-utility\src/buffer.c ****     if (size == 0)
  42              		.loc 1 36 0
  43 0008 01D0     		beq	.L5
  35:Source\azure_iot_sdk\c-utility\src/buffer.c ****     if (size == 0)
  44              		.loc 1 35 0
  45 000a 0800     		movs	r0, r1
  46              	.LVL2:
  47 000c 00E0     		b	.L2
  48              	.LVL3:
  49              	.L5:
  37:Source\azure_iot_sdk\c-utility\src/buffer.c ****     {
  38:Source\azure_iot_sdk\c-utility\src/buffer.c ****         sizetomalloc = 1;
  50              		.loc 1 38 0
  51 000e 0120     		movs	r0, #1
  52              	.LVL4:
  53              	.L2:
  39:Source\azure_iot_sdk\c-utility\src/buffer.c ****     }
  40:Source\azure_iot_sdk\c-utility\src/buffer.c ****     handleptr->buffer = (unsigned char*)malloc(sizetomalloc);
  54              		.loc 1 40 0
  55 0010 FFF7FEFF 		bl	malloc
  56              	.LVL5:
  57 0014 2860     		str	r0, [r5]
  41:Source\azure_iot_sdk\c-utility\src/buffer.c ****     if (handleptr->buffer == NULL)
  58              		.loc 1 41 0
  59 0016 0028     		cmp	r0, #0
  60 0018 0ED1     		bne	.L3
  61              	.LBB2:
  42:Source\azure_iot_sdk\c-utility\src/buffer.c ****     {
  43:Source\azure_iot_sdk\c-utility\src/buffer.c ****         /*Codes_SRS_BUFFER_02_003: [If allocating memory fails, then BUFFER_create shall return NUL
  44:Source\azure_iot_sdk\c-utility\src/buffer.c ****         LogError("Failure allocating data");
  62              		.loc 1 44 0 discriminator 3
  63 001a FFF7FEFF 		bl	xlogging_get_log_function
  64              	.LVL6:
  65 001e 041E     		subs	r4, r0, #0
  66              	.LVL7:
  67 0020 0DD0     		beq	.L6
  68              		.loc 1 44 0 is_stmt 0 discriminator 4
  69 0022 084B     		ldr	r3, .L7
ARM GAS  C:\Users\Phuong\AppData\Local\Temp\ccVRtur0.s 			page 3


  70 0024 0193     		str	r3, [sp, #4]
  71 0026 0123     		movs	r3, #1
  72 0028 0093     		str	r3, [sp]
  73 002a 2B33     		adds	r3, r3, #43
  74 002c 064A     		ldr	r2, .L7+4
  75 002e 0749     		ldr	r1, .L7+8
  76 0030 0020     		movs	r0, #0
  77              	.LVL8:
  78 0032 A047     		blx	r4
  79              	.LVL9:
  80              	.LBE2:
  45:Source\azure_iot_sdk\c-utility\src/buffer.c ****         result = __FAILURE__;
  81              		.loc 1 45 0 is_stmt 1 discriminator 4
  82 0034 2D20     		movs	r0, #45
  83 0036 03E0     		b	.L4
  84              	.LVL10:
  85              	.L3:
  46:Source\azure_iot_sdk\c-utility\src/buffer.c ****     }
  47:Source\azure_iot_sdk\c-utility\src/buffer.c ****     else
  48:Source\azure_iot_sdk\c-utility\src/buffer.c ****     {
  49:Source\azure_iot_sdk\c-utility\src/buffer.c ****         // we still consider the real buffer size is 0
  50:Source\azure_iot_sdk\c-utility\src/buffer.c ****         handleptr->size = size;
  86              		.loc 1 50 0
  87 0038 6C60     		str	r4, [r5, #4]
  88              	.LVL11:
  51:Source\azure_iot_sdk\c-utility\src/buffer.c ****         result = 0;
  89              		.loc 1 51 0
  90 003a 0020     		movs	r0, #0
  91 003c 00E0     		b	.L4
  92              	.LVL12:
  93              	.L6:
  45:Source\azure_iot_sdk\c-utility\src/buffer.c ****         result = __FAILURE__;
  94              		.loc 1 45 0
  95 003e 2D20     		movs	r0, #45
  96              	.LVL13:
  97              	.L4:
  52:Source\azure_iot_sdk\c-utility\src/buffer.c ****     }
  53:Source\azure_iot_sdk\c-utility\src/buffer.c ****     return result;
  54:Source\azure_iot_sdk\c-utility\src/buffer.c **** }
  98              		.loc 1 54 0
  99 0040 03B0     		add	sp, sp, #12
 100              		@ sp needed
 101              	.LVL14:
 102 0042 30BD     		pop	{r4, r5, pc}
 103              	.L8:
 104              		.align	2
 105              	.L7:
 106 0044 2C000000 		.word	.LC3
 107 0048 00000000 		.word	.LANCHOR0
 108 004c 00000000 		.word	.LC1
 109              		.cfi_endproc
 110              	.LFE2:
 111              		.size	BUFFER_safemalloc, .-BUFFER_safemalloc
 112              		.section	.text.BUFFER_new,"ax",%progbits
 113              		.align	2
 114              		.global	BUFFER_new
 115              		.code	16
ARM GAS  C:\Users\Phuong\AppData\Local\Temp\ccVRtur0.s 			page 4


 116              		.thumb_func
 117              		.type	BUFFER_new, %function
 118              	BUFFER_new:
 119              	.LFB1:
  21:Source\azure_iot_sdk\c-utility\src/buffer.c ****     BUFFER* temp = (BUFFER*)malloc(sizeof(BUFFER));
 120              		.loc 1 21 0
 121              		.cfi_startproc
 122              		@ args = 0, pretend = 0, frame = 0
 123              		@ frame_needed = 0, uses_anonymous_args = 0
 124 0000 10B5     		push	{r4, lr}
 125              		.cfi_def_cfa_offset 8
 126              		.cfi_offset 4, -8
 127              		.cfi_offset 14, -4
  22:Source\azure_iot_sdk\c-utility\src/buffer.c ****     /* Codes_SRS_BUFFER_07_002: [BUFFER_new shall return NULL on any error that occurs.] */
 128              		.loc 1 22 0
 129 0002 0820     		movs	r0, #8
 130 0004 FFF7FEFF 		bl	malloc
 131              	.LVL15:
  24:Source\azure_iot_sdk\c-utility\src/buffer.c ****     {
 132              		.loc 1 24 0
 133 0008 0028     		cmp	r0, #0
 134 000a 02D0     		beq	.L10
  26:Source\azure_iot_sdk\c-utility\src/buffer.c ****         temp->size = 0;
 135              		.loc 1 26 0
 136 000c 0023     		movs	r3, #0
 137 000e 0360     		str	r3, [r0]
  27:Source\azure_iot_sdk\c-utility\src/buffer.c ****     }
 138              		.loc 1 27 0
 139 0010 4360     		str	r3, [r0, #4]
 140              	.L10:
  30:Source\azure_iot_sdk\c-utility\src/buffer.c **** 
 141              		.loc 1 30 0
 142              		@ sp needed
 143 0012 10BD     		pop	{r4, pc}
 144              		.cfi_endproc
 145              	.LFE1:
 146              		.size	BUFFER_new, .-BUFFER_new
 147              		.section	.text.BUFFER_create,"ax",%progbits
 148              		.align	2
 149              		.global	BUFFER_create
 150              		.code	16
 151              		.thumb_func
 152              		.type	BUFFER_create, %function
 153              	BUFFER_create:
 154              	.LFB3:
  55:Source\azure_iot_sdk\c-utility\src/buffer.c **** 
  56:Source\azure_iot_sdk\c-utility\src/buffer.c **** BUFFER_HANDLE BUFFER_create(const unsigned char* source, size_t size)
  57:Source\azure_iot_sdk\c-utility\src/buffer.c **** {
 155              		.loc 1 57 0
 156              		.cfi_startproc
 157              		@ args = 0, pretend = 0, frame = 0
 158              		@ frame_needed = 0, uses_anonymous_args = 0
 159              	.LVL16:
 160 0000 70B5     		push	{r4, r5, r6, lr}
 161              		.cfi_def_cfa_offset 16
 162              		.cfi_offset 4, -16
 163              		.cfi_offset 5, -12
ARM GAS  C:\Users\Phuong\AppData\Local\Temp\ccVRtur0.s 			page 5


 164              		.cfi_offset 6, -8
 165              		.cfi_offset 14, -4
 166 0002 84B0     		sub	sp, sp, #16
 167              		.cfi_def_cfa_offset 32
 168 0004 0500     		movs	r5, r0
 169 0006 0E00     		movs	r6, r1
  58:Source\azure_iot_sdk\c-utility\src/buffer.c ****     BUFFER* result;
  59:Source\azure_iot_sdk\c-utility\src/buffer.c ****     /*Codes_SRS_BUFFER_02_001: [If source is NULL then BUFFER_create shall return NULL.]*/
  60:Source\azure_iot_sdk\c-utility\src/buffer.c ****     if (source == NULL)
 170              		.loc 1 60 0
 171 0008 0028     		cmp	r0, #0
 172 000a 10D1     		bne	.L12
 173              	.LBB3:
  61:Source\azure_iot_sdk\c-utility\src/buffer.c ****     {
  62:Source\azure_iot_sdk\c-utility\src/buffer.c ****         LogError("invalid parameter source: %p", source);
 174              		.loc 1 62 0 discriminator 3
 175 000c FFF7FEFF 		bl	xlogging_get_log_function
 176              	.LVL17:
 177 0010 041E     		subs	r4, r0, #0
 178              	.LVL18:
 179 0012 3ED0     		beq	.L17
 180              		.loc 1 62 0 is_stmt 0 discriminator 4
 181 0014 0295     		str	r5, [sp, #8]
 182 0016 214B     		ldr	r3, .L18
 183 0018 0193     		str	r3, [sp, #4]
 184 001a 0123     		movs	r3, #1
 185 001c 0093     		str	r3, [sp]
 186 001e 3D33     		adds	r3, r3, #61
 187 0020 1F4A     		ldr	r2, .L18+4
 188 0022 1432     		adds	r2, r2, #20
 189 0024 1F49     		ldr	r1, .L18+8
 190 0026 0020     		movs	r0, #0
 191              	.LVL19:
 192 0028 A047     		blx	r4
 193              	.LVL20:
 194              	.LBE3:
  63:Source\azure_iot_sdk\c-utility\src/buffer.c ****         result = NULL;
 195              		.loc 1 63 0 is_stmt 1 discriminator 4
 196 002a 0024     		movs	r4, #0
 197              	.LVL21:
 198 002c 32E0     		b	.L13
 199              	.LVL22:
 200              	.L12:
  64:Source\azure_iot_sdk\c-utility\src/buffer.c ****     }
  65:Source\azure_iot_sdk\c-utility\src/buffer.c ****     else
  66:Source\azure_iot_sdk\c-utility\src/buffer.c ****     {
  67:Source\azure_iot_sdk\c-utility\src/buffer.c ****         /*Codes_SRS_BUFFER_02_002: [Otherwise, BUFFER_create shall allocate memory to hold size byt
  68:Source\azure_iot_sdk\c-utility\src/buffer.c ****         result = (BUFFER*)malloc(sizeof(BUFFER));
 201              		.loc 1 68 0
 202 002e 0820     		movs	r0, #8
 203              	.LVL23:
 204 0030 FFF7FEFF 		bl	malloc
 205              	.LVL24:
 206 0034 041E     		subs	r4, r0, #0
 207              	.LVL25:
  69:Source\azure_iot_sdk\c-utility\src/buffer.c ****         if (result == NULL)
 208              		.loc 1 69 0
ARM GAS  C:\Users\Phuong\AppData\Local\Temp\ccVRtur0.s 			page 6


 209 0036 0ED1     		bne	.L14
 210              	.LBB4:
  70:Source\azure_iot_sdk\c-utility\src/buffer.c ****         {
  71:Source\azure_iot_sdk\c-utility\src/buffer.c ****             /*Codes_SRS_BUFFER_02_003: [If allocating memory fails, then BUFFER_create shall return
  72:Source\azure_iot_sdk\c-utility\src/buffer.c ****             /*fallthrough*/
  73:Source\azure_iot_sdk\c-utility\src/buffer.c ****             LogError("Failure allocating BUFFER structure");
 211              		.loc 1 73 0 discriminator 3
 212 0038 FFF7FEFF 		bl	xlogging_get_log_function
 213              	.LVL26:
 214 003c 051E     		subs	r5, r0, #0
 215              	.LVL27:
 216 003e 29D0     		beq	.L13
 217              		.loc 1 73 0 is_stmt 0 discriminator 4
 218 0040 194B     		ldr	r3, .L18+12
 219 0042 0193     		str	r3, [sp, #4]
 220 0044 0123     		movs	r3, #1
 221 0046 0093     		str	r3, [sp]
 222 0048 4833     		adds	r3, r3, #72
 223 004a 154A     		ldr	r2, .L18+4
 224 004c 1432     		adds	r2, r2, #20
 225 004e 1549     		ldr	r1, .L18+8
 226 0050 0020     		movs	r0, #0
 227              	.LVL28:
 228 0052 A847     		blx	r5
 229              	.LVL29:
 230 0054 1EE0     		b	.L13
 231              	.LVL30:
 232              	.L14:
 233              	.LBE4:
  74:Source\azure_iot_sdk\c-utility\src/buffer.c ****         }
  75:Source\azure_iot_sdk\c-utility\src/buffer.c ****         else
  76:Source\azure_iot_sdk\c-utility\src/buffer.c ****         {
  77:Source\azure_iot_sdk\c-utility\src/buffer.c ****             /* Codes_SRS_BUFFER_02_005: [If size parameter is 0 then 1 byte of memory shall be allo
  78:Source\azure_iot_sdk\c-utility\src/buffer.c ****             if (BUFFER_safemalloc(result, size) != 0)
 234              		.loc 1 78 0 is_stmt 1
 235 0056 3100     		movs	r1, r6
 236 0058 FFF7FEFF 		bl	BUFFER_safemalloc
 237              	.LVL31:
 238 005c 0028     		cmp	r0, #0
 239 005e 12D0     		beq	.L15
 240              	.LBB5:
  79:Source\azure_iot_sdk\c-utility\src/buffer.c ****             {
  80:Source\azure_iot_sdk\c-utility\src/buffer.c ****                 LogError("unable to BUFFER_safemalloc ");
 241              		.loc 1 80 0 discriminator 3
 242 0060 FFF7FEFF 		bl	xlogging_get_log_function
 243              	.LVL32:
 244 0064 051E     		subs	r5, r0, #0
 245              	.LVL33:
 246 0066 09D0     		beq	.L16
 247              		.loc 1 80 0 is_stmt 0 discriminator 4
 248 0068 104B     		ldr	r3, .L18+16
 249 006a 0193     		str	r3, [sp, #4]
 250 006c 0123     		movs	r3, #1
 251 006e 0093     		str	r3, [sp]
 252 0070 4F33     		adds	r3, r3, #79
 253 0072 0B4A     		ldr	r2, .L18+4
 254 0074 1432     		adds	r2, r2, #20
ARM GAS  C:\Users\Phuong\AppData\Local\Temp\ccVRtur0.s 			page 7


 255 0076 0B49     		ldr	r1, .L18+8
 256 0078 0020     		movs	r0, #0
 257              	.LVL34:
 258 007a A847     		blx	r5
 259              	.LVL35:
 260              	.L16:
 261              	.LBE5:
  81:Source\azure_iot_sdk\c-utility\src/buffer.c ****                 free(result);
 262              		.loc 1 81 0 is_stmt 1
 263 007c 2000     		movs	r0, r4
 264 007e FFF7FEFF 		bl	free
 265              	.LVL36:
  82:Source\azure_iot_sdk\c-utility\src/buffer.c ****                 result = NULL;
 266              		.loc 1 82 0
 267 0082 0024     		movs	r4, #0
 268 0084 06E0     		b	.L13
 269              	.LVL37:
 270              	.L15:
  83:Source\azure_iot_sdk\c-utility\src/buffer.c ****             }
  84:Source\azure_iot_sdk\c-utility\src/buffer.c ****             else
  85:Source\azure_iot_sdk\c-utility\src/buffer.c ****             {
  86:Source\azure_iot_sdk\c-utility\src/buffer.c ****                 /*Codes_SRS_BUFFER_02_004: [Otherwise, BUFFER_create shall return a non-NULL handle
  87:Source\azure_iot_sdk\c-utility\src/buffer.c ****                 (void)memcpy(result->buffer, source, size);
 271              		.loc 1 87 0
 272 0086 3200     		movs	r2, r6
 273 0088 2900     		movs	r1, r5
 274 008a 2068     		ldr	r0, [r4]
 275 008c FFF7FEFF 		bl	memcpy
 276              	.LVL38:
 277 0090 00E0     		b	.L13
 278              	.LVL39:
 279              	.L17:
  63:Source\azure_iot_sdk\c-utility\src/buffer.c ****     }
 280              		.loc 1 63 0
 281 0092 0024     		movs	r4, #0
 282              	.LVL40:
 283              	.L13:
  88:Source\azure_iot_sdk\c-utility\src/buffer.c ****             }
  89:Source\azure_iot_sdk\c-utility\src/buffer.c ****         }
  90:Source\azure_iot_sdk\c-utility\src/buffer.c ****     }
  91:Source\azure_iot_sdk\c-utility\src/buffer.c ****     return (BUFFER_HANDLE)result;
  92:Source\azure_iot_sdk\c-utility\src/buffer.c **** }
 284              		.loc 1 92 0
 285 0094 2000     		movs	r0, r4
 286 0096 04B0     		add	sp, sp, #16
 287              		@ sp needed
 288              	.LVL41:
 289              	.LVL42:
 290 0098 70BD     		pop	{r4, r5, r6, pc}
 291              	.L19:
 292 009a C046     		.align	2
 293              	.L18:
 294 009c 44000000 		.word	.LC7
 295 00a0 00000000 		.word	.LANCHOR0
 296 00a4 00000000 		.word	.LC1
 297 00a8 64000000 		.word	.LC9
 298 00ac 88000000 		.word	.LC11
ARM GAS  C:\Users\Phuong\AppData\Local\Temp\ccVRtur0.s 			page 8


 299              		.cfi_endproc
 300              	.LFE3:
 301              		.size	BUFFER_create, .-BUFFER_create
 302              		.section	.text.BUFFER_delete,"ax",%progbits
 303              		.align	2
 304              		.global	BUFFER_delete
 305              		.code	16
 306              		.thumb_func
 307              		.type	BUFFER_delete, %function
 308              	BUFFER_delete:
 309              	.LFB4:
  93:Source\azure_iot_sdk\c-utility\src/buffer.c **** 
  94:Source\azure_iot_sdk\c-utility\src/buffer.c **** /* Codes_SRS_BUFFER_07_003: [BUFFER_delete shall delete the data associated with the BUFFER_HANDLE 
  95:Source\azure_iot_sdk\c-utility\src/buffer.c **** void BUFFER_delete(BUFFER_HANDLE handle)
  96:Source\azure_iot_sdk\c-utility\src/buffer.c **** {
 310              		.loc 1 96 0
 311              		.cfi_startproc
 312              		@ args = 0, pretend = 0, frame = 0
 313              		@ frame_needed = 0, uses_anonymous_args = 0
 314              	.LVL43:
 315 0000 10B5     		push	{r4, lr}
 316              		.cfi_def_cfa_offset 8
 317              		.cfi_offset 4, -8
 318              		.cfi_offset 14, -4
 319 0002 041E     		subs	r4, r0, #0
  97:Source\azure_iot_sdk\c-utility\src/buffer.c ****     /* Codes_SRS_BUFFER_07_004: [BUFFER_delete shall not delete any BUFFER_HANDLE that is NULL.] */
  98:Source\azure_iot_sdk\c-utility\src/buffer.c ****     if (handle != NULL)
 320              		.loc 1 98 0
 321 0004 07D0     		beq	.L20
 322              	.LVL44:
 323              	.LBB6:
  99:Source\azure_iot_sdk\c-utility\src/buffer.c ****     {
 100:Source\azure_iot_sdk\c-utility\src/buffer.c ****         BUFFER* b = (BUFFER*)handle;
 101:Source\azure_iot_sdk\c-utility\src/buffer.c ****         if (b->buffer != NULL)
 324              		.loc 1 101 0
 325 0006 0068     		ldr	r0, [r0]
 326              	.LVL45:
 327 0008 0028     		cmp	r0, #0
 328 000a 01D0     		beq	.L22
 102:Source\azure_iot_sdk\c-utility\src/buffer.c ****         {
 103:Source\azure_iot_sdk\c-utility\src/buffer.c ****             /* Codes_SRS_BUFFER_07_003: [BUFFER_delete shall delete the data associated with the BU
 104:Source\azure_iot_sdk\c-utility\src/buffer.c ****             free(b->buffer);
 329              		.loc 1 104 0
 330 000c FFF7FEFF 		bl	free
 331              	.LVL46:
 332              	.L22:
 105:Source\azure_iot_sdk\c-utility\src/buffer.c ****         }
 106:Source\azure_iot_sdk\c-utility\src/buffer.c ****         free(b);
 333              		.loc 1 106 0
 334 0010 2000     		movs	r0, r4
 335 0012 FFF7FEFF 		bl	free
 336              	.LVL47:
 337              	.L20:
 338              	.LBE6:
 107:Source\azure_iot_sdk\c-utility\src/buffer.c ****     }
 108:Source\azure_iot_sdk\c-utility\src/buffer.c **** }
 339              		.loc 1 108 0
ARM GAS  C:\Users\Phuong\AppData\Local\Temp\ccVRtur0.s 			page 9


 340              		@ sp needed
 341              	.LVL48:
 342 0016 10BD     		pop	{r4, pc}
 343              		.cfi_endproc
 344              	.LFE4:
 345              		.size	BUFFER_delete, .-BUFFER_delete
 346              		.section	.text.BUFFER_build,"ax",%progbits
 347              		.align	2
 348              		.global	BUFFER_build
 349              		.code	16
 350              		.thumb_func
 351              		.type	BUFFER_build, %function
 352              	BUFFER_build:
 353              	.LFB5:
 109:Source\azure_iot_sdk\c-utility\src/buffer.c **** 
 110:Source\azure_iot_sdk\c-utility\src/buffer.c **** /*return 0 if the buffer was copied*/
 111:Source\azure_iot_sdk\c-utility\src/buffer.c **** /*else return different than zero*/
 112:Source\azure_iot_sdk\c-utility\src/buffer.c **** /* Codes_SRS_BUFFER_07_008: [BUFFER_build allocates size_t bytes, copies the unsigned char* into th
 113:Source\azure_iot_sdk\c-utility\src/buffer.c **** int BUFFER_build(BUFFER_HANDLE handle, const unsigned char* source, size_t size)
 114:Source\azure_iot_sdk\c-utility\src/buffer.c **** {
 354              		.loc 1 114 0
 355              		.cfi_startproc
 356              		@ args = 0, pretend = 0, frame = 0
 357              		@ frame_needed = 0, uses_anonymous_args = 0
 358              	.LVL49:
 359 0000 70B5     		push	{r4, r5, r6, lr}
 360              		.cfi_def_cfa_offset 16
 361              		.cfi_offset 4, -16
 362              		.cfi_offset 5, -12
 363              		.cfi_offset 6, -8
 364              		.cfi_offset 14, -4
 365 0002 82B0     		sub	sp, sp, #8
 366              		.cfi_def_cfa_offset 24
 367 0004 0400     		movs	r4, r0
 368 0006 0E00     		movs	r6, r1
 369 0008 1500     		movs	r5, r2
 115:Source\azure_iot_sdk\c-utility\src/buffer.c ****     int result;
 116:Source\azure_iot_sdk\c-utility\src/buffer.c ****     if (handle == NULL)
 370              		.loc 1 116 0
 371 000a 0028     		cmp	r0, #0
 372 000c 29D0     		beq	.L27
 117:Source\azure_iot_sdk\c-utility\src/buffer.c ****     {
 118:Source\azure_iot_sdk\c-utility\src/buffer.c ****         /* Codes_SRS_BUFFER_07_009: [BUFFER_build shall return nonzero if handle is NULL ] */
 119:Source\azure_iot_sdk\c-utility\src/buffer.c ****         result = __FAILURE__;
 120:Source\azure_iot_sdk\c-utility\src/buffer.c ****     }
 121:Source\azure_iot_sdk\c-utility\src/buffer.c ****     /* Codes_SRS_BUFFER_01_002: [The size argument can be zero, in which case the underlying buffer
 122:Source\azure_iot_sdk\c-utility\src/buffer.c ****     else if (size == 0)
 373              		.loc 1 122 0
 374 000e 002A     		cmp	r2, #0
 375 0010 07D1     		bne	.L25
 376              	.LVL50:
 377              	.LBB7:
 123:Source\azure_iot_sdk\c-utility\src/buffer.c ****     {
 124:Source\azure_iot_sdk\c-utility\src/buffer.c ****         /* Codes_SRS_BUFFER_01_003: [If size is zero, source can be NULL.] */
 125:Source\azure_iot_sdk\c-utility\src/buffer.c ****         BUFFER* b = (BUFFER*)handle;
 126:Source\azure_iot_sdk\c-utility\src/buffer.c ****         free(b->buffer);
 378              		.loc 1 126 0
ARM GAS  C:\Users\Phuong\AppData\Local\Temp\ccVRtur0.s 			page 10


 379 0012 0068     		ldr	r0, [r0]
 380              	.LVL51:
 381 0014 FFF7FEFF 		bl	free
 382              	.LVL52:
 127:Source\azure_iot_sdk\c-utility\src/buffer.c ****         b->buffer = NULL;
 383              		.loc 1 127 0
 384 0018 0023     		movs	r3, #0
 385 001a 2360     		str	r3, [r4]
 128:Source\azure_iot_sdk\c-utility\src/buffer.c ****         b->size = 0;
 386              		.loc 1 128 0
 387 001c 6360     		str	r3, [r4, #4]
 388              	.LVL53:
 129:Source\azure_iot_sdk\c-utility\src/buffer.c **** 
 130:Source\azure_iot_sdk\c-utility\src/buffer.c ****         result = 0;
 389              		.loc 1 130 0
 390 001e 0020     		movs	r0, #0
 391              	.LBE7:
 392 0020 24E0     		b	.L24
 393              	.LVL54:
 394              	.L25:
 131:Source\azure_iot_sdk\c-utility\src/buffer.c ****     }
 132:Source\azure_iot_sdk\c-utility\src/buffer.c ****     else
 133:Source\azure_iot_sdk\c-utility\src/buffer.c ****     {
 134:Source\azure_iot_sdk\c-utility\src/buffer.c ****         if (source == NULL)
 395              		.loc 1 134 0
 396 0022 0029     		cmp	r1, #0
 397 0024 1FD0     		beq	.L28
 398              	.LVL55:
 399              	.LBB8:
 135:Source\azure_iot_sdk\c-utility\src/buffer.c ****         {
 136:Source\azure_iot_sdk\c-utility\src/buffer.c ****             /* Codes_SRS_BUFFER_01_001: [If size is positive and source is NULL, BUFFER_build shall
 137:Source\azure_iot_sdk\c-utility\src/buffer.c ****             result = __FAILURE__;
 138:Source\azure_iot_sdk\c-utility\src/buffer.c ****         }
 139:Source\azure_iot_sdk\c-utility\src/buffer.c ****         else
 140:Source\azure_iot_sdk\c-utility\src/buffer.c ****         {
 141:Source\azure_iot_sdk\c-utility\src/buffer.c ****             BUFFER* b = (BUFFER*)handle;
 142:Source\azure_iot_sdk\c-utility\src/buffer.c ****             /* Codes_SRS_BUFFER_07_011: [BUFFER_build shall overwrite previous contents if the buff
 143:Source\azure_iot_sdk\c-utility\src/buffer.c ****             unsigned char* newBuffer = (unsigned char*)realloc(b->buffer, size);
 400              		.loc 1 143 0
 401 0026 1100     		movs	r1, r2
 402              	.LVL56:
 403 0028 0068     		ldr	r0, [r0]
 404              	.LVL57:
 405 002a FFF7FEFF 		bl	realloc
 406              	.LVL58:
 144:Source\azure_iot_sdk\c-utility\src/buffer.c ****             if (newBuffer == NULL)
 407              		.loc 1 144 0
 408 002e 0028     		cmp	r0, #0
 409 0030 0FD1     		bne	.L26
 410              	.LBB9:
 145:Source\azure_iot_sdk\c-utility\src/buffer.c ****             {
 146:Source\azure_iot_sdk\c-utility\src/buffer.c ****                 /* Codes_SRS_BUFFER_07_010: [BUFFER_build shall return nonzero if any error is enco
 147:Source\azure_iot_sdk\c-utility\src/buffer.c ****                 LogError("Failure reallocating buffer");
 411              		.loc 1 147 0 discriminator 3
 412 0032 FFF7FEFF 		bl	xlogging_get_log_function
 413              	.LVL59:
 414 0036 041E     		subs	r4, r0, #0
ARM GAS  C:\Users\Phuong\AppData\Local\Temp\ccVRtur0.s 			page 11


 415              	.LVL60:
 416 0038 17D0     		beq	.L29
 417              		.loc 1 147 0 is_stmt 0 discriminator 4
 418 003a 0D4B     		ldr	r3, .L30
 419 003c 0193     		str	r3, [sp, #4]
 420 003e 0123     		movs	r3, #1
 421 0040 0093     		str	r3, [sp]
 422 0042 9233     		adds	r3, r3, #146
 423 0044 0B4A     		ldr	r2, .L30+4
 424 0046 2432     		adds	r2, r2, #36
 425 0048 0B49     		ldr	r1, .L30+8
 426 004a 0020     		movs	r0, #0
 427              	.LVL61:
 428 004c A047     		blx	r4
 429              	.LVL62:
 430              	.LBE9:
 148:Source\azure_iot_sdk\c-utility\src/buffer.c ****                 result = __FAILURE__;
 431              		.loc 1 148 0 is_stmt 1 discriminator 4
 432 004e 9420     		movs	r0, #148
 433 0050 0CE0     		b	.L24
 434              	.LVL63:
 435              	.L26:
 149:Source\azure_iot_sdk\c-utility\src/buffer.c ****             }
 150:Source\azure_iot_sdk\c-utility\src/buffer.c ****             else
 151:Source\azure_iot_sdk\c-utility\src/buffer.c ****             {
 152:Source\azure_iot_sdk\c-utility\src/buffer.c ****                 b->buffer = newBuffer;
 436              		.loc 1 152 0
 437 0052 2060     		str	r0, [r4]
 153:Source\azure_iot_sdk\c-utility\src/buffer.c ****                 b->size = size;
 438              		.loc 1 153 0
 439 0054 6560     		str	r5, [r4, #4]
 154:Source\azure_iot_sdk\c-utility\src/buffer.c ****                 /* Codes_SRS_BUFFER_01_002: [The size argument can be zero, in which case nothing s
 155:Source\azure_iot_sdk\c-utility\src/buffer.c ****                 (void)memcpy(b->buffer, source, size);
 440              		.loc 1 155 0
 441 0056 2A00     		movs	r2, r5
 442 0058 3100     		movs	r1, r6
 443 005a FFF7FEFF 		bl	memcpy
 444              	.LVL64:
 156:Source\azure_iot_sdk\c-utility\src/buffer.c **** 
 157:Source\azure_iot_sdk\c-utility\src/buffer.c ****                 result = 0;
 445              		.loc 1 157 0
 446 005e 0020     		movs	r0, #0
 447 0060 04E0     		b	.L24
 448              	.LVL65:
 449              	.L27:
 450              	.LBE8:
 119:Source\azure_iot_sdk\c-utility\src/buffer.c ****     }
 451              		.loc 1 119 0
 452 0062 7720     		movs	r0, #119
 453              	.LVL66:
 454 0064 02E0     		b	.L24
 455              	.LVL67:
 456              	.L28:
 137:Source\azure_iot_sdk\c-utility\src/buffer.c ****         }
 457              		.loc 1 137 0
 458 0066 8920     		movs	r0, #137
 459              	.LVL68:
ARM GAS  C:\Users\Phuong\AppData\Local\Temp\ccVRtur0.s 			page 12


 460 0068 00E0     		b	.L24
 461              	.LVL69:
 462              	.L29:
 463              	.LBB10:
 148:Source\azure_iot_sdk\c-utility\src/buffer.c ****             }
 464              		.loc 1 148 0
 465 006a 9420     		movs	r0, #148
 466              	.LVL70:
 467              	.L24:
 468              	.LBE10:
 158:Source\azure_iot_sdk\c-utility\src/buffer.c ****             }
 159:Source\azure_iot_sdk\c-utility\src/buffer.c ****         }
 160:Source\azure_iot_sdk\c-utility\src/buffer.c ****     }
 161:Source\azure_iot_sdk\c-utility\src/buffer.c **** 
 162:Source\azure_iot_sdk\c-utility\src/buffer.c ****     return result;
 163:Source\azure_iot_sdk\c-utility\src/buffer.c **** }
 469              		.loc 1 163 0
 470 006c 02B0     		add	sp, sp, #8
 471              		@ sp needed
 472              	.LVL71:
 473              	.LVL72:
 474 006e 70BD     		pop	{r4, r5, r6, pc}
 475              	.L31:
 476              		.align	2
 477              	.L30:
 478 0070 A8000000 		.word	.LC15
 479 0074 00000000 		.word	.LANCHOR0
 480 0078 00000000 		.word	.LC1
 481              		.cfi_endproc
 482              	.LFE5:
 483              		.size	BUFFER_build, .-BUFFER_build
 484              		.section	.text.BUFFER_append_build,"ax",%progbits
 485              		.align	2
 486              		.global	BUFFER_append_build
 487              		.code	16
 488              		.thumb_func
 489              		.type	BUFFER_append_build, %function
 490              	BUFFER_append_build:
 491              	.LFB6:
 164:Source\azure_iot_sdk\c-utility\src/buffer.c **** 
 165:Source\azure_iot_sdk\c-utility\src/buffer.c **** int BUFFER_append_build(BUFFER_HANDLE handle, const unsigned char* source, size_t size)
 166:Source\azure_iot_sdk\c-utility\src/buffer.c **** {
 492              		.loc 1 166 0
 493              		.cfi_startproc
 494              		@ args = 0, pretend = 0, frame = 0
 495              		@ frame_needed = 0, uses_anonymous_args = 0
 496              	.LVL73:
 497 0000 F0B5     		push	{r4, r5, r6, r7, lr}
 498              		.cfi_def_cfa_offset 20
 499              		.cfi_offset 4, -20
 500              		.cfi_offset 5, -16
 501              		.cfi_offset 6, -12
 502              		.cfi_offset 7, -8
 503              		.cfi_offset 14, -4
 504 0002 87B0     		sub	sp, sp, #28
 505              		.cfi_def_cfa_offset 48
 506 0004 0400     		movs	r4, r0
ARM GAS  C:\Users\Phuong\AppData\Local\Temp\ccVRtur0.s 			page 13


 507 0006 0E00     		movs	r6, r1
 508 0008 1500     		movs	r5, r2
 167:Source\azure_iot_sdk\c-utility\src/buffer.c ****     int result;
 168:Source\azure_iot_sdk\c-utility\src/buffer.c ****     if (handle == NULL || source == NULL || size == 0)
 509              		.loc 1 168 0
 510 000a 0028     		cmp	r0, #0
 511 000c 03D0     		beq	.L33
 512              		.loc 1 168 0 is_stmt 0 discriminator 1
 513 000e 0029     		cmp	r1, #0
 514 0010 01D0     		beq	.L33
 515              		.loc 1 168 0 discriminator 2
 516 0012 002A     		cmp	r2, #0
 517 0014 12D1     		bne	.L34
 518              	.L33:
 519              	.LBB11:
 169:Source\azure_iot_sdk\c-utility\src/buffer.c ****     {
 170:Source\azure_iot_sdk\c-utility\src/buffer.c ****         /* Codes_SRS_BUFFER_07_029: [ BUFFER_append_build shall return nonzero if handle or source 
 171:Source\azure_iot_sdk\c-utility\src/buffer.c ****         LogError("BUFFER_append_build failed invalid parameter handle: %p, source: %p, size: %lu", 
 520              		.loc 1 171 0 is_stmt 1 discriminator 3
 521 0016 FFF7FEFF 		bl	xlogging_get_log_function
 522              	.LVL74:
 523 001a 071E     		subs	r7, r0, #0
 524              	.LVL75:
 525 001c 52D0     		beq	.L39
 526              		.loc 1 171 0 is_stmt 0 discriminator 4
 527 001e 0495     		str	r5, [sp, #16]
 528 0020 0396     		str	r6, [sp, #12]
 529 0022 0294     		str	r4, [sp, #8]
 530 0024 2B4B     		ldr	r3, .L42
 531 0026 0193     		str	r3, [sp, #4]
 532 0028 0123     		movs	r3, #1
 533 002a 0093     		str	r3, [sp]
 534 002c AA33     		adds	r3, r3, #170
 535 002e 2A4A     		ldr	r2, .L42+4
 536 0030 3432     		adds	r2, r2, #52
 537 0032 2A49     		ldr	r1, .L42+8
 538 0034 0020     		movs	r0, #0
 539              	.LVL76:
 540 0036 B847     		blx	r7
 541              	.LVL77:
 542              	.LBE11:
 172:Source\azure_iot_sdk\c-utility\src/buffer.c ****         result = __FAILURE__;
 543              		.loc 1 172 0 is_stmt 1 discriminator 4
 544 0038 AC20     		movs	r0, #172
 545 003a 48E0     		b	.L35
 546              	.LVL78:
 547              	.L34:
 173:Source\azure_iot_sdk\c-utility\src/buffer.c ****     }
 174:Source\azure_iot_sdk\c-utility\src/buffer.c ****     else
 175:Source\azure_iot_sdk\c-utility\src/buffer.c ****     {
 176:Source\azure_iot_sdk\c-utility\src/buffer.c ****         if (handle->buffer == NULL)
 548              		.loc 1 176 0
 549 003c 0068     		ldr	r0, [r0]
 550              	.LVL79:
 551 003e 0028     		cmp	r0, #0
 552 0040 1CD1     		bne	.L36
 177:Source\azure_iot_sdk\c-utility\src/buffer.c ****         {
ARM GAS  C:\Users\Phuong\AppData\Local\Temp\ccVRtur0.s 			page 14


 178:Source\azure_iot_sdk\c-utility\src/buffer.c ****             /* Codes_SRS_BUFFER_07_030: [ if handle->buffer is NULL BUFFER_append_build shall alloc
 179:Source\azure_iot_sdk\c-utility\src/buffer.c ****             if (BUFFER_safemalloc(handle, size) != 0)
 553              		.loc 1 179 0
 554 0042 1100     		movs	r1, r2
 555              	.LVL80:
 556 0044 2000     		movs	r0, r4
 557 0046 FFF7FEFF 		bl	BUFFER_safemalloc
 558              	.LVL81:
 559 004a 0028     		cmp	r0, #0
 560 004c 0FD0     		beq	.L37
 561              	.LBB12:
 180:Source\azure_iot_sdk\c-utility\src/buffer.c ****             {
 181:Source\azure_iot_sdk\c-utility\src/buffer.c ****                 /* Codes_SRS_BUFFER_07_035: [ If any error is encountered BUFFER_append_build shall
 182:Source\azure_iot_sdk\c-utility\src/buffer.c ****                 LogError("Failure with BUFFER_safemalloc");
 562              		.loc 1 182 0 discriminator 3
 563 004e FFF7FEFF 		bl	xlogging_get_log_function
 564              	.LVL82:
 565 0052 041E     		subs	r4, r0, #0
 566              	.LVL83:
 567 0054 38D0     		beq	.L40
 568              		.loc 1 182 0 is_stmt 0 discriminator 4
 569 0056 224B     		ldr	r3, .L42+12
 570 0058 0193     		str	r3, [sp, #4]
 571 005a 0123     		movs	r3, #1
 572 005c 0093     		str	r3, [sp]
 573 005e B533     		adds	r3, r3, #181
 574 0060 1D4A     		ldr	r2, .L42+4
 575 0062 3432     		adds	r2, r2, #52
 576 0064 1D49     		ldr	r1, .L42+8
 577 0066 0020     		movs	r0, #0
 578              	.LVL84:
 579 0068 A047     		blx	r4
 580              	.LVL85:
 581              	.LBE12:
 183:Source\azure_iot_sdk\c-utility\src/buffer.c ****                 result = __FAILURE__;
 582              		.loc 1 183 0 is_stmt 1 discriminator 4
 583 006a B720     		movs	r0, #183
 584 006c 2FE0     		b	.L35
 585              	.LVL86:
 586              	.L37:
 184:Source\azure_iot_sdk\c-utility\src/buffer.c ****             }
 185:Source\azure_iot_sdk\c-utility\src/buffer.c ****             else
 186:Source\azure_iot_sdk\c-utility\src/buffer.c ****             {
 187:Source\azure_iot_sdk\c-utility\src/buffer.c ****                 /* Codes_SRS_BUFFER_07_031: [ ... and copy the contents of source to handle->buffer
 188:Source\azure_iot_sdk\c-utility\src/buffer.c ****                 (void)memcpy(handle->buffer, source, size);
 587              		.loc 1 188 0
 588 006e 2068     		ldr	r0, [r4]
 589 0070 2A00     		movs	r2, r5
 590 0072 3100     		movs	r1, r6
 591 0074 FFF7FEFF 		bl	memcpy
 592              	.LVL87:
 189:Source\azure_iot_sdk\c-utility\src/buffer.c ****                 /* Codes_SRS_BUFFER_07_034: [ On success BUFFER_append_build shall return 0 ] */
 190:Source\azure_iot_sdk\c-utility\src/buffer.c ****                 result = 0;
 593              		.loc 1 190 0
 594 0078 0020     		movs	r0, #0
 595 007a 28E0     		b	.L35
 596              	.LVL88:
ARM GAS  C:\Users\Phuong\AppData\Local\Temp\ccVRtur0.s 			page 15


 597              	.L36:
 598              	.LBB13:
 191:Source\azure_iot_sdk\c-utility\src/buffer.c ****             }
 192:Source\azure_iot_sdk\c-utility\src/buffer.c ****         }
 193:Source\azure_iot_sdk\c-utility\src/buffer.c ****         else
 194:Source\azure_iot_sdk\c-utility\src/buffer.c ****         {
 195:Source\azure_iot_sdk\c-utility\src/buffer.c ****             /* Codes_SRS_BUFFER_07_032: [ if handle->buffer is not NULL BUFFER_append_build shall r
 196:Source\azure_iot_sdk\c-utility\src/buffer.c ****             unsigned char* temp = (unsigned char*)realloc(handle->buffer, handle->size + size);
 599              		.loc 1 196 0
 600 007c 6368     		ldr	r3, [r4, #4]
 601 007e D118     		adds	r1, r2, r3
 602              	.LVL89:
 603 0080 FFF7FEFF 		bl	realloc
 604              	.LVL90:
 197:Source\azure_iot_sdk\c-utility\src/buffer.c ****             if (temp == NULL)
 605              		.loc 1 197 0
 606 0084 0028     		cmp	r0, #0
 607 0086 0FD1     		bne	.L38
 608              	.LBB14:
 198:Source\azure_iot_sdk\c-utility\src/buffer.c ****             {
 199:Source\azure_iot_sdk\c-utility\src/buffer.c ****                 /* Codes_SRS_BUFFER_07_035: [ If any error is encountered BUFFER_append_build shall
 200:Source\azure_iot_sdk\c-utility\src/buffer.c ****                 LogError("Failure reallocating temporary buffer");
 609              		.loc 1 200 0 discriminator 3
 610 0088 FFF7FEFF 		bl	xlogging_get_log_function
 611              	.LVL91:
 612 008c 041E     		subs	r4, r0, #0
 613              	.LVL92:
 614 008e 1DD0     		beq	.L41
 615              		.loc 1 200 0 is_stmt 0 discriminator 4
 616 0090 144B     		ldr	r3, .L42+16
 617 0092 0193     		str	r3, [sp, #4]
 618 0094 0123     		movs	r3, #1
 619 0096 0093     		str	r3, [sp]
 620 0098 C733     		adds	r3, r3, #199
 621 009a 0F4A     		ldr	r2, .L42+4
 622 009c 3432     		adds	r2, r2, #52
 623 009e 0F49     		ldr	r1, .L42+8
 624 00a0 0020     		movs	r0, #0
 625              	.LVL93:
 626 00a2 A047     		blx	r4
 627              	.LVL94:
 628              	.LBE14:
 201:Source\azure_iot_sdk\c-utility\src/buffer.c ****                 result = __FAILURE__;
 629              		.loc 1 201 0 is_stmt 1 discriminator 4
 630 00a4 C920     		movs	r0, #201
 631 00a6 12E0     		b	.L35
 632              	.LVL95:
 633              	.L38:
 202:Source\azure_iot_sdk\c-utility\src/buffer.c ****             }
 203:Source\azure_iot_sdk\c-utility\src/buffer.c ****             else
 204:Source\azure_iot_sdk\c-utility\src/buffer.c ****             {
 205:Source\azure_iot_sdk\c-utility\src/buffer.c ****                 /* Codes_SRS_BUFFER_07_033: [ ... and copy the contents of source to the end of the
 206:Source\azure_iot_sdk\c-utility\src/buffer.c ****                 handle->buffer = temp;
 634              		.loc 1 206 0
 635 00a8 2060     		str	r0, [r4]
 207:Source\azure_iot_sdk\c-utility\src/buffer.c ****                 // Append the BUFFER
 208:Source\azure_iot_sdk\c-utility\src/buffer.c ****                 (void)memcpy(&handle->buffer[handle->size], source, size);
ARM GAS  C:\Users\Phuong\AppData\Local\Temp\ccVRtur0.s 			page 16


 636              		.loc 1 208 0
 637 00aa 6368     		ldr	r3, [r4, #4]
 638 00ac 9C46     		mov	ip, r3
 639 00ae 6044     		add	r0, r0, ip
 640              	.LVL96:
 641 00b0 2A00     		movs	r2, r5
 642 00b2 3100     		movs	r1, r6
 643 00b4 FFF7FEFF 		bl	memcpy
 644              	.LVL97:
 209:Source\azure_iot_sdk\c-utility\src/buffer.c ****                 handle->size += size;
 645              		.loc 1 209 0
 646 00b8 6368     		ldr	r3, [r4, #4]
 647 00ba 9C46     		mov	ip, r3
 648 00bc 6544     		add	r5, r5, ip
 649              	.LVL98:
 650 00be 6560     		str	r5, [r4, #4]
 651              	.LVL99:
 210:Source\azure_iot_sdk\c-utility\src/buffer.c ****                 /* Codes_SRS_BUFFER_07_034: [ On success BUFFER_append_build shall return 0 ] */
 211:Source\azure_iot_sdk\c-utility\src/buffer.c ****                 result = 0;
 652              		.loc 1 211 0
 653 00c0 0020     		movs	r0, #0
 654 00c2 04E0     		b	.L35
 655              	.LVL100:
 656              	.L39:
 657              	.LBE13:
 172:Source\azure_iot_sdk\c-utility\src/buffer.c ****     }
 658              		.loc 1 172 0
 659 00c4 AC20     		movs	r0, #172
 660              	.LVL101:
 661 00c6 02E0     		b	.L35
 662              	.LVL102:
 663              	.L40:
 183:Source\azure_iot_sdk\c-utility\src/buffer.c ****             }
 664              		.loc 1 183 0
 665 00c8 B720     		movs	r0, #183
 666              	.LVL103:
 667 00ca 00E0     		b	.L35
 668              	.LVL104:
 669              	.L41:
 670              	.LBB15:
 201:Source\azure_iot_sdk\c-utility\src/buffer.c ****             }
 671              		.loc 1 201 0
 672 00cc C920     		movs	r0, #201
 673              	.LVL105:
 674              	.L35:
 675              	.LBE15:
 212:Source\azure_iot_sdk\c-utility\src/buffer.c ****             }
 213:Source\azure_iot_sdk\c-utility\src/buffer.c ****         }
 214:Source\azure_iot_sdk\c-utility\src/buffer.c ****     }
 215:Source\azure_iot_sdk\c-utility\src/buffer.c ****     return result;
 216:Source\azure_iot_sdk\c-utility\src/buffer.c **** }
 676              		.loc 1 216 0
 677 00ce 07B0     		add	sp, sp, #28
 678              		@ sp needed
 679              	.LVL106:
 680 00d0 F0BD     		pop	{r4, r5, r6, r7, pc}
 681              	.L43:
ARM GAS  C:\Users\Phuong\AppData\Local\Temp\ccVRtur0.s 			page 17


 682 00d2 C046     		.align	2
 683              	.L42:
 684 00d4 C4000000 		.word	.LC19
 685 00d8 00000000 		.word	.LANCHOR0
 686 00dc 00000000 		.word	.LC1
 687 00e0 14010000 		.word	.LC21
 688 00e4 34010000 		.word	.LC23
 689              		.cfi_endproc
 690              	.LFE6:
 691              		.size	BUFFER_append_build, .-BUFFER_append_build
 692              		.section	.text.BUFFER_pre_build,"ax",%progbits
 693              		.align	2
 694              		.global	BUFFER_pre_build
 695              		.code	16
 696              		.thumb_func
 697              		.type	BUFFER_pre_build, %function
 698              	BUFFER_pre_build:
 699              	.LFB7:
 217:Source\azure_iot_sdk\c-utility\src/buffer.c **** 
 218:Source\azure_iot_sdk\c-utility\src/buffer.c **** /*return 0 if the buffer was pre-build(that is, had its space allocated)*/
 219:Source\azure_iot_sdk\c-utility\src/buffer.c **** /*else return different than zero*/
 220:Source\azure_iot_sdk\c-utility\src/buffer.c **** /* Codes_SRS_BUFFER_07_005: [BUFFER_pre_build allocates size_t bytes of BUFFER_HANDLE and returns z
 221:Source\azure_iot_sdk\c-utility\src/buffer.c **** int BUFFER_pre_build(BUFFER_HANDLE handle, size_t size)
 222:Source\azure_iot_sdk\c-utility\src/buffer.c **** {
 700              		.loc 1 222 0
 701              		.cfi_startproc
 702              		@ args = 0, pretend = 0, frame = 0
 703              		@ frame_needed = 0, uses_anonymous_args = 0
 704              	.LVL107:
 705 0000 30B5     		push	{r4, r5, lr}
 706              		.cfi_def_cfa_offset 12
 707              		.cfi_offset 4, -12
 708              		.cfi_offset 5, -8
 709              		.cfi_offset 14, -4
 710 0002 83B0     		sub	sp, sp, #12
 711              		.cfi_def_cfa_offset 24
 712 0004 0400     		movs	r4, r0
 713 0006 0D00     		movs	r5, r1
 223:Source\azure_iot_sdk\c-utility\src/buffer.c ****     int result;
 224:Source\azure_iot_sdk\c-utility\src/buffer.c ****     if (handle == NULL)
 714              		.loc 1 224 0
 715 0008 0028     		cmp	r0, #0
 716 000a 2DD0     		beq	.L48
 225:Source\azure_iot_sdk\c-utility\src/buffer.c ****     {
 226:Source\azure_iot_sdk\c-utility\src/buffer.c ****         /* Codes_SRS_BUFFER_07_006: [If handle is NULL or size is 0 then BUFFER_pre_build shall ret
 227:Source\azure_iot_sdk\c-utility\src/buffer.c ****         result = __FAILURE__;
 228:Source\azure_iot_sdk\c-utility\src/buffer.c ****     }
 229:Source\azure_iot_sdk\c-utility\src/buffer.c ****     else if (size == 0)
 717              		.loc 1 229 0
 718 000c 0029     		cmp	r1, #0
 719 000e 2DD0     		beq	.L49
 720              	.LVL108:
 721              	.LBB16:
 230:Source\azure_iot_sdk\c-utility\src/buffer.c ****     {
 231:Source\azure_iot_sdk\c-utility\src/buffer.c ****         /* Codes_SRS_BUFFER_07_006: [If handle is NULL or size is 0 then BUFFER_pre_build shall ret
 232:Source\azure_iot_sdk\c-utility\src/buffer.c ****         result = __FAILURE__;
 233:Source\azure_iot_sdk\c-utility\src/buffer.c ****     }
ARM GAS  C:\Users\Phuong\AppData\Local\Temp\ccVRtur0.s 			page 18


 234:Source\azure_iot_sdk\c-utility\src/buffer.c ****     else
 235:Source\azure_iot_sdk\c-utility\src/buffer.c ****     {
 236:Source\azure_iot_sdk\c-utility\src/buffer.c ****         BUFFER* b = (BUFFER*)handle;
 237:Source\azure_iot_sdk\c-utility\src/buffer.c ****         if (b->buffer != NULL)
 722              		.loc 1 237 0
 723 0010 0368     		ldr	r3, [r0]
 724 0012 002B     		cmp	r3, #0
 725 0014 0FD0     		beq	.L46
 726              	.LBB17:
 238:Source\azure_iot_sdk\c-utility\src/buffer.c ****         {
 239:Source\azure_iot_sdk\c-utility\src/buffer.c ****             /* Codes_SRS_BUFFER_07_007: [BUFFER_pre_build shall return nonzero if the buffer has be
 240:Source\azure_iot_sdk\c-utility\src/buffer.c ****             LogError("Failure buffer data is NULL");
 727              		.loc 1 240 0 discriminator 3
 728 0016 FFF7FEFF 		bl	xlogging_get_log_function
 729              	.LVL109:
 730 001a 041E     		subs	r4, r0, #0
 731              	.LVL110:
 732 001c 28D0     		beq	.L50
 733              		.loc 1 240 0 is_stmt 0 discriminator 4
 734 001e 174B     		ldr	r3, .L52
 735 0020 0193     		str	r3, [sp, #4]
 736 0022 0123     		movs	r3, #1
 737 0024 0093     		str	r3, [sp]
 738 0026 EF33     		adds	r3, r3, #239
 739 0028 154A     		ldr	r2, .L52+4
 740 002a 4832     		adds	r2, r2, #72
 741 002c 1549     		ldr	r1, .L52+8
 742 002e 0020     		movs	r0, #0
 743              	.LVL111:
 744 0030 A047     		blx	r4
 745              	.LVL112:
 746              	.LBE17:
 241:Source\azure_iot_sdk\c-utility\src/buffer.c ****             result = __FAILURE__;
 747              		.loc 1 241 0 is_stmt 1 discriminator 4
 748 0032 F120     		movs	r0, #241
 749 0034 1FE0     		b	.L45
 750              	.LVL113:
 751              	.L46:
 242:Source\azure_iot_sdk\c-utility\src/buffer.c ****         }
 243:Source\azure_iot_sdk\c-utility\src/buffer.c ****         else
 244:Source\azure_iot_sdk\c-utility\src/buffer.c ****         {
 245:Source\azure_iot_sdk\c-utility\src/buffer.c ****             if ((b->buffer = (unsigned char*)malloc(size)) == NULL)
 752              		.loc 1 245 0
 753 0036 0800     		movs	r0, r1
 754              	.LVL114:
 755 0038 FFF7FEFF 		bl	malloc
 756              	.LVL115:
 757 003c 2060     		str	r0, [r4]
 758 003e 0028     		cmp	r0, #0
 759 0040 0FD1     		bne	.L47
 760              	.LBB18:
 246:Source\azure_iot_sdk\c-utility\src/buffer.c ****             {
 247:Source\azure_iot_sdk\c-utility\src/buffer.c ****                 /* Codes_SRS_BUFFER_07_013: [BUFFER_pre_build shall return nonzero if any error is 
 248:Source\azure_iot_sdk\c-utility\src/buffer.c ****                 LogError("Failure allocating buffer");
 761              		.loc 1 248 0 discriminator 3
 762 0042 FFF7FEFF 		bl	xlogging_get_log_function
 763              	.LVL116:
ARM GAS  C:\Users\Phuong\AppData\Local\Temp\ccVRtur0.s 			page 19


 764 0046 041E     		subs	r4, r0, #0
 765              	.LVL117:
 766 0048 14D0     		beq	.L51
 767              		.loc 1 248 0 is_stmt 0 discriminator 4
 768 004a 0F4B     		ldr	r3, .L52+12
 769 004c 0193     		str	r3, [sp, #4]
 770 004e 0123     		movs	r3, #1
 771 0050 0093     		str	r3, [sp]
 772 0052 F733     		adds	r3, r3, #247
 773 0054 0A4A     		ldr	r2, .L52+4
 774 0056 4832     		adds	r2, r2, #72
 775 0058 0A49     		ldr	r1, .L52+8
 776 005a 0020     		movs	r0, #0
 777              	.LVL118:
 778 005c A047     		blx	r4
 779              	.LVL119:
 780              	.LBE18:
 249:Source\azure_iot_sdk\c-utility\src/buffer.c ****                 result = __FAILURE__;
 781              		.loc 1 249 0 is_stmt 1 discriminator 4
 782 005e F920     		movs	r0, #249
 783 0060 09E0     		b	.L45
 784              	.LVL120:
 785              	.L47:
 250:Source\azure_iot_sdk\c-utility\src/buffer.c ****             }
 251:Source\azure_iot_sdk\c-utility\src/buffer.c ****             else
 252:Source\azure_iot_sdk\c-utility\src/buffer.c ****             {
 253:Source\azure_iot_sdk\c-utility\src/buffer.c ****                 b->size = size;
 786              		.loc 1 253 0
 787 0062 6560     		str	r5, [r4, #4]
 788              	.LVL121:
 254:Source\azure_iot_sdk\c-utility\src/buffer.c ****                 result = 0;
 789              		.loc 1 254 0
 790 0064 0020     		movs	r0, #0
 791 0066 06E0     		b	.L45
 792              	.LVL122:
 793              	.L48:
 794              	.LBE16:
 227:Source\azure_iot_sdk\c-utility\src/buffer.c ****     }
 795              		.loc 1 227 0
 796 0068 E320     		movs	r0, #227
 797              	.LVL123:
 798 006a 04E0     		b	.L45
 799              	.LVL124:
 800              	.L49:
 232:Source\azure_iot_sdk\c-utility\src/buffer.c ****     }
 801              		.loc 1 232 0
 802 006c E820     		movs	r0, #232
 803              	.LVL125:
 804 006e 02E0     		b	.L45
 805              	.LVL126:
 806              	.L50:
 807              	.LBB19:
 241:Source\azure_iot_sdk\c-utility\src/buffer.c ****         }
 808              		.loc 1 241 0
 809 0070 F120     		movs	r0, #241
 810              	.LVL127:
 811 0072 00E0     		b	.L45
ARM GAS  C:\Users\Phuong\AppData\Local\Temp\ccVRtur0.s 			page 20


 812              	.LVL128:
 813              	.L51:
 249:Source\azure_iot_sdk\c-utility\src/buffer.c ****             }
 814              		.loc 1 249 0
 815 0074 F920     		movs	r0, #249
 816              	.LVL129:
 817              	.L45:
 818              	.LBE19:
 255:Source\azure_iot_sdk\c-utility\src/buffer.c ****             }
 256:Source\azure_iot_sdk\c-utility\src/buffer.c ****         }
 257:Source\azure_iot_sdk\c-utility\src/buffer.c ****     }
 258:Source\azure_iot_sdk\c-utility\src/buffer.c ****     return result;
 259:Source\azure_iot_sdk\c-utility\src/buffer.c **** }
 819              		.loc 1 259 0
 820 0076 03B0     		add	sp, sp, #12
 821              		@ sp needed
 822              	.LVL130:
 823 0078 30BD     		pop	{r4, r5, pc}
 824              	.L53:
 825 007a C046     		.align	2
 826              	.L52:
 827 007c 5C010000 		.word	.LC27
 828 0080 00000000 		.word	.LANCHOR0
 829 0084 00000000 		.word	.LC1
 830 0088 78010000 		.word	.LC29
 831              		.cfi_endproc
 832              	.LFE7:
 833              		.size	BUFFER_pre_build, .-BUFFER_pre_build
 834              		.section	.text.BUFFER_content,"ax",%progbits
 835              		.align	2
 836              		.global	BUFFER_content
 837              		.code	16
 838              		.thumb_func
 839              		.type	BUFFER_content, %function
 840              	BUFFER_content:
 841              	.LFB8:
 260:Source\azure_iot_sdk\c-utility\src/buffer.c **** 
 261:Source\azure_iot_sdk\c-utility\src/buffer.c **** /* Codes_SRS_BUFFER_07_019: [BUFFER_content shall return the data contained within the BUFFER_HANDL
 262:Source\azure_iot_sdk\c-utility\src/buffer.c **** int BUFFER_content(BUFFER_HANDLE handle, const unsigned char** content)
 263:Source\azure_iot_sdk\c-utility\src/buffer.c **** {
 842              		.loc 1 263 0
 843              		.cfi_startproc
 844              		@ args = 0, pretend = 0, frame = 0
 845              		@ frame_needed = 0, uses_anonymous_args = 0
 846              		@ link register save eliminated.
 847              	.LVL131:
 264:Source\azure_iot_sdk\c-utility\src/buffer.c ****     int result;
 265:Source\azure_iot_sdk\c-utility\src/buffer.c ****     if ((handle == NULL) || (content == NULL))
 848              		.loc 1 265 0
 849 0000 0028     		cmp	r0, #0
 850 0002 05D0     		beq	.L56
 851              		.loc 1 265 0 is_stmt 0 discriminator 1
 852 0004 0029     		cmp	r1, #0
 853 0006 06D0     		beq	.L57
 854              	.LVL132:
 855              	.LBB20:
 266:Source\azure_iot_sdk\c-utility\src/buffer.c ****     {
ARM GAS  C:\Users\Phuong\AppData\Local\Temp\ccVRtur0.s 			page 21


 267:Source\azure_iot_sdk\c-utility\src/buffer.c ****         /* Codes_SRS_BUFFER_07_020: [If the handle and/or content*is NULL BUFFER_content shall retu
 268:Source\azure_iot_sdk\c-utility\src/buffer.c ****         result = __FAILURE__;
 269:Source\azure_iot_sdk\c-utility\src/buffer.c ****     }
 270:Source\azure_iot_sdk\c-utility\src/buffer.c ****     else
 271:Source\azure_iot_sdk\c-utility\src/buffer.c ****     {
 272:Source\azure_iot_sdk\c-utility\src/buffer.c ****         BUFFER* b = (BUFFER*)handle;
 273:Source\azure_iot_sdk\c-utility\src/buffer.c ****         *content = b->buffer;
 856              		.loc 1 273 0 is_stmt 1
 857 0008 0368     		ldr	r3, [r0]
 858 000a 0B60     		str	r3, [r1]
 859              	.LVL133:
 274:Source\azure_iot_sdk\c-utility\src/buffer.c ****         result = 0;
 860              		.loc 1 274 0
 861 000c 0020     		movs	r0, #0
 862              	.LVL134:
 863 000e 04E0     		b	.L55
 864              	.LVL135:
 865              	.L56:
 866              	.LBE20:
 268:Source\azure_iot_sdk\c-utility\src/buffer.c ****     }
 867              		.loc 1 268 0
 868 0010 8620     		movs	r0, #134
 869              	.LVL136:
 870 0012 4000     		lsls	r0, r0, #1
 871 0014 01E0     		b	.L55
 872              	.LVL137:
 873              	.L57:
 874 0016 8620     		movs	r0, #134
 875              	.LVL138:
 876 0018 4000     		lsls	r0, r0, #1
 877              	.L55:
 878              	.LVL139:
 275:Source\azure_iot_sdk\c-utility\src/buffer.c ****     }
 276:Source\azure_iot_sdk\c-utility\src/buffer.c ****     return result;
 277:Source\azure_iot_sdk\c-utility\src/buffer.c **** }
 879              		.loc 1 277 0
 880              		@ sp needed
 881 001a 7047     		bx	lr
 882              		.cfi_endproc
 883              	.LFE8:
 884              		.size	BUFFER_content, .-BUFFER_content
 885              		.section	.text.BUFFER_unbuild,"ax",%progbits
 886              		.align	2
 887              		.global	BUFFER_unbuild
 888              		.code	16
 889              		.thumb_func
 890              		.type	BUFFER_unbuild, %function
 891              	BUFFER_unbuild:
 892              	.LFB9:
 278:Source\azure_iot_sdk\c-utility\src/buffer.c **** 
 279:Source\azure_iot_sdk\c-utility\src/buffer.c **** /*return 0 if everything went ok and whatever was built in the buffer was unbuilt*/
 280:Source\azure_iot_sdk\c-utility\src/buffer.c **** /* Codes_SRS_BUFFER_07_012: [BUFFER_unbuild shall clear the underlying unsigned char* data associat
 281:Source\azure_iot_sdk\c-utility\src/buffer.c **** extern int BUFFER_unbuild(BUFFER_HANDLE handle)
 282:Source\azure_iot_sdk\c-utility\src/buffer.c **** {
 893              		.loc 1 282 0
 894              		.cfi_startproc
 895              		@ args = 0, pretend = 0, frame = 0
ARM GAS  C:\Users\Phuong\AppData\Local\Temp\ccVRtur0.s 			page 22


 896              		@ frame_needed = 0, uses_anonymous_args = 0
 897              	.LVL140:
 898 0000 30B5     		push	{r4, r5, lr}
 899              		.cfi_def_cfa_offset 12
 900              		.cfi_offset 4, -12
 901              		.cfi_offset 5, -8
 902              		.cfi_offset 14, -4
 903 0002 83B0     		sub	sp, sp, #12
 904              		.cfi_def_cfa_offset 24
 905 0004 041E     		subs	r4, r0, #0
 283:Source\azure_iot_sdk\c-utility\src/buffer.c ****     int result;
 284:Source\azure_iot_sdk\c-utility\src/buffer.c ****     if (handle == NULL)
 906              		.loc 1 284 0
 907 0006 19D0     		beq	.L61
 908              	.LVL141:
 909              	.LBB21:
 285:Source\azure_iot_sdk\c-utility\src/buffer.c ****     {
 286:Source\azure_iot_sdk\c-utility\src/buffer.c ****         /* Codes_SRS_BUFFER_07_014: [BUFFER_unbuild shall return a nonzero value if BUFFER_HANDLE i
 287:Source\azure_iot_sdk\c-utility\src/buffer.c ****         result = __FAILURE__;
 288:Source\azure_iot_sdk\c-utility\src/buffer.c ****     }
 289:Source\azure_iot_sdk\c-utility\src/buffer.c ****     else
 290:Source\azure_iot_sdk\c-utility\src/buffer.c ****     {
 291:Source\azure_iot_sdk\c-utility\src/buffer.c ****         BUFFER* b = (BUFFER*)handle;
 292:Source\azure_iot_sdk\c-utility\src/buffer.c ****         if (b->buffer != NULL)
 910              		.loc 1 292 0
 911 0008 0368     		ldr	r3, [r0]
 912 000a 002B     		cmp	r3, #0
 913 000c 19D0     		beq	.L62
 914              	.LBB22:
 293:Source\azure_iot_sdk\c-utility\src/buffer.c ****         {
 294:Source\azure_iot_sdk\c-utility\src/buffer.c ****             LogError("Failure buffer data is NULL");
 915              		.loc 1 294 0 discriminator 3
 916 000e FFF7FEFF 		bl	xlogging_get_log_function
 917              	.LVL142:
 918 0012 051E     		subs	r5, r0, #0
 919              	.LVL143:
 920 0014 0AD0     		beq	.L60
 921              		.loc 1 294 0 is_stmt 0 discriminator 4
 922 0016 0D4B     		ldr	r3, .L63
 923 0018 0193     		str	r3, [sp, #4]
 924 001a 0123     		movs	r3, #1
 925 001c 0093     		str	r3, [sp]
 926 001e 2633     		adds	r3, r3, #38
 927 0020 FF33     		adds	r3, r3, #255
 928 0022 0B4A     		ldr	r2, .L63+4
 929 0024 5C32     		adds	r2, r2, #92
 930 0026 0B49     		ldr	r1, .L63+8
 931 0028 0020     		movs	r0, #0
 932              	.LVL144:
 933 002a A847     		blx	r5
 934              	.LVL145:
 935              	.L60:
 936              	.LBE22:
 295:Source\azure_iot_sdk\c-utility\src/buffer.c ****             free(b->buffer);
 937              		.loc 1 295 0 is_stmt 1
 938 002c 2068     		ldr	r0, [r4]
 939 002e FFF7FEFF 		bl	free
ARM GAS  C:\Users\Phuong\AppData\Local\Temp\ccVRtur0.s 			page 23


 940              	.LVL146:
 296:Source\azure_iot_sdk\c-utility\src/buffer.c ****             b->buffer = NULL;
 941              		.loc 1 296 0
 942 0032 0023     		movs	r3, #0
 943 0034 2360     		str	r3, [r4]
 297:Source\azure_iot_sdk\c-utility\src/buffer.c ****             b->size = 0;
 944              		.loc 1 297 0
 945 0036 6360     		str	r3, [r4, #4]
 946              	.LVL147:
 298:Source\azure_iot_sdk\c-utility\src/buffer.c ****             result = 0;
 947              		.loc 1 298 0
 948 0038 0020     		movs	r0, #0
 949 003a 04E0     		b	.L59
 950              	.LVL148:
 951              	.L61:
 952              	.LBE21:
 287:Source\azure_iot_sdk\c-utility\src/buffer.c ****     }
 953              		.loc 1 287 0
 954 003c 2020     		movs	r0, #32
 955              	.LVL149:
 956 003e FF30     		adds	r0, r0, #255
 957 0040 01E0     		b	.L59
 958              	.LVL150:
 959              	.L62:
 960              	.LBB23:
 299:Source\azure_iot_sdk\c-utility\src/buffer.c ****         }
 300:Source\azure_iot_sdk\c-utility\src/buffer.c ****         else
 301:Source\azure_iot_sdk\c-utility\src/buffer.c ****         {
 302:Source\azure_iot_sdk\c-utility\src/buffer.c ****             /* Codes_SRS_BUFFER_07_015: [BUFFER_unbuild shall return a nonzero value if the unsigne
 303:Source\azure_iot_sdk\c-utility\src/buffer.c ****             result = __FAILURE__;
 961              		.loc 1 303 0
 962 0042 3020     		movs	r0, #48
 963              	.LVL151:
 964 0044 FF30     		adds	r0, r0, #255
 965              	.LVL152:
 966              	.L59:
 967              	.LBE23:
 304:Source\azure_iot_sdk\c-utility\src/buffer.c ****         }
 305:Source\azure_iot_sdk\c-utility\src/buffer.c ****     }
 306:Source\azure_iot_sdk\c-utility\src/buffer.c ****     return result;
 307:Source\azure_iot_sdk\c-utility\src/buffer.c **** }
 968              		.loc 1 307 0
 969 0046 03B0     		add	sp, sp, #12
 970              		@ sp needed
 971              	.LVL153:
 972 0048 30BD     		pop	{r4, r5, pc}
 973              	.L64:
 974 004a C046     		.align	2
 975              	.L63:
 976 004c 5C010000 		.word	.LC27
 977 0050 00000000 		.word	.LANCHOR0
 978 0054 00000000 		.word	.LC1
 979              		.cfi_endproc
 980              	.LFE9:
 981              		.size	BUFFER_unbuild, .-BUFFER_unbuild
 982              		.section	.text.BUFFER_enlarge,"ax",%progbits
 983              		.align	2
ARM GAS  C:\Users\Phuong\AppData\Local\Temp\ccVRtur0.s 			page 24


 984              		.global	BUFFER_enlarge
 985              		.code	16
 986              		.thumb_func
 987              		.type	BUFFER_enlarge, %function
 988              	BUFFER_enlarge:
 989              	.LFB10:
 308:Source\azure_iot_sdk\c-utility\src/buffer.c **** 
 309:Source\azure_iot_sdk\c-utility\src/buffer.c **** /* Codes_SRS_BUFFER_07_016: [BUFFER_enlarge shall increase the size of the unsigned char* reference
 310:Source\azure_iot_sdk\c-utility\src/buffer.c **** int BUFFER_enlarge(BUFFER_HANDLE handle, size_t enlargeSize)
 311:Source\azure_iot_sdk\c-utility\src/buffer.c **** {
 990              		.loc 1 311 0
 991              		.cfi_startproc
 992              		@ args = 0, pretend = 0, frame = 0
 993              		@ frame_needed = 0, uses_anonymous_args = 0
 994              	.LVL154:
 995 0000 30B5     		push	{r4, r5, lr}
 996              		.cfi_def_cfa_offset 12
 997              		.cfi_offset 4, -12
 998              		.cfi_offset 5, -8
 999              		.cfi_offset 14, -4
 1000 0002 83B0     		sub	sp, sp, #12
 1001              		.cfi_def_cfa_offset 24
 1002 0004 0400     		movs	r4, r0
 1003 0006 0D00     		movs	r5, r1
 312:Source\azure_iot_sdk\c-utility\src/buffer.c ****     int result;
 313:Source\azure_iot_sdk\c-utility\src/buffer.c ****     if (handle == NULL)
 1004              		.loc 1 313 0
 1005 0008 0028     		cmp	r0, #0
 1006 000a 11D1     		bne	.L66
 1007              	.LBB24:
 314:Source\azure_iot_sdk\c-utility\src/buffer.c ****     {
 315:Source\azure_iot_sdk\c-utility\src/buffer.c ****         /* Codes_SRS_BUFFER_07_017: [BUFFER_enlarge shall return a nonzero result if any parameters
 316:Source\azure_iot_sdk\c-utility\src/buffer.c ****         LogError("Failure: handle is invalid.");
 1008              		.loc 1 316 0 discriminator 3
 1009 000c FFF7FEFF 		bl	xlogging_get_log_function
 1010              	.LVL155:
 1011 0010 041E     		subs	r4, r0, #0
 1012              	.LVL156:
 1013 0012 41D0     		beq	.L70
 1014              		.loc 1 316 0 is_stmt 0 discriminator 4
 1015 0014 254B     		ldr	r3, .L73
 1016 0016 0193     		str	r3, [sp, #4]
 1017 0018 0123     		movs	r3, #1
 1018 001a 0093     		str	r3, [sp]
 1019 001c 3C33     		adds	r3, r3, #60
 1020 001e FF33     		adds	r3, r3, #255
 1021 0020 234A     		ldr	r2, .L73+4
 1022 0022 6C32     		adds	r2, r2, #108
 1023 0024 2349     		ldr	r1, .L73+8
 1024 0026 0020     		movs	r0, #0
 1025              	.LVL157:
 1026 0028 A047     		blx	r4
 1027              	.LVL158:
 1028              	.LBE24:
 317:Source\azure_iot_sdk\c-utility\src/buffer.c ****         result = __FAILURE__;
 1029              		.loc 1 317 0 is_stmt 1 discriminator 4
 1030 002a 3E20     		movs	r0, #62
ARM GAS  C:\Users\Phuong\AppData\Local\Temp\ccVRtur0.s 			page 25


 1031 002c FF30     		adds	r0, r0, #255
 1032 002e 3BE0     		b	.L67
 1033              	.LVL159:
 1034              	.L66:
 318:Source\azure_iot_sdk\c-utility\src/buffer.c ****     }
 319:Source\azure_iot_sdk\c-utility\src/buffer.c ****     else if (enlargeSize == 0)
 1035              		.loc 1 319 0
 1036 0030 0029     		cmp	r1, #0
 1037 0032 11D1     		bne	.L68
 1038              	.LBB25:
 320:Source\azure_iot_sdk\c-utility\src/buffer.c ****     {
 321:Source\azure_iot_sdk\c-utility\src/buffer.c ****         /* Codes_SRS_BUFFER_07_017: [BUFFER_enlarge shall return a nonzero result if any parameters
 322:Source\azure_iot_sdk\c-utility\src/buffer.c ****         LogError("Failure: enlargeSize size is 0.");
 1039              		.loc 1 322 0 discriminator 3
 1040 0034 FFF7FEFF 		bl	xlogging_get_log_function
 1041              	.LVL160:
 1042 0038 041E     		subs	r4, r0, #0
 1043              	.LVL161:
 1044 003a 30D0     		beq	.L71
 1045              		.loc 1 322 0 is_stmt 0 discriminator 4
 1046 003c 1E4B     		ldr	r3, .L73+12
 1047 003e 0193     		str	r3, [sp, #4]
 1048 0040 0123     		movs	r3, #1
 1049 0042 0093     		str	r3, [sp]
 1050 0044 4233     		adds	r3, r3, #66
 1051 0046 FF33     		adds	r3, r3, #255
 1052 0048 194A     		ldr	r2, .L73+4
 1053 004a 6C32     		adds	r2, r2, #108
 1054 004c 1949     		ldr	r1, .L73+8
 1055 004e 0020     		movs	r0, #0
 1056              	.LVL162:
 1057 0050 A047     		blx	r4
 1058              	.LVL163:
 1059              	.LBE25:
 323:Source\azure_iot_sdk\c-utility\src/buffer.c ****         result = __FAILURE__;
 1060              		.loc 1 323 0 is_stmt 1 discriminator 4
 1061 0052 4420     		movs	r0, #68
 1062 0054 FF30     		adds	r0, r0, #255
 1063 0056 27E0     		b	.L67
 1064              	.LVL164:
 1065              	.L68:
 1066              	.LBB26:
 324:Source\azure_iot_sdk\c-utility\src/buffer.c ****     }
 325:Source\azure_iot_sdk\c-utility\src/buffer.c ****     else
 326:Source\azure_iot_sdk\c-utility\src/buffer.c ****     {
 327:Source\azure_iot_sdk\c-utility\src/buffer.c ****         BUFFER* b = (BUFFER*)handle;
 328:Source\azure_iot_sdk\c-utility\src/buffer.c ****         unsigned char* temp = (unsigned char*)realloc(b->buffer, b->size + enlargeSize);
 1067              		.loc 1 328 0
 1068 0058 4368     		ldr	r3, [r0, #4]
 1069 005a C918     		adds	r1, r1, r3
 1070              	.LVL165:
 1071 005c 0068     		ldr	r0, [r0]
 1072              	.LVL166:
 1073 005e FFF7FEFF 		bl	realloc
 1074              	.LVL167:
 329:Source\azure_iot_sdk\c-utility\src/buffer.c ****         if (temp == NULL)
 1075              		.loc 1 329 0
ARM GAS  C:\Users\Phuong\AppData\Local\Temp\ccVRtur0.s 			page 26


 1076 0062 0028     		cmp	r0, #0
 1077 0064 11D1     		bne	.L69
 1078              	.LBB27:
 330:Source\azure_iot_sdk\c-utility\src/buffer.c ****         {
 331:Source\azure_iot_sdk\c-utility\src/buffer.c ****             /* Codes_SRS_BUFFER_07_018: [BUFFER_enlarge shall return a nonzero result if any error 
 332:Source\azure_iot_sdk\c-utility\src/buffer.c ****             LogError("Failure: allocating temp buffer.");
 1079              		.loc 1 332 0 discriminator 3
 1080 0066 FFF7FEFF 		bl	xlogging_get_log_function
 1081              	.LVL168:
 1082 006a 041E     		subs	r4, r0, #0
 1083              	.LVL169:
 1084 006c 1AD0     		beq	.L72
 1085              		.loc 1 332 0 is_stmt 0 discriminator 4
 1086 006e 134B     		ldr	r3, .L73+16
 1087 0070 0193     		str	r3, [sp, #4]
 1088 0072 0123     		movs	r3, #1
 1089 0074 0093     		str	r3, [sp]
 1090 0076 4C33     		adds	r3, r3, #76
 1091 0078 FF33     		adds	r3, r3, #255
 1092 007a 0D4A     		ldr	r2, .L73+4
 1093 007c 6C32     		adds	r2, r2, #108
 1094 007e 0D49     		ldr	r1, .L73+8
 1095 0080 0020     		movs	r0, #0
 1096              	.LVL170:
 1097 0082 A047     		blx	r4
 1098              	.LVL171:
 1099              	.LBE27:
 333:Source\azure_iot_sdk\c-utility\src/buffer.c ****             result = __FAILURE__;
 1100              		.loc 1 333 0 is_stmt 1 discriminator 4
 1101 0084 4E20     		movs	r0, #78
 1102 0086 FF30     		adds	r0, r0, #255
 1103 0088 0EE0     		b	.L67
 1104              	.LVL172:
 1105              	.L69:
 334:Source\azure_iot_sdk\c-utility\src/buffer.c ****         }
 335:Source\azure_iot_sdk\c-utility\src/buffer.c ****         else
 336:Source\azure_iot_sdk\c-utility\src/buffer.c ****         {
 337:Source\azure_iot_sdk\c-utility\src/buffer.c ****             b->buffer = temp;
 1106              		.loc 1 337 0
 1107 008a 2060     		str	r0, [r4]
 338:Source\azure_iot_sdk\c-utility\src/buffer.c ****             b->size += enlargeSize;
 1108              		.loc 1 338 0
 1109 008c 6368     		ldr	r3, [r4, #4]
 1110 008e 9C46     		mov	ip, r3
 1111 0090 6544     		add	r5, r5, ip
 1112              	.LVL173:
 1113 0092 6560     		str	r5, [r4, #4]
 1114              	.LVL174:
 339:Source\azure_iot_sdk\c-utility\src/buffer.c ****             result = 0;
 1115              		.loc 1 339 0
 1116 0094 0020     		movs	r0, #0
 1117              	.LVL175:
 1118 0096 07E0     		b	.L67
 1119              	.LVL176:
 1120              	.L70:
 1121              	.LBE26:
 317:Source\azure_iot_sdk\c-utility\src/buffer.c ****     }
ARM GAS  C:\Users\Phuong\AppData\Local\Temp\ccVRtur0.s 			page 27


 1122              		.loc 1 317 0
 1123 0098 3E20     		movs	r0, #62
 1124              	.LVL177:
 1125 009a FF30     		adds	r0, r0, #255
 1126 009c 04E0     		b	.L67
 1127              	.LVL178:
 1128              	.L71:
 323:Source\azure_iot_sdk\c-utility\src/buffer.c ****     }
 1129              		.loc 1 323 0
 1130 009e 4420     		movs	r0, #68
 1131              	.LVL179:
 1132 00a0 FF30     		adds	r0, r0, #255
 1133 00a2 01E0     		b	.L67
 1134              	.LVL180:
 1135              	.L72:
 1136              	.LBB28:
 333:Source\azure_iot_sdk\c-utility\src/buffer.c ****         }
 1137              		.loc 1 333 0
 1138 00a4 4E20     		movs	r0, #78
 1139              	.LVL181:
 1140 00a6 FF30     		adds	r0, r0, #255
 1141              	.LVL182:
 1142              	.L67:
 1143              	.LBE28:
 340:Source\azure_iot_sdk\c-utility\src/buffer.c ****         }
 341:Source\azure_iot_sdk\c-utility\src/buffer.c ****     }
 342:Source\azure_iot_sdk\c-utility\src/buffer.c ****     return result;
 343:Source\azure_iot_sdk\c-utility\src/buffer.c **** }
 1144              		.loc 1 343 0
 1145 00a8 03B0     		add	sp, sp, #12
 1146              		@ sp needed
 1147 00aa 30BD     		pop	{r4, r5, pc}
 1148              	.L74:
 1149              		.align	2
 1150              	.L73:
 1151 00ac 94010000 		.word	.LC36
 1152 00b0 00000000 		.word	.LANCHOR0
 1153 00b4 00000000 		.word	.LC1
 1154 00b8 B0010000 		.word	.LC38
 1155 00bc D0010000 		.word	.LC40
 1156              		.cfi_endproc
 1157              	.LFE10:
 1158              		.size	BUFFER_enlarge, .-BUFFER_enlarge
 1159              		.section	.text.BUFFER_shrink,"ax",%progbits
 1160              		.align	2
 1161              		.global	BUFFER_shrink
 1162              		.code	16
 1163              		.thumb_func
 1164              		.type	BUFFER_shrink, %function
 1165              	BUFFER_shrink:
 1166              	.LFB11:
 344:Source\azure_iot_sdk\c-utility\src/buffer.c **** 
 345:Source\azure_iot_sdk\c-utility\src/buffer.c **** int BUFFER_shrink(BUFFER_HANDLE handle, size_t decreaseSize, bool fromEnd)
 346:Source\azure_iot_sdk\c-utility\src/buffer.c **** {
 1167              		.loc 1 346 0
 1168              		.cfi_startproc
 1169              		@ args = 0, pretend = 0, frame = 8
ARM GAS  C:\Users\Phuong\AppData\Local\Temp\ccVRtur0.s 			page 28


 1170              		@ frame_needed = 0, uses_anonymous_args = 0
 1171              	.LVL183:
 1172 0000 F0B5     		push	{r4, r5, r6, r7, lr}
 1173              		.cfi_def_cfa_offset 20
 1174              		.cfi_offset 4, -20
 1175              		.cfi_offset 5, -16
 1176              		.cfi_offset 6, -12
 1177              		.cfi_offset 7, -8
 1178              		.cfi_offset 14, -4
 1179 0002 85B0     		sub	sp, sp, #20
 1180              		.cfi_def_cfa_offset 40
 1181 0004 0400     		movs	r4, r0
 1182 0006 0F00     		movs	r7, r1
 1183 0008 0392     		str	r2, [sp, #12]
 347:Source\azure_iot_sdk\c-utility\src/buffer.c ****     int result;
 348:Source\azure_iot_sdk\c-utility\src/buffer.c ****     if (handle == NULL)
 1184              		.loc 1 348 0
 1185 000a 0028     		cmp	r0, #0
 1186 000c 11D1     		bne	.L76
 1187              	.LBB29:
 349:Source\azure_iot_sdk\c-utility\src/buffer.c ****     {
 350:Source\azure_iot_sdk\c-utility\src/buffer.c ****         /* Codes_SRS_BUFFER_07_036: [ if handle is NULL, BUFFER_shrink shall return a non-null valu
 351:Source\azure_iot_sdk\c-utility\src/buffer.c ****         LogError("Failure: handle is invalid.");
 1188              		.loc 1 351 0 discriminator 3
 1189 000e FFF7FEFF 		bl	xlogging_get_log_function
 1190              	.LVL184:
 1191 0012 041E     		subs	r4, r0, #0
 1192              	.LVL185:
 1193 0014 71D0     		beq	.L83
 1194              		.loc 1 351 0 is_stmt 0 discriminator 4
 1195 0016 3F4B     		ldr	r3, .L87
 1196 0018 0193     		str	r3, [sp, #4]
 1197 001a 0123     		movs	r3, #1
 1198 001c 0093     		str	r3, [sp]
 1199 001e 6023     		movs	r3, #96
 1200 0020 FF33     		adds	r3, r3, #255
 1201 0022 3D4A     		ldr	r2, .L87+4
 1202 0024 7C32     		adds	r2, r2, #124
 1203 0026 3D49     		ldr	r1, .L87+8
 1204 0028 0020     		movs	r0, #0
 1205              	.LVL186:
 1206 002a A047     		blx	r4
 1207              	.LVL187:
 1208              	.LBE29:
 352:Source\azure_iot_sdk\c-utility\src/buffer.c ****         result = __FAILURE__;
 1209              		.loc 1 352 0 is_stmt 1 discriminator 4
 1210 002c B020     		movs	r0, #176
 1211 002e 4000     		lsls	r0, r0, #1
 1212 0030 6EE0     		b	.L77
 1213              	.LVL188:
 1214              	.L76:
 353:Source\azure_iot_sdk\c-utility\src/buffer.c ****     }
 354:Source\azure_iot_sdk\c-utility\src/buffer.c ****     else if (decreaseSize == 0)
 1215              		.loc 1 354 0
 1216 0032 0029     		cmp	r1, #0
 1217 0034 11D1     		bne	.L78
 1218              	.LBB30:
ARM GAS  C:\Users\Phuong\AppData\Local\Temp\ccVRtur0.s 			page 29


 355:Source\azure_iot_sdk\c-utility\src/buffer.c ****     {
 356:Source\azure_iot_sdk\c-utility\src/buffer.c ****         /* Codes_SRS_BUFFER_07_037: [ If decreaseSize is equal zero, BUFFER_shrink shall return a n
 357:Source\azure_iot_sdk\c-utility\src/buffer.c ****         LogError("Failure: decrease size is 0.");
 1219              		.loc 1 357 0 discriminator 3
 1220 0036 FFF7FEFF 		bl	xlogging_get_log_function
 1221              	.LVL189:
 1222 003a 041E     		subs	r4, r0, #0
 1223              	.LVL190:
 1224 003c 60D0     		beq	.L84
 1225              		.loc 1 357 0 is_stmt 0 discriminator 4
 1226 003e 384B     		ldr	r3, .L87+12
 1227 0040 0193     		str	r3, [sp, #4]
 1228 0042 0123     		movs	r3, #1
 1229 0044 0093     		str	r3, [sp]
 1230 0046 6623     		movs	r3, #102
 1231 0048 FF33     		adds	r3, r3, #255
 1232 004a 334A     		ldr	r2, .L87+4
 1233 004c 7C32     		adds	r2, r2, #124
 1234 004e 3349     		ldr	r1, .L87+8
 1235 0050 0020     		movs	r0, #0
 1236              	.LVL191:
 1237 0052 A047     		blx	r4
 1238              	.LVL192:
 1239              	.LBE30:
 358:Source\azure_iot_sdk\c-utility\src/buffer.c ****         result = __FAILURE__;
 1240              		.loc 1 358 0 is_stmt 1 discriminator 4
 1241 0054 B320     		movs	r0, #179
 1242 0056 4000     		lsls	r0, r0, #1
 1243 0058 5AE0     		b	.L77
 1244              	.LVL193:
 1245              	.L78:
 359:Source\azure_iot_sdk\c-utility\src/buffer.c ****     }
 360:Source\azure_iot_sdk\c-utility\src/buffer.c ****     else if (decreaseSize > handle->size)
 1246              		.loc 1 360 0
 1247 005a 4068     		ldr	r0, [r0, #4]
 1248              	.LVL194:
 1249 005c 8142     		cmp	r1, r0
 1250 005e 11D9     		bls	.L79
 1251              	.LBB31:
 361:Source\azure_iot_sdk\c-utility\src/buffer.c ****     {
 362:Source\azure_iot_sdk\c-utility\src/buffer.c ****         /* Codes_SRS_BUFFER_07_038: [ If decreaseSize is less than the size of the buffer, BUFFER_s
 363:Source\azure_iot_sdk\c-utility\src/buffer.c ****         LogError("Failure: decrease size is less than buffer size.");
 1252              		.loc 1 363 0 discriminator 3
 1253 0060 FFF7FEFF 		bl	xlogging_get_log_function
 1254              	.LVL195:
 1255 0064 041E     		subs	r4, r0, #0
 1256              	.LVL196:
 1257 0066 4ED0     		beq	.L85
 1258              		.loc 1 363 0 is_stmt 0 discriminator 4
 1259 0068 2E4B     		ldr	r3, .L87+16
 1260 006a 0193     		str	r3, [sp, #4]
 1261 006c 0123     		movs	r3, #1
 1262 006e 0093     		str	r3, [sp]
 1263 0070 6C23     		movs	r3, #108
 1264 0072 FF33     		adds	r3, r3, #255
 1265 0074 284A     		ldr	r2, .L87+4
 1266 0076 7C32     		adds	r2, r2, #124
ARM GAS  C:\Users\Phuong\AppData\Local\Temp\ccVRtur0.s 			page 30


 1267 0078 2849     		ldr	r1, .L87+8
 1268 007a 0020     		movs	r0, #0
 1269              	.LVL197:
 1270 007c A047     		blx	r4
 1271              	.LVL198:
 1272              	.LBE31:
 364:Source\azure_iot_sdk\c-utility\src/buffer.c ****         result = __FAILURE__;
 1273              		.loc 1 364 0 is_stmt 1 discriminator 4
 1274 007e B620     		movs	r0, #182
 1275 0080 4000     		lsls	r0, r0, #1
 1276 0082 45E0     		b	.L77
 1277              	.LVL199:
 1278              	.L79:
 1279              	.LBB32:
 365:Source\azure_iot_sdk\c-utility\src/buffer.c ****     }
 366:Source\azure_iot_sdk\c-utility\src/buffer.c ****     else
 367:Source\azure_iot_sdk\c-utility\src/buffer.c ****     {
 368:Source\azure_iot_sdk\c-utility\src/buffer.c ****         /* Codes_SRS_BUFFER_07_039: [ BUFFER_shrink shall allocate a temporary buffer of existing b
 369:Source\azure_iot_sdk\c-utility\src/buffer.c ****         size_t alloc_size = handle->size - decreaseSize;
 1280              		.loc 1 369 0
 1281 0084 451A     		subs	r5, r0, r1
 1282              	.LVL200:
 370:Source\azure_iot_sdk\c-utility\src/buffer.c ****         if (alloc_size == 0)
 1283              		.loc 1 370 0
 1284 0086 07D1     		bne	.L80
 371:Source\azure_iot_sdk\c-utility\src/buffer.c ****         {
 372:Source\azure_iot_sdk\c-utility\src/buffer.c ****             /* Codes_SRS_BUFFER_07_043: [ If the decreaseSize is equal the buffer size , BUFFER_shr
 373:Source\azure_iot_sdk\c-utility\src/buffer.c ****             free(handle->buffer);
 1285              		.loc 1 373 0
 1286 0088 2068     		ldr	r0, [r4]
 1287 008a FFF7FEFF 		bl	free
 1288              	.LVL201:
 374:Source\azure_iot_sdk\c-utility\src/buffer.c ****             handle->buffer = NULL;
 1289              		.loc 1 374 0
 1290 008e 0023     		movs	r3, #0
 1291 0090 2360     		str	r3, [r4]
 375:Source\azure_iot_sdk\c-utility\src/buffer.c ****             handle->size = 0;
 1292              		.loc 1 375 0
 1293 0092 6360     		str	r3, [r4, #4]
 1294              	.LVL202:
 376:Source\azure_iot_sdk\c-utility\src/buffer.c ****             result = 0;
 1295              		.loc 1 376 0
 1296 0094 0020     		movs	r0, #0
 1297 0096 3BE0     		b	.L77
 1298              	.LVL203:
 1299              	.L80:
 1300              	.LBB33:
 377:Source\azure_iot_sdk\c-utility\src/buffer.c ****         }
 378:Source\azure_iot_sdk\c-utility\src/buffer.c ****         else
 379:Source\azure_iot_sdk\c-utility\src/buffer.c ****         {
 380:Source\azure_iot_sdk\c-utility\src/buffer.c ****             unsigned char* tmp = malloc(alloc_size);
 1301              		.loc 1 380 0
 1302 0098 2800     		movs	r0, r5
 1303 009a FFF7FEFF 		bl	malloc
 1304              	.LVL204:
 1305 009e 061E     		subs	r6, r0, #0
 1306              	.LVL205:
ARM GAS  C:\Users\Phuong\AppData\Local\Temp\ccVRtur0.s 			page 31


 381:Source\azure_iot_sdk\c-utility\src/buffer.c ****             if (tmp == NULL)
 1307              		.loc 1 381 0
 1308 00a0 11D1     		bne	.L81
 1309              	.LBB34:
 382:Source\azure_iot_sdk\c-utility\src/buffer.c ****             {
 383:Source\azure_iot_sdk\c-utility\src/buffer.c ****                 /* Codes_SRS_BUFFER_07_042: [ If a failure is encountered, BUFFER_shrink shall retu
 384:Source\azure_iot_sdk\c-utility\src/buffer.c ****                 LogError("Failure: allocating temp buffer.");
 1310              		.loc 1 384 0 discriminator 3
 1311 00a2 FFF7FEFF 		bl	xlogging_get_log_function
 1312              	.LVL206:
 1313 00a6 041E     		subs	r4, r0, #0
 1314              	.LVL207:
 1315 00a8 30D0     		beq	.L86
 1316              		.loc 1 384 0 is_stmt 0 discriminator 4
 1317 00aa 1F4B     		ldr	r3, .L87+20
 1318 00ac 0193     		str	r3, [sp, #4]
 1319 00ae 0123     		movs	r3, #1
 1320 00b0 0093     		str	r3, [sp]
 1321 00b2 8033     		adds	r3, r3, #128
 1322 00b4 FF33     		adds	r3, r3, #255
 1323 00b6 184A     		ldr	r2, .L87+4
 1324 00b8 7C32     		adds	r2, r2, #124
 1325 00ba 1849     		ldr	r1, .L87+8
 1326 00bc 0020     		movs	r0, #0
 1327              	.LVL208:
 1328 00be A047     		blx	r4
 1329              	.LVL209:
 1330              	.LBE34:
 385:Source\azure_iot_sdk\c-utility\src/buffer.c ****                 result = __FAILURE__;
 1331              		.loc 1 385 0 is_stmt 1 discriminator 4
 1332 00c0 8220     		movs	r0, #130
 1333 00c2 FF30     		adds	r0, r0, #255
 1334 00c4 24E0     		b	.L77
 1335              	.LVL210:
 1336              	.L81:
 386:Source\azure_iot_sdk\c-utility\src/buffer.c ****             }
 387:Source\azure_iot_sdk\c-utility\src/buffer.c ****             else
 388:Source\azure_iot_sdk\c-utility\src/buffer.c ****             {
 389:Source\azure_iot_sdk\c-utility\src/buffer.c ****                 if (fromEnd)
 1337              		.loc 1 389 0
 1338 00c6 039B     		ldr	r3, [sp, #12]
 1339 00c8 002B     		cmp	r3, #0
 1340 00ca 0AD0     		beq	.L82
 390:Source\azure_iot_sdk\c-utility\src/buffer.c ****                 {
 391:Source\azure_iot_sdk\c-utility\src/buffer.c ****                     /* Codes_SRS_BUFFER_07_040: [ if the fromEnd variable is true, BUFFER_shrink sh
 392:Source\azure_iot_sdk\c-utility\src/buffer.c ****                     memcpy(tmp, handle->buffer, alloc_size);
 1341              		.loc 1 392 0
 1342 00cc 2A00     		movs	r2, r5
 1343 00ce 2168     		ldr	r1, [r4]
 1344 00d0 FFF7FEFF 		bl	memcpy
 1345              	.LVL211:
 393:Source\azure_iot_sdk\c-utility\src/buffer.c ****                     free(handle->buffer);
 1346              		.loc 1 393 0
 1347 00d4 2068     		ldr	r0, [r4]
 1348 00d6 FFF7FEFF 		bl	free
 1349              	.LVL212:
 394:Source\azure_iot_sdk\c-utility\src/buffer.c ****                     handle->buffer = tmp;
ARM GAS  C:\Users\Phuong\AppData\Local\Temp\ccVRtur0.s 			page 32


 1350              		.loc 1 394 0
 1351 00da 2660     		str	r6, [r4]
 395:Source\azure_iot_sdk\c-utility\src/buffer.c ****                     handle->size = alloc_size;
 1352              		.loc 1 395 0
 1353 00dc 6560     		str	r5, [r4, #4]
 1354              	.LVL213:
 396:Source\azure_iot_sdk\c-utility\src/buffer.c ****                     result = 0;
 1355              		.loc 1 396 0
 1356 00de 0020     		movs	r0, #0
 1357 00e0 16E0     		b	.L77
 1358              	.LVL214:
 1359              	.L82:
 397:Source\azure_iot_sdk\c-utility\src/buffer.c ****                 }
 398:Source\azure_iot_sdk\c-utility\src/buffer.c ****                 else
 399:Source\azure_iot_sdk\c-utility\src/buffer.c ****                 {
 400:Source\azure_iot_sdk\c-utility\src/buffer.c ****                     /* Codes_SRS_BUFFER_07_041: [ if the fromEnd variable is false, BUFFER_shrink s
 401:Source\azure_iot_sdk\c-utility\src/buffer.c ****                     memcpy(tmp, handle->buffer + decreaseSize, alloc_size);
 1360              		.loc 1 401 0
 1361 00e2 2368     		ldr	r3, [r4]
 1362 00e4 D919     		adds	r1, r3, r7
 1363 00e6 2A00     		movs	r2, r5
 1364 00e8 FFF7FEFF 		bl	memcpy
 1365              	.LVL215:
 402:Source\azure_iot_sdk\c-utility\src/buffer.c ****                     free(handle->buffer);
 1366              		.loc 1 402 0
 1367 00ec 2068     		ldr	r0, [r4]
 1368 00ee FFF7FEFF 		bl	free
 1369              	.LVL216:
 403:Source\azure_iot_sdk\c-utility\src/buffer.c ****                     handle->buffer = tmp;
 1370              		.loc 1 403 0
 1371 00f2 2660     		str	r6, [r4]
 404:Source\azure_iot_sdk\c-utility\src/buffer.c ****                     handle->size = alloc_size;
 1372              		.loc 1 404 0
 1373 00f4 6560     		str	r5, [r4, #4]
 1374              	.LVL217:
 405:Source\azure_iot_sdk\c-utility\src/buffer.c ****                     result = 0;
 1375              		.loc 1 405 0
 1376 00f6 0020     		movs	r0, #0
 1377 00f8 0AE0     		b	.L77
 1378              	.LVL218:
 1379              	.L83:
 1380              	.LBE33:
 1381              	.LBE32:
 352:Source\azure_iot_sdk\c-utility\src/buffer.c ****     }
 1382              		.loc 1 352 0
 1383 00fa B020     		movs	r0, #176
 1384              	.LVL219:
 1385 00fc 4000     		lsls	r0, r0, #1
 1386 00fe 07E0     		b	.L77
 1387              	.LVL220:
 1388              	.L84:
 358:Source\azure_iot_sdk\c-utility\src/buffer.c ****     }
 1389              		.loc 1 358 0
 1390 0100 B320     		movs	r0, #179
 1391              	.LVL221:
 1392 0102 4000     		lsls	r0, r0, #1
 1393 0104 04E0     		b	.L77
ARM GAS  C:\Users\Phuong\AppData\Local\Temp\ccVRtur0.s 			page 33


 1394              	.LVL222:
 1395              	.L85:
 364:Source\azure_iot_sdk\c-utility\src/buffer.c ****     }
 1396              		.loc 1 364 0
 1397 0106 B620     		movs	r0, #182
 1398              	.LVL223:
 1399 0108 4000     		lsls	r0, r0, #1
 1400 010a 01E0     		b	.L77
 1401              	.LVL224:
 1402              	.L86:
 1403              	.LBB36:
 1404              	.LBB35:
 385:Source\azure_iot_sdk\c-utility\src/buffer.c ****             }
 1405              		.loc 1 385 0
 1406 010c 8220     		movs	r0, #130
 1407              	.LVL225:
 1408 010e FF30     		adds	r0, r0, #255
 1409              	.LVL226:
 1410              	.L77:
 1411              	.LBE35:
 1412              	.LBE36:
 406:Source\azure_iot_sdk\c-utility\src/buffer.c ****                 }
 407:Source\azure_iot_sdk\c-utility\src/buffer.c ****             }
 408:Source\azure_iot_sdk\c-utility\src/buffer.c ****         }
 409:Source\azure_iot_sdk\c-utility\src/buffer.c ****     }
 410:Source\azure_iot_sdk\c-utility\src/buffer.c ****     return result;
 411:Source\azure_iot_sdk\c-utility\src/buffer.c **** }
 1413              		.loc 1 411 0
 1414 0110 05B0     		add	sp, sp, #20
 1415              		@ sp needed
 1416              	.LVL227:
 1417 0112 F0BD     		pop	{r4, r5, r6, r7, pc}
 1418              	.L88:
 1419              		.align	2
 1420              	.L87:
 1421 0114 94010000 		.word	.LC36
 1422 0118 00000000 		.word	.LANCHOR0
 1423 011c 00000000 		.word	.LC1
 1424 0120 F4010000 		.word	.LC45
 1425 0124 14020000 		.word	.LC47
 1426 0128 D0010000 		.word	.LC40
 1427              		.cfi_endproc
 1428              	.LFE11:
 1429              		.size	BUFFER_shrink, .-BUFFER_shrink
 1430              		.section	.text.BUFFER_size,"ax",%progbits
 1431              		.align	2
 1432              		.global	BUFFER_size
 1433              		.code	16
 1434              		.thumb_func
 1435              		.type	BUFFER_size, %function
 1436              	BUFFER_size:
 1437              	.LFB12:
 412:Source\azure_iot_sdk\c-utility\src/buffer.c **** 
 413:Source\azure_iot_sdk\c-utility\src/buffer.c **** /* Codes_SRS_BUFFER_07_021: [BUFFER_size shall place the size of the associated buffer in the size 
 414:Source\azure_iot_sdk\c-utility\src/buffer.c **** int BUFFER_size(BUFFER_HANDLE handle, size_t* size)
 415:Source\azure_iot_sdk\c-utility\src/buffer.c **** {
 1438              		.loc 1 415 0
ARM GAS  C:\Users\Phuong\AppData\Local\Temp\ccVRtur0.s 			page 34


 1439              		.cfi_startproc
 1440              		@ args = 0, pretend = 0, frame = 0
 1441              		@ frame_needed = 0, uses_anonymous_args = 0
 1442              		@ link register save eliminated.
 1443              	.LVL228:
 416:Source\azure_iot_sdk\c-utility\src/buffer.c ****     int result;
 417:Source\azure_iot_sdk\c-utility\src/buffer.c ****     if ((handle == NULL) || (size == NULL))
 1444              		.loc 1 417 0
 1445 0000 0028     		cmp	r0, #0
 1446 0002 05D0     		beq	.L91
 1447              		.loc 1 417 0 is_stmt 0 discriminator 1
 1448 0004 0029     		cmp	r1, #0
 1449 0006 06D0     		beq	.L92
 1450              	.LVL229:
 1451              	.LBB37:
 418:Source\azure_iot_sdk\c-utility\src/buffer.c ****     {
 419:Source\azure_iot_sdk\c-utility\src/buffer.c ****         /* Codes_SRS_BUFFER_07_022: [BUFFER_size shall return a nonzero value for any error that is
 420:Source\azure_iot_sdk\c-utility\src/buffer.c ****         result = __FAILURE__;
 421:Source\azure_iot_sdk\c-utility\src/buffer.c ****     }
 422:Source\azure_iot_sdk\c-utility\src/buffer.c ****     else
 423:Source\azure_iot_sdk\c-utility\src/buffer.c ****     {
 424:Source\azure_iot_sdk\c-utility\src/buffer.c ****         BUFFER* b = (BUFFER*)handle;
 425:Source\azure_iot_sdk\c-utility\src/buffer.c ****         *size = b->size;
 1452              		.loc 1 425 0 is_stmt 1
 1453 0008 4368     		ldr	r3, [r0, #4]
 1454 000a 0B60     		str	r3, [r1]
 1455              	.LVL230:
 426:Source\azure_iot_sdk\c-utility\src/buffer.c ****         result = 0;
 1456              		.loc 1 426 0
 1457 000c 0020     		movs	r0, #0
 1458              	.LVL231:
 1459 000e 04E0     		b	.L90
 1460              	.LVL232:
 1461              	.L91:
 1462              	.LBE37:
 420:Source\azure_iot_sdk\c-utility\src/buffer.c ****     }
 1463              		.loc 1 420 0
 1464 0010 D220     		movs	r0, #210
 1465              	.LVL233:
 1466 0012 4000     		lsls	r0, r0, #1
 1467 0014 01E0     		b	.L90
 1468              	.LVL234:
 1469              	.L92:
 1470 0016 D220     		movs	r0, #210
 1471              	.LVL235:
 1472 0018 4000     		lsls	r0, r0, #1
 1473              	.L90:
 1474              	.LVL236:
 427:Source\azure_iot_sdk\c-utility\src/buffer.c ****     }
 428:Source\azure_iot_sdk\c-utility\src/buffer.c ****     return result;
 429:Source\azure_iot_sdk\c-utility\src/buffer.c **** }
 1475              		.loc 1 429 0
 1476              		@ sp needed
 1477 001a 7047     		bx	lr
 1478              		.cfi_endproc
 1479              	.LFE12:
 1480              		.size	BUFFER_size, .-BUFFER_size
ARM GAS  C:\Users\Phuong\AppData\Local\Temp\ccVRtur0.s 			page 35


 1481              		.section	.text.BUFFER_append,"ax",%progbits
 1482              		.align	2
 1483              		.global	BUFFER_append
 1484              		.code	16
 1485              		.thumb_func
 1486              		.type	BUFFER_append, %function
 1487              	BUFFER_append:
 1488              	.LFB13:
 430:Source\azure_iot_sdk\c-utility\src/buffer.c **** 
 431:Source\azure_iot_sdk\c-utility\src/buffer.c **** /* Codes_SRS_BUFFER_07_024: [BUFFER_append concatenates b2 onto b1 without modifying b2 and shall r
 432:Source\azure_iot_sdk\c-utility\src/buffer.c **** int BUFFER_append(BUFFER_HANDLE handle1, BUFFER_HANDLE handle2)
 433:Source\azure_iot_sdk\c-utility\src/buffer.c **** {
 1489              		.loc 1 433 0
 1490              		.cfi_startproc
 1491              		@ args = 0, pretend = 0, frame = 0
 1492              		@ frame_needed = 0, uses_anonymous_args = 0
 1493              	.LVL237:
 1494 0000 30B5     		push	{r4, r5, lr}
 1495              		.cfi_def_cfa_offset 12
 1496              		.cfi_offset 4, -12
 1497              		.cfi_offset 5, -8
 1498              		.cfi_offset 14, -4
 1499 0002 83B0     		sub	sp, sp, #12
 1500              		.cfi_def_cfa_offset 24
 1501 0004 0400     		movs	r4, r0
 1502 0006 0D00     		movs	r5, r1
 434:Source\azure_iot_sdk\c-utility\src/buffer.c ****     int result;
 435:Source\azure_iot_sdk\c-utility\src/buffer.c ****     if ( (handle1 == NULL) || (handle2 == NULL) || (handle1 == handle2) )
 1503              		.loc 1 435 0
 1504 0008 0028     		cmp	r0, #0
 1505 000a 34D0     		beq	.L96
 1506              		.loc 1 435 0 is_stmt 0 discriminator 1
 1507 000c 0029     		cmp	r1, #0
 1508 000e 35D0     		beq	.L97
 1509              		.loc 1 435 0 discriminator 2
 1510 0010 8842     		cmp	r0, r1
 1511 0012 36D0     		beq	.L98
 1512              	.LVL238:
 1513              	.LBB38:
 436:Source\azure_iot_sdk\c-utility\src/buffer.c ****     {
 437:Source\azure_iot_sdk\c-utility\src/buffer.c ****         /* Codes_SRS_BUFFER_07_023: [BUFFER_append shall return a nonzero upon any error that is en
 438:Source\azure_iot_sdk\c-utility\src/buffer.c ****         result = __FAILURE__;
 439:Source\azure_iot_sdk\c-utility\src/buffer.c ****     }
 440:Source\azure_iot_sdk\c-utility\src/buffer.c ****     else
 441:Source\azure_iot_sdk\c-utility\src/buffer.c ****     {
 442:Source\azure_iot_sdk\c-utility\src/buffer.c ****         BUFFER* b1 = (BUFFER*)handle1;
 443:Source\azure_iot_sdk\c-utility\src/buffer.c ****         BUFFER* b2 = (BUFFER*)handle2;
 444:Source\azure_iot_sdk\c-utility\src/buffer.c ****         if (b1->buffer == NULL)
 1514              		.loc 1 444 0 is_stmt 1
 1515 0014 0068     		ldr	r0, [r0]
 1516              	.LVL239:
 1517 0016 0028     		cmp	r0, #0
 1518 0018 36D0     		beq	.L99
 445:Source\azure_iot_sdk\c-utility\src/buffer.c ****         {
 446:Source\azure_iot_sdk\c-utility\src/buffer.c ****             /* Codes_SRS_BUFFER_07_023: [BUFFER_append shall return a nonzero upon any error that i
 447:Source\azure_iot_sdk\c-utility\src/buffer.c ****             result = __FAILURE__;
 448:Source\azure_iot_sdk\c-utility\src/buffer.c ****         }
ARM GAS  C:\Users\Phuong\AppData\Local\Temp\ccVRtur0.s 			page 36


 449:Source\azure_iot_sdk\c-utility\src/buffer.c ****         else if (b2->buffer == NULL)
 1519              		.loc 1 449 0
 1520 001a 0B68     		ldr	r3, [r1]
 1521 001c 002B     		cmp	r3, #0
 1522 001e 36D0     		beq	.L100
 450:Source\azure_iot_sdk\c-utility\src/buffer.c ****         {
 451:Source\azure_iot_sdk\c-utility\src/buffer.c ****             /* Codes_SRS_BUFFER_07_023: [BUFFER_append shall return a nonzero upon any error that i
 452:Source\azure_iot_sdk\c-utility\src/buffer.c ****             result = __FAILURE__;
 453:Source\azure_iot_sdk\c-utility\src/buffer.c ****         }
 454:Source\azure_iot_sdk\c-utility\src/buffer.c ****         else
 455:Source\azure_iot_sdk\c-utility\src/buffer.c ****         {
 456:Source\azure_iot_sdk\c-utility\src/buffer.c ****             if (b2->size ==0)
 1523              		.loc 1 456 0
 1524 0020 4968     		ldr	r1, [r1, #4]
 1525              	.LVL240:
 1526 0022 0029     		cmp	r1, #0
 1527 0024 36D0     		beq	.L101
 1528              	.LBB39:
 457:Source\azure_iot_sdk\c-utility\src/buffer.c ****             {
 458:Source\azure_iot_sdk\c-utility\src/buffer.c ****                 // b2->size = 0, whatever b1->size is, do nothing
 459:Source\azure_iot_sdk\c-utility\src/buffer.c ****                 result = 0;
 460:Source\azure_iot_sdk\c-utility\src/buffer.c ****             }
 461:Source\azure_iot_sdk\c-utility\src/buffer.c ****             else
 462:Source\azure_iot_sdk\c-utility\src/buffer.c ****             {
 463:Source\azure_iot_sdk\c-utility\src/buffer.c ****                 // b2->size != 0, whatever b1->size is
 464:Source\azure_iot_sdk\c-utility\src/buffer.c ****                 unsigned char* temp = (unsigned char*)realloc(b1->buffer, b1->size + b2->size);
 1529              		.loc 1 464 0
 1530 0026 6368     		ldr	r3, [r4, #4]
 1531 0028 9C46     		mov	ip, r3
 1532 002a 6144     		add	r1, r1, ip
 1533 002c FFF7FEFF 		bl	realloc
 1534              	.LVL241:
 465:Source\azure_iot_sdk\c-utility\src/buffer.c ****                 if (temp == NULL)
 1535              		.loc 1 465 0
 1536 0030 0028     		cmp	r0, #0
 1537 0032 11D1     		bne	.L95
 1538              	.LBB40:
 466:Source\azure_iot_sdk\c-utility\src/buffer.c ****                 {
 467:Source\azure_iot_sdk\c-utility\src/buffer.c ****                     /* Codes_SRS_BUFFER_07_023: [BUFFER_append shall return a nonzero upon any erro
 468:Source\azure_iot_sdk\c-utility\src/buffer.c ****                     LogError("Failure: allocating temp buffer.");
 1539              		.loc 1 468 0 discriminator 3
 1540 0034 FFF7FEFF 		bl	xlogging_get_log_function
 1541              	.LVL242:
 1542 0038 041E     		subs	r4, r0, #0
 1543              	.LVL243:
 1544 003a 2DD0     		beq	.L102
 1545              		.loc 1 468 0 is_stmt 0 discriminator 4
 1546 003c 184B     		ldr	r3, .L103
 1547 003e 0193     		str	r3, [sp, #4]
 1548 0040 0123     		movs	r3, #1
 1549 0042 0093     		str	r3, [sp]
 1550 0044 D433     		adds	r3, r3, #212
 1551 0046 FF33     		adds	r3, r3, #255
 1552 0048 164A     		ldr	r2, .L103+4
 1553 004a 0C32     		adds	r2, r2, #12
 1554 004c 1649     		ldr	r1, .L103+8
 1555 004e 0020     		movs	r0, #0
ARM GAS  C:\Users\Phuong\AppData\Local\Temp\ccVRtur0.s 			page 37


 1556              	.LVL244:
 1557 0050 A047     		blx	r4
 1558              	.LVL245:
 1559              	.LBE40:
 469:Source\azure_iot_sdk\c-utility\src/buffer.c ****                     result = __FAILURE__;
 1560              		.loc 1 469 0 is_stmt 1 discriminator 4
 1561 0052 D620     		movs	r0, #214
 1562 0054 FF30     		adds	r0, r0, #255
 1563 0056 21E0     		b	.L94
 1564              	.LVL246:
 1565              	.L95:
 470:Source\azure_iot_sdk\c-utility\src/buffer.c ****                 }
 471:Source\azure_iot_sdk\c-utility\src/buffer.c ****                 else
 472:Source\azure_iot_sdk\c-utility\src/buffer.c ****                 {
 473:Source\azure_iot_sdk\c-utility\src/buffer.c ****                     /* Codes_SRS_BUFFER_07_024: [BUFFER_append concatenates b2 onto b1 without modi
 474:Source\azure_iot_sdk\c-utility\src/buffer.c ****                     b1->buffer = temp;
 1566              		.loc 1 474 0
 1567 0058 2060     		str	r0, [r4]
 475:Source\azure_iot_sdk\c-utility\src/buffer.c ****                     // Append the BUFFER
 476:Source\azure_iot_sdk\c-utility\src/buffer.c ****                     (void)memcpy(&b1->buffer[b1->size], b2->buffer, b2->size);
 1568              		.loc 1 476 0
 1569 005a 6368     		ldr	r3, [r4, #4]
 1570 005c 9C46     		mov	ip, r3
 1571 005e 6044     		add	r0, r0, ip
 1572              	.LVL247:
 1573 0060 6A68     		ldr	r2, [r5, #4]
 1574 0062 2968     		ldr	r1, [r5]
 1575 0064 FFF7FEFF 		bl	memcpy
 1576              	.LVL248:
 477:Source\azure_iot_sdk\c-utility\src/buffer.c ****                     b1->size += b2->size;
 1577              		.loc 1 477 0
 1578 0068 6B68     		ldr	r3, [r5, #4]
 1579 006a 6268     		ldr	r2, [r4, #4]
 1580 006c 9446     		mov	ip, r2
 1581 006e 6344     		add	r3, r3, ip
 1582 0070 6360     		str	r3, [r4, #4]
 1583              	.LVL249:
 478:Source\azure_iot_sdk\c-utility\src/buffer.c ****                     result = 0;
 1584              		.loc 1 478 0
 1585 0072 0020     		movs	r0, #0
 1586 0074 12E0     		b	.L94
 1587              	.LVL250:
 1588              	.L96:
 1589              	.LBE39:
 1590              	.LBE38:
 438:Source\azure_iot_sdk\c-utility\src/buffer.c ****     }
 1591              		.loc 1 438 0
 1592 0076 DB20     		movs	r0, #219
 1593              	.LVL251:
 1594 0078 4000     		lsls	r0, r0, #1
 1595 007a 0FE0     		b	.L94
 1596              	.LVL252:
 1597              	.L97:
 1598 007c DB20     		movs	r0, #219
 1599              	.LVL253:
 1600 007e 4000     		lsls	r0, r0, #1
 1601 0080 0CE0     		b	.L94
ARM GAS  C:\Users\Phuong\AppData\Local\Temp\ccVRtur0.s 			page 38


 1602              	.LVL254:
 1603              	.L98:
 1604 0082 DB20     		movs	r0, #219
 1605              	.LVL255:
 1606 0084 4000     		lsls	r0, r0, #1
 1607 0086 09E0     		b	.L94
 1608              	.LVL256:
 1609              	.L99:
 1610              	.LBB42:
 447:Source\azure_iot_sdk\c-utility\src/buffer.c ****         }
 1611              		.loc 1 447 0
 1612 0088 C020     		movs	r0, #192
 1613 008a FF30     		adds	r0, r0, #255
 1614 008c 06E0     		b	.L94
 1615              	.L100:
 452:Source\azure_iot_sdk\c-utility\src/buffer.c ****         }
 1616              		.loc 1 452 0
 1617 008e E220     		movs	r0, #226
 1618 0090 4000     		lsls	r0, r0, #1
 1619 0092 03E0     		b	.L94
 1620              	.LVL257:
 1621              	.L101:
 459:Source\azure_iot_sdk\c-utility\src/buffer.c ****             }
 1622              		.loc 1 459 0
 1623 0094 0020     		movs	r0, #0
 1624 0096 01E0     		b	.L94
 1625              	.LVL258:
 1626              	.L102:
 1627              	.LBB41:
 469:Source\azure_iot_sdk\c-utility\src/buffer.c ****                 }
 1628              		.loc 1 469 0
 1629 0098 D620     		movs	r0, #214
 1630              	.LVL259:
 1631 009a FF30     		adds	r0, r0, #255
 1632              	.LVL260:
 1633              	.L94:
 1634              	.LBE41:
 1635              	.LBE42:
 479:Source\azure_iot_sdk\c-utility\src/buffer.c ****                 }
 480:Source\azure_iot_sdk\c-utility\src/buffer.c ****             }
 481:Source\azure_iot_sdk\c-utility\src/buffer.c ****         }
 482:Source\azure_iot_sdk\c-utility\src/buffer.c ****     }
 483:Source\azure_iot_sdk\c-utility\src/buffer.c ****     return result;
 484:Source\azure_iot_sdk\c-utility\src/buffer.c **** }
 1636              		.loc 1 484 0
 1637 009c 03B0     		add	sp, sp, #12
 1638              		@ sp needed
 1639              	.LVL261:
 1640 009e 30BD     		pop	{r4, r5, pc}
 1641              	.L104:
 1642              		.align	2
 1643              	.L103:
 1644 00a0 D0010000 		.word	.LC40
 1645 00a4 80000000 		.word	.LANCHOR1
 1646 00a8 00000000 		.word	.LC1
 1647              		.cfi_endproc
 1648              	.LFE13:
ARM GAS  C:\Users\Phuong\AppData\Local\Temp\ccVRtur0.s 			page 39


 1649              		.size	BUFFER_append, .-BUFFER_append
 1650              		.section	.text.BUFFER_prepend,"ax",%progbits
 1651              		.align	2
 1652              		.global	BUFFER_prepend
 1653              		.code	16
 1654              		.thumb_func
 1655              		.type	BUFFER_prepend, %function
 1656              	BUFFER_prepend:
 1657              	.LFB14:
 485:Source\azure_iot_sdk\c-utility\src/buffer.c **** 
 486:Source\azure_iot_sdk\c-utility\src/buffer.c **** int BUFFER_prepend(BUFFER_HANDLE handle1, BUFFER_HANDLE handle2)
 487:Source\azure_iot_sdk\c-utility\src/buffer.c **** {
 1658              		.loc 1 487 0
 1659              		.cfi_startproc
 1660              		@ args = 0, pretend = 0, frame = 0
 1661              		@ frame_needed = 0, uses_anonymous_args = 0
 1662              	.LVL262:
 1663 0000 F0B5     		push	{r4, r5, r6, r7, lr}
 1664              		.cfi_def_cfa_offset 20
 1665              		.cfi_offset 4, -20
 1666              		.cfi_offset 5, -16
 1667              		.cfi_offset 6, -12
 1668              		.cfi_offset 7, -8
 1669              		.cfi_offset 14, -4
 1670 0002 4746     		mov	r7, r8
 1671 0004 80B4     		push	{r7}
 1672              		.cfi_def_cfa_offset 24
 1673              		.cfi_offset 8, -24
 1674 0006 82B0     		sub	sp, sp, #8
 1675              		.cfi_def_cfa_offset 32
 1676 0008 0400     		movs	r4, r0
 1677 000a 0D00     		movs	r5, r1
 488:Source\azure_iot_sdk\c-utility\src/buffer.c ****     int result;
 489:Source\azure_iot_sdk\c-utility\src/buffer.c ****     if ((handle1 == NULL) || (handle2 == NULL) || (handle1 == handle2))
 1678              		.loc 1 489 0
 1679 000c 0028     		cmp	r0, #0
 1680 000e 3BD0     		beq	.L108
 1681              		.loc 1 489 0 is_stmt 0 discriminator 1
 1682 0010 0029     		cmp	r1, #0
 1683 0012 3CD0     		beq	.L109
 1684              		.loc 1 489 0 discriminator 2
 1685 0014 8842     		cmp	r0, r1
 1686 0016 3DD0     		beq	.L110
 1687              	.LVL263:
 1688              	.LBB43:
 490:Source\azure_iot_sdk\c-utility\src/buffer.c ****     {
 491:Source\azure_iot_sdk\c-utility\src/buffer.c ****         /* Codes_SRS_BUFFER_01_005: [ BUFFER_prepend shall return a non-zero upon value any error t
 492:Source\azure_iot_sdk\c-utility\src/buffer.c ****         result = __FAILURE__;
 493:Source\azure_iot_sdk\c-utility\src/buffer.c ****     }
 494:Source\azure_iot_sdk\c-utility\src/buffer.c ****     else
 495:Source\azure_iot_sdk\c-utility\src/buffer.c ****     {
 496:Source\azure_iot_sdk\c-utility\src/buffer.c ****         BUFFER* b1 = (BUFFER*)handle1;
 497:Source\azure_iot_sdk\c-utility\src/buffer.c ****         BUFFER* b2 = (BUFFER*)handle2;
 498:Source\azure_iot_sdk\c-utility\src/buffer.c ****         if (b1->buffer == NULL)
 1689              		.loc 1 498 0 is_stmt 1
 1690 0018 0368     		ldr	r3, [r0]
 1691 001a 002B     		cmp	r3, #0
ARM GAS  C:\Users\Phuong\AppData\Local\Temp\ccVRtur0.s 			page 40


 1692 001c 3DD0     		beq	.L111
 499:Source\azure_iot_sdk\c-utility\src/buffer.c ****         {
 500:Source\azure_iot_sdk\c-utility\src/buffer.c ****             /* Codes_SRS_BUFFER_01_005: [ BUFFER_prepend shall return a non-zero upon value any err
 501:Source\azure_iot_sdk\c-utility\src/buffer.c ****             result = __FAILURE__;
 502:Source\azure_iot_sdk\c-utility\src/buffer.c ****         }
 503:Source\azure_iot_sdk\c-utility\src/buffer.c ****         else if (b2->buffer == NULL)
 1693              		.loc 1 503 0
 1694 001e 0E68     		ldr	r6, [r1]
 1695 0020 002E     		cmp	r6, #0
 1696 0022 3DD0     		beq	.L112
 504:Source\azure_iot_sdk\c-utility\src/buffer.c ****         {
 505:Source\azure_iot_sdk\c-utility\src/buffer.c ****             /* Codes_SRS_BUFFER_01_005: [ BUFFER_prepend shall return a non-zero upon value any err
 506:Source\azure_iot_sdk\c-utility\src/buffer.c ****             result = __FAILURE__;
 507:Source\azure_iot_sdk\c-utility\src/buffer.c ****         }
 508:Source\azure_iot_sdk\c-utility\src/buffer.c ****         else
 509:Source\azure_iot_sdk\c-utility\src/buffer.c ****         {
 510:Source\azure_iot_sdk\c-utility\src/buffer.c ****             //put b2 ahead of b1: [b2][b1], return b1
 511:Source\azure_iot_sdk\c-utility\src/buffer.c ****             if (b2->size ==0)
 1697              		.loc 1 511 0
 1698 0024 4F68     		ldr	r7, [r1, #4]
 1699 0026 002F     		cmp	r7, #0
 1700 0028 3DD0     		beq	.L113
 1701              	.LBB44:
 512:Source\azure_iot_sdk\c-utility\src/buffer.c ****             {
 513:Source\azure_iot_sdk\c-utility\src/buffer.c ****                 // do nothing
 514:Source\azure_iot_sdk\c-utility\src/buffer.c ****                 result = 0;
 515:Source\azure_iot_sdk\c-utility\src/buffer.c ****             }
 516:Source\azure_iot_sdk\c-utility\src/buffer.c ****             else
 517:Source\azure_iot_sdk\c-utility\src/buffer.c ****             {
 518:Source\azure_iot_sdk\c-utility\src/buffer.c ****                 // b2->size != 0
 519:Source\azure_iot_sdk\c-utility\src/buffer.c ****                 unsigned char* temp = (unsigned char*)malloc(b1->size + b2->size);
 1702              		.loc 1 519 0
 1703 002a 4368     		ldr	r3, [r0, #4]
 1704 002c F818     		adds	r0, r7, r3
 1705              	.LVL264:
 1706 002e FFF7FEFF 		bl	malloc
 1707              	.LVL265:
 1708 0032 8046     		mov	r8, r0
 1709              	.LVL266:
 520:Source\azure_iot_sdk\c-utility\src/buffer.c ****                 if (temp == NULL)
 1710              		.loc 1 520 0
 1711 0034 0028     		cmp	r0, #0
 1712 0036 10D1     		bne	.L107
 1713              	.LBB45:
 521:Source\azure_iot_sdk\c-utility\src/buffer.c ****                 {
 522:Source\azure_iot_sdk\c-utility\src/buffer.c ****                     /* Codes_SRS_BUFFER_01_005: [ BUFFER_prepend shall return a non-zero upon value
 523:Source\azure_iot_sdk\c-utility\src/buffer.c ****                     LogError("Failure: allocating temp buffer.");
 1714              		.loc 1 523 0 discriminator 3
 1715 0038 FFF7FEFF 		bl	xlogging_get_log_function
 1716              	.LVL267:
 1717 003c 041E     		subs	r4, r0, #0
 1718              	.LVL268:
 1719 003e 34D0     		beq	.L114
 1720              		.loc 1 523 0 is_stmt 0 discriminator 4
 1721 0040 1D4B     		ldr	r3, .L115
 1722 0042 0193     		str	r3, [sp, #4]
 1723 0044 0123     		movs	r3, #1
ARM GAS  C:\Users\Phuong\AppData\Local\Temp\ccVRtur0.s 			page 41


 1724 0046 0093     		str	r3, [sp]
 1725 0048 1C4B     		ldr	r3, .L115+4
 1726 004a 1D4A     		ldr	r2, .L115+8
 1727 004c 1C32     		adds	r2, r2, #28
 1728 004e 1D49     		ldr	r1, .L115+12
 1729 0050 0020     		movs	r0, #0
 1730              	.LVL269:
 1731 0052 A047     		blx	r4
 1732              	.LVL270:
 1733              	.LBE45:
 524:Source\azure_iot_sdk\c-utility\src/buffer.c ****                     result = __FAILURE__;
 1734              		.loc 1 524 0 is_stmt 1 discriminator 4
 1735 0054 8320     		movs	r0, #131
 1736 0056 8000     		lsls	r0, r0, #2
 1737 0058 29E0     		b	.L106
 1738              	.LVL271:
 1739              	.L107:
 525:Source\azure_iot_sdk\c-utility\src/buffer.c ****                 }
 526:Source\azure_iot_sdk\c-utility\src/buffer.c ****                 else
 527:Source\azure_iot_sdk\c-utility\src/buffer.c ****                 {
 528:Source\azure_iot_sdk\c-utility\src/buffer.c ****                     /* Codes_SRS_BUFFER_01_004: [ BUFFER_prepend concatenates handle1 onto handle2 
 529:Source\azure_iot_sdk\c-utility\src/buffer.c ****                     // Append the BUFFER
 530:Source\azure_iot_sdk\c-utility\src/buffer.c ****                     (void)memcpy(temp, b2->buffer, b2->size);
 1740              		.loc 1 530 0
 1741 005a 3A00     		movs	r2, r7
 1742 005c 3100     		movs	r1, r6
 1743 005e FFF7FEFF 		bl	memcpy
 1744              	.LVL272:
 531:Source\azure_iot_sdk\c-utility\src/buffer.c ****                     // start from b1->size to append b1
 532:Source\azure_iot_sdk\c-utility\src/buffer.c ****                     (void)memcpy(&temp[b2->size], b1->buffer, b1->size);
 1745              		.loc 1 532 0
 1746 0062 6B68     		ldr	r3, [r5, #4]
 1747 0064 4344     		add	r3, r3, r8
 1748 0066 1800     		movs	r0, r3
 1749 0068 6268     		ldr	r2, [r4, #4]
 1750 006a 2168     		ldr	r1, [r4]
 1751 006c FFF7FEFF 		bl	memcpy
 1752              	.LVL273:
 533:Source\azure_iot_sdk\c-utility\src/buffer.c ****                     free(b1->buffer);
 1753              		.loc 1 533 0
 1754 0070 2068     		ldr	r0, [r4]
 1755 0072 FFF7FEFF 		bl	free
 1756              	.LVL274:
 534:Source\azure_iot_sdk\c-utility\src/buffer.c ****                     b1->buffer = temp;
 1757              		.loc 1 534 0
 1758 0076 4346     		mov	r3, r8
 1759 0078 2360     		str	r3, [r4]
 535:Source\azure_iot_sdk\c-utility\src/buffer.c ****                     b1->size += b2->size;
 1760              		.loc 1 535 0
 1761 007a 6B68     		ldr	r3, [r5, #4]
 1762 007c 6268     		ldr	r2, [r4, #4]
 1763 007e 9446     		mov	ip, r2
 1764 0080 6344     		add	r3, r3, ip
 1765 0082 6360     		str	r3, [r4, #4]
 1766              	.LVL275:
 536:Source\azure_iot_sdk\c-utility\src/buffer.c ****                     result = 0;
 1767              		.loc 1 536 0
ARM GAS  C:\Users\Phuong\AppData\Local\Temp\ccVRtur0.s 			page 42


 1768 0084 0020     		movs	r0, #0
 1769 0086 12E0     		b	.L106
 1770              	.LVL276:
 1771              	.L108:
 1772              	.LBE44:
 1773              	.LBE43:
 492:Source\azure_iot_sdk\c-utility\src/buffer.c ****     }
 1774              		.loc 1 492 0
 1775 0088 F620     		movs	r0, #246
 1776              	.LVL277:
 1777 008a 4000     		lsls	r0, r0, #1
 1778 008c 0FE0     		b	.L106
 1779              	.LVL278:
 1780              	.L109:
 1781 008e F620     		movs	r0, #246
 1782              	.LVL279:
 1783 0090 4000     		lsls	r0, r0, #1
 1784 0092 0CE0     		b	.L106
 1785              	.LVL280:
 1786              	.L110:
 1787 0094 F620     		movs	r0, #246
 1788              	.LVL281:
 1789 0096 4000     		lsls	r0, r0, #1
 1790 0098 09E0     		b	.L106
 1791              	.LVL282:
 1792              	.L111:
 1793              	.LBB47:
 501:Source\azure_iot_sdk\c-utility\src/buffer.c ****         }
 1794              		.loc 1 501 0
 1795 009a F620     		movs	r0, #246
 1796              	.LVL283:
 1797 009c FF30     		adds	r0, r0, #255
 1798 009e 06E0     		b	.L106
 1799              	.LVL284:
 1800              	.L112:
 506:Source\azure_iot_sdk\c-utility\src/buffer.c ****         }
 1801              		.loc 1 506 0
 1802 00a0 FD20     		movs	r0, #253
 1803              	.LVL285:
 1804 00a2 4000     		lsls	r0, r0, #1
 1805 00a4 03E0     		b	.L106
 1806              	.LVL286:
 1807              	.L113:
 514:Source\azure_iot_sdk\c-utility\src/buffer.c ****             }
 1808              		.loc 1 514 0
 1809 00a6 0020     		movs	r0, #0
 1810              	.LVL287:
 1811 00a8 01E0     		b	.L106
 1812              	.LVL288:
 1813              	.L114:
 1814              	.LBB46:
 524:Source\azure_iot_sdk\c-utility\src/buffer.c ****                 }
 1815              		.loc 1 524 0
 1816 00aa 8320     		movs	r0, #131
 1817              	.LVL289:
 1818 00ac 8000     		lsls	r0, r0, #2
 1819              	.LVL290:
ARM GAS  C:\Users\Phuong\AppData\Local\Temp\ccVRtur0.s 			page 43


 1820              	.L106:
 1821              	.LBE46:
 1822              	.LBE47:
 537:Source\azure_iot_sdk\c-utility\src/buffer.c ****                 }
 538:Source\azure_iot_sdk\c-utility\src/buffer.c ****             }
 539:Source\azure_iot_sdk\c-utility\src/buffer.c ****         }
 540:Source\azure_iot_sdk\c-utility\src/buffer.c ****     }
 541:Source\azure_iot_sdk\c-utility\src/buffer.c ****     return result;
 542:Source\azure_iot_sdk\c-utility\src/buffer.c **** }
 1823              		.loc 1 542 0
 1824 00ae 02B0     		add	sp, sp, #8
 1825              		@ sp needed
 1826              	.LVL291:
 1827 00b0 04BC     		pop	{r2}
 1828 00b2 9046     		mov	r8, r2
 1829 00b4 F0BD     		pop	{r4, r5, r6, r7, pc}
 1830              	.L116:
 1831 00b6 C046     		.align	2
 1832              	.L115:
 1833 00b8 D0010000 		.word	.LC40
 1834 00bc 0B020000 		.word	523
 1835 00c0 80000000 		.word	.LANCHOR1
 1836 00c4 00000000 		.word	.LC1
 1837              		.cfi_endproc
 1838              	.LFE14:
 1839              		.size	BUFFER_prepend, .-BUFFER_prepend
 1840              		.section	.text.BUFFER_fill,"ax",%progbits
 1841              		.align	2
 1842              		.global	BUFFER_fill
 1843              		.code	16
 1844              		.thumb_func
 1845              		.type	BUFFER_fill, %function
 1846              	BUFFER_fill:
 1847              	.LFB15:
 543:Source\azure_iot_sdk\c-utility\src/buffer.c **** 
 544:Source\azure_iot_sdk\c-utility\src/buffer.c **** int BUFFER_fill(BUFFER_HANDLE handle, unsigned char fill_char)
 545:Source\azure_iot_sdk\c-utility\src/buffer.c **** {
 1848              		.loc 1 545 0
 1849              		.cfi_startproc
 1850              		@ args = 0, pretend = 0, frame = 0
 1851              		@ frame_needed = 0, uses_anonymous_args = 0
 1852              	.LVL292:
 1853 0000 10B5     		push	{r4, lr}
 1854              		.cfi_def_cfa_offset 8
 1855              		.cfi_offset 4, -8
 1856              		.cfi_offset 14, -4
 1857 0002 82B0     		sub	sp, sp, #8
 1858              		.cfi_def_cfa_offset 16
 546:Source\azure_iot_sdk\c-utility\src/buffer.c ****     int result;
 547:Source\azure_iot_sdk\c-utility\src/buffer.c ****     if (handle == NULL)
 1859              		.loc 1 547 0
 1860 0004 0028     		cmp	r0, #0
 1861 0006 13D1     		bne	.L121
 1862              	.LBB48:
 548:Source\azure_iot_sdk\c-utility\src/buffer.c ****     {
 549:Source\azure_iot_sdk\c-utility\src/buffer.c ****         /* Codes_SRS_BUFFER_07_002: [ If handle is NULL BUFFER_fill shall return a non-zero value. 
 550:Source\azure_iot_sdk\c-utility\src/buffer.c ****         LogError("Invalid parameter specified, handle == NULL.");
ARM GAS  C:\Users\Phuong\AppData\Local\Temp\ccVRtur0.s 			page 44


 1863              		.loc 1 550 0 discriminator 3
 1864 0008 FFF7FEFF 		bl	xlogging_get_log_function
 1865              	.LVL293:
 1866 000c 041E     		subs	r4, r0, #0
 1867              	.LVL294:
 1868 000e 15D0     		beq	.L122
 1869              		.loc 1 550 0 is_stmt 0 discriminator 4
 1870 0010 0C4B     		ldr	r3, .L123
 1871 0012 0193     		str	r3, [sp, #4]
 1872 0014 0123     		movs	r3, #1
 1873 0016 0093     		str	r3, [sp]
 1874 0018 0B4B     		ldr	r3, .L123+4
 1875 001a 0C4A     		ldr	r2, .L123+8
 1876 001c 2C32     		adds	r2, r2, #44
 1877 001e 0C49     		ldr	r1, .L123+12
 1878 0020 0020     		movs	r0, #0
 1879              	.LVL295:
 1880 0022 A047     		blx	r4
 1881              	.LVL296:
 1882              	.LBE48:
 551:Source\azure_iot_sdk\c-utility\src/buffer.c ****         result = __FAILURE__;
 1883              		.loc 1 551 0 is_stmt 1 discriminator 4
 1884 0024 0B48     		ldr	r0, .L123+16
 1885 0026 0AE0     		b	.L119
 1886              	.LVL297:
 1887              	.L120:
 1888              	.LBB49:
 552:Source\azure_iot_sdk\c-utility\src/buffer.c ****     }
 553:Source\azure_iot_sdk\c-utility\src/buffer.c ****     else
 554:Source\azure_iot_sdk\c-utility\src/buffer.c ****     {
 555:Source\azure_iot_sdk\c-utility\src/buffer.c ****         size_t index;
 556:Source\azure_iot_sdk\c-utility\src/buffer.c ****         /* Codes_SRS_BUFFER_07_001: [ BUFFER_fill shall fill the supplied BUFFER_HANDLE with the su
 557:Source\azure_iot_sdk\c-utility\src/buffer.c ****         BUFFER* buffer_data = (BUFFER*)handle;
 558:Source\azure_iot_sdk\c-utility\src/buffer.c ****         for (index = 0; index < buffer_data->size; index++)
 559:Source\azure_iot_sdk\c-utility\src/buffer.c ****         {
 560:Source\azure_iot_sdk\c-utility\src/buffer.c ****             buffer_data->buffer[index] = fill_char;
 1889              		.loc 1 560 0 discriminator 3
 1890 0028 0268     		ldr	r2, [r0]
 1891 002a D154     		strb	r1, [r2, r3]
 558:Source\azure_iot_sdk\c-utility\src/buffer.c ****         {
 1892              		.loc 1 558 0 discriminator 3
 1893 002c 0133     		adds	r3, r3, #1
 1894              	.LVL298:
 1895 002e 00E0     		b	.L118
 1896              	.LVL299:
 1897              	.L121:
 1898              	.LBE49:
 1899 0030 0023     		movs	r3, #0
 1900              	.L118:
 1901              	.LVL300:
 1902              	.LBB50:
 558:Source\azure_iot_sdk\c-utility\src/buffer.c ****         {
 1903              		.loc 1 558 0 is_stmt 0 discriminator 1
 1904 0032 4268     		ldr	r2, [r0, #4]
 1905 0034 9342     		cmp	r3, r2
 1906 0036 F7D3     		bcc	.L120
 561:Source\azure_iot_sdk\c-utility\src/buffer.c ****         }
ARM GAS  C:\Users\Phuong\AppData\Local\Temp\ccVRtur0.s 			page 45


 562:Source\azure_iot_sdk\c-utility\src/buffer.c ****         result = 0;
 1907              		.loc 1 562 0 is_stmt 1
 1908 0038 0020     		movs	r0, #0
 1909              	.LVL301:
 1910 003a 00E0     		b	.L119
 1911              	.LVL302:
 1912              	.L122:
 1913              	.LBE50:
 551:Source\azure_iot_sdk\c-utility\src/buffer.c ****     }
 1914              		.loc 1 551 0
 1915 003c 0548     		ldr	r0, .L123+16
 1916              	.LVL303:
 1917              	.L119:
 563:Source\azure_iot_sdk\c-utility\src/buffer.c ****     }
 564:Source\azure_iot_sdk\c-utility\src/buffer.c ****     return result;
 565:Source\azure_iot_sdk\c-utility\src/buffer.c **** }
 1918              		.loc 1 565 0
 1919 003e 02B0     		add	sp, sp, #8
 1920              		@ sp needed
 1921 0040 10BD     		pop	{r4, pc}
 1922              	.L124:
 1923 0042 C046     		.align	2
 1924              	.L123:
 1925 0044 48020000 		.word	.LC58
 1926 0048 26020000 		.word	550
 1927 004c 80000000 		.word	.LANCHOR1
 1928 0050 00000000 		.word	.LC1
 1929 0054 27020000 		.word	551
 1930              		.cfi_endproc
 1931              	.LFE15:
 1932              		.size	BUFFER_fill, .-BUFFER_fill
 1933              		.section	.text.BUFFER_u_char,"ax",%progbits
 1934              		.align	2
 1935              		.global	BUFFER_u_char
 1936              		.code	16
 1937              		.thumb_func
 1938              		.type	BUFFER_u_char, %function
 1939              	BUFFER_u_char:
 1940              	.LFB16:
 566:Source\azure_iot_sdk\c-utility\src/buffer.c **** 
 567:Source\azure_iot_sdk\c-utility\src/buffer.c **** 
 568:Source\azure_iot_sdk\c-utility\src/buffer.c **** /* Codes_SRS_BUFFER_07_025: [BUFFER_u_char shall return a pointer to the underlying unsigned char*.
 569:Source\azure_iot_sdk\c-utility\src/buffer.c **** unsigned char* BUFFER_u_char(BUFFER_HANDLE handle)
 570:Source\azure_iot_sdk\c-utility\src/buffer.c **** {
 1941              		.loc 1 570 0
 1942              		.cfi_startproc
 1943              		@ args = 0, pretend = 0, frame = 0
 1944              		@ frame_needed = 0, uses_anonymous_args = 0
 1945              		@ link register save eliminated.
 1946              	.LVL304:
 571:Source\azure_iot_sdk\c-utility\src/buffer.c ****     BUFFER* handleData = (BUFFER*)handle;
 572:Source\azure_iot_sdk\c-utility\src/buffer.c ****     unsigned char* result;
 573:Source\azure_iot_sdk\c-utility\src/buffer.c ****     if (handle == NULL || handleData->size == 0)
 1947              		.loc 1 573 0
 1948 0000 0028     		cmp	r0, #0
 1949 0002 04D0     		beq	.L127
 1950              		.loc 1 573 0 is_stmt 0 discriminator 1
ARM GAS  C:\Users\Phuong\AppData\Local\Temp\ccVRtur0.s 			page 46


 1951 0004 4368     		ldr	r3, [r0, #4]
 1952 0006 002B     		cmp	r3, #0
 1953 0008 03D0     		beq	.L128
 574:Source\azure_iot_sdk\c-utility\src/buffer.c ****     {
 575:Source\azure_iot_sdk\c-utility\src/buffer.c ****         /* Codes_SRS_BUFFER_07_026: [BUFFER_u_char shall return NULL for any error that is encounte
 576:Source\azure_iot_sdk\c-utility\src/buffer.c ****         /* Codes_SRS_BUFFER_07_029: [BUFFER_u_char shall return NULL if underlying buffer size is z
 577:Source\azure_iot_sdk\c-utility\src/buffer.c ****         result = NULL;
 578:Source\azure_iot_sdk\c-utility\src/buffer.c ****     }
 579:Source\azure_iot_sdk\c-utility\src/buffer.c ****     else
 580:Source\azure_iot_sdk\c-utility\src/buffer.c ****     {
 581:Source\azure_iot_sdk\c-utility\src/buffer.c ****         result = handleData->buffer;
 1954              		.loc 1 581 0 is_stmt 1
 1955 000a 0068     		ldr	r0, [r0]
 1956              	.LVL305:
 1957 000c 02E0     		b	.L126
 1958              	.LVL306:
 1959              	.L127:
 577:Source\azure_iot_sdk\c-utility\src/buffer.c ****     }
 1960              		.loc 1 577 0
 1961 000e 0020     		movs	r0, #0
 1962              	.LVL307:
 1963 0010 00E0     		b	.L126
 1964              	.LVL308:
 1965              	.L128:
 1966 0012 0020     		movs	r0, #0
 1967              	.LVL309:
 1968              	.L126:
 582:Source\azure_iot_sdk\c-utility\src/buffer.c ****     }
 583:Source\azure_iot_sdk\c-utility\src/buffer.c ****     return result;
 584:Source\azure_iot_sdk\c-utility\src/buffer.c **** }
 1969              		.loc 1 584 0
 1970              		@ sp needed
 1971 0014 7047     		bx	lr
 1972              		.cfi_endproc
 1973              	.LFE16:
 1974              		.size	BUFFER_u_char, .-BUFFER_u_char
 1975 0016 C046     		.section	.text.BUFFER_length,"ax",%progbits
 1976              		.align	2
 1977              		.global	BUFFER_length
 1978              		.code	16
 1979              		.thumb_func
 1980              		.type	BUFFER_length, %function
 1981              	BUFFER_length:
 1982              	.LFB17:
 585:Source\azure_iot_sdk\c-utility\src/buffer.c **** 
 586:Source\azure_iot_sdk\c-utility\src/buffer.c **** /* Codes_SRS_BUFFER_07_027: [BUFFER_length shall return the size of the underlying buffer.] */
 587:Source\azure_iot_sdk\c-utility\src/buffer.c **** size_t BUFFER_length(BUFFER_HANDLE handle)
 588:Source\azure_iot_sdk\c-utility\src/buffer.c **** {
 1983              		.loc 1 588 0
 1984              		.cfi_startproc
 1985              		@ args = 0, pretend = 0, frame = 0
 1986              		@ frame_needed = 0, uses_anonymous_args = 0
 1987              		@ link register save eliminated.
 1988              	.LVL310:
 589:Source\azure_iot_sdk\c-utility\src/buffer.c ****     size_t result;
 590:Source\azure_iot_sdk\c-utility\src/buffer.c ****     if (handle == NULL)
 1989              		.loc 1 590 0
ARM GAS  C:\Users\Phuong\AppData\Local\Temp\ccVRtur0.s 			page 47


 1990 0000 0028     		cmp	r0, #0
 1991 0002 01D0     		beq	.L131
 1992              	.LVL311:
 1993              	.LBB51:
 591:Source\azure_iot_sdk\c-utility\src/buffer.c ****     {
 592:Source\azure_iot_sdk\c-utility\src/buffer.c ****         /* Codes_SRS_BUFFER_07_028: [BUFFER_length shall return zero for any error that is encounte
 593:Source\azure_iot_sdk\c-utility\src/buffer.c ****         result = 0;
 594:Source\azure_iot_sdk\c-utility\src/buffer.c ****     }
 595:Source\azure_iot_sdk\c-utility\src/buffer.c ****     else
 596:Source\azure_iot_sdk\c-utility\src/buffer.c ****     {
 597:Source\azure_iot_sdk\c-utility\src/buffer.c ****         BUFFER* b = (BUFFER*)handle;
 598:Source\azure_iot_sdk\c-utility\src/buffer.c ****         result = b->size;
 1994              		.loc 1 598 0
 1995 0004 4068     		ldr	r0, [r0, #4]
 1996              	.LVL312:
 1997 0006 00E0     		b	.L130
 1998              	.LVL313:
 1999              	.L131:
 2000              	.LBE51:
 593:Source\azure_iot_sdk\c-utility\src/buffer.c ****     }
 2001              		.loc 1 593 0
 2002 0008 0020     		movs	r0, #0
 2003              	.LVL314:
 2004              	.L130:
 599:Source\azure_iot_sdk\c-utility\src/buffer.c ****     }
 600:Source\azure_iot_sdk\c-utility\src/buffer.c ****     return result;
 601:Source\azure_iot_sdk\c-utility\src/buffer.c **** }
 2005              		.loc 1 601 0
 2006              		@ sp needed
 2007 000a 7047     		bx	lr
 2008              		.cfi_endproc
 2009              	.LFE17:
 2010              		.size	BUFFER_length, .-BUFFER_length
 2011              		.section	.text.BUFFER_clone,"ax",%progbits
 2012              		.align	2
 2013              		.global	BUFFER_clone
 2014              		.code	16
 2015              		.thumb_func
 2016              		.type	BUFFER_clone, %function
 2017              	BUFFER_clone:
 2018              	.LFB18:
 602:Source\azure_iot_sdk\c-utility\src/buffer.c **** 
 603:Source\azure_iot_sdk\c-utility\src/buffer.c **** BUFFER_HANDLE BUFFER_clone(BUFFER_HANDLE handle)
 604:Source\azure_iot_sdk\c-utility\src/buffer.c **** {
 2019              		.loc 1 604 0
 2020              		.cfi_startproc
 2021              		@ args = 0, pretend = 0, frame = 0
 2022              		@ frame_needed = 0, uses_anonymous_args = 0
 2023              	.LVL315:
 2024 0000 30B5     		push	{r4, r5, lr}
 2025              		.cfi_def_cfa_offset 12
 2026              		.cfi_offset 4, -12
 2027              		.cfi_offset 5, -8
 2028              		.cfi_offset 14, -4
 2029 0002 83B0     		sub	sp, sp, #12
 2030              		.cfi_def_cfa_offset 24
 2031 0004 051E     		subs	r5, r0, #0
ARM GAS  C:\Users\Phuong\AppData\Local\Temp\ccVRtur0.s 			page 48


 605:Source\azure_iot_sdk\c-utility\src/buffer.c ****     BUFFER_HANDLE result;
 606:Source\azure_iot_sdk\c-utility\src/buffer.c ****     if (handle == NULL)
 2032              		.loc 1 606 0
 2033 0006 24D0     		beq	.L135
 2034              	.LVL316:
 2035              	.LBB52:
 607:Source\azure_iot_sdk\c-utility\src/buffer.c ****     {
 608:Source\azure_iot_sdk\c-utility\src/buffer.c ****         result = NULL;
 609:Source\azure_iot_sdk\c-utility\src/buffer.c ****     }
 610:Source\azure_iot_sdk\c-utility\src/buffer.c ****     else
 611:Source\azure_iot_sdk\c-utility\src/buffer.c ****     {
 612:Source\azure_iot_sdk\c-utility\src/buffer.c ****         BUFFER* suppliedBuff = (BUFFER*)handle;
 613:Source\azure_iot_sdk\c-utility\src/buffer.c ****         BUFFER* b = (BUFFER*)malloc(sizeof(BUFFER));
 2036              		.loc 1 613 0
 2037 0008 0820     		movs	r0, #8
 2038              	.LVL317:
 2039 000a FFF7FEFF 		bl	malloc
 2040              	.LVL318:
 2041 000e 041E     		subs	r4, r0, #0
 2042              	.LVL319:
 614:Source\azure_iot_sdk\c-utility\src/buffer.c ****         if (b != NULL)
 2043              		.loc 1 614 0
 2044 0010 22D0     		beq	.L133
 615:Source\azure_iot_sdk\c-utility\src/buffer.c ****         {
 616:Source\azure_iot_sdk\c-utility\src/buffer.c ****             if (BUFFER_safemalloc(b, suppliedBuff->size) != 0)
 2045              		.loc 1 616 0
 2046 0012 6968     		ldr	r1, [r5, #4]
 2047 0014 FFF7FEFF 		bl	BUFFER_safemalloc
 2048              	.LVL320:
 2049 0018 0028     		cmp	r0, #0
 2050 001a 12D0     		beq	.L134
 617:Source\azure_iot_sdk\c-utility\src/buffer.c ****             {
 618:Source\azure_iot_sdk\c-utility\src/buffer.c ****                 free(b);
 2051              		.loc 1 618 0
 2052 001c 2000     		movs	r0, r4
 2053 001e FFF7FEFF 		bl	free
 2054              	.LVL321:
 2055              	.LBB53:
 619:Source\azure_iot_sdk\c-utility\src/buffer.c ****                 LogError("Failure: allocating temp buffer.");
 2056              		.loc 1 619 0
 2057 0022 FFF7FEFF 		bl	xlogging_get_log_function
 2058              	.LVL322:
 2059 0026 041E     		subs	r4, r0, #0
 2060              	.LVL323:
 2061 0028 15D0     		beq	.L136
 2062              		.loc 1 619 0 is_stmt 0 discriminator 4
 2063 002a 0D4B     		ldr	r3, .L137
 2064 002c 0193     		str	r3, [sp, #4]
 2065 002e 0123     		movs	r3, #1
 2066 0030 0093     		str	r3, [sp]
 2067 0032 0C4B     		ldr	r3, .L137+4
 2068 0034 0C4A     		ldr	r2, .L137+8
 2069 0036 3832     		adds	r2, r2, #56
 2070 0038 0C49     		ldr	r1, .L137+12
 2071 003a 0020     		movs	r0, #0
 2072              	.LVL324:
 2073 003c A047     		blx	r4
ARM GAS  C:\Users\Phuong\AppData\Local\Temp\ccVRtur0.s 			page 49


 2074              	.LVL325:
 2075              	.LBE53:
 620:Source\azure_iot_sdk\c-utility\src/buffer.c ****                 result = NULL;
 2076              		.loc 1 620 0 is_stmt 1 discriminator 4
 2077 003e 0024     		movs	r4, #0
 2078              	.LVL326:
 2079 0040 0AE0     		b	.L133
 2080              	.LVL327:
 2081              	.L134:
 621:Source\azure_iot_sdk\c-utility\src/buffer.c ****             }
 622:Source\azure_iot_sdk\c-utility\src/buffer.c ****             else
 623:Source\azure_iot_sdk\c-utility\src/buffer.c ****             {
 624:Source\azure_iot_sdk\c-utility\src/buffer.c ****                 (void)memcpy(b->buffer, suppliedBuff->buffer, suppliedBuff->size);
 2082              		.loc 1 624 0
 2083 0042 6A68     		ldr	r2, [r5, #4]
 2084 0044 2968     		ldr	r1, [r5]
 2085 0046 2068     		ldr	r0, [r4]
 2086 0048 FFF7FEFF 		bl	memcpy
 2087              	.LVL328:
 625:Source\azure_iot_sdk\c-utility\src/buffer.c ****                 b->size = suppliedBuff->size;
 2088              		.loc 1 625 0
 2089 004c 6B68     		ldr	r3, [r5, #4]
 2090 004e 6360     		str	r3, [r4, #4]
 2091              	.LVL329:
 2092 0050 02E0     		b	.L133
 2093              	.LVL330:
 2094              	.L135:
 2095              	.LBE52:
 608:Source\azure_iot_sdk\c-utility\src/buffer.c ****     }
 2096              		.loc 1 608 0
 2097 0052 0024     		movs	r4, #0
 2098 0054 00E0     		b	.L133
 2099              	.LVL331:
 2100              	.L136:
 2101              	.LBB54:
 620:Source\azure_iot_sdk\c-utility\src/buffer.c ****             }
 2102              		.loc 1 620 0
 2103 0056 0024     		movs	r4, #0
 2104              	.LVL332:
 2105              	.L133:
 2106              	.LBE54:
 626:Source\azure_iot_sdk\c-utility\src/buffer.c ****                 result = (BUFFER_HANDLE)b;
 627:Source\azure_iot_sdk\c-utility\src/buffer.c ****             }
 628:Source\azure_iot_sdk\c-utility\src/buffer.c ****         }
 629:Source\azure_iot_sdk\c-utility\src/buffer.c ****         else
 630:Source\azure_iot_sdk\c-utility\src/buffer.c ****         {
 631:Source\azure_iot_sdk\c-utility\src/buffer.c ****             result = NULL;
 632:Source\azure_iot_sdk\c-utility\src/buffer.c ****         }
 633:Source\azure_iot_sdk\c-utility\src/buffer.c ****     }
 634:Source\azure_iot_sdk\c-utility\src/buffer.c ****     return result;
 635:Source\azure_iot_sdk\c-utility\src/buffer.c **** }
 2107              		.loc 1 635 0
 2108 0058 2000     		movs	r0, r4
 2109 005a 03B0     		add	sp, sp, #12
 2110              		@ sp needed
 2111              	.LVL333:
 2112              	.LVL334:
ARM GAS  C:\Users\Phuong\AppData\Local\Temp\ccVRtur0.s 			page 50


 2113 005c 30BD     		pop	{r4, r5, pc}
 2114              	.L138:
 2115 005e C046     		.align	2
 2116              	.L137:
 2117 0060 D0010000 		.word	.LC40
 2118 0064 6B020000 		.word	619
 2119 0068 80000000 		.word	.LANCHOR1
 2120 006c 00000000 		.word	.LC1
 2121              		.cfi_endproc
 2122              	.LFE18:
 2123              		.size	BUFFER_clone, .-BUFFER_clone
 2124              		.section	.rodata
 2125              		.align	2
 2126              		.set	.LANCHOR0,. + 0
 2127              		.set	.LANCHOR1,. + 128
 2128              		.type	__func__.5898, %object
 2129              		.size	__func__.5898, 18
 2130              	__func__.5898:
 2131 0000 42554646 		.ascii	"BUFFER_safemalloc\000"
 2131      45525F73 
 2131      6166656D 
 2131      616C6C6F 
 2131      6300
 2132 0012 0000     		.space	2
 2133              		.type	__func__.5907, %object
 2134              		.size	__func__.5907, 14
 2135              	__func__.5907:
 2136 0014 42554646 		.ascii	"BUFFER_create\000"
 2136      45525F63 
 2136      72656174 
 2136      6500
 2137 0022 0000     		.space	2
 2138              		.type	__func__.5930, %object
 2139              		.size	__func__.5930, 13
 2140              	__func__.5930:
 2141 0024 42554646 		.ascii	"BUFFER_build\000"
 2141      45525F62 
 2141      75696C64 
 2141      00
 2142 0031 000000   		.space	3
 2143              		.type	__func__.5940, %object
 2144              		.size	__func__.5940, 20
 2145              	__func__.5940:
 2146 0034 42554646 		.ascii	"BUFFER_append_build\000"
 2146      45525F61 
 2146      7070656E 
 2146      645F6275 
 2146      696C6400 
 2147              		.type	__func__.5957, %object
 2148              		.size	__func__.5957, 17
 2149              	__func__.5957:
 2150 0048 42554646 		.ascii	"BUFFER_pre_build\000"
 2150      45525F70 
 2150      72655F62 
 2150      75696C64 
 2150      00
 2151 0059 000000   		.space	3
ARM GAS  C:\Users\Phuong\AppData\Local\Temp\ccVRtur0.s 			page 51


 2152              		.type	__func__.5975, %object
 2153              		.size	__func__.5975, 15
 2154              	__func__.5975:
 2155 005c 42554646 		.ascii	"BUFFER_unbuild\000"
 2155      45525F75 
 2155      6E627569 
 2155      6C6400
 2156 006b 00       		.space	1
 2157              		.type	__func__.5984, %object
 2158              		.size	__func__.5984, 15
 2159              	__func__.5984:
 2160 006c 42554646 		.ascii	"BUFFER_enlarge\000"
 2160      45525F65 
 2160      6E6C6172 
 2160      676500
 2161 007b 00       		.space	1
 2162              		.type	__func__.6002, %object
 2163              		.size	__func__.6002, 14
 2164              	__func__.6002:
 2165 007c 42554646 		.ascii	"BUFFER_shrink\000"
 2165      45525F73 
 2165      6872696E 
 2165      6B00
 2166 008a 0000     		.space	2
 2167              		.type	__func__.6031, %object
 2168              		.size	__func__.6031, 14
 2169              	__func__.6031:
 2170 008c 42554646 		.ascii	"BUFFER_append\000"
 2170      45525F61 
 2170      7070656E 
 2170      6400
 2171 009a 0000     		.space	2
 2172              		.type	__func__.6043, %object
 2173              		.size	__func__.6043, 15
 2174              	__func__.6043:
 2175 009c 42554646 		.ascii	"BUFFER_prepend\000"
 2175      45525F70 
 2175      72657065 
 2175      6E6400
 2176 00ab 00       		.space	1
 2177              		.type	__func__.6052, %object
 2178              		.size	__func__.6052, 12
 2179              	__func__.6052:
 2180 00ac 42554646 		.ascii	"BUFFER_fill\000"
 2180      45525F66 
 2180      696C6C00 
 2181              		.type	__func__.6077, %object
 2182              		.size	__func__.6077, 13
 2183              	__func__.6077:
 2184 00b8 42554646 		.ascii	"BUFFER_clone\000"
 2184      45525F63 
 2184      6C6F6E65 
 2184      00
 2185              		.section	.rodata.str1.4,"aMS",%progbits,1
 2186              		.align	2
 2187              	.LC1:
 2188 0000 536F7572 		.ascii	"Source\\azure_iot_sdk\\c-utility\\src\\buffer.c\000"
ARM GAS  C:\Users\Phuong\AppData\Local\Temp\ccVRtur0.s 			page 52


 2188      63655C61 
 2188      7A757265 
 2188      5F696F74 
 2188      5F73646B 
 2189              	.LC3:
 2190 002c 4661696C 		.ascii	"Failure allocating data\000"
 2190      75726520 
 2190      616C6C6F 
 2190      63617469 
 2190      6E672064 
 2191              	.LC7:
 2192 0044 696E7661 		.ascii	"invalid parameter source: %p\000"
 2192      6C696420 
 2192      70617261 
 2192      6D657465 
 2192      7220736F 
 2193 0061 000000   		.space	3
 2194              	.LC9:
 2195 0064 4661696C 		.ascii	"Failure allocating BUFFER structure\000"
 2195      75726520 
 2195      616C6C6F 
 2195      63617469 
 2195      6E672042 
 2196              	.LC11:
 2197 0088 756E6162 		.ascii	"unable to BUFFER_safemalloc \000"
 2197      6C652074 
 2197      6F204255 
 2197      46464552 
 2197      5F736166 
 2198 00a5 000000   		.space	3
 2199              	.LC15:
 2200 00a8 4661696C 		.ascii	"Failure reallocating buffer\000"
 2200      75726520 
 2200      7265616C 
 2200      6C6F6361 
 2200      74696E67 
 2201              	.LC19:
 2202 00c4 42554646 		.ascii	"BUFFER_append_build failed invalid parameter handle"
 2202      45525F61 
 2202      7070656E 
 2202      645F6275 
 2202      696C6420 
 2203 00f7 3A202570 		.ascii	": %p, source: %p, size: %lu\000"
 2203      2C20736F 
 2203      75726365 
 2203      3A202570 
 2203      2C207369 
 2204 0113 00       		.space	1
 2205              	.LC21:
 2206 0114 4661696C 		.ascii	"Failure with BUFFER_safemalloc\000"
 2206      75726520 
 2206      77697468 
 2206      20425546 
 2206      4645525F 
 2207 0133 00       		.space	1
 2208              	.LC23:
 2209 0134 4661696C 		.ascii	"Failure reallocating temporary buffer\000"
ARM GAS  C:\Users\Phuong\AppData\Local\Temp\ccVRtur0.s 			page 53


 2209      75726520 
 2209      7265616C 
 2209      6C6F6361 
 2209      74696E67 
 2210 015a 0000     		.space	2
 2211              	.LC27:
 2212 015c 4661696C 		.ascii	"Failure buffer data is NULL\000"
 2212      75726520 
 2212      62756666 
 2212      65722064 
 2212      61746120 
 2213              	.LC29:
 2214 0178 4661696C 		.ascii	"Failure allocating buffer\000"
 2214      75726520 
 2214      616C6C6F 
 2214      63617469 
 2214      6E672062 
 2215 0192 0000     		.space	2
 2216              	.LC36:
 2217 0194 4661696C 		.ascii	"Failure: handle is invalid.\000"
 2217      7572653A 
 2217      2068616E 
 2217      646C6520 
 2217      69732069 
 2218              	.LC38:
 2219 01b0 4661696C 		.ascii	"Failure: enlargeSize size is 0.\000"
 2219      7572653A 
 2219      20656E6C 
 2219      61726765 
 2219      53697A65 
 2220              	.LC40:
 2221 01d0 4661696C 		.ascii	"Failure: allocating temp buffer.\000"
 2221      7572653A 
 2221      20616C6C 
 2221      6F636174 
 2221      696E6720 
 2222 01f1 000000   		.space	3
 2223              	.LC45:
 2224 01f4 4661696C 		.ascii	"Failure: decrease size is 0.\000"
 2224      7572653A 
 2224      20646563 
 2224      72656173 
 2224      65207369 
 2225 0211 000000   		.space	3
 2226              	.LC47:
 2227 0214 4661696C 		.ascii	"Failure: decrease size is less than buffer size.\000"
 2227      7572653A 
 2227      20646563 
 2227      72656173 
 2227      65207369 
 2228 0245 000000   		.space	3
 2229              	.LC58:
 2230 0248 496E7661 		.ascii	"Invalid parameter specified, handle == NULL.\000"
 2230      6C696420 
 2230      70617261 
 2230      6D657465 
 2230      72207370 
ARM GAS  C:\Users\Phuong\AppData\Local\Temp\ccVRtur0.s 			page 54


 2231              		.text
 2232              	.Letext0:
 2233              		.file 2 "c:\\program files (x86)\\cypress\\psoc creator\\4.2\\psoc creator\\import\\gnu\\arm\\5.4.
 2234              		.file 3 ".\\Source\\azure_iot_sdk\\c-utility\\inc/azure_c_shared_utility/buffer_.h"
 2235              		.file 4 ".\\Source\\azure_iot_sdk\\c-utility\\inc/azure_c_shared_utility/xlogging.h"
 2236              		.file 5 "c:\\program files (x86)\\cypress\\psoc creator\\4.2\\psoc creator\\import\\gnu\\arm\\5.4.