ARM GAS  C:\Users\Phuong\AppData\Local\Temp\ccZ7UQ35.s 			page 1


   1              		.syntax unified
   2              		.cpu cortex-m0plus
   3              		.fpu softvfp
   4              		.eabi_attribute 20, 1
   5              		.eabi_attribute 21, 1
   6              		.eabi_attribute 23, 3
   7              		.eabi_attribute 24, 1
   8              		.eabi_attribute 25, 1
   9              		.eabi_attribute 26, 1
  10              		.eabi_attribute 30, 1
  11              		.eabi_attribute 34, 0
  12              		.eabi_attribute 18, 4
  13              		.thumb
  14              		.syntax unified
  15              		.file	"camellia.c"
  16              		.text
  17              	.Ltext0:
  18              		.cfi_sections	.debug_frame
  19              		.section	.text.camellia_feistel,"ax",%progbits
  20              		.align	2
  21              		.code	16
  22              		.thumb_func
  23              		.type	camellia_feistel, %function
  24              	camellia_feistel:
  25              	.LFB1:
  26              		.file 1 "Source\\mbedtls_open\\library\\camellia.c"
   1:Source\mbedtls_open\library/camellia.c **** /*
   2:Source\mbedtls_open\library/camellia.c ****  *  Camellia implementation
   3:Source\mbedtls_open\library/camellia.c ****  *
   4:Source\mbedtls_open\library/camellia.c ****  *  Copyright (C) 2006-2015, ARM Limited, All Rights Reserved
   5:Source\mbedtls_open\library/camellia.c ****  *  SPDX-License-Identifier: Apache-2.0
   6:Source\mbedtls_open\library/camellia.c ****  *
   7:Source\mbedtls_open\library/camellia.c ****  *  Licensed under the Apache License, Version 2.0 (the "License"); you may
   8:Source\mbedtls_open\library/camellia.c ****  *  not use this file except in compliance with the License.
   9:Source\mbedtls_open\library/camellia.c ****  *  You may obtain a copy of the License at
  10:Source\mbedtls_open\library/camellia.c ****  *
  11:Source\mbedtls_open\library/camellia.c ****  *  http://www.apache.org/licenses/LICENSE-2.0
  12:Source\mbedtls_open\library/camellia.c ****  *
  13:Source\mbedtls_open\library/camellia.c ****  *  Unless required by applicable law or agreed to in writing, software
  14:Source\mbedtls_open\library/camellia.c ****  *  distributed under the License is distributed on an "AS IS" BASIS, WITHOUT
  15:Source\mbedtls_open\library/camellia.c ****  *  WARRANTIES OR CONDITIONS OF ANY KIND, either express or implied.
  16:Source\mbedtls_open\library/camellia.c ****  *  See the License for the specific language governing permissions and
  17:Source\mbedtls_open\library/camellia.c ****  *  limitations under the License.
  18:Source\mbedtls_open\library/camellia.c ****  *
  19:Source\mbedtls_open\library/camellia.c ****  *  This file is part of mbed TLS (https://tls.mbed.org)
  20:Source\mbedtls_open\library/camellia.c ****  */
  21:Source\mbedtls_open\library/camellia.c **** /*
  22:Source\mbedtls_open\library/camellia.c ****  *  The Camellia block cipher was designed by NTT and Mitsubishi Electric
  23:Source\mbedtls_open\library/camellia.c ****  *  Corporation.
  24:Source\mbedtls_open\library/camellia.c ****  *
  25:Source\mbedtls_open\library/camellia.c ****  *  http://info.isl.ntt.co.jp/crypt/eng/camellia/dl/01espec.pdf
  26:Source\mbedtls_open\library/camellia.c ****  */
  27:Source\mbedtls_open\library/camellia.c **** 
  28:Source\mbedtls_open\library/camellia.c **** #if !defined(MBEDTLS_CONFIG_FILE)
  29:Source\mbedtls_open\library/camellia.c **** #include "mbedtls/config.h"
  30:Source\mbedtls_open\library/camellia.c **** #else
  31:Source\mbedtls_open\library/camellia.c **** #include MBEDTLS_CONFIG_FILE
ARM GAS  C:\Users\Phuong\AppData\Local\Temp\ccZ7UQ35.s 			page 2


  32:Source\mbedtls_open\library/camellia.c **** #endif
  33:Source\mbedtls_open\library/camellia.c **** 
  34:Source\mbedtls_open\library/camellia.c **** #if defined(MBEDTLS_CAMELLIA_C)
  35:Source\mbedtls_open\library/camellia.c **** 
  36:Source\mbedtls_open\library/camellia.c **** #include "mbedtls/camellia.h"
  37:Source\mbedtls_open\library/camellia.c **** #include "mbedtls/platform_util.h"
  38:Source\mbedtls_open\library/camellia.c **** 
  39:Source\mbedtls_open\library/camellia.c **** #include <string.h>
  40:Source\mbedtls_open\library/camellia.c **** 
  41:Source\mbedtls_open\library/camellia.c **** #if defined(MBEDTLS_SELF_TEST)
  42:Source\mbedtls_open\library/camellia.c **** #if defined(MBEDTLS_PLATFORM_C)
  43:Source\mbedtls_open\library/camellia.c **** #include "mbedtls/platform.h"
  44:Source\mbedtls_open\library/camellia.c **** #else
  45:Source\mbedtls_open\library/camellia.c **** #include <stdio.h>
  46:Source\mbedtls_open\library/camellia.c **** #define mbedtls_printf printf
  47:Source\mbedtls_open\library/camellia.c **** #endif /* MBEDTLS_PLATFORM_C */
  48:Source\mbedtls_open\library/camellia.c **** #endif /* MBEDTLS_SELF_TEST */
  49:Source\mbedtls_open\library/camellia.c **** 
  50:Source\mbedtls_open\library/camellia.c **** #if !defined(MBEDTLS_CAMELLIA_ALT)
  51:Source\mbedtls_open\library/camellia.c **** 
  52:Source\mbedtls_open\library/camellia.c **** /*
  53:Source\mbedtls_open\library/camellia.c ****  * 32-bit integer manipulation macros (big endian)
  54:Source\mbedtls_open\library/camellia.c ****  */
  55:Source\mbedtls_open\library/camellia.c **** #ifndef GET_UINT32_BE
  56:Source\mbedtls_open\library/camellia.c **** #define GET_UINT32_BE(n,b,i)                            \
  57:Source\mbedtls_open\library/camellia.c **** {                                                       \
  58:Source\mbedtls_open\library/camellia.c ****     (n) = ( (uint32_t) (b)[(i)    ] << 24 )             \
  59:Source\mbedtls_open\library/camellia.c ****         | ( (uint32_t) (b)[(i) + 1] << 16 )             \
  60:Source\mbedtls_open\library/camellia.c ****         | ( (uint32_t) (b)[(i) + 2] <<  8 )             \
  61:Source\mbedtls_open\library/camellia.c ****         | ( (uint32_t) (b)[(i) + 3]       );            \
  62:Source\mbedtls_open\library/camellia.c **** }
  63:Source\mbedtls_open\library/camellia.c **** #endif
  64:Source\mbedtls_open\library/camellia.c **** 
  65:Source\mbedtls_open\library/camellia.c **** #ifndef PUT_UINT32_BE
  66:Source\mbedtls_open\library/camellia.c **** #define PUT_UINT32_BE(n,b,i)                            \
  67:Source\mbedtls_open\library/camellia.c **** {                                                       \
  68:Source\mbedtls_open\library/camellia.c ****     (b)[(i)    ] = (unsigned char) ( (n) >> 24 );       \
  69:Source\mbedtls_open\library/camellia.c ****     (b)[(i) + 1] = (unsigned char) ( (n) >> 16 );       \
  70:Source\mbedtls_open\library/camellia.c ****     (b)[(i) + 2] = (unsigned char) ( (n) >>  8 );       \
  71:Source\mbedtls_open\library/camellia.c ****     (b)[(i) + 3] = (unsigned char) ( (n)       );       \
  72:Source\mbedtls_open\library/camellia.c **** }
  73:Source\mbedtls_open\library/camellia.c **** #endif
  74:Source\mbedtls_open\library/camellia.c **** 
  75:Source\mbedtls_open\library/camellia.c **** static const unsigned char SIGMA_CHARS[6][8] =
  76:Source\mbedtls_open\library/camellia.c **** {
  77:Source\mbedtls_open\library/camellia.c ****     { 0xa0, 0x9e, 0x66, 0x7f, 0x3b, 0xcc, 0x90, 0x8b },
  78:Source\mbedtls_open\library/camellia.c ****     { 0xb6, 0x7a, 0xe8, 0x58, 0x4c, 0xaa, 0x73, 0xb2 },
  79:Source\mbedtls_open\library/camellia.c ****     { 0xc6, 0xef, 0x37, 0x2f, 0xe9, 0x4f, 0x82, 0xbe },
  80:Source\mbedtls_open\library/camellia.c ****     { 0x54, 0xff, 0x53, 0xa5, 0xf1, 0xd3, 0x6f, 0x1c },
  81:Source\mbedtls_open\library/camellia.c ****     { 0x10, 0xe5, 0x27, 0xfa, 0xde, 0x68, 0x2d, 0x1d },
  82:Source\mbedtls_open\library/camellia.c ****     { 0xb0, 0x56, 0x88, 0xc2, 0xb3, 0xe6, 0xc1, 0xfd }
  83:Source\mbedtls_open\library/camellia.c **** };
  84:Source\mbedtls_open\library/camellia.c **** 
  85:Source\mbedtls_open\library/camellia.c **** #if defined(MBEDTLS_CAMELLIA_SMALL_MEMORY)
  86:Source\mbedtls_open\library/camellia.c **** 
  87:Source\mbedtls_open\library/camellia.c **** static const unsigned char FSb[256] =
  88:Source\mbedtls_open\library/camellia.c **** {
ARM GAS  C:\Users\Phuong\AppData\Local\Temp\ccZ7UQ35.s 			page 3


  89:Source\mbedtls_open\library/camellia.c ****     112,130, 44,236,179, 39,192,229,228,133, 87, 53,234, 12,174, 65,
  90:Source\mbedtls_open\library/camellia.c ****      35,239,107,147, 69, 25,165, 33,237, 14, 79, 78, 29,101,146,189,
  91:Source\mbedtls_open\library/camellia.c ****     134,184,175,143,124,235, 31,206, 62, 48,220, 95, 94,197, 11, 26,
  92:Source\mbedtls_open\library/camellia.c ****     166,225, 57,202,213, 71, 93, 61,217,  1, 90,214, 81, 86,108, 77,
  93:Source\mbedtls_open\library/camellia.c ****     139, 13,154,102,251,204,176, 45,116, 18, 43, 32,240,177,132,153,
  94:Source\mbedtls_open\library/camellia.c ****     223, 76,203,194, 52,126,118,  5,109,183,169, 49,209, 23,  4,215,
  95:Source\mbedtls_open\library/camellia.c ****      20, 88, 58, 97,222, 27, 17, 28, 50, 15,156, 22, 83, 24,242, 34,
  96:Source\mbedtls_open\library/camellia.c ****     254, 68,207,178,195,181,122,145, 36,  8,232,168, 96,252,105, 80,
  97:Source\mbedtls_open\library/camellia.c ****     170,208,160,125,161,137, 98,151, 84, 91, 30,149,224,255,100,210,
  98:Source\mbedtls_open\library/camellia.c ****      16,196,  0, 72,163,247,117,219,138,  3,230,218,  9, 63,221,148,
  99:Source\mbedtls_open\library/camellia.c ****     135, 92,131,  2,205, 74,144, 51,115,103,246,243,157,127,191,226,
 100:Source\mbedtls_open\library/camellia.c ****      82,155,216, 38,200, 55,198, 59,129,150,111, 75, 19,190, 99, 46,
 101:Source\mbedtls_open\library/camellia.c ****     233,121,167,140,159,110,188,142, 41,245,249,182, 47,253,180, 89,
 102:Source\mbedtls_open\library/camellia.c ****     120,152,  6,106,231, 70,113,186,212, 37,171, 66,136,162,141,250,
 103:Source\mbedtls_open\library/camellia.c ****     114,  7,185, 85,248,238,172, 10, 54, 73, 42,104, 60, 56,241,164,
 104:Source\mbedtls_open\library/camellia.c ****      64, 40,211,123,187,201, 67,193, 21,227,173,244,119,199,128,158
 105:Source\mbedtls_open\library/camellia.c **** };
 106:Source\mbedtls_open\library/camellia.c **** 
 107:Source\mbedtls_open\library/camellia.c **** #define SBOX1(n) FSb[(n)]
 108:Source\mbedtls_open\library/camellia.c **** #define SBOX2(n) (unsigned char)((FSb[(n)] >> 7 ^ FSb[(n)] << 1) & 0xff)
 109:Source\mbedtls_open\library/camellia.c **** #define SBOX3(n) (unsigned char)((FSb[(n)] >> 1 ^ FSb[(n)] << 7) & 0xff)
 110:Source\mbedtls_open\library/camellia.c **** #define SBOX4(n) FSb[((n) << 1 ^ (n) >> 7) &0xff]
 111:Source\mbedtls_open\library/camellia.c **** 
 112:Source\mbedtls_open\library/camellia.c **** #else /* MBEDTLS_CAMELLIA_SMALL_MEMORY */
 113:Source\mbedtls_open\library/camellia.c **** 
 114:Source\mbedtls_open\library/camellia.c **** static const unsigned char FSb[256] =
 115:Source\mbedtls_open\library/camellia.c **** {
 116:Source\mbedtls_open\library/camellia.c ****  112, 130,  44, 236, 179,  39, 192, 229, 228, 133,  87,  53, 234,  12, 174,  65,
 117:Source\mbedtls_open\library/camellia.c ****   35, 239, 107, 147,  69,  25, 165,  33, 237,  14,  79,  78,  29, 101, 146, 189,
 118:Source\mbedtls_open\library/camellia.c ****  134, 184, 175, 143, 124, 235,  31, 206,  62,  48, 220,  95,  94, 197,  11,  26,
 119:Source\mbedtls_open\library/camellia.c ****  166, 225,  57, 202, 213,  71,  93,  61, 217,   1,  90, 214,  81,  86, 108,  77,
 120:Source\mbedtls_open\library/camellia.c ****  139,  13, 154, 102, 251, 204, 176,  45, 116,  18,  43,  32, 240, 177, 132, 153,
 121:Source\mbedtls_open\library/camellia.c ****  223,  76, 203, 194,  52, 126, 118,   5, 109, 183, 169,  49, 209,  23,   4, 215,
 122:Source\mbedtls_open\library/camellia.c ****   20,  88,  58,  97, 222,  27,  17,  28,  50,  15, 156,  22,  83,  24, 242,  34,
 123:Source\mbedtls_open\library/camellia.c ****  254,  68, 207, 178, 195, 181, 122, 145,  36,   8, 232, 168,  96, 252, 105,  80,
 124:Source\mbedtls_open\library/camellia.c ****  170, 208, 160, 125, 161, 137,  98, 151,  84,  91,  30, 149, 224, 255, 100, 210,
 125:Source\mbedtls_open\library/camellia.c ****   16, 196,   0,  72, 163, 247, 117, 219, 138,   3, 230, 218,   9,  63, 221, 148,
 126:Source\mbedtls_open\library/camellia.c ****  135,  92, 131,   2, 205,  74, 144,  51, 115, 103, 246, 243, 157, 127, 191, 226,
 127:Source\mbedtls_open\library/camellia.c ****   82, 155, 216,  38, 200,  55, 198,  59, 129, 150, 111,  75,  19, 190,  99,  46,
 128:Source\mbedtls_open\library/camellia.c ****  233, 121, 167, 140, 159, 110, 188, 142,  41, 245, 249, 182,  47, 253, 180,  89,
 129:Source\mbedtls_open\library/camellia.c ****  120, 152,   6, 106, 231,  70, 113, 186, 212,  37, 171,  66, 136, 162, 141, 250,
 130:Source\mbedtls_open\library/camellia.c ****  114,   7, 185,  85, 248, 238, 172,  10,  54,  73,  42, 104,  60,  56, 241, 164,
 131:Source\mbedtls_open\library/camellia.c ****  64,  40, 211, 123, 187, 201,  67, 193,  21, 227, 173, 244, 119, 199, 128, 158
 132:Source\mbedtls_open\library/camellia.c **** };
 133:Source\mbedtls_open\library/camellia.c **** 
 134:Source\mbedtls_open\library/camellia.c **** static const unsigned char FSb2[256] =
 135:Source\mbedtls_open\library/camellia.c **** {
 136:Source\mbedtls_open\library/camellia.c ****  224,   5,  88, 217, 103,  78, 129, 203, 201,  11, 174, 106, 213,  24,  93, 130,
 137:Source\mbedtls_open\library/camellia.c ****   70, 223, 214,  39, 138,  50,  75,  66, 219,  28, 158, 156,  58, 202,  37, 123,
 138:Source\mbedtls_open\library/camellia.c ****   13, 113,  95,  31, 248, 215,  62, 157, 124,  96, 185, 190, 188, 139,  22,  52,
 139:Source\mbedtls_open\library/camellia.c ****   77, 195, 114, 149, 171, 142, 186, 122, 179,   2, 180, 173, 162, 172, 216, 154,
 140:Source\mbedtls_open\library/camellia.c ****   23,  26,  53, 204, 247, 153,  97,  90, 232,  36,  86,  64, 225,  99,   9,  51,
 141:Source\mbedtls_open\library/camellia.c ****  191, 152, 151, 133, 104, 252, 236,  10, 218, 111,  83,  98, 163,  46,   8, 175,
 142:Source\mbedtls_open\library/camellia.c ****   40, 176, 116, 194, 189,  54,  34,  56, 100,  30,  57,  44, 166,  48, 229,  68,
 143:Source\mbedtls_open\library/camellia.c ****  253, 136, 159, 101, 135, 107, 244,  35,  72,  16, 209,  81, 192, 249, 210, 160,
 144:Source\mbedtls_open\library/camellia.c ****   85, 161,  65, 250,  67,  19, 196,  47, 168, 182,  60,  43, 193, 255, 200, 165,
 145:Source\mbedtls_open\library/camellia.c ****   32, 137,   0, 144,  71, 239, 234, 183,  21,   6, 205, 181,  18, 126, 187,  41,
ARM GAS  C:\Users\Phuong\AppData\Local\Temp\ccZ7UQ35.s 			page 4


 146:Source\mbedtls_open\library/camellia.c ****   15, 184,   7,   4, 155, 148,  33, 102, 230, 206, 237, 231,  59, 254, 127, 197,
 147:Source\mbedtls_open\library/camellia.c ****  164,  55, 177,  76, 145, 110, 141, 118,   3,  45, 222, 150,  38, 125, 198,  92,
 148:Source\mbedtls_open\library/camellia.c ****  211, 242,  79,  25,  63, 220, 121,  29,  82, 235, 243, 109,  94, 251, 105, 178,
 149:Source\mbedtls_open\library/camellia.c ****  240,  49,  12, 212, 207, 140, 226, 117, 169,  74,  87, 132,  17,  69,  27, 245,
 150:Source\mbedtls_open\library/camellia.c ****  228,  14, 115, 170, 241, 221,  89,  20, 108, 146,  84, 208, 120, 112, 227,  73,
 151:Source\mbedtls_open\library/camellia.c ****  128,  80, 167, 246, 119, 147, 134, 131,  42, 199,  91, 233, 238, 143,   1,  61
 152:Source\mbedtls_open\library/camellia.c **** };
 153:Source\mbedtls_open\library/camellia.c **** 
 154:Source\mbedtls_open\library/camellia.c **** static const unsigned char FSb3[256] =
 155:Source\mbedtls_open\library/camellia.c **** {
 156:Source\mbedtls_open\library/camellia.c ****   56,  65,  22, 118, 217, 147,  96, 242, 114, 194, 171, 154, 117,   6,  87, 160,
 157:Source\mbedtls_open\library/camellia.c ****  145, 247, 181, 201, 162, 140, 210, 144, 246,   7, 167,  39, 142, 178,  73, 222,
 158:Source\mbedtls_open\library/camellia.c ****   67,  92, 215, 199,  62, 245, 143, 103,  31,  24, 110, 175,  47, 226, 133,  13,
 159:Source\mbedtls_open\library/camellia.c ****   83, 240, 156, 101, 234, 163, 174, 158, 236, 128,  45, 107, 168,  43,  54, 166,
 160:Source\mbedtls_open\library/camellia.c ****  197, 134,  77,  51, 253, 102,  88, 150,  58,   9, 149,  16, 120, 216,  66, 204,
 161:Source\mbedtls_open\library/camellia.c ****  239,  38, 229,  97,  26,  63,  59, 130, 182, 219, 212, 152, 232, 139,   2, 235,
 162:Source\mbedtls_open\library/camellia.c ****   10,  44,  29, 176, 111, 141, 136,  14,  25, 135,  78,  11, 169,  12, 121,  17,
 163:Source\mbedtls_open\library/camellia.c ****  127,  34, 231,  89, 225, 218,  61, 200,  18,   4, 116,  84,  48, 126, 180,  40,
 164:Source\mbedtls_open\library/camellia.c ****   85, 104,  80, 190, 208, 196,  49, 203,  42, 173,  15, 202, 112, 255,  50, 105,
 165:Source\mbedtls_open\library/camellia.c ****    8,  98,   0,  36, 209, 251, 186, 237,  69, 129, 115, 109, 132, 159, 238,  74,
 166:Source\mbedtls_open\library/camellia.c ****  195,  46, 193,   1, 230,  37,  72, 153, 185, 179, 123, 249, 206, 191, 223, 113,
 167:Source\mbedtls_open\library/camellia.c ****   41, 205, 108,  19, 100, 155,  99, 157, 192,  75, 183, 165, 137,  95, 177,  23,
 168:Source\mbedtls_open\library/camellia.c ****  244, 188, 211,  70, 207,  55,  94,  71, 148, 250, 252,  91, 151, 254,  90, 172,
 169:Source\mbedtls_open\library/camellia.c ****   60,  76,   3,  53, 243,  35, 184,  93, 106, 146, 213,  33,  68,  81, 198, 125,
 170:Source\mbedtls_open\library/camellia.c ****   57, 131, 220, 170, 124, 119,  86,   5,  27, 164,  21,  52,  30,  28, 248,  82,
 171:Source\mbedtls_open\library/camellia.c ****   32,  20, 233, 189, 221, 228, 161, 224, 138, 241, 214, 122, 187, 227,  64,  79
 172:Source\mbedtls_open\library/camellia.c **** };
 173:Source\mbedtls_open\library/camellia.c **** 
 174:Source\mbedtls_open\library/camellia.c **** static const unsigned char FSb4[256] =
 175:Source\mbedtls_open\library/camellia.c **** {
 176:Source\mbedtls_open\library/camellia.c ****  112,  44, 179, 192, 228,  87, 234, 174,  35, 107,  69, 165, 237,  79,  29, 146,
 177:Source\mbedtls_open\library/camellia.c ****  134, 175, 124,  31,  62, 220,  94,  11, 166,  57, 213,  93, 217,  90,  81, 108,
 178:Source\mbedtls_open\library/camellia.c ****  139, 154, 251, 176, 116,  43, 240, 132, 223, 203,  52, 118, 109, 169, 209,   4,
 179:Source\mbedtls_open\library/camellia.c ****   20,  58, 222,  17,  50, 156,  83, 242, 254, 207, 195, 122,  36, 232,  96, 105,
 180:Source\mbedtls_open\library/camellia.c ****  170, 160, 161,  98,  84,  30, 224, 100,  16,   0, 163, 117, 138, 230,   9, 221,
 181:Source\mbedtls_open\library/camellia.c ****  135, 131, 205, 144, 115, 246, 157, 191,  82, 216, 200, 198, 129, 111,  19,  99,
 182:Source\mbedtls_open\library/camellia.c ****  233, 167, 159, 188,  41, 249,  47, 180, 120,   6, 231, 113, 212, 171, 136, 141,
 183:Source\mbedtls_open\library/camellia.c ****  114, 185, 248, 172,  54,  42,  60, 241,  64, 211, 187,  67,  21, 173, 119, 128,
 184:Source\mbedtls_open\library/camellia.c ****  130, 236,  39, 229, 133,  53,  12,  65, 239, 147,  25,  33,  14,  78, 101, 189,
 185:Source\mbedtls_open\library/camellia.c ****  184, 143, 235, 206,  48,  95, 197,  26, 225, 202,  71,  61,   1, 214,  86,  77,
 186:Source\mbedtls_open\library/camellia.c ****   13, 102, 204,  45,  18,  32, 177, 153,  76, 194, 126,   5, 183,  49,  23, 215,
 187:Source\mbedtls_open\library/camellia.c ****   88,  97,  27,  28,  15,  22,  24,  34,  68, 178, 181, 145,   8, 168, 252,  80,
 188:Source\mbedtls_open\library/camellia.c ****  208, 125, 137, 151,  91, 149, 255, 210, 196,  72, 247, 219,   3, 218,  63, 148,
 189:Source\mbedtls_open\library/camellia.c ****   92,   2,  74,  51, 103, 243, 127, 226, 155,  38,  55,  59, 150,  75, 190,  46,
 190:Source\mbedtls_open\library/camellia.c ****  121, 140, 110, 142, 245, 182, 253,  89, 152, 106,  70, 186,  37,  66, 162, 250,
 191:Source\mbedtls_open\library/camellia.c ****   7,  85, 238,  10,  73, 104,  56, 164,  40, 123, 201, 193, 227, 244, 199, 158
 192:Source\mbedtls_open\library/camellia.c **** };
 193:Source\mbedtls_open\library/camellia.c **** 
 194:Source\mbedtls_open\library/camellia.c **** #define SBOX1(n) FSb[(n)]
 195:Source\mbedtls_open\library/camellia.c **** #define SBOX2(n) FSb2[(n)]
 196:Source\mbedtls_open\library/camellia.c **** #define SBOX3(n) FSb3[(n)]
 197:Source\mbedtls_open\library/camellia.c **** #define SBOX4(n) FSb4[(n)]
 198:Source\mbedtls_open\library/camellia.c **** 
 199:Source\mbedtls_open\library/camellia.c **** #endif /* MBEDTLS_CAMELLIA_SMALL_MEMORY */
 200:Source\mbedtls_open\library/camellia.c **** 
 201:Source\mbedtls_open\library/camellia.c **** static const unsigned char shifts[2][4][4] =
 202:Source\mbedtls_open\library/camellia.c **** {
ARM GAS  C:\Users\Phuong\AppData\Local\Temp\ccZ7UQ35.s 			page 5


 203:Source\mbedtls_open\library/camellia.c ****     {
 204:Source\mbedtls_open\library/camellia.c ****         { 1, 1, 1, 1 }, /* KL */
 205:Source\mbedtls_open\library/camellia.c ****         { 0, 0, 0, 0 }, /* KR */
 206:Source\mbedtls_open\library/camellia.c ****         { 1, 1, 1, 1 }, /* KA */
 207:Source\mbedtls_open\library/camellia.c ****         { 0, 0, 0, 0 }  /* KB */
 208:Source\mbedtls_open\library/camellia.c ****     },
 209:Source\mbedtls_open\library/camellia.c ****     {
 210:Source\mbedtls_open\library/camellia.c ****         { 1, 0, 1, 1 }, /* KL */
 211:Source\mbedtls_open\library/camellia.c ****         { 1, 1, 0, 1 }, /* KR */
 212:Source\mbedtls_open\library/camellia.c ****         { 1, 1, 1, 0 }, /* KA */
 213:Source\mbedtls_open\library/camellia.c ****         { 1, 1, 0, 1 }  /* KB */
 214:Source\mbedtls_open\library/camellia.c ****     }
 215:Source\mbedtls_open\library/camellia.c **** };
 216:Source\mbedtls_open\library/camellia.c **** 
 217:Source\mbedtls_open\library/camellia.c **** static const signed char indexes[2][4][20] =
 218:Source\mbedtls_open\library/camellia.c **** {
 219:Source\mbedtls_open\library/camellia.c ****     {
 220:Source\mbedtls_open\library/camellia.c ****         {  0,  1,  2,  3,  8,  9, 10, 11, 38, 39,
 221:Source\mbedtls_open\library/camellia.c ****           36, 37, 23, 20, 21, 22, 27, -1, -1, 26 }, /* KL -> RK */
 222:Source\mbedtls_open\library/camellia.c ****         { -1, -1, -1, -1, -1, -1, -1, -1, -1, -1,
 223:Source\mbedtls_open\library/camellia.c ****           -1, -1, -1, -1, -1, -1, -1, -1, -1, -1 }, /* KR -> RK */
 224:Source\mbedtls_open\library/camellia.c ****         {  4,  5,  6,  7, 12, 13, 14, 15, 16, 17,
 225:Source\mbedtls_open\library/camellia.c ****           18, 19, -1, 24, 25, -1, 31, 28, 29, 30 }, /* KA -> RK */
 226:Source\mbedtls_open\library/camellia.c ****         { -1, -1, -1, -1, -1, -1, -1, -1, -1, -1,
 227:Source\mbedtls_open\library/camellia.c ****           -1, -1, -1, -1, -1, -1, -1, -1, -1, -1 }  /* KB -> RK */
 228:Source\mbedtls_open\library/camellia.c ****     },
 229:Source\mbedtls_open\library/camellia.c ****     {
 230:Source\mbedtls_open\library/camellia.c ****         {  0,  1,  2,  3, 61, 62, 63, 60, -1, -1,
 231:Source\mbedtls_open\library/camellia.c ****           -1, -1, 27, 24, 25, 26, 35, 32, 33, 34 }, /* KL -> RK */
 232:Source\mbedtls_open\library/camellia.c ****         { -1, -1, -1, -1,  8,  9, 10, 11, 16, 17,
 233:Source\mbedtls_open\library/camellia.c ****           18, 19, -1, -1, -1, -1, 39, 36, 37, 38 }, /* KR -> RK */
 234:Source\mbedtls_open\library/camellia.c ****         { -1, -1, -1, -1, 12, 13, 14, 15, 58, 59,
 235:Source\mbedtls_open\library/camellia.c ****           56, 57, 31, 28, 29, 30, -1, -1, -1, -1 }, /* KA -> RK */
 236:Source\mbedtls_open\library/camellia.c ****         {  4,  5,  6,  7, 65, 66, 67, 64, 20, 21,
 237:Source\mbedtls_open\library/camellia.c ****           22, 23, -1, -1, -1, -1, 43, 40, 41, 42 }  /* KB -> RK */
 238:Source\mbedtls_open\library/camellia.c ****     }
 239:Source\mbedtls_open\library/camellia.c **** };
 240:Source\mbedtls_open\library/camellia.c **** 
 241:Source\mbedtls_open\library/camellia.c **** static const signed char transposes[2][20] =
 242:Source\mbedtls_open\library/camellia.c **** {
 243:Source\mbedtls_open\library/camellia.c ****     {
 244:Source\mbedtls_open\library/camellia.c ****         21, 22, 23, 20,
 245:Source\mbedtls_open\library/camellia.c ****         -1, -1, -1, -1,
 246:Source\mbedtls_open\library/camellia.c ****         18, 19, 16, 17,
 247:Source\mbedtls_open\library/camellia.c ****         11,  8,  9, 10,
 248:Source\mbedtls_open\library/camellia.c ****         15, 12, 13, 14
 249:Source\mbedtls_open\library/camellia.c ****     },
 250:Source\mbedtls_open\library/camellia.c ****     {
 251:Source\mbedtls_open\library/camellia.c ****         25, 26, 27, 24,
 252:Source\mbedtls_open\library/camellia.c ****         29, 30, 31, 28,
 253:Source\mbedtls_open\library/camellia.c ****         18, 19, 16, 17,
 254:Source\mbedtls_open\library/camellia.c ****         -1, -1, -1, -1,
 255:Source\mbedtls_open\library/camellia.c ****         -1, -1, -1, -1
 256:Source\mbedtls_open\library/camellia.c ****     }
 257:Source\mbedtls_open\library/camellia.c **** };
 258:Source\mbedtls_open\library/camellia.c **** 
 259:Source\mbedtls_open\library/camellia.c **** /* Shift macro for 128 bit strings with rotation smaller than 32 bits (!) */
ARM GAS  C:\Users\Phuong\AppData\Local\Temp\ccZ7UQ35.s 			page 6


 260:Source\mbedtls_open\library/camellia.c **** #define ROTL(DEST, SRC, SHIFT)                                      \
 261:Source\mbedtls_open\library/camellia.c **** {                                                                   \
 262:Source\mbedtls_open\library/camellia.c ****     (DEST)[0] = (SRC)[0] << (SHIFT) ^ (SRC)[1] >> (32 - (SHIFT));   \
 263:Source\mbedtls_open\library/camellia.c ****     (DEST)[1] = (SRC)[1] << (SHIFT) ^ (SRC)[2] >> (32 - (SHIFT));   \
 264:Source\mbedtls_open\library/camellia.c ****     (DEST)[2] = (SRC)[2] << (SHIFT) ^ (SRC)[3] >> (32 - (SHIFT));   \
 265:Source\mbedtls_open\library/camellia.c ****     (DEST)[3] = (SRC)[3] << (SHIFT) ^ (SRC)[0] >> (32 - (SHIFT));   \
 266:Source\mbedtls_open\library/camellia.c **** }
 267:Source\mbedtls_open\library/camellia.c **** 
 268:Source\mbedtls_open\library/camellia.c **** #define FL(XL, XR, KL, KR)                                          \
 269:Source\mbedtls_open\library/camellia.c **** {                                                                   \
 270:Source\mbedtls_open\library/camellia.c ****     (XR) = ((((XL) & (KL)) << 1) | (((XL) & (KL)) >> 31)) ^ (XR);   \
 271:Source\mbedtls_open\library/camellia.c ****     (XL) = ((XR) | (KR)) ^ (XL);                                    \
 272:Source\mbedtls_open\library/camellia.c **** }
 273:Source\mbedtls_open\library/camellia.c **** 
 274:Source\mbedtls_open\library/camellia.c **** #define FLInv(YL, YR, KL, KR)                                       \
 275:Source\mbedtls_open\library/camellia.c **** {                                                                   \
 276:Source\mbedtls_open\library/camellia.c ****     (YL) = ((YR) | (KR)) ^ (YL);                                    \
 277:Source\mbedtls_open\library/camellia.c ****     (YR) = ((((YL) & (KL)) << 1) | (((YL) & (KL)) >> 31)) ^ (YR);   \
 278:Source\mbedtls_open\library/camellia.c **** }
 279:Source\mbedtls_open\library/camellia.c **** 
 280:Source\mbedtls_open\library/camellia.c **** #define SHIFT_AND_PLACE(INDEX, OFFSET)                      \
 281:Source\mbedtls_open\library/camellia.c **** {                                                           \
 282:Source\mbedtls_open\library/camellia.c ****     TK[0] = KC[(OFFSET) * 4 + 0];                           \
 283:Source\mbedtls_open\library/camellia.c ****     TK[1] = KC[(OFFSET) * 4 + 1];                           \
 284:Source\mbedtls_open\library/camellia.c ****     TK[2] = KC[(OFFSET) * 4 + 2];                           \
 285:Source\mbedtls_open\library/camellia.c ****     TK[3] = KC[(OFFSET) * 4 + 3];                           \
 286:Source\mbedtls_open\library/camellia.c ****                                                             \
 287:Source\mbedtls_open\library/camellia.c ****     for( i = 1; i <= 4; i++ )                               \
 288:Source\mbedtls_open\library/camellia.c ****         if( shifts[(INDEX)][(OFFSET)][i -1] )               \
 289:Source\mbedtls_open\library/camellia.c ****             ROTL(TK + i * 4, TK, ( 15 * i ) % 32);          \
 290:Source\mbedtls_open\library/camellia.c ****                                                             \
 291:Source\mbedtls_open\library/camellia.c ****     for( i = 0; i < 20; i++ )                               \
 292:Source\mbedtls_open\library/camellia.c ****         if( indexes[(INDEX)][(OFFSET)][i] != -1 ) {         \
 293:Source\mbedtls_open\library/camellia.c ****             RK[indexes[(INDEX)][(OFFSET)][i]] = TK[ i ];    \
 294:Source\mbedtls_open\library/camellia.c ****         }                                                   \
 295:Source\mbedtls_open\library/camellia.c **** }
 296:Source\mbedtls_open\library/camellia.c **** 
 297:Source\mbedtls_open\library/camellia.c **** static void camellia_feistel( const uint32_t x[2], const uint32_t k[2],
 298:Source\mbedtls_open\library/camellia.c ****                               uint32_t z[2])
 299:Source\mbedtls_open\library/camellia.c **** {
  27              		.loc 1 299 0
  28              		.cfi_startproc
  29              		@ args = 0, pretend = 0, frame = 0
  30              		@ frame_needed = 0, uses_anonymous_args = 0
  31              	.LVL0:
  32 0000 F0B5     		push	{r4, r5, r6, r7, lr}
  33              		.cfi_def_cfa_offset 20
  34              		.cfi_offset 4, -20
  35              		.cfi_offset 5, -16
  36              		.cfi_offset 6, -12
  37              		.cfi_offset 7, -8
  38              		.cfi_offset 14, -4
  39 0002 4746     		mov	r7, r8
  40 0004 80B4     		push	{r7}
  41              		.cfi_def_cfa_offset 24
  42              		.cfi_offset 8, -24
 300:Source\mbedtls_open\library/camellia.c ****     uint32_t I0, I1;
ARM GAS  C:\Users\Phuong\AppData\Local\Temp\ccZ7UQ35.s 			page 7


 301:Source\mbedtls_open\library/camellia.c ****     I0 = x[0] ^ k[0];
  43              		.loc 1 301 0
  44 0006 0468     		ldr	r4, [r0]
  45 0008 0B68     		ldr	r3, [r1]
  46 000a 5C40     		eors	r4, r3
  47              	.LVL1:
 302:Source\mbedtls_open\library/camellia.c ****     I1 = x[1] ^ k[1];
  48              		.loc 1 302 0
  49 000c 4068     		ldr	r0, [r0, #4]
  50              	.LVL2:
  51 000e 4B68     		ldr	r3, [r1, #4]
  52 0010 4340     		eors	r3, r0
  53              	.LVL3:
 303:Source\mbedtls_open\library/camellia.c **** 
 304:Source\mbedtls_open\library/camellia.c ****     I0 = ((uint32_t) SBOX1((I0 >> 24) & 0xFF) << 24) |
  54              		.loc 1 304 0
  55 0012 210E     		lsrs	r1, r4, #24
  56              	.LVL4:
  57 0014 224D     		ldr	r5, .L2
  58 0016 685C     		ldrb	r0, [r5, r1]
  59 0018 0606     		lsls	r6, r0, #24
 305:Source\mbedtls_open\library/camellia.c ****          ((uint32_t) SBOX2((I0 >> 16) & 0xFF) << 16) |
  60              		.loc 1 305 0
  61 001a 200C     		lsrs	r0, r4, #16
  62 001c FF21     		movs	r1, #255
  63 001e 0840     		ands	r0, r1
  64 0020 204F     		ldr	r7, .L2+4
  65 0022 385C     		ldrb	r0, [r7, r0]
  66 0024 0004     		lsls	r0, r0, #16
 304:Source\mbedtls_open\library/camellia.c ****          ((uint32_t) SBOX2((I0 >> 16) & 0xFF) << 16) |
  67              		.loc 1 304 0
  68 0026 3043     		orrs	r0, r6
  69 0028 8046     		mov	r8, r0
 306:Source\mbedtls_open\library/camellia.c ****          ((uint32_t) SBOX3((I0 >>  8) & 0xFF) <<  8) |
  70              		.loc 1 306 0
  71 002a 260A     		lsrs	r6, r4, #8
  72 002c 0E40     		ands	r6, r1
  73 002e 1E48     		ldr	r0, .L2+8
  74 0030 8446     		mov	ip, r0
  75 0032 865D     		ldrb	r6, [r0, r6]
  76 0034 3602     		lsls	r6, r6, #8
 305:Source\mbedtls_open\library/camellia.c ****          ((uint32_t) SBOX2((I0 >> 16) & 0xFF) << 16) |
  77              		.loc 1 305 0
  78 0036 4046     		mov	r0, r8
  79 0038 3043     		orrs	r0, r6
 307:Source\mbedtls_open\library/camellia.c ****          ((uint32_t) SBOX4((I0      ) & 0xFF)      );
  80              		.loc 1 307 0
  81 003a 0C40     		ands	r4, r1
  82              	.LVL5:
  83 003c 1B4E     		ldr	r6, .L2+12
  84 003e B046     		mov	r8, r6
  85 0040 365D     		ldrb	r6, [r6, r4]
 304:Source\mbedtls_open\library/camellia.c ****          ((uint32_t) SBOX2((I0 >> 16) & 0xFF) << 16) |
  86              		.loc 1 304 0
  87 0042 0643     		orrs	r6, r0
  88              	.LVL6:
 308:Source\mbedtls_open\library/camellia.c ****     I1 = ((uint32_t) SBOX2((I1 >> 24) & 0xFF) << 24) |
ARM GAS  C:\Users\Phuong\AppData\Local\Temp\ccZ7UQ35.s 			page 8


  89              		.loc 1 308 0
  90 0044 180E     		lsrs	r0, r3, #24
  91 0046 385C     		ldrb	r0, [r7, r0]
  92 0048 0406     		lsls	r4, r0, #24
 309:Source\mbedtls_open\library/camellia.c ****          ((uint32_t) SBOX3((I1 >> 16) & 0xFF) << 16) |
  93              		.loc 1 309 0
  94 004a 180C     		lsrs	r0, r3, #16
  95 004c 0840     		ands	r0, r1
  96 004e 6746     		mov	r7, ip
  97 0050 385C     		ldrb	r0, [r7, r0]
  98 0052 0004     		lsls	r0, r0, #16
 308:Source\mbedtls_open\library/camellia.c ****     I1 = ((uint32_t) SBOX2((I1 >> 24) & 0xFF) << 24) |
  99              		.loc 1 308 0
 100 0054 2043     		orrs	r0, r4
 310:Source\mbedtls_open\library/camellia.c ****          ((uint32_t) SBOX4((I1 >>  8) & 0xFF) <<  8) |
 101              		.loc 1 310 0
 102 0056 1C0A     		lsrs	r4, r3, #8
 103 0058 0C40     		ands	r4, r1
 104 005a 4746     		mov	r7, r8
 105 005c 3C5D     		ldrb	r4, [r7, r4]
 106 005e 2402     		lsls	r4, r4, #8
 309:Source\mbedtls_open\library/camellia.c ****          ((uint32_t) SBOX3((I1 >> 16) & 0xFF) << 16) |
 107              		.loc 1 309 0
 108 0060 2043     		orrs	r0, r4
 311:Source\mbedtls_open\library/camellia.c ****          ((uint32_t) SBOX1((I1      ) & 0xFF)      );
 109              		.loc 1 311 0
 110 0062 0B40     		ands	r3, r1
 111              	.LVL7:
 112 0064 E95C     		ldrb	r1, [r5, r3]
 308:Source\mbedtls_open\library/camellia.c ****          ((uint32_t) SBOX3((I1 >> 16) & 0xFF) << 16) |
 113              		.loc 1 308 0
 114 0066 0143     		orrs	r1, r0
 115              	.LVL8:
 312:Source\mbedtls_open\library/camellia.c **** 
 313:Source\mbedtls_open\library/camellia.c ****     I0 ^= (I1 << 8) | (I1 >> 24);
 116              		.loc 1 313 0
 117 0068 1823     		movs	r3, #24
 118 006a 0800     		movs	r0, r1
 119 006c D841     		rors	r0, r0, r3
 120 006e 0300     		movs	r3, r0
 121 0070 7340     		eors	r3, r6
 122              	.LVL9:
 314:Source\mbedtls_open\library/camellia.c ****     I1 ^= (I0 << 16) | (I0 >> 16);
 123              		.loc 1 314 0
 124 0072 1020     		movs	r0, #16
 125 0074 1D00     		movs	r5, r3
 126 0076 C541     		rors	r5, r5, r0
 127 0078 6940     		eors	r1, r5
 128              	.LVL10:
 129 007a 0C00     		movs	r4, r1
 130              	.LVL11:
 315:Source\mbedtls_open\library/camellia.c ****     I0 ^= (I1 >> 8) | (I1 << 24);
 131              		.loc 1 315 0
 132 007c 0838     		subs	r0, r0, #8
 133 007e C141     		rors	r1, r1, r0
 134              	.LVL12:
 135 0080 4B40     		eors	r3, r1
ARM GAS  C:\Users\Phuong\AppData\Local\Temp\ccZ7UQ35.s 			page 9


 136              	.LVL13:
 316:Source\mbedtls_open\library/camellia.c ****     I1 ^= (I0 >> 8) | (I0 << 24);
 137              		.loc 1 316 0
 138 0082 1900     		movs	r1, r3
 139 0084 C141     		rors	r1, r1, r0
 140 0086 0800     		movs	r0, r1
 141 0088 2100     		movs	r1, r4
 142 008a 4140     		eors	r1, r0
 143              	.LVL14:
 317:Source\mbedtls_open\library/camellia.c **** 
 318:Source\mbedtls_open\library/camellia.c ****     z[0] ^= I1;
 144              		.loc 1 318 0
 145 008c 1068     		ldr	r0, [r2]
 146 008e 4140     		eors	r1, r0
 147              	.LVL15:
 148 0090 1160     		str	r1, [r2]
 319:Source\mbedtls_open\library/camellia.c ****     z[1] ^= I0;
 149              		.loc 1 319 0
 150 0092 5168     		ldr	r1, [r2, #4]
 151 0094 4B40     		eors	r3, r1
 152              	.LVL16:
 153 0096 5360     		str	r3, [r2, #4]
 320:Source\mbedtls_open\library/camellia.c **** }
 154              		.loc 1 320 0
 155              		@ sp needed
 156 0098 04BC     		pop	{r2}
 157 009a 9046     		mov	r8, r2
 158 009c F0BD     		pop	{r4, r5, r6, r7, pc}
 159              	.L3:
 160 009e C046     		.align	2
 161              	.L2:
 162 00a0 00000000 		.word	.LANCHOR0
 163 00a4 00010000 		.word	.LANCHOR1
 164 00a8 00020000 		.word	.LANCHOR2
 165 00ac 00030000 		.word	.LANCHOR3
 166              		.cfi_endproc
 167              	.LFE1:
 168              		.size	camellia_feistel, .-camellia_feistel
 169              		.section	.text.mbedtls_camellia_init,"ax",%progbits
 170              		.align	2
 171              		.global	mbedtls_camellia_init
 172              		.code	16
 173              		.thumb_func
 174              		.type	mbedtls_camellia_init, %function
 175              	mbedtls_camellia_init:
 176              	.LFB2:
 321:Source\mbedtls_open\library/camellia.c **** 
 322:Source\mbedtls_open\library/camellia.c **** void mbedtls_camellia_init( mbedtls_camellia_context *ctx )
 323:Source\mbedtls_open\library/camellia.c **** {
 177              		.loc 1 323 0
 178              		.cfi_startproc
 179              		@ args = 0, pretend = 0, frame = 0
 180              		@ frame_needed = 0, uses_anonymous_args = 0
 181              	.LVL17:
 182 0000 10B5     		push	{r4, lr}
 183              		.cfi_def_cfa_offset 8
 184              		.cfi_offset 4, -8
ARM GAS  C:\Users\Phuong\AppData\Local\Temp\ccZ7UQ35.s 			page 10


 185              		.cfi_offset 14, -4
 324:Source\mbedtls_open\library/camellia.c ****     memset( ctx, 0, sizeof( mbedtls_camellia_context ) );
 186              		.loc 1 324 0
 187 0002 8A22     		movs	r2, #138
 188 0004 5200     		lsls	r2, r2, #1
 189 0006 0021     		movs	r1, #0
 190 0008 FFF7FEFF 		bl	memset
 191              	.LVL18:
 325:Source\mbedtls_open\library/camellia.c **** }
 192              		.loc 1 325 0
 193              		@ sp needed
 194 000c 10BD     		pop	{r4, pc}
 195              		.cfi_endproc
 196              	.LFE2:
 197              		.size	mbedtls_camellia_init, .-mbedtls_camellia_init
 198 000e C046     		.section	.text.mbedtls_camellia_free,"ax",%progbits
 199              		.align	2
 200              		.global	mbedtls_camellia_free
 201              		.code	16
 202              		.thumb_func
 203              		.type	mbedtls_camellia_free, %function
 204              	mbedtls_camellia_free:
 205              	.LFB3:
 326:Source\mbedtls_open\library/camellia.c **** 
 327:Source\mbedtls_open\library/camellia.c **** void mbedtls_camellia_free( mbedtls_camellia_context *ctx )
 328:Source\mbedtls_open\library/camellia.c **** {
 206              		.loc 1 328 0
 207              		.cfi_startproc
 208              		@ args = 0, pretend = 0, frame = 0
 209              		@ frame_needed = 0, uses_anonymous_args = 0
 210              	.LVL19:
 211 0000 10B5     		push	{r4, lr}
 212              		.cfi_def_cfa_offset 8
 213              		.cfi_offset 4, -8
 214              		.cfi_offset 14, -4
 329:Source\mbedtls_open\library/camellia.c ****     if( ctx == NULL )
 215              		.loc 1 329 0
 216 0002 0028     		cmp	r0, #0
 217 0004 03D0     		beq	.L5
 330:Source\mbedtls_open\library/camellia.c ****         return;
 331:Source\mbedtls_open\library/camellia.c **** 
 332:Source\mbedtls_open\library/camellia.c ****     mbedtls_platform_zeroize( ctx, sizeof( mbedtls_camellia_context ) );
 218              		.loc 1 332 0
 219 0006 8A21     		movs	r1, #138
 220 0008 4900     		lsls	r1, r1, #1
 221 000a FFF7FEFF 		bl	mbedtls_platform_zeroize
 222              	.LVL20:
 223              	.L5:
 333:Source\mbedtls_open\library/camellia.c **** }
 224              		.loc 1 333 0
 225              		@ sp needed
 226 000e 10BD     		pop	{r4, pc}
 227              		.cfi_endproc
 228              	.LFE3:
 229              		.size	mbedtls_camellia_free, .-mbedtls_camellia_free
 230              		.section	.text.mbedtls_camellia_setkey_enc,"ax",%progbits
 231              		.align	2
ARM GAS  C:\Users\Phuong\AppData\Local\Temp\ccZ7UQ35.s 			page 11


 232              		.global	mbedtls_camellia_setkey_enc
 233              		.code	16
 234              		.thumb_func
 235              		.type	mbedtls_camellia_setkey_enc, %function
 236              	mbedtls_camellia_setkey_enc:
 237              	.LFB4:
 334:Source\mbedtls_open\library/camellia.c **** 
 335:Source\mbedtls_open\library/camellia.c **** /*
 336:Source\mbedtls_open\library/camellia.c ****  * Camellia key schedule (encryption)
 337:Source\mbedtls_open\library/camellia.c ****  */
 338:Source\mbedtls_open\library/camellia.c **** int mbedtls_camellia_setkey_enc( mbedtls_camellia_context *ctx, const unsigned char *key,
 339:Source\mbedtls_open\library/camellia.c ****                          unsigned int keybits )
 340:Source\mbedtls_open\library/camellia.c **** {
 238              		.loc 1 340 0
 239              		.cfi_startproc
 240              		@ args = 0, pretend = 0, frame = 264
 241              		@ frame_needed = 0, uses_anonymous_args = 0
 242              	.LVL21:
 243 0000 F0B5     		push	{r4, r5, r6, r7, lr}
 244              		.cfi_def_cfa_offset 20
 245              		.cfi_offset 4, -20
 246              		.cfi_offset 5, -16
 247              		.cfi_offset 6, -12
 248              		.cfi_offset 7, -8
 249              		.cfi_offset 14, -4
 250 0002 5746     		mov	r7, r10
 251 0004 4E46     		mov	r6, r9
 252 0006 4546     		mov	r5, r8
 253 0008 E0B4     		push	{r5, r6, r7}
 254              		.cfi_def_cfa_offset 32
 255              		.cfi_offset 8, -32
 256              		.cfi_offset 9, -28
 257              		.cfi_offset 10, -24
 258 000a C2B0     		sub	sp, sp, #264
 259              		.cfi_def_cfa_offset 296
 260 000c 0400     		movs	r4, r0
 261 000e 0F00     		movs	r7, r1
 262 0010 1600     		movs	r6, r2
 341:Source\mbedtls_open\library/camellia.c ****     int idx;
 342:Source\mbedtls_open\library/camellia.c ****     size_t i;
 343:Source\mbedtls_open\library/camellia.c ****     uint32_t *RK;
 344:Source\mbedtls_open\library/camellia.c ****     unsigned char t[64];
 345:Source\mbedtls_open\library/camellia.c ****     uint32_t SIGMA[6][2];
 346:Source\mbedtls_open\library/camellia.c ****     uint32_t KC[16];
 347:Source\mbedtls_open\library/camellia.c ****     uint32_t TK[20];
 348:Source\mbedtls_open\library/camellia.c **** 
 349:Source\mbedtls_open\library/camellia.c ****     RK = ctx->rk;
 263              		.loc 1 349 0
 264 0012 051D     		adds	r5, r0, #4
 265              	.LVL22:
 350:Source\mbedtls_open\library/camellia.c **** 
 351:Source\mbedtls_open\library/camellia.c ****     memset( t, 0, 64 );
 266              		.loc 1 351 0
 267 0014 4022     		movs	r2, #64
 268              	.LVL23:
 269 0016 0021     		movs	r1, #0
 270              	.LVL24:
ARM GAS  C:\Users\Phuong\AppData\Local\Temp\ccZ7UQ35.s 			page 12


 271 0018 32A8     		add	r0, sp, #200
 272              	.LVL25:
 273 001a FFF7FEFF 		bl	memset
 274              	.LVL26:
 352:Source\mbedtls_open\library/camellia.c ****     memset( RK, 0, sizeof(ctx->rk) );
 275              		.loc 1 352 0
 276 001e 8822     		movs	r2, #136
 277 0020 5200     		lsls	r2, r2, #1
 278 0022 0021     		movs	r1, #0
 279 0024 2800     		movs	r0, r5
 280 0026 FFF7FEFF 		bl	memset
 281              	.LVL27:
 353:Source\mbedtls_open\library/camellia.c **** 
 354:Source\mbedtls_open\library/camellia.c ****     switch( keybits )
 282              		.loc 1 354 0
 283 002a C02E     		cmp	r6, #192
 284 002c 0AD0     		beq	.L9
 285 002e 8023     		movs	r3, #128
 286 0030 5B00     		lsls	r3, r3, #1
 287 0032 9E42     		cmp	r6, r3
 288 0034 06D0     		beq	.L9
 289 0036 802E     		cmp	r6, #128
 290 0038 00D0     		beq	.LCB228
 291 003a 70E2     		b	.L60	@long jump
 292              	.LCB228:
 355:Source\mbedtls_open\library/camellia.c ****     {
 356:Source\mbedtls_open\library/camellia.c ****         case 128: ctx->nr = 3; idx = 0; break;
 293              		.loc 1 356 0
 294 003c FD3B     		subs	r3, r3, #253
 295 003e 2360     		str	r3, [r4]
 296              	.LVL28:
 297 0040 0024     		movs	r4, #0
 298              	.LVL29:
 299 0042 02E0     		b	.L11
 300              	.LVL30:
 301              	.L9:
 357:Source\mbedtls_open\library/camellia.c ****         case 192:
 358:Source\mbedtls_open\library/camellia.c ****         case 256: ctx->nr = 4; idx = 1; break;
 302              		.loc 1 358 0
 303 0044 0423     		movs	r3, #4
 304 0046 2360     		str	r3, [r4]
 305              	.LVL31:
 306 0048 0124     		movs	r4, #1
 307              	.LVL32:
 308              	.L11:
 359:Source\mbedtls_open\library/camellia.c ****         default : return( MBEDTLS_ERR_CAMELLIA_INVALID_KEY_LENGTH );
 360:Source\mbedtls_open\library/camellia.c ****     }
 361:Source\mbedtls_open\library/camellia.c **** 
 362:Source\mbedtls_open\library/camellia.c ****     for( i = 0; i < keybits / 8; ++i )
 309              		.loc 1 362 0
 310 004a 0023     		movs	r3, #0
 311 004c 03E0     		b	.L12
 312              	.LVL33:
 313              	.L13:
 363:Source\mbedtls_open\library/camellia.c ****         t[i] = key[i];
 314              		.loc 1 363 0 discriminator 3
 315 004e F95C     		ldrb	r1, [r7, r3]
ARM GAS  C:\Users\Phuong\AppData\Local\Temp\ccZ7UQ35.s 			page 13


 316 0050 32AA     		add	r2, sp, #200
 317 0052 D154     		strb	r1, [r2, r3]
 362:Source\mbedtls_open\library/camellia.c ****         t[i] = key[i];
 318              		.loc 1 362 0 discriminator 3
 319 0054 0133     		adds	r3, r3, #1
 320              	.LVL34:
 321              	.L12:
 362:Source\mbedtls_open\library/camellia.c ****         t[i] = key[i];
 322              		.loc 1 362 0 is_stmt 0 discriminator 1
 323 0056 F208     		lsrs	r2, r6, #3
 324 0058 9342     		cmp	r3, r2
 325 005a F8D3     		bcc	.L13
 364:Source\mbedtls_open\library/camellia.c **** 
 365:Source\mbedtls_open\library/camellia.c ****     if( keybits == 192 ) {
 326              		.loc 1 365 0 is_stmt 1
 327 005c C02E     		cmp	r6, #192
 328 005e 0DD1     		bne	.L15
 329 0060 09E0     		b	.L58
 330              	.L16:
 366:Source\mbedtls_open\library/camellia.c ****         for( i = 0; i < 8; i++ )
 367:Source\mbedtls_open\library/camellia.c ****             t[24 + i] = ~t[16 + i];
 331              		.loc 1 367 0 discriminator 3
 332 0062 1800     		movs	r0, r3
 333 0064 1830     		adds	r0, r0, #24
 334 0066 1A00     		movs	r2, r3
 335 0068 1032     		adds	r2, r2, #16
 336 006a 32A9     		add	r1, sp, #200
 337 006c 8A5C     		ldrb	r2, [r1, r2]
 338 006e D243     		mvns	r2, r2
 339 0070 0A54     		strb	r2, [r1, r0]
 366:Source\mbedtls_open\library/camellia.c ****         for( i = 0; i < 8; i++ )
 340              		.loc 1 366 0 discriminator 3
 341 0072 0133     		adds	r3, r3, #1
 342              	.LVL35:
 343 0074 00E0     		b	.L14
 344              	.L58:
 345 0076 0023     		movs	r3, #0
 346              	.LVL36:
 347              	.L14:
 366:Source\mbedtls_open\library/camellia.c ****         for( i = 0; i < 8; i++ )
 348              		.loc 1 366 0 is_stmt 0 discriminator 1
 349 0078 072B     		cmp	r3, #7
 350 007a F2D9     		bls	.L16
 351              	.L15:
 352 007c 0027     		movs	r7, #0
 353              	.LVL37:
 354 007e 1CE0     		b	.L17
 355              	.LVL38:
 356              	.L18:
 368:Source\mbedtls_open\library/camellia.c ****     }
 369:Source\mbedtls_open\library/camellia.c **** 
 370:Source\mbedtls_open\library/camellia.c ****     /*
 371:Source\mbedtls_open\library/camellia.c ****      * Prepare SIGMA values
 372:Source\mbedtls_open\library/camellia.c ****      */
 373:Source\mbedtls_open\library/camellia.c ****     for( i = 0; i < 6; i++ ) {
 374:Source\mbedtls_open\library/camellia.c ****         GET_UINT32_BE( SIGMA[i][0], SIGMA_CHARS[i], 0 );
 357              		.loc 1 374 0 is_stmt 1 discriminator 3
ARM GAS  C:\Users\Phuong\AppData\Local\Temp\ccZ7UQ35.s 			page 14


 358 0080 DE4B     		ldr	r3, .L61
 359 0082 FA00     		lsls	r2, r7, #3
 360 0084 D15C     		ldrb	r1, [r2, r3]
 361 0086 0806     		lsls	r0, r1, #24
 362 0088 9B18     		adds	r3, r3, r2
 363 008a 5978     		ldrb	r1, [r3, #1]
 364 008c 0904     		lsls	r1, r1, #16
 365 008e 0143     		orrs	r1, r0
 366 0090 9878     		ldrb	r0, [r3, #2]
 367 0092 0002     		lsls	r0, r0, #8
 368 0094 0143     		orrs	r1, r0
 369 0096 D878     		ldrb	r0, [r3, #3]
 370 0098 0143     		orrs	r1, r0
 371 009a 26A8     		add	r0, sp, #152
 372 009c 8446     		mov	ip, r0
 373 009e 1150     		str	r1, [r2, r0]
 375:Source\mbedtls_open\library/camellia.c ****         GET_UINT32_BE( SIGMA[i][1], SIGMA_CHARS[i], 4 );
 374              		.loc 1 375 0 discriminator 3
 375 00a0 1979     		ldrb	r1, [r3, #4]
 376 00a2 0806     		lsls	r0, r1, #24
 377 00a4 5979     		ldrb	r1, [r3, #5]
 378 00a6 0904     		lsls	r1, r1, #16
 379 00a8 0143     		orrs	r1, r0
 380 00aa 9879     		ldrb	r0, [r3, #6]
 381 00ac 0002     		lsls	r0, r0, #8
 382 00ae 0143     		orrs	r1, r0
 383 00b0 DB79     		ldrb	r3, [r3, #7]
 384 00b2 1943     		orrs	r1, r3
 385 00b4 6244     		add	r2, r2, ip
 386 00b6 5160     		str	r1, [r2, #4]
 373:Source\mbedtls_open\library/camellia.c ****         GET_UINT32_BE( SIGMA[i][0], SIGMA_CHARS[i], 0 );
 387              		.loc 1 373 0 discriminator 3
 388 00b8 0137     		adds	r7, r7, #1
 389              	.LVL39:
 390              	.L17:
 373:Source\mbedtls_open\library/camellia.c ****         GET_UINT32_BE( SIGMA[i][0], SIGMA_CHARS[i], 0 );
 391              		.loc 1 373 0 is_stmt 0 discriminator 1
 392 00ba 052F     		cmp	r7, #5
 393 00bc E0D9     		bls	.L18
 376:Source\mbedtls_open\library/camellia.c ****     }
 377:Source\mbedtls_open\library/camellia.c **** 
 378:Source\mbedtls_open\library/camellia.c ****     /*
 379:Source\mbedtls_open\library/camellia.c ****      * Key storage in KC
 380:Source\mbedtls_open\library/camellia.c ****      * Order: KL, KR, KA, KB
 381:Source\mbedtls_open\library/camellia.c ****      */
 382:Source\mbedtls_open\library/camellia.c ****     memset( KC, 0, sizeof(KC) );
 394              		.loc 1 382 0 is_stmt 1
 395 00be 4022     		movs	r2, #64
 396 00c0 0021     		movs	r1, #0
 397 00c2 16A8     		add	r0, sp, #88
 398 00c4 FFF7FEFF 		bl	memset
 399              	.LVL40:
 383:Source\mbedtls_open\library/camellia.c **** 
 384:Source\mbedtls_open\library/camellia.c ****     /* Store KL, KR */
 385:Source\mbedtls_open\library/camellia.c ****     for( i = 0; i < 8; i++ )
 400              		.loc 1 385 0
 401 00c8 0027     		movs	r7, #0
ARM GAS  C:\Users\Phuong\AppData\Local\Temp\ccZ7UQ35.s 			page 15


 402 00ca 11E0     		b	.L19
 403              	.LVL41:
 404              	.L20:
 386:Source\mbedtls_open\library/camellia.c ****         GET_UINT32_BE( KC[i], t, i * 4 );
 405              		.loc 1 386 0 discriminator 3
 406 00cc BB00     		lsls	r3, r7, #2
 407 00ce 32A8     		add	r0, sp, #200
 408 00d0 C25C     		ldrb	r2, [r0, r3]
 409 00d2 1106     		lsls	r1, r2, #24
 410 00d4 5A1C     		adds	r2, r3, #1
 411 00d6 825C     		ldrb	r2, [r0, r2]
 412 00d8 1204     		lsls	r2, r2, #16
 413 00da 0A43     		orrs	r2, r1
 414 00dc 991C     		adds	r1, r3, #2
 415 00de 415C     		ldrb	r1, [r0, r1]
 416 00e0 0902     		lsls	r1, r1, #8
 417 00e2 0A43     		orrs	r2, r1
 418 00e4 D91C     		adds	r1, r3, #3
 419 00e6 415C     		ldrb	r1, [r0, r1]
 420 00e8 0A43     		orrs	r2, r1
 421 00ea 16A9     		add	r1, sp, #88
 422 00ec 5A50     		str	r2, [r3, r1]
 385:Source\mbedtls_open\library/camellia.c ****         GET_UINT32_BE( KC[i], t, i * 4 );
 423              		.loc 1 385 0 discriminator 3
 424 00ee 0137     		adds	r7, r7, #1
 425              	.LVL42:
 426              	.L19:
 385:Source\mbedtls_open\library/camellia.c ****         GET_UINT32_BE( KC[i], t, i * 4 );
 427              		.loc 1 385 0 is_stmt 0 discriminator 1
 428 00f0 072F     		cmp	r7, #7
 429 00f2 EBD9     		bls	.L20
 430 00f4 0023     		movs	r3, #0
 431 00f6 0DE0     		b	.L21
 432              	.LVL43:
 433              	.L22:
 387:Source\mbedtls_open\library/camellia.c **** 
 388:Source\mbedtls_open\library/camellia.c ****     /* Generate KA */
 389:Source\mbedtls_open\library/camellia.c ****     for( i = 0; i < 4; ++i )
 390:Source\mbedtls_open\library/camellia.c ****         KC[8 + i] = KC[i] ^ KC[4 + i];
 434              		.loc 1 390 0 is_stmt 1 discriminator 3
 435 00f8 1900     		movs	r1, r3
 436 00fa 0831     		adds	r1, r1, #8
 437 00fc 16AA     		add	r2, sp, #88
 438 00fe 9800     		lsls	r0, r3, #2
 439 0100 8058     		ldr	r0, [r0, r2]
 440 0102 8446     		mov	ip, r0
 441 0104 1F1D     		adds	r7, r3, #4
 442 0106 BF00     		lsls	r7, r7, #2
 443 0108 B858     		ldr	r0, [r7, r2]
 444 010a 6746     		mov	r7, ip
 445 010c 7840     		eors	r0, r7
 446 010e 8900     		lsls	r1, r1, #2
 447 0110 8850     		str	r0, [r1, r2]
 389:Source\mbedtls_open\library/camellia.c ****         KC[8 + i] = KC[i] ^ KC[4 + i];
 448              		.loc 1 389 0 discriminator 3
 449 0112 0133     		adds	r3, r3, #1
 450              	.LVL44:
ARM GAS  C:\Users\Phuong\AppData\Local\Temp\ccZ7UQ35.s 			page 16


 451              	.L21:
 389:Source\mbedtls_open\library/camellia.c ****         KC[8 + i] = KC[i] ^ KC[4 + i];
 452              		.loc 1 389 0 is_stmt 0 discriminator 1
 453 0114 032B     		cmp	r3, #3
 454 0116 EFD9     		bls	.L22
 391:Source\mbedtls_open\library/camellia.c **** 
 392:Source\mbedtls_open\library/camellia.c ****     camellia_feistel( KC + 8, SIGMA[0], KC + 10 );
 455              		.loc 1 392 0 is_stmt 1
 456 0118 20AA     		add	r2, sp, #128
 457 011a 26A9     		add	r1, sp, #152
 458 011c 1EA8     		add	r0, sp, #120
 459 011e FFF7FEFF 		bl	camellia_feistel
 460              	.LVL45:
 393:Source\mbedtls_open\library/camellia.c ****     camellia_feistel( KC + 10, SIGMA[1], KC + 8 );
 461              		.loc 1 393 0
 462 0122 1EAA     		add	r2, sp, #120
 463 0124 28A9     		add	r1, sp, #160
 464 0126 20A8     		add	r0, sp, #128
 465 0128 FFF7FEFF 		bl	camellia_feistel
 466              	.LVL46:
 394:Source\mbedtls_open\library/camellia.c **** 
 395:Source\mbedtls_open\library/camellia.c ****     for( i = 0; i < 4; ++i )
 467              		.loc 1 395 0
 468 012c 0023     		movs	r3, #0
 469 012e 09E0     		b	.L23
 470              	.LVL47:
 471              	.L24:
 396:Source\mbedtls_open\library/camellia.c ****         KC[8 + i] ^= KC[i];
 472              		.loc 1 396 0 discriminator 3
 473 0130 1A00     		movs	r2, r3
 474 0132 0832     		adds	r2, r2, #8
 475 0134 16A9     		add	r1, sp, #88
 476 0136 9800     		lsls	r0, r3, #2
 477 0138 4058     		ldr	r0, [r0, r1]
 478 013a 9200     		lsls	r2, r2, #2
 479 013c 5758     		ldr	r7, [r2, r1]
 480 013e 7840     		eors	r0, r7
 481 0140 5050     		str	r0, [r2, r1]
 395:Source\mbedtls_open\library/camellia.c ****         KC[8 + i] ^= KC[i];
 482              		.loc 1 395 0 discriminator 3
 483 0142 0133     		adds	r3, r3, #1
 484              	.LVL48:
 485              	.L23:
 395:Source\mbedtls_open\library/camellia.c ****         KC[8 + i] ^= KC[i];
 486              		.loc 1 395 0 is_stmt 0 discriminator 1
 487 0144 032B     		cmp	r3, #3
 488 0146 F3D9     		bls	.L24
 397:Source\mbedtls_open\library/camellia.c **** 
 398:Source\mbedtls_open\library/camellia.c ****     camellia_feistel( KC + 8, SIGMA[2], KC + 10 );
 489              		.loc 1 398 0 is_stmt 1
 490 0148 20AA     		add	r2, sp, #128
 491 014a 2AA9     		add	r1, sp, #168
 492 014c 1EA8     		add	r0, sp, #120
 493 014e FFF7FEFF 		bl	camellia_feistel
 494              	.LVL49:
 399:Source\mbedtls_open\library/camellia.c ****     camellia_feistel( KC + 10, SIGMA[3], KC + 8 );
 495              		.loc 1 399 0
ARM GAS  C:\Users\Phuong\AppData\Local\Temp\ccZ7UQ35.s 			page 17


 496 0152 1EAA     		add	r2, sp, #120
 497 0154 2CA9     		add	r1, sp, #176
 498 0156 20A8     		add	r0, sp, #128
 499 0158 FFF7FEFF 		bl	camellia_feistel
 500              	.LVL50:
 400:Source\mbedtls_open\library/camellia.c **** 
 401:Source\mbedtls_open\library/camellia.c ****     if( keybits > 128 ) {
 501              		.loc 1 401 0
 502 015c 802E     		cmp	r6, #128
 503 015e 11D8     		bhi	.L59
 504 0160 1DE0     		b	.L26
 505              	.LVL51:
 506              	.L27:
 402:Source\mbedtls_open\library/camellia.c ****         /* Generate KB */
 403:Source\mbedtls_open\library/camellia.c ****         for( i = 0; i < 4; ++i )
 404:Source\mbedtls_open\library/camellia.c ****             KC[12 + i] = KC[4 + i] ^ KC[8 + i];
 507              		.loc 1 404 0 discriminator 3
 508 0162 1900     		movs	r1, r3
 509 0164 0C31     		adds	r1, r1, #12
 510 0166 181D     		adds	r0, r3, #4
 511 0168 16AA     		add	r2, sp, #88
 512 016a 8000     		lsls	r0, r0, #2
 513 016c 8058     		ldr	r0, [r0, r2]
 514 016e 8446     		mov	ip, r0
 515 0170 1F00     		movs	r7, r3
 516 0172 0837     		adds	r7, r7, #8
 517 0174 BF00     		lsls	r7, r7, #2
 518 0176 B858     		ldr	r0, [r7, r2]
 519 0178 6746     		mov	r7, ip
 520 017a 7840     		eors	r0, r7
 521 017c 8900     		lsls	r1, r1, #2
 522 017e 8850     		str	r0, [r1, r2]
 403:Source\mbedtls_open\library/camellia.c ****             KC[12 + i] = KC[4 + i] ^ KC[8 + i];
 523              		.loc 1 403 0 discriminator 3
 524 0180 0133     		adds	r3, r3, #1
 525              	.LVL52:
 526 0182 00E0     		b	.L25
 527              	.LVL53:
 528              	.L59:
 529 0184 0023     		movs	r3, #0
 530              	.L25:
 531              	.LVL54:
 403:Source\mbedtls_open\library/camellia.c ****             KC[12 + i] = KC[4 + i] ^ KC[8 + i];
 532              		.loc 1 403 0 is_stmt 0 discriminator 1
 533 0186 032B     		cmp	r3, #3
 534 0188 EBD9     		bls	.L27
 405:Source\mbedtls_open\library/camellia.c **** 
 406:Source\mbedtls_open\library/camellia.c ****         camellia_feistel( KC + 12, SIGMA[4], KC + 14 );
 535              		.loc 1 406 0 is_stmt 1
 536 018a 24AA     		add	r2, sp, #144
 537 018c 2EA9     		add	r1, sp, #184
 538 018e 22A8     		add	r0, sp, #136
 539 0190 FFF7FEFF 		bl	camellia_feistel
 540              	.LVL55:
 407:Source\mbedtls_open\library/camellia.c ****         camellia_feistel( KC + 14, SIGMA[5], KC + 12 );
 541              		.loc 1 407 0
 542 0194 22AA     		add	r2, sp, #136
ARM GAS  C:\Users\Phuong\AppData\Local\Temp\ccZ7UQ35.s 			page 18


 543 0196 30A9     		add	r1, sp, #192
 544 0198 24A8     		add	r0, sp, #144
 545 019a FFF7FEFF 		bl	camellia_feistel
 546              	.LVL56:
 547              	.L26:
 408:Source\mbedtls_open\library/camellia.c ****     }
 409:Source\mbedtls_open\library/camellia.c **** 
 410:Source\mbedtls_open\library/camellia.c ****     /*
 411:Source\mbedtls_open\library/camellia.c ****      * Generating subkeys
 412:Source\mbedtls_open\library/camellia.c ****      */
 413:Source\mbedtls_open\library/camellia.c **** 
 414:Source\mbedtls_open\library/camellia.c ****     /* Manipulating KL */
 415:Source\mbedtls_open\library/camellia.c ****     SHIFT_AND_PLACE( idx, 0 );
 548              		.loc 1 415 0
 549 019e 169B     		ldr	r3, [sp, #88]
 550 01a0 0293     		str	r3, [sp, #8]
 551 01a2 179B     		ldr	r3, [sp, #92]
 552 01a4 0393     		str	r3, [sp, #12]
 553 01a6 189B     		ldr	r3, [sp, #96]
 554 01a8 0493     		str	r3, [sp, #16]
 555 01aa 199B     		ldr	r3, [sp, #100]
 556 01ac 0193     		str	r3, [sp, #4]
 557 01ae 0593     		str	r3, [sp, #20]
 558              	.LVL57:
 559 01b0 0121     		movs	r1, #1
 560 01b2 48E0     		b	.L28
 561              	.LVL58:
 562              	.L30:
 563              		.loc 1 415 0 is_stmt 0 discriminator 6
 564 01b4 4B1E     		subs	r3, r1, #1
 565 01b6 2201     		lsls	r2, r4, #4
 566 01b8 9048     		ldr	r0, .L61
 567 01ba 8218     		adds	r2, r0, r2
 568 01bc D318     		adds	r3, r2, r3
 569 01be 3022     		movs	r2, #48
 570 01c0 9B5C     		ldrb	r3, [r3, r2]
 571 01c2 002B     		cmp	r3, #0
 572 01c4 3ED0     		beq	.L29
 573              		.loc 1 415 0 discriminator 2
 574 01c6 0B01     		lsls	r3, r1, #4
 575 01c8 9946     		mov	r9, r3
 576 01ca 5A1A     		subs	r2, r3, r1
 577 01cc 1F20     		movs	r0, #31
 578 01ce 0240     		ands	r2, r0
 579 01d0 0298     		ldr	r0, [sp, #8]
 580 01d2 9040     		lsls	r0, r0, r2
 581 01d4 8446     		mov	ip, r0
 582 01d6 0398     		ldr	r0, [sp, #12]
 583 01d8 0190     		str	r0, [sp, #4]
 584 01da 2020     		movs	r0, #32
 585 01dc 831A     		subs	r3, r0, r2
 586 01de 9A46     		mov	r10, r3
 587 01e0 019F     		ldr	r7, [sp, #4]
 588 01e2 DF40     		lsrs	r7, r7, r3
 589 01e4 6046     		mov	r0, ip
 590 01e6 4740     		eors	r7, r0
 591 01e8 02A8     		add	r0, sp, #8
ARM GAS  C:\Users\Phuong\AppData\Local\Temp\ccZ7UQ35.s 			page 19


 592 01ea 4B46     		mov	r3, r9
 593 01ec C750     		str	r7, [r0, r3]
 594 01ee 181D     		adds	r0, r3, #4
 595 01f0 8046     		mov	r8, r0
 596 01f2 0398     		ldr	r0, [sp, #12]
 597 01f4 0700     		movs	r7, r0
 598 01f6 9740     		lsls	r7, r7, r2
 599 01f8 BC46     		mov	ip, r7
 600 01fa 0498     		ldr	r0, [sp, #16]
 601 01fc 0700     		movs	r7, r0
 602 01fe 5346     		mov	r3, r10
 603 0200 DF40     		lsrs	r7, r7, r3
 604 0202 6046     		mov	r0, ip
 605 0204 4740     		eors	r7, r0
 606 0206 02A8     		add	r0, sp, #8
 607 0208 4346     		mov	r3, r8
 608 020a C750     		str	r7, [r0, r3]
 609 020c 0823     		movs	r3, #8
 610 020e 9846     		mov	r8, r3
 611 0210 C844     		add	r8, r8, r9
 612 0212 049B     		ldr	r3, [sp, #16]
 613 0214 1F00     		movs	r7, r3
 614 0216 9740     		lsls	r7, r7, r2
 615 0218 BC46     		mov	ip, r7
 616 021a 059B     		ldr	r3, [sp, #20]
 617 021c 0193     		str	r3, [sp, #4]
 618 021e 1F00     		movs	r7, r3
 619 0220 5346     		mov	r3, r10
 620 0222 DF40     		lsrs	r7, r7, r3
 621 0224 6346     		mov	r3, ip
 622 0226 5F40     		eors	r7, r3
 623 0228 0300     		movs	r3, r0
 624 022a 4046     		mov	r0, r8
 625 022c 1F50     		str	r7, [r3, r0]
 626 022e 4B46     		mov	r3, r9
 627 0230 0C33     		adds	r3, r3, #12
 628 0232 059F     		ldr	r7, [sp, #20]
 629 0234 9740     		lsls	r7, r7, r2
 630 0236 3A00     		movs	r2, r7
 631 0238 029F     		ldr	r7, [sp, #8]
 632 023a 5046     		mov	r0, r10
 633 023c C740     		lsrs	r7, r7, r0
 634 023e 7A40     		eors	r2, r7
 635 0240 02A8     		add	r0, sp, #8
 636 0242 C250     		str	r2, [r0, r3]
 637              	.L29:
 638              		.loc 1 415 0 discriminator 4
 639 0244 0131     		adds	r1, r1, #1
 640              	.LVL59:
 641              	.L28:
 642              		.loc 1 415 0 discriminator 5
 643 0246 0429     		cmp	r1, #4
 644 0248 B4D9     		bls	.L30
 645 024a 0021     		movs	r1, #0
 646              	.LVL60:
 647 024c 0FE0     		b	.L31
 648              	.LVL61:
ARM GAS  C:\Users\Phuong\AppData\Local\Temp\ccZ7UQ35.s 			page 20


 649              	.L33:
 650              		.loc 1 415 0 discriminator 13
 651 024e A200     		lsls	r2, r4, #2
 652 0250 1219     		adds	r2, r2, r4
 653 0252 1301     		lsls	r3, r2, #4
 654 0254 694A     		ldr	r2, .L61
 655 0256 D318     		adds	r3, r2, r3
 656 0258 5B18     		adds	r3, r3, r1
 657 025a 5022     		movs	r2, #80
 658 025c 9B56     		ldrsb	r3, [r3, r2]
 659 025e 5A1C     		adds	r2, r3, #1
 660 0260 04D0     		beq	.L32
 661              		.loc 1 415 0 discriminator 9
 662 0262 9B00     		lsls	r3, r3, #2
 663 0264 8A00     		lsls	r2, r1, #2
 664 0266 02A8     		add	r0, sp, #8
 665 0268 1258     		ldr	r2, [r2, r0]
 666 026a EA50     		str	r2, [r5, r3]
 667              	.L32:
 668              		.loc 1 415 0 discriminator 11
 669 026c 0131     		adds	r1, r1, #1
 670              	.LVL62:
 671              	.L31:
 672              		.loc 1 415 0 discriminator 12
 673 026e 1329     		cmp	r1, #19
 674 0270 EDD9     		bls	.L33
 416:Source\mbedtls_open\library/camellia.c **** 
 417:Source\mbedtls_open\library/camellia.c ****     /* Manipulating KR */
 418:Source\mbedtls_open\library/camellia.c ****     if( keybits > 128 ) {
 675              		.loc 1 418 0 is_stmt 1
 676 0272 802E     		cmp	r6, #128
 677 0274 6AD9     		bls	.L34
 419:Source\mbedtls_open\library/camellia.c ****         SHIFT_AND_PLACE( idx, 1 );
 678              		.loc 1 419 0
 679 0276 1A9B     		ldr	r3, [sp, #104]
 680 0278 0293     		str	r3, [sp, #8]
 681 027a 1B9B     		ldr	r3, [sp, #108]
 682 027c 0393     		str	r3, [sp, #12]
 683 027e 1C9B     		ldr	r3, [sp, #112]
 684 0280 0493     		str	r3, [sp, #16]
 685 0282 1D9B     		ldr	r3, [sp, #116]
 686 0284 0193     		str	r3, [sp, #4]
 687 0286 0593     		str	r3, [sp, #20]
 688              	.LVL63:
 689 0288 0121     		movs	r1, #1
 690 028a 48E0     		b	.L35
 691              	.LVL64:
 692              	.L37:
 693              		.loc 1 419 0 is_stmt 0 discriminator 6
 694 028c 4B1E     		subs	r3, r1, #1
 695 028e 2201     		lsls	r2, r4, #4
 696 0290 5A48     		ldr	r0, .L61
 697 0292 8218     		adds	r2, r0, r2
 698 0294 D318     		adds	r3, r2, r3
 699 0296 3433     		adds	r3, r3, #52
 700 0298 1B78     		ldrb	r3, [r3]
 701 029a 002B     		cmp	r3, #0
ARM GAS  C:\Users\Phuong\AppData\Local\Temp\ccZ7UQ35.s 			page 21


 702 029c 3ED0     		beq	.L36
 703              		.loc 1 419 0 discriminator 2
 704 029e 0B01     		lsls	r3, r1, #4
 705 02a0 9946     		mov	r9, r3
 706 02a2 5A1A     		subs	r2, r3, r1
 707 02a4 1F20     		movs	r0, #31
 708 02a6 0240     		ands	r2, r0
 709 02a8 0298     		ldr	r0, [sp, #8]
 710 02aa 9040     		lsls	r0, r0, r2
 711 02ac 8446     		mov	ip, r0
 712 02ae 0398     		ldr	r0, [sp, #12]
 713 02b0 0190     		str	r0, [sp, #4]
 714 02b2 2020     		movs	r0, #32
 715 02b4 831A     		subs	r3, r0, r2
 716 02b6 9A46     		mov	r10, r3
 717 02b8 019F     		ldr	r7, [sp, #4]
 718 02ba DF40     		lsrs	r7, r7, r3
 719 02bc 6046     		mov	r0, ip
 720 02be 4740     		eors	r7, r0
 721 02c0 02A8     		add	r0, sp, #8
 722 02c2 4B46     		mov	r3, r9
 723 02c4 C750     		str	r7, [r0, r3]
 724 02c6 181D     		adds	r0, r3, #4
 725 02c8 8046     		mov	r8, r0
 726 02ca 0398     		ldr	r0, [sp, #12]
 727 02cc 0700     		movs	r7, r0
 728 02ce 9740     		lsls	r7, r7, r2
 729 02d0 BC46     		mov	ip, r7
 730 02d2 0498     		ldr	r0, [sp, #16]
 731 02d4 0700     		movs	r7, r0
 732 02d6 5346     		mov	r3, r10
 733 02d8 DF40     		lsrs	r7, r7, r3
 734 02da 6046     		mov	r0, ip
 735 02dc 4740     		eors	r7, r0
 736 02de 02A8     		add	r0, sp, #8
 737 02e0 4346     		mov	r3, r8
 738 02e2 C750     		str	r7, [r0, r3]
 739 02e4 0823     		movs	r3, #8
 740 02e6 9846     		mov	r8, r3
 741 02e8 C844     		add	r8, r8, r9
 742 02ea 049B     		ldr	r3, [sp, #16]
 743 02ec 1F00     		movs	r7, r3
 744 02ee 9740     		lsls	r7, r7, r2
 745 02f0 BC46     		mov	ip, r7
 746 02f2 059B     		ldr	r3, [sp, #20]
 747 02f4 0193     		str	r3, [sp, #4]
 748 02f6 1F00     		movs	r7, r3
 749 02f8 5346     		mov	r3, r10
 750 02fa DF40     		lsrs	r7, r7, r3
 751 02fc 6346     		mov	r3, ip
 752 02fe 5F40     		eors	r7, r3
 753 0300 0300     		movs	r3, r0
 754 0302 4046     		mov	r0, r8
 755 0304 1F50     		str	r7, [r3, r0]
 756 0306 4B46     		mov	r3, r9
 757 0308 0C33     		adds	r3, r3, #12
 758 030a 059F     		ldr	r7, [sp, #20]
ARM GAS  C:\Users\Phuong\AppData\Local\Temp\ccZ7UQ35.s 			page 22


 759 030c 9740     		lsls	r7, r7, r2
 760 030e 3A00     		movs	r2, r7
 761 0310 029F     		ldr	r7, [sp, #8]
 762 0312 5046     		mov	r0, r10
 763 0314 C740     		lsrs	r7, r7, r0
 764 0316 7A40     		eors	r2, r7
 765 0318 02A8     		add	r0, sp, #8
 766 031a C250     		str	r2, [r0, r3]
 767              	.L36:
 768              		.loc 1 419 0 discriminator 4
 769 031c 0131     		adds	r1, r1, #1
 770              	.LVL65:
 771              	.L35:
 772              		.loc 1 419 0 discriminator 5
 773 031e 0429     		cmp	r1, #4
 774 0320 B4D9     		bls	.L37
 775 0322 0021     		movs	r1, #0
 776              	.LVL66:
 777 0324 10E0     		b	.L38
 778              	.LVL67:
 779              	.L40:
 780              		.loc 1 419 0 discriminator 13
 781 0326 A200     		lsls	r2, r4, #2
 782 0328 1219     		adds	r2, r2, r4
 783 032a 1301     		lsls	r3, r2, #4
 784 032c 334A     		ldr	r2, .L61
 785 032e D318     		adds	r3, r2, r3
 786 0330 5B18     		adds	r3, r3, r1
 787 0332 6433     		adds	r3, r3, #100
 788 0334 1B78     		ldrb	r3, [r3]
 789 0336 5BB2     		sxtb	r3, r3
 790 0338 5A1C     		adds	r2, r3, #1
 791 033a 04D0     		beq	.L39
 792              		.loc 1 419 0 discriminator 9
 793 033c 9B00     		lsls	r3, r3, #2
 794 033e 8A00     		lsls	r2, r1, #2
 795 0340 02A8     		add	r0, sp, #8
 796 0342 1258     		ldr	r2, [r2, r0]
 797 0344 EA50     		str	r2, [r5, r3]
 798              	.L39:
 799              		.loc 1 419 0 discriminator 11
 800 0346 0131     		adds	r1, r1, #1
 801              	.LVL68:
 802              	.L38:
 803              		.loc 1 419 0 discriminator 12
 804 0348 1329     		cmp	r1, #19
 805 034a ECD9     		bls	.L40
 806              	.L34:
 420:Source\mbedtls_open\library/camellia.c ****     }
 421:Source\mbedtls_open\library/camellia.c **** 
 422:Source\mbedtls_open\library/camellia.c ****     /* Manipulating KA */
 423:Source\mbedtls_open\library/camellia.c ****     SHIFT_AND_PLACE( idx, 2 );
 807              		.loc 1 423 0 is_stmt 1
 808 034c 1E9B     		ldr	r3, [sp, #120]
 809 034e 0293     		str	r3, [sp, #8]
 810 0350 1F9B     		ldr	r3, [sp, #124]
 811 0352 0393     		str	r3, [sp, #12]
ARM GAS  C:\Users\Phuong\AppData\Local\Temp\ccZ7UQ35.s 			page 23


 812 0354 209B     		ldr	r3, [sp, #128]
 813 0356 0493     		str	r3, [sp, #16]
 814 0358 219B     		ldr	r3, [sp, #132]
 815 035a 0193     		str	r3, [sp, #4]
 816 035c 0593     		str	r3, [sp, #20]
 817              	.LVL69:
 818 035e 0121     		movs	r1, #1
 819 0360 48E0     		b	.L41
 820              	.LVL70:
 821              	.L43:
 822              		.loc 1 423 0 is_stmt 0 discriminator 6
 823 0362 4B1E     		subs	r3, r1, #1
 824 0364 2201     		lsls	r2, r4, #4
 825 0366 2548     		ldr	r0, .L61
 826 0368 8218     		adds	r2, r0, r2
 827 036a D318     		adds	r3, r2, r3
 828 036c 3833     		adds	r3, r3, #56
 829 036e 1B78     		ldrb	r3, [r3]
 830 0370 002B     		cmp	r3, #0
 831 0372 3ED0     		beq	.L42
 832              		.loc 1 423 0 discriminator 2
 833 0374 0B01     		lsls	r3, r1, #4
 834 0376 9946     		mov	r9, r3
 835 0378 5A1A     		subs	r2, r3, r1
 836 037a 1F20     		movs	r0, #31
 837 037c 0240     		ands	r2, r0
 838 037e 0298     		ldr	r0, [sp, #8]
 839 0380 9040     		lsls	r0, r0, r2
 840 0382 8446     		mov	ip, r0
 841 0384 0398     		ldr	r0, [sp, #12]
 842 0386 0190     		str	r0, [sp, #4]
 843 0388 2020     		movs	r0, #32
 844 038a 831A     		subs	r3, r0, r2
 845 038c 9A46     		mov	r10, r3
 846 038e 019F     		ldr	r7, [sp, #4]
 847 0390 DF40     		lsrs	r7, r7, r3
 848 0392 6046     		mov	r0, ip
 849 0394 4740     		eors	r7, r0
 850 0396 02A8     		add	r0, sp, #8
 851 0398 4B46     		mov	r3, r9
 852 039a C750     		str	r7, [r0, r3]
 853 039c 181D     		adds	r0, r3, #4
 854 039e 8046     		mov	r8, r0
 855 03a0 0398     		ldr	r0, [sp, #12]
 856 03a2 0700     		movs	r7, r0
 857 03a4 9740     		lsls	r7, r7, r2
 858 03a6 BC46     		mov	ip, r7
 859 03a8 0498     		ldr	r0, [sp, #16]
 860 03aa 0700     		movs	r7, r0
 861 03ac 5346     		mov	r3, r10
 862 03ae DF40     		lsrs	r7, r7, r3
 863 03b0 6046     		mov	r0, ip
 864 03b2 4740     		eors	r7, r0
 865 03b4 02A8     		add	r0, sp, #8
 866 03b6 4346     		mov	r3, r8
 867 03b8 C750     		str	r7, [r0, r3]
 868 03ba 0823     		movs	r3, #8
ARM GAS  C:\Users\Phuong\AppData\Local\Temp\ccZ7UQ35.s 			page 24


 869 03bc 9846     		mov	r8, r3
 870 03be C844     		add	r8, r8, r9
 871 03c0 049B     		ldr	r3, [sp, #16]
 872 03c2 1F00     		movs	r7, r3
 873 03c4 9740     		lsls	r7, r7, r2
 874 03c6 BC46     		mov	ip, r7
 875 03c8 059B     		ldr	r3, [sp, #20]
 876 03ca 0193     		str	r3, [sp, #4]
 877 03cc 1F00     		movs	r7, r3
 878 03ce 5346     		mov	r3, r10
 879 03d0 DF40     		lsrs	r7, r7, r3
 880 03d2 6346     		mov	r3, ip
 881 03d4 5F40     		eors	r7, r3
 882 03d6 0300     		movs	r3, r0
 883 03d8 4046     		mov	r0, r8
 884 03da 1F50     		str	r7, [r3, r0]
 885 03dc 4B46     		mov	r3, r9
 886 03de 0C33     		adds	r3, r3, #12
 887 03e0 059F     		ldr	r7, [sp, #20]
 888 03e2 9740     		lsls	r7, r7, r2
 889 03e4 3A00     		movs	r2, r7
 890 03e6 029F     		ldr	r7, [sp, #8]
 891 03e8 5046     		mov	r0, r10
 892 03ea C740     		lsrs	r7, r7, r0
 893 03ec 7A40     		eors	r2, r7
 894 03ee 02A8     		add	r0, sp, #8
 895 03f0 C250     		str	r2, [r0, r3]
 896              	.L42:
 897              		.loc 1 423 0 discriminator 4
 898 03f2 0131     		adds	r1, r1, #1
 899              	.LVL71:
 900              	.L41:
 901              		.loc 1 423 0 discriminator 5
 902 03f4 0429     		cmp	r1, #4
 903 03f6 B4D9     		bls	.L43
 904 03f8 0021     		movs	r1, #0
 905              	.LVL72:
 906 03fa 12E0     		b	.L44
 907              	.L62:
 908              		.align	2
 909              	.L61:
 910 03fc 00040000 		.word	.LANCHOR4
 911              	.LVL73:
 912              	.L46:
 913              		.loc 1 423 0 discriminator 13
 914 0400 A200     		lsls	r2, r4, #2
 915 0402 1219     		adds	r2, r2, r4
 916 0404 1301     		lsls	r3, r2, #4
 917 0406 4A4A     		ldr	r2, .L63
 918 0408 D318     		adds	r3, r2, r3
 919 040a 5B18     		adds	r3, r3, r1
 920 040c 7833     		adds	r3, r3, #120
 921 040e 1B78     		ldrb	r3, [r3]
 922 0410 5BB2     		sxtb	r3, r3
 923 0412 5A1C     		adds	r2, r3, #1
 924 0414 04D0     		beq	.L45
 925              		.loc 1 423 0 discriminator 9
ARM GAS  C:\Users\Phuong\AppData\Local\Temp\ccZ7UQ35.s 			page 25


 926 0416 9B00     		lsls	r3, r3, #2
 927 0418 8A00     		lsls	r2, r1, #2
 928 041a 02A8     		add	r0, sp, #8
 929 041c 1258     		ldr	r2, [r2, r0]
 930 041e EA50     		str	r2, [r5, r3]
 931              	.L45:
 932              		.loc 1 423 0 discriminator 11
 933 0420 0131     		adds	r1, r1, #1
 934              	.LVL74:
 935              	.L44:
 936              		.loc 1 423 0 discriminator 12
 937 0422 1329     		cmp	r1, #19
 938 0424 ECD9     		bls	.L46
 424:Source\mbedtls_open\library/camellia.c **** 
 425:Source\mbedtls_open\library/camellia.c ****     /* Manipulating KB */
 426:Source\mbedtls_open\library/camellia.c ****     if( keybits > 128 ) {
 939              		.loc 1 426 0 is_stmt 1
 940 0426 802E     		cmp	r6, #128
 941 0428 5FD9     		bls	.L47
 427:Source\mbedtls_open\library/camellia.c ****         SHIFT_AND_PLACE( idx, 3 );
 942              		.loc 1 427 0
 943 042a 229B     		ldr	r3, [sp, #136]
 944 042c 0293     		str	r3, [sp, #8]
 945 042e 239B     		ldr	r3, [sp, #140]
 946 0430 0393     		str	r3, [sp, #12]
 947 0432 249B     		ldr	r3, [sp, #144]
 948 0434 0493     		str	r3, [sp, #16]
 949 0436 259B     		ldr	r3, [sp, #148]
 950 0438 0193     		str	r3, [sp, #4]
 951 043a 0593     		str	r3, [sp, #20]
 952              	.LVL75:
 953 043c 0121     		movs	r1, #1
 954 043e 3DE0     		b	.L48
 955              	.LVL76:
 956              	.L50:
 957              		.loc 1 427 0 is_stmt 0 discriminator 6
 958 0440 4B1E     		subs	r3, r1, #1
 959 0442 2201     		lsls	r2, r4, #4
 960 0444 3A48     		ldr	r0, .L63
 961 0446 8218     		adds	r2, r0, r2
 962 0448 D318     		adds	r3, r2, r3
 963 044a 3C33     		adds	r3, r3, #60
 964 044c 1B78     		ldrb	r3, [r3]
 965 044e 002B     		cmp	r3, #0
 966 0450 33D0     		beq	.L49
 967              		.loc 1 427 0 discriminator 2
 968 0452 0B01     		lsls	r3, r1, #4
 969 0454 5A1A     		subs	r2, r3, r1
 970 0456 1F20     		movs	r0, #31
 971 0458 0240     		ands	r2, r0
 972 045a 029F     		ldr	r7, [sp, #8]
 973 045c 9740     		lsls	r7, r7, r2
 974 045e 0398     		ldr	r0, [sp, #12]
 975 0460 0190     		str	r0, [sp, #4]
 976 0462 2020     		movs	r0, #32
 977 0464 801A     		subs	r0, r0, r2
 978 0466 8046     		mov	r8, r0
ARM GAS  C:\Users\Phuong\AppData\Local\Temp\ccZ7UQ35.s 			page 26


 979 0468 019E     		ldr	r6, [sp, #4]
 980 046a C640     		lsrs	r6, r6, r0
 981 046c 7E40     		eors	r6, r7
 982 046e 02AF     		add	r7, sp, #8
 983 0470 FE50     		str	r6, [r7, r3]
 984 0472 1E1D     		adds	r6, r3, #4
 985 0474 B446     		mov	ip, r6
 986 0476 039E     		ldr	r6, [sp, #12]
 987 0478 3700     		movs	r7, r6
 988 047a 9740     		lsls	r7, r7, r2
 989 047c 049E     		ldr	r6, [sp, #16]
 990 047e C640     		lsrs	r6, r6, r0
 991 0480 7E40     		eors	r6, r7
 992 0482 02AF     		add	r7, sp, #8
 993 0484 6046     		mov	r0, ip
 994 0486 3E50     		str	r6, [r7, r0]
 995 0488 0820     		movs	r0, #8
 996 048a 8446     		mov	ip, r0
 997 048c 9C44     		add	ip, ip, r3
 998 048e 0498     		ldr	r0, [sp, #16]
 999 0490 0700     		movs	r7, r0
 1000 0492 9740     		lsls	r7, r7, r2
 1001 0494 0598     		ldr	r0, [sp, #20]
 1002 0496 0190     		str	r0, [sp, #4]
 1003 0498 0600     		movs	r6, r0
 1004 049a 4046     		mov	r0, r8
 1005 049c C640     		lsrs	r6, r6, r0
 1006 049e 7E40     		eors	r6, r7
 1007 04a0 02A8     		add	r0, sp, #8
 1008 04a2 6746     		mov	r7, ip
 1009 04a4 C651     		str	r6, [r0, r7]
 1010 04a6 0C33     		adds	r3, r3, #12
 1011 04a8 059E     		ldr	r6, [sp, #20]
 1012 04aa 9640     		lsls	r6, r6, r2
 1013 04ac 3200     		movs	r2, r6
 1014 04ae 029E     		ldr	r6, [sp, #8]
 1015 04b0 4046     		mov	r0, r8
 1016 04b2 C640     		lsrs	r6, r6, r0
 1017 04b4 7240     		eors	r2, r6
 1018 04b6 02A8     		add	r0, sp, #8
 1019 04b8 C250     		str	r2, [r0, r3]
 1020              	.L49:
 1021              		.loc 1 427 0 discriminator 4
 1022 04ba 0131     		adds	r1, r1, #1
 1023              	.LVL77:
 1024              	.L48:
 1025              		.loc 1 427 0 discriminator 5
 1026 04bc 0429     		cmp	r1, #4
 1027 04be BFD9     		bls	.L50
 1028 04c0 0021     		movs	r1, #0
 1029              	.LVL78:
 1030 04c2 10E0     		b	.L51
 1031              	.LVL79:
 1032              	.L53:
 1033              		.loc 1 427 0 discriminator 13
 1034 04c4 A200     		lsls	r2, r4, #2
 1035 04c6 1219     		adds	r2, r2, r4
ARM GAS  C:\Users\Phuong\AppData\Local\Temp\ccZ7UQ35.s 			page 27


 1036 04c8 1301     		lsls	r3, r2, #4
 1037 04ca 194A     		ldr	r2, .L63
 1038 04cc D318     		adds	r3, r2, r3
 1039 04ce 5B18     		adds	r3, r3, r1
 1040 04d0 8C33     		adds	r3, r3, #140
 1041 04d2 1B78     		ldrb	r3, [r3]
 1042 04d4 5BB2     		sxtb	r3, r3
 1043 04d6 5A1C     		adds	r2, r3, #1
 1044 04d8 04D0     		beq	.L52
 1045              		.loc 1 427 0 discriminator 9
 1046 04da 9B00     		lsls	r3, r3, #2
 1047 04dc 8A00     		lsls	r2, r1, #2
 1048 04de 02A8     		add	r0, sp, #8
 1049 04e0 1258     		ldr	r2, [r2, r0]
 1050 04e2 EA50     		str	r2, [r5, r3]
 1051              	.L52:
 1052              		.loc 1 427 0 discriminator 11
 1053 04e4 0131     		adds	r1, r1, #1
 1054              	.LVL80:
 1055              	.L51:
 1056              		.loc 1 427 0 discriminator 12
 1057 04e6 1329     		cmp	r1, #19
 1058 04e8 ECD9     		bls	.L53
 1059              	.L47:
 1060 04ea 0021     		movs	r1, #0
 1061              	.LVL81:
 1062 04ec 13E0     		b	.L54
 1063              	.LVL82:
 1064              	.L56:
 428:Source\mbedtls_open\library/camellia.c ****     }
 429:Source\mbedtls_open\library/camellia.c **** 
 430:Source\mbedtls_open\library/camellia.c ****     /* Do transpositions */
 431:Source\mbedtls_open\library/camellia.c ****     for( i = 0; i < 20; i++ ) {
 432:Source\mbedtls_open\library/camellia.c ****         if( transposes[idx][i] != -1 ) {
 1065              		.loc 1 432 0 is_stmt 1
 1066 04ee A200     		lsls	r2, r4, #2
 1067 04f0 1219     		adds	r2, r2, r4
 1068 04f2 9300     		lsls	r3, r2, #2
 1069 04f4 0F4A     		ldr	r2, .L63+4
 1070 04f6 D318     		adds	r3, r2, r3
 1071 04f8 5B18     		adds	r3, r3, r1
 1072 04fa 7022     		movs	r2, #112
 1073 04fc 9A56     		ldrsb	r2, [r3, r2]
 1074 04fe 531C     		adds	r3, r2, #1
 1075 0500 08D0     		beq	.L55
 433:Source\mbedtls_open\library/camellia.c ****             RK[32 + 12 * idx + i] = RK[transposes[idx][i]];
 1076              		.loc 1 433 0
 1077 0502 6000     		lsls	r0, r4, #1
 1078 0504 0019     		adds	r0, r0, r4
 1079 0506 8300     		lsls	r3, r0, #2
 1080 0508 5B18     		adds	r3, r3, r1
 1081 050a 2033     		adds	r3, r3, #32
 1082 050c 9B00     		lsls	r3, r3, #2
 1083 050e 9200     		lsls	r2, r2, #2
 1084 0510 5259     		ldr	r2, [r2, r5]
 1085 0512 EA50     		str	r2, [r5, r3]
 1086              	.L55:
ARM GAS  C:\Users\Phuong\AppData\Local\Temp\ccZ7UQ35.s 			page 28


 431:Source\mbedtls_open\library/camellia.c ****         if( transposes[idx][i] != -1 ) {
 1087              		.loc 1 431 0 discriminator 2
 1088 0514 0131     		adds	r1, r1, #1
 1089              	.LVL83:
 1090              	.L54:
 431:Source\mbedtls_open\library/camellia.c ****         if( transposes[idx][i] != -1 ) {
 1091              		.loc 1 431 0 is_stmt 0 discriminator 1
 1092 0516 1329     		cmp	r1, #19
 1093 0518 E9D9     		bls	.L56
 434:Source\mbedtls_open\library/camellia.c ****         }
 435:Source\mbedtls_open\library/camellia.c ****     }
 436:Source\mbedtls_open\library/camellia.c **** 
 437:Source\mbedtls_open\library/camellia.c ****     return( 0 );
 1094              		.loc 1 437 0 is_stmt 1
 1095 051a 0020     		movs	r0, #0
 1096 051c 01E0     		b	.L8
 1097              	.LVL84:
 1098              	.L60:
 359:Source\mbedtls_open\library/camellia.c ****     }
 1099              		.loc 1 359 0
 1100 051e 2420     		movs	r0, #36
 1101 0520 4042     		rsbs	r0, r0, #0
 1102              	.LVL85:
 1103              	.L8:
 438:Source\mbedtls_open\library/camellia.c **** }
 1104              		.loc 1 438 0
 1105 0522 42B0     		add	sp, sp, #264
 1106              		@ sp needed
 1107              	.LVL86:
 1108 0524 1CBC     		pop	{r2, r3, r4}
 1109 0526 9046     		mov	r8, r2
 1110 0528 9946     		mov	r9, r3
 1111 052a A246     		mov	r10, r4
 1112 052c F0BD     		pop	{r4, r5, r6, r7, pc}
 1113              	.L64:
 1114 052e C046     		.align	2
 1115              	.L63:
 1116 0530 00040000 		.word	.LANCHOR4
 1117 0534 80040000 		.word	.LANCHOR5
 1118              		.cfi_endproc
 1119              	.LFE4:
 1120              		.size	mbedtls_camellia_setkey_enc, .-mbedtls_camellia_setkey_enc
 1121              		.section	.text.mbedtls_camellia_setkey_dec,"ax",%progbits
 1122              		.align	2
 1123              		.global	mbedtls_camellia_setkey_dec
 1124              		.code	16
 1125              		.thumb_func
 1126              		.type	mbedtls_camellia_setkey_dec, %function
 1127              	mbedtls_camellia_setkey_dec:
 1128              	.LFB5:
 439:Source\mbedtls_open\library/camellia.c **** 
 440:Source\mbedtls_open\library/camellia.c **** /*
 441:Source\mbedtls_open\library/camellia.c ****  * Camellia key schedule (decryption)
 442:Source\mbedtls_open\library/camellia.c ****  */
 443:Source\mbedtls_open\library/camellia.c **** int mbedtls_camellia_setkey_dec( mbedtls_camellia_context *ctx, const unsigned char *key,
 444:Source\mbedtls_open\library/camellia.c ****                          unsigned int keybits )
 445:Source\mbedtls_open\library/camellia.c **** {
ARM GAS  C:\Users\Phuong\AppData\Local\Temp\ccZ7UQ35.s 			page 29


 1129              		.loc 1 445 0
 1130              		.cfi_startproc
 1131              		@ args = 0, pretend = 0, frame = 280
 1132              		@ frame_needed = 0, uses_anonymous_args = 0
 1133              	.LVL87:
 1134 0000 70B5     		push	{r4, r5, r6, lr}
 1135              		.cfi_def_cfa_offset 16
 1136              		.cfi_offset 4, -16
 1137              		.cfi_offset 5, -12
 1138              		.cfi_offset 6, -8
 1139              		.cfi_offset 14, -4
 1140 0002 C6B0     		sub	sp, sp, #280
 1141              		.cfi_def_cfa_offset 296
 1142 0004 0500     		movs	r5, r0
 1143 0006 0C00     		movs	r4, r1
 1144 0008 1600     		movs	r6, r2
 446:Source\mbedtls_open\library/camellia.c ****     int idx, ret;
 447:Source\mbedtls_open\library/camellia.c ****     size_t i;
 448:Source\mbedtls_open\library/camellia.c ****     mbedtls_camellia_context cty;
 449:Source\mbedtls_open\library/camellia.c ****     uint32_t *RK;
 450:Source\mbedtls_open\library/camellia.c ****     uint32_t *SK;
 451:Source\mbedtls_open\library/camellia.c **** 
 452:Source\mbedtls_open\library/camellia.c ****     mbedtls_camellia_init( &cty );
 1145              		.loc 1 452 0
 1146 000a 01A8     		add	r0, sp, #4
 1147              	.LVL88:
 1148 000c FFF7FEFF 		bl	mbedtls_camellia_init
 1149              	.LVL89:
 453:Source\mbedtls_open\library/camellia.c **** 
 454:Source\mbedtls_open\library/camellia.c ****     /* Also checks keybits */
 455:Source\mbedtls_open\library/camellia.c ****     if( ( ret = mbedtls_camellia_setkey_enc( &cty, key, keybits ) ) != 0 )
 1150              		.loc 1 455 0
 1151 0010 3200     		movs	r2, r6
 1152 0012 2100     		movs	r1, r4
 1153 0014 01A8     		add	r0, sp, #4
 1154 0016 FFF7FEFF 		bl	mbedtls_camellia_setkey_enc
 1155              	.LVL90:
 1156 001a 041E     		subs	r4, r0, #0
 1157              	.LVL91:
 1158 001c 2CD1     		bne	.L66
 456:Source\mbedtls_open\library/camellia.c ****         goto exit;
 457:Source\mbedtls_open\library/camellia.c **** 
 458:Source\mbedtls_open\library/camellia.c ****     ctx->nr = cty.nr;
 1159              		.loc 1 458 0
 1160 001e 019B     		ldr	r3, [sp, #4]
 1161 0020 2B60     		str	r3, [r5]
 459:Source\mbedtls_open\library/camellia.c ****     idx = ( ctx->nr == 4 );
 1162              		.loc 1 459 0
 1163 0022 191F     		subs	r1, r3, #4
 1164 0024 4A42     		rsbs	r2, r1, #0
 1165 0026 4A41     		adcs	r2, r2, r1
 1166 0028 D1B2     		uxtb	r1, r2
 1167              	.LVL92:
 460:Source\mbedtls_open\library/camellia.c **** 
 461:Source\mbedtls_open\library/camellia.c ****     RK = ctx->rk;
 462:Source\mbedtls_open\library/camellia.c ****     SK = cty.rk + 24 * 2 + 8 * idx * 2;
 1168              		.loc 1 462 0
ARM GAS  C:\Users\Phuong\AppData\Local\Temp\ccZ7UQ35.s 			page 30


 1169 002a 8B01     		lsls	r3, r1, #6
 1170 002c C033     		adds	r3, r3, #192
 1171 002e 02AA     		add	r2, sp, #8
 1172 0030 9446     		mov	ip, r2
 1173 0032 6344     		add	r3, r3, ip
 1174              	.LVL93:
 463:Source\mbedtls_open\library/camellia.c **** 
 464:Source\mbedtls_open\library/camellia.c ****     *RK++ = *SK++;
 1175              		.loc 1 464 0
 1176 0034 1A68     		ldr	r2, [r3]
 1177 0036 6A60     		str	r2, [r5, #4]
 1178              	.LVL94:
 465:Source\mbedtls_open\library/camellia.c ****     *RK++ = *SK++;
 1179              		.loc 1 465 0
 1180 0038 5A68     		ldr	r2, [r3, #4]
 1181 003a AA60     		str	r2, [r5, #8]
 1182              	.LVL95:
 466:Source\mbedtls_open\library/camellia.c ****     *RK++ = *SK++;
 1183              		.loc 1 466 0
 1184 003c 9A68     		ldr	r2, [r3, #8]
 1185 003e EA60     		str	r2, [r5, #12]
 467:Source\mbedtls_open\library/camellia.c ****     *RK++ = *SK++;
 1186              		.loc 1 467 0
 1187 0040 2A00     		movs	r2, r5
 1188 0042 1432     		adds	r2, r2, #20
 1189              	.LVL96:
 1190 0044 D868     		ldr	r0, [r3, #12]
 1191              	.LVL97:
 1192 0046 2861     		str	r0, [r5, #16]
 468:Source\mbedtls_open\library/camellia.c **** 
 469:Source\mbedtls_open\library/camellia.c ****     for( i = 22 + 8 * idx, SK -= 6; i > 0; i--, SK -= 4 )
 1193              		.loc 1 469 0
 1194 0048 C900     		lsls	r1, r1, #3
 1195              	.LVL98:
 1196 004a 1631     		adds	r1, r1, #22
 1197              	.LVL99:
 1198 004c 083B     		subs	r3, r3, #8
 1199              	.LVL100:
 1200 004e 06E0     		b	.L67
 1201              	.LVL101:
 1202              	.L68:
 470:Source\mbedtls_open\library/camellia.c ****     {
 471:Source\mbedtls_open\library/camellia.c ****         *RK++ = *SK++;
 1203              		.loc 1 471 0 discriminator 3
 1204 0050 1868     		ldr	r0, [r3]
 1205 0052 1060     		str	r0, [r2]
 1206              	.LVL102:
 472:Source\mbedtls_open\library/camellia.c ****         *RK++ = *SK++;
 1207              		.loc 1 472 0 discriminator 3
 1208 0054 5868     		ldr	r0, [r3, #4]
 1209 0056 5060     		str	r0, [r2, #4]
 469:Source\mbedtls_open\library/camellia.c ****     {
 1210              		.loc 1 469 0 discriminator 3
 1211 0058 0139     		subs	r1, r1, #1
 1212              	.LVL103:
 1213 005a 083B     		subs	r3, r3, #8
 1214              	.LVL104:
ARM GAS  C:\Users\Phuong\AppData\Local\Temp\ccZ7UQ35.s 			page 31


 1215              		.loc 1 472 0 discriminator 3
 1216 005c 0832     		adds	r2, r2, #8
 1217              	.LVL105:
 1218              	.L67:
 469:Source\mbedtls_open\library/camellia.c ****     {
 1219              		.loc 1 469 0 discriminator 1
 1220 005e 0029     		cmp	r1, #0
 1221 0060 F6D1     		bne	.L68
 1222              	.LVL106:
 473:Source\mbedtls_open\library/camellia.c ****     }
 474:Source\mbedtls_open\library/camellia.c **** 
 475:Source\mbedtls_open\library/camellia.c ****     SK -= 2;
 476:Source\mbedtls_open\library/camellia.c **** 
 477:Source\mbedtls_open\library/camellia.c ****     *RK++ = *SK++;
 1223              		.loc 1 477 0
 1224 0062 1900     		movs	r1, r3
 1225              	.LVL107:
 1226 0064 0839     		subs	r1, r1, #8
 1227              	.LVL108:
 1228 0066 0968     		ldr	r1, [r1]
 1229              	.LVL109:
 1230 0068 1160     		str	r1, [r2]
 1231              	.LVL110:
 478:Source\mbedtls_open\library/camellia.c ****     *RK++ = *SK++;
 1232              		.loc 1 478 0
 1233 006a 191F     		subs	r1, r3, #4
 1234 006c 0968     		ldr	r1, [r1]
 1235 006e 5160     		str	r1, [r2, #4]
 1236              	.LVL111:
 479:Source\mbedtls_open\library/camellia.c ****     *RK++ = *SK++;
 1237              		.loc 1 479 0
 1238 0070 1968     		ldr	r1, [r3]
 1239 0072 9160     		str	r1, [r2, #8]
 1240              	.LVL112:
 480:Source\mbedtls_open\library/camellia.c ****     *RK++ = *SK++;
 1241              		.loc 1 480 0
 1242 0074 5B68     		ldr	r3, [r3, #4]
 1243              	.LVL113:
 1244 0076 D360     		str	r3, [r2, #12]
 1245              	.LVL114:
 1246              	.L66:
 481:Source\mbedtls_open\library/camellia.c **** 
 482:Source\mbedtls_open\library/camellia.c **** exit:
 483:Source\mbedtls_open\library/camellia.c ****     mbedtls_camellia_free( &cty );
 1247              		.loc 1 483 0
 1248 0078 01A8     		add	r0, sp, #4
 1249 007a FFF7FEFF 		bl	mbedtls_camellia_free
 1250              	.LVL115:
 484:Source\mbedtls_open\library/camellia.c **** 
 485:Source\mbedtls_open\library/camellia.c ****     return( ret );
 486:Source\mbedtls_open\library/camellia.c **** }
 1251              		.loc 1 486 0
 1252 007e 2000     		movs	r0, r4
 1253 0080 46B0     		add	sp, sp, #280
 1254              		@ sp needed
 1255              	.LVL116:
 1256              	.LVL117:
ARM GAS  C:\Users\Phuong\AppData\Local\Temp\ccZ7UQ35.s 			page 32


 1257              	.LVL118:
 1258 0082 70BD     		pop	{r4, r5, r6, pc}
 1259              		.cfi_endproc
 1260              	.LFE5:
 1261              		.size	mbedtls_camellia_setkey_dec, .-mbedtls_camellia_setkey_dec
 1262              		.section	.text.mbedtls_camellia_crypt_ecb,"ax",%progbits
 1263              		.align	2
 1264              		.global	mbedtls_camellia_crypt_ecb
 1265              		.code	16
 1266              		.thumb_func
 1267              		.type	mbedtls_camellia_crypt_ecb, %function
 1268              	mbedtls_camellia_crypt_ecb:
 1269              	.LFB6:
 487:Source\mbedtls_open\library/camellia.c **** 
 488:Source\mbedtls_open\library/camellia.c **** /*
 489:Source\mbedtls_open\library/camellia.c ****  * Camellia-ECB block encryption/decryption
 490:Source\mbedtls_open\library/camellia.c ****  */
 491:Source\mbedtls_open\library/camellia.c **** int mbedtls_camellia_crypt_ecb( mbedtls_camellia_context *ctx,
 492:Source\mbedtls_open\library/camellia.c ****                     int mode,
 493:Source\mbedtls_open\library/camellia.c ****                     const unsigned char input[16],
 494:Source\mbedtls_open\library/camellia.c ****                     unsigned char output[16] )
 495:Source\mbedtls_open\library/camellia.c **** {
 1270              		.loc 1 495 0
 1271              		.cfi_startproc
 1272              		@ args = 0, pretend = 0, frame = 24
 1273              		@ frame_needed = 0, uses_anonymous_args = 0
 1274              	.LVL119:
 1275 0000 F0B5     		push	{r4, r5, r6, r7, lr}
 1276              		.cfi_def_cfa_offset 20
 1277              		.cfi_offset 4, -20
 1278              		.cfi_offset 5, -16
 1279              		.cfi_offset 6, -12
 1280              		.cfi_offset 7, -8
 1281              		.cfi_offset 14, -4
 1282 0002 87B0     		sub	sp, sp, #28
 1283              		.cfi_def_cfa_offset 48
 1284 0004 1E00     		movs	r6, r3
 496:Source\mbedtls_open\library/camellia.c ****     int NR;
 497:Source\mbedtls_open\library/camellia.c ****     uint32_t *RK, X[4];
 498:Source\mbedtls_open\library/camellia.c **** 
 499:Source\mbedtls_open\library/camellia.c ****     ( (void) mode );
 500:Source\mbedtls_open\library/camellia.c **** 
 501:Source\mbedtls_open\library/camellia.c ****     NR = ctx->nr;
 1285              		.loc 1 501 0
 1286 0006 0568     		ldr	r5, [r0]
 1287              	.LVL120:
 502:Source\mbedtls_open\library/camellia.c ****     RK = ctx->rk;
 503:Source\mbedtls_open\library/camellia.c **** 
 504:Source\mbedtls_open\library/camellia.c ****     GET_UINT32_BE( X[0], input,  0 );
 1288              		.loc 1 504 0
 1289 0008 1778     		ldrb	r7, [r2]
 1290 000a 3F06     		lsls	r7, r7, #24
 1291 000c 5378     		ldrb	r3, [r2, #1]
 1292              	.LVL121:
 1293 000e 1B04     		lsls	r3, r3, #16
 1294 0010 1F43     		orrs	r7, r3
 1295 0012 9378     		ldrb	r3, [r2, #2]
ARM GAS  C:\Users\Phuong\AppData\Local\Temp\ccZ7UQ35.s 			page 33


 1296 0014 1B02     		lsls	r3, r3, #8
 1297 0016 1F43     		orrs	r7, r3
 1298 0018 D378     		ldrb	r3, [r2, #3]
 1299 001a 1F43     		orrs	r7, r3
 505:Source\mbedtls_open\library/camellia.c ****     GET_UINT32_BE( X[1], input,  4 );
 1300              		.loc 1 505 0
 1301 001c 1479     		ldrb	r4, [r2, #4]
 1302 001e 2406     		lsls	r4, r4, #24
 1303 0020 5379     		ldrb	r3, [r2, #5]
 1304 0022 1B04     		lsls	r3, r3, #16
 1305 0024 1C43     		orrs	r4, r3
 1306 0026 9379     		ldrb	r3, [r2, #6]
 1307 0028 1B02     		lsls	r3, r3, #8
 1308 002a 1C43     		orrs	r4, r3
 1309 002c D379     		ldrb	r3, [r2, #7]
 1310 002e 1C43     		orrs	r4, r3
 506:Source\mbedtls_open\library/camellia.c ****     GET_UINT32_BE( X[2], input,  8 );
 1311              		.loc 1 506 0
 1312 0030 137A     		ldrb	r3, [r2, #8]
 1313 0032 1906     		lsls	r1, r3, #24
 1314              	.LVL122:
 1315 0034 537A     		ldrb	r3, [r2, #9]
 1316 0036 1B04     		lsls	r3, r3, #16
 1317 0038 0B43     		orrs	r3, r1
 1318 003a 917A     		ldrb	r1, [r2, #10]
 1319 003c 0902     		lsls	r1, r1, #8
 1320 003e 0B43     		orrs	r3, r1
 1321 0040 D17A     		ldrb	r1, [r2, #11]
 1322 0042 0B43     		orrs	r3, r1
 1323 0044 9C46     		mov	ip, r3
 507:Source\mbedtls_open\library/camellia.c ****     GET_UINT32_BE( X[3], input, 12 );
 1324              		.loc 1 507 0
 1325 0046 137B     		ldrb	r3, [r2, #12]
 1326 0048 1906     		lsls	r1, r3, #24
 1327 004a 537B     		ldrb	r3, [r2, #13]
 1328 004c 1B04     		lsls	r3, r3, #16
 1329 004e 0B43     		orrs	r3, r1
 1330 0050 917B     		ldrb	r1, [r2, #14]
 1331 0052 0902     		lsls	r1, r1, #8
 1332 0054 0B43     		orrs	r3, r1
 1333 0056 D27B     		ldrb	r2, [r2, #15]
 1334              	.LVL123:
 1335 0058 1343     		orrs	r3, r2
 1336              	.LVL124:
 508:Source\mbedtls_open\library/camellia.c **** 
 509:Source\mbedtls_open\library/camellia.c ****     X[0] ^= *RK++;
 1337              		.loc 1 509 0
 1338 005a 4268     		ldr	r2, [r0, #4]
 1339 005c 5740     		eors	r7, r2
 1340 005e 0297     		str	r7, [sp, #8]
 1341              	.LVL125:
 510:Source\mbedtls_open\library/camellia.c ****     X[1] ^= *RK++;
 1342              		.loc 1 510 0
 1343 0060 8268     		ldr	r2, [r0, #8]
 1344 0062 5440     		eors	r4, r2
 1345 0064 0394     		str	r4, [sp, #12]
 1346              	.LVL126:
ARM GAS  C:\Users\Phuong\AppData\Local\Temp\ccZ7UQ35.s 			page 34


 511:Source\mbedtls_open\library/camellia.c ****     X[2] ^= *RK++;
 1347              		.loc 1 511 0
 1348 0066 6246     		mov	r2, ip
 1349 0068 C168     		ldr	r1, [r0, #12]
 1350 006a 4A40     		eors	r2, r1
 1351 006c 0492     		str	r2, [sp, #16]
 512:Source\mbedtls_open\library/camellia.c ****     X[3] ^= *RK++;
 1352              		.loc 1 512 0
 1353 006e 0400     		movs	r4, r0
 1354 0070 1434     		adds	r4, r4, #20
 1355              	.LVL127:
 1356 0072 0269     		ldr	r2, [r0, #16]
 1357 0074 5340     		eors	r3, r2
 1358 0076 0593     		str	r3, [sp, #20]
 513:Source\mbedtls_open\library/camellia.c **** 
 514:Source\mbedtls_open\library/camellia.c ****     while( NR ) {
 1359              		.loc 1 514 0
 1360 0078 42E0     		b	.L70
 1361              	.LVL128:
 1362              	.L72:
 515:Source\mbedtls_open\library/camellia.c ****         --NR;
 1363              		.loc 1 515 0
 1364 007a 013D     		subs	r5, r5, #1
 1365              	.LVL129:
 516:Source\mbedtls_open\library/camellia.c ****         camellia_feistel( X, RK, X + 2 );
 1366              		.loc 1 516 0
 1367 007c 04AA     		add	r2, sp, #16
 1368 007e 2100     		movs	r1, r4
 1369 0080 02A8     		add	r0, sp, #8
 1370 0082 FFF7FEFF 		bl	camellia_feistel
 1371              	.LVL130:
 517:Source\mbedtls_open\library/camellia.c ****         RK += 2;
 1372              		.loc 1 517 0
 1373 0086 2100     		movs	r1, r4
 1374 0088 0831     		adds	r1, r1, #8
 1375              	.LVL131:
 518:Source\mbedtls_open\library/camellia.c ****         camellia_feistel( X + 2, RK, X );
 1376              		.loc 1 518 0
 1377 008a 02AA     		add	r2, sp, #8
 1378 008c 04A8     		add	r0, sp, #16
 1379 008e FFF7FEFF 		bl	camellia_feistel
 1380              	.LVL132:
 519:Source\mbedtls_open\library/camellia.c ****         RK += 2;
 1381              		.loc 1 519 0
 1382 0092 2100     		movs	r1, r4
 1383 0094 1031     		adds	r1, r1, #16
 520:Source\mbedtls_open\library/camellia.c ****         camellia_feistel( X, RK, X + 2 );
 1384              		.loc 1 520 0
 1385 0096 04AA     		add	r2, sp, #16
 1386 0098 02A8     		add	r0, sp, #8
 1387 009a FFF7FEFF 		bl	camellia_feistel
 1388              	.LVL133:
 521:Source\mbedtls_open\library/camellia.c ****         RK += 2;
 1389              		.loc 1 521 0
 1390 009e 2100     		movs	r1, r4
 1391 00a0 1831     		adds	r1, r1, #24
 522:Source\mbedtls_open\library/camellia.c ****         camellia_feistel( X + 2, RK, X );
ARM GAS  C:\Users\Phuong\AppData\Local\Temp\ccZ7UQ35.s 			page 35


 1392              		.loc 1 522 0
 1393 00a2 02AA     		add	r2, sp, #8
 1394 00a4 04A8     		add	r0, sp, #16
 1395 00a6 FFF7FEFF 		bl	camellia_feistel
 1396              	.LVL134:
 523:Source\mbedtls_open\library/camellia.c ****         RK += 2;
 1397              		.loc 1 523 0
 1398 00aa 2100     		movs	r1, r4
 1399 00ac 2031     		adds	r1, r1, #32
 524:Source\mbedtls_open\library/camellia.c ****         camellia_feistel( X, RK, X + 2 );
 1400              		.loc 1 524 0
 1401 00ae 04AA     		add	r2, sp, #16
 1402 00b0 02A8     		add	r0, sp, #8
 1403 00b2 FFF7FEFF 		bl	camellia_feistel
 1404              	.LVL135:
 525:Source\mbedtls_open\library/camellia.c ****         RK += 2;
 1405              		.loc 1 525 0
 1406 00b6 2100     		movs	r1, r4
 1407 00b8 2831     		adds	r1, r1, #40
 526:Source\mbedtls_open\library/camellia.c ****         camellia_feistel( X + 2, RK, X );
 1408              		.loc 1 526 0
 1409 00ba 02AA     		add	r2, sp, #8
 1410 00bc 04A8     		add	r0, sp, #16
 1411 00be FFF7FEFF 		bl	camellia_feistel
 1412              	.LVL136:
 527:Source\mbedtls_open\library/camellia.c ****         RK += 2;
 1413              		.loc 1 527 0
 1414 00c2 2300     		movs	r3, r4
 1415 00c4 3033     		adds	r3, r3, #48
 1416              	.LVL137:
 528:Source\mbedtls_open\library/camellia.c **** 
 529:Source\mbedtls_open\library/camellia.c ****         if( NR ) {
 1417              		.loc 1 529 0
 1418 00c6 002D     		cmp	r5, #0
 1419 00c8 19D0     		beq	.L73
 530:Source\mbedtls_open\library/camellia.c ****             FL(X[0], X[1], RK[0], RK[1]);
 1420              		.loc 1 530 0
 1421 00ca 029A     		ldr	r2, [sp, #8]
 1422 00cc 236B     		ldr	r3, [r4, #48]
 1423              	.LVL138:
 1424 00ce 1340     		ands	r3, r2
 1425 00d0 1F21     		movs	r1, #31
 1426 00d2 CB41     		rors	r3, r3, r1
 1427 00d4 0398     		ldr	r0, [sp, #12]
 1428 00d6 4340     		eors	r3, r0
 1429 00d8 0393     		str	r3, [sp, #12]
 1430 00da 606B     		ldr	r0, [r4, #52]
 1431 00dc 0343     		orrs	r3, r0
 1432 00de 5340     		eors	r3, r2
 1433 00e0 0293     		str	r3, [sp, #8]
 1434              	.LVL139:
 531:Source\mbedtls_open\library/camellia.c ****             RK += 2;
 532:Source\mbedtls_open\library/camellia.c ****             FLInv(X[2], X[3], RK[0], RK[1]);
 1435              		.loc 1 532 0
 1436 00e2 059A     		ldr	r2, [sp, #20]
 1437 00e4 E36B     		ldr	r3, [r4, #60]
 1438 00e6 1343     		orrs	r3, r2
ARM GAS  C:\Users\Phuong\AppData\Local\Temp\ccZ7UQ35.s 			page 36


 1439 00e8 0498     		ldr	r0, [sp, #16]
 1440 00ea 0190     		str	r0, [sp, #4]
 1441 00ec 4340     		eors	r3, r0
 1442 00ee 0493     		str	r3, [sp, #16]
 1443 00f0 A06B     		ldr	r0, [r4, #56]
 1444 00f2 0340     		ands	r3, r0
 1445 00f4 CB41     		rors	r3, r3, r1
 1446 00f6 5340     		eors	r3, r2
 1447 00f8 0593     		str	r3, [sp, #20]
 533:Source\mbedtls_open\library/camellia.c ****             RK += 2;
 1448              		.loc 1 533 0
 1449 00fa 4034     		adds	r4, r4, #64
 1450              	.LVL140:
 1451 00fc 00E0     		b	.L70
 1452              	.LVL141:
 1453              	.L73:
 527:Source\mbedtls_open\library/camellia.c **** 
 1454              		.loc 1 527 0
 1455 00fe 1C00     		movs	r4, r3
 1456              	.LVL142:
 1457              	.L70:
 514:Source\mbedtls_open\library/camellia.c ****         --NR;
 1458              		.loc 1 514 0
 1459 0100 002D     		cmp	r5, #0
 1460 0102 BAD1     		bne	.L72
 1461              	.LVL143:
 534:Source\mbedtls_open\library/camellia.c ****         }
 535:Source\mbedtls_open\library/camellia.c ****     }
 536:Source\mbedtls_open\library/camellia.c **** 
 537:Source\mbedtls_open\library/camellia.c ****     X[2] ^= *RK++;
 1462              		.loc 1 537 0
 1463 0104 049B     		ldr	r3, [sp, #16]
 1464 0106 1900     		movs	r1, r3
 1465 0108 2368     		ldr	r3, [r4]
 1466 010a 5940     		eors	r1, r3
 1467 010c 0491     		str	r1, [sp, #16]
 1468              	.LVL144:
 538:Source\mbedtls_open\library/camellia.c ****     X[3] ^= *RK++;
 1469              		.loc 1 538 0
 1470 010e 059B     		ldr	r3, [sp, #20]
 1471 0110 0193     		str	r3, [sp, #4]
 1472 0112 1A00     		movs	r2, r3
 1473 0114 6368     		ldr	r3, [r4, #4]
 1474 0116 5A40     		eors	r2, r3
 1475 0118 0592     		str	r2, [sp, #20]
 1476              	.LVL145:
 539:Source\mbedtls_open\library/camellia.c ****     X[0] ^= *RK++;
 1477              		.loc 1 539 0
 1478 011a 029B     		ldr	r3, [sp, #8]
 1479 011c A068     		ldr	r0, [r4, #8]
 1480 011e 4340     		eors	r3, r0
 1481 0120 0293     		str	r3, [sp, #8]
 1482              	.LVL146:
 540:Source\mbedtls_open\library/camellia.c ****     X[1] ^= *RK++;
 1483              		.loc 1 540 0
 1484 0122 E068     		ldr	r0, [r4, #12]
 1485 0124 039C     		ldr	r4, [sp, #12]
ARM GAS  C:\Users\Phuong\AppData\Local\Temp\ccZ7UQ35.s 			page 37


 1486              	.LVL147:
 1487 0126 6040     		eors	r0, r4
 541:Source\mbedtls_open\library/camellia.c **** 
 542:Source\mbedtls_open\library/camellia.c ****     PUT_UINT32_BE( X[2], output,  0 );
 1488              		.loc 1 542 0
 1489 0128 0C0E     		lsrs	r4, r1, #24
 1490 012a 3470     		strb	r4, [r6]
 1491 012c 0C0C     		lsrs	r4, r1, #16
 1492 012e 7470     		strb	r4, [r6, #1]
 1493 0130 0C0A     		lsrs	r4, r1, #8
 1494 0132 B470     		strb	r4, [r6, #2]
 1495 0134 F170     		strb	r1, [r6, #3]
 543:Source\mbedtls_open\library/camellia.c ****     PUT_UINT32_BE( X[3], output,  4 );
 1496              		.loc 1 543 0
 1497 0136 110E     		lsrs	r1, r2, #24
 1498 0138 3171     		strb	r1, [r6, #4]
 1499 013a 110C     		lsrs	r1, r2, #16
 1500 013c 7171     		strb	r1, [r6, #5]
 1501 013e 110A     		lsrs	r1, r2, #8
 1502 0140 B171     		strb	r1, [r6, #6]
 1503 0142 F271     		strb	r2, [r6, #7]
 544:Source\mbedtls_open\library/camellia.c ****     PUT_UINT32_BE( X[0], output,  8 );
 1504              		.loc 1 544 0
 1505 0144 1A0E     		lsrs	r2, r3, #24
 1506 0146 3272     		strb	r2, [r6, #8]
 1507 0148 1A0C     		lsrs	r2, r3, #16
 1508 014a 7272     		strb	r2, [r6, #9]
 1509 014c 1A0A     		lsrs	r2, r3, #8
 1510 014e B272     		strb	r2, [r6, #10]
 1511 0150 F372     		strb	r3, [r6, #11]
 545:Source\mbedtls_open\library/camellia.c ****     PUT_UINT32_BE( X[1], output, 12 );
 1512              		.loc 1 545 0
 1513 0152 030E     		lsrs	r3, r0, #24
 1514 0154 3373     		strb	r3, [r6, #12]
 1515 0156 030C     		lsrs	r3, r0, #16
 1516 0158 7373     		strb	r3, [r6, #13]
 1517 015a 030A     		lsrs	r3, r0, #8
 1518 015c B373     		strb	r3, [r6, #14]
 1519 015e F073     		strb	r0, [r6, #15]
 546:Source\mbedtls_open\library/camellia.c **** 
 547:Source\mbedtls_open\library/camellia.c ****     return( 0 );
 548:Source\mbedtls_open\library/camellia.c **** }
 1520              		.loc 1 548 0
 1521 0160 0020     		movs	r0, #0
 1522 0162 07B0     		add	sp, sp, #28
 1523              		@ sp needed
 1524              	.LVL148:
 1525              	.LVL149:
 1526 0164 F0BD     		pop	{r4, r5, r6, r7, pc}
 1527              		.cfi_endproc
 1528              	.LFE6:
 1529              		.size	mbedtls_camellia_crypt_ecb, .-mbedtls_camellia_crypt_ecb
 1530 0166 C046     		.section	.text.mbedtls_camellia_crypt_cbc,"ax",%progbits
 1531              		.align	2
 1532              		.global	mbedtls_camellia_crypt_cbc
 1533              		.code	16
 1534              		.thumb_func
ARM GAS  C:\Users\Phuong\AppData\Local\Temp\ccZ7UQ35.s 			page 38


 1535              		.type	mbedtls_camellia_crypt_cbc, %function
 1536              	mbedtls_camellia_crypt_cbc:
 1537              	.LFB7:
 549:Source\mbedtls_open\library/camellia.c **** 
 550:Source\mbedtls_open\library/camellia.c **** #if defined(MBEDTLS_CIPHER_MODE_CBC)
 551:Source\mbedtls_open\library/camellia.c **** /*
 552:Source\mbedtls_open\library/camellia.c ****  * Camellia-CBC buffer encryption/decryption
 553:Source\mbedtls_open\library/camellia.c ****  */
 554:Source\mbedtls_open\library/camellia.c **** int mbedtls_camellia_crypt_cbc( mbedtls_camellia_context *ctx,
 555:Source\mbedtls_open\library/camellia.c ****                     int mode,
 556:Source\mbedtls_open\library/camellia.c ****                     size_t length,
 557:Source\mbedtls_open\library/camellia.c ****                     unsigned char iv[16],
 558:Source\mbedtls_open\library/camellia.c ****                     const unsigned char *input,
 559:Source\mbedtls_open\library/camellia.c ****                     unsigned char *output )
 560:Source\mbedtls_open\library/camellia.c **** {
 1538              		.loc 1 560 0
 1539              		.cfi_startproc
 1540              		@ args = 8, pretend = 0, frame = 24
 1541              		@ frame_needed = 0, uses_anonymous_args = 0
 1542              	.LVL150:
 1543 0000 F0B5     		push	{r4, r5, r6, r7, lr}
 1544              		.cfi_def_cfa_offset 20
 1545              		.cfi_offset 4, -20
 1546              		.cfi_offset 5, -16
 1547              		.cfi_offset 6, -12
 1548              		.cfi_offset 7, -8
 1549              		.cfi_offset 14, -4
 1550 0002 87B0     		sub	sp, sp, #28
 1551              		.cfi_def_cfa_offset 48
 1552 0004 0090     		str	r0, [sp]
 1553 0006 0191     		str	r1, [sp, #4]
 1554 0008 1500     		movs	r5, r2
 1555 000a 1F00     		movs	r7, r3
 1556 000c 0C9C     		ldr	r4, [sp, #48]
 1557 000e 0D9E     		ldr	r6, [sp, #52]
 561:Source\mbedtls_open\library/camellia.c ****     int i;
 562:Source\mbedtls_open\library/camellia.c ****     unsigned char temp[16];
 563:Source\mbedtls_open\library/camellia.c **** 
 564:Source\mbedtls_open\library/camellia.c ****     if( length % 16 )
 1558              		.loc 1 564 0
 1559 0010 1307     		lsls	r3, r2, #28
 1560 0012 3ED1     		bne	.L83
 1561              	.LVL151:
 565:Source\mbedtls_open\library/camellia.c ****         return( MBEDTLS_ERR_CAMELLIA_INVALID_INPUT_LENGTH );
 566:Source\mbedtls_open\library/camellia.c **** 
 567:Source\mbedtls_open\library/camellia.c ****     if( mode == MBEDTLS_CAMELLIA_DECRYPT )
 1562              		.loc 1 567 0
 1563 0014 0029     		cmp	r1, #0
 1564 0016 1DD0     		beq	.L76
 1565 0018 37E0     		b	.L77
 1566              	.LVL152:
 1567              	.L80:
 568:Source\mbedtls_open\library/camellia.c ****     {
 569:Source\mbedtls_open\library/camellia.c ****         while( length > 0 )
 570:Source\mbedtls_open\library/camellia.c ****         {
 571:Source\mbedtls_open\library/camellia.c ****             memcpy( temp, input, 16 );
 1568              		.loc 1 571 0
ARM GAS  C:\Users\Phuong\AppData\Local\Temp\ccZ7UQ35.s 			page 39


 1569 001a 1022     		movs	r2, #16
 1570 001c 2100     		movs	r1, r4
 1571 001e 02A8     		add	r0, sp, #8
 1572 0020 FFF7FEFF 		bl	memcpy
 1573              	.LVL153:
 572:Source\mbedtls_open\library/camellia.c ****             mbedtls_camellia_crypt_ecb( ctx, mode, input, output );
 1574              		.loc 1 572 0
 1575 0024 3300     		movs	r3, r6
 1576 0026 2200     		movs	r2, r4
 1577 0028 0199     		ldr	r1, [sp, #4]
 1578 002a 0098     		ldr	r0, [sp]
 1579 002c FFF7FEFF 		bl	mbedtls_camellia_crypt_ecb
 1580              	.LVL154:
 573:Source\mbedtls_open\library/camellia.c **** 
 574:Source\mbedtls_open\library/camellia.c ****             for( i = 0; i < 16; i++ )
 1581              		.loc 1 574 0
 1582 0030 0023     		movs	r3, #0
 1583 0032 05E0     		b	.L78
 1584              	.LVL155:
 1585              	.L79:
 575:Source\mbedtls_open\library/camellia.c ****                 output[i] = (unsigned char)( output[i] ^ iv[i] );
 1586              		.loc 1 575 0 discriminator 3
 1587 0034 F118     		adds	r1, r6, r3
 1588 0036 0878     		ldrb	r0, [r1]
 1589 0038 FA5C     		ldrb	r2, [r7, r3]
 1590 003a 4240     		eors	r2, r0
 1591 003c 0A70     		strb	r2, [r1]
 574:Source\mbedtls_open\library/camellia.c ****                 output[i] = (unsigned char)( output[i] ^ iv[i] );
 1592              		.loc 1 574 0 discriminator 3
 1593 003e 0133     		adds	r3, r3, #1
 1594              	.LVL156:
 1595              	.L78:
 574:Source\mbedtls_open\library/camellia.c ****                 output[i] = (unsigned char)( output[i] ^ iv[i] );
 1596              		.loc 1 574 0 is_stmt 0 discriminator 1
 1597 0040 0F2B     		cmp	r3, #15
 1598 0042 F7DD     		ble	.L79
 576:Source\mbedtls_open\library/camellia.c **** 
 577:Source\mbedtls_open\library/camellia.c ****             memcpy( iv, temp, 16 );
 1599              		.loc 1 577 0 is_stmt 1
 1600 0044 1022     		movs	r2, #16
 1601 0046 02A9     		add	r1, sp, #8
 1602 0048 3800     		movs	r0, r7
 1603 004a FFF7FEFF 		bl	memcpy
 1604              	.LVL157:
 578:Source\mbedtls_open\library/camellia.c **** 
 579:Source\mbedtls_open\library/camellia.c ****             input  += 16;
 1605              		.loc 1 579 0
 1606 004e 1034     		adds	r4, r4, #16
 1607              	.LVL158:
 580:Source\mbedtls_open\library/camellia.c ****             output += 16;
 1608              		.loc 1 580 0
 1609 0050 1036     		adds	r6, r6, #16
 1610              	.LVL159:
 581:Source\mbedtls_open\library/camellia.c ****             length -= 16;
 1611              		.loc 1 581 0
 1612 0052 103D     		subs	r5, r5, #16
 1613              	.LVL160:
ARM GAS  C:\Users\Phuong\AppData\Local\Temp\ccZ7UQ35.s 			page 40


 1614              	.L76:
 569:Source\mbedtls_open\library/camellia.c ****         {
 1615              		.loc 1 569 0
 1616 0054 002D     		cmp	r5, #0
 1617 0056 E0D1     		bne	.L80
 582:Source\mbedtls_open\library/camellia.c ****         }
 583:Source\mbedtls_open\library/camellia.c ****     }
 584:Source\mbedtls_open\library/camellia.c ****     else
 585:Source\mbedtls_open\library/camellia.c ****     {
 586:Source\mbedtls_open\library/camellia.c ****         while( length > 0 )
 587:Source\mbedtls_open\library/camellia.c ****         {
 588:Source\mbedtls_open\library/camellia.c ****             for( i = 0; i < 16; i++ )
 589:Source\mbedtls_open\library/camellia.c ****                 output[i] = (unsigned char)( input[i] ^ iv[i] );
 590:Source\mbedtls_open\library/camellia.c **** 
 591:Source\mbedtls_open\library/camellia.c ****             mbedtls_camellia_crypt_ecb( ctx, mode, output, output );
 592:Source\mbedtls_open\library/camellia.c ****             memcpy( iv, output, 16 );
 593:Source\mbedtls_open\library/camellia.c **** 
 594:Source\mbedtls_open\library/camellia.c ****             input  += 16;
 595:Source\mbedtls_open\library/camellia.c ****             output += 16;
 596:Source\mbedtls_open\library/camellia.c ****             length -= 16;
 597:Source\mbedtls_open\library/camellia.c ****         }
 598:Source\mbedtls_open\library/camellia.c ****     }
 599:Source\mbedtls_open\library/camellia.c **** 
 600:Source\mbedtls_open\library/camellia.c ****     return( 0 );
 1618              		.loc 1 600 0
 1619 0058 0020     		movs	r0, #0
 1620 005a 1CE0     		b	.L75
 1621              	.LVL161:
 1622              	.L81:
 589:Source\mbedtls_open\library/camellia.c **** 
 1623              		.loc 1 589 0 discriminator 3
 1624 005c E15C     		ldrb	r1, [r4, r3]
 1625 005e FA5C     		ldrb	r2, [r7, r3]
 1626 0060 4A40     		eors	r2, r1
 1627 0062 F254     		strb	r2, [r6, r3]
 588:Source\mbedtls_open\library/camellia.c ****                 output[i] = (unsigned char)( input[i] ^ iv[i] );
 1628              		.loc 1 588 0 discriminator 3
 1629 0064 0133     		adds	r3, r3, #1
 1630              	.LVL162:
 1631 0066 00E0     		b	.L82
 1632              	.LVL163:
 1633              	.L84:
 1634 0068 0023     		movs	r3, #0
 1635              	.L82:
 1636              	.LVL164:
 588:Source\mbedtls_open\library/camellia.c ****                 output[i] = (unsigned char)( input[i] ^ iv[i] );
 1637              		.loc 1 588 0 is_stmt 0 discriminator 1
 1638 006a 0F2B     		cmp	r3, #15
 1639 006c F6DD     		ble	.L81
 591:Source\mbedtls_open\library/camellia.c ****             memcpy( iv, output, 16 );
 1640              		.loc 1 591 0 is_stmt 1
 1641 006e 3300     		movs	r3, r6
 1642              	.LVL165:
 1643 0070 3200     		movs	r2, r6
 1644 0072 0199     		ldr	r1, [sp, #4]
 1645 0074 0098     		ldr	r0, [sp]
 1646 0076 FFF7FEFF 		bl	mbedtls_camellia_crypt_ecb
ARM GAS  C:\Users\Phuong\AppData\Local\Temp\ccZ7UQ35.s 			page 41


 1647              	.LVL166:
 592:Source\mbedtls_open\library/camellia.c **** 
 1648              		.loc 1 592 0
 1649 007a 1022     		movs	r2, #16
 1650 007c 3100     		movs	r1, r6
 1651 007e 3800     		movs	r0, r7
 1652 0080 FFF7FEFF 		bl	memcpy
 1653              	.LVL167:
 594:Source\mbedtls_open\library/camellia.c ****             output += 16;
 1654              		.loc 1 594 0
 1655 0084 1034     		adds	r4, r4, #16
 1656              	.LVL168:
 595:Source\mbedtls_open\library/camellia.c ****             length -= 16;
 1657              		.loc 1 595 0
 1658 0086 1036     		adds	r6, r6, #16
 1659              	.LVL169:
 596:Source\mbedtls_open\library/camellia.c ****         }
 1660              		.loc 1 596 0
 1661 0088 103D     		subs	r5, r5, #16
 1662              	.LVL170:
 1663              	.L77:
 586:Source\mbedtls_open\library/camellia.c ****         {
 1664              		.loc 1 586 0
 1665 008a 002D     		cmp	r5, #0
 1666 008c ECD1     		bne	.L84
 1667              		.loc 1 600 0
 1668 008e 0020     		movs	r0, #0
 1669 0090 01E0     		b	.L75
 1670              	.LVL171:
 1671              	.L83:
 565:Source\mbedtls_open\library/camellia.c **** 
 1672              		.loc 1 565 0
 1673 0092 2620     		movs	r0, #38
 1674              	.LVL172:
 1675 0094 4042     		rsbs	r0, r0, #0
 1676              	.LVL173:
 1677              	.L75:
 601:Source\mbedtls_open\library/camellia.c **** }
 1678              		.loc 1 601 0
 1679 0096 07B0     		add	sp, sp, #28
 1680              	.LVL174:
 1681              		@ sp needed
 1682              	.LVL175:
 1683              	.LVL176:
 1684 0098 F0BD     		pop	{r4, r5, r6, r7, pc}
 1685              		.cfi_endproc
 1686              	.LFE7:
 1687              		.size	mbedtls_camellia_crypt_cbc, .-mbedtls_camellia_crypt_cbc
 1688 009a C046     		.section	.text.mbedtls_camellia_crypt_cfb128,"ax",%progbits
 1689              		.align	2
 1690              		.global	mbedtls_camellia_crypt_cfb128
 1691              		.code	16
 1692              		.thumb_func
 1693              		.type	mbedtls_camellia_crypt_cfb128, %function
 1694              	mbedtls_camellia_crypt_cfb128:
 1695              	.LFB8:
 602:Source\mbedtls_open\library/camellia.c **** #endif /* MBEDTLS_CIPHER_MODE_CBC */
ARM GAS  C:\Users\Phuong\AppData\Local\Temp\ccZ7UQ35.s 			page 42


 603:Source\mbedtls_open\library/camellia.c **** 
 604:Source\mbedtls_open\library/camellia.c **** #if defined(MBEDTLS_CIPHER_MODE_CFB)
 605:Source\mbedtls_open\library/camellia.c **** /*
 606:Source\mbedtls_open\library/camellia.c ****  * Camellia-CFB128 buffer encryption/decryption
 607:Source\mbedtls_open\library/camellia.c ****  */
 608:Source\mbedtls_open\library/camellia.c **** int mbedtls_camellia_crypt_cfb128( mbedtls_camellia_context *ctx,
 609:Source\mbedtls_open\library/camellia.c ****                        int mode,
 610:Source\mbedtls_open\library/camellia.c ****                        size_t length,
 611:Source\mbedtls_open\library/camellia.c ****                        size_t *iv_off,
 612:Source\mbedtls_open\library/camellia.c ****                        unsigned char iv[16],
 613:Source\mbedtls_open\library/camellia.c ****                        const unsigned char *input,
 614:Source\mbedtls_open\library/camellia.c ****                        unsigned char *output )
 615:Source\mbedtls_open\library/camellia.c **** {
 1696              		.loc 1 615 0
 1697              		.cfi_startproc
 1698              		@ args = 12, pretend = 0, frame = 8
 1699              		@ frame_needed = 0, uses_anonymous_args = 0
 1700              	.LVL177:
 1701 0000 F0B5     		push	{r4, r5, r6, r7, lr}
 1702              		.cfi_def_cfa_offset 20
 1703              		.cfi_offset 4, -20
 1704              		.cfi_offset 5, -16
 1705              		.cfi_offset 6, -12
 1706              		.cfi_offset 7, -8
 1707              		.cfi_offset 14, -4
 1708 0002 4F46     		mov	r7, r9
 1709 0004 4646     		mov	r6, r8
 1710 0006 C0B4     		push	{r6, r7}
 1711              		.cfi_def_cfa_offset 28
 1712              		.cfi_offset 8, -28
 1713              		.cfi_offset 9, -24
 1714 0008 83B0     		sub	sp, sp, #12
 1715              		.cfi_def_cfa_offset 40
 1716 000a 0190     		str	r0, [sp, #4]
 1717 000c 9846     		mov	r8, r3
 1718 000e 0A9E     		ldr	r6, [sp, #40]
 1719 0010 0B9D     		ldr	r5, [sp, #44]
 1720 0012 0C9F     		ldr	r7, [sp, #48]
 616:Source\mbedtls_open\library/camellia.c ****     int c;
 617:Source\mbedtls_open\library/camellia.c ****     size_t n = *iv_off;
 1721              		.loc 1 617 0
 1722 0014 1C68     		ldr	r4, [r3]
 1723              	.LVL178:
 618:Source\mbedtls_open\library/camellia.c **** 
 619:Source\mbedtls_open\library/camellia.c ****     if( mode == MBEDTLS_CAMELLIA_DECRYPT )
 1724              		.loc 1 619 0
 1725 0016 0029     		cmp	r1, #0
 1726 0018 14D0     		beq	.L86
 1727 001a 2CE0     		b	.L87
 1728              	.LVL179:
 1729              	.L89:
 620:Source\mbedtls_open\library/camellia.c ****     {
 621:Source\mbedtls_open\library/camellia.c ****         while( length-- )
 622:Source\mbedtls_open\library/camellia.c ****         {
 623:Source\mbedtls_open\library/camellia.c ****             if( n == 0 )
 1730              		.loc 1 623 0
 1731 001c 002C     		cmp	r4, #0
ARM GAS  C:\Users\Phuong\AppData\Local\Temp\ccZ7UQ35.s 			page 43


 1732 001e 05D1     		bne	.L88
 624:Source\mbedtls_open\library/camellia.c ****                 mbedtls_camellia_crypt_ecb( ctx, MBEDTLS_CAMELLIA_ENCRYPT, iv, iv );
 1733              		.loc 1 624 0
 1734 0020 3300     		movs	r3, r6
 1735              	.LVL180:
 1736 0022 3200     		movs	r2, r6
 1737 0024 0121     		movs	r1, #1
 1738 0026 0198     		ldr	r0, [sp, #4]
 1739 0028 FFF7FEFF 		bl	mbedtls_camellia_crypt_ecb
 1740              	.LVL181:
 1741              	.L88:
 625:Source\mbedtls_open\library/camellia.c **** 
 626:Source\mbedtls_open\library/camellia.c ****             c = *input++;
 1742              		.loc 1 626 0
 1743 002c 2978     		ldrb	r1, [r5]
 1744              	.LVL182:
 627:Source\mbedtls_open\library/camellia.c ****             *output++ = (unsigned char)( c ^ iv[n] );
 1745              		.loc 1 627 0
 1746 002e 3219     		adds	r2, r6, r4
 1747 0030 1378     		ldrb	r3, [r2]
 1748 0032 4B40     		eors	r3, r1
 1749 0034 3B70     		strb	r3, [r7]
 628:Source\mbedtls_open\library/camellia.c ****             iv[n] = (unsigned char) c;
 1750              		.loc 1 628 0
 1751 0036 1170     		strb	r1, [r2]
 629:Source\mbedtls_open\library/camellia.c **** 
 630:Source\mbedtls_open\library/camellia.c ****             n = ( n + 1 ) & 0x0F;
 1752              		.loc 1 630 0
 1753 0038 0134     		adds	r4, r4, #1
 1754              	.LVL183:
 1755 003a 0F23     		movs	r3, #15
 1756 003c 1C40     		ands	r4, r3
 1757              	.LVL184:
 621:Source\mbedtls_open\library/camellia.c ****         {
 1758              		.loc 1 621 0
 1759 003e 4A46     		mov	r2, r9
 627:Source\mbedtls_open\library/camellia.c ****             iv[n] = (unsigned char) c;
 1760              		.loc 1 627 0
 1761 0040 0137     		adds	r7, r7, #1
 1762              	.LVL185:
 626:Source\mbedtls_open\library/camellia.c ****             *output++ = (unsigned char)( c ^ iv[n] );
 1763              		.loc 1 626 0
 1764 0042 0135     		adds	r5, r5, #1
 1765              	.LVL186:
 1766              	.L86:
 621:Source\mbedtls_open\library/camellia.c ****         {
 1767              		.loc 1 621 0
 1768 0044 531E     		subs	r3, r2, #1
 1769 0046 9946     		mov	r9, r3
 1770              	.LVL187:
 1771 0048 002A     		cmp	r2, #0
 1772 004a E7D1     		bne	.L89
 1773 004c 17E0     		b	.L90
 1774              	.L92:
 631:Source\mbedtls_open\library/camellia.c ****         }
 632:Source\mbedtls_open\library/camellia.c ****     }
 633:Source\mbedtls_open\library/camellia.c ****     else
ARM GAS  C:\Users\Phuong\AppData\Local\Temp\ccZ7UQ35.s 			page 44


 634:Source\mbedtls_open\library/camellia.c ****     {
 635:Source\mbedtls_open\library/camellia.c ****         while( length-- )
 636:Source\mbedtls_open\library/camellia.c ****         {
 637:Source\mbedtls_open\library/camellia.c ****             if( n == 0 )
 1775              		.loc 1 637 0
 1776 004e 002C     		cmp	r4, #0
 1777 0050 05D1     		bne	.L91
 638:Source\mbedtls_open\library/camellia.c ****                 mbedtls_camellia_crypt_ecb( ctx, MBEDTLS_CAMELLIA_ENCRYPT, iv, iv );
 1778              		.loc 1 638 0
 1779 0052 3300     		movs	r3, r6
 1780              	.LVL188:
 1781 0054 3200     		movs	r2, r6
 1782 0056 0121     		movs	r1, #1
 1783 0058 0198     		ldr	r0, [sp, #4]
 1784 005a FFF7FEFF 		bl	mbedtls_camellia_crypt_ecb
 1785              	.LVL189:
 1786              	.L91:
 639:Source\mbedtls_open\library/camellia.c **** 
 640:Source\mbedtls_open\library/camellia.c ****             iv[n] = *output++ = (unsigned char)( iv[n] ^ *input++ );
 1787              		.loc 1 640 0
 1788 005e 3219     		adds	r2, r6, r4
 1789 0060 1178     		ldrb	r1, [r2]
 1790              	.LVL190:
 1791 0062 2B78     		ldrb	r3, [r5]
 1792 0064 4B40     		eors	r3, r1
 1793 0066 3B70     		strb	r3, [r7]
 1794 0068 1370     		strb	r3, [r2]
 641:Source\mbedtls_open\library/camellia.c **** 
 642:Source\mbedtls_open\library/camellia.c ****             n = ( n + 1 ) & 0x0F;
 1795              		.loc 1 642 0
 1796 006a 0134     		adds	r4, r4, #1
 1797              	.LVL191:
 1798 006c 0F23     		movs	r3, #15
 1799 006e 1C40     		ands	r4, r3
 1800              	.LVL192:
 635:Source\mbedtls_open\library/camellia.c ****         {
 1801              		.loc 1 635 0
 1802 0070 4A46     		mov	r2, r9
 640:Source\mbedtls_open\library/camellia.c **** 
 1803              		.loc 1 640 0
 1804 0072 0137     		adds	r7, r7, #1
 1805              	.LVL193:
 1806 0074 0135     		adds	r5, r5, #1
 1807              	.LVL194:
 1808              	.L87:
 635:Source\mbedtls_open\library/camellia.c ****         {
 1809              		.loc 1 635 0
 1810 0076 531E     		subs	r3, r2, #1
 1811 0078 9946     		mov	r9, r3
 1812              	.LVL195:
 1813 007a 002A     		cmp	r2, #0
 1814 007c E7D1     		bne	.L92
 1815              	.L90:
 643:Source\mbedtls_open\library/camellia.c ****         }
 644:Source\mbedtls_open\library/camellia.c ****     }
 645:Source\mbedtls_open\library/camellia.c **** 
 646:Source\mbedtls_open\library/camellia.c ****     *iv_off = n;
ARM GAS  C:\Users\Phuong\AppData\Local\Temp\ccZ7UQ35.s 			page 45


 1816              		.loc 1 646 0
 1817 007e 4346     		mov	r3, r8
 1818              	.LVL196:
 1819 0080 1C60     		str	r4, [r3]
 647:Source\mbedtls_open\library/camellia.c **** 
 648:Source\mbedtls_open\library/camellia.c ****     return( 0 );
 649:Source\mbedtls_open\library/camellia.c **** }
 1820              		.loc 1 649 0
 1821 0082 0020     		movs	r0, #0
 1822 0084 03B0     		add	sp, sp, #12
 1823              		@ sp needed
 1824              	.LVL197:
 1825              	.LVL198:
 1826              	.LVL199:
 1827              	.LVL200:
 1828              	.LVL201:
 1829 0086 0CBC     		pop	{r2, r3}
 1830 0088 9046     		mov	r8, r2
 1831 008a 9946     		mov	r9, r3
 1832 008c F0BD     		pop	{r4, r5, r6, r7, pc}
 1833              		.cfi_endproc
 1834              	.LFE8:
 1835              		.size	mbedtls_camellia_crypt_cfb128, .-mbedtls_camellia_crypt_cfb128
 1836 008e C046     		.section	.text.mbedtls_camellia_crypt_ctr,"ax",%progbits
 1837              		.align	2
 1838              		.global	mbedtls_camellia_crypt_ctr
 1839              		.code	16
 1840              		.thumb_func
 1841              		.type	mbedtls_camellia_crypt_ctr, %function
 1842              	mbedtls_camellia_crypt_ctr:
 1843              	.LFB9:
 650:Source\mbedtls_open\library/camellia.c **** #endif /* MBEDTLS_CIPHER_MODE_CFB */
 651:Source\mbedtls_open\library/camellia.c **** 
 652:Source\mbedtls_open\library/camellia.c **** #if defined(MBEDTLS_CIPHER_MODE_CTR)
 653:Source\mbedtls_open\library/camellia.c **** /*
 654:Source\mbedtls_open\library/camellia.c ****  * Camellia-CTR buffer encryption/decryption
 655:Source\mbedtls_open\library/camellia.c ****  */
 656:Source\mbedtls_open\library/camellia.c **** int mbedtls_camellia_crypt_ctr( mbedtls_camellia_context *ctx,
 657:Source\mbedtls_open\library/camellia.c ****                        size_t length,
 658:Source\mbedtls_open\library/camellia.c ****                        size_t *nc_off,
 659:Source\mbedtls_open\library/camellia.c ****                        unsigned char nonce_counter[16],
 660:Source\mbedtls_open\library/camellia.c ****                        unsigned char stream_block[16],
 661:Source\mbedtls_open\library/camellia.c ****                        const unsigned char *input,
 662:Source\mbedtls_open\library/camellia.c ****                        unsigned char *output )
 663:Source\mbedtls_open\library/camellia.c **** {
 1844              		.loc 1 663 0
 1845              		.cfi_startproc
 1846              		@ args = 12, pretend = 0, frame = 8
 1847              		@ frame_needed = 0, uses_anonymous_args = 0
 1848              	.LVL202:
 1849 0000 F0B5     		push	{r4, r5, r6, r7, lr}
 1850              		.cfi_def_cfa_offset 20
 1851              		.cfi_offset 4, -20
 1852              		.cfi_offset 5, -16
 1853              		.cfi_offset 6, -12
 1854              		.cfi_offset 7, -8
 1855              		.cfi_offset 14, -4
ARM GAS  C:\Users\Phuong\AppData\Local\Temp\ccZ7UQ35.s 			page 46


 1856 0002 5746     		mov	r7, r10
 1857 0004 4E46     		mov	r6, r9
 1858 0006 4546     		mov	r5, r8
 1859 0008 E0B4     		push	{r5, r6, r7}
 1860              		.cfi_def_cfa_offset 32
 1861              		.cfi_offset 8, -32
 1862              		.cfi_offset 9, -28
 1863              		.cfi_offset 10, -24
 1864 000a 82B0     		sub	sp, sp, #8
 1865              		.cfi_def_cfa_offset 40
 1866 000c 0190     		str	r0, [sp, #4]
 1867 000e 9046     		mov	r8, r2
 1868 0010 1F00     		movs	r7, r3
 1869 0012 0A9B     		ldr	r3, [sp, #40]
 1870              	.LVL203:
 1871 0014 9A46     		mov	r10, r3
 1872 0016 0B9E     		ldr	r6, [sp, #44]
 1873 0018 0C9D     		ldr	r5, [sp, #48]
 664:Source\mbedtls_open\library/camellia.c ****     int c, i;
 665:Source\mbedtls_open\library/camellia.c ****     size_t n = *nc_off;
 1874              		.loc 1 665 0
 1875 001a 1468     		ldr	r4, [r2]
 1876              	.LVL204:
 666:Source\mbedtls_open\library/camellia.c **** 
 667:Source\mbedtls_open\library/camellia.c ****     while( length-- )
 1877              		.loc 1 667 0
 1878 001c 1FE0     		b	.L94
 1879              	.LVL205:
 1880              	.L98:
 668:Source\mbedtls_open\library/camellia.c ****     {
 669:Source\mbedtls_open\library/camellia.c ****         if( n == 0 ) {
 1881              		.loc 1 669 0
 1882 001e 002C     		cmp	r4, #0
 1883 0020 12D1     		bne	.L95
 670:Source\mbedtls_open\library/camellia.c ****             mbedtls_camellia_crypt_ecb( ctx, MBEDTLS_CAMELLIA_ENCRYPT, nonce_counter,
 1884              		.loc 1 670 0
 1885 0022 5346     		mov	r3, r10
 1886              	.LVL206:
 1887 0024 3A00     		movs	r2, r7
 1888 0026 0121     		movs	r1, #1
 1889 0028 0198     		ldr	r0, [sp, #4]
 1890 002a FFF7FEFF 		bl	mbedtls_camellia_crypt_ecb
 1891              	.LVL207:
 671:Source\mbedtls_open\library/camellia.c ****                                 stream_block );
 672:Source\mbedtls_open\library/camellia.c **** 
 673:Source\mbedtls_open\library/camellia.c ****             for( i = 16; i > 0; i-- )
 1892              		.loc 1 673 0
 1893 002e 1021     		movs	r1, #16
 1894 0030 08E0     		b	.L96
 1895              	.LVL208:
 1896              	.L97:
 674:Source\mbedtls_open\library/camellia.c ****                 if( ++nonce_counter[i - 1] != 0 )
 1897              		.loc 1 674 0
 1898 0032 4A1E     		subs	r2, r1, #1
 1899 0034 BA18     		adds	r2, r7, r2
 1900 0036 1378     		ldrb	r3, [r2]
 1901 0038 0133     		adds	r3, r3, #1
ARM GAS  C:\Users\Phuong\AppData\Local\Temp\ccZ7UQ35.s 			page 47


 1902 003a DBB2     		uxtb	r3, r3
 1903 003c 1370     		strb	r3, [r2]
 1904 003e 002B     		cmp	r3, #0
 1905 0040 02D1     		bne	.L95
 673:Source\mbedtls_open\library/camellia.c ****                 if( ++nonce_counter[i - 1] != 0 )
 1906              		.loc 1 673 0 discriminator 2
 1907 0042 0139     		subs	r1, r1, #1
 1908              	.LVL209:
 1909              	.L96:
 673:Source\mbedtls_open\library/camellia.c ****                 if( ++nonce_counter[i - 1] != 0 )
 1910              		.loc 1 673 0 is_stmt 0 discriminator 1
 1911 0044 0029     		cmp	r1, #0
 1912 0046 F4DC     		bgt	.L97
 1913              	.LVL210:
 1914              	.L95:
 675:Source\mbedtls_open\library/camellia.c ****                     break;
 676:Source\mbedtls_open\library/camellia.c ****         }
 677:Source\mbedtls_open\library/camellia.c ****         c = *input++;
 1915              		.loc 1 677 0 is_stmt 1
 1916 0048 3278     		ldrb	r2, [r6]
 1917              	.LVL211:
 678:Source\mbedtls_open\library/camellia.c ****         *output++ = (unsigned char)( c ^ stream_block[n] );
 1918              		.loc 1 678 0
 1919 004a 5346     		mov	r3, r10
 1920 004c 1B5D     		ldrb	r3, [r3, r4]
 1921 004e 5340     		eors	r3, r2
 1922 0050 2B70     		strb	r3, [r5]
 679:Source\mbedtls_open\library/camellia.c **** 
 680:Source\mbedtls_open\library/camellia.c ****         n = ( n + 1 ) & 0x0F;
 1923              		.loc 1 680 0
 1924 0052 0134     		adds	r4, r4, #1
 1925              	.LVL212:
 1926 0054 0F23     		movs	r3, #15
 1927 0056 1C40     		ands	r4, r3
 1928              	.LVL213:
 667:Source\mbedtls_open\library/camellia.c ****     {
 1929              		.loc 1 667 0
 1930 0058 4946     		mov	r1, r9
 678:Source\mbedtls_open\library/camellia.c ****         *output++ = (unsigned char)( c ^ stream_block[n] );
 1931              		.loc 1 678 0
 1932 005a 0135     		adds	r5, r5, #1
 1933              	.LVL214:
 677:Source\mbedtls_open\library/camellia.c ****         *output++ = (unsigned char)( c ^ stream_block[n] );
 1934              		.loc 1 677 0
 1935 005c 0136     		adds	r6, r6, #1
 1936              	.LVL215:
 1937              	.L94:
 667:Source\mbedtls_open\library/camellia.c ****     {
 1938              		.loc 1 667 0
 1939 005e 4B1E     		subs	r3, r1, #1
 1940 0060 9946     		mov	r9, r3
 1941              	.LVL216:
 1942 0062 0029     		cmp	r1, #0
 1943 0064 DBD1     		bne	.L98
 681:Source\mbedtls_open\library/camellia.c ****     }
 682:Source\mbedtls_open\library/camellia.c **** 
 683:Source\mbedtls_open\library/camellia.c ****     *nc_off = n;
ARM GAS  C:\Users\Phuong\AppData\Local\Temp\ccZ7UQ35.s 			page 48


 1944              		.loc 1 683 0
 1945 0066 4346     		mov	r3, r8
 1946              	.LVL217:
 1947 0068 1C60     		str	r4, [r3]
 684:Source\mbedtls_open\library/camellia.c **** 
 685:Source\mbedtls_open\library/camellia.c ****     return( 0 );
 686:Source\mbedtls_open\library/camellia.c **** }
 1948              		.loc 1 686 0
 1949 006a 0020     		movs	r0, #0
 1950 006c 02B0     		add	sp, sp, #8
 1951              		@ sp needed
 1952              	.LVL218:
 1953              	.LVL219:
 1954              	.LVL220:
 1955              	.LVL221:
 1956              	.LVL222:
 1957              	.LVL223:
 1958 006e 1CBC     		pop	{r2, r3, r4}
 1959 0070 9046     		mov	r8, r2
 1960 0072 9946     		mov	r9, r3
 1961 0074 A246     		mov	r10, r4
 1962 0076 F0BD     		pop	{r4, r5, r6, r7, pc}
 1963              		.cfi_endproc
 1964              	.LFE9:
 1965              		.size	mbedtls_camellia_crypt_ctr, .-mbedtls_camellia_crypt_ctr
 1966              		.section	.text.mbedtls_camellia_self_test,"ax",%progbits
 1967              		.align	2
 1968              		.global	mbedtls_camellia_self_test
 1969              		.code	16
 1970              		.thumb_func
 1971              		.type	mbedtls_camellia_self_test, %function
 1972              	mbedtls_camellia_self_test:
 1973              	.LFB10:
 687:Source\mbedtls_open\library/camellia.c **** #endif /* MBEDTLS_CIPHER_MODE_CTR */
 688:Source\mbedtls_open\library/camellia.c **** #endif /* !MBEDTLS_CAMELLIA_ALT */
 689:Source\mbedtls_open\library/camellia.c **** 
 690:Source\mbedtls_open\library/camellia.c **** #if defined(MBEDTLS_SELF_TEST)
 691:Source\mbedtls_open\library/camellia.c **** 
 692:Source\mbedtls_open\library/camellia.c **** /*
 693:Source\mbedtls_open\library/camellia.c ****  * Camellia test vectors from:
 694:Source\mbedtls_open\library/camellia.c ****  *
 695:Source\mbedtls_open\library/camellia.c ****  * http://info.isl.ntt.co.jp/crypt/eng/camellia/technology.html:
 696:Source\mbedtls_open\library/camellia.c ****  *   http://info.isl.ntt.co.jp/crypt/eng/camellia/dl/cryptrec/intermediate.txt
 697:Source\mbedtls_open\library/camellia.c ****  *   http://info.isl.ntt.co.jp/crypt/eng/camellia/dl/cryptrec/t_camellia.txt
 698:Source\mbedtls_open\library/camellia.c ****  *                      (For each bitlength: Key 0, Nr 39)
 699:Source\mbedtls_open\library/camellia.c ****  */
 700:Source\mbedtls_open\library/camellia.c **** #define CAMELLIA_TESTS_ECB  2
 701:Source\mbedtls_open\library/camellia.c **** 
 702:Source\mbedtls_open\library/camellia.c **** static const unsigned char camellia_test_ecb_key[3][CAMELLIA_TESTS_ECB][32] =
 703:Source\mbedtls_open\library/camellia.c **** {
 704:Source\mbedtls_open\library/camellia.c ****     {
 705:Source\mbedtls_open\library/camellia.c ****         { 0x01, 0x23, 0x45, 0x67, 0x89, 0xab, 0xcd, 0xef,
 706:Source\mbedtls_open\library/camellia.c ****           0xfe, 0xdc, 0xba, 0x98, 0x76, 0x54, 0x32, 0x10 },
 707:Source\mbedtls_open\library/camellia.c ****         { 0x00, 0x00, 0x00, 0x00, 0x00, 0x00, 0x00, 0x00,
 708:Source\mbedtls_open\library/camellia.c ****           0x00, 0x00, 0x00, 0x00, 0x00, 0x00, 0x00, 0x00 }
 709:Source\mbedtls_open\library/camellia.c ****     },
 710:Source\mbedtls_open\library/camellia.c ****     {
ARM GAS  C:\Users\Phuong\AppData\Local\Temp\ccZ7UQ35.s 			page 49


 711:Source\mbedtls_open\library/camellia.c ****         { 0x01, 0x23, 0x45, 0x67, 0x89, 0xab, 0xcd, 0xef,
 712:Source\mbedtls_open\library/camellia.c ****           0xfe, 0xdc, 0xba, 0x98, 0x76, 0x54, 0x32, 0x10,
 713:Source\mbedtls_open\library/camellia.c ****           0x00, 0x11, 0x22, 0x33, 0x44, 0x55, 0x66, 0x77 },
 714:Source\mbedtls_open\library/camellia.c ****         { 0x00, 0x00, 0x00, 0x00, 0x00, 0x00, 0x00, 0x00,
 715:Source\mbedtls_open\library/camellia.c ****           0x00, 0x00, 0x00, 0x00, 0x00, 0x00, 0x00, 0x00,
 716:Source\mbedtls_open\library/camellia.c ****           0x00, 0x00, 0x00, 0x00, 0x00, 0x00, 0x00, 0x00 }
 717:Source\mbedtls_open\library/camellia.c ****     },
 718:Source\mbedtls_open\library/camellia.c ****     {
 719:Source\mbedtls_open\library/camellia.c ****         { 0x01, 0x23, 0x45, 0x67, 0x89, 0xab, 0xcd, 0xef,
 720:Source\mbedtls_open\library/camellia.c ****           0xfe, 0xdc, 0xba, 0x98, 0x76, 0x54, 0x32, 0x10,
 721:Source\mbedtls_open\library/camellia.c ****           0x00, 0x11, 0x22, 0x33, 0x44, 0x55, 0x66, 0x77,
 722:Source\mbedtls_open\library/camellia.c ****           0x88, 0x99, 0xaa, 0xbb, 0xcc, 0xdd, 0xee, 0xff },
 723:Source\mbedtls_open\library/camellia.c ****         { 0x00, 0x00, 0x00, 0x00, 0x00, 0x00, 0x00, 0x00,
 724:Source\mbedtls_open\library/camellia.c ****           0x00, 0x00, 0x00, 0x00, 0x00, 0x00, 0x00, 0x00,
 725:Source\mbedtls_open\library/camellia.c ****           0x00, 0x00, 0x00, 0x00, 0x00, 0x00, 0x00, 0x00,
 726:Source\mbedtls_open\library/camellia.c ****           0x00, 0x00, 0x00, 0x00, 0x00, 0x00, 0x00, 0x00 }
 727:Source\mbedtls_open\library/camellia.c ****     },
 728:Source\mbedtls_open\library/camellia.c **** };
 729:Source\mbedtls_open\library/camellia.c **** 
 730:Source\mbedtls_open\library/camellia.c **** static const unsigned char camellia_test_ecb_plain[CAMELLIA_TESTS_ECB][16] =
 731:Source\mbedtls_open\library/camellia.c **** {
 732:Source\mbedtls_open\library/camellia.c ****     { 0x01, 0x23, 0x45, 0x67, 0x89, 0xab, 0xcd, 0xef,
 733:Source\mbedtls_open\library/camellia.c ****       0xfe, 0xdc, 0xba, 0x98, 0x76, 0x54, 0x32, 0x10 },
 734:Source\mbedtls_open\library/camellia.c ****     { 0x00, 0x00, 0x00, 0x00, 0x02, 0x00, 0x00, 0x00,
 735:Source\mbedtls_open\library/camellia.c ****       0x00, 0x00, 0x00, 0x00, 0x00, 0x00, 0x00, 0x00 }
 736:Source\mbedtls_open\library/camellia.c **** };
 737:Source\mbedtls_open\library/camellia.c **** 
 738:Source\mbedtls_open\library/camellia.c **** static const unsigned char camellia_test_ecb_cipher[3][CAMELLIA_TESTS_ECB][16] =
 739:Source\mbedtls_open\library/camellia.c **** {
 740:Source\mbedtls_open\library/camellia.c ****     {
 741:Source\mbedtls_open\library/camellia.c ****         { 0x67, 0x67, 0x31, 0x38, 0x54, 0x96, 0x69, 0x73,
 742:Source\mbedtls_open\library/camellia.c ****           0x08, 0x57, 0x06, 0x56, 0x48, 0xea, 0xbe, 0x43 },
 743:Source\mbedtls_open\library/camellia.c ****         { 0x38, 0x3C, 0x6C, 0x2A, 0xAB, 0xEF, 0x7F, 0xDE,
 744:Source\mbedtls_open\library/camellia.c ****           0x25, 0xCD, 0x47, 0x0B, 0xF7, 0x74, 0xA3, 0x31 }
 745:Source\mbedtls_open\library/camellia.c ****     },
 746:Source\mbedtls_open\library/camellia.c ****     {
 747:Source\mbedtls_open\library/camellia.c ****         { 0xb4, 0x99, 0x34, 0x01, 0xb3, 0xe9, 0x96, 0xf8,
 748:Source\mbedtls_open\library/camellia.c ****           0x4e, 0xe5, 0xce, 0xe7, 0xd7, 0x9b, 0x09, 0xb9 },
 749:Source\mbedtls_open\library/camellia.c ****         { 0xD1, 0x76, 0x3F, 0xC0, 0x19, 0xD7, 0x7C, 0xC9,
 750:Source\mbedtls_open\library/camellia.c ****           0x30, 0xBF, 0xF2, 0xA5, 0x6F, 0x7C, 0x93, 0x64 }
 751:Source\mbedtls_open\library/camellia.c ****     },
 752:Source\mbedtls_open\library/camellia.c ****     {
 753:Source\mbedtls_open\library/camellia.c ****         { 0x9a, 0xcc, 0x23, 0x7d, 0xff, 0x16, 0xd7, 0x6c,
 754:Source\mbedtls_open\library/camellia.c ****           0x20, 0xef, 0x7c, 0x91, 0x9e, 0x3a, 0x75, 0x09 },
 755:Source\mbedtls_open\library/camellia.c ****         { 0x05, 0x03, 0xFB, 0x10, 0xAB, 0x24, 0x1E, 0x7C,
 756:Source\mbedtls_open\library/camellia.c ****           0xF4, 0x5D, 0x8C, 0xDE, 0xEE, 0x47, 0x43, 0x35 }
 757:Source\mbedtls_open\library/camellia.c ****     }
 758:Source\mbedtls_open\library/camellia.c **** };
 759:Source\mbedtls_open\library/camellia.c **** 
 760:Source\mbedtls_open\library/camellia.c **** #if defined(MBEDTLS_CIPHER_MODE_CBC)
 761:Source\mbedtls_open\library/camellia.c **** #define CAMELLIA_TESTS_CBC  3
 762:Source\mbedtls_open\library/camellia.c **** 
 763:Source\mbedtls_open\library/camellia.c **** static const unsigned char camellia_test_cbc_key[3][32] =
 764:Source\mbedtls_open\library/camellia.c **** {
 765:Source\mbedtls_open\library/camellia.c ****         { 0x2B, 0x7E, 0x15, 0x16, 0x28, 0xAE, 0xD2, 0xA6,
 766:Source\mbedtls_open\library/camellia.c ****           0xAB, 0xF7, 0x15, 0x88, 0x09, 0xCF, 0x4F, 0x3C }
 767:Source\mbedtls_open\library/camellia.c ****     ,
ARM GAS  C:\Users\Phuong\AppData\Local\Temp\ccZ7UQ35.s 			page 50


 768:Source\mbedtls_open\library/camellia.c ****         { 0x8E, 0x73, 0xB0, 0xF7, 0xDA, 0x0E, 0x64, 0x52,
 769:Source\mbedtls_open\library/camellia.c ****           0xC8, 0x10, 0xF3, 0x2B, 0x80, 0x90, 0x79, 0xE5,
 770:Source\mbedtls_open\library/camellia.c ****           0x62, 0xF8, 0xEA, 0xD2, 0x52, 0x2C, 0x6B, 0x7B }
 771:Source\mbedtls_open\library/camellia.c ****     ,
 772:Source\mbedtls_open\library/camellia.c ****         { 0x60, 0x3D, 0xEB, 0x10, 0x15, 0xCA, 0x71, 0xBE,
 773:Source\mbedtls_open\library/camellia.c ****           0x2B, 0x73, 0xAE, 0xF0, 0x85, 0x7D, 0x77, 0x81,
 774:Source\mbedtls_open\library/camellia.c ****           0x1F, 0x35, 0x2C, 0x07, 0x3B, 0x61, 0x08, 0xD7,
 775:Source\mbedtls_open\library/camellia.c ****           0x2D, 0x98, 0x10, 0xA3, 0x09, 0x14, 0xDF, 0xF4 }
 776:Source\mbedtls_open\library/camellia.c **** };
 777:Source\mbedtls_open\library/camellia.c **** 
 778:Source\mbedtls_open\library/camellia.c **** static const unsigned char camellia_test_cbc_iv[16] =
 779:Source\mbedtls_open\library/camellia.c **** 
 780:Source\mbedtls_open\library/camellia.c ****     { 0x00, 0x01, 0x02, 0x03, 0x04, 0x05, 0x06, 0x07,
 781:Source\mbedtls_open\library/camellia.c ****       0x08, 0x09, 0x0A, 0x0B, 0x0C, 0x0D, 0x0E, 0x0F }
 782:Source\mbedtls_open\library/camellia.c **** ;
 783:Source\mbedtls_open\library/camellia.c **** 
 784:Source\mbedtls_open\library/camellia.c **** static const unsigned char camellia_test_cbc_plain[CAMELLIA_TESTS_CBC][16] =
 785:Source\mbedtls_open\library/camellia.c **** {
 786:Source\mbedtls_open\library/camellia.c ****     { 0x6B, 0xC1, 0xBE, 0xE2, 0x2E, 0x40, 0x9F, 0x96,
 787:Source\mbedtls_open\library/camellia.c ****       0xE9, 0x3D, 0x7E, 0x11, 0x73, 0x93, 0x17, 0x2A },
 788:Source\mbedtls_open\library/camellia.c ****     { 0xAE, 0x2D, 0x8A, 0x57, 0x1E, 0x03, 0xAC, 0x9C,
 789:Source\mbedtls_open\library/camellia.c ****       0x9E, 0xB7, 0x6F, 0xAC, 0x45, 0xAF, 0x8E, 0x51 },
 790:Source\mbedtls_open\library/camellia.c ****     { 0x30, 0xC8, 0x1C, 0x46, 0xA3, 0x5C, 0xE4, 0x11,
 791:Source\mbedtls_open\library/camellia.c ****       0xE5, 0xFB, 0xC1, 0x19, 0x1A, 0x0A, 0x52, 0xEF }
 792:Source\mbedtls_open\library/camellia.c **** 
 793:Source\mbedtls_open\library/camellia.c **** };
 794:Source\mbedtls_open\library/camellia.c **** 
 795:Source\mbedtls_open\library/camellia.c **** static const unsigned char camellia_test_cbc_cipher[3][CAMELLIA_TESTS_CBC][16] =
 796:Source\mbedtls_open\library/camellia.c **** {
 797:Source\mbedtls_open\library/camellia.c ****     {
 798:Source\mbedtls_open\library/camellia.c ****         { 0x16, 0x07, 0xCF, 0x49, 0x4B, 0x36, 0xBB, 0xF0,
 799:Source\mbedtls_open\library/camellia.c ****           0x0D, 0xAE, 0xB0, 0xB5, 0x03, 0xC8, 0x31, 0xAB },
 800:Source\mbedtls_open\library/camellia.c ****         { 0xA2, 0xF2, 0xCF, 0x67, 0x16, 0x29, 0xEF, 0x78,
 801:Source\mbedtls_open\library/camellia.c ****           0x40, 0xC5, 0xA5, 0xDF, 0xB5, 0x07, 0x48, 0x87 },
 802:Source\mbedtls_open\library/camellia.c ****         { 0x0F, 0x06, 0x16, 0x50, 0x08, 0xCF, 0x8B, 0x8B,
 803:Source\mbedtls_open\library/camellia.c ****           0x5A, 0x63, 0x58, 0x63, 0x62, 0x54, 0x3E, 0x54 }
 804:Source\mbedtls_open\library/camellia.c ****     },
 805:Source\mbedtls_open\library/camellia.c ****     {
 806:Source\mbedtls_open\library/camellia.c ****         { 0x2A, 0x48, 0x30, 0xAB, 0x5A, 0xC4, 0xA1, 0xA2,
 807:Source\mbedtls_open\library/camellia.c ****           0x40, 0x59, 0x55, 0xFD, 0x21, 0x95, 0xCF, 0x93 },
 808:Source\mbedtls_open\library/camellia.c ****         { 0x5D, 0x5A, 0x86, 0x9B, 0xD1, 0x4C, 0xE5, 0x42,
 809:Source\mbedtls_open\library/camellia.c ****           0x64, 0xF8, 0x92, 0xA6, 0xDD, 0x2E, 0xC3, 0xD5 },
 810:Source\mbedtls_open\library/camellia.c ****         { 0x37, 0xD3, 0x59, 0xC3, 0x34, 0x98, 0x36, 0xD8,
 811:Source\mbedtls_open\library/camellia.c ****           0x84, 0xE3, 0x10, 0xAD, 0xDF, 0x68, 0xC4, 0x49 }
 812:Source\mbedtls_open\library/camellia.c ****     },
 813:Source\mbedtls_open\library/camellia.c ****     {
 814:Source\mbedtls_open\library/camellia.c ****         { 0xE6, 0xCF, 0xA3, 0x5F, 0xC0, 0x2B, 0x13, 0x4A,
 815:Source\mbedtls_open\library/camellia.c ****           0x4D, 0x2C, 0x0B, 0x67, 0x37, 0xAC, 0x3E, 0xDA },
 816:Source\mbedtls_open\library/camellia.c ****         { 0x36, 0xCB, 0xEB, 0x73, 0xBD, 0x50, 0x4B, 0x40,
 817:Source\mbedtls_open\library/camellia.c ****           0x70, 0xB1, 0xB7, 0xDE, 0x2B, 0x21, 0xEB, 0x50 },
 818:Source\mbedtls_open\library/camellia.c ****         { 0xE3, 0x1A, 0x60, 0x55, 0x29, 0x7D, 0x96, 0xCA,
 819:Source\mbedtls_open\library/camellia.c ****           0x33, 0x30, 0xCD, 0xF1, 0xB1, 0x86, 0x0A, 0x83 }
 820:Source\mbedtls_open\library/camellia.c ****     }
 821:Source\mbedtls_open\library/camellia.c **** };
 822:Source\mbedtls_open\library/camellia.c **** #endif /* MBEDTLS_CIPHER_MODE_CBC */
 823:Source\mbedtls_open\library/camellia.c **** 
 824:Source\mbedtls_open\library/camellia.c **** #if defined(MBEDTLS_CIPHER_MODE_CTR)
ARM GAS  C:\Users\Phuong\AppData\Local\Temp\ccZ7UQ35.s 			page 51


 825:Source\mbedtls_open\library/camellia.c **** /*
 826:Source\mbedtls_open\library/camellia.c ****  * Camellia-CTR test vectors from:
 827:Source\mbedtls_open\library/camellia.c ****  *
 828:Source\mbedtls_open\library/camellia.c ****  * http://www.faqs.org/rfcs/rfc5528.html
 829:Source\mbedtls_open\library/camellia.c ****  */
 830:Source\mbedtls_open\library/camellia.c **** 
 831:Source\mbedtls_open\library/camellia.c **** static const unsigned char camellia_test_ctr_key[3][16] =
 832:Source\mbedtls_open\library/camellia.c **** {
 833:Source\mbedtls_open\library/camellia.c ****     { 0xAE, 0x68, 0x52, 0xF8, 0x12, 0x10, 0x67, 0xCC,
 834:Source\mbedtls_open\library/camellia.c ****       0x4B, 0xF7, 0xA5, 0x76, 0x55, 0x77, 0xF3, 0x9E },
 835:Source\mbedtls_open\library/camellia.c ****     { 0x7E, 0x24, 0x06, 0x78, 0x17, 0xFA, 0xE0, 0xD7,
 836:Source\mbedtls_open\library/camellia.c ****       0x43, 0xD6, 0xCE, 0x1F, 0x32, 0x53, 0x91, 0x63 },
 837:Source\mbedtls_open\library/camellia.c ****     { 0x76, 0x91, 0xBE, 0x03, 0x5E, 0x50, 0x20, 0xA8,
 838:Source\mbedtls_open\library/camellia.c ****       0xAC, 0x6E, 0x61, 0x85, 0x29, 0xF9, 0xA0, 0xDC }
 839:Source\mbedtls_open\library/camellia.c **** };
 840:Source\mbedtls_open\library/camellia.c **** 
 841:Source\mbedtls_open\library/camellia.c **** static const unsigned char camellia_test_ctr_nonce_counter[3][16] =
 842:Source\mbedtls_open\library/camellia.c **** {
 843:Source\mbedtls_open\library/camellia.c ****     { 0x00, 0x00, 0x00, 0x30, 0x00, 0x00, 0x00, 0x00,
 844:Source\mbedtls_open\library/camellia.c ****       0x00, 0x00, 0x00, 0x00, 0x00, 0x00, 0x00, 0x01 },
 845:Source\mbedtls_open\library/camellia.c ****     { 0x00, 0x6C, 0xB6, 0xDB, 0xC0, 0x54, 0x3B, 0x59,
 846:Source\mbedtls_open\library/camellia.c ****       0xDA, 0x48, 0xD9, 0x0B, 0x00, 0x00, 0x00, 0x01 },
 847:Source\mbedtls_open\library/camellia.c ****     { 0x00, 0xE0, 0x01, 0x7B, 0x27, 0x77, 0x7F, 0x3F,
 848:Source\mbedtls_open\library/camellia.c ****       0x4A, 0x17, 0x86, 0xF0, 0x00, 0x00, 0x00, 0x01 }
 849:Source\mbedtls_open\library/camellia.c **** };
 850:Source\mbedtls_open\library/camellia.c **** 
 851:Source\mbedtls_open\library/camellia.c **** static const unsigned char camellia_test_ctr_pt[3][48] =
 852:Source\mbedtls_open\library/camellia.c **** {
 853:Source\mbedtls_open\library/camellia.c ****     { 0x53, 0x69, 0x6E, 0x67, 0x6C, 0x65, 0x20, 0x62,
 854:Source\mbedtls_open\library/camellia.c ****       0x6C, 0x6F, 0x63, 0x6B, 0x20, 0x6D, 0x73, 0x67 },
 855:Source\mbedtls_open\library/camellia.c **** 
 856:Source\mbedtls_open\library/camellia.c ****     { 0x00, 0x01, 0x02, 0x03, 0x04, 0x05, 0x06, 0x07,
 857:Source\mbedtls_open\library/camellia.c ****       0x08, 0x09, 0x0A, 0x0B, 0x0C, 0x0D, 0x0E, 0x0F,
 858:Source\mbedtls_open\library/camellia.c ****       0x10, 0x11, 0x12, 0x13, 0x14, 0x15, 0x16, 0x17,
 859:Source\mbedtls_open\library/camellia.c ****       0x18, 0x19, 0x1A, 0x1B, 0x1C, 0x1D, 0x1E, 0x1F },
 860:Source\mbedtls_open\library/camellia.c **** 
 861:Source\mbedtls_open\library/camellia.c ****     { 0x00, 0x01, 0x02, 0x03, 0x04, 0x05, 0x06, 0x07,
 862:Source\mbedtls_open\library/camellia.c ****       0x08, 0x09, 0x0A, 0x0B, 0x0C, 0x0D, 0x0E, 0x0F,
 863:Source\mbedtls_open\library/camellia.c ****       0x10, 0x11, 0x12, 0x13, 0x14, 0x15, 0x16, 0x17,
 864:Source\mbedtls_open\library/camellia.c ****       0x18, 0x19, 0x1A, 0x1B, 0x1C, 0x1D, 0x1E, 0x1F,
 865:Source\mbedtls_open\library/camellia.c ****       0x20, 0x21, 0x22, 0x23 }
 866:Source\mbedtls_open\library/camellia.c **** };
 867:Source\mbedtls_open\library/camellia.c **** 
 868:Source\mbedtls_open\library/camellia.c **** static const unsigned char camellia_test_ctr_ct[3][48] =
 869:Source\mbedtls_open\library/camellia.c **** {
 870:Source\mbedtls_open\library/camellia.c ****     { 0xD0, 0x9D, 0xC2, 0x9A, 0x82, 0x14, 0x61, 0x9A,
 871:Source\mbedtls_open\library/camellia.c ****       0x20, 0x87, 0x7C, 0x76, 0xDB, 0x1F, 0x0B, 0x3F },
 872:Source\mbedtls_open\library/camellia.c ****     { 0xDB, 0xF3, 0xC7, 0x8D, 0xC0, 0x83, 0x96, 0xD4,
 873:Source\mbedtls_open\library/camellia.c ****       0xDA, 0x7C, 0x90, 0x77, 0x65, 0xBB, 0xCB, 0x44,
 874:Source\mbedtls_open\library/camellia.c ****       0x2B, 0x8E, 0x8E, 0x0F, 0x31, 0xF0, 0xDC, 0xA7,
 875:Source\mbedtls_open\library/camellia.c ****       0x2C, 0x74, 0x17, 0xE3, 0x53, 0x60, 0xE0, 0x48 },
 876:Source\mbedtls_open\library/camellia.c ****     { 0xB1, 0x9D, 0x1F, 0xCD, 0xCB, 0x75, 0xEB, 0x88,
 877:Source\mbedtls_open\library/camellia.c ****       0x2F, 0x84, 0x9C, 0xE2, 0x4D, 0x85, 0xCF, 0x73,
 878:Source\mbedtls_open\library/camellia.c ****       0x9C, 0xE6, 0x4B, 0x2B, 0x5C, 0x9D, 0x73, 0xF1,
 879:Source\mbedtls_open\library/camellia.c ****       0x4F, 0x2D, 0x5D, 0x9D, 0xCE, 0x98, 0x89, 0xCD,
 880:Source\mbedtls_open\library/camellia.c ****       0xDF, 0x50, 0x86, 0x96 }
 881:Source\mbedtls_open\library/camellia.c **** };
ARM GAS  C:\Users\Phuong\AppData\Local\Temp\ccZ7UQ35.s 			page 52


 882:Source\mbedtls_open\library/camellia.c **** 
 883:Source\mbedtls_open\library/camellia.c **** static const int camellia_test_ctr_len[3] =
 884:Source\mbedtls_open\library/camellia.c ****     { 16, 32, 36 };
 885:Source\mbedtls_open\library/camellia.c **** #endif /* MBEDTLS_CIPHER_MODE_CTR */
 886:Source\mbedtls_open\library/camellia.c **** 
 887:Source\mbedtls_open\library/camellia.c **** /*
 888:Source\mbedtls_open\library/camellia.c ****  * Checkup routine
 889:Source\mbedtls_open\library/camellia.c ****  */
 890:Source\mbedtls_open\library/camellia.c **** int mbedtls_camellia_self_test( int verbose )
 891:Source\mbedtls_open\library/camellia.c **** {
 1974              		.loc 1 891 0
 1975              		.cfi_startproc
 1976              		@ args = 0, pretend = 0, frame = 456
 1977              		@ frame_needed = 0, uses_anonymous_args = 0
 1978              	.LVL224:
 1979 0000 F0B5     		push	{r4, r5, r6, r7, lr}
 1980              		.cfi_def_cfa_offset 20
 1981              		.cfi_offset 4, -20
 1982              		.cfi_offset 5, -16
 1983              		.cfi_offset 6, -12
 1984              		.cfi_offset 7, -8
 1985              		.cfi_offset 14, -4
 1986 0002 5746     		mov	r7, r10
 1987 0004 4E46     		mov	r6, r9
 1988 0006 4546     		mov	r5, r8
 1989 0008 E0B4     		push	{r5, r6, r7}
 1990              		.cfi_def_cfa_offset 32
 1991              		.cfi_offset 8, -32
 1992              		.cfi_offset 9, -28
 1993              		.cfi_offset 10, -24
 1994 000a F6B0     		sub	sp, sp, #472
 1995              		.cfi_def_cfa_offset 504
 1996 000c 8046     		mov	r8, r0
 892:Source\mbedtls_open\library/camellia.c ****     int i, j, u, v;
 893:Source\mbedtls_open\library/camellia.c ****     unsigned char key[32];
 894:Source\mbedtls_open\library/camellia.c ****     unsigned char buf[64];
 895:Source\mbedtls_open\library/camellia.c ****     unsigned char src[16];
 896:Source\mbedtls_open\library/camellia.c ****     unsigned char dst[16];
 897:Source\mbedtls_open\library/camellia.c **** #if defined(MBEDTLS_CIPHER_MODE_CBC)
 898:Source\mbedtls_open\library/camellia.c ****     unsigned char iv[16];
 899:Source\mbedtls_open\library/camellia.c **** #endif
 900:Source\mbedtls_open\library/camellia.c **** #if defined(MBEDTLS_CIPHER_MODE_CTR)
 901:Source\mbedtls_open\library/camellia.c ****     size_t offset, len;
 902:Source\mbedtls_open\library/camellia.c ****     unsigned char nonce_counter[16];
 903:Source\mbedtls_open\library/camellia.c ****     unsigned char stream_block[16];
 904:Source\mbedtls_open\library/camellia.c **** #endif
 905:Source\mbedtls_open\library/camellia.c **** 
 906:Source\mbedtls_open\library/camellia.c ****     mbedtls_camellia_context ctx;
 907:Source\mbedtls_open\library/camellia.c **** 
 908:Source\mbedtls_open\library/camellia.c ****     memset( key, 0, 32 );
 1997              		.loc 1 908 0
 1998 000e 2022     		movs	r2, #32
 1999 0010 0021     		movs	r1, #0
 2000 0012 6EA8     		add	r0, sp, #440
 2001              	.LVL225:
 2002 0014 FFF7FEFF 		bl	memset
 2003              	.LVL226:
ARM GAS  C:\Users\Phuong\AppData\Local\Temp\ccZ7UQ35.s 			page 53


 909:Source\mbedtls_open\library/camellia.c **** 
 910:Source\mbedtls_open\library/camellia.c ****     for( j = 0; j < 6; j++ ) {
 2004              		.loc 1 910 0
 2005 0018 0023     		movs	r3, #0
 2006 001a 9A46     		mov	r10, r3
 2007 001c 7BE0     		b	.L100
 2008              	.LVL227:
 2009              	.L110:
 911:Source\mbedtls_open\library/camellia.c ****         u = j >> 1;
 2010              		.loc 1 911 0
 2011 001e 5346     		mov	r3, r10
 2012              	.LVL228:
 2013 0020 5E10     		asrs	r6, r3, #1
 2014              	.LVL229:
 912:Source\mbedtls_open\library/camellia.c ****     v = j & 1;
 2015              		.loc 1 912 0
 2016 0022 0125     		movs	r5, #1
 2017 0024 1D40     		ands	r5, r3
 2018              	.LVL230:
 913:Source\mbedtls_open\library/camellia.c **** 
 914:Source\mbedtls_open\library/camellia.c ****     if( verbose != 0 )
 2019              		.loc 1 914 0
 2020 0026 4346     		mov	r3, r8
 2021 0028 002B     		cmp	r3, #0
 2022 002a 09D0     		beq	.L101
 2023              	.LVL231:
 915:Source\mbedtls_open\library/camellia.c ****         mbedtls_printf( "  CAMELLIA-ECB-%3d (%s): ", 128 + u * 64,
 2024              		.loc 1 915 0
 2025 002c B11C     		adds	r1, r6, #2
 2026 002e 8901     		lsls	r1, r1, #6
 2027 0030 002D     		cmp	r5, #0
 2028 0032 01D1     		bne	.L132
 2029 0034 D44A     		ldr	r2, .L140
 2030 0036 00E0     		b	.L102
 2031              	.L132:
 2032 0038 D44A     		ldr	r2, .L140+4
 2033              	.L102:
 2034              		.loc 1 915 0 is_stmt 0 discriminator 4
 2035 003a D548     		ldr	r0, .L140+8
 2036 003c FFF7FEFF 		bl	printf
 2037              	.LVL232:
 2038              	.L101:
 2039              		.loc 1 915 0 discriminator 1
 2040 0040 0024     		movs	r4, #0
 2041 0042 5DE0     		b	.L103
 2042              	.LVL233:
 2043              	.L108:
 916:Source\mbedtls_open\library/camellia.c ****                          (v == MBEDTLS_CAMELLIA_DECRYPT) ? "dec" : "enc");
 917:Source\mbedtls_open\library/camellia.c **** 
 918:Source\mbedtls_open\library/camellia.c ****     for( i = 0; i < CAMELLIA_TESTS_ECB; i++ ) {
 919:Source\mbedtls_open\library/camellia.c ****         memcpy( key, camellia_test_ecb_key[u][i], 16 + 8 * u );
 2044              		.loc 1 919 0 is_stmt 1
 2045 0044 7100     		lsls	r1, r6, #1
 2046 0046 0919     		adds	r1, r1, r4
 2047 0048 4B01     		lsls	r3, r1, #5
 2048 004a D249     		ldr	r1, .L140+12
 2049 004c 1831     		adds	r1, r1, #24
ARM GAS  C:\Users\Phuong\AppData\Local\Temp\ccZ7UQ35.s 			page 54


 2050 004e C918     		adds	r1, r1, r3
 2051 0050 B31C     		adds	r3, r6, #2
 2052 0052 9946     		mov	r9, r3
 2053 0054 DA00     		lsls	r2, r3, #3
 2054 0056 6EA8     		add	r0, sp, #440
 2055 0058 FFF7FEFF 		bl	memcpy
 2056              	.LVL234:
 920:Source\mbedtls_open\library/camellia.c **** 
 921:Source\mbedtls_open\library/camellia.c ****         if( v == MBEDTLS_CAMELLIA_DECRYPT ) {
 2057              		.loc 1 921 0
 2058 005c 002D     		cmp	r5, #0
 2059 005e 1CD1     		bne	.L104
 922:Source\mbedtls_open\library/camellia.c ****             mbedtls_camellia_setkey_dec( &ctx, key, 128 + u * 64 );
 2060              		.loc 1 922 0
 2061 0060 4B46     		mov	r3, r9
 2062 0062 9A01     		lsls	r2, r3, #6
 2063 0064 6EA9     		add	r1, sp, #440
 2064 0066 04A8     		add	r0, sp, #16
 2065 0068 FFF7FEFF 		bl	mbedtls_camellia_setkey_dec
 2066              	.LVL235:
 923:Source\mbedtls_open\library/camellia.c ****             memcpy( src, camellia_test_ecb_cipher[u][i], 16 );
 2067              		.loc 1 923 0
 2068 006c 5AAA     		add	r2, sp, #360
 2069 006e 7300     		lsls	r3, r6, #1
 2070 0070 1B19     		adds	r3, r3, r4
 2071 0072 1B01     		lsls	r3, r3, #4
 2072 0074 C849     		ldr	r1, .L140+16
 2073 0076 CB18     		adds	r3, r1, r3
 2074 0078 5833     		adds	r3, r3, #88
 2075 007a 83CB     		ldmia	r3!, {r0, r1, r7}
 2076 007c 83C2     		stmia	r2!, {r0, r1, r7}
 2077 007e 1B68     		ldr	r3, [r3]
 2078 0080 1360     		str	r3, [r2]
 924:Source\mbedtls_open\library/camellia.c ****             memcpy( dst, camellia_test_ecb_plain[i], 16 );
 2079              		.loc 1 924 0
 2080 0082 56A9     		add	r1, sp, #344
 2081 0084 2201     		lsls	r2, r4, #4
 2082 0086 C54B     		ldr	r3, .L140+20
 2083 0088 9A18     		adds	r2, r3, r2
 2084 008a 1300     		movs	r3, r2
 2085 008c 3833     		adds	r3, r3, #56
 2086 008e 0A00     		movs	r2, r1
 2087 0090 83CB     		ldmia	r3!, {r0, r1, r7}
 2088 0092 83C2     		stmia	r2!, {r0, r1, r7}
 2089 0094 1B68     		ldr	r3, [r3]
 2090 0096 1360     		str	r3, [r2]
 2091 0098 1BE0     		b	.L105
 2092              	.L104:
 925:Source\mbedtls_open\library/camellia.c ****         } else { /* MBEDTLS_CAMELLIA_ENCRYPT */
 926:Source\mbedtls_open\library/camellia.c ****             mbedtls_camellia_setkey_enc( &ctx, key, 128 + u * 64 );
 2093              		.loc 1 926 0
 2094 009a 4B46     		mov	r3, r9
 2095 009c 9A01     		lsls	r2, r3, #6
 2096 009e 6EA9     		add	r1, sp, #440
 2097 00a0 04A8     		add	r0, sp, #16
 2098 00a2 FFF7FEFF 		bl	mbedtls_camellia_setkey_enc
 2099              	.LVL236:
ARM GAS  C:\Users\Phuong\AppData\Local\Temp\ccZ7UQ35.s 			page 55


 927:Source\mbedtls_open\library/camellia.c ****             memcpy( src, camellia_test_ecb_plain[i], 16 );
 2100              		.loc 1 927 0
 2101 00a6 5AA9     		add	r1, sp, #360
 2102 00a8 2201     		lsls	r2, r4, #4
 2103 00aa BC4B     		ldr	r3, .L140+20
 2104 00ac 9A18     		adds	r2, r3, r2
 2105 00ae 1300     		movs	r3, r2
 2106 00b0 3833     		adds	r3, r3, #56
 2107 00b2 0A00     		movs	r2, r1
 2108 00b4 83CB     		ldmia	r3!, {r0, r1, r7}
 2109 00b6 83C2     		stmia	r2!, {r0, r1, r7}
 2110 00b8 1B68     		ldr	r3, [r3]
 2111 00ba 1360     		str	r3, [r2]
 928:Source\mbedtls_open\library/camellia.c ****             memcpy( dst, camellia_test_ecb_cipher[u][i], 16 );
 2112              		.loc 1 928 0
 2113 00bc 56AA     		add	r2, sp, #344
 2114 00be 7300     		lsls	r3, r6, #1
 2115 00c0 1B19     		adds	r3, r3, r4
 2116 00c2 1B01     		lsls	r3, r3, #4
 2117 00c4 B449     		ldr	r1, .L140+16
 2118 00c6 CB18     		adds	r3, r1, r3
 2119 00c8 5833     		adds	r3, r3, #88
 2120 00ca 83CB     		ldmia	r3!, {r0, r1, r7}
 2121 00cc 83C2     		stmia	r2!, {r0, r1, r7}
 2122 00ce 1B68     		ldr	r3, [r3]
 2123 00d0 1360     		str	r3, [r2]
 2124              	.L105:
 929:Source\mbedtls_open\library/camellia.c ****         }
 930:Source\mbedtls_open\library/camellia.c **** 
 931:Source\mbedtls_open\library/camellia.c ****         mbedtls_camellia_crypt_ecb( &ctx, v, src, buf );
 2125              		.loc 1 931 0
 2126 00d2 5EAB     		add	r3, sp, #376
 2127 00d4 5AAA     		add	r2, sp, #360
 2128 00d6 2900     		movs	r1, r5
 2129 00d8 04A8     		add	r0, sp, #16
 2130 00da FFF7FEFF 		bl	mbedtls_camellia_crypt_ecb
 2131              	.LVL237:
 932:Source\mbedtls_open\library/camellia.c **** 
 933:Source\mbedtls_open\library/camellia.c ****         if( memcmp( buf, dst, 16 ) != 0 )
 2132              		.loc 1 933 0
 2133 00de 1022     		movs	r2, #16
 2134 00e0 56A9     		add	r1, sp, #344
 2135 00e2 5EA8     		add	r0, sp, #376
 2136 00e4 FFF7FEFF 		bl	memcmp
 2137              	.LVL238:
 2138 00e8 0028     		cmp	r0, #0
 2139 00ea 08D0     		beq	.L106
 934:Source\mbedtls_open\library/camellia.c ****         {
 935:Source\mbedtls_open\library/camellia.c ****             if( verbose != 0 )
 2140              		.loc 1 935 0
 2141 00ec 4346     		mov	r3, r8
 2142 00ee 002B     		cmp	r3, #0
 2143 00f0 00D1     		bne	.LCB2384
 2144 00f2 7AE1     		b	.L133	@long jump
 2145              	.LCB2384:
 2146              	.LVL239:
 936:Source\mbedtls_open\library/camellia.c ****                 mbedtls_printf( "failed\n" );
ARM GAS  C:\Users\Phuong\AppData\Local\Temp\ccZ7UQ35.s 			page 56


 2147              		.loc 1 936 0
 2148 00f4 AA48     		ldr	r0, .L140+24
 2149 00f6 FFF7FEFF 		bl	puts
 2150              	.LVL240:
 937:Source\mbedtls_open\library/camellia.c **** 
 938:Source\mbedtls_open\library/camellia.c ****             return( 1 );
 2151              		.loc 1 938 0
 2152 00fa 0120     		movs	r0, #1
 2153 00fc 7EE1     		b	.L107
 2154              	.L106:
 918:Source\mbedtls_open\library/camellia.c ****         memcpy( key, camellia_test_ecb_key[u][i], 16 + 8 * u );
 2155              		.loc 1 918 0 discriminator 2
 2156 00fe 0134     		adds	r4, r4, #1
 2157              	.LVL241:
 2158              	.L103:
 918:Source\mbedtls_open\library/camellia.c ****         memcpy( key, camellia_test_ecb_key[u][i], 16 + 8 * u );
 2159              		.loc 1 918 0 is_stmt 0 discriminator 1
 2160 0100 012C     		cmp	r4, #1
 2161 0102 9FDD     		ble	.L108
 939:Source\mbedtls_open\library/camellia.c ****         }
 940:Source\mbedtls_open\library/camellia.c ****     }
 941:Source\mbedtls_open\library/camellia.c **** 
 942:Source\mbedtls_open\library/camellia.c ****     if( verbose != 0 )
 2162              		.loc 1 942 0 is_stmt 1
 2163 0104 4346     		mov	r3, r8
 2164 0106 002B     		cmp	r3, #0
 2165 0108 02D0     		beq	.L109
 2166              	.LVL242:
 943:Source\mbedtls_open\library/camellia.c ****         mbedtls_printf( "passed\n" );
 2167              		.loc 1 943 0
 2168 010a A648     		ldr	r0, .L140+28
 2169 010c FFF7FEFF 		bl	puts
 2170              	.LVL243:
 2171              	.L109:
 910:Source\mbedtls_open\library/camellia.c ****         u = j >> 1;
 2172              		.loc 1 910 0 discriminator 2
 2173 0110 0123     		movs	r3, #1
 2174 0112 9C46     		mov	ip, r3
 2175 0114 E244     		add	r10, r10, ip
 2176              	.LVL244:
 2177              	.L100:
 910:Source\mbedtls_open\library/camellia.c ****         u = j >> 1;
 2178              		.loc 1 910 0 is_stmt 0 discriminator 1
 2179 0116 5346     		mov	r3, r10
 2180 0118 052B     		cmp	r3, #5
 2181 011a 80DD     		ble	.L110
 944:Source\mbedtls_open\library/camellia.c ****     }
 945:Source\mbedtls_open\library/camellia.c **** 
 946:Source\mbedtls_open\library/camellia.c ****     if( verbose != 0 )
 2182              		.loc 1 946 0 is_stmt 1
 2183 011c 4346     		mov	r3, r8
 2184 011e 002B     		cmp	r3, #0
 2185 0120 02D0     		beq	.L111
 2186              	.LVL245:
 947:Source\mbedtls_open\library/camellia.c ****         mbedtls_printf( "\n" );
 2187              		.loc 1 947 0
 2188 0122 0A20     		movs	r0, #10
ARM GAS  C:\Users\Phuong\AppData\Local\Temp\ccZ7UQ35.s 			page 57


 2189 0124 FFF7FEFF 		bl	putchar
 2190              	.LVL246:
 2191              	.L111:
 948:Source\mbedtls_open\library/camellia.c **** 
 949:Source\mbedtls_open\library/camellia.c **** #if defined(MBEDTLS_CIPHER_MODE_CBC)
 950:Source\mbedtls_open\library/camellia.c ****     /*
 951:Source\mbedtls_open\library/camellia.c ****      * CBC mode
 952:Source\mbedtls_open\library/camellia.c ****      */
 953:Source\mbedtls_open\library/camellia.c ****     for( j = 0; j < 6; j++ )
 954:Source\mbedtls_open\library/camellia.c ****     {
 955:Source\mbedtls_open\library/camellia.c ****         u = j >> 1;
 956:Source\mbedtls_open\library/camellia.c ****         v = j  & 1;
 957:Source\mbedtls_open\library/camellia.c **** 
 958:Source\mbedtls_open\library/camellia.c ****         if( verbose != 0 )
 959:Source\mbedtls_open\library/camellia.c ****             mbedtls_printf( "  CAMELLIA-CBC-%3d (%s): ", 128 + u * 64,
 2192              		.loc 1 959 0 discriminator 1
 2193 0128 0023     		movs	r3, #0
 2194 012a 9946     		mov	r9, r3
 2195 012c 9AE0     		b	.L112
 2196              	.LVL247:
 2197              	.L123:
 955:Source\mbedtls_open\library/camellia.c ****         v = j  & 1;
 2198              		.loc 1 955 0
 2199 012e 4B46     		mov	r3, r9
 2200              	.LVL248:
 2201 0130 5F10     		asrs	r7, r3, #1
 2202              	.LVL249:
 956:Source\mbedtls_open\library/camellia.c **** 
 2203              		.loc 1 956 0
 2204 0132 0125     		movs	r5, #1
 2205 0134 1D40     		ands	r5, r3
 2206              	.LVL250:
 958:Source\mbedtls_open\library/camellia.c ****             mbedtls_printf( "  CAMELLIA-CBC-%3d (%s): ", 128 + u * 64,
 2207              		.loc 1 958 0
 2208 0136 4346     		mov	r3, r8
 2209 0138 002B     		cmp	r3, #0
 2210 013a 09D0     		beq	.L113
 2211              	.LVL251:
 2212              		.loc 1 959 0
 2213 013c B91C     		adds	r1, r7, #2
 2214 013e 8901     		lsls	r1, r1, #6
 2215 0140 002D     		cmp	r5, #0
 2216 0142 01D1     		bne	.L134
 2217 0144 904A     		ldr	r2, .L140
 2218 0146 00E0     		b	.L114
 2219              	.L134:
 2220 0148 904A     		ldr	r2, .L140+4
 2221              	.L114:
 2222              		.loc 1 959 0 is_stmt 0 discriminator 4
 2223 014a 9748     		ldr	r0, .L140+32
 2224 014c FFF7FEFF 		bl	printf
 2225              	.LVL252:
 2226              	.L113:
 960:Source\mbedtls_open\library/camellia.c ****                              ( v == MBEDTLS_CAMELLIA_DECRYPT ) ? "dec" : "enc" );
 961:Source\mbedtls_open\library/camellia.c **** 
 962:Source\mbedtls_open\library/camellia.c ****         memcpy( src, camellia_test_cbc_iv, 16 );
 2227              		.loc 1 962 0 is_stmt 1
ARM GAS  C:\Users\Phuong\AppData\Local\Temp\ccZ7UQ35.s 			page 58


 2228 0150 5AAA     		add	r2, sp, #360
 2229 0152 9249     		ldr	r1, .L140+20
 2230 0154 0B00     		movs	r3, r1
 2231 0156 5833     		adds	r3, r3, #88
 2232 0158 51CB     		ldmia	r3!, {r0, r4, r6}
 2233 015a 51C2     		stmia	r2!, {r0, r4, r6}
 2234 015c 1B68     		ldr	r3, [r3]
 2235 015e 1360     		str	r3, [r2]
 963:Source\mbedtls_open\library/camellia.c ****         memcpy( dst, camellia_test_cbc_iv, 16 );
 2236              		.loc 1 963 0
 2237 0160 56AA     		add	r2, sp, #344
 2238 0162 0B00     		movs	r3, r1
 2239 0164 5833     		adds	r3, r3, #88
 2240 0166 51CB     		ldmia	r3!, {r0, r4, r6}
 2241 0168 51C2     		stmia	r2!, {r0, r4, r6}
 2242 016a 1B68     		ldr	r3, [r3]
 2243 016c 1360     		str	r3, [r2]
 964:Source\mbedtls_open\library/camellia.c ****         memcpy( key, camellia_test_cbc_key[u], 16 + 8 * u );
 2244              		.loc 1 964 0
 2245 016e 6831     		adds	r1, r1, #104
 2246 0170 7B01     		lsls	r3, r7, #5
 2247 0172 C918     		adds	r1, r1, r3
 2248 0174 BC1C     		adds	r4, r7, #2
 2249 0176 E200     		lsls	r2, r4, #3
 2250 0178 6EA8     		add	r0, sp, #440
 2251 017a FFF7FEFF 		bl	memcpy
 2252              	.LVL253:
 965:Source\mbedtls_open\library/camellia.c **** 
 966:Source\mbedtls_open\library/camellia.c ****         if( v == MBEDTLS_CAMELLIA_DECRYPT ) {
 2253              		.loc 1 966 0
 2254 017e 002D     		cmp	r5, #0
 2255 0180 06D1     		bne	.L115
 967:Source\mbedtls_open\library/camellia.c ****             mbedtls_camellia_setkey_dec( &ctx, key, 128 + u * 64 );
 2256              		.loc 1 967 0
 2257 0182 A201     		lsls	r2, r4, #6
 2258 0184 6EA9     		add	r1, sp, #440
 2259 0186 04A8     		add	r0, sp, #16
 2260 0188 FFF7FEFF 		bl	mbedtls_camellia_setkey_dec
 2261              	.LVL254:
 2262              	.L117:
 959:Source\mbedtls_open\library/camellia.c ****                              ( v == MBEDTLS_CAMELLIA_DECRYPT ) ? "dec" : "enc" );
 2263              		.loc 1 959 0 discriminator 1
 2264 018c 0024     		movs	r4, #0
 2265 018e 5EE0     		b	.L116
 2266              	.L115:
 968:Source\mbedtls_open\library/camellia.c ****         } else {
 969:Source\mbedtls_open\library/camellia.c ****             mbedtls_camellia_setkey_enc( &ctx, key, 128 + u * 64 );
 2267              		.loc 1 969 0
 2268 0190 A201     		lsls	r2, r4, #6
 2269 0192 6EA9     		add	r1, sp, #440
 2270 0194 04A8     		add	r0, sp, #16
 2271 0196 FFF7FEFF 		bl	mbedtls_camellia_setkey_enc
 2272              	.LVL255:
 2273 019a F7E7     		b	.L117
 2274              	.LVL256:
 2275              	.L121:
 970:Source\mbedtls_open\library/camellia.c ****         }
ARM GAS  C:\Users\Phuong\AppData\Local\Temp\ccZ7UQ35.s 			page 59


 971:Source\mbedtls_open\library/camellia.c **** 
 972:Source\mbedtls_open\library/camellia.c ****         for( i = 0; i < CAMELLIA_TESTS_CBC; i++ ) {
 973:Source\mbedtls_open\library/camellia.c **** 
 974:Source\mbedtls_open\library/camellia.c ****             if( v == MBEDTLS_CAMELLIA_DECRYPT ) {
 2276              		.loc 1 974 0
 2277 019c 002D     		cmp	r5, #0
 2278 019e 1DD1     		bne	.L118
 975:Source\mbedtls_open\library/camellia.c ****                 memcpy( iv , src, 16 );
 2279              		.loc 1 975 0
 2280 01a0 5AAE     		add	r6, sp, #360
 2281 01a2 1022     		movs	r2, #16
 2282 01a4 3100     		movs	r1, r6
 2283 01a6 52A8     		add	r0, sp, #328
 2284 01a8 FFF7FEFF 		bl	memcpy
 2285              	.LVL257:
 976:Source\mbedtls_open\library/camellia.c ****                 memcpy( src, camellia_test_cbc_cipher[u][i], 16 );
 2286              		.loc 1 976 0
 2287 01ac 7B00     		lsls	r3, r7, #1
 2288 01ae DB19     		adds	r3, r3, r7
 2289 01b0 1B19     		adds	r3, r3, r4
 2290 01b2 1B01     		lsls	r3, r3, #4
 2291 01b4 7D4A     		ldr	r2, .L140+36
 2292 01b6 D318     		adds	r3, r2, r3
 2293 01b8 4833     		adds	r3, r3, #72
 2294 01ba 3200     		movs	r2, r6
 2295 01bc 43CB     		ldmia	r3!, {r0, r1, r6}
 2296 01be 43C2     		stmia	r2!, {r0, r1, r6}
 2297 01c0 1B68     		ldr	r3, [r3]
 2298 01c2 1360     		str	r3, [r2]
 977:Source\mbedtls_open\library/camellia.c ****                 memcpy( dst, camellia_test_cbc_plain[i], 16 );
 2299              		.loc 1 977 0
 2300 01c4 56A9     		add	r1, sp, #344
 2301 01c6 2201     		lsls	r2, r4, #4
 2302 01c8 794B     		ldr	r3, .L140+40
 2303 01ca 9A18     		adds	r2, r3, r2
 2304 01cc 1300     		movs	r3, r2
 2305 01ce 5833     		adds	r3, r3, #88
 2306 01d0 0A00     		movs	r2, r1
 2307 01d2 43CB     		ldmia	r3!, {r0, r1, r6}
 2308 01d4 43C2     		stmia	r2!, {r0, r1, r6}
 2309 01d6 1B68     		ldr	r3, [r3]
 2310 01d8 1360     		str	r3, [r2]
 2311 01da 1DE0     		b	.L119
 2312              	.L118:
 978:Source\mbedtls_open\library/camellia.c ****             } else { /* MBEDTLS_CAMELLIA_ENCRYPT */
 979:Source\mbedtls_open\library/camellia.c ****                 memcpy( iv , dst, 16 );
 2313              		.loc 1 979 0
 2314 01dc 56AB     		add	r3, sp, #344
 2315 01de 9A46     		mov	r10, r3
 2316 01e0 1022     		movs	r2, #16
 2317 01e2 1900     		movs	r1, r3
 2318 01e4 52A8     		add	r0, sp, #328
 2319 01e6 FFF7FEFF 		bl	memcpy
 2320              	.LVL258:
 980:Source\mbedtls_open\library/camellia.c ****                 memcpy( src, camellia_test_cbc_plain[i], 16 );
 2321              		.loc 1 980 0
 2322 01ea 5AA9     		add	r1, sp, #360
ARM GAS  C:\Users\Phuong\AppData\Local\Temp\ccZ7UQ35.s 			page 60


 2323 01ec 2201     		lsls	r2, r4, #4
 2324 01ee 704B     		ldr	r3, .L140+40
 2325 01f0 9A18     		adds	r2, r3, r2
 2326 01f2 1300     		movs	r3, r2
 2327 01f4 5833     		adds	r3, r3, #88
 2328 01f6 0A00     		movs	r2, r1
 2329 01f8 43CB     		ldmia	r3!, {r0, r1, r6}
 2330 01fa 43C2     		stmia	r2!, {r0, r1, r6}
 2331 01fc 1B68     		ldr	r3, [r3]
 2332 01fe 1360     		str	r3, [r2]
 981:Source\mbedtls_open\library/camellia.c ****                 memcpy( dst, camellia_test_cbc_cipher[u][i], 16 );
 2333              		.loc 1 981 0
 2334 0200 7B00     		lsls	r3, r7, #1
 2335 0202 DB19     		adds	r3, r3, r7
 2336 0204 1B19     		adds	r3, r3, r4
 2337 0206 1B01     		lsls	r3, r3, #4
 2338 0208 684A     		ldr	r2, .L140+36
 2339 020a D318     		adds	r3, r2, r3
 2340 020c 4833     		adds	r3, r3, #72
 2341 020e 5246     		mov	r2, r10
 2342 0210 43CB     		ldmia	r3!, {r0, r1, r6}
 2343 0212 43C2     		stmia	r2!, {r0, r1, r6}
 2344 0214 1B68     		ldr	r3, [r3]
 2345 0216 1360     		str	r3, [r2]
 2346              	.L119:
 982:Source\mbedtls_open\library/camellia.c ****             }
 983:Source\mbedtls_open\library/camellia.c **** 
 984:Source\mbedtls_open\library/camellia.c ****             mbedtls_camellia_crypt_cbc( &ctx, v, 16, iv, src, buf );
 2347              		.loc 1 984 0
 2348 0218 5EAE     		add	r6, sp, #376
 2349 021a 0196     		str	r6, [sp, #4]
 2350 021c 5AAB     		add	r3, sp, #360
 2351 021e 0093     		str	r3, [sp]
 2352 0220 52AB     		add	r3, sp, #328
 2353 0222 1022     		movs	r2, #16
 2354 0224 2900     		movs	r1, r5
 2355 0226 04A8     		add	r0, sp, #16
 2356 0228 FFF7FEFF 		bl	mbedtls_camellia_crypt_cbc
 2357              	.LVL259:
 985:Source\mbedtls_open\library/camellia.c **** 
 986:Source\mbedtls_open\library/camellia.c ****             if( memcmp( buf, dst, 16 ) != 0 )
 2358              		.loc 1 986 0
 2359 022c 1022     		movs	r2, #16
 2360 022e 56A9     		add	r1, sp, #344
 2361 0230 3000     		movs	r0, r6
 2362 0232 FFF7FEFF 		bl	memcmp
 2363              	.LVL260:
 2364 0236 0028     		cmp	r0, #0
 2365 0238 08D0     		beq	.L120
 987:Source\mbedtls_open\library/camellia.c ****             {
 988:Source\mbedtls_open\library/camellia.c ****                 if( verbose != 0 )
 2366              		.loc 1 988 0
 2367 023a 4346     		mov	r3, r8
 2368 023c 002B     		cmp	r3, #0
 2369 023e 00D1     		bne	.LCB2618
 2370 0240 D5E0     		b	.L135	@long jump
 2371              	.LCB2618:
ARM GAS  C:\Users\Phuong\AppData\Local\Temp\ccZ7UQ35.s 			page 61


 2372              	.LVL261:
 989:Source\mbedtls_open\library/camellia.c ****                     mbedtls_printf( "failed\n" );
 2373              		.loc 1 989 0
 2374 0242 5748     		ldr	r0, .L140+24
 2375 0244 FFF7FEFF 		bl	puts
 2376              	.LVL262:
 990:Source\mbedtls_open\library/camellia.c **** 
 991:Source\mbedtls_open\library/camellia.c ****                 return( 1 );
 2377              		.loc 1 991 0
 2378 0248 0120     		movs	r0, #1
 2379 024a D7E0     		b	.L107
 2380              	.L120:
 972:Source\mbedtls_open\library/camellia.c **** 
 2381              		.loc 1 972 0 discriminator 2
 2382 024c 0134     		adds	r4, r4, #1
 2383              	.LVL263:
 2384              	.L116:
 972:Source\mbedtls_open\library/camellia.c **** 
 2385              		.loc 1 972 0 is_stmt 0 discriminator 1
 2386 024e 022C     		cmp	r4, #2
 2387 0250 A4DD     		ble	.L121
 992:Source\mbedtls_open\library/camellia.c ****             }
 993:Source\mbedtls_open\library/camellia.c ****         }
 994:Source\mbedtls_open\library/camellia.c **** 
 995:Source\mbedtls_open\library/camellia.c ****         if( verbose != 0 )
 2388              		.loc 1 995 0 is_stmt 1
 2389 0252 4346     		mov	r3, r8
 2390 0254 002B     		cmp	r3, #0
 2391 0256 02D0     		beq	.L122
 2392              	.LVL264:
 996:Source\mbedtls_open\library/camellia.c ****             mbedtls_printf( "passed\n" );
 2393              		.loc 1 996 0
 2394 0258 5248     		ldr	r0, .L140+28
 2395 025a FFF7FEFF 		bl	puts
 2396              	.LVL265:
 2397              	.L122:
 953:Source\mbedtls_open\library/camellia.c ****     {
 2398              		.loc 1 953 0 discriminator 2
 2399 025e 0123     		movs	r3, #1
 2400 0260 9C46     		mov	ip, r3
 2401 0262 E144     		add	r9, r9, ip
 2402              	.LVL266:
 2403              	.L112:
 953:Source\mbedtls_open\library/camellia.c ****     {
 2404              		.loc 1 953 0 is_stmt 0 discriminator 1
 2405 0264 4B46     		mov	r3, r9
 2406 0266 052B     		cmp	r3, #5
 2407 0268 00DC     		bgt	.LCB2665
 2408 026a 60E7     		b	.L123	@long jump
 2409              	.LCB2665:
 997:Source\mbedtls_open\library/camellia.c ****     }
 998:Source\mbedtls_open\library/camellia.c **** #endif /* MBEDTLS_CIPHER_MODE_CBC */
 999:Source\mbedtls_open\library/camellia.c **** 
1000:Source\mbedtls_open\library/camellia.c ****     if( verbose != 0 )
 2410              		.loc 1 1000 0 is_stmt 1
 2411 026c 4346     		mov	r3, r8
 2412 026e 002B     		cmp	r3, #0
ARM GAS  C:\Users\Phuong\AppData\Local\Temp\ccZ7UQ35.s 			page 62


 2413 0270 02D0     		beq	.L124
 2414              	.LVL267:
1001:Source\mbedtls_open\library/camellia.c ****         mbedtls_printf( "\n" );
 2415              		.loc 1 1001 0
 2416 0272 0A20     		movs	r0, #10
 2417 0274 FFF7FEFF 		bl	putchar
 2418              	.LVL268:
 2419              	.L124:
1002:Source\mbedtls_open\library/camellia.c **** 
1003:Source\mbedtls_open\library/camellia.c **** #if defined(MBEDTLS_CIPHER_MODE_CTR)
1004:Source\mbedtls_open\library/camellia.c ****     /*
1005:Source\mbedtls_open\library/camellia.c ****      * CTR mode
1006:Source\mbedtls_open\library/camellia.c ****      */
1007:Source\mbedtls_open\library/camellia.c ****     for( i = 0; i < 6; i++ )
1008:Source\mbedtls_open\library/camellia.c ****     {
1009:Source\mbedtls_open\library/camellia.c ****         u = i >> 1;
1010:Source\mbedtls_open\library/camellia.c ****         v = i  & 1;
1011:Source\mbedtls_open\library/camellia.c **** 
1012:Source\mbedtls_open\library/camellia.c ****         if( verbose != 0 )
1013:Source\mbedtls_open\library/camellia.c ****             mbedtls_printf( "  CAMELLIA-CTR-128 (%s): ",
 2420              		.loc 1 1013 0 discriminator 1
 2421 0278 0023     		movs	r3, #0
 2422 027a 9A46     		mov	r10, r3
 2423 027c A9E0     		b	.L125
 2424              	.LVL269:
 2425              	.L131:
1009:Source\mbedtls_open\library/camellia.c ****         v = i  & 1;
 2426              		.loc 1 1009 0
 2427 027e 5346     		mov	r3, r10
 2428              	.LVL270:
 2429 0280 5C10     		asrs	r4, r3, #1
 2430              	.LVL271:
1010:Source\mbedtls_open\library/camellia.c **** 
 2431              		.loc 1 1010 0
 2432 0282 0125     		movs	r5, #1
 2433 0284 1D40     		ands	r5, r3
 2434              	.LVL272:
1012:Source\mbedtls_open\library/camellia.c ****             mbedtls_printf( "  CAMELLIA-CTR-128 (%s): ",
 2435              		.loc 1 1012 0
 2436 0286 4346     		mov	r3, r8
 2437 0288 002B     		cmp	r3, #0
 2438 028a 07D0     		beq	.L126
 2439              	.LVL273:
 2440              		.loc 1 1013 0
 2441 028c 002D     		cmp	r5, #0
 2442 028e 01D1     		bne	.L136
 2443 0290 3D49     		ldr	r1, .L140
 2444 0292 00E0     		b	.L127
 2445              	.L136:
 2446 0294 3D49     		ldr	r1, .L140+4
 2447              	.L127:
 2448              		.loc 1 1013 0 is_stmt 0 discriminator 4
 2449 0296 4748     		ldr	r0, .L140+44
 2450 0298 FFF7FEFF 		bl	printf
 2451              	.LVL274:
 2452              	.L126:
1014:Source\mbedtls_open\library/camellia.c ****                              ( v == MBEDTLS_CAMELLIA_DECRYPT ) ? "dec" : "enc" );
ARM GAS  C:\Users\Phuong\AppData\Local\Temp\ccZ7UQ35.s 			page 63


1015:Source\mbedtls_open\library/camellia.c **** 
1016:Source\mbedtls_open\library/camellia.c ****         memcpy( nonce_counter, camellia_test_ctr_nonce_counter[u], 16 );
 2453              		.loc 1 1016 0 is_stmt 1
 2454 029c 4DAA     		add	r2, sp, #308
 2455 029e 464B     		ldr	r3, .L140+48
 2456 02a0 9946     		mov	r9, r3
 2457 02a2 2001     		lsls	r0, r4, #4
 2458 02a4 1B18     		adds	r3, r3, r0
 2459 02a6 0833     		adds	r3, r3, #8
 2460 02a8 C2CB     		ldmia	r3!, {r1, r6, r7}
 2461 02aa C2C2     		stmia	r2!, {r1, r6, r7}
 2462 02ac 1B68     		ldr	r3, [r3]
 2463 02ae 1360     		str	r3, [r2]
1017:Source\mbedtls_open\library/camellia.c ****         memcpy( key, camellia_test_ctr_key[u], 16 );
 2464              		.loc 1 1017 0
 2465 02b0 4946     		mov	r1, r9
 2466 02b2 3831     		adds	r1, r1, #56
 2467 02b4 0918     		adds	r1, r1, r0
 2468 02b6 1022     		movs	r2, #16
 2469 02b8 6EA8     		add	r0, sp, #440
 2470 02ba FFF7FEFF 		bl	memcpy
 2471              	.LVL275:
1018:Source\mbedtls_open\library/camellia.c **** 
1019:Source\mbedtls_open\library/camellia.c ****         offset = 0;
 2472              		.loc 1 1019 0
 2473 02be 0023     		movs	r3, #0
 2474 02c0 5193     		str	r3, [sp, #324]
1020:Source\mbedtls_open\library/camellia.c ****         mbedtls_camellia_setkey_enc( &ctx, key, 128 );
 2475              		.loc 1 1020 0
 2476 02c2 8022     		movs	r2, #128
 2477 02c4 6EA9     		add	r1, sp, #440
 2478 02c6 04A8     		add	r0, sp, #16
 2479 02c8 FFF7FEFF 		bl	mbedtls_camellia_setkey_enc
 2480              	.LVL276:
1021:Source\mbedtls_open\library/camellia.c **** 
1022:Source\mbedtls_open\library/camellia.c ****         if( v == MBEDTLS_CAMELLIA_DECRYPT )
 2481              		.loc 1 1022 0
 2482 02cc 002D     		cmp	r5, #0
 2483 02ce 2CD1     		bne	.L128
1023:Source\mbedtls_open\library/camellia.c ****         {
1024:Source\mbedtls_open\library/camellia.c ****             len = camellia_test_ctr_len[u];
 2484              		.loc 1 1024 0
 2485 02d0 3949     		ldr	r1, .L140+48
 2486 02d2 A300     		lsls	r3, r4, #2
 2487 02d4 CB18     		adds	r3, r1, r3
 2488 02d6 9B6E     		ldr	r3, [r3, #104]
 2489 02d8 1F00     		movs	r7, r3
 2490              	.LVL277:
1025:Source\mbedtls_open\library/camellia.c ****             memcpy( buf, camellia_test_ctr_ct[u], len );
 2491              		.loc 1 1025 0
 2492 02da 0B00     		movs	r3, r1
 2493              	.LVL278:
 2494 02dc 7433     		adds	r3, r3, #116
 2495 02de 6600     		lsls	r6, r4, #1
 2496 02e0 3219     		adds	r2, r6, r4
 2497 02e2 1101     		lsls	r1, r2, #4
 2498 02e4 5918     		adds	r1, r3, r1
ARM GAS  C:\Users\Phuong\AppData\Local\Temp\ccZ7UQ35.s 			page 64


 2499 02e6 5EAD     		add	r5, sp, #376
 2500              	.LVL279:
 2501 02e8 3A00     		movs	r2, r7
 2502 02ea 2800     		movs	r0, r5
 2503 02ec FFF7FEFF 		bl	memcpy
 2504              	.LVL280:
1026:Source\mbedtls_open\library/camellia.c **** 
1027:Source\mbedtls_open\library/camellia.c ****             mbedtls_camellia_crypt_ctr( &ctx, len, &offset, nonce_counter, stream_block,
 2505              		.loc 1 1027 0
 2506 02f0 0295     		str	r5, [sp, #8]
 2507 02f2 0195     		str	r5, [sp, #4]
 2508 02f4 49AB     		add	r3, sp, #292
 2509 02f6 0093     		str	r3, [sp]
 2510 02f8 4DAB     		add	r3, sp, #308
 2511 02fa 51AA     		add	r2, sp, #324
 2512 02fc 3900     		movs	r1, r7
 2513 02fe 04A8     		add	r0, sp, #16
 2514 0300 FFF7FEFF 		bl	mbedtls_camellia_crypt_ctr
 2515              	.LVL281:
1028:Source\mbedtls_open\library/camellia.c ****                                 buf, buf );
1029:Source\mbedtls_open\library/camellia.c **** 
1030:Source\mbedtls_open\library/camellia.c ****             if( memcmp( buf, camellia_test_ctr_pt[u], len ) != 0 )
 2516              		.loc 1 1030 0
 2517 0304 3419     		adds	r4, r6, r4
 2518              	.LVL282:
 2519 0306 2301     		lsls	r3, r4, #4
 2520 0308 2C49     		ldr	r1, .L140+52
 2521 030a 0431     		adds	r1, r1, #4
 2522 030c C918     		adds	r1, r1, r3
 2523 030e 3A00     		movs	r2, r7
 2524 0310 2800     		movs	r0, r5
 2525 0312 FFF7FEFF 		bl	memcmp
 2526              	.LVL283:
 2527 0316 0028     		cmp	r0, #0
 2528 0318 52D0     		beq	.L129
1031:Source\mbedtls_open\library/camellia.c ****             {
1032:Source\mbedtls_open\library/camellia.c ****                 if( verbose != 0 )
 2529              		.loc 1 1032 0
 2530 031a 4346     		mov	r3, r8
 2531 031c 002B     		cmp	r3, #0
 2532 031e 68D0     		beq	.L137
 2533              	.LVL284:
1033:Source\mbedtls_open\library/camellia.c ****                     mbedtls_printf( "failed\n" );
 2534              		.loc 1 1033 0
 2535 0320 1F48     		ldr	r0, .L140+24
 2536 0322 FFF7FEFF 		bl	puts
 2537              	.LVL285:
1034:Source\mbedtls_open\library/camellia.c **** 
1035:Source\mbedtls_open\library/camellia.c ****                 return( 1 );
 2538              		.loc 1 1035 0
 2539 0326 0120     		movs	r0, #1
 2540              	.LVL286:
 2541 0328 68E0     		b	.L107
 2542              	.LVL287:
 2543              	.L128:
1036:Source\mbedtls_open\library/camellia.c ****             }
1037:Source\mbedtls_open\library/camellia.c ****         }
ARM GAS  C:\Users\Phuong\AppData\Local\Temp\ccZ7UQ35.s 			page 65


1038:Source\mbedtls_open\library/camellia.c ****         else
1039:Source\mbedtls_open\library/camellia.c ****         {
1040:Source\mbedtls_open\library/camellia.c ****             len = camellia_test_ctr_len[u];
 2544              		.loc 1 1040 0
 2545 032a 234B     		ldr	r3, .L140+48
 2546 032c 9946     		mov	r9, r3
 2547 032e A300     		lsls	r3, r4, #2
 2548 0330 4B44     		add	r3, r3, r9
 2549 0332 9B6E     		ldr	r3, [r3, #104]
 2550 0334 1F00     		movs	r7, r3
 2551              	.LVL288:
1041:Source\mbedtls_open\library/camellia.c ****             memcpy( buf, camellia_test_ctr_pt[u], len );
 2552              		.loc 1 1041 0
 2553 0336 6600     		lsls	r6, r4, #1
 2554 0338 3219     		adds	r2, r6, r4
 2555 033a 1301     		lsls	r3, r2, #4
 2556              	.LVL289:
 2557 033c 1F49     		ldr	r1, .L140+52
 2558 033e 0431     		adds	r1, r1, #4
 2559 0340 C918     		adds	r1, r1, r3
 2560 0342 5EAD     		add	r5, sp, #376
 2561              	.LVL290:
 2562 0344 3A00     		movs	r2, r7
 2563 0346 2800     		movs	r0, r5
 2564 0348 FFF7FEFF 		bl	memcpy
 2565              	.LVL291:
1042:Source\mbedtls_open\library/camellia.c **** 
1043:Source\mbedtls_open\library/camellia.c ****             mbedtls_camellia_crypt_ctr( &ctx, len, &offset, nonce_counter, stream_block,
 2566              		.loc 1 1043 0
 2567 034c 0295     		str	r5, [sp, #8]
 2568 034e 0195     		str	r5, [sp, #4]
 2569 0350 49AB     		add	r3, sp, #292
 2570 0352 0093     		str	r3, [sp]
 2571 0354 4DAB     		add	r3, sp, #308
 2572 0356 51AA     		add	r2, sp, #324
 2573 0358 3900     		movs	r1, r7
 2574 035a 04A8     		add	r0, sp, #16
 2575 035c FFF7FEFF 		bl	mbedtls_camellia_crypt_ctr
 2576              	.LVL292:
1044:Source\mbedtls_open\library/camellia.c ****                                 buf, buf );
1045:Source\mbedtls_open\library/camellia.c **** 
1046:Source\mbedtls_open\library/camellia.c ****             if( memcmp( buf, camellia_test_ctr_ct[u], len ) != 0 )
 2577              		.loc 1 1046 0
 2578 0360 4B46     		mov	r3, r9
 2579 0362 7433     		adds	r3, r3, #116
 2580 0364 3419     		adds	r4, r6, r4
 2581              	.LVL293:
 2582 0366 2101     		lsls	r1, r4, #4
 2583 0368 5918     		adds	r1, r3, r1
 2584 036a 3A00     		movs	r2, r7
 2585 036c 2800     		movs	r0, r5
 2586 036e FFF7FEFF 		bl	memcmp
 2587              	.LVL294:
 2588 0372 0028     		cmp	r0, #0
 2589 0374 24D0     		beq	.L129
1047:Source\mbedtls_open\library/camellia.c ****             {
1048:Source\mbedtls_open\library/camellia.c ****                 if( verbose != 0 )
ARM GAS  C:\Users\Phuong\AppData\Local\Temp\ccZ7UQ35.s 			page 66


 2590              		.loc 1 1048 0
 2591 0376 4346     		mov	r3, r8
 2592 0378 002B     		cmp	r3, #0
 2593 037a 3CD0     		beq	.L138
 2594              	.LVL295:
1049:Source\mbedtls_open\library/camellia.c ****                     mbedtls_printf( "failed\n" );
 2595              		.loc 1 1049 0
 2596 037c 0848     		ldr	r0, .L140+24
 2597 037e FFF7FEFF 		bl	puts
 2598              	.LVL296:
1050:Source\mbedtls_open\library/camellia.c **** 
1051:Source\mbedtls_open\library/camellia.c ****                 return( 1 );
 2599              		.loc 1 1051 0
 2600 0382 0120     		movs	r0, #1
 2601              	.LVL297:
 2602 0384 3AE0     		b	.L107
 2603              	.L141:
 2604 0386 C046     		.align	2
 2605              	.L140:
 2606 0388 00000000 		.word	.LC6
 2607 038c 04000000 		.word	.LC8
 2608 0390 08000000 		.word	.LC10
 2609 0394 00050000 		.word	.LANCHOR6
 2610 0398 80050000 		.word	.LANCHOR7
 2611 039c 00060000 		.word	.LANCHOR8
 2612 03a0 24000000 		.word	.LC15
 2613 03a4 2C000000 		.word	.LC17
 2614 03a8 34000000 		.word	.LC19
 2615 03ac 80060000 		.word	.LANCHOR9
 2616 03b0 00070000 		.word	.LANCHOR10
 2617 03b4 50000000 		.word	.LC23
 2618 03b8 80070000 		.word	.LANCHOR11
 2619 03bc 80080000 		.word	.LANCHOR12
 2620              	.LVL298:
 2621              	.L129:
1052:Source\mbedtls_open\library/camellia.c ****             }
1053:Source\mbedtls_open\library/camellia.c ****         }
1054:Source\mbedtls_open\library/camellia.c **** 
1055:Source\mbedtls_open\library/camellia.c ****         if( verbose != 0 )
 2622              		.loc 1 1055 0
 2623 03c0 4346     		mov	r3, r8
 2624 03c2 002B     		cmp	r3, #0
 2625 03c4 02D0     		beq	.L130
 2626              	.LVL299:
1056:Source\mbedtls_open\library/camellia.c ****             mbedtls_printf( "passed\n" );
 2627              		.loc 1 1056 0
 2628 03c6 1048     		ldr	r0, .L142
 2629 03c8 FFF7FEFF 		bl	puts
 2630              	.LVL300:
 2631              	.L130:
1007:Source\mbedtls_open\library/camellia.c ****     {
 2632              		.loc 1 1007 0 discriminator 2
 2633 03cc 0123     		movs	r3, #1
 2634              	.LVL301:
 2635 03ce 9C46     		mov	ip, r3
 2636 03d0 E244     		add	r10, r10, ip
 2637              	.LVL302:
ARM GAS  C:\Users\Phuong\AppData\Local\Temp\ccZ7UQ35.s 			page 67


 2638              	.L125:
1007:Source\mbedtls_open\library/camellia.c ****     {
 2639              		.loc 1 1007 0 is_stmt 0 discriminator 1
 2640 03d2 5346     		mov	r3, r10
 2641 03d4 052B     		cmp	r3, #5
 2642 03d6 00DC     		bgt	.LCB2908
 2643 03d8 51E7     		b	.L131	@long jump
 2644              	.LCB2908:
1057:Source\mbedtls_open\library/camellia.c ****     }
1058:Source\mbedtls_open\library/camellia.c **** 
1059:Source\mbedtls_open\library/camellia.c ****     if( verbose != 0 )
 2645              		.loc 1 1059 0 is_stmt 1
 2646 03da 4346     		mov	r3, r8
 2647 03dc 002B     		cmp	r3, #0
 2648 03de 0CD0     		beq	.L139
 2649              	.LVL303:
1060:Source\mbedtls_open\library/camellia.c ****         mbedtls_printf( "\n" );
 2650              		.loc 1 1060 0
 2651 03e0 0A20     		movs	r0, #10
 2652 03e2 FFF7FEFF 		bl	putchar
 2653              	.LVL304:
1061:Source\mbedtls_open\library/camellia.c **** #endif /* MBEDTLS_CIPHER_MODE_CTR */
1062:Source\mbedtls_open\library/camellia.c **** 
1063:Source\mbedtls_open\library/camellia.c ****     return( 0 );
 2654              		.loc 1 1063 0
 2655 03e6 0020     		movs	r0, #0
 2656 03e8 08E0     		b	.L107
 2657              	.LVL305:
 2658              	.L133:
 938:Source\mbedtls_open\library/camellia.c ****         }
 2659              		.loc 1 938 0
 2660 03ea 0120     		movs	r0, #1
 2661 03ec 06E0     		b	.L107
 2662              	.LVL306:
 2663              	.L135:
 991:Source\mbedtls_open\library/camellia.c ****             }
 2664              		.loc 1 991 0
 2665 03ee 0120     		movs	r0, #1
 2666 03f0 04E0     		b	.L107
 2667              	.LVL307:
 2668              	.L137:
1035:Source\mbedtls_open\library/camellia.c ****             }
 2669              		.loc 1 1035 0
 2670 03f2 0120     		movs	r0, #1
 2671              	.LVL308:
 2672 03f4 02E0     		b	.L107
 2673              	.LVL309:
 2674              	.L138:
1051:Source\mbedtls_open\library/camellia.c ****             }
 2675              		.loc 1 1051 0
 2676 03f6 0120     		movs	r0, #1
 2677              	.LVL310:
 2678 03f8 00E0     		b	.L107
 2679              	.LVL311:
 2680              	.L139:
 2681              		.loc 1 1063 0
 2682 03fa 0020     		movs	r0, #0
ARM GAS  C:\Users\Phuong\AppData\Local\Temp\ccZ7UQ35.s 			page 68


 2683              	.LVL312:
 2684              	.L107:
1064:Source\mbedtls_open\library/camellia.c **** }
 2685              		.loc 1 1064 0
 2686 03fc 76B0     		add	sp, sp, #472
 2687              		@ sp needed
 2688              	.LVL313:
 2689 03fe 1CBC     		pop	{r2, r3, r4}
 2690 0400 9046     		mov	r8, r2
 2691 0402 9946     		mov	r9, r3
 2692 0404 A246     		mov	r10, r4
 2693 0406 F0BD     		pop	{r4, r5, r6, r7, pc}
 2694              	.L143:
 2695              		.align	2
 2696              	.L142:
 2697 0408 2C000000 		.word	.LC17
 2698              		.cfi_endproc
 2699              	.LFE10:
 2700              		.size	mbedtls_camellia_self_test, .-mbedtls_camellia_self_test
 2701              		.section	.rodata
 2702              		.align	2
 2703              		.set	.LANCHOR0,. + 0
 2704              		.set	.LANCHOR1,. + 256
 2705              		.set	.LANCHOR2,. + 512
 2706              		.set	.LANCHOR3,. + 768
 2707              		.set	.LANCHOR4,. + 1024
 2708              		.set	.LANCHOR5,. + 1152
 2709              		.set	.LANCHOR6,. + 1280
 2710              		.set	.LANCHOR7,. + 1408
 2711              		.set	.LANCHOR8,. + 1536
 2712              		.set	.LANCHOR9,. + 1664
 2713              		.set	.LANCHOR10,. + 1792
 2714              		.set	.LANCHOR11,. + 1920
 2715              		.set	.LANCHOR12,. + 2176
 2716              		.type	FSb, %object
 2717              		.size	FSb, 256
 2718              	FSb:
 2719 0000 70       		.byte	112
 2720 0001 82       		.byte	-126
 2721 0002 2C       		.byte	44
 2722 0003 EC       		.byte	-20
 2723 0004 B3       		.byte	-77
 2724 0005 27       		.byte	39
 2725 0006 C0       		.byte	-64
 2726 0007 E5       		.byte	-27
 2727 0008 E4       		.byte	-28
 2728 0009 85       		.byte	-123
 2729 000a 57       		.byte	87
 2730 000b 35       		.byte	53
 2731 000c EA       		.byte	-22
 2732 000d 0C       		.byte	12
 2733 000e AE       		.byte	-82
 2734 000f 41       		.byte	65
 2735 0010 23       		.byte	35
 2736 0011 EF       		.byte	-17
 2737 0012 6B       		.byte	107
 2738 0013 93       		.byte	-109
ARM GAS  C:\Users\Phuong\AppData\Local\Temp\ccZ7UQ35.s 			page 69


 2739 0014 45       		.byte	69
 2740 0015 19       		.byte	25
 2741 0016 A5       		.byte	-91
 2742 0017 21       		.byte	33
 2743 0018 ED       		.byte	-19
 2744 0019 0E       		.byte	14
 2745 001a 4F       		.byte	79
 2746 001b 4E       		.byte	78
 2747 001c 1D       		.byte	29
 2748 001d 65       		.byte	101
 2749 001e 92       		.byte	-110
 2750 001f BD       		.byte	-67
 2751 0020 86       		.byte	-122
 2752 0021 B8       		.byte	-72
 2753 0022 AF       		.byte	-81
 2754 0023 8F       		.byte	-113
 2755 0024 7C       		.byte	124
 2756 0025 EB       		.byte	-21
 2757 0026 1F       		.byte	31
 2758 0027 CE       		.byte	-50
 2759 0028 3E       		.byte	62
 2760 0029 30       		.byte	48
 2761 002a DC       		.byte	-36
 2762 002b 5F       		.byte	95
 2763 002c 5E       		.byte	94
 2764 002d C5       		.byte	-59
 2765 002e 0B       		.byte	11
 2766 002f 1A       		.byte	26
 2767 0030 A6       		.byte	-90
 2768 0031 E1       		.byte	-31
 2769 0032 39       		.byte	57
 2770 0033 CA       		.byte	-54
 2771 0034 D5       		.byte	-43
 2772 0035 47       		.byte	71
 2773 0036 5D       		.byte	93
 2774 0037 3D       		.byte	61
 2775 0038 D9       		.byte	-39
 2776 0039 01       		.byte	1
 2777 003a 5A       		.byte	90
 2778 003b D6       		.byte	-42
 2779 003c 51       		.byte	81
 2780 003d 56       		.byte	86
 2781 003e 6C       		.byte	108
 2782 003f 4D       		.byte	77
 2783 0040 8B       		.byte	-117
 2784 0041 0D       		.byte	13
 2785 0042 9A       		.byte	-102
 2786 0043 66       		.byte	102
 2787 0044 FB       		.byte	-5
 2788 0045 CC       		.byte	-52
 2789 0046 B0       		.byte	-80
 2790 0047 2D       		.byte	45
 2791 0048 74       		.byte	116
 2792 0049 12       		.byte	18
 2793 004a 2B       		.byte	43
 2794 004b 20       		.byte	32
 2795 004c F0       		.byte	-16
ARM GAS  C:\Users\Phuong\AppData\Local\Temp\ccZ7UQ35.s 			page 70


 2796 004d B1       		.byte	-79
 2797 004e 84       		.byte	-124
 2798 004f 99       		.byte	-103
 2799 0050 DF       		.byte	-33
 2800 0051 4C       		.byte	76
 2801 0052 CB       		.byte	-53
 2802 0053 C2       		.byte	-62
 2803 0054 34       		.byte	52
 2804 0055 7E       		.byte	126
 2805 0056 76       		.byte	118
 2806 0057 05       		.byte	5
 2807 0058 6D       		.byte	109
 2808 0059 B7       		.byte	-73
 2809 005a A9       		.byte	-87
 2810 005b 31       		.byte	49
 2811 005c D1       		.byte	-47
 2812 005d 17       		.byte	23
 2813 005e 04       		.byte	4
 2814 005f D7       		.byte	-41
 2815 0060 14       		.byte	20
 2816 0061 58       		.byte	88
 2817 0062 3A       		.byte	58
 2818 0063 61       		.byte	97
 2819 0064 DE       		.byte	-34
 2820 0065 1B       		.byte	27
 2821 0066 11       		.byte	17
 2822 0067 1C       		.byte	28
 2823 0068 32       		.byte	50
 2824 0069 0F       		.byte	15
 2825 006a 9C       		.byte	-100
 2826 006b 16       		.byte	22
 2827 006c 53       		.byte	83
 2828 006d 18       		.byte	24
 2829 006e F2       		.byte	-14
 2830 006f 22       		.byte	34
 2831 0070 FE       		.byte	-2
 2832 0071 44       		.byte	68
 2833 0072 CF       		.byte	-49
 2834 0073 B2       		.byte	-78
 2835 0074 C3       		.byte	-61
 2836 0075 B5       		.byte	-75
 2837 0076 7A       		.byte	122
 2838 0077 91       		.byte	-111
 2839 0078 24       		.byte	36
 2840 0079 08       		.byte	8
 2841 007a E8       		.byte	-24
 2842 007b A8       		.byte	-88
 2843 007c 60       		.byte	96
 2844 007d FC       		.byte	-4
 2845 007e 69       		.byte	105
 2846 007f 50       		.byte	80
 2847 0080 AA       		.byte	-86
 2848 0081 D0       		.byte	-48
 2849 0082 A0       		.byte	-96
 2850 0083 7D       		.byte	125
 2851 0084 A1       		.byte	-95
 2852 0085 89       		.byte	-119
ARM GAS  C:\Users\Phuong\AppData\Local\Temp\ccZ7UQ35.s 			page 71


 2853 0086 62       		.byte	98
 2854 0087 97       		.byte	-105
 2855 0088 54       		.byte	84
 2856 0089 5B       		.byte	91
 2857 008a 1E       		.byte	30
 2858 008b 95       		.byte	-107
 2859 008c E0       		.byte	-32
 2860 008d FF       		.byte	-1
 2861 008e 64       		.byte	100
 2862 008f D2       		.byte	-46
 2863 0090 10       		.byte	16
 2864 0091 C4       		.byte	-60
 2865 0092 00       		.byte	0
 2866 0093 48       		.byte	72
 2867 0094 A3       		.byte	-93
 2868 0095 F7       		.byte	-9
 2869 0096 75       		.byte	117
 2870 0097 DB       		.byte	-37
 2871 0098 8A       		.byte	-118
 2872 0099 03       		.byte	3
 2873 009a E6       		.byte	-26
 2874 009b DA       		.byte	-38
 2875 009c 09       		.byte	9
 2876 009d 3F       		.byte	63
 2877 009e DD       		.byte	-35
 2878 009f 94       		.byte	-108
 2879 00a0 87       		.byte	-121
 2880 00a1 5C       		.byte	92
 2881 00a2 83       		.byte	-125
 2882 00a3 02       		.byte	2
 2883 00a4 CD       		.byte	-51
 2884 00a5 4A       		.byte	74
 2885 00a6 90       		.byte	-112
 2886 00a7 33       		.byte	51
 2887 00a8 73       		.byte	115
 2888 00a9 67       		.byte	103
 2889 00aa F6       		.byte	-10
 2890 00ab F3       		.byte	-13
 2891 00ac 9D       		.byte	-99
 2892 00ad 7F       		.byte	127
 2893 00ae BF       		.byte	-65
 2894 00af E2       		.byte	-30
 2895 00b0 52       		.byte	82
 2896 00b1 9B       		.byte	-101
 2897 00b2 D8       		.byte	-40
 2898 00b3 26       		.byte	38
 2899 00b4 C8       		.byte	-56
 2900 00b5 37       		.byte	55
 2901 00b6 C6       		.byte	-58
 2902 00b7 3B       		.byte	59
 2903 00b8 81       		.byte	-127
 2904 00b9 96       		.byte	-106
 2905 00ba 6F       		.byte	111
 2906 00bb 4B       		.byte	75
 2907 00bc 13       		.byte	19
 2908 00bd BE       		.byte	-66
 2909 00be 63       		.byte	99
ARM GAS  C:\Users\Phuong\AppData\Local\Temp\ccZ7UQ35.s 			page 72


 2910 00bf 2E       		.byte	46
 2911 00c0 E9       		.byte	-23
 2912 00c1 79       		.byte	121
 2913 00c2 A7       		.byte	-89
 2914 00c3 8C       		.byte	-116
 2915 00c4 9F       		.byte	-97
 2916 00c5 6E       		.byte	110
 2917 00c6 BC       		.byte	-68
 2918 00c7 8E       		.byte	-114
 2919 00c8 29       		.byte	41
 2920 00c9 F5       		.byte	-11
 2921 00ca F9       		.byte	-7
 2922 00cb B6       		.byte	-74
 2923 00cc 2F       		.byte	47
 2924 00cd FD       		.byte	-3
 2925 00ce B4       		.byte	-76
 2926 00cf 59       		.byte	89
 2927 00d0 78       		.byte	120
 2928 00d1 98       		.byte	-104
 2929 00d2 06       		.byte	6
 2930 00d3 6A       		.byte	106
 2931 00d4 E7       		.byte	-25
 2932 00d5 46       		.byte	70
 2933 00d6 71       		.byte	113
 2934 00d7 BA       		.byte	-70
 2935 00d8 D4       		.byte	-44
 2936 00d9 25       		.byte	37
 2937 00da AB       		.byte	-85
 2938 00db 42       		.byte	66
 2939 00dc 88       		.byte	-120
 2940 00dd A2       		.byte	-94
 2941 00de 8D       		.byte	-115
 2942 00df FA       		.byte	-6
 2943 00e0 72       		.byte	114
 2944 00e1 07       		.byte	7
 2945 00e2 B9       		.byte	-71
 2946 00e3 55       		.byte	85
 2947 00e4 F8       		.byte	-8
 2948 00e5 EE       		.byte	-18
 2949 00e6 AC       		.byte	-84
 2950 00e7 0A       		.byte	10
 2951 00e8 36       		.byte	54
 2952 00e9 49       		.byte	73
 2953 00ea 2A       		.byte	42
 2954 00eb 68       		.byte	104
 2955 00ec 3C       		.byte	60
 2956 00ed 38       		.byte	56
 2957 00ee F1       		.byte	-15
 2958 00ef A4       		.byte	-92
 2959 00f0 40       		.byte	64
 2960 00f1 28       		.byte	40
 2961 00f2 D3       		.byte	-45
 2962 00f3 7B       		.byte	123
 2963 00f4 BB       		.byte	-69
 2964 00f5 C9       		.byte	-55
 2965 00f6 43       		.byte	67
 2966 00f7 C1       		.byte	-63
ARM GAS  C:\Users\Phuong\AppData\Local\Temp\ccZ7UQ35.s 			page 73


 2967 00f8 15       		.byte	21
 2968 00f9 E3       		.byte	-29
 2969 00fa AD       		.byte	-83
 2970 00fb F4       		.byte	-12
 2971 00fc 77       		.byte	119
 2972 00fd C7       		.byte	-57
 2973 00fe 80       		.byte	-128
 2974 00ff 9E       		.byte	-98
 2975              		.type	FSb2, %object
 2976              		.size	FSb2, 256
 2977              	FSb2:
 2978 0100 E0       		.byte	-32
 2979 0101 05       		.byte	5
 2980 0102 58       		.byte	88
 2981 0103 D9       		.byte	-39
 2982 0104 67       		.byte	103
 2983 0105 4E       		.byte	78
 2984 0106 81       		.byte	-127
 2985 0107 CB       		.byte	-53
 2986 0108 C9       		.byte	-55
 2987 0109 0B       		.byte	11
 2988 010a AE       		.byte	-82
 2989 010b 6A       		.byte	106
 2990 010c D5       		.byte	-43
 2991 010d 18       		.byte	24
 2992 010e 5D       		.byte	93
 2993 010f 82       		.byte	-126
 2994 0110 46       		.byte	70
 2995 0111 DF       		.byte	-33
 2996 0112 D6       		.byte	-42
 2997 0113 27       		.byte	39
 2998 0114 8A       		.byte	-118
 2999 0115 32       		.byte	50
 3000 0116 4B       		.byte	75
 3001 0117 42       		.byte	66
 3002 0118 DB       		.byte	-37
 3003 0119 1C       		.byte	28
 3004 011a 9E       		.byte	-98
 3005 011b 9C       		.byte	-100
 3006 011c 3A       		.byte	58
 3007 011d CA       		.byte	-54
 3008 011e 25       		.byte	37
 3009 011f 7B       		.byte	123
 3010 0120 0D       		.byte	13
 3011 0121 71       		.byte	113
 3012 0122 5F       		.byte	95
 3013 0123 1F       		.byte	31
 3014 0124 F8       		.byte	-8
 3015 0125 D7       		.byte	-41
 3016 0126 3E       		.byte	62
 3017 0127 9D       		.byte	-99
 3018 0128 7C       		.byte	124
 3019 0129 60       		.byte	96
 3020 012a B9       		.byte	-71
 3021 012b BE       		.byte	-66
 3022 012c BC       		.byte	-68
 3023 012d 8B       		.byte	-117
ARM GAS  C:\Users\Phuong\AppData\Local\Temp\ccZ7UQ35.s 			page 74


 3024 012e 16       		.byte	22
 3025 012f 34       		.byte	52
 3026 0130 4D       		.byte	77
 3027 0131 C3       		.byte	-61
 3028 0132 72       		.byte	114
 3029 0133 95       		.byte	-107
 3030 0134 AB       		.byte	-85
 3031 0135 8E       		.byte	-114
 3032 0136 BA       		.byte	-70
 3033 0137 7A       		.byte	122
 3034 0138 B3       		.byte	-77
 3035 0139 02       		.byte	2
 3036 013a B4       		.byte	-76
 3037 013b AD       		.byte	-83
 3038 013c A2       		.byte	-94
 3039 013d AC       		.byte	-84
 3040 013e D8       		.byte	-40
 3041 013f 9A       		.byte	-102
 3042 0140 17       		.byte	23
 3043 0141 1A       		.byte	26
 3044 0142 35       		.byte	53
 3045 0143 CC       		.byte	-52
 3046 0144 F7       		.byte	-9
 3047 0145 99       		.byte	-103
 3048 0146 61       		.byte	97
 3049 0147 5A       		.byte	90
 3050 0148 E8       		.byte	-24
 3051 0149 24       		.byte	36
 3052 014a 56       		.byte	86
 3053 014b 40       		.byte	64
 3054 014c E1       		.byte	-31
 3055 014d 63       		.byte	99
 3056 014e 09       		.byte	9
 3057 014f 33       		.byte	51
 3058 0150 BF       		.byte	-65
 3059 0151 98       		.byte	-104
 3060 0152 97       		.byte	-105
 3061 0153 85       		.byte	-123
 3062 0154 68       		.byte	104
 3063 0155 FC       		.byte	-4
 3064 0156 EC       		.byte	-20
 3065 0157 0A       		.byte	10
 3066 0158 DA       		.byte	-38
 3067 0159 6F       		.byte	111
 3068 015a 53       		.byte	83
 3069 015b 62       		.byte	98
 3070 015c A3       		.byte	-93
 3071 015d 2E       		.byte	46
 3072 015e 08       		.byte	8
 3073 015f AF       		.byte	-81
 3074 0160 28       		.byte	40
 3075 0161 B0       		.byte	-80
 3076 0162 74       		.byte	116
 3077 0163 C2       		.byte	-62
 3078 0164 BD       		.byte	-67
 3079 0165 36       		.byte	54
 3080 0166 22       		.byte	34
ARM GAS  C:\Users\Phuong\AppData\Local\Temp\ccZ7UQ35.s 			page 75


 3081 0167 38       		.byte	56
 3082 0168 64       		.byte	100
 3083 0169 1E       		.byte	30
 3084 016a 39       		.byte	57
 3085 016b 2C       		.byte	44
 3086 016c A6       		.byte	-90
 3087 016d 30       		.byte	48
 3088 016e E5       		.byte	-27
 3089 016f 44       		.byte	68
 3090 0170 FD       		.byte	-3
 3091 0171 88       		.byte	-120
 3092 0172 9F       		.byte	-97
 3093 0173 65       		.byte	101
 3094 0174 87       		.byte	-121
 3095 0175 6B       		.byte	107
 3096 0176 F4       		.byte	-12
 3097 0177 23       		.byte	35
 3098 0178 48       		.byte	72
 3099 0179 10       		.byte	16
 3100 017a D1       		.byte	-47
 3101 017b 51       		.byte	81
 3102 017c C0       		.byte	-64
 3103 017d F9       		.byte	-7
 3104 017e D2       		.byte	-46
 3105 017f A0       		.byte	-96
 3106 0180 55       		.byte	85
 3107 0181 A1       		.byte	-95
 3108 0182 41       		.byte	65
 3109 0183 FA       		.byte	-6
 3110 0184 43       		.byte	67
 3111 0185 13       		.byte	19
 3112 0186 C4       		.byte	-60
 3113 0187 2F       		.byte	47
 3114 0188 A8       		.byte	-88
 3115 0189 B6       		.byte	-74
 3116 018a 3C       		.byte	60
 3117 018b 2B       		.byte	43
 3118 018c C1       		.byte	-63
 3119 018d FF       		.byte	-1
 3120 018e C8       		.byte	-56
 3121 018f A5       		.byte	-91
 3122 0190 20       		.byte	32
 3123 0191 89       		.byte	-119
 3124 0192 00       		.byte	0
 3125 0193 90       		.byte	-112
 3126 0194 47       		.byte	71
 3127 0195 EF       		.byte	-17
 3128 0196 EA       		.byte	-22
 3129 0197 B7       		.byte	-73
 3130 0198 15       		.byte	21
 3131 0199 06       		.byte	6
 3132 019a CD       		.byte	-51
 3133 019b B5       		.byte	-75
 3134 019c 12       		.byte	18
 3135 019d 7E       		.byte	126
 3136 019e BB       		.byte	-69
 3137 019f 29       		.byte	41
ARM GAS  C:\Users\Phuong\AppData\Local\Temp\ccZ7UQ35.s 			page 76


 3138 01a0 0F       		.byte	15
 3139 01a1 B8       		.byte	-72
 3140 01a2 07       		.byte	7
 3141 01a3 04       		.byte	4
 3142 01a4 9B       		.byte	-101
 3143 01a5 94       		.byte	-108
 3144 01a6 21       		.byte	33
 3145 01a7 66       		.byte	102
 3146 01a8 E6       		.byte	-26
 3147 01a9 CE       		.byte	-50
 3148 01aa ED       		.byte	-19
 3149 01ab E7       		.byte	-25
 3150 01ac 3B       		.byte	59
 3151 01ad FE       		.byte	-2
 3152 01ae 7F       		.byte	127
 3153 01af C5       		.byte	-59
 3154 01b0 A4       		.byte	-92
 3155 01b1 37       		.byte	55
 3156 01b2 B1       		.byte	-79
 3157 01b3 4C       		.byte	76
 3158 01b4 91       		.byte	-111
 3159 01b5 6E       		.byte	110
 3160 01b6 8D       		.byte	-115
 3161 01b7 76       		.byte	118
 3162 01b8 03       		.byte	3
 3163 01b9 2D       		.byte	45
 3164 01ba DE       		.byte	-34
 3165 01bb 96       		.byte	-106
 3166 01bc 26       		.byte	38
 3167 01bd 7D       		.byte	125
 3168 01be C6       		.byte	-58
 3169 01bf 5C       		.byte	92
 3170 01c0 D3       		.byte	-45
 3171 01c1 F2       		.byte	-14
 3172 01c2 4F       		.byte	79
 3173 01c3 19       		.byte	25
 3174 01c4 3F       		.byte	63
 3175 01c5 DC       		.byte	-36
 3176 01c6 79       		.byte	121
 3177 01c7 1D       		.byte	29
 3178 01c8 52       		.byte	82
 3179 01c9 EB       		.byte	-21
 3180 01ca F3       		.byte	-13
 3181 01cb 6D       		.byte	109
 3182 01cc 5E       		.byte	94
 3183 01cd FB       		.byte	-5
 3184 01ce 69       		.byte	105
 3185 01cf B2       		.byte	-78
 3186 01d0 F0       		.byte	-16
 3187 01d1 31       		.byte	49
 3188 01d2 0C       		.byte	12
 3189 01d3 D4       		.byte	-44
 3190 01d4 CF       		.byte	-49
 3191 01d5 8C       		.byte	-116
 3192 01d6 E2       		.byte	-30
 3193 01d7 75       		.byte	117
 3194 01d8 A9       		.byte	-87
ARM GAS  C:\Users\Phuong\AppData\Local\Temp\ccZ7UQ35.s 			page 77


 3195 01d9 4A       		.byte	74
 3196 01da 57       		.byte	87
 3197 01db 84       		.byte	-124
 3198 01dc 11       		.byte	17
 3199 01dd 45       		.byte	69
 3200 01de 1B       		.byte	27
 3201 01df F5       		.byte	-11
 3202 01e0 E4       		.byte	-28
 3203 01e1 0E       		.byte	14
 3204 01e2 73       		.byte	115
 3205 01e3 AA       		.byte	-86
 3206 01e4 F1       		.byte	-15
 3207 01e5 DD       		.byte	-35
 3208 01e6 59       		.byte	89
 3209 01e7 14       		.byte	20
 3210 01e8 6C       		.byte	108
 3211 01e9 92       		.byte	-110
 3212 01ea 54       		.byte	84
 3213 01eb D0       		.byte	-48
 3214 01ec 78       		.byte	120
 3215 01ed 70       		.byte	112
 3216 01ee E3       		.byte	-29
 3217 01ef 49       		.byte	73
 3218 01f0 80       		.byte	-128
 3219 01f1 50       		.byte	80
 3220 01f2 A7       		.byte	-89
 3221 01f3 F6       		.byte	-10
 3222 01f4 77       		.byte	119
 3223 01f5 93       		.byte	-109
 3224 01f6 86       		.byte	-122
 3225 01f7 83       		.byte	-125
 3226 01f8 2A       		.byte	42
 3227 01f9 C7       		.byte	-57
 3228 01fa 5B       		.byte	91
 3229 01fb E9       		.byte	-23
 3230 01fc EE       		.byte	-18
 3231 01fd 8F       		.byte	-113
 3232 01fe 01       		.byte	1
 3233 01ff 3D       		.byte	61
 3234              		.type	FSb3, %object
 3235              		.size	FSb3, 256
 3236              	FSb3:
 3237 0200 38       		.byte	56
 3238 0201 41       		.byte	65
 3239 0202 16       		.byte	22
 3240 0203 76       		.byte	118
 3241 0204 D9       		.byte	-39
 3242 0205 93       		.byte	-109
 3243 0206 60       		.byte	96
 3244 0207 F2       		.byte	-14
 3245 0208 72       		.byte	114
 3246 0209 C2       		.byte	-62
 3247 020a AB       		.byte	-85
 3248 020b 9A       		.byte	-102
 3249 020c 75       		.byte	117
 3250 020d 06       		.byte	6
 3251 020e 57       		.byte	87
ARM GAS  C:\Users\Phuong\AppData\Local\Temp\ccZ7UQ35.s 			page 78


 3252 020f A0       		.byte	-96
 3253 0210 91       		.byte	-111
 3254 0211 F7       		.byte	-9
 3255 0212 B5       		.byte	-75
 3256 0213 C9       		.byte	-55
 3257 0214 A2       		.byte	-94
 3258 0215 8C       		.byte	-116
 3259 0216 D2       		.byte	-46
 3260 0217 90       		.byte	-112
 3261 0218 F6       		.byte	-10
 3262 0219 07       		.byte	7
 3263 021a A7       		.byte	-89
 3264 021b 27       		.byte	39
 3265 021c 8E       		.byte	-114
 3266 021d B2       		.byte	-78
 3267 021e 49       		.byte	73
 3268 021f DE       		.byte	-34
 3269 0220 43       		.byte	67
 3270 0221 5C       		.byte	92
 3271 0222 D7       		.byte	-41
 3272 0223 C7       		.byte	-57
 3273 0224 3E       		.byte	62
 3274 0225 F5       		.byte	-11
 3275 0226 8F       		.byte	-113
 3276 0227 67       		.byte	103
 3277 0228 1F       		.byte	31
 3278 0229 18       		.byte	24
 3279 022a 6E       		.byte	110
 3280 022b AF       		.byte	-81
 3281 022c 2F       		.byte	47
 3282 022d E2       		.byte	-30
 3283 022e 85       		.byte	-123
 3284 022f 0D       		.byte	13
 3285 0230 53       		.byte	83
 3286 0231 F0       		.byte	-16
 3287 0232 9C       		.byte	-100
 3288 0233 65       		.byte	101
 3289 0234 EA       		.byte	-22
 3290 0235 A3       		.byte	-93
 3291 0236 AE       		.byte	-82
 3292 0237 9E       		.byte	-98
 3293 0238 EC       		.byte	-20
 3294 0239 80       		.byte	-128
 3295 023a 2D       		.byte	45
 3296 023b 6B       		.byte	107
 3297 023c A8       		.byte	-88
 3298 023d 2B       		.byte	43
 3299 023e 36       		.byte	54
 3300 023f A6       		.byte	-90
 3301 0240 C5       		.byte	-59
 3302 0241 86       		.byte	-122
 3303 0242 4D       		.byte	77
 3304 0243 33       		.byte	51
 3305 0244 FD       		.byte	-3
 3306 0245 66       		.byte	102
 3307 0246 58       		.byte	88
 3308 0247 96       		.byte	-106
ARM GAS  C:\Users\Phuong\AppData\Local\Temp\ccZ7UQ35.s 			page 79


 3309 0248 3A       		.byte	58
 3310 0249 09       		.byte	9
 3311 024a 95       		.byte	-107
 3312 024b 10       		.byte	16
 3313 024c 78       		.byte	120
 3314 024d D8       		.byte	-40
 3315 024e 42       		.byte	66
 3316 024f CC       		.byte	-52
 3317 0250 EF       		.byte	-17
 3318 0251 26       		.byte	38
 3319 0252 E5       		.byte	-27
 3320 0253 61       		.byte	97
 3321 0254 1A       		.byte	26
 3322 0255 3F       		.byte	63
 3323 0256 3B       		.byte	59
 3324 0257 82       		.byte	-126
 3325 0258 B6       		.byte	-74
 3326 0259 DB       		.byte	-37
 3327 025a D4       		.byte	-44
 3328 025b 98       		.byte	-104
 3329 025c E8       		.byte	-24
 3330 025d 8B       		.byte	-117
 3331 025e 02       		.byte	2
 3332 025f EB       		.byte	-21
 3333 0260 0A       		.byte	10
 3334 0261 2C       		.byte	44
 3335 0262 1D       		.byte	29
 3336 0263 B0       		.byte	-80
 3337 0264 6F       		.byte	111
 3338 0265 8D       		.byte	-115
 3339 0266 88       		.byte	-120
 3340 0267 0E       		.byte	14
 3341 0268 19       		.byte	25
 3342 0269 87       		.byte	-121
 3343 026a 4E       		.byte	78
 3344 026b 0B       		.byte	11
 3345 026c A9       		.byte	-87
 3346 026d 0C       		.byte	12
 3347 026e 79       		.byte	121
 3348 026f 11       		.byte	17
 3349 0270 7F       		.byte	127
 3350 0271 22       		.byte	34
 3351 0272 E7       		.byte	-25
 3352 0273 59       		.byte	89
 3353 0274 E1       		.byte	-31
 3354 0275 DA       		.byte	-38
 3355 0276 3D       		.byte	61
 3356 0277 C8       		.byte	-56
 3357 0278 12       		.byte	18
 3358 0279 04       		.byte	4
 3359 027a 74       		.byte	116
 3360 027b 54       		.byte	84
 3361 027c 30       		.byte	48
 3362 027d 7E       		.byte	126
 3363 027e B4       		.byte	-76
 3364 027f 28       		.byte	40
 3365 0280 55       		.byte	85
ARM GAS  C:\Users\Phuong\AppData\Local\Temp\ccZ7UQ35.s 			page 80


 3366 0281 68       		.byte	104
 3367 0282 50       		.byte	80
 3368 0283 BE       		.byte	-66
 3369 0284 D0       		.byte	-48
 3370 0285 C4       		.byte	-60
 3371 0286 31       		.byte	49
 3372 0287 CB       		.byte	-53
 3373 0288 2A       		.byte	42
 3374 0289 AD       		.byte	-83
 3375 028a 0F       		.byte	15
 3376 028b CA       		.byte	-54
 3377 028c 70       		.byte	112
 3378 028d FF       		.byte	-1
 3379 028e 32       		.byte	50
 3380 028f 69       		.byte	105
 3381 0290 08       		.byte	8
 3382 0291 62       		.byte	98
 3383 0292 00       		.byte	0
 3384 0293 24       		.byte	36
 3385 0294 D1       		.byte	-47
 3386 0295 FB       		.byte	-5
 3387 0296 BA       		.byte	-70
 3388 0297 ED       		.byte	-19
 3389 0298 45       		.byte	69
 3390 0299 81       		.byte	-127
 3391 029a 73       		.byte	115
 3392 029b 6D       		.byte	109
 3393 029c 84       		.byte	-124
 3394 029d 9F       		.byte	-97
 3395 029e EE       		.byte	-18
 3396 029f 4A       		.byte	74
 3397 02a0 C3       		.byte	-61
 3398 02a1 2E       		.byte	46
 3399 02a2 C1       		.byte	-63
 3400 02a3 01       		.byte	1
 3401 02a4 E6       		.byte	-26
 3402 02a5 25       		.byte	37
 3403 02a6 48       		.byte	72
 3404 02a7 99       		.byte	-103
 3405 02a8 B9       		.byte	-71
 3406 02a9 B3       		.byte	-77
 3407 02aa 7B       		.byte	123
 3408 02ab F9       		.byte	-7
 3409 02ac CE       		.byte	-50
 3410 02ad BF       		.byte	-65
 3411 02ae DF       		.byte	-33
 3412 02af 71       		.byte	113
 3413 02b0 29       		.byte	41
 3414 02b1 CD       		.byte	-51
 3415 02b2 6C       		.byte	108
 3416 02b3 13       		.byte	19
 3417 02b4 64       		.byte	100
 3418 02b5 9B       		.byte	-101
 3419 02b6 63       		.byte	99
 3420 02b7 9D       		.byte	-99
 3421 02b8 C0       		.byte	-64
 3422 02b9 4B       		.byte	75
ARM GAS  C:\Users\Phuong\AppData\Local\Temp\ccZ7UQ35.s 			page 81


 3423 02ba B7       		.byte	-73
 3424 02bb A5       		.byte	-91
 3425 02bc 89       		.byte	-119
 3426 02bd 5F       		.byte	95
 3427 02be B1       		.byte	-79
 3428 02bf 17       		.byte	23
 3429 02c0 F4       		.byte	-12
 3430 02c1 BC       		.byte	-68
 3431 02c2 D3       		.byte	-45
 3432 02c3 46       		.byte	70
 3433 02c4 CF       		.byte	-49
 3434 02c5 37       		.byte	55
 3435 02c6 5E       		.byte	94
 3436 02c7 47       		.byte	71
 3437 02c8 94       		.byte	-108
 3438 02c9 FA       		.byte	-6
 3439 02ca FC       		.byte	-4
 3440 02cb 5B       		.byte	91
 3441 02cc 97       		.byte	-105
 3442 02cd FE       		.byte	-2
 3443 02ce 5A       		.byte	90
 3444 02cf AC       		.byte	-84
 3445 02d0 3C       		.byte	60
 3446 02d1 4C       		.byte	76
 3447 02d2 03       		.byte	3
 3448 02d3 35       		.byte	53
 3449 02d4 F3       		.byte	-13
 3450 02d5 23       		.byte	35
 3451 02d6 B8       		.byte	-72
 3452 02d7 5D       		.byte	93
 3453 02d8 6A       		.byte	106
 3454 02d9 92       		.byte	-110
 3455 02da D5       		.byte	-43
 3456 02db 21       		.byte	33
 3457 02dc 44       		.byte	68
 3458 02dd 51       		.byte	81
 3459 02de C6       		.byte	-58
 3460 02df 7D       		.byte	125
 3461 02e0 39       		.byte	57
 3462 02e1 83       		.byte	-125
 3463 02e2 DC       		.byte	-36
 3464 02e3 AA       		.byte	-86
 3465 02e4 7C       		.byte	124
 3466 02e5 77       		.byte	119
 3467 02e6 56       		.byte	86
 3468 02e7 05       		.byte	5
 3469 02e8 1B       		.byte	27
 3470 02e9 A4       		.byte	-92
 3471 02ea 15       		.byte	21
 3472 02eb 34       		.byte	52
 3473 02ec 1E       		.byte	30
 3474 02ed 1C       		.byte	28
 3475 02ee F8       		.byte	-8
 3476 02ef 52       		.byte	82
 3477 02f0 20       		.byte	32
 3478 02f1 14       		.byte	20
 3479 02f2 E9       		.byte	-23
ARM GAS  C:\Users\Phuong\AppData\Local\Temp\ccZ7UQ35.s 			page 82


 3480 02f3 BD       		.byte	-67
 3481 02f4 DD       		.byte	-35
 3482 02f5 E4       		.byte	-28
 3483 02f6 A1       		.byte	-95
 3484 02f7 E0       		.byte	-32
 3485 02f8 8A       		.byte	-118
 3486 02f9 F1       		.byte	-15
 3487 02fa D6       		.byte	-42
 3488 02fb 7A       		.byte	122
 3489 02fc BB       		.byte	-69
 3490 02fd E3       		.byte	-29
 3491 02fe 40       		.byte	64
 3492 02ff 4F       		.byte	79
 3493              		.type	FSb4, %object
 3494              		.size	FSb4, 256
 3495              	FSb4:
 3496 0300 70       		.byte	112
 3497 0301 2C       		.byte	44
 3498 0302 B3       		.byte	-77
 3499 0303 C0       		.byte	-64
 3500 0304 E4       		.byte	-28
 3501 0305 57       		.byte	87
 3502 0306 EA       		.byte	-22
 3503 0307 AE       		.byte	-82
 3504 0308 23       		.byte	35
 3505 0309 6B       		.byte	107
 3506 030a 45       		.byte	69
 3507 030b A5       		.byte	-91
 3508 030c ED       		.byte	-19
 3509 030d 4F       		.byte	79
 3510 030e 1D       		.byte	29
 3511 030f 92       		.byte	-110
 3512 0310 86       		.byte	-122
 3513 0311 AF       		.byte	-81
 3514 0312 7C       		.byte	124
 3515 0313 1F       		.byte	31
 3516 0314 3E       		.byte	62
 3517 0315 DC       		.byte	-36
 3518 0316 5E       		.byte	94
 3519 0317 0B       		.byte	11
 3520 0318 A6       		.byte	-90
 3521 0319 39       		.byte	57
 3522 031a D5       		.byte	-43
 3523 031b 5D       		.byte	93
 3524 031c D9       		.byte	-39
 3525 031d 5A       		.byte	90
 3526 031e 51       		.byte	81
 3527 031f 6C       		.byte	108
 3528 0320 8B       		.byte	-117
 3529 0321 9A       		.byte	-102
 3530 0322 FB       		.byte	-5
 3531 0323 B0       		.byte	-80
 3532 0324 74       		.byte	116
 3533 0325 2B       		.byte	43
 3534 0326 F0       		.byte	-16
 3535 0327 84       		.byte	-124
 3536 0328 DF       		.byte	-33
ARM GAS  C:\Users\Phuong\AppData\Local\Temp\ccZ7UQ35.s 			page 83


 3537 0329 CB       		.byte	-53
 3538 032a 34       		.byte	52
 3539 032b 76       		.byte	118
 3540 032c 6D       		.byte	109
 3541 032d A9       		.byte	-87
 3542 032e D1       		.byte	-47
 3543 032f 04       		.byte	4
 3544 0330 14       		.byte	20
 3545 0331 3A       		.byte	58
 3546 0332 DE       		.byte	-34
 3547 0333 11       		.byte	17
 3548 0334 32       		.byte	50
 3549 0335 9C       		.byte	-100
 3550 0336 53       		.byte	83
 3551 0337 F2       		.byte	-14
 3552 0338 FE       		.byte	-2
 3553 0339 CF       		.byte	-49
 3554 033a C3       		.byte	-61
 3555 033b 7A       		.byte	122
 3556 033c 24       		.byte	36
 3557 033d E8       		.byte	-24
 3558 033e 60       		.byte	96
 3559 033f 69       		.byte	105
 3560 0340 AA       		.byte	-86
 3561 0341 A0       		.byte	-96
 3562 0342 A1       		.byte	-95
 3563 0343 62       		.byte	98
 3564 0344 54       		.byte	84
 3565 0345 1E       		.byte	30
 3566 0346 E0       		.byte	-32
 3567 0347 64       		.byte	100
 3568 0348 10       		.byte	16
 3569 0349 00       		.byte	0
 3570 034a A3       		.byte	-93
 3571 034b 75       		.byte	117
 3572 034c 8A       		.byte	-118
 3573 034d E6       		.byte	-26
 3574 034e 09       		.byte	9
 3575 034f DD       		.byte	-35
 3576 0350 87       		.byte	-121
 3577 0351 83       		.byte	-125
 3578 0352 CD       		.byte	-51
 3579 0353 90       		.byte	-112
 3580 0354 73       		.byte	115
 3581 0355 F6       		.byte	-10
 3582 0356 9D       		.byte	-99
 3583 0357 BF       		.byte	-65
 3584 0358 52       		.byte	82
 3585 0359 D8       		.byte	-40
 3586 035a C8       		.byte	-56
 3587 035b C6       		.byte	-58
 3588 035c 81       		.byte	-127
 3589 035d 6F       		.byte	111
 3590 035e 13       		.byte	19
 3591 035f 63       		.byte	99
 3592 0360 E9       		.byte	-23
 3593 0361 A7       		.byte	-89
ARM GAS  C:\Users\Phuong\AppData\Local\Temp\ccZ7UQ35.s 			page 84


 3594 0362 9F       		.byte	-97
 3595 0363 BC       		.byte	-68
 3596 0364 29       		.byte	41
 3597 0365 F9       		.byte	-7
 3598 0366 2F       		.byte	47
 3599 0367 B4       		.byte	-76
 3600 0368 78       		.byte	120
 3601 0369 06       		.byte	6
 3602 036a E7       		.byte	-25
 3603 036b 71       		.byte	113
 3604 036c D4       		.byte	-44
 3605 036d AB       		.byte	-85
 3606 036e 88       		.byte	-120
 3607 036f 8D       		.byte	-115
 3608 0370 72       		.byte	114
 3609 0371 B9       		.byte	-71
 3610 0372 F8       		.byte	-8
 3611 0373 AC       		.byte	-84
 3612 0374 36       		.byte	54
 3613 0375 2A       		.byte	42
 3614 0376 3C       		.byte	60
 3615 0377 F1       		.byte	-15
 3616 0378 40       		.byte	64
 3617 0379 D3       		.byte	-45
 3618 037a BB       		.byte	-69
 3619 037b 43       		.byte	67
 3620 037c 15       		.byte	21
 3621 037d AD       		.byte	-83
 3622 037e 77       		.byte	119
 3623 037f 80       		.byte	-128
 3624 0380 82       		.byte	-126
 3625 0381 EC       		.byte	-20
 3626 0382 27       		.byte	39
 3627 0383 E5       		.byte	-27
 3628 0384 85       		.byte	-123
 3629 0385 35       		.byte	53
 3630 0386 0C       		.byte	12
 3631 0387 41       		.byte	65
 3632 0388 EF       		.byte	-17
 3633 0389 93       		.byte	-109
 3634 038a 19       		.byte	25
 3635 038b 21       		.byte	33
 3636 038c 0E       		.byte	14
 3637 038d 4E       		.byte	78
 3638 038e 65       		.byte	101
 3639 038f BD       		.byte	-67
 3640 0390 B8       		.byte	-72
 3641 0391 8F       		.byte	-113
 3642 0392 EB       		.byte	-21
 3643 0393 CE       		.byte	-50
 3644 0394 30       		.byte	48
 3645 0395 5F       		.byte	95
 3646 0396 C5       		.byte	-59
 3647 0397 1A       		.byte	26
 3648 0398 E1       		.byte	-31
 3649 0399 CA       		.byte	-54
 3650 039a 47       		.byte	71
ARM GAS  C:\Users\Phuong\AppData\Local\Temp\ccZ7UQ35.s 			page 85


 3651 039b 3D       		.byte	61
 3652 039c 01       		.byte	1
 3653 039d D6       		.byte	-42
 3654 039e 56       		.byte	86
 3655 039f 4D       		.byte	77
 3656 03a0 0D       		.byte	13
 3657 03a1 66       		.byte	102
 3658 03a2 CC       		.byte	-52
 3659 03a3 2D       		.byte	45
 3660 03a4 12       		.byte	18
 3661 03a5 20       		.byte	32
 3662 03a6 B1       		.byte	-79
 3663 03a7 99       		.byte	-103
 3664 03a8 4C       		.byte	76
 3665 03a9 C2       		.byte	-62
 3666 03aa 7E       		.byte	126
 3667 03ab 05       		.byte	5
 3668 03ac B7       		.byte	-73
 3669 03ad 31       		.byte	49
 3670 03ae 17       		.byte	23
 3671 03af D7       		.byte	-41
 3672 03b0 58       		.byte	88
 3673 03b1 61       		.byte	97
 3674 03b2 1B       		.byte	27
 3675 03b3 1C       		.byte	28
 3676 03b4 0F       		.byte	15
 3677 03b5 16       		.byte	22
 3678 03b6 18       		.byte	24
 3679 03b7 22       		.byte	34
 3680 03b8 44       		.byte	68
 3681 03b9 B2       		.byte	-78
 3682 03ba B5       		.byte	-75
 3683 03bb 91       		.byte	-111
 3684 03bc 08       		.byte	8
 3685 03bd A8       		.byte	-88
 3686 03be FC       		.byte	-4
 3687 03bf 50       		.byte	80
 3688 03c0 D0       		.byte	-48
 3689 03c1 7D       		.byte	125
 3690 03c2 89       		.byte	-119
 3691 03c3 97       		.byte	-105
 3692 03c4 5B       		.byte	91
 3693 03c5 95       		.byte	-107
 3694 03c6 FF       		.byte	-1
 3695 03c7 D2       		.byte	-46
 3696 03c8 C4       		.byte	-60
 3697 03c9 48       		.byte	72
 3698 03ca F7       		.byte	-9
 3699 03cb DB       		.byte	-37
 3700 03cc 03       		.byte	3
 3701 03cd DA       		.byte	-38
 3702 03ce 3F       		.byte	63
 3703 03cf 94       		.byte	-108
 3704 03d0 5C       		.byte	92
 3705 03d1 02       		.byte	2
 3706 03d2 4A       		.byte	74
 3707 03d3 33       		.byte	51
ARM GAS  C:\Users\Phuong\AppData\Local\Temp\ccZ7UQ35.s 			page 86


 3708 03d4 67       		.byte	103
 3709 03d5 F3       		.byte	-13
 3710 03d6 7F       		.byte	127
 3711 03d7 E2       		.byte	-30
 3712 03d8 9B       		.byte	-101
 3713 03d9 26       		.byte	38
 3714 03da 37       		.byte	55
 3715 03db 3B       		.byte	59
 3716 03dc 96       		.byte	-106
 3717 03dd 4B       		.byte	75
 3718 03de BE       		.byte	-66
 3719 03df 2E       		.byte	46
 3720 03e0 79       		.byte	121
 3721 03e1 8C       		.byte	-116
 3722 03e2 6E       		.byte	110
 3723 03e3 8E       		.byte	-114
 3724 03e4 F5       		.byte	-11
 3725 03e5 B6       		.byte	-74
 3726 03e6 FD       		.byte	-3
 3727 03e7 59       		.byte	89
 3728 03e8 98       		.byte	-104
 3729 03e9 6A       		.byte	106
 3730 03ea 46       		.byte	70
 3731 03eb BA       		.byte	-70
 3732 03ec 25       		.byte	37
 3733 03ed 42       		.byte	66
 3734 03ee A2       		.byte	-94
 3735 03ef FA       		.byte	-6
 3736 03f0 07       		.byte	7
 3737 03f1 55       		.byte	85
 3738 03f2 EE       		.byte	-18
 3739 03f3 0A       		.byte	10
 3740 03f4 49       		.byte	73
 3741 03f5 68       		.byte	104
 3742 03f6 38       		.byte	56
 3743 03f7 A4       		.byte	-92
 3744 03f8 28       		.byte	40
 3745 03f9 7B       		.byte	123
 3746 03fa C9       		.byte	-55
 3747 03fb C1       		.byte	-63
 3748 03fc E3       		.byte	-29
 3749 03fd F4       		.byte	-12
 3750 03fe C7       		.byte	-57
 3751 03ff 9E       		.byte	-98
 3752              		.type	SIGMA_CHARS, %object
 3753              		.size	SIGMA_CHARS, 48
 3754              	SIGMA_CHARS:
 3755 0400 A0       		.byte	-96
 3756 0401 9E       		.byte	-98
 3757 0402 66       		.byte	102
 3758 0403 7F       		.byte	127
 3759 0404 3B       		.byte	59
 3760 0405 CC       		.byte	-52
 3761 0406 90       		.byte	-112
 3762 0407 8B       		.byte	-117
 3763 0408 B6       		.byte	-74
 3764 0409 7A       		.byte	122
ARM GAS  C:\Users\Phuong\AppData\Local\Temp\ccZ7UQ35.s 			page 87


 3765 040a E8       		.byte	-24
 3766 040b 58       		.byte	88
 3767 040c 4C       		.byte	76
 3768 040d AA       		.byte	-86
 3769 040e 73       		.byte	115
 3770 040f B2       		.byte	-78
 3771 0410 C6       		.byte	-58
 3772 0411 EF       		.byte	-17
 3773 0412 37       		.byte	55
 3774 0413 2F       		.byte	47
 3775 0414 E9       		.byte	-23
 3776 0415 4F       		.byte	79
 3777 0416 82       		.byte	-126
 3778 0417 BE       		.byte	-66
 3779 0418 54       		.byte	84
 3780 0419 FF       		.byte	-1
 3781 041a 53       		.byte	83
 3782 041b A5       		.byte	-91
 3783 041c F1       		.byte	-15
 3784 041d D3       		.byte	-45
 3785 041e 6F       		.byte	111
 3786 041f 1C       		.byte	28
 3787 0420 10       		.byte	16
 3788 0421 E5       		.byte	-27
 3789 0422 27       		.byte	39
 3790 0423 FA       		.byte	-6
 3791 0424 DE       		.byte	-34
 3792 0425 68       		.byte	104
 3793 0426 2D       		.byte	45
 3794 0427 1D       		.byte	29
 3795 0428 B0       		.byte	-80
 3796 0429 56       		.byte	86
 3797 042a 88       		.byte	-120
 3798 042b C2       		.byte	-62
 3799 042c B3       		.byte	-77
 3800 042d E6       		.byte	-26
 3801 042e C1       		.byte	-63
 3802 042f FD       		.byte	-3
 3803              		.type	shifts, %object
 3804              		.size	shifts, 32
 3805              	shifts:
 3806 0430 01       		.byte	1
 3807 0431 01       		.byte	1
 3808 0432 01       		.byte	1
 3809 0433 01       		.byte	1
 3810 0434 00       		.byte	0
 3811 0435 00       		.byte	0
 3812 0436 00       		.byte	0
 3813 0437 00       		.byte	0
 3814 0438 01       		.byte	1
 3815 0439 01       		.byte	1
 3816 043a 01       		.byte	1
 3817 043b 01       		.byte	1
 3818 043c 00       		.byte	0
 3819 043d 00       		.byte	0
 3820 043e 00       		.byte	0
 3821 043f 00       		.byte	0
ARM GAS  C:\Users\Phuong\AppData\Local\Temp\ccZ7UQ35.s 			page 88


 3822 0440 01       		.byte	1
 3823 0441 00       		.byte	0
 3824 0442 01       		.byte	1
 3825 0443 01       		.byte	1
 3826 0444 01       		.byte	1
 3827 0445 01       		.byte	1
 3828 0446 00       		.byte	0
 3829 0447 01       		.byte	1
 3830 0448 01       		.byte	1
 3831 0449 01       		.byte	1
 3832 044a 01       		.byte	1
 3833 044b 00       		.byte	0
 3834 044c 01       		.byte	1
 3835 044d 01       		.byte	1
 3836 044e 00       		.byte	0
 3837 044f 01       		.byte	1
 3838              		.type	indexes, %object
 3839              		.size	indexes, 160
 3840              	indexes:
 3841 0450 00       		.byte	0
 3842 0451 01       		.byte	1
 3843 0452 02       		.byte	2
 3844 0453 03       		.byte	3
 3845 0454 08       		.byte	8
 3846 0455 09       		.byte	9
 3847 0456 0A       		.byte	10
 3848 0457 0B       		.byte	11
 3849 0458 26       		.byte	38
 3850 0459 27       		.byte	39
 3851 045a 24       		.byte	36
 3852 045b 25       		.byte	37
 3853 045c 17       		.byte	23
 3854 045d 14       		.byte	20
 3855 045e 15       		.byte	21
 3856 045f 16       		.byte	22
 3857 0460 1B       		.byte	27
 3858 0461 FF       		.byte	-1
 3859 0462 FF       		.byte	-1
 3860 0463 1A       		.byte	26
 3861 0464 FF       		.byte	-1
 3862 0465 FF       		.byte	-1
 3863 0466 FF       		.byte	-1
 3864 0467 FF       		.byte	-1
 3865 0468 FF       		.byte	-1
 3866 0469 FF       		.byte	-1
 3867 046a FF       		.byte	-1
 3868 046b FF       		.byte	-1
 3869 046c FF       		.byte	-1
 3870 046d FF       		.byte	-1
 3871 046e FF       		.byte	-1
 3872 046f FF       		.byte	-1
 3873 0470 FF       		.byte	-1
 3874 0471 FF       		.byte	-1
 3875 0472 FF       		.byte	-1
 3876 0473 FF       		.byte	-1
 3877 0474 FF       		.byte	-1
 3878 0475 FF       		.byte	-1
ARM GAS  C:\Users\Phuong\AppData\Local\Temp\ccZ7UQ35.s 			page 89


 3879 0476 FF       		.byte	-1
 3880 0477 FF       		.byte	-1
 3881 0478 04       		.byte	4
 3882 0479 05       		.byte	5
 3883 047a 06       		.byte	6
 3884 047b 07       		.byte	7
 3885 047c 0C       		.byte	12
 3886 047d 0D       		.byte	13
 3887 047e 0E       		.byte	14
 3888 047f 0F       		.byte	15
 3889 0480 10       		.byte	16
 3890 0481 11       		.byte	17
 3891 0482 12       		.byte	18
 3892 0483 13       		.byte	19
 3893 0484 FF       		.byte	-1
 3894 0485 18       		.byte	24
 3895 0486 19       		.byte	25
 3896 0487 FF       		.byte	-1
 3897 0488 1F       		.byte	31
 3898 0489 1C       		.byte	28
 3899 048a 1D       		.byte	29
 3900 048b 1E       		.byte	30
 3901 048c FF       		.byte	-1
 3902 048d FF       		.byte	-1
 3903 048e FF       		.byte	-1
 3904 048f FF       		.byte	-1
 3905 0490 FF       		.byte	-1
 3906 0491 FF       		.byte	-1
 3907 0492 FF       		.byte	-1
 3908 0493 FF       		.byte	-1
 3909 0494 FF       		.byte	-1
 3910 0495 FF       		.byte	-1
 3911 0496 FF       		.byte	-1
 3912 0497 FF       		.byte	-1
 3913 0498 FF       		.byte	-1
 3914 0499 FF       		.byte	-1
 3915 049a FF       		.byte	-1
 3916 049b FF       		.byte	-1
 3917 049c FF       		.byte	-1
 3918 049d FF       		.byte	-1
 3919 049e FF       		.byte	-1
 3920 049f FF       		.byte	-1
 3921 04a0 00       		.byte	0
 3922 04a1 01       		.byte	1
 3923 04a2 02       		.byte	2
 3924 04a3 03       		.byte	3
 3925 04a4 3D       		.byte	61
 3926 04a5 3E       		.byte	62
 3927 04a6 3F       		.byte	63
 3928 04a7 3C       		.byte	60
 3929 04a8 FF       		.byte	-1
 3930 04a9 FF       		.byte	-1
 3931 04aa FF       		.byte	-1
 3932 04ab FF       		.byte	-1
 3933 04ac 1B       		.byte	27
 3934 04ad 18       		.byte	24
 3935 04ae 19       		.byte	25
ARM GAS  C:\Users\Phuong\AppData\Local\Temp\ccZ7UQ35.s 			page 90


 3936 04af 1A       		.byte	26
 3937 04b0 23       		.byte	35
 3938 04b1 20       		.byte	32
 3939 04b2 21       		.byte	33
 3940 04b3 22       		.byte	34
 3941 04b4 FF       		.byte	-1
 3942 04b5 FF       		.byte	-1
 3943 04b6 FF       		.byte	-1
 3944 04b7 FF       		.byte	-1
 3945 04b8 08       		.byte	8
 3946 04b9 09       		.byte	9
 3947 04ba 0A       		.byte	10
 3948 04bb 0B       		.byte	11
 3949 04bc 10       		.byte	16
 3950 04bd 11       		.byte	17
 3951 04be 12       		.byte	18
 3952 04bf 13       		.byte	19
 3953 04c0 FF       		.byte	-1
 3954 04c1 FF       		.byte	-1
 3955 04c2 FF       		.byte	-1
 3956 04c3 FF       		.byte	-1
 3957 04c4 27       		.byte	39
 3958 04c5 24       		.byte	36
 3959 04c6 25       		.byte	37
 3960 04c7 26       		.byte	38
 3961 04c8 FF       		.byte	-1
 3962 04c9 FF       		.byte	-1
 3963 04ca FF       		.byte	-1
 3964 04cb FF       		.byte	-1
 3965 04cc 0C       		.byte	12
 3966 04cd 0D       		.byte	13
 3967 04ce 0E       		.byte	14
 3968 04cf 0F       		.byte	15
 3969 04d0 3A       		.byte	58
 3970 04d1 3B       		.byte	59
 3971 04d2 38       		.byte	56
 3972 04d3 39       		.byte	57
 3973 04d4 1F       		.byte	31
 3974 04d5 1C       		.byte	28
 3975 04d6 1D       		.byte	29
 3976 04d7 1E       		.byte	30
 3977 04d8 FF       		.byte	-1
 3978 04d9 FF       		.byte	-1
 3979 04da FF       		.byte	-1
 3980 04db FF       		.byte	-1
 3981 04dc 04       		.byte	4
 3982 04dd 05       		.byte	5
 3983 04de 06       		.byte	6
 3984 04df 07       		.byte	7
 3985 04e0 41       		.byte	65
 3986 04e1 42       		.byte	66
 3987 04e2 43       		.byte	67
 3988 04e3 40       		.byte	64
 3989 04e4 14       		.byte	20
 3990 04e5 15       		.byte	21
 3991 04e6 16       		.byte	22
 3992 04e7 17       		.byte	23
ARM GAS  C:\Users\Phuong\AppData\Local\Temp\ccZ7UQ35.s 			page 91


 3993 04e8 FF       		.byte	-1
 3994 04e9 FF       		.byte	-1
 3995 04ea FF       		.byte	-1
 3996 04eb FF       		.byte	-1
 3997 04ec 2B       		.byte	43
 3998 04ed 28       		.byte	40
 3999 04ee 29       		.byte	41
 4000 04ef 2A       		.byte	42
 4001              		.type	transposes, %object
 4002              		.size	transposes, 40
 4003              	transposes:
 4004 04f0 15       		.byte	21
 4005 04f1 16       		.byte	22
 4006 04f2 17       		.byte	23
 4007 04f3 14       		.byte	20
 4008 04f4 FF       		.byte	-1
 4009 04f5 FF       		.byte	-1
 4010 04f6 FF       		.byte	-1
 4011 04f7 FF       		.byte	-1
 4012 04f8 12       		.byte	18
 4013 04f9 13       		.byte	19
 4014 04fa 10       		.byte	16
 4015 04fb 11       		.byte	17
 4016 04fc 0B       		.byte	11
 4017 04fd 08       		.byte	8
 4018 04fe 09       		.byte	9
 4019 04ff 0A       		.byte	10
 4020 0500 0F       		.byte	15
 4021 0501 0C       		.byte	12
 4022 0502 0D       		.byte	13
 4023 0503 0E       		.byte	14
 4024 0504 19       		.byte	25
 4025 0505 1A       		.byte	26
 4026 0506 1B       		.byte	27
 4027 0507 18       		.byte	24
 4028 0508 1D       		.byte	29
 4029 0509 1E       		.byte	30
 4030 050a 1F       		.byte	31
 4031 050b 1C       		.byte	28
 4032 050c 12       		.byte	18
 4033 050d 13       		.byte	19
 4034 050e 10       		.byte	16
 4035 050f 11       		.byte	17
 4036 0510 FF       		.byte	-1
 4037 0511 FF       		.byte	-1
 4038 0512 FF       		.byte	-1
 4039 0513 FF       		.byte	-1
 4040 0514 FF       		.byte	-1
 4041 0515 FF       		.byte	-1
 4042 0516 FF       		.byte	-1
 4043 0517 FF       		.byte	-1
 4044              		.type	camellia_test_ecb_key, %object
 4045              		.size	camellia_test_ecb_key, 192
 4046              	camellia_test_ecb_key:
 4047 0518 01       		.byte	1
 4048 0519 23       		.byte	35
 4049 051a 45       		.byte	69
ARM GAS  C:\Users\Phuong\AppData\Local\Temp\ccZ7UQ35.s 			page 92


 4050 051b 67       		.byte	103
 4051 051c 89       		.byte	-119
 4052 051d AB       		.byte	-85
 4053 051e CD       		.byte	-51
 4054 051f EF       		.byte	-17
 4055 0520 FE       		.byte	-2
 4056 0521 DC       		.byte	-36
 4057 0522 BA       		.byte	-70
 4058 0523 98       		.byte	-104
 4059 0524 76       		.byte	118
 4060 0525 54       		.byte	84
 4061 0526 32       		.byte	50
 4062 0527 10       		.byte	16
 4063 0528 00000000 		.space	16
 4063      00000000 
 4063      00000000 
 4063      00000000 
 4064 0538 00       		.byte	0
 4065 0539 00       		.byte	0
 4066 053a 00       		.byte	0
 4067 053b 00       		.byte	0
 4068 053c 00       		.byte	0
 4069 053d 00       		.byte	0
 4070 053e 00       		.byte	0
 4071 053f 00       		.byte	0
 4072 0540 00       		.byte	0
 4073 0541 00       		.byte	0
 4074 0542 00       		.byte	0
 4075 0543 00       		.byte	0
 4076 0544 00       		.byte	0
 4077 0545 00       		.byte	0
 4078 0546 00       		.byte	0
 4079 0547 00       		.byte	0
 4080 0548 00000000 		.space	16
 4080      00000000 
 4080      00000000 
 4080      00000000 
 4081 0558 01       		.byte	1
 4082 0559 23       		.byte	35
 4083 055a 45       		.byte	69
 4084 055b 67       		.byte	103
 4085 055c 89       		.byte	-119
 4086 055d AB       		.byte	-85
 4087 055e CD       		.byte	-51
 4088 055f EF       		.byte	-17
 4089 0560 FE       		.byte	-2
 4090 0561 DC       		.byte	-36
 4091 0562 BA       		.byte	-70
 4092 0563 98       		.byte	-104
 4093 0564 76       		.byte	118
 4094 0565 54       		.byte	84
 4095 0566 32       		.byte	50
 4096 0567 10       		.byte	16
 4097 0568 00       		.byte	0
 4098 0569 11       		.byte	17
 4099 056a 22       		.byte	34
 4100 056b 33       		.byte	51
ARM GAS  C:\Users\Phuong\AppData\Local\Temp\ccZ7UQ35.s 			page 93


 4101 056c 44       		.byte	68
 4102 056d 55       		.byte	85
 4103 056e 66       		.byte	102
 4104 056f 77       		.byte	119
 4105 0570 00000000 		.space	8
 4105      00000000 
 4106 0578 00       		.byte	0
 4107 0579 00       		.byte	0
 4108 057a 00       		.byte	0
 4109 057b 00       		.byte	0
 4110 057c 00       		.byte	0
 4111 057d 00       		.byte	0
 4112 057e 00       		.byte	0
 4113 057f 00       		.byte	0
 4114 0580 00       		.byte	0
 4115 0581 00       		.byte	0
 4116 0582 00       		.byte	0
 4117 0583 00       		.byte	0
 4118 0584 00       		.byte	0
 4119 0585 00       		.byte	0
 4120 0586 00       		.byte	0
 4121 0587 00       		.byte	0
 4122 0588 00       		.byte	0
 4123 0589 00       		.byte	0
 4124 058a 00       		.byte	0
 4125 058b 00       		.byte	0
 4126 058c 00       		.byte	0
 4127 058d 00       		.byte	0
 4128 058e 00       		.byte	0
 4129 058f 00       		.byte	0
 4130 0590 00000000 		.space	8
 4130      00000000 
 4131 0598 01       		.byte	1
 4132 0599 23       		.byte	35
 4133 059a 45       		.byte	69
 4134 059b 67       		.byte	103
 4135 059c 89       		.byte	-119
 4136 059d AB       		.byte	-85
 4137 059e CD       		.byte	-51
 4138 059f EF       		.byte	-17
 4139 05a0 FE       		.byte	-2
 4140 05a1 DC       		.byte	-36
 4141 05a2 BA       		.byte	-70
 4142 05a3 98       		.byte	-104
 4143 05a4 76       		.byte	118
 4144 05a5 54       		.byte	84
 4145 05a6 32       		.byte	50
 4146 05a7 10       		.byte	16
 4147 05a8 00       		.byte	0
 4148 05a9 11       		.byte	17
 4149 05aa 22       		.byte	34
 4150 05ab 33       		.byte	51
 4151 05ac 44       		.byte	68
 4152 05ad 55       		.byte	85
 4153 05ae 66       		.byte	102
 4154 05af 77       		.byte	119
 4155 05b0 88       		.byte	-120
ARM GAS  C:\Users\Phuong\AppData\Local\Temp\ccZ7UQ35.s 			page 94


 4156 05b1 99       		.byte	-103
 4157 05b2 AA       		.byte	-86
 4158 05b3 BB       		.byte	-69
 4159 05b4 CC       		.byte	-52
 4160 05b5 DD       		.byte	-35
 4161 05b6 EE       		.byte	-18
 4162 05b7 FF       		.byte	-1
 4163 05b8 00       		.byte	0
 4164 05b9 00       		.byte	0
 4165 05ba 00       		.byte	0
 4166 05bb 00       		.byte	0
 4167 05bc 00       		.byte	0
 4168 05bd 00       		.byte	0
 4169 05be 00       		.byte	0
 4170 05bf 00       		.byte	0
 4171 05c0 00       		.byte	0
 4172 05c1 00       		.byte	0
 4173 05c2 00       		.byte	0
 4174 05c3 00       		.byte	0
 4175 05c4 00       		.byte	0
 4176 05c5 00       		.byte	0
 4177 05c6 00       		.byte	0
 4178 05c7 00       		.byte	0
 4179 05c8 00       		.byte	0
 4180 05c9 00       		.byte	0
 4181 05ca 00       		.byte	0
 4182 05cb 00       		.byte	0
 4183 05cc 00       		.byte	0
 4184 05cd 00       		.byte	0
 4185 05ce 00       		.byte	0
 4186 05cf 00       		.byte	0
 4187 05d0 00       		.byte	0
 4188 05d1 00       		.byte	0
 4189 05d2 00       		.byte	0
 4190 05d3 00       		.byte	0
 4191 05d4 00       		.byte	0
 4192 05d5 00       		.byte	0
 4193 05d6 00       		.byte	0
 4194 05d7 00       		.byte	0
 4195              		.type	camellia_test_ecb_cipher, %object
 4196              		.size	camellia_test_ecb_cipher, 96
 4197              	camellia_test_ecb_cipher:
 4198 05d8 67       		.byte	103
 4199 05d9 67       		.byte	103
 4200 05da 31       		.byte	49
 4201 05db 38       		.byte	56
 4202 05dc 54       		.byte	84
 4203 05dd 96       		.byte	-106
 4204 05de 69       		.byte	105
 4205 05df 73       		.byte	115
 4206 05e0 08       		.byte	8
 4207 05e1 57       		.byte	87
 4208 05e2 06       		.byte	6
 4209 05e3 56       		.byte	86
 4210 05e4 48       		.byte	72
 4211 05e5 EA       		.byte	-22
 4212 05e6 BE       		.byte	-66
ARM GAS  C:\Users\Phuong\AppData\Local\Temp\ccZ7UQ35.s 			page 95


 4213 05e7 43       		.byte	67
 4214 05e8 38       		.byte	56
 4215 05e9 3C       		.byte	60
 4216 05ea 6C       		.byte	108
 4217 05eb 2A       		.byte	42
 4218 05ec AB       		.byte	-85
 4219 05ed EF       		.byte	-17
 4220 05ee 7F       		.byte	127
 4221 05ef DE       		.byte	-34
 4222 05f0 25       		.byte	37
 4223 05f1 CD       		.byte	-51
 4224 05f2 47       		.byte	71
 4225 05f3 0B       		.byte	11
 4226 05f4 F7       		.byte	-9
 4227 05f5 74       		.byte	116
 4228 05f6 A3       		.byte	-93
 4229 05f7 31       		.byte	49
 4230 05f8 B4       		.byte	-76
 4231 05f9 99       		.byte	-103
 4232 05fa 34       		.byte	52
 4233 05fb 01       		.byte	1
 4234 05fc B3       		.byte	-77
 4235 05fd E9       		.byte	-23
 4236 05fe 96       		.byte	-106
 4237 05ff F8       		.byte	-8
 4238 0600 4E       		.byte	78
 4239 0601 E5       		.byte	-27
 4240 0602 CE       		.byte	-50
 4241 0603 E7       		.byte	-25
 4242 0604 D7       		.byte	-41
 4243 0605 9B       		.byte	-101
 4244 0606 09       		.byte	9
 4245 0607 B9       		.byte	-71
 4246 0608 D1       		.byte	-47
 4247 0609 76       		.byte	118
 4248 060a 3F       		.byte	63
 4249 060b C0       		.byte	-64
 4250 060c 19       		.byte	25
 4251 060d D7       		.byte	-41
 4252 060e 7C       		.byte	124
 4253 060f C9       		.byte	-55
 4254 0610 30       		.byte	48
 4255 0611 BF       		.byte	-65
 4256 0612 F2       		.byte	-14
 4257 0613 A5       		.byte	-91
 4258 0614 6F       		.byte	111
 4259 0615 7C       		.byte	124
 4260 0616 93       		.byte	-109
 4261 0617 64       		.byte	100
 4262 0618 9A       		.byte	-102
 4263 0619 CC       		.byte	-52
 4264 061a 23       		.byte	35
 4265 061b 7D       		.byte	125
 4266 061c FF       		.byte	-1
 4267 061d 16       		.byte	22
 4268 061e D7       		.byte	-41
 4269 061f 6C       		.byte	108
ARM GAS  C:\Users\Phuong\AppData\Local\Temp\ccZ7UQ35.s 			page 96


 4270 0620 20       		.byte	32
 4271 0621 EF       		.byte	-17
 4272 0622 7C       		.byte	124
 4273 0623 91       		.byte	-111
 4274 0624 9E       		.byte	-98
 4275 0625 3A       		.byte	58
 4276 0626 75       		.byte	117
 4277 0627 09       		.byte	9
 4278 0628 05       		.byte	5
 4279 0629 03       		.byte	3
 4280 062a FB       		.byte	-5
 4281 062b 10       		.byte	16
 4282 062c AB       		.byte	-85
 4283 062d 24       		.byte	36
 4284 062e 1E       		.byte	30
 4285 062f 7C       		.byte	124
 4286 0630 F4       		.byte	-12
 4287 0631 5D       		.byte	93
 4288 0632 8C       		.byte	-116
 4289 0633 DE       		.byte	-34
 4290 0634 EE       		.byte	-18
 4291 0635 47       		.byte	71
 4292 0636 43       		.byte	67
 4293 0637 35       		.byte	53
 4294              		.type	camellia_test_ecb_plain, %object
 4295              		.size	camellia_test_ecb_plain, 32
 4296              	camellia_test_ecb_plain:
 4297 0638 01       		.byte	1
 4298 0639 23       		.byte	35
 4299 063a 45       		.byte	69
 4300 063b 67       		.byte	103
 4301 063c 89       		.byte	-119
 4302 063d AB       		.byte	-85
 4303 063e CD       		.byte	-51
 4304 063f EF       		.byte	-17
 4305 0640 FE       		.byte	-2
 4306 0641 DC       		.byte	-36
 4307 0642 BA       		.byte	-70
 4308 0643 98       		.byte	-104
 4309 0644 76       		.byte	118
 4310 0645 54       		.byte	84
 4311 0646 32       		.byte	50
 4312 0647 10       		.byte	16
 4313 0648 00       		.byte	0
 4314 0649 00       		.byte	0
 4315 064a 00       		.byte	0
 4316 064b 00       		.byte	0
 4317 064c 02       		.byte	2
 4318 064d 00       		.byte	0
 4319 064e 00       		.byte	0
 4320 064f 00       		.byte	0
 4321 0650 00       		.byte	0
 4322 0651 00       		.byte	0
 4323 0652 00       		.byte	0
 4324 0653 00       		.byte	0
 4325 0654 00       		.byte	0
 4326 0655 00       		.byte	0
ARM GAS  C:\Users\Phuong\AppData\Local\Temp\ccZ7UQ35.s 			page 97


 4327 0656 00       		.byte	0
 4328 0657 00       		.byte	0
 4329              		.type	camellia_test_cbc_iv, %object
 4330              		.size	camellia_test_cbc_iv, 16
 4331              	camellia_test_cbc_iv:
 4332 0658 00       		.byte	0
 4333 0659 01       		.byte	1
 4334 065a 02       		.byte	2
 4335 065b 03       		.byte	3
 4336 065c 04       		.byte	4
 4337 065d 05       		.byte	5
 4338 065e 06       		.byte	6
 4339 065f 07       		.byte	7
 4340 0660 08       		.byte	8
 4341 0661 09       		.byte	9
 4342 0662 0A       		.byte	10
 4343 0663 0B       		.byte	11
 4344 0664 0C       		.byte	12
 4345 0665 0D       		.byte	13
 4346 0666 0E       		.byte	14
 4347 0667 0F       		.byte	15
 4348              		.type	camellia_test_cbc_key, %object
 4349              		.size	camellia_test_cbc_key, 96
 4350              	camellia_test_cbc_key:
 4351 0668 2B       		.byte	43
 4352 0669 7E       		.byte	126
 4353 066a 15       		.byte	21
 4354 066b 16       		.byte	22
 4355 066c 28       		.byte	40
 4356 066d AE       		.byte	-82
 4357 066e D2       		.byte	-46
 4358 066f A6       		.byte	-90
 4359 0670 AB       		.byte	-85
 4360 0671 F7       		.byte	-9
 4361 0672 15       		.byte	21
 4362 0673 88       		.byte	-120
 4363 0674 09       		.byte	9
 4364 0675 CF       		.byte	-49
 4365 0676 4F       		.byte	79
 4366 0677 3C       		.byte	60
 4367 0678 00000000 		.space	16
 4367      00000000 
 4367      00000000 
 4367      00000000 
 4368 0688 8E       		.byte	-114
 4369 0689 73       		.byte	115
 4370 068a B0       		.byte	-80
 4371 068b F7       		.byte	-9
 4372 068c DA       		.byte	-38
 4373 068d 0E       		.byte	14
 4374 068e 64       		.byte	100
 4375 068f 52       		.byte	82
 4376 0690 C8       		.byte	-56
 4377 0691 10       		.byte	16
 4378 0692 F3       		.byte	-13
 4379 0693 2B       		.byte	43
 4380 0694 80       		.byte	-128
ARM GAS  C:\Users\Phuong\AppData\Local\Temp\ccZ7UQ35.s 			page 98


 4381 0695 90       		.byte	-112
 4382 0696 79       		.byte	121
 4383 0697 E5       		.byte	-27
 4384 0698 62       		.byte	98
 4385 0699 F8       		.byte	-8
 4386 069a EA       		.byte	-22
 4387 069b D2       		.byte	-46
 4388 069c 52       		.byte	82
 4389 069d 2C       		.byte	44
 4390 069e 6B       		.byte	107
 4391 069f 7B       		.byte	123
 4392 06a0 00000000 		.space	8
 4392      00000000 
 4393 06a8 60       		.byte	96
 4394 06a9 3D       		.byte	61
 4395 06aa EB       		.byte	-21
 4396 06ab 10       		.byte	16
 4397 06ac 15       		.byte	21
 4398 06ad CA       		.byte	-54
 4399 06ae 71       		.byte	113
 4400 06af BE       		.byte	-66
 4401 06b0 2B       		.byte	43
 4402 06b1 73       		.byte	115
 4403 06b2 AE       		.byte	-82
 4404 06b3 F0       		.byte	-16
 4405 06b4 85       		.byte	-123
 4406 06b5 7D       		.byte	125
 4407 06b6 77       		.byte	119
 4408 06b7 81       		.byte	-127
 4409 06b8 1F       		.byte	31
 4410 06b9 35       		.byte	53
 4411 06ba 2C       		.byte	44
 4412 06bb 07       		.byte	7
 4413 06bc 3B       		.byte	59
 4414 06bd 61       		.byte	97
 4415 06be 08       		.byte	8
 4416 06bf D7       		.byte	-41
 4417 06c0 2D       		.byte	45
 4418 06c1 98       		.byte	-104
 4419 06c2 10       		.byte	16
 4420 06c3 A3       		.byte	-93
 4421 06c4 09       		.byte	9
 4422 06c5 14       		.byte	20
 4423 06c6 DF       		.byte	-33
 4424 06c7 F4       		.byte	-12
 4425              		.type	camellia_test_cbc_cipher, %object
 4426              		.size	camellia_test_cbc_cipher, 144
 4427              	camellia_test_cbc_cipher:
 4428 06c8 16       		.byte	22
 4429 06c9 07       		.byte	7
 4430 06ca CF       		.byte	-49
 4431 06cb 49       		.byte	73
 4432 06cc 4B       		.byte	75
 4433 06cd 36       		.byte	54
 4434 06ce BB       		.byte	-69
 4435 06cf F0       		.byte	-16
 4436 06d0 0D       		.byte	13
ARM GAS  C:\Users\Phuong\AppData\Local\Temp\ccZ7UQ35.s 			page 99


 4437 06d1 AE       		.byte	-82
 4438 06d2 B0       		.byte	-80
 4439 06d3 B5       		.byte	-75
 4440 06d4 03       		.byte	3
 4441 06d5 C8       		.byte	-56
 4442 06d6 31       		.byte	49
 4443 06d7 AB       		.byte	-85
 4444 06d8 A2       		.byte	-94
 4445 06d9 F2       		.byte	-14
 4446 06da CF       		.byte	-49
 4447 06db 67       		.byte	103
 4448 06dc 16       		.byte	22
 4449 06dd 29       		.byte	41
 4450 06de EF       		.byte	-17
 4451 06df 78       		.byte	120
 4452 06e0 40       		.byte	64
 4453 06e1 C5       		.byte	-59
 4454 06e2 A5       		.byte	-91
 4455 06e3 DF       		.byte	-33
 4456 06e4 B5       		.byte	-75
 4457 06e5 07       		.byte	7
 4458 06e6 48       		.byte	72
 4459 06e7 87       		.byte	-121
 4460 06e8 0F       		.byte	15
 4461 06e9 06       		.byte	6
 4462 06ea 16       		.byte	22
 4463 06eb 50       		.byte	80
 4464 06ec 08       		.byte	8
 4465 06ed CF       		.byte	-49
 4466 06ee 8B       		.byte	-117
 4467 06ef 8B       		.byte	-117
 4468 06f0 5A       		.byte	90
 4469 06f1 63       		.byte	99
 4470 06f2 58       		.byte	88
 4471 06f3 63       		.byte	99
 4472 06f4 62       		.byte	98
 4473 06f5 54       		.byte	84
 4474 06f6 3E       		.byte	62
 4475 06f7 54       		.byte	84
 4476 06f8 2A       		.byte	42
 4477 06f9 48       		.byte	72
 4478 06fa 30       		.byte	48
 4479 06fb AB       		.byte	-85
 4480 06fc 5A       		.byte	90
 4481 06fd C4       		.byte	-60
 4482 06fe A1       		.byte	-95
 4483 06ff A2       		.byte	-94
 4484 0700 40       		.byte	64
 4485 0701 59       		.byte	89
 4486 0702 55       		.byte	85
 4487 0703 FD       		.byte	-3
 4488 0704 21       		.byte	33
 4489 0705 95       		.byte	-107
 4490 0706 CF       		.byte	-49
 4491 0707 93       		.byte	-109
 4492 0708 5D       		.byte	93
 4493 0709 5A       		.byte	90
ARM GAS  C:\Users\Phuong\AppData\Local\Temp\ccZ7UQ35.s 			page 100


 4494 070a 86       		.byte	-122
 4495 070b 9B       		.byte	-101
 4496 070c D1       		.byte	-47
 4497 070d 4C       		.byte	76
 4498 070e E5       		.byte	-27
 4499 070f 42       		.byte	66
 4500 0710 64       		.byte	100
 4501 0711 F8       		.byte	-8
 4502 0712 92       		.byte	-110
 4503 0713 A6       		.byte	-90
 4504 0714 DD       		.byte	-35
 4505 0715 2E       		.byte	46
 4506 0716 C3       		.byte	-61
 4507 0717 D5       		.byte	-43
 4508 0718 37       		.byte	55
 4509 0719 D3       		.byte	-45
 4510 071a 59       		.byte	89
 4511 071b C3       		.byte	-61
 4512 071c 34       		.byte	52
 4513 071d 98       		.byte	-104
 4514 071e 36       		.byte	54
 4515 071f D8       		.byte	-40
 4516 0720 84       		.byte	-124
 4517 0721 E3       		.byte	-29
 4518 0722 10       		.byte	16
 4519 0723 AD       		.byte	-83
 4520 0724 DF       		.byte	-33
 4521 0725 68       		.byte	104
 4522 0726 C4       		.byte	-60
 4523 0727 49       		.byte	73
 4524 0728 E6       		.byte	-26
 4525 0729 CF       		.byte	-49
 4526 072a A3       		.byte	-93
 4527 072b 5F       		.byte	95
 4528 072c C0       		.byte	-64
 4529 072d 2B       		.byte	43
 4530 072e 13       		.byte	19
 4531 072f 4A       		.byte	74
 4532 0730 4D       		.byte	77
 4533 0731 2C       		.byte	44
 4534 0732 0B       		.byte	11
 4535 0733 67       		.byte	103
 4536 0734 37       		.byte	55
 4537 0735 AC       		.byte	-84
 4538 0736 3E       		.byte	62
 4539 0737 DA       		.byte	-38
 4540 0738 36       		.byte	54
 4541 0739 CB       		.byte	-53
 4542 073a EB       		.byte	-21
 4543 073b 73       		.byte	115
 4544 073c BD       		.byte	-67
 4545 073d 50       		.byte	80
 4546 073e 4B       		.byte	75
 4547 073f 40       		.byte	64
 4548 0740 70       		.byte	112
 4549 0741 B1       		.byte	-79
 4550 0742 B7       		.byte	-73
ARM GAS  C:\Users\Phuong\AppData\Local\Temp\ccZ7UQ35.s 			page 101


 4551 0743 DE       		.byte	-34
 4552 0744 2B       		.byte	43
 4553 0745 21       		.byte	33
 4554 0746 EB       		.byte	-21
 4555 0747 50       		.byte	80
 4556 0748 E3       		.byte	-29
 4557 0749 1A       		.byte	26
 4558 074a 60       		.byte	96
 4559 074b 55       		.byte	85
 4560 074c 29       		.byte	41
 4561 074d 7D       		.byte	125
 4562 074e 96       		.byte	-106
 4563 074f CA       		.byte	-54
 4564 0750 33       		.byte	51
 4565 0751 30       		.byte	48
 4566 0752 CD       		.byte	-51
 4567 0753 F1       		.byte	-15
 4568 0754 B1       		.byte	-79
 4569 0755 86       		.byte	-122
 4570 0756 0A       		.byte	10
 4571 0757 83       		.byte	-125
 4572              		.type	camellia_test_cbc_plain, %object
 4573              		.size	camellia_test_cbc_plain, 48
 4574              	camellia_test_cbc_plain:
 4575 0758 6B       		.byte	107
 4576 0759 C1       		.byte	-63
 4577 075a BE       		.byte	-66
 4578 075b E2       		.byte	-30
 4579 075c 2E       		.byte	46
 4580 075d 40       		.byte	64
 4581 075e 9F       		.byte	-97
 4582 075f 96       		.byte	-106
 4583 0760 E9       		.byte	-23
 4584 0761 3D       		.byte	61
 4585 0762 7E       		.byte	126
 4586 0763 11       		.byte	17
 4587 0764 73       		.byte	115
 4588 0765 93       		.byte	-109
 4589 0766 17       		.byte	23
 4590 0767 2A       		.byte	42
 4591 0768 AE       		.byte	-82
 4592 0769 2D       		.byte	45
 4593 076a 8A       		.byte	-118
 4594 076b 57       		.byte	87
 4595 076c 1E       		.byte	30
 4596 076d 03       		.byte	3
 4597 076e AC       		.byte	-84
 4598 076f 9C       		.byte	-100
 4599 0770 9E       		.byte	-98
 4600 0771 B7       		.byte	-73
 4601 0772 6F       		.byte	111
 4602 0773 AC       		.byte	-84
 4603 0774 45       		.byte	69
 4604 0775 AF       		.byte	-81
 4605 0776 8E       		.byte	-114
 4606 0777 51       		.byte	81
 4607 0778 30       		.byte	48
ARM GAS  C:\Users\Phuong\AppData\Local\Temp\ccZ7UQ35.s 			page 102


 4608 0779 C8       		.byte	-56
 4609 077a 1C       		.byte	28
 4610 077b 46       		.byte	70
 4611 077c A3       		.byte	-93
 4612 077d 5C       		.byte	92
 4613 077e E4       		.byte	-28
 4614 077f 11       		.byte	17
 4615 0780 E5       		.byte	-27
 4616 0781 FB       		.byte	-5
 4617 0782 C1       		.byte	-63
 4618 0783 19       		.byte	25
 4619 0784 1A       		.byte	26
 4620 0785 0A       		.byte	10
 4621 0786 52       		.byte	82
 4622 0787 EF       		.byte	-17
 4623              		.type	camellia_test_ctr_nonce_counter, %object
 4624              		.size	camellia_test_ctr_nonce_counter, 48
 4625              	camellia_test_ctr_nonce_counter:
 4626 0788 00       		.byte	0
 4627 0789 00       		.byte	0
 4628 078a 00       		.byte	0
 4629 078b 30       		.byte	48
 4630 078c 00       		.byte	0
 4631 078d 00       		.byte	0
 4632 078e 00       		.byte	0
 4633 078f 00       		.byte	0
 4634 0790 00       		.byte	0
 4635 0791 00       		.byte	0
 4636 0792 00       		.byte	0
 4637 0793 00       		.byte	0
 4638 0794 00       		.byte	0
 4639 0795 00       		.byte	0
 4640 0796 00       		.byte	0
 4641 0797 01       		.byte	1
 4642 0798 00       		.byte	0
 4643 0799 6C       		.byte	108
 4644 079a B6       		.byte	-74
 4645 079b DB       		.byte	-37
 4646 079c C0       		.byte	-64
 4647 079d 54       		.byte	84
 4648 079e 3B       		.byte	59
 4649 079f 59       		.byte	89
 4650 07a0 DA       		.byte	-38
 4651 07a1 48       		.byte	72
 4652 07a2 D9       		.byte	-39
 4653 07a3 0B       		.byte	11
 4654 07a4 00       		.byte	0
 4655 07a5 00       		.byte	0
 4656 07a6 00       		.byte	0
 4657 07a7 01       		.byte	1
 4658 07a8 00       		.byte	0
 4659 07a9 E0       		.byte	-32
 4660 07aa 01       		.byte	1
 4661 07ab 7B       		.byte	123
 4662 07ac 27       		.byte	39
 4663 07ad 77       		.byte	119
 4664 07ae 7F       		.byte	127
ARM GAS  C:\Users\Phuong\AppData\Local\Temp\ccZ7UQ35.s 			page 103


 4665 07af 3F       		.byte	63
 4666 07b0 4A       		.byte	74
 4667 07b1 17       		.byte	23
 4668 07b2 86       		.byte	-122
 4669 07b3 F0       		.byte	-16
 4670 07b4 00       		.byte	0
 4671 07b5 00       		.byte	0
 4672 07b6 00       		.byte	0
 4673 07b7 01       		.byte	1
 4674              		.type	camellia_test_ctr_key, %object
 4675              		.size	camellia_test_ctr_key, 48
 4676              	camellia_test_ctr_key:
 4677 07b8 AE       		.byte	-82
 4678 07b9 68       		.byte	104
 4679 07ba 52       		.byte	82
 4680 07bb F8       		.byte	-8
 4681 07bc 12       		.byte	18
 4682 07bd 10       		.byte	16
 4683 07be 67       		.byte	103
 4684 07bf CC       		.byte	-52
 4685 07c0 4B       		.byte	75
 4686 07c1 F7       		.byte	-9
 4687 07c2 A5       		.byte	-91
 4688 07c3 76       		.byte	118
 4689 07c4 55       		.byte	85
 4690 07c5 77       		.byte	119
 4691 07c6 F3       		.byte	-13
 4692 07c7 9E       		.byte	-98
 4693 07c8 7E       		.byte	126
 4694 07c9 24       		.byte	36
 4695 07ca 06       		.byte	6
 4696 07cb 78       		.byte	120
 4697 07cc 17       		.byte	23
 4698 07cd FA       		.byte	-6
 4699 07ce E0       		.byte	-32
 4700 07cf D7       		.byte	-41
 4701 07d0 43       		.byte	67
 4702 07d1 D6       		.byte	-42
 4703 07d2 CE       		.byte	-50
 4704 07d3 1F       		.byte	31
 4705 07d4 32       		.byte	50
 4706 07d5 53       		.byte	83
 4707 07d6 91       		.byte	-111
 4708 07d7 63       		.byte	99
 4709 07d8 76       		.byte	118
 4710 07d9 91       		.byte	-111
 4711 07da BE       		.byte	-66
 4712 07db 03       		.byte	3
 4713 07dc 5E       		.byte	94
 4714 07dd 50       		.byte	80
 4715 07de 20       		.byte	32
 4716 07df A8       		.byte	-88
 4717 07e0 AC       		.byte	-84
 4718 07e1 6E       		.byte	110
 4719 07e2 61       		.byte	97
 4720 07e3 85       		.byte	-123
 4721 07e4 29       		.byte	41
ARM GAS  C:\Users\Phuong\AppData\Local\Temp\ccZ7UQ35.s 			page 104


 4722 07e5 F9       		.byte	-7
 4723 07e6 A0       		.byte	-96
 4724 07e7 DC       		.byte	-36
 4725              		.type	camellia_test_ctr_len, %object
 4726              		.size	camellia_test_ctr_len, 12
 4727              	camellia_test_ctr_len:
 4728 07e8 10000000 		.word	16
 4729 07ec 20000000 		.word	32
 4730 07f0 24000000 		.word	36
 4731              		.type	camellia_test_ctr_ct, %object
 4732              		.size	camellia_test_ctr_ct, 144
 4733              	camellia_test_ctr_ct:
 4734 07f4 D0       		.byte	-48
 4735 07f5 9D       		.byte	-99
 4736 07f6 C2       		.byte	-62
 4737 07f7 9A       		.byte	-102
 4738 07f8 82       		.byte	-126
 4739 07f9 14       		.byte	20
 4740 07fa 61       		.byte	97
 4741 07fb 9A       		.byte	-102
 4742 07fc 20       		.byte	32
 4743 07fd 87       		.byte	-121
 4744 07fe 7C       		.byte	124
 4745 07ff 76       		.byte	118
 4746 0800 DB       		.byte	-37
 4747 0801 1F       		.byte	31
 4748 0802 0B       		.byte	11
 4749 0803 3F       		.byte	63
 4750 0804 00000000 		.space	32
 4750      00000000 
 4750      00000000 
 4750      00000000 
 4750      00000000 
 4751 0824 DB       		.byte	-37
 4752 0825 F3       		.byte	-13
 4753 0826 C7       		.byte	-57
 4754 0827 8D       		.byte	-115
 4755 0828 C0       		.byte	-64
 4756 0829 83       		.byte	-125
 4757 082a 96       		.byte	-106
 4758 082b D4       		.byte	-44
 4759 082c DA       		.byte	-38
 4760 082d 7C       		.byte	124
 4761 082e 90       		.byte	-112
 4762 082f 77       		.byte	119
 4763 0830 65       		.byte	101
 4764 0831 BB       		.byte	-69
 4765 0832 CB       		.byte	-53
 4766 0833 44       		.byte	68
 4767 0834 2B       		.byte	43
 4768 0835 8E       		.byte	-114
 4769 0836 8E       		.byte	-114
 4770 0837 0F       		.byte	15
 4771 0838 31       		.byte	49
 4772 0839 F0       		.byte	-16
 4773 083a DC       		.byte	-36
 4774 083b A7       		.byte	-89
ARM GAS  C:\Users\Phuong\AppData\Local\Temp\ccZ7UQ35.s 			page 105


 4775 083c 2C       		.byte	44
 4776 083d 74       		.byte	116
 4777 083e 17       		.byte	23
 4778 083f E3       		.byte	-29
 4779 0840 53       		.byte	83
 4780 0841 60       		.byte	96
 4781 0842 E0       		.byte	-32
 4782 0843 48       		.byte	72
 4783 0844 00000000 		.space	16
 4783      00000000 
 4783      00000000 
 4783      00000000 
 4784 0854 B1       		.byte	-79
 4785 0855 9D       		.byte	-99
 4786 0856 1F       		.byte	31
 4787 0857 CD       		.byte	-51
 4788 0858 CB       		.byte	-53
 4789 0859 75       		.byte	117
 4790 085a EB       		.byte	-21
 4791 085b 88       		.byte	-120
 4792 085c 2F       		.byte	47
 4793 085d 84       		.byte	-124
 4794 085e 9C       		.byte	-100
 4795 085f E2       		.byte	-30
 4796 0860 4D       		.byte	77
 4797 0861 85       		.byte	-123
 4798 0862 CF       		.byte	-49
 4799 0863 73       		.byte	115
 4800 0864 9C       		.byte	-100
 4801 0865 E6       		.byte	-26
 4802 0866 4B       		.byte	75
 4803 0867 2B       		.byte	43
 4804 0868 5C       		.byte	92
 4805 0869 9D       		.byte	-99
 4806 086a 73       		.byte	115
 4807 086b F1       		.byte	-15
 4808 086c 4F       		.byte	79
 4809 086d 2D       		.byte	45
 4810 086e 5D       		.byte	93
 4811 086f 9D       		.byte	-99
 4812 0870 CE       		.byte	-50
 4813 0871 98       		.byte	-104
 4814 0872 89       		.byte	-119
 4815 0873 CD       		.byte	-51
 4816 0874 DF       		.byte	-33
 4817 0875 50       		.byte	80
 4818 0876 86       		.byte	-122
 4819 0877 96       		.byte	-106
 4820 0878 00000000 		.space	12
 4820      00000000 
 4820      00000000 
 4821              		.type	camellia_test_ctr_pt, %object
 4822              		.size	camellia_test_ctr_pt, 144
 4823              	camellia_test_ctr_pt:
 4824 0884 53       		.byte	83
 4825 0885 69       		.byte	105
 4826 0886 6E       		.byte	110
ARM GAS  C:\Users\Phuong\AppData\Local\Temp\ccZ7UQ35.s 			page 106


 4827 0887 67       		.byte	103
 4828 0888 6C       		.byte	108
 4829 0889 65       		.byte	101
 4830 088a 20       		.byte	32
 4831 088b 62       		.byte	98
 4832 088c 6C       		.byte	108
 4833 088d 6F       		.byte	111
 4834 088e 63       		.byte	99
 4835 088f 6B       		.byte	107
 4836 0890 20       		.byte	32
 4837 0891 6D       		.byte	109
 4838 0892 73       		.byte	115
 4839 0893 67       		.byte	103
 4840 0894 00000000 		.space	32
 4840      00000000 
 4840      00000000 
 4840      00000000 
 4840      00000000 
 4841 08b4 00       		.byte	0
 4842 08b5 01       		.byte	1
 4843 08b6 02       		.byte	2
 4844 08b7 03       		.byte	3
 4845 08b8 04       		.byte	4
 4846 08b9 05       		.byte	5
 4847 08ba 06       		.byte	6
 4848 08bb 07       		.byte	7
 4849 08bc 08       		.byte	8
 4850 08bd 09       		.byte	9
 4851 08be 0A       		.byte	10
 4852 08bf 0B       		.byte	11
 4853 08c0 0C       		.byte	12
 4854 08c1 0D       		.byte	13
 4855 08c2 0E       		.byte	14
 4856 08c3 0F       		.byte	15
 4857 08c4 10       		.byte	16
 4858 08c5 11       		.byte	17
 4859 08c6 12       		.byte	18
 4860 08c7 13       		.byte	19
 4861 08c8 14       		.byte	20
 4862 08c9 15       		.byte	21
 4863 08ca 16       		.byte	22
 4864 08cb 17       		.byte	23
 4865 08cc 18       		.byte	24
 4866 08cd 19       		.byte	25
 4867 08ce 1A       		.byte	26
 4868 08cf 1B       		.byte	27
 4869 08d0 1C       		.byte	28
 4870 08d1 1D       		.byte	29
 4871 08d2 1E       		.byte	30
 4872 08d3 1F       		.byte	31
 4873 08d4 00000000 		.space	16
 4873      00000000 
 4873      00000000 
 4873      00000000 
 4874 08e4 00       		.byte	0
 4875 08e5 01       		.byte	1
 4876 08e6 02       		.byte	2
ARM GAS  C:\Users\Phuong\AppData\Local\Temp\ccZ7UQ35.s 			page 107


 4877 08e7 03       		.byte	3
 4878 08e8 04       		.byte	4
 4879 08e9 05       		.byte	5
 4880 08ea 06       		.byte	6
 4881 08eb 07       		.byte	7
 4882 08ec 08       		.byte	8
 4883 08ed 09       		.byte	9
 4884 08ee 0A       		.byte	10
 4885 08ef 0B       		.byte	11
 4886 08f0 0C       		.byte	12
 4887 08f1 0D       		.byte	13
 4888 08f2 0E       		.byte	14
 4889 08f3 0F       		.byte	15
 4890 08f4 10       		.byte	16
 4891 08f5 11       		.byte	17
 4892 08f6 12       		.byte	18
 4893 08f7 13       		.byte	19
 4894 08f8 14       		.byte	20
 4895 08f9 15       		.byte	21
 4896 08fa 16       		.byte	22
 4897 08fb 17       		.byte	23
 4898 08fc 18       		.byte	24
 4899 08fd 19       		.byte	25
 4900 08fe 1A       		.byte	26
 4901 08ff 1B       		.byte	27
 4902 0900 1C       		.byte	28
 4903 0901 1D       		.byte	29
 4904 0902 1E       		.byte	30
 4905 0903 1F       		.byte	31
 4906 0904 20       		.byte	32
 4907 0905 21       		.byte	33
 4908 0906 22       		.byte	34
 4909 0907 23       		.byte	35
 4910 0908 00000000 		.space	12
 4910      00000000 
 4910      00000000 
 4911              		.section	.rodata.str1.4,"aMS",%progbits,1
 4912              		.align	2
 4913              	.LC6:
 4914 0000 64656300 		.ascii	"dec\000"
 4915              	.LC8:
 4916 0004 656E6300 		.ascii	"enc\000"
 4917              	.LC10:
 4918 0008 20204341 		.ascii	"  CAMELLIA-ECB-%3d (%s): \000"
 4918      4D454C4C 
 4918      49412D45 
 4918      43422D25 
 4918      33642028 
 4919 0022 0000     		.space	2
 4920              	.LC15:
 4921 0024 6661696C 		.ascii	"failed\000"
 4921      656400
 4922 002b 00       		.space	1
 4923              	.LC17:
 4924 002c 70617373 		.ascii	"passed\000"
 4924      656400
 4925 0033 00       		.space	1
ARM GAS  C:\Users\Phuong\AppData\Local\Temp\ccZ7UQ35.s 			page 108


 4926              	.LC19:
 4927 0034 20204341 		.ascii	"  CAMELLIA-CBC-%3d (%s): \000"
 4927      4D454C4C 
 4927      49412D43 
 4927      42432D25 
 4927      33642028 
 4928 004e 0000     		.space	2
 4929              	.LC23:
 4930 0050 20204341 		.ascii	"  CAMELLIA-CTR-128 (%s): \000"
 4930      4D454C4C 
 4930      49412D43 
 4930      54522D31 
 4930      32382028 
 4931              		.text
 4932              	.Letext0:
 4933              		.file 2 "c:\\program files (x86)\\cypress\\psoc creator\\4.2\\psoc creator\\import\\gnu\\arm\\5.4.
 4934              		.file 3 "c:\\program files (x86)\\cypress\\psoc creator\\4.2\\psoc creator\\import\\gnu\\arm\\5.4.
 4935              		.file 4 "c:\\program files (x86)\\cypress\\psoc creator\\4.2\\psoc creator\\import\\gnu\\arm\\5.4.
 4936              		.file 5 ".\\Source\\mbedtls_open\\include/mbedtls/camellia.h"
 4937              		.file 6 ".\\Source\\mbedtls_open\\include/mbedtls/platform_util.h"
 4938              		.file 7 "c:\\program files (x86)\\cypress\\psoc creator\\4.2\\psoc creator\\import\\gnu\\arm\\5.4.
 4939              		.file 8 "c:\\program files (x86)\\cypress\\psoc creator\\4.2\\psoc creator\\import\\gnu\\arm\\5.4.
 4940              		.file 9 "<built-in>"
 4941              		.section	.debug_info,"",%progbits
 4942              	.Ldebug_info0:
 4943 0000 4A120000 		.4byte	0x124a
 4944 0004 0400     		.2byte	0x4
 4945 0006 00000000 		.4byte	.Ldebug_abbrev0
 4946 000a 04       		.byte	0x4
 4947 000b 01       		.uleb128 0x1
 4948 000c AD000000 		.4byte	.LASF66
 4949 0010 0C       		.byte	0xc
 4950 0011 95010000 		.4byte	.LASF67
 4951 0015 A1020000 		.4byte	.LASF68
 4952 0019 00000000 		.4byte	.Ldebug_ranges0+0
 4953 001d 00000000 		.4byte	0
 4954 0021 00000000 		.4byte	.Ldebug_line0
 4955 0025 02       		.uleb128 0x2
 4956 0026 01       		.byte	0x1
 4957 0027 06       		.byte	0x6
 4958 0028 55000000 		.4byte	.LASF0
 4959 002c 02       		.uleb128 0x2
 4960 002d 01       		.byte	0x1
 4961 002e 08       		.byte	0x8
 4962 002f 76020000 		.4byte	.LASF1
 4963 0033 02       		.uleb128 0x2
 4964 0034 02       		.byte	0x2
 4965 0035 05       		.byte	0x5
 4966 0036 66000000 		.4byte	.LASF2
 4967 003a 02       		.uleb128 0x2
 4968 003b 02       		.byte	0x2
 4969 003c 07       		.byte	0x7
 4970 003d CC030000 		.4byte	.LASF3
 4971 0041 02       		.uleb128 0x2
 4972 0042 04       		.byte	0x4
 4973 0043 05       		.byte	0x5
 4974 0044 1A020000 		.4byte	.LASF4
ARM GAS  C:\Users\Phuong\AppData\Local\Temp\ccZ7UQ35.s 			page 109


 4975 0048 03       		.uleb128 0x3
 4976 0049 69010000 		.4byte	.LASF9
 4977 004d 02       		.byte	0x2
 4978 004e 41       		.byte	0x41
 4979 004f 53000000 		.4byte	0x53
 4980 0053 02       		.uleb128 0x2
 4981 0054 04       		.byte	0x4
 4982 0055 07       		.byte	0x7
 4983 0056 57040000 		.4byte	.LASF5
 4984 005a 02       		.uleb128 0x2
 4985 005b 08       		.byte	0x8
 4986 005c 05       		.byte	0x5
 4987 005d 05020000 		.4byte	.LASF6
 4988 0061 02       		.uleb128 0x2
 4989 0062 08       		.byte	0x8
 4990 0063 07       		.byte	0x7
 4991 0064 7E030000 		.4byte	.LASF7
 4992 0068 04       		.uleb128 0x4
 4993 0069 04       		.byte	0x4
 4994 006a 05       		.byte	0x5
 4995 006b 696E7400 		.ascii	"int\000"
 4996 006f 02       		.uleb128 0x2
 4997 0070 04       		.byte	0x4
 4998 0071 07       		.byte	0x7
 4999 0072 95030000 		.4byte	.LASF8
 5000 0076 03       		.uleb128 0x3
 5001 0077 70000000 		.4byte	.LASF10
 5002 007b 03       		.byte	0x3
 5003 007c D8       		.byte	0xd8
 5004 007d 6F000000 		.4byte	0x6f
 5005 0081 02       		.uleb128 0x2
 5006 0082 08       		.byte	0x8
 5007 0083 04       		.byte	0x4
 5008 0084 F2010000 		.4byte	.LASF11
 5009 0088 03       		.uleb128 0x3
 5010 0089 BC010000 		.4byte	.LASF12
 5011 008d 04       		.byte	0x4
 5012 008e 30       		.byte	0x30
 5013 008f 48000000 		.4byte	0x48
 5014 0093 05       		.uleb128 0x5
 5015 0094 0F000000 		.4byte	.LASF14
 5016 0098 1401     		.2byte	0x114
 5017 009a 05       		.byte	0x5
 5018 009b 36       		.byte	0x36
 5019 009c B7000000 		.4byte	0xb7
 5020 00a0 06       		.uleb128 0x6
 5021 00a1 6E7200   		.ascii	"nr\000"
 5022 00a4 05       		.byte	0x5
 5023 00a5 38       		.byte	0x38
 5024 00a6 68000000 		.4byte	0x68
 5025 00aa 00       		.byte	0
 5026 00ab 06       		.uleb128 0x6
 5027 00ac 726B00   		.ascii	"rk\000"
 5028 00af 05       		.byte	0x5
 5029 00b0 39       		.byte	0x39
 5030 00b1 B7000000 		.4byte	0xb7
 5031 00b5 04       		.byte	0x4
ARM GAS  C:\Users\Phuong\AppData\Local\Temp\ccZ7UQ35.s 			page 110


 5032 00b6 00       		.byte	0
 5033 00b7 07       		.uleb128 0x7
 5034 00b8 88000000 		.4byte	0x88
 5035 00bc C7000000 		.4byte	0xc7
 5036 00c0 08       		.uleb128 0x8
 5037 00c1 C7000000 		.4byte	0xc7
 5038 00c5 43       		.byte	0x43
 5039 00c6 00       		.byte	0
 5040 00c7 02       		.uleb128 0x2
 5041 00c8 04       		.byte	0x4
 5042 00c9 07       		.byte	0x7
 5043 00ca A7040000 		.4byte	.LASF13
 5044 00ce 03       		.uleb128 0x3
 5045 00cf 0F000000 		.4byte	.LASF14
 5046 00d3 05       		.byte	0x5
 5047 00d4 3B       		.byte	0x3b
 5048 00d5 93000000 		.4byte	0x93
 5049 00d9 09       		.uleb128 0x9
 5050 00da 04       		.byte	0x4
 5051 00db 2C000000 		.4byte	0x2c
 5052 00df 02       		.uleb128 0x2
 5053 00e0 01       		.byte	0x1
 5054 00e1 08       		.byte	0x8
 5055 00e2 DF030000 		.4byte	.LASF15
 5056 00e6 0A       		.uleb128 0xa
 5057 00e7 3F010000 		.4byte	.LASF69
 5058 00eb 01       		.byte	0x1
 5059 00ec 2901     		.2byte	0x129
 5060 00ee 00000000 		.4byte	.LFB1
 5061 00f2 B0000000 		.4byte	.LFE1-.LFB1
 5062 00f6 01       		.uleb128 0x1
 5063 00f7 9C       		.byte	0x9c
 5064 00f8 43010000 		.4byte	0x143
 5065 00fc 0B       		.uleb128 0xb
 5066 00fd 7800     		.ascii	"x\000"
 5067 00ff 01       		.byte	0x1
 5068 0100 2901     		.2byte	0x129
 5069 0102 43010000 		.4byte	0x143
 5070 0106 00000000 		.4byte	.LLST0
 5071 010a 0B       		.uleb128 0xb
 5072 010b 6B00     		.ascii	"k\000"
 5073 010d 01       		.byte	0x1
 5074 010e 2901     		.2byte	0x129
 5075 0110 43010000 		.4byte	0x143
 5076 0114 21000000 		.4byte	.LLST1
 5077 0118 0C       		.uleb128 0xc
 5078 0119 7A00     		.ascii	"z\000"
 5079 011b 01       		.byte	0x1
 5080 011c 2A01     		.2byte	0x12a
 5081 011e 4E010000 		.4byte	0x14e
 5082 0122 01       		.uleb128 0x1
 5083 0123 52       		.byte	0x52
 5084 0124 0D       		.uleb128 0xd
 5085 0125 493000   		.ascii	"I0\000"
 5086 0128 01       		.byte	0x1
 5087 0129 2C01     		.2byte	0x12c
 5088 012b 88000000 		.4byte	0x88
ARM GAS  C:\Users\Phuong\AppData\Local\Temp\ccZ7UQ35.s 			page 111


 5089 012f 42000000 		.4byte	.LLST2
 5090 0133 0D       		.uleb128 0xd
 5091 0134 493100   		.ascii	"I1\000"
 5092 0137 01       		.byte	0x1
 5093 0138 2C01     		.2byte	0x12c
 5094 013a 88000000 		.4byte	0x88
 5095 013e 7F000000 		.4byte	.LLST3
 5096 0142 00       		.byte	0
 5097 0143 09       		.uleb128 0x9
 5098 0144 04       		.byte	0x4
 5099 0145 49010000 		.4byte	0x149
 5100 0149 0E       		.uleb128 0xe
 5101 014a 88000000 		.4byte	0x88
 5102 014e 09       		.uleb128 0x9
 5103 014f 04       		.byte	0x4
 5104 0150 88000000 		.4byte	0x88
 5105 0154 0F       		.uleb128 0xf
 5106 0155 D3040000 		.4byte	.LASF16
 5107 0159 01       		.byte	0x1
 5108 015a 4201     		.2byte	0x142
 5109 015c 00000000 		.4byte	.LFB2
 5110 0160 0E000000 		.4byte	.LFE2-.LFB2
 5111 0164 01       		.uleb128 0x1
 5112 0165 9C       		.byte	0x9c
 5113 0166 98010000 		.4byte	0x198
 5114 016a 0B       		.uleb128 0xb
 5115 016b 63747800 		.ascii	"ctx\000"
 5116 016f 01       		.byte	0x1
 5117 0170 4201     		.2byte	0x142
 5118 0172 98010000 		.4byte	0x198
 5119 0176 53010000 		.4byte	.LLST4
 5120 017a 10       		.uleb128 0x10
 5121 017b 0C000000 		.4byte	.LVL18
 5122 017f FC110000 		.4byte	0x11fc
 5123 0183 11       		.uleb128 0x11
 5124 0184 01       		.uleb128 0x1
 5125 0185 50       		.byte	0x50
 5126 0186 03       		.uleb128 0x3
 5127 0187 F3       		.byte	0xf3
 5128 0188 01       		.uleb128 0x1
 5129 0189 50       		.byte	0x50
 5130 018a 11       		.uleb128 0x11
 5131 018b 01       		.uleb128 0x1
 5132 018c 51       		.byte	0x51
 5133 018d 01       		.uleb128 0x1
 5134 018e 30       		.byte	0x30
 5135 018f 11       		.uleb128 0x11
 5136 0190 01       		.uleb128 0x1
 5137 0191 52       		.byte	0x52
 5138 0192 03       		.uleb128 0x3
 5139 0193 0A       		.byte	0xa
 5140 0194 1401     		.2byte	0x114
 5141 0196 00       		.byte	0
 5142 0197 00       		.byte	0
 5143 0198 09       		.uleb128 0x9
 5144 0199 04       		.byte	0x4
 5145 019a CE000000 		.4byte	0xce
ARM GAS  C:\Users\Phuong\AppData\Local\Temp\ccZ7UQ35.s 			page 112


 5146 019e 0F       		.uleb128 0xf
 5147 019f 69040000 		.4byte	.LASF17
 5148 01a3 01       		.byte	0x1
 5149 01a4 4701     		.2byte	0x147
 5150 01a6 00000000 		.4byte	.LFB3
 5151 01aa 10000000 		.4byte	.LFE3-.LFB3
 5152 01ae 01       		.uleb128 0x1
 5153 01af 9C       		.byte	0x9c
 5154 01b0 DD010000 		.4byte	0x1dd
 5155 01b4 0B       		.uleb128 0xb
 5156 01b5 63747800 		.ascii	"ctx\000"
 5157 01b9 01       		.byte	0x1
 5158 01ba 4701     		.2byte	0x147
 5159 01bc 98010000 		.4byte	0x198
 5160 01c0 74010000 		.4byte	.LLST5
 5161 01c4 10       		.uleb128 0x10
 5162 01c5 0E000000 		.4byte	.LVL20
 5163 01c9 05120000 		.4byte	0x1205
 5164 01cd 11       		.uleb128 0x11
 5165 01ce 01       		.uleb128 0x1
 5166 01cf 50       		.byte	0x50
 5167 01d0 03       		.uleb128 0x3
 5168 01d1 F3       		.byte	0xf3
 5169 01d2 01       		.uleb128 0x1
 5170 01d3 50       		.byte	0x50
 5171 01d4 11       		.uleb128 0x11
 5172 01d5 01       		.uleb128 0x1
 5173 01d6 51       		.byte	0x51
 5174 01d7 03       		.uleb128 0x3
 5175 01d8 0A       		.byte	0xa
 5176 01d9 1401     		.2byte	0x114
 5177 01db 00       		.byte	0
 5178 01dc 00       		.byte	0
 5179 01dd 12       		.uleb128 0x12
 5180 01de 2D050000 		.4byte	.LASF20
 5181 01e2 01       		.byte	0x1
 5182 01e3 5201     		.2byte	0x152
 5183 01e5 68000000 		.4byte	0x68
 5184 01e9 00000000 		.4byte	.LFB4
 5185 01ed 38050000 		.4byte	.LFE4-.LFB4
 5186 01f1 01       		.uleb128 0x1
 5187 01f2 9C       		.byte	0x9c
 5188 01f3 BF030000 		.4byte	0x3bf
 5189 01f7 0B       		.uleb128 0xb
 5190 01f8 63747800 		.ascii	"ctx\000"
 5191 01fc 01       		.byte	0x1
 5192 01fd 5201     		.2byte	0x152
 5193 01ff 98010000 		.4byte	0x198
 5194 0203 95010000 		.4byte	.LLST6
 5195 0207 0B       		.uleb128 0xb
 5196 0208 6B657900 		.ascii	"key\000"
 5197 020c 01       		.byte	0x1
 5198 020d 5201     		.2byte	0x152
 5199 020f BF030000 		.4byte	0x3bf
 5200 0213 FE010000 		.4byte	.LLST7
 5201 0217 13       		.uleb128 0x13
 5202 0218 10050000 		.4byte	.LASF18
ARM GAS  C:\Users\Phuong\AppData\Local\Temp\ccZ7UQ35.s 			page 113


 5203 021c 01       		.byte	0x1
 5204 021d 5301     		.2byte	0x153
 5205 021f 6F000000 		.4byte	0x6f
 5206 0223 43020000 		.4byte	.LLST8
 5207 0227 0D       		.uleb128 0xd
 5208 0228 69647800 		.ascii	"idx\000"
 5209 022c 01       		.byte	0x1
 5210 022d 5501     		.2byte	0x155
 5211 022f 68000000 		.4byte	0x68
 5212 0233 88020000 		.4byte	.LLST9
 5213 0237 0D       		.uleb128 0xd
 5214 0238 6900     		.ascii	"i\000"
 5215 023a 01       		.byte	0x1
 5216 023b 5601     		.2byte	0x156
 5217 023d 76000000 		.4byte	0x76
 5218 0241 B3020000 		.4byte	.LLST10
 5219 0245 0D       		.uleb128 0xd
 5220 0246 524B00   		.ascii	"RK\000"
 5221 0249 01       		.byte	0x1
 5222 024a 5701     		.2byte	0x157
 5223 024c 4E010000 		.4byte	0x14e
 5224 0250 BF030000 		.4byte	.LLST11
 5225 0254 14       		.uleb128 0x14
 5226 0255 7400     		.ascii	"t\000"
 5227 0257 01       		.byte	0x1
 5228 0258 5801     		.2byte	0x158
 5229 025a CA030000 		.4byte	0x3ca
 5230 025e 03       		.uleb128 0x3
 5231 025f 91       		.byte	0x91
 5232 0260 A07F     		.sleb128 -96
 5233 0262 15       		.uleb128 0x15
 5234 0263 1F040000 		.4byte	.LASF19
 5235 0267 01       		.byte	0x1
 5236 0268 5901     		.2byte	0x159
 5237 026a DA030000 		.4byte	0x3da
 5238 026e 03       		.uleb128 0x3
 5239 026f 91       		.byte	0x91
 5240 0270 F07E     		.sleb128 -144
 5241 0272 14       		.uleb128 0x14
 5242 0273 4B4300   		.ascii	"KC\000"
 5243 0276 01       		.byte	0x1
 5244 0277 5A01     		.2byte	0x15a
 5245 0279 F0030000 		.4byte	0x3f0
 5246 027d 03       		.uleb128 0x3
 5247 027e 91       		.byte	0x91
 5248 027f B07E     		.sleb128 -208
 5249 0281 14       		.uleb128 0x14
 5250 0282 544B00   		.ascii	"TK\000"
 5251 0285 01       		.byte	0x1
 5252 0286 5B01     		.2byte	0x15b
 5253 0288 00040000 		.4byte	0x400
 5254 028c 03       		.uleb128 0x3
 5255 028d 91       		.byte	0x91
 5256 028e E07D     		.sleb128 -288
 5257 0290 16       		.uleb128 0x16
 5258 0291 1E000000 		.4byte	.LVL26
 5259 0295 FC110000 		.4byte	0x11fc
ARM GAS  C:\Users\Phuong\AppData\Local\Temp\ccZ7UQ35.s 			page 114


 5260 0299 B0020000 		.4byte	0x2b0
 5261 029d 11       		.uleb128 0x11
 5262 029e 01       		.uleb128 0x1
 5263 029f 50       		.byte	0x50
 5264 02a0 03       		.uleb128 0x3
 5265 02a1 91       		.byte	0x91
 5266 02a2 A07F     		.sleb128 -96
 5267 02a4 11       		.uleb128 0x11
 5268 02a5 01       		.uleb128 0x1
 5269 02a6 51       		.byte	0x51
 5270 02a7 01       		.uleb128 0x1
 5271 02a8 30       		.byte	0x30
 5272 02a9 11       		.uleb128 0x11
 5273 02aa 01       		.uleb128 0x1
 5274 02ab 52       		.byte	0x52
 5275 02ac 02       		.uleb128 0x2
 5276 02ad 08       		.byte	0x8
 5277 02ae 40       		.byte	0x40
 5278 02af 00       		.byte	0
 5279 02b0 16       		.uleb128 0x16
 5280 02b1 2A000000 		.4byte	.LVL27
 5281 02b5 FC110000 		.4byte	0x11fc
 5282 02b9 D0020000 		.4byte	0x2d0
 5283 02bd 11       		.uleb128 0x11
 5284 02be 01       		.uleb128 0x1
 5285 02bf 50       		.byte	0x50
 5286 02c0 02       		.uleb128 0x2
 5287 02c1 75       		.byte	0x75
 5288 02c2 00       		.sleb128 0
 5289 02c3 11       		.uleb128 0x11
 5290 02c4 01       		.uleb128 0x1
 5291 02c5 51       		.byte	0x51
 5292 02c6 01       		.uleb128 0x1
 5293 02c7 30       		.byte	0x30
 5294 02c8 11       		.uleb128 0x11
 5295 02c9 01       		.uleb128 0x1
 5296 02ca 52       		.byte	0x52
 5297 02cb 03       		.uleb128 0x3
 5298 02cc 0A       		.byte	0xa
 5299 02cd 1001     		.2byte	0x110
 5300 02cf 00       		.byte	0
 5301 02d0 16       		.uleb128 0x16
 5302 02d1 C8000000 		.4byte	.LVL40
 5303 02d5 FC110000 		.4byte	0x11fc
 5304 02d9 F0020000 		.4byte	0x2f0
 5305 02dd 11       		.uleb128 0x11
 5306 02de 01       		.uleb128 0x1
 5307 02df 50       		.byte	0x50
 5308 02e0 03       		.uleb128 0x3
 5309 02e1 91       		.byte	0x91
 5310 02e2 B07E     		.sleb128 -208
 5311 02e4 11       		.uleb128 0x11
 5312 02e5 01       		.uleb128 0x1
 5313 02e6 51       		.byte	0x51
 5314 02e7 01       		.uleb128 0x1
 5315 02e8 30       		.byte	0x30
 5316 02e9 11       		.uleb128 0x11
ARM GAS  C:\Users\Phuong\AppData\Local\Temp\ccZ7UQ35.s 			page 115


 5317 02ea 01       		.uleb128 0x1
 5318 02eb 52       		.byte	0x52
 5319 02ec 02       		.uleb128 0x2
 5320 02ed 08       		.byte	0x8
 5321 02ee 40       		.byte	0x40
 5322 02ef 00       		.byte	0
 5323 02f0 16       		.uleb128 0x16
 5324 02f1 22010000 		.4byte	.LVL45
 5325 02f5 E6000000 		.4byte	0xe6
 5326 02f9 13030000 		.4byte	0x313
 5327 02fd 11       		.uleb128 0x11
 5328 02fe 01       		.uleb128 0x1
 5329 02ff 50       		.byte	0x50
 5330 0300 03       		.uleb128 0x3
 5331 0301 91       		.byte	0x91
 5332 0302 D07E     		.sleb128 -176
 5333 0304 11       		.uleb128 0x11
 5334 0305 01       		.uleb128 0x1
 5335 0306 51       		.byte	0x51
 5336 0307 03       		.uleb128 0x3
 5337 0308 91       		.byte	0x91
 5338 0309 F07E     		.sleb128 -144
 5339 030b 11       		.uleb128 0x11
 5340 030c 01       		.uleb128 0x1
 5341 030d 52       		.byte	0x52
 5342 030e 03       		.uleb128 0x3
 5343 030f 91       		.byte	0x91
 5344 0310 D87E     		.sleb128 -168
 5345 0312 00       		.byte	0
 5346 0313 16       		.uleb128 0x16
 5347 0314 2C010000 		.4byte	.LVL46
 5348 0318 E6000000 		.4byte	0xe6
 5349 031c 36030000 		.4byte	0x336
 5350 0320 11       		.uleb128 0x11
 5351 0321 01       		.uleb128 0x1
 5352 0322 50       		.byte	0x50
 5353 0323 03       		.uleb128 0x3
 5354 0324 91       		.byte	0x91
 5355 0325 D87E     		.sleb128 -168
 5356 0327 11       		.uleb128 0x11
 5357 0328 01       		.uleb128 0x1
 5358 0329 51       		.byte	0x51
 5359 032a 03       		.uleb128 0x3
 5360 032b 91       		.byte	0x91
 5361 032c F87E     		.sleb128 -136
 5362 032e 11       		.uleb128 0x11
 5363 032f 01       		.uleb128 0x1
 5364 0330 52       		.byte	0x52
 5365 0331 03       		.uleb128 0x3
 5366 0332 91       		.byte	0x91
 5367 0333 D07E     		.sleb128 -176
 5368 0335 00       		.byte	0
 5369 0336 16       		.uleb128 0x16
 5370 0337 52010000 		.4byte	.LVL49
 5371 033b E6000000 		.4byte	0xe6
 5372 033f 59030000 		.4byte	0x359
 5373 0343 11       		.uleb128 0x11
ARM GAS  C:\Users\Phuong\AppData\Local\Temp\ccZ7UQ35.s 			page 116


 5374 0344 01       		.uleb128 0x1
 5375 0345 50       		.byte	0x50
 5376 0346 03       		.uleb128 0x3
 5377 0347 91       		.byte	0x91
 5378 0348 D07E     		.sleb128 -176
 5379 034a 11       		.uleb128 0x11
 5380 034b 01       		.uleb128 0x1
 5381 034c 51       		.byte	0x51
 5382 034d 03       		.uleb128 0x3
 5383 034e 91       		.byte	0x91
 5384 034f 807F     		.sleb128 -128
 5385 0351 11       		.uleb128 0x11
 5386 0352 01       		.uleb128 0x1
 5387 0353 52       		.byte	0x52
 5388 0354 03       		.uleb128 0x3
 5389 0355 91       		.byte	0x91
 5390 0356 D87E     		.sleb128 -168
 5391 0358 00       		.byte	0
 5392 0359 16       		.uleb128 0x16
 5393 035a 5C010000 		.4byte	.LVL50
 5394 035e E6000000 		.4byte	0xe6
 5395 0362 7C030000 		.4byte	0x37c
 5396 0366 11       		.uleb128 0x11
 5397 0367 01       		.uleb128 0x1
 5398 0368 50       		.byte	0x50
 5399 0369 03       		.uleb128 0x3
 5400 036a 91       		.byte	0x91
 5401 036b D87E     		.sleb128 -168
 5402 036d 11       		.uleb128 0x11
 5403 036e 01       		.uleb128 0x1
 5404 036f 51       		.byte	0x51
 5405 0370 03       		.uleb128 0x3
 5406 0371 91       		.byte	0x91
 5407 0372 887F     		.sleb128 -120
 5408 0374 11       		.uleb128 0x11
 5409 0375 01       		.uleb128 0x1
 5410 0376 52       		.byte	0x52
 5411 0377 03       		.uleb128 0x3
 5412 0378 91       		.byte	0x91
 5413 0379 D07E     		.sleb128 -176
 5414 037b 00       		.byte	0
 5415 037c 16       		.uleb128 0x16
 5416 037d 94010000 		.4byte	.LVL55
 5417 0381 E6000000 		.4byte	0xe6
 5418 0385 9F030000 		.4byte	0x39f
 5419 0389 11       		.uleb128 0x11
 5420 038a 01       		.uleb128 0x1
 5421 038b 50       		.byte	0x50
 5422 038c 03       		.uleb128 0x3
 5423 038d 91       		.byte	0x91
 5424 038e E07E     		.sleb128 -160
 5425 0390 11       		.uleb128 0x11
 5426 0391 01       		.uleb128 0x1
 5427 0392 51       		.byte	0x51
 5428 0393 03       		.uleb128 0x3
 5429 0394 91       		.byte	0x91
 5430 0395 907F     		.sleb128 -112
ARM GAS  C:\Users\Phuong\AppData\Local\Temp\ccZ7UQ35.s 			page 117


 5431 0397 11       		.uleb128 0x11
 5432 0398 01       		.uleb128 0x1
 5433 0399 52       		.byte	0x52
 5434 039a 03       		.uleb128 0x3
 5435 039b 91       		.byte	0x91
 5436 039c E87E     		.sleb128 -152
 5437 039e 00       		.byte	0
 5438 039f 10       		.uleb128 0x10
 5439 03a0 9E010000 		.4byte	.LVL56
 5440 03a4 E6000000 		.4byte	0xe6
 5441 03a8 11       		.uleb128 0x11
 5442 03a9 01       		.uleb128 0x1
 5443 03aa 50       		.byte	0x50
 5444 03ab 03       		.uleb128 0x3
 5445 03ac 91       		.byte	0x91
 5446 03ad E87E     		.sleb128 -152
 5447 03af 11       		.uleb128 0x11
 5448 03b0 01       		.uleb128 0x1
 5449 03b1 51       		.byte	0x51
 5450 03b2 03       		.uleb128 0x3
 5451 03b3 91       		.byte	0x91
 5452 03b4 987F     		.sleb128 -104
 5453 03b6 11       		.uleb128 0x11
 5454 03b7 01       		.uleb128 0x1
 5455 03b8 52       		.byte	0x52
 5456 03b9 03       		.uleb128 0x3
 5457 03ba 91       		.byte	0x91
 5458 03bb E07E     		.sleb128 -160
 5459 03bd 00       		.byte	0
 5460 03be 00       		.byte	0
 5461 03bf 09       		.uleb128 0x9
 5462 03c0 04       		.byte	0x4
 5463 03c1 C5030000 		.4byte	0x3c5
 5464 03c5 0E       		.uleb128 0xe
 5465 03c6 2C000000 		.4byte	0x2c
 5466 03ca 07       		.uleb128 0x7
 5467 03cb 2C000000 		.4byte	0x2c
 5468 03cf DA030000 		.4byte	0x3da
 5469 03d3 08       		.uleb128 0x8
 5470 03d4 C7000000 		.4byte	0xc7
 5471 03d8 3F       		.byte	0x3f
 5472 03d9 00       		.byte	0
 5473 03da 07       		.uleb128 0x7
 5474 03db 88000000 		.4byte	0x88
 5475 03df F0030000 		.4byte	0x3f0
 5476 03e3 08       		.uleb128 0x8
 5477 03e4 C7000000 		.4byte	0xc7
 5478 03e8 05       		.byte	0x5
 5479 03e9 08       		.uleb128 0x8
 5480 03ea C7000000 		.4byte	0xc7
 5481 03ee 01       		.byte	0x1
 5482 03ef 00       		.byte	0
 5483 03f0 07       		.uleb128 0x7
 5484 03f1 88000000 		.4byte	0x88
 5485 03f5 00040000 		.4byte	0x400
 5486 03f9 08       		.uleb128 0x8
 5487 03fa C7000000 		.4byte	0xc7
ARM GAS  C:\Users\Phuong\AppData\Local\Temp\ccZ7UQ35.s 			page 118


 5488 03fe 0F       		.byte	0xf
 5489 03ff 00       		.byte	0
 5490 0400 07       		.uleb128 0x7
 5491 0401 88000000 		.4byte	0x88
 5492 0405 10040000 		.4byte	0x410
 5493 0409 08       		.uleb128 0x8
 5494 040a C7000000 		.4byte	0xc7
 5495 040e 13       		.byte	0x13
 5496 040f 00       		.byte	0
 5497 0410 12       		.uleb128 0x12
 5498 0411 3B040000 		.4byte	.LASF21
 5499 0415 01       		.byte	0x1
 5500 0416 BB01     		.2byte	0x1bb
 5501 0418 68000000 		.4byte	0x68
 5502 041c 00000000 		.4byte	.LFB5
 5503 0420 84000000 		.4byte	.LFE5-.LFB5
 5504 0424 01       		.uleb128 0x1
 5505 0425 9C       		.byte	0x9c
 5506 0426 0A050000 		.4byte	0x50a
 5507 042a 0B       		.uleb128 0xb
 5508 042b 63747800 		.ascii	"ctx\000"
 5509 042f 01       		.byte	0x1
 5510 0430 BB01     		.2byte	0x1bb
 5511 0432 98010000 		.4byte	0x198
 5512 0436 E2030000 		.4byte	.LLST12
 5513 043a 0B       		.uleb128 0xb
 5514 043b 6B657900 		.ascii	"key\000"
 5515 043f 01       		.byte	0x1
 5516 0440 BB01     		.2byte	0x1bb
 5517 0442 BF030000 		.4byte	0x3bf
 5518 0446 0E040000 		.4byte	.LLST13
 5519 044a 13       		.uleb128 0x13
 5520 044b 10050000 		.4byte	.LASF18
 5521 044f 01       		.byte	0x1
 5522 0450 BC01     		.2byte	0x1bc
 5523 0452 6F000000 		.4byte	0x6f
 5524 0456 3A040000 		.4byte	.LLST14
 5525 045a 0D       		.uleb128 0xd
 5526 045b 69647800 		.ascii	"idx\000"
 5527 045f 01       		.byte	0x1
 5528 0460 BE01     		.2byte	0x1be
 5529 0462 68000000 		.4byte	0x68
 5530 0466 66040000 		.4byte	.LLST15
 5531 046a 0D       		.uleb128 0xd
 5532 046b 72657400 		.ascii	"ret\000"
 5533 046f 01       		.byte	0x1
 5534 0470 BE01     		.2byte	0x1be
 5535 0472 68000000 		.4byte	0x68
 5536 0476 89040000 		.4byte	.LLST16
 5537 047a 0D       		.uleb128 0xd
 5538 047b 6900     		.ascii	"i\000"
 5539 047d 01       		.byte	0x1
 5540 047e BF01     		.2byte	0x1bf
 5541 0480 76000000 		.4byte	0x76
 5542 0484 B2040000 		.4byte	.LLST17
 5543 0488 14       		.uleb128 0x14
 5544 0489 63747900 		.ascii	"cty\000"
ARM GAS  C:\Users\Phuong\AppData\Local\Temp\ccZ7UQ35.s 			page 119


 5545 048d 01       		.byte	0x1
 5546 048e C001     		.2byte	0x1c0
 5547 0490 CE000000 		.4byte	0xce
 5548 0494 03       		.uleb128 0x3
 5549 0495 91       		.byte	0x91
 5550 0496 DC7D     		.sleb128 -292
 5551 0498 0D       		.uleb128 0xd
 5552 0499 524B00   		.ascii	"RK\000"
 5553 049c 01       		.byte	0x1
 5554 049d C101     		.2byte	0x1c1
 5555 049f 4E010000 		.4byte	0x14e
 5556 04a3 C5040000 		.4byte	.LLST18
 5557 04a7 0D       		.uleb128 0xd
 5558 04a8 534B00   		.ascii	"SK\000"
 5559 04ab 01       		.byte	0x1
 5560 04ac C201     		.2byte	0x1c2
 5561 04ae 4E010000 		.4byte	0x14e
 5562 04b2 65050000 		.4byte	.LLST19
 5563 04b6 17       		.uleb128 0x17
 5564 04b7 42020000 		.4byte	.LASF70
 5565 04bb 01       		.byte	0x1
 5566 04bc E201     		.2byte	0x1e2
 5567 04be 78000000 		.4byte	.L66
 5568 04c2 16       		.uleb128 0x16
 5569 04c3 10000000 		.4byte	.LVL89
 5570 04c7 54010000 		.4byte	0x154
 5571 04cb D7040000 		.4byte	0x4d7
 5572 04cf 11       		.uleb128 0x11
 5573 04d0 01       		.uleb128 0x1
 5574 04d1 50       		.byte	0x50
 5575 04d2 03       		.uleb128 0x3
 5576 04d3 91       		.byte	0x91
 5577 04d4 DC7D     		.sleb128 -292
 5578 04d6 00       		.byte	0
 5579 04d7 16       		.uleb128 0x16
 5580 04d8 1A000000 		.4byte	.LVL90
 5581 04dc DD010000 		.4byte	0x1dd
 5582 04e0 F8040000 		.4byte	0x4f8
 5583 04e4 11       		.uleb128 0x11
 5584 04e5 01       		.uleb128 0x1
 5585 04e6 50       		.byte	0x50
 5586 04e7 03       		.uleb128 0x3
 5587 04e8 91       		.byte	0x91
 5588 04e9 DC7D     		.sleb128 -292
 5589 04eb 11       		.uleb128 0x11
 5590 04ec 01       		.uleb128 0x1
 5591 04ed 51       		.byte	0x51
 5592 04ee 02       		.uleb128 0x2
 5593 04ef 74       		.byte	0x74
 5594 04f0 00       		.sleb128 0
 5595 04f1 11       		.uleb128 0x11
 5596 04f2 01       		.uleb128 0x1
 5597 04f3 52       		.byte	0x52
 5598 04f4 02       		.uleb128 0x2
 5599 04f5 76       		.byte	0x76
 5600 04f6 00       		.sleb128 0
 5601 04f7 00       		.byte	0
ARM GAS  C:\Users\Phuong\AppData\Local\Temp\ccZ7UQ35.s 			page 120


 5602 04f8 10       		.uleb128 0x10
 5603 04f9 7E000000 		.4byte	.LVL115
 5604 04fd 9E010000 		.4byte	0x19e
 5605 0501 11       		.uleb128 0x11
 5606 0502 01       		.uleb128 0x1
 5607 0503 50       		.byte	0x50
 5608 0504 03       		.uleb128 0x3
 5609 0505 91       		.byte	0x91
 5610 0506 DC7D     		.sleb128 -292
 5611 0508 00       		.byte	0
 5612 0509 00       		.byte	0
 5613 050a 12       		.uleb128 0x12
 5614 050b 8A000000 		.4byte	.LASF22
 5615 050f 01       		.byte	0x1
 5616 0510 EB01     		.2byte	0x1eb
 5617 0512 68000000 		.4byte	0x68
 5618 0516 00000000 		.4byte	.LFB6
 5619 051a 66010000 		.4byte	.LFE6-.LFB6
 5620 051e 01       		.uleb128 0x1
 5621 051f 9C       		.byte	0x9c
 5622 0520 4C060000 		.4byte	0x64c
 5623 0524 0B       		.uleb128 0xb
 5624 0525 63747800 		.ascii	"ctx\000"
 5625 0529 01       		.byte	0x1
 5626 052a EB01     		.2byte	0x1eb
 5627 052c 98010000 		.4byte	0x198
 5628 0530 1D060000 		.4byte	.LLST20
 5629 0534 13       		.uleb128 0x13
 5630 0535 74010000 		.4byte	.LASF23
 5631 0539 01       		.byte	0x1
 5632 053a EC01     		.2byte	0x1ec
 5633 053c 68000000 		.4byte	0x68
 5634 0540 3E060000 		.4byte	.LLST21
 5635 0544 13       		.uleb128 0x13
 5636 0545 77000000 		.4byte	.LASF24
 5637 0549 01       		.byte	0x1
 5638 054a ED01     		.2byte	0x1ed
 5639 054c BF030000 		.4byte	0x3bf
 5640 0550 5F060000 		.4byte	.LLST22
 5641 0554 13       		.uleb128 0x13
 5642 0555 B0040000 		.4byte	.LASF25
 5643 0559 01       		.byte	0x1
 5644 055a EE01     		.2byte	0x1ee
 5645 055c D9000000 		.4byte	0xd9
 5646 0560 80060000 		.4byte	.LLST23
 5647 0564 0D       		.uleb128 0xd
 5648 0565 4E5200   		.ascii	"NR\000"
 5649 0568 01       		.byte	0x1
 5650 0569 F001     		.2byte	0x1f0
 5651 056b 68000000 		.4byte	0x68
 5652 056f AC060000 		.4byte	.LLST24
 5653 0573 0D       		.uleb128 0xd
 5654 0574 524B00   		.ascii	"RK\000"
 5655 0577 01       		.byte	0x1
 5656 0578 F101     		.2byte	0x1f1
 5657 057a 4E010000 		.4byte	0x14e
 5658 057e BF060000 		.4byte	.LLST25
ARM GAS  C:\Users\Phuong\AppData\Local\Temp\ccZ7UQ35.s 			page 121


 5659 0582 14       		.uleb128 0x14
 5660 0583 5800     		.ascii	"X\000"
 5661 0585 01       		.byte	0x1
 5662 0586 F101     		.2byte	0x1f1
 5663 0588 4C060000 		.4byte	0x64c
 5664 058c 02       		.uleb128 0x2
 5665 058d 91       		.byte	0x91
 5666 058e 58       		.sleb128 -40
 5667 058f 16       		.uleb128 0x16
 5668 0590 86000000 		.4byte	.LVL130
 5669 0594 E6000000 		.4byte	0xe6
 5670 0598 AF050000 		.4byte	0x5af
 5671 059c 11       		.uleb128 0x11
 5672 059d 01       		.uleb128 0x1
 5673 059e 50       		.byte	0x50
 5674 059f 02       		.uleb128 0x2
 5675 05a0 91       		.byte	0x91
 5676 05a1 58       		.sleb128 -40
 5677 05a2 11       		.uleb128 0x11
 5678 05a3 01       		.uleb128 0x1
 5679 05a4 51       		.byte	0x51
 5680 05a5 02       		.uleb128 0x2
 5681 05a6 74       		.byte	0x74
 5682 05a7 00       		.sleb128 0
 5683 05a8 11       		.uleb128 0x11
 5684 05a9 01       		.uleb128 0x1
 5685 05aa 52       		.byte	0x52
 5686 05ab 02       		.uleb128 0x2
 5687 05ac 91       		.byte	0x91
 5688 05ad 60       		.sleb128 -32
 5689 05ae 00       		.byte	0
 5690 05af 16       		.uleb128 0x16
 5691 05b0 92000000 		.4byte	.LVL132
 5692 05b4 E6000000 		.4byte	0xe6
 5693 05b8 CF050000 		.4byte	0x5cf
 5694 05bc 11       		.uleb128 0x11
 5695 05bd 01       		.uleb128 0x1
 5696 05be 50       		.byte	0x50
 5697 05bf 02       		.uleb128 0x2
 5698 05c0 91       		.byte	0x91
 5699 05c1 60       		.sleb128 -32
 5700 05c2 11       		.uleb128 0x11
 5701 05c3 01       		.uleb128 0x1
 5702 05c4 51       		.byte	0x51
 5703 05c5 02       		.uleb128 0x2
 5704 05c6 74       		.byte	0x74
 5705 05c7 08       		.sleb128 8
 5706 05c8 11       		.uleb128 0x11
 5707 05c9 01       		.uleb128 0x1
 5708 05ca 52       		.byte	0x52
 5709 05cb 02       		.uleb128 0x2
 5710 05cc 91       		.byte	0x91
 5711 05cd 58       		.sleb128 -40
 5712 05ce 00       		.byte	0
 5713 05cf 16       		.uleb128 0x16
 5714 05d0 9E000000 		.4byte	.LVL133
 5715 05d4 E6000000 		.4byte	0xe6
ARM GAS  C:\Users\Phuong\AppData\Local\Temp\ccZ7UQ35.s 			page 122


 5716 05d8 EF050000 		.4byte	0x5ef
 5717 05dc 11       		.uleb128 0x11
 5718 05dd 01       		.uleb128 0x1
 5719 05de 50       		.byte	0x50
 5720 05df 02       		.uleb128 0x2
 5721 05e0 91       		.byte	0x91
 5722 05e1 58       		.sleb128 -40
 5723 05e2 11       		.uleb128 0x11
 5724 05e3 01       		.uleb128 0x1
 5725 05e4 51       		.byte	0x51
 5726 05e5 02       		.uleb128 0x2
 5727 05e6 74       		.byte	0x74
 5728 05e7 10       		.sleb128 16
 5729 05e8 11       		.uleb128 0x11
 5730 05e9 01       		.uleb128 0x1
 5731 05ea 52       		.byte	0x52
 5732 05eb 02       		.uleb128 0x2
 5733 05ec 91       		.byte	0x91
 5734 05ed 60       		.sleb128 -32
 5735 05ee 00       		.byte	0
 5736 05ef 16       		.uleb128 0x16
 5737 05f0 AA000000 		.4byte	.LVL134
 5738 05f4 E6000000 		.4byte	0xe6
 5739 05f8 0F060000 		.4byte	0x60f
 5740 05fc 11       		.uleb128 0x11
 5741 05fd 01       		.uleb128 0x1
 5742 05fe 50       		.byte	0x50
 5743 05ff 02       		.uleb128 0x2
 5744 0600 91       		.byte	0x91
 5745 0601 60       		.sleb128 -32
 5746 0602 11       		.uleb128 0x11
 5747 0603 01       		.uleb128 0x1
 5748 0604 51       		.byte	0x51
 5749 0605 02       		.uleb128 0x2
 5750 0606 74       		.byte	0x74
 5751 0607 18       		.sleb128 24
 5752 0608 11       		.uleb128 0x11
 5753 0609 01       		.uleb128 0x1
 5754 060a 52       		.byte	0x52
 5755 060b 02       		.uleb128 0x2
 5756 060c 91       		.byte	0x91
 5757 060d 58       		.sleb128 -40
 5758 060e 00       		.byte	0
 5759 060f 16       		.uleb128 0x16
 5760 0610 B6000000 		.4byte	.LVL135
 5761 0614 E6000000 		.4byte	0xe6
 5762 0618 2F060000 		.4byte	0x62f
 5763 061c 11       		.uleb128 0x11
 5764 061d 01       		.uleb128 0x1
 5765 061e 50       		.byte	0x50
 5766 061f 02       		.uleb128 0x2
 5767 0620 91       		.byte	0x91
 5768 0621 58       		.sleb128 -40
 5769 0622 11       		.uleb128 0x11
 5770 0623 01       		.uleb128 0x1
 5771 0624 51       		.byte	0x51
 5772 0625 02       		.uleb128 0x2
ARM GAS  C:\Users\Phuong\AppData\Local\Temp\ccZ7UQ35.s 			page 123


 5773 0626 74       		.byte	0x74
 5774 0627 20       		.sleb128 32
 5775 0628 11       		.uleb128 0x11
 5776 0629 01       		.uleb128 0x1
 5777 062a 52       		.byte	0x52
 5778 062b 02       		.uleb128 0x2
 5779 062c 91       		.byte	0x91
 5780 062d 60       		.sleb128 -32
 5781 062e 00       		.byte	0
 5782 062f 10       		.uleb128 0x10
 5783 0630 C2000000 		.4byte	.LVL136
 5784 0634 E6000000 		.4byte	0xe6
 5785 0638 11       		.uleb128 0x11
 5786 0639 01       		.uleb128 0x1
 5787 063a 50       		.byte	0x50
 5788 063b 02       		.uleb128 0x2
 5789 063c 91       		.byte	0x91
 5790 063d 60       		.sleb128 -32
 5791 063e 11       		.uleb128 0x11
 5792 063f 01       		.uleb128 0x1
 5793 0640 51       		.byte	0x51
 5794 0641 02       		.uleb128 0x2
 5795 0642 74       		.byte	0x74
 5796 0643 28       		.sleb128 40
 5797 0644 11       		.uleb128 0x11
 5798 0645 01       		.uleb128 0x1
 5799 0646 52       		.byte	0x52
 5800 0647 02       		.uleb128 0x2
 5801 0648 91       		.byte	0x91
 5802 0649 58       		.sleb128 -40
 5803 064a 00       		.byte	0
 5804 064b 00       		.byte	0
 5805 064c 07       		.uleb128 0x7
 5806 064d 88000000 		.4byte	0x88
 5807 0651 5C060000 		.4byte	0x65c
 5808 0655 08       		.uleb128 0x8
 5809 0656 C7000000 		.4byte	0xc7
 5810 065a 03       		.byte	0x3
 5811 065b 00       		.byte	0
 5812 065c 12       		.uleb128 0x12
 5813 065d 28000000 		.4byte	.LASF26
 5814 0661 01       		.byte	0x1
 5815 0662 2A02     		.2byte	0x22a
 5816 0664 68000000 		.4byte	0x68
 5817 0668 00000000 		.4byte	.LFB7
 5818 066c 9A000000 		.4byte	.LFE7-.LFB7
 5819 0670 01       		.uleb128 0x1
 5820 0671 9C       		.byte	0x9c
 5821 0672 9C070000 		.4byte	0x79c
 5822 0676 0B       		.uleb128 0xb
 5823 0677 63747800 		.ascii	"ctx\000"
 5824 067b 01       		.byte	0x1
 5825 067c 2A02     		.2byte	0x22a
 5826 067e 98010000 		.4byte	0x198
 5827 0682 80070000 		.4byte	.LLST26
 5828 0686 13       		.uleb128 0x13
 5829 0687 74010000 		.4byte	.LASF23
ARM GAS  C:\Users\Phuong\AppData\Local\Temp\ccZ7UQ35.s 			page 124


 5830 068b 01       		.byte	0x1
 5831 068c 2B02     		.2byte	0x22b
 5832 068e 68000000 		.4byte	0x68
 5833 0692 C2070000 		.4byte	.LLST27
 5834 0696 13       		.uleb128 0x13
 5835 0697 EB010000 		.4byte	.LASF27
 5836 069b 01       		.byte	0x1
 5837 069c 2C02     		.2byte	0x22c
 5838 069e 76000000 		.4byte	0x76
 5839 06a2 F8070000 		.4byte	.LLST28
 5840 06a6 0B       		.uleb128 0xb
 5841 06a7 697600   		.ascii	"iv\000"
 5842 06aa 01       		.byte	0x1
 5843 06ab 2D02     		.2byte	0x22d
 5844 06ad D9000000 		.4byte	0xd9
 5845 06b1 2C080000 		.4byte	.LLST29
 5846 06b5 13       		.uleb128 0x13
 5847 06b6 77000000 		.4byte	.LASF24
 5848 06ba 01       		.byte	0x1
 5849 06bb 2E02     		.2byte	0x22e
 5850 06bd BF030000 		.4byte	0x3bf
 5851 06c1 58080000 		.4byte	.LLST30
 5852 06c5 13       		.uleb128 0x13
 5853 06c6 B0040000 		.4byte	.LASF25
 5854 06ca 01       		.byte	0x1
 5855 06cb 2F02     		.2byte	0x22f
 5856 06cd D9000000 		.4byte	0xd9
 5857 06d1 8E080000 		.4byte	.LLST31
 5858 06d5 0D       		.uleb128 0xd
 5859 06d6 6900     		.ascii	"i\000"
 5860 06d8 01       		.byte	0x1
 5861 06d9 3102     		.2byte	0x231
 5862 06db 68000000 		.4byte	0x68
 5863 06df C4080000 		.4byte	.LLST32
 5864 06e3 15       		.uleb128 0x15
 5865 06e4 61000000 		.4byte	.LASF28
 5866 06e8 01       		.byte	0x1
 5867 06e9 3202     		.2byte	0x232
 5868 06eb 9C070000 		.4byte	0x79c
 5869 06ef 02       		.uleb128 0x2
 5870 06f0 91       		.byte	0x91
 5871 06f1 58       		.sleb128 -40
 5872 06f2 16       		.uleb128 0x16
 5873 06f3 24000000 		.4byte	.LVL153
 5874 06f7 10120000 		.4byte	0x1210
 5875 06fb 11070000 		.4byte	0x711
 5876 06ff 11       		.uleb128 0x11
 5877 0700 01       		.uleb128 0x1
 5878 0701 50       		.byte	0x50
 5879 0702 02       		.uleb128 0x2
 5880 0703 91       		.byte	0x91
 5881 0704 58       		.sleb128 -40
 5882 0705 11       		.uleb128 0x11
 5883 0706 01       		.uleb128 0x1
 5884 0707 51       		.byte	0x51
 5885 0708 02       		.uleb128 0x2
 5886 0709 74       		.byte	0x74
ARM GAS  C:\Users\Phuong\AppData\Local\Temp\ccZ7UQ35.s 			page 125


 5887 070a 00       		.sleb128 0
 5888 070b 11       		.uleb128 0x11
 5889 070c 01       		.uleb128 0x1
 5890 070d 52       		.byte	0x52
 5891 070e 01       		.uleb128 0x1
 5892 070f 40       		.byte	0x40
 5893 0710 00       		.byte	0
 5894 0711 16       		.uleb128 0x16
 5895 0712 30000000 		.4byte	.LVL154
 5896 0716 0A050000 		.4byte	0x50a
 5897 071a 39070000 		.4byte	0x739
 5898 071e 11       		.uleb128 0x11
 5899 071f 01       		.uleb128 0x1
 5900 0720 50       		.byte	0x50
 5901 0721 03       		.uleb128 0x3
 5902 0722 7D       		.byte	0x7d
 5903 0723 00       		.sleb128 0
 5904 0724 06       		.byte	0x6
 5905 0725 11       		.uleb128 0x11
 5906 0726 01       		.uleb128 0x1
 5907 0727 51       		.byte	0x51
 5908 0728 03       		.uleb128 0x3
 5909 0729 91       		.byte	0x91
 5910 072a 54       		.sleb128 -44
 5911 072b 06       		.byte	0x6
 5912 072c 11       		.uleb128 0x11
 5913 072d 01       		.uleb128 0x1
 5914 072e 52       		.byte	0x52
 5915 072f 02       		.uleb128 0x2
 5916 0730 74       		.byte	0x74
 5917 0731 00       		.sleb128 0
 5918 0732 11       		.uleb128 0x11
 5919 0733 01       		.uleb128 0x1
 5920 0734 53       		.byte	0x53
 5921 0735 02       		.uleb128 0x2
 5922 0736 76       		.byte	0x76
 5923 0737 00       		.sleb128 0
 5924 0738 00       		.byte	0
 5925 0739 16       		.uleb128 0x16
 5926 073a 4E000000 		.4byte	.LVL157
 5927 073e 10120000 		.4byte	0x1210
 5928 0742 58070000 		.4byte	0x758
 5929 0746 11       		.uleb128 0x11
 5930 0747 01       		.uleb128 0x1
 5931 0748 50       		.byte	0x50
 5932 0749 02       		.uleb128 0x2
 5933 074a 77       		.byte	0x77
 5934 074b 00       		.sleb128 0
 5935 074c 11       		.uleb128 0x11
 5936 074d 01       		.uleb128 0x1
 5937 074e 51       		.byte	0x51
 5938 074f 02       		.uleb128 0x2
 5939 0750 91       		.byte	0x91
 5940 0751 58       		.sleb128 -40
 5941 0752 11       		.uleb128 0x11
 5942 0753 01       		.uleb128 0x1
 5943 0754 52       		.byte	0x52
ARM GAS  C:\Users\Phuong\AppData\Local\Temp\ccZ7UQ35.s 			page 126


 5944 0755 01       		.uleb128 0x1
 5945 0756 40       		.byte	0x40
 5946 0757 00       		.byte	0
 5947 0758 16       		.uleb128 0x16
 5948 0759 7A000000 		.4byte	.LVL166
 5949 075d 0A050000 		.4byte	0x50a
 5950 0761 80070000 		.4byte	0x780
 5951 0765 11       		.uleb128 0x11
 5952 0766 01       		.uleb128 0x1
 5953 0767 50       		.byte	0x50
 5954 0768 03       		.uleb128 0x3
 5955 0769 7D       		.byte	0x7d
 5956 076a 00       		.sleb128 0
 5957 076b 06       		.byte	0x6
 5958 076c 11       		.uleb128 0x11
 5959 076d 01       		.uleb128 0x1
 5960 076e 51       		.byte	0x51
 5961 076f 03       		.uleb128 0x3
 5962 0770 91       		.byte	0x91
 5963 0771 54       		.sleb128 -44
 5964 0772 06       		.byte	0x6
 5965 0773 11       		.uleb128 0x11
 5966 0774 01       		.uleb128 0x1
 5967 0775 52       		.byte	0x52
 5968 0776 02       		.uleb128 0x2
 5969 0777 76       		.byte	0x76
 5970 0778 00       		.sleb128 0
 5971 0779 11       		.uleb128 0x11
 5972 077a 01       		.uleb128 0x1
 5973 077b 53       		.byte	0x53
 5974 077c 02       		.uleb128 0x2
 5975 077d 76       		.byte	0x76
 5976 077e 00       		.sleb128 0
 5977 077f 00       		.byte	0
 5978 0780 10       		.uleb128 0x10
 5979 0781 84000000 		.4byte	.LVL167
 5980 0785 10120000 		.4byte	0x1210
 5981 0789 11       		.uleb128 0x11
 5982 078a 01       		.uleb128 0x1
 5983 078b 50       		.byte	0x50
 5984 078c 02       		.uleb128 0x2
 5985 078d 77       		.byte	0x77
 5986 078e 00       		.sleb128 0
 5987 078f 11       		.uleb128 0x11
 5988 0790 01       		.uleb128 0x1
 5989 0791 51       		.byte	0x51
 5990 0792 02       		.uleb128 0x2
 5991 0793 76       		.byte	0x76
 5992 0794 00       		.sleb128 0
 5993 0795 11       		.uleb128 0x11
 5994 0796 01       		.uleb128 0x1
 5995 0797 52       		.byte	0x52
 5996 0798 01       		.uleb128 0x1
 5997 0799 40       		.byte	0x40
 5998 079a 00       		.byte	0
 5999 079b 00       		.byte	0
 6000 079c 07       		.uleb128 0x7
ARM GAS  C:\Users\Phuong\AppData\Local\Temp\ccZ7UQ35.s 			page 127


 6001 079d 2C000000 		.4byte	0x2c
 6002 07a1 AC070000 		.4byte	0x7ac
 6003 07a5 08       		.uleb128 0x8
 6004 07a6 C7000000 		.4byte	0xc7
 6005 07aa 0F       		.byte	0xf
 6006 07ab 00       		.byte	0
 6007 07ac 12       		.uleb128 0x12
 6008 07ad CD010000 		.4byte	.LASF29
 6009 07b1 01       		.byte	0x1
 6010 07b2 6002     		.2byte	0x260
 6011 07b4 68000000 		.4byte	0x68
 6012 07b8 00000000 		.4byte	.LFB8
 6013 07bc 8E000000 		.4byte	.LFE8-.LFB8
 6014 07c0 01       		.uleb128 0x1
 6015 07c1 9C       		.byte	0x9c
 6016 07c2 99080000 		.4byte	0x899
 6017 07c6 0B       		.uleb128 0xb
 6018 07c7 63747800 		.ascii	"ctx\000"
 6019 07cb 01       		.byte	0x1
 6020 07cc 6002     		.2byte	0x260
 6021 07ce 98010000 		.4byte	0x198
 6022 07d2 F9080000 		.4byte	.LLST33
 6023 07d6 13       		.uleb128 0x13
 6024 07d7 74010000 		.4byte	.LASF23
 6025 07db 01       		.byte	0x1
 6026 07dc 6102     		.2byte	0x261
 6027 07de 68000000 		.4byte	0x68
 6028 07e2 18090000 		.4byte	.LLST34
 6029 07e6 13       		.uleb128 0x13
 6030 07e7 EB010000 		.4byte	.LASF27
 6031 07eb 01       		.byte	0x1
 6032 07ec 6202     		.2byte	0x262
 6033 07ee 76000000 		.4byte	0x76
 6034 07f2 39090000 		.4byte	.LLST35
 6035 07f6 13       		.uleb128 0x13
 6036 07f7 B7040000 		.4byte	.LASF30
 6037 07fb 01       		.byte	0x1
 6038 07fc 6302     		.2byte	0x263
 6039 07fe 99080000 		.4byte	0x899
 6040 0802 A4090000 		.4byte	.LLST36
 6041 0806 0C       		.uleb128 0xc
 6042 0807 697600   		.ascii	"iv\000"
 6043 080a 01       		.byte	0x1
 6044 080b 6402     		.2byte	0x264
 6045 080d D9000000 		.4byte	0xd9
 6046 0811 02       		.uleb128 0x2
 6047 0812 91       		.byte	0x91
 6048 0813 00       		.sleb128 0
 6049 0814 13       		.uleb128 0x13
 6050 0815 77000000 		.4byte	.LASF24
 6051 0819 01       		.byte	0x1
 6052 081a 6502     		.2byte	0x265
 6053 081c BF030000 		.4byte	0x3bf
 6054 0820 CD090000 		.4byte	.LLST37
 6055 0824 13       		.uleb128 0x13
 6056 0825 B0040000 		.4byte	.LASF25
 6057 0829 01       		.byte	0x1
ARM GAS  C:\Users\Phuong\AppData\Local\Temp\ccZ7UQ35.s 			page 128


 6058 082a 6602     		.2byte	0x266
 6059 082c D9000000 		.4byte	0xd9
 6060 0830 1C0A0000 		.4byte	.LLST38
 6061 0834 0D       		.uleb128 0xd
 6062 0835 6300     		.ascii	"c\000"
 6063 0837 01       		.byte	0x1
 6064 0838 6802     		.2byte	0x268
 6065 083a 68000000 		.4byte	0x68
 6066 083e 6B0A0000 		.4byte	.LLST39
 6067 0842 0D       		.uleb128 0xd
 6068 0843 6E00     		.ascii	"n\000"
 6069 0845 01       		.byte	0x1
 6070 0846 6902     		.2byte	0x269
 6071 0848 76000000 		.4byte	0x76
 6072 084c 830A0000 		.4byte	.LLST40
 6073 0850 16       		.uleb128 0x16
 6074 0851 2C000000 		.4byte	.LVL181
 6075 0855 0A050000 		.4byte	0x50a
 6076 0859 76080000 		.4byte	0x876
 6077 085d 11       		.uleb128 0x11
 6078 085e 01       		.uleb128 0x1
 6079 085f 50       		.byte	0x50
 6080 0860 03       		.uleb128 0x3
 6081 0861 91       		.byte	0x91
 6082 0862 5C       		.sleb128 -36
 6083 0863 06       		.byte	0x6
 6084 0864 11       		.uleb128 0x11
 6085 0865 01       		.uleb128 0x1
 6086 0866 51       		.byte	0x51
 6087 0867 01       		.uleb128 0x1
 6088 0868 31       		.byte	0x31
 6089 0869 11       		.uleb128 0x11
 6090 086a 01       		.uleb128 0x1
 6091 086b 52       		.byte	0x52
 6092 086c 02       		.uleb128 0x2
 6093 086d 76       		.byte	0x76
 6094 086e 00       		.sleb128 0
 6095 086f 11       		.uleb128 0x11
 6096 0870 01       		.uleb128 0x1
 6097 0871 53       		.byte	0x53
 6098 0872 02       		.uleb128 0x2
 6099 0873 76       		.byte	0x76
 6100 0874 00       		.sleb128 0
 6101 0875 00       		.byte	0
 6102 0876 10       		.uleb128 0x10
 6103 0877 5E000000 		.4byte	.LVL189
 6104 087b 0A050000 		.4byte	0x50a
 6105 087f 11       		.uleb128 0x11
 6106 0880 01       		.uleb128 0x1
 6107 0881 50       		.byte	0x50
 6108 0882 03       		.uleb128 0x3
 6109 0883 91       		.byte	0x91
 6110 0884 5C       		.sleb128 -36
 6111 0885 06       		.byte	0x6
 6112 0886 11       		.uleb128 0x11
 6113 0887 01       		.uleb128 0x1
 6114 0888 51       		.byte	0x51
ARM GAS  C:\Users\Phuong\AppData\Local\Temp\ccZ7UQ35.s 			page 129


 6115 0889 01       		.uleb128 0x1
 6116 088a 31       		.byte	0x31
 6117 088b 11       		.uleb128 0x11
 6118 088c 01       		.uleb128 0x1
 6119 088d 52       		.byte	0x52
 6120 088e 02       		.uleb128 0x2
 6121 088f 76       		.byte	0x76
 6122 0890 00       		.sleb128 0
 6123 0891 11       		.uleb128 0x11
 6124 0892 01       		.uleb128 0x1
 6125 0893 53       		.byte	0x53
 6126 0894 02       		.uleb128 0x2
 6127 0895 76       		.byte	0x76
 6128 0896 00       		.sleb128 0
 6129 0897 00       		.byte	0
 6130 0898 00       		.byte	0
 6131 0899 09       		.uleb128 0x9
 6132 089a 04       		.byte	0x4
 6133 089b 76000000 		.4byte	0x76
 6134 089f 12       		.uleb128 0x12
 6135 08a0 F5040000 		.4byte	.LASF31
 6136 08a4 01       		.byte	0x1
 6137 08a5 9002     		.2byte	0x290
 6138 08a7 68000000 		.4byte	0x68
 6139 08ab 00000000 		.4byte	.LFB9
 6140 08af 78000000 		.4byte	.LFE9-.LFB9
 6141 08b3 01       		.uleb128 0x1
 6142 08b4 9C       		.byte	0x9c
 6143 08b5 75090000 		.4byte	0x975
 6144 08b9 0B       		.uleb128 0xb
 6145 08ba 63747800 		.ascii	"ctx\000"
 6146 08be 01       		.byte	0x1
 6147 08bf 9002     		.2byte	0x290
 6148 08c1 98010000 		.4byte	0x198
 6149 08c5 D20A0000 		.4byte	.LLST41
 6150 08c9 13       		.uleb128 0x13
 6151 08ca EB010000 		.4byte	.LASF27
 6152 08ce 01       		.byte	0x1
 6153 08cf 9102     		.2byte	0x291
 6154 08d1 76000000 		.4byte	0x76
 6155 08d5 F10A0000 		.4byte	.LLST42
 6156 08d9 13       		.uleb128 0x13
 6157 08da 8E010000 		.4byte	.LASF32
 6158 08de 01       		.byte	0x1
 6159 08df 9202     		.2byte	0x292
 6160 08e1 99080000 		.4byte	0x899
 6161 08e5 480B0000 		.4byte	.LLST43
 6162 08e9 13       		.uleb128 0x13
 6163 08ea 79010000 		.4byte	.LASF33
 6164 08ee 01       		.byte	0x1
 6165 08ef 9302     		.2byte	0x293
 6166 08f1 D9000000 		.4byte	0xd9
 6167 08f5 710B0000 		.4byte	.LLST44
 6168 08f9 18       		.uleb128 0x18
 6169 08fa 7D000000 		.4byte	.LASF34
 6170 08fe 01       		.byte	0x1
 6171 08ff 9402     		.2byte	0x294
ARM GAS  C:\Users\Phuong\AppData\Local\Temp\ccZ7UQ35.s 			page 130


 6172 0901 D9000000 		.4byte	0xd9
 6173 0905 02       		.uleb128 0x2
 6174 0906 91       		.byte	0x91
 6175 0907 00       		.sleb128 0
 6176 0908 13       		.uleb128 0x13
 6177 0909 77000000 		.4byte	.LASF24
 6178 090d 01       		.byte	0x1
 6179 090e 9502     		.2byte	0x295
 6180 0910 BF030000 		.4byte	0x3bf
 6181 0914 9D0B0000 		.4byte	.LLST45
 6182 0918 13       		.uleb128 0x13
 6183 0919 B0040000 		.4byte	.LASF25
 6184 091d 01       		.byte	0x1
 6185 091e 9602     		.2byte	0x296
 6186 0920 D9000000 		.4byte	0xd9
 6187 0924 D40B0000 		.4byte	.LLST46
 6188 0928 0D       		.uleb128 0xd
 6189 0929 6300     		.ascii	"c\000"
 6190 092b 01       		.byte	0x1
 6191 092c 9802     		.2byte	0x298
 6192 092e 68000000 		.4byte	0x68
 6193 0932 0B0C0000 		.4byte	.LLST47
 6194 0936 0D       		.uleb128 0xd
 6195 0937 6900     		.ascii	"i\000"
 6196 0939 01       		.byte	0x1
 6197 093a 9802     		.2byte	0x298
 6198 093c 68000000 		.4byte	0x68
 6199 0940 230C0000 		.4byte	.LLST48
 6200 0944 0D       		.uleb128 0xd
 6201 0945 6E00     		.ascii	"n\000"
 6202 0947 01       		.byte	0x1
 6203 0948 9902     		.2byte	0x299
 6204 094a 76000000 		.4byte	0x76
 6205 094e 420C0000 		.4byte	.LLST49
 6206 0952 10       		.uleb128 0x10
 6207 0953 2E000000 		.4byte	.LVL207
 6208 0957 0A050000 		.4byte	0x50a
 6209 095b 11       		.uleb128 0x11
 6210 095c 01       		.uleb128 0x1
 6211 095d 50       		.byte	0x50
 6212 095e 03       		.uleb128 0x3
 6213 095f 91       		.byte	0x91
 6214 0960 5C       		.sleb128 -36
 6215 0961 06       		.byte	0x6
 6216 0962 11       		.uleb128 0x11
 6217 0963 01       		.uleb128 0x1
 6218 0964 51       		.byte	0x51
 6219 0965 01       		.uleb128 0x1
 6220 0966 31       		.byte	0x31
 6221 0967 11       		.uleb128 0x11
 6222 0968 01       		.uleb128 0x1
 6223 0969 52       		.byte	0x52
 6224 096a 02       		.uleb128 0x2
 6225 096b 77       		.byte	0x77
 6226 096c 00       		.sleb128 0
 6227 096d 11       		.uleb128 0x11
 6228 096e 01       		.uleb128 0x1
ARM GAS  C:\Users\Phuong\AppData\Local\Temp\ccZ7UQ35.s 			page 131


 6229 096f 53       		.byte	0x53
 6230 0970 02       		.uleb128 0x2
 6231 0971 7A       		.byte	0x7a
 6232 0972 00       		.sleb128 0
 6233 0973 00       		.byte	0
 6234 0974 00       		.byte	0
 6235 0975 12       		.uleb128 0x12
 6236 0976 04040000 		.4byte	.LASF35
 6237 097a 01       		.byte	0x1
 6238 097b 7A03     		.2byte	0x37a
 6239 097d 68000000 		.4byte	0x68
 6240 0981 00000000 		.4byte	.LFB10
 6241 0985 0C040000 		.4byte	.LFE10-.LFB10
 6242 0989 01       		.uleb128 0x1
 6243 098a 9C       		.byte	0x9c
 6244 098b DE0E0000 		.4byte	0xede
 6245 098f 13       		.uleb128 0x13
 6246 0990 C5010000 		.4byte	.LASF36
 6247 0994 01       		.byte	0x1
 6248 0995 7A03     		.2byte	0x37a
 6249 0997 68000000 		.4byte	0x68
 6250 099b 790C0000 		.4byte	.LLST50
 6251 099f 0D       		.uleb128 0xd
 6252 09a0 6900     		.ascii	"i\000"
 6253 09a2 01       		.byte	0x1
 6254 09a3 7C03     		.2byte	0x37c
 6255 09a5 68000000 		.4byte	0x68
 6256 09a9 D90D0000 		.4byte	.LLST51
 6257 09ad 0D       		.uleb128 0xd
 6258 09ae 6A00     		.ascii	"j\000"
 6259 09b0 01       		.byte	0x1
 6260 09b1 7C03     		.2byte	0x37c
 6261 09b3 68000000 		.4byte	0x68
 6262 09b7 230E0000 		.4byte	.LLST52
 6263 09bb 0D       		.uleb128 0xd
 6264 09bc 7500     		.ascii	"u\000"
 6265 09be 01       		.byte	0x1
 6266 09bf 7C03     		.2byte	0x37c
 6267 09c1 68000000 		.4byte	0x68
 6268 09c5 790E0000 		.4byte	.LLST53
 6269 09c9 0D       		.uleb128 0xd
 6270 09ca 7600     		.ascii	"v\000"
 6271 09cc 01       		.byte	0x1
 6272 09cd 7C03     		.2byte	0x37c
 6273 09cf 68000000 		.4byte	0x68
 6274 09d3 F00E0000 		.4byte	.LLST54
 6275 09d7 14       		.uleb128 0x14
 6276 09d8 6B657900 		.ascii	"key\000"
 6277 09dc 01       		.byte	0x1
 6278 09dd 7D03     		.2byte	0x37d
 6279 09df DE0E0000 		.4byte	0xede
 6280 09e3 02       		.uleb128 0x2
 6281 09e4 91       		.byte	0x91
 6282 09e5 40       		.sleb128 -64
 6283 09e6 14       		.uleb128 0x14
 6284 09e7 62756600 		.ascii	"buf\000"
 6285 09eb 01       		.byte	0x1
ARM GAS  C:\Users\Phuong\AppData\Local\Temp\ccZ7UQ35.s 			page 132


 6286 09ec 7E03     		.2byte	0x37e
 6287 09ee CA030000 		.4byte	0x3ca
 6288 09f2 03       		.uleb128 0x3
 6289 09f3 91       		.byte	0x91
 6290 09f4 807F     		.sleb128 -128
 6291 09f6 14       		.uleb128 0x14
 6292 09f7 73726300 		.ascii	"src\000"
 6293 09fb 01       		.byte	0x1
 6294 09fc 7F03     		.2byte	0x37f
 6295 09fe 9C070000 		.4byte	0x79c
 6296 0a02 03       		.uleb128 0x3
 6297 0a03 91       		.byte	0x91
 6298 0a04 F07E     		.sleb128 -144
 6299 0a06 14       		.uleb128 0x14
 6300 0a07 64737400 		.ascii	"dst\000"
 6301 0a0b 01       		.byte	0x1
 6302 0a0c 8003     		.2byte	0x380
 6303 0a0e 9C070000 		.4byte	0x79c
 6304 0a12 03       		.uleb128 0x3
 6305 0a13 91       		.byte	0x91
 6306 0a14 E07E     		.sleb128 -160
 6307 0a16 14       		.uleb128 0x14
 6308 0a17 697600   		.ascii	"iv\000"
 6309 0a1a 01       		.byte	0x1
 6310 0a1b 8203     		.2byte	0x382
 6311 0a1d 9C070000 		.4byte	0x79c
 6312 0a21 03       		.uleb128 0x3
 6313 0a22 91       		.byte	0x91
 6314 0a23 D07E     		.sleb128 -176
 6315 0a25 15       		.uleb128 0x15
 6316 0a26 23020000 		.4byte	.LASF37
 6317 0a2a 01       		.byte	0x1
 6318 0a2b 8503     		.2byte	0x385
 6319 0a2d 76000000 		.4byte	0x76
 6320 0a31 03       		.uleb128 0x3
 6321 0a32 91       		.byte	0x91
 6322 0a33 CC7E     		.sleb128 -180
 6323 0a35 0D       		.uleb128 0xd
 6324 0a36 6C656E00 		.ascii	"len\000"
 6325 0a3a 01       		.byte	0x1
 6326 0a3b 8503     		.2byte	0x385
 6327 0a3d 76000000 		.4byte	0x76
 6328 0a41 CA0F0000 		.4byte	.LLST55
 6329 0a45 15       		.uleb128 0x15
 6330 0a46 79010000 		.4byte	.LASF33
 6331 0a4a 01       		.byte	0x1
 6332 0a4b 8603     		.2byte	0x386
 6333 0a4d 9C070000 		.4byte	0x79c
 6334 0a51 03       		.uleb128 0x3
 6335 0a52 91       		.byte	0x91
 6336 0a53 BC7E     		.sleb128 -196
 6337 0a55 15       		.uleb128 0x15
 6338 0a56 7D000000 		.4byte	.LASF34
 6339 0a5a 01       		.byte	0x1
 6340 0a5b 8703     		.2byte	0x387
 6341 0a5d 9C070000 		.4byte	0x79c
 6342 0a61 03       		.uleb128 0x3
ARM GAS  C:\Users\Phuong\AppData\Local\Temp\ccZ7UQ35.s 			page 133


 6343 0a62 91       		.byte	0x91
 6344 0a63 AC7E     		.sleb128 -212
 6345 0a65 14       		.uleb128 0x14
 6346 0a66 63747800 		.ascii	"ctx\000"
 6347 0a6a 01       		.byte	0x1
 6348 0a6b 8A03     		.2byte	0x38a
 6349 0a6d CE000000 		.4byte	0xce
 6350 0a71 03       		.uleb128 0x3
 6351 0a72 91       		.byte	0x91
 6352 0a73 987C     		.sleb128 -488
 6353 0a75 16       		.uleb128 0x16
 6354 0a76 18000000 		.4byte	.LVL226
 6355 0a7a FC110000 		.4byte	0x11fc
 6356 0a7e 940A0000 		.4byte	0xa94
 6357 0a82 11       		.uleb128 0x11
 6358 0a83 01       		.uleb128 0x1
 6359 0a84 50       		.byte	0x50
 6360 0a85 02       		.uleb128 0x2
 6361 0a86 91       		.byte	0x91
 6362 0a87 40       		.sleb128 -64
 6363 0a88 11       		.uleb128 0x11
 6364 0a89 01       		.uleb128 0x1
 6365 0a8a 51       		.byte	0x51
 6366 0a8b 01       		.uleb128 0x1
 6367 0a8c 30       		.byte	0x30
 6368 0a8d 11       		.uleb128 0x11
 6369 0a8e 01       		.uleb128 0x1
 6370 0a8f 52       		.byte	0x52
 6371 0a90 02       		.uleb128 0x2
 6372 0a91 08       		.byte	0x8
 6373 0a92 20       		.byte	0x20
 6374 0a93 00       		.byte	0
 6375 0a94 16       		.uleb128 0x16
 6376 0a95 40000000 		.4byte	.LVL232
 6377 0a99 19120000 		.4byte	0x1219
 6378 0a9d AB0A0000 		.4byte	0xaab
 6379 0aa1 11       		.uleb128 0x11
 6380 0aa2 01       		.uleb128 0x1
 6381 0aa3 50       		.byte	0x50
 6382 0aa4 05       		.uleb128 0x5
 6383 0aa5 03       		.byte	0x3
 6384 0aa6 08000000 		.4byte	.LC10
 6385 0aaa 00       		.byte	0
 6386 0aab 16       		.uleb128 0x16
 6387 0aac 5C000000 		.4byte	.LVL234
 6388 0ab0 10120000 		.4byte	0x1210
 6389 0ab4 DA0A0000 		.4byte	0xada
 6390 0ab8 11       		.uleb128 0x11
 6391 0ab9 01       		.uleb128 0x1
 6392 0aba 50       		.byte	0x50
 6393 0abb 02       		.uleb128 0x2
 6394 0abc 91       		.byte	0x91
 6395 0abd 40       		.sleb128 -64
 6396 0abe 11       		.uleb128 0x11
 6397 0abf 01       		.uleb128 0x1
 6398 0ac0 51       		.byte	0x51
 6399 0ac1 0F       		.uleb128 0xf
ARM GAS  C:\Users\Phuong\AppData\Local\Temp\ccZ7UQ35.s 			page 134


 6400 0ac2 76       		.byte	0x76
 6401 0ac3 00       		.sleb128 0
 6402 0ac4 31       		.byte	0x31
 6403 0ac5 24       		.byte	0x24
 6404 0ac6 74       		.byte	0x74
 6405 0ac7 00       		.sleb128 0
 6406 0ac8 22       		.byte	0x22
 6407 0ac9 35       		.byte	0x35
 6408 0aca 24       		.byte	0x24
 6409 0acb 03       		.byte	0x3
 6410 0acc 18050000 		.4byte	.LANCHOR6+24
 6411 0ad0 22       		.byte	0x22
 6412 0ad1 11       		.uleb128 0x11
 6413 0ad2 01       		.uleb128 0x1
 6414 0ad3 52       		.byte	0x52
 6415 0ad4 04       		.uleb128 0x4
 6416 0ad5 79       		.byte	0x79
 6417 0ad6 00       		.sleb128 0
 6418 0ad7 33       		.byte	0x33
 6419 0ad8 24       		.byte	0x24
 6420 0ad9 00       		.byte	0
 6421 0ada 16       		.uleb128 0x16
 6422 0adb 6C000000 		.4byte	.LVL235
 6423 0adf 10040000 		.4byte	0x410
 6424 0ae3 FD0A0000 		.4byte	0xafd
 6425 0ae7 11       		.uleb128 0x11
 6426 0ae8 01       		.uleb128 0x1
 6427 0ae9 50       		.byte	0x50
 6428 0aea 03       		.uleb128 0x3
 6429 0aeb 91       		.byte	0x91
 6430 0aec 987C     		.sleb128 -488
 6431 0aee 11       		.uleb128 0x11
 6432 0aef 01       		.uleb128 0x1
 6433 0af0 51       		.byte	0x51
 6434 0af1 02       		.uleb128 0x2
 6435 0af2 91       		.byte	0x91
 6436 0af3 40       		.sleb128 -64
 6437 0af4 11       		.uleb128 0x11
 6438 0af5 01       		.uleb128 0x1
 6439 0af6 52       		.byte	0x52
 6440 0af7 04       		.uleb128 0x4
 6441 0af8 79       		.byte	0x79
 6442 0af9 00       		.sleb128 0
 6443 0afa 36       		.byte	0x36
 6444 0afb 24       		.byte	0x24
 6445 0afc 00       		.byte	0
 6446 0afd 16       		.uleb128 0x16
 6447 0afe A6000000 		.4byte	.LVL236
 6448 0b02 DD010000 		.4byte	0x1dd
 6449 0b06 200B0000 		.4byte	0xb20
 6450 0b0a 11       		.uleb128 0x11
 6451 0b0b 01       		.uleb128 0x1
 6452 0b0c 50       		.byte	0x50
 6453 0b0d 03       		.uleb128 0x3
 6454 0b0e 91       		.byte	0x91
 6455 0b0f 987C     		.sleb128 -488
 6456 0b11 11       		.uleb128 0x11
ARM GAS  C:\Users\Phuong\AppData\Local\Temp\ccZ7UQ35.s 			page 135


 6457 0b12 01       		.uleb128 0x1
 6458 0b13 51       		.byte	0x51
 6459 0b14 02       		.uleb128 0x2
 6460 0b15 91       		.byte	0x91
 6461 0b16 40       		.sleb128 -64
 6462 0b17 11       		.uleb128 0x11
 6463 0b18 01       		.uleb128 0x1
 6464 0b19 52       		.byte	0x52
 6465 0b1a 04       		.uleb128 0x4
 6466 0b1b 79       		.byte	0x79
 6467 0b1c 00       		.sleb128 0
 6468 0b1d 36       		.byte	0x36
 6469 0b1e 24       		.byte	0x24
 6470 0b1f 00       		.byte	0
 6471 0b20 16       		.uleb128 0x16
 6472 0b21 DE000000 		.4byte	.LVL237
 6473 0b25 0A050000 		.4byte	0x50a
 6474 0b29 490B0000 		.4byte	0xb49
 6475 0b2d 11       		.uleb128 0x11
 6476 0b2e 01       		.uleb128 0x1
 6477 0b2f 50       		.byte	0x50
 6478 0b30 03       		.uleb128 0x3
 6479 0b31 91       		.byte	0x91
 6480 0b32 987C     		.sleb128 -488
 6481 0b34 11       		.uleb128 0x11
 6482 0b35 01       		.uleb128 0x1
 6483 0b36 51       		.byte	0x51
 6484 0b37 02       		.uleb128 0x2
 6485 0b38 75       		.byte	0x75
 6486 0b39 00       		.sleb128 0
 6487 0b3a 11       		.uleb128 0x11
 6488 0b3b 01       		.uleb128 0x1
 6489 0b3c 52       		.byte	0x52
 6490 0b3d 03       		.uleb128 0x3
 6491 0b3e 91       		.byte	0x91
 6492 0b3f F07E     		.sleb128 -144
 6493 0b41 11       		.uleb128 0x11
 6494 0b42 01       		.uleb128 0x1
 6495 0b43 53       		.byte	0x53
 6496 0b44 03       		.uleb128 0x3
 6497 0b45 91       		.byte	0x91
 6498 0b46 807F     		.sleb128 -128
 6499 0b48 00       		.byte	0
 6500 0b49 16       		.uleb128 0x16
 6501 0b4a E8000000 		.4byte	.LVL238
 6502 0b4e 24120000 		.4byte	0x1224
 6503 0b52 6A0B0000 		.4byte	0xb6a
 6504 0b56 11       		.uleb128 0x11
 6505 0b57 01       		.uleb128 0x1
 6506 0b58 50       		.byte	0x50
 6507 0b59 03       		.uleb128 0x3
 6508 0b5a 91       		.byte	0x91
 6509 0b5b 807F     		.sleb128 -128
 6510 0b5d 11       		.uleb128 0x11
 6511 0b5e 01       		.uleb128 0x1
 6512 0b5f 51       		.byte	0x51
 6513 0b60 03       		.uleb128 0x3
ARM GAS  C:\Users\Phuong\AppData\Local\Temp\ccZ7UQ35.s 			page 136


 6514 0b61 91       		.byte	0x91
 6515 0b62 E07E     		.sleb128 -160
 6516 0b64 11       		.uleb128 0x11
 6517 0b65 01       		.uleb128 0x1
 6518 0b66 52       		.byte	0x52
 6519 0b67 01       		.uleb128 0x1
 6520 0b68 40       		.byte	0x40
 6521 0b69 00       		.byte	0
 6522 0b6a 16       		.uleb128 0x16
 6523 0b6b FA000000 		.4byte	.LVL240
 6524 0b6f 2F120000 		.4byte	0x122f
 6525 0b73 810B0000 		.4byte	0xb81
 6526 0b77 11       		.uleb128 0x11
 6527 0b78 01       		.uleb128 0x1
 6528 0b79 50       		.byte	0x50
 6529 0b7a 05       		.uleb128 0x5
 6530 0b7b 03       		.byte	0x3
 6531 0b7c 24000000 		.4byte	.LC15
 6532 0b80 00       		.byte	0
 6533 0b81 16       		.uleb128 0x16
 6534 0b82 10010000 		.4byte	.LVL243
 6535 0b86 2F120000 		.4byte	0x122f
 6536 0b8a 980B0000 		.4byte	0xb98
 6537 0b8e 11       		.uleb128 0x11
 6538 0b8f 01       		.uleb128 0x1
 6539 0b90 50       		.byte	0x50
 6540 0b91 05       		.uleb128 0x5
 6541 0b92 03       		.byte	0x3
 6542 0b93 2C000000 		.4byte	.LC17
 6543 0b97 00       		.byte	0
 6544 0b98 16       		.uleb128 0x16
 6545 0b99 28010000 		.4byte	.LVL246
 6546 0b9d 3E120000 		.4byte	0x123e
 6547 0ba1 AB0B0000 		.4byte	0xbab
 6548 0ba5 11       		.uleb128 0x11
 6549 0ba6 01       		.uleb128 0x1
 6550 0ba7 50       		.byte	0x50
 6551 0ba8 01       		.uleb128 0x1
 6552 0ba9 3A       		.byte	0x3a
 6553 0baa 00       		.byte	0
 6554 0bab 16       		.uleb128 0x16
 6555 0bac 50010000 		.4byte	.LVL252
 6556 0bb0 19120000 		.4byte	0x1219
 6557 0bb4 C20B0000 		.4byte	0xbc2
 6558 0bb8 11       		.uleb128 0x11
 6559 0bb9 01       		.uleb128 0x1
 6560 0bba 50       		.byte	0x50
 6561 0bbb 05       		.uleb128 0x5
 6562 0bbc 03       		.byte	0x3
 6563 0bbd 34000000 		.4byte	.LC19
 6564 0bc1 00       		.byte	0
 6565 0bc2 16       		.uleb128 0x16
 6566 0bc3 7E010000 		.4byte	.LVL253
 6567 0bc7 10120000 		.4byte	0x1210
 6568 0bcb EC0B0000 		.4byte	0xbec
 6569 0bcf 11       		.uleb128 0x11
 6570 0bd0 01       		.uleb128 0x1
ARM GAS  C:\Users\Phuong\AppData\Local\Temp\ccZ7UQ35.s 			page 137


 6571 0bd1 50       		.byte	0x50
 6572 0bd2 02       		.uleb128 0x2
 6573 0bd3 91       		.byte	0x91
 6574 0bd4 40       		.sleb128 -64
 6575 0bd5 11       		.uleb128 0x11
 6576 0bd6 01       		.uleb128 0x1
 6577 0bd7 51       		.byte	0x51
 6578 0bd8 0A       		.uleb128 0xa
 6579 0bd9 77       		.byte	0x77
 6580 0bda 00       		.sleb128 0
 6581 0bdb 35       		.byte	0x35
 6582 0bdc 24       		.byte	0x24
 6583 0bdd 03       		.byte	0x3
 6584 0bde 68060000 		.4byte	.LANCHOR8+104
 6585 0be2 22       		.byte	0x22
 6586 0be3 11       		.uleb128 0x11
 6587 0be4 01       		.uleb128 0x1
 6588 0be5 52       		.byte	0x52
 6589 0be6 04       		.uleb128 0x4
 6590 0be7 74       		.byte	0x74
 6591 0be8 00       		.sleb128 0
 6592 0be9 33       		.byte	0x33
 6593 0bea 24       		.byte	0x24
 6594 0beb 00       		.byte	0
 6595 0bec 16       		.uleb128 0x16
 6596 0bed 8C010000 		.4byte	.LVL254
 6597 0bf1 10040000 		.4byte	0x410
 6598 0bf5 0F0C0000 		.4byte	0xc0f
 6599 0bf9 11       		.uleb128 0x11
 6600 0bfa 01       		.uleb128 0x1
 6601 0bfb 50       		.byte	0x50
 6602 0bfc 03       		.uleb128 0x3
 6603 0bfd 91       		.byte	0x91
 6604 0bfe 987C     		.sleb128 -488
 6605 0c00 11       		.uleb128 0x11
 6606 0c01 01       		.uleb128 0x1
 6607 0c02 51       		.byte	0x51
 6608 0c03 02       		.uleb128 0x2
 6609 0c04 91       		.byte	0x91
 6610 0c05 40       		.sleb128 -64
 6611 0c06 11       		.uleb128 0x11
 6612 0c07 01       		.uleb128 0x1
 6613 0c08 52       		.byte	0x52
 6614 0c09 04       		.uleb128 0x4
 6615 0c0a 74       		.byte	0x74
 6616 0c0b 00       		.sleb128 0
 6617 0c0c 36       		.byte	0x36
 6618 0c0d 24       		.byte	0x24
 6619 0c0e 00       		.byte	0
 6620 0c0f 16       		.uleb128 0x16
 6621 0c10 9A010000 		.4byte	.LVL255
 6622 0c14 DD010000 		.4byte	0x1dd
 6623 0c18 320C0000 		.4byte	0xc32
 6624 0c1c 11       		.uleb128 0x11
 6625 0c1d 01       		.uleb128 0x1
 6626 0c1e 50       		.byte	0x50
 6627 0c1f 03       		.uleb128 0x3
ARM GAS  C:\Users\Phuong\AppData\Local\Temp\ccZ7UQ35.s 			page 138


 6628 0c20 91       		.byte	0x91
 6629 0c21 987C     		.sleb128 -488
 6630 0c23 11       		.uleb128 0x11
 6631 0c24 01       		.uleb128 0x1
 6632 0c25 51       		.byte	0x51
 6633 0c26 02       		.uleb128 0x2
 6634 0c27 91       		.byte	0x91
 6635 0c28 40       		.sleb128 -64
 6636 0c29 11       		.uleb128 0x11
 6637 0c2a 01       		.uleb128 0x1
 6638 0c2b 52       		.byte	0x52
 6639 0c2c 04       		.uleb128 0x4
 6640 0c2d 74       		.byte	0x74
 6641 0c2e 00       		.sleb128 0
 6642 0c2f 36       		.byte	0x36
 6643 0c30 24       		.byte	0x24
 6644 0c31 00       		.byte	0
 6645 0c32 16       		.uleb128 0x16
 6646 0c33 AC010000 		.4byte	.LVL257
 6647 0c37 10120000 		.4byte	0x1210
 6648 0c3b 520C0000 		.4byte	0xc52
 6649 0c3f 11       		.uleb128 0x11
 6650 0c40 01       		.uleb128 0x1
 6651 0c41 50       		.byte	0x50
 6652 0c42 03       		.uleb128 0x3
 6653 0c43 91       		.byte	0x91
 6654 0c44 D07E     		.sleb128 -176
 6655 0c46 11       		.uleb128 0x11
 6656 0c47 01       		.uleb128 0x1
 6657 0c48 51       		.byte	0x51
 6658 0c49 02       		.uleb128 0x2
 6659 0c4a 76       		.byte	0x76
 6660 0c4b 00       		.sleb128 0
 6661 0c4c 11       		.uleb128 0x11
 6662 0c4d 01       		.uleb128 0x1
 6663 0c4e 52       		.byte	0x52
 6664 0c4f 01       		.uleb128 0x1
 6665 0c50 40       		.byte	0x40
 6666 0c51 00       		.byte	0
 6667 0c52 16       		.uleb128 0x16
 6668 0c53 EA010000 		.4byte	.LVL258
 6669 0c57 10120000 		.4byte	0x1210
 6670 0c5b 720C0000 		.4byte	0xc72
 6671 0c5f 11       		.uleb128 0x11
 6672 0c60 01       		.uleb128 0x1
 6673 0c61 50       		.byte	0x50
 6674 0c62 03       		.uleb128 0x3
 6675 0c63 91       		.byte	0x91
 6676 0c64 D07E     		.sleb128 -176
 6677 0c66 11       		.uleb128 0x11
 6678 0c67 01       		.uleb128 0x1
 6679 0c68 51       		.byte	0x51
 6680 0c69 02       		.uleb128 0x2
 6681 0c6a 7A       		.byte	0x7a
 6682 0c6b 00       		.sleb128 0
 6683 0c6c 11       		.uleb128 0x11
 6684 0c6d 01       		.uleb128 0x1
ARM GAS  C:\Users\Phuong\AppData\Local\Temp\ccZ7UQ35.s 			page 139


 6685 0c6e 52       		.byte	0x52
 6686 0c6f 01       		.uleb128 0x1
 6687 0c70 40       		.byte	0x40
 6688 0c71 00       		.byte	0
 6689 0c72 16       		.uleb128 0x16
 6690 0c73 2C020000 		.4byte	.LVL259
 6691 0c77 5C060000 		.4byte	0x65c
 6692 0c7b A80C0000 		.4byte	0xca8
 6693 0c7f 11       		.uleb128 0x11
 6694 0c80 01       		.uleb128 0x1
 6695 0c81 50       		.byte	0x50
 6696 0c82 03       		.uleb128 0x3
 6697 0c83 91       		.byte	0x91
 6698 0c84 987C     		.sleb128 -488
 6699 0c86 11       		.uleb128 0x11
 6700 0c87 01       		.uleb128 0x1
 6701 0c88 51       		.byte	0x51
 6702 0c89 02       		.uleb128 0x2
 6703 0c8a 75       		.byte	0x75
 6704 0c8b 00       		.sleb128 0
 6705 0c8c 11       		.uleb128 0x11
 6706 0c8d 01       		.uleb128 0x1
 6707 0c8e 52       		.byte	0x52
 6708 0c8f 01       		.uleb128 0x1
 6709 0c90 40       		.byte	0x40
 6710 0c91 11       		.uleb128 0x11
 6711 0c92 01       		.uleb128 0x1
 6712 0c93 53       		.byte	0x53
 6713 0c94 03       		.uleb128 0x3
 6714 0c95 91       		.byte	0x91
 6715 0c96 D07E     		.sleb128 -176
 6716 0c98 11       		.uleb128 0x11
 6717 0c99 02       		.uleb128 0x2
 6718 0c9a 7D       		.byte	0x7d
 6719 0c9b 00       		.sleb128 0
 6720 0c9c 03       		.uleb128 0x3
 6721 0c9d 91       		.byte	0x91
 6722 0c9e F07E     		.sleb128 -144
 6723 0ca0 11       		.uleb128 0x11
 6724 0ca1 02       		.uleb128 0x2
 6725 0ca2 7D       		.byte	0x7d
 6726 0ca3 04       		.sleb128 4
 6727 0ca4 02       		.uleb128 0x2
 6728 0ca5 76       		.byte	0x76
 6729 0ca6 00       		.sleb128 0
 6730 0ca7 00       		.byte	0
 6731 0ca8 16       		.uleb128 0x16
 6732 0ca9 36020000 		.4byte	.LVL260
 6733 0cad 24120000 		.4byte	0x1224
 6734 0cb1 C80C0000 		.4byte	0xcc8
 6735 0cb5 11       		.uleb128 0x11
 6736 0cb6 01       		.uleb128 0x1
 6737 0cb7 50       		.byte	0x50
 6738 0cb8 02       		.uleb128 0x2
 6739 0cb9 76       		.byte	0x76
 6740 0cba 00       		.sleb128 0
 6741 0cbb 11       		.uleb128 0x11
ARM GAS  C:\Users\Phuong\AppData\Local\Temp\ccZ7UQ35.s 			page 140


 6742 0cbc 01       		.uleb128 0x1
 6743 0cbd 51       		.byte	0x51
 6744 0cbe 03       		.uleb128 0x3
 6745 0cbf 91       		.byte	0x91
 6746 0cc0 E07E     		.sleb128 -160
 6747 0cc2 11       		.uleb128 0x11
 6748 0cc3 01       		.uleb128 0x1
 6749 0cc4 52       		.byte	0x52
 6750 0cc5 01       		.uleb128 0x1
 6751 0cc6 40       		.byte	0x40
 6752 0cc7 00       		.byte	0
 6753 0cc8 16       		.uleb128 0x16
 6754 0cc9 48020000 		.4byte	.LVL262
 6755 0ccd 2F120000 		.4byte	0x122f
 6756 0cd1 DF0C0000 		.4byte	0xcdf
 6757 0cd5 11       		.uleb128 0x11
 6758 0cd6 01       		.uleb128 0x1
 6759 0cd7 50       		.byte	0x50
 6760 0cd8 05       		.uleb128 0x5
 6761 0cd9 03       		.byte	0x3
 6762 0cda 24000000 		.4byte	.LC15
 6763 0cde 00       		.byte	0
 6764 0cdf 16       		.uleb128 0x16
 6765 0ce0 5E020000 		.4byte	.LVL265
 6766 0ce4 2F120000 		.4byte	0x122f
 6767 0ce8 F60C0000 		.4byte	0xcf6
 6768 0cec 11       		.uleb128 0x11
 6769 0ced 01       		.uleb128 0x1
 6770 0cee 50       		.byte	0x50
 6771 0cef 05       		.uleb128 0x5
 6772 0cf0 03       		.byte	0x3
 6773 0cf1 2C000000 		.4byte	.LC17
 6774 0cf5 00       		.byte	0
 6775 0cf6 16       		.uleb128 0x16
 6776 0cf7 78020000 		.4byte	.LVL268
 6777 0cfb 3E120000 		.4byte	0x123e
 6778 0cff 090D0000 		.4byte	0xd09
 6779 0d03 11       		.uleb128 0x11
 6780 0d04 01       		.uleb128 0x1
 6781 0d05 50       		.byte	0x50
 6782 0d06 01       		.uleb128 0x1
 6783 0d07 3A       		.byte	0x3a
 6784 0d08 00       		.byte	0
 6785 0d09 16       		.uleb128 0x16
 6786 0d0a 9C020000 		.4byte	.LVL274
 6787 0d0e 19120000 		.4byte	0x1219
 6788 0d12 200D0000 		.4byte	0xd20
 6789 0d16 11       		.uleb128 0x11
 6790 0d17 01       		.uleb128 0x1
 6791 0d18 50       		.byte	0x50
 6792 0d19 05       		.uleb128 0x5
 6793 0d1a 03       		.byte	0x3
 6794 0d1b 50000000 		.4byte	.LC23
 6795 0d1f 00       		.byte	0
 6796 0d20 16       		.uleb128 0x16
 6797 0d21 BE020000 		.4byte	.LVL275
 6798 0d25 10120000 		.4byte	0x1210
ARM GAS  C:\Users\Phuong\AppData\Local\Temp\ccZ7UQ35.s 			page 141


 6799 0d29 460D0000 		.4byte	0xd46
 6800 0d2d 11       		.uleb128 0x11
 6801 0d2e 01       		.uleb128 0x1
 6802 0d2f 50       		.byte	0x50
 6803 0d30 02       		.uleb128 0x2
 6804 0d31 91       		.byte	0x91
 6805 0d32 40       		.sleb128 -64
 6806 0d33 11       		.uleb128 0x11
 6807 0d34 01       		.uleb128 0x1
 6808 0d35 51       		.byte	0x51
 6809 0d36 09       		.uleb128 0x9
 6810 0d37 74       		.byte	0x74
 6811 0d38 00       		.sleb128 0
 6812 0d39 34       		.byte	0x34
 6813 0d3a 24       		.byte	0x24
 6814 0d3b 79       		.byte	0x79
 6815 0d3c 00       		.sleb128 0
 6816 0d3d 22       		.byte	0x22
 6817 0d3e 23       		.byte	0x23
 6818 0d3f 38       		.uleb128 0x38
 6819 0d40 11       		.uleb128 0x11
 6820 0d41 01       		.uleb128 0x1
 6821 0d42 52       		.byte	0x52
 6822 0d43 01       		.uleb128 0x1
 6823 0d44 40       		.byte	0x40
 6824 0d45 00       		.byte	0
 6825 0d46 16       		.uleb128 0x16
 6826 0d47 CC020000 		.4byte	.LVL276
 6827 0d4b DD010000 		.4byte	0x1dd
 6828 0d4f 670D0000 		.4byte	0xd67
 6829 0d53 11       		.uleb128 0x11
 6830 0d54 01       		.uleb128 0x1
 6831 0d55 50       		.byte	0x50
 6832 0d56 03       		.uleb128 0x3
 6833 0d57 91       		.byte	0x91
 6834 0d58 987C     		.sleb128 -488
 6835 0d5a 11       		.uleb128 0x11
 6836 0d5b 01       		.uleb128 0x1
 6837 0d5c 51       		.byte	0x51
 6838 0d5d 02       		.uleb128 0x2
 6839 0d5e 91       		.byte	0x91
 6840 0d5f 40       		.sleb128 -64
 6841 0d60 11       		.uleb128 0x11
 6842 0d61 01       		.uleb128 0x1
 6843 0d62 52       		.byte	0x52
 6844 0d63 02       		.uleb128 0x2
 6845 0d64 08       		.byte	0x8
 6846 0d65 80       		.byte	0x80
 6847 0d66 00       		.byte	0
 6848 0d67 16       		.uleb128 0x16
 6849 0d68 F0020000 		.4byte	.LVL280
 6850 0d6c 10120000 		.4byte	0x1210
 6851 0d70 910D0000 		.4byte	0xd91
 6852 0d74 11       		.uleb128 0x11
 6853 0d75 01       		.uleb128 0x1
 6854 0d76 50       		.byte	0x50
 6855 0d77 02       		.uleb128 0x2
ARM GAS  C:\Users\Phuong\AppData\Local\Temp\ccZ7UQ35.s 			page 142


 6856 0d78 75       		.byte	0x75
 6857 0d79 00       		.sleb128 0
 6858 0d7a 11       		.uleb128 0x11
 6859 0d7b 01       		.uleb128 0x1
 6860 0d7c 51       		.byte	0x51
 6861 0d7d 0C       		.uleb128 0xc
 6862 0d7e 76       		.byte	0x76
 6863 0d7f 00       		.sleb128 0
 6864 0d80 74       		.byte	0x74
 6865 0d81 00       		.sleb128 0
 6866 0d82 22       		.byte	0x22
 6867 0d83 34       		.byte	0x34
 6868 0d84 24       		.byte	0x24
 6869 0d85 79       		.byte	0x79
 6870 0d86 00       		.sleb128 0
 6871 0d87 22       		.byte	0x22
 6872 0d88 23       		.byte	0x23
 6873 0d89 74       		.uleb128 0x74
 6874 0d8a 11       		.uleb128 0x11
 6875 0d8b 01       		.uleb128 0x1
 6876 0d8c 52       		.byte	0x52
 6877 0d8d 02       		.uleb128 0x2
 6878 0d8e 77       		.byte	0x77
 6879 0d8f 00       		.sleb128 0
 6880 0d90 00       		.byte	0
 6881 0d91 16       		.uleb128 0x16
 6882 0d92 04030000 		.4byte	.LVL281
 6883 0d96 9F080000 		.4byte	0x89f
 6884 0d9a D00D0000 		.4byte	0xdd0
 6885 0d9e 11       		.uleb128 0x11
 6886 0d9f 01       		.uleb128 0x1
 6887 0da0 50       		.byte	0x50
 6888 0da1 03       		.uleb128 0x3
 6889 0da2 91       		.byte	0x91
 6890 0da3 987C     		.sleb128 -488
 6891 0da5 11       		.uleb128 0x11
 6892 0da6 01       		.uleb128 0x1
 6893 0da7 51       		.byte	0x51
 6894 0da8 02       		.uleb128 0x2
 6895 0da9 77       		.byte	0x77
 6896 0daa 00       		.sleb128 0
 6897 0dab 11       		.uleb128 0x11
 6898 0dac 01       		.uleb128 0x1
 6899 0dad 52       		.byte	0x52
 6900 0dae 03       		.uleb128 0x3
 6901 0daf 91       		.byte	0x91
 6902 0db0 CC7E     		.sleb128 -180
 6903 0db2 11       		.uleb128 0x11
 6904 0db3 01       		.uleb128 0x1
 6905 0db4 53       		.byte	0x53
 6906 0db5 03       		.uleb128 0x3
 6907 0db6 91       		.byte	0x91
 6908 0db7 BC7E     		.sleb128 -196
 6909 0db9 11       		.uleb128 0x11
 6910 0dba 02       		.uleb128 0x2
 6911 0dbb 7D       		.byte	0x7d
 6912 0dbc 00       		.sleb128 0
ARM GAS  C:\Users\Phuong\AppData\Local\Temp\ccZ7UQ35.s 			page 143


 6913 0dbd 03       		.uleb128 0x3
 6914 0dbe 91       		.byte	0x91
 6915 0dbf AC7E     		.sleb128 -212
 6916 0dc1 11       		.uleb128 0x11
 6917 0dc2 02       		.uleb128 0x2
 6918 0dc3 7D       		.byte	0x7d
 6919 0dc4 04       		.sleb128 4
 6920 0dc5 02       		.uleb128 0x2
 6921 0dc6 75       		.byte	0x75
 6922 0dc7 00       		.sleb128 0
 6923 0dc8 11       		.uleb128 0x11
 6924 0dc9 02       		.uleb128 0x2
 6925 0dca 7D       		.byte	0x7d
 6926 0dcb 08       		.sleb128 8
 6927 0dcc 02       		.uleb128 0x2
 6928 0dcd 75       		.byte	0x75
 6929 0dce 00       		.sleb128 0
 6930 0dcf 00       		.byte	0
 6931 0dd0 16       		.uleb128 0x16
 6932 0dd1 16030000 		.4byte	.LVL283
 6933 0dd5 24120000 		.4byte	0x1224
 6934 0dd9 F80D0000 		.4byte	0xdf8
 6935 0ddd 11       		.uleb128 0x11
 6936 0dde 01       		.uleb128 0x1
 6937 0ddf 50       		.byte	0x50
 6938 0de0 02       		.uleb128 0x2
 6939 0de1 75       		.byte	0x75
 6940 0de2 00       		.sleb128 0
 6941 0de3 11       		.uleb128 0x11
 6942 0de4 01       		.uleb128 0x1
 6943 0de5 51       		.byte	0x51
 6944 0de6 0A       		.uleb128 0xa
 6945 0de7 74       		.byte	0x74
 6946 0de8 00       		.sleb128 0
 6947 0de9 34       		.byte	0x34
 6948 0dea 24       		.byte	0x24
 6949 0deb 03       		.byte	0x3
 6950 0dec 84080000 		.4byte	.LANCHOR12+4
 6951 0df0 22       		.byte	0x22
 6952 0df1 11       		.uleb128 0x11
 6953 0df2 01       		.uleb128 0x1
 6954 0df3 52       		.byte	0x52
 6955 0df4 02       		.uleb128 0x2
 6956 0df5 77       		.byte	0x77
 6957 0df6 00       		.sleb128 0
 6958 0df7 00       		.byte	0
 6959 0df8 16       		.uleb128 0x16
 6960 0df9 26030000 		.4byte	.LVL285
 6961 0dfd 2F120000 		.4byte	0x122f
 6962 0e01 0F0E0000 		.4byte	0xe0f
 6963 0e05 11       		.uleb128 0x11
 6964 0e06 01       		.uleb128 0x1
 6965 0e07 50       		.byte	0x50
 6966 0e08 05       		.uleb128 0x5
 6967 0e09 03       		.byte	0x3
 6968 0e0a 24000000 		.4byte	.LC15
 6969 0e0e 00       		.byte	0
ARM GAS  C:\Users\Phuong\AppData\Local\Temp\ccZ7UQ35.s 			page 144


 6970 0e0f 16       		.uleb128 0x16
 6971 0e10 4C030000 		.4byte	.LVL291
 6972 0e14 10120000 		.4byte	0x1210
 6973 0e18 3A0E0000 		.4byte	0xe3a
 6974 0e1c 11       		.uleb128 0x11
 6975 0e1d 01       		.uleb128 0x1
 6976 0e1e 50       		.byte	0x50
 6977 0e1f 02       		.uleb128 0x2
 6978 0e20 75       		.byte	0x75
 6979 0e21 00       		.sleb128 0
 6980 0e22 11       		.uleb128 0x11
 6981 0e23 01       		.uleb128 0x1
 6982 0e24 51       		.byte	0x51
 6983 0e25 0D       		.uleb128 0xd
 6984 0e26 76       		.byte	0x76
 6985 0e27 00       		.sleb128 0
 6986 0e28 74       		.byte	0x74
 6987 0e29 00       		.sleb128 0
 6988 0e2a 22       		.byte	0x22
 6989 0e2b 34       		.byte	0x34
 6990 0e2c 24       		.byte	0x24
 6991 0e2d 03       		.byte	0x3
 6992 0e2e 84080000 		.4byte	.LANCHOR12+4
 6993 0e32 22       		.byte	0x22
 6994 0e33 11       		.uleb128 0x11
 6995 0e34 01       		.uleb128 0x1
 6996 0e35 52       		.byte	0x52
 6997 0e36 02       		.uleb128 0x2
 6998 0e37 77       		.byte	0x77
 6999 0e38 00       		.sleb128 0
 7000 0e39 00       		.byte	0
 7001 0e3a 16       		.uleb128 0x16
 7002 0e3b 60030000 		.4byte	.LVL292
 7003 0e3f 9F080000 		.4byte	0x89f
 7004 0e43 790E0000 		.4byte	0xe79
 7005 0e47 11       		.uleb128 0x11
 7006 0e48 01       		.uleb128 0x1
 7007 0e49 50       		.byte	0x50
 7008 0e4a 03       		.uleb128 0x3
 7009 0e4b 91       		.byte	0x91
 7010 0e4c 987C     		.sleb128 -488
 7011 0e4e 11       		.uleb128 0x11
 7012 0e4f 01       		.uleb128 0x1
 7013 0e50 51       		.byte	0x51
 7014 0e51 02       		.uleb128 0x2
 7015 0e52 77       		.byte	0x77
 7016 0e53 00       		.sleb128 0
 7017 0e54 11       		.uleb128 0x11
 7018 0e55 01       		.uleb128 0x1
 7019 0e56 52       		.byte	0x52
 7020 0e57 03       		.uleb128 0x3
 7021 0e58 91       		.byte	0x91
 7022 0e59 CC7E     		.sleb128 -180
 7023 0e5b 11       		.uleb128 0x11
 7024 0e5c 01       		.uleb128 0x1
 7025 0e5d 53       		.byte	0x53
 7026 0e5e 03       		.uleb128 0x3
ARM GAS  C:\Users\Phuong\AppData\Local\Temp\ccZ7UQ35.s 			page 145


 7027 0e5f 91       		.byte	0x91
 7028 0e60 BC7E     		.sleb128 -196
 7029 0e62 11       		.uleb128 0x11
 7030 0e63 02       		.uleb128 0x2
 7031 0e64 7D       		.byte	0x7d
 7032 0e65 00       		.sleb128 0
 7033 0e66 03       		.uleb128 0x3
 7034 0e67 91       		.byte	0x91
 7035 0e68 AC7E     		.sleb128 -212
 7036 0e6a 11       		.uleb128 0x11
 7037 0e6b 02       		.uleb128 0x2
 7038 0e6c 7D       		.byte	0x7d
 7039 0e6d 04       		.sleb128 4
 7040 0e6e 02       		.uleb128 0x2
 7041 0e6f 75       		.byte	0x75
 7042 0e70 00       		.sleb128 0
 7043 0e71 11       		.uleb128 0x11
 7044 0e72 02       		.uleb128 0x2
 7045 0e73 7D       		.byte	0x7d
 7046 0e74 08       		.sleb128 8
 7047 0e75 02       		.uleb128 0x2
 7048 0e76 75       		.byte	0x75
 7049 0e77 00       		.sleb128 0
 7050 0e78 00       		.byte	0
 7051 0e79 16       		.uleb128 0x16
 7052 0e7a 72030000 		.4byte	.LVL294
 7053 0e7e 24120000 		.4byte	0x1224
 7054 0e82 A00E0000 		.4byte	0xea0
 7055 0e86 11       		.uleb128 0x11
 7056 0e87 01       		.uleb128 0x1
 7057 0e88 50       		.byte	0x50
 7058 0e89 02       		.uleb128 0x2
 7059 0e8a 75       		.byte	0x75
 7060 0e8b 00       		.sleb128 0
 7061 0e8c 11       		.uleb128 0x11
 7062 0e8d 01       		.uleb128 0x1
 7063 0e8e 51       		.byte	0x51
 7064 0e8f 09       		.uleb128 0x9
 7065 0e90 74       		.byte	0x74
 7066 0e91 00       		.sleb128 0
 7067 0e92 34       		.byte	0x34
 7068 0e93 24       		.byte	0x24
 7069 0e94 79       		.byte	0x79
 7070 0e95 00       		.sleb128 0
 7071 0e96 22       		.byte	0x22
 7072 0e97 23       		.byte	0x23
 7073 0e98 74       		.uleb128 0x74
 7074 0e99 11       		.uleb128 0x11
 7075 0e9a 01       		.uleb128 0x1
 7076 0e9b 52       		.byte	0x52
 7077 0e9c 02       		.uleb128 0x2
 7078 0e9d 77       		.byte	0x77
 7079 0e9e 00       		.sleb128 0
 7080 0e9f 00       		.byte	0
 7081 0ea0 16       		.uleb128 0x16
 7082 0ea1 82030000 		.4byte	.LVL296
 7083 0ea5 2F120000 		.4byte	0x122f
ARM GAS  C:\Users\Phuong\AppData\Local\Temp\ccZ7UQ35.s 			page 146


 7084 0ea9 B70E0000 		.4byte	0xeb7
 7085 0ead 11       		.uleb128 0x11
 7086 0eae 01       		.uleb128 0x1
 7087 0eaf 50       		.byte	0x50
 7088 0eb0 05       		.uleb128 0x5
 7089 0eb1 03       		.byte	0x3
 7090 0eb2 24000000 		.4byte	.LC15
 7091 0eb6 00       		.byte	0
 7092 0eb7 16       		.uleb128 0x16
 7093 0eb8 CC030000 		.4byte	.LVL300
 7094 0ebc 2F120000 		.4byte	0x122f
 7095 0ec0 CE0E0000 		.4byte	0xece
 7096 0ec4 11       		.uleb128 0x11
 7097 0ec5 01       		.uleb128 0x1
 7098 0ec6 50       		.byte	0x50
 7099 0ec7 05       		.uleb128 0x5
 7100 0ec8 03       		.byte	0x3
 7101 0ec9 2C000000 		.4byte	.LC17
 7102 0ecd 00       		.byte	0
 7103 0ece 10       		.uleb128 0x10
 7104 0ecf E6030000 		.4byte	.LVL304
 7105 0ed3 3E120000 		.4byte	0x123e
 7106 0ed7 11       		.uleb128 0x11
 7107 0ed8 01       		.uleb128 0x1
 7108 0ed9 50       		.byte	0x50
 7109 0eda 01       		.uleb128 0x1
 7110 0edb 3A       		.byte	0x3a
 7111 0edc 00       		.byte	0
 7112 0edd 00       		.byte	0
 7113 0ede 07       		.uleb128 0x7
 7114 0edf 2C000000 		.4byte	0x2c
 7115 0ee3 EE0E0000 		.4byte	0xeee
 7116 0ee7 08       		.uleb128 0x8
 7117 0ee8 C7000000 		.4byte	0xc7
 7118 0eec 1F       		.byte	0x1f
 7119 0eed 00       		.byte	0
 7120 0eee 07       		.uleb128 0x7
 7121 0eef C5030000 		.4byte	0x3c5
 7122 0ef3 040F0000 		.4byte	0xf04
 7123 0ef7 08       		.uleb128 0x8
 7124 0ef8 C7000000 		.4byte	0xc7
 7125 0efc 05       		.byte	0x5
 7126 0efd 08       		.uleb128 0x8
 7127 0efe C7000000 		.4byte	0xc7
 7128 0f02 07       		.byte	0x7
 7129 0f03 00       		.byte	0
 7130 0f04 19       		.uleb128 0x19
 7131 0f05 E9040000 		.4byte	.LASF38
 7132 0f09 01       		.byte	0x1
 7133 0f0a 4B       		.byte	0x4b
 7134 0f0b 150F0000 		.4byte	0xf15
 7135 0f0f 05       		.uleb128 0x5
 7136 0f10 03       		.byte	0x3
 7137 0f11 00040000 		.4byte	SIGMA_CHARS
 7138 0f15 0E       		.uleb128 0xe
 7139 0f16 EE0E0000 		.4byte	0xeee
 7140 0f1a 07       		.uleb128 0x7
ARM GAS  C:\Users\Phuong\AppData\Local\Temp\ccZ7UQ35.s 			page 147


 7141 0f1b C5030000 		.4byte	0x3c5
 7142 0f1f 2A0F0000 		.4byte	0xf2a
 7143 0f23 08       		.uleb128 0x8
 7144 0f24 C7000000 		.4byte	0xc7
 7145 0f28 FF       		.byte	0xff
 7146 0f29 00       		.byte	0
 7147 0f2a 1A       		.uleb128 0x1a
 7148 0f2b 46536200 		.ascii	"FSb\000"
 7149 0f2f 01       		.byte	0x1
 7150 0f30 72       		.byte	0x72
 7151 0f31 3B0F0000 		.4byte	0xf3b
 7152 0f35 05       		.uleb128 0x5
 7153 0f36 03       		.byte	0x3
 7154 0f37 00000000 		.4byte	FSb
 7155 0f3b 0E       		.uleb128 0xe
 7156 0f3c 1A0F0000 		.4byte	0xf1a
 7157 0f40 19       		.uleb128 0x19
 7158 0f41 A2030000 		.4byte	.LASF39
 7159 0f45 01       		.byte	0x1
 7160 0f46 86       		.byte	0x86
 7161 0f47 510F0000 		.4byte	0xf51
 7162 0f4b 05       		.uleb128 0x5
 7163 0f4c 03       		.byte	0x3
 7164 0f4d 00010000 		.4byte	FSb2
 7165 0f51 0E       		.uleb128 0xe
 7166 0f52 1A0F0000 		.4byte	0xf1a
 7167 0f56 19       		.uleb128 0x19
 7168 0f57 A7030000 		.4byte	.LASF40
 7169 0f5b 01       		.byte	0x1
 7170 0f5c 9A       		.byte	0x9a
 7171 0f5d 670F0000 		.4byte	0xf67
 7172 0f61 05       		.uleb128 0x5
 7173 0f62 03       		.byte	0x3
 7174 0f63 00020000 		.4byte	FSb3
 7175 0f67 0E       		.uleb128 0xe
 7176 0f68 1A0F0000 		.4byte	0xf1a
 7177 0f6c 19       		.uleb128 0x19
 7178 0f6d AC030000 		.4byte	.LASF41
 7179 0f71 01       		.byte	0x1
 7180 0f72 AE       		.byte	0xae
 7181 0f73 7D0F0000 		.4byte	0xf7d
 7182 0f77 05       		.uleb128 0x5
 7183 0f78 03       		.byte	0x3
 7184 0f79 00030000 		.4byte	FSb4
 7185 0f7d 0E       		.uleb128 0xe
 7186 0f7e 1A0F0000 		.4byte	0xf1a
 7187 0f82 07       		.uleb128 0x7
 7188 0f83 C5030000 		.4byte	0x3c5
 7189 0f87 9E0F0000 		.4byte	0xf9e
 7190 0f8b 08       		.uleb128 0x8
 7191 0f8c C7000000 		.4byte	0xc7
 7192 0f90 01       		.byte	0x1
 7193 0f91 08       		.uleb128 0x8
 7194 0f92 C7000000 		.4byte	0xc7
 7195 0f96 03       		.byte	0x3
 7196 0f97 08       		.uleb128 0x8
 7197 0f98 C7000000 		.4byte	0xc7
ARM GAS  C:\Users\Phuong\AppData\Local\Temp\ccZ7UQ35.s 			page 148


 7198 0f9c 03       		.byte	0x3
 7199 0f9d 00       		.byte	0
 7200 0f9e 19       		.uleb128 0x19
 7201 0f9f 8A040000 		.4byte	.LASF42
 7202 0fa3 01       		.byte	0x1
 7203 0fa4 C9       		.byte	0xc9
 7204 0fa5 AF0F0000 		.4byte	0xfaf
 7205 0fa9 05       		.uleb128 0x5
 7206 0faa 03       		.byte	0x3
 7207 0fab 30040000 		.4byte	shifts
 7208 0faf 0E       		.uleb128 0xe
 7209 0fb0 820F0000 		.4byte	0xf82
 7210 0fb4 07       		.uleb128 0x7
 7211 0fb5 D00F0000 		.4byte	0xfd0
 7212 0fb9 D00F0000 		.4byte	0xfd0
 7213 0fbd 08       		.uleb128 0x8
 7214 0fbe C7000000 		.4byte	0xc7
 7215 0fc2 01       		.byte	0x1
 7216 0fc3 08       		.uleb128 0x8
 7217 0fc4 C7000000 		.4byte	0xc7
 7218 0fc8 03       		.byte	0x3
 7219 0fc9 08       		.uleb128 0x8
 7220 0fca C7000000 		.4byte	0xc7
 7221 0fce 13       		.byte	0x13
 7222 0fcf 00       		.byte	0
 7223 0fd0 0E       		.uleb128 0xe
 7224 0fd1 25000000 		.4byte	0x25
 7225 0fd5 19       		.uleb128 0x19
 7226 0fd6 84020000 		.4byte	.LASF43
 7227 0fda 01       		.byte	0x1
 7228 0fdb D9       		.byte	0xd9
 7229 0fdc E60F0000 		.4byte	0xfe6
 7230 0fe0 05       		.uleb128 0x5
 7231 0fe1 03       		.byte	0x3
 7232 0fe2 50040000 		.4byte	indexes
 7233 0fe6 0E       		.uleb128 0xe
 7234 0fe7 B40F0000 		.4byte	0xfb4
 7235 0feb 07       		.uleb128 0x7
 7236 0fec D00F0000 		.4byte	0xfd0
 7237 0ff0 01100000 		.4byte	0x1001
 7238 0ff4 08       		.uleb128 0x8
 7239 0ff5 C7000000 		.4byte	0xc7
 7240 0ff9 01       		.byte	0x1
 7241 0ffa 08       		.uleb128 0x8
 7242 0ffb C7000000 		.4byte	0xc7
 7243 0fff 13       		.byte	0x13
 7244 1000 00       		.byte	0
 7245 1001 19       		.uleb128 0x19
 7246 1002 7F040000 		.4byte	.LASF44
 7247 1006 01       		.byte	0x1
 7248 1007 F1       		.byte	0xf1
 7249 1008 12100000 		.4byte	0x1012
 7250 100c 05       		.uleb128 0x5
 7251 100d 03       		.byte	0x3
 7252 100e F0040000 		.4byte	transposes
 7253 1012 0E       		.uleb128 0xe
 7254 1013 EB0F0000 		.4byte	0xfeb
ARM GAS  C:\Users\Phuong\AppData\Local\Temp\ccZ7UQ35.s 			page 149


 7255 1017 07       		.uleb128 0x7
 7256 1018 C5030000 		.4byte	0x3c5
 7257 101c 33100000 		.4byte	0x1033
 7258 1020 08       		.uleb128 0x8
 7259 1021 C7000000 		.4byte	0xc7
 7260 1025 02       		.byte	0x2
 7261 1026 08       		.uleb128 0x8
 7262 1027 C7000000 		.4byte	0xc7
 7263 102b 01       		.byte	0x1
 7264 102c 08       		.uleb128 0x8
 7265 102d C7000000 		.4byte	0xc7
 7266 1031 1F       		.byte	0x1f
 7267 1032 00       		.byte	0
 7268 1033 15       		.uleb128 0x15
 7269 1034 47020000 		.4byte	.LASF45
 7270 1038 01       		.byte	0x1
 7271 1039 BE02     		.2byte	0x2be
 7272 103b 45100000 		.4byte	0x1045
 7273 103f 05       		.uleb128 0x5
 7274 1040 03       		.byte	0x3
 7275 1041 18050000 		.4byte	camellia_test_ecb_key
 7276 1045 0E       		.uleb128 0xe
 7277 1046 17100000 		.4byte	0x1017
 7278 104a 07       		.uleb128 0x7
 7279 104b C5030000 		.4byte	0x3c5
 7280 104f 60100000 		.4byte	0x1060
 7281 1053 08       		.uleb128 0x8
 7282 1054 C7000000 		.4byte	0xc7
 7283 1058 01       		.byte	0x1
 7284 1059 08       		.uleb128 0x8
 7285 105a C7000000 		.4byte	0xc7
 7286 105e 0F       		.byte	0xf
 7287 105f 00       		.byte	0
 7288 1060 15       		.uleb128 0x15
 7289 1061 2A020000 		.4byte	.LASF46
 7290 1065 01       		.byte	0x1
 7291 1066 DA02     		.2byte	0x2da
 7292 1068 72100000 		.4byte	0x1072
 7293 106c 05       		.uleb128 0x5
 7294 106d 03       		.byte	0x3
 7295 106e 38060000 		.4byte	camellia_test_ecb_plain
 7296 1072 0E       		.uleb128 0xe
 7297 1073 4A100000 		.4byte	0x104a
 7298 1077 07       		.uleb128 0x7
 7299 1078 C5030000 		.4byte	0x3c5
 7300 107c 93100000 		.4byte	0x1093
 7301 1080 08       		.uleb128 0x8
 7302 1081 C7000000 		.4byte	0xc7
 7303 1085 02       		.byte	0x2
 7304 1086 08       		.uleb128 0x8
 7305 1087 C7000000 		.4byte	0xc7
 7306 108b 01       		.byte	0x1
 7307 108c 08       		.uleb128 0x8
 7308 108d C7000000 		.4byte	0xc7
 7309 1091 0F       		.byte	0xf
 7310 1092 00       		.byte	0
 7311 1093 15       		.uleb128 0x15
ARM GAS  C:\Users\Phuong\AppData\Local\Temp\ccZ7UQ35.s 			page 150


 7312 1094 50010000 		.4byte	.LASF47
 7313 1098 01       		.byte	0x1
 7314 1099 E202     		.2byte	0x2e2
 7315 109b A5100000 		.4byte	0x10a5
 7316 109f 05       		.uleb128 0x5
 7317 10a0 03       		.byte	0x3
 7318 10a1 D8050000 		.4byte	camellia_test_ecb_cipher
 7319 10a5 0E       		.uleb128 0xe
 7320 10a6 77100000 		.4byte	0x1077
 7321 10aa 07       		.uleb128 0x7
 7322 10ab C5030000 		.4byte	0x3c5
 7323 10af C0100000 		.4byte	0x10c0
 7324 10b3 08       		.uleb128 0x8
 7325 10b4 C7000000 		.4byte	0xc7
 7326 10b8 02       		.byte	0x2
 7327 10b9 08       		.uleb128 0x8
 7328 10ba C7000000 		.4byte	0xc7
 7329 10be 1F       		.byte	0x1f
 7330 10bf 00       		.byte	0
 7331 10c0 15       		.uleb128 0x15
 7332 10c1 B6030000 		.4byte	.LASF48
 7333 10c5 01       		.byte	0x1
 7334 10c6 FB02     		.2byte	0x2fb
 7335 10c8 D2100000 		.4byte	0x10d2
 7336 10cc 05       		.uleb128 0x5
 7337 10cd 03       		.byte	0x3
 7338 10ce 68060000 		.4byte	camellia_test_cbc_key
 7339 10d2 0E       		.uleb128 0xe
 7340 10d3 AA100000 		.4byte	0x10aa
 7341 10d7 07       		.uleb128 0x7
 7342 10d8 C5030000 		.4byte	0x3c5
 7343 10dc E7100000 		.4byte	0x10e7
 7344 10e0 08       		.uleb128 0x8
 7345 10e1 C7000000 		.4byte	0xc7
 7346 10e5 0F       		.byte	0xf
 7347 10e6 00       		.byte	0
 7348 10e7 15       		.uleb128 0x15
 7349 10e8 BE040000 		.4byte	.LASF49
 7350 10ec 01       		.byte	0x1
 7351 10ed 0A03     		.2byte	0x30a
 7352 10ef F9100000 		.4byte	0x10f9
 7353 10f3 05       		.uleb128 0x5
 7354 10f4 03       		.byte	0x3
 7355 10f5 58060000 		.4byte	camellia_test_cbc_iv
 7356 10f9 0E       		.uleb128 0xe
 7357 10fa D7100000 		.4byte	0x10d7
 7358 10fe 07       		.uleb128 0x7
 7359 10ff C5030000 		.4byte	0x3c5
 7360 1103 14110000 		.4byte	0x1114
 7361 1107 08       		.uleb128 0x8
 7362 1108 C7000000 		.4byte	0xc7
 7363 110c 02       		.byte	0x2
 7364 110d 08       		.uleb128 0x8
 7365 110e C7000000 		.4byte	0xc7
 7366 1112 0F       		.byte	0xf
 7367 1113 00       		.byte	0
 7368 1114 15       		.uleb128 0x15
ARM GAS  C:\Users\Phuong\AppData\Local\Temp\ccZ7UQ35.s 			page 151


 7369 1115 46030000 		.4byte	.LASF50
 7370 1119 01       		.byte	0x1
 7371 111a 1003     		.2byte	0x310
 7372 111c 26110000 		.4byte	0x1126
 7373 1120 05       		.uleb128 0x5
 7374 1121 03       		.byte	0x3
 7375 1122 58070000 		.4byte	camellia_test_cbc_plain
 7376 1126 0E       		.uleb128 0xe
 7377 1127 FE100000 		.4byte	0x10fe
 7378 112b 07       		.uleb128 0x7
 7379 112c C5030000 		.4byte	0x3c5
 7380 1130 47110000 		.4byte	0x1147
 7381 1134 08       		.uleb128 0x8
 7382 1135 C7000000 		.4byte	0xc7
 7383 1139 02       		.byte	0x2
 7384 113a 08       		.uleb128 0x8
 7385 113b C7000000 		.4byte	0xc7
 7386 113f 02       		.byte	0x2
 7387 1140 08       		.uleb128 0x8
 7388 1141 C7000000 		.4byte	0xc7
 7389 1145 0F       		.byte	0xf
 7390 1146 00       		.byte	0
 7391 1147 15       		.uleb128 0x15
 7392 1148 E4030000 		.4byte	.LASF51
 7393 114c 01       		.byte	0x1
 7394 114d 1B03     		.2byte	0x31b
 7395 114f 59110000 		.4byte	0x1159
 7396 1153 05       		.uleb128 0x5
 7397 1154 03       		.byte	0x3
 7398 1155 C8060000 		.4byte	camellia_test_cbc_cipher
 7399 1159 0E       		.uleb128 0xe
 7400 115a 2B110000 		.4byte	0x112b
 7401 115e 15       		.uleb128 0x15
 7402 115f 91040000 		.4byte	.LASF52
 7403 1163 01       		.byte	0x1
 7404 1164 3F03     		.2byte	0x33f
 7405 1166 70110000 		.4byte	0x1170
 7406 116a 05       		.uleb128 0x5
 7407 116b 03       		.byte	0x3
 7408 116c B8070000 		.4byte	camellia_test_ctr_key
 7409 1170 0E       		.uleb128 0xe
 7410 1171 FE100000 		.4byte	0x10fe
 7411 1175 15       		.uleb128 0x15
 7412 1176 5E030000 		.4byte	.LASF53
 7413 117a 01       		.byte	0x1
 7414 117b 4903     		.2byte	0x349
 7415 117d 87110000 		.4byte	0x1187
 7416 1181 05       		.uleb128 0x5
 7417 1182 03       		.byte	0x3
 7418 1183 88070000 		.4byte	camellia_test_ctr_nonce_counter
 7419 1187 0E       		.uleb128 0xe
 7420 1188 FE100000 		.4byte	0x10fe
 7421 118c 07       		.uleb128 0x7
 7422 118d C5030000 		.4byte	0x3c5
 7423 1191 A2110000 		.4byte	0x11a2
 7424 1195 08       		.uleb128 0x8
 7425 1196 C7000000 		.4byte	0xc7
ARM GAS  C:\Users\Phuong\AppData\Local\Temp\ccZ7UQ35.s 			page 152


 7426 119a 02       		.byte	0x2
 7427 119b 08       		.uleb128 0x8
 7428 119c C7000000 		.4byte	0xc7
 7429 11a0 2F       		.byte	0x2f
 7430 11a1 00       		.byte	0
 7431 11a2 15       		.uleb128 0x15
 7432 11a3 18050000 		.4byte	.LASF54
 7433 11a7 01       		.byte	0x1
 7434 11a8 5303     		.2byte	0x353
 7435 11aa B4110000 		.4byte	0x11b4
 7436 11ae 05       		.uleb128 0x5
 7437 11af 03       		.byte	0x3
 7438 11b0 84080000 		.4byte	camellia_test_ctr_pt
 7439 11b4 0E       		.uleb128 0xe
 7440 11b5 8C110000 		.4byte	0x118c
 7441 11b9 15       		.uleb128 0x15
 7442 11ba 8C020000 		.4byte	.LASF55
 7443 11be 01       		.byte	0x1
 7444 11bf 6403     		.2byte	0x364
 7445 11c1 CB110000 		.4byte	0x11cb
 7446 11c5 05       		.uleb128 0x5
 7447 11c6 03       		.byte	0x3
 7448 11c7 F4070000 		.4byte	camellia_test_ctr_ct
 7449 11cb 0E       		.uleb128 0xe
 7450 11cc 8C110000 		.4byte	0x118c
 7451 11d0 07       		.uleb128 0x7
 7452 11d1 E0110000 		.4byte	0x11e0
 7453 11d5 E0110000 		.4byte	0x11e0
 7454 11d9 08       		.uleb128 0x8
 7455 11da C7000000 		.4byte	0xc7
 7456 11de 02       		.byte	0x2
 7457 11df 00       		.byte	0
 7458 11e0 0E       		.uleb128 0xe
 7459 11e1 68000000 		.4byte	0x68
 7460 11e5 15       		.uleb128 0x15
 7461 11e6 25040000 		.4byte	.LASF56
 7462 11ea 01       		.byte	0x1
 7463 11eb 7303     		.2byte	0x373
 7464 11ed F7110000 		.4byte	0x11f7
 7465 11f1 05       		.uleb128 0x5
 7466 11f2 03       		.byte	0x3
 7467 11f3 E8070000 		.4byte	camellia_test_ctr_len
 7468 11f7 0E       		.uleb128 0xe
 7469 11f8 D0110000 		.4byte	0x11d0
 7470 11fc 1B       		.uleb128 0x1b
 7471 11fd 13020000 		.4byte	.LASF57
 7472 1201 13020000 		.4byte	.LASF57
 7473 1205 1C       		.uleb128 0x1c
 7474 1206 5D020000 		.4byte	.LASF59
 7475 120a 5D020000 		.4byte	.LASF59
 7476 120e 06       		.byte	0x6
 7477 120f 42       		.byte	0x42
 7478 1210 1B       		.uleb128 0x1b
 7479 1211 87010000 		.4byte	.LASF58
 7480 1215 87010000 		.4byte	.LASF58
 7481 1219 1C       		.uleb128 0x1c
 7482 121a FD030000 		.4byte	.LASF60
ARM GAS  C:\Users\Phuong\AppData\Local\Temp\ccZ7UQ35.s 			page 153


 7483 121e FD030000 		.4byte	.LASF60
 7484 1222 07       		.byte	0x7
 7485 1223 BB       		.byte	0xbb
 7486 1224 1C       		.uleb128 0x1c
 7487 1225 FE010000 		.4byte	.LASF61
 7488 1229 FE010000 		.4byte	.LASF61
 7489 122d 08       		.byte	0x8
 7490 122e 16       		.byte	0x16
 7491 122f 1D       		.uleb128 0x1d
 7492 1230 B1030000 		.4byte	.LASF62
 7493 1234 00000000 		.4byte	.LASF64
 7494 1238 09       		.byte	0x9
 7495 1239 00       		.byte	0
 7496 123a B1030000 		.4byte	.LASF62
 7497 123e 1D       		.uleb128 0x1d
 7498 123f A5000000 		.4byte	.LASF63
 7499 1243 43000000 		.4byte	.LASF65
 7500 1247 09       		.byte	0x9
 7501 1248 00       		.byte	0
 7502 1249 A5000000 		.4byte	.LASF63
 7503 124d 00       		.byte	0
 7504              		.section	.debug_abbrev,"",%progbits
 7505              	.Ldebug_abbrev0:
 7506 0000 01       		.uleb128 0x1
 7507 0001 11       		.uleb128 0x11
 7508 0002 01       		.byte	0x1
 7509 0003 25       		.uleb128 0x25
 7510 0004 0E       		.uleb128 0xe
 7511 0005 13       		.uleb128 0x13
 7512 0006 0B       		.uleb128 0xb
 7513 0007 03       		.uleb128 0x3
 7514 0008 0E       		.uleb128 0xe
 7515 0009 1B       		.uleb128 0x1b
 7516 000a 0E       		.uleb128 0xe
 7517 000b 55       		.uleb128 0x55
 7518 000c 17       		.uleb128 0x17
 7519 000d 11       		.uleb128 0x11
 7520 000e 01       		.uleb128 0x1
 7521 000f 10       		.uleb128 0x10
 7522 0010 17       		.uleb128 0x17
 7523 0011 00       		.byte	0
 7524 0012 00       		.byte	0
 7525 0013 02       		.uleb128 0x2
 7526 0014 24       		.uleb128 0x24
 7527 0015 00       		.byte	0
 7528 0016 0B       		.uleb128 0xb
 7529 0017 0B       		.uleb128 0xb
 7530 0018 3E       		.uleb128 0x3e
 7531 0019 0B       		.uleb128 0xb
 7532 001a 03       		.uleb128 0x3
 7533 001b 0E       		.uleb128 0xe
 7534 001c 00       		.byte	0
 7535 001d 00       		.byte	0
 7536 001e 03       		.uleb128 0x3
 7537 001f 16       		.uleb128 0x16
 7538 0020 00       		.byte	0
 7539 0021 03       		.uleb128 0x3
ARM GAS  C:\Users\Phuong\AppData\Local\Temp\ccZ7UQ35.s 			page 154


 7540 0022 0E       		.uleb128 0xe
 7541 0023 3A       		.uleb128 0x3a
 7542 0024 0B       		.uleb128 0xb
 7543 0025 3B       		.uleb128 0x3b
 7544 0026 0B       		.uleb128 0xb
 7545 0027 49       		.uleb128 0x49
 7546 0028 13       		.uleb128 0x13
 7547 0029 00       		.byte	0
 7548 002a 00       		.byte	0
 7549 002b 04       		.uleb128 0x4
 7550 002c 24       		.uleb128 0x24
 7551 002d 00       		.byte	0
 7552 002e 0B       		.uleb128 0xb
 7553 002f 0B       		.uleb128 0xb
 7554 0030 3E       		.uleb128 0x3e
 7555 0031 0B       		.uleb128 0xb
 7556 0032 03       		.uleb128 0x3
 7557 0033 08       		.uleb128 0x8
 7558 0034 00       		.byte	0
 7559 0035 00       		.byte	0
 7560 0036 05       		.uleb128 0x5
 7561 0037 13       		.uleb128 0x13
 7562 0038 01       		.byte	0x1
 7563 0039 03       		.uleb128 0x3
 7564 003a 0E       		.uleb128 0xe
 7565 003b 0B       		.uleb128 0xb
 7566 003c 05       		.uleb128 0x5
 7567 003d 3A       		.uleb128 0x3a
 7568 003e 0B       		.uleb128 0xb
 7569 003f 3B       		.uleb128 0x3b
 7570 0040 0B       		.uleb128 0xb
 7571 0041 01       		.uleb128 0x1
 7572 0042 13       		.uleb128 0x13
 7573 0043 00       		.byte	0
 7574 0044 00       		.byte	0
 7575 0045 06       		.uleb128 0x6
 7576 0046 0D       		.uleb128 0xd
 7577 0047 00       		.byte	0
 7578 0048 03       		.uleb128 0x3
 7579 0049 08       		.uleb128 0x8
 7580 004a 3A       		.uleb128 0x3a
 7581 004b 0B       		.uleb128 0xb
 7582 004c 3B       		.uleb128 0x3b
 7583 004d 0B       		.uleb128 0xb
 7584 004e 49       		.uleb128 0x49
 7585 004f 13       		.uleb128 0x13
 7586 0050 38       		.uleb128 0x38
 7587 0051 0B       		.uleb128 0xb
 7588 0052 00       		.byte	0
 7589 0053 00       		.byte	0
 7590 0054 07       		.uleb128 0x7
 7591 0055 01       		.uleb128 0x1
 7592 0056 01       		.byte	0x1
 7593 0057 49       		.uleb128 0x49
 7594 0058 13       		.uleb128 0x13
 7595 0059 01       		.uleb128 0x1
 7596 005a 13       		.uleb128 0x13
ARM GAS  C:\Users\Phuong\AppData\Local\Temp\ccZ7UQ35.s 			page 155


 7597 005b 00       		.byte	0
 7598 005c 00       		.byte	0
 7599 005d 08       		.uleb128 0x8
 7600 005e 21       		.uleb128 0x21
 7601 005f 00       		.byte	0
 7602 0060 49       		.uleb128 0x49
 7603 0061 13       		.uleb128 0x13
 7604 0062 2F       		.uleb128 0x2f
 7605 0063 0B       		.uleb128 0xb
 7606 0064 00       		.byte	0
 7607 0065 00       		.byte	0
 7608 0066 09       		.uleb128 0x9
 7609 0067 0F       		.uleb128 0xf
 7610 0068 00       		.byte	0
 7611 0069 0B       		.uleb128 0xb
 7612 006a 0B       		.uleb128 0xb
 7613 006b 49       		.uleb128 0x49
 7614 006c 13       		.uleb128 0x13
 7615 006d 00       		.byte	0
 7616 006e 00       		.byte	0
 7617 006f 0A       		.uleb128 0xa
 7618 0070 2E       		.uleb128 0x2e
 7619 0071 01       		.byte	0x1
 7620 0072 03       		.uleb128 0x3
 7621 0073 0E       		.uleb128 0xe
 7622 0074 3A       		.uleb128 0x3a
 7623 0075 0B       		.uleb128 0xb
 7624 0076 3B       		.uleb128 0x3b
 7625 0077 05       		.uleb128 0x5
 7626 0078 27       		.uleb128 0x27
 7627 0079 19       		.uleb128 0x19
 7628 007a 11       		.uleb128 0x11
 7629 007b 01       		.uleb128 0x1
 7630 007c 12       		.uleb128 0x12
 7631 007d 06       		.uleb128 0x6
 7632 007e 40       		.uleb128 0x40
 7633 007f 18       		.uleb128 0x18
 7634 0080 9742     		.uleb128 0x2117
 7635 0082 19       		.uleb128 0x19
 7636 0083 01       		.uleb128 0x1
 7637 0084 13       		.uleb128 0x13
 7638 0085 00       		.byte	0
 7639 0086 00       		.byte	0
 7640 0087 0B       		.uleb128 0xb
 7641 0088 05       		.uleb128 0x5
 7642 0089 00       		.byte	0
 7643 008a 03       		.uleb128 0x3
 7644 008b 08       		.uleb128 0x8
 7645 008c 3A       		.uleb128 0x3a
 7646 008d 0B       		.uleb128 0xb
 7647 008e 3B       		.uleb128 0x3b
 7648 008f 05       		.uleb128 0x5
 7649 0090 49       		.uleb128 0x49
 7650 0091 13       		.uleb128 0x13
 7651 0092 02       		.uleb128 0x2
 7652 0093 17       		.uleb128 0x17
 7653 0094 00       		.byte	0
ARM GAS  C:\Users\Phuong\AppData\Local\Temp\ccZ7UQ35.s 			page 156


 7654 0095 00       		.byte	0
 7655 0096 0C       		.uleb128 0xc
 7656 0097 05       		.uleb128 0x5
 7657 0098 00       		.byte	0
 7658 0099 03       		.uleb128 0x3
 7659 009a 08       		.uleb128 0x8
 7660 009b 3A       		.uleb128 0x3a
 7661 009c 0B       		.uleb128 0xb
 7662 009d 3B       		.uleb128 0x3b
 7663 009e 05       		.uleb128 0x5
 7664 009f 49       		.uleb128 0x49
 7665 00a0 13       		.uleb128 0x13
 7666 00a1 02       		.uleb128 0x2
 7667 00a2 18       		.uleb128 0x18
 7668 00a3 00       		.byte	0
 7669 00a4 00       		.byte	0
 7670 00a5 0D       		.uleb128 0xd
 7671 00a6 34       		.uleb128 0x34
 7672 00a7 00       		.byte	0
 7673 00a8 03       		.uleb128 0x3
 7674 00a9 08       		.uleb128 0x8
 7675 00aa 3A       		.uleb128 0x3a
 7676 00ab 0B       		.uleb128 0xb
 7677 00ac 3B       		.uleb128 0x3b
 7678 00ad 05       		.uleb128 0x5
 7679 00ae 49       		.uleb128 0x49
 7680 00af 13       		.uleb128 0x13
 7681 00b0 02       		.uleb128 0x2
 7682 00b1 17       		.uleb128 0x17
 7683 00b2 00       		.byte	0
 7684 00b3 00       		.byte	0
 7685 00b4 0E       		.uleb128 0xe
 7686 00b5 26       		.uleb128 0x26
 7687 00b6 00       		.byte	0
 7688 00b7 49       		.uleb128 0x49
 7689 00b8 13       		.uleb128 0x13
 7690 00b9 00       		.byte	0
 7691 00ba 00       		.byte	0
 7692 00bb 0F       		.uleb128 0xf
 7693 00bc 2E       		.uleb128 0x2e
 7694 00bd 01       		.byte	0x1
 7695 00be 3F       		.uleb128 0x3f
 7696 00bf 19       		.uleb128 0x19
 7697 00c0 03       		.uleb128 0x3
 7698 00c1 0E       		.uleb128 0xe
 7699 00c2 3A       		.uleb128 0x3a
 7700 00c3 0B       		.uleb128 0xb
 7701 00c4 3B       		.uleb128 0x3b
 7702 00c5 05       		.uleb128 0x5
 7703 00c6 27       		.uleb128 0x27
 7704 00c7 19       		.uleb128 0x19
 7705 00c8 11       		.uleb128 0x11
 7706 00c9 01       		.uleb128 0x1
 7707 00ca 12       		.uleb128 0x12
 7708 00cb 06       		.uleb128 0x6
 7709 00cc 40       		.uleb128 0x40
 7710 00cd 18       		.uleb128 0x18
ARM GAS  C:\Users\Phuong\AppData\Local\Temp\ccZ7UQ35.s 			page 157


 7711 00ce 9742     		.uleb128 0x2117
 7712 00d0 19       		.uleb128 0x19
 7713 00d1 01       		.uleb128 0x1
 7714 00d2 13       		.uleb128 0x13
 7715 00d3 00       		.byte	0
 7716 00d4 00       		.byte	0
 7717 00d5 10       		.uleb128 0x10
 7718 00d6 898201   		.uleb128 0x4109
 7719 00d9 01       		.byte	0x1
 7720 00da 11       		.uleb128 0x11
 7721 00db 01       		.uleb128 0x1
 7722 00dc 31       		.uleb128 0x31
 7723 00dd 13       		.uleb128 0x13
 7724 00de 00       		.byte	0
 7725 00df 00       		.byte	0
 7726 00e0 11       		.uleb128 0x11
 7727 00e1 8A8201   		.uleb128 0x410a
 7728 00e4 00       		.byte	0
 7729 00e5 02       		.uleb128 0x2
 7730 00e6 18       		.uleb128 0x18
 7731 00e7 9142     		.uleb128 0x2111
 7732 00e9 18       		.uleb128 0x18
 7733 00ea 00       		.byte	0
 7734 00eb 00       		.byte	0
 7735 00ec 12       		.uleb128 0x12
 7736 00ed 2E       		.uleb128 0x2e
 7737 00ee 01       		.byte	0x1
 7738 00ef 3F       		.uleb128 0x3f
 7739 00f0 19       		.uleb128 0x19
 7740 00f1 03       		.uleb128 0x3
 7741 00f2 0E       		.uleb128 0xe
 7742 00f3 3A       		.uleb128 0x3a
 7743 00f4 0B       		.uleb128 0xb
 7744 00f5 3B       		.uleb128 0x3b
 7745 00f6 05       		.uleb128 0x5
 7746 00f7 27       		.uleb128 0x27
 7747 00f8 19       		.uleb128 0x19
 7748 00f9 49       		.uleb128 0x49
 7749 00fa 13       		.uleb128 0x13
 7750 00fb 11       		.uleb128 0x11
 7751 00fc 01       		.uleb128 0x1
 7752 00fd 12       		.uleb128 0x12
 7753 00fe 06       		.uleb128 0x6
 7754 00ff 40       		.uleb128 0x40
 7755 0100 18       		.uleb128 0x18
 7756 0101 9742     		.uleb128 0x2117
 7757 0103 19       		.uleb128 0x19
 7758 0104 01       		.uleb128 0x1
 7759 0105 13       		.uleb128 0x13
 7760 0106 00       		.byte	0
 7761 0107 00       		.byte	0
 7762 0108 13       		.uleb128 0x13
 7763 0109 05       		.uleb128 0x5
 7764 010a 00       		.byte	0
 7765 010b 03       		.uleb128 0x3
 7766 010c 0E       		.uleb128 0xe
 7767 010d 3A       		.uleb128 0x3a
ARM GAS  C:\Users\Phuong\AppData\Local\Temp\ccZ7UQ35.s 			page 158


 7768 010e 0B       		.uleb128 0xb
 7769 010f 3B       		.uleb128 0x3b
 7770 0110 05       		.uleb128 0x5
 7771 0111 49       		.uleb128 0x49
 7772 0112 13       		.uleb128 0x13
 7773 0113 02       		.uleb128 0x2
 7774 0114 17       		.uleb128 0x17
 7775 0115 00       		.byte	0
 7776 0116 00       		.byte	0
 7777 0117 14       		.uleb128 0x14
 7778 0118 34       		.uleb128 0x34
 7779 0119 00       		.byte	0
 7780 011a 03       		.uleb128 0x3
 7781 011b 08       		.uleb128 0x8
 7782 011c 3A       		.uleb128 0x3a
 7783 011d 0B       		.uleb128 0xb
 7784 011e 3B       		.uleb128 0x3b
 7785 011f 05       		.uleb128 0x5
 7786 0120 49       		.uleb128 0x49
 7787 0121 13       		.uleb128 0x13
 7788 0122 02       		.uleb128 0x2
 7789 0123 18       		.uleb128 0x18
 7790 0124 00       		.byte	0
 7791 0125 00       		.byte	0
 7792 0126 15       		.uleb128 0x15
 7793 0127 34       		.uleb128 0x34
 7794 0128 00       		.byte	0
 7795 0129 03       		.uleb128 0x3
 7796 012a 0E       		.uleb128 0xe
 7797 012b 3A       		.uleb128 0x3a
 7798 012c 0B       		.uleb128 0xb
 7799 012d 3B       		.uleb128 0x3b
 7800 012e 05       		.uleb128 0x5
 7801 012f 49       		.uleb128 0x49
 7802 0130 13       		.uleb128 0x13
 7803 0131 02       		.uleb128 0x2
 7804 0132 18       		.uleb128 0x18
 7805 0133 00       		.byte	0
 7806 0134 00       		.byte	0
 7807 0135 16       		.uleb128 0x16
 7808 0136 898201   		.uleb128 0x4109
 7809 0139 01       		.byte	0x1
 7810 013a 11       		.uleb128 0x11
 7811 013b 01       		.uleb128 0x1
 7812 013c 31       		.uleb128 0x31
 7813 013d 13       		.uleb128 0x13
 7814 013e 01       		.uleb128 0x1
 7815 013f 13       		.uleb128 0x13
 7816 0140 00       		.byte	0
 7817 0141 00       		.byte	0
 7818 0142 17       		.uleb128 0x17
 7819 0143 0A       		.uleb128 0xa
 7820 0144 00       		.byte	0
 7821 0145 03       		.uleb128 0x3
 7822 0146 0E       		.uleb128 0xe
 7823 0147 3A       		.uleb128 0x3a
 7824 0148 0B       		.uleb128 0xb
ARM GAS  C:\Users\Phuong\AppData\Local\Temp\ccZ7UQ35.s 			page 159


 7825 0149 3B       		.uleb128 0x3b
 7826 014a 05       		.uleb128 0x5
 7827 014b 11       		.uleb128 0x11
 7828 014c 01       		.uleb128 0x1
 7829 014d 00       		.byte	0
 7830 014e 00       		.byte	0
 7831 014f 18       		.uleb128 0x18
 7832 0150 05       		.uleb128 0x5
 7833 0151 00       		.byte	0
 7834 0152 03       		.uleb128 0x3
 7835 0153 0E       		.uleb128 0xe
 7836 0154 3A       		.uleb128 0x3a
 7837 0155 0B       		.uleb128 0xb
 7838 0156 3B       		.uleb128 0x3b
 7839 0157 05       		.uleb128 0x5
 7840 0158 49       		.uleb128 0x49
 7841 0159 13       		.uleb128 0x13
 7842 015a 02       		.uleb128 0x2
 7843 015b 18       		.uleb128 0x18
 7844 015c 00       		.byte	0
 7845 015d 00       		.byte	0
 7846 015e 19       		.uleb128 0x19
 7847 015f 34       		.uleb128 0x34
 7848 0160 00       		.byte	0
 7849 0161 03       		.uleb128 0x3
 7850 0162 0E       		.uleb128 0xe
 7851 0163 3A       		.uleb128 0x3a
 7852 0164 0B       		.uleb128 0xb
 7853 0165 3B       		.uleb128 0x3b
 7854 0166 0B       		.uleb128 0xb
 7855 0167 49       		.uleb128 0x49
 7856 0168 13       		.uleb128 0x13
 7857 0169 02       		.uleb128 0x2
 7858 016a 18       		.uleb128 0x18
 7859 016b 00       		.byte	0
 7860 016c 00       		.byte	0
 7861 016d 1A       		.uleb128 0x1a
 7862 016e 34       		.uleb128 0x34
 7863 016f 00       		.byte	0
 7864 0170 03       		.uleb128 0x3
 7865 0171 08       		.uleb128 0x8
 7866 0172 3A       		.uleb128 0x3a
 7867 0173 0B       		.uleb128 0xb
 7868 0174 3B       		.uleb128 0x3b
 7869 0175 0B       		.uleb128 0xb
 7870 0176 49       		.uleb128 0x49
 7871 0177 13       		.uleb128 0x13
 7872 0178 02       		.uleb128 0x2
 7873 0179 18       		.uleb128 0x18
 7874 017a 00       		.byte	0
 7875 017b 00       		.byte	0
 7876 017c 1B       		.uleb128 0x1b
 7877 017d 2E       		.uleb128 0x2e
 7878 017e 00       		.byte	0
 7879 017f 3F       		.uleb128 0x3f
 7880 0180 19       		.uleb128 0x19
 7881 0181 3C       		.uleb128 0x3c
ARM GAS  C:\Users\Phuong\AppData\Local\Temp\ccZ7UQ35.s 			page 160


 7882 0182 19       		.uleb128 0x19
 7883 0183 6E       		.uleb128 0x6e
 7884 0184 0E       		.uleb128 0xe
 7885 0185 03       		.uleb128 0x3
 7886 0186 0E       		.uleb128 0xe
 7887 0187 00       		.byte	0
 7888 0188 00       		.byte	0
 7889 0189 1C       		.uleb128 0x1c
 7890 018a 2E       		.uleb128 0x2e
 7891 018b 00       		.byte	0
 7892 018c 3F       		.uleb128 0x3f
 7893 018d 19       		.uleb128 0x19
 7894 018e 3C       		.uleb128 0x3c
 7895 018f 19       		.uleb128 0x19
 7896 0190 6E       		.uleb128 0x6e
 7897 0191 0E       		.uleb128 0xe
 7898 0192 03       		.uleb128 0x3
 7899 0193 0E       		.uleb128 0xe
 7900 0194 3A       		.uleb128 0x3a
 7901 0195 0B       		.uleb128 0xb
 7902 0196 3B       		.uleb128 0x3b
 7903 0197 0B       		.uleb128 0xb
 7904 0198 00       		.byte	0
 7905 0199 00       		.byte	0
 7906 019a 1D       		.uleb128 0x1d
 7907 019b 2E       		.uleb128 0x2e
 7908 019c 00       		.byte	0
 7909 019d 3F       		.uleb128 0x3f
 7910 019e 19       		.uleb128 0x19
 7911 019f 3C       		.uleb128 0x3c
 7912 01a0 19       		.uleb128 0x19
 7913 01a1 6E       		.uleb128 0x6e
 7914 01a2 0E       		.uleb128 0xe
 7915 01a3 03       		.uleb128 0x3
 7916 01a4 0E       		.uleb128 0xe
 7917 01a5 3A       		.uleb128 0x3a
 7918 01a6 0B       		.uleb128 0xb
 7919 01a7 3B       		.uleb128 0x3b
 7920 01a8 0B       		.uleb128 0xb
 7921 01a9 6E       		.uleb128 0x6e
 7922 01aa 0E       		.uleb128 0xe
 7923 01ab 00       		.byte	0
 7924 01ac 00       		.byte	0
 7925 01ad 00       		.byte	0
 7926              		.section	.debug_loc,"",%progbits
 7927              	.Ldebug_loc0:
 7928              	.LLST0:
 7929 0000 00000000 		.4byte	.LVL0
 7930 0004 0E000000 		.4byte	.LVL2
 7931 0008 0100     		.2byte	0x1
 7932 000a 50       		.byte	0x50
 7933 000b 0E000000 		.4byte	.LVL2
 7934 000f B0000000 		.4byte	.LFE1
 7935 0013 0400     		.2byte	0x4
 7936 0015 F3       		.byte	0xf3
 7937 0016 01       		.uleb128 0x1
 7938 0017 50       		.byte	0x50
ARM GAS  C:\Users\Phuong\AppData\Local\Temp\ccZ7UQ35.s 			page 161


 7939 0018 9F       		.byte	0x9f
 7940 0019 00000000 		.4byte	0
 7941 001d 00000000 		.4byte	0
 7942              	.LLST1:
 7943 0021 00000000 		.4byte	.LVL0
 7944 0025 14000000 		.4byte	.LVL4
 7945 0029 0100     		.2byte	0x1
 7946 002b 51       		.byte	0x51
 7947 002c 14000000 		.4byte	.LVL4
 7948 0030 B0000000 		.4byte	.LFE1
 7949 0034 0400     		.2byte	0x4
 7950 0036 F3       		.byte	0xf3
 7951 0037 01       		.uleb128 0x1
 7952 0038 51       		.byte	0x51
 7953 0039 9F       		.byte	0x9f
 7954 003a 00000000 		.4byte	0
 7955 003e 00000000 		.4byte	0
 7956              	.LLST2:
 7957 0042 0C000000 		.4byte	.LVL1
 7958 0046 3C000000 		.4byte	.LVL5
 7959 004a 0100     		.2byte	0x1
 7960 004c 54       		.byte	0x54
 7961 004d 3C000000 		.4byte	.LVL5
 7962 0051 44000000 		.4byte	.LVL6
 7963 0055 0A00     		.2byte	0xa
 7964 0057 F3       		.byte	0xf3
 7965 0058 01       		.uleb128 0x1
 7966 0059 50       		.byte	0x50
 7967 005a 06       		.byte	0x6
 7968 005b F3       		.byte	0xf3
 7969 005c 01       		.uleb128 0x1
 7970 005d 51       		.byte	0x51
 7971 005e 06       		.byte	0x6
 7972 005f 27       		.byte	0x27
 7973 0060 9F       		.byte	0x9f
 7974 0061 44000000 		.4byte	.LVL6
 7975 0065 72000000 		.4byte	.LVL9
 7976 0069 0100     		.2byte	0x1
 7977 006b 56       		.byte	0x56
 7978 006c 72000000 		.4byte	.LVL9
 7979 0070 96000000 		.4byte	.LVL16
 7980 0074 0100     		.2byte	0x1
 7981 0076 53       		.byte	0x53
 7982 0077 00000000 		.4byte	0
 7983 007b 00000000 		.4byte	0
 7984              	.LLST3:
 7985 007f 12000000 		.4byte	.LVL3
 7986 0083 64000000 		.4byte	.LVL7
 7987 0087 0100     		.2byte	0x1
 7988 0089 53       		.byte	0x53
 7989 008a 64000000 		.4byte	.LVL7
 7990 008e 68000000 		.4byte	.LVL8
 7991 0092 0E00     		.2byte	0xe
 7992 0094 F3       		.byte	0xf3
 7993 0095 01       		.uleb128 0x1
 7994 0096 51       		.byte	0x51
 7995 0097 23       		.byte	0x23
ARM GAS  C:\Users\Phuong\AppData\Local\Temp\ccZ7UQ35.s 			page 162


 7996 0098 04       		.uleb128 0x4
 7997 0099 06       		.byte	0x6
 7998 009a F3       		.byte	0xf3
 7999 009b 01       		.uleb128 0x1
 8000 009c 50       		.byte	0x50
 8001 009d 23       		.byte	0x23
 8002 009e 04       		.uleb128 0x4
 8003 009f 06       		.byte	0x6
 8004 00a0 27       		.byte	0x27
 8005 00a1 9F       		.byte	0x9f
 8006 00a2 68000000 		.4byte	.LVL8
 8007 00a6 7A000000 		.4byte	.LVL10
 8008 00aa 0100     		.2byte	0x1
 8009 00ac 51       		.byte	0x51
 8010 00ad 7A000000 		.4byte	.LVL10
 8011 00b1 7C000000 		.4byte	.LVL11
 8012 00b5 5900     		.2byte	0x59
 8013 00b7 F3       		.byte	0xf3
 8014 00b8 01       		.uleb128 0x1
 8015 00b9 51       		.byte	0x51
 8016 00ba 23       		.byte	0x23
 8017 00bb 04       		.uleb128 0x4
 8018 00bc 06       		.byte	0x6
 8019 00bd F3       		.byte	0xf3
 8020 00be 01       		.uleb128 0x1
 8021 00bf 50       		.byte	0x50
 8022 00c0 23       		.byte	0x23
 8023 00c1 04       		.uleb128 0x4
 8024 00c2 06       		.byte	0x6
 8025 00c3 27       		.byte	0x27
 8026 00c4 40       		.byte	0x40
 8027 00c5 25       		.byte	0x25
 8028 00c6 08       		.byte	0x8
 8029 00c7 FF       		.byte	0xff
 8030 00c8 1A       		.byte	0x1a
 8031 00c9 7C       		.byte	0x7c
 8032 00ca 00       		.sleb128 0
 8033 00cb 22       		.byte	0x22
 8034 00cc 94       		.byte	0x94
 8035 00cd 01       		.byte	0x1
 8036 00ce 08       		.byte	0x8
 8037 00cf FF       		.byte	0xff
 8038 00d0 1A       		.byte	0x1a
 8039 00d1 40       		.byte	0x40
 8040 00d2 24       		.byte	0x24
 8041 00d3 F3       		.byte	0xf3
 8042 00d4 01       		.uleb128 0x1
 8043 00d5 51       		.byte	0x51
 8044 00d6 23       		.byte	0x23
 8045 00d7 04       		.uleb128 0x4
 8046 00d8 06       		.byte	0x6
 8047 00d9 F3       		.byte	0xf3
 8048 00da 01       		.uleb128 0x1
 8049 00db 50       		.byte	0x50
 8050 00dc 23       		.byte	0x23
 8051 00dd 04       		.uleb128 0x4
 8052 00de 06       		.byte	0x6
ARM GAS  C:\Users\Phuong\AppData\Local\Temp\ccZ7UQ35.s 			page 163


 8053 00df 27       		.byte	0x27
 8054 00e0 48       		.byte	0x48
 8055 00e1 25       		.byte	0x25
 8056 00e2 03       		.byte	0x3
 8057 00e3 00010000 		.4byte	.LANCHOR1
 8058 00e7 22       		.byte	0x22
 8059 00e8 94       		.byte	0x94
 8060 00e9 01       		.byte	0x1
 8061 00ea 08       		.byte	0x8
 8062 00eb FF       		.byte	0xff
 8063 00ec 1A       		.byte	0x1a
 8064 00ed 48       		.byte	0x48
 8065 00ee 24       		.byte	0x24
 8066 00ef 21       		.byte	0x21
 8067 00f0 F3       		.byte	0xf3
 8068 00f1 01       		.uleb128 0x1
 8069 00f2 51       		.byte	0x51
 8070 00f3 23       		.byte	0x23
 8071 00f4 04       		.uleb128 0x4
 8072 00f5 06       		.byte	0x6
 8073 00f6 F3       		.byte	0xf3
 8074 00f7 01       		.uleb128 0x1
 8075 00f8 50       		.byte	0x50
 8076 00f9 23       		.byte	0x23
 8077 00fa 04       		.uleb128 0x4
 8078 00fb 06       		.byte	0x6
 8079 00fc 27       		.byte	0x27
 8080 00fd 08       		.byte	0x8
 8081 00fe FF       		.byte	0xff
 8082 00ff 1A       		.byte	0x1a
 8083 0100 03       		.byte	0x3
 8084 0101 00000000 		.4byte	.LANCHOR0
 8085 0105 22       		.byte	0x22
 8086 0106 94       		.byte	0x94
 8087 0107 01       		.byte	0x1
 8088 0108 08       		.byte	0x8
 8089 0109 FF       		.byte	0xff
 8090 010a 1A       		.byte	0x1a
 8091 010b 21       		.byte	0x21
 8092 010c 74       		.byte	0x74
 8093 010d 00       		.sleb128 0
 8094 010e 21       		.byte	0x21
 8095 010f 9F       		.byte	0x9f
 8096 0110 7C000000 		.4byte	.LVL11
 8097 0114 80000000 		.4byte	.LVL12
 8098 0118 0100     		.2byte	0x1
 8099 011a 51       		.byte	0x51
 8100 011b 80000000 		.4byte	.LVL12
 8101 011f 8C000000 		.4byte	.LVL14
 8102 0123 0100     		.2byte	0x1
 8103 0125 54       		.byte	0x54
 8104 0126 8C000000 		.4byte	.LVL14
 8105 012a 90000000 		.4byte	.LVL15
 8106 012e 0100     		.2byte	0x1
 8107 0130 51       		.byte	0x51
 8108 0131 90000000 		.4byte	.LVL15
 8109 0135 96000000 		.4byte	.LVL16
ARM GAS  C:\Users\Phuong\AppData\Local\Temp\ccZ7UQ35.s 			page 164


 8110 0139 1000     		.2byte	0x10
 8111 013b 73       		.byte	0x73
 8112 013c 00       		.sleb128 0
 8113 013d 38       		.byte	0x38
 8114 013e 14       		.byte	0x14
 8115 013f 14       		.byte	0x14
 8116 0140 1F       		.byte	0x1f
 8117 0141 23       		.byte	0x23
 8118 0142 20       		.uleb128 0x20
 8119 0143 24       		.byte	0x24
 8120 0144 17       		.byte	0x17
 8121 0145 25       		.byte	0x25
 8122 0146 21       		.byte	0x21
 8123 0147 74       		.byte	0x74
 8124 0148 00       		.sleb128 0
 8125 0149 27       		.byte	0x27
 8126 014a 9F       		.byte	0x9f
 8127 014b 00000000 		.4byte	0
 8128 014f 00000000 		.4byte	0
 8129              	.LLST4:
 8130 0153 00000000 		.4byte	.LVL17
 8131 0157 0B000000 		.4byte	.LVL18-1
 8132 015b 0100     		.2byte	0x1
 8133 015d 50       		.byte	0x50
 8134 015e 0B000000 		.4byte	.LVL18-1
 8135 0162 0E000000 		.4byte	.LFE2
 8136 0166 0400     		.2byte	0x4
 8137 0168 F3       		.byte	0xf3
 8138 0169 01       		.uleb128 0x1
 8139 016a 50       		.byte	0x50
 8140 016b 9F       		.byte	0x9f
 8141 016c 00000000 		.4byte	0
 8142 0170 00000000 		.4byte	0
 8143              	.LLST5:
 8144 0174 00000000 		.4byte	.LVL19
 8145 0178 0D000000 		.4byte	.LVL20-1
 8146 017c 0100     		.2byte	0x1
 8147 017e 50       		.byte	0x50
 8148 017f 0D000000 		.4byte	.LVL20-1
 8149 0183 10000000 		.4byte	.LFE3
 8150 0187 0400     		.2byte	0x4
 8151 0189 F3       		.byte	0xf3
 8152 018a 01       		.uleb128 0x1
 8153 018b 50       		.byte	0x50
 8154 018c 9F       		.byte	0x9f
 8155 018d 00000000 		.4byte	0
 8156 0191 00000000 		.4byte	0
 8157              	.LLST6:
 8158 0195 00000000 		.4byte	.LVL21
 8159 0199 1A000000 		.4byte	.LVL25
 8160 019d 0100     		.2byte	0x1
 8161 019f 50       		.byte	0x50
 8162 01a0 1A000000 		.4byte	.LVL25
 8163 01a4 42000000 		.4byte	.LVL29
 8164 01a8 0100     		.2byte	0x1
 8165 01aa 54       		.byte	0x54
 8166 01ab 42000000 		.4byte	.LVL29
ARM GAS  C:\Users\Phuong\AppData\Local\Temp\ccZ7UQ35.s 			page 165


 8167 01af 44000000 		.4byte	.LVL30
 8168 01b3 0300     		.2byte	0x3
 8169 01b5 75       		.byte	0x75
 8170 01b6 7C       		.sleb128 -4
 8171 01b7 9F       		.byte	0x9f
 8172 01b8 44000000 		.4byte	.LVL30
 8173 01bc 4A000000 		.4byte	.LVL32
 8174 01c0 0100     		.2byte	0x1
 8175 01c2 54       		.byte	0x54
 8176 01c3 4A000000 		.4byte	.LVL32
 8177 01c7 1E050000 		.4byte	.LVL84
 8178 01cb 0300     		.2byte	0x3
 8179 01cd 75       		.byte	0x75
 8180 01ce 7C       		.sleb128 -4
 8181 01cf 9F       		.byte	0x9f
 8182 01d0 1E050000 		.4byte	.LVL84
 8183 01d4 22050000 		.4byte	.LVL85
 8184 01d8 0100     		.2byte	0x1
 8185 01da 54       		.byte	0x54
 8186 01db 22050000 		.4byte	.LVL85
 8187 01df 24050000 		.4byte	.LVL86
 8188 01e3 0300     		.2byte	0x3
 8189 01e5 75       		.byte	0x75
 8190 01e6 7C       		.sleb128 -4
 8191 01e7 9F       		.byte	0x9f
 8192 01e8 24050000 		.4byte	.LVL86
 8193 01ec 38050000 		.4byte	.LFE4
 8194 01f0 0400     		.2byte	0x4
 8195 01f2 F3       		.byte	0xf3
 8196 01f3 01       		.uleb128 0x1
 8197 01f4 50       		.byte	0x50
 8198 01f5 9F       		.byte	0x9f
 8199 01f6 00000000 		.4byte	0
 8200 01fa 00000000 		.4byte	0
 8201              	.LLST7:
 8202 01fe 00000000 		.4byte	.LVL21
 8203 0202 18000000 		.4byte	.LVL24
 8204 0206 0100     		.2byte	0x1
 8205 0208 51       		.byte	0x51
 8206 0209 18000000 		.4byte	.LVL24
 8207 020d 7E000000 		.4byte	.LVL37
 8208 0211 0100     		.2byte	0x1
 8209 0213 57       		.byte	0x57
 8210 0214 7E000000 		.4byte	.LVL37
 8211 0218 1E050000 		.4byte	.LVL84
 8212 021c 0400     		.2byte	0x4
 8213 021e F3       		.byte	0xf3
 8214 021f 01       		.uleb128 0x1
 8215 0220 51       		.byte	0x51
 8216 0221 9F       		.byte	0x9f
 8217 0222 1E050000 		.4byte	.LVL84
 8218 0226 22050000 		.4byte	.LVL85
 8219 022a 0100     		.2byte	0x1
 8220 022c 57       		.byte	0x57
 8221 022d 22050000 		.4byte	.LVL85
 8222 0231 38050000 		.4byte	.LFE4
 8223 0235 0400     		.2byte	0x4
ARM GAS  C:\Users\Phuong\AppData\Local\Temp\ccZ7UQ35.s 			page 166


 8224 0237 F3       		.byte	0xf3
 8225 0238 01       		.uleb128 0x1
 8226 0239 51       		.byte	0x51
 8227 023a 9F       		.byte	0x9f
 8228 023b 00000000 		.4byte	0
 8229 023f 00000000 		.4byte	0
 8230              	.LLST8:
 8231 0243 00000000 		.4byte	.LVL21
 8232 0247 16000000 		.4byte	.LVL23
 8233 024b 0100     		.2byte	0x1
 8234 024d 52       		.byte	0x52
 8235 024e 16000000 		.4byte	.LVL23
 8236 0252 40040000 		.4byte	.LVL76
 8237 0256 0100     		.2byte	0x1
 8238 0258 56       		.byte	0x56
 8239 0259 40040000 		.4byte	.LVL76
 8240 025d 1E050000 		.4byte	.LVL84
 8241 0261 0400     		.2byte	0x4
 8242 0263 F3       		.byte	0xf3
 8243 0264 01       		.uleb128 0x1
 8244 0265 52       		.byte	0x52
 8245 0266 9F       		.byte	0x9f
 8246 0267 1E050000 		.4byte	.LVL84
 8247 026b 22050000 		.4byte	.LVL85
 8248 026f 0100     		.2byte	0x1
 8249 0271 56       		.byte	0x56
 8250 0272 22050000 		.4byte	.LVL85
 8251 0276 38050000 		.4byte	.LFE4
 8252 027a 0400     		.2byte	0x4
 8253 027c F3       		.byte	0xf3
 8254 027d 01       		.uleb128 0x1
 8255 027e 52       		.byte	0x52
 8256 027f 9F       		.byte	0x9f
 8257 0280 00000000 		.4byte	0
 8258 0284 00000000 		.4byte	0
 8259              	.LLST9:
 8260 0288 40000000 		.4byte	.LVL28
 8261 028c 44000000 		.4byte	.LVL30
 8262 0290 0200     		.2byte	0x2
 8263 0292 30       		.byte	0x30
 8264 0293 9F       		.byte	0x9f
 8265 0294 48000000 		.4byte	.LVL31
 8266 0298 4A000000 		.4byte	.LVL32
 8267 029c 0200     		.2byte	0x2
 8268 029e 31       		.byte	0x31
 8269 029f 9F       		.byte	0x9f
 8270 02a0 4A000000 		.4byte	.LVL32
 8271 02a4 1E050000 		.4byte	.LVL84
 8272 02a8 0100     		.2byte	0x1
 8273 02aa 54       		.byte	0x54
 8274 02ab 00000000 		.4byte	0
 8275 02af 00000000 		.4byte	0
 8276              	.LLST10:
 8277 02b3 4A000000 		.4byte	.LVL32
 8278 02b7 4E000000 		.4byte	.LVL33
 8279 02bb 0200     		.2byte	0x2
 8280 02bd 30       		.byte	0x30
ARM GAS  C:\Users\Phuong\AppData\Local\Temp\ccZ7UQ35.s 			page 167


 8281 02be 9F       		.byte	0x9f
 8282 02bf 4E000000 		.4byte	.LVL33
 8283 02c3 80000000 		.4byte	.LVL38
 8284 02c7 0100     		.2byte	0x1
 8285 02c9 53       		.byte	0x53
 8286 02ca 80000000 		.4byte	.LVL38
 8287 02ce C8000000 		.4byte	.LVL40
 8288 02d2 0100     		.2byte	0x1
 8289 02d4 57       		.byte	0x57
 8290 02d5 C8000000 		.4byte	.LVL40
 8291 02d9 CC000000 		.4byte	.LVL41
 8292 02dd 0200     		.2byte	0x2
 8293 02df 30       		.byte	0x30
 8294 02e0 9F       		.byte	0x9f
 8295 02e1 CC000000 		.4byte	.LVL41
 8296 02e5 F8000000 		.4byte	.LVL43
 8297 02e9 0100     		.2byte	0x1
 8298 02eb 57       		.byte	0x57
 8299 02ec F8000000 		.4byte	.LVL43
 8300 02f0 21010000 		.4byte	.LVL45-1
 8301 02f4 0100     		.2byte	0x1
 8302 02f6 53       		.byte	0x53
 8303 02f7 2C010000 		.4byte	.LVL46
 8304 02fb 30010000 		.4byte	.LVL47
 8305 02ff 0200     		.2byte	0x2
 8306 0301 30       		.byte	0x30
 8307 0302 9F       		.byte	0x9f
 8308 0303 30010000 		.4byte	.LVL47
 8309 0307 51010000 		.4byte	.LVL49-1
 8310 030b 0100     		.2byte	0x1
 8311 030d 53       		.byte	0x53
 8312 030e 62010000 		.4byte	.LVL51
 8313 0312 84010000 		.4byte	.LVL53
 8314 0316 0100     		.2byte	0x1
 8315 0318 53       		.byte	0x53
 8316 0319 86010000 		.4byte	.LVL54
 8317 031d 93010000 		.4byte	.LVL55-1
 8318 0321 0100     		.2byte	0x1
 8319 0323 53       		.byte	0x53
 8320 0324 B0010000 		.4byte	.LVL57
 8321 0328 B4010000 		.4byte	.LVL58
 8322 032c 0200     		.2byte	0x2
 8323 032e 31       		.byte	0x31
 8324 032f 9F       		.byte	0x9f
 8325 0330 B4010000 		.4byte	.LVL58
 8326 0334 4C020000 		.4byte	.LVL60
 8327 0338 0100     		.2byte	0x1
 8328 033a 51       		.byte	0x51
 8329 033b 4E020000 		.4byte	.LVL61
 8330 033f 88020000 		.4byte	.LVL63
 8331 0343 0100     		.2byte	0x1
 8332 0345 51       		.byte	0x51
 8333 0346 88020000 		.4byte	.LVL63
 8334 034a 8C020000 		.4byte	.LVL64
 8335 034e 0200     		.2byte	0x2
 8336 0350 31       		.byte	0x31
 8337 0351 9F       		.byte	0x9f
ARM GAS  C:\Users\Phuong\AppData\Local\Temp\ccZ7UQ35.s 			page 168


 8338 0352 8C020000 		.4byte	.LVL64
 8339 0356 24030000 		.4byte	.LVL66
 8340 035a 0100     		.2byte	0x1
 8341 035c 51       		.byte	0x51
 8342 035d 26030000 		.4byte	.LVL67
 8343 0361 5E030000 		.4byte	.LVL69
 8344 0365 0100     		.2byte	0x1
 8345 0367 51       		.byte	0x51
 8346 0368 5E030000 		.4byte	.LVL69
 8347 036c 62030000 		.4byte	.LVL70
 8348 0370 0200     		.2byte	0x2
 8349 0372 31       		.byte	0x31
 8350 0373 9F       		.byte	0x9f
 8351 0374 62030000 		.4byte	.LVL70
 8352 0378 FA030000 		.4byte	.LVL72
 8353 037c 0100     		.2byte	0x1
 8354 037e 51       		.byte	0x51
 8355 037f 00040000 		.4byte	.LVL73
 8356 0383 3C040000 		.4byte	.LVL75
 8357 0387 0100     		.2byte	0x1
 8358 0389 51       		.byte	0x51
 8359 038a 3C040000 		.4byte	.LVL75
 8360 038e 40040000 		.4byte	.LVL76
 8361 0392 0200     		.2byte	0x2
 8362 0394 31       		.byte	0x31
 8363 0395 9F       		.byte	0x9f
 8364 0396 40040000 		.4byte	.LVL76
 8365 039a C2040000 		.4byte	.LVL78
 8366 039e 0100     		.2byte	0x1
 8367 03a0 51       		.byte	0x51
 8368 03a1 C4040000 		.4byte	.LVL79
 8369 03a5 EC040000 		.4byte	.LVL81
 8370 03a9 0100     		.2byte	0x1
 8371 03ab 51       		.byte	0x51
 8372 03ac EE040000 		.4byte	.LVL82
 8373 03b0 1E050000 		.4byte	.LVL84
 8374 03b4 0100     		.2byte	0x1
 8375 03b6 51       		.byte	0x51
 8376 03b7 00000000 		.4byte	0
 8377 03bb 00000000 		.4byte	0
 8378              	.LLST11:
 8379 03bf 14000000 		.4byte	.LVL22
 8380 03c3 24050000 		.4byte	.LVL86
 8381 03c7 0100     		.2byte	0x1
 8382 03c9 55       		.byte	0x55
 8383 03ca 24050000 		.4byte	.LVL86
 8384 03ce 38050000 		.4byte	.LFE4
 8385 03d2 0600     		.2byte	0x6
 8386 03d4 F3       		.byte	0xf3
 8387 03d5 01       		.uleb128 0x1
 8388 03d6 50       		.byte	0x50
 8389 03d7 23       		.byte	0x23
 8390 03d8 04       		.uleb128 0x4
 8391 03d9 9F       		.byte	0x9f
 8392 03da 00000000 		.4byte	0
 8393 03de 00000000 		.4byte	0
 8394              	.LLST12:
ARM GAS  C:\Users\Phuong\AppData\Local\Temp\ccZ7UQ35.s 			page 169


 8395 03e2 00000000 		.4byte	.LVL87
 8396 03e6 0C000000 		.4byte	.LVL88
 8397 03ea 0100     		.2byte	0x1
 8398 03ec 50       		.byte	0x50
 8399 03ed 0C000000 		.4byte	.LVL88
 8400 03f1 82000000 		.4byte	.LVL117
 8401 03f5 0100     		.2byte	0x1
 8402 03f7 55       		.byte	0x55
 8403 03f8 82000000 		.4byte	.LVL117
 8404 03fc 84000000 		.4byte	.LFE5
 8405 0400 0400     		.2byte	0x4
 8406 0402 F3       		.byte	0xf3
 8407 0403 01       		.uleb128 0x1
 8408 0404 50       		.byte	0x50
 8409 0405 9F       		.byte	0x9f
 8410 0406 00000000 		.4byte	0
 8411 040a 00000000 		.4byte	0
 8412              	.LLST13:
 8413 040e 00000000 		.4byte	.LVL87
 8414 0412 0F000000 		.4byte	.LVL89-1
 8415 0416 0100     		.2byte	0x1
 8416 0418 51       		.byte	0x51
 8417 0419 0F000000 		.4byte	.LVL89-1
 8418 041d 1C000000 		.4byte	.LVL91
 8419 0421 0100     		.2byte	0x1
 8420 0423 54       		.byte	0x54
 8421 0424 1C000000 		.4byte	.LVL91
 8422 0428 84000000 		.4byte	.LFE5
 8423 042c 0400     		.2byte	0x4
 8424 042e F3       		.byte	0xf3
 8425 042f 01       		.uleb128 0x1
 8426 0430 51       		.byte	0x51
 8427 0431 9F       		.byte	0x9f
 8428 0432 00000000 		.4byte	0
 8429 0436 00000000 		.4byte	0
 8430              	.LLST14:
 8431 043a 00000000 		.4byte	.LVL87
 8432 043e 0F000000 		.4byte	.LVL89-1
 8433 0442 0100     		.2byte	0x1
 8434 0444 52       		.byte	0x52
 8435 0445 0F000000 		.4byte	.LVL89-1
 8436 0449 82000000 		.4byte	.LVL118
 8437 044d 0100     		.2byte	0x1
 8438 044f 56       		.byte	0x56
 8439 0450 82000000 		.4byte	.LVL118
 8440 0454 84000000 		.4byte	.LFE5
 8441 0458 0400     		.2byte	0x4
 8442 045a F3       		.byte	0xf3
 8443 045b 01       		.uleb128 0x1
 8444 045c 52       		.byte	0x52
 8445 045d 9F       		.byte	0x9f
 8446 045e 00000000 		.4byte	0
 8447 0462 00000000 		.4byte	0
 8448              	.LLST15:
 8449 0466 2A000000 		.4byte	.LVL92
 8450 046a 4A000000 		.4byte	.LVL98
 8451 046e 0100     		.2byte	0x1
ARM GAS  C:\Users\Phuong\AppData\Local\Temp\ccZ7UQ35.s 			page 170


 8452 0470 51       		.byte	0x51
 8453 0471 4A000000 		.4byte	.LVL98
 8454 0475 50000000 		.4byte	.LVL101
 8455 0479 0600     		.2byte	0x6
 8456 047b 75       		.byte	0x75
 8457 047c 00       		.sleb128 0
 8458 047d 06       		.byte	0x6
 8459 047e 34       		.byte	0x34
 8460 047f 29       		.byte	0x29
 8461 0480 9F       		.byte	0x9f
 8462 0481 00000000 		.4byte	0
 8463 0485 00000000 		.4byte	0
 8464              	.LLST16:
 8465 0489 1C000000 		.4byte	.LVL91
 8466 048d 46000000 		.4byte	.LVL97
 8467 0491 0100     		.2byte	0x1
 8468 0493 50       		.byte	0x50
 8469 0494 46000000 		.4byte	.LVL97
 8470 0498 82000000 		.4byte	.LVL116
 8471 049c 0100     		.2byte	0x1
 8472 049e 54       		.byte	0x54
 8473 049f 82000000 		.4byte	.LVL116
 8474 04a3 84000000 		.4byte	.LFE5
 8475 04a7 0100     		.2byte	0x1
 8476 04a9 50       		.byte	0x50
 8477 04aa 00000000 		.4byte	0
 8478 04ae 00000000 		.4byte	0
 8479              	.LLST17:
 8480 04b2 4C000000 		.4byte	.LVL99
 8481 04b6 64000000 		.4byte	.LVL107
 8482 04ba 0100     		.2byte	0x1
 8483 04bc 51       		.byte	0x51
 8484 04bd 00000000 		.4byte	0
 8485 04c1 00000000 		.4byte	0
 8486              	.LLST18:
 8487 04c5 2A000000 		.4byte	.LVL92
 8488 04c9 34000000 		.4byte	.LVL93
 8489 04cd 0300     		.2byte	0x3
 8490 04cf 75       		.byte	0x75
 8491 04d0 04       		.sleb128 4
 8492 04d1 9F       		.byte	0x9f
 8493 04d2 34000000 		.4byte	.LVL93
 8494 04d6 38000000 		.4byte	.LVL94
 8495 04da 0300     		.2byte	0x3
 8496 04dc 75       		.byte	0x75
 8497 04dd 08       		.sleb128 8
 8498 04de 9F       		.byte	0x9f
 8499 04df 38000000 		.4byte	.LVL94
 8500 04e3 3C000000 		.4byte	.LVL95
 8501 04e7 0300     		.2byte	0x3
 8502 04e9 75       		.byte	0x75
 8503 04ea 0C       		.sleb128 12
 8504 04eb 9F       		.byte	0x9f
 8505 04ec 3C000000 		.4byte	.LVL95
 8506 04f0 44000000 		.4byte	.LVL96
 8507 04f4 0300     		.2byte	0x3
 8508 04f6 75       		.byte	0x75
ARM GAS  C:\Users\Phuong\AppData\Local\Temp\ccZ7UQ35.s 			page 171


 8509 04f7 10       		.sleb128 16
 8510 04f8 9F       		.byte	0x9f
 8511 04f9 44000000 		.4byte	.LVL96
 8512 04fd 50000000 		.4byte	.LVL101
 8513 0501 0100     		.2byte	0x1
 8514 0503 52       		.byte	0x52
 8515 0504 50000000 		.4byte	.LVL101
 8516 0508 54000000 		.4byte	.LVL102
 8517 050c 0300     		.2byte	0x3
 8518 050e 72       		.byte	0x72
 8519 050f 04       		.sleb128 4
 8520 0510 9F       		.byte	0x9f
 8521 0511 54000000 		.4byte	.LVL102
 8522 0515 5E000000 		.4byte	.LVL105
 8523 0519 0300     		.2byte	0x3
 8524 051b 72       		.byte	0x72
 8525 051c 08       		.sleb128 8
 8526 051d 9F       		.byte	0x9f
 8527 051e 5E000000 		.4byte	.LVL105
 8528 0522 62000000 		.4byte	.LVL106
 8529 0526 0100     		.2byte	0x1
 8530 0528 52       		.byte	0x52
 8531 0529 62000000 		.4byte	.LVL106
 8532 052d 6A000000 		.4byte	.LVL110
 8533 0531 0300     		.2byte	0x3
 8534 0533 72       		.byte	0x72
 8535 0534 04       		.sleb128 4
 8536 0535 9F       		.byte	0x9f
 8537 0536 6A000000 		.4byte	.LVL110
 8538 053a 70000000 		.4byte	.LVL111
 8539 053e 0300     		.2byte	0x3
 8540 0540 72       		.byte	0x72
 8541 0541 08       		.sleb128 8
 8542 0542 9F       		.byte	0x9f
 8543 0543 70000000 		.4byte	.LVL111
 8544 0547 74000000 		.4byte	.LVL112
 8545 054b 0300     		.2byte	0x3
 8546 054d 72       		.byte	0x72
 8547 054e 0C       		.sleb128 12
 8548 054f 9F       		.byte	0x9f
 8549 0550 74000000 		.4byte	.LVL112
 8550 0554 78000000 		.4byte	.LVL114
 8551 0558 0300     		.2byte	0x3
 8552 055a 72       		.byte	0x72
 8553 055b 10       		.sleb128 16
 8554 055c 9F       		.byte	0x9f
 8555 055d 00000000 		.4byte	0
 8556 0561 00000000 		.4byte	0
 8557              	.LLST19:
 8558 0565 34000000 		.4byte	.LVL93
 8559 0569 38000000 		.4byte	.LVL94
 8560 056d 0300     		.2byte	0x3
 8561 056f 73       		.byte	0x73
 8562 0570 04       		.sleb128 4
 8563 0571 9F       		.byte	0x9f
 8564 0572 38000000 		.4byte	.LVL94
 8565 0576 3C000000 		.4byte	.LVL95
ARM GAS  C:\Users\Phuong\AppData\Local\Temp\ccZ7UQ35.s 			page 172


 8566 057a 0300     		.2byte	0x3
 8567 057c 73       		.byte	0x73
 8568 057d 08       		.sleb128 8
 8569 057e 9F       		.byte	0x9f
 8570 057f 3C000000 		.4byte	.LVL95
 8571 0583 44000000 		.4byte	.LVL96
 8572 0587 0300     		.2byte	0x3
 8573 0589 73       		.byte	0x73
 8574 058a 0C       		.sleb128 12
 8575 058b 9F       		.byte	0x9f
 8576 058c 44000000 		.4byte	.LVL96
 8577 0590 4E000000 		.4byte	.LVL100
 8578 0594 0300     		.2byte	0x3
 8579 0596 73       		.byte	0x73
 8580 0597 10       		.sleb128 16
 8581 0598 9F       		.byte	0x9f
 8582 0599 4E000000 		.4byte	.LVL100
 8583 059d 50000000 		.4byte	.LVL101
 8584 05a1 0100     		.2byte	0x1
 8585 05a3 53       		.byte	0x53
 8586 05a4 50000000 		.4byte	.LVL101
 8587 05a8 54000000 		.4byte	.LVL102
 8588 05ac 0300     		.2byte	0x3
 8589 05ae 73       		.byte	0x73
 8590 05af 04       		.sleb128 4
 8591 05b0 9F       		.byte	0x9f
 8592 05b1 54000000 		.4byte	.LVL102
 8593 05b5 5C000000 		.4byte	.LVL104
 8594 05b9 0300     		.2byte	0x3
 8595 05bb 73       		.byte	0x73
 8596 05bc 08       		.sleb128 8
 8597 05bd 9F       		.byte	0x9f
 8598 05be 5C000000 		.4byte	.LVL104
 8599 05c2 62000000 		.4byte	.LVL106
 8600 05c6 0100     		.2byte	0x1
 8601 05c8 53       		.byte	0x53
 8602 05c9 62000000 		.4byte	.LVL106
 8603 05cd 66000000 		.4byte	.LVL108
 8604 05d1 0300     		.2byte	0x3
 8605 05d3 73       		.byte	0x73
 8606 05d4 7C       		.sleb128 -4
 8607 05d5 9F       		.byte	0x9f
 8608 05d6 66000000 		.4byte	.LVL108
 8609 05da 68000000 		.4byte	.LVL109
 8610 05de 0300     		.2byte	0x3
 8611 05e0 71       		.byte	0x71
 8612 05e1 04       		.sleb128 4
 8613 05e2 9F       		.byte	0x9f
 8614 05e3 68000000 		.4byte	.LVL109
 8615 05e7 6A000000 		.4byte	.LVL110
 8616 05eb 0300     		.2byte	0x3
 8617 05ed 73       		.byte	0x73
 8618 05ee 7C       		.sleb128 -4
 8619 05ef 9F       		.byte	0x9f
 8620 05f0 6A000000 		.4byte	.LVL110
 8621 05f4 70000000 		.4byte	.LVL111
 8622 05f8 0100     		.2byte	0x1
ARM GAS  C:\Users\Phuong\AppData\Local\Temp\ccZ7UQ35.s 			page 173


 8623 05fa 53       		.byte	0x53
 8624 05fb 70000000 		.4byte	.LVL111
 8625 05ff 74000000 		.4byte	.LVL112
 8626 0603 0300     		.2byte	0x3
 8627 0605 73       		.byte	0x73
 8628 0606 04       		.sleb128 4
 8629 0607 9F       		.byte	0x9f
 8630 0608 74000000 		.4byte	.LVL112
 8631 060c 76000000 		.4byte	.LVL113
 8632 0610 0300     		.2byte	0x3
 8633 0612 73       		.byte	0x73
 8634 0613 08       		.sleb128 8
 8635 0614 9F       		.byte	0x9f
 8636 0615 00000000 		.4byte	0
 8637 0619 00000000 		.4byte	0
 8638              	.LLST20:
 8639 061d 00000000 		.4byte	.LVL119
 8640 0621 7A000000 		.4byte	.LVL128
 8641 0625 0100     		.2byte	0x1
 8642 0627 50       		.byte	0x50
 8643 0628 7A000000 		.4byte	.LVL128
 8644 062c 66010000 		.4byte	.LFE6
 8645 0630 0400     		.2byte	0x4
 8646 0632 F3       		.byte	0xf3
 8647 0633 01       		.uleb128 0x1
 8648 0634 50       		.byte	0x50
 8649 0635 9F       		.byte	0x9f
 8650 0636 00000000 		.4byte	0
 8651 063a 00000000 		.4byte	0
 8652              	.LLST21:
 8653 063e 00000000 		.4byte	.LVL119
 8654 0642 34000000 		.4byte	.LVL122
 8655 0646 0100     		.2byte	0x1
 8656 0648 51       		.byte	0x51
 8657 0649 34000000 		.4byte	.LVL122
 8658 064d 66010000 		.4byte	.LFE6
 8659 0651 0400     		.2byte	0x4
 8660 0653 F3       		.byte	0xf3
 8661 0654 01       		.uleb128 0x1
 8662 0655 51       		.byte	0x51
 8663 0656 9F       		.byte	0x9f
 8664 0657 00000000 		.4byte	0
 8665 065b 00000000 		.4byte	0
 8666              	.LLST22:
 8667 065f 00000000 		.4byte	.LVL119
 8668 0663 58000000 		.4byte	.LVL123
 8669 0667 0100     		.2byte	0x1
 8670 0669 52       		.byte	0x52
 8671 066a 58000000 		.4byte	.LVL123
 8672 066e 66010000 		.4byte	.LFE6
 8673 0672 0400     		.2byte	0x4
 8674 0674 F3       		.byte	0xf3
 8675 0675 01       		.uleb128 0x1
 8676 0676 52       		.byte	0x52
 8677 0677 9F       		.byte	0x9f
 8678 0678 00000000 		.4byte	0
 8679 067c 00000000 		.4byte	0
ARM GAS  C:\Users\Phuong\AppData\Local\Temp\ccZ7UQ35.s 			page 174


 8680              	.LLST23:
 8681 0680 00000000 		.4byte	.LVL119
 8682 0684 0E000000 		.4byte	.LVL121
 8683 0688 0100     		.2byte	0x1
 8684 068a 53       		.byte	0x53
 8685 068b 0E000000 		.4byte	.LVL121
 8686 068f 64010000 		.4byte	.LVL149
 8687 0693 0100     		.2byte	0x1
 8688 0695 56       		.byte	0x56
 8689 0696 64010000 		.4byte	.LVL149
 8690 069a 66010000 		.4byte	.LFE6
 8691 069e 0400     		.2byte	0x4
 8692 06a0 F3       		.byte	0xf3
 8693 06a1 01       		.uleb128 0x1
 8694 06a2 53       		.byte	0x53
 8695 06a3 9F       		.byte	0x9f
 8696 06a4 00000000 		.4byte	0
 8697 06a8 00000000 		.4byte	0
 8698              	.LLST24:
 8699 06ac 08000000 		.4byte	.LVL120
 8700 06b0 64010000 		.4byte	.LVL148
 8701 06b4 0100     		.2byte	0x1
 8702 06b6 55       		.byte	0x55
 8703 06b7 00000000 		.4byte	0
 8704 06bb 00000000 		.4byte	0
 8705              	.LLST25:
 8706 06bf 08000000 		.4byte	.LVL120
 8707 06c3 5A000000 		.4byte	.LVL124
 8708 06c7 0300     		.2byte	0x3
 8709 06c9 70       		.byte	0x70
 8710 06ca 04       		.sleb128 4
 8711 06cb 9F       		.byte	0x9f
 8712 06cc 5A000000 		.4byte	.LVL124
 8713 06d0 60000000 		.4byte	.LVL125
 8714 06d4 0300     		.2byte	0x3
 8715 06d6 70       		.byte	0x70
 8716 06d7 08       		.sleb128 8
 8717 06d8 9F       		.byte	0x9f
 8718 06d9 60000000 		.4byte	.LVL125
 8719 06dd 66000000 		.4byte	.LVL126
 8720 06e1 0300     		.2byte	0x3
 8721 06e3 70       		.byte	0x70
 8722 06e4 0C       		.sleb128 12
 8723 06e5 9F       		.byte	0x9f
 8724 06e6 66000000 		.4byte	.LVL126
 8725 06ea 72000000 		.4byte	.LVL127
 8726 06ee 0300     		.2byte	0x3
 8727 06f0 70       		.byte	0x70
 8728 06f1 10       		.sleb128 16
 8729 06f2 9F       		.byte	0x9f
 8730 06f3 72000000 		.4byte	.LVL127
 8731 06f7 8A000000 		.4byte	.LVL131
 8732 06fb 0100     		.2byte	0x1
 8733 06fd 54       		.byte	0x54
 8734 06fe C6000000 		.4byte	.LVL137
 8735 0702 CE000000 		.4byte	.LVL138
 8736 0706 0100     		.2byte	0x1
ARM GAS  C:\Users\Phuong\AppData\Local\Temp\ccZ7UQ35.s 			page 175


 8737 0708 53       		.byte	0x53
 8738 0709 CE000000 		.4byte	.LVL138
 8739 070d E2000000 		.4byte	.LVL139
 8740 0711 0300     		.2byte	0x3
 8741 0713 74       		.byte	0x74
 8742 0714 30       		.sleb128 48
 8743 0715 9F       		.byte	0x9f
 8744 0716 E2000000 		.4byte	.LVL139
 8745 071a FC000000 		.4byte	.LVL140
 8746 071e 0300     		.2byte	0x3
 8747 0720 74       		.byte	0x74
 8748 0721 38       		.sleb128 56
 8749 0722 9F       		.byte	0x9f
 8750 0723 FC000000 		.4byte	.LVL140
 8751 0727 FE000000 		.4byte	.LVL141
 8752 072b 0100     		.2byte	0x1
 8753 072d 54       		.byte	0x54
 8754 072e FE000000 		.4byte	.LVL141
 8755 0732 00010000 		.4byte	.LVL142
 8756 0736 0100     		.2byte	0x1
 8757 0738 53       		.byte	0x53
 8758 0739 00010000 		.4byte	.LVL142
 8759 073d 04010000 		.4byte	.LVL143
 8760 0741 0100     		.2byte	0x1
 8761 0743 54       		.byte	0x54
 8762 0744 04010000 		.4byte	.LVL143
 8763 0748 0E010000 		.4byte	.LVL144
 8764 074c 0300     		.2byte	0x3
 8765 074e 74       		.byte	0x74
 8766 074f 04       		.sleb128 4
 8767 0750 9F       		.byte	0x9f
 8768 0751 0E010000 		.4byte	.LVL144
 8769 0755 1A010000 		.4byte	.LVL145
 8770 0759 0300     		.2byte	0x3
 8771 075b 74       		.byte	0x74
 8772 075c 08       		.sleb128 8
 8773 075d 9F       		.byte	0x9f
 8774 075e 1A010000 		.4byte	.LVL145
 8775 0762 22010000 		.4byte	.LVL146
 8776 0766 0300     		.2byte	0x3
 8777 0768 74       		.byte	0x74
 8778 0769 0C       		.sleb128 12
 8779 076a 9F       		.byte	0x9f
 8780 076b 22010000 		.4byte	.LVL146
 8781 076f 26010000 		.4byte	.LVL147
 8782 0773 0300     		.2byte	0x3
 8783 0775 74       		.byte	0x74
 8784 0776 10       		.sleb128 16
 8785 0777 9F       		.byte	0x9f
 8786 0778 00000000 		.4byte	0
 8787 077c 00000000 		.4byte	0
 8788              	.LLST26:
 8789 0780 00000000 		.4byte	.LVL150
 8790 0784 1A000000 		.4byte	.LVL152
 8791 0788 0100     		.2byte	0x1
 8792 078a 50       		.byte	0x50
 8793 078b 1A000000 		.4byte	.LVL152
ARM GAS  C:\Users\Phuong\AppData\Local\Temp\ccZ7UQ35.s 			page 176


 8794 078f 92000000 		.4byte	.LVL171
 8795 0793 0200     		.2byte	0x2
 8796 0795 7D       		.byte	0x7d
 8797 0796 00       		.sleb128 0
 8798 0797 92000000 		.4byte	.LVL171
 8799 079b 94000000 		.4byte	.LVL172
 8800 079f 0100     		.2byte	0x1
 8801 07a1 50       		.byte	0x50
 8802 07a2 94000000 		.4byte	.LVL172
 8803 07a6 98000000 		.4byte	.LVL174
 8804 07aa 0200     		.2byte	0x2
 8805 07ac 7D       		.byte	0x7d
 8806 07ad 00       		.sleb128 0
 8807 07ae 98000000 		.4byte	.LVL174
 8808 07b2 9A000000 		.4byte	.LFE7
 8809 07b6 0200     		.2byte	0x2
 8810 07b8 91       		.byte	0x91
 8811 07b9 50       		.sleb128 -48
 8812 07ba 00000000 		.4byte	0
 8813 07be 00000000 		.4byte	0
 8814              	.LLST27:
 8815 07c2 00000000 		.4byte	.LVL150
 8816 07c6 1A000000 		.4byte	.LVL152
 8817 07ca 0100     		.2byte	0x1
 8818 07cc 51       		.byte	0x51
 8819 07cd 1A000000 		.4byte	.LVL152
 8820 07d1 92000000 		.4byte	.LVL171
 8821 07d5 0200     		.2byte	0x2
 8822 07d7 91       		.byte	0x91
 8823 07d8 54       		.sleb128 -44
 8824 07d9 92000000 		.4byte	.LVL171
 8825 07dd 96000000 		.4byte	.LVL173
 8826 07e1 0100     		.2byte	0x1
 8827 07e3 51       		.byte	0x51
 8828 07e4 96000000 		.4byte	.LVL173
 8829 07e8 9A000000 		.4byte	.LFE7
 8830 07ec 0200     		.2byte	0x2
 8831 07ee 91       		.byte	0x91
 8832 07ef 54       		.sleb128 -44
 8833 07f0 00000000 		.4byte	0
 8834 07f4 00000000 		.4byte	0
 8835              	.LLST28:
 8836 07f8 00000000 		.4byte	.LVL150
 8837 07fc 1A000000 		.4byte	.LVL152
 8838 0800 0100     		.2byte	0x1
 8839 0802 52       		.byte	0x52
 8840 0803 1A000000 		.4byte	.LVL152
 8841 0807 92000000 		.4byte	.LVL171
 8842 080b 0100     		.2byte	0x1
 8843 080d 55       		.byte	0x55
 8844 080e 92000000 		.4byte	.LVL171
 8845 0812 96000000 		.4byte	.LVL173
 8846 0816 0100     		.2byte	0x1
 8847 0818 52       		.byte	0x52
 8848 0819 96000000 		.4byte	.LVL173
 8849 081d 98000000 		.4byte	.LVL175
 8850 0821 0100     		.2byte	0x1
ARM GAS  C:\Users\Phuong\AppData\Local\Temp\ccZ7UQ35.s 			page 177


 8851 0823 55       		.byte	0x55
 8852 0824 00000000 		.4byte	0
 8853 0828 00000000 		.4byte	0
 8854              	.LLST29:
 8855 082c 00000000 		.4byte	.LVL150
 8856 0830 14000000 		.4byte	.LVL151
 8857 0834 0100     		.2byte	0x1
 8858 0836 53       		.byte	0x53
 8859 0837 14000000 		.4byte	.LVL151
 8860 083b 98000000 		.4byte	.LVL176
 8861 083f 0100     		.2byte	0x1
 8862 0841 57       		.byte	0x57
 8863 0842 98000000 		.4byte	.LVL176
 8864 0846 9A000000 		.4byte	.LFE7
 8865 084a 0400     		.2byte	0x4
 8866 084c F3       		.byte	0xf3
 8867 084d 01       		.uleb128 0x1
 8868 084e 53       		.byte	0x53
 8869 084f 9F       		.byte	0x9f
 8870 0850 00000000 		.4byte	0
 8871 0854 00000000 		.4byte	0
 8872              	.LLST30:
 8873 0858 00000000 		.4byte	.LVL150
 8874 085c 1A000000 		.4byte	.LVL152
 8875 0860 0200     		.2byte	0x2
 8876 0862 91       		.byte	0x91
 8877 0863 00       		.sleb128 0
 8878 0864 1A000000 		.4byte	.LVL152
 8879 0868 34000000 		.4byte	.LVL155
 8880 086c 0100     		.2byte	0x1
 8881 086e 54       		.byte	0x54
 8882 086f 50000000 		.4byte	.LVL158
 8883 0873 92000000 		.4byte	.LVL171
 8884 0877 0100     		.2byte	0x1
 8885 0879 54       		.byte	0x54
 8886 087a 92000000 		.4byte	.LVL171
 8887 087e 96000000 		.4byte	.LVL173
 8888 0882 0200     		.2byte	0x2
 8889 0884 91       		.byte	0x91
 8890 0885 00       		.sleb128 0
 8891 0886 00000000 		.4byte	0
 8892 088a 00000000 		.4byte	0
 8893              	.LLST31:
 8894 088e 00000000 		.4byte	.LVL150
 8895 0892 1A000000 		.4byte	.LVL152
 8896 0896 0200     		.2byte	0x2
 8897 0898 91       		.byte	0x91
 8898 0899 04       		.sleb128 4
 8899 089a 1A000000 		.4byte	.LVL152
 8900 089e 34000000 		.4byte	.LVL155
 8901 08a2 0100     		.2byte	0x1
 8902 08a4 56       		.byte	0x56
 8903 08a5 52000000 		.4byte	.LVL159
 8904 08a9 92000000 		.4byte	.LVL171
 8905 08ad 0100     		.2byte	0x1
 8906 08af 56       		.byte	0x56
 8907 08b0 92000000 		.4byte	.LVL171
ARM GAS  C:\Users\Phuong\AppData\Local\Temp\ccZ7UQ35.s 			page 178


 8908 08b4 96000000 		.4byte	.LVL173
 8909 08b8 0200     		.2byte	0x2
 8910 08ba 91       		.byte	0x91
 8911 08bb 04       		.sleb128 4
 8912 08bc 00000000 		.4byte	0
 8913 08c0 00000000 		.4byte	0
 8914              	.LLST32:
 8915 08c4 30000000 		.4byte	.LVL154
 8916 08c8 34000000 		.4byte	.LVL155
 8917 08cc 0200     		.2byte	0x2
 8918 08ce 30       		.byte	0x30
 8919 08cf 9F       		.byte	0x9f
 8920 08d0 34000000 		.4byte	.LVL155
 8921 08d4 4D000000 		.4byte	.LVL157-1
 8922 08d8 0100     		.2byte	0x1
 8923 08da 53       		.byte	0x53
 8924 08db 5C000000 		.4byte	.LVL161
 8925 08df 68000000 		.4byte	.LVL163
 8926 08e3 0100     		.2byte	0x1
 8927 08e5 53       		.byte	0x53
 8928 08e6 6A000000 		.4byte	.LVL164
 8929 08ea 70000000 		.4byte	.LVL165
 8930 08ee 0100     		.2byte	0x1
 8931 08f0 53       		.byte	0x53
 8932 08f1 00000000 		.4byte	0
 8933 08f5 00000000 		.4byte	0
 8934              	.LLST33:
 8935 08f9 00000000 		.4byte	.LVL177
 8936 08fd 1C000000 		.4byte	.LVL179
 8937 0901 0100     		.2byte	0x1
 8938 0903 50       		.byte	0x50
 8939 0904 1C000000 		.4byte	.LVL179
 8940 0908 8E000000 		.4byte	.LFE8
 8941 090c 0200     		.2byte	0x2
 8942 090e 91       		.byte	0x91
 8943 090f 5C       		.sleb128 -36
 8944 0910 00000000 		.4byte	0
 8945 0914 00000000 		.4byte	0
 8946              	.LLST34:
 8947 0918 00000000 		.4byte	.LVL177
 8948 091c 1C000000 		.4byte	.LVL179
 8949 0920 0100     		.2byte	0x1
 8950 0922 51       		.byte	0x51
 8951 0923 1C000000 		.4byte	.LVL179
 8952 0927 8E000000 		.4byte	.LFE8
 8953 092b 0400     		.2byte	0x4
 8954 092d F3       		.byte	0xf3
 8955 092e 01       		.uleb128 0x1
 8956 092f 51       		.byte	0x51
 8957 0930 9F       		.byte	0x9f
 8958 0931 00000000 		.4byte	0
 8959 0935 00000000 		.4byte	0
 8960              	.LLST35:
 8961 0939 00000000 		.4byte	.LVL177
 8962 093d 1C000000 		.4byte	.LVL179
 8963 0941 0100     		.2byte	0x1
 8964 0943 52       		.byte	0x52
ARM GAS  C:\Users\Phuong\AppData\Local\Temp\ccZ7UQ35.s 			page 179


 8965 0944 1C000000 		.4byte	.LVL179
 8966 0948 22000000 		.4byte	.LVL180
 8967 094c 0100     		.2byte	0x1
 8968 094e 53       		.byte	0x53
 8969 094f 22000000 		.4byte	.LVL180
 8970 0953 44000000 		.4byte	.LVL186
 8971 0957 0100     		.2byte	0x1
 8972 0959 59       		.byte	0x59
 8973 095a 44000000 		.4byte	.LVL186
 8974 095e 48000000 		.4byte	.LVL187
 8975 0962 0100     		.2byte	0x1
 8976 0964 52       		.byte	0x52
 8977 0965 48000000 		.4byte	.LVL187
 8978 0969 54000000 		.4byte	.LVL188
 8979 096d 0100     		.2byte	0x1
 8980 096f 53       		.byte	0x53
 8981 0970 54000000 		.4byte	.LVL188
 8982 0974 76000000 		.4byte	.LVL194
 8983 0978 0100     		.2byte	0x1
 8984 097a 59       		.byte	0x59
 8985 097b 76000000 		.4byte	.LVL194
 8986 097f 7A000000 		.4byte	.LVL195
 8987 0983 0100     		.2byte	0x1
 8988 0985 52       		.byte	0x52
 8989 0986 7A000000 		.4byte	.LVL195
 8990 098a 80000000 		.4byte	.LVL196
 8991 098e 0100     		.2byte	0x1
 8992 0990 53       		.byte	0x53
 8993 0991 80000000 		.4byte	.LVL196
 8994 0995 86000000 		.4byte	.LVL201
 8995 0999 0100     		.2byte	0x1
 8996 099b 59       		.byte	0x59
 8997 099c 00000000 		.4byte	0
 8998 09a0 00000000 		.4byte	0
 8999              	.LLST36:
 9000 09a4 00000000 		.4byte	.LVL177
 9001 09a8 1C000000 		.4byte	.LVL179
 9002 09ac 0100     		.2byte	0x1
 9003 09ae 53       		.byte	0x53
 9004 09af 1C000000 		.4byte	.LVL179
 9005 09b3 86000000 		.4byte	.LVL200
 9006 09b7 0100     		.2byte	0x1
 9007 09b9 58       		.byte	0x58
 9008 09ba 86000000 		.4byte	.LVL200
 9009 09be 8E000000 		.4byte	.LFE8
 9010 09c2 0100     		.2byte	0x1
 9011 09c4 53       		.byte	0x53
 9012 09c5 00000000 		.4byte	0
 9013 09c9 00000000 		.4byte	0
 9014              	.LLST37:
 9015 09cd 00000000 		.4byte	.LVL177
 9016 09d1 1C000000 		.4byte	.LVL179
 9017 09d5 0200     		.2byte	0x2
 9018 09d7 91       		.byte	0x91
 9019 09d8 04       		.sleb128 4
 9020 09d9 1C000000 		.4byte	.LVL179
 9021 09dd 2C000000 		.4byte	.LVL181
ARM GAS  C:\Users\Phuong\AppData\Local\Temp\ccZ7UQ35.s 			page 180


 9022 09e1 0100     		.2byte	0x1
 9023 09e3 55       		.byte	0x55
 9024 09e4 2C000000 		.4byte	.LVL181
 9025 09e8 44000000 		.4byte	.LVL186
 9026 09ec 0300     		.2byte	0x3
 9027 09ee 75       		.byte	0x75
 9028 09ef 01       		.sleb128 1
 9029 09f0 9F       		.byte	0x9f
 9030 09f1 44000000 		.4byte	.LVL186
 9031 09f5 62000000 		.4byte	.LVL190
 9032 09f9 0100     		.2byte	0x1
 9033 09fb 55       		.byte	0x55
 9034 09fc 62000000 		.4byte	.LVL190
 9035 0a00 76000000 		.4byte	.LVL194
 9036 0a04 0300     		.2byte	0x3
 9037 0a06 75       		.byte	0x75
 9038 0a07 01       		.sleb128 1
 9039 0a08 9F       		.byte	0x9f
 9040 0a09 76000000 		.4byte	.LVL194
 9041 0a0d 86000000 		.4byte	.LVL198
 9042 0a11 0100     		.2byte	0x1
 9043 0a13 55       		.byte	0x55
 9044 0a14 00000000 		.4byte	0
 9045 0a18 00000000 		.4byte	0
 9046              	.LLST38:
 9047 0a1c 00000000 		.4byte	.LVL177
 9048 0a20 1C000000 		.4byte	.LVL179
 9049 0a24 0200     		.2byte	0x2
 9050 0a26 91       		.byte	0x91
 9051 0a27 08       		.sleb128 8
 9052 0a28 1C000000 		.4byte	.LVL179
 9053 0a2c 2E000000 		.4byte	.LVL182
 9054 0a30 0100     		.2byte	0x1
 9055 0a32 57       		.byte	0x57
 9056 0a33 2E000000 		.4byte	.LVL182
 9057 0a37 42000000 		.4byte	.LVL185
 9058 0a3b 0300     		.2byte	0x3
 9059 0a3d 77       		.byte	0x77
 9060 0a3e 01       		.sleb128 1
 9061 0a3f 9F       		.byte	0x9f
 9062 0a40 42000000 		.4byte	.LVL185
 9063 0a44 5E000000 		.4byte	.LVL189
 9064 0a48 0100     		.2byte	0x1
 9065 0a4a 57       		.byte	0x57
 9066 0a4b 5E000000 		.4byte	.LVL189
 9067 0a4f 74000000 		.4byte	.LVL193
 9068 0a53 0300     		.2byte	0x3
 9069 0a55 77       		.byte	0x77
 9070 0a56 01       		.sleb128 1
 9071 0a57 9F       		.byte	0x9f
 9072 0a58 74000000 		.4byte	.LVL193
 9073 0a5c 86000000 		.4byte	.LVL199
 9074 0a60 0100     		.2byte	0x1
 9075 0a62 57       		.byte	0x57
 9076 0a63 00000000 		.4byte	0
 9077 0a67 00000000 		.4byte	0
 9078              	.LLST39:
ARM GAS  C:\Users\Phuong\AppData\Local\Temp\ccZ7UQ35.s 			page 181


 9079 0a6b 2E000000 		.4byte	.LVL182
 9080 0a6f 44000000 		.4byte	.LVL186
 9081 0a73 0600     		.2byte	0x6
 9082 0a75 71       		.byte	0x71
 9083 0a76 00       		.sleb128 0
 9084 0a77 08       		.byte	0x8
 9085 0a78 FF       		.byte	0xff
 9086 0a79 1A       		.byte	0x1a
 9087 0a7a 9F       		.byte	0x9f
 9088 0a7b 00000000 		.4byte	0
 9089 0a7f 00000000 		.4byte	0
 9090              	.LLST40:
 9091 0a83 16000000 		.4byte	.LVL178
 9092 0a87 3A000000 		.4byte	.LVL183
 9093 0a8b 0100     		.2byte	0x1
 9094 0a8d 54       		.byte	0x54
 9095 0a8e 3A000000 		.4byte	.LVL183
 9096 0a92 3E000000 		.4byte	.LVL184
 9097 0a96 0300     		.2byte	0x3
 9098 0a98 74       		.byte	0x74
 9099 0a99 7F       		.sleb128 -1
 9100 0a9a 9F       		.byte	0x9f
 9101 0a9b 3E000000 		.4byte	.LVL184
 9102 0a9f 6C000000 		.4byte	.LVL191
 9103 0aa3 0100     		.2byte	0x1
 9104 0aa5 54       		.byte	0x54
 9105 0aa6 6C000000 		.4byte	.LVL191
 9106 0aaa 70000000 		.4byte	.LVL192
 9107 0aae 0300     		.2byte	0x3
 9108 0ab0 74       		.byte	0x74
 9109 0ab1 7F       		.sleb128 -1
 9110 0ab2 9F       		.byte	0x9f
 9111 0ab3 70000000 		.4byte	.LVL192
 9112 0ab7 86000000 		.4byte	.LVL197
 9113 0abb 0100     		.2byte	0x1
 9114 0abd 54       		.byte	0x54
 9115 0abe 86000000 		.4byte	.LVL197
 9116 0ac2 8E000000 		.4byte	.LFE8
 9117 0ac6 0200     		.2byte	0x2
 9118 0ac8 73       		.byte	0x73
 9119 0ac9 00       		.sleb128 0
 9120 0aca 00000000 		.4byte	0
 9121 0ace 00000000 		.4byte	0
 9122              	.LLST41:
 9123 0ad2 00000000 		.4byte	.LVL202
 9124 0ad6 1E000000 		.4byte	.LVL205
 9125 0ada 0100     		.2byte	0x1
 9126 0adc 50       		.byte	0x50
 9127 0add 1E000000 		.4byte	.LVL205
 9128 0ae1 78000000 		.4byte	.LFE9
 9129 0ae5 0200     		.2byte	0x2
 9130 0ae7 91       		.byte	0x91
 9131 0ae8 5C       		.sleb128 -36
 9132 0ae9 00000000 		.4byte	0
 9133 0aed 00000000 		.4byte	0
 9134              	.LLST42:
 9135 0af1 00000000 		.4byte	.LVL202
ARM GAS  C:\Users\Phuong\AppData\Local\Temp\ccZ7UQ35.s 			page 182


 9136 0af5 1E000000 		.4byte	.LVL205
 9137 0af9 0100     		.2byte	0x1
 9138 0afb 51       		.byte	0x51
 9139 0afc 1E000000 		.4byte	.LVL205
 9140 0b00 24000000 		.4byte	.LVL206
 9141 0b04 0100     		.2byte	0x1
 9142 0b06 53       		.byte	0x53
 9143 0b07 24000000 		.4byte	.LVL206
 9144 0b0b 5E000000 		.4byte	.LVL215
 9145 0b0f 0100     		.2byte	0x1
 9146 0b11 59       		.byte	0x59
 9147 0b12 5E000000 		.4byte	.LVL215
 9148 0b16 62000000 		.4byte	.LVL216
 9149 0b1a 0100     		.2byte	0x1
 9150 0b1c 51       		.byte	0x51
 9151 0b1d 62000000 		.4byte	.LVL216
 9152 0b21 68000000 		.4byte	.LVL217
 9153 0b25 0100     		.2byte	0x1
 9154 0b27 53       		.byte	0x53
 9155 0b28 68000000 		.4byte	.LVL217
 9156 0b2c 6E000000 		.4byte	.LVL223
 9157 0b30 0100     		.2byte	0x1
 9158 0b32 59       		.byte	0x59
 9159 0b33 6E000000 		.4byte	.LVL223
 9160 0b37 78000000 		.4byte	.LFE9
 9161 0b3b 0300     		.2byte	0x3
 9162 0b3d 71       		.byte	0x71
 9163 0b3e 7F       		.sleb128 -1
 9164 0b3f 9F       		.byte	0x9f
 9165 0b40 00000000 		.4byte	0
 9166 0b44 00000000 		.4byte	0
 9167              	.LLST43:
 9168 0b48 00000000 		.4byte	.LVL202
 9169 0b4c 1E000000 		.4byte	.LVL205
 9170 0b50 0100     		.2byte	0x1
 9171 0b52 52       		.byte	0x52
 9172 0b53 1E000000 		.4byte	.LVL205
 9173 0b57 6E000000 		.4byte	.LVL222
 9174 0b5b 0100     		.2byte	0x1
 9175 0b5d 58       		.byte	0x58
 9176 0b5e 6E000000 		.4byte	.LVL222
 9177 0b62 78000000 		.4byte	.LFE9
 9178 0b66 0100     		.2byte	0x1
 9179 0b68 53       		.byte	0x53
 9180 0b69 00000000 		.4byte	0
 9181 0b6d 00000000 		.4byte	0
 9182              	.LLST44:
 9183 0b71 00000000 		.4byte	.LVL202
 9184 0b75 14000000 		.4byte	.LVL203
 9185 0b79 0100     		.2byte	0x1
 9186 0b7b 53       		.byte	0x53
 9187 0b7c 14000000 		.4byte	.LVL203
 9188 0b80 6E000000 		.4byte	.LVL221
 9189 0b84 0100     		.2byte	0x1
 9190 0b86 57       		.byte	0x57
 9191 0b87 6E000000 		.4byte	.LVL221
 9192 0b8b 78000000 		.4byte	.LFE9
ARM GAS  C:\Users\Phuong\AppData\Local\Temp\ccZ7UQ35.s 			page 183


 9193 0b8f 0400     		.2byte	0x4
 9194 0b91 F3       		.byte	0xf3
 9195 0b92 01       		.uleb128 0x1
 9196 0b93 53       		.byte	0x53
 9197 0b94 9F       		.byte	0x9f
 9198 0b95 00000000 		.4byte	0
 9199 0b99 00000000 		.4byte	0
 9200              	.LLST45:
 9201 0b9d 00000000 		.4byte	.LVL202
 9202 0ba1 1E000000 		.4byte	.LVL205
 9203 0ba5 0200     		.2byte	0x2
 9204 0ba7 91       		.byte	0x91
 9205 0ba8 04       		.sleb128 4
 9206 0ba9 1E000000 		.4byte	.LVL205
 9207 0bad 32000000 		.4byte	.LVL208
 9208 0bb1 0100     		.2byte	0x1
 9209 0bb3 56       		.byte	0x56
 9210 0bb4 48000000 		.4byte	.LVL210
 9211 0bb8 5E000000 		.4byte	.LVL215
 9212 0bbc 0300     		.2byte	0x3
 9213 0bbe 76       		.byte	0x76
 9214 0bbf 01       		.sleb128 1
 9215 0bc0 9F       		.byte	0x9f
 9216 0bc1 5E000000 		.4byte	.LVL215
 9217 0bc5 6E000000 		.4byte	.LVL220
 9218 0bc9 0100     		.2byte	0x1
 9219 0bcb 56       		.byte	0x56
 9220 0bcc 00000000 		.4byte	0
 9221 0bd0 00000000 		.4byte	0
 9222              	.LLST46:
 9223 0bd4 00000000 		.4byte	.LVL202
 9224 0bd8 1E000000 		.4byte	.LVL205
 9225 0bdc 0200     		.2byte	0x2
 9226 0bde 91       		.byte	0x91
 9227 0bdf 08       		.sleb128 8
 9228 0be0 1E000000 		.4byte	.LVL205
 9229 0be4 32000000 		.4byte	.LVL208
 9230 0be8 0100     		.2byte	0x1
 9231 0bea 55       		.byte	0x55
 9232 0beb 4A000000 		.4byte	.LVL211
 9233 0bef 5C000000 		.4byte	.LVL214
 9234 0bf3 0300     		.2byte	0x3
 9235 0bf5 75       		.byte	0x75
 9236 0bf6 01       		.sleb128 1
 9237 0bf7 9F       		.byte	0x9f
 9238 0bf8 5C000000 		.4byte	.LVL214
 9239 0bfc 6E000000 		.4byte	.LVL219
 9240 0c00 0100     		.2byte	0x1
 9241 0c02 55       		.byte	0x55
 9242 0c03 00000000 		.4byte	0
 9243 0c07 00000000 		.4byte	0
 9244              	.LLST47:
 9245 0c0b 4A000000 		.4byte	.LVL211
 9246 0c0f 5E000000 		.4byte	.LVL215
 9247 0c13 0600     		.2byte	0x6
 9248 0c15 72       		.byte	0x72
 9249 0c16 00       		.sleb128 0
ARM GAS  C:\Users\Phuong\AppData\Local\Temp\ccZ7UQ35.s 			page 184


 9250 0c17 08       		.byte	0x8
 9251 0c18 FF       		.byte	0xff
 9252 0c19 1A       		.byte	0x1a
 9253 0c1a 9F       		.byte	0x9f
 9254 0c1b 00000000 		.4byte	0
 9255 0c1f 00000000 		.4byte	0
 9256              	.LLST48:
 9257 0c23 2E000000 		.4byte	.LVL207
 9258 0c27 32000000 		.4byte	.LVL208
 9259 0c2b 0200     		.2byte	0x2
 9260 0c2d 40       		.byte	0x40
 9261 0c2e 9F       		.byte	0x9f
 9262 0c2f 32000000 		.4byte	.LVL208
 9263 0c33 48000000 		.4byte	.LVL210
 9264 0c37 0100     		.2byte	0x1
 9265 0c39 51       		.byte	0x51
 9266 0c3a 00000000 		.4byte	0
 9267 0c3e 00000000 		.4byte	0
 9268              	.LLST49:
 9269 0c42 1C000000 		.4byte	.LVL204
 9270 0c46 54000000 		.4byte	.LVL212
 9271 0c4a 0100     		.2byte	0x1
 9272 0c4c 54       		.byte	0x54
 9273 0c4d 54000000 		.4byte	.LVL212
 9274 0c51 58000000 		.4byte	.LVL213
 9275 0c55 0300     		.2byte	0x3
 9276 0c57 74       		.byte	0x74
 9277 0c58 7F       		.sleb128 -1
 9278 0c59 9F       		.byte	0x9f
 9279 0c5a 58000000 		.4byte	.LVL213
 9280 0c5e 6E000000 		.4byte	.LVL218
 9281 0c62 0100     		.2byte	0x1
 9282 0c64 54       		.byte	0x54
 9283 0c65 6E000000 		.4byte	.LVL218
 9284 0c69 78000000 		.4byte	.LFE9
 9285 0c6d 0200     		.2byte	0x2
 9286 0c6f 73       		.byte	0x73
 9287 0c70 00       		.sleb128 0
 9288 0c71 00000000 		.4byte	0
 9289 0c75 00000000 		.4byte	0
 9290              	.LLST50:
 9291 0c79 00000000 		.4byte	.LVL224
 9292 0c7d 14000000 		.4byte	.LVL225
 9293 0c81 0100     		.2byte	0x1
 9294 0c83 50       		.byte	0x50
 9295 0c84 14000000 		.4byte	.LVL225
 9296 0c88 2C000000 		.4byte	.LVL231
 9297 0c8c 0100     		.2byte	0x1
 9298 0c8e 58       		.byte	0x58
 9299 0c8f 2C000000 		.4byte	.LVL231
 9300 0c93 3F000000 		.4byte	.LVL232-1
 9301 0c97 0100     		.2byte	0x1
 9302 0c99 53       		.byte	0x53
 9303 0c9a 3F000000 		.4byte	.LVL232-1
 9304 0c9e F4000000 		.4byte	.LVL239
 9305 0ca2 0100     		.2byte	0x1
 9306 0ca4 58       		.byte	0x58
ARM GAS  C:\Users\Phuong\AppData\Local\Temp\ccZ7UQ35.s 			page 185


 9307 0ca5 F4000000 		.4byte	.LVL239
 9308 0ca9 F9000000 		.4byte	.LVL240-1
 9309 0cad 0100     		.2byte	0x1
 9310 0caf 53       		.byte	0x53
 9311 0cb0 F9000000 		.4byte	.LVL240-1
 9312 0cb4 0A010000 		.4byte	.LVL242
 9313 0cb8 0100     		.2byte	0x1
 9314 0cba 58       		.byte	0x58
 9315 0cbb 0A010000 		.4byte	.LVL242
 9316 0cbf 0F010000 		.4byte	.LVL243-1
 9317 0cc3 0100     		.2byte	0x1
 9318 0cc5 53       		.byte	0x53
 9319 0cc6 0F010000 		.4byte	.LVL243-1
 9320 0cca 22010000 		.4byte	.LVL245
 9321 0cce 0100     		.2byte	0x1
 9322 0cd0 58       		.byte	0x58
 9323 0cd1 22010000 		.4byte	.LVL245
 9324 0cd5 27010000 		.4byte	.LVL246-1
 9325 0cd9 0100     		.2byte	0x1
 9326 0cdb 53       		.byte	0x53
 9327 0cdc 27010000 		.4byte	.LVL246-1
 9328 0ce0 3C010000 		.4byte	.LVL251
 9329 0ce4 0100     		.2byte	0x1
 9330 0ce6 58       		.byte	0x58
 9331 0ce7 3C010000 		.4byte	.LVL251
 9332 0ceb 4F010000 		.4byte	.LVL252-1
 9333 0cef 0100     		.2byte	0x1
 9334 0cf1 53       		.byte	0x53
 9335 0cf2 4F010000 		.4byte	.LVL252-1
 9336 0cf6 42020000 		.4byte	.LVL261
 9337 0cfa 0100     		.2byte	0x1
 9338 0cfc 58       		.byte	0x58
 9339 0cfd 42020000 		.4byte	.LVL261
 9340 0d01 47020000 		.4byte	.LVL262-1
 9341 0d05 0100     		.2byte	0x1
 9342 0d07 53       		.byte	0x53
 9343 0d08 47020000 		.4byte	.LVL262-1
 9344 0d0c 58020000 		.4byte	.LVL264
 9345 0d10 0100     		.2byte	0x1
 9346 0d12 58       		.byte	0x58
 9347 0d13 58020000 		.4byte	.LVL264
 9348 0d17 5D020000 		.4byte	.LVL265-1
 9349 0d1b 0100     		.2byte	0x1
 9350 0d1d 53       		.byte	0x53
 9351 0d1e 5D020000 		.4byte	.LVL265-1
 9352 0d22 72020000 		.4byte	.LVL267
 9353 0d26 0100     		.2byte	0x1
 9354 0d28 58       		.byte	0x58
 9355 0d29 72020000 		.4byte	.LVL267
 9356 0d2d 77020000 		.4byte	.LVL268-1
 9357 0d31 0100     		.2byte	0x1
 9358 0d33 53       		.byte	0x53
 9359 0d34 77020000 		.4byte	.LVL268-1
 9360 0d38 8C020000 		.4byte	.LVL273
 9361 0d3c 0100     		.2byte	0x1
 9362 0d3e 58       		.byte	0x58
 9363 0d3f 8C020000 		.4byte	.LVL273
ARM GAS  C:\Users\Phuong\AppData\Local\Temp\ccZ7UQ35.s 			page 186


 9364 0d43 9B020000 		.4byte	.LVL274-1
 9365 0d47 0100     		.2byte	0x1
 9366 0d49 53       		.byte	0x53
 9367 0d4a 9B020000 		.4byte	.LVL274-1
 9368 0d4e 20030000 		.4byte	.LVL284
 9369 0d52 0100     		.2byte	0x1
 9370 0d54 58       		.byte	0x58
 9371 0d55 20030000 		.4byte	.LVL284
 9372 0d59 25030000 		.4byte	.LVL285-1
 9373 0d5d 0100     		.2byte	0x1
 9374 0d5f 53       		.byte	0x53
 9375 0d60 25030000 		.4byte	.LVL285-1
 9376 0d64 7C030000 		.4byte	.LVL295
 9377 0d68 0100     		.2byte	0x1
 9378 0d6a 58       		.byte	0x58
 9379 0d6b 7C030000 		.4byte	.LVL295
 9380 0d6f 81030000 		.4byte	.LVL296-1
 9381 0d73 0100     		.2byte	0x1
 9382 0d75 53       		.byte	0x53
 9383 0d76 81030000 		.4byte	.LVL296-1
 9384 0d7a C6030000 		.4byte	.LVL299
 9385 0d7e 0100     		.2byte	0x1
 9386 0d80 58       		.byte	0x58
 9387 0d81 C6030000 		.4byte	.LVL299
 9388 0d85 CB030000 		.4byte	.LVL300-1
 9389 0d89 0100     		.2byte	0x1
 9390 0d8b 53       		.byte	0x53
 9391 0d8c CB030000 		.4byte	.LVL300-1
 9392 0d90 E0030000 		.4byte	.LVL303
 9393 0d94 0100     		.2byte	0x1
 9394 0d96 58       		.byte	0x58
 9395 0d97 E0030000 		.4byte	.LVL303
 9396 0d9b E5030000 		.4byte	.LVL304-1
 9397 0d9f 0100     		.2byte	0x1
 9398 0da1 53       		.byte	0x53
 9399 0da2 E5030000 		.4byte	.LVL304-1
 9400 0da6 EA030000 		.4byte	.LVL305
 9401 0daa 0100     		.2byte	0x1
 9402 0dac 58       		.byte	0x58
 9403 0dad EA030000 		.4byte	.LVL305
 9404 0db1 FC030000 		.4byte	.LVL312
 9405 0db5 0100     		.2byte	0x1
 9406 0db7 53       		.byte	0x53
 9407 0db8 FC030000 		.4byte	.LVL312
 9408 0dbc FE030000 		.4byte	.LVL313
 9409 0dc0 0100     		.2byte	0x1
 9410 0dc2 58       		.byte	0x58
 9411 0dc3 FE030000 		.4byte	.LVL313
 9412 0dc7 0C040000 		.4byte	.LFE10
 9413 0dcb 0400     		.2byte	0x4
 9414 0dcd F3       		.byte	0xf3
 9415 0dce 01       		.uleb128 0x1
 9416 0dcf 50       		.byte	0x50
 9417 0dd0 9F       		.byte	0x9f
 9418 0dd1 00000000 		.4byte	0
 9419 0dd5 00000000 		.4byte	0
 9420              	.LLST51:
ARM GAS  C:\Users\Phuong\AppData\Local\Temp\ccZ7UQ35.s 			page 187


 9421 0dd9 44000000 		.4byte	.LVL233
 9422 0ddd 16010000 		.4byte	.LVL244
 9423 0de1 0100     		.2byte	0x1
 9424 0de3 54       		.byte	0x54
 9425 0de4 9C010000 		.4byte	.LVL256
 9426 0de8 64020000 		.4byte	.LVL266
 9427 0dec 0100     		.2byte	0x1
 9428 0dee 54       		.byte	0x54
 9429 0def 7E020000 		.4byte	.LVL269
 9430 0df3 80020000 		.4byte	.LVL270
 9431 0df7 0100     		.2byte	0x1
 9432 0df9 53       		.byte	0x53
 9433 0dfa 80020000 		.4byte	.LVL270
 9434 0dfe EA030000 		.4byte	.LVL305
 9435 0e02 0100     		.2byte	0x1
 9436 0e04 5A       		.byte	0x5a
 9437 0e05 EA030000 		.4byte	.LVL305
 9438 0e09 F2030000 		.4byte	.LVL307
 9439 0e0d 0100     		.2byte	0x1
 9440 0e0f 54       		.byte	0x54
 9441 0e10 F2030000 		.4byte	.LVL307
 9442 0e14 FC030000 		.4byte	.LVL312
 9443 0e18 0100     		.2byte	0x1
 9444 0e1a 5A       		.byte	0x5a
 9445 0e1b 00000000 		.4byte	0
 9446 0e1f 00000000 		.4byte	0
 9447              	.LLST52:
 9448 0e23 18000000 		.4byte	.LVL226
 9449 0e27 1E000000 		.4byte	.LVL227
 9450 0e2b 0200     		.2byte	0x2
 9451 0e2d 30       		.byte	0x30
 9452 0e2e 9F       		.byte	0x9f
 9453 0e2f 1E000000 		.4byte	.LVL227
 9454 0e33 20000000 		.4byte	.LVL228
 9455 0e37 0100     		.2byte	0x1
 9456 0e39 53       		.byte	0x53
 9457 0e3a 20000000 		.4byte	.LVL228
 9458 0e3e 2E010000 		.4byte	.LVL247
 9459 0e42 0100     		.2byte	0x1
 9460 0e44 5A       		.byte	0x5a
 9461 0e45 2E010000 		.4byte	.LVL247
 9462 0e49 30010000 		.4byte	.LVL248
 9463 0e4d 0100     		.2byte	0x1
 9464 0e4f 53       		.byte	0x53
 9465 0e50 30010000 		.4byte	.LVL248
 9466 0e54 7E020000 		.4byte	.LVL269
 9467 0e58 0100     		.2byte	0x1
 9468 0e5a 59       		.byte	0x59
 9469 0e5b EA030000 		.4byte	.LVL305
 9470 0e5f EE030000 		.4byte	.LVL306
 9471 0e63 0100     		.2byte	0x1
 9472 0e65 5A       		.byte	0x5a
 9473 0e66 EE030000 		.4byte	.LVL306
 9474 0e6a F2030000 		.4byte	.LVL307
 9475 0e6e 0100     		.2byte	0x1
 9476 0e70 59       		.byte	0x59
 9477 0e71 00000000 		.4byte	0
ARM GAS  C:\Users\Phuong\AppData\Local\Temp\ccZ7UQ35.s 			page 188


 9478 0e75 00000000 		.4byte	0
 9479              	.LLST53:
 9480 0e79 22000000 		.4byte	.LVL229
 9481 0e7d 16010000 		.4byte	.LVL244
 9482 0e81 0100     		.2byte	0x1
 9483 0e83 56       		.byte	0x56
 9484 0e84 32010000 		.4byte	.LVL249
 9485 0e88 64020000 		.4byte	.LVL266
 9486 0e8c 0100     		.2byte	0x1
 9487 0e8e 57       		.byte	0x57
 9488 0e8f 82020000 		.4byte	.LVL271
 9489 0e93 06030000 		.4byte	.LVL282
 9490 0e97 0100     		.2byte	0x1
 9491 0e99 54       		.byte	0x54
 9492 0e9a 06030000 		.4byte	.LVL282
 9493 0e9e 2A030000 		.4byte	.LVL287
 9494 0ea2 0500     		.2byte	0x5
 9495 0ea4 7A       		.byte	0x7a
 9496 0ea5 00       		.sleb128 0
 9497 0ea6 31       		.byte	0x31
 9498 0ea7 26       		.byte	0x26
 9499 0ea8 9F       		.byte	0x9f
 9500 0ea9 2A030000 		.4byte	.LVL287
 9501 0ead 66030000 		.4byte	.LVL293
 9502 0eb1 0100     		.2byte	0x1
 9503 0eb3 54       		.byte	0x54
 9504 0eb4 66030000 		.4byte	.LVL293
 9505 0eb8 D2030000 		.4byte	.LVL302
 9506 0ebc 0500     		.2byte	0x5
 9507 0ebe 7A       		.byte	0x7a
 9508 0ebf 00       		.sleb128 0
 9509 0ec0 31       		.byte	0x31
 9510 0ec1 26       		.byte	0x26
 9511 0ec2 9F       		.byte	0x9f
 9512 0ec3 EA030000 		.4byte	.LVL305
 9513 0ec7 EE030000 		.4byte	.LVL306
 9514 0ecb 0100     		.2byte	0x1
 9515 0ecd 56       		.byte	0x56
 9516 0ece EE030000 		.4byte	.LVL306
 9517 0ed2 F2030000 		.4byte	.LVL307
 9518 0ed6 0100     		.2byte	0x1
 9519 0ed8 57       		.byte	0x57
 9520 0ed9 F2030000 		.4byte	.LVL307
 9521 0edd FA030000 		.4byte	.LVL311
 9522 0ee1 0500     		.2byte	0x5
 9523 0ee3 7A       		.byte	0x7a
 9524 0ee4 00       		.sleb128 0
 9525 0ee5 31       		.byte	0x31
 9526 0ee6 26       		.byte	0x26
 9527 0ee7 9F       		.byte	0x9f
 9528 0ee8 00000000 		.4byte	0
 9529 0eec 00000000 		.4byte	0
 9530              	.LLST54:
 9531 0ef0 26000000 		.4byte	.LVL230
 9532 0ef4 16010000 		.4byte	.LVL244
 9533 0ef8 0100     		.2byte	0x1
 9534 0efa 55       		.byte	0x55
ARM GAS  C:\Users\Phuong\AppData\Local\Temp\ccZ7UQ35.s 			page 189


 9535 0efb 36010000 		.4byte	.LVL250
 9536 0eff 64020000 		.4byte	.LVL266
 9537 0f03 0100     		.2byte	0x1
 9538 0f05 55       		.byte	0x55
 9539 0f06 86020000 		.4byte	.LVL272
 9540 0f0a E8020000 		.4byte	.LVL279
 9541 0f0e 0100     		.2byte	0x1
 9542 0f10 55       		.byte	0x55
 9543 0f11 E8020000 		.4byte	.LVL279
 9544 0f15 28030000 		.4byte	.LVL286
 9545 0f19 0500     		.2byte	0x5
 9546 0f1b 7A       		.byte	0x7a
 9547 0f1c 00       		.sleb128 0
 9548 0f1d 31       		.byte	0x31
 9549 0f1e 1A       		.byte	0x1a
 9550 0f1f 9F       		.byte	0x9f
 9551 0f20 28030000 		.4byte	.LVL286
 9552 0f24 2A030000 		.4byte	.LVL287
 9553 0f28 0600     		.2byte	0x6
 9554 0f2a 70       		.byte	0x70
 9555 0f2b 00       		.sleb128 0
 9556 0f2c 7A       		.byte	0x7a
 9557 0f2d 00       		.sleb128 0
 9558 0f2e 1A       		.byte	0x1a
 9559 0f2f 9F       		.byte	0x9f
 9560 0f30 2A030000 		.4byte	.LVL287
 9561 0f34 44030000 		.4byte	.LVL290
 9562 0f38 0100     		.2byte	0x1
 9563 0f3a 55       		.byte	0x55
 9564 0f3b 44030000 		.4byte	.LVL290
 9565 0f3f 84030000 		.4byte	.LVL297
 9566 0f43 0500     		.2byte	0x5
 9567 0f45 7A       		.byte	0x7a
 9568 0f46 00       		.sleb128 0
 9569 0f47 31       		.byte	0x31
 9570 0f48 1A       		.byte	0x1a
 9571 0f49 9F       		.byte	0x9f
 9572 0f4a 84030000 		.4byte	.LVL297
 9573 0f4e C0030000 		.4byte	.LVL298
 9574 0f52 0600     		.2byte	0x6
 9575 0f54 70       		.byte	0x70
 9576 0f55 00       		.sleb128 0
 9577 0f56 7A       		.byte	0x7a
 9578 0f57 00       		.sleb128 0
 9579 0f58 1A       		.byte	0x1a
 9580 0f59 9F       		.byte	0x9f
 9581 0f5a C0030000 		.4byte	.LVL298
 9582 0f5e CE030000 		.4byte	.LVL301
 9583 0f62 0500     		.2byte	0x5
 9584 0f64 7A       		.byte	0x7a
 9585 0f65 00       		.sleb128 0
 9586 0f66 31       		.byte	0x31
 9587 0f67 1A       		.byte	0x1a
 9588 0f68 9F       		.byte	0x9f
 9589 0f69 CE030000 		.4byte	.LVL301
 9590 0f6d D2030000 		.4byte	.LVL302
 9591 0f71 0600     		.2byte	0x6
ARM GAS  C:\Users\Phuong\AppData\Local\Temp\ccZ7UQ35.s 			page 190


 9592 0f73 73       		.byte	0x73
 9593 0f74 00       		.sleb128 0
 9594 0f75 7A       		.byte	0x7a
 9595 0f76 00       		.sleb128 0
 9596 0f77 1A       		.byte	0x1a
 9597 0f78 9F       		.byte	0x9f
 9598 0f79 EA030000 		.4byte	.LVL305
 9599 0f7d F2030000 		.4byte	.LVL307
 9600 0f81 0100     		.2byte	0x1
 9601 0f83 55       		.byte	0x55
 9602 0f84 F2030000 		.4byte	.LVL307
 9603 0f88 F4030000 		.4byte	.LVL308
 9604 0f8c 0500     		.2byte	0x5
 9605 0f8e 7A       		.byte	0x7a
 9606 0f8f 00       		.sleb128 0
 9607 0f90 31       		.byte	0x31
 9608 0f91 1A       		.byte	0x1a
 9609 0f92 9F       		.byte	0x9f
 9610 0f93 F4030000 		.4byte	.LVL308
 9611 0f97 F6030000 		.4byte	.LVL309
 9612 0f9b 0600     		.2byte	0x6
 9613 0f9d 70       		.byte	0x70
 9614 0f9e 00       		.sleb128 0
 9615 0f9f 7A       		.byte	0x7a
 9616 0fa0 00       		.sleb128 0
 9617 0fa1 1A       		.byte	0x1a
 9618 0fa2 9F       		.byte	0x9f
 9619 0fa3 F6030000 		.4byte	.LVL309
 9620 0fa7 F8030000 		.4byte	.LVL310
 9621 0fab 0500     		.2byte	0x5
 9622 0fad 7A       		.byte	0x7a
 9623 0fae 00       		.sleb128 0
 9624 0faf 31       		.byte	0x31
 9625 0fb0 1A       		.byte	0x1a
 9626 0fb1 9F       		.byte	0x9f
 9627 0fb2 F8030000 		.4byte	.LVL310
 9628 0fb6 FA030000 		.4byte	.LVL311
 9629 0fba 0600     		.2byte	0x6
 9630 0fbc 70       		.byte	0x70
 9631 0fbd 00       		.sleb128 0
 9632 0fbe 7A       		.byte	0x7a
 9633 0fbf 00       		.sleb128 0
 9634 0fc0 1A       		.byte	0x1a
 9635 0fc1 9F       		.byte	0x9f
 9636 0fc2 00000000 		.4byte	0
 9637 0fc6 00000000 		.4byte	0
 9638              	.LLST55:
 9639 0fca DA020000 		.4byte	.LVL277
 9640 0fce DC020000 		.4byte	.LVL278
 9641 0fd2 0100     		.2byte	0x1
 9642 0fd4 53       		.byte	0x53
 9643 0fd5 DC020000 		.4byte	.LVL278
 9644 0fd9 2A030000 		.4byte	.LVL287
 9645 0fdd 0100     		.2byte	0x1
 9646 0fdf 57       		.byte	0x57
 9647 0fe0 36030000 		.4byte	.LVL288
 9648 0fe4 3C030000 		.4byte	.LVL289
ARM GAS  C:\Users\Phuong\AppData\Local\Temp\ccZ7UQ35.s 			page 191


 9649 0fe8 0100     		.2byte	0x1
 9650 0fea 53       		.byte	0x53
 9651 0feb 3C030000 		.4byte	.LVL289
 9652 0fef D2030000 		.4byte	.LVL302
 9653 0ff3 0100     		.2byte	0x1
 9654 0ff5 57       		.byte	0x57
 9655 0ff6 F2030000 		.4byte	.LVL307
 9656 0ffa FA030000 		.4byte	.LVL311
 9657 0ffe 0100     		.2byte	0x1
 9658 1000 57       		.byte	0x57
 9659 1001 00000000 		.4byte	0
 9660 1005 00000000 		.4byte	0
 9661              		.section	.debug_aranges,"",%progbits
 9662 0000 64000000 		.4byte	0x64
 9663 0004 0200     		.2byte	0x2
 9664 0006 00000000 		.4byte	.Ldebug_info0
 9665 000a 04       		.byte	0x4
 9666 000b 00       		.byte	0
 9667 000c 0000     		.2byte	0
 9668 000e 0000     		.2byte	0
 9669 0010 00000000 		.4byte	.LFB1
 9670 0014 B0000000 		.4byte	.LFE1-.LFB1
 9671 0018 00000000 		.4byte	.LFB2
 9672 001c 0E000000 		.4byte	.LFE2-.LFB2
 9673 0020 00000000 		.4byte	.LFB3
 9674 0024 10000000 		.4byte	.LFE3-.LFB3
 9675 0028 00000000 		.4byte	.LFB4
 9676 002c 38050000 		.4byte	.LFE4-.LFB4
 9677 0030 00000000 		.4byte	.LFB5
 9678 0034 84000000 		.4byte	.LFE5-.LFB5
 9679 0038 00000000 		.4byte	.LFB6
 9680 003c 66010000 		.4byte	.LFE6-.LFB6
 9681 0040 00000000 		.4byte	.LFB7
 9682 0044 9A000000 		.4byte	.LFE7-.LFB7
 9683 0048 00000000 		.4byte	.LFB8
 9684 004c 8E000000 		.4byte	.LFE8-.LFB8
 9685 0050 00000000 		.4byte	.LFB9
 9686 0054 78000000 		.4byte	.LFE9-.LFB9
 9687 0058 00000000 		.4byte	.LFB10
 9688 005c 0C040000 		.4byte	.LFE10-.LFB10
 9689 0060 00000000 		.4byte	0
 9690 0064 00000000 		.4byte	0
 9691              		.section	.debug_ranges,"",%progbits
 9692              	.Ldebug_ranges0:
 9693 0000 00000000 		.4byte	.LFB1
 9694 0004 B0000000 		.4byte	.LFE1
 9695 0008 00000000 		.4byte	.LFB2
 9696 000c 0E000000 		.4byte	.LFE2
 9697 0010 00000000 		.4byte	.LFB3
 9698 0014 10000000 		.4byte	.LFE3
 9699 0018 00000000 		.4byte	.LFB4
 9700 001c 38050000 		.4byte	.LFE4
 9701 0020 00000000 		.4byte	.LFB5
 9702 0024 84000000 		.4byte	.LFE5
 9703 0028 00000000 		.4byte	.LFB6
 9704 002c 66010000 		.4byte	.LFE6
 9705 0030 00000000 		.4byte	.LFB7
ARM GAS  C:\Users\Phuong\AppData\Local\Temp\ccZ7UQ35.s 			page 192


 9706 0034 9A000000 		.4byte	.LFE7
 9707 0038 00000000 		.4byte	.LFB8
 9708 003c 8E000000 		.4byte	.LFE8
 9709 0040 00000000 		.4byte	.LFB9
 9710 0044 78000000 		.4byte	.LFE9
 9711 0048 00000000 		.4byte	.LFB10
 9712 004c 0C040000 		.4byte	.LFE10
 9713 0050 00000000 		.4byte	0
 9714 0054 00000000 		.4byte	0
 9715              		.section	.debug_line,"",%progbits
 9716              	.Ldebug_line0:
 9717 0000 6C060000 		.section	.debug_str,"MS",%progbits,1
 9717      02009002 
 9717      00000201 
 9717      FB0E0D00 
 9717      01010101 
 9718              	.LASF64:
 9719 0000 5F5F6275 		.ascii	"__builtin_puts\000"
 9719      696C7469 
 9719      6E5F7075 
 9719      747300
 9720              	.LASF14:
 9721 000f 6D626564 		.ascii	"mbedtls_camellia_context\000"
 9721      746C735F 
 9721      63616D65 
 9721      6C6C6961 
 9721      5F636F6E 
 9722              	.LASF26:
 9723 0028 6D626564 		.ascii	"mbedtls_camellia_crypt_cbc\000"
 9723      746C735F 
 9723      63616D65 
 9723      6C6C6961 
 9723      5F637279 
 9724              	.LASF65:
 9725 0043 5F5F6275 		.ascii	"__builtin_putchar\000"
 9725      696C7469 
 9725      6E5F7075 
 9725      74636861 
 9725      7200
 9726              	.LASF0:
 9727 0055 7369676E 		.ascii	"signed char\000"
 9727      65642063 
 9727      68617200 
 9728              	.LASF28:
 9729 0061 74656D70 		.ascii	"temp\000"
 9729      00
 9730              	.LASF2:
 9731 0066 73686F72 		.ascii	"short int\000"
 9731      7420696E 
 9731      7400
 9732              	.LASF10:
 9733 0070 73697A65 		.ascii	"size_t\000"
 9733      5F7400
 9734              	.LASF24:
 9735 0077 696E7075 		.ascii	"input\000"
 9735      7400
 9736              	.LASF34:
ARM GAS  C:\Users\Phuong\AppData\Local\Temp\ccZ7UQ35.s 			page 193


 9737 007d 73747265 		.ascii	"stream_block\000"
 9737      616D5F62 
 9737      6C6F636B 
 9737      00
 9738              	.LASF22:
 9739 008a 6D626564 		.ascii	"mbedtls_camellia_crypt_ecb\000"
 9739      746C735F 
 9739      63616D65 
 9739      6C6C6961 
 9739      5F637279 
 9740              	.LASF63:
 9741 00a5 70757463 		.ascii	"putchar\000"
 9741      68617200 
 9742              	.LASF66:
 9743 00ad 474E5520 		.ascii	"GNU C11 5.4.1 20160609 (release) [ARM/embedded-5-br"
 9743      43313120 
 9743      352E342E 
 9743      31203230 
 9743      31363036 
 9744 00e0 616E6368 		.ascii	"anch revision 237715] -mcpu=cortex-m0plus -mthumb -"
 9744      20726576 
 9744      6973696F 
 9744      6E203233 
 9744      37373135 
 9745 0113 67202D4F 		.ascii	"g -Og -ffunction-sections -ffat-lto-objects\000"
 9745      67202D66 
 9745      66756E63 
 9745      74696F6E 
 9745      2D736563 
 9746              	.LASF69:
 9747 013f 63616D65 		.ascii	"camellia_feistel\000"
 9747      6C6C6961 
 9747      5F666569 
 9747      7374656C 
 9747      00
 9748              	.LASF47:
 9749 0150 63616D65 		.ascii	"camellia_test_ecb_cipher\000"
 9749      6C6C6961 
 9749      5F746573 
 9749      745F6563 
 9749      625F6369 
 9750              	.LASF9:
 9751 0169 5F5F7569 		.ascii	"__uint32_t\000"
 9751      6E743332 
 9751      5F7400
 9752              	.LASF23:
 9753 0174 6D6F6465 		.ascii	"mode\000"
 9753      00
 9754              	.LASF33:
 9755 0179 6E6F6E63 		.ascii	"nonce_counter\000"
 9755      655F636F 
 9755      756E7465 
 9755      7200
 9756              	.LASF58:
 9757 0187 6D656D63 		.ascii	"memcpy\000"
 9757      707900
 9758              	.LASF32:
ARM GAS  C:\Users\Phuong\AppData\Local\Temp\ccZ7UQ35.s 			page 194


 9759 018e 6E635F6F 		.ascii	"nc_off\000"
 9759      666600
 9760              	.LASF67:
 9761 0195 536F7572 		.ascii	"Source\\mbedtls_open\\library\\camellia.c\000"
 9761      63655C6D 
 9761      62656474 
 9761      6C735F6F 
 9761      70656E5C 
 9762              	.LASF12:
 9763 01bc 75696E74 		.ascii	"uint32_t\000"
 9763      33325F74 
 9763      00
 9764              	.LASF36:
 9765 01c5 76657262 		.ascii	"verbose\000"
 9765      6F736500 
 9766              	.LASF29:
 9767 01cd 6D626564 		.ascii	"mbedtls_camellia_crypt_cfb128\000"
 9767      746C735F 
 9767      63616D65 
 9767      6C6C6961 
 9767      5F637279 
 9768              	.LASF27:
 9769 01eb 6C656E67 		.ascii	"length\000"
 9769      746800
 9770              	.LASF11:
 9771 01f2 6C6F6E67 		.ascii	"long double\000"
 9771      20646F75 
 9771      626C6500 
 9772              	.LASF61:
 9773 01fe 6D656D63 		.ascii	"memcmp\000"
 9773      6D7000
 9774              	.LASF6:
 9775 0205 6C6F6E67 		.ascii	"long long int\000"
 9775      206C6F6E 
 9775      6720696E 
 9775      7400
 9776              	.LASF57:
 9777 0213 6D656D73 		.ascii	"memset\000"
 9777      657400
 9778              	.LASF4:
 9779 021a 6C6F6E67 		.ascii	"long int\000"
 9779      20696E74 
 9779      00
 9780              	.LASF37:
 9781 0223 6F666673 		.ascii	"offset\000"
 9781      657400
 9782              	.LASF46:
 9783 022a 63616D65 		.ascii	"camellia_test_ecb_plain\000"
 9783      6C6C6961 
 9783      5F746573 
 9783      745F6563 
 9783      625F706C 
 9784              	.LASF70:
 9785 0242 65786974 		.ascii	"exit\000"
 9785      00
 9786              	.LASF45:
 9787 0247 63616D65 		.ascii	"camellia_test_ecb_key\000"
ARM GAS  C:\Users\Phuong\AppData\Local\Temp\ccZ7UQ35.s 			page 195


 9787      6C6C6961 
 9787      5F746573 
 9787      745F6563 
 9787      625F6B65 
 9788              	.LASF59:
 9789 025d 6D626564 		.ascii	"mbedtls_platform_zeroize\000"
 9789      746C735F 
 9789      706C6174 
 9789      666F726D 
 9789      5F7A6572 
 9790              	.LASF1:
 9791 0276 756E7369 		.ascii	"unsigned char\000"
 9791      676E6564 
 9791      20636861 
 9791      7200
 9792              	.LASF43:
 9793 0284 696E6465 		.ascii	"indexes\000"
 9793      78657300 
 9794              	.LASF55:
 9795 028c 63616D65 		.ascii	"camellia_test_ctr_ct\000"
 9795      6C6C6961 
 9795      5F746573 
 9795      745F6374 
 9795      725F6374 
 9796              	.LASF68:
 9797 02a1 433A5C55 		.ascii	"C:\\Users\\Phuong\\Documents\\PSoC Creator\\Dec0820"
 9797      73657273 
 9797      5C506875 
 9797      6F6E675C 
 9797      446F6375 
 9798 02cf 31385C69 		.ascii	"18\\iot-sdk-iot-dev\\PSOC6_FreeRTOS+LwIP+MbedTLS_Az"
 9798      6F742D73 
 9798      646B2D69 
 9798      6F742D64 
 9798      65765C50 
 9799 0300 7572652D 		.ascii	"ure-IOT-Hub-Demo\\PSOC6_FreeRTOS+LwIP+MbedTLS_Azure"
 9799      494F542D 
 9799      4875622D 
 9799      44656D6F 
 9799      5C50534F 
 9800 0332 2D494F54 		.ascii	"-IOT-Hub-Demo.cydsn\000"
 9800      2D487562 
 9800      2D44656D 
 9800      6F2E6379 
 9800      64736E00 
 9801              	.LASF50:
 9802 0346 63616D65 		.ascii	"camellia_test_cbc_plain\000"
 9802      6C6C6961 
 9802      5F746573 
 9802      745F6362 
 9802      635F706C 
 9803              	.LASF53:
 9804 035e 63616D65 		.ascii	"camellia_test_ctr_nonce_counter\000"
 9804      6C6C6961 
 9804      5F746573 
 9804      745F6374 
 9804      725F6E6F 
ARM GAS  C:\Users\Phuong\AppData\Local\Temp\ccZ7UQ35.s 			page 196


 9805              	.LASF7:
 9806 037e 6C6F6E67 		.ascii	"long long unsigned int\000"
 9806      206C6F6E 
 9806      6720756E 
 9806      7369676E 
 9806      65642069 
 9807              	.LASF8:
 9808 0395 756E7369 		.ascii	"unsigned int\000"
 9808      676E6564 
 9808      20696E74 
 9808      00
 9809              	.LASF39:
 9810 03a2 46536232 		.ascii	"FSb2\000"
 9810      00
 9811              	.LASF40:
 9812 03a7 46536233 		.ascii	"FSb3\000"
 9812      00
 9813              	.LASF41:
 9814 03ac 46536234 		.ascii	"FSb4\000"
 9814      00
 9815              	.LASF62:
 9816 03b1 70757473 		.ascii	"puts\000"
 9816      00
 9817              	.LASF48:
 9818 03b6 63616D65 		.ascii	"camellia_test_cbc_key\000"
 9818      6C6C6961 
 9818      5F746573 
 9818      745F6362 
 9818      635F6B65 
 9819              	.LASF3:
 9820 03cc 73686F72 		.ascii	"short unsigned int\000"
 9820      7420756E 
 9820      7369676E 
 9820      65642069 
 9820      6E7400
 9821              	.LASF15:
 9822 03df 63686172 		.ascii	"char\000"
 9822      00
 9823              	.LASF51:
 9824 03e4 63616D65 		.ascii	"camellia_test_cbc_cipher\000"
 9824      6C6C6961 
 9824      5F746573 
 9824      745F6362 
 9824      635F6369 
 9825              	.LASF60:
 9826 03fd 7072696E 		.ascii	"printf\000"
 9826      746600
 9827              	.LASF35:
 9828 0404 6D626564 		.ascii	"mbedtls_camellia_self_test\000"
 9828      746C735F 
 9828      63616D65 
 9828      6C6C6961 
 9828      5F73656C 
 9829              	.LASF19:
 9830 041f 5349474D 		.ascii	"SIGMA\000"
 9830      4100
 9831              	.LASF56:
ARM GAS  C:\Users\Phuong\AppData\Local\Temp\ccZ7UQ35.s 			page 197


 9832 0425 63616D65 		.ascii	"camellia_test_ctr_len\000"
 9832      6C6C6961 
 9832      5F746573 
 9832      745F6374 
 9832      725F6C65 
 9833              	.LASF21:
 9834 043b 6D626564 		.ascii	"mbedtls_camellia_setkey_dec\000"
 9834      746C735F 
 9834      63616D65 
 9834      6C6C6961 
 9834      5F736574 
 9835              	.LASF5:
 9836 0457 6C6F6E67 		.ascii	"long unsigned int\000"
 9836      20756E73 
 9836      69676E65 
 9836      6420696E 
 9836      7400
 9837              	.LASF17:
 9838 0469 6D626564 		.ascii	"mbedtls_camellia_free\000"
 9838      746C735F 
 9838      63616D65 
 9838      6C6C6961 
 9838      5F667265 
 9839              	.LASF44:
 9840 047f 7472616E 		.ascii	"transposes\000"
 9840      73706F73 
 9840      657300
 9841              	.LASF42:
 9842 048a 73686966 		.ascii	"shifts\000"
 9842      747300
 9843              	.LASF52:
 9844 0491 63616D65 		.ascii	"camellia_test_ctr_key\000"
 9844      6C6C6961 
 9844      5F746573 
 9844      745F6374 
 9844      725F6B65 
 9845              	.LASF13:
 9846 04a7 73697A65 		.ascii	"sizetype\000"
 9846      74797065 
 9846      00
 9847              	.LASF25:
 9848 04b0 6F757470 		.ascii	"output\000"
 9848      757400
 9849              	.LASF30:
 9850 04b7 69765F6F 		.ascii	"iv_off\000"
 9850      666600
 9851              	.LASF49:
 9852 04be 63616D65 		.ascii	"camellia_test_cbc_iv\000"
 9852      6C6C6961 
 9852      5F746573 
 9852      745F6362 
 9852      635F6976 
 9853              	.LASF16:
 9854 04d3 6D626564 		.ascii	"mbedtls_camellia_init\000"
 9854      746C735F 
 9854      63616D65 
 9854      6C6C6961 
ARM GAS  C:\Users\Phuong\AppData\Local\Temp\ccZ7UQ35.s 			page 198


 9854      5F696E69 
 9855              	.LASF38:
 9856 04e9 5349474D 		.ascii	"SIGMA_CHARS\000"
 9856      415F4348 
 9856      41525300 
 9857              	.LASF31:
 9858 04f5 6D626564 		.ascii	"mbedtls_camellia_crypt_ctr\000"
 9858      746C735F 
 9858      63616D65 
 9858      6C6C6961 
 9858      5F637279 
 9859              	.LASF18:
 9860 0510 6B657962 		.ascii	"keybits\000"
 9860      69747300 
 9861              	.LASF54:
 9862 0518 63616D65 		.ascii	"camellia_test_ctr_pt\000"
 9862      6C6C6961 
 9862      5F746573 
 9862      745F6374 
 9862      725F7074 
 9863              	.LASF20:
 9864 052d 6D626564 		.ascii	"mbedtls_camellia_setkey_enc\000"
 9864      746C735F 
 9864      63616D65 
 9864      6C6C6961 
 9864      5F736574 
 9865              		.ident	"GCC: (GNU Tools for ARM Embedded Processors) 5.4.1 20160609 (release) [ARM/embedded-5-bran
