ARM GAS  C:\Users\Phuong\AppData\Local\Temp\ccZ7UQ35.s 			page 1


   1              		.syntax unified
   2              		.cpu cortex-m0plus
   3              		.fpu softvfp
   4              		.eabi_attribute 20, 1
   5              		.eabi_attribute 21, 1
   6              		.eabi_attribute 23, 3
   7              		.eabi_attribute 24, 1
   8              		.eabi_attribute 25, 1
   9              		.eabi_attribute 26, 1
  10              		.eabi_attribute 30, 1
  11              		.eabi_attribute 34, 0
  12              		.eabi_attribute 18, 4
  13              		.thumb
  14              		.syntax unified
  15              		.file	"camellia.c"
  16              		.text
  17              	.Ltext0:
  18              		.cfi_sections	.debug_frame
  19              		.section	.text.camellia_feistel,"ax",%progbits
  20              		.align	2
  21              		.code	16
  22              		.thumb_func
  23              		.type	camellia_feistel, %function
  24              	camellia_feistel:
  25              	.LFB1:
  26              		.file 1 "Source\\mbedtls_open\\library\\camellia.c"
   1:Source\mbedtls_open\library/camellia.c **** /*
   2:Source\mbedtls_open\library/camellia.c ****  *  Camellia implementation
   3:Source\mbedtls_open\library/camellia.c ****  *
   4:Source\mbedtls_open\library/camellia.c ****  *  Copyright (C) 2006-2015, ARM Limited, All Rights Reserved
   5:Source\mbedtls_open\library/camellia.c ****  *  SPDX-License-Identifier: Apache-2.0
   6:Source\mbedtls_open\library/camellia.c ****  *
   7:Source\mbedtls_open\library/camellia.c ****  *  Licensed under the Apache License, Version 2.0 (the "License"); you may
   8:Source\mbedtls_open\library/camellia.c ****  *  not use this file except in compliance with the License.
   9:Source\mbedtls_open\library/camellia.c ****  *  You may obtain a copy of the License at
  10:Source\mbedtls_open\library/camellia.c ****  *
  11:Source\mbedtls_open\library/camellia.c ****  *  http://www.apache.org/licenses/LICENSE-2.0
  12:Source\mbedtls_open\library/camellia.c ****  *
  13:Source\mbedtls_open\library/camellia.c ****  *  Unless required by applicable law or agreed to in writing, software
  14:Source\mbedtls_open\library/camellia.c ****  *  distributed under the License is distributed on an "AS IS" BASIS, WITHOUT
  15:Source\mbedtls_open\library/camellia.c ****  *  WARRANTIES OR CONDITIONS OF ANY KIND, either express or implied.
  16:Source\mbedtls_open\library/camellia.c ****  *  See the License for the specific language governing permissions and
  17:Source\mbedtls_open\library/camellia.c ****  *  limitations under the License.
  18:Source\mbedtls_open\library/camellia.c ****  *
  19:Source\mbedtls_open\library/camellia.c ****  *  This file is part of mbed TLS (https://tls.mbed.org)
  20:Source\mbedtls_open\library/camellia.c ****  */
  21:Source\mbedtls_open\library/camellia.c **** /*
  22:Source\mbedtls_open\library/camellia.c ****  *  The Camellia block cipher was designed by NTT and Mitsubishi Electric
  23:Source\mbedtls_open\library/camellia.c ****  *  Corporation.
  24:Source\mbedtls_open\library/camellia.c ****  *
  25:Source\mbedtls_open\library/camellia.c ****  *  http://info.isl.ntt.co.jp/crypt/eng/camellia/dl/01espec.pdf
  26:Source\mbedtls_open\library/camellia.c ****  */
  27:Source\mbedtls_open\library/camellia.c **** 
  28:Source\mbedtls_open\library/camellia.c **** #if !defined(MBEDTLS_CONFIG_FILE)
  29:Source\mbedtls_open\library/camellia.c **** #include "mbedtls/config.h"
  30:Source\mbedtls_open\library/camellia.c **** #else
  31:Source\mbedtls_open\library/camellia.c **** #include MBEDTLS_CONFIG_FILE
ARM GAS  C:\Users\Phuong\AppData\Local\Temp\ccZ7UQ35.s 			page 2


  32:Source\mbedtls_open\library/camellia.c **** #endif
  33:Source\mbedtls_open\library/camellia.c **** 
  34:Source\mbedtls_open\library/camellia.c **** #if defined(MBEDTLS_CAMELLIA_C)
  35:Source\mbedtls_open\library/camellia.c **** 
  36:Source\mbedtls_open\library/camellia.c **** #include "mbedtls/camellia.h"
  37:Source\mbedtls_open\library/camellia.c **** #include "mbedtls/platform_util.h"
  38:Source\mbedtls_open\library/camellia.c **** 
  39:Source\mbedtls_open\library/camellia.c **** #include <string.h>
  40:Source\mbedtls_open\library/camellia.c **** 
  41:Source\mbedtls_open\library/camellia.c **** #if defined(MBEDTLS_SELF_TEST)
  42:Source\mbedtls_open\library/camellia.c **** #if defined(MBEDTLS_PLATFORM_C)
  43:Source\mbedtls_open\library/camellia.c **** #include "mbedtls/platform.h"
  44:Source\mbedtls_open\library/camellia.c **** #else
  45:Source\mbedtls_open\library/camellia.c **** #include <stdio.h>
  46:Source\mbedtls_open\library/camellia.c **** #define mbedtls_printf printf
  47:Source\mbedtls_open\library/camellia.c **** #endif /* MBEDTLS_PLATFORM_C */
  48:Source\mbedtls_open\library/camellia.c **** #endif /* MBEDTLS_SELF_TEST */
  49:Source\mbedtls_open\library/camellia.c **** 
  50:Source\mbedtls_open\library/camellia.c **** #if !defined(MBEDTLS_CAMELLIA_ALT)
  51:Source\mbedtls_open\library/camellia.c **** 
  52:Source\mbedtls_open\library/camellia.c **** /*
  53:Source\mbedtls_open\library/camellia.c ****  * 32-bit integer manipulation macros (big endian)
  54:Source\mbedtls_open\library/camellia.c ****  */
  55:Source\mbedtls_open\library/camellia.c **** #ifndef GET_UINT32_BE
  56:Source\mbedtls_open\library/camellia.c **** #define GET_UINT32_BE(n,b,i)                            \
  57:Source\mbedtls_open\library/camellia.c **** {                                                       \
  58:Source\mbedtls_open\library/camellia.c ****     (n) = ( (uint32_t) (b)[(i)    ] << 24 )             \
  59:Source\mbedtls_open\library/camellia.c ****         | ( (uint32_t) (b)[(i) + 1] << 16 )             \
  60:Source\mbedtls_open\library/camellia.c ****         | ( (uint32_t) (b)[(i) + 2] <<  8 )             \
  61:Source\mbedtls_open\library/camellia.c ****         | ( (uint32_t) (b)[(i) + 3]       );            \
  62:Source\mbedtls_open\library/camellia.c **** }
  63:Source\mbedtls_open\library/camellia.c **** #endif
  64:Source\mbedtls_open\library/camellia.c **** 
  65:Source\mbedtls_open\library/camellia.c **** #ifndef PUT_UINT32_BE
  66:Source\mbedtls_open\library/camellia.c **** #define PUT_UINT32_BE(n,b,i)                            \
  67:Source\mbedtls_open\library/camellia.c **** {                                                       \
  68:Source\mbedtls_open\library/camellia.c ****     (b)[(i)    ] = (unsigned char) ( (n) >> 24 );       \
  69:Source\mbedtls_open\library/camellia.c ****     (b)[(i) + 1] = (unsigned char) ( (n) >> 16 );       \
  70:Source\mbedtls_open\library/camellia.c ****     (b)[(i) + 2] = (unsigned char) ( (n) >>  8 );       \
  71:Source\mbedtls_open\library/camellia.c ****     (b)[(i) + 3] = (unsigned char) ( (n)       );       \
  72:Source\mbedtls_open\library/camellia.c **** }
  73:Source\mbedtls_open\library/camellia.c **** #endif
  74:Source\mbedtls_open\library/camellia.c **** 
  75:Source\mbedtls_open\library/camellia.c **** static const unsigned char SIGMA_CHARS[6][8] =
  76:Source\mbedtls_open\library/camellia.c **** {
  77:Source\mbedtls_open\library/camellia.c ****     { 0xa0, 0x9e, 0x66, 0x7f, 0x3b, 0xcc, 0x90, 0x8b },
  78:Source\mbedtls_open\library/camellia.c ****     { 0xb6, 0x7a, 0xe8, 0x58, 0x4c, 0xaa, 0x73, 0xb2 },
  79:Source\mbedtls_open\library/camellia.c ****     { 0xc6, 0xef, 0x37, 0x2f, 0xe9, 0x4f, 0x82, 0xbe },
  80:Source\mbedtls_open\library/camellia.c ****     { 0x54, 0xff, 0x53, 0xa5, 0xf1, 0xd3, 0x6f, 0x1c },
  81:Source\mbedtls_open\library/camellia.c ****     { 0x10, 0xe5, 0x27, 0xfa, 0xde, 0x68, 0x2d, 0x1d },
  82:Source\mbedtls_open\library/camellia.c ****     { 0xb0, 0x56, 0x88, 0xc2, 0xb3, 0xe6, 0xc1, 0xfd }
  83:Source\mbedtls_open\library/camellia.c **** };
  84:Source\mbedtls_open\library/camellia.c **** 
  85:Source\mbedtls_open\library/camellia.c **** #if defined(MBEDTLS_CAMELLIA_SMALL_MEMORY)
  86:Source\mbedtls_open\library/camellia.c **** 
  87:Source\mbedtls_open\library/camellia.c **** static const unsigned char FSb[256] =
  88:Source\mbedtls_open\library/camellia.c **** {
ARM GAS  C:\Users\Phuong\AppData\Local\Temp\ccZ7UQ35.s 			page 3


  89:Source\mbedtls_open\library/camellia.c ****     112,130, 44,236,179, 39,192,229,228,133, 87, 53,234, 12,174, 65,
  90:Source\mbedtls_open\library/camellia.c ****      35,239,107,147, 69, 25,165, 33,237, 14, 79, 78, 29,101,146,189,
  91:Source\mbedtls_open\library/camellia.c ****     134,184,175,143,124,235, 31,206, 62, 48,220, 95, 94,197, 11, 26,
  92:Source\mbedtls_open\library/camellia.c ****     166,225, 57,202,213, 71, 93, 61,217,  1, 90,214, 81, 86,108, 77,
  93:Source\mbedtls_open\library/camellia.c ****     139, 13,154,102,251,204,176, 45,116, 18, 43, 32,240,177,132,153,
  94:Source\mbedtls_open\library/camellia.c ****     223, 76,203,194, 52,126,118,  5,109,183,169, 49,209, 23,  4,215,
  95:Source\mbedtls_open\library/camellia.c ****      20, 88, 58, 97,222, 27, 17, 28, 50, 15,156, 22, 83, 24,242, 34,
  96:Source\mbedtls_open\library/camellia.c ****     254, 68,207,178,195,181,122,145, 36,  8,232,168, 96,252,105, 80,
  97:Source\mbedtls_open\library/camellia.c ****     170,208,160,125,161,137, 98,151, 84, 91, 30,149,224,255,100,210,
  98:Source\mbedtls_open\library/camellia.c ****      16,196,  0, 72,163,247,117,219,138,  3,230,218,  9, 63,221,148,
  99:Source\mbedtls_open\library/camellia.c ****     135, 92,131,  2,205, 74,144, 51,115,103,246,243,157,127,191,226,
 100:Source\mbedtls_open\library/camellia.c ****      82,155,216, 38,200, 55,198, 59,129,150,111, 75, 19,190, 99, 46,
 101:Source\mbedtls_open\library/camellia.c ****     233,121,167,140,159,110,188,142, 41,245,249,182, 47,253,180, 89,
 102:Source\mbedtls_open\library/camellia.c ****     120,152,  6,106,231, 70,113,186,212, 37,171, 66,136,162,141,250,
 103:Source\mbedtls_open\library/camellia.c ****     114,  7,185, 85,248,238,172, 10, 54, 73, 42,104, 60, 56,241,164,
 104:Source\mbedtls_open\library/camellia.c ****      64, 40,211,123,187,201, 67,193, 21,227,173,244,119,199,128,158
 105:Source\mbedtls_open\library/camellia.c **** };
 106:Source\mbedtls_open\library/camellia.c **** 
 107:Source\mbedtls_open\library/camellia.c **** #define SBOX1(n) FSb[(n)]
 108:Source\mbedtls_open\library/camellia.c **** #define SBOX2(n) (unsigned char)((FSb[(n)] >> 7 ^ FSb[(n)] << 1) & 0xff)
 109:Source\mbedtls_open\library/camellia.c **** #define SBOX3(n) (unsigned char)((FSb[(n)] >> 1 ^ FSb[(n)] << 7) & 0xff)
 110:Source\mbedtls_open\library/camellia.c **** #define SBOX4(n) FSb[((n) << 1 ^ (n) >> 7) &0xff]
 111:Source\mbedtls_open\library/camellia.c **** 
 112:Source\mbedtls_open\library/camellia.c **** #else /* MBEDTLS_CAMELLIA_SMALL_MEMORY */
 113:Source\mbedtls_open\library/camellia.c **** 
 114:Source\mbedtls_open\library/camellia.c **** static const unsigned char FSb[256] =
 115:Source\mbedtls_open\library/camellia.c **** {
 116:Source\mbedtls_open\library/camellia.c ****  112, 130,  44, 236, 179,  39, 192, 229, 228, 133,  87,  53, 234,  12, 174,  65,
 117:Source\mbedtls_open\library/camellia.c ****   35, 239, 107, 147,  69,  25, 165,  33, 237,  14,  79,  78,  29, 101, 146, 189,
 118:Source\mbedtls_open\library/camellia.c ****  134, 184, 175, 143, 124, 235,  31, 206,  62,  48, 220,  95,  94, 197,  11,  26,
 119:Source\mbedtls_open\library/camellia.c ****  166, 225,  57, 202, 213,  71,  93,  61, 217,   1,  90, 214,  81,  86, 108,  77,
 120:Source\mbedtls_open\library/camellia.c ****  139,  13, 154, 102, 251, 204, 176,  45, 116,  18,  43,  32, 240, 177, 132, 153,
 121:Source\mbedtls_open\library/camellia.c ****  223,  76, 203, 194,  52, 126, 118,   5, 109, 183, 169,  49, 209,  23,   4, 215,
 122:Source\mbedtls_open\library/camellia.c ****   20,  88,  58,  97, 222,  27,  17,  28,  50,  15, 156,  22,  83,  24, 242,  34,
 123:Source\mbedtls_open\library/camellia.c ****  254,  68, 207, 178, 195, 181, 122, 145,  36,   8, 232, 168,  96, 252, 105,  80,
 124:Source\mbedtls_open\library/camellia.c ****  170, 208, 160, 125, 161, 137,  98, 151,  84,  91,  30, 149, 224, 255, 100, 210,
 125:Source\mbedtls_open\library/camellia.c ****   16, 196,   0,  72, 163, 247, 117, 219, 138,   3, 230, 218,   9,  63, 221, 148,
 126:Source\mbedtls_open\library/camellia.c ****  135,  92, 131,   2, 205,  74, 144,  51, 115, 103, 246, 243, 157, 127, 191, 226,
 127:Source\mbedtls_open\library/camellia.c ****   82, 155, 216,  38, 200,  55, 198,  59, 129, 150, 111,  75,  19, 190,  99,  46,
 128:Source\mbedtls_open\library/camellia.c ****  233, 121, 167, 140, 159, 110, 188, 142,  41, 245, 249, 182,  47, 253, 180,  89,
 129:Source\mbedtls_open\library/camellia.c ****  120, 152,   6, 106, 231,  70, 113, 186, 212,  37, 171,  66, 136, 162, 141, 250,
 130:Source\mbedtls_open\library/camellia.c ****  114,   7, 185,  85, 248, 238, 172,  10,  54,  73,  42, 104,  60,  56, 241, 164,
 131:Source\mbedtls_open\library/camellia.c ****  64,  40, 211, 123, 187, 201,  67, 193,  21, 227, 173, 244, 119, 199, 128, 158
 132:Source\mbedtls_open\library/camellia.c **** };
 133:Source\mbedtls_open\library/camellia.c **** 
 134:Source\mbedtls_open\library/camellia.c **** static const unsigned char FSb2[256] =
 135:Source\mbedtls_open\library/camellia.c **** {
 136:Source\mbedtls_open\library/camellia.c ****  224,   5,  88, 217, 103,  78, 129, 203, 201,  11, 174, 106, 213,  24,  93, 130,
 137:Source\mbedtls_open\library/camellia.c ****   70, 223, 214,  39, 138,  50,  75,  66, 219,  28, 158, 156,  58, 202,  37, 123,
 138:Source\mbedtls_open\library/camellia.c ****   13, 113,  95,  31, 248, 215,  62, 157, 124,  96, 185, 190, 188, 139,  22,  52,
 139:Source\mbedtls_open\library/camellia.c ****   77, 195, 114, 149, 171, 142, 186, 122, 179,   2, 180, 173, 162, 172, 216, 154,
 140:Source\mbedtls_open\library/camellia.c ****   23,  26,  53, 204, 247, 153,  97,  90, 232,  36,  86,  64, 225,  99,   9,  51,
 141:Source\mbedtls_open\library/camellia.c ****  191, 152, 151, 133, 104, 252, 236,  10, 218, 111,  83,  98, 163,  46,   8, 175,
 142:Source\mbedtls_open\library/camellia.c ****   40, 176, 116, 194, 189,  54,  34,  56, 100,  30,  57,  44, 166,  48, 229,  68,
 143:Source\mbedtls_open\library/camellia.c ****  253, 136, 159, 101, 135, 107, 244,  35,  72,  16, 209,  81, 192, 249, 210, 160,
 144:Source\mbedtls_open\library/camellia.c ****   85, 161,  65, 250,  67,  19, 196,  47, 168, 182,  60,  43, 193, 255, 200, 165,
 145:Source\mbedtls_open\library/camellia.c ****   32, 137,   0, 144,  71, 239, 234, 183,  21,   6, 205, 181,  18, 126, 187,  41,
ARM GAS  C:\Users\Phuong\AppData\Local\Temp\ccZ7UQ35.s 			page 4


 146:Source\mbedtls_open\library/camellia.c ****   15, 184,   7,   4, 155, 148,  33, 102, 230, 206, 237, 231,  59, 254, 127, 197,
 147:Source\mbedtls_open\library/camellia.c ****  164,  55, 177,  76, 145, 110, 141, 118,   3,  45, 222, 150,  38, 125, 198,  92,
 148:Source\mbedtls_open\library/camellia.c ****  211, 242,  79,  25,  63, 220, 121,  29,  82, 235, 243, 109,  94, 251, 105, 178,
 149:Source\mbedtls_open\library/camellia.c ****  240,  49,  12, 212, 207, 140, 226, 117, 169,  74,  87, 132,  17,  69,  27, 245,
 150:Source\mbedtls_open\library/camellia.c ****  228,  14, 115, 170, 241, 221,  89,  20, 108, 146,  84, 208, 120, 112, 227,  73,
 151:Source\mbedtls_open\library/camellia.c ****  128,  80, 167, 246, 119, 147, 134, 131,  42, 199,  91, 233, 238, 143,   1,  61
 152:Source\mbedtls_open\library/camellia.c **** };
 153:Source\mbedtls_open\library/camellia.c **** 
 154:Source\mbedtls_open\library/camellia.c **** static const unsigned char FSb3[256] =
 155:Source\mbedtls_open\library/camellia.c **** {
 156:Source\mbedtls_open\library/camellia.c ****   56,  65,  22, 118, 217, 147,  96, 242, 114, 194, 171, 154, 117,   6,  87, 160,
 157:Source\mbedtls_open\library/camellia.c ****  145, 247, 181, 201, 162, 140, 210, 144, 246,   7, 167,  39, 142, 178,  73, 222,
 158:Source\mbedtls_open\library/camellia.c ****   67,  92, 215, 199,  62, 245, 143, 103,  31,  24, 110, 175,  47, 226, 133,  13,
 159:Source\mbedtls_open\library/camellia.c ****   83, 240, 156, 101, 234, 163, 174, 158, 236, 128,  45, 107, 168,  43,  54, 166,
 160:Source\mbedtls_open\library/camellia.c ****  197, 134,  77,  51, 253, 102,  88, 150,  58,   9, 149,  16, 120, 216,  66, 204,
 161:Source\mbedtls_open\library/camellia.c ****  239,  38, 229,  97,  26,  63,  59, 130, 182, 219, 212, 152, 232, 139,   2, 235,
 162:Source\mbedtls_open\library/camellia.c ****   10,  44,  29, 176, 111, 141, 136,  14,  25, 135,  78,  11, 169,  12, 121,  17,
 163:Source\mbedtls_open\library/camellia.c ****  127,  34, 231,  89, 225, 218,  61, 200,  18,   4, 116,  84,  48, 126, 180,  40,
 164:Source\mbedtls_open\library/camellia.c ****   85, 104,  80, 190, 208, 196,  49, 203,  42, 173,  15, 202, 112, 255,  50, 105,
 165:Source\mbedtls_open\library/camellia.c ****    8,  98,   0,  36, 209, 251, 186, 237,  69, 129, 115, 109, 132, 159, 238,  74,
 166:Source\mbedtls_open\library/camellia.c ****  195,  46, 193,   1, 230,  37,  72, 153, 185, 179, 123, 249, 206, 191, 223, 113,
 167:Source\mbedtls_open\library/camellia.c ****   41, 205, 108,  19, 100, 155,  99, 157, 192,  75, 183, 165, 137,  95, 177,  23,
 168:Source\mbedtls_open\library/camellia.c ****  244, 188, 211,  70, 207,  55,  94,  71, 148, 250, 252,  91, 151, 254,  90, 172,
 169:Source\mbedtls_open\library/camellia.c ****   60,  76,   3,  53, 243,  35, 184,  93, 106, 146, 213,  33,  68,  81, 198, 125,
 170:Source\mbedtls_open\library/camellia.c ****   57, 131, 220, 170, 124, 119,  86,   5,  27, 164,  21,  52,  30,  28, 248,  82,
 171:Source\mbedtls_open\library/camellia.c ****   32,  20, 233, 189, 221, 228, 161, 224, 138, 241, 214, 122, 187, 227,  64,  79
 172:Source\mbedtls_open\library/camellia.c **** };
 173:Source\mbedtls_open\library/camellia.c **** 
 174:Source\mbedtls_open\library/camellia.c **** static const unsigned char FSb4[256] =
 175:Source\mbedtls_open\library/camellia.c **** {
 176:Source\mbedtls_open\library/camellia.c ****  112,  44, 179, 192, 228,  87, 234, 174,  35, 107,  69, 165, 237,  79,  29, 146,
 177:Source\mbedtls_open\library/camellia.c ****  134, 175, 124,  31,  62, 220,  94,  11, 166,  57, 213,  93, 217,  90,  81, 108,
 178:Source\mbedtls_open\library/camellia.c ****  139, 154, 251, 176, 116,  43, 240, 132, 223, 203,  52, 118, 109, 169, 209,   4,
 179:Source\mbedtls_open\library/camellia.c ****   20,  58, 222,  17,  50, 156,  83, 242, 254, 207, 195, 122,  36, 232,  96, 105,
 180:Source\mbedtls_open\library/camellia.c ****  170, 160, 161,  98,  84,  30, 224, 100,  16,   0, 163, 117, 138, 230,   9, 221,
 181:Source\mbedtls_open\library/camellia.c ****  135, 131, 205, 144, 115, 246, 157, 191,  82, 216, 200, 198, 129, 111,  19,  99,
 182:Source\mbedtls_open\library/camellia.c ****  233, 167, 159, 188,  41, 249,  47, 180, 120,   6, 231, 113, 212, 171, 136, 141,
 183:Source\mbedtls_open\library/camellia.c ****  114, 185, 248, 172,  54,  42,  60, 241,  64, 211, 187,  67,  21, 173, 119, 128,
 184:Source\mbedtls_open\library/camellia.c ****  130, 236,  39, 229, 133,  53,  12,  65, 239, 147,  25,  33,  14,  78, 101, 189,
 185:Source\mbedtls_open\library/camellia.c ****  184, 143, 235, 206,  48,  95, 197,  26, 225, 202,  71,  61,   1, 214,  86,  77,
 186:Source\mbedtls_open\library/camellia.c ****   13, 102, 204,  45,  18,  32, 177, 153,  76, 194, 126,   5, 183,  49,  23, 215,
 187:Source\mbedtls_open\library/camellia.c ****   88,  97,  27,  28,  15,  22,  24,  34,  68, 178, 181, 145,   8, 168, 252,  80,
 188:Source\mbedtls_open\library/camellia.c ****  208, 125, 137, 151,  91, 149, 255, 210, 196,  72, 247, 219,   3, 218,  63, 148,
 189:Source\mbedtls_open\library/camellia.c ****   92,   2,  74,  51, 103, 243, 127, 226, 155,  38,  55,  59, 150,  75, 190,  46,
 190:Source\mbedtls_open\library/camellia.c ****  121, 140, 110, 142, 245, 182, 253,  89, 152, 106,  70, 186,  37,  66, 162, 250,
 191:Source\mbedtls_open\library/camellia.c ****   7,  85, 238,  10,  73, 104,  56, 164,  40, 123, 201, 193, 227, 244, 199, 158
 192:Source\mbedtls_open\library/camellia.c **** };
 193:Source\mbedtls_open\library/camellia.c **** 
 194:Source\mbedtls_open\library/camellia.c **** #define SBOX1(n) FSb[(n)]
 195:Source\mbedtls_open\library/camellia.c **** #define SBOX2(n) FSb2[(n)]
 196:Source\mbedtls_open\library/camellia.c **** #define SBOX3(n) FSb3[(n)]
 197:Source\mbedtls_open\library/camellia.c **** #define SBOX4(n) FSb4[(n)]
 198:Source\mbedtls_open\library/camellia.c **** 
 199:Source\mbedtls_open\library/camellia.c **** #endif /* MBEDTLS_CAMELLIA_SMALL_MEMORY */
 200:Source\mbedtls_open\library/camellia.c **** 
 201:Source\mbedtls_open\library/camellia.c **** static const unsigned char shifts[2][4][4] =
 202:Source\mbedtls_open\library/camellia.c **** {
ARM GAS  C:\Users\Phuong\AppData\Local\Temp\ccZ7UQ35.s 			page 5


 203:Source\mbedtls_open\library/camellia.c ****     {
 204:Source\mbedtls_open\library/camellia.c ****         { 1, 1, 1, 1 }, /* KL */
 205:Source\mbedtls_open\library/camellia.c ****         { 0, 0, 0, 0 }, /* KR */
 206:Source\mbedtls_open\library/camellia.c ****         { 1, 1, 1, 1 }, /* KA */
 207:Source\mbedtls_open\library/camellia.c ****         { 0, 0, 0, 0 }  /* KB */
 208:Source\mbedtls_open\library/camellia.c ****     },
 209:Source\mbedtls_open\library/camellia.c ****     {
 210:Source\mbedtls_open\library/camellia.c ****         { 1, 0, 1, 1 }, /* KL */
 211:Source\mbedtls_open\library/camellia.c ****         { 1, 1, 0, 1 }, /* KR */
 212:Source\mbedtls_open\library/camellia.c ****         { 1, 1, 1, 0 }, /* KA */
 213:Source\mbedtls_open\library/camellia.c ****         { 1, 1, 0, 1 }  /* KB */
 214:Source\mbedtls_open\library/camellia.c ****     }
 215:Source\mbedtls_open\library/camellia.c **** };
 216:Source\mbedtls_open\library/camellia.c **** 
 217:Source\mbedtls_open\library/camellia.c **** static const signed char indexes[2][4][20] =
 218:Source\mbedtls_open\library/camellia.c **** {
 219:Source\mbedtls_open\library/camellia.c ****     {
 220:Source\mbedtls_open\library/camellia.c ****         {  0,  1,  2,  3,  8,  9, 10, 11, 38, 39,
 221:Source\mbedtls_open\library/camellia.c ****           36, 37, 23, 20, 21, 22, 27, -1, -1, 26 }, /* KL -> RK */
 222:Source\mbedtls_open\library/camellia.c ****         { -1, -1, -1, -1, -1, -1, -1, -1, -1, -1,
 223:Source\mbedtls_open\library/camellia.c ****           -1, -1, -1, -1, -1, -1, -1, -1, -1, -1 }, /* KR -> RK */
 224:Source\mbedtls_open\library/camellia.c ****         {  4,  5,  6,  7, 12, 13, 14, 15, 16, 17,
 225:Source\mbedtls_open\library/camellia.c ****           18, 19, -1, 24, 25, -1, 31, 28, 29, 30 }, /* KA -> RK */
 226:Source\mbedtls_open\library/camellia.c ****         { -1, -1, -1, -1, -1, -1, -1, -1, -1, -1,
 227:Source\mbedtls_open\library/camellia.c ****           -1, -1, -1, -1, -1, -1, -1, -1, -1, -1 }  /* KB -> RK */
 228:Source\mbedtls_open\library/camellia.c ****     },
 229:Source\mbedtls_open\library/camellia.c ****     {
 230:Source\mbedtls_open\library/camellia.c ****         {  0,  1,  2,  3, 61, 62, 63, 60, -1, -1,
 231:Source\mbedtls_open\library/camellia.c ****           -1, -1, 27, 24, 25, 26, 35, 32, 33, 34 }, /* KL -> RK */
 232:Source\mbedtls_open\library/camellia.c ****         { -1, -1, -1, -1,  8,  9, 10, 11, 16, 17,
 233:Source\mbedtls_open\library/camellia.c ****           18, 19, -1, -1, -1, -1, 39, 36, 37, 38 }, /* KR -> RK */
 234:Source\mbedtls_open\library/camellia.c ****         { -1, -1, -1, -1, 12, 13, 14, 15, 58, 59,
 235:Source\mbedtls_open\library/camellia.c ****           56, 57, 31, 28, 29, 30, -1, -1, -1, -1 }, /* KA -> RK */
 236:Source\mbedtls_open\library/camellia.c ****         {  4,  5,  6,  7, 65, 66, 67, 64, 20, 21,
 237:Source\mbedtls_open\library/camellia.c ****           22, 23, -1, -1, -1, -1, 43, 40, 41, 42 }  /* KB -> RK */
 238:Source\mbedtls_open\library/camellia.c ****     }
 239:Source\mbedtls_open\library/camellia.c **** };
 240:Source\mbedtls_open\library/camellia.c **** 
 241:Source\mbedtls_open\library/camellia.c **** static const signed char transposes[2][20] =
 242:Source\mbedtls_open\library/camellia.c **** {
 243:Source\mbedtls_open\library/camellia.c ****     {
 244:Source\mbedtls_open\library/camellia.c ****         21, 22, 23, 20,
 245:Source\mbedtls_open\library/camellia.c ****         -1, -1, -1, -1,
 246:Source\mbedtls_open\library/camellia.c ****         18, 19, 16, 17,
 247:Source\mbedtls_open\library/camellia.c ****         11,  8,  9, 10,
 248:Source\mbedtls_open\library/camellia.c ****         15, 12, 13, 14
 249:Source\mbedtls_open\library/camellia.c ****     },
 250:Source\mbedtls_open\library/camellia.c ****     {
 251:Source\mbedtls_open\library/camellia.c ****         25, 26, 27, 24,
 252:Source\mbedtls_open\library/camellia.c ****         29, 30, 31, 28,
 253:Source\mbedtls_open\library/camellia.c ****         18, 19, 16, 17,
 254:Source\mbedtls_open\library/camellia.c ****         -1, -1, -1, -1,
 255:Source\mbedtls_open\library/camellia.c ****         -1, -1, -1, -1
 256:Source\mbedtls_open\library/camellia.c ****     }
 257:Source\mbedtls_open\library/camellia.c **** };
 258:Source\mbedtls_open\library/camellia.c **** 
 259:Source\mbedtls_open\library/camellia.c **** /* Shift macro for 128 bit strings with rotation smaller than 32 bits (!) */
ARM GAS  C:\Users\Phuong\AppData\Local\Temp\ccZ7UQ35.s 			page 6


 260:Source\mbedtls_open\library/camellia.c **** #define ROTL(DEST, SRC, SHIFT)                                      \
 261:Source\mbedtls_open\library/camellia.c **** {                                                                   \
 262:Source\mbedtls_open\library/camellia.c ****     (DEST)[0] = (SRC)[0] << (SHIFT) ^ (SRC)[1] >> (32 - (SHIFT));   \
 263:Source\mbedtls_open\library/camellia.c ****     (DEST)[1] = (SRC)[1] << (SHIFT) ^ (SRC)[2] >> (32 - (SHIFT));   \
 264:Source\mbedtls_open\library/camellia.c ****     (DEST)[2] = (SRC)[2] << (SHIFT) ^ (SRC)[3] >> (32 - (SHIFT));   \
 265:Source\mbedtls_open\library/camellia.c ****     (DEST)[3] = (SRC)[3] << (SHIFT) ^ (SRC)[0] >> (32 - (SHIFT));   \
 266:Source\mbedtls_open\library/camellia.c **** }
 267:Source\mbedtls_open\library/camellia.c **** 
 268:Source\mbedtls_open\library/camellia.c **** #define FL(XL, XR, KL, KR)                                          \
 269:Source\mbedtls_open\library/camellia.c **** {                                                                   \
 270:Source\mbedtls_open\library/camellia.c ****     (XR) = ((((XL) & (KL)) << 1) | (((XL) & (KL)) >> 31)) ^ (XR);   \
 271:Source\mbedtls_open\library/camellia.c ****     (XL) = ((XR) | (KR)) ^ (XL);                                    \
 272:Source\mbedtls_open\library/camellia.c **** }
 273:Source\mbedtls_open\library/camellia.c **** 
 274:Source\mbedtls_open\library/camellia.c **** #define FLInv(YL, YR, KL, KR)                                       \
 275:Source\mbedtls_open\library/camellia.c **** {                                                                   \
 276:Source\mbedtls_open\library/camellia.c ****     (YL) = ((YR) | (KR)) ^ (YL);                                    \
 277:Source\mbedtls_open\library/camellia.c ****     (YR) = ((((YL) & (KL)) << 1) | (((YL) & (KL)) >> 31)) ^ (YR);   \
 278:Source\mbedtls_open\library/camellia.c **** }
 279:Source\mbedtls_open\library/camellia.c **** 
 280:Source\mbedtls_open\library/camellia.c **** #define SHIFT_AND_PLACE(INDEX, OFFSET)                      \
 281:Source\mbedtls_open\library/camellia.c **** {                                                           \
 282:Source\mbedtls_open\library/camellia.c ****     TK[0] = KC[(OFFSET) * 4 + 0];                           \
 283:Source\mbedtls_open\library/camellia.c ****     TK[1] = KC[(OFFSET) * 4 + 1];                           \
 284:Source\mbedtls_open\library/camellia.c ****     TK[2] = KC[(OFFSET) * 4 + 2];                           \
 285:Source\mbedtls_open\library/camellia.c ****     TK[3] = KC[(OFFSET) * 4 + 3];                           \
 286:Source\mbedtls_open\library/camellia.c ****                                                             \
 287:Source\mbedtls_open\library/camellia.c ****     for( i = 1; i <= 4; i++ )                               \
 288:Source\mbedtls_open\library/camellia.c ****         if( shifts[(INDEX)][(OFFSET)][i -1] )               \
 289:Source\mbedtls_open\library/camellia.c ****             ROTL(TK + i * 4, TK, ( 15 * i ) % 32);          \
 290:Source\mbedtls_open\library/camellia.c ****                                                             \
 291:Source\mbedtls_open\library/camellia.c ****     for( i = 0; i < 20; i++ )                               \
 292:Source\mbedtls_open\library/camellia.c ****         if( indexes[(INDEX)][(OFFSET)][i] != -1 ) {         \
 293:Source\mbedtls_open\library/camellia.c ****             RK[indexes[(INDEX)][(OFFSET)][i]] = TK[ i ];    \
 294:Source\mbedtls_open\library/camellia.c ****         }                                                   \
 295:Source\mbedtls_open\library/camellia.c **** }
 296:Source\mbedtls_open\library/camellia.c **** 
 297:Source\mbedtls_open\library/camellia.c **** static void camellia_feistel( const uint32_t x[2], const uint32_t k[2],
 298:Source\mbedtls_open\library/camellia.c ****                               uint32_t z[2])
 299:Source\mbedtls_open\library/camellia.c **** {
  27              		.loc 1 299 0
  28              		.cfi_startproc
  29              		@ args = 0, pretend = 0, frame = 0
  30              		@ frame_needed = 0, uses_anonymous_args = 0
  31              	.LVL0:
  32 0000 F0B5     		push	{r4, r5, r6, r7, lr}
  33              		.cfi_def_cfa_offset 20
  34              		.cfi_offset 4, -20
  35              		.cfi_offset 5, -16
  36              		.cfi_offset 6, -12
  37              		.cfi_offset 7, -8
  38              		.cfi_offset 14, -4
  39 0002 4746     		mov	r7, r8
  40 0004 80B4     		push	{r7}
  41              		.cfi_def_cfa_offset 24
  42              		.cfi_offset 8, -24
 300:Source\mbedtls_open\library/camellia.c ****     uint32_t I0, I1;
ARM GAS  C:\Users\Phuong\AppData\Local\Temp\ccZ7UQ35.s 			page 7


 301:Source\mbedtls_open\library/camellia.c ****     I0 = x[0] ^ k[0];
  43              		.loc 1 301 0
  44 0006 0468     		ldr	r4, [r0]
  45 0008 0B68     		ldr	r3, [r1]
  46 000a 5C40     		eors	r4, r3
  47              	.LVL1:
 302:Source\mbedtls_open\library/camellia.c ****     I1 = x[1] ^ k[1];
  48              		.loc 1 302 0
  49 000c 4068     		ldr	r0, [r0, #4]
  50              	.LVL2:
  51 000e 4B68     		ldr	r3, [r1, #4]
  52 0010 4340     		eors	r3, r0
  53              	.LVL3:
 303:Source\mbedtls_open\library/camellia.c **** 
 304:Source\mbedtls_open\library/camellia.c ****     I0 = ((uint32_t) SBOX1((I0 >> 24) & 0xFF) << 24) |
  54              		.loc 1 304 0
  55 0012 210E     		lsrs	r1, r4, #24
  56              	.LVL4:
  57 0014 224D     		ldr	r5, .L2
  58 0016 685C     		ldrb	r0, [r5, r1]
  59 0018 0606     		lsls	r6, r0, #24
 305:Source\mbedtls_open\library/camellia.c ****          ((uint32_t) SBOX2((I0 >> 16) & 0xFF) << 16) |
  60              		.loc 1 305 0
  61 001a 200C     		lsrs	r0, r4, #16
  62 001c FF21     		movs	r1, #255
  63 001e 0840     		ands	r0, r1
  64 0020 204F     		ldr	r7, .L2+4
  65 0022 385C     		ldrb	r0, [r7, r0]
  66 0024 0004     		lsls	r0, r0, #16
 304:Source\mbedtls_open\library/camellia.c ****          ((uint32_t) SBOX2((I0 >> 16) & 0xFF) << 16) |
  67              		.loc 1 304 0
  68 0026 3043     		orrs	r0, r6
  69 0028 8046     		mov	r8, r0
 306:Source\mbedtls_open\library/camellia.c ****          ((uint32_t) SBOX3((I0 >>  8) & 0xFF) <<  8) |
  70              		.loc 1 306 0
  71 002a 260A     		lsrs	r6, r4, #8
  72 002c 0E40     		ands	r6, r1
  73 002e 1E48     		ldr	r0, .L2+8
  74 0030 8446     		mov	ip, r0
  75 0032 865D     		ldrb	r6, [r0, r6]
  76 0034 3602     		lsls	r6, r6, #8
 305:Source\mbedtls_open\library/camellia.c ****          ((uint32_t) SBOX2((I0 >> 16) & 0xFF) << 16) |
  77              		.loc 1 305 0
  78 0036 4046     		mov	r0, r8
  79 0038 3043     		orrs	r0, r6
 307:Source\mbedtls_open\library/camellia.c ****          ((uint32_t) SBOX4((I0      ) & 0xFF)      );
  80              		.loc 1 307 0
  81 003a 0C40     		ands	r4, r1
  82              	.LVL5:
  83 003c 1B4E     		ldr	r6, .L2+12
  84 003e B046     		mov	r8, r6
  85 0040 365D     		ldrb	r6, [r6, r4]
 304:Source\mbedtls_open\library/camellia.c ****          ((uint32_t) SBOX2((I0 >> 16) & 0xFF) << 16) |
  86              		.loc 1 304 0
  87 0042 0643     		orrs	r6, r0
  88              	.LVL6:
 308:Source\mbedtls_open\library/camellia.c ****     I1 = ((uint32_t) SBOX2((I1 >> 24) & 0xFF) << 24) |
ARM GAS  C:\Users\Phuong\AppData\Local\Temp\ccZ7UQ35.s 			page 8


  89              		.loc 1 308 0
  90 0044 180E     		lsrs	r0, r3, #24
  91 0046 385C     		ldrb	r0, [r7, r0]
  92 0048 0406     		lsls	r4, r0, #24
 309:Source\mbedtls_open\library/camellia.c ****          ((uint32_t) SBOX3((I1 >> 16) & 0xFF) << 16) |
  93              		.loc 1 309 0
  94 004a 180C     		lsrs	r0, r3, #16
  95 004c 0840     		ands	r0, r1
  96 004e 6746     		mov	r7, ip
  97 0050 385C     		ldrb	r0, [r7, r0]
  98 0052 0004     		lsls	r0, r0, #16
 308:Source\mbedtls_open\library/camellia.c ****     I1 = ((uint32_t) SBOX2((I1 >> 24) & 0xFF) << 24) |
  99              		.loc 1 308 0
 100 0054 2043     		orrs	r0, r4
 310:Source\mbedtls_open\library/camellia.c ****          ((uint32_t) SBOX4((I1 >>  8) & 0xFF) <<  8) |
 101              		.loc 1 310 0
 102 0056 1C0A     		lsrs	r4, r3, #8
 103 0058 0C40     		ands	r4, r1
 104 005a 4746     		mov	r7, r8
 105 005c 3C5D     		ldrb	r4, [r7, r4]
 106 005e 2402     		lsls	r4, r4, #8
 309:Source\mbedtls_open\library/camellia.c ****          ((uint32_t) SBOX3((I1 >> 16) & 0xFF) << 16) |
 107              		.loc 1 309 0
 108 0060 2043     		orrs	r0, r4
 311:Source\mbedtls_open\library/camellia.c ****          ((uint32_t) SBOX1((I1      ) & 0xFF)      );
 109              		.loc 1 311 0
 110 0062 0B40     		ands	r3, r1
 111              	.LVL7:
 112 0064 E95C     		ldrb	r1, [r5, r3]
 308:Source\mbedtls_open\library/camellia.c ****          ((uint32_t) SBOX3((I1 >> 16) & 0xFF) << 16) |
 113              		.loc 1 308 0
 114 0066 0143     		orrs	r1, r0
 115              	.LVL8:
 312:Source\mbedtls_open\library/camellia.c **** 
 313:Source\mbedtls_open\library/camellia.c ****     I0 ^= (I1 << 8) | (I1 >> 24);
 116              		.loc 1 313 0
 117 0068 1823     		movs	r3, #24
 118 006a 0800     		movs	r0, r1
 119 006c D841     		rors	r0, r0, r3
 120 006e 0300     		movs	r3, r0
 121 0070 7340     		eors	r3, r6
 122              	.LVL9:
 314:Source\mbedtls_open\library/camellia.c ****     I1 ^= (I0 << 16) | (I0 >> 16);
 123              		.loc 1 314 0
 124 0072 1020     		movs	r0, #16
 125 0074 1D00     		movs	r5, r3
 126 0076 C541     		rors	r5, r5, r0
 127 0078 6940     		eors	r1, r5
 128              	.LVL10:
 129 007a 0C00     		movs	r4, r1
 130              	.LVL11:
 315:Source\mbedtls_open\library/camellia.c ****     I0 ^= (I1 >> 8) | (I1 << 24);
 131              		.loc 1 315 0
 132 007c 0838     		subs	r0, r0, #8
 133 007e C141     		rors	r1, r1, r0
 134              	.LVL12:
 135 0080 4B40     		eors	r3, r1
ARM GAS  C:\Users\Phuong\AppData\Local\Temp\ccZ7UQ35.s 			page 9


 136              	.LVL13:
 316:Source\mbedtls_open\library/camellia.c ****     I1 ^= (I0 >> 8) | (I0 << 24);
 137              		.loc 1 316 0
 138 0082 1900     		movs	r1, r3
 139 0084 C141     		rors	r1, r1, r0
 140 0086 0800     		movs	r0, r1
 141 0088 2100     		movs	r1, r4
 142 008a 4140     		eors	r1, r0
 143              	.LVL14:
 317:Source\mbedtls_open\library/camellia.c **** 
 318:Source\mbedtls_open\library/camellia.c ****     z[0] ^= I1;
 144              		.loc 1 318 0
 145 008c 1068     		ldr	r0, [r2]
 146 008e 4140     		eors	r1, r0
 147              	.LVL15:
 148 0090 1160     		str	r1, [r2]
 319:Source\mbedtls_open\library/camellia.c ****     z[1] ^= I0;
 149              		.loc 1 319 0
 150 0092 5168     		ldr	r1, [r2, #4]
 151 0094 4B40     		eors	r3, r1
 152              	.LVL16:
 153 0096 5360     		str	r3, [r2, #4]
 320:Source\mbedtls_open\library/camellia.c **** }
 154              		.loc 1 320 0
 155              		@ sp needed
 156 0098 04BC     		pop	{r2}
 157 009a 9046     		mov	r8, r2
 158 009c F0BD     		pop	{r4, r5, r6, r7, pc}
 159              	.L3:
 160 009e C046     		.align	2
 161              	.L2:
 162 00a0 00000000 		.word	.LANCHOR0
 163 00a4 00010000 		.word	.LANCHOR1
 164 00a8 00020000 		.word	.LANCHOR2
 165 00ac 00030000 		.word	.LANCHOR3
 166              		.cfi_endproc
 167              	.LFE1:
 168              		.size	camellia_feistel, .-camellia_feistel
 169              		.section	.text.mbedtls_camellia_init,"ax",%progbits
 170              		.align	2
 171              		.global	mbedtls_camellia_init
 172              		.code	16
 173              		.thumb_func
 174              		.type	mbedtls_camellia_init, %function
 175              	mbedtls_camellia_init:
 176              	.LFB2:
 321:Source\mbedtls_open\library/camellia.c **** 
 322:Source\mbedtls_open\library/camellia.c **** void mbedtls_camellia_init( mbedtls_camellia_context *ctx )
 323:Source\mbedtls_open\library/camellia.c **** {
 177              		.loc 1 323 0
 178              		.cfi_startproc
 179              		@ args = 0, pretend = 0, frame = 0
 180              		@ frame_needed = 0, uses_anonymous_args = 0
 181              	.LVL17:
 182 0000 10B5     		push	{r4, lr}
 183              		.cfi_def_cfa_offset 8
 184              		.cfi_offset 4, -8
ARM GAS  C:\Users\Phuong\AppData\Local\Temp\ccZ7UQ35.s 			page 10


 185              		.cfi_offset 14, -4
 324:Source\mbedtls_open\library/camellia.c ****     memset( ctx, 0, sizeof( mbedtls_camellia_context ) );
 186              		.loc 1 324 0
 187 0002 8A22     		movs	r2, #138
 188 0004 5200     		lsls	r2, r2, #1
 189 0006 0021     		movs	r1, #0
 190 0008 FFF7FEFF 		bl	memset
 191              	.LVL18:
 325:Source\mbedtls_open\library/camellia.c **** }
 192              		.loc 1 325 0
 193              		@ sp needed
 194 000c 10BD     		pop	{r4, pc}
 195              		.cfi_endproc
 196              	.LFE2:
 197              		.size	mbedtls_camellia_init, .-mbedtls_camellia_init
 198 000e C046     		.section	.text.mbedtls_camellia_free,"ax",%progbits
 199              		.align	2
 200              		.global	mbedtls_camellia_free
 201              		.code	16
 202              		.thumb_func
 203              		.type	mbedtls_camellia_free, %function
 204              	mbedtls_camellia_free:
 205              	.LFB3:
 326:Source\mbedtls_open\library/camellia.c **** 
 327:Source\mbedtls_open\library/camellia.c **** void mbedtls_camellia_free( mbedtls_camellia_context *ctx )
 328:Source\mbedtls_open\library/camellia.c **** {
 206              		.loc 1 328 0
 207              		.cfi_startproc
 208              		@ args = 0, pretend = 0, frame = 0
 209              		@ frame_needed = 0, uses_anonymous_args = 0
 210              	.LVL19:
 211 0000 10B5     		push	{r4, lr}
 212              		.cfi_def_cfa_offset 8
 213              		.cfi_offset 4, -8
 214              		.cfi_offset 14, -4
 329:Source\mbedtls_open\library/camellia.c ****     if( ctx == NULL )
 215              		.loc 1 329 0
 216 0002 0028     		cmp	r0, #0
 217 0004 03D0     		beq	.L5
 330:Source\mbedtls_open\library/camellia.c ****         return;
 331:Source\mbedtls_open\library/camellia.c **** 
 332:Source\mbedtls_open\library/camellia.c ****     mbedtls_platform_zeroize( ctx, sizeof( mbedtls_camellia_context ) );
 218              		.loc 1 332 0
 219 0006 8A21     		movs	r1, #138
 220 0008 4900     		lsls	r1, r1, #1
 221 000a FFF7FEFF 		bl	mbedtls_platform_zeroize
 222              	.LVL20:
 223              	.L5:
 333:Source\mbedtls_open\library/camellia.c **** }
 224              		.loc 1 333 0
 225              		@ sp needed
 226 000e 10BD     		pop	{r4, pc}
 227              		.cfi_endproc
 228              	.LFE3:
 229              		.size	mbedtls_camellia_free, .-mbedtls_camellia_free
 230              		.section	.text.mbedtls_camellia_setkey_enc,"ax",%progbits
 231              		.align	2
ARM GAS  C:\Users\Phuong\AppData\Local\Temp\ccZ7UQ35.s 			page 11


 232              		.global	mbedtls_camellia_setkey_enc
 233              		.code	16
 234              		.thumb_func
 235              		.type	mbedtls_camellia_setkey_enc, %function
 236              	mbedtls_camellia_setkey_enc:
 237              	.LFB4:
 334:Source\mbedtls_open\library/camellia.c **** 
 335:Source\mbedtls_open\library/camellia.c **** /*
 336:Source\mbedtls_open\library/camellia.c ****  * Camellia key schedule (encryption)
 337:Source\mbedtls_open\library/camellia.c ****  */
 338:Source\mbedtls_open\library/camellia.c **** int mbedtls_camellia_setkey_enc( mbedtls_camellia_context *ctx, const unsigned char *key,
 339:Source\mbedtls_open\library/camellia.c ****                          unsigned int keybits )
 340:Source\mbedtls_open\library/camellia.c **** {
 238              		.loc 1 340 0
 239              		.cfi_startproc
 240              		@ args = 0, pretend = 0, frame = 264
 241              		@ frame_needed = 0, uses_anonymous_args = 0
 242              	.LVL21:
 243 0000 F0B5     		push	{r4, r5, r6, r7, lr}
 244              		.cfi_def_cfa_offset 20
 245              		.cfi_offset 4, -20
 246              		.cfi_offset 5, -16
 247              		.cfi_offset 6, -12
 248              		.cfi_offset 7, -8
 249              		.cfi_offset 14, -4
 250 0002 5746     		mov	r7, r10
 251 0004 4E46     		mov	r6, r9
 252 0006 4546     		mov	r5, r8
 253 0008 E0B4     		push	{r5, r6, r7}
 254              		.cfi_def_cfa_offset 32
 255              		.cfi_offset 8, -32
 256              		.cfi_offset 9, -28
 257              		.cfi_offset 10, -24
 258 000a C2B0     		sub	sp, sp, #264
 259              		.cfi_def_cfa_offset 296
 260 000c 0400     		movs	r4, r0
 261 000e 0F00     		movs	r7, r1
 262 0010 1600     		movs	r6, r2
 341:Source\mbedtls_open\library/camellia.c ****     int idx;
 342:Source\mbedtls_open\library/camellia.c ****     size_t i;
 343:Source\mbedtls_open\library/camellia.c ****     uint32_t *RK;
 344:Source\mbedtls_open\library/camellia.c ****     unsigned char t[64];
 345:Source\mbedtls_open\library/camellia.c ****     uint32_t SIGMA[6][2];
 346:Source\mbedtls_open\library/camellia.c ****     uint32_t KC[16];
 347:Source\mbedtls_open\library/camellia.c ****     uint32_t TK[20];
 348:Source\mbedtls_open\library/camellia.c **** 
 349:Source\mbedtls_open\library/camellia.c ****     RK = ctx->rk;
 263              		.loc 1 349 0
 264 0012 051D     		adds	r5, r0, #4
 265              	.LVL22:
 350:Source\mbedtls_open\library/camellia.c **** 
 351:Source\mbedtls_open\library/camellia.c ****     memset( t, 0, 64 );
 266              		.loc 1 351 0
 267 0014 4022     		movs	r2, #64
 268              	.LVL23:
 269 0016 0021     		movs	r1, #0
 270              	.LVL24:
ARM GAS  C:\Users\Phuong\AppData\Local\Temp\ccZ7UQ35.s 			page 12


 271 0018 32A8     		add	r0, sp, #200
 272              	.LVL25:
 273 001a FFF7FEFF 		bl	memset
 274              	.LVL26:
 352:Source\mbedtls_open\library/camellia.c ****     memset( RK, 0, sizeof(ctx->rk) );
 275              		.loc 1 352 0
 276 001e 8822     		movs	r2, #136
 277 0020 5200     		lsls	r2, r2, #1
 278 0022 0021     		movs	r1, #0
 279 0024 2800     		movs	r0, r5
 280 0026 FFF7FEFF 		bl	memset
 281              	.LVL27:
 353:Source\mbedtls_open\library/camellia.c **** 
 354:Source\mbedtls_open\library/camellia.c ****     switch( keybits )
 282              		.loc 1 354 0
 283 002a C02E     		cmp	r6, #192
 284 002c 0AD0     		beq	.L9
 285 002e 8023     		movs	r3, #128
 286 0030 5B00     		lsls	r3, r3, #1
 287 0032 9E42     		cmp	r6, r3
 288 0034 06D0     		beq	.L9
 289 0036 802E     		cmp	r6, #128
 290 0038 00D0     		beq	.LCB228
 291 003a 70E2     		b	.L60	@long jump
 292              	.LCB228:
 355:Source\mbedtls_open\library/camellia.c ****     {
 356:Source\mbedtls_open\library/camellia.c ****         case 128: ctx->nr = 3; idx = 0; break;
 293              		.loc 1 356 0
 294 003c FD3B     		subs	r3, r3, #253
 295 003e 2360     		str	r3, [r4]
 296              	.LVL28:
 297 0040 0024     		movs	r4, #0
 298              	.LVL29:
 299 0042 02E0     		b	.L11
 300              	.LVL30:
 301              	.L9:
 357:Source\mbedtls_open\library/camellia.c ****         case 192:
 358:Source\mbedtls_open\library/camellia.c ****         case 256: ctx->nr = 4; idx = 1; break;
 302              		.loc 1 358 0
 303 0044 0423     		movs	r3, #4
 304 0046 2360     		str	r3, [r4]
 305              	.LVL31:
 306 0048 0124     		movs	r4, #1
 307              	.LVL32:
 308              	.L11:
 359:Source\mbedtls_open\library/camellia.c ****         default : return( MBEDTLS_ERR_CAMELLIA_INVALID_KEY_LENGTH );
 360:Source\mbedtls_open\library/camellia.c ****     }
 361:Source\mbedtls_open\library/camellia.c **** 
 362:Source\mbedtls_open\library/camellia.c ****     for( i = 0; i < keybits / 8; ++i )
 309              		.loc 1 362 0
 310 004a 0023     		movs	r3, #0
 311 004c 03E0     		b	.L12
 312              	.LVL33:
 313              	.L13:
 363:Source\mbedtls_open\library/camellia.c ****         t[i] = key[i];
 314              		.loc 1 363 0 discriminator 3
 315 004e F95C     		ldrb	r1, [r7, r3]
ARM GAS  C:\Users\Phuong\AppData\Local\Temp\ccZ7UQ35.s 			page 13


 316 0050 32AA     		add	r2, sp, #200
 317 0052 D154     		strb	r1, [r2, r3]
 362:Source\mbedtls_open\library/camellia.c ****         t[i] = key[i];
 318              		.loc 1 362 0 discriminator 3
 319 0054 0133     		adds	r3, r3, #1
 320              	.LVL34:
 321              	.L12:
 362:Source\mbedtls_open\library/camellia.c ****         t[i] = key[i];
 322              		.loc 1 362 0 is_stmt 0 discriminator 1
 323 0056 F208     		lsrs	r2, r6, #3
 324 0058 9342     		cmp	r3, r2
 325 005a F8D3     		bcc	.L13
 364:Source\mbedtls_open\library/camellia.c **** 
 365:Source\mbedtls_open\library/camellia.c ****     if( keybits == 192 ) {
 326              		.loc 1 365 0 is_stmt 1
 327 005c C02E     		cmp	r6, #192
 328 005e 0DD1     		bne	.L15
 329 0060 09E0     		b	.L58
 330              	.L16:
 366:Source\mbedtls_open\library/camellia.c ****         for( i = 0; i < 8; i++ )
 367:Source\mbedtls_open\library/camellia.c ****             t[24 + i] = ~t[16 + i];
 331              		.loc 1 367 0 discriminator 3
 332 0062 1800     		movs	r0, r3
 333 0064 1830     		adds	r0, r0, #24
 334 0066 1A00     		movs	r2, r3
 335 0068 1032     		adds	r2, r2, #16
 336 006a 32A9     		add	r1, sp, #200
 337 006c 8A5C     		ldrb	r2, [r1, r2]
 338 006e D243     		mvns	r2, r2
 339 0070 0A54     		strb	r2, [r1, r0]
 366:Source\mbedtls_open\library/camellia.c ****         for( i = 0; i < 8; i++ )
 340              		.loc 1 366 0 discriminator 3
 341 0072 0133     		adds	r3, r3, #1
 342              	.LVL35:
 343 0074 00E0     		b	.L14
 344              	.L58:
 345 0076 0023     		movs	r3, #0
 346              	.LVL36:
 347              	.L14:
 366:Source\mbedtls_open\library/camellia.c ****         for( i = 0; i < 8; i++ )
 348              		.loc 1 366 0 is_stmt 0 discriminator 1
 349 0078 072B     		cmp	r3, #7
 350 007a F2D9     		bls	.L16
 351              	.L15:
 352 007c 0027     		movs	r7, #0
 353              	.LVL37:
 354 007e 1CE0     		b	.L17
 355              	.LVL38:
 356              	.L18:
 368:Source\mbedtls_open\library/camellia.c ****     }
 369:Source\mbedtls_open\library/camellia.c **** 
 370:Source\mbedtls_open\library/camellia.c ****     /*
 371:Source\mbedtls_open\library/camellia.c ****      * Prepare SIGMA values
 372:Source\mbedtls_open\library/camellia.c ****      */
 373:Source\mbedtls_open\library/camellia.c ****     for( i = 0; i < 6; i++ ) {
 374:Source\mbedtls_open\library/camellia.c ****         GET_UINT32_BE( SIGMA[i][0], SIGMA_CHARS[i], 0 );
 357              		.loc 1 374 0 is_stmt 1 discriminator 3
ARM GAS  C:\Users\Phuong\AppData\Local\Temp\ccZ7UQ35.s 			page 14


 358 0080 DE4B     		ldr	r3, .L61
 359 0082 FA00     		lsls	r2, r7, #3
 360 0084 D15C     		ldrb	r1, [r2, r3]
 361 0086 0806     		lsls	r0, r1, #24
 362 0088 9B18     		adds	r3, r3, r2
 363 008a 5978     		ldrb	r1, [r3, #1]
 364 008c 0904     		lsls	r1, r1, #16
 365 008e 0143     		orrs	r1, r0
 366 0090 9878     		ldrb	r0, [r3, #2]
 367 0092 0002     		lsls	r0, r0, #8
 368 0094 0143     		orrs	r1, r0
 369 0096 D878     		ldrb	r0, [r3, #3]
 370 0098 0143     		orrs	r1, r0
 371 009a 26A8     		add	r0, sp, #152
 372 009c 8446     		mov	ip, r0
 373 009e 1150     		str	r1, [r2, r0]
 375:Source\mbedtls_open\library/camellia.c ****         GET_UINT32_BE( SIGMA[i][1], SIGMA_CHARS[i], 4 );
 374              		.loc 1 375 0 discriminator 3
 375 00a0 1979     		ldrb	r1, [r3, #4]
 376 00a2 0806     		lsls	r0, r1, #24
 377 00a4 5979     		ldrb	r1, [r3, #5]
 378 00a6 0904     		lsls	r1, r1, #16
 379 00a8 0143     		orrs	r1, r0
 380 00aa 9879     		ldrb	r0, [r3, #6]
 381 00ac 0002     		lsls	r0, r0, #8
 382 00ae 0143     		orrs	r1, r0
 383 00b0 DB79     		ldrb	r3, [r3, #7]
 384 00b2 1943     		orrs	r1, r3
 385 00b4 6244     		add	r2, r2, ip
 386 00b6 5160     		str	r1, [r2, #4]
 373:Source\mbedtls_open\library/camellia.c ****         GET_UINT32_BE( SIGMA[i][0], SIGMA_CHARS[i], 0 );
 387              		.loc 1 373 0 discriminator 3
 388 00b8 0137     		adds	r7, r7, #1
 389              	.LVL39:
 390              	.L17:
 373:Source\mbedtls_open\library/camellia.c ****         GET_UINT32_BE( SIGMA[i][0], SIGMA_CHARS[i], 0 );
 391              		.loc 1 373 0 is_stmt 0 discriminator 1
 392 00ba 052F     		cmp	r7, #5
 393 00bc E0D9     		bls	.L18
 376:Source\mbedtls_open\library/camellia.c ****     }
 377:Source\mbedtls_open\library/camellia.c **** 
 378:Source\mbedtls_open\library/camellia.c ****     /*
 379:Source\mbedtls_open\library/camellia.c ****      * Key storage in KC
 380:Source\mbedtls_open\library/camellia.c ****      * Order: KL, KR, KA, KB
 381:Source\mbedtls_open\library/camellia.c ****      */
 382:Source\mbedtls_open\library/camellia.c ****     memset( KC, 0, sizeof(KC) );
 394              		.loc 1 382 0 is_stmt 1
 395 00be 4022     		movs	r2, #64
 396 00c0 0021     		movs	r1, #0
 397 00c2 16A8     		add	r0, sp, #88
 398 00c4 FFF7FEFF 		bl	memset
 399              	.LVL40:
 383:Source\mbedtls_open\library/camellia.c **** 
 384:Source\mbedtls_open\library/camellia.c ****     /* Store KL, KR */
 385:Source\mbedtls_open\library/camellia.c ****     for( i = 0; i < 8; i++ )
 400              		.loc 1 385 0
 401 00c8 0027     		movs	r7, #0
ARM GAS  C:\Users\Phuong\AppData\Local\Temp\ccZ7UQ35.s 			page 15


 402 00ca 11E0     		b	.L19
 403              	.LVL41:
 404              	.L20:
 386:Source\mbedtls_open\library/camellia.c ****         GET_UINT32_BE( KC[i], t, i * 4 );
 405              		.loc 1 386 0 discriminator 3
 406 00cc BB00     		lsls	r3, r7, #2
 407 00ce 32A8     		add	r0, sp, #200
 408 00d0 C25C     		ldrb	r2, [r0, r3]
 409 00d2 1106     		lsls	r1, r2, #24
 410 00d4 5A1C     		adds	r2, r3, #1
 411 00d6 825C     		ldrb	r2, [r0, r2]
 412 00d8 1204     		lsls	r2, r2, #16
 413 00da 0A43     		orrs	r2, r1
 414 00dc 991C     		adds	r1, r3, #2
 415 00de 415C     		ldrb	r1, [r0, r1]
 416 00e0 0902     		lsls	r1, r1, #8
 417 00e2 0A43     		orrs	r2, r1
 418 00e4 D91C     		adds	r1, r3, #3
 419 00e6 415C     		ldrb	r1, [r0, r1]
 420 00e8 0A43     		orrs	r2, r1
 421 00ea 16A9     		add	r1, sp, #88
 422 00ec 5A50     		str	r2, [r3, r1]
 385:Source\mbedtls_open\library/camellia.c ****         GET_UINT32_BE( KC[i], t, i * 4 );
 423              		.loc 1 385 0 discriminator 3
 424 00ee 0137     		adds	r7, r7, #1
 425              	.LVL42:
 426              	.L19:
 385:Source\mbedtls_open\library/camellia.c ****         GET_UINT32_BE( KC[i], t, i * 4 );
 427              		.loc 1 385 0 is_stmt 0 discriminator 1
 428 00f0 072F     		cmp	r7, #7
 429 00f2 EBD9     		bls	.L20
 430 00f4 0023     		movs	r3, #0
 431 00f6 0DE0     		b	.L21
 432              	.LVL43:
 433              	.L22:
 387:Source\mbedtls_open\library/camellia.c **** 
 388:Source\mbedtls_open\library/camellia.c ****     /* Generate KA */
 389:Source\mbedtls_open\library/camellia.c ****     for( i = 0; i < 4; ++i )
 390:Source\mbedtls_open\library/camellia.c ****         KC[8 + i] = KC[i] ^ KC[4 + i];
 434              		.loc 1 390 0 is_stmt 1 discriminator 3
 435 00f8 1900     		movs	r1, r3
 436 00fa 0831     		adds	r1, r1, #8
 437 00fc 16AA     		add	r2, sp, #88
 438 00fe 9800     		lsls	r0, r3, #2
 439 0100 8058     		ldr	r0, [r0, r2]
 440 0102 8446     		mov	ip, r0
 441 0104 1F1D     		adds	r7, r3, #4
 442 0106 BF00     		lsls	r7, r7, #2
 443 0108 B858     		ldr	r0, [r7, r2]
 444 010a 6746     		mov	r7, ip
 445 010c 7840     		eors	r0, r7
 446 010e 8900     		lsls	r1, r1, #2
 447 0110 8850     		str	r0, [r1, r2]
 389:Source\mbedtls_open\library/camellia.c ****         KC[8 + i] = KC[i] ^ KC[4 + i];
 448              		.loc 1 389 0 discriminator 3
 449 0112 0133     		adds	r3, r3, #1
 450              	.LVL44:
ARM GAS  C:\Users\Phuong\AppData\Local\Temp\ccZ7UQ35.s 			page 16


 451              	.L21:
 389:Source\mbedtls_open\library/camellia.c ****         KC[8 + i] = KC[i] ^ KC[4 + i];
 452              		.loc 1 389 0 is_stmt 0 discriminator 1
 453 0114 032B     		cmp	r3, #3
 454 0116 EFD9     		bls	.L22
 391:Source\mbedtls_open\library/camellia.c **** 
 392:Source\mbedtls_open\library/camellia.c ****     camellia_feistel( KC + 8, SIGMA[0], KC + 10 );
 455              		.loc 1 392 0 is_stmt 1
 456 0118 20AA     		add	r2, sp, #128
 457 011a 26A9     		add	r1, sp, #152
 458 011c 1EA8     		add	r0, sp, #120
 459 011e FFF7FEFF 		bl	camellia_feistel
 460              	.LVL45:
 393:Source\mbedtls_open\library/camellia.c ****     camellia_feistel( KC + 10, SIGMA[1], KC + 8 );
 461              		.loc 1 393 0
 462 0122 1EAA     		add	r2, sp, #120
 463 0124 28A9     		add	r1, sp, #160
 464 0126 20A8     		add	r0, sp, #128
 465 0128 FFF7FEFF 		bl	camellia_feistel
 466              	.LVL46:
 394:Source\mbedtls_open\library/camellia.c **** 
 395:Source\mbedtls_open\library/camellia.c ****     for( i = 0; i < 4; ++i )
 467              		.loc 1 395 0
 468 012c 0023     		movs	r3, #0
 469 012e 09E0     		b	.L23
 470              	.LVL47:
 471              	.L24:
 396:Source\mbedtls_open\library/camellia.c ****         KC[8 + i] ^= KC[i];
 472              		.loc 1 396 0 discriminator 3
 473 0130 1A00     		movs	r2, r3
 474 0132 0832     		adds	r2, r2, #8
 475 0134 16A9     		add	r1, sp, #88
 476 0136 9800     		lsls	r0, r3, #2
 477 0138 4058     		ldr	r0, [r0, r1]
 478 013a 9200     		lsls	r2, r2, #2
 479 013c 5758     		ldr	r7, [r2, r1]
 480 013e 7840     		eors	r0, r7
 481 0140 5050     		str	r0, [r2, r1]
 395:Source\mbedtls_open\library/camellia.c ****         KC[8 + i] ^= KC[i];
 482              		.loc 1 395 0 discriminator 3
 483 0142 0133     		adds	r3, r3, #1
 484              	.LVL48:
 485              	.L23:
 395:Source\mbedtls_open\library/camellia.c ****         KC[8 + i] ^= KC[i];
 486              		.loc 1 395 0 is_stmt 0 discriminator 1
 487 0144 032B     		cmp	r3, #3
 488 0146 F3D9     		bls	.L24
 397:Source\mbedtls_open\library/camellia.c **** 
 398:Source\mbedtls_open\library/camellia.c ****     camellia_feistel( KC + 8, SIGMA[2], KC + 10 );
 489              		.loc 1 398 0 is_stmt 1
 490 0148 20AA     		add	r2, sp, #128
 491 014a 2AA9     		add	r1, sp, #168
 492 014c 1EA8     		add	r0, sp, #120
 493 014e FFF7FEFF 		bl	camellia_feistel
 494              	.LVL49:
 399:Source\mbedtls_open\library/camellia.c ****     camellia_feistel( KC + 10, SIGMA[3], KC + 8 );
 495              		.loc 1 399 0
ARM GAS  C:\Users\Phuong\AppData\Local\Temp\ccZ7UQ35.s 			page 17


 496 0152 1EAA     		add	r2, sp, #120
 497 0154 2CA9     		add	r1, sp, #176
 498 0156 20A8     		add	r0, sp, #128
 499 0158 FFF7FEFF 		bl	camellia_feistel
 500              	.LVL50:
 400:Source\mbedtls_open\library/camellia.c **** 
 401:Source\mbedtls_open\library/camellia.c ****     if( keybits > 128 ) {
 501              		.loc 1 401 0
 502 015c 802E     		cmp	r6, #128
 503 015e 11D8     		bhi	.L59
 504 0160 1DE0     		b	.L26
 505              	.LVL51:
 506              	.L27:
 402:Source\mbedtls_open\library/camellia.c ****         /* Generate KB */
 403:Source\mbedtls_open\library/camellia.c ****         for( i = 0; i < 4; ++i )
 404:Source\mbedtls_open\library/camellia.c ****             KC[12 + i] = KC[4 + i] ^ KC[8 + i];
 507              		.loc 1 404 0 discriminator 3
 508 0162 1900     		movs	r1, r3
 509 0164 0C31     		adds	r1, r1, #12
 510 0166 181D     		adds	r0, r3, #4
 511 0168 16AA     		add	r2, sp, #88
 512 016a 8000     		lsls	r0, r0, #2
 513 016c 8058     		ldr	r0, [r0, r2]
 514 016e 8446     		mov	ip, r0
 515 0170 1F00     		movs	r7, r3
 516 0172 0837     		adds	r7, r7, #8
 517 0174 BF00     		lsls	r7, r7, #2
 518 0176 B858     		ldr	r0, [r7, r2]
 519 0178 6746     		mov	r7, ip
 520 017a 7840     		eors	r0, r7
 521 017c 8900     		lsls	r1, r1, #2
 522 017e 8850     		str	r0, [r1, r2]
 403:Source\mbedtls_open\library/camellia.c ****             KC[12 + i] = KC[4 + i] ^ KC[8 + i];
 523              		.loc 1 403 0 discriminator 3
 524 0180 0133     		adds	r3, r3, #1
 525              	.LVL52:
 526 0182 00E0     		b	.L25
 527              	.LVL53:
 528              	.L59:
 529 0184 0023     		movs	r3, #0
 530              	.L25:
 531              	.LVL54:
 403:Source\mbedtls_open\library/camellia.c ****             KC[12 + i] = KC[4 + i] ^ KC[8 + i];
 532              		.loc 1 403 0 is_stmt 0 discriminator 1
 533 0186 032B     		cmp	r3, #3
 534 0188 EBD9     		bls	.L27
 405:Source\mbedtls_open\library/camellia.c **** 
 406:Source\mbedtls_open\library/camellia.c ****         camellia_feistel( KC + 12, SIGMA[4], KC + 14 );
 535              		.loc 1 406 0 is_stmt 1
 536 018a 24AA     		add	r2, sp, #144
 537 018c 2EA9     		add	r1, sp, #184
 538 018e 22A8     		add	r0, sp, #136
 539 0190 FFF7FEFF 		bl	camellia_feistel
 540              	.LVL55:
 407:Source\mbedtls_open\library/camellia.c ****         camellia_feistel( KC + 14, SIGMA[5], KC + 12 );
 541              		.loc 1 407 0
 542 0194 22AA     		add	r2, sp, #136
ARM GAS  C:\Users\Phuong\AppData\Local\Temp\ccZ7UQ35.s 			page 18


 543 0196 30A9     		add	r1, sp, #192
 544 0198 24A8     		add	r0, sp, #144
 545 019a FFF7FEFF 		bl	camellia_feistel
 546              	.LVL56:
 547              	.L26:
 408:Source\mbedtls_open\library/camellia.c ****     }
 409:Source\mbedtls_open\library/camellia.c **** 
 410:Source\mbedtls_open\library/camellia.c ****     /*
 411:Source\mbedtls_open\library/camellia.c ****      * Generating subkeys
 412:Source\mbedtls_open\library/camellia.c ****      */
 413:Source\mbedtls_open\library/camellia.c **** 
 414:Source\mbedtls_open\library/camellia.c ****     /* Manipulating KL */
 415:Source\mbedtls_open\library/camellia.c ****     SHIFT_AND_PLACE( idx, 0 );
 548              		.loc 1 415 0
 549 019e 169B     		ldr	r3, [sp, #88]
 550 01a0 0293     		str	r3, [sp, #8]
 551 01a2 179B     		ldr	r3, [sp, #92]
 552 01a4 0393     		str	r3, [sp, #12]
 553 01a6 189B     		ldr	r3, [sp, #96]
 554 01a8 0493     		str	r3, [sp, #16]
 555 01aa 199B     		ldr	r3, [sp, #100]
 556 01ac 0193     		str	r3, [sp, #4]
 557 01ae 0593     		str	r3, [sp, #20]
 558              	.LVL57:
 559 01b0 0121     		movs	r1, #1
 560 01b2 48E0     		b	.L28
 561              	.LVL58:
 562              	.L30:
 563              		.loc 1 415 0 is_stmt 0 discriminator 6
 564 01b4 4B1E     		subs	r3, r1, #1
 565 01b6 2201     		lsls	r2, r4, #4
 566 01b8 9048     		ldr	r0, .L61
 567 01ba 8218     		adds	r2, r0, r2
 568 01bc D318     		adds	r3, r2, r3
 569 01be 3022     		movs	r2, #48
 570 01c0 9B5C     		ldrb	r3, [r3, r2]
 571 01c2 002B     		cmp	r3, #0
 572 01c4 3ED0     		beq	.L29
 573              		.loc 1 415 0 discriminator 2
 574 01c6 0B01     		lsls	r3, r1, #4
 575 01c8 9946     		mov	r9, r3
 576 01ca 5A1A     		subs	r2, r3, r1
 577 01cc 1F20     		movs	r0, #31
 578 01ce 0240     		ands	r2, r0
 579 01d0 0298     		ldr	r0, [sp, #8]
 580 01d2 9040     		lsls	r0, r0, r2
 581 01d4 8446     		mov	ip, r0
 582 01d6 0398     		ldr	r0, [sp, #12]
 583 01d8 0190     		str	r0, [sp, #4]
 584 01da 2020     		movs	r0, #32
 585 01dc 831A     		subs	r3, r0, r2
 586 01de 9A46     		mov	r10, r3
 587 01e0 019F     		ldr	r7, [sp, #4]
 588 01e2 DF40     		lsrs	r7, r7, r3
 589 01e4 6046     		mov	r0, ip
 590 01e6 4740     		eors	r7, r0
 591 01e8 02A8     		add	r0, sp, #8
ARM GAS  C:\Users\Phuong\AppData\Local\Temp\ccZ7UQ35.s 			page 19


 592 01ea 4B46     		mov	r3, r9
 593 01ec C750     		str	r7, [r0, r3]
 594 01ee 181D     		adds	r0, r3, #4
 595 01f0 8046     		mov	r8, r0
 596 01f2 0398     		ldr	r0, [sp, #12]
 597 01f4 0700     		movs	r7, r0
 598 01f6 9740     		lsls	r7, r7, r2
 599 01f8 BC46     		mov	ip, r7
 600 01fa 0498     		ldr	r0, [sp, #16]
 601 01fc 0700     		movs	r7, r0
 602 01fe 5346     		mov	r3, r10
 603 0200 DF40     		lsrs	r7, r7, r3
 604 0202 6046     		mov	r0, ip
 605 0204 4740     		eors	r7, r0
 606 0206 02A8     		add	r0, sp, #8
 607 0208 4346     		mov	r3, r8
 608 020a C750     		str	r7, [r0, r3]
 609 020c 0823     		movs	r3, #8
 610 020e 9846     		mov	r8, r3
 611 0210 C844     		add	r8, r8, r9
 612 0212 049B     		ldr	r3, [sp, #16]
 613 0214 1F00     		movs	r7, r3
 614 0216 9740     		lsls	r7, r7, r2
 615 0218 BC46     		mov	ip, r7
 616 021a 059B     		ldr	r3, [sp, #20]
 617 021c 0193     		str	r3, [sp, #4]
 618 021e 1F00     		movs	r7, r3
 619 0220 5346     		mov	r3, r10
 620 0222 DF40     		lsrs	r7, r7, r3
 621 0224 6346     		mov	r3, ip
 622 0226 5F40     		eors	r7, r3
 623 0228 0300     		movs	r3, r0
 624 022a 4046     		mov	r0, r8
 625 022c 1F50     		str	r7, [r3, r0]
 626 022e 4B46     		mov	r3, r9
 627 0230 0C33     		adds	r3, r3, #12
 628 0232 059F     		ldr	r7, [sp, #20]
 629 0234 9740     		lsls	r7, r7, r2
 630 0236 3A00     		movs	r2, r7
 631 0238 029F     		ldr	r7, [sp, #8]
 632 023a 5046     		mov	r0, r10
 633 023c C740     		lsrs	r7, r7, r0
 634 023e 7A40     		eors	r2, r7
 635 0240 02A8     		add	r0, sp, #8
 636 0242 C250     		str	r2, [r0, r3]
 637              	.L29:
 638              		.loc 1 415 0 discriminator 4
 639 0244 0131     		adds	r1, r1, #1
 640              	.LVL59:
 641              	.L28:
 642              		.loc 1 415 0 discriminator 5
 643 0246 0429     		cmp	r1, #4
 644 0248 B4D9     		bls	.L30
 645 024a 0021     		movs	r1, #0
 646              	.LVL60:
 647 024c 0FE0     		b	.L31
 648              	.LVL61:
ARM GAS  C:\Users\Phuong\AppData\Local\Temp\ccZ7UQ35.s 			page 20


 649              	.L33:
 650              		.loc 1 415 0 discriminator 13
 651 024e A200     		lsls	r2, r4, #2
 652 0250 1219     		adds	r2, r2, r4
 653 0252 1301     		lsls	r3, r2, #4
 654 0254 694A     		ldr	r2, .L61
 655 0256 D318     		adds	r3, r2, r3
 656 0258 5B18     		adds	r3, r3, r1
 657 025a 5022     		movs	r2, #80
 658 025c 9B56     		ldrsb	r3, [r3, r2]
 659 025e 5A1C     		adds	r2, r3, #1
 660 0260 04D0     		beq	.L32
 661              		.loc 1 415 0 discriminator 9
 662 0262 9B00     		lsls	r3, r3, #2
 663 0264 8A00     		lsls	r2, r1, #2
 664 0266 02A8     		add	r0, sp, #8
 665 0268 1258     		ldr	r2, [r2, r0]
 666 026a EA50     		str	r2, [r5, r3]
 667              	.L32:
 668              		.loc 1 415 0 discriminator 11
 669 026c 0131     		adds	r1, r1, #1
 670              	.LVL62:
 671              	.L31:
 672              		.loc 1 415 0 discriminator 12
 673 026e 1329     		cmp	r1, #19
 674 0270 EDD9     		bls	.L33
 416:Source\mbedtls_open\library/camellia.c **** 
 417:Source\mbedtls_open\library/camellia.c ****     /* Manipulating KR */
 418:Source\mbedtls_open\library/camellia.c ****     if( keybits > 128 ) {
 675              		.loc 1 418 0 is_stmt 1
 676 0272 802E     		cmp	r6, #128
 677 0274 6AD9     		bls	.L34
 419:Source\mbedtls_open\library/camellia.c ****         SHIFT_AND_PLACE( idx, 1 );
 678              		.loc 1 419 0
 679 0276 1A9B     		ldr	r3, [sp, #104]
 680 0278 0293     		str	r3, [sp, #8]
 681 027a 1B9B     		ldr	r3, [sp, #108]
 682 027c 0393     		str	r3, [sp, #12]
 683 027e 1C9B     		ldr	r3, [sp, #112]
 684 0280 0493     		str	r3, [sp, #16]
 685 0282 1D9B     		ldr	r3, [sp, #116]
 686 0284 0193     		str	r3, [sp, #4]
 687 0286 0593     		str	r3, [sp, #20]
 688              	.LVL63:
 689 0288 0121     		movs	r1, #1
 690 028a 48E0     		b	.L35
 691              	.LVL64:
 692              	.L37:
 693              		.loc 1 419 0 is_stmt 0 discriminator 6
 694 028c 4B1E     		subs	r3, r1, #1
 695 028e 2201     		lsls	r2, r4, #4
 696 0290 5A48     		ldr	r0, .L61
 697 0292 8218     		adds	r2, r0, r2
 698 0294 D318     		adds	r3, r2, r3
 699 0296 3433     		adds	r3, r3, #52
 700 0298 1B78     		ldrb	r3, [r3]
 701 029a 002B     		cmp	r3, #0
ARM GAS  C:\Users\Phuong\AppData\Local\Temp\ccZ7UQ35.s 			page 21


 702 029c 3ED0     		beq	.L36
 703              		.loc 1 419 0 discriminator 2
 704 029e 0B01     		lsls	r3, r1, #4
 705 02a0 9946     		mov	r9, r3
 706 02a2 5A1A     		subs	r2, r3, r1
 707 02a4 1F20     		movs	r0, #31
 708 02a6 0240     		ands	r2, r0
 709 02a8 0298     		ldr	r0, [sp, #8]
 710 02aa 9040     		lsls	r0, r0, r2
 711 02ac 8446     		mov	ip, r0
 712 02ae 0398     		ldr	r0, [sp, #12]
 713 02b0 0190     		str	r0, [sp, #4]
 714 02b2 2020     		movs	r0, #32
 715 02b4 831A     		subs	r3, r0, r2
 716 02b6 9A46     		mov	r10, r3
 717 02b8 019F     		ldr	r7, [sp, #4]
 718 02ba DF40     		lsrs	r7, r7, r3
 719 02bc 6046     		mov	r0, ip
 720 02be 4740     		eors	r7, r0
 721 02c0 02A8     		add	r0, sp, #8
 722 02c2 4B46     		mov	r3, r9
 723 02c4 C750     		str	r7, [r0, r3]
 724 02c6 181D     		adds	r0, r3, #4
 725 02c8 8046     		mov	r8, r0
 726 02ca 0398     		ldr	r0, [sp, #12]
 727 02cc 0700     		movs	r7, r0
 728 02ce 9740     		lsls	r7, r7, r2
 729 02d0 BC46     		mov	ip, r7
 730 02d2 0498     		ldr	r0, [sp, #16]
 731 02d4 0700     		movs	r7, r0
 732 02d6 5346     		mov	r3, r10
 733 02d8 DF40     		lsrs	r7, r7, r3
 734 02da 6046     		mov	r0, ip
 735 02dc 4740     		eors	r7, r0
 736 02de 02A8     		add	r0, sp, #8
 737 02e0 4346     		mov	r3, r8
 738 02e2 C750     		str	r7, [r0, r3]
 739 02e4 0823     		movs	r3, #8
 740 02e6 9846     		mov	r8, r3
 741 02e8 C844     		add	r8, r8, r9
 742 02ea 049B     		ldr	r3, [sp, #16]
 743 02ec 1F00     		movs	r7, r3
 744 02ee 9740     		lsls	r7, r7, r2
 745 02f0 BC46     		mov	ip, r7
 746 02f2 059B     		ldr	r3, [sp, #20]
 747 02f4 0193     		str	r3, [sp, #4]
 748 02f6 1F00     		movs	r7, r3
 749 02f8 5346     		mov	r3, r10
 750 02fa DF40     		lsrs	r7, r7, r3
 751 02fc 6346     		mov	r3, ip
 752 02fe 5F40     		eors	r7, r3
 753 0300 0300     		movs	r3, r0
 754 0302 4046     		mov	r0, r8
 755 0304 1F50     		str	r7, [r3, r0]
 756 0306 4B46     		mov	r3, r9
 757 0308 0C33     		adds	r3, r3, #12
 758 030a 059F     		ldr	r7, [sp, #20]
ARM GAS  C:\Users\Phuong\AppData\Local\Temp\ccZ7UQ35.s 			page 22


 759 030c 9740     		lsls	r7, r7, r2
 760 030e 3A00     		movs	r2, r7
 761 0310 029F     		ldr	r7, [sp, #8]
 762 0312 5046     		mov	r0, r10
 763 0314 C740     		lsrs	r7, r7, r0
 764 0316 7A40     		eors	r2, r7
 765 0318 02A8     		add	r0, sp, #8
 766 031a C250     		str	r2, [r0, r3]
 767              	.L36:
 768              		.loc 1 419 0 discriminator 4
 769 031c 0131     		adds	r1, r1, #1
 770              	.LVL65:
 771              	.L35:
 772              		.loc 1 419 0 discriminator 5
 773 031e 0429     		cmp	r1, #4
 774 0320 B4D9     		bls	.L37
 775 0322 0021     		movs	r1, #0
 776              	.LVL66:
 777 0324 10E0     		b	.L38
 778              	.LVL67:
 779              	.L40:
 780              		.loc 1 419 0 discriminator 13
 781 0326 A200     		lsls	r2, r4, #2
 782 0328 1219     		adds	r2, r2, r4
 783 032a 1301     		lsls	r3, r2, #4
 784 032c 334A     		ldr	r2, .L61
 785 032e D318     		adds	r3, r2, r3
 786 0330 5B18     		adds	r3, r3, r1
 787 0332 6433     		adds	r3, r3, #100
 788 0334 1B78     		ldrb	r3, [r3]
 789 0336 5BB2     		sxtb	r3, r3
 790 0338 5A1C     		adds	r2, r3, #1
 791 033a 04D0     		beq	.L39
 792              		.loc 1 419 0 discriminator 9
 793 033c 9B00     		lsls	r3, r3, #2
 794 033e 8A00     		lsls	r2, r1, #2
 795 0340 02A8     		add	r0, sp, #8
 796 0342 1258     		ldr	r2, [r2, r0]
 797 0344 EA50     		str	r2, [r5, r3]
 798              	.L39:
 799              		.loc 1 419 0 discriminator 11
 800 0346 0131     		adds	r1, r1, #1
 801              	.LVL68:
 802              	.L38:
 803              		.loc 1 419 0 discriminator 12
 804 0348 1329     		cmp	r1, #19
 805 034a ECD9     		bls	.L40
 806              	.L34:
 420:Source\mbedtls_open\library/camellia.c ****     }
 421:Source\mbedtls_open\library/camellia.c **** 
 422:Source\mbedtls_open\library/camellia.c ****     /* Manipulating KA */
 423:Source\mbedtls_open\library/camellia.c ****     SHIFT_AND_PLACE( idx, 2 );
 807              		.loc 1 423 0 is_stmt 1
 808 034c 1E9B     		ldr	r3, [sp, #120]
 809 034e 0293     		str	r3, [sp, #8]
 810 0350 1F9B     		ldr	r3, [sp, #124]
 811 0352 0393     		str	r3, [sp, #12]
ARM GAS  C:\Users\Phuong\AppData\Local\Temp\ccZ7UQ35.s 			page 23


 812 0354 209B     		ldr	r3, [sp, #128]
 813 0356 0493     		str	r3, [sp, #16]
 814 0358 219B     		ldr	r3, [sp, #132]
 815 035a 0193     		str	r3, [sp, #4]
 816 035c 0593     		str	r3, [sp, #20]
 817              	.LVL69:
 818 035e 0121     		movs	r1, #1
 819 0360 48E0     		b	.L41
 820              	.LVL70:
 821              	.L43:
 822              		.loc 1 423 0 is_stmt 0 discriminator 6
 823 0362 4B1E     		subs	r3, r1, #1
 824 0364 2201     		lsls	r2, r4, #4
 825 0366 2548     		ldr	r0, .L61
 826 0368 8218     		adds	r2, r0, r2
 827 036a D318     		adds	r3, r2, r3
 828 036c 3833     		adds	r3, r3, #56
 829 036e 1B78     		ldrb	r3, [r3]
 830 0370 002B     		cmp	r3, #0
 831 0372 3ED0     		beq	.L42
 832              		.loc 1 423 0 discriminator 2
 833 0374 0B01     		lsls	r3, r1, #4
 834 0376 9946     		mov	r9, r3
 835 0378 5A1A     		subs	r2, r3, r1
 836 037a 1F20     		movs	r0, #31
 837 037c 0240     		ands	r2, r0
 838 037e 0298     		ldr	r0, [sp, #8]
 839 0380 9040     		lsls	r0, r0, r2
 840 0382 8446     		mov	ip, r0
 841 0384 0398     		ldr	r0, [sp, #12]
 842 0386 0190     		str	r0, [sp, #4]
 843 0388 2020     		movs	r0, #32
 844 038a 831A     		subs	r3, r0, r2
 845 038c 9A46     		mov	r10, r3
 846 038e 019F     		ldr	r7, [sp, #4]
 847 0390 DF40     		lsrs	r7, r7, r3
 848 0392 6046     		mov	r0, ip
 849 0394 4740     		eors	r7, r0
 850 0396 02A8     		add	r0, sp, #8
 851 0398 4B46     		mov	r3, r9
 852 039a C750     		str	r7, [r0, r3]
 853 039c 181D     		adds	r0, r3, #4
 854 039e 8046     		mov	r8, r0
 855 03a0 0398     		ldr	r0, [sp, #12]
 856 03a2 0700     		movs	r7, r0
 857 03a4 9740     		lsls	r7, r7, r2
 858 03a6 BC46     		mov	ip, r7
 859 03a8 0498     		ldr	r0, [sp, #16]
 860 03aa 0700     		movs	r7, r0
 861 03ac 5346     		mov	r3, r10
 862 03ae DF40     		lsrs	r7, r7, r3
 863 03b0 6046     		mov	r0, ip
 864 03b2 4740     		eors	r7, r0
 865 03b4 02A8     		add	r0, sp, #8
 866 03b6 4346     		mov	r3, r8
 867 03b8 C750     		str	r7, [r0, r3]
 868 03ba 0823     		movs	r3, #8
ARM GAS  C:\Users\Phuong\AppData\Local\Temp\ccZ7UQ35.s 			page 24


 869 03bc 9846     		mov	r8, r3
 870 03be C844     		add	r8, r8, r9
 871 03c0 049B     		ldr	r3, [sp, #16]
 872 03c2 1F00     		movs	r7, r3
 873 03c4 9740     		lsls	r7, r7, r2
 874 03c6 BC46     		mov	ip, r7
 875 03c8 059B     		ldr	r3, [sp, #20]
 876 03ca 0193     		str	r3, [sp, #4]
 877 03cc 1F00     		movs	r7, r3
 878 03ce 5346     		mov	r3, r10
 879 03d0 DF40     		lsrs	r7, r7, r3
 880 03d2 6346     		mov	r3, ip
 881 03d4 5F40     		eors	r7, r3
 882 03d6 0300     		movs	r3, r0
 883 03d8 4046     		mov	r0, r8
 884 03da 1F50     		str	r7, [r3, r0]
 885 03dc 4B46     		mov	r3, r9
 886 03de 0C33     		adds	r3, r3, #12
 887 03e0 059F     		ldr	r7, [sp, #20]
 888 03e2 9740     		lsls	r7, r7, r2
 889 03e4 3A00     		movs	r2, r7
 890 03e6 029F     		ldr	r7, [sp, #8]
 891 03e8 5046     		mov	r0, r10
 892 03ea C740     		lsrs	r7, r7, r0
 893 03ec 7A40     		eors	r2, r7
 894 03ee 02A8     		add	r0, sp, #8
 895 03f0 C250     		str	r2, [r0, r3]
 896              	.L42:
 897              		.loc 1 423 0 discriminator 4
 898 03f2 0131     		adds	r1, r1, #1
 899              	.LVL71:
 900              	.L41:
 901              		.loc 1 423 0 discriminator 5
 902 03f4 0429     		cmp	r1, #4
 903 03f6 B4D9     		bls	.L43
 904 03f8 0021     		movs	r1, #0
 905              	.LVL72:
 906 03fa 12E0     		b	.L44
 907              	.L62:
 908              		.align	2
 909              	.L61:
 910 03fc 00040000 		.word	.LANCHOR4
 911              	.LVL73:
 912              	.L46:
 913              		.loc 1 423 0 discriminator 13
 914 0400 A200     		lsls	r2, r4, #2
 915 0402 1219     		adds	r2, r2, r4
 916 0404 1301     		lsls	r3, r2, #4
 917 0406 4A4A     		ldr	r2, .L63
 918 0408 D318     		adds	r3, r2, r3
 919 040a 5B18     		adds	r3, r3, r1
 920 040c 7833     		adds	r3, r3, #120
 921 040e 1B78     		ldrb	r3, [r3]
 922 0410 5BB2     		sxtb	r3, r3
 923 0412 5A1C     		adds	r2, r3, #1
 924 0414 04D0     		beq	.L45
 925              		.loc 1 423 0 discriminator 9
ARM GAS  C:\Users\Phuong\AppData\Local\Temp\ccZ7UQ35.s 			page 25


 926 0416 9B00     		lsls	r3, r3, #2
 927 0418 8A00     		lsls	r2, r1, #2
 928 041a 02A8     		add	r0, sp, #8
 929 041c 1258     		ldr	r2, [r2, r0]
 930 041e EA50     		str	r2, [r5, r3]
 931              	.L45:
 932              		.loc 1 423 0 discriminator 11
 933 0420 0131     		adds	r1, r1, #1
 934              	.LVL74:
 935              	.L44:
 936              		.loc 1 423 0 discriminator 12
 937 0422 1329     		cmp	r1, #19
 938 0424 ECD9     		bls	.L46
 424:Source\mbedtls_open\library/camellia.c **** 
 425:Source\mbedtls_open\library/camellia.c ****     /* Manipulating KB */
 426:Source\mbedtls_open\library/camellia.c ****     if( keybits > 128 ) {
 939              		.loc 1 426 0 is_stmt 1
 940 0426 802E     		cmp	r6, #128
 941 0428 5FD9     		bls	.L47
 427:Source\mbedtls_open\library/camellia.c ****         SHIFT_AND_PLACE( idx, 3 );
 942              		.loc 1 427 0
 943 042a 229B     		ldr	r3, [sp, #136]
 944 042c 0293     		str	r3, [sp, #8]
 945 042e 239B     		ldr	r3, [sp, #140]
 946 0430 0393     		str	r3, [sp, #12]
 947 0432 249B     		ldr	r3, [sp, #144]
 948 0434 0493     		str	r3, [sp, #16]
 949 0436 259B     		ldr	r3, [sp, #148]
 950 0438 0193     		str	r3, [sp, #4]
 951 043a 0593     		str	r3, [sp, #20]
 952              	.LVL75:
 953 043c 0121     		movs	r1, #1
 954 043e 3DE0     		b	.L48
 955              	.LVL76:
 956              	.L50:
 957              		.loc 1 427 0 is_stmt 0 discriminator 6
 958 0440 4B1E     		subs	r3, r1, #1
 959 0442 2201     		lsls	r2, r4, #4
 960 0444 3A48     		ldr	r0, .L63
 961 0446 8218     		adds	r2, r0, r2
 962 0448 D318     		adds	r3, r2, r3
 963 044a 3C33     		adds	r3, r3, #60
 964 044c 1B78     		ldrb	r3, [r3]
 965 044e 002B     		cmp	r3, #0
 966 0450 33D0     		beq	.L49
 967              		.loc 1 427 0 discriminator 2
 968 0452 0B01     		lsls	r3, r1, #4
 969 0454 5A1A     		subs	r2, r3, r1
 970 0456 1F20     		movs	r0, #31
 971 0458 0240     		ands	r2, r0
 972 045a 029F     		ldr	r7, [sp, #8]
 973 045c 9740     		lsls	r7, r7, r2
 974 045e 0398     		ldr	r0, [sp, #12]
 975 0460 0190     		str	r0, [sp, #4]
 976 0462 2020     		movs	r0, #32
 977 0464 801A     		subs	r0, r0, r2
 978 0466 8046     		mov	r8, r0
ARM GAS  C:\Users\Phuong\AppData\Local\Temp\ccZ7UQ35.s 			page 26


 979 0468 019E     		ldr	r6, [sp, #4]
 980 046a C640     		lsrs	r6, r6, r0
 981 046c 7E40     		eors	r6, r7
 982 046e 02AF     		add	r7, sp, #8
 983 0470 FE50     		str	r6, [r7, r3]
 984 0472 1E1D     		adds	r6, r3, #4
 985 0474 B446     		mov	ip, r6
 986 0476 039E     		ldr	r6, [sp, #12]
 987 0478 3700     		movs	r7, r6
 988 047a 9740     		lsls	r7, r7, r2
 989 047c 049E     		ldr	r6, [sp, #16]
 990 047e C640     		lsrs	r6, r6, r0
 991 0480 7E40     		eors	r6, r7
 992 0482 02AF     		add	r7, sp, #8
 993 0484 6046     		mov	r0, ip
 994 0486 3E50     		str	r6, [r7, r0]
 995 0488 0820     		movs	r0, #8
 996 048a 8446     		mov	ip, r0
 997 048c 9C44     		add	ip, ip, r3
 998 048e 0498     		ldr	r0, [sp, #16]
 999 0490 0700     		movs	r7, r0
 1000 0492 9740     		lsls	r7, r7, r2
 1001 0494 0598     		ldr	r0, [sp, #20]
 1002 0496 0190     		str	r0, [sp, #4]
 1003 0498 0600     		movs	r6, r0
 1004 049a 4046     		mov	r0, r8
 1005 049c C640     		lsrs	r6, r6, r0
 1006 049e 7E40     		eors	r6, r7
 1007 04a0 02A8     		add	r0, sp, #8
 1008 04a2 6746     		mov	r7, ip
 1009 04a4 C651     		str	r6, [r0, r7]
 1010 04a6 0C33     		adds	r3, r3, #12
 1011 04a8 059E     		ldr	r6, [sp, #20]
 1012 04aa 9640     		lsls	r6, r6, r2
 1013 04ac 3200     		movs	r2, r6
 1014 04ae 029E     		ldr	r6, [sp, #8]
 1015 04b0 4046     		mov	r0, r8
 1016 04b2 C640     		lsrs	r6, r6, r0
 1017 04b4 7240     		eors	r2, r6
 1018 04b6 02A8     		add	r0, sp, #8
 1019 04b8 C250     		str	r2, [r0, r3]
 1020              	.L49:
 1021              		.loc 1 427 0 discriminator 4
 1022 04ba 0131     		adds	r1, r1, #1
 1023              	.LVL77:
 1024              	.L48:
 1025              		.loc 1 427 0 discriminator 5
 1026 04bc 0429     		cmp	r1, #4
 1027 04be BFD9     		bls	.L50
 1028 04c0 0021     		movs	r1, #0
 1029              	.LVL78:
 1030 04c2 10E0     		b	.L51
 1031              	.LVL79:
 1032              	.L53:
 1033              		.loc 1 427 0 discriminator 13
 1034 04c4 A200     		lsls	r2, r4, #2
 1035 04c6 1219     		adds	r2, r2, r4
ARM GAS  C:\Users\Phuong\AppData\Local\Temp\ccZ7UQ35.s 			page 27


 1036 04c8 1301     		lsls	r3, r2, #4
 1037 04ca 194A     		ldr	r2, .L63
 1038 04cc D318     		adds	r3, r2, r3
 1039 04ce 5B18     		adds	r3, r3, r1
 1040 04d0 8C33     		adds	r3, r3, #140
 1041 04d2 1B78     		ldrb	r3, [r3]
 1042 04d4 5BB2     		sxtb	r3, r3
 1043 04d6 5A1C     		adds	r2, r3, #1
 1044 04d8 04D0     		beq	.L52
 1045              		.loc 1 427 0 discriminator 9
 1046 04da 9B00     		lsls	r3, r3, #2
 1047 04dc 8A00     		lsls	r2, r1, #2
 1048 04de 02A8     		add	r0, sp, #8
 1049 04e0 1258     		ldr	r2, [r2, r0]
 1050 04e2 EA50     		str	r2, [r5, r3]
 1051              	.L52:
 1052              		.loc 1 427 0 discriminator 11
 1053 04e4 0131     		adds	r1, r1, #1
 1054              	.LVL80:
 1055              	.L51:
 1056              		.loc 1 427 0 discriminator 12
 1057 04e6 1329     		cmp	r1, #19
 1058 04e8 ECD9     		bls	.L53
 1059              	.L47:
 1060 04ea 0021     		movs	r1, #0
 1061              	.LVL81:
 1062 04ec 13E0     		b	.L54
 1063              	.LVL82:
 1064              	.L56:
 428:Source\mbedtls_open\library/camellia.c ****     }
 429:Source\mbedtls_open\library/camellia.c **** 
 430:Source\mbedtls_open\library/camellia.c ****     /* Do transpositions */
 431:Source\mbedtls_open\library/camellia.c ****     for( i = 0; i < 20; i++ ) {
 432:Source\mbedtls_open\library/camellia.c ****         if( transposes[idx][i] != -1 ) {
 1065              		.loc 1 432 0 is_stmt 1
 1066 04ee A200     		lsls	r2, r4, #2
 1067 04f0 1219     		adds	r2, r2, r4
 1068 04f2 9300     		lsls	r3, r2, #2
 1069 04f4 0F4A     		ldr	r2, .L63+4
 1070 04f6 D318     		adds	r3, r2, r3
 1071 04f8 5B18     		adds	r3, r3, r1
 1072 04fa 7022     		movs	r2, #112
 1073 04fc 9A56     		ldrsb	r2, [r3, r2]
 1074 04fe 531C     		adds	r3, r2, #1
 1075 0500 08D0     		beq	.L55
 433:Source\mbedtls_open\library/camellia.c ****             RK[32 + 12 * idx + i] = RK[transposes[idx][i]];
 1076              		.loc 1 433 0
 1077 0502 6000     		lsls	r0, r4, #1
 1078 0504 0019     		adds	r0, r0, r4
 1079 0506 8300     		lsls	r3, r0, #2
 1080 0508 5B18     		adds	r3, r3, r1
 1081 050a 2033     		adds	r3, r3, #32
 1082 050c 9B00     		lsls	r3, r3, #2
 1083 050e 9200     		lsls	r2, r2, #2
 1084 0510 5259     		ldr	r2, [r2, r5]
 1085 0512 EA50     		str	r2, [r5, r3]
 1086              	.L55:
ARM GAS  C:\Users\Phuong\AppData\Local\Temp\ccZ7UQ35.s 			page 28


 431:Source\mbedtls_open\library/camellia.c ****         if( transposes[idx][i] != -1 ) {
 1087              		.loc 1 431 0 discriminator 2
 1088 0514 0131     		adds	r1, r1, #1
 1089              	.LVL83:
 1090              	.L54:
 431:Source\mbedtls_open\library/camellia.c ****         if( transposes[idx][i] != -1 ) {
 1091              		.loc 1 431 0 is_stmt 0 discriminator 1
 1092 0516 1329     		cmp	r1, #19
 1093 0518 E9D9     		bls	.L56
 434:Source\mbedtls_open\library/camellia.c ****         }
 435:Source\mbedtls_open\library/camellia.c ****     }
 436:Source\mbedtls_open\library/camellia.c **** 
 437:Source\mbedtls_open\library/camellia.c ****     return( 0 );
 1094              		.loc 1 437 0 is_stmt 1
 1095 051a 0020     		movs	r0, #0
 1096 051c 01E0     		b	.L8
 1097              	.LVL84:
 1098              	.L60:
 359:Source\mbedtls_open\library/camellia.c ****     }
 1099              		.loc 1 359 0
 1100 051e 2420     		movs	r0, #36
 1101 0520 4042     		rsbs	r0, r0, #0
 1102              	.LVL85:
 1103              	.L8:
 438:Source\mbedtls_open\library/camellia.c **** }
 1104              		.loc 1 438 0
 1105 0522 42B0     		add	sp, sp, #264
 1106              		@ sp needed
 1107              	.LVL86:
 1108 0524 1CBC     		pop	{r2, r3, r4}
 1109 0526 9046     		mov	r8, r2
 1110 0528 9946     		mov	r9, r3
 1111 052a A246     		mov	r10, r4
 1112 052c F0BD     		pop	{r4, r5, r6, r7, pc}
 1113              	.L64:
 1114 052e C046     		.align	2
 1115              	.L63:
 1116 0530 00040000 		.word	.LANCHOR4
 1117 0534 80040000 		.word	.LANCHOR5
 1118              		.cfi_endproc
 1119              	.LFE4:
 1120              		.size	mbedtls_camellia_setkey_enc, .-mbedtls_camellia_setkey_enc
 1121              		.section	.text.mbedtls_camellia_setkey_dec,"ax",%progbits
 1122              		.align	2
 1123              		.global	mbedtls_camellia_setkey_dec
 1124              		.code	16
 1125              		.thumb_func
 1126              		.type	mbedtls_camellia_setkey_dec, %function
 1127              	mbedtls_camellia_setkey_dec:
 1128              	.LFB5:
 439:Source\mbedtls_open\library/camellia.c **** 
 440:Source\mbedtls_open\library/camellia.c **** /*
 441:Source\mbedtls_open\library/camellia.c ****  * Camellia key schedule (decryption)
 442:Source\mbedtls_open\library/camellia.c ****  */
 443:Source\mbedtls_open\library/camellia.c **** int mbedtls_camellia_setkey_dec( mbedtls_camellia_context *ctx, const unsigned char *key,
 444:Source\mbedtls_open\library/camellia.c ****                          unsigned int keybits )
 445:Source\mbedtls_open\library/camellia.c **** {
ARM GAS  C:\Users\Phuong\AppData\Local\Temp\ccZ7UQ35.s 			page 29


 1129              		.loc 1 445 0
 1130              		.cfi_startproc
 1131              		@ args = 0, pretend = 0, frame = 280
 1132              		@ frame_needed = 0, uses_anonymous_args = 0
 1133              	.LVL87:
 1134 0000 70B5     		push	{r4, r5, r6, lr}
 1135              		.cfi_def_cfa_offset 16
 1136              		.cfi_offset 4, -16
 1137              		.cfi_offset 5, -12
 1138              		.cfi_offset 6, -8
 1139              		.cfi_offset 14, -4
 1140 0002 C6B0     		sub	sp, sp, #280
 1141              		.cfi_def_cfa_offset 296
 1142 0004 0500     		movs	r5, r0
 1143 0006 0C00     		movs	r4, r1
 1144 0008 1600     		movs	r6, r2
 446:Source\mbedtls_open\library/camellia.c ****     int idx, ret;
 447:Source\mbedtls_open\library/camellia.c ****     size_t i;
 448:Source\mbedtls_open\library/camellia.c ****     mbedtls_camellia_context cty;
 449:Source\mbedtls_open\library/camellia.c ****     uint32_t *RK;
 450:Source\mbedtls_open\library/camellia.c ****     uint32_t *SK;
 451:Source\mbedtls_open\library/camellia.c **** 
 452:Source\mbedtls_open\library/camellia.c ****     mbedtls_camellia_init( &cty );
 1145              		.loc 1 452 0
 1146 000a 01A8     		add	r0, sp, #4
 1147              	.LVL88:
 1148 000c FFF7FEFF 		bl	mbedtls_camellia_init
 1149              	.LVL89:
 453:Source\mbedtls_open\library/camellia.c **** 
 454:Source\mbedtls_open\library/camellia.c ****     /* Also checks keybits */
 455:Source\mbedtls_open\library/camellia.c ****     if( ( ret = mbedtls_camellia_setkey_enc( &cty, key, keybits ) ) != 0 )
 1150              		.loc 1 455 0
 1151 0010 3200     		movs	r2, r6
 1152 0012 2100     		movs	r1, r4
 1153 0014 01A8     		add	r0, sp, #4
 1154 0016 FFF7FEFF 		bl	mbedtls_camellia_setkey_enc
 1155              	.LVL90:
 1156 001a 041E     		subs	r4, r0, #0
 1157              	.LVL91:
 1158 001c 2CD1     		bne	.L66
 456:Source\mbedtls_open\library/camellia.c ****         goto exit;
 457:Source\mbedtls_open\library/camellia.c **** 
 458:Source\mbedtls_open\library/camellia.c ****     ctx->nr = cty.nr;
 1159              		.loc 1 458 0
 1160 001e 019B     		ldr	r3, [sp, #4]
 1161 0020 2B60     		str	r3, [r5]
 459:Source\mbedtls_open\library/camellia.c ****     idx = ( ctx->nr == 4 );
 1162              		.loc 1 459 0
 1163 0022 191F     		subs	r1, r3, #4
 1164 0024 4A42     		rsbs	r2, r1, #0
 1165 0026 4A41     		adcs	r2, r2, r1
 1166 0028 D1B2     		uxtb	r1, r2
 1167              	.LVL92:
 460:Source\mbedtls_open\library/camellia.c **** 
 461:Source\mbedtls_open\library/camellia.c ****     RK = ctx->rk;
 462:Source\mbedtls_open\library/camellia.c ****     SK = cty.rk + 24 * 2 + 8 * idx * 2;
 1168              		.loc 1 462 0
ARM GAS  C:\Users\Phuong\AppData\Local\Temp\ccZ7UQ35.s 			page 30


 1169 002a 8B01     		lsls	r3, r1, #6
 1170 002c C033     		adds	r3, r3, #192
 1171 002e 02AA     		add	r2, sp, #8
 1172 0030 9446     		mov	ip, r2
 1173 0032 6344     		add	r3, r3, ip
 1174              	.LVL93:
 463:Source\mbedtls_open\library/camellia.c **** 
 464:Source\mbedtls_open\library/camellia.c ****     *RK++ = *SK++;
 1175              		.loc 1 464 0
 1176 0034 1A68     		ldr	r2, [r3]
 1177 0036 6A60     		str	r2, [r5, #4]
 1178              	.LVL94:
 465:Source\mbedtls_open\library/camellia.c ****     *RK++ = *SK++;
 1179              		.loc 1 465 0
 1180 0038 5A68     		ldr	r2, [r3, #4]
 1181 003a AA60     		str	r2, [r5, #8]
 1182              	.LVL95:
 466:Source\mbedtls_open\library/camellia.c ****     *RK++ = *SK++;
 1183              		.loc 1 466 0
 1184 003c 9A68     		ldr	r2, [r3, #8]
 1185 003e EA60     		str	r2, [r5, #12]
 467:Source\mbedtls_open\library/camellia.c ****     *RK++ = *SK++;
 1186              		.loc 1 467 0
 1187 0040 2A00     		movs	r2, r5
 1188 0042 1432     		adds	r2, r2, #20
 1189              	.LVL96:
 1190 0044 D868     		ldr	r0, [r3, #12]
 1191              	.LVL97:
 1192 0046 2861     		str	r0, [r5, #16]
 468:Source\mbedtls_open\library/camellia.c **** 
 469:Source\mbedtls_open\library/camellia.c ****     for( i = 22 + 8 * idx, SK -= 6; i > 0; i--, SK -= 4 )
 1193              		.loc 1 469 0
 1194 0048 C900     		lsls	r1, r1, #3
 1195              	.LVL98:
 1196 004a 1631     		adds	r1, r1, #22
 1197              	.LVL99:
 1198 004c 083B     		subs	r3, r3, #8
 1199              	.LVL100:
 1200 004e 06E0     		b	.L67
 1201              	.LVL101:
 1202              	.L68:
 470:Source\mbedtls_open\library/camellia.c ****     {
 471:Source\mbedtls_open\library/camellia.c ****         *RK++ = *SK++;
 1203              		.loc 1 471 0 discriminator 3
 1204 0050 1868     		ldr	r0, [r3]
 1205 0052 1060     		str	r0, [r2]
 1206              	.LVL102:
 472:Source\mbedtls_open\library/camellia.c ****         *RK++ = *SK++;
 1207              		.loc 1 472 0 discriminator 3
 1208 0054 5868     		ldr	r0, [r3, #4]
 1209 0056 5060     		str	r0, [r2, #4]
 469:Source\mbedtls_open\library/camellia.c ****     {
 1210              		.loc 1 469 0 discriminator 3
 1211 0058 0139     		subs	r1, r1, #1
 1212              	.LVL103:
 1213 005a 083B     		subs	r3, r3, #8
 1214              	.LVL104:
ARM GAS  C:\Users\Phuong\AppData\Local\Temp\ccZ7UQ35.s 			page 31


 1215              		.loc 1 472 0 discriminator 3
 1216 005c 0832     		adds	r2, r2, #8
 1217              	.LVL105:
 1218              	.L67:
 469:Source\mbedtls_open\library/camellia.c ****     {
 1219              		.loc 1 469 0 discriminator 1
 1220 005e 0029     		cmp	r1, #0
 1221 0060 F6D1     		bne	.L68
 1222              	.LVL106:
 473:Source\mbedtls_open\library/camellia.c ****     }
 474:Source\mbedtls_open\library/camellia.c **** 
 475:Source\mbedtls_open\library/camellia.c ****     SK -= 2;
 476:Source\mbedtls_open\library/camellia.c **** 
 477:Source\mbedtls_open\library/camellia.c ****     *RK++ = *SK++;
 1223              		.loc 1 477 0
 1224 0062 1900     		movs	r1, r3
 1225              	.LVL107:
 1226 0064 0839     		subs	r1, r1, #8
 1227              	.LVL108:
 1228 0066 0968     		ldr	r1, [r1]
 1229              	.LVL109:
 1230 0068 1160     		str	r1, [r2]
 1231              	.LVL110:
 478:Source\mbedtls_open\library/camellia.c ****     *RK++ = *SK++;
 1232              		.loc 1 478 0
 1233 006a 191F     		subs	r1, r3, #4
 1234 006c 0968     		ldr	r1, [r1]
 1235 006e 5160     		str	r1, [r2, #4]
 1236              	.LVL111:
 479:Source\mbedtls_open\library/camellia.c ****     *RK++ = *SK++;
 1237              		.loc 1 479 0
 1238 0070 1968     		ldr	r1, [r3]
 1239 0072 9160     		str	r1, [r2, #8]
 1240              	.LVL112:
 480:Source\mbedtls_open\library/camellia.c ****     *RK++ = *SK++;
 1241              		.loc 1 480 0
 1242 0074 5B68     		ldr	r3, [r3, #4]
 1243              	.LVL113:
 1244 0076 D360     		str	r3, [r2, #12]
 1245              	.LVL114:
 1246              	.L66:
 481:Source\mbedtls_open\library/camellia.c **** 
 482:Source\mbedtls_open\library/camellia.c **** exit:
 483:Source\mbedtls_open\library/camellia.c ****     mbedtls_camellia_free( &cty );
 1247              		.loc 1 483 0
 1248 0078 01A8     		add	r0, sp, #4
 1249 007a FFF7FEFF 		bl	mbedtls_camellia_free
 1250              	.LVL115:
 484:Source\mbedtls_open\library/camellia.c **** 
 485:Source\mbedtls_open\library/camellia.c ****     return( ret );
 486:Source\mbedtls_open\library/camellia.c **** }
 1251              		.loc 1 486 0
 1252 007e 2000     		movs	r0, r4
 1253 0080 46B0     		add	sp, sp, #280
 1254              		@ sp needed
 1255              	.LVL116:
 1256              	.LVL117:
ARM GAS  C:\Users\Phuong\AppData\Local\Temp\ccZ7UQ35.s 			page 32


 1257              	.LVL118:
 1258 0082 70BD     		pop	{r4, r5, r6, pc}
 1259              		.cfi_endproc
 1260              	.LFE5:
 1261              		.size	mbedtls_camellia_setkey_dec, .-mbedtls_camellia_setkey_dec
 1262              		.section	.text.mbedtls_camellia_crypt_ecb,"ax",%progbits
 1263              		.align	2
 1264              		.global	mbedtls_camellia_crypt_ecb
 1265              		.code	16
 1266              		.thumb_func
 1267              		.type	mbedtls_camellia_crypt_ecb, %function
 1268              	mbedtls_camellia_crypt_ecb:
 1269              	.LFB6:
 487:Source\mbedtls_open\library/camellia.c **** 
 488:Source\mbedtls_open\library/camellia.c **** /*
 489:Source\mbedtls_open\library/camellia.c ****  * Camellia-ECB block encryption/decryption
 490:Source\mbedtls_open\library/camellia.c ****  */
 491:Source\mbedtls_open\library/camellia.c **** int mbedtls_camellia_crypt_ecb( mbedtls_camellia_context *ctx,
 492:Source\mbedtls_open\library/camellia.c ****                     int mode,
 493:Source\mbedtls_open\library/camellia.c ****                     const unsigned char input[16],
 494:Source\mbedtls_open\library/camellia.c ****                     unsigned char output[16] )
 495:Source\mbedtls_open\library/camellia.c **** {
 1270              		.loc 1 495 0
 1271              		.cfi_startproc
 1272              		@ args = 0, pretend = 0, frame = 24
 1273              		@ frame_needed = 0, uses_anonymous_args = 0
 1274              	.LVL119:
 1275 0000 F0B5     		push	{r4, r5, r6, r7, lr}
 1276              		.cfi_def_cfa_offset 20
 1277              		.cfi_offset 4, -20
 1278              		.cfi_offset 5, -16
 1279              		.cfi_offset 6, -12
 1280              		.cfi_offset 7, -8
 1281              		.cfi_offset 14, -4
 1282 0002 87B0     		sub	sp, sp, #28
 1283              		.cfi_def_cfa_offset 48
 1284 0004 1E00     		movs	r6, r3
 496:Source\mbedtls_open\library/camellia.c ****     int NR;
 497:Source\mbedtls_open\library/camellia.c ****     uint32_t *RK, X[4];
 498:Source\mbedtls_open\library/camellia.c **** 
 499:Source\mbedtls_open\library/camellia.c ****     ( (void) mode );
 500:Source\mbedtls_open\library/camellia.c **** 
 501:Source\mbedtls_open\library/camellia.c ****     NR = ctx->nr;
 1285              		.loc 1 501 0
 1286 0006 0568     		ldr	r5, [r0]
 1287              	.LVL120:
 502:Source\mbedtls_open\library/camellia.c ****     RK = ctx->rk;
 503:Source\mbedtls_open\library/camellia.c **** 
 504:Source\mbedtls_open\library/camellia.c ****     GET_UINT32_BE( X[0], input,  0 );
 1288              		.loc 1 504 0
 1289 0008 1778     		ldrb	r7, [r2]
 1290 000a 3F06     		lsls	r7, r7, #24
 1291 000c 5378     		ldrb	r3, [r2, #1]
 1292              	.LVL121:
 1293 000e 1B04     		lsls	r3, r3, #16
 1294 0010 1F43     		orrs	r7, r3
 1295 0012 9378     		ldrb	r3, [r2, #2]
ARM GAS  C:\Users\Phuong\AppData\Local\Temp\ccZ7UQ35.s 			page 33


 1296 0014 1B02     		lsls	r3, r3, #8
 1297 0016 1F43     		orrs	r7, r3
 1298 0018 D378     		ldrb	r3, [r2, #3]
 1299 001a 1F43     		orrs	r7, r3
 505:Source\mbedtls_open\library/camellia.c ****     GET_UINT32_BE( X[1], input,  4 );
 1300              		.loc 1 505 0
 1301 001c 1479     		ldrb	r4, [r2, #4]
 1302 001e 2406     		lsls	r4, r4, #24
 1303 0020 5379     		ldrb	r3, [r2, #5]
 1304 0022 1B04     		lsls	r3, r3, #16
 1305 0024 1C43     		orrs	r4, r3
 1306 0026 9379     		ldrb	r3, [r2, #6]
 1307 0028 1B02     		lsls	r3, r3, #8
 1308 002a 1C43     		orrs	r4, r3
 1309 002c D379     		ldrb	r3, [r2, #7]
 1310 002e 1C43     		orrs	r4, r3
 506:Source\mbedtls_open\library/camellia.c ****     GET_UINT32_BE( X[2], input,  8 );
 1311              		.loc 1 506 0
 1312 0030 137A     		ldrb	r3, [r2, #8]
 1313 0032 1906     		lsls	r1, r3, #24
 1314              	.LVL122:
 1315 0034 537A     		ldrb	r3, [r2, #9]
 1316 0036 1B04     		lsls	r3, r3, #16
 1317 0038 0B43     		orrs	r3, r1
 1318 003a 917A     		ldrb	r1, [r2, #10]
 1319 003c 0902     		lsls	r1, r1, #8
 1320 003e 0B43     		orrs	r3, r1
 1321 0040 D17A     		ldrb	r1, [r2, #11]
 1322 0042 0B43     		orrs	r3, r1
 1323 0044 9C46     		mov	ip, r3
 507:Source\mbedtls_open\library/camellia.c ****     GET_UINT32_BE( X[3], input, 12 );
 1324              		.loc 1 507 0
 1325 0046 137B     		ldrb	r3, [r2, #12]
 1326 0048 1906     		lsls	r1, r3, #24
 1327 004a 537B     		ldrb	r3, [r2, #13]
 1328 004c 1B04     		lsls	r3, r3, #16
 1329 004e 0B43     		orrs	r3, r1
 1330 0050 917B     		ldrb	r1, [r2, #14]
 1331 0052 0902     		lsls	r1, r1, #8
 1332 0054 0B43     		orrs	r3, r1
 1333 0056 D27B     		ldrb	r2, [r2, #15]
 1334              	.LVL123:
 1335 0058 1343     		orrs	r3, r2
 1336              	.LVL124:
 508:Source\mbedtls_open\library/camellia.c **** 
 509:Source\mbedtls_open\library/camellia.c ****     X[0] ^= *RK++;
 1337              		.loc 1 509 0
 1338 005a 4268     		ldr	r2, [r0, #4]
 1339 005c 5740     		eors	r7, r2
 1340 005e 0297     		str	r7, [sp, #8]
 1341              	.LVL125:
 510:Source\mbedtls_open\library/camellia.c ****     X[1] ^= *RK++;
 1342              		.loc 1 510 0
 1343 0060 8268     		ldr	r2, [r0, #8]
 1344 0062 5440     		eors	r4, r2
 1345 0064 0394     		str	r4, [sp, #12]
 1346              	.LVL126:
ARM GAS  C:\Users\Phuong\AppData\Local\Temp\ccZ7UQ35.s 			page 34


 511:Source\mbedtls_open\library/camellia.c ****     X[2] ^= *RK++;
 1347              		.loc 1 511 0
 1348 0066 6246     		mov	r2, ip
 1349 0068 C168     		ldr	r1, [r0, #12]
 1350 006a 4A40     		eors	r2, r1
 1351 006c 0492     		str	r2, [sp, #16]
 512:Source\mbedtls_open\library/camellia.c ****     X[3] ^= *RK++;
 1352              		.loc 1 512 0
 1353 006e 0400     		movs	r4, r0
 1354 0070 1434     		adds	r4, r4, #20
 1355              	.LVL127:
 1356 0072 0269     		ldr	r2, [r0, #16]
 1357 0074 5340     		eors	r3, r2
 1358 0076 0593     		str	r3, [sp, #20]
 513:Source\mbedtls_open\library/camellia.c **** 
 514:Source\mbedtls_open\library/camellia.c ****     while( NR ) {
 1359              		.loc 1 514 0
 1360 0078 42E0     		b	.L70
 1361              	.LVL128:
 1362              	.L72:
 515:Source\mbedtls_open\library/camellia.c ****         --NR;
 1363              		.loc 1 515 0
 1364 007a 013D     		subs	r5, r5, #1
 1365              	.LVL129:
 516:Source\mbedtls_open\library/camellia.c ****         camellia_feistel( X, RK, X + 2 );
 1366              		.loc 1 516 0
 1367 007c 04AA     		add	r2, sp, #16
 1368 007e 2100     		movs	r1, r4
 1369 0080 02A8     		add	r0, sp, #8
 1370 0082 FFF7FEFF 		bl	camellia_feistel
 1371              	.LVL130:
 517:Source\mbedtls_open\library/camellia.c ****         RK += 2;
 1372              		.loc 1 517 0
 1373 0086 2100     		movs	r1, r4
 1374 0088 0831     		adds	r1, r1, #8
 1375              	.LVL131:
 518:Source\mbedtls_open\library/camellia.c ****         camellia_feistel( X + 2, RK, X );
 1376              		.loc 1 518 0
 1377 008a 02AA     		add	r2, sp, #8
 1378 008c 04A8     		add	r0, sp, #16
 1379 008e FFF7FEFF 		bl	camellia_feistel
 1380              	.LVL132:
 519:Source\mbedtls_open\library/camellia.c ****         RK += 2;
 1381              		.loc 1 519 0
 1382 0092 2100     		movs	r1, r4
 1383 0094 1031     		adds	r1, r1, #16
 520:Source\mbedtls_open\library/camellia.c ****         camellia_feistel( X, RK, X + 2 );
 1384              		.loc 1 520 0
 1385 0096 04AA     		add	r2, sp, #16
 1386 0098 02A8     		add	r0, sp, #8
 1387 009a FFF7FEFF 		bl	camellia_feistel
 1388              	.LVL133:
 521:Source\mbedtls_open\library/camellia.c ****         RK += 2;
 1389              		.loc 1 521 0
 1390 009e 2100     		movs	r1, r4
 1391 00a0 1831     		adds	r1, r1, #24
 522:Source\mbedtls_open\library/camellia.c ****         camellia_feistel( X + 2, RK, X );
ARM GAS  C:\Users\Phuong\AppData\Local\Temp\ccZ7UQ35.s 			page 35


 1392              		.loc 1 522 0
 1393 00a2 02AA     		add	r2, sp, #8
 1394 00a4 04A8     		add	r0, sp, #16
 1395 00a6 FFF7FEFF 		bl	camellia_feistel
 1396              	.LVL134:
 523:Source\mbedtls_open\library/camellia.c ****         RK += 2;
 1397              		.loc 1 523 0
 1398 00aa 2100     		movs	r1, r4
 1399 00ac 2031     		adds	r1, r1, #32
 524:Source\mbedtls_open\library/camellia.c ****         camellia_feistel( X, RK, X + 2 );
 1400              		.loc 1 524 0
 1401 00ae 04AA     		add	r2, sp, #16
 1402 00b0 02A8     		add	r0, sp, #8
 1403 00b2 FFF7FEFF 		bl	camellia_feistel
 1404              	.LVL135:
 525:Source\mbedtls_open\library/camellia.c ****         RK += 2;
 1405              		.loc 1 525 0
 1406 00b6 2100     		movs	r1, r4
 1407 00b8 2831     		adds	r1, r1, #40
 526:Source\mbedtls_open\library/camellia.c ****         camellia_feistel( X + 2, RK, X );
 1408              		.loc 1 526 0
 1409 00ba 02AA     		add	r2, sp, #8
 1410 00bc 04A8     		add	r0, sp, #16
 1411 00be FFF7FEFF 		bl	camellia_feistel
 1412              	.LVL136:
 527:Source\mbedtls_open\library/camellia.c ****         RK += 2;
 1413              		.loc 1 527 0
 1414 00c2 2300     		movs	r3, r4
 1415 00c4 3033     		adds	r3, r3, #48
 1416              	.LVL137:
 528:Source\mbedtls_open\library/camellia.c **** 
 529:Source\mbedtls_open\library/camellia.c ****         if( NR ) {
 1417              		.loc 1 529 0
 1418 00c6 002D     		cmp	r5, #0
 1419 00c8 19D0     		beq	.L73
 530:Source\mbedtls_open\library/camellia.c ****             FL(X[0], X[1], RK[0], RK[1]);
 1420              		.loc 1 530 0
 1421 00ca 029A     		ldr	r2, [sp, #8]
 1422 00cc 236B     		ldr	r3, [r4, #48]
 1423              	.LVL138:
 1424 00ce 1340     		ands	r3, r2
 1425 00d0 1F21     		movs	r1, #31
 1426 00d2 CB41     		rors	r3, r3, r1
 1427 00d4 0398     		ldr	r0, [sp, #12]
 1428 00d6 4340     		eors	r3, r0
 1429 00d8 0393     		str	r3, [sp, #12]
 1430 00da 606B     		ldr	r0, [r4, #52]
 1431 00dc 0343     		orrs	r3, r0
 1432 00de 5340     		eors	r3, r2
 1433 00e0 0293     		str	r3, [sp, #8]
 1434              	.LVL139:
 531:Source\mbedtls_open\library/camellia.c ****             RK += 2;
 532:Source\mbedtls_open\library/camellia.c ****             FLInv(X[2], X[3], RK[0], RK[1]);
 1435              		.loc 1 532 0
 1436 00e2 059A     		ldr	r2, [sp, #20]
 1437 00e4 E36B     		ldr	r3, [r4, #60]
 1438 00e6 1343     		orrs	r3, r2
ARM GAS  C:\Users\Phuong\AppData\Local\Temp\ccZ7UQ35.s 			page 36


 1439 00e8 0498     		ldr	r0, [sp, #16]
 1440 00ea 0190     		str	r0, [sp, #4]
 1441 00ec 4340     		eors	r3, r0
 1442 00ee 0493     		str	r3, [sp, #16]
 1443 00f0 A06B     		ldr	r0, [r4, #56]
 1444 00f2 0340     		ands	r3, r0
 1445 00f4 CB41     		rors	r3, r3, r1
 1446 00f6 5340     		eors	r3, r2
 1447 00f8 0593     		str	r3, [sp, #20]
 533:Source\mbedtls_open\library/camellia.c ****             RK += 2;
 1448              		.loc 1 533 0
 1449 00fa 4034     		adds	r4, r4, #64
 1450              	.LVL140:
 1451 00fc 00E0     		b	.L70
 1452              	.LVL141:
 1453              	.L73:
 527:Source\mbedtls_open\library/camellia.c **** 
 1454              		.loc 1 527 0
 1455 00fe 1C00     		movs	r4, r3
 1456              	.LVL142:
 1457              	.L70:
 514:Source\mbedtls_open\library/camellia.c ****         --NR;
 1458              		.loc 1 514 0
 1459 0100 002D     		cmp	r5, #0
 1460 0102 BAD1     		bne	.L72
 1461              	.LVL143:
 534:Source\mbedtls_open\library/camellia.c ****         }
 535:Source\mbedtls_open\library/camellia.c ****     }
 536:Source\mbedtls_open\library/camellia.c **** 
 537:Source\mbedtls_open\library/camellia.c ****     X[2] ^= *RK++;
 1462              		.loc 1 537 0
 1463 0104 049B     		ldr	r3, [sp, #16]
 1464 0106 1900     		movs	r1, r3
 1465 0108 2368     		ldr	r3, [r4]
 1466 010a 5940     		eors	r1, r3
 1467 010c 0491     		str	r1, [sp, #16]
 1468              	.LVL144:
 538:Source\mbedtls_open\library/camellia.c ****     X[3] ^= *RK++;
 1469              		.loc 1 538 0
 1470 010e 059B     		ldr	r3, [sp, #20]
 1471 0110 0193     		str	r3, [sp, #4]
 1472 0112 1A00     		movs	r2, r3
 1473 0114 6368     		ldr	r3, [r4, #4]
 1474 0116 5A40     		eors	r2, r3
 1475 0118 0592     		str	r2, [sp, #20]
 1476              	.LVL145:
 539:Source\mbedtls_open\library/camellia.c ****     X[0] ^= *RK++;
 1477              		.loc 1 539 0
 1478 011a 029B     		ldr	r3, [sp, #8]
 1479 011c A068     		ldr	r0, [r4, #8]
 1480 011e 4340     		eors	r3, r0
 1481 0120 0293     		str	r3, [sp, #8]
 1482              	.LVL146:
 540:Source\mbedtls_open\library/camellia.c ****     X[1] ^= *RK++;
 1483              		.loc 1 540 0
 1484 0122 E068     		ldr	r0, [r4, #12]
 1485 0124 039C     		ldr	r4, [sp, #12]
ARM GAS  C:\Users\Phuong\AppData\Local\Temp\ccZ7UQ35.s 			page 37


 1486              	.LVL147:
 1487 0126 6040     		eors	r0, r4
 541:Source\mbedtls_open\library/camellia.c **** 
 542:Source\mbedtls_open\library/camellia.c ****     PUT_UINT32_BE( X[2], output,  0 );
 1488              		.loc 1 542 0
 1489 0128 0C0E     		lsrs	r4, r1, #24
 1490 012a 3470     		strb	r4, [r6]
 1491 012c 0C0C     		lsrs	r4, r1, #16
 1492 012e 7470     		strb	r4, [r6, #1]
 1493 0130 0C0A     		lsrs	r4, r1, #8
 1494 0132 B470     		strb	r4, [r6, #2]
 1495 0134 F170     		strb	r1, [r6, #3]
 543:Source\mbedtls_open\library/camellia.c ****     PUT_UINT32_BE( X[3], output,  4 );
 1496              		.loc 1 543 0
 1497 0136 110E     		lsrs	r1, r2, #24
 1498 0138 3171     		strb	r1, [r6, #4]
 1499 013a 110C     		lsrs	r1, r2, #16
 1500 013c 7171     		strb	r1, [r6, #5]
 1501 013e 110A     		lsrs	r1, r2, #8
 1502 0140 B171     		strb	r1, [r6, #6]
 1503 0142 F271     		strb	r2, [r6, #7]
 544:Source\mbedtls_open\library/camellia.c ****     PUT_UINT32_BE( X[0], output,  8 );
 1504              		.loc 1 544 0
 1505 0144 1A0E     		lsrs	r2, r3, #24
 1506 0146 3272     		strb	r2, [r6, #8]
 1507 0148 1A0C     		lsrs	r2, r3, #16
 1508 014a 7272     		strb	r2, [r6, #9]
 1509 014c 1A0A     		lsrs	r2, r3, #8
 1510 014e B272     		strb	r2, [r6, #10]
 1511 0150 F372     		strb	r3, [r6, #11]
 545:Source\mbedtls_open\library/camellia.c ****     PUT_UINT32_BE( X[1], output, 12 );
 1512              		.loc 1 545 0
 1513 0152 030E     		lsrs	r3, r0, #24
 1514 0154 3373     		strb	r3, [r6, #12]
 1515 0156 030C     		lsrs	r3, r0, #16
 1516 0158 7373     		strb	r3, [r6, #13]
 1517 015a 030A     		lsrs	r3, r0, #8
 1518 015c B373     		strb	r3, [r6, #14]
 1519 015e F073     		strb	r0, [r6, #15]
 546:Source\mbedtls_open\library/camellia.c **** 
 547:Source\mbedtls_open\library/camellia.c ****     return( 0 );
 548:Source\mbedtls_open\library/camellia.c **** }
 1520              		.loc 1 548 0
 1521 0160 0020     		movs	r0, #0
 1522 0162 07B0     		add	sp, sp, #28
 1523              		@ sp needed
 1524              	.LVL148:
 1525              	.LVL149:
 1526 0164 F0BD     		pop	{r4, r5, r6, r7, pc}
 1527              		.cfi_endproc
 1528              	.LFE6:
 1529              		.size	mbedtls_camellia_crypt_ecb, .-mbedtls_camellia_crypt_ecb
 1530 0166 C046     		.section	.text.mbedtls_camellia_crypt_cbc,"ax",%progbits
 1531              		.align	2
 1532              		.global	mbedtls_camellia_crypt_cbc
 1533              		.code	16
 1534              		.thumb_func
ARM GAS  C:\Users\Phuong\AppData\Local\Temp\ccZ7UQ35.s 			page 38


 1535              		.type	mbedtls_camellia_crypt_cbc, %function
 1536              	mbedtls_camellia_crypt_cbc:
 1537              	.LFB7:
 549:Source\mbedtls_open\library/camellia.c **** 
 550:Source\mbedtls_open\library/camellia.c **** #if defined(MBEDTLS_CIPHER_MODE_CBC)
 551:Source\mbedtls_open\library/camellia.c **** /*
 552:Source\mbedtls_open\library/camellia.c ****  * Camellia-CBC buffer encryption/decryption
 553:Source\mbedtls_open\library/camellia.c ****  */
 554:Source\mbedtls_open\library/camellia.c **** int mbedtls_camellia_crypt_cbc( mbedtls_camellia_context *ctx,
 555:Source\mbedtls_open\library/camellia.c ****                     int mode,
 556:Source\mbedtls_open\library/camellia.c ****                     size_t length,
 557:Source\mbedtls_open\library/camellia.c ****                     unsigned char iv[16],
 558:Source\mbedtls_open\library/camellia.c ****                     const unsigned char *input,
 559:Source\mbedtls_open\library/camellia.c ****                     unsigned char *output )
 560:Source\mbedtls_open\library/camellia.c **** {
 1538              		.loc 1 560 0
 1539              		.cfi_startproc
 1540              		@ args = 8, pretend = 0, frame = 24
 1541              		@ frame_needed = 0, uses_anonymous_args = 0
 1542              	.LVL150:
 1543 0000 F0B5     		push	{r4, r5, r6, r7, lr}
 1544              		.cfi_def_cfa_offset 20
 1545              		.cfi_offset 4, -20
 1546              		.cfi_offset 5, -16
 1547              		.cfi_offset 6, -12
 1548              		.cfi_offset 7, -8
 1549              		.cfi_offset 14, -4
 1550 0002 87B0     		sub	sp, sp, #28
 1551              		.cfi_def_cfa_offset 48
 1552 0004 0090     		str	r0, [sp]
 1553 0006 0191     		str	r1, [sp, #4]
 1554 0008 1500     		movs	r5, r2
 1555 000a 1F00     		movs	r7, r3
 1556 000c 0C9C     		ldr	r4, [sp, #48]
 1557 000e 0D9E     		ldr	r6, [sp, #52]
 561:Source\mbedtls_open\library/camellia.c ****     int i;
 562:Source\mbedtls_open\library/camellia.c ****     unsigned char temp[16];
 563:Source\mbedtls_open\library/camellia.c **** 
 564:Source\mbedtls_open\library/camellia.c ****     if( length % 16 )
 1558              		.loc 1 564 0
 1559 0010 1307     		lsls	r3, r2, #28
 1560 0012 3ED1     		bne	.L83
 1561              	.LVL151:
 565:Source\mbedtls_open\library/camellia.c ****         return( MBEDTLS_ERR_CAMELLIA_INVALID_INPUT_LENGTH );
 566:Source\mbedtls_open\library/camellia.c **** 
 567:Source\mbedtls_open\library/camellia.c ****     if( mode == MBEDTLS_CAMELLIA_DECRYPT )
 1562              		.loc 1 567 0
 1563 0014 0029     		cmp	r1, #0
 1564 0016 1DD0     		beq	.L76
 1565 0018 37E0     		b	.L77
 1566              	.LVL152:
 1567              	.L80:
 568:Source\mbedtls_open\library/camellia.c ****     {
 569:Source\mbedtls_open\library/camellia.c ****         while( length > 0 )
 570:Source\mbedtls_open\library/camellia.c ****         {
 571:Source\mbedtls_open\library/camellia.c ****             memcpy( temp, input, 16 );
 1568              		.loc 1 571 0
ARM GAS  C:\Users\Phuong\AppData\Local\Temp\ccZ7UQ35.s 			page 39


 1569 001a 1022     		movs	r2, #16
 1570 001c 2100     		movs	r1, r4
 1571 001e 02A8     		add	r0, sp, #8
 1572 0020 FFF7FEFF 		bl	memcpy
 1573              	.LVL153:
 572:Source\mbedtls_open\library/camellia.c ****             mbedtls_camellia_crypt_ecb( ctx, mode, input, output );
 1574              		.loc 1 572 0
 1575 0024 3300     		movs	r3, r6
 1576 0026 2200     		movs	r2, r4
 1577 0028 0199     		ldr	r1, [sp, #4]
 1578 002a 0098     		ldr	r0, [sp]
 1579 002c FFF7FEFF 		bl	mbedtls_camellia_crypt_ecb
 1580              	.LVL154:
 573:Source\mbedtls_open\library/camellia.c **** 
 574:Source\mbedtls_open\library/camellia.c ****             for( i = 0; i < 16; i++ )
 1581              		.loc 1 574 0
 1582 0030 0023     		movs	r3, #0
 1583 0032 05E0     		b	.L78
 1584              	.LVL155:
 1585              	.L79:
 575:Source\mbedtls_open\library/camellia.c ****                 output[i] = (unsigned char)( output[i] ^ iv[i] );
 1586              		.loc 1 575 0 discriminator 3
 1587 0034 F118     		adds	r1, r6, r3
 1588 0036 0878     		ldrb	r0, [r1]
 1589 0038 FA5C     		ldrb	r2, [r7, r3]
 1590 003a 4240     		eors	r2, r0
 1591 003c 0A70     		strb	r2, [r1]
 574:Source\mbedtls_open\library/camellia.c ****                 output[i] = (unsigned char)( output[i] ^ iv[i] );
 1592              		.loc 1 574 0 discriminator 3
 1593 003e 0133     		adds	r3, r3, #1
 1594              	.LVL156:
 1595              	.L78:
 574:Source\mbedtls_open\library/camellia.c ****                 output[i] = (unsigned char)( output[i] ^ iv[i] );
 1596              		.loc 1 574 0 is_stmt 0 discriminator 1
 1597 0040 0F2B     		cmp	r3, #15
 1598 0042 F7DD     		ble	.L79
 576:Source\mbedtls_open\library/camellia.c **** 
 577:Source\mbedtls_open\library/camellia.c ****             memcpy( iv, temp, 16 );
 1599              		.loc 1 577 0 is_stmt 1
 1600 0044 1022     		movs	r2, #16
 1601 0046 02A9     		add	r1, sp, #8
 1602 0048 3800     		movs	r0, r7
 1603 004a FFF7FEFF 		bl	memcpy
 1604              	.LVL157:
 578:Source\mbedtls_open\library/camellia.c **** 
 579:Source\mbedtls_open\library/camellia.c ****             input  += 16;
 1605              		.loc 1 579 0
 1606 004e 1034     		adds	r4, r4, #16
 1607              	.LVL158:
 580:Source\mbedtls_open\library/camellia.c ****             output += 16;
 1608              		.loc 1 580 0
 1609 0050 1036     		adds	r6, r6, #16
 1610              	.LVL159:
 581:Source\mbedtls_open\library/camellia.c ****             length -= 16;
 1611              		.loc 1 581 0
 1612 0052 103D     		subs	r5, r5, #16
 1613              	.LVL160:
ARM GAS  C:\Users\Phuong\AppData\Local\Temp\ccZ7UQ35.s 			page 40


 1614              	.L76:
 569:Source\mbedtls_open\library/camellia.c ****         {
 1615              		.loc 1 569 0
 1616 0054 002D     		cmp	r5, #0
 1617 0056 E0D1     		bne	.L80
 582:Source\mbedtls_open\library/camellia.c ****         }
 583:Source\mbedtls_open\library/camellia.c ****     }
 584:Source\mbedtls_open\library/camellia.c ****     else
 585:Source\mbedtls_open\library/camellia.c ****     {
 586:Source\mbedtls_open\library/camellia.c ****         while( length > 0 )
 587:Source\mbedtls_open\library/camellia.c ****         {
 588:Source\mbedtls_open\library/camellia.c ****             for( i = 0; i < 16; i++ )
 589:Source\mbedtls_open\library/camellia.c ****                 output[i] = (unsigned char)( input[i] ^ iv[i] );
 590:Source\mbedtls_open\library/camellia.c **** 
 591:Source\mbedtls_open\library/camellia.c ****             mbedtls_camellia_crypt_ecb( ctx, mode, output, output );
 592:Source\mbedtls_open\library/camellia.c ****             memcpy( iv, output, 16 );
 593:Source\mbedtls_open\library/camellia.c **** 
 594:Source\mbedtls_open\library/camellia.c ****             input  += 16;
 595:Source\mbedtls_open\library/camellia.c ****             output += 16;
 596:Source\mbedtls_open\library/camellia.c ****             length -= 16;
 597:Source\mbedtls_open\library/camellia.c ****         }
 598:Source\mbedtls_open\library/camellia.c ****     }
 599:Source\mbedtls_open\library/camellia.c **** 
 600:Source\mbedtls_open\library/camellia.c ****     return( 0 );
 1618              		.loc 1 600 0
 1619 0058 0020     		movs	r0, #0
 1620 005a 1CE0     		b	.L75
 1621              	.LVL161:
 1622              	.L81:
 589:Source\mbedtls_open\library/camellia.c **** 
 1623              		.loc 1 589 0 discriminator 3
 1624 005c E15C     		ldrb	r1, [r4, r3]
 1625 005e FA5C     		ldrb	r2, [r7, r3]
 1626 0060 4A40     		eors	r2, r1
 1627 0062 F254     		strb	r2, [r6, r3]
 588:Source\mbedtls_open\library/camellia.c ****                 output[i] = (unsigned char)( input[i] ^ iv[i] );
 1628              		.loc 1 588 0 discriminator 3
 1629 0064 0133     		adds	r3, r3, #1
 1630              	.LVL162:
 1631 0066 00E0     		b	.L82
 1632              	.LVL163:
 1633              	.L84:
 1634 0068 0023     		movs	r3, #0
 1635              	.L82:
 1636              	.LVL164:
 588:Source\mbedtls_open\library/camellia.c ****                 output[i] = (unsigned char)( input[i] ^ iv[i] );
 1637              		.loc 1 588 0 is_stmt 0 discriminator 1
 1638 006a 0F2B     		cmp	r3, #15
 1639 006c F6DD     		ble	.L81
 591:Source\mbedtls_open\library/camellia.c ****             memcpy( iv, output, 16 );
 1640              		.loc 1 591 0 is_stmt 1
 1641 006e 3300     		movs	r3, r6
 1642              	.LVL165:
 1643 0070 3200     		movs	r2, r6
 1644 0072 0199     		ldr	r1, [sp, #4]
 1645 0074 0098     		ldr	r0, [sp]
 1646 0076 FFF7FEFF 		bl	mbedtls_camellia_crypt_ecb
ARM GAS  C:\Users\Phuong\AppData\Local\Temp\ccZ7UQ35.s 			page 41


 1647              	.LVL166:
 592:Source\mbedtls_open\library/camellia.c **** 
 1648              		.loc 1 592 0
 1649 007a 1022     		movs	r2, #16
 1650 007c 3100     		movs	r1, r6
 1651 007e 3800     		movs	r0, r7
 1652 0080 FFF7FEFF 		bl	memcpy
 1653              	.LVL167:
 594:Source\mbedtls_open\library/camellia.c ****             output += 16;
 1654              		.loc 1 594 0
 1655 0084 1034     		adds	r4, r4, #16
 1656              	.LVL168:
 595:Source\mbedtls_open\library/camellia.c ****             length -= 16;
 1657              		.loc 1 595 0
 1658 0086 1036     		adds	r6, r6, #16
 1659              	.LVL169:
 596:Source\mbedtls_open\library/camellia.c ****         }
 1660              		.loc 1 596 0
 1661 0088 103D     		subs	r5, r5, #16
 1662              	.LVL170:
 1663              	.L77:
 586:Source\mbedtls_open\library/camellia.c ****         {
 1664              		.loc 1 586 0
 1665 008a 002D     		cmp	r5, #0
 1666 008c ECD1     		bne	.L84
 1667              		.loc 1 600 0
 1668 008e 0020     		movs	r0, #0
 1669 0090 01E0     		b	.L75
 1670              	.LVL171:
 1671              	.L83:
 565:Source\mbedtls_open\library/camellia.c **** 
 1672              		.loc 1 565 0
 1673 0092 2620     		movs	r0, #38
 1674              	.LVL172:
 1675 0094 4042     		rsbs	r0, r0, #0
 1676              	.LVL173:
 1677              	.L75:
 601:Source\mbedtls_open\library/camellia.c **** }
 1678              		.loc 1 601 0
 1679 0096 07B0     		add	sp, sp, #28
 1680              	.LVL174:
 1681              		@ sp needed
 1682              	.LVL175:
 1683              	.LVL176:
 1684 0098 F0BD     		pop	{r4, r5, r6, r7, pc}
 1685              		.cfi_endproc
 1686              	.LFE7:
 1687              		.size	mbedtls_camellia_crypt_cbc, .-mbedtls_camellia_crypt_cbc
 1688 009a C046     		.section	.text.mbedtls_camellia_crypt_cfb128,"ax",%progbits
 1689              		.align	2
 1690              		.global	mbedtls_camellia_crypt_cfb128
 1691              		.code	16
 1692              		.thumb_func
 1693              		.type	mbedtls_camellia_crypt_cfb128, %function
 1694              	mbedtls_camellia_crypt_cfb128:
 1695              	.LFB8:
 602:Source\mbedtls_open\library/camellia.c **** #endif /* MBEDTLS_CIPHER_MODE_CBC */
ARM GAS  C:\Users\Phuong\AppData\Local\Temp\ccZ7UQ35.s 			page 42


 603:Source\mbedtls_open\library/camellia.c **** 
 604:Source\mbedtls_open\library/camellia.c **** #if defined(MBEDTLS_CIPHER_MODE_CFB)
 605:Source\mbedtls_open\library/camellia.c **** /*
 606:Source\mbedtls_open\library/camellia.c ****  * Camellia-CFB128 buffer encryption/decryption
 607:Source\mbedtls_open\library/camellia.c ****  */
 608:Source\mbedtls_open\library/camellia.c **** int mbedtls_camellia_crypt_cfb128( mbedtls_camellia_context *ctx,
 609:Source\mbedtls_open\library/camellia.c ****                        int mode,
 610:Source\mbedtls_open\library/camellia.c ****                        size_t length,
 611:Source\mbedtls_open\library/camellia.c ****                        size_t *iv_off,
 612:Source\mbedtls_open\library/camellia.c ****                        unsigned char iv[16],
 613:Source\mbedtls_open\library/camellia.c ****                        const unsigned char *input,
 614:Source\mbedtls_open\library/camellia.c ****                        unsigned char *output )
 615:Source\mbedtls_open\library/camellia.c **** {
 1696              		.loc 1 615 0
 1697              		.cfi_startproc
 1698              		@ args = 12, pretend = 0, frame = 8
 1699              		@ frame_needed = 0, uses_anonymous_args = 0
 1700              	.LVL177:
 1701 0000 F0B5     		push	{r4, r5, r6, r7, lr}
 1702              		.cfi_def_cfa_offset 20
 1703              		.cfi_offset 4, -20
 1704              		.cfi_offset 5, -16
 1705              		.cfi_offset 6, -12
 1706              		.cfi_offset 7, -8
 1707              		.cfi_offset 14, -4
 1708 0002 4F46     		mov	r7, r9
 1709 0004 4646     		mov	r6, r8
 1710 0006 C0B4     		push	{r6, r7}
 1711              		.cfi_def_cfa_offset 28
 1712              		.cfi_offset 8, -28
 1713              		.cfi_offset 9, -24
 1714 0008 83B0     		sub	sp, sp, #12
 1715              		.cfi_def_cfa_offset 40
 1716 000a 0190     		str	r0, [sp, #4]
 1717 000c 9846     		mov	r8, r3
 1718 000e 0A9E     		ldr	r6, [sp, #40]
 1719 0010 0B9D     		ldr	r5, [sp, #44]
 1720 0012 0C9F     		ldr	r7, [sp, #48]
 616:Source\mbedtls_open\library/camellia.c ****     int c;
 617:Source\mbedtls_open\library/camellia.c ****     size_t n = *iv_off;
 1721              		.loc 1 617 0
 1722 0014 1C68     		ldr	r4, [r3]
 1723              	.LVL178:
 618:Source\mbedtls_open\library/camellia.c **** 
 619:Source\mbedtls_open\library/camellia.c ****     if( mode == MBEDTLS_CAMELLIA_DECRYPT )
 1724              		.loc 1 619 0
 1725 0016 0029     		cmp	r1, #0
 1726 0018 14D0     		beq	.L86
 1727 001a 2CE0     		b	.L87
 1728              	.LVL179:
 1729              	.L89:
 620:Source\mbedtls_open\library/camellia.c ****     {
 621:Source\mbedtls_open\library/camellia.c ****         while( length-- )
 622:Source\mbedtls_open\library/camellia.c ****         {
 623:Source\mbedtls_open\library/camellia.c ****             if( n == 0 )
 1730              		.loc 1 623 0
 1731 001c 002C     		cmp	r4, #0
ARM GAS  C:\Users\Phuong\AppData\Local\Temp\ccZ7UQ35.s 			page 43


 1732 001e 05D1     		bne	.L88
 624:Source\mbedtls_open\library/camellia.c ****                 mbedtls_camellia_crypt_ecb( ctx, MBEDTLS_CAMELLIA_ENCRYPT, iv, iv );
 1733              		.loc 1 624 0
 1734 0020 3300     		movs	r3, r6
 1735              	.LVL180:
 1736 0022 3200     		movs	r2, r6
 1737 0024 0121     		movs	r1, #1
 1738 0026 0198     		ldr	r0, [sp, #4]
 1739 0028 FFF7FEFF 		bl	mbedtls_camellia_crypt_ecb
 1740              	.LVL181:
 1741              	.L88:
 625:Source\mbedtls_open\library/camellia.c **** 
 626:Source\mbedtls_open\library/camellia.c ****             c = *input++;
 1742              		.loc 1 626 0
 1743 002c 2978     		ldrb	r1, [r5]
 1744              	.LVL182:
 627:Source\mbedtls_open\library/camellia.c ****             *output++ = (unsigned char)( c ^ iv[n] );
 1745              		.loc 1 627 0
 1746 002e 3219     		adds	r2, r6, r4
 1747 0030 1378     		ldrb	r3, [r2]
 1748 0032 4B40     		eors	r3, r1
 1749 0034 3B70     		strb	r3, [r7]
 628:Source\mbedtls_open\library/camellia.c ****             iv[n] = (unsigned char) c;
 1750              		.loc 1 628 0
 1751 0036 1170     		strb	r1, [r2]
 629:Source\mbedtls_open\library/camellia.c **** 
 630:Source\mbedtls_open\library/camellia.c ****             n = ( n + 1 ) & 0x0F;
 1752              		.loc 1 630 0
 1753 0038 0134     		adds	r4, r4, #1
 1754              	.LVL183:
 1755 003a 0F23     		movs	r3, #15
 1756 003c 1C40     		ands	r4, r3
 1757              	.LVL184:
 621:Source\mbedtls_open\library/camellia.c ****         {
 1758              		.loc 1 621 0
 1759 003e 4A46     		mov	r2, r9
 627:Source\mbedtls_open\library/camellia.c ****             iv[n] = (unsigned char) c;
 1760              		.loc 1 627 0
 1761 0040 0137     		adds	r7, r7, #1
 1762              	.LVL185:
 626:Source\mbedtls_open\library/camellia.c ****             *output++ = (unsigned char)( c ^ iv[n] );
 1763              		.loc 1 626 0
 1764 0042 0135     		adds	r5, r5, #1
 1765              	.LVL186:
 1766              	.L86:
 621:Source\mbedtls_open\library/camellia.c ****         {
 1767              		.loc 1 621 0
 1768 0044 531E     		subs	r3, r2, #1
 1769 0046 9946     		mov	r9, r3
 1770              	.LVL187:
 1771 0048 002A     		cmp	r2, #0
 1772 004a E7D1     		bne	.L89
 1773 004c 17E0     		b	.L90
 1774              	.L92:
 631:Source\mbedtls_open\library/camellia.c ****         }
 632:Source\mbedtls_open\library/camellia.c ****     }
 633:Source\mbedtls_open\library/camellia.c ****     else
ARM GAS  C:\Users\Phuong\AppData\Local\Temp\ccZ7UQ35.s 			page 44


 634:Source\mbedtls_open\library/camellia.c ****     {
 635:Source\mbedtls_open\library/camellia.c ****         while( length-- )
 636:Source\mbedtls_open\library/camellia.c ****         {
 637:Source\mbedtls_open\library/camellia.c ****             if( n == 0 )
 1775              		.loc 1 637 0
 1776 004e 002C     		cmp	r4, #0
 1777 0050 05D1     		bne	.L91
 638:Source\mbedtls_open\library/camellia.c ****                 mbedtls_camellia_crypt_ecb( ctx, MBEDTLS_CAMELLIA_ENCRYPT, iv, iv );
 1778              		.loc 1 638 0
 1779 0052 3300     		movs	r3, r6
 1780              	.LVL188:
 1781 0054 3200     		movs	r2, r6
 1782 0056 0121     		movs	r1, #1
 1783 0058 0198     		ldr	r0, [sp, #4]
 1784 005a FFF7FEFF 		bl	mbedtls_camellia_crypt_ecb
 1785              	.LVL189:
 1786              	.L91:
 639:Source\mbedtls_open\library/camellia.c **** 
 640:Source\mbedtls_open\library/camellia.c ****             iv[n] = *output++ = (unsigned char)( iv[n] ^ *input++ );
 1787              		.loc 1 640 0
 1788 005e 3219     		adds	r2, r6, r4
 1789 0060 1178     		ldrb	r1, [r2]
 1790              	.LVL190:
 1791 0062 2B78     		ldrb	r3, [r5]
 1792 0064 4B40     		eors	r3, r1
 1793 0066 3B70     		strb	r3, [r7]
 1794 0068 1370     		strb	r3, [r2]
 641:Source\mbedtls_open\library/camellia.c **** 
 642:Source\mbedtls_open\library/camellia.c ****             n = ( n + 1 ) & 0x0F;
 1795              		.loc 1 642 0
 1796 006a 0134     		adds	r4, r4, #1
 1797              	.LVL191:
 1798 006c 0F23     		movs	r3, #15
 1799 006e 1C40     		ands	r4, r3
 1800              	.LVL192:
 635:Source\mbedtls_open\library/camellia.c ****         {
 1801              		.loc 1 635 0
 1802 0070 4A46     		mov	r2, r9
 640:Source\mbedtls_open\library/camellia.c **** 
 1803              		.loc 1 640 0
 1804 0072 0137     		adds	r7, r7, #1
 1805              	.LVL193:
 1806 0074 0135     		adds	r5, r5, #1
 1807              	.LVL194:
 1808              	.L87:
 635:Source\mbedtls_open\library/camellia.c ****         {
 1809              		.loc 1 635 0
 1810 0076 531E     		subs	r3, r2, #1
 1811 0078 9946     		mov	r9, r3
 1812              	.LVL195:
 1813 007a 002A     		cmp	r2, #0
 1814 007c E7D1     		bne	.L92
 1815              	.L90:
 643:Source\mbedtls_open\library/camellia.c ****         }
 644:Source\mbedtls_open\library/camellia.c ****     }
 645:Source\mbedtls_open\library/camellia.c **** 
 646:Source\mbedtls_open\library/camellia.c ****     *iv_off = n;
ARM GAS  C:\Users\Phuong\AppData\Local\Temp\ccZ7UQ35.s 			page 45


 1816              		.loc 1 646 0
 1817 007e 4346     		mov	r3, r8
 1818              	.LVL196:
 1819 0080 1C60     		str	r4, [r3]
 647:Source\mbedtls_open\library/camellia.c **** 
 648:Source\mbedtls_open\library/camellia.c ****     return( 0 );
 649:Source\mbedtls_open\library/camellia.c **** }
 1820              		.loc 1 649 0
 1821 0082 0020     		movs	r0, #0
 1822 0084 03B0     		add	sp, sp, #12
 1823              		@ sp needed
 1824              	.LVL197:
 1825              	.LVL198:
 1826              	.LVL199:
 1827              	.LVL200:
 1828              	.LVL201:
 1829 0086 0CBC     		pop	{r2, r3}
 1830 0088 9046     		mov	r8, r2
 1831 008a 9946     		mov	r9, r3
 1832 008c F0BD     		pop	{r4, r5, r6, r7, pc}
 1833              		.cfi_endproc
 1834              	.LFE8:
 1835              		.size	mbedtls_camellia_crypt_cfb128, .-mbedtls_camellia_crypt_cfb128
 1836 008e C046     		.section	.text.mbedtls_camellia_crypt_ctr,"ax",%progbits
 1837              		.align	2
 1838              		.global	mbedtls_camellia_crypt_ctr
 1839              		.code	16
 1840              		.thumb_func
 1841              		.type	mbedtls_camellia_crypt_ctr, %function
 1842              	mbedtls_camellia_crypt_ctr:
 1843              	.LFB9:
 650:Source\mbedtls_open\library/camellia.c **** #endif /* MBEDTLS_CIPHER_MODE_CFB */
 651:Source\mbedtls_open\library/camellia.c **** 
 652:Source\mbedtls_open\library/camellia.c **** #if defined(MBEDTLS_CIPHER_MODE_CTR)
 653:Source\mbedtls_open\library/camellia.c **** /*
 654:Source\mbedtls_open\library/camellia.c ****  * Camellia-CTR buffer encryption/decryption
 655:Source\mbedtls_open\library/camellia.c ****  */
 656:Source\mbedtls_open\library/camellia.c **** int mbedtls_camellia_crypt_ctr( mbedtls_camellia_context *ctx,
 657:Source\mbedtls_open\library/camellia.c ****                        size_t length,
 658:Source\mbedtls_open\library/camellia.c ****                        size_t *nc_off,
 659:Source\mbedtls_open\library/camellia.c ****                        unsigned char nonce_counter[16],
 660:Source\mbedtls_open\library/camellia.c ****                        unsigned char stream_block[16],
 661:Source\mbedtls_open\library/camellia.c ****                        const unsigned char *input,
 662:Source\mbedtls_open\library/camellia.c ****                        unsigned char *output )
 663:Source\mbedtls_open\library/camellia.c **** {
 1844              		.loc 1 663 0
 1845              		.cfi_startproc
 1846              		@ args = 12, pretend = 0, frame = 8
 1847              		@ frame_needed = 0, uses_anonymous_args = 0
 1848              	.LVL202:
 1849 0000 F0B5     		push	{r4, r5, r6, r7, lr}
 1850              		.cfi_def_cfa_offset 20
 1851              		.cfi_offset 4, -20
 1852              		.cfi_offset 5, -16
 1853              		.cfi_offset 6, -12
 1854              		.cfi_offset 7, -8
 1855              		.cfi_offset 14, -4
ARM GAS  C:\Users\Phuong\AppData\Local\Temp\ccZ7UQ35.s 			page 46


 1856 0002 5746     		mov	r7, r10
 1857 0004 4E46     		mov	r6, r9
 1858 0006 4546     		mov	r5, r8
 1859 0008 E0B4     		push	{r5, r6, r7}
 1860              		.cfi_def_cfa_offset 32
 1861              		.cfi_offset 8, -32
 1862              		.cfi_offset 9, -28
 1863              		.cfi_offset 10, -24
 1864 000a 82B0     		sub	sp, sp, #8
 1865              		.cfi_def_cfa_offset 40
 1866 000c 0190     		str	r0, [sp, #4]
 1867 000e 9046     		mov	r8, r2
 1868 0010 1F00     		movs	r7, r3
 1869 0012 0A9B     		ldr	r3, [sp, #40]
 1870              	.LVL203:
 1871 0014 9A46     		mov	r10, r3
 1872 0016 0B9E     		ldr	r6, [sp, #44]
 1873 0018 0C9D     		ldr	r5, [sp, #48]
 664:Source\mbedtls_open\library/camellia.c ****     int c, i;
 665:Source\mbedtls_open\library/camellia.c ****     size_t n = *nc_off;
 1874              		.loc 1 665 0
 1875 001a 1468     		ldr	r4, [r2]
 1876              	.LVL204:
 666:Source\mbedtls_open\library/camellia.c **** 
 667:Source\mbedtls_open\library/camellia.c ****     while( length-- )
 1877              		.loc 1 667 0
 1878 001c 1FE0     		b	.L94
 1879              	.LVL205:
 1880              	.L98:
 668:Source\mbedtls_open\library/camellia.c ****     {
 669:Source\mbedtls_open\library/camellia.c ****         if( n == 0 ) {
 1881              		.loc 1 669 0
 1882 001e 002C     		cmp	r4, #0
 1883 0020 12D1     		bne	.L95
 670:Source\mbedtls_open\library/camellia.c ****             mbedtls_camellia_crypt_ecb( ctx, MBEDTLS_CAMELLIA_ENCRYPT, nonce_counter,
 1884              		.loc 1 670 0
 1885 0022 5346     		mov	r3, r10
 1886              	.LVL206:
 1887 0024 3A00     		movs	r2, r7
 1888 0026 0121     		movs	r1, #1
 1889 0028 0198     		ldr	r0, [sp, #4]
 1890 002a FFF7FEFF 		bl	mbedtls_camellia_crypt_ecb
 1891              	.LVL207:
 671:Source\mbedtls_open\library/camellia.c ****                                 stream_block );
 672:Source\mbedtls_open\library/camellia.c **** 
 673:Source\mbedtls_open\library/camellia.c ****             for( i = 16; i > 0; i-- )
 1892              		.loc 1 673 0
 1893 002e 1021     		movs	r1, #16
 1894 0030 08E0     		b	.L96
 1895              	.LVL208:
 1896              	.L97:
 674:Source\mbedtls_open\library/camellia.c ****                 if( ++nonce_counter[i - 1] != 0 )
 1897              		.loc 1 674 0
 1898 0032 4A1E     		subs	r2, r1, #1
 1899 0034 BA18     		adds	r2, r7, r2
 1900 0036 1378     		ldrb	r3, [r2]
 1901 0038 0133     		adds	r3, r3, #1
ARM GAS  C:\Users\Phuong\AppData\Local\Temp\ccZ7UQ35.s 			page 47


 1902 003a DBB2     		uxtb	r3, r3
 1903 003c 1370     		strb	r3, [r2]
 1904 003e 002B     		cmp	r3, #0
 1905 0040 02D1     		bne	.L95
 673:Source\mbedtls_open\library/camellia.c ****                 if( ++nonce_counter[i - 1] != 0 )
 1906              		.loc 1 673 0 discriminator 2
 1907 0042 0139     		subs	r1, r1, #1
 1908              	.LVL209:
 1909              	.L96:
 673:Source\mbedtls_open\library/camellia.c ****                 if( ++nonce_counter[i - 1] != 0 )
 1910              		.loc 1 673 0 is_stmt 0 discriminator 1
 1911 0044 0029     		cmp	r1, #0
 1912 0046 F4DC     		bgt	.L97
 1913              	.LVL210:
 1914              	.L95:
 675:Source\mbedtls_open\library/camellia.c ****                     break;
 676:Source\mbedtls_open\library/camellia.c ****         }
 677:Source\mbedtls_open\library/camellia.c ****         c = *input++;
 1915              		.loc 1 677 0 is_stmt 1
 1916 0048 3278     		ldrb	r2, [r6]
 1917              	.LVL211:
 678:Source\mbedtls_open\library/camellia.c ****         *output++ = (unsigned char)( c ^ stream_block[n] );
 1918              		.loc 1 678 0
 1919 004a 5346     		mov	r3, r10
 1920 004c 1B5D     		ldrb	r3, [r3, r4]
 1921 004e 5340     		eors	r3, r2
 1922 0050 2B70     		strb	r3, [r5]
 679:Source\mbedtls_open\library/camellia.c **** 
 680:Source\mbedtls_open\library/camellia.c ****         n = ( n + 1 ) & 0x0F;
 1923              		.loc 1 680 0
 1924 0052 0134     		adds	r4, r4, #1
 1925              	.LVL212:
 1926 0054 0F23     		movs	r3, #15
 1927 0056 1C40     		ands	r4, r3
 1928              	.LVL213:
 667:Source\mbedtls_open\library/camellia.c ****     {
 1929              		.loc 1 667 0
 1930 0058 4946     		mov	r1, r9
 678:Source\mbedtls_open\library/camellia.c ****         *output++ = (unsigned char)( c ^ stream_block[n] );
 1931              		.loc 1 678 0
 1932 005a 0135     		adds	r5, r5, #1
 1933              	.LVL214:
 677:Source\mbedtls_open\library/camellia.c ****         *output++ = (unsigned char)( c ^ stream_block[n] );
 1934              		.loc 1 677 0
 1935 005c 0136     		adds	r6, r6, #1
 1936              	.LVL215:
 1937              	.L94:
 667:Source\mbedtls_open\library/camellia.c ****     {
 1938              		.loc 1 667 0
 1939 005e 4B1E     		subs	r3, r1, #1
 1940 0060 9946     		mov	r9, r3
 1941              	.LVL216:
 1942 0062 0029     		cmp	r1, #0
 1943 0064 DBD1     		bne	.L98
 681:Source\mbedtls_open\library/camellia.c ****     }
 682:Source\mbedtls_open\library/camellia.c **** 
 683:Source\mbedtls_open\library/camellia.c ****     *nc_off = n;
ARM GAS  C:\Users\Phuong\AppData\Local\Temp\ccZ7UQ35.s 			page 48


 1944              		.loc 1 683 0
 1945 0066 4346     		mov	r3, r8
 1946              	.LVL217:
 1947 0068 1C60     		str	r4, [r3]
 684:Source\mbedtls_open\library/camellia.c **** 
 685:Source\mbedtls_open\library/camellia.c ****     return( 0 );
 686:Source\mbedtls_open\library/camellia.c **** }
 1948              		.loc 1 686 0
 1949 006a 0020     		movs	r0, #0
 1950 006c 02B0     		add	sp, sp, #8
 1951              		@ sp needed
 1952              	.LVL218:
 1953              	.LVL219:
 1954              	.LVL220:
 1955              	.LVL221:
 1956              	.LVL222:
 1957              	.LVL223:
 1958 006e 1CBC     		pop	{r2, r3, r4}
 1959 0070 9046     		mov	r8, r2
 1960 0072 9946     		mov	r9, r3
 1961 0074 A246     		mov	r10, r4
 1962 0076 F0BD     		pop	{r4, r5, r6, r7, pc}
 1963              		.cfi_endproc
 1964              	.LFE9:
 1965              		.size	mbedtls_camellia_crypt_ctr, .-mbedtls_camellia_crypt_ctr
 1966              		.section	.text.mbedtls_camellia_self_test,"ax",%progbits
 1967              		.align	2
 1968              		.global	mbedtls_camellia_self_test
 1969              		.code	16
 1970              		.thumb_func
 1971              		.type	mbedtls_camellia_self_test, %function
 1972              	mbedtls_camellia_self_test:
 1973              	.LFB10:
 687:Source\mbedtls_open\library/camellia.c **** #endif /* MBEDTLS_CIPHER_MODE_CTR */
 688:Source\mbedtls_open\library/camellia.c **** #endif /* !MBEDTLS_CAMELLIA_ALT */
 689:Source\mbedtls_open\library/camellia.c **** 
 690:Source\mbedtls_open\library/camellia.c **** #if defined(MBEDTLS_SELF_TEST)
 691:Source\mbedtls_open\library/camellia.c **** 
 692:Source\mbedtls_open\library/camellia.c **** /*
 693:Source\mbedtls_open\library/camellia.c ****  * Camellia test vectors from:
 694:Source\mbedtls_open\library/camellia.c ****  *
 695:Source\mbedtls_open\library/camellia.c ****  * http://info.isl.ntt.co.jp/crypt/eng/camellia/technology.html:
 696:Source\mbedtls_open\library/camellia.c ****  *   http://info.isl.ntt.co.jp/crypt/eng/camellia/dl/cryptrec/intermediate.txt
 697:Source\mbedtls_open\library/camellia.c ****  *   http://info.isl.ntt.co.jp/crypt/eng/camellia/dl/cryptrec/t_camellia.txt
 698:Source\mbedtls_open\library/camellia.c ****  *                      (For each bitlength: Key 0, Nr 39)
 699:Source\mbedtls_open\library/camellia.c ****  */
 700:Source\mbedtls_open\library/camellia.c **** #define CAMELLIA_TESTS_ECB  2
 701:Source\mbedtls_open\library/camellia.c **** 
 702:Source\mbedtls_open\library/camellia.c **** static const unsigned char camellia_test_ecb_key[3][CAMELLIA_TESTS_ECB][32] =
 703:Source\mbedtls_open\library/camellia.c **** {
 704:Source\mbedtls_open\library/camellia.c ****     {
 705:Source\mbedtls_open\library/camellia.c ****         { 0x01, 0x23, 0x45, 0x67, 0x89, 0xab, 0xcd, 0xef,
 706:Source\mbedtls_open\library/camellia.c ****           0xfe, 0xdc, 0xba, 0x98, 0x76, 0x54, 0x32, 0x10 },
 707:Source\mbedtls_open\library/camellia.c ****         { 0x00, 0x00, 0x00, 0x00, 0x00, 0x00, 0x00, 0x00,
 708:Source\mbedtls_open\library/camellia.c ****           0x00, 0x00, 0x00, 0x00, 0x00, 0x00, 0x00, 0x00 }
 709:Source\mbedtls_open\library/camellia.c ****     },
 710:Source\mbedtls_open\library/camellia.c ****     {
ARM GAS  C:\Users\Phuong\AppData\Local\Temp\ccZ7UQ35.s 			page 49


 711:Source\mbedtls_open\library/camellia.c ****         { 0x01, 0x23, 0x45, 0x67, 0x89, 0xab, 0xcd, 0xef,
 712:Source\mbedtls_open\library/camellia.c ****           0xfe, 0xdc, 0xba, 0x98, 0x76, 0x54, 0x32, 0x10,
 713:Source\mbedtls_open\library/camellia.c ****           0x00, 0x11, 0x22, 0x33, 0x44, 0x55, 0x66, 0x77 },
 714:Source\mbedtls_open\library/camellia.c ****         { 0x00, 0x00, 0x00, 0x00, 0x00, 0x00, 0x00, 0x00,
 715:Source\mbedtls_open\library/camellia.c ****           0x00, 0x00, 0x00, 0x00, 0x00, 0x00, 0x00, 0x00,
 716:Source\mbedtls_open\library/camellia.c ****           0x00, 0x00, 0x00, 0x00, 0x00, 0x00, 0x00, 0x00 }
 717:Source\mbedtls_open\library/camellia.c ****     },
 718:Source\mbedtls_open\library/camellia.c ****     {
 719:Source\mbedtls_open\library/camellia.c ****         { 0x01, 0x23, 0x45, 0x67, 0x89, 0xab, 0xcd, 0xef,
 720:Source\mbedtls_open\library/camellia.c ****           0xfe, 0xdc, 0xba, 0x98, 0x76, 0x54, 0x32, 0x10,
 721:Source\mbedtls_open\library/camellia.c ****           0x00, 0x11, 0x22, 0x33, 0x44, 0x55, 0x66, 0x77,
 722:Source\mbedtls_open\library/camellia.c ****           0x88, 0x99, 0xaa, 0xbb, 0xcc, 0xdd, 0xee, 0xff },
 723:Source\mbedtls_open\library/camellia.c ****         { 0x00, 0x00, 0x00, 0x00, 0x00, 0x00, 0x00, 0x00,
 724:Source\mbedtls_open\library/camellia.c ****           0x00, 0x00, 0x00, 0x00, 0x00, 0x00, 0x00, 0x00,
 725:Source\mbedtls_open\library/camellia.c ****           0x00, 0x00, 0x00, 0x00, 0x00, 0x00, 0x00, 0x00,
 726:Source\mbedtls_open\library/camellia.c ****           0x00, 0x00, 0x00, 0x00, 0x00, 0x00, 0x00, 0x00 }
 727:Source\mbedtls_open\library/camellia.c ****     },
 728:Source\mbedtls_open\library/camellia.c **** };
 729:Source\mbedtls_open\library/camellia.c **** 
 730:Source\mbedtls_open\library/camellia.c **** static const unsigned char camellia_test_ecb_plain[CAMELLIA_TESTS_ECB][16] =
 731:Source\mbedtls_open\library/camellia.c **** {
 732:Source\mbedtls_open\library/camellia.c ****     { 0x01, 0x23, 0x45, 0x67, 0x89, 0xab, 0xcd, 0xef,
 733:Source\mbedtls_open\library/camellia.c ****       0xfe, 0xdc, 0xba, 0x98, 0x76, 0x54, 0x32, 0x10 },
 734:Source\mbedtls_open\library/camellia.c ****     { 0x00, 0x00, 0x00, 0x00, 0x02, 0x00, 0x00, 0x00,
 735:Source\mbedtls_open\library/camellia.c ****       0x00, 0x00, 0x00, 0x00, 0x00, 0x00, 0x00, 0x00 }
 736:Source\mbedtls_open\library/camellia.c **** };
 737:Source\mbedtls_open\library/camellia.c **** 
 738:Source\mbedtls_open\library/camellia.c **** static const unsigned char camellia_test_ecb_cipher[3][CAMELLIA_TESTS_ECB][16] =
 739:Source\mbedtls_open\library/camellia.c **** {
 740:Source\mbedtls_open\library/camellia.c ****     {
 741:Source\mbedtls_open\library/camellia.c ****         { 0x67, 0x67, 0x31, 0x38, 0x54, 0x96, 0x69, 0x73,
 742:Source\mbedtls_open\library/camellia.c ****           0x08, 0x57, 0x06, 0x56, 0x48, 0xea, 0xbe, 0x43 },
 743:Source\mbedtls_open\library/camellia.c ****         { 0x38, 0x3C, 0x6C, 0x2A, 0xAB, 0xEF, 0x7F, 0xDE,
 744:Source\mbedtls_open\library/camellia.c ****           0x25, 0xCD, 0x47, 0x0B, 0xF7, 0x74, 0xA3, 0x31 }
 745:Source\mbedtls_open\library/camellia.c ****     },
 746:Source\mbedtls_open\library/camellia.c ****     {
 747:Source\mbedtls_open\library/camellia.c ****         { 0xb4, 0x99, 0x34, 0x01, 0xb3, 0xe9, 0x96, 0xf8,
 748:Source\mbedtls_open\library/camellia.c ****           0x4e, 0xe5, 0xce, 0xe7, 0xd7, 0x9b, 0x09, 0xb9 },
 749:Source\mbedtls_open\library/camellia.c ****         { 0xD1, 0x76, 0x3F, 0xC0, 0x19, 0xD7, 0x7C, 0xC9,
 750:Source\mbedtls_open\library/camellia.c ****           0x30, 0xBF, 0xF2, 0xA5, 0x6F, 0x7C, 0x93, 0x64 }
 751:Source\mbedtls_open\library/camellia.c ****     },
 752:Source\mbedtls_open\library/camellia.c ****     {
 753:Source\mbedtls_open\library/camellia.c ****         { 0x9a, 0xcc, 0x23, 0x7d, 0xff, 0x16, 0xd7, 0x6c,
 754:Source\mbedtls_open\library/camellia.c ****           0x20, 0xef, 0x7c, 0x91, 0x9e, 0x3a, 0x75, 0x09 },
 755:Source\mbedtls_open\library/camellia.c ****         { 0x05, 0x03, 0xFB, 0x10, 0xAB, 0x24, 0x1E, 0x7C,
 756:Source\mbedtls_open\library/camellia.c ****           0xF4, 0x5D, 0x8C, 0xDE, 0xEE, 0x47, 0x43, 0x35 }
 757:Source\mbedtls_open\library/camellia.c ****     }
 758:Source\mbedtls_open\library/camellia.c **** };
 759:Source\mbedtls_open\library/camellia.c **** 
 760:Source\mbedtls_open\library/camellia.c **** #if defined(MBEDTLS_CIPHER_MODE_CBC)
 761:Source\mbedtls_open\library/camellia.c **** #define CAMELLIA_TESTS_CBC  3
 762:Source\mbedtls_open\library/camellia.c **** 
 763:Source\mbedtls_open\library/camellia.c **** static const unsigned char camellia_test_cbc_key[3][32] =
 764:Source\mbedtls_open\library/camellia.c **** {
 765:Source\mbedtls_open\library/camellia.c ****         { 0x2B, 0x7E, 0x15, 0x16, 0x28, 0xAE, 0xD2, 0xA6,
 766:Source\mbedtls_open\library/camellia.c ****           0xAB, 0xF7, 0x15, 0x88, 0x09, 0xCF, 0x4F, 0x3C }
 767:Source\mbedtls_open\library/camellia.c ****     ,
ARM GAS  C:\Users\Phuong\AppData\Local\Temp\ccZ7UQ35.s 			page 50


 768:Source\mbedtls_open\library/camellia.c ****         { 0x8E, 0x73, 0xB0, 0xF7, 0xDA, 0x0E, 0x64, 0x52,
 769:Source\mbedtls_open\library/camellia.c ****           0xC8, 0x10, 0xF3, 0x2B, 0x80, 0x90, 0x79, 0xE5,
 770:Source\mbedtls_open\library/camellia.c ****           0x62, 0xF8, 0xEA, 0xD2, 0x52, 0x2C, 0x6B, 0x7B }
 771:Source\mbedtls_open\library/camellia.c ****     ,
 772:Source\mbedtls_open\library/camellia.c ****         { 0x60, 0x3D, 0xEB, 0x10, 0x15, 0xCA, 0x71, 0xBE,
 773:Source\mbedtls_open\library/camellia.c ****           0x2B, 0x73, 0xAE, 0xF0, 0x85, 0x7D, 0x77, 0x81,
 774:Source\mbedtls_open\library/camellia.c ****           0x1F, 0x35, 0x2C, 0x07, 0x3B, 0x61, 0x08, 0xD7,
 775:Source\mbedtls_open\library/camellia.c ****           0x2D, 0x98, 0x10, 0xA3, 0x09, 0x14, 0xDF, 0xF4 }
 776:Source\mbedtls_open\library/camellia.c **** };
 777:Source\mbedtls_open\library/camellia.c **** 
 778:Source\mbedtls_open\library/camellia.c **** static const unsigned char camellia_test_cbc_iv[16] =
 779:Source\mbedtls_open\library/camellia.c **** 
 780:Source\mbedtls_open\library/camellia.c ****     { 0x00, 0x01, 0x02, 0x03, 0x04, 0x05, 0x06, 0x07,
 781:Source\mbedtls_open\library/camellia.c ****       0x08, 0x09, 0x0A, 0x0B, 0x0C, 0x0D, 0x0E, 0x0F }
 782:Source\mbedtls_open\library/camellia.c **** ;
 783:Source\mbedtls_open\library/camellia.c **** 
 784:Source\mbedtls_open\library/camellia.c **** static const unsigned char camellia_test_cbc_plain[CAMELLIA_TESTS_CBC][16] =
 785:Source\mbedtls_open\library/camellia.c **** {
 786:Source\mbedtls_open\library/camellia.c ****     { 0x6B, 0xC1, 0xBE, 0xE2, 0x2E, 0x40, 0x9F, 0x96,
 787:Source\mbedtls_open\library/camellia.c ****       0xE9, 0x3D, 0x7E, 0x11, 0x73, 0x93, 0x17, 0x2A },
 788:Source\mbedtls_open\library/camellia.c ****     { 0xAE, 0x2D, 0x8A, 0x57, 0x1E, 0x03, 0xAC, 0x9C,
 789:Source\mbedtls_open\library/camellia.c ****       0x9E, 0xB7, 0x6F, 0xAC, 0x45, 0xAF, 0x8E, 0x51 },
 790:Source\mbedtls_open\library/camellia.c ****     { 0x30, 0xC8, 0x1C, 0x46, 0xA3, 0x5C, 0xE4, 0x11,
 791:Source\mbedtls_open\library/camellia.c ****       0xE5, 0xFB, 0xC1, 0x19, 0x1A, 0x0A, 0x52, 0xEF }
 792:Source\mbedtls_open\library/camellia.c **** 
 793:Source\mbedtls_open\library/camellia.c **** };
 794:Source\mbedtls_open\library/camellia.c **** 
 795:Source\mbedtls_open\library/camellia.c **** static const unsigned char camellia_test_cbc_cipher[3][CAMELLIA_TESTS_CBC][16] =
 796:Source\mbedtls_open\library/camellia.c **** {
 797:Source\mbedtls_open\library/camellia.c ****     {
 798:Source\mbedtls_open\library/camellia.c ****         { 0x16, 0x07, 0xCF, 0x49, 0x4B, 0x36, 0xBB, 0xF0,
 799:Source\mbedtls_open\library/camellia.c ****           0x0D, 0xAE, 0xB0, 0xB5, 0x03, 0xC8, 0x31, 0xAB },
 800:Source\mbedtls_open\library/camellia.c ****         { 0xA2, 0xF2, 0xCF, 0x67, 0x16, 0x29, 0xEF, 0x78,
 801:Source\mbedtls_open\library/camellia.c ****           0x40, 0xC5, 0xA5, 0xDF, 0xB5, 0x07, 0x48, 0x87 },
 802:Source\mbedtls_open\library/camellia.c ****         { 0x0F, 0x06, 0x16, 0x50, 0x08, 0xCF, 0x8B, 0x8B,
 803:Source\mbedtls_open\library/camellia.c ****           0x5A, 0x63, 0x58, 0x63, 0x62, 0x54, 0x3E, 0x54 }
 804:Source\mbedtls_open\library/camellia.c ****     },
 805:Source\mbedtls_open\library/camellia.c ****     {
 806:Source\mbedtls_open\library/camellia.c ****         { 0x2A, 0x48, 0x30, 0xAB, 0x5A, 0xC4, 0xA1, 0xA2,
 807:Source\mbedtls_open\library/camellia.c ****           0x40, 0x59, 0x55, 0xFD, 0x21, 0x95, 0xCF, 0x93 },
 808:Source\mbedtls_open\library/camellia.c ****         { 0x5D, 0x5A, 0x86, 0x9B, 0xD1, 0x4C, 0xE5, 0x42,
 809:Source\mbedtls_open\library/camellia.c ****           0x64, 0xF8, 0x92, 0xA6, 0xDD, 0x2E, 0xC3, 0xD5 },
 810:Source\mbedtls_open\library/camellia.c ****         { 0x37, 0xD3, 0x59, 0xC3, 0x34, 0x98, 0x36, 0xD8,
 811:Source\mbedtls_open\library/camellia.c ****           0x84, 0xE3, 0x10, 0xAD, 0xDF, 0x68, 0xC4, 0x49 }
 812:Source\mbedtls_open\library/camellia.c ****     },
 813:Source\mbedtls_open\library/camellia.c ****     {
 814:Source\mbedtls_open\library/camellia.c ****         { 0xE6, 0xCF, 0xA3, 0x5F, 0xC0, 0x2B, 0x13, 0x4A,
 815:Source\mbedtls_open\library/camellia.c ****           0x4D, 0x2C, 0x0B, 0x67, 0x37, 0xAC, 0x3E, 0xDA },
 816:Source\mbedtls_open\library/camellia.c ****         { 0x36, 0xCB, 0xEB, 0x73, 0xBD, 0x50, 0x4B, 0x40,
 817:Source\mbedtls_open\library/camellia.c ****           0x70, 0xB1, 0xB7, 0xDE, 0x2B, 0x21, 0xEB, 0x50 },
 818:Source\mbedtls_open\library/camellia.c ****         { 0xE3, 0x1A, 0x60, 0x55, 0x29, 0x7D, 0x96, 0xCA,
 819:Source\mbedtls_open\library/camellia.c ****           0x33, 0x30, 0xCD, 0xF1, 0xB1, 0x86, 0x0A, 0x83 }
 820:Source\mbedtls_open\library/camellia.c ****     }
 821:Source\mbedtls_open\library/camellia.c **** };
 822:Source\mbedtls_open\library/camellia.c **** #endif /* MBEDTLS_CIPHER_MODE_CBC */
 823:Source\mbedtls_open\library/camellia.c **** 
 824:Source\mbedtls_open\library/camellia.c **** #if defined(MBEDTLS_CIPHER_MODE_CTR)
ARM GAS  C:\Users\Phuong\AppData\Local\Temp\ccZ7UQ35.s 			page 51


 825:Source\mbedtls_open\library/camellia.c **** /*
 826:Source\mbedtls_open\library/camellia.c ****  * Camellia-CTR test vectors from:
 827:Source\mbedtls_open\library/camellia.c ****  *
 828:Source\mbedtls_open\library/camellia.c ****  * http://www.faqs.org/rfcs/rfc5528.html
 829:Source\mbedtls_open\library/camellia.c ****  */
 830:Source\mbedtls_open\library/camellia.c **** 
 831:Source\mbedtls_open\library/camellia.c **** static const unsigned char camellia_test_ctr_key[3][16] =
 832:Source\mbedtls_open\library/camellia.c **** {
 833:Source\mbedtls_open\library/camellia.c ****     { 0xAE, 0x68, 0x52, 0xF8, 0x12, 0x10, 0x67, 0xCC,
 834:Source\mbedtls_open\library/camellia.c ****       0x4B, 0xF7, 0xA5, 0x76, 0x55, 0x77, 0xF3, 0x9E },
 835:Source\mbedtls_open\library/camellia.c ****     { 0x7E, 0x24, 0x06, 0x78, 0x17, 0xFA, 0xE0, 0xD7,
 836:Source\mbedtls_open\library/camellia.c ****       0x43, 0xD6, 0xCE, 0x1F, 0x32, 0x53, 0x91, 0x63 },
 837:Source\mbedtls_open\library/camellia.c ****     { 0x76, 0x91, 0xBE, 0x03, 0x5E, 0x50, 0x20, 0xA8,
 838:Source\mbedtls_open\library/camellia.c ****       0xAC, 0x6E, 0x61, 0x85, 0x29, 0xF9, 0xA0, 0xDC }
 839:Source\mbedtls_open\library/camellia.c **** };
 840:Source\mbedtls_open\library/camellia.c **** 
 841:Source\mbedtls_open\library/camellia.c **** static const unsigned char camellia_test_ctr_nonce_counter[3][16] =
 842:Source\mbedtls_open\library/camellia.c **** {
 843:Source\mbedtls_open\library/camellia.c ****     { 0x00, 0x00, 0x00, 0x30, 0x00, 0x00, 0x00, 0x00,
 844:Source\mbedtls_open\library/camellia.c ****       0x00, 0x00, 0x00, 0x00, 0x00, 0x00, 0x00, 0x01 },
 845:Source\mbedtls_open\library/camellia.c ****     { 0x00, 0x6C, 0xB6, 0xDB, 0xC0, 0x54, 0x3B, 0x59,
 846:Source\mbedtls_open\library/camellia.c ****       0xDA, 0x48, 0xD9, 0x0B, 0x00, 0x00, 0x00, 0x01 },
 847:Source\mbedtls_open\library/camellia.c ****     { 0x00, 0xE0, 0x01, 0x7B, 0x27, 0x77, 0x7F, 0x3F,
 848:Source\mbedtls_open\library/camellia.c ****       0x4A, 0x17, 0x86, 0xF0, 0x00, 0x00, 0x00, 0x01 }
 849:Source\mbedtls_open\library/camellia.c **** };
 850:Source\mbedtls_open\library/camellia.c **** 
 851:Source\mbedtls_open\library/camellia.c **** static const unsigned char camellia_test_ctr_pt[3][48] =
 852:Source\mbedtls_open\library/camellia.c **** {
 853:Source\mbedtls_open\library/camellia.c ****     { 0x53, 0x69, 0x6E, 0x67, 0x6C, 0x65, 0x20, 0x62,
 854:Source\mbedtls_open\library/camellia.c ****       0x6C, 0x6F, 0x63, 0x6B, 0x20, 0x6D, 0x73, 0x67 },
 855:Source\mbedtls_open\library/camellia.c **** 
 856:Source\mbedtls_open\library/camellia.c ****     { 0x00, 0x01, 0x02, 0x03, 0x04, 0x05, 0x06, 0x07,
 857:Source\mbedtls_open\library/camellia.c ****       0x08, 0x09, 0x0A, 0x0B, 0x0C, 0x0D, 0x0E, 0x0F,
 858:Source\mbedtls_open\library/camellia.c ****       0x10, 0x11, 0x12, 0x13, 0x14, 0x15, 0x16, 0x17,
 859:Source\mbedtls_open\library/camellia.c ****       0x18, 0x19, 0x1A, 0x1B, 0x1C, 0x1D, 0x1E, 0x1F },
 860:Source\mbedtls_open\library/camellia.c **** 
 861:Source\mbedtls_open\library/camellia.c ****     { 0x00, 0x01, 0x02, 0x03, 0x04, 0x05, 0x06, 0x07,
 862:Source\mbedtls_open\library/camellia.c ****       0x08, 0x09, 0x0A, 0x0B, 0x0C, 0x0D, 0x0E, 0x0F,
 863:Source\mbedtls_open\library/camellia.c ****       0x10, 0x11, 0x12, 0x13, 0x14, 0x15, 0x16, 0x17,
 864:Source\mbedtls_open\library/camellia.c ****       0x18, 0x19, 0x1A, 0x1B, 0x1C, 0x1D, 0x1E, 0x1F,
 865:Source\mbedtls_open\library/camellia.c ****       0x20, 0x21, 0x22, 0x23 }
 866:Source\mbedtls_open\library/camellia.c **** };
 867:Source\mbedtls_open\library/camellia.c **** 
 868:Source\mbedtls_open\library/camellia.c **** static const unsigned char camellia_test_ctr_ct[3][48] =
 869:Source\mbedtls_open\library/camellia.c **** {
 870:Source\mbedtls_open\library/camellia.c ****     { 0xD0, 0x9D, 0xC2, 0x9A, 0x82, 0x14, 0x61, 0x9A,
 871:Source\mbedtls_open\library/camellia.c ****       0x20, 0x87, 0x7C, 0x76, 0xDB, 0x1F, 0x0B, 0x3F },
 872:Source\mbedtls_open\library/camellia.c ****     { 0xDB, 0xF3, 0xC7, 0x8D, 0xC0, 0x83, 0x96, 0xD4,
 873:Source\mbedtls_open\library/camellia.c ****       0xDA, 0x7C, 0x90, 0x77, 0x65, 0xBB, 0xCB, 0x44,
 874:Source\mbedtls_open\library/camellia.c ****       0x2B, 0x8E, 0x8E, 0x0F, 0x31, 0xF0, 0xDC, 0xA7,
 875:Source\mbedtls_open\library/camellia.c ****       0x2C, 0x74, 0x17, 0xE3, 0x53, 0x60, 0xE0, 0x48 },
 876:Source\mbedtls_open\library/camellia.c ****     { 0xB1, 0x9D, 0x1F, 0xCD, 0xCB, 0x75, 0xEB, 0x88,
 877:Source\mbedtls_open\library/camellia.c ****       0x2F, 0x84, 0x9C, 0xE2, 0x4D, 0x85, 0xCF, 0x73,
 878:Source\mbedtls_open\library/camellia.c ****       0x9C, 0xE6, 0x4B, 0x2B, 0x5C, 0x9D, 0x73, 0xF1,
 879:Source\mbedtls_open\library/camellia.c ****       0x4F, 0x2D, 0x5D, 0x9D, 0xCE, 0x98, 0x89, 0xCD,
 880:Source\mbedtls_open\library/camellia.c ****       0xDF, 0x50, 0x86, 0x96 }
 881:Source\mbedtls_open\library/camellia.c **** };
ARM GAS  C:\Users\Phuong\AppData\Local\Temp\ccZ7UQ35.s 			page 52


 882:Source\mbedtls_open\library/camellia.c **** 
 883:Source\mbedtls_open\library/camellia.c **** static const int camellia_test_ctr_len[3] =
 884:Source\mbedtls_open\library/camellia.c ****     { 16, 32, 36 };
 885:Source\mbedtls_open\library/camellia.c **** #endif /* MBEDTLS_CIPHER_MODE_CTR */
 886:Source\mbedtls_open\library/camellia.c **** 
 887:Source\mbedtls_open\library/camellia.c **** /*
 888:Source\mbedtls_open\library/camellia.c ****  * Checkup routine
 889:Source\mbedtls_open\library/camellia.c ****  */
 890:Source\mbedtls_open\library/camellia.c **** int mbedtls_camellia_self_test( int verbose )
 891:Source\mbedtls_open\library/camellia.c **** {
 1974              		.loc 1 891 0
 1975              		.cfi_startproc
 1976              		@ args = 0, pretend = 0, frame = 456
 1977              		@ frame_needed = 0, uses_anonymous_args = 0
 1978              	.LVL224:
 1979 0000 F0B5     		push	{r4, r5, r6, r7, lr}
 1980              		.cfi_def_cfa_offset 20
 1981              		.cfi_offset 4, -20
 1982              		.cfi_offset 5, -16
 1983              		.cfi_offset 6, -12
 1984              		.cfi_offset 7, -8
 1985              		.cfi_offset 14, -4
 1986 0002 5746     		mov	r7, r10
 1987 0004 4E46     		mov	r6, r9
 1988 0006 4546     		mov	r5, r8
 1989 0008 E0B4     		push	{r5, r6, r7}
 1990              		.cfi_def_cfa_offset 32
 1991              		.cfi_offset 8, -32
 1992              		.cfi_offset 9, -28
 1993              		.cfi_offset 10, -24
 1994 000a F6B0     		sub	sp, sp, #472
 1995              		.cfi_def_cfa_offset 504
 1996 000c 8046     		mov	r8, r0
 892:Source\mbedtls_open\library/camellia.c ****     int i, j, u, v;
 893:Source\mbedtls_open\library/camellia.c ****     unsigned char key[32];
 894:Source\mbedtls_open\library/camellia.c ****     unsigned char buf[64];
 895:Source\mbedtls_open\library/camellia.c ****     unsigned char src[16];
 896:Source\mbedtls_open\library/camellia.c ****     unsigned char dst[16];
 897:Source\mbedtls_open\library/camellia.c **** #if defined(MBEDTLS_CIPHER_MODE_CBC)
 898:Source\mbedtls_open\library/camellia.c ****     unsigned char iv[16];
 899:Source\mbedtls_open\library/camellia.c **** #endif
 900:Source\mbedtls_open\library/camellia.c **** #if defined(MBEDTLS_CIPHER_MODE_CTR)
 901:Source\mbedtls_open\library/camellia.c ****     size_t offset, len;
 902:Source\mbedtls_open\library/camellia.c ****     unsigned char nonce_counter[16];
 903:Source\mbedtls_open\library/camellia.c ****     unsigned char stream_block[16];
 904:Source\mbedtls_open\library/camellia.c **** #endif
 905:Source\mbedtls_open\library/camellia.c **** 
 906:Source\mbedtls_open\library/camellia.c ****     mbedtls_camellia_context ctx;
 907:Source\mbedtls_open\library/camellia.c **** 
 908:Source\mbedtls_open\library/camellia.c ****     memset( key, 0, 32 );
 1997              		.loc 1 908 0
 1998 000e 2022     		movs	r2, #32
 1999 0010 0021     		movs	r1, #0
 2000 0012 6EA8     		add	r0, sp, #440
 2001              	.LVL225:
 2002 0014 FFF7FEFF 		bl	memset
 2003              	.LVL226:
ARM GAS  C:\Users\Phuong\AppData\Local\Temp\ccZ7UQ35.s 			page 53


 909:Source\mbedtls_open\library/camellia.c **** 
 910:Source\mbedtls_open\library/camellia.c ****     for( j = 0; j < 6; j++ ) {
 2004              		.loc 1 910 0
 2005 0018 0023     		movs	r3, #0
 2006 001a 9A46     		mov	r10, r3
 2007 001c 7BE0     		b	.L100
 2008              	.LVL227:
 2009              	.L110:
 911:Source\mbedtls_open\library/camellia.c ****         u = j >> 1;
 2010              		.loc 1 911 0
 2011 001e 5346     		mov	r3, r10
 2012              	.LVL228:
 2013 0020 5E10     		asrs	r6, r3, #1
 2014              	.LVL229:
 912:Source\mbedtls_open\library/camellia.c ****     v = j & 1;
 2015              		.loc 1 912 0
 2016 0022 0125     		movs	r5, #1
 2017 0024 1D40     		ands	r5, r3
 2018              	.LVL230:
 913:Source\mbedtls_open\library/camellia.c **** 
 914:Source\mbedtls_open\library/camellia.c ****     if( verbose != 0 )
 2019              		.loc 1 914 0
 2020 0026 4346     		mov	r3, r8
 2021 0028 002B     		cmp	r3, #0
 2022 002a 09D0     		beq	.L101
 2023              	.LVL231:
 915:Source\mbedtls_open\library/camellia.c ****         mbedtls_printf( "  CAMELLIA-ECB-%3d (%s): ", 128 + u * 64,
 2024              		.loc 1 915 0
 2025 002c B11C     		adds	r1, r6, #2
 2026 002e 8901     		lsls	r1, r1, #6
 2027 0030 002D     		cmp	r5, #0
 2028 0032 01D1     		bne	.L132
 2029 0034 D44A     		ldr	r2, .L140
 2030 0036 00E0     		b	.L102
 2031              	.L132:
 2032 0038 D44A     		ldr	r2, .L140+4
 2033              	.L102:
 2034              		.loc 1 915 0 is_stmt 0 discriminator 4
 2035 003a D548     		ldr	r0, .L140+8
 2036 003c FFF7FEFF 		bl	printf
 2037              	.LVL232:
 2038              	.L101:
 2039              		.loc 1 915 0 discriminator 1
 2040 0040 0024     		movs	r4, #0
 2041 0042 5DE0     		b	.L103
 2042              	.LVL233:
 2043              	.L108:
 916:Source\mbedtls_open\library/camellia.c ****                          (v == MBEDTLS_CAMELLIA_DECRYPT) ? "dec" : "enc");
 917:Source\mbedtls_open\library/camellia.c **** 
 918:Source\mbedtls_open\library/camellia.c ****     for( i = 0; i < CAMELLIA_TESTS_ECB; i++ ) {
 919:Source\mbedtls_open\library/camellia.c ****         memcpy( key, camellia_test_ecb_key[u][i], 16 + 8 * u );
 2044              		.loc 1 919 0 is_stmt 1
 2045 0044 7100     		lsls	r1, r6, #1
 2046 0046 0919     		adds	r1, r1, r4
 2047 0048 4B01     		lsls	r3, r1, #5
 2048 004a D249     		ldr	r1, .L140+12
 2049 004c 1831     		adds	r1, r1, #24
ARM GAS  C:\Users\Phuong\AppData\Local\Temp\ccZ7UQ35.s 			page 54


 2050 004e C918     		adds	r1, r1, r3
 2051 0050 B31C     		adds	r3, r6, #2
 2052 0052 9946     		mov	r9, r3
 2053 0054 DA00     		lsls	r2, r3, #3
 2054 0056 6EA8     		add	r0, sp, #440
 2055 0058 FFF7FEFF 		bl	memcpy
 2056              	.LVL234:
 920:Source\mbedtls_open\library/camellia.c **** 
 921:Source\mbedtls_open\library/camellia.c ****         if( v == MBEDTLS_CAMELLIA_DECRYPT ) {
 2057              		.loc 1 921 0
 2058 005c 002D     		cmp	r5, #0
 2059 005e 1CD1     		bne	.L104
 922:Source\mbedtls_open\library/camellia.c ****             mbedtls_camellia_setkey_dec( &ctx, key, 128 + u * 64 );
 2060              		.loc 1 922 0
 2061 0060 4B46     		mov	r3, r9
 2062 0062 9A01     		lsls	r2, r3, #6
 2063 0064 6EA9     		add	r1, sp, #440
 2064 0066 04A8     		add	r0, sp, #16
 2065 0068 FFF7FEFF 		bl	mbedtls_camellia_setkey_dec
 2066              	.LVL235:
 923:Source\mbedtls_open\library/camellia.c ****             memcpy( src, camellia_test_ecb_cipher[u][i], 16 );
 2067              		.loc 1 923 0
 2068 006c 5AAA     		add	r2, sp, #360
 2069 006e 7300     		lsls	r3, r6, #1
 2070 0070 1B19     		adds	r3, r3, r4
 2071 0072 1B01     		lsls	r3, r3, #4
 2072 0074 C849     		ldr	r1, .L140+16
 2073 0076 CB18     		adds	r3, r1, r3
 2074 0078 5833     		adds	r3, r3, #88
 2075 007a 83CB     		ldmia	r3!, {r0, r1, r7}
 2076 007c 83C2     		stmia	r2!, {r0, r1, r7}
 2077 007e 1B68     		ldr	r3, [r3]
 2078 0080 1360     		str	r3, [r2]
 924:Source\mbedtls_open\library/camellia.c ****             memcpy( dst, camellia_test_ecb_plain[i], 16 );
 2079              		.loc 1 924 0
 2080 0082 56A9     		add	r1, sp, #344
 2081 0084 2201     		lsls	r2, r4, #4
 2082 0086 C54B     		ldr	r3, .L140+20
 2083 0088 9A18     		adds	r2, r3, r2
 2084 008a 1300     		movs	r3, r2
 2085 008c 3833     		adds	r3, r3, #56
 2086 008e 0A00     		movs	r2, r1
 2087 0090 83CB     		ldmia	r3!, {r0, r1, r7}
 2088 0092 83C2     		stmia	r2!, {r0, r1, r7}
 2089 0094 1B68     		ldr	r3, [r3]
 2090 0096 1360     		str	r3, [r2]
 2091 0098 1BE0     		b	.L105
 2092              	.L104:
 925:Source\mbedtls_open\library/camellia.c ****         } else { /* MBEDTLS_CAMELLIA_ENCRYPT */
 926:Source\mbedtls_open\library/camellia.c ****             mbedtls_camellia_setkey_enc( &ctx, key, 128 + u * 64 );
 2093              		.loc 1 926 0
 2094 009a 4B46     		mov	r3, r9
 2095 009c 9A01     		lsls	r2, r3, #6
 2096 009e 6EA9     		add	r1, sp, #440
 2097 00a0 04A8     		add	r0, sp, #16
 2098 00a2 FFF7FEFF 		bl	mbedtls_camellia_setkey_enc
 2099              	.LVL236:
ARM GAS  C:\Users\Phuong\AppData\Local\Temp\ccZ7UQ35.s 			page 55


 927:Source\mbedtls_open\library/camellia.c ****             memcpy( src, camellia_test_ecb_plain[i], 16 );
 2100              		.loc 1 927 0
 2101 00a6 5AA9     		add	r1, sp, #360
 2102 00a8 2201     		lsls	r2, r4, #4
 2103 00aa BC4B     		ldr	r3, .L140+20
 2104 00ac 9A18     		adds	r2, r3, r2
 2105 00ae 1300     		movs	r3, r2
 2106 00b0 3833     		adds	r3, r3, #56
 2107 00b2 0A00     		movs	r2, r1
 2108 00b4 83CB     		ldmia	r3!, {r0, r1, r7}
 2109 00b6 83C2     		stmia	r2!, {r0, r1, r7}
 2110 00b8 1B68     		ldr	r3, [r3]
 2111 00ba 1360     		str	r3, [r2]
 928:Source\mbedtls_open\library/camellia.c ****             memcpy( dst, camellia_test_ecb_cipher[u][i], 16 );
 2112              		.loc 1 928 0
 2113 00bc 56AA     		add	r2, sp, #344
 2114 00be 7300     		lsls	r3, r6, #1
 2115 00c0 1B19     		adds	r3, r3, r4
 2116 00c2 1B01     		lsls	r3, r3, #4
 2117 00c4 B449     		ldr	r1, .L140+16
 2118 00c6 CB18     		adds	r3, r1, r3
 2119 00c8 5833     		adds	r3, r3, #88
 2120 00ca 83CB     		ldmia	r3!, {r0, r1, r7}
 2121 00cc 83C2     		stmia	r2!, {r0, r1, r7}
 2122 00ce 1B68     		ldr	r3, [r3]
 2123 00d0 1360     		str	r3, [r2]
 2124              	.L105:
 929:Source\mbedtls_open\library/camellia.c ****         }
 930:Source\mbedtls_open\library/camellia.c **** 
 931:Source\mbedtls_open\library/camellia.c ****         mbedtls_camellia_crypt_ecb( &ctx, v, src, buf );
 2125              		.loc 1 931 0
 2126 00d2 5EAB     		add	r3, sp, #376
 2127 00d4 5AAA     		add	r2, sp, #360
 2128 00d6 2900     		movs	r1, r5
 2129 00d8 04A8     		add	r0, sp, #16
 2130 00da FFF7FEFF 		bl	mbedtls_camellia_crypt_ecb
 2131              	.LVL237:
 932:Source\mbedtls_open\library/camellia.c **** 
 933:Source\mbedtls_open\library/camellia.c ****         if( memcmp( buf, dst, 16 ) != 0 )
 2132              		.loc 1 933 0
 2133 00de 1022     		movs	r2, #16
 2134 00e0 56A9     		add	r1, sp, #344
 2135 00e2 5EA8     		add	r0, sp, #376
 2136 00e4 FFF7FEFF 		bl	memcmp
 2137              	.LVL238:
 2138 00e8 0028     		cmp	r0, #0
 2139 00ea 08D0     		beq	.L106
 934:Source\mbedtls_open\library/camellia.c ****         {
 935:Source\mbedtls_open\library/camellia.c ****             if( verbose != 0 )
 2140              		.loc 1 935 0
 2141 00ec 4346     		mov	r3, r8
 2142 00ee 002B     		cmp	r3, #0
 2143 00f0 00D1     		bne	.LCB2384
 2144 00f2 7AE1     		b	.L133	@long jump
 2145              	.LCB2384:
 2146              	.LVL239:
 936:Source\mbedtls_open\library/camellia.c ****                 mbedtls_printf( "failed\n" );
ARM GAS  C:\Users\Phuong\AppData\Local\Temp\ccZ7UQ35.s 			page 56


 2147              		.loc 1 936 0
 2148 00f4 AA48     		ldr	r0, .L140+24
 2149 00f6 FFF7FEFF 		bl	puts
 2150              	.LVL240:
 937:Source\mbedtls_open\library/camellia.c **** 
 938:Source\mbedtls_open\library/camellia.c ****             return( 1 );
 2151              		.loc 1 938 0
 2152 00fa 0120     		movs	r0, #1
 2153 00fc 7EE1     		b	.L107
 2154              	.L106:
 918:Source\mbedtls_open\library/camellia.c ****         memcpy( key, camellia_test_ecb_key[u][i], 16 + 8 * u );
 2155              		.loc 1 918 0 discriminator 2
 2156 00fe 0134     		adds	r4, r4, #1
 2157              	.LVL241:
 2158              	.L103:
 918:Source\mbedtls_open\library/camellia.c ****         memcpy( key, camellia_test_ecb_key[u][i], 16 + 8 * u );
 2159              		.loc 1 918 0 is_stmt 0 discriminator 1
 2160 0100 012C     		cmp	r4, #1
 2161 0102 9FDD     		ble	.L108
 939:Source\mbedtls_open\library/camellia.c ****         }
 940:Source\mbedtls_open\library/camellia.c ****     }
 941:Source\mbedtls_open\library/camellia.c **** 
 942:Source\mbedtls_open\library/camellia.c ****     if( verbose != 0 )
 2162              		.loc 1 942 0 is_stmt 1
 2163 0104 4346     		mov	r3, r8
 2164 0106 002B     		cmp	r3, #0
 2165 0108 02D0     		beq	.L109
 2166              	.LVL242:
 943:Source\mbedtls_open\library/camellia.c ****         mbedtls_printf( "passed\n" );
 2167              		.loc 1 943 0
 2168 010a A648     		ldr	r0, .L140+28
 2169 010c FFF7FEFF 		bl	puts
 2170              	.LVL243:
 2171              	.L109:
 910:Source\mbedtls_open\library/camellia.c ****         u = j >> 1;
 2172              		.loc 1 910 0 discriminator 2
 2173 0110 0123     		movs	r3, #1
 2174 0112 9C46     		mov	ip, r3
 2175 0114 E244     		add	r10, r10, ip
 2176              	.LVL244:
 2177              	.L100:
 910:Source\mbedtls_open\library/camellia.c ****         u = j >> 1;
 2178              		.loc 1 910 0 is_stmt 0 discriminator 1
 2179 0116 5346     		mov	r3, r10
 2180 0118 052B     		cmp	r3, #5
 2181 011a 80DD     		ble	.L110
 944:Source\mbedtls_open\library/camellia.c ****     }
 945:Source\mbedtls_open\library/camellia.c **** 
 946:Source\mbedtls_open\library/camellia.c ****     if( verbose != 0 )
 2182              		.loc 1 946 0 is_stmt 1
 2183 011c 4346     		mov	r3, r8
 2184 011e 002B     		cmp	r3, #0
 2185 0120 02D0     		beq	.L111
 2186              	.LVL245:
 947:Source\mbedtls_open\library/camellia.c ****         mbedtls_printf( "\n" );
 2187              		.loc 1 947 0
 2188 0122 0A20     		movs	r0, #10
ARM GAS  C:\Users\Phuong\AppData\Local\Temp\ccZ7UQ35.s 			page 57


 2189 0124 FFF7FEFF 		bl	putchar
 2190              	.LVL246:
 2191              	.L111:
 948:Source\mbedtls_open\library/camellia.c **** 
 949:Source\mbedtls_open\library/camellia.c **** #if defined(MBEDTLS_CIPHER_MODE_CBC)
 950:Source\mbedtls_open\library/camellia.c ****     /*
 951:Source\mbedtls_open\library/camellia.c ****      * CBC mode
 952:Source\mbedtls_open\library/camellia.c ****      */
 953:Source\mbedtls_open\library/camellia.c ****     for( j = 0; j < 6; j++ )
 954:Source\mbedtls_open\library/camellia.c ****     {
 955:Source\mbedtls_open\library/camellia.c ****         u = j >> 1;
 956:Source\mbedtls_open\library/camellia.c ****         v = j  & 1;
 957:Source\mbedtls_open\library/camellia.c **** 
 958:Source\mbedtls_open\library/camellia.c ****         if( verbose != 0 )
 959:Source\mbedtls_open\library/camellia.c ****             mbedtls_printf( "  CAMELLIA-CBC-%3d (%s): ", 128 + u * 64,
 2192              		.loc 1 959 0 discriminator 1
 2193 0128 0023     		movs	r3, #0
 2194 012a 9946     		mov	r9, r3
 2195 012c 9AE0     		b	.L112
 2196              	.LVL247:
 2197              	.L123:
 955:Source\mbedtls_open\library/camellia.c ****         v = j  & 1;
 2198              		.loc 1 955 0
 2199 012e 4B46     		mov	r3, r9
 2200              	.LVL248:
 2201 0130 5F10     		asrs	r7, r3, #1
 2202              	.LVL249:
 956:Source\mbedtls_open\library/camellia.c **** 
 2203              		.loc 1 956 0
 2204 0132 0125     		movs	r5, #1
 2205 0134 1D40     		ands	r5, r3
 2206              	.LVL250:
 958:Source\mbedtls_open\library/camellia.c ****             mbedtls_printf( "  CAMELLIA-CBC-%3d (%s): ", 128 + u * 64,
 2207              		.loc 1 958 0
 2208 0136 4346     		mov	r3, r8
 2209 0138 002B     		cmp	r3, #0
 2210 013a 09D0     		beq	.L113
 2211              	.LVL251:
 2212              		.loc 1 959 0
 2213 013c B91C     		adds	r1, r7, #2
 2214 013e 8901     		lsls	r1, r1, #6
 2215 0140 002D     		cmp	r5, #0
 2216 0142 01D1     		bne	.L134
 2217 0144 904A     		ldr	r2, .L140
 2218 0146 00E0     		b	.L114
 2219              	.L134:
 2220 0148 904A     		ldr	r2, .L140+4
 2221              	.L114:
 2222              		.loc 1 959 0 is_stmt 0 discriminator 4
 2223 014a 9748     		ldr	r0, .L140+32
 2224 014c FFF7FEFF 		bl	printf
 2225              	.LVL252:
 2226              	.L113:
 960:Source\mbedtls_open\library/camellia.c ****                              ( v == MBEDTLS_CAMELLIA_DECRYPT ) ? "dec" : "enc" );
 961:Source\mbedtls_open\library/camellia.c **** 
 962:Source\mbedtls_open\library/camellia.c ****         memcpy( src, camellia_test_cbc_iv, 16 );
 2227              		.loc 1 962 0 is_stmt 1
ARM GAS  C:\Users\Phuong\AppData\Local\Temp\ccZ7UQ35.s 			page 58


 2228 0150 5AAA     		add	r2, sp, #360
 2229 0152 9249     		ldr	r1, .L140+20
 2230 0154 0B00     		movs	r3, r1
 2231 0156 5833     		adds	r3, r3, #88
 2232 0158 51CB     		ldmia	r3!, {r0, r4, r6}
 2233 015a 51C2     		stmia	r2!, {r0, r4, r6}
 2234 015c 1B68     		ldr	r3, [r3]
 2235 015e 1360     		str	r3, [r2]
 963:Source\mbedtls_open\library/camellia.c ****         memcpy( dst, camellia_test_cbc_iv, 16 );
 2236              		.loc 1 963 0
 2237 0160 56AA     		add	r2, sp, #344
 2238 0162 0B00     		movs	r3, r1
 2239 0164 5833     		adds	r3, r3, #88
 2240 0166 51CB     		ldmia	r3!, {r0, r4, r6}
 2241 0168 51C2     		stmia	r2!, {r0, r4, r6}
 2242 016a 1B68     		ldr	r3, [r3]
 2243 016c 1360     		str	r3, [r2]
 964:Source\mbedtls_open\library/camellia.c ****         memcpy( key, camellia_test_cbc_key[u], 16 + 8 * u );
 2244              		.loc 1 964 0
 2245 016e 6831     		adds	r1, r1, #104
 2246 0170 7B01     		lsls	r3, r7, #5
 2247 0172 C918     		adds	r1, r1, r3
 2248 0174 BC1C     		adds	r4, r7, #2
 2249 0176 E200     		lsls	r2, r4, #3
 2250 0178 6EA8     		add	r0, sp, #440
 2251 017a FFF7FEFF 		bl	memcpy
 2252              	.LVL253:
 965:Source\mbedtls_open\library/camellia.c **** 
 966:Source\mbedtls_open\library/camellia.c ****         if( v == MBEDTLS_CAMELLIA_DECRYPT ) {
 2253              		.loc 1 966 0
 2254 017e 002D     		cmp	r5, #0
 2255 0180 06D1     		bne	.L115
 967:Source\mbedtls_open\library/camellia.c ****             mbedtls_camellia_setkey_dec( &ctx, key, 128 + u * 64 );
 2256              		.loc 1 967 0
 2257 0182 A201     		lsls	r2, r4, #6
 2258 0184 6EA9     		add	r1, sp, #440
 2259 0186 04A8     		add	r0, sp, #16
 2260 0188 FFF7FEFF 		bl	mbedtls_camellia_setkey_dec
 2261              	.LVL254:
 2262              	.L117:
 959:Source\mbedtls_open\library/camellia.c ****                              ( v == MBEDTLS_CAMELLIA_DECRYPT ) ? "dec" : "enc" );
 2263              		.loc 1 959 0 discriminator 1
 2264 018c 0024     		movs	r4, #0
 2265 018e 5EE0     		b	.L116
 2266              	.L115:
 968:Source\mbedtls_open\library/camellia.c ****         } else {
 969:Source\mbedtls_open\library/camellia.c ****             mbedtls_camellia_setkey_enc( &ctx, key, 128 + u * 64 );
 2267              		.loc 1 969 0
 2268 0190 A201     		lsls	r2, r4, #6
 2269 0192 6EA9     		add	r1, sp, #440
 2270 0194 04A8     		add	r0, sp, #16
 2271 0196 FFF7FEFF 		bl	mbedtls_camellia_setkey_enc
 2272              	.LVL255:
 2273 019a F7E7     		b	.L117
 2274              	.LVL256:
 2275              	.L121:
 970:Source\mbedtls_open\library/camellia.c ****         }
ARM GAS  C:\Users\Phuong\AppData\Local\Temp\ccZ7UQ35.s 			page 59


 971:Source\mbedtls_open\library/camellia.c **** 
 972:Source\mbedtls_open\library/camellia.c ****         for( i = 0; i < CAMELLIA_TESTS_CBC; i++ ) {
 973:Source\mbedtls_open\library/camellia.c **** 
 974:Source\mbedtls_open\library/camellia.c ****             if( v == MBEDTLS_CAMELLIA_DECRYPT ) {
 2276              		.loc 1 974 0
 2277 019c 002D     		cmp	r5, #0
 2278 019e 1DD1     		bne	.L118
 975:Source\mbedtls_open\library/camellia.c ****                 memcpy( iv , src, 16 );
 2279              		.loc 1 975 0
 2280 01a0 5AAE     		add	r6, sp, #360
 2281 01a2 1022     		movs	r2, #16
 2282 01a4 3100     		movs	r1, r6
 2283 01a6 52A8     		add	r0, sp, #328
 2284 01a8 FFF7FEFF 		bl	memcpy
 2285              	.LVL257:
 976:Source\mbedtls_open\library/camellia.c ****                 memcpy( src, camellia_test_cbc_cipher[u][i], 16 );
 2286              		.loc 1 976 0
 2287 01ac 7B00     		lsls	r3, r7, #1
 2288 01ae DB19     		adds	r3, r3, r7
 2289 01b0 1B19     		adds	r3, r3, r4
 2290 01b2 1B01     		lsls	r3, r3, #4
 2291 01b4 7D4A     		ldr	r2, .L140+36
 2292 01b6 D318     		adds	r3, r2, r3
 2293 01b8 4833     		adds	r3, r3, #72
 2294 01ba 3200     		movs	r2, r6
 2295 01bc 43CB     		ldmia	r3!, {r0, r1, r6}
 2296 01be 43C2     		stmia	r2!, {r0, r1, r6}
 2297 01c0 1B68     		ldr	r3, [r3]
 2298 01c2 1360     		str	r3, [r2]
 977:Source\mbedtls_open\library/camellia.c ****                 memcpy( dst, camellia_test_cbc_plain[i], 16 );
 2299              		.loc 1 977 0
 2300 01c4 56A9     		add	r1, sp, #344
 2301 01c6 2201     		lsls	r2, r4, #4
 2302 01c8 794B     		ldr	r3, .L140+40
 2303 01ca 9A18     		adds	r2, r3, r2
 2304 01cc 1300     		movs	r3, r2
 2305 01ce 5833     		adds	r3, r3, #88
 2306 01d0 0A00     		movs	r2, r1
 2307 01d2 43CB     		ldmia	r3!, {r0, r1, r6}
 2308 01d4 43C2     		stmia	r2!, {r0, r1, r6}
 2309 01d6 1B68     		ldr	r3, [r3]
 2310 01d8 1360     		str	r3, [r2]
 2311 01da 1DE0     		b	.L119
 2312              	.L118:
 978:Source\mbedtls_open\library/camellia.c ****             } else { /* MBEDTLS_CAMELLIA_ENCRYPT */
 979:Source\mbedtls_open\library/camellia.c ****                 memcpy( iv , dst, 16 );
 2313              		.loc 1 979 0
 2314 01dc 56AB     		add	r3, sp, #344
 2315 01de 9A46     		mov	r10, r3
 2316 01e0 1022     		movs	r2, #16
 2317 01e2 1900     		movs	r1, r3
 2318 01e4 52A8     		add	r0, sp, #328
 2319 01e6 FFF7FEFF 		bl	memcpy
 2320              	.LVL258:
 980:Source\mbedtls_open\library/camellia.c ****                 memcpy( src, camellia_test_cbc_plain[i], 16 );
 2321              		.loc 1 980 0
 2322 01ea 5AA9     		add	r1, sp, #360
ARM GAS  C:\Users\Phuong\AppData\Local\Temp\ccZ7UQ35.s 			page 60


 2323 01ec 2201     		lsls	r2, r4, #4
 2324 01ee 704B     		ldr	r3, .L140+40
 2325 01f0 9A18     		adds	r2, r3, r2
 2326 01f2 1300     		movs	r3, r2
 2327 01f4 5833     		adds	r3, r3, #88
 2328 01f6 0A00     		movs	r2, r1
 2329 01f8 43CB     		ldmia	r3!, {r0, r1, r6}
 2330 01fa 43C2     		stmia	r2!, {r0, r1, r6}
 2331 01fc 1B68     		ldr	r3, [r3]
 2332 01fe 1360     		str	r3, [r2]
 981:Source\mbedtls_open\library/camellia.c ****                 memcpy( dst, camellia_test_cbc_cipher[u][i], 16 );
 2333              		.loc 1 981 0
 2334 0200 7B00     		lsls	r3, r7, #1
 2335 0202 DB19     		adds	r3, r3, r7
 2336 0204 1B19     		adds	r3, r3, r4
 2337 0206 1B01     		lsls	r3, r3, #4
 2338 0208 684A     		ldr	r2, .L140+36
 2339 020a D318     		adds	r3, r2, r3
 2340 020c 4833     		adds	r3, r3, #72
 2341 020e 5246     		mov	r2, r10
 2342 0210 43CB     		ldmia	r3!, {r0, r1, r6}
 2343 0212 43C2     		stmia	r2!, {r0, r1, r6}
 2344 0214 1B68     		ldr	r3, [r3]
 2345 0216 1360     		str	r3, [r2]
 2346              	.L119:
 982:Source\mbedtls_open\library/camellia.c ****             }
 983:Source\mbedtls_open\library/camellia.c **** 
 984:Source\mbedtls_open\library/camellia.c ****             mbedtls_camellia_crypt_cbc( &ctx, v, 16, iv, src, buf );
 2347              		.loc 1 984 0
 2348 0218 5EAE     		add	r6, sp, #376
 2349 021a 0196     		str	r6, [sp, #4]
 2350 021c 5AAB     		add	r3, sp, #360
 2351 021e 0093     		str	r3, [sp]
 2352 0220 52AB     		add	r3, sp, #328
 2353 0222 1022     		movs	r2, #16
 2354 0224 2900     		movs	r1, r5
 2355 0226 04A8     		add	r0, sp, #16
 2356 0228 FFF7FEFF 		bl	mbedtls_camellia_crypt_cbc
 2357              	.LVL259:
 985:Source\mbedtls_open\library/camellia.c **** 
 986:Source\mbedtls_open\library/camellia.c ****             if( memcmp( buf, dst, 16 ) != 0 )
 2358              		.loc 1 986 0
 2359 022c 1022     		movs	r2, #16
 2360 022e 56A9     		add	r1, sp, #344
 2361 0230 3000     		movs	r0, r6
 2362 0232 FFF7FEFF 		bl	memcmp
 2363              	.LVL260:
 2364 0236 0028     		cmp	r0, #0
 2365 0238 08D0     		beq	.L120
 987:Source\mbedtls_open\library/camellia.c ****             {
 988:Source\mbedtls_open\library/camellia.c ****                 if( verbose != 0 )
 2366              		.loc 1 988 0
 2367 023a 4346     		mov	r3, r8
 2368 023c 002B     		cmp	r3, #0
 2369 023e 00D1     		bne	.LCB2618
 2370 0240 D5E0     		b	.L135	@long jump
 2371              	.LCB2618:
ARM GAS  C:\Users\Phuong\AppData\Local\Temp\ccZ7UQ35.s 			page 61


 2372              	.LVL261:
 989:Source\mbedtls_open\library/camellia.c ****                     mbedtls_printf( "failed\n" );
 2373              		.loc 1 989 0
 2374 0242 5748     		ldr	r0, .L140+24
 2375 0244 FFF7FEFF 		bl	puts
 2376              	.LVL262:
 990:Source\mbedtls_open\library/camellia.c **** 
 991:Source\mbedtls_open\library/camellia.c ****                 return( 1 );
 2377              		.loc 1 991 0
 2378 0248 0120     		movs	r0, #1
 2379 024a D7E0     		b	.L107
 2380              	.L120:
 972:Source\mbedtls_open\library/camellia.c **** 
 2381              		.loc 1 972 0 discriminator 2
 2382 024c 0134     		adds	r4, r4, #1
 2383              	.LVL263:
 2384              	.L116:
 972:Source\mbedtls_open\library/camellia.c **** 
 2385              		.loc 1 972 0 is_stmt 0 discriminator 1
 2386 024e 022C     		cmp	r4, #2
 2387 0250 A4DD     		ble	.L121
 992:Source\mbedtls_open\library/camellia.c ****             }
 993:Source\mbedtls_open\library/camellia.c ****         }
 994:Source\mbedtls_open\library/camellia.c **** 
 995:Source\mbedtls_open\library/camellia.c ****         if( verbose != 0 )
 2388              		.loc 1 995 0 is_stmt 1
 2389 0252 4346     		mov	r3, r8
 2390 0254 002B     		cmp	r3, #0
 2391 0256 02D0     		beq	.L122
 2392              	.LVL264:
 996:Source\mbedtls_open\library/camellia.c ****             mbedtls_printf( "passed\n" );
 2393              		.loc 1 996 0
 2394 0258 5248     		ldr	r0, .L140+28
 2395 025a FFF7FEFF 		bl	puts
 2396              	.LVL265:
 2397              	.L122:
 953:Source\mbedtls_open\library/camellia.c ****     {
 2398              		.loc 1 953 0 discriminator 2
 2399 025e 0123     		movs	r3, #1
 2400 0260 9C46     		mov	ip, r3
 2401 0262 E144     		add	r9, r9, ip
 2402              	.LVL266:
 2403              	.L112:
 953:Source\mbedtls_open\library/camellia.c ****     {
 2404              		.loc 1 953 0 is_stmt 0 discriminator 1
 2405 0264 4B46     		mov	r3, r9
 2406 0266 052B     		cmp	r3, #5
 2407 0268 00DC     		bgt	.LCB2665
 2408 026a 60E7     		b	.L123	@long jump
 2409              	.LCB2665:
 997:Source\mbedtls_open\library/camellia.c ****     }
 998:Source\mbedtls_open\library/camellia.c **** #endif /* MBEDTLS_CIPHER_MODE_CBC */
 999:Source\mbedtls_open\library/camellia.c **** 
1000:Source\mbedtls_open\library/camellia.c ****     if( verbose != 0 )
 2410              		.loc 1 1000 0 is_stmt 1
 2411 026c 4346     		mov	r3, r8
 2412 026e 002B     		cmp	r3, #0
ARM GAS  C:\Users\Phuong\AppData\Local\Temp\ccZ7UQ35.s 			page 62


 2413 0270 02D0     		beq	.L124
 2414              	.LVL267:
1001:Source\mbedtls_open\library/camellia.c ****         mbedtls_printf( "\n" );
 2415              		.loc 1 1001 0
 2416 0272 0A20     		movs	r0, #10
 2417 0274 FFF7FEFF 		bl	putchar
 2418              	.LVL268:
 2419              	.L124:
1002:Source\mbedtls_open\library/camellia.c **** 
1003:Source\mbedtls_open\library/camellia.c **** #if defined(MBEDTLS_CIPHER_MODE_CTR)
1004:Source\mbedtls_open\library/camellia.c ****     /*
1005:Source\mbedtls_open\library/camellia.c ****      * CTR mode
1006:Source\mbedtls_open\library/camellia.c ****      */
1007:Source\mbedtls_open\library/camellia.c ****     for( i = 0; i < 6; i++ )
1008:Source\mbedtls_open\library/camellia.c ****     {
1009:Source\mbedtls_open\library/camellia.c ****         u = i >> 1;
1010:Source\mbedtls_open\library/camellia.c ****         v = i  & 1;
1011:Source\mbedtls_open\library/camellia.c **** 
1012:Source\mbedtls_open\library/camellia.c ****         if( verbose != 0 )
1013:Source\mbedtls_open\library/camellia.c ****             mbedtls_printf( "  CAMELLIA-CTR-128 (%s): ",
 2420              		.loc 1 1013 0 discriminator 1
 2421 0278 0023     		movs	r3, #0
 2422 027a 9A46     		mov	r10, r3
 2423 027c A9E0     		b	.L125
 2424              	.LVL269:
 2425              	.L131:
1009:Source\mbedtls_open\library/camellia.c ****         v = i  & 1;
 2426              		.loc 1 1009 0
 2427 027e 5346     		mov	r3, r10
 2428              	.LVL270:
 2429 0280 5C10     		asrs	r4, r3, #1
 2430              	.LVL271:
1010:Source\mbedtls_open\library/camellia.c **** 
 2431              		.loc 1 1010 0
 2432 0282 0125     		movs	r5, #1
 2433 0284 1D40     		ands	r5, r3
 2434              	.LVL272:
1012:Source\mbedtls_open\library/camellia.c ****             mbedtls_printf( "  CAMELLIA-CTR-128 (%s): ",
 2435              		.loc 1 1012 0
 2436 0286 4346     		mov	r3, r8
 2437 0288 002B     		cmp	r3, #0
 2438 028a 07D0     		beq	.L126
 2439              	.LVL273:
 2440              		.loc 1 1013 0
 2441 028c 002D     		cmp	r5, #0
 2442 028e 01D1     		bne	.L136
 2443 0290 3D49     		ldr	r1, .L140
 2444 0292 00E0     		b	.L127
 2445              	.L136:
 2446 0294 3D49     		ldr	r1, .L140+4
 2447              	.L127:
 2448              		.loc 1 1013 0 is_stmt 0 discriminator 4
 2449 0296 4748     		ldr	r0, .L140+44
 2450 0298 FFF7FEFF 		bl	printf
 2451              	.LVL274:
 2452              	.L126:
1014:Source\mbedtls_open\library/camellia.c ****                              ( v == MBEDTLS_CAMELLIA_DECRYPT ) ? "dec" : "enc" );
ARM GAS  C:\Users\Phuong\AppData\Local\Temp\ccZ7UQ35.s 			page 63


1015:Source\mbedtls_open\library/camellia.c **** 
1016:Source\mbedtls_open\library/camellia.c ****         memcpy( nonce_counter, camellia_test_ctr_nonce_counter[u], 16 );
 2453              		.loc 1 1016 0 is_stmt 1
 2454 029c 4DAA     		add	r2, sp, #308
 2455 029e 464B     		ldr	r3, .L140+48
 2456 02a0 9946     		mov	r9, r3
 2457 02a2 2001     		lsls	r0, r4, #4
 2458 02a4 1B18     		adds	r3, r3, r0
 2459 02a6 0833     		adds	r3, r3, #8
 2460 02a8 C2CB     		ldmia	r3!, {r1, r6, r7}
 2461 02aa C2C2     		stmia	r2!, {r1, r6, r7}
 2462 02ac 1B68     		ldr	r3, [r3]
 2463 02ae 1360     		str	r3, [r2]
1017:Source\mbedtls_open\library/camellia.c ****         memcpy( key, camellia_test_ctr_key[u], 16 );
 2464              		.loc 1 1017 0
 2465 02b0 4946     		mov	r1, r9
 2466 02b2 3831     		adds	r1, r1, #56
 2467 02b4 0918     		adds	r1, r1, r0
 2468 02b6 1022     		movs	r2, #16
 2469 02b8 6EA8     		add	r0, sp, #440
 2470 02ba FFF7FEFF 		bl	memcpy
 2471              	.LVL275:
1018:Source\mbedtls_open\library/camellia.c **** 
1019:Source\mbedtls_open\library/camellia.c ****         offset = 0;
 2472              		.loc 1 1019 0
 2473 02be 0023     		movs	r3, #0
 2474 02c0 5193     		str	r3, [sp, #324]
1020:Source\mbedtls_open\library/camellia.c ****         mbedtls_camellia_setkey_enc( &ctx, key, 128 );
 2475              		.loc 1 1020 0
 2476 02c2 8022     		movs	r2, #128
 2477 02c4 6EA9     		add	r1, sp, #440
 2478 02c6 04A8     		add	r0, sp, #16
 2479 02c8 FFF7FEFF 		bl	mbedtls_camellia_setkey_enc
 2480              	.LVL276:
1021:Source\mbedtls_open\library/camellia.c **** 
1022:Source\mbedtls_open\library/camellia.c ****         if( v == MBEDTLS_CAMELLIA_DECRYPT )
 2481              		.loc 1 1022 0
 2482 02cc 002D     		cmp	r5, #0
 2483 02ce 2CD1     		bne	.L128
1023:Source\mbedtls_open\library/camellia.c ****         {
1024:Source\mbedtls_open\library/camellia.c ****             len = camellia_test_ctr_len[u];
 2484              		.loc 1 1024 0
 2485 02d0 3949     		ldr	r1, .L140+48
 2486 02d2 A300     		lsls	r3, r4, #2
 2487 02d4 CB18     		adds	r3, r1, r3
 2488 02d6 9B6E     		ldr	r3, [r3, #104]
 2489 02d8 1F00     		movs	r7, r3
 2490              	.LVL277:
1025:Source\mbedtls_open\library/camellia.c ****             memcpy( buf, camellia_test_ctr_ct[u], len );
 2491              		.loc 1 1025 0
 2492 02da 0B00     		movs	r3, r1
 2493              	.LVL278:
 2494 02dc 7433     		adds	r3, r3, #116
 2495 02de 6600     		lsls	r6, r4, #1
 2496 02e0 3219     		adds	r2, r6, r4
 2497 02e2 1101     		lsls	r1, r2, #4
 2498 02e4 5918     		adds	r1, r3, r1
ARM GAS  C:\Users\Phuong\AppData\Local\Temp\ccZ7UQ35.s 			page 64


 2499 02e6 5EAD     		add	r5, sp, #376
 2500              	.LVL279:
 2501 02e8 3A00     		movs	r2, r7
 2502 02ea 2800     		movs	r0, r5
 2503 02ec FFF7FEFF 		bl	memcpy
 2504              	.LVL280:
1026:Source\mbedtls_open\library/camellia.c **** 
1027:Source\mbedtls_open\library/camellia.c ****             mbedtls_camellia_crypt_ctr( &ctx, len, &offset, nonce_counter, stream_block,
 2505              		.loc 1 1027 0
 2506 02f0 0295     		str	r5, [sp, #8]
 2507 02f2 0195     		str	r5, [sp, #4]
 2508 02f4 49AB     		add	r3, sp, #292
 2509 02f6 0093     		str	r3, [sp]
 2510 02f8 4DAB     		add	r3, sp, #308
 2511 02fa 51AA     		add	r2, sp, #324
 2512 02fc 3900     		movs	r1, r7
 2513 02fe 04A8     		add	r0, sp, #16
 2514 0300 FFF7FEFF 		bl	mbedtls_camellia_crypt_ctr
 2515              	.LVL281:
1028:Source\mbedtls_open\library/camellia.c ****                                 buf, buf );
1029:Source\mbedtls_open\library/camellia.c **** 
1030:Source\mbedtls_open\library/camellia.c ****             if( memcmp( buf, camellia_test_ctr_pt[u], len ) != 0 )
 2516              		.loc 1 1030 0
 2517 0304 3419     		adds	r4, r6, r4
 2518              	.LVL282:
 2519 0306 2301     		lsls	r3, r4, #4
 2520 0308 2C49     		ldr	r1, .L140+52
 2521 030a 0431     		adds	r1, r1, #4
 2522 030c C918     		adds	r1, r1, r3
 2523 030e 3A00     		movs	r2, r7
 2524 0310 2800     		movs	r0, r5
 2525 0312 FFF7FEFF 		bl	memcmp
 2526              	.LVL283:
 2527 0316 0028     		cmp	r0, #0
 2528 0318 52D0     		beq	.L129
1031:Source\mbedtls_open\library/camellia.c ****             {
1032:Source\mbedtls_open\library/camellia.c ****                 if( verbose != 0 )
 2529              		.loc 1 1032 0
 2530 031a 4346     		mov	r3, r8
 2531 031c 002B     		cmp	r3, #0
 2532 031e 68D0     		beq	.L137
 2533              	.LVL284:
1033:Source\mbedtls_open\library/camellia.c ****                     mbedtls_printf( "failed\n" );
 2534              		.loc 1 1033 0
 2535 0320 1F48     		ldr	r0, .L140+24
 2536 0322 FFF7FEFF 		bl	puts
 2537              	.LVL285:
1034:Source\mbedtls_open\library/camellia.c **** 
1035:Source\mbedtls_open\library/camellia.c ****                 return( 1 );
 2538              		.loc 1 1035 0
 2539 0326 0120     		movs	r0, #1
 2540              	.LVL286:
 2541 0328 68E0     		b	.L107
 2542              	.LVL287:
 2543              	.L128:
1036:Source\mbedtls_open\library/camellia.c ****             }
1037:Source\mbedtls_open\library/camellia.c ****         }
ARM GAS  C:\Users\Phuong\AppData\Local\Temp\ccZ7UQ35.s 			page 65


1038:Source\mbedtls_open\library/camellia.c ****         else
1039:Source\mbedtls_open\library/camellia.c ****         {
1040:Source\mbedtls_open\library/camellia.c ****             len = camellia_test_ctr_len[u];
 2544              		.loc 1 1040 0
 2545 032a 234B     		ldr	r3, .L140+48
 2546 032c 9946     		mov	r9, r3
 2547 032e A300     		lsls	r3, r4, #2
 2548 0330 4B44     		add	r3, r3, r9
 2549 0332 9B6E     		ldr	r3, [r3, #104]
 2550 0334 1F00     		movs	r7, r3
 2551              	.LVL288:
1041:Source\mbedtls_open\library/camellia.c ****             memcpy( buf, camellia_test_ctr_pt[u], len );
 2552              		.loc 1 1041 0
 2553 0336 6600     		lsls	r6, r4, #1
 2554 0338 3219     		adds	r2, r6, r4
 2555 033a 1301     		lsls	r3, r2, #4
 2556              	.LVL289:
 2557 033c 1F49     		ldr	r1, .L140+52
 2558 033e 0431     		adds	r1, r1, #4
 2559 0340 C918     		adds	r1, r1, r3
 2560 0342 5EAD     		add	r5, sp, #376
 2561              	.LVL290:
 2562 0344 3A00     		movs	r2, r7
 2563 0346 2800     		movs	r0, r5
 2564 0348 FFF7FEFF 		bl	memcpy
 2565              	.LVL291:
1042:Source\mbedtls_open\library/camellia.c **** 
1043:Source\mbedtls_open\library/camellia.c ****             mbedtls_camellia_crypt_ctr( &ctx, len, &offset, nonce_counter, stream_block,
 2566              		.loc 1 1043 0
 2567 034c 0295     		str	r5, [sp, #8]
 2568 034e 0195     		str	r5, [sp, #4]
 2569 0350 49AB     		add	r3, sp, #292
 2570 0352 0093     		str	r3, [sp]
 2571 0354 4DAB     		add	r3, sp, #308
 2572 0356 51AA     		add	r2, sp, #324
 2573 0358 3900     		movs	r1, r7
 2574 035a 04A8     		add	r0, sp, #16
 2575 035c FFF7FEFF 		bl	mbedtls_camellia_crypt_ctr
 2576              	.LVL292:
1044:Source\mbedtls_open\library/camellia.c ****                                 buf, buf );
1045:Source\mbedtls_open\library/camellia.c **** 
1046:Source\mbedtls_open\library/camellia.c ****             if( memcmp( buf, camellia_test_ctr_ct[u], len ) != 0 )
 2577              		.loc 1 1046 0
 2578 0360 4B46     		mov	r3, r9
 2579 0362 7433     		adds	r3, r3, #116
 2580 0364 3419     		adds	r4, r6, r4
 2581              	.LVL293:
 2582 0366 2101     		lsls	r1, r4, #4
 2583 0368 5918     		adds	r1, r3, r1
 2584 036a 3A00     		movs	r2, r7
 2585 036c 2800     		movs	r0, r5
 2586 036e FFF7FEFF 		bl	memcmp
 2587              	.LVL294:
 2588 0372 0028     		cmp	r0, #0
 2589 0374 24D0     		beq	.L129
1047:Source\mbedtls_open\library/camellia.c ****             {
1048:Source\mbedtls_open\library/camellia.c ****                 if( verbose != 0 )
ARM GAS  C:\Users\Phuong\AppData\Local\Temp\ccZ7UQ35.s 			page 66


 2590              		.loc 1 1048 0
 2591 0376 4346     		mov	r3, r8
 2592 0378 002B     		cmp	r3, #0
 2593 037a 3CD0     		beq	.L138
 2594              	.LVL295:
1049:Source\mbedtls_open\library/camellia.c ****                     mbedtls_printf( "failed\n" );
 2595              		.loc 1 1049 0
 2596 037c 0848     		ldr	r0, .L140+24
 2597 037e FFF7FEFF 		bl	puts
 2598              	.LVL296:
1050:Source\mbedtls_open\library/camellia.c **** 
1051:Source\mbedtls_open\library/camellia.c ****                 return( 1 );
 2599              		.loc 1 1051 0
 2600 0382 0120     		movs	r0, #1
 2601              	.LVL297:
 2602 0384 3AE0     		b	.L107
 2603              	.L141:
 2604 0386 C046     		.align	2
 2605              	.L140:
 2606 0388 00000000 		.word	.LC6
 2607 038c 04000000 		.word	.LC8
 2608 0390 08000000 		.word	.LC10
 2609 0394 00050000 		.word	.LANCHOR6
 2610 0398 80050000 		.word	.LANCHOR7
 2611 039c 00060000 		.word	.LANCHOR8
 2612 03a0 24000000 		.word	.LC15
 2613 03a4 2C000000 		.word	.LC17
 2614 03a8 34000000 		.word	.LC19
 2615 03ac 80060000 		.word	.LANCHOR9
 2616 03b0 00070000 		.word	.LANCHOR10
 2617 03b4 50000000 		.word	.LC23
 2618 03b8 80070000 		.word	.LANCHOR11
 2619 03bc 80080000 		.word	.LANCHOR12
 2620              	.LVL298:
 2621              	.L129:
1052:Source\mbedtls_open\library/camellia.c ****             }
1053:Source\mbedtls_open\library/camellia.c ****         }
1054:Source\mbedtls_open\library/camellia.c **** 
1055:Source\mbedtls_open\library/camellia.c ****         if( verbose != 0 )
 2622              		.loc 1 1055 0
 2623 03c0 4346     		mov	r3, r8
 2624 03c2 002B     		cmp	r3, #0
 2625 03c4 02D0     		beq	.L130
 2626              	.LVL299:
1056:Source\mbedtls_open\library/camellia.c ****             mbedtls_printf( "passed\n" );
 2627              		.loc 1 1056 0
 2628 03c6 1048     		ldr	r0, .L142
 2629 03c8 FFF7FEFF 		bl	puts
 2630              	.LVL300:
 2631              	.L130:
1007:Source\mbedtls_open\library/camellia.c ****     {
 2632              		.loc 1 1007 0 discriminator 2
 2633 03cc 0123     		movs	r3, #1
 2634              	.LVL301:
 2635 03ce 9C46     		mov	ip, r3
 2636 03d0 E244     		add	r10, r10, ip
 2637              	.LVL302:
ARM GAS  C:\Users\Phuong\AppData\Local\Temp\ccZ7UQ35.s 			page 67


 2638              	.L125:
1007:Source\mbedtls_open\library/camellia.c ****     {
 2639              		.loc 1 1007 0 is_stmt 0 discriminator 1
 2640 03d2 5346     		mov	r3, r10
 2641 03d4 052B     		cmp	r3, #5
 2642 03d6 00DC     		bgt	.LCB2908
 2643 03d8 51E7     		b	.L131	@long jump
 2644              	.LCB2908:
1057:Source\mbedtls_open\library/camellia.c ****     }
1058:Source\mbedtls_open\library/camellia.c **** 
1059:Source\mbedtls_open\library/camellia.c ****     if( verbose != 0 )
 2645              		.loc 1 1059 0 is_stmt 1
 2646 03da 4346     		mov	r3, r8
 2647 03dc 002B     		cmp	r3, #0
 2648 03de 0CD0     		beq	.L139
 2649              	.LVL303:
1060:Source\mbedtls_open\library/camellia.c ****         mbedtls_printf( "\n" );
 2650              		.loc 1 1060 0
 2651 03e0 0A20     		movs	r0, #10
 2652 03e2 FFF7FEFF 		bl	putchar
 2653              	.LVL304:
1061:Source\mbedtls_open\library/camellia.c **** #endif /* MBEDTLS_CIPHER_MODE_CTR */
1062:Source\mbedtls_open\library/camellia.c **** 
1063:Source\mbedtls_open\library/camellia.c ****     return( 0 );
 2654              		.loc 1 1063 0
 2655 03e6 0020     		movs	r0, #0
 2656 03e8 08E0     		b	.L107
 2657              	.LVL305:
 2658              	.L133:
 938:Source\mbedtls_open\library/camellia.c ****         }
 2659              		.loc 1 938 0
 2660 03ea 0120     		movs	r0, #1
 2661 03ec 06E0     		b	.L107
 2662              	.LVL306:
 2663              	.L135:
 991:Source\mbedtls_open\library/camellia.c ****             }
 2664              		.loc 1 991 0
 2665 03ee 0120     		movs	r0, #1
 2666 03f0 04E0     		b	.L107
 2667              	.LVL307:
 2668              	.L137:
1035:Source\mbedtls_open\library/camellia.c ****             }
 2669              		.loc 1 1035 0
 2670 03f2 0120     		movs	r0, #1
 2671              	.LVL308:
 2672 03f4 02E0     		b	.L107
 2673              	.LVL309:
 2674              	.L138:
1051:Source\mbedtls_open\library/camellia.c ****             }
 2675              		.loc 1 1051 0
 2676 03f6 0120     		movs	r0, #1
 2677              	.LVL310:
 2678 03f8 00E0     		b	.L107
 2679              	.LVL311:
 2680              	.L139:
 2681              		.loc 1 1063 0
 2682 03fa 0020     		movs	r0, #0
ARM GAS  C:\Users\Phuong\AppData\Local\Temp\ccZ7UQ35.s 			page 68


 2683              	.LVL312:
 2684              	.L107:
1064:Source\mbedtls_open\library/camellia.c **** }
 2685              		.loc 1 1064 0
 2686 03fc 76B0     		add	sp, sp, #472
 2687              		@ sp needed
 2688              	.LVL313:
 2689 03fe 1CBC     		pop	{r2, r3, r4}
 2690 0400 9046     		mov	r8, r2
 2691 0402 9946     		mov	r9, r3
 2692 0404 A246     		mov	r10, r4
 2693 0406 F0BD     		pop	{r4, r5, r6, r7, pc}
 2694              	.L143:
 2695              		.align	2
 2696              	.L142:
 2697 0408 2C000000 		.word	.LC17
 2698              		.cfi_endproc
 2699              	.LFE10:
 2700              		.size	mbedtls_camellia_self_test, .-mbedtls_camellia_self_test
 2701              		.section	.rodata
 2702              		.align	2
 2703              		.set	.LANCHOR0,. + 0
 2704              		.set	.LANCHOR1,. + 256
 2705              		.set	.LANCHOR2,. + 512
 2706              		.set	.LANCHOR3,. + 768
 2707              		.set	.LANCHOR4,. + 1024
 2708              		.set	.LANCHOR5,. + 1152
 2709              		.set	.LANCHOR6,. + 1280
 2710              		.set	.LANCHOR7,. + 1408
 2711              		.set	.LANCHOR8,. + 1536
 2712              		.set	.LANCHOR9,. + 1664
 2713              		.set	.LANCHOR10,. + 1792
 2714              		.set	.LANCHOR11,. + 1920
 2715              		.set	.LANCHOR12,. + 2176
 2716              		.type	FSb, %object
 2717              		.size	FSb, 256
 2718              	FSb:
 2719 0000 70       		.byte	112
 2720 0001 82       		.byte	-126
 2721 0002 2C       		.byte	44
 2722 0003 EC       		.byte	-20
 2723 0004 B3       		.byte	-77
 2724 0005 27       		.byte	39
 2725 0006 C0       		.byte	-64
 2726 0007 E5       		.byte	-27
 2727 0008 E4       		.byte	-28
 2728 0009 85       		.byte	-123
 2729 000a 57       		.byte	87
 2730 000b 35       		.byte	53
 2731 000c EA       		.byte	-22
 2732 000d 0C       		.byte	12
 2733 000e AE       		.byte	-82
 2734 000f 41       		.byte	65
 2735 0010 23       		.byte	35
 2736 0011 EF       		.byte	-17
 2737 0012 6B       		.byte	107
 2738 0013 93       		.byte	-109
ARM GAS  C:\Users\Phuong\AppData\Local\Temp\ccZ7UQ35.s 			page 69


 2739 0014 45       		.byte	69
 2740 0015 19       		.byte	25
 2741 0016 A5       		.byte	-91
 2742 0017 21       		.byte	33
 2743 0018 ED       		.byte	-19
 2744 0019 0E       		.byte	14
 2745 001a 4F       		.byte	79
 2746 001b 4E       		.byte	78
 2747 001c 1D       		.byte	29
 2748 001d 65       		.byte	101
 2749 001e 92       		.byte	-110
 2750 001f BD       		.byte	-67
 2751 0020 86       		.byte	-122
 2752 0021 B8       		.byte	-72
 2753 0022 AF       		.byte	-81
 2754 0023 8F       		.byte	-113
 2755 0024 7C       		.byte	124
 2756 0025 EB       		.byte	-21
 2757 0026 1F       		.byte	31
 2758 0027 CE       		.byte	-50
 2759 0028 3E       		.byte	62
 2760 0029 30       		.byte	48
 2761 002a DC       		.byte	-36
 2762 002b 5F       		.byte	95
 2763 002c 5E       		.byte	94
 2764 002d C5       		.byte	-59
 2765 002e 0B       		.byte	11
 2766 002f 1A       		.byte	26
 2767 0030 A6       		.byte	-90
 2768 0031 E1       		.byte	-31
 2769 0032 39       		.byte	57
 2770 0033 CA       		.byte	-54
 2771 0034 D5       		.byte	-43
 2772 0035 47       		.byte	71
 2773 0036 5D       		.byte	93
 2774 0037 3D       		.byte	61
 2775 0038 D9       		.byte	-39
 2776 0039 01       		.byte	1
 2777 003a 5A       		.byte	90
 2778 003b D6       		.byte	-42
 2779 003c 51       		.byte	81
 2780 003d 56       		.byte	86
 2781 003e 6C       		.byte	108
 2782 003f 4D       		.byte	77
 2783 0040 8B       		.byte	-117
 2784 0041 0D       		.byte	13
 2785 0042 9A       		.byte	-102
 2786 0043 66       		.byte	102
 2787 0044 FB       		.byte	-5
 2788 0045 CC       		.byte	-52
 2789 0046 B0       		.byte	-80
 2790 0047 2D       		.byte	45
 2791 0048 74       		.byte	116
 2792 0049 12       		.byte	18
 2793 004a 2B       		.byte	43
 2794 004b 20       		.byte	32
 2795 004c F0       		.byte	-16
ARM GAS  C:\Users\Phuong\AppData\Local\Temp\ccZ7UQ35.s 			page 70


 2796 004d B1       		.byte	-79
 2797 004e 84       		.byte	-124
 2798 004f 99       		.byte	-103
 2799 0050 DF       		.byte	-33
 2800 0051 4C       		.byte	76
 2801 0052 CB       		.byte	-53
 2802 0053 C2       		.byte	-62
 2803 0054 34       		.byte	52
 2804 0055 7E       		.byte	126
 2805 0056 76       		.byte	118
 2806 0057 05       		.byte	5
 2807 0058 6D       		.byte	109
 2808 0059 B7       		.byte	-73
 2809 005a A9       		.byte	-87
 2810 005b 31       		.byte	49
 2811 005c D1       		.byte	-47
 2812 005d 17       		.byte	23
 2813 005e 04       		.byte	4
 2814 005f D7       		.byte	-41
 2815 0060 14       		.byte	20
 2816 0061 58       		.byte	88
 2817 0062 3A       		.byte	58
 2818 0063 61       		.byte	97
 2819 0064 DE       		.byte	-34
 2820 0065 1B       		.byte	27
 2821 0066 11       		.byte	17
 2822 0067 1C       		.byte	28
 2823 0068 32       		.byte	50
 2824 0069 0F       		.byte	15
 2825 006a 9C       		.byte	-100
 2826 006b 16       		.byte	22
 2827 006c 53       		.byte	83
 2828 006d 18       		.byte	24
 2829 006e F2       		.byte	-14
 2830 006f 22       		.byte	34
 2831 0070 FE       		.byte	-2
 2832 0071 44       		.byte	68
 2833 0072 CF       		.byte	-49
 2834 0073 B2       		.byte	-78
 2835 0074 C3       		.byte	-61
 2836 0075 B5       		.byte	-75
 2837 0076 7A       		.byte	122
 2838 0077 91       		.byte	-111
 2839 0078 24       		.byte	36
 2840 0079 08       		.byte	8
 2841 007a E8       		.byte	-24
 2842 007b A8       		.byte	-88
 2843 007c 60       		.byte	96
 2844 007d FC       		.byte	-4
 2845 007e 69       		.byte	105
 2846 007f 50       		.byte	80
 2847 0080 AA       		.byte	-86
 2848 0081 D0       		.byte	-48
 2849 0082 A0       		.byte	-96
 2850 0083 7D       		.byte	125
 2851 0084 A1       		.byte	-95
 2852 0085 89       		.byte	-119
ARM GAS  C:\Users\Phuong\AppData\Local\Temp\ccZ7UQ35.s 			page 71


 2853 0086 62       		.byte	98
 2854 0087 97       		.byte	-105
 2855 0088 54       		.byte	84
 2856 0089 5B       		.byte	91
 2857 008a 1E       		.byte	30
 2858 008b 95       		.byte	-107
 2859 008c E0       		.byte	-32
 2860 008d FF       		.byte	-1
 2861 008e 64       		.byte	100
 2862 008f D2       		.byte	-46
 2863 0090 10       		.byte	16
 2864 0091 C4       		.byte	-60
 2865 0092 00       		.byte	0
 2866 0093 48       		.byte	72
 2867 0094 A3       		.byte	-93
 2868 0095 F7       		.byte	-9
 2869 0096 75       		.byte	117
 2870 0097 DB       		.byte	-37
 2871 0098 8A       		.byte	-118
 2872 0099 03       		.byte	3
 2873 009a E6       		.byte	-26
 2874 009b DA       		.byte	-38
 2875 009c 09       		.byte	9
 2876 009d 3F       		.byte	63
 2877 009e DD       		.byte	-35
 2878 009f 94       		.byte	-108
 2879 00a0 87       		.byte	-121
 2880 00a1 5C       		.byte	92
 2881 00a2 83       		.byte	-125
 2882 00a3 02       		.byte	2
 2883 00a4 CD       		.byte	-51
 2884 00a5 4A       		.byte	74
 2885 00a6 90       		.byte	-112
 2886 00a7 33       		.byte	51
 2887 00a8 73       		.byte	115
 2888 00a9 67       		.byte	103
 2889 00aa F6       		.byte	-10
 2890 00ab F3       		.byte	-13
 2891 00ac 9D       		.byte	-99
 2892 00ad 7F       		.byte	127
 2893 00ae BF       		.byte	-65
 2894 00af E2       		.byte	-30
 2895 00b0 52       		.byte	82
 2896 00b1 9B       		.byte	-101
 2897 00b2 D8       		.byte	-40
 2898 00b3 26       		.byte	38
 2899 00b4 C8       		.byte	-56
 2900 00b5 37       		.byte	55
 2901 00b6 C6       		.byte	-58
 2902 00b7 3B       		.byte	59
 2903 00b8 81       		.byte	-127
 2904 00b9 96       		.byte	-106
 2905 00ba 6F       		.byte	111
 2906 00bb 4B       		.byte	75
 2907 00bc 13       		.byte	19
 2908 00bd BE       		.byte	-66
 2909 00be 63       		.byte	99
ARM GAS  C:\Users\Phuong\AppData\Local\Temp\ccZ7UQ35.s 			page 72


 2910 00bf 2E       		.byte	46
 2911 00c0 E9       		.byte	-23
 2912 00c1 79       		.byte	121
 2913 00c2 A7       		.byte	-89
 2914 00c3 8C       		.byte	-116
 2915 00c4 9F       		.byte	-97
 2916 00c5 6E       		.byte	110
 2917 00c6 BC       		.byte	-68
 2918 00c7 8E       		.byte	-114
 2919 00c8 29       		.byte	41
 2920 00c9 F5       		.byte	-11
 2921 00ca F9       		.byte	-7
 2922 00cb B6       		.byte	-74
 2923 00cc 2F       		.byte	47
 2924 00cd FD       		.byte	-3
 2925 00ce B4       		.byte	-76
 2926 00cf 59       		.byte	89
 2927 00d0 78       		.byte	120
 2928 00d1 98       		.byte	-104
 2929 00d2 06       		.byte	6
 2930 00d3 6A       		.byte	106
 2931 00d4 E7       		.byte	-25
 2932 00d5 46       		.byte	70
 2933 00d6 71       		.byte	113
 2934 00d7 BA       		.byte	-70
 2935 00d8 D4       		.byte	-44
 2936 00d9 25       		.byte	37
 2937 00da AB       		.byte	-85
 2938 00db 42       		.byte	66
 2939 00dc 88       		.byte	-120
 2940 00dd A2       		.byte	-94
 2941 00de 8D       		.byte	-115
 2942 00df FA       		.byte	-6
 2943 00e0 72       		.byte	114
 2944 00e1 07       		.byte	7
 2945 00e2 B9       		.byte	-71
 2946 00e3 55       		.byte	85
 2947 00e4 F8       		.byte	-8
 2948 00e5 EE       		.byte	-18
 2949 00e6 AC       		.byte	-84
 2950 00e7 0A       		.byte	10
 2951 00e8 36       		.byte	54
 2952 00e9 49       		.byte	73
 2953 00ea 2A       		.byte	42
 2954 00eb 68       		.byte	104
 2955 00ec 3C       		.byte	60
 2956 00ed 38       		.byte	56
 2957 00ee F1       		.byte	-15
 2958 00ef A4       		.byte	-92
 2959 00f0 40       		.byte	64
 2960 00f1 28       		.byte	40
 2961 00f2 D3       		.byte	-45
 2962 00f3 7B       		.byte	123
 2963 00f4 BB       		.byte	-69
 2964 00f5 C9       		.byte	-55
 2965 00f6 43       		.byte	67
 2966 00f7 C1       		.byte	-63
ARM GAS  C:\Users\Phuong\AppData\Local\Temp\ccZ7UQ35.s 			page 73


 2967 00f8 15       		.byte	21
 2968 00f9 E3       		.byte	-29
 2969 00fa AD       		.byte	-83
 2970 00fb F4       		.byte	-12
 2971 00fc 77       		.byte	119
 2972 00fd C7       		.byte	-57
 2973 00fe 80       		.byte	-128
 2974 00ff 9E       		.byte	-98
 2975              		.type	FSb2, %object
 2976              		.size	FSb2, 256
 2977              	FSb2:
 2978 0100 E0       		.byte	-32
 2979 0101 05       		.byte	5
 2980 0102 58       		.byte	88
 2981 0103 D9       		.byte	-39
 2982 0104 67       		.byte	103
 2983 0105 4E       		.byte	78
 2984 0106 81       		.byte	-127
 2985 0107 CB       		.byte	-53
 2986 0108 C9       		.byte	-55
 2987 0109 0B       		.byte	11
 2988 010a AE       		.byte	-82
 2989 010b 6A       		.byte	106
 2990 010c D5       		.byte	-43
 2991 010d 18       		.byte	24
 2992 010e 5D       		.byte	93
 2993 010f 82       		.byte	-126
 2994 0110 46       		.byte	70
 2995 0111 DF       		.byte	-33
 2996 0112 D6       		.byte	-42
 2997 0113 27       		.byte	39
 2998 0114 8A       		.byte	-118
 2999 0115 32       		.byte	50
 3000 0116 4B       		.byte	75
 3001 0117 42       		.byte	66
 3002 0118 DB       		.byte	-37
 3003 0119 1C       		.byte	28
 3004 011a 9E       		.byte	-98
 3005 011b 9C       		.byte	-100
 3006 011c 3A       		.byte	58
 3007 011d CA       		.byte	-54
 3008 011e 25       		.byte	37
 3009 011f 7B       		.byte	123
 3010 0120 0D       		.byte	13
 3011 0121 71       		.byte	113
 3012 0122 5F       		.byte	95
 3013 0123 1F       		.byte	31
 3014 0124 F8       		.byte	-8
 3015 0125 D7       		.byte	-41
 3016 0126 3E       		.byte	62
 3017 0127 9D       		.byte	-99
 3018 0128 7C       		.byte	124
 3019 0129 60       		.byte	96
 3020 012a B9       		.byte	-71
 3021 012b BE       		.byte	-66
 3022 012c BC       		.byte	-68
 3023 012d 8B       		.byte	-117
ARM GAS  C:\Users\Phuong\AppData\Local\Temp\ccZ7UQ35.s 			page 74


 3024 012e 16       		.byte	22
 3025 012f 34       		.byte	52
 3026 0130 4D       		.byte	77
 3027 0131 C3       		.byte	-61
 3028 0132 72       		.byte	114
 3029 0133 95       		.byte	-107
 3030 0134 AB       		.byte	-85
 3031 0135 8E       		.byte	-114
 3032 0136 BA       		.byte	-70
 3033 0137 7A       		.byte	122
 3034 0138 B3       		.byte	-77
 3035 0139 02       		.byte	2
 3036 013a B4       		.byte	-76
 3037 013b AD       		.byte	-83
 3038 013c A2       		.byte	-94
 3039 013d AC       		.byte	-84
 3040 013e D8       		.byte	-40
 3041 013f 9A       		.byte	-102
 3042 0140 17       		.byte	23
 3043 0141 1A       		.byte	26
 3044 0142 35       		.byte	53
 3045 0143 CC       		.byte	-52
 3046 0144 F7       		.byte	-9
 3047 0145 99       		.byte	-103
 3048 0146 61       		.byte	97
 3049 0147 5A       		.byte	90
 3050 0148 E8       		.byte	-24
 3051 0149 24       		.byte	36
 3052 014a 56       		.byte	86
 3053 014b 40       		.byte	64
 3054 014c E1       		.byte	-31
 3055 014d 63       		.byte	99
 3056 014e 09       		.byte	9
 3057 014f 33       		.byte	51
 3058 0150 BF       		.byte	-65
 3059 0151 98       		.byte	-104
 3060 0152 97       		.byte	-105
 3061 0153 85       		.byte	-123
 3062 0154 68       		.byte	104
 3063 0155 FC       		.byte	-4
 3064 0156 EC       		.byte	-20
 3065 0157 0A       		.byte	10
 3066 0158 DA       		.byte	-38
 3067 0159 6F       		.byte	111
 3068 015a 53       		.byte	83
 3069 015b 62       		.byte	98
 3070 015c A3       		.byte	-93
 3071 015d 2E       		.byte	46
 3072 015e 08       		.byte	8
 3073 015f AF       		.byte	-81
 3074 0160 28       		.byte	40
 3075 0161 B0       		.byte	-80
 3076 0162 74       		.byte	116
 3077 0163 C2       		.byte	-62
 3078 0164 BD       		.byte	-67
 3079 0165 36       		.byte	54
 3080 0166 22       		.byte	34
ARM GAS  C:\Users\Phuong\AppData\Local\Temp\ccZ7UQ35.s 			page 75


 3081 0167 38       		.byte	56
 3082 0168 64       		.byte	100
 3083 0169 1E       		.byte	30
 3084 016a 39       		.byte	57
 3085 016b 2C       		.byte	44
 3086 016c A6       		.byte	-90
 3087 016d 30       		.byte	48
 3088 016e E5       		.byte	-27
 3089 016f 44       		.byte	68
 3090 0170 FD       		.byte	-3
 3091 0171 88       		.byte	-120
 3092 0172 9F       		.byte	-97
 3093 0173 65       		.byte	101
 3094 0174 87       		.byte	-121
 3095 0175 6B       		.byte	107
 3096 0176 F4       		.byte	-12
 3097 0177 23       		.byte	35
 3098 0178 48       		.byte	72
 3099 0179 10       		.byte	16
 3100 017a D1       		.byte	-47
 3101 017b 51       		.byte	81
 3102 017c C0       		.byte	-64
 3103 017d F9       		.byte	-7
 3104 017e D2       		.byte	-46
 3105 017f A0       		.byte	-96
 3106 0180 55       		.byte	85
 3107 0181 A1       		.byte	-95
 3108 0182 41       		.byte	65
 3109 0183 FA       		.byte	-6
 3110 0184 43       		.byte	67
 3111 0185 13       		.byte	19
 3112 0186 C4       		.byte	-60
 3113 0187 2F       		.byte	47
 3114 0188 A8       		.byte	-88
 3115 0189 B6       		.byte	-74
 3116 018a 3C       		.byte	60
 3117 018b 2B       		.byte	43
 3118 018c C1       		.byte	-63
 3119 018d FF       		.byte	-1
 3120 018e C8       		.byte	-56
 3121 018f A5       		.byte	-91
 3122 0190 20       		.byte	32
 3123 0191 89       		.byte	-119
 3124 0192 00       		.byte	0
 3125 0193 90       		.byte	-112
 3126 0194 47       		.byte	71
 3127 0195 EF       		.byte	-17
 3128 0196 EA       		.byte	-22
 3129 0197 B7       		.byte	-73
 3130 0198 15       		.byte	21
 3131 0199 06       		.byte	6
 3132 019a CD       		.byte	-51
 3133 019b B5       		.byte	-75
 3134 019c 12       		.byte	18
 3135 019d 7E       		.byte	126
 3136 019e BB       		.byte	-69
 3137 019f 29       		.byte	41
ARM GAS  C:\Users\Phuong\AppData\Local\Temp\ccZ7UQ35.s 			page 76


 3138 01a0 0F       		.byte	15
 3139 01a1 B8       		.byte	-72
 3140 01a2 07       		.byte	7
 3141 01a3 04       		.byte	4
 3142 01a4 9B       		.byte	-101
 3143 01a5 94       		.byte	-108
 3144 01a6 21       		.byte	33
 3145 01a7 66       		.byte	102
 3146 01a8 E6       		.byte	-26
 3147 01a9 CE       		.byte	-50
 3148 01aa ED       		.byte	-19
 3149 01ab E7       		.byte	-25
 3150 01ac 3B       		.byte	59
 3151 01ad FE       		.byte	-2
 3152 01ae 7F       		.byte	127
 3153 01af C5       		.byte	-59
 3154 01b0 A4       		.byte	-92
 3155 01b1 37       		.byte	55
 3156 01b2 B1       		.byte	-79
 3157 01b3 4C       		.byte	76
 3158 01b4 91       		.byte	-111
 3159 01b5 6E       		.byte	110
 3160 01b6 8D       		.byte	-115
 3161 01b7 76       		.byte	118
 3162 01b8 03       		.byte	3
 3163 01b9 2D       		.byte	45
 3164 01ba DE       		.byte	-34
 3165 01bb 96       		.byte	-106
 3166 01bc 26       		.byte	38
 3167 01bd 7D       		.byte	125
 3168 01be C6       		.byte	-58
 3169 01bf 5C       		.byte	92
 3170 01c0 D3       		.byte	-45
 3171 01c1 F2       		.byte	-14
 3172 01c2 4F       		.byte	79
 3173 01c3 19       		.byte	25
 3174 01c4 3F       		.byte	63
 3175 01c5 DC       		.byte	-36
 3176 01c6 79       		.byte	121
 3177 01c7 1D       		.byte	29
 3178 01c8 52       		.byte	82
 3179 01c9 EB       		.byte	-21
 3180 01ca F3       		.byte	-13
 3181 01cb 6D       		.byte	109
 3182 01cc 5E       		.byte	94
 3183 01cd FB       		.byte	-5
 3184 01ce 69       		.byte	105
 3185 01cf B2       		.byte	-78
 3186 01d0 F0       		.byte	-16
 3187 01d1 31       		.byte	49
 3188 01d2 0C       		.byte	12
 3189 01d3 D4       		.byte	-44
 3190 01d4 CF       		.byte	-49
 3191 01d5 8C       		.byte	-116
 3192 01d6 E2       		.byte	-30
 3193 01d7 75       		.byte	117
 3194 01d8 A9       		.byte	-87
ARM GAS  C:\Users\Phuong\AppData\Local\Temp\ccZ7UQ35.s 			page 77


 3195 01d9 4A       		.byte	74
 3196 01da 57       		.byte	87
 3197 01db 84       		.byte	-124
 3198 01dc 11       		.byte	17
 3199 01dd 45       		.byte	69
 3200 01de 1B       		.byte	27
 3201 01df F5       		.byte	-11
 3202 01e0 E4       		.byte	-28
 3203 01e1 0E       		.byte	14
 3204 01e2 73       		.byte	115
 3205 01e3 AA       		.byte	-86
 3206 01e4 F1       		.byte	-15
 3207 01e5 DD       		.byte	-35
 3208 01e6 59       		.byte	89
 3209 01e7 14       		.byte	20
 3210 01e8 6C       		.byte	108
 3211 01e9 92       		.byte	-110
 3212 01ea 54       		.byte	84
 3213 01eb D0       		.byte	-48
 3214 01ec 78       		.byte	120
 3215 01ed 70       		.byte	112
 3216 01ee E3       		.byte	-29
 3217 01ef 49       		.byte	73
 3218 01f0 80       		.byte	-128
 3219 01f1 50       		.byte	80
 3220 01f2 A7       		.byte	-89
 3221 01f3 F6       		.byte	-10
 3222 01f4 77       		.byte	119
 3223 01f5 93       		.byte	-109
 3224 01f6 86       		.byte	-122
 3225 01f7 83       		.byte	-125
 3226 01f8 2A       		.byte	42
 3227 01f9 C7       		.byte	-57
 3228 01fa 5B       		.byte	91
 3229 01fb E9       		.byte	-23
 3230 01fc EE       		.byte	-18
 3231 01fd 8F       		.byte	-113
 3232 01fe 01       		.byte	1
 3233 01ff 3D       		.byte	61
 3234              		.type	FSb3, %object
 3235              		.size	FSb3, 256
 3236              	FSb3:
 3237 0200 38       		.byte	56
 3238 0201 41       		.byte	65
 3239 0202 16       		.byte	22
 3240 0203 76       		.byte	118
 3241 0204 D9       		.byte	-39
 3242 0205 93       		.byte	-109
 3243 0206 60       		.byte	96
 3244 0207 F2       		.byte	-14
 3245 0208 72       		.byte	114
 3246 0209 C2       		.byte	-62
 3247 020a AB       		.byte	-85
 3248 020b 9A       		.byte	-102
 3249 020c 75       		.byte	117
 3250 020d 06       		.byte	6
 3251 020e 57       		.byte	87
ARM GAS  C:\Users\Phuong\AppData\Local\Temp\ccZ7UQ35.s 			page 78


 3252 020f A0       		.byte	-96
 3253 0210 91       		.byte	-111
 3254 0211 F7       		.byte	-9
 3255 0212 B5       		.byte	-75
 3256 0213 C9       		.byte	-55
 3257 0214 A2       		.byte	-94
 3258 0215 8C       		.byte	-116
 3259 0216 D2       		.byte	-46
 3260 0217 90       		.byte	-112
 3261 0218 F6       		.byte	-10
 3262 0219 07       		.byte	7
 3263 021a A7       		.byte	-89
 3264 021b 27       		.byte	39
 3265 021c 8E       		.byte	-114
 3266 021d B2       		.byte	-78
 3267 021e 49       		.byte	73
 3268 021f DE       		.byte	-34
 3269 0220 43       		.byte	67
 3270 0221 5C       		.byte	92
 3271 0222 D7       		.byte	-41
 3272 0223 C7       		.byte	-57
 3273 0224 3E       		.byte	62
 3274 0225 F5       		.byte	-11
 3275 0226 8F       		.byte	-113
 3276 0227 67       		.byte	103
 3277 0228 1F       		.byte	31
 3278 0229 18       		.byte	24
 3279 022a 6E       		.byte	110
 3280 022b AF       		.byte	-81
 3281 022c 2F       		.byte	47
 3282 022d E2       		.byte	-30
 3283 022e 85       		.byte	-123
 3284 022f 0D       		.byte	13
 3285 0230 53       		.byte	83
 3286 0231 F0       		.byte	-16
 3287 0232 9C       		.byte	-100
 3288 0233 65       		.byte	101
 3289 0234 EA       		.byte	-22
 3290 0235 A3       		.byte	-93
 3291 0236 AE       		.byte	-82
 3292 0237 9E       		.byte	-98
 3293 0238 EC       		.byte	-20
 3294 0239 80       		.byte	-128
 3295 023a 2D       		.byte	45
 3296 023b 6B       		.byte	107
 3297 023c A8       		.byte	-88
 3298 023d 2B       		.byte	43
 3299 023e 36       		.byte	54
 3300 023f A6       		.byte	-90
 3301 0240 C5       		.byte	-59
 3302 0241 86       		.byte	-122
 3303 0242 4D       		.byte	77
 3304 0243 33       		.byte	51
 3305 0244 FD       		.byte	-3
 3306 0245 66       		.byte	102
 3307 0246 58       		.byte	88
 3308 0247 96       		.byte	-106
ARM GAS  C:\Users\Phuong\AppData\Local\Temp\ccZ7UQ35.s 			page 79


 3309 0248 3A       		.byte	58
 3310 0249 09       		.byte	9
 3311 024a 95       		.byte	-107
 3312 024b 10       		.byte	16
 3313 024c 78       		.byte	120
 3314 024d D8       		.byte	-40
 3315 024e 42       		.byte	66
 3316 024f CC       		.byte	-52
 3317 0250 EF       		.byte	-17
 3318 0251 26       		.byte	38
 3319 0252 E5       		.byte	-27
 3320 0253 61       		.byte	97
 3321 0254 1A       		.byte	26
 3322 0255 3F       		.byte	63
 3323 0256 3B       		.byte	59
 3324 0257 82       		.byte	-126
 3325 0258 B6       		.byte	-74
 3326 0259 DB       		.byte	-37
 3327 025a D4       		.byte	-44
 3328 025b 98       		.byte	-104
 3329 025c E8       		.byte	-24
 3330 025d 8B       		.byte	-117
 3331 025e 02       		.byte	2
 3332 025f EB       		.byte	-21
 3333 0260 0A       		.byte	10
 3334 0261 2C       		.byte	44
 3335 0262 1D       		.byte	29
 3336 0263 B0       		.byte	-80
 3337 0264 6F       		.byte	111
 3338 0265 8D       		.byte	-115
 3339 0266 88       		.byte	-120
 3340 0267 0E       		.byte	14
 3341 0268 19       		.byte	25
 3342 0269 87       		.byte	-121
 3343 026a 4E       		.byte	78
 3344 026b 0B       		.byte	11
 3345 026c A9       		.byte	-87
 3346 026d 0C       		.byte	12
 3347 026e 79       		.byte	121
 3348 026f 11       		.byte	17
 3349 0270 7F       		.byte	127
 3350 0271 22       		.byte	34
 3351 0272 E7       		.byte	-25
 3352 0273 59       		.byte	89
 3353 0274 E1       		.byte	-31
 3354 0275 DA       		.byte	-38
 3355 0276 3D       		.byte	61
 3356 0277 C8       		.byte	-56
 3357 0278 12       		.byte	18
 3358 0279 04       		.byte	4
 3359 027a 74       		.byte	116
 3360 027b 54       		.byte	84
 3361 027c 30       		.byte	48
 3362 027d 7E       		.byte	126
 3363 027e B4       		.byte	-76
 3364 027f 28       		.byte	40
 3365 0280 55       		.byte	85
ARM GAS  C:\Users\Phuong\AppData\Local\Temp\ccZ7UQ35.s 			page 80


 3366 0281 68       		.byte	104
 3367 0282 50       		.byte	80
 3368 0283 BE       		.byte	-66
 3369 0284 D0       		.byte	-48
 3370 0285 C4       		.byte	-60
 3371 0286 31       		.byte	49
 3372 0287 CB       		.byte	-53
 3373 0288 2A       		.byte	42
 3374 0289 AD       		.byte	-83
 3375 028a 0F       		.byte	15
 3376 028b CA       		.byte	-54
 3377 028c 70       		.byte	112
 3378 028d FF       		.byte	-1
 3379 028e 32       		.byte	50
 3380 028f 69       		.byte	105
 3381 0290 08       		.byte	8
 3382 0291 62       		.byte	98
 3383 0292 00       		.byte	0
 3384 0293 24       		.byte	36
 3385 0294 D1       		.byte	-47
 3386 0295 FB       		.byte	-5
 3387 0296 BA       		.byte	-70
 3388 0297 ED       		.byte	-19
 3389 0298 45       		.byte	69
 3390 0299 81       		.byte	-127
 3391 029a 73       		.byte	115
 3392 029b 6D       		.byte	109
 3393 029c 84       		.byte	-124
 3394 029d 9F       		.byte	-97
 3395 029e EE       		.byte	-18
 3396 029f 4A       		.byte	74
 3397 02a0 C3       		.byte	-61
 3398 02a1 2E       		.byte	46
 3399 02a2 C1       		.byte	-63
 3400 02a3 01       		.byte	1
 3401 02a4 E6       		.byte	-26
 3402 02a5 25       		.byte	37
 3403 02a6 48       		.byte	72
 3404 02a7 99       		.byte	-103
 3405 02a8 B9       		.byte	-71
 3406 02a9 B3       		.byte	-77
 3407 02aa 7B       		.byte	123
 3408 02ab F9       		.byte	-7
 3409 02ac CE       		.byte	-50
 3410 02ad BF       		.byte	-65
 3411 02ae DF       		.byte	-33
 3412 02af 71       		.byte	113
 3413 02b0 29       		.byte	41
 3414 02b1 CD       		.byte	-51
 3415 02b2 6C       		.byte	108
 3416 02b3 13       		.byte	19
 3417 02b4 64       		.byte	100
 3418 02b5 9B       		.byte	-101
 3419 02b6 63       		.byte	99
 3420 02b7 9D       		.byte	-99
 3421 02b8 C0       		.byte	-64
 3422 02b9 4B       		.byte	75
ARM GAS  C:\Users\Phuong\AppData\Local\Temp\ccZ7UQ35.s 			page 81


 3423 02ba B7       		.byte	-73
 3424 02bb A5       		.byte	-91
 3425 02bc 89       		.byte	-119
 3426 02bd 5F       		.byte	95
 3427 02be B1       		.byte	-79
 3428 02bf 17       		.byte	23
 3429 02c0 F4       		.byte	-12
 3430 02c1 BC       		.byte	-68
 3431 02c2 D3       		.byte	-45
 3432 02c3 46       		.byte	70
 3433 02c4 CF       		.byte	-49
 3434 02c5 37       		.byte	55
 3435 02c6 5E       		.byte	94
 3436 02c7 47       		.byte	71
 3437 02c8 94       		.byte	-108
 3438 02c9 FA       		.byte	-6
 3439 02ca FC       		.byte	-4
 3440 02cb 5B       		.byte	91
 3441 02cc 97       		.byte	-105
 3442 02cd FE       		.byte	-2
 3443 02ce 5A       		.byte	90
 3444 02cf AC       		.byte	-84
 3445 02d0 3C       		.byte	60
 3446 02d1 4C       		.byte	76
 3447 02d2 03       		.byte	3
 3448 02d3 35       		.byte	53
 3449 02d4 F3       		.byte	-13
 3450 02d5 23       		.byte	35
 3451 02d6 B8       		.byte	-72
 3452 02d7 5D       		.byte	93
 3453 02d8 6A       		.byte	106
 3454 02d9 92       		.byte	-110
 3455 02da D5       		.byte	-43
 3456 02db 21       		.byte	33
 3457 02dc 44       		.byte	68
 3458 02dd 51       		.byte	81
 3459 02de C6       		.byte	-58
 3460 02df 7D       		.byte	125
 3461 02e0 39       		.byte	57
 3462 02e1 83       		.byte	-125
 3463 02e2 DC       		.byte	-36
 3464 02e3 AA       		.byte	-86
 3465 02e4 7C       		.byte	124
 3466 02e5 77       		.byte	119
 3467 02e6 56       		.byte	86
 3468 02e7 05       		.byte	5
 3469 02e8 1B       		.byte	27
 3470 02e9 A4       		.byte	-92
 3471 02ea 15       		.byte	21
 3472 02eb 34       		.byte	52
 3473 02ec 1E       		.byte	30
 3474 02ed 1C       		.byte	28
 3475 02ee F8       		.byte	-8
 3476 02ef 52       		.byte	82
 3477 02f0 20       		.byte	32
 3478 02f1 14       		.byte	20
 3479 02f2 E9       		.byte	-23
ARM GAS  C:\Users\Phuong\AppData\Local\Temp\ccZ7UQ35.s 			page 82


 3480 02f3 BD       		.byte	-67
 3481 02f4 DD       		.byte	-35
 3482 02f5 E4       		.byte	-28
 3483 02f6 A1       		.byte	-95
 3484 02f7 E0       		.byte	-32
 3485 02f8 8A       		.byte	-118
 3486 02f9 F1       		.byte	-15
 3487 02fa D6       		.byte	-42
 3488 02fb 7A       		.byte	122
 3489 02fc BB       		.byte	-69
 3490 02fd E3       		.byte	-29
 3491 02fe 40       		.byte	64
 3492 02ff 4F       		.byte	79
 3493              		.type	FSb4, %object
 3494              		.size	FSb4, 256
 3495              	FSb4:
 3496 0300 70       		.byte	112
 3497 0301 2C       		.byte	44
 3498 0302 B3       		.byte	-77
 3499 0303 C0       		.byte	-64
 3500 0304 E4       		.byte	-28
 3501 0305 57       		.byte	87
 3502 0306 EA       		.byte	-22
 3503 0307 AE       		.byte	-82
 3504 0308 23       		.byte	35
 3505 0309 6B       		.byte	107
 3506 030a 45       		.byte	69
 3507 030b A5       		.byte	-91
 3508 030c ED       		.byte	-19
 3509 030d 4F       		.byte	79
 3510 030e 1D       		.byte	29
 3511 030f 92       		.byte	-110
 3512 0310 86       		.byte	-122
 3513 0311 AF       		.byte	-81
 3514 0312 7C       		.byte	124
 3515 0313 1F       		.byte	31
 3516 0314 3E       		.byte	62
 3517 0315 DC       		.byte	-36
 3518 0316 5E       		.byte	94
 3519 0317 0B       		.byte	11
 3520 0318 A6       		.byte	-90
 3521 0319 39       		.byte	57
 3522 031a D5       		.byte	-43
 3523 031b 5D       		.byte	93
 3524 031c D9       		.byte	-39
 3525 031d 5A       		.byte	90
 3526 031e 51       		.byte	81
 3527 031f 6C       		.byte	108
 3528 0320 8B       		.byte	-117
 3529 0321 9A       		.byte	-102
 3530 0322 FB       		.byte	-5
 3531 0323 B0       		.byte	-80
 3532 0324 74       		.byte	116
 3533 0325 2B       		.byte	43
 3534 0326 F0       		.byte	-16
 3535 0327 84       		.byte	-124
 3536 0328 DF       		.byte	-33
ARM GAS  C:\Users\Phuong\AppData\Local\Temp\ccZ7UQ35.s 			page 83


 3537 0329 CB       		.byte	-53
 3538 032a 34       		.byte	52
 3539 032b 76       		.byte	118
 3540 032c 6D       		.byte	109
 3541 032d A9       		.byte	-87
 3542 032e D1       		.byte	-47
 3543 032f 04       		.byte	4
 3544 0330 14       		.byte	20
 3545 0331 3A       		.byte	58
 3546 0332 DE       		.byte	-34
 3547 0333 11       		.byte	17
 3548 0334 32       		.byte	50
 3549 0335 9C       		.byte	-100
 3550 0336 53       		.byte	83
 3551 0337 F2       		.byte	-14
 3552 0338 FE       		.byte	-2
 3553 0339 CF       		.byte	-49
 3554 033a C3       		.byte	-61
 3555 033b 7A       		.byte	122
 3556 033c 24       		.byte	36
 3557 033d E8       		.byte	-24
 3558 033e 60       		.byte	96
 3559 033f 69       		.byte	105
 3560 0340 AA       		.byte	-86
 3561 0341 A0       		.byte	-96
 3562 0342 A1       		.byte	-95
 3563 0343 62       		.byte	98
 3564 0344 54       		.byte	84
 3565 0345 1E       		.byte	30
 3566 0346 E0       		.byte	-32
 3567 0347 64       		.byte	100
 3568 0348 10       		.byte	16
 3569 0349 00       		.byte	0
 3570 034a A3       		.byte	-93
 3571 034b 75       		.byte	117
 3572 034c 8A       		.byte	-118
 3573 034d E6       		.byte	-26
 3574 034e 09       		.byte	9
 3575 034f DD       		.byte	-35
 3576 0350 87       		.byte	-121
 3577 0351 83       		.byte	-125
 3578 0352 CD       		.byte	-51
 3579 0353 90       		.byte	-112
 3580 0354 73       		.byte	115
 3581 0355 F6       		.byte	-10
 3582 0356 9D       		.byte	-99
 3583 0357 BF       		.byte	-65
 3584 0358 52       		.byte	82
 3585 0359 D8       		.byte	-40
 3586 035a C8       		.byte	-56
 3587 035b C6       		.byte	-58
 3588 035c 81       		.byte	-127
 3589 035d 6F       		.byte	111
 3590 035e 13       		.byte	19
 3591 035f 63       		.byte	99
 3592 0360 E9       		.byte	-23
 3593 0361 A7       		.byte	-89
ARM GAS  C:\Users\Phuong\AppData\Local\Temp\ccZ7UQ35.s 			page 84


 3594 0362 9F       		.byte	-97
 3595 0363 BC       		.byte	-68
 3596 0364 29       		.byte	41
 3597 0365 F9       		.byte	-7
 3598 0366 2F       		.byte	47
 3599 0367 B4       		.byte	-76
 3600 0368 78       		.byte	120
 3601 0369 06       		.byte	6
 3602 036a E7       		.byte	-25
 3603 036b 71       		.byte	113
 3604 036c D4       		.byte	-44
 3605 036d AB       		.byte	-85
 3606 036e 88       		.byte	-120
 3607 036f 8D       		.byte	-115
 3608 0370 72       		.byte	114
 3609 0371 B9       		.byte	-71
 3610 0372 F8       		.byte	-8
 3611 0373 AC       		.byte	-84
 3612 0374 36       		.byte	54
 3613 0375 2A       		.byte	42
 3614 0376 3C       		.byte	60
 3615 0377 F1       		.byte	-15
 3616 0378 40       		.byte	64
 3617 0379 D3       		.byte	-45
 3618 037a BB       		.byte	-69
 3619 037b 43       		.byte	67
 3620 037c 15       		.byte	21
 3621 037d AD       		.byte	-83
 3622 037e 77       		.byte	119
 3623 037f 80       		.byte	-128
 3624 0380 82       		.byte	-126
 3625 0381 EC       		.byte	-20
 3626 0382 27       		.byte	39
 3627 0383 E5       		.byte	-27
 3628 0384 85       		.byte	-123
 3629 0385 35       		.byte	53
 3630 0386 0C       		.byte	12
 3631 0387 41       		.byte	65
 3632 0388 EF       		.byte	-17
 3633 0389 93       		.byte	-109
 3634 038a 19       		.byte	25
 3635 038b 21       		.byte	33
 3636 038c 0E       		.byte	14
 3637 038d 4E       		.byte	78
 3638 038e 65       		.byte	101
 3639 038f BD       		.byte	-67
 3640 0390 B8       		.byte	-72
 3641 0391 8F       		.byte	-113
 3642 0392 EB       		.byte	-21
 3643 0393 CE       		.byte	-50
 3644 0394 30       		.byte	48
 3645 0395 5F       		.byte	95
 3646 0396 C5       		.byte	-59
 3647 0397 1A       		.byte	26
 3648 0398 E1       		.byte	-31
 3649 0399 CA       		.byte	-54
 3650 039a 47       		.byte	71
ARM GAS  C:\Users\Phuong\AppData\Local\Temp\ccZ7UQ35.s 			page 85


 3651 039b 3D       		.byte	61
 3652 039c 01       		.byte	1
 3653 039d D6       		.byte	-42
 3654 039e 56       		.byte	86
 3655 039f 4D       		.byte	77
 3656 03a0 0D       		.byte	13
 3657 03a1 66       		.byte	102
 3658 03a2 CC       		.byte	-52
 3659 03a3 2D       		.byte	45
 3660 03a4 12       		.byte	18
 3661 03a5 20       		.byte	32
 3662 03a6 B1       		.byte	-79
 3663 03a7 99       		.byte	-103
 3664 03a8 4C       		.byte	76
 3665 03a9 C2       		.byte	-62
 3666 03aa 7E       		.byte	126
 3667 03ab 05       		.byte	5
 3668 03ac B7       		.byte	-73
 3669 03ad 31       		.byte	49
 3670 03ae 17       		.byte	23
 3671 03af D7       		.byte	-41
 3672 03b0 58       		.byte	88
 3673 03b1 61       		.byte	97
 3674 03b2 1B       		.byte	27
 3675 03b3 1C       		.byte	28
 3676 03b4 0F       		.byte	15
 3677 03b5 16       		.byte	22
 3678 03b6 18       		.byte	24
 3679 03b7 22       		.byte	34
 3680 03b8 44       		.byte	68
 3681 03b9 B2       		.byte	-78
 3682 03ba B5       		.byte	-75
 3683 03bb 91       		.byte	-111
 3684 03bc 08       		.byte	8
 3685 03bd A8       		.byte	-88
 3686 03be FC       		.byte	-4
 3687 03bf 50       		.byte	80
 3688 03c0 D0       		.byte	-48
 3689 03c1 7D       		.byte	125
 3690 03c2 89       		.byte	-119
 3691 03c3 97       		.byte	-105
 3692 03c4 5B       		.byte	91
 3693 03c5 95       		.byte	-107
 3694 03c6 FF       		.byte	-1
 3695 03c7 D2       		.byte	-46
 3696 03c8 C4       		.byte	-60
 3697 03c9 48       		.byte	72
 3698 03ca F7       		.byte	-9
 3699 03cb DB       		.byte	-37
 3700 03cc 03       		.byte	3
 3701 03cd DA       		.byte	-38
 3702 03ce 3F       		.byte	63
 3703 03cf 94       		.byte	-108
 3704 03d0 5C       		.byte	92
 3705 03d1 02       		.byte	2
 3706 03d2 4A       		.byte	74
 3707 03d3 33       		.byte	51
ARM GAS  C:\Users\Phuong\AppData\Local\Temp\ccZ7UQ35.s 			page 86


 3708 03d4 67       		.byte	103
 3709 03d5 F3       		.byte	-13
 3710 03d6 7F       		.byte	127
 3711 03d7 E2       		.byte	-30
 3712 03d8 9B       		.byte	-101
 3713 03d9 26       		.byte	38
 3714 03da 37       		.byte	55
 3715 03db 3B       		.byte	59
 3716 03dc 96       		.byte	-106
 3717 03dd 4B       		.byte	75
 3718 03de BE       		.byte	-66
 3719 03df 2E       		.byte	46
 3720 03e0 79       		.byte	121
 3721 03e1 8C       		.byte	-116
 3722 03e2 6E       		.byte	110
 3723 03e3 8E       		.byte	-114
 3724 03e4 F5       		.byte	-11
 3725 03e5 B6       		.byte	-74
 3726 03e6 FD       		.byte	-3
 3727 03e7 59       		.byte	89
 3728 03e8 98       		.byte	-104
 3729 03e9 6A       		.byte	106
 3730 03ea 46       		.byte	70
 3731 03eb BA       		.byte	-70
 3732 03ec 25       		.byte	37
 3733 03ed 42       		.byte	66
 3734 03ee A2       		.byte	-94
 3735 03ef FA       		.byte	-6
 3736 03f0 07       		.byte	7
 3737 03f1 55       		.byte	85
 3738 03f2 EE       		.byte	-18
 3739 03f3 0A       		.byte	10
 3740 03f4 49       		.byte	73
 3741 03f5 68       		.byte	104
 3742 03f6 38       		.byte	56
 3743 03f7 A4       		.byte	-92
 3744 03f8 28       		.byte	40
 3745 03f9 7B       		.byte	123
 3746 03fa C9       		.byte	-55
 3747 03fb C1       		.byte	-63
 3748 03fc E3       		.byte	-29
 3749 03fd F4       		.byte	-12
 3750 03fe C7       		.byte	-57
 3751 03ff 9E       		.byte	-98
 3752              		.type	SIGMA_CHARS, %object
 3753              		.size	SIGMA_CHARS, 48
 3754              	SIGMA_CHARS:
 3755 0400 A0       		.byte	-96
 3756 0401 9E       		.byte	-98
 3757 0402 66       		.byte	102
 3758 0403 7F       		.byte	127
 3759 0404 3B       		.byte	59
 3760 0405 CC       		.byte	-52
 3761 0406 90       		.byte	-112
 3762 0407 8B       		.byte	-117
 3763 0408 B6       		.byte	-74
 3764 0409 7A       		.byte	122
ARM GAS  C:\Users\Phuong\AppData\Local\Temp\ccZ7UQ35.s 			page 87


 3765 040a E8       		.byte	-24
 3766 040b 58       		.byte	88
 3767 040c 4C       		.byte	76
 3768 040d AA       		.byte	-86
 3769 040e 73       		.byte	115
 3770 040f B2       		.byte	-78
 3771 0410 C6       		.byte	-58
 3772 0411 EF       		.byte	-17
 3773 0412 37       		.byte	55
 3774 0413 2F       		.byte	47
 3775 0414 E9       		.byte	-23
 3776 0415 4F       		.byte	79
 3777 0416 82       		.byte	-126
 3778 0417 BE       		.byte	-66
 3779 0418 54       		.byte	84
 3780 0419 FF       		.byte	-1
 3781 041a 53       		.byte	83
 3782 041b A5       		.byte	-91
 3783 041c F1       		.byte	-15
 3784 041d D3       		.byte	-45
 3785 041e 6F       		.byte	111
 3786 041f 1C       		.byte	28
 3787 0420 10       		.byte	16
 3788 0421 E5       		.byte	-27
 3789 0422 27       		.byte	39
 3790 0423 FA       		.byte	-6
 3791 0424 DE       		.byte	-34
 3792 0425 68       		.byte	104
 3793 0426 2D       		.byte	45
 3794 0427 1D       		.byte	29
 3795 0428 B0       		.byte	-80
 3796 0429 56       		.byte	86
 3797 042a 88       		.byte	-120
 3798 042b C2       		.byte	-62
 3799 042c B3       		.byte	-77
 3800 042d E6       		.byte	-26
 3801 042e C1       		.byte	-63
 3802 042f FD       		.byte	-3
 3803              		.type	shifts, %object
 3804              		.size	shifts, 32
 3805              	shifts:
 3806 0430 01       		.byte	1
 3807 0431 01       		.byte	1
 3808 0432 01       		.byte	1
 3809 0433 01       		.byte	1
 3810 0434 00       		.byte	0
 3811 0435 00       		.byte	0
 3812 0436 00       		.byte	0
 3813 0437 00       		.byte	0
 3814 0438 01       		.byte	1
 3815 0439 01       		.byte	1
 3816 043a 01       		.byte	1
 3817 043b 01       		.byte	1
 3818 043c 00       		.byte	0
 3819 043d 00       		.byte	0
 3820 043e 00       		.byte	0
 3821 043f 00       		.byte	0
ARM GAS  C:\Users\Phuong\AppData\Local\Temp\ccZ7UQ35.s 			page 88


 3822 0440 01       		.byte	1
 3823 0441 00       		.byte	0
 3824 0442 01       		.byte	1
 3825 0443 01       		.byte	1
 3826 0444 01       		.byte	1
 3827 0445 01       		.byte	1
 3828 0446 00       		.byte	0
 3829 0447 01       		.byte	1
 3830 0448 01       		.byte	1
 3831 0449 01       		.byte	1
 3832 044a 01       		.byte	1
 3833 044b 00       		.byte	0
 3834 044c 01       		.byte	1
 3835 044d 01       		.byte	1
 3836 044e 00       		.byte	0
 3837 044f 01       		.byte	1
 3838              		.type	indexes, %object
 3839              		.size	indexes, 160
 3840              	indexes:
 3841 0450 00       		.byte	0
 3842 0451 01       		.byte	1
 3843 0452 02       		.byte	2
 3844 0453 03       		.byte	3
 3845 0454 08       		.byte	8
 3846 0455 09       		.byte	9
 3847 0456 0A       		.byte	10
 3848 0457 0B       		.byte	11
 3849 0458 26       		.byte	38
 3850 0459 27       		.byte	39
 3851 045a 24       		.byte	36
 3852 045b 25       		.byte	37
 3853 045c 17       		.byte	23
 3854 045d 14       		.byte	20
 3855 045e 15       		.byte	21
 3856 045f 16       		.byte	22
 3857 0460 1B       		.byte	27
 3858 0461 FF       		.byte	-1
 3859 0462 FF       		.byte	-1
 3860 0463 1A       		.byte	26
 3861 0464 FF       		.byte	-1
 3862 0465 FF       		.byte	-1
 3863 0466 FF       		.byte	-1
 3864 0467 FF       		.byte	-1
 3865 0468 FF       		.byte	-1
 3866 0469 FF       		.byte	-1
 3867 046a FF       		.byte	-1
 3868 046b FF       		.byte	-1
 3869 046c FF       		.byte	-1
 3870 046d FF       		.byte	-1
 3871 046e FF       		.byte	-1
 3872 046f FF       		.byte	-1
 3873 0470 FF       		.byte	-1
 3874 0471 FF       		.byte	-1
 3875 0472 FF       		.byte	-1
 3876 0473 FF       		.byte	-1
 3877 0474 FF       		.byte	-1
 3878 0475 FF       		.byte	-1
ARM GAS  C:\Users\Phuong\AppData\Local\Temp\ccZ7UQ35.s 			page 89


 3879 0476 FF       		.byte	-1
 3880 0477 FF       		.byte	-1
 3881 0478 04       		.byte	4
 3882 0479 05       		.byte	5
 3883 047a 06       		.byte	6
 3884 047b 07       		.byte	7
 3885 047c 0C       		.byte	12
 3886 047d 0D       		.byte	13
 3887 047e 0E       		.byte	14
 3888 047f 0F       		.byte	15
 3889 0480 10       		.byte	16
 3890 0481 11       		.byte	17
 3891 0482 12       		.byte	18
 3892 0483 13       		.byte	19
 3893 0484 FF       		.byte	-1
 3894 0485 18       		.byte	24
 3895 0486 19       		.byte	25
 3896 0487 FF       		.byte	-1
 3897 0488 1F       		.byte	31
 3898 0489 1C       		.byte	28
 3899 048a 1D       		.byte	29
 3900 048b 1E       		.byte	30
 3901 048c FF       		.byte	-1
 3902 048d FF       		.byte	-1
 3903 048e FF       		.byte	-1
 3904 048f FF       		.byte	-1
 3905 0490 FF       		.byte	-1
 3906 0491 FF       		.byte	-1
 3907 0492 FF       		.byte	-1
 3908 0493 FF       		.byte	-1
 3909 0494 FF       		.byte	-1
 3910 0495 FF       		.byte	-1
 3911 0496 FF       		.byte	-1
 3912 0497 FF       		.byte	-1
 3913 0498 FF       		.byte	-1
 3914 0499 FF       		.byte	-1
 3915 049a FF       		.byte	-1
 3916 049b FF       		.byte	-1
 3917 049c FF       		.byte	-1
 3918 049d FF       		.byte	-1
 3919 049e FF       		.byte	-1
 3920 049f FF       		.byte	-1
 3921 04a0 00       		.byte	0
 3922 04a1 01       		.byte	1
 3923 04a2 02       		.byte	2
 3924 04a3 03       		.byte	3
 3925 04a4 3D       		.byte	61
 3926 04a5 3E       		.byte	62
 3927 04a6 3F       		.byte	63
 3928 04a7 3C       		.byte	60
 3929 04a8 FF       		.byte	-1
 3930 04a9 FF       		.byte	-1
 3931 04aa FF       		.byte	-1
 3932 04ab FF       		.byte	-1
 3933 04ac 1B       		.byte	27
 3934 04ad 18       		.byte	24
 3935 04ae 19       		.byte	25
ARM GAS  C:\Users\Phuong\AppData\Local\Temp\ccZ7UQ35.s 			page 90


 3936 04af 1A       		.byte	26
 3937 04b0 23       		.byte	35
 3938 04b1 20       		.byte	32
 3939 04b2 21       		.byte	33
 3940 04b3 22       		.byte	34
 3941 04b4 FF       		.byte	-1
 3942 04b5 FF       		.byte	-1
 3943 04b6 FF       		.byte	-1
 3944 04b7 FF       		.byte	-1
 3945 04b8 08       		.byte	8
 3946 04b9 09       		.byte	9
 3947 04ba 0A       		.byte	10
 3948 04bb 0B       		.byte	11
 3949 04bc 10       		.byte	16
 3950 04bd 11       		.byte	17
 3951 04be 12       		.byte	18
 3952 04bf 13       		.byte	19
 3953 04c0 FF       		.byte	-1
 3954 04c1 FF       		.byte	-1
 3955 04c2 FF       		.byte	-1
 3956 04c3 FF       		.byte	-1
 3957 04c4 27       		.byte	39
 3958 04c5 24       		.byte	36
 3959 04c6 25       		.byte	37
 3960 04c7 26       		.byte	38
 3961 04c8 FF       		.byte	-1
 3962 04c9 FF       		.byte	-1
 3963 04ca FF       		.byte	-1
 3964 04cb FF       		.byte	-1
 3965 04cc 0C       		.byte	12
 3966 04cd 0D       		.byte	13
 3967 04ce 0E       		.byte	14
 3968 04cf 0F       		.byte	15
 3969 04d0 3A       		.byte	58
 3970 04d1 3B       		.byte	59
 3971 04d2 38       		.byte	56
 3972 04d3 39       		.byte	57
 3973 04d4 1F       		.byte	31
 3974 04d5 1C       		.byte	28
 3975 04d6 1D       		.byte	29
 3976 04d7 1E       		.byte	30
 3977 04d8 FF       		.byte	-1
 3978 04d9 FF       		.byte	-1
 3979 04da FF       		.byte	-1
 3980 04db FF       		.byte	-1
 3981 04dc 04       		.byte	4
 3982 04dd 05       		.byte	5
 3983 04de 06       		.byte	6
 3984 04df 07       		.byte	7
 3985 04e0 41       		.byte	65
 3986 04e1 42       		.byte	66
 3987 04e2 43       		.byte	67
 3988 04e3 40       		.byte	64
 3989 04e4 14       		.byte	20
 3990 04e5 15       		.byte	21
 3991 04e6 16       		.byte	22
 3992 04e7 17       		.byte	23
ARM GAS  C:\Users\Phuong\AppData\Local\Temp\ccZ7UQ35.s 			page 91


 3993 04e8 FF       		.byte	-1
 3994 04e9 FF       		.byte	-1
 3995 04ea FF       		.byte	-1
 3996 04eb FF       		.byte	-1
 3997 04ec 2B       		.byte	43
 3998 04ed 28       		.byte	40
 3999 04ee 29       		.byte	41
 4000 04ef 2A       		.byte	42
 4001              		.type	transposes, %object
 4002              		.size	transposes, 40
 4003              	transposes:
 4004 04f0 15       		.byte	21
 4005 04f1 16       		.byte	22
 4006 04f2 17       		.byte	23
 4007 04f3 14       		.byte	20
 4008 04f4 FF       		.byte	-1
 4009 04f5 FF       		.byte	-1
 4010 04f6 FF       		.byte	-1
 4011 04f7 FF       		.byte	-1
 4012 04f8 12       		.byte	18
 4013 04f9 13       		.byte	19
 4014 04fa 10       		.byte	16
 4015 04fb 11       		.byte	17
 4016 04fc 0B       		.byte	11
 4017 04fd 08       		.byte	8
 4018 04fe 09       		.byte	9
 4019 04ff 0A       		.byte	10
 4020 0500 0F       		.byte	15
 4021 0501 0C       		.byte	12
 4022 0502 0D       		.byte	13
 4023 0503 0E       		.byte	14
 4024 0504 19       		.byte	25
 4025 0505 1A       		.byte	26
 4026 0506 1B       		.byte	27
 4027 0507 18       		.byte	24
 4028 0508 1D       		.byte	29
 4029 0509 1E       		.byte	30
 4030 050a 1F       		.byte	31
 4031 050b 1C       		.byte	28
 4032 050c 12       		.byte	18
 4033 050d 13       		.byte	19
 4034 050e 10       		.byte	16
 4035 050f 11       		.byte	17
 4036 0510 FF       		.byte	-1
 4037 0511 FF       		.byte	-1
 4038 0512 FF       		.byte	-1
 4039 0513 FF       		.byte	-1
 4040 0514 FF       		.byte	-1
 4041 0515 FF       		.byte	-1
 4042 0516 FF       		.byte	-1
 4043 0517 FF       		.byte	-1
 4044              		.type	camellia_test_ecb_key, %object
 4045              		.size	camellia_test_ecb_key, 192
 4046              	camellia_test_ecb_key:
 4047 0518 01       		.byte	1
 4048 0519 23       		.byte	35
 4049 051a 45       		.byte	69
ARM GAS  C:\Users\Phuong\AppData\Local\Temp\ccZ7UQ35.s 			page 92


 4050 051b 67       		.byte	103
 4051 051c 89       		.byte	-119
 4052 051d AB       		.byte	-85
 4053 051e CD       		.byte	-51
 4054 051f EF       		.byte	-17
 4055 0520 FE       		.byte	-2
 4056 0521 DC       		.byte	-36
 4057 0522 BA       		.byte	-70
 4058 0523 98       		.byte	-104
 4059 0524 76       		.byte	118
 4060 0525 54       		.byte	84
 4061 0526 32       		.byte	50
 4062 0527 10       		.byte	16
 4063 0528 00000000 		.space	16
 4063      00000000 
 4063      00000000 
 4063      00000000 
 4064 0538 00       		.byte	0
 4065 0539 00       		.byte	0
 4066 053a 00       		.byte	0
 4067 053b 00       		.byte	0
 4068 053c 00       		.byte	0
 4069 053d 00       		.byte	0
 4070 053e 00       		.byte	0
 4071 053f 00       		.byte	0
 4072 0540 00       		.byte	0
 4073 0541 00       		.byte	0
 4074 0542 00       		.byte	0
 4075 0543 00       		.byte	0
 4076 0544 00       		.byte	0
 4077 0545 00       		.byte	0
 4078 0546 00       		.byte	0
 4079 0547 00       		.byte	0
 4080 0548 00000000 		.space	16
 4080      00000000 
 4080      00000000 
 4080      00000000 
 4081 0558 01       		.byte	1
 4082 0559 23       		.byte	35
 4083 055a 45       		.byte	69
 4084 055b 67       		.byte	103
 4085 055c 89       		.byte	-119
 4086 055d AB       		.byte	-85
 4087 055e CD       		.byte	-51
 4088 055f EF       		.byte	-17
 4089 0560 FE       		.byte	-2
 4090 0561 DC       		.byte	-36
 4091 0562 BA       		.byte	-70
 4092 0563 98       		.byte	-104
 4093 0564 76       		.byte	118
 4094 0565 54       		.byte	84
 4095 0566 32       		.byte	50
 4096 0567 10       		.byte	16
 4097 0568 00       		.byte	0
 4098 0569 11       		.byte	17
 4099 056a 22       		.byte	34
 4100 056b 33       		.byte	51
ARM GAS  C:\Users\Phuong\AppData\Local\Temp\ccZ7UQ35.s 			page 93


 4101 056c 44       		.byte	68
 4102 056d 55       		.byte	85
 4103 056e 66       		.byte	102
 4104 056f 77       		.byte	119
 4105 0570 00000000 		.space	8
 4105      00000000 
 4106 0578 00       		.byte	0
 4107 0579 00       		.byte	0
 4108 057a 00       		.byte	0
 4109 057b 00       		.byte	0
 4110 057c 00       		.byte	0
 4111 057d 00       		.byte	0
 4112 057e 00       		.byte	0
 4113 057f 00       		.byte	0
 4114 0580 00       		.byte	0
 4115 0581 00       		.byte	0
 4116 0582 00       		.byte	0
 4117 0583 00       		.byte	0
 4118 0584 00       		.byte	0
 4119 0585 00       		.byte	0
 4120 0586 00       		.byte	0
 4121 0587 00       		.byte	0
 4122 0588 00       		.byte	0
 4123 0589 00       		.byte	0
 4124 058a 00       		.byte	0
 4125 058b 00       		.byte	0
 4126 058c 00       		.byte	0
 4127 058d 00       		.byte	0
 4128 058e 00       		.byte	0
 4129 058f 00       		.byte	0
 4130 0590 00000000 		.space	8
 4130      00000000 
 4131 0598 01       		.byte	1
 4132 0599 23       		.byte	35
 4133 059a 45       		.byte	69
 4134 059b 67       		.byte	103
 4135 059c 89       		.byte	-119
 4136 059d AB       		.byte	-85
 4137 059e CD       		.byte	-51
 4138 059f EF       		.byte	-17
 4139 05a0 FE       		.byte	-2
 4140 05a1 DC       		.byte	-36
 4141 05a2 BA       		.byte	-70
 4142 05a3 98       		.byte	-104
 4143 05a4 76       		.byte	118
 4144 05a5 54       		.byte	84
 4145 05a6 32       		.byte	50
 4146 05a7 10       		.byte	16
 4147 05a8 00       		.byte	0
 4148 05a9 11       		.byte	17
 4149 05aa 22       		.byte	34
 4150 05ab 33       		.byte	51
 4151 05ac 44       		.byte	68
 4152 05ad 55       		.byte	85
 4153 05ae 66       		.byte	102
 4154 05af 77       		.byte	119
 4155 05b0 88       		.byte	-120
ARM GAS  C:\Users\Phuong\AppData\Local\Temp\ccZ7UQ35.s 			page 94


 4156 05b1 99       		.byte	-103
 4157 05b2 AA       		.byte	-86
 4158 05b3 BB       		.byte	-69
 4159 05b4 CC       		.byte	-52
 4160 05b5 DD       		.byte	-35
 4161 05b6 EE       		.byte	-18
 4162 05b7 FF       		.byte	-1
 4163 05b8 00       		.byte	0
 4164 05b9 00       		.byte	0
 4165 05ba 00       		.byte	0
 4166 05bb 00       		.byte	0
 4167 05bc 00       		.byte	0
 4168 05bd 00       		.byte	0
 4169 05be 00       		.byte	0
 4170 05bf 00       		.byte	0
 4171 05c0 00       		.byte	0
 4172 05c1 00       		.byte	0
 4173 05c2 00       		.byte	0
 4174 05c3 00       		.byte	0
 4175 05c4 00       		.byte	0
 4176 05c5 00       		.byte	0
 4177 05c6 00       		.byte	0
 4178 05c7 00       		.byte	0
 4179 05c8 00       		.byte	0
 4180 05c9 00       		.byte	0
 4181 05ca 00       		.byte	0
 4182 05cb 00       		.byte	0
 4183 05cc 00       		.byte	0
 4184 05cd 00       		.byte	0
 4185 05ce 00       		.byte	0
 4186 05cf 00       		.byte	0
 4187 05d0 00       		.byte	0
 4188 05d1 00       		.byte	0
 4189 05d2 00       		.byte	0
 4190 05d3 00       		.byte	0
 4191 05d4 00       		.byte	0
 4192 05d5 00       		.byte	0
 4193 05d6 00       		.byte	0
 4194 05d7 00       		.byte	0
 4195              		.type	camellia_test_ecb_cipher, %object
 4196              		.size	camellia_test_ecb_cipher, 96
 4197              	camellia_test_ecb_cipher:
 4198 05d8 67       		.byte	103
 4199 05d9 67       		.byte	103
 4200 05da 31       		.byte	49
 4201 05db 38       		.byte	56
 4202 05dc 54       		.byte	84
 4203 05dd 96       		.byte	-106
 4204 05de 69       		.byte	105
 4205 05df 73       		.byte	115
 4206 05e0 08       		.byte	8
 4207 05e1 57       		.byte	87
 4208 05e2 06       		.byte	6
 4209 05e3 56       		.byte	86
 4210 05e4 48       		.byte	72
 4211 05e5 EA       		.byte	-22
 4212 05e6 BE       		.byte	-66
ARM GAS  C:\Users\Phuong\AppData\Local\Temp\ccZ7UQ35.s 			page 95


 4213 05e7 43       		.byte	67
 4214 05e8 38       		.byte	56
 4215 05e9 3C       		.byte	60
 4216 05ea 6C       		.byte	108
