ARM GAS  C:\Users\Phuong\AppData\Local\Temp\ccGVgD3r.s 			page 1


   1              		.syntax unified
   2              		.cpu cortex-m0plus
   3              		.fpu softvfp
   4              		.eabi_attribute 20, 1
   5              		.eabi_attribute 21, 1
   6              		.eabi_attribute 23, 3
   7              		.eabi_attribute 24, 1
   8              		.eabi_attribute 25, 1
   9              		.eabi_attribute 26, 1
  10              		.eabi_attribute 30, 1
  11              		.eabi_attribute 34, 0
  12              		.eabi_attribute 18, 4
  13              		.thumb
  14              		.syntax unified
  15              		.file	"cbs.c"
  16              		.text
  17              	.Ltext0:
  18              		.cfi_sections	.debug_frame
  19              		.section	.text.on_underlying_amqp_management_error,"ax",%progbits
  20              		.align	2
  21              		.code	16
  22              		.thumb_func
  23              		.type	on_underlying_amqp_management_error, %function
  24              	on_underlying_amqp_management_error:
  25              	.LFB3:
  26              		.file 1 "Source\\azure_iot_sdk\\uamqp\\src\\cbs.c"
   1:Source\azure_iot_sdk\uamqp\src/cbs.c **** // Copyright (c) Microsoft. All rights reserved.
   2:Source\azure_iot_sdk\uamqp\src/cbs.c **** // Licensed under the MIT license. See LICENSE file in the project root for full license informatio
   3:Source\azure_iot_sdk\uamqp\src/cbs.c **** 
   4:Source\azure_iot_sdk\uamqp\src/cbs.c **** #include <stdlib.h>
   5:Source\azure_iot_sdk\uamqp\src/cbs.c **** #include <stdbool.h>
   6:Source\azure_iot_sdk\uamqp\src/cbs.c **** #include <stdio.h>
   7:Source\azure_iot_sdk\uamqp\src/cbs.c **** #include <string.h>
   8:Source\azure_iot_sdk\uamqp\src/cbs.c **** #include "azure_c_shared_utility/optimize_size.h"
   9:Source\azure_iot_sdk\uamqp\src/cbs.c **** #include "azure_c_shared_utility/gballoc.h"
  10:Source\azure_iot_sdk\uamqp\src/cbs.c **** #include "azure_c_shared_utility/singlylinkedlist.h"
  11:Source\azure_iot_sdk\uamqp\src/cbs.c **** #include "azure_c_shared_utility/xlogging.h"
  12:Source\azure_iot_sdk\uamqp\src/cbs.c **** #include "azure_uamqp_c/cbs.h"
  13:Source\azure_iot_sdk\uamqp\src/cbs.c **** #include "azure_uamqp_c/amqp_management.h"
  14:Source\azure_iot_sdk\uamqp\src/cbs.c **** #include "azure_uamqp_c/session.h"
  15:Source\azure_iot_sdk\uamqp\src/cbs.c **** 
  16:Source\azure_iot_sdk\uamqp\src/cbs.c **** typedef enum CBS_STATE_TAG
  17:Source\azure_iot_sdk\uamqp\src/cbs.c **** {
  18:Source\azure_iot_sdk\uamqp\src/cbs.c ****     CBS_STATE_CLOSED,
  19:Source\azure_iot_sdk\uamqp\src/cbs.c ****     CBS_STATE_OPENING,
  20:Source\azure_iot_sdk\uamqp\src/cbs.c ****     CBS_STATE_OPEN,
  21:Source\azure_iot_sdk\uamqp\src/cbs.c ****     CBS_STATE_ERROR
  22:Source\azure_iot_sdk\uamqp\src/cbs.c **** } CBS_STATE;
  23:Source\azure_iot_sdk\uamqp\src/cbs.c **** 
  24:Source\azure_iot_sdk\uamqp\src/cbs.c **** typedef struct CBS_OPERATION_TAG
  25:Source\azure_iot_sdk\uamqp\src/cbs.c **** {
  26:Source\azure_iot_sdk\uamqp\src/cbs.c ****     ON_CBS_OPERATION_COMPLETE on_cbs_operation_complete;
  27:Source\azure_iot_sdk\uamqp\src/cbs.c ****     void* on_cbs_operation_complete_context;
  28:Source\azure_iot_sdk\uamqp\src/cbs.c ****     SINGLYLINKEDLIST_HANDLE pending_operations;
  29:Source\azure_iot_sdk\uamqp\src/cbs.c **** } CBS_OPERATION;
  30:Source\azure_iot_sdk\uamqp\src/cbs.c **** 
  31:Source\azure_iot_sdk\uamqp\src/cbs.c **** typedef struct CBS_INSTANCE_TAG
ARM GAS  C:\Users\Phuong\AppData\Local\Temp\ccGVgD3r.s 			page 2


  32:Source\azure_iot_sdk\uamqp\src/cbs.c **** {
  33:Source\azure_iot_sdk\uamqp\src/cbs.c ****     AMQP_MANAGEMENT_HANDLE amqp_management;
  34:Source\azure_iot_sdk\uamqp\src/cbs.c ****     CBS_STATE cbs_state;
  35:Source\azure_iot_sdk\uamqp\src/cbs.c ****     ON_CBS_OPEN_COMPLETE on_cbs_open_complete;
  36:Source\azure_iot_sdk\uamqp\src/cbs.c ****     void* on_cbs_open_complete_context;
  37:Source\azure_iot_sdk\uamqp\src/cbs.c ****     ON_CBS_ERROR on_cbs_error;
  38:Source\azure_iot_sdk\uamqp\src/cbs.c ****     void* on_cbs_error_context;
  39:Source\azure_iot_sdk\uamqp\src/cbs.c ****     SINGLYLINKEDLIST_HANDLE pending_operations;
  40:Source\azure_iot_sdk\uamqp\src/cbs.c **** } CBS_INSTANCE;
  41:Source\azure_iot_sdk\uamqp\src/cbs.c **** 
  42:Source\azure_iot_sdk\uamqp\src/cbs.c **** static int add_string_key_value_pair_to_map(AMQP_VALUE map, const char* key, const char* value)
  43:Source\azure_iot_sdk\uamqp\src/cbs.c **** {
  44:Source\azure_iot_sdk\uamqp\src/cbs.c ****     int result;
  45:Source\azure_iot_sdk\uamqp\src/cbs.c **** 
  46:Source\azure_iot_sdk\uamqp\src/cbs.c ****     AMQP_VALUE key_value = amqpvalue_create_string(key);
  47:Source\azure_iot_sdk\uamqp\src/cbs.c ****     if (key_value == NULL)
  48:Source\azure_iot_sdk\uamqp\src/cbs.c ****     {
  49:Source\azure_iot_sdk\uamqp\src/cbs.c ****         /* Codes_SRS_CBS_01_072: [ If constructing the message fails, `cbs_put_token_async` shall f
  50:Source\azure_iot_sdk\uamqp\src/cbs.c ****         LogError("Failed creating value for property key %s", key);
  51:Source\azure_iot_sdk\uamqp\src/cbs.c ****         result = __FAILURE__;
  52:Source\azure_iot_sdk\uamqp\src/cbs.c ****     }
  53:Source\azure_iot_sdk\uamqp\src/cbs.c ****     else
  54:Source\azure_iot_sdk\uamqp\src/cbs.c ****     {
  55:Source\azure_iot_sdk\uamqp\src/cbs.c ****         AMQP_VALUE value_value = amqpvalue_create_string(value);
  56:Source\azure_iot_sdk\uamqp\src/cbs.c ****         if (value_value == NULL)
  57:Source\azure_iot_sdk\uamqp\src/cbs.c ****         {
  58:Source\azure_iot_sdk\uamqp\src/cbs.c ****             /* Codes_SRS_CBS_01_072: [ If constructing the message fails, `cbs_put_token_async` sha
  59:Source\azure_iot_sdk\uamqp\src/cbs.c ****             LogError("Failed creating value for property value %s", value);
  60:Source\azure_iot_sdk\uamqp\src/cbs.c ****             result = __FAILURE__;
  61:Source\azure_iot_sdk\uamqp\src/cbs.c ****         }
  62:Source\azure_iot_sdk\uamqp\src/cbs.c ****         else
  63:Source\azure_iot_sdk\uamqp\src/cbs.c ****         {
  64:Source\azure_iot_sdk\uamqp\src/cbs.c ****             if (amqpvalue_set_map_value(map, key_value, value_value) != 0)
  65:Source\azure_iot_sdk\uamqp\src/cbs.c ****             {
  66:Source\azure_iot_sdk\uamqp\src/cbs.c ****                 /* Codes_SRS_CBS_01_072: [ If constructing the message fails, `cbs_put_token_async`
  67:Source\azure_iot_sdk\uamqp\src/cbs.c ****                 LogError("Failed inserting key/value pair in the map");
  68:Source\azure_iot_sdk\uamqp\src/cbs.c ****                 result = __FAILURE__;
  69:Source\azure_iot_sdk\uamqp\src/cbs.c ****             }
  70:Source\azure_iot_sdk\uamqp\src/cbs.c ****             else
  71:Source\azure_iot_sdk\uamqp\src/cbs.c ****             {
  72:Source\azure_iot_sdk\uamqp\src/cbs.c ****                 result = 0;
  73:Source\azure_iot_sdk\uamqp\src/cbs.c ****             }
  74:Source\azure_iot_sdk\uamqp\src/cbs.c **** 
  75:Source\azure_iot_sdk\uamqp\src/cbs.c ****             amqpvalue_destroy(value_value);
  76:Source\azure_iot_sdk\uamqp\src/cbs.c ****         }
  77:Source\azure_iot_sdk\uamqp\src/cbs.c **** 
  78:Source\azure_iot_sdk\uamqp\src/cbs.c ****         amqpvalue_destroy(key_value);
  79:Source\azure_iot_sdk\uamqp\src/cbs.c ****     }
  80:Source\azure_iot_sdk\uamqp\src/cbs.c **** 
  81:Source\azure_iot_sdk\uamqp\src/cbs.c ****     return result;
  82:Source\azure_iot_sdk\uamqp\src/cbs.c **** }
  83:Source\azure_iot_sdk\uamqp\src/cbs.c **** 
  84:Source\azure_iot_sdk\uamqp\src/cbs.c **** static void on_underlying_amqp_management_open_complete(void* context, AMQP_MANAGEMENT_OPEN_RESULT 
  85:Source\azure_iot_sdk\uamqp\src/cbs.c **** {
  86:Source\azure_iot_sdk\uamqp\src/cbs.c ****     if (context == NULL)
  87:Source\azure_iot_sdk\uamqp\src/cbs.c ****     {
  88:Source\azure_iot_sdk\uamqp\src/cbs.c ****         /* Codes_SRS_CBS_01_105: [ When `on_amqp_management_open_complete` is called with NULL `con
ARM GAS  C:\Users\Phuong\AppData\Local\Temp\ccGVgD3r.s 			page 3


  89:Source\azure_iot_sdk\uamqp\src/cbs.c ****         LogError("on_underlying_amqp_management_open_complete called with NULL context");
  90:Source\azure_iot_sdk\uamqp\src/cbs.c ****     }
  91:Source\azure_iot_sdk\uamqp\src/cbs.c ****     else
  92:Source\azure_iot_sdk\uamqp\src/cbs.c ****     {
  93:Source\azure_iot_sdk\uamqp\src/cbs.c ****         CBS_HANDLE cbs = (CBS_HANDLE)context;
  94:Source\azure_iot_sdk\uamqp\src/cbs.c **** 
  95:Source\azure_iot_sdk\uamqp\src/cbs.c ****         LogError("PSOC6--CBS_OPEN_DEBUGGING_on_underlying_amqp_management_open_complete--PSOC6");
  96:Source\azure_iot_sdk\uamqp\src/cbs.c ****         switch (cbs->cbs_state)
  97:Source\azure_iot_sdk\uamqp\src/cbs.c ****         {
  98:Source\azure_iot_sdk\uamqp\src/cbs.c ****         default:
  99:Source\azure_iot_sdk\uamqp\src/cbs.c ****             LogError("AMQP management open complete in unknown state");
 100:Source\azure_iot_sdk\uamqp\src/cbs.c ****             break;
 101:Source\azure_iot_sdk\uamqp\src/cbs.c **** 
 102:Source\azure_iot_sdk\uamqp\src/cbs.c ****         case CBS_STATE_CLOSED:
 103:Source\azure_iot_sdk\uamqp\src/cbs.c ****         case CBS_STATE_ERROR:
 104:Source\azure_iot_sdk\uamqp\src/cbs.c ****             LogError("Unexpected AMQP management open complete");
 105:Source\azure_iot_sdk\uamqp\src/cbs.c ****             break;
 106:Source\azure_iot_sdk\uamqp\src/cbs.c **** 
 107:Source\azure_iot_sdk\uamqp\src/cbs.c ****         case CBS_STATE_OPEN:
 108:Source\azure_iot_sdk\uamqp\src/cbs.c ****             LogError("Unexpected AMQP management open complete in OPEN");
 109:Source\azure_iot_sdk\uamqp\src/cbs.c ****             /* Codes_SRS_CBS_01_109: [ When `on_amqp_management_open_complete` is called when the C
 110:Source\azure_iot_sdk\uamqp\src/cbs.c ****             cbs->cbs_state = CBS_STATE_ERROR;
 111:Source\azure_iot_sdk\uamqp\src/cbs.c ****             cbs->on_cbs_error(cbs->on_cbs_error_context);
 112:Source\azure_iot_sdk\uamqp\src/cbs.c ****             break;
 113:Source\azure_iot_sdk\uamqp\src/cbs.c **** 
 114:Source\azure_iot_sdk\uamqp\src/cbs.c ****         case CBS_STATE_OPENING:
 115:Source\azure_iot_sdk\uamqp\src/cbs.c ****         {
 116:Source\azure_iot_sdk\uamqp\src/cbs.c ****             switch (open_result)
 117:Source\azure_iot_sdk\uamqp\src/cbs.c ****             {
 118:Source\azure_iot_sdk\uamqp\src/cbs.c ****             default:
 119:Source\azure_iot_sdk\uamqp\src/cbs.c ****                 LogError("Unknown AMQP management state");
 120:Source\azure_iot_sdk\uamqp\src/cbs.c **** 
 121:Source\azure_iot_sdk\uamqp\src/cbs.c ****             case AMQP_MANAGEMENT_OPEN_ERROR:
 122:Source\azure_iot_sdk\uamqp\src/cbs.c ****                 cbs->cbs_state = CBS_STATE_CLOSED;
 123:Source\azure_iot_sdk\uamqp\src/cbs.c ****                 LogError("PSOC6---AMQP_MANAGEMENT_OPEN_ERROR---PSOC6");
 124:Source\azure_iot_sdk\uamqp\src/cbs.c ****                 /* Codes_SRS_CBS_01_113: [ When `on_amqp_management_open_complete` reports a failur
 125:Source\azure_iot_sdk\uamqp\src/cbs.c ****                 (void)amqp_management_close(cbs->amqp_management);
 126:Source\azure_iot_sdk\uamqp\src/cbs.c ****                 /* Codes_SRS_CBS_01_107: [ If CBS is OPENING and `open_result` is `AMQP_MANAGEMENT_
 127:Source\azure_iot_sdk\uamqp\src/cbs.c ****                 cbs->on_cbs_open_complete(cbs->on_cbs_open_complete_context, CBS_OPEN_ERROR);
 128:Source\azure_iot_sdk\uamqp\src/cbs.c ****                 break;
 129:Source\azure_iot_sdk\uamqp\src/cbs.c **** 
 130:Source\azure_iot_sdk\uamqp\src/cbs.c ****             case AMQP_MANAGEMENT_OPEN_CANCELLED:
 131:Source\azure_iot_sdk\uamqp\src/cbs.c ****                 cbs->cbs_state = CBS_STATE_CLOSED;
 132:Source\azure_iot_sdk\uamqp\src/cbs.c ****                 LogError("PSOC6---AMQP_MANAGEMENT_OPEN_CANCELLED---PSOC6");
 133:Source\azure_iot_sdk\uamqp\src/cbs.c ****                 /* Codes_SRS_CBS_01_113: [ When `on_amqp_management_open_complete` reports a failur
 134:Source\azure_iot_sdk\uamqp\src/cbs.c ****                 (void)amqp_management_close(cbs->amqp_management);
 135:Source\azure_iot_sdk\uamqp\src/cbs.c ****                 /* Codes_SRS_CBS_01_108: [ If CBS is OPENING and `open_result` is `AMQP_MANAGEMENT_
 136:Source\azure_iot_sdk\uamqp\src/cbs.c ****                 cbs->on_cbs_open_complete(cbs->on_cbs_open_complete_context, CBS_OPEN_CANCELLED);
 137:Source\azure_iot_sdk\uamqp\src/cbs.c ****                 break;
 138:Source\azure_iot_sdk\uamqp\src/cbs.c **** 
 139:Source\azure_iot_sdk\uamqp\src/cbs.c ****             case AMQP_MANAGEMENT_OPEN_OK:
 140:Source\azure_iot_sdk\uamqp\src/cbs.c ****                 LogError("PSOC6---AMQP_MANAGEMENT_OPEN_OK---PSOC6");
 141:Source\azure_iot_sdk\uamqp\src/cbs.c ****                 /* Codes_SRS_CBS_01_106: [ If CBS is OPENING and `open_result` is `AMQP_MANAGEMENT_
 142:Source\azure_iot_sdk\uamqp\src/cbs.c ****                 cbs->cbs_state = CBS_STATE_OPEN;
 143:Source\azure_iot_sdk\uamqp\src/cbs.c ****                 cbs->on_cbs_open_complete(cbs->on_cbs_open_complete_context, CBS_OPEN_OK);
 144:Source\azure_iot_sdk\uamqp\src/cbs.c ****                 break;
 145:Source\azure_iot_sdk\uamqp\src/cbs.c ****             }
ARM GAS  C:\Users\Phuong\AppData\Local\Temp\ccGVgD3r.s 			page 4


 146:Source\azure_iot_sdk\uamqp\src/cbs.c ****             break;
 147:Source\azure_iot_sdk\uamqp\src/cbs.c ****         }
 148:Source\azure_iot_sdk\uamqp\src/cbs.c ****         }
 149:Source\azure_iot_sdk\uamqp\src/cbs.c ****     }
 150:Source\azure_iot_sdk\uamqp\src/cbs.c **** }
 151:Source\azure_iot_sdk\uamqp\src/cbs.c **** 
 152:Source\azure_iot_sdk\uamqp\src/cbs.c **** static void on_underlying_amqp_management_error(void* context)
 153:Source\azure_iot_sdk\uamqp\src/cbs.c **** {
  27              		.loc 1 153 0
  28              		.cfi_startproc
  29              		@ args = 0, pretend = 0, frame = 0
  30              		@ frame_needed = 0, uses_anonymous_args = 0
  31              	.LVL0:
  32 0000 10B5     		push	{r4, lr}
  33              		.cfi_def_cfa_offset 8
  34              		.cfi_offset 4, -8
  35              		.cfi_offset 14, -4
  36 0002 82B0     		sub	sp, sp, #8
  37              		.cfi_def_cfa_offset 16
  38 0004 041E     		subs	r4, r0, #0
 154:Source\azure_iot_sdk\uamqp\src/cbs.c ****     if (context == NULL)
  39              		.loc 1 154 0
  40 0006 0DD1     		bne	.L2
  41              	.LBB2:
 155:Source\azure_iot_sdk\uamqp\src/cbs.c ****     {
 156:Source\azure_iot_sdk\uamqp\src/cbs.c ****         /* Codes_SRS_CBS_01_110: [ When `on_amqp_management_error` is called with NULL `context`, i
 157:Source\azure_iot_sdk\uamqp\src/cbs.c ****         LogError("on_underlying_amqp_management_error called with NULL context");
  42              		.loc 1 157 0 discriminator 3
  43 0008 FFF7FEFF 		bl	xlogging_get_log_function
  44              	.LVL1:
  45 000c 041E     		subs	r4, r0, #0
  46              	.LVL2:
  47 000e 3BD0     		beq	.L1
  48              		.loc 1 157 0 is_stmt 0 discriminator 4
  49 0010 1E4B     		ldr	r3, .L8
  50 0012 0193     		str	r3, [sp, #4]
  51 0014 0123     		movs	r3, #1
  52 0016 0093     		str	r3, [sp]
  53 0018 9C33     		adds	r3, r3, #156
  54 001a 1D4A     		ldr	r2, .L8+4
  55 001c 1D49     		ldr	r1, .L8+8
  56 001e 0020     		movs	r0, #0
  57              	.LVL3:
  58 0020 A047     		blx	r4
  59              	.LVL4:
  60 0022 31E0     		b	.L1
  61              	.LVL5:
  62              	.L2:
  63              	.LBE2:
  64              	.LBB3:
 158:Source\azure_iot_sdk\uamqp\src/cbs.c ****     }
 159:Source\azure_iot_sdk\uamqp\src/cbs.c ****     else
 160:Source\azure_iot_sdk\uamqp\src/cbs.c ****     {
 161:Source\azure_iot_sdk\uamqp\src/cbs.c ****         CBS_HANDLE cbs = (CBS_HANDLE)context;
 162:Source\azure_iot_sdk\uamqp\src/cbs.c **** 
 163:Source\azure_iot_sdk\uamqp\src/cbs.c ****         switch (cbs->cbs_state)
  65              		.loc 1 163 0 is_stmt 1
ARM GAS  C:\Users\Phuong\AppData\Local\Temp\ccGVgD3r.s 			page 5


  66 0024 0379     		ldrb	r3, [r0, #4]
  67 0026 012B     		cmp	r3, #1
  68 0028 1FD0     		beq	.L5
  69 002a 002B     		cmp	r3, #0
  70 002c 0FD0     		beq	.L6
  71 002e 022B     		cmp	r3, #2
  72 0030 25D0     		beq	.L7
  73              	.LBB4:
 164:Source\azure_iot_sdk\uamqp\src/cbs.c ****         {
 165:Source\azure_iot_sdk\uamqp\src/cbs.c ****         default:
 166:Source\azure_iot_sdk\uamqp\src/cbs.c ****             LogError("AMQP management error in unknown state");
  74              		.loc 1 166 0
  75 0032 FFF7FEFF 		bl	xlogging_get_log_function
  76              	.LVL6:
  77 0036 041E     		subs	r4, r0, #0
  78              	.LVL7:
  79 0038 26D0     		beq	.L1
  80              		.loc 1 166 0 is_stmt 0 discriminator 4
  81 003a 174B     		ldr	r3, .L8+12
  82 003c 0193     		str	r3, [sp, #4]
  83 003e 0123     		movs	r3, #1
  84 0040 0093     		str	r3, [sp]
  85 0042 A533     		adds	r3, r3, #165
  86 0044 124A     		ldr	r2, .L8+4
  87 0046 1349     		ldr	r1, .L8+8
  88 0048 0020     		movs	r0, #0
  89              	.LVL8:
  90 004a A047     		blx	r4
  91              	.LVL9:
  92 004c 1CE0     		b	.L1
  93              	.LVL10:
  94              	.L6:
  95              	.LBE4:
  96              	.LBB5:
 167:Source\azure_iot_sdk\uamqp\src/cbs.c ****             break;
 168:Source\azure_iot_sdk\uamqp\src/cbs.c **** 
 169:Source\azure_iot_sdk\uamqp\src/cbs.c ****         case CBS_STATE_CLOSED:
 170:Source\azure_iot_sdk\uamqp\src/cbs.c ****             LogError("Unexpected AMQP error in CLOSED state");
  97              		.loc 1 170 0 is_stmt 1 discriminator 3
  98 004e FFF7FEFF 		bl	xlogging_get_log_function
  99              	.LVL11:
 100 0052 041E     		subs	r4, r0, #0
 101              	.LVL12:
 102 0054 18D0     		beq	.L1
 103              		.loc 1 170 0 is_stmt 0 discriminator 4
 104 0056 114B     		ldr	r3, .L8+16
 105 0058 0193     		str	r3, [sp, #4]
 106 005a 0123     		movs	r3, #1
 107 005c 0093     		str	r3, [sp]
 108 005e A933     		adds	r3, r3, #169
 109 0060 0B4A     		ldr	r2, .L8+4
 110 0062 0C49     		ldr	r1, .L8+8
 111 0064 0020     		movs	r0, #0
 112              	.LVL13:
 113 0066 A047     		blx	r4
 114              	.LVL14:
 115 0068 0EE0     		b	.L1
ARM GAS  C:\Users\Phuong\AppData\Local\Temp\ccGVgD3r.s 			page 6


 116              	.LVL15:
 117              	.L5:
 118              	.LBE5:
 171:Source\azure_iot_sdk\uamqp\src/cbs.c ****             break;
 172:Source\azure_iot_sdk\uamqp\src/cbs.c **** 
 173:Source\azure_iot_sdk\uamqp\src/cbs.c ****         case CBS_STATE_OPENING:
 174:Source\azure_iot_sdk\uamqp\src/cbs.c ****             cbs->cbs_state = CBS_STATE_CLOSED;
 119              		.loc 1 174 0 is_stmt 1
 120 006a 0023     		movs	r3, #0
 121 006c 0371     		strb	r3, [r0, #4]
 175:Source\azure_iot_sdk\uamqp\src/cbs.c ****             /* Codes_SRS_CBS_01_114: [ Additionally the underlying AMQP management shall be closed 
 176:Source\azure_iot_sdk\uamqp\src/cbs.c ****             (void)amqp_management_close(cbs->amqp_management);
 122              		.loc 1 176 0
 123 006e 0068     		ldr	r0, [r0]
 124              	.LVL16:
 125 0070 FFF7FEFF 		bl	amqp_management_close
 126              	.LVL17:
 177:Source\azure_iot_sdk\uamqp\src/cbs.c ****             /* Codes_SRS_CBS_01_111: [ If CBS is OPENING the callback `on_cbs_open_complete` shall 
 178:Source\azure_iot_sdk\uamqp\src/cbs.c ****             cbs->on_cbs_open_complete(cbs->on_cbs_open_complete_context, CBS_OPEN_ERROR);
 127              		.loc 1 178 0
 128 0074 A368     		ldr	r3, [r4, #8]
 129 0076 E068     		ldr	r0, [r4, #12]
 130 0078 0121     		movs	r1, #1
 131 007a 9847     		blx	r3
 132              	.LVL18:
 179:Source\azure_iot_sdk\uamqp\src/cbs.c ****             break;
 133              		.loc 1 179 0
 134 007c 04E0     		b	.L1
 135              	.LVL19:
 136              	.L7:
 180:Source\azure_iot_sdk\uamqp\src/cbs.c **** 
 181:Source\azure_iot_sdk\uamqp\src/cbs.c ****         case CBS_STATE_OPEN:
 182:Source\azure_iot_sdk\uamqp\src/cbs.c ****             /* Codes_SRS_CBS_01_112: [ If CBS is OPEN the callback `on_cbs_error` shall be called a
 183:Source\azure_iot_sdk\uamqp\src/cbs.c ****             cbs->cbs_state = CBS_STATE_ERROR;
 137              		.loc 1 183 0
 138 007e 0323     		movs	r3, #3
 139 0080 0371     		strb	r3, [r0, #4]
 184:Source\azure_iot_sdk\uamqp\src/cbs.c ****             cbs->on_cbs_error(cbs->on_cbs_error_context);
 140              		.loc 1 184 0
 141 0082 0369     		ldr	r3, [r0, #16]
 142 0084 4069     		ldr	r0, [r0, #20]
 143              	.LVL20:
 144 0086 9847     		blx	r3
 145              	.LVL21:
 146              	.L1:
 147              	.LBE3:
 185:Source\azure_iot_sdk\uamqp\src/cbs.c ****             break;
 186:Source\azure_iot_sdk\uamqp\src/cbs.c ****         }
 187:Source\azure_iot_sdk\uamqp\src/cbs.c ****     }
 188:Source\azure_iot_sdk\uamqp\src/cbs.c **** }
 148              		.loc 1 188 0
 149 0088 02B0     		add	sp, sp, #8
 150              		@ sp needed
 151 008a 10BD     		pop	{r4, pc}
 152              	.L9:
 153              		.align	2
 154              	.L8:
ARM GAS  C:\Users\Phuong\AppData\Local\Temp\ccGVgD3r.s 			page 7


 155 008c 28000000 		.word	.LC3
 156 0090 00000000 		.word	.LANCHOR0
 157 0094 00000000 		.word	.LC1
 158 0098 68000000 		.word	.LC5
 159 009c 90000000 		.word	.LC7
 160              		.cfi_endproc
 161              	.LFE3:
 162              		.size	on_underlying_amqp_management_error, .-on_underlying_amqp_management_error
 163              		.section	.text.on_underlying_amqp_management_open_complete,"ax",%progbits
 164              		.align	2
 165              		.code	16
 166              		.thumb_func
 167              		.type	on_underlying_amqp_management_open_complete, %function
 168              	on_underlying_amqp_management_open_complete:
 169              	.LFB2:
  85:Source\azure_iot_sdk\uamqp\src/cbs.c ****     if (context == NULL)
 170              		.loc 1 85 0
 171              		.cfi_startproc
 172              		@ args = 0, pretend = 0, frame = 0
 173              		@ frame_needed = 0, uses_anonymous_args = 0
 174              	.LVL22:
 175 0000 70B5     		push	{r4, r5, r6, lr}
 176              		.cfi_def_cfa_offset 16
 177              		.cfi_offset 4, -16
 178              		.cfi_offset 5, -12
 179              		.cfi_offset 6, -8
 180              		.cfi_offset 14, -4
 181 0002 82B0     		sub	sp, sp, #8
 182              		.cfi_def_cfa_offset 24
 183 0004 0400     		movs	r4, r0
 184 0006 0E00     		movs	r6, r1
  86:Source\azure_iot_sdk\uamqp\src/cbs.c ****     {
 185              		.loc 1 86 0
 186 0008 0028     		cmp	r0, #0
 187 000a 0FD1     		bne	.L11
 188              	.LBB6:
  89:Source\azure_iot_sdk\uamqp\src/cbs.c ****     }
 189              		.loc 1 89 0 discriminator 3
 190 000c FFF7FEFF 		bl	xlogging_get_log_function
 191              	.LVL23:
 192 0010 041E     		subs	r4, r0, #0
 193              	.LVL24:
 194 0012 00D1     		bne	.LCB187
 195 0014 ACE0     		b	.L10	@long jump
 196              	.LCB187:
  89:Source\azure_iot_sdk\uamqp\src/cbs.c ****     }
 197              		.loc 1 89 0 is_stmt 0 discriminator 4
 198 0016 574B     		ldr	r3, .L26
 199 0018 0193     		str	r3, [sp, #4]
 200 001a 0123     		movs	r3, #1
 201 001c 0093     		str	r3, [sp]
 202 001e 5833     		adds	r3, r3, #88
 203 0020 554A     		ldr	r2, .L26+4
 204 0022 2432     		adds	r2, r2, #36
 205 0024 5549     		ldr	r1, .L26+8
 206 0026 0020     		movs	r0, #0
 207              	.LVL25:
ARM GAS  C:\Users\Phuong\AppData\Local\Temp\ccGVgD3r.s 			page 8


 208 0028 A047     		blx	r4
 209              	.LVL26:
 210 002a A1E0     		b	.L10
 211              	.LVL27:
 212              	.L11:
 213              	.LBE6:
 214              	.LBB7:
 215              	.LBB8:
  95:Source\azure_iot_sdk\uamqp\src/cbs.c ****         switch (cbs->cbs_state)
 216              		.loc 1 95 0 is_stmt 1
 217 002c FFF7FEFF 		bl	xlogging_get_log_function
 218              	.LVL28:
 219 0030 051E     		subs	r5, r0, #0
 220              	.LVL29:
 221 0032 09D0     		beq	.L13
  95:Source\azure_iot_sdk\uamqp\src/cbs.c ****         switch (cbs->cbs_state)
 222              		.loc 1 95 0 is_stmt 0 discriminator 4
 223 0034 524B     		ldr	r3, .L26+12
 224 0036 0193     		str	r3, [sp, #4]
 225 0038 0123     		movs	r3, #1
 226 003a 0093     		str	r3, [sp]
 227 003c 5E33     		adds	r3, r3, #94
 228 003e 4E4A     		ldr	r2, .L26+4
 229 0040 2432     		adds	r2, r2, #36
 230 0042 4E49     		ldr	r1, .L26+8
 231 0044 0020     		movs	r0, #0
 232              	.LVL30:
 233 0046 A847     		blx	r5
 234              	.LVL31:
 235              	.L13:
 236              	.LBE8:
  96:Source\azure_iot_sdk\uamqp\src/cbs.c ****         {
 237              		.loc 1 96 0 is_stmt 1
 238 0048 2379     		ldrb	r3, [r4, #4]
 239 004a 012B     		cmp	r3, #1
 240 004c 38D0     		beq	.L15
 241 004e 002B     		cmp	r3, #0
 242 0050 13D0     		beq	.L16
 243 0052 022B     		cmp	r3, #2
 244 0054 20D0     		beq	.L17
 245 0056 032B     		cmp	r3, #3
 246 0058 0FD0     		beq	.L16
 247              	.LBB9:
  99:Source\azure_iot_sdk\uamqp\src/cbs.c ****             break;
 248              		.loc 1 99 0
 249 005a FFF7FEFF 		bl	xlogging_get_log_function
 250              	.LVL32:
 251 005e 041E     		subs	r4, r0, #0
 252              	.LVL33:
 253 0060 00D1     		bne	.LCB253
 254 0062 85E0     		b	.L10	@long jump
 255              	.LCB253:
  99:Source\azure_iot_sdk\uamqp\src/cbs.c ****             break;
 256              		.loc 1 99 0 is_stmt 0 discriminator 4
 257 0064 474B     		ldr	r3, .L26+16
 258 0066 0193     		str	r3, [sp, #4]
 259 0068 0123     		movs	r3, #1
ARM GAS  C:\Users\Phuong\AppData\Local\Temp\ccGVgD3r.s 			page 9


 260 006a 0093     		str	r3, [sp]
 261 006c 6233     		adds	r3, r3, #98
 262 006e 424A     		ldr	r2, .L26+4
 263 0070 2432     		adds	r2, r2, #36
 264 0072 4249     		ldr	r1, .L26+8
 265 0074 0020     		movs	r0, #0
 266              	.LVL34:
 267 0076 A047     		blx	r4
 268              	.LVL35:
 269 0078 7AE0     		b	.L10
 270              	.LVL36:
 271              	.L16:
 272              	.LBE9:
 273              	.LBB10:
 104:Source\azure_iot_sdk\uamqp\src/cbs.c ****             break;
 274              		.loc 1 104 0 is_stmt 1 discriminator 3
 275 007a FFF7FEFF 		bl	xlogging_get_log_function
 276              	.LVL37:
 277 007e 041E     		subs	r4, r0, #0
 278              	.LVL38:
 279 0080 76D0     		beq	.L10
 104:Source\azure_iot_sdk\uamqp\src/cbs.c ****             break;
 280              		.loc 1 104 0 is_stmt 0 discriminator 4
 281 0082 414B     		ldr	r3, .L26+20
 282 0084 0193     		str	r3, [sp, #4]
 283 0086 0123     		movs	r3, #1
 284 0088 0093     		str	r3, [sp]
 285 008a 6733     		adds	r3, r3, #103
 286 008c 3A4A     		ldr	r2, .L26+4
 287 008e 2432     		adds	r2, r2, #36
 288 0090 3A49     		ldr	r1, .L26+8
 289 0092 0020     		movs	r0, #0
 290              	.LVL39:
 291 0094 A047     		blx	r4
 292              	.LVL40:
 293 0096 6BE0     		b	.L10
 294              	.LVL41:
 295              	.L17:
 296              	.LBE10:
 297              	.LBB11:
 108:Source\azure_iot_sdk\uamqp\src/cbs.c ****             /* Codes_SRS_CBS_01_109: [ When `on_amqp_management_open_complete` is called when the C
 298              		.loc 1 108 0 is_stmt 1 discriminator 3
 299 0098 FFF7FEFF 		bl	xlogging_get_log_function
 300              	.LVL42:
 301 009c 051E     		subs	r5, r0, #0
 302              	.LVL43:
 303 009e 09D0     		beq	.L18
 108:Source\azure_iot_sdk\uamqp\src/cbs.c ****             /* Codes_SRS_CBS_01_109: [ When `on_amqp_management_open_complete` is called when the C
 304              		.loc 1 108 0 is_stmt 0 discriminator 4
 305 00a0 3A4B     		ldr	r3, .L26+24
 306 00a2 0193     		str	r3, [sp, #4]
 307 00a4 0123     		movs	r3, #1
 308 00a6 0093     		str	r3, [sp]
 309 00a8 6B33     		adds	r3, r3, #107
 310 00aa 334A     		ldr	r2, .L26+4
 311 00ac 2432     		adds	r2, r2, #36
 312 00ae 3349     		ldr	r1, .L26+8
ARM GAS  C:\Users\Phuong\AppData\Local\Temp\ccGVgD3r.s 			page 10


 313 00b0 0020     		movs	r0, #0
 314              	.LVL44:
 315 00b2 A847     		blx	r5
 316              	.LVL45:
 317              	.L18:
 318              	.LBE11:
 110:Source\azure_iot_sdk\uamqp\src/cbs.c ****             cbs->on_cbs_error(cbs->on_cbs_error_context);
 319              		.loc 1 110 0 is_stmt 1
 320 00b4 0323     		movs	r3, #3
 321 00b6 2371     		strb	r3, [r4, #4]
 111:Source\azure_iot_sdk\uamqp\src/cbs.c ****             break;
 322              		.loc 1 111 0
 323 00b8 2369     		ldr	r3, [r4, #16]
 324 00ba 6069     		ldr	r0, [r4, #20]
 325 00bc 9847     		blx	r3
 326              	.LVL46:
 112:Source\azure_iot_sdk\uamqp\src/cbs.c **** 
 327              		.loc 1 112 0
 328 00be 57E0     		b	.L10
 329              	.LVL47:
 330              	.L15:
 116:Source\azure_iot_sdk\uamqp\src/cbs.c ****             {
 331              		.loc 1 116 0
 332 00c0 012E     		cmp	r6, #1
 333 00c2 11D0     		beq	.L20
 334 00c4 002E     		cmp	r6, #0
 335 00c6 3FD0     		beq	.L21
 336 00c8 022E     		cmp	r6, #2
 337 00ca 25D0     		beq	.L22
 338              	.LBB12:
 119:Source\azure_iot_sdk\uamqp\src/cbs.c **** 
 339              		.loc 1 119 0
 340 00cc FFF7FEFF 		bl	xlogging_get_log_function
 341              	.LVL48:
 342 00d0 051E     		subs	r5, r0, #0
 343              	.LVL49:
 344 00d2 09D0     		beq	.L20
 119:Source\azure_iot_sdk\uamqp\src/cbs.c **** 
 345              		.loc 1 119 0 is_stmt 0 discriminator 4
 346 00d4 2E4B     		ldr	r3, .L26+28
 347 00d6 0193     		str	r3, [sp, #4]
 348 00d8 0123     		movs	r3, #1
 349 00da 0093     		str	r3, [sp]
 350 00dc 7633     		adds	r3, r3, #118
 351 00de 264A     		ldr	r2, .L26+4
 352 00e0 2432     		adds	r2, r2, #36
 353 00e2 2649     		ldr	r1, .L26+8
 354 00e4 0020     		movs	r0, #0
 355              	.LVL50:
 356 00e6 A847     		blx	r5
 357              	.LVL51:
 358              	.L20:
 359              	.LBE12:
 122:Source\azure_iot_sdk\uamqp\src/cbs.c ****                 LogError("PSOC6---AMQP_MANAGEMENT_OPEN_ERROR---PSOC6");
 360              		.loc 1 122 0 is_stmt 1
 361 00e8 0023     		movs	r3, #0
 362 00ea 2371     		strb	r3, [r4, #4]
ARM GAS  C:\Users\Phuong\AppData\Local\Temp\ccGVgD3r.s 			page 11


 363              	.LBB13:
 123:Source\azure_iot_sdk\uamqp\src/cbs.c ****                 /* Codes_SRS_CBS_01_113: [ When `on_amqp_management_open_complete` reports a failur
 364              		.loc 1 123 0
 365 00ec FFF7FEFF 		bl	xlogging_get_log_function
 366              	.LVL52:
 367 00f0 051E     		subs	r5, r0, #0
 368              	.LVL53:
 369 00f2 09D0     		beq	.L23
 123:Source\azure_iot_sdk\uamqp\src/cbs.c ****                 /* Codes_SRS_CBS_01_113: [ When `on_amqp_management_open_complete` reports a failur
 370              		.loc 1 123 0 is_stmt 0 discriminator 4
 371 00f4 274B     		ldr	r3, .L26+32
 372 00f6 0193     		str	r3, [sp, #4]
 373 00f8 0123     		movs	r3, #1
 374 00fa 0093     		str	r3, [sp]
 375 00fc 7A33     		adds	r3, r3, #122
 376 00fe 1E4A     		ldr	r2, .L26+4
 377 0100 2432     		adds	r2, r2, #36
 378 0102 1E49     		ldr	r1, .L26+8
 379 0104 0020     		movs	r0, #0
 380              	.LVL54:
 381 0106 A847     		blx	r5
 382              	.LVL55:
 383              	.L23:
 384              	.LBE13:
 125:Source\azure_iot_sdk\uamqp\src/cbs.c ****                 /* Codes_SRS_CBS_01_107: [ If CBS is OPENING and `open_result` is `AMQP_MANAGEMENT_
 385              		.loc 1 125 0 is_stmt 1
 386 0108 2068     		ldr	r0, [r4]
 387 010a FFF7FEFF 		bl	amqp_management_close
 388              	.LVL56:
 127:Source\azure_iot_sdk\uamqp\src/cbs.c ****                 break;
 389              		.loc 1 127 0
 390 010e A368     		ldr	r3, [r4, #8]
 391 0110 E068     		ldr	r0, [r4, #12]
 392 0112 0121     		movs	r1, #1
 393 0114 9847     		blx	r3
 394              	.LVL57:
 128:Source\azure_iot_sdk\uamqp\src/cbs.c **** 
 395              		.loc 1 128 0
 396 0116 2BE0     		b	.L10
 397              	.LVL58:
 398              	.L22:
 131:Source\azure_iot_sdk\uamqp\src/cbs.c ****                 LogError("PSOC6---AMQP_MANAGEMENT_OPEN_CANCELLED---PSOC6");
 399              		.loc 1 131 0
 400 0118 0023     		movs	r3, #0
 401 011a 2371     		strb	r3, [r4, #4]
 402              	.LBB14:
 132:Source\azure_iot_sdk\uamqp\src/cbs.c ****                 /* Codes_SRS_CBS_01_113: [ When `on_amqp_management_open_complete` reports a failur
 403              		.loc 1 132 0
 404 011c FFF7FEFF 		bl	xlogging_get_log_function
 405              	.LVL59:
 406 0120 051E     		subs	r5, r0, #0
 407              	.LVL60:
 408 0122 09D0     		beq	.L24
 132:Source\azure_iot_sdk\uamqp\src/cbs.c ****                 /* Codes_SRS_CBS_01_113: [ When `on_amqp_management_open_complete` reports a failur
 409              		.loc 1 132 0 is_stmt 0 discriminator 4
 410 0124 1C4B     		ldr	r3, .L26+36
 411 0126 0193     		str	r3, [sp, #4]
ARM GAS  C:\Users\Phuong\AppData\Local\Temp\ccGVgD3r.s 			page 12


 412 0128 0123     		movs	r3, #1
 413 012a 0093     		str	r3, [sp]
 414 012c 8333     		adds	r3, r3, #131
 415 012e 124A     		ldr	r2, .L26+4
 416 0130 2432     		adds	r2, r2, #36
 417 0132 1249     		ldr	r1, .L26+8
 418 0134 0020     		movs	r0, #0
 419              	.LVL61:
 420 0136 A847     		blx	r5
 421              	.LVL62:
 422              	.L24:
 423              	.LBE14:
 134:Source\azure_iot_sdk\uamqp\src/cbs.c ****                 /* Codes_SRS_CBS_01_108: [ If CBS is OPENING and `open_result` is `AMQP_MANAGEMENT_
 424              		.loc 1 134 0 is_stmt 1
 425 0138 2068     		ldr	r0, [r4]
 426 013a FFF7FEFF 		bl	amqp_management_close
 427              	.LVL63:
 136:Source\azure_iot_sdk\uamqp\src/cbs.c ****                 break;
 428              		.loc 1 136 0
 429 013e A368     		ldr	r3, [r4, #8]
 430 0140 E068     		ldr	r0, [r4, #12]
 431 0142 0221     		movs	r1, #2
 432 0144 9847     		blx	r3
 433              	.LVL64:
 137:Source\azure_iot_sdk\uamqp\src/cbs.c **** 
 434              		.loc 1 137 0
 435 0146 13E0     		b	.L10
 436              	.LVL65:
 437              	.L21:
 438              	.LBB15:
 140:Source\azure_iot_sdk\uamqp\src/cbs.c ****                 /* Codes_SRS_CBS_01_106: [ If CBS is OPENING and `open_result` is `AMQP_MANAGEMENT_
 439              		.loc 1 140 0 discriminator 3
 440 0148 FFF7FEFF 		bl	xlogging_get_log_function
 441              	.LVL66:
 442 014c 051E     		subs	r5, r0, #0
 443              	.LVL67:
 444 014e 09D0     		beq	.L25
 140:Source\azure_iot_sdk\uamqp\src/cbs.c ****                 /* Codes_SRS_CBS_01_106: [ If CBS is OPENING and `open_result` is `AMQP_MANAGEMENT_
 445              		.loc 1 140 0 is_stmt 0 discriminator 4
 446 0150 124B     		ldr	r3, .L26+40
 447 0152 0193     		str	r3, [sp, #4]
 448 0154 0123     		movs	r3, #1
 449 0156 0093     		str	r3, [sp]
 450 0158 8B33     		adds	r3, r3, #139
 451 015a 074A     		ldr	r2, .L26+4
 452 015c 2432     		adds	r2, r2, #36
 453 015e 0749     		ldr	r1, .L26+8
 454 0160 0020     		movs	r0, #0
 455              	.LVL68:
 456 0162 A847     		blx	r5
 457              	.LVL69:
 458              	.L25:
 459              	.LBE15:
 142:Source\azure_iot_sdk\uamqp\src/cbs.c ****                 cbs->on_cbs_open_complete(cbs->on_cbs_open_complete_context, CBS_OPEN_OK);
 460              		.loc 1 142 0 is_stmt 1
 461 0164 0223     		movs	r3, #2
 462 0166 2371     		strb	r3, [r4, #4]
ARM GAS  C:\Users\Phuong\AppData\Local\Temp\ccGVgD3r.s 			page 13


 143:Source\azure_iot_sdk\uamqp\src/cbs.c ****                 break;
 463              		.loc 1 143 0
 464 0168 A368     		ldr	r3, [r4, #8]
 465 016a E068     		ldr	r0, [r4, #12]
 466 016c 0021     		movs	r1, #0
 467 016e 9847     		blx	r3
 468              	.LVL70:
 469              	.L10:
 470              	.LBE7:
 150:Source\azure_iot_sdk\uamqp\src/cbs.c **** 
 471              		.loc 1 150 0
 472 0170 02B0     		add	sp, sp, #8
 473              		@ sp needed
 474 0172 70BD     		pop	{r4, r5, r6, pc}
 475              	.L27:
 476              		.align	2
 477              	.L26:
 478 0174 B8000000 		.word	.LC11
 479 0178 00000000 		.word	.LANCHOR0
 480 017c 00000000 		.word	.LC1
 481 0180 00010000 		.word	.LC13
 482 0184 50010000 		.word	.LC15
 483 0188 80010000 		.word	.LC17
 484 018c AC010000 		.word	.LC19
 485 0190 E0010000 		.word	.LC21
 486 0194 00020000 		.word	.LC23
 487 0198 2C020000 		.word	.LC25
 488 019c 5C020000 		.word	.LC27
 489              		.cfi_endproc
 490              	.LFE2:
 491              		.size	on_underlying_amqp_management_open_complete, .-on_underlying_amqp_management_open_complete
 492              		.section	.text.on_amqp_management_execute_operation_complete,"ax",%progbits
 493              		.align	2
 494              		.code	16
 495              		.thumb_func
 496              		.type	on_amqp_management_execute_operation_complete, %function
 497              	on_amqp_management_execute_operation_complete:
 498              	.LFB4:
 189:Source\azure_iot_sdk\uamqp\src/cbs.c **** 
 190:Source\azure_iot_sdk\uamqp\src/cbs.c **** static void on_amqp_management_execute_operation_complete(void* context, AMQP_MANAGEMENT_EXECUTE_OP
 191:Source\azure_iot_sdk\uamqp\src/cbs.c **** {
 499              		.loc 1 191 0
 500              		.cfi_startproc
 501              		@ args = 4, pretend = 0, frame = 8
 502              		@ frame_needed = 0, uses_anonymous_args = 0
 503              	.LVL71:
 504 0000 F0B5     		push	{r4, r5, r6, r7, lr}
 505              		.cfi_def_cfa_offset 20
 506              		.cfi_offset 4, -20
 507              		.cfi_offset 5, -16
 508              		.cfi_offset 6, -12
 509              		.cfi_offset 7, -8
 510              		.cfi_offset 14, -4
 511 0002 85B0     		sub	sp, sp, #20
 512              		.cfi_def_cfa_offset 40
 513 0004 0500     		movs	r5, r0
 514 0006 0E00     		movs	r6, r1
ARM GAS  C:\Users\Phuong\AppData\Local\Temp\ccGVgD3r.s 			page 14


 515 0008 0392     		str	r2, [sp, #12]
 516 000a 1F00     		movs	r7, r3
 192:Source\azure_iot_sdk\uamqp\src/cbs.c ****     if (context == NULL)
 517              		.loc 1 192 0
 518 000c 0028     		cmp	r0, #0
 519 000e 0ED1     		bne	.L29
 520              	.LBB16:
 193:Source\azure_iot_sdk\uamqp\src/cbs.c ****     {
 194:Source\azure_iot_sdk\uamqp\src/cbs.c ****         /* Codes_SRS_CBS_01_091: [ When `on_amqp_management_execute_operation_complete` is called w
 195:Source\azure_iot_sdk\uamqp\src/cbs.c ****         LogError("on_amqp_management_execute_operation_complete called with NULL context");
 521              		.loc 1 195 0 discriminator 3
 522 0010 FFF7FEFF 		bl	xlogging_get_log_function
 523              	.LVL72:
 524 0014 041E     		subs	r4, r0, #0
 525              	.LVL73:
 526 0016 46D0     		beq	.L28
 527              		.loc 1 195 0 is_stmt 0 discriminator 4
 528 0018 244B     		ldr	r3, .L38
 529 001a 0193     		str	r3, [sp, #4]
 530 001c 0123     		movs	r3, #1
 531 001e 0093     		str	r3, [sp]
 532 0020 C233     		adds	r3, r3, #194
 533 0022 234A     		ldr	r2, .L38+4
 534 0024 5032     		adds	r2, r2, #80
 535 0026 2349     		ldr	r1, .L38+8
 536 0028 0020     		movs	r0, #0
 537              	.LVL74:
 538 002a A047     		blx	r4
 539              	.LVL75:
 540 002c 3BE0     		b	.L28
 541              	.LVL76:
 542              	.L29:
 543              	.LBE16:
 544              	.LBB17:
 196:Source\azure_iot_sdk\uamqp\src/cbs.c ****     }
 197:Source\azure_iot_sdk\uamqp\src/cbs.c ****     else
 198:Source\azure_iot_sdk\uamqp\src/cbs.c ****     {
 199:Source\azure_iot_sdk\uamqp\src/cbs.c ****         /* Codes_SRS_CBS_01_103: [ The `context` shall be used to obtain the pending operation info
 200:Source\azure_iot_sdk\uamqp\src/cbs.c ****         CBS_OPERATION* cbs_operation = (CBS_OPERATION*)singlylinkedlist_item_get_value((LIST_ITEM_H
 545              		.loc 1 200 0 is_stmt 1
 546 002e FFF7FEFF 		bl	singlylinkedlist_item_get_value
 547              	.LVL77:
 548 0032 041E     		subs	r4, r0, #0
 549              	.LVL78:
 201:Source\azure_iot_sdk\uamqp\src/cbs.c ****         CBS_OPERATION_RESULT cbs_operation_result;
 202:Source\azure_iot_sdk\uamqp\src/cbs.c **** 
 203:Source\azure_iot_sdk\uamqp\src/cbs.c ****         (void)message;
 204:Source\azure_iot_sdk\uamqp\src/cbs.c **** 
 205:Source\azure_iot_sdk\uamqp\src/cbs.c ****         if (cbs_operation == NULL)
 550              		.loc 1 205 0
 551 0034 0ED1     		bne	.L31
 552              	.LBB18:
 206:Source\azure_iot_sdk\uamqp\src/cbs.c ****         {
 207:Source\azure_iot_sdk\uamqp\src/cbs.c ****             LogError("NULL cbs_operation");
 553              		.loc 1 207 0 discriminator 3
 554 0036 FFF7FEFF 		bl	xlogging_get_log_function
 555              	.LVL79:
ARM GAS  C:\Users\Phuong\AppData\Local\Temp\ccGVgD3r.s 			page 15


 556 003a 041E     		subs	r4, r0, #0
 557              	.LVL80:
 558 003c 33D0     		beq	.L28
 559              		.loc 1 207 0 is_stmt 0 discriminator 4
 560 003e 1E4B     		ldr	r3, .L38+12
 561 0040 0193     		str	r3, [sp, #4]
 562 0042 0123     		movs	r3, #1
 563 0044 0093     		str	r3, [sp]
 564 0046 CE33     		adds	r3, r3, #206
 565 0048 194A     		ldr	r2, .L38+4
 566 004a 5032     		adds	r2, r2, #80
 567 004c 1949     		ldr	r1, .L38+8
 568 004e 0020     		movs	r0, #0
 569              	.LVL81:
 570 0050 A047     		blx	r4
 571              	.LVL82:
 572 0052 28E0     		b	.L28
 573              	.LVL83:
 574              	.L31:
 575              	.LBE18:
 208:Source\azure_iot_sdk\uamqp\src/cbs.c ****         }
 209:Source\azure_iot_sdk\uamqp\src/cbs.c ****         else
 210:Source\azure_iot_sdk\uamqp\src/cbs.c ****         {
 211:Source\azure_iot_sdk\uamqp\src/cbs.c ****             switch (execute_operation_result)
 576              		.loc 1 211 0 is_stmt 1
 577 0054 022E     		cmp	r6, #2
 578 0056 09D0     		beq	.L37
 579 0058 032E     		cmp	r6, #3
 580 005a 03D0     		beq	.L34
 581 005c 002E     		cmp	r6, #0
 582 005e 03D0     		beq	.L35
 212:Source\azure_iot_sdk\uamqp\src/cbs.c ****             {
 213:Source\azure_iot_sdk\uamqp\src/cbs.c ****             default:
 214:Source\azure_iot_sdk\uamqp\src/cbs.c ****                 cbs_operation_result = CBS_OPERATION_RESULT_CBS_ERROR;
 583              		.loc 1 214 0
 584 0060 0121     		movs	r1, #1
 585 0062 04E0     		b	.L33
 586              	.L34:
 587              	.LVL84:
 215:Source\azure_iot_sdk\uamqp\src/cbs.c ****                 break;
 216:Source\azure_iot_sdk\uamqp\src/cbs.c **** 
 217:Source\azure_iot_sdk\uamqp\src/cbs.c ****             case AMQP_MANAGEMENT_EXECUTE_OPERATION_FAILED_BAD_STATUS:
 218:Source\azure_iot_sdk\uamqp\src/cbs.c ****                 /* Tests_SRS_CBS_01_094: [ When `on_amqp_management_execute_operation_complete` is 
 219:Source\azure_iot_sdk\uamqp\src/cbs.c ****                 cbs_operation_result = CBS_OPERATION_RESULT_OPERATION_FAILED;
 220:Source\azure_iot_sdk\uamqp\src/cbs.c ****                 break;
 221:Source\azure_iot_sdk\uamqp\src/cbs.c **** 
 222:Source\azure_iot_sdk\uamqp\src/cbs.c ****             case AMQP_MANAGEMENT_EXECUTE_OPERATION_INSTANCE_CLOSED:
 223:Source\azure_iot_sdk\uamqp\src/cbs.c ****                 /* Tests_SRS_CBS_01_115: [ When `on_amqp_management_execute_operation_complete` is 
 224:Source\azure_iot_sdk\uamqp\src/cbs.c ****                 cbs_operation_result = CBS_OPERATION_RESULT_INSTANCE_CLOSED;
 588              		.loc 1 224 0
 589 0064 0321     		movs	r1, #3
 225:Source\azure_iot_sdk\uamqp\src/cbs.c ****                 break;
 590              		.loc 1 225 0
 591 0066 02E0     		b	.L33
 592              	.LVL85:
 593              	.L35:
 226:Source\azure_iot_sdk\uamqp\src/cbs.c **** 
ARM GAS  C:\Users\Phuong\AppData\Local\Temp\ccGVgD3r.s 			page 16


 227:Source\azure_iot_sdk\uamqp\src/cbs.c ****             case AMQP_MANAGEMENT_EXECUTE_OPERATION_ERROR:
 228:Source\azure_iot_sdk\uamqp\src/cbs.c ****                 /* Tests_SRS_CBS_01_093: [ When `on_amqp_management_execute_operation_complete` is 
 229:Source\azure_iot_sdk\uamqp\src/cbs.c ****                 cbs_operation_result = CBS_OPERATION_RESULT_CBS_ERROR;
 230:Source\azure_iot_sdk\uamqp\src/cbs.c ****                 break;
 231:Source\azure_iot_sdk\uamqp\src/cbs.c **** 
 232:Source\azure_iot_sdk\uamqp\src/cbs.c ****             case AMQP_MANAGEMENT_EXECUTE_OPERATION_OK:
 233:Source\azure_iot_sdk\uamqp\src/cbs.c ****                 /* Codes_SRS_CBS_01_092: [ When `on_amqp_management_execute_operation_complete` is 
 234:Source\azure_iot_sdk\uamqp\src/cbs.c ****                 cbs_operation_result = CBS_OPERATION_RESULT_OK;
 594              		.loc 1 234 0
 595 0068 0021     		movs	r1, #0
 235:Source\azure_iot_sdk\uamqp\src/cbs.c ****                 break;
 596              		.loc 1 235 0
 597 006a 00E0     		b	.L33
 598              	.LVL86:
 599              	.L37:
 219:Source\azure_iot_sdk\uamqp\src/cbs.c ****                 break;
 600              		.loc 1 219 0
 601 006c 0221     		movs	r1, #2
 602              	.L33:
 603              	.LVL87:
 236:Source\azure_iot_sdk\uamqp\src/cbs.c ****             }
 237:Source\azure_iot_sdk\uamqp\src/cbs.c **** 
 238:Source\azure_iot_sdk\uamqp\src/cbs.c ****             /* Codes_SRS_CBS_01_095: [ `status_code` and `status_description` shall be passed as th
 239:Source\azure_iot_sdk\uamqp\src/cbs.c ****             /* Codes_SRS_CBS_01_014: [ The response message has the following application-propertie
 240:Source\azure_iot_sdk\uamqp\src/cbs.c ****             /* Codes_SRS_CBS_01_013: [ status-code    No    int    HTTP response code [RFC2616]. ]*
 241:Source\azure_iot_sdk\uamqp\src/cbs.c ****             /* Codes_SRS_CBS_01_015: [ status-description    Yes    string    Description of the st
 242:Source\azure_iot_sdk\uamqp\src/cbs.c ****             /* Codes_SRS_CBS_01_016: [ The body of the message MUST be empty. ]*/
 243:Source\azure_iot_sdk\uamqp\src/cbs.c ****             /* Codes_SRS_CBS_01_026: [ The response message has the following application-propertie
 244:Source\azure_iot_sdk\uamqp\src/cbs.c ****             /* Codes_SRS_CBS_01_027: [ status-code    Yes    int    HTTP response code [RFC2616]. ]
 245:Source\azure_iot_sdk\uamqp\src/cbs.c ****             /* Codes_SRS_CBS_01_028: [ status-description    No    string    Description of the sta
 246:Source\azure_iot_sdk\uamqp\src/cbs.c ****             /* Codes_SRS_CBS_01_029: [ The body of the message MUST be empty. ]*/
 247:Source\azure_iot_sdk\uamqp\src/cbs.c ****             cbs_operation->on_cbs_operation_complete(cbs_operation->on_cbs_operation_complete_conte
 604              		.loc 1 247 0
 605 006e 3B00     		movs	r3, r7
 606 0070 039A     		ldr	r2, [sp, #12]
 607 0072 6068     		ldr	r0, [r4, #4]
 608              	.LVL88:
 609 0074 2668     		ldr	r6, [r4]
 610 0076 B047     		blx	r6
 611              	.LVL89:
 248:Source\azure_iot_sdk\uamqp\src/cbs.c **** 
 249:Source\azure_iot_sdk\uamqp\src/cbs.c ****             /* Codes_SRS_CBS_01_102: [ The pending operation shall be removed from the pending oper
 250:Source\azure_iot_sdk\uamqp\src/cbs.c ****             if (singlylinkedlist_remove(cbs_operation->pending_operations, (LIST_ITEM_HANDLE)contex
 612              		.loc 1 250 0
 613 0078 2900     		movs	r1, r5
 614 007a A068     		ldr	r0, [r4, #8]
 615 007c FFF7FEFF 		bl	singlylinkedlist_remove
 616              	.LVL90:
 617 0080 0028     		cmp	r0, #0
 618 0082 0DD0     		beq	.L36
 619              	.LBB19:
 251:Source\azure_iot_sdk\uamqp\src/cbs.c ****             {
 252:Source\azure_iot_sdk\uamqp\src/cbs.c ****                 LogError("Failed removing operation from the pending list");
 620              		.loc 1 252 0 discriminator 3
 621 0084 FFF7FEFF 		bl	xlogging_get_log_function
 622              	.LVL91:
 623 0088 051E     		subs	r5, r0, #0
ARM GAS  C:\Users\Phuong\AppData\Local\Temp\ccGVgD3r.s 			page 17


 624              	.LVL92:
 625 008a 09D0     		beq	.L36
 626              		.loc 1 252 0 is_stmt 0 discriminator 4
 627 008c 0B4B     		ldr	r3, .L38+16
 628 008e 0193     		str	r3, [sp, #4]
 629 0090 0123     		movs	r3, #1
 630 0092 0093     		str	r3, [sp]
 631 0094 FB33     		adds	r3, r3, #251
 632 0096 064A     		ldr	r2, .L38+4
 633 0098 5032     		adds	r2, r2, #80
 634 009a 0649     		ldr	r1, .L38+8
 635 009c 0020     		movs	r0, #0
 636              	.LVL93:
 637 009e A847     		blx	r5
 638              	.LVL94:
 639              	.L36:
 640              	.LBE19:
 253:Source\azure_iot_sdk\uamqp\src/cbs.c ****             }
 254:Source\azure_iot_sdk\uamqp\src/cbs.c **** 
 255:Source\azure_iot_sdk\uamqp\src/cbs.c ****             /* Codes_SRS_CBS_01_096: [ The `context` for the operation shall also be freed. ]*/
 256:Source\azure_iot_sdk\uamqp\src/cbs.c ****             free(cbs_operation);
 641              		.loc 1 256 0 is_stmt 1
 642 00a0 2000     		movs	r0, r4
 643 00a2 FFF7FEFF 		bl	free
 644              	.LVL95:
 645              	.L28:
 646              	.LBE17:
 257:Source\azure_iot_sdk\uamqp\src/cbs.c ****         }
 258:Source\azure_iot_sdk\uamqp\src/cbs.c ****     }
 259:Source\azure_iot_sdk\uamqp\src/cbs.c **** }
 647              		.loc 1 259 0
 648 00a6 05B0     		add	sp, sp, #20
 649              		@ sp needed
 650              	.LVL96:
 651 00a8 F0BD     		pop	{r4, r5, r6, r7, pc}
 652              	.L39:
 653 00aa C046     		.align	2
 654              	.L38:
 655 00ac 84020000 		.word	.LC31
 656 00b0 00000000 		.word	.LANCHOR0
 657 00b4 00000000 		.word	.LC1
 658 00b8 CC020000 		.word	.LC33
 659 00bc E0020000 		.word	.LC35
 660              		.cfi_endproc
 661              	.LFE4:
 662              		.size	on_amqp_management_execute_operation_complete, .-on_amqp_management_execute_operation_comple
 663              		.section	.text.add_string_key_value_pair_to_map,"ax",%progbits
 664              		.align	2
 665              		.code	16
 666              		.thumb_func
 667              		.type	add_string_key_value_pair_to_map, %function
 668              	add_string_key_value_pair_to_map:
 669              	.LFB1:
  43:Source\azure_iot_sdk\uamqp\src/cbs.c ****     int result;
 670              		.loc 1 43 0
 671              		.cfi_startproc
 672              		@ args = 0, pretend = 0, frame = 0
ARM GAS  C:\Users\Phuong\AppData\Local\Temp\ccGVgD3r.s 			page 18


 673              		@ frame_needed = 0, uses_anonymous_args = 0
 674              	.LVL97:
 675 0000 F0B5     		push	{r4, r5, r6, r7, lr}
 676              		.cfi_def_cfa_offset 20
 677              		.cfi_offset 4, -20
 678              		.cfi_offset 5, -16
 679              		.cfi_offset 6, -12
 680              		.cfi_offset 7, -8
 681              		.cfi_offset 14, -4
 682 0002 85B0     		sub	sp, sp, #20
 683              		.cfi_def_cfa_offset 40
 684 0004 0700     		movs	r7, r0
 685 0006 0D00     		movs	r5, r1
 686 0008 1600     		movs	r6, r2
  46:Source\azure_iot_sdk\uamqp\src/cbs.c ****     if (key_value == NULL)
 687              		.loc 1 46 0
 688 000a 0800     		movs	r0, r1
 689              	.LVL98:
 690 000c FFF7FEFF 		bl	amqpvalue_create_string
 691              	.LVL99:
 692 0010 041E     		subs	r4, r0, #0
 693              	.LVL100:
  47:Source\azure_iot_sdk\uamqp\src/cbs.c ****     {
 694              		.loc 1 47 0
 695 0012 0FD1     		bne	.L41
 696              	.LBB20:
  50:Source\azure_iot_sdk\uamqp\src/cbs.c ****         result = __FAILURE__;
 697              		.loc 1 50 0 discriminator 3
 698 0014 FFF7FEFF 		bl	xlogging_get_log_function
 699              	.LVL101:
 700 0018 041E     		subs	r4, r0, #0
 701              	.LVL102:
 702 001a 42D0     		beq	.L46
  50:Source\azure_iot_sdk\uamqp\src/cbs.c ****         result = __FAILURE__;
 703              		.loc 1 50 0 is_stmt 0 discriminator 4
 704 001c 0295     		str	r5, [sp, #8]
 705 001e 234B     		ldr	r3, .L50
 706 0020 0193     		str	r3, [sp, #4]
 707 0022 0123     		movs	r3, #1
 708 0024 0093     		str	r3, [sp]
 709 0026 3133     		adds	r3, r3, #49
 710 0028 214A     		ldr	r2, .L50+4
 711 002a 2249     		ldr	r1, .L50+8
 712 002c 0020     		movs	r0, #0
 713              	.LVL103:
 714 002e A047     		blx	r4
 715              	.LVL104:
 716              	.LBE20:
  51:Source\azure_iot_sdk\uamqp\src/cbs.c ****     }
 717              		.loc 1 51 0 is_stmt 1 discriminator 4
 718 0030 3326     		movs	r6, #51
 719              	.LVL105:
 720 0032 37E0     		b	.L42
 721              	.LVL106:
 722              	.L41:
 723              	.LBB21:
  55:Source\azure_iot_sdk\uamqp\src/cbs.c ****         if (value_value == NULL)
ARM GAS  C:\Users\Phuong\AppData\Local\Temp\ccGVgD3r.s 			page 19


 724              		.loc 1 55 0
 725 0034 3000     		movs	r0, r6
 726              	.LVL107:
 727 0036 FFF7FEFF 		bl	amqpvalue_create_string
 728              	.LVL108:
 729 003a 051E     		subs	r5, r0, #0
 730              	.LVL109:
  56:Source\azure_iot_sdk\uamqp\src/cbs.c ****         {
 731              		.loc 1 56 0
 732 003c 0FD1     		bne	.L43
 733              	.LBB22:
  59:Source\azure_iot_sdk\uamqp\src/cbs.c ****             result = __FAILURE__;
 734              		.loc 1 59 0 discriminator 3
 735 003e FFF7FEFF 		bl	xlogging_get_log_function
 736              	.LVL110:
 737 0042 051E     		subs	r5, r0, #0
 738              	.LVL111:
 739 0044 28D0     		beq	.L47
  59:Source\azure_iot_sdk\uamqp\src/cbs.c ****             result = __FAILURE__;
 740              		.loc 1 59 0 is_stmt 0 discriminator 4
 741 0046 0296     		str	r6, [sp, #8]
 742 0048 1B4B     		ldr	r3, .L50+12
 743 004a 0193     		str	r3, [sp, #4]
 744 004c 0123     		movs	r3, #1
 745 004e 0093     		str	r3, [sp]
 746 0050 3A33     		adds	r3, r3, #58
 747 0052 174A     		ldr	r2, .L50+4
 748 0054 1749     		ldr	r1, .L50+8
 749 0056 0020     		movs	r0, #0
 750              	.LVL112:
 751 0058 A847     		blx	r5
 752              	.LVL113:
 753              	.LBE22:
  60:Source\azure_iot_sdk\uamqp\src/cbs.c ****         }
 754              		.loc 1 60 0 is_stmt 1 discriminator 4
 755 005a 3C26     		movs	r6, #60
 756              	.LVL114:
 757 005c 1DE0     		b	.L44
 758              	.LVL115:
 759              	.L43:
  64:Source\azure_iot_sdk\uamqp\src/cbs.c ****             {
 760              		.loc 1 64 0
 761 005e 0200     		movs	r2, r0
 762 0060 2100     		movs	r1, r4
 763 0062 3800     		movs	r0, r7
 764              	.LVL116:
 765 0064 FFF7FEFF 		bl	amqpvalue_set_map_value
 766              	.LVL117:
 767 0068 0028     		cmp	r0, #0
 768 006a 0ED0     		beq	.L48
 769              	.LBB23:
  67:Source\azure_iot_sdk\uamqp\src/cbs.c ****                 result = __FAILURE__;
 770              		.loc 1 67 0 discriminator 3
 771 006c FFF7FEFF 		bl	xlogging_get_log_function
 772              	.LVL118:
 773 0070 061E     		subs	r6, r0, #0
 774              	.LVL119:
ARM GAS  C:\Users\Phuong\AppData\Local\Temp\ccGVgD3r.s 			page 20


 775 0072 0CD0     		beq	.L49
  67:Source\azure_iot_sdk\uamqp\src/cbs.c ****                 result = __FAILURE__;
 776              		.loc 1 67 0 is_stmt 0 discriminator 4
 777 0074 114B     		ldr	r3, .L50+16
 778 0076 0193     		str	r3, [sp, #4]
 779 0078 0123     		movs	r3, #1
 780 007a 0093     		str	r3, [sp]
 781 007c 4233     		adds	r3, r3, #66
 782 007e 0C4A     		ldr	r2, .L50+4
 783 0080 0C49     		ldr	r1, .L50+8
 784 0082 0020     		movs	r0, #0
 785              	.LVL120:
 786 0084 B047     		blx	r6
 787              	.LVL121:
 788              	.LBE23:
  68:Source\azure_iot_sdk\uamqp\src/cbs.c ****             }
 789              		.loc 1 68 0 is_stmt 1 discriminator 4
 790 0086 4426     		movs	r6, #68
 791              	.LVL122:
 792 0088 02E0     		b	.L45
 793              	.LVL123:
 794              	.L48:
  72:Source\azure_iot_sdk\uamqp\src/cbs.c ****             }
 795              		.loc 1 72 0
 796 008a 0026     		movs	r6, #0
 797              	.LVL124:
 798 008c 00E0     		b	.L45
 799              	.LVL125:
 800              	.L49:
  68:Source\azure_iot_sdk\uamqp\src/cbs.c ****             }
 801              		.loc 1 68 0
 802 008e 4426     		movs	r6, #68
 803              	.LVL126:
 804              	.L45:
  75:Source\azure_iot_sdk\uamqp\src/cbs.c ****         }
 805              		.loc 1 75 0
 806 0090 2800     		movs	r0, r5
 807 0092 FFF7FEFF 		bl	amqpvalue_destroy
 808              	.LVL127:
 809 0096 00E0     		b	.L44
 810              	.LVL128:
 811              	.L47:
  60:Source\azure_iot_sdk\uamqp\src/cbs.c ****         }
 812              		.loc 1 60 0
 813 0098 3C26     		movs	r6, #60
 814              	.LVL129:
 815              	.L44:
  78:Source\azure_iot_sdk\uamqp\src/cbs.c ****     }
 816              		.loc 1 78 0
 817 009a 2000     		movs	r0, r4
 818 009c FFF7FEFF 		bl	amqpvalue_destroy
 819              	.LVL130:
 820 00a0 00E0     		b	.L42
 821              	.LVL131:
 822              	.L46:
 823              	.LBE21:
  51:Source\azure_iot_sdk\uamqp\src/cbs.c ****     }
ARM GAS  C:\Users\Phuong\AppData\Local\Temp\ccGVgD3r.s 			page 21


 824              		.loc 1 51 0
 825 00a2 3326     		movs	r6, #51
 826              	.LVL132:
 827              	.L42:
  82:Source\azure_iot_sdk\uamqp\src/cbs.c **** 
 828              		.loc 1 82 0
 829 00a4 3000     		movs	r0, r6
 830 00a6 05B0     		add	sp, sp, #20
 831              		@ sp needed
 832              	.LVL133:
 833              	.LVL134:
 834 00a8 F0BD     		pop	{r4, r5, r6, r7, pc}
 835              	.L51:
 836 00aa C046     		.align	2
 837              	.L50:
 838 00ac 10030000 		.word	.LC39
 839 00b0 80000000 		.word	.LANCHOR1
 840 00b4 00000000 		.word	.LC1
 841 00b8 3C030000 		.word	.LC41
 842 00bc 68030000 		.word	.LC43
 843              		.cfi_endproc
 844              	.LFE1:
 845              		.size	add_string_key_value_pair_to_map, .-add_string_key_value_pair_to_map
 846              		.section	.text.cbs_create,"ax",%progbits
 847              		.align	2
 848              		.global	cbs_create
 849              		.code	16
 850              		.thumb_func
 851              		.type	cbs_create, %function
 852              	cbs_create:
 853              	.LFB5:
 260:Source\azure_iot_sdk\uamqp\src/cbs.c **** 
 261:Source\azure_iot_sdk\uamqp\src/cbs.c **** CBS_HANDLE cbs_create(SESSION_HANDLE session)
 262:Source\azure_iot_sdk\uamqp\src/cbs.c **** {
 854              		.loc 1 262 0
 855              		.cfi_startproc
 856              		@ args = 0, pretend = 0, frame = 0
 857              		@ frame_needed = 0, uses_anonymous_args = 0
 858              	.LVL135:
 859 0000 30B5     		push	{r4, r5, lr}
 860              		.cfi_def_cfa_offset 12
 861              		.cfi_offset 4, -12
 862              		.cfi_offset 5, -8
 863              		.cfi_offset 14, -4
 864 0002 83B0     		sub	sp, sp, #12
 865              		.cfi_def_cfa_offset 24
 866 0004 051E     		subs	r5, r0, #0
 263:Source\azure_iot_sdk\uamqp\src/cbs.c ****     CBS_INSTANCE* cbs;
 264:Source\azure_iot_sdk\uamqp\src/cbs.c **** 
 265:Source\azure_iot_sdk\uamqp\src/cbs.c ****     if (session == NULL)
 867              		.loc 1 265 0
 868 0006 11D1     		bne	.L53
 869              	.LBB24:
 266:Source\azure_iot_sdk\uamqp\src/cbs.c ****     {
 267:Source\azure_iot_sdk\uamqp\src/cbs.c ****         /* Codes_SRS_CBS_01_033: [** If `session` is NULL then `cbs_create` shall fail and return N
 268:Source\azure_iot_sdk\uamqp\src/cbs.c ****         LogError("NULL session handle");
 870              		.loc 1 268 0 discriminator 3
ARM GAS  C:\Users\Phuong\AppData\Local\Temp\ccGVgD3r.s 			page 22


 871 0008 FFF7FEFF 		bl	xlogging_get_log_function
 872              	.LVL136:
 873 000c 041E     		subs	r4, r0, #0
 874              	.LVL137:
 875 000e 00D1     		bne	.LCB951
 876 0010 86E0     		b	.L63	@long jump
 877              	.LCB951:
 878              		.loc 1 268 0 is_stmt 0 discriminator 4
 879 0012 454B     		ldr	r3, .L64
 880 0014 0193     		str	r3, [sp, #4]
 881 0016 0123     		movs	r3, #1
 882 0018 0093     		str	r3, [sp]
 883 001a 0C33     		adds	r3, r3, #12
 884 001c FF33     		adds	r3, r3, #255
 885 001e 434A     		ldr	r2, .L64+4
 886 0020 2432     		adds	r2, r2, #36
 887 0022 4349     		ldr	r1, .L64+8
 888 0024 0020     		movs	r0, #0
 889              	.LVL138:
 890 0026 A047     		blx	r4
 891              	.LVL139:
 892              	.LBE24:
 269:Source\azure_iot_sdk\uamqp\src/cbs.c ****         cbs = NULL;
 893              		.loc 1 269 0 is_stmt 1 discriminator 4
 894 0028 0024     		movs	r4, #0
 895              	.LVL140:
 896 002a 7AE0     		b	.L54
 897              	.LVL141:
 898              	.L53:
 270:Source\azure_iot_sdk\uamqp\src/cbs.c ****     }
 271:Source\azure_iot_sdk\uamqp\src/cbs.c ****     else
 272:Source\azure_iot_sdk\uamqp\src/cbs.c ****     {
 273:Source\azure_iot_sdk\uamqp\src/cbs.c ****         cbs = (CBS_INSTANCE*)malloc(sizeof(CBS_INSTANCE));
 899              		.loc 1 273 0
 900 002c 1C20     		movs	r0, #28
 901              	.LVL142:
 902 002e FFF7FEFF 		bl	malloc
 903              	.LVL143:
 904 0032 041E     		subs	r4, r0, #0
 905              	.LVL144:
 274:Source\azure_iot_sdk\uamqp\src/cbs.c ****         if (cbs == NULL)
 906              		.loc 1 274 0
 907 0034 0FD1     		bne	.L55
 908              	.LBB25:
 275:Source\azure_iot_sdk\uamqp\src/cbs.c ****         {
 276:Source\azure_iot_sdk\uamqp\src/cbs.c ****             /* Codes_SRS_CBS_01_076: [ If allocating memory for the new handle fails, `cbs_create` 
 277:Source\azure_iot_sdk\uamqp\src/cbs.c ****             LogError("Cannot allocate memory for cbs instance.");
 909              		.loc 1 277 0 discriminator 3
 910 0036 FFF7FEFF 		bl	xlogging_get_log_function
 911              	.LVL145:
 912 003a 051E     		subs	r5, r0, #0
 913              	.LVL146:
 914 003c 71D0     		beq	.L54
 915              		.loc 1 277 0 is_stmt 0 discriminator 4
 916 003e 3D4B     		ldr	r3, .L64+12
 917 0040 0193     		str	r3, [sp, #4]
 918 0042 0123     		movs	r3, #1
ARM GAS  C:\Users\Phuong\AppData\Local\Temp\ccGVgD3r.s 			page 23


 919 0044 0093     		str	r3, [sp]
 920 0046 1623     		movs	r3, #22
 921 0048 FF33     		adds	r3, r3, #255
 922 004a 384A     		ldr	r2, .L64+4
 923 004c 2432     		adds	r2, r2, #36
 924 004e 3849     		ldr	r1, .L64+8
 925 0050 0020     		movs	r0, #0
 926              	.LVL147:
 927 0052 A847     		blx	r5
 928              	.LVL148:
 929 0054 65E0     		b	.L54
 930              	.LVL149:
 931              	.L55:
 932              	.LBE25:
 278:Source\azure_iot_sdk\uamqp\src/cbs.c ****         }
 279:Source\azure_iot_sdk\uamqp\src/cbs.c ****         else
 280:Source\azure_iot_sdk\uamqp\src/cbs.c ****         {
 281:Source\azure_iot_sdk\uamqp\src/cbs.c ****             /* Codes_SRS_CBS_01_097: [ `cbs_create` shall create a singly linked list for pending o
 282:Source\azure_iot_sdk\uamqp\src/cbs.c ****             cbs->pending_operations = singlylinkedlist_create();
 933              		.loc 1 282 0 is_stmt 1
 934 0056 FFF7FEFF 		bl	singlylinkedlist_create
 935              	.LVL150:
 936 005a A061     		str	r0, [r4, #24]
 283:Source\azure_iot_sdk\uamqp\src/cbs.c ****             if (cbs->pending_operations == NULL)
 937              		.loc 1 283 0
 938 005c 0028     		cmp	r0, #0
 939 005e 0FD1     		bne	.L56
 940              	.LBB26:
 284:Source\azure_iot_sdk\uamqp\src/cbs.c ****             {
 285:Source\azure_iot_sdk\uamqp\src/cbs.c ****                 /* Codes_SRS_CBS_01_101: [ If `singlylinkedlist_create` fails, `cbs_create` shall f
 286:Source\azure_iot_sdk\uamqp\src/cbs.c ****                 LogError("Cannot allocate pending operations list.");
 941              		.loc 1 286 0 discriminator 3
 942 0060 FFF7FEFF 		bl	xlogging_get_log_function
 943              	.LVL151:
 944 0064 051E     		subs	r5, r0, #0
 945              	.LVL152:
 946 0066 56D0     		beq	.L57
 947              		.loc 1 286 0 is_stmt 0 discriminator 4
 948 0068 334B     		ldr	r3, .L64+16
 949 006a 0193     		str	r3, [sp, #4]
 950 006c 0123     		movs	r3, #1
 951 006e 0093     		str	r3, [sp]
 952 0070 1E33     		adds	r3, r3, #30
 953 0072 FF33     		adds	r3, r3, #255
 954 0074 2D4A     		ldr	r2, .L64+4
 955 0076 2432     		adds	r2, r2, #36
 956 0078 2D49     		ldr	r1, .L64+8
 957 007a 0020     		movs	r0, #0
 958              	.LVL153:
 959 007c A847     		blx	r5
 960              	.LVL154:
 961 007e 4AE0     		b	.L57
 962              	.LVL155:
 963              	.L56:
 964              	.LBE26:
 287:Source\azure_iot_sdk\uamqp\src/cbs.c ****             }
 288:Source\azure_iot_sdk\uamqp\src/cbs.c ****             else
ARM GAS  C:\Users\Phuong\AppData\Local\Temp\ccGVgD3r.s 			page 24


 289:Source\azure_iot_sdk\uamqp\src/cbs.c ****             {
 290:Source\azure_iot_sdk\uamqp\src/cbs.c ****                 /* Codes_SRS_CBS_01_034: [ `cbs_create` shall create an AMQP management handle by c
 291:Source\azure_iot_sdk\uamqp\src/cbs.c ****                 /* Codes_SRS_CBS_01_002: [ Tokens are communicated between AMQP peers by sending sp
 292:Source\azure_iot_sdk\uamqp\src/cbs.c ****                 /* Codes_SRS_CBS_01_003: [ The mechanism follows the scheme defined in the AMQP Man
 293:Source\azure_iot_sdk\uamqp\src/cbs.c ****                 cbs->amqp_management = amqp_management_create(session, "$cbs");
 965              		.loc 1 293 0 is_stmt 1
 966 0080 2E49     		ldr	r1, .L64+20
 967 0082 2800     		movs	r0, r5
 968 0084 FFF7FEFF 		bl	amqp_management_create
 969              	.LVL156:
 970 0088 2060     		str	r0, [r4]
 294:Source\azure_iot_sdk\uamqp\src/cbs.c ****                 if (cbs->amqp_management == NULL)
 971              		.loc 1 294 0
 972 008a 0028     		cmp	r0, #0
 973 008c 0FD1     		bne	.L58
 974              	.LBB27:
 295:Source\azure_iot_sdk\uamqp\src/cbs.c ****                 {
 296:Source\azure_iot_sdk\uamqp\src/cbs.c ****                     LogError("PSOC6--Cannot create AMQP management instance for the $cbs node.--PSO
 975              		.loc 1 296 0 discriminator 3
 976 008e FFF7FEFF 		bl	xlogging_get_log_function
 977              	.LVL157:
 978 0092 051E     		subs	r5, r0, #0
 979              	.LVL158:
 980 0094 3CD0     		beq	.L59
 981              		.loc 1 296 0 is_stmt 0 discriminator 4
 982 0096 2A4B     		ldr	r3, .L64+24
 983 0098 0193     		str	r3, [sp, #4]
 984 009a 0123     		movs	r3, #1
 985 009c 0093     		str	r3, [sp]
 986 009e 2833     		adds	r3, r3, #40
 987 00a0 FF33     		adds	r3, r3, #255
 988 00a2 224A     		ldr	r2, .L64+4
 989 00a4 2432     		adds	r2, r2, #36
 990 00a6 2249     		ldr	r1, .L64+8
 991 00a8 0020     		movs	r0, #0
 992              	.LVL159:
 993 00aa A847     		blx	r5
 994              	.LVL160:
 995 00ac 30E0     		b	.L59
 996              	.LVL161:
 997              	.L58:
 998              	.LBE27:
 297:Source\azure_iot_sdk\uamqp\src/cbs.c ****                 }
 298:Source\azure_iot_sdk\uamqp\src/cbs.c ****                 else
 299:Source\azure_iot_sdk\uamqp\src/cbs.c ****                 {
 300:Source\azure_iot_sdk\uamqp\src/cbs.c ****                     /* Codes_SRS_CBS_01_116: [ If setting the override key names fails, then `cbs_c
 301:Source\azure_iot_sdk\uamqp\src/cbs.c ****                     if (amqp_management_set_override_status_code_key_name(cbs->amqp_management, "st
 999              		.loc 1 301 0 is_stmt 1
 1000 00ae 2549     		ldr	r1, .L64+28
 1001 00b0 FFF7FEFF 		bl	amqp_management_set_override_status_code_key_name
 1002              	.LVL162:
 1003 00b4 0028     		cmp	r0, #0
 1004 00b6 0FD0     		beq	.L60
 1005              	.LBB28:
 302:Source\azure_iot_sdk\uamqp\src/cbs.c ****                     {
 303:Source\azure_iot_sdk\uamqp\src/cbs.c ****                         /* Codes_SRS_CBS_01_116: [ If setting the override key names fails, then `c
 304:Source\azure_iot_sdk\uamqp\src/cbs.c ****                         LogError("Cannot set the override status code key name");
ARM GAS  C:\Users\Phuong\AppData\Local\Temp\ccGVgD3r.s 			page 25


 1006              		.loc 1 304 0 discriminator 3
 1007 00b8 FFF7FEFF 		bl	xlogging_get_log_function
 1008              	.LVL163:
 1009 00bc 051E     		subs	r5, r0, #0
 1010              	.LVL164:
 1011 00be 24D0     		beq	.L61
 1012              		.loc 1 304 0 is_stmt 0 discriminator 4
 1013 00c0 214B     		ldr	r3, .L64+32
 1014 00c2 0193     		str	r3, [sp, #4]
 1015 00c4 0123     		movs	r3, #1
 1016 00c6 0093     		str	r3, [sp]
 1017 00c8 3033     		adds	r3, r3, #48
 1018 00ca FF33     		adds	r3, r3, #255
 1019 00cc 174A     		ldr	r2, .L64+4
 1020 00ce 2432     		adds	r2, r2, #36
 1021 00d0 1749     		ldr	r1, .L64+8
 1022 00d2 0020     		movs	r0, #0
 1023              	.LVL165:
 1024 00d4 A847     		blx	r5
 1025              	.LVL166:
 1026 00d6 18E0     		b	.L61
 1027              	.LVL167:
 1028              	.L60:
 1029              	.LBE28:
 305:Source\azure_iot_sdk\uamqp\src/cbs.c ****                     }
 306:Source\azure_iot_sdk\uamqp\src/cbs.c ****                     else
 307:Source\azure_iot_sdk\uamqp\src/cbs.c ****                     {
 308:Source\azure_iot_sdk\uamqp\src/cbs.c ****                         /* Codes_SRS_CBS_01_118: [ `cbs_create` shall set the override status descr
 309:Source\azure_iot_sdk\uamqp\src/cbs.c ****                         if (amqp_management_set_override_status_description_key_name(cbs->amqp_mana
 1030              		.loc 1 309 0 is_stmt 1
 1031 00d8 1C49     		ldr	r1, .L64+36
 1032 00da 2068     		ldr	r0, [r4]
 1033 00dc FFF7FEFF 		bl	amqp_management_set_override_status_description_key_name
 1034              	.LVL168:
 1035 00e0 0028     		cmp	r0, #0
 1036 00e2 0FD0     		beq	.L62
 1037              	.LBB29:
 310:Source\azure_iot_sdk\uamqp\src/cbs.c ****                         {
 311:Source\azure_iot_sdk\uamqp\src/cbs.c ****                             /* Codes_SRS_CBS_01_116: [ If setting the override key names fails, the
 312:Source\azure_iot_sdk\uamqp\src/cbs.c ****                             LogError("Cannot set the override status description key name");
 1038              		.loc 1 312 0 discriminator 3
 1039 00e4 FFF7FEFF 		bl	xlogging_get_log_function
 1040              	.LVL169:
 1041 00e8 051E     		subs	r5, r0, #0
 1042              	.LVL170:
 1043 00ea 0ED0     		beq	.L61
 1044              		.loc 1 312 0 is_stmt 0 discriminator 4
 1045 00ec 184B     		ldr	r3, .L64+40
 1046 00ee 0193     		str	r3, [sp, #4]
 1047 00f0 0123     		movs	r3, #1
 1048 00f2 0093     		str	r3, [sp]
 1049 00f4 3833     		adds	r3, r3, #56
 1050 00f6 FF33     		adds	r3, r3, #255
 1051 00f8 0C4A     		ldr	r2, .L64+4
 1052 00fa 2432     		adds	r2, r2, #36
 1053 00fc 0C49     		ldr	r1, .L64+8
 1054 00fe 0020     		movs	r0, #0
ARM GAS  C:\Users\Phuong\AppData\Local\Temp\ccGVgD3r.s 			page 26


 1055              	.LVL171:
 1056 0100 A847     		blx	r5
 1057              	.LVL172:
 1058 0102 02E0     		b	.L61
 1059              	.LVL173:
 1060              	.L62:
 1061              	.LBE29:
 313:Source\azure_iot_sdk\uamqp\src/cbs.c ****                         }
 314:Source\azure_iot_sdk\uamqp\src/cbs.c ****                         else
 315:Source\azure_iot_sdk\uamqp\src/cbs.c ****                         {
 316:Source\azure_iot_sdk\uamqp\src/cbs.c ****                             /* Codes_SRS_CBS_01_001: [ `cbs_create` shall create a new CBS instance
 317:Source\azure_iot_sdk\uamqp\src/cbs.c ****                             cbs->cbs_state = CBS_STATE_CLOSED;
 1062              		.loc 1 317 0 is_stmt 1
 1063 0104 0023     		movs	r3, #0
 1064 0106 2371     		strb	r3, [r4, #4]
 318:Source\azure_iot_sdk\uamqp\src/cbs.c **** 
 319:Source\azure_iot_sdk\uamqp\src/cbs.c ****                             goto all_ok;
 1065              		.loc 1 319 0
 1066 0108 0BE0     		b	.L54
 1067              	.LVL174:
 1068              	.L61:
 320:Source\azure_iot_sdk\uamqp\src/cbs.c ****                         }
 321:Source\azure_iot_sdk\uamqp\src/cbs.c ****                     }
 322:Source\azure_iot_sdk\uamqp\src/cbs.c **** 
 323:Source\azure_iot_sdk\uamqp\src/cbs.c ****                     amqp_management_destroy(cbs->amqp_management);
 1069              		.loc 1 323 0
 1070 010a 2068     		ldr	r0, [r4]
 1071 010c FFF7FEFF 		bl	amqp_management_destroy
 1072              	.LVL175:
 1073              	.L59:
 324:Source\azure_iot_sdk\uamqp\src/cbs.c ****                 }
 325:Source\azure_iot_sdk\uamqp\src/cbs.c **** 
 326:Source\azure_iot_sdk\uamqp\src/cbs.c ****                 singlylinkedlist_destroy(cbs->pending_operations);
 1074              		.loc 1 326 0
 1075 0110 A069     		ldr	r0, [r4, #24]
 1076 0112 FFF7FEFF 		bl	singlylinkedlist_destroy
 1077              	.LVL176:
 1078              	.L57:
 327:Source\azure_iot_sdk\uamqp\src/cbs.c ****             }
 328:Source\azure_iot_sdk\uamqp\src/cbs.c **** 
 329:Source\azure_iot_sdk\uamqp\src/cbs.c ****             free(cbs);
 1079              		.loc 1 329 0
 1080 0116 2000     		movs	r0, r4
 1081 0118 FFF7FEFF 		bl	free
 1082              	.LVL177:
 330:Source\azure_iot_sdk\uamqp\src/cbs.c ****             cbs = NULL;
 1083              		.loc 1 330 0
 1084 011c 0024     		movs	r4, #0
 1085 011e 00E0     		b	.L54
 1086              	.LVL178:
 1087              	.L63:
 269:Source\azure_iot_sdk\uamqp\src/cbs.c ****     }
 1088              		.loc 1 269 0
 1089 0120 0024     		movs	r4, #0
 1090              	.LVL179:
 1091              	.L54:
 331:Source\azure_iot_sdk\uamqp\src/cbs.c ****         }
ARM GAS  C:\Users\Phuong\AppData\Local\Temp\ccGVgD3r.s 			page 27


 332:Source\azure_iot_sdk\uamqp\src/cbs.c ****     }
 333:Source\azure_iot_sdk\uamqp\src/cbs.c **** 
 334:Source\azure_iot_sdk\uamqp\src/cbs.c **** all_ok:
 335:Source\azure_iot_sdk\uamqp\src/cbs.c ****     return cbs;
 336:Source\azure_iot_sdk\uamqp\src/cbs.c **** }
 1092              		.loc 1 336 0
 1093 0122 2000     		movs	r0, r4
 1094 0124 03B0     		add	sp, sp, #12
 1095              		@ sp needed
 1096              	.LVL180:
 1097 0126 30BD     		pop	{r4, r5, pc}
 1098              	.L65:
 1099              		.align	2
 1100              	.L64:
 1101 0128 94030000 		.word	.LC47
 1102 012c 80000000 		.word	.LANCHOR1
 1103 0130 00000000 		.word	.LC1
 1104 0134 A8030000 		.word	.LC49
 1105 0138 D4030000 		.word	.LC51
 1106 013c 00040000 		.word	.LC53
 1107 0140 08040000 		.word	.LC55
 1108 0144 50040000 		.word	.LC57
 1109 0148 5C040000 		.word	.LC59
 1110 014c 8C040000 		.word	.LC61
 1111 0150 A0040000 		.word	.LC63
 1112              		.cfi_endproc
 1113              	.LFE5:
 1114              		.size	cbs_create, .-cbs_create
 1115              		.section	.text.cbs_destroy,"ax",%progbits
 1116              		.align	2
 1117              		.global	cbs_destroy
 1118              		.code	16
 1119              		.thumb_func
 1120              		.type	cbs_destroy, %function
 1121              	cbs_destroy:
 1122              	.LFB6:
 337:Source\azure_iot_sdk\uamqp\src/cbs.c **** 
 338:Source\azure_iot_sdk\uamqp\src/cbs.c **** void cbs_destroy(CBS_HANDLE cbs)
 339:Source\azure_iot_sdk\uamqp\src/cbs.c **** {
 1123              		.loc 1 339 0
 1124              		.cfi_startproc
 1125              		@ args = 0, pretend = 0, frame = 0
 1126              		@ frame_needed = 0, uses_anonymous_args = 0
 1127              	.LVL181:
 1128 0000 F0B5     		push	{r4, r5, r6, r7, lr}
 1129              		.cfi_def_cfa_offset 20
 1130              		.cfi_offset 4, -20
 1131              		.cfi_offset 5, -16
 1132              		.cfi_offset 6, -12
 1133              		.cfi_offset 7, -8
 1134              		.cfi_offset 14, -4
 1135 0002 83B0     		sub	sp, sp, #12
 1136              		.cfi_def_cfa_offset 32
 1137 0004 061E     		subs	r6, r0, #0
 340:Source\azure_iot_sdk\uamqp\src/cbs.c ****     if (cbs == NULL)
 1138              		.loc 1 340 0
 1139 0006 0FD1     		bne	.L67
ARM GAS  C:\Users\Phuong\AppData\Local\Temp\ccGVgD3r.s 			page 28


 1140              	.LBB30:
 341:Source\azure_iot_sdk\uamqp\src/cbs.c ****     {
 342:Source\azure_iot_sdk\uamqp\src/cbs.c ****         /* Codes_SRS_CBS_01_037: [ If `cbs` is NULL, `cbs_destroy` shall do nothing. ]*/
 343:Source\azure_iot_sdk\uamqp\src/cbs.c ****         LogError("NULL cbs handle");
 1141              		.loc 1 343 0 discriminator 3
 1142 0008 FFF7FEFF 		bl	xlogging_get_log_function
 1143              	.LVL182:
 1144 000c 041E     		subs	r4, r0, #0
 1145              	.LVL183:
 1146 000e 41D0     		beq	.L66
 1147              		.loc 1 343 0 is_stmt 0 discriminator 4
 1148 0010 214B     		ldr	r3, .L74
 1149 0012 0193     		str	r3, [sp, #4]
 1150 0014 0123     		movs	r3, #1
 1151 0016 0093     		str	r3, [sp]
 1152 0018 5823     		movs	r3, #88
 1153 001a FF33     		adds	r3, r3, #255
 1154 001c 1F4A     		ldr	r2, .L74+4
 1155 001e 3032     		adds	r2, r2, #48
 1156 0020 1F49     		ldr	r1, .L74+8
 1157 0022 0020     		movs	r0, #0
 1158              	.LVL184:
 1159 0024 A047     		blx	r4
 1160              	.LVL185:
 1161 0026 35E0     		b	.L66
 1162              	.LVL186:
 1163              	.L67:
 1164              	.LBE30:
 1165              	.LBB31:
 1166              	.LBB32:
 344:Source\azure_iot_sdk\uamqp\src/cbs.c ****     }
 345:Source\azure_iot_sdk\uamqp\src/cbs.c ****     else
 346:Source\azure_iot_sdk\uamqp\src/cbs.c ****     {
 347:Source\azure_iot_sdk\uamqp\src/cbs.c ****         LIST_ITEM_HANDLE first_pending_operation;
 348:Source\azure_iot_sdk\uamqp\src/cbs.c **** 
 349:Source\azure_iot_sdk\uamqp\src/cbs.c ****         LogError("PSOC6---cbs_destroy---PSOC6");
 1167              		.loc 1 349 0 is_stmt 1 discriminator 3
 1168 0028 FFF7FEFF 		bl	xlogging_get_log_function
 1169              	.LVL187:
 1170 002c 041E     		subs	r4, r0, #0
 1171              	.LVL188:
 1172 002e 0AD0     		beq	.L69
 1173              		.loc 1 349 0 is_stmt 0 discriminator 4
 1174 0030 1C4B     		ldr	r3, .L74+12
 1175 0032 0193     		str	r3, [sp, #4]
 1176 0034 0123     		movs	r3, #1
 1177 0036 0093     		str	r3, [sp]
 1178 0038 5E23     		movs	r3, #94
 1179 003a FF33     		adds	r3, r3, #255
 1180 003c 174A     		ldr	r2, .L74+4
 1181 003e 3032     		adds	r2, r2, #48
 1182 0040 1749     		ldr	r1, .L74+8
 1183 0042 0020     		movs	r0, #0
 1184              	.LVL189:
 1185 0044 A047     		blx	r4
 1186              	.LVL190:
 1187              	.L69:
ARM GAS  C:\Users\Phuong\AppData\Local\Temp\ccGVgD3r.s 			page 29


 1188              	.LBE32:
 350:Source\azure_iot_sdk\uamqp\src/cbs.c ****         /* Codes_SRS_CBS_01_100: [ If the CBS instance is not closed, all actions performed by `cbs
 351:Source\azure_iot_sdk\uamqp\src/cbs.c ****         if (cbs->cbs_state != CBS_STATE_CLOSED)
 1189              		.loc 1 351 0 is_stmt 1
 1190 0046 3379     		ldrb	r3, [r6, #4]
 1191 0048 002B     		cmp	r3, #0
 1192 004a 02D0     		beq	.L70
 352:Source\azure_iot_sdk\uamqp\src/cbs.c ****         {
 353:Source\azure_iot_sdk\uamqp\src/cbs.c ****             (void)amqp_management_close(cbs->amqp_management);
 1193              		.loc 1 353 0
 1194 004c 3068     		ldr	r0, [r6]
 1195 004e FFF7FEFF 		bl	amqp_management_close
 1196              	.LVL191:
 1197              	.L70:
 354:Source\azure_iot_sdk\uamqp\src/cbs.c ****         }
 355:Source\azure_iot_sdk\uamqp\src/cbs.c **** 
 356:Source\azure_iot_sdk\uamqp\src/cbs.c ****         /* Codes_SRS_CBS_01_036: [ `cbs_destroy` shall free all resources associated with the handl
 357:Source\azure_iot_sdk\uamqp\src/cbs.c ****         /* Codes_SRS_CBS_01_038: [ `cbs_destroy` shall free the AMQP management handle created in `
 358:Source\azure_iot_sdk\uamqp\src/cbs.c ****         amqp_management_destroy(cbs->amqp_management);
 1198              		.loc 1 358 0
 1199 0052 3068     		ldr	r0, [r6]
 1200 0054 FFF7FEFF 		bl	amqp_management_destroy
 1201              	.LVL192:
 359:Source\azure_iot_sdk\uamqp\src/cbs.c **** 
 360:Source\azure_iot_sdk\uamqp\src/cbs.c ****         /* Codes_SRS_CBS_01_099: [ All pending operations shall be freed. ]*/
 361:Source\azure_iot_sdk\uamqp\src/cbs.c ****         while ((first_pending_operation = singlylinkedlist_get_head_item(cbs->pending_operations)) 
 1202              		.loc 1 361 0
 1203 0058 11E0     		b	.L71
 1204              	.LVL193:
 1205              	.L73:
 1206              	.LBB33:
 362:Source\azure_iot_sdk\uamqp\src/cbs.c ****         {
 363:Source\azure_iot_sdk\uamqp\src/cbs.c ****             CBS_OPERATION* pending_operation = (CBS_OPERATION*)singlylinkedlist_item_get_value(firs
 1207              		.loc 1 363 0
 1208 005a 2000     		movs	r0, r4
 1209              	.LVL194:
 1210 005c FFF7FEFF 		bl	singlylinkedlist_item_get_value
 1211              	.LVL195:
 1212 0060 051E     		subs	r5, r0, #0
 1213              	.LVL196:
 364:Source\azure_iot_sdk\uamqp\src/cbs.c ****             if (pending_operation != NULL)
 1214              		.loc 1 364 0
 1215 0062 08D0     		beq	.L72
 365:Source\azure_iot_sdk\uamqp\src/cbs.c ****             {
 366:Source\azure_iot_sdk\uamqp\src/cbs.c ****                 pending_operation->on_cbs_operation_complete(pending_operation->on_cbs_operation_co
 1216              		.loc 1 366 0
 1217 0064 0023     		movs	r3, #0
 1218 0066 0022     		movs	r2, #0
 1219 0068 0321     		movs	r1, #3
 1220 006a 4068     		ldr	r0, [r0, #4]
 1221              	.LVL197:
 1222 006c 2F68     		ldr	r7, [r5]
 1223 006e B847     		blx	r7
 1224              	.LVL198:
 367:Source\azure_iot_sdk\uamqp\src/cbs.c ****                 free(pending_operation);
 1225              		.loc 1 367 0
 1226 0070 2800     		movs	r0, r5
ARM GAS  C:\Users\Phuong\AppData\Local\Temp\ccGVgD3r.s 			page 30


 1227 0072 FFF7FEFF 		bl	free
 1228              	.LVL199:
 1229              	.L72:
 368:Source\azure_iot_sdk\uamqp\src/cbs.c ****             }
 369:Source\azure_iot_sdk\uamqp\src/cbs.c **** 
 370:Source\azure_iot_sdk\uamqp\src/cbs.c ****             singlylinkedlist_remove(cbs->pending_operations, first_pending_operation);
 1230              		.loc 1 370 0
 1231 0076 2100     		movs	r1, r4
 1232 0078 B069     		ldr	r0, [r6, #24]
 1233 007a FFF7FEFF 		bl	singlylinkedlist_remove
 1234              	.LVL200:
 1235              	.L71:
 1236              	.LBE33:
 361:Source\azure_iot_sdk\uamqp\src/cbs.c ****         {
 1237              		.loc 1 361 0
 1238 007e B069     		ldr	r0, [r6, #24]
 1239 0080 FFF7FEFF 		bl	singlylinkedlist_get_head_item
 1240              	.LVL201:
 1241 0084 041E     		subs	r4, r0, #0
 1242              	.LVL202:
 1243 0086 E8D1     		bne	.L73
 371:Source\azure_iot_sdk\uamqp\src/cbs.c ****         }
 372:Source\azure_iot_sdk\uamqp\src/cbs.c **** 
 373:Source\azure_iot_sdk\uamqp\src/cbs.c ****         /* Codes_SRS_CBS_01_098: [ `cbs_destroy` shall free the pending operations list by calling 
 374:Source\azure_iot_sdk\uamqp\src/cbs.c ****         singlylinkedlist_destroy(cbs->pending_operations);
 1244              		.loc 1 374 0
 1245 0088 B069     		ldr	r0, [r6, #24]
 1246              	.LVL203:
 1247 008a FFF7FEFF 		bl	singlylinkedlist_destroy
 1248              	.LVL204:
 375:Source\azure_iot_sdk\uamqp\src/cbs.c ****         free(cbs);
 1249              		.loc 1 375 0
 1250 008e 3000     		movs	r0, r6
 1251 0090 FFF7FEFF 		bl	free
 1252              	.LVL205:
 1253              	.L66:
 1254              	.LBE31:
 376:Source\azure_iot_sdk\uamqp\src/cbs.c ****     }
 377:Source\azure_iot_sdk\uamqp\src/cbs.c **** }
 1255              		.loc 1 377 0
 1256 0094 03B0     		add	sp, sp, #12
 1257              		@ sp needed
 1258              	.LVL206:
 1259 0096 F0BD     		pop	{r4, r5, r6, r7, pc}
 1260              	.L75:
 1261              		.align	2
 1262              	.L74:
 1263 0098 D4040000 		.word	.LC67
 1264 009c 80000000 		.word	.LANCHOR1
 1265 00a0 00000000 		.word	.LC1
 1266 00a4 E4040000 		.word	.LC69
 1267              		.cfi_endproc
 1268              	.LFE6:
 1269              		.size	cbs_destroy, .-cbs_destroy
 1270              		.section	.text.cbs_open_async,"ax",%progbits
 1271              		.align	2
 1272              		.global	cbs_open_async
ARM GAS  C:\Users\Phuong\AppData\Local\Temp\ccGVgD3r.s 			page 31


 1273              		.code	16
 1274              		.thumb_func
 1275              		.type	cbs_open_async, %function
 1276              	cbs_open_async:
 1277              	.LFB7:
 378:Source\azure_iot_sdk\uamqp\src/cbs.c **** 
 379:Source\azure_iot_sdk\uamqp\src/cbs.c **** int cbs_open_async(CBS_HANDLE cbs, ON_CBS_OPEN_COMPLETE on_cbs_open_complete, void* on_cbs_open_com
 380:Source\azure_iot_sdk\uamqp\src/cbs.c **** {
 1278              		.loc 1 380 0
 1279              		.cfi_startproc
 1280              		@ args = 4, pretend = 0, frame = 8
 1281              		@ frame_needed = 0, uses_anonymous_args = 0
 1282              	.LVL207:
 1283 0000 F0B5     		push	{r4, r5, r6, r7, lr}
 1284              		.cfi_def_cfa_offset 20
 1285              		.cfi_offset 4, -20
 1286              		.cfi_offset 5, -16
 1287              		.cfi_offset 6, -12
 1288              		.cfi_offset 7, -8
 1289              		.cfi_offset 14, -4
 1290 0002 89B0     		sub	sp, sp, #36
 1291              		.cfi_def_cfa_offset 56
 1292 0004 0400     		movs	r4, r0
 1293 0006 0E00     		movs	r6, r1
 1294 0008 0792     		str	r2, [sp, #28]
 1295 000a 1F00     		movs	r7, r3
 1296              	.LBB34:
 381:Source\azure_iot_sdk\uamqp\src/cbs.c ****     int result;
 382:Source\azure_iot_sdk\uamqp\src/cbs.c **** 
 383:Source\azure_iot_sdk\uamqp\src/cbs.c ****     LogError("PSOC6---DEBUGGING_cbs_open_async---PSOC6");
 1297              		.loc 1 383 0
 1298 000c FFF7FEFF 		bl	xlogging_get_log_function
 1299              	.LVL208:
 1300 0010 051E     		subs	r5, r0, #0
 1301              	.LVL209:
 1302 0012 0AD0     		beq	.L77
 1303              		.loc 1 383 0 is_stmt 0 discriminator 4
 1304 0014 3D4B     		ldr	r3, .L87
 1305 0016 0193     		str	r3, [sp, #4]
 1306 0018 0123     		movs	r3, #1
 1307 001a 0093     		str	r3, [sp]
 1308 001c 8023     		movs	r3, #128
 1309 001e FF33     		adds	r3, r3, #255
 1310 0020 3B4A     		ldr	r2, .L87+4
 1311 0022 3C32     		adds	r2, r2, #60
 1312 0024 3B49     		ldr	r1, .L87+8
 1313 0026 0020     		movs	r0, #0
 1314              	.LVL210:
 1315 0028 A847     		blx	r5
 1316              	.LVL211:
 1317              	.L77:
 1318              	.LBE34:
 384:Source\azure_iot_sdk\uamqp\src/cbs.c ****     /* Codes_SRS_CBS_01_042: [ `on_cbs_open_complete_context` and `on_cbs_error_context` shall be a
 385:Source\azure_iot_sdk\uamqp\src/cbs.c ****     if ((cbs == NULL) ||
 1319              		.loc 1 385 0 is_stmt 1
 1320 002a 002C     		cmp	r4, #0
 1321 002c 03D0     		beq	.L78
ARM GAS  C:\Users\Phuong\AppData\Local\Temp\ccGVgD3r.s 			page 32


 1322              		.loc 1 385 0 is_stmt 0 discriminator 1
 1323 002e 002E     		cmp	r6, #0
 1324 0030 01D0     		beq	.L78
 386:Source\azure_iot_sdk\uamqp\src/cbs.c ****         (on_cbs_open_complete == NULL) ||
 1325              		.loc 1 386 0 is_stmt 1
 1326 0032 002F     		cmp	r7, #0
 1327 0034 14D1     		bne	.L79
 1328              	.L78:
 1329              	.LBB35:
 387:Source\azure_iot_sdk\uamqp\src/cbs.c ****         (on_cbs_error == NULL))
 388:Source\azure_iot_sdk\uamqp\src/cbs.c ****     {
 389:Source\azure_iot_sdk\uamqp\src/cbs.c ****         /* Codes_SRS_CBS_01_040: [ If any of the arguments `cbs`, `on_cbs_open_complete` or `on_cbs
 390:Source\azure_iot_sdk\uamqp\src/cbs.c ****         LogError("Bad arguments: cbs = %p, on_cbs_open_complete = %p, on_cbs_error = %p",
 1330              		.loc 1 390 0 discriminator 3
 1331 0036 FFF7FEFF 		bl	xlogging_get_log_function
 1332              	.LVL212:
 1333 003a 051E     		subs	r5, r0, #0
 1334              	.LVL213:
 1335 003c 59D0     		beq	.L83
 1336              		.loc 1 390 0 is_stmt 0 discriminator 4
 1337 003e 0497     		str	r7, [sp, #16]
 1338 0040 0396     		str	r6, [sp, #12]
 1339 0042 0294     		str	r4, [sp, #8]
 1340 0044 344B     		ldr	r3, .L87+12
 1341 0046 0193     		str	r3, [sp, #4]
 1342 0048 0123     		movs	r3, #1
 1343 004a 0093     		str	r3, [sp]
 1344 004c 8823     		movs	r3, #136
 1345 004e FF33     		adds	r3, r3, #255
 1346 0050 2F4A     		ldr	r2, .L87+4
 1347 0052 3C32     		adds	r2, r2, #60
 1348 0054 2F49     		ldr	r1, .L87+8
 1349 0056 0020     		movs	r0, #0
 1350              	.LVL214:
 1351 0058 A847     		blx	r5
 1352              	.LVL215:
 1353              	.LBE35:
 391:Source\azure_iot_sdk\uamqp\src/cbs.c ****             cbs, on_cbs_open_complete, on_cbs_error);
 392:Source\azure_iot_sdk\uamqp\src/cbs.c ****         result = __FAILURE__;
 1354              		.loc 1 392 0 is_stmt 1 discriminator 4
 1355 005a C420     		movs	r0, #196
 1356 005c 4000     		lsls	r0, r0, #1
 1357 005e 52E0     		b	.L80
 1358              	.LVL216:
 1359              	.L79:
 393:Source\azure_iot_sdk\uamqp\src/cbs.c ****     }
 394:Source\azure_iot_sdk\uamqp\src/cbs.c ****     else if (cbs->cbs_state != CBS_STATE_CLOSED)
 1360              		.loc 1 394 0
 1361 0060 2379     		ldrb	r3, [r4, #4]
 1362 0062 002B     		cmp	r3, #0
 1363 0064 11D0     		beq	.L81
 1364              	.LBB36:
 395:Source\azure_iot_sdk\uamqp\src/cbs.c ****     {
 396:Source\azure_iot_sdk\uamqp\src/cbs.c ****         /* Codes_SRS_CBS_01_043: [ `cbs_open_async` while already open or opening shall fail and re
 397:Source\azure_iot_sdk\uamqp\src/cbs.c ****         LogError("cbs instance already open");
 1365              		.loc 1 397 0 discriminator 3
 1366 0066 FFF7FEFF 		bl	xlogging_get_log_function
ARM GAS  C:\Users\Phuong\AppData\Local\Temp\ccGVgD3r.s 			page 33


 1367              	.LVL217:
 1368 006a 041E     		subs	r4, r0, #0
 1369              	.LVL218:
 1370 006c 44D0     		beq	.L84
 1371              		.loc 1 397 0 is_stmt 0 discriminator 4
 1372 006e 2B4B     		ldr	r3, .L87+16
 1373 0070 0193     		str	r3, [sp, #4]
 1374 0072 0123     		movs	r3, #1
 1375 0074 0093     		str	r3, [sp]
 1376 0076 8E23     		movs	r3, #142
 1377 0078 FF33     		adds	r3, r3, #255
 1378 007a 254A     		ldr	r2, .L87+4
 1379 007c 3C32     		adds	r2, r2, #60
 1380 007e 2549     		ldr	r1, .L87+8
 1381 0080 0020     		movs	r0, #0
 1382              	.LVL219:
 1383 0082 A047     		blx	r4
 1384              	.LVL220:
 1385              	.LBE36:
 398:Source\azure_iot_sdk\uamqp\src/cbs.c ****         result = __FAILURE__;
 1386              		.loc 1 398 0 is_stmt 1 discriminator 4
 1387 0084 C720     		movs	r0, #199
 1388 0086 4000     		lsls	r0, r0, #1
 1389 0088 3DE0     		b	.L80
 1390              	.LVL221:
 1391              	.L81:
 399:Source\azure_iot_sdk\uamqp\src/cbs.c ****     }
 400:Source\azure_iot_sdk\uamqp\src/cbs.c ****     else
 401:Source\azure_iot_sdk\uamqp\src/cbs.c ****     {
 402:Source\azure_iot_sdk\uamqp\src/cbs.c ****         /* Codes_SRS_CBS_01_078: [ The cbs instance shall be considered OPENING until the `on_amqp_
 403:Source\azure_iot_sdk\uamqp\src/cbs.c ****         cbs->cbs_state = CBS_STATE_OPENING;
 1392              		.loc 1 403 0
 1393 008a 0123     		movs	r3, #1
 1394 008c 2371     		strb	r3, [r4, #4]
 404:Source\azure_iot_sdk\uamqp\src/cbs.c ****         cbs->on_cbs_open_complete = on_cbs_open_complete;
 1395              		.loc 1 404 0
 1396 008e A660     		str	r6, [r4, #8]
 405:Source\azure_iot_sdk\uamqp\src/cbs.c ****         cbs->on_cbs_open_complete_context = on_cbs_open_complete_context;
 1397              		.loc 1 405 0
 1398 0090 079B     		ldr	r3, [sp, #28]
 1399 0092 E360     		str	r3, [r4, #12]
 406:Source\azure_iot_sdk\uamqp\src/cbs.c ****         cbs->on_cbs_error = on_cbs_error;
 1400              		.loc 1 406 0
 1401 0094 2761     		str	r7, [r4, #16]
 407:Source\azure_iot_sdk\uamqp\src/cbs.c ****         cbs->on_cbs_error_context = on_cbs_error_context;
 1402              		.loc 1 407 0
 1403 0096 0E9B     		ldr	r3, [sp, #56]
 1404 0098 6361     		str	r3, [r4, #20]
 408:Source\azure_iot_sdk\uamqp\src/cbs.c **** 
 409:Source\azure_iot_sdk\uamqp\src/cbs.c ****         /* Codes_SRS_CBS_01_039: [ `cbs_open_async` shall open the cbs communication by calling `am
 410:Source\azure_iot_sdk\uamqp\src/cbs.c ****         if (amqp_management_open_async(cbs->amqp_management, on_underlying_amqp_management_open_com
 1405              		.loc 1 410 0
 1406 009a 2068     		ldr	r0, [r4]
 1407 009c 0094     		str	r4, [sp]
 1408 009e 204B     		ldr	r3, .L87+20
 1409 00a0 2200     		movs	r2, r4
 1410 00a2 2049     		ldr	r1, .L87+24
ARM GAS  C:\Users\Phuong\AppData\Local\Temp\ccGVgD3r.s 			page 34


 1411 00a4 FFF7FEFF 		bl	amqp_management_open_async
 1412              	.LVL222:
 1413 00a8 0028     		cmp	r0, #0
 1414 00aa 11D0     		beq	.L82
 1415              	.LBB37:
 411:Source\azure_iot_sdk\uamqp\src/cbs.c ****         {
 412:Source\azure_iot_sdk\uamqp\src/cbs.c ****             /* Codes_SRS_CBS_01_041: [ If `amqp_management_open_async` fails, shall fail and return
 413:Source\azure_iot_sdk\uamqp\src/cbs.c ****             LogError("PSOC6--Failed_to_open_amqp_async--PSOC6");
 1416              		.loc 1 413 0 discriminator 3
 1417 00ac FFF7FEFF 		bl	xlogging_get_log_function
 1418              	.LVL223:
 1419 00b0 041E     		subs	r4, r0, #0
 1420              	.LVL224:
 1421 00b2 24D0     		beq	.L85
 1422              		.loc 1 413 0 is_stmt 0 discriminator 4
 1423 00b4 1C4B     		ldr	r3, .L87+28
 1424 00b6 0193     		str	r3, [sp, #4]
 1425 00b8 0123     		movs	r3, #1
 1426 00ba 0093     		str	r3, [sp]
 1427 00bc 9E23     		movs	r3, #158
 1428 00be FF33     		adds	r3, r3, #255
 1429 00c0 134A     		ldr	r2, .L87+4
 1430 00c2 3C32     		adds	r2, r2, #60
 1431 00c4 1349     		ldr	r1, .L87+8
 1432 00c6 0020     		movs	r0, #0
 1433              	.LVL225:
 1434 00c8 A047     		blx	r4
 1435              	.LVL226:
 1436              	.LBE37:
 414:Source\azure_iot_sdk\uamqp\src/cbs.c ****             result = __FAILURE__;
 1437              		.loc 1 414 0 is_stmt 1 discriminator 4
 1438 00ca CF20     		movs	r0, #207
 1439 00cc 4000     		lsls	r0, r0, #1
 1440 00ce 1AE0     		b	.L80
 1441              	.LVL227:
 1442              	.L82:
 1443              	.LBB38:
 415:Source\azure_iot_sdk\uamqp\src/cbs.c ****         }
 416:Source\azure_iot_sdk\uamqp\src/cbs.c ****         else
 417:Source\azure_iot_sdk\uamqp\src/cbs.c ****         {
 418:Source\azure_iot_sdk\uamqp\src/cbs.c ****             
 419:Source\azure_iot_sdk\uamqp\src/cbs.c ****             LogError("PSOC6---cbs_open_async_successfully---PSOC6");
 1444              		.loc 1 419 0 discriminator 3
 1445 00d0 FFF7FEFF 		bl	xlogging_get_log_function
 1446              	.LVL228:
 1447 00d4 041E     		subs	r4, r0, #0
 1448              	.LVL229:
 1449 00d6 15D0     		beq	.L86
 1450              		.loc 1 419 0 is_stmt 0 discriminator 4
 1451 00d8 144B     		ldr	r3, .L87+32
 1452 00da 0193     		str	r3, [sp, #4]
 1453 00dc 0123     		movs	r3, #1
 1454 00de 0093     		str	r3, [sp]
 1455 00e0 A423     		movs	r3, #164
 1456 00e2 FF33     		adds	r3, r3, #255
 1457 00e4 0A4A     		ldr	r2, .L87+4
 1458 00e6 3C32     		adds	r2, r2, #60
ARM GAS  C:\Users\Phuong\AppData\Local\Temp\ccGVgD3r.s 			page 35


 1459 00e8 0A49     		ldr	r1, .L87+8
 1460 00ea 0020     		movs	r0, #0
 1461              	.LVL230:
 1462 00ec A047     		blx	r4
 1463              	.LVL231:
 1464              	.LBE38:
 420:Source\azure_iot_sdk\uamqp\src/cbs.c ****             /* Codes_SRS_CBS_01_077: [ On success, `cbs_open_async` shall return 0. ]*/
 421:Source\azure_iot_sdk\uamqp\src/cbs.c ****             result = 0;
 1465              		.loc 1 421 0 is_stmt 1 discriminator 4
 1466 00ee 0020     		movs	r0, #0
 1467 00f0 09E0     		b	.L80
 1468              	.LVL232:
 1469              	.L83:
 392:Source\azure_iot_sdk\uamqp\src/cbs.c ****     }
 1470              		.loc 1 392 0
 1471 00f2 C420     		movs	r0, #196
 1472              	.LVL233:
 1473 00f4 4000     		lsls	r0, r0, #1
 1474 00f6 06E0     		b	.L80
 1475              	.LVL234:
 1476              	.L84:
 398:Source\azure_iot_sdk\uamqp\src/cbs.c ****     }
 1477              		.loc 1 398 0
 1478 00f8 C720     		movs	r0, #199
 1479              	.LVL235:
 1480 00fa 4000     		lsls	r0, r0, #1
 1481 00fc 03E0     		b	.L80
 1482              	.LVL236:
 1483              	.L85:
 414:Source\azure_iot_sdk\uamqp\src/cbs.c ****         }
 1484              		.loc 1 414 0
 1485 00fe CF20     		movs	r0, #207
 1486              	.LVL237:
 1487 0100 4000     		lsls	r0, r0, #1
 1488 0102 00E0     		b	.L80
 1489              	.LVL238:
 1490              	.L86:
 1491              		.loc 1 421 0
 1492 0104 0020     		movs	r0, #0
 1493              	.LVL239:
 1494              	.L80:
 422:Source\azure_iot_sdk\uamqp\src/cbs.c ****         }
 423:Source\azure_iot_sdk\uamqp\src/cbs.c ****     }
 424:Source\azure_iot_sdk\uamqp\src/cbs.c **** 
 425:Source\azure_iot_sdk\uamqp\src/cbs.c ****     return result;
 426:Source\azure_iot_sdk\uamqp\src/cbs.c **** }
 1495              		.loc 1 426 0
 1496 0106 09B0     		add	sp, sp, #36
 1497              		@ sp needed
 1498              	.LVL240:
 1499              	.LVL241:
 1500 0108 F0BD     		pop	{r4, r5, r6, r7, pc}
 1501              	.L88:
 1502 010a C046     		.align	2
 1503              	.L87:
 1504 010c 00050000 		.word	.LC73
 1505 0110 80000000 		.word	.LANCHOR1
ARM GAS  C:\Users\Phuong\AppData\Local\Temp\ccGVgD3r.s 			page 36


 1506 0114 00000000 		.word	.LC1
 1507 0118 2C050000 		.word	.LC75
 1508 011c 74050000 		.word	.LC77
 1509 0120 00000000 		.word	on_underlying_amqp_management_error
 1510 0124 00000000 		.word	on_underlying_amqp_management_open_complete
 1511 0128 90050000 		.word	.LC81
 1512 012c B8050000 		.word	.LC83
 1513              		.cfi_endproc
 1514              	.LFE7:
 1515              		.size	cbs_open_async, .-cbs_open_async
 1516              		.section	.text.cbs_close,"ax",%progbits
 1517              		.align	2
 1518              		.global	cbs_close
 1519              		.code	16
 1520              		.thumb_func
 1521              		.type	cbs_close, %function
 1522              	cbs_close:
 1523              	.LFB8:
 427:Source\azure_iot_sdk\uamqp\src/cbs.c **** 
 428:Source\azure_iot_sdk\uamqp\src/cbs.c **** int cbs_close(CBS_HANDLE cbs)
 429:Source\azure_iot_sdk\uamqp\src/cbs.c **** {
 1524              		.loc 1 429 0
 1525              		.cfi_startproc
 1526              		@ args = 0, pretend = 0, frame = 0
 1527              		@ frame_needed = 0, uses_anonymous_args = 0
 1528              	.LVL242:
 1529 0000 10B5     		push	{r4, lr}
 1530              		.cfi_def_cfa_offset 8
 1531              		.cfi_offset 4, -8
 1532              		.cfi_offset 14, -4
 1533 0002 82B0     		sub	sp, sp, #8
 1534              		.cfi_def_cfa_offset 16
 1535 0004 041E     		subs	r4, r0, #0
 430:Source\azure_iot_sdk\uamqp\src/cbs.c ****     int result;
 431:Source\azure_iot_sdk\uamqp\src/cbs.c **** 
 432:Source\azure_iot_sdk\uamqp\src/cbs.c ****     if (cbs == NULL)
 1536              		.loc 1 432 0
 1537 0006 11D1     		bne	.L90
 1538              	.LBB39:
 433:Source\azure_iot_sdk\uamqp\src/cbs.c ****     {
 434:Source\azure_iot_sdk\uamqp\src/cbs.c ****         /* Codes_SRS_CBS_01_045: [ If the argument `cbs` is NULL, `cbs_close` shall fail and return
 435:Source\azure_iot_sdk\uamqp\src/cbs.c ****         LogError("NULL cbs handle");
 1539              		.loc 1 435 0 discriminator 3
 1540 0008 FFF7FEFF 		bl	xlogging_get_log_function
 1541              	.LVL243:
 1542 000c 041E     		subs	r4, r0, #0
 1543              	.LVL244:
 1544 000e 44D0     		beq	.L95
 1545              		.loc 1 435 0 is_stmt 0 discriminator 4
 1546 0010 274B     		ldr	r3, .L98
 1547 0012 0193     		str	r3, [sp, #4]
 1548 0014 0123     		movs	r3, #1
 1549 0016 0093     		str	r3, [sp]
 1550 0018 B423     		movs	r3, #180
 1551 001a FF33     		adds	r3, r3, #255
 1552 001c 254A     		ldr	r2, .L98+4
 1553 001e 4C32     		adds	r2, r2, #76
ARM GAS  C:\Users\Phuong\AppData\Local\Temp\ccGVgD3r.s 			page 37


 1554 0020 2549     		ldr	r1, .L98+8
 1555 0022 0020     		movs	r0, #0
 1556              	.LVL245:
 1557 0024 A047     		blx	r4
 1558              	.LVL246:
 1559              	.LBE39:
 436:Source\azure_iot_sdk\uamqp\src/cbs.c ****         result = __FAILURE__;
 1560              		.loc 1 436 0 is_stmt 1 discriminator 4
 1561 0026 DA20     		movs	r0, #218
 1562 0028 4000     		lsls	r0, r0, #1
 1563 002a 3EE0     		b	.L91
 1564              	.LVL247:
 1565              	.L90:
 437:Source\azure_iot_sdk\uamqp\src/cbs.c ****     }
 438:Source\azure_iot_sdk\uamqp\src/cbs.c ****     else if (cbs->cbs_state == CBS_STATE_CLOSED)
 1566              		.loc 1 438 0
 1567 002c 0379     		ldrb	r3, [r0, #4]
 1568 002e 002B     		cmp	r3, #0
 1569 0030 11D1     		bne	.L92
 1570              	.LBB40:
 439:Source\azure_iot_sdk\uamqp\src/cbs.c ****     {
 440:Source\azure_iot_sdk\uamqp\src/cbs.c ****         /* Codes_SRS_CBS_01_047: [ `cbs_close` when closed shall fail and return a non-zero value. 
 441:Source\azure_iot_sdk\uamqp\src/cbs.c ****         /* Codes_SRS_CBS_01_048: [ `cbs_close` when not opened shall fail and return a non-zero val
 442:Source\azure_iot_sdk\uamqp\src/cbs.c ****         LogError("Already closed");
 1571              		.loc 1 442 0 discriminator 3
 1572 0032 FFF7FEFF 		bl	xlogging_get_log_function
 1573              	.LVL248:
 1574 0036 041E     		subs	r4, r0, #0
 1575              	.LVL249:
 1576 0038 32D0     		beq	.L96
 1577              		.loc 1 442 0 is_stmt 0 discriminator 4
 1578 003a 204B     		ldr	r3, .L98+12
 1579 003c 0193     		str	r3, [sp, #4]
 1580 003e 0123     		movs	r3, #1
 1581 0040 0093     		str	r3, [sp]
 1582 0042 BA33     		adds	r3, r3, #186
 1583 0044 FF33     		adds	r3, r3, #255
 1584 0046 1B4A     		ldr	r2, .L98+4
 1585 0048 4C32     		adds	r2, r2, #76
 1586 004a 1B49     		ldr	r1, .L98+8
 1587 004c 0020     		movs	r0, #0
 1588              	.LVL250:
 1589 004e A047     		blx	r4
 1590              	.LVL251:
 1591              	.LBE40:
 443:Source\azure_iot_sdk\uamqp\src/cbs.c ****         result = __FAILURE__;
 1592              		.loc 1 443 0 is_stmt 1 discriminator 4
 1593 0050 BC20     		movs	r0, #188
 1594 0052 FF30     		adds	r0, r0, #255
 1595 0054 29E0     		b	.L91
 1596              	.LVL252:
 1597              	.L92:
 444:Source\azure_iot_sdk\uamqp\src/cbs.c ****     }
 445:Source\azure_iot_sdk\uamqp\src/cbs.c ****     else
 446:Source\azure_iot_sdk\uamqp\src/cbs.c ****     {
 447:Source\azure_iot_sdk\uamqp\src/cbs.c ****         /* Codes_SRS_CBS_01_044: [ `cbs_close` shall close the CBS instance by calling `amqp_manage
 448:Source\azure_iot_sdk\uamqp\src/cbs.c ****         if (amqp_management_close(cbs->amqp_management) != 0)
ARM GAS  C:\Users\Phuong\AppData\Local\Temp\ccGVgD3r.s 			page 38


 1598              		.loc 1 448 0
 1599 0056 0068     		ldr	r0, [r0]
 1600              	.LVL253:
 1601 0058 FFF7FEFF 		bl	amqp_management_close
 1602              	.LVL254:
 1603 005c 0028     		cmp	r0, #0
 1604 005e 11D0     		beq	.L93
 1605              	.LBB41:
 449:Source\azure_iot_sdk\uamqp\src/cbs.c ****         {
 450:Source\azure_iot_sdk\uamqp\src/cbs.c ****             /* Codes_SRS_CBS_01_046: [ If `amqp_management_close` fails, `cbs_close` shall fail and
 451:Source\azure_iot_sdk\uamqp\src/cbs.c ****             LogError("Failed closing AMQP management instance");
 1606              		.loc 1 451 0 discriminator 3
 1607 0060 FFF7FEFF 		bl	xlogging_get_log_function
 1608              	.LVL255:
 1609 0064 041E     		subs	r4, r0, #0
 1610              	.LVL256:
 1611 0066 1ED0     		beq	.L97
 1612              		.loc 1 451 0 is_stmt 0 discriminator 4
 1613 0068 154B     		ldr	r3, .L98+16
 1614 006a 0193     		str	r3, [sp, #4]
 1615 006c 0123     		movs	r3, #1
 1616 006e 0093     		str	r3, [sp]
 1617 0070 C423     		movs	r3, #196
 1618 0072 FF33     		adds	r3, r3, #255
 1619 0074 0F4A     		ldr	r2, .L98+4
 1620 0076 4C32     		adds	r2, r2, #76
 1621 0078 0F49     		ldr	r1, .L98+8
 1622 007a 0020     		movs	r0, #0
 1623              	.LVL257:
 1624 007c A047     		blx	r4
 1625              	.LVL258:
 1626              	.LBE41:
 452:Source\azure_iot_sdk\uamqp\src/cbs.c ****             result = __FAILURE__;
 1627              		.loc 1 452 0 is_stmt 1 discriminator 4
 1628 007e E220     		movs	r0, #226
 1629 0080 4000     		lsls	r0, r0, #1
 1630 0082 12E0     		b	.L91
 1631              	.LVL259:
 1632              	.L93:
 453:Source\azure_iot_sdk\uamqp\src/cbs.c ****         }
 454:Source\azure_iot_sdk\uamqp\src/cbs.c ****         else
 455:Source\azure_iot_sdk\uamqp\src/cbs.c ****         {
 456:Source\azure_iot_sdk\uamqp\src/cbs.c ****             if (cbs->cbs_state == CBS_STATE_OPENING)
 1633              		.loc 1 456 0
 1634 0084 2379     		ldrb	r3, [r4, #4]
 1635 0086 012B     		cmp	r3, #1
 1636 0088 03D1     		bne	.L94
 457:Source\azure_iot_sdk\uamqp\src/cbs.c ****             {
 458:Source\azure_iot_sdk\uamqp\src/cbs.c ****                 /* Codes_SRS_CBS_01_079: [ If `cbs_close` is called while OPENING, the `on_cbs_open
 459:Source\azure_iot_sdk\uamqp\src/cbs.c ****                 cbs->on_cbs_open_complete(cbs->on_cbs_open_complete_context, CBS_OPEN_CANCELLED);
 1637              		.loc 1 459 0
 1638 008a 0221     		movs	r1, #2
 1639 008c E068     		ldr	r0, [r4, #12]
 1640 008e A368     		ldr	r3, [r4, #8]
 1641 0090 9847     		blx	r3
 1642              	.LVL260:
 1643              	.L94:
ARM GAS  C:\Users\Phuong\AppData\Local\Temp\ccGVgD3r.s 			page 39


 460:Source\azure_iot_sdk\uamqp\src/cbs.c ****             }
 461:Source\azure_iot_sdk\uamqp\src/cbs.c **** 
 462:Source\azure_iot_sdk\uamqp\src/cbs.c ****             cbs->cbs_state = CBS_STATE_CLOSED;
 1644              		.loc 1 462 0
 1645 0092 0023     		movs	r3, #0
 1646 0094 2371     		strb	r3, [r4, #4]
 1647              	.LVL261:
 463:Source\azure_iot_sdk\uamqp\src/cbs.c **** 
 464:Source\azure_iot_sdk\uamqp\src/cbs.c ****             /* Codes_SRS_CBS_01_080: [ On success, `cbs_close` shall return 0. ]*/
 465:Source\azure_iot_sdk\uamqp\src/cbs.c ****             result = 0;
 1648              		.loc 1 465 0
 1649 0096 0020     		movs	r0, #0
 1650 0098 07E0     		b	.L91
 1651              	.LVL262:
 1652              	.L95:
 436:Source\azure_iot_sdk\uamqp\src/cbs.c ****     }
 1653              		.loc 1 436 0
 1654 009a DA20     		movs	r0, #218
 1655              	.LVL263:
 1656 009c 4000     		lsls	r0, r0, #1
 1657 009e 04E0     		b	.L91
 1658              	.LVL264:
 1659              	.L96:
 443:Source\azure_iot_sdk\uamqp\src/cbs.c ****     }
 1660              		.loc 1 443 0
 1661 00a0 BC20     		movs	r0, #188
 1662              	.LVL265:
 1663 00a2 FF30     		adds	r0, r0, #255
 1664 00a4 01E0     		b	.L91
 1665              	.LVL266:
 1666              	.L97:
 452:Source\azure_iot_sdk\uamqp\src/cbs.c ****         }
 1667              		.loc 1 452 0
 1668 00a6 E220     		movs	r0, #226
 1669              	.LVL267:
 1670 00a8 4000     		lsls	r0, r0, #1
 1671              	.LVL268:
 1672              	.L91:
 466:Source\azure_iot_sdk\uamqp\src/cbs.c ****         }
 467:Source\azure_iot_sdk\uamqp\src/cbs.c ****     }
 468:Source\azure_iot_sdk\uamqp\src/cbs.c **** 
 469:Source\azure_iot_sdk\uamqp\src/cbs.c ****     return result;
 470:Source\azure_iot_sdk\uamqp\src/cbs.c **** }
 1673              		.loc 1 470 0
 1674 00aa 02B0     		add	sp, sp, #8
 1675              		@ sp needed
 1676 00ac 10BD     		pop	{r4, pc}
 1677              	.L99:
 1678 00ae C046     		.align	2
 1679              	.L98:
 1680 00b0 D4040000 		.word	.LC67
 1681 00b4 80000000 		.word	.LANCHOR1
 1682 00b8 00000000 		.word	.LC1
 1683 00bc E4050000 		.word	.LC88
 1684 00c0 F4050000 		.word	.LC90
 1685              		.cfi_endproc
 1686              	.LFE8:
ARM GAS  C:\Users\Phuong\AppData\Local\Temp\ccGVgD3r.s 			page 40


 1687              		.size	cbs_close, .-cbs_close
 1688              		.section	.text.cbs_put_token_async,"ax",%progbits
 1689              		.align	2
 1690              		.global	cbs_put_token_async
 1691              		.code	16
 1692              		.thumb_func
 1693              		.type	cbs_put_token_async, %function
 1694              	cbs_put_token_async:
 1695              	.LFB9:
 471:Source\azure_iot_sdk\uamqp\src/cbs.c **** 
 472:Source\azure_iot_sdk\uamqp\src/cbs.c **** int cbs_put_token_async(CBS_HANDLE cbs, const char* type, const char* audience, const char* token, 
 473:Source\azure_iot_sdk\uamqp\src/cbs.c **** {
 1696              		.loc 1 473 0
 1697              		.cfi_startproc
 1698              		@ args = 8, pretend = 0, frame = 8
 1699              		@ frame_needed = 0, uses_anonymous_args = 0
 1700              	.LVL269:
 1701 0000 F0B5     		push	{r4, r5, r6, r7, lr}
 1702              		.cfi_def_cfa_offset 20
 1703              		.cfi_offset 4, -20
 1704              		.cfi_offset 5, -16
 1705              		.cfi_offset 6, -12
 1706              		.cfi_offset 7, -8
 1707              		.cfi_offset 14, -4
 1708 0002 5746     		mov	r7, r10
 1709 0004 4E46     		mov	r6, r9
 1710 0006 C0B4     		push	{r6, r7}
 1711              		.cfi_def_cfa_offset 28
 1712              		.cfi_offset 9, -28
 1713              		.cfi_offset 10, -24
 1714 0008 8BB0     		sub	sp, sp, #44
 1715              		.cfi_def_cfa_offset 72
 1716 000a 0400     		movs	r4, r0
 1717 000c 0F00     		movs	r7, r1
 1718 000e 9146     		mov	r9, r2
 1719 0010 1E00     		movs	r6, r3
 474:Source\azure_iot_sdk\uamqp\src/cbs.c ****     int result;
 475:Source\azure_iot_sdk\uamqp\src/cbs.c **** 
 476:Source\azure_iot_sdk\uamqp\src/cbs.c ****     /* Codes_SRS_CBS_01_083: [ `on_cbs_put_token_complete_context` shall be allowed to be NULL. ]*/
 477:Source\azure_iot_sdk\uamqp\src/cbs.c ****     if ((cbs == NULL) ||
 1720              		.loc 1 477 0
 1721 0012 0028     		cmp	r0, #0
 1722 0014 08D0     		beq	.L101
 1723              		.loc 1 477 0 is_stmt 0 discriminator 1
 1724 0016 0029     		cmp	r1, #0
 1725 0018 06D0     		beq	.L101
 478:Source\azure_iot_sdk\uamqp\src/cbs.c ****         (type == NULL) ||
 1726              		.loc 1 478 0 is_stmt 1
 1727 001a 002A     		cmp	r2, #0
 1728 001c 04D0     		beq	.L101
 479:Source\azure_iot_sdk\uamqp\src/cbs.c ****         (audience == NULL) ||
 1729              		.loc 1 479 0
 1730 001e 002E     		cmp	r6, #0
 1731 0020 02D0     		beq	.L101
 480:Source\azure_iot_sdk\uamqp\src/cbs.c ****         (token == NULL) ||
 1732              		.loc 1 480 0
 1733 0022 129B     		ldr	r3, [sp, #72]
ARM GAS  C:\Users\Phuong\AppData\Local\Temp\ccGVgD3r.s 			page 41


 1734              	.LVL270:
 1735 0024 002B     		cmp	r3, #0
 1736 0026 19D1     		bne	.L102
 1737              	.L101:
 1738              	.LBB42:
 481:Source\azure_iot_sdk\uamqp\src/cbs.c ****         (on_cbs_put_token_complete == NULL))
 482:Source\azure_iot_sdk\uamqp\src/cbs.c ****     {
 483:Source\azure_iot_sdk\uamqp\src/cbs.c ****         /* Codes_SRS_CBS_01_050: [ If any of the arguments `cbs`, `type`, `audience`, `token` or `o
 484:Source\azure_iot_sdk\uamqp\src/cbs.c ****         LogError("Bad arguments: cbs = %p, type = %p, audience = %p, token = %p, on_cbs_put_token_c
 1739              		.loc 1 484 0 discriminator 3
 1740 0028 FFF7FEFF 		bl	xlogging_get_log_function
 1741              	.LVL271:
 1742 002c 051E     		subs	r5, r0, #0
 1743              	.LVL272:
 1744 002e 00D1     		bne	.LCB1902
 1745 0030 1FE1     		b	.L116	@long jump
 1746              	.LCB1902:
 1747              		.loc 1 484 0 is_stmt 0 discriminator 4
 1748 0032 129B     		ldr	r3, [sp, #72]
 1749 0034 0693     		str	r3, [sp, #24]
 1750 0036 0596     		str	r6, [sp, #20]
 1751 0038 4B46     		mov	r3, r9
 1752 003a 0493     		str	r3, [sp, #16]
 1753 003c 0397     		str	r7, [sp, #12]
 1754 003e 0294     		str	r4, [sp, #8]
 1755 0040 934B     		ldr	r3, .L128
 1756 0042 0193     		str	r3, [sp, #4]
 1757 0044 0123     		movs	r3, #1
 1758 0046 0093     		str	r3, [sp]
 1759 0048 E623     		movs	r3, #230
 1760 004a FF33     		adds	r3, r3, #255
 1761 004c 914A     		ldr	r2, .L128+4
 1762 004e 5832     		adds	r2, r2, #88
 1763 0050 9149     		ldr	r1, .L128+8
 1764 0052 0020     		movs	r0, #0
 1765              	.LVL273:
 1766 0054 A847     		blx	r5
 1767              	.LVL274:
 1768              	.LBE42:
 485:Source\azure_iot_sdk\uamqp\src/cbs.c ****             cbs, type, audience, token, on_cbs_put_token_complete);
 486:Source\azure_iot_sdk\uamqp\src/cbs.c ****         result = __FAILURE__;
 1769              		.loc 1 486 0 is_stmt 1 discriminator 4
 1770 0056 F324     		movs	r4, #243
 1771              	.LVL275:
 1772 0058 6400     		lsls	r4, r4, #1
 1773 005a 12E1     		b	.L103
 1774              	.LVL276:
 1775              	.L102:
 487:Source\azure_iot_sdk\uamqp\src/cbs.c ****     }
 488:Source\azure_iot_sdk\uamqp\src/cbs.c ****     else if ((cbs->cbs_state == CBS_STATE_CLOSED) ||
 1776              		.loc 1 488 0
 1777 005c 0379     		ldrb	r3, [r0, #4]
 1778 005e 002B     		cmp	r3, #0
 1779 0060 01D0     		beq	.L104
 1780              		.loc 1 488 0 is_stmt 0 discriminator 1
 1781 0062 032B     		cmp	r3, #3
 1782 0064 12D1     		bne	.L105
ARM GAS  C:\Users\Phuong\AppData\Local\Temp\ccGVgD3r.s 			page 42


 1783              	.L104:
 1784              	.LBB43:
 489:Source\azure_iot_sdk\uamqp\src/cbs.c ****         (cbs->cbs_state == CBS_STATE_ERROR))
 490:Source\azure_iot_sdk\uamqp\src/cbs.c ****     {
 491:Source\azure_iot_sdk\uamqp\src/cbs.c ****         /* Codes_SRS_CBS_01_058: [ If `cbs_put_token_async` is called when the CBS instance is not 
 492:Source\azure_iot_sdk\uamqp\src/cbs.c ****         LogError("put token called while closed or in error");
 1785              		.loc 1 492 0 is_stmt 1 discriminator 3
 1786 0066 FFF7FEFF 		bl	xlogging_get_log_function
 1787              	.LVL277:
 1788 006a 041E     		subs	r4, r0, #0
 1789              	.LVL278:
 1790 006c 00D1     		bne	.LCB1954
 1791 006e 03E1     		b	.L117	@long jump
 1792              	.LCB1954:
 1793              		.loc 1 492 0 is_stmt 0 discriminator 4
 1794 0070 8A4B     		ldr	r3, .L128+12
 1795 0072 0193     		str	r3, [sp, #4]
 1796 0074 0123     		movs	r3, #1
 1797 0076 0093     		str	r3, [sp]
 1798 0078 EC33     		adds	r3, r3, #236
 1799 007a FF33     		adds	r3, r3, #255
 1800 007c 854A     		ldr	r2, .L128+4
 1801 007e 5832     		adds	r2, r2, #88
 1802 0080 8549     		ldr	r1, .L128+8
 1803 0082 0020     		movs	r0, #0
 1804              	.LVL279:
 1805 0084 A047     		blx	r4
 1806              	.LVL280:
 1807              	.LBE43:
 493:Source\azure_iot_sdk\uamqp\src/cbs.c ****         result = __FAILURE__;
 1808              		.loc 1 493 0 is_stmt 1 discriminator 4
 1809 0086 EE24     		movs	r4, #238
 1810              	.LVL281:
 1811 0088 FF34     		adds	r4, r4, #255
 1812 008a FAE0     		b	.L103
 1813              	.LVL282:
 1814              	.L105:
 1815              	.LBB44:
 494:Source\azure_iot_sdk\uamqp\src/cbs.c ****     }
 495:Source\azure_iot_sdk\uamqp\src/cbs.c ****     else
 496:Source\azure_iot_sdk\uamqp\src/cbs.c ****     {
 497:Source\azure_iot_sdk\uamqp\src/cbs.c ****         /* Codes_SRS_CBS_01_049: [ `cbs_put_token_async` shall construct a request message for the 
 498:Source\azure_iot_sdk\uamqp\src/cbs.c ****         MESSAGE_HANDLE message = message_create();
 1816              		.loc 1 498 0
 1817 008c FFF7FEFF 		bl	message_create
 1818              	.LVL283:
 1819 0090 051E     		subs	r5, r0, #0
 1820              	.LVL284:
 499:Source\azure_iot_sdk\uamqp\src/cbs.c ****         if (message == NULL)
 1821              		.loc 1 499 0
 1822 0092 12D1     		bne	.L106
 1823              	.LBB45:
 500:Source\azure_iot_sdk\uamqp\src/cbs.c ****         {
 501:Source\azure_iot_sdk\uamqp\src/cbs.c ****             /* Codes_SRS_CBS_01_072: [ If constructing the message fails, `cbs_put_token_async` sha
 502:Source\azure_iot_sdk\uamqp\src/cbs.c ****             LogError("message_create failed");
 1824              		.loc 1 502 0 discriminator 3
 1825 0094 FFF7FEFF 		bl	xlogging_get_log_function
ARM GAS  C:\Users\Phuong\AppData\Local\Temp\ccGVgD3r.s 			page 43


 1826              	.LVL285:
 1827 0098 041E     		subs	r4, r0, #0
 1828              	.LVL286:
 1829 009a 00D1     		bne	.LCB2000
 1830 009c EFE0     		b	.L118	@long jump
 1831              	.LCB2000:
 1832              		.loc 1 502 0 is_stmt 0 discriminator 4
 1833 009e 804B     		ldr	r3, .L128+16
 1834 00a0 0193     		str	r3, [sp, #4]
 1835 00a2 0123     		movs	r3, #1
 1836 00a4 0093     		str	r3, [sp]
 1837 00a6 F633     		adds	r3, r3, #246
 1838 00a8 FF33     		adds	r3, r3, #255
 1839 00aa 7A4A     		ldr	r2, .L128+4
 1840 00ac 5832     		adds	r2, r2, #88
 1841 00ae 7A49     		ldr	r1, .L128+8
 1842 00b0 0020     		movs	r0, #0
 1843              	.LVL287:
 1844 00b2 A047     		blx	r4
 1845              	.LVL288:
 1846              	.LBE45:
 503:Source\azure_iot_sdk\uamqp\src/cbs.c ****             result = __FAILURE__;
 1847              		.loc 1 503 0 is_stmt 1 discriminator 4
 1848 00b4 F824     		movs	r4, #248
 1849              	.LVL289:
 1850 00b6 FF34     		adds	r4, r4, #255
 1851 00b8 E3E0     		b	.L103
 1852              	.LVL290:
 1853              	.L106:
 1854              	.LBB46:
 504:Source\azure_iot_sdk\uamqp\src/cbs.c ****         }
 505:Source\azure_iot_sdk\uamqp\src/cbs.c ****         else
 506:Source\azure_iot_sdk\uamqp\src/cbs.c ****         {
 507:Source\azure_iot_sdk\uamqp\src/cbs.c ****             AMQP_VALUE token_value = amqpvalue_create_string(token);
 1855              		.loc 1 507 0
 1856 00ba 3000     		movs	r0, r6
 1857              	.LVL291:
 1858 00bc FFF7FEFF 		bl	amqpvalue_create_string
 1859              	.LVL292:
 1860 00c0 061E     		subs	r6, r0, #0
 1861              	.LVL293:
 508:Source\azure_iot_sdk\uamqp\src/cbs.c ****             if (token_value == NULL)
 1862              		.loc 1 508 0
 1863 00c2 11D1     		bne	.L107
 1864              	.LBB47:
 509:Source\azure_iot_sdk\uamqp\src/cbs.c ****             {
 510:Source\azure_iot_sdk\uamqp\src/cbs.c ****                 /* Codes_SRS_CBS_01_072: [ If constructing the message fails, `cbs_put_token_async`
 511:Source\azure_iot_sdk\uamqp\src/cbs.c ****                 LogError("Failed creating token AMQP value");
 1865              		.loc 1 511 0 discriminator 3
 1866 00c4 FFF7FEFF 		bl	xlogging_get_log_function
 1867              	.LVL294:
 1868 00c8 041E     		subs	r4, r0, #0
 1869              	.LVL295:
 1870 00ca 00D1     		bne	.LCB2043
 1871 00cc C9E0     		b	.L119	@long jump
 1872              	.LCB2043:
 1873              		.loc 1 511 0 is_stmt 0 discriminator 4
ARM GAS  C:\Users\Phuong\AppData\Local\Temp\ccGVgD3r.s 			page 44


 1874 00ce 754B     		ldr	r3, .L128+20
 1875 00d0 0193     		str	r3, [sp, #4]
 1876 00d2 0123     		movs	r3, #1
 1877 00d4 0093     		str	r3, [sp]
 1878 00d6 744B     		ldr	r3, .L128+24
 1879 00d8 6E4A     		ldr	r2, .L128+4
 1880 00da 5832     		adds	r2, r2, #88
 1881 00dc 6E49     		ldr	r1, .L128+8
 1882 00de 0020     		movs	r0, #0
 1883              	.LVL296:
 1884 00e0 A047     		blx	r4
 1885              	.LVL297:
 1886              	.LBE47:
 512:Source\azure_iot_sdk\uamqp\src/cbs.c ****                 result = __FAILURE__;
 1887              		.loc 1 512 0 is_stmt 1 discriminator 4
 1888 00e2 8024     		movs	r4, #128
 1889              	.LVL298:
 1890 00e4 A400     		lsls	r4, r4, #2
 1891 00e6 C0E0     		b	.L108
 1892              	.LVL299:
 1893              	.L107:
 513:Source\azure_iot_sdk\uamqp\src/cbs.c ****             }
 514:Source\azure_iot_sdk\uamqp\src/cbs.c ****             else
 515:Source\azure_iot_sdk\uamqp\src/cbs.c ****             {
 516:Source\azure_iot_sdk\uamqp\src/cbs.c ****                 /* Codes_SRS_CBS_01_009: [ The body of the message MUST contain the token. ]*/
 517:Source\azure_iot_sdk\uamqp\src/cbs.c ****                 if (message_set_body_amqp_value(message, token_value) != 0)
 1894              		.loc 1 517 0
 1895 00e8 0100     		movs	r1, r0
 1896 00ea 2800     		movs	r0, r5
 1897              	.LVL300:
 1898 00ec FFF7FEFF 		bl	message_set_body_amqp_value
 1899              	.LVL301:
 1900 00f0 0028     		cmp	r0, #0
 1901 00f2 11D0     		beq	.L109
 1902              	.LBB48:
 518:Source\azure_iot_sdk\uamqp\src/cbs.c ****                 {
 519:Source\azure_iot_sdk\uamqp\src/cbs.c ****                     /* Codes_SRS_CBS_01_072: [ If constructing the message fails, `cbs_put_token_as
 520:Source\azure_iot_sdk\uamqp\src/cbs.c ****                     LogError("Failed setting the token in the message body");
 1903              		.loc 1 520 0 discriminator 3
 1904 00f4 FFF7FEFF 		bl	xlogging_get_log_function
 1905              	.LVL302:
 1906 00f8 041E     		subs	r4, r0, #0
 1907              	.LVL303:
 1908 00fa 00D1     		bne	.LCB2081
 1909 00fc B4E0     		b	.L120	@long jump
 1910              	.LCB2081:
 1911              		.loc 1 520 0 is_stmt 0 discriminator 4
 1912 00fe 6B4B     		ldr	r3, .L128+28
 1913 0100 0193     		str	r3, [sp, #4]
 1914 0102 0123     		movs	r3, #1
 1915 0104 0093     		str	r3, [sp]
 1916 0106 8223     		movs	r3, #130
 1917 0108 9B00     		lsls	r3, r3, #2
 1918 010a 624A     		ldr	r2, .L128+4
 1919 010c 5832     		adds	r2, r2, #88
 1920 010e 6249     		ldr	r1, .L128+8
 1921 0110 0020     		movs	r0, #0
ARM GAS  C:\Users\Phuong\AppData\Local\Temp\ccGVgD3r.s 			page 45


 1922              	.LVL304:
 1923 0112 A047     		blx	r4
 1924              	.LVL305:
 1925              	.LBE48:
 521:Source\azure_iot_sdk\uamqp\src/cbs.c ****                     result = __FAILURE__;
 1926              		.loc 1 521 0 is_stmt 1 discriminator 4
 1927 0114 664C     		ldr	r4, .L128+32
 1928              	.LVL306:
 1929 0116 A8E0     		b	.L108
 1930              	.LVL307:
 1931              	.L109:
 1932              	.LBB49:
 522:Source\azure_iot_sdk\uamqp\src/cbs.c ****                 }
 523:Source\azure_iot_sdk\uamqp\src/cbs.c ****                 else
 524:Source\azure_iot_sdk\uamqp\src/cbs.c ****                 {
 525:Source\azure_iot_sdk\uamqp\src/cbs.c ****                     AMQP_VALUE application_properties = amqpvalue_create_map();
 1933              		.loc 1 525 0
 1934 0118 FFF7FEFF 		bl	amqpvalue_create_map
 1935              	.LVL308:
 1936 011c 0990     		str	r0, [sp, #36]
 1937              	.LVL309:
 526:Source\azure_iot_sdk\uamqp\src/cbs.c ****                     if (application_properties == NULL)
 1938              		.loc 1 526 0
 1939 011e 0028     		cmp	r0, #0
 1940 0120 10D1     		bne	.L110
 1941              	.LBB50:
 527:Source\azure_iot_sdk\uamqp\src/cbs.c ****                     {
 528:Source\azure_iot_sdk\uamqp\src/cbs.c ****                         /* Codes_SRS_CBS_01_072: [ If constructing the message fails, `cbs_put_toke
 529:Source\azure_iot_sdk\uamqp\src/cbs.c ****                         LogError("Failed creating application properties map");
 1942              		.loc 1 529 0 discriminator 3
 1943 0122 FFF7FEFF 		bl	xlogging_get_log_function
 1944              	.LVL310:
 1945 0126 041E     		subs	r4, r0, #0
 1946              	.LVL311:
 1947 0128 00D1     		bne	.LCB2119
 1948 012a 95E0     		b	.L121	@long jump
 1949              	.LCB2119:
 1950              		.loc 1 529 0 is_stmt 0 discriminator 4
 1951 012c 614B     		ldr	r3, .L128+36
 1952 012e 0193     		str	r3, [sp, #4]
 1953 0130 0123     		movs	r3, #1
 1954 0132 0093     		str	r3, [sp]
 1955 0134 604B     		ldr	r3, .L128+40
 1956 0136 574A     		ldr	r2, .L128+4
 1957 0138 5832     		adds	r2, r2, #88
 1958 013a 5749     		ldr	r1, .L128+8
 1959 013c 0020     		movs	r0, #0
 1960              	.LVL312:
 1961 013e A047     		blx	r4
 1962              	.LVL313:
 1963              	.LBE50:
 530:Source\azure_iot_sdk\uamqp\src/cbs.c ****                         result = __FAILURE__;
 1964              		.loc 1 530 0 is_stmt 1 discriminator 4
 1965 0140 5E4C     		ldr	r4, .L128+44
 1966              	.LVL314:
 1967 0142 8AE0     		b	.L111
 1968              	.LVL315:
ARM GAS  C:\Users\Phuong\AppData\Local\Temp\ccGVgD3r.s 			page 46


 1969              	.L110:
 531:Source\azure_iot_sdk\uamqp\src/cbs.c ****                     }
 532:Source\azure_iot_sdk\uamqp\src/cbs.c ****                     else
 533:Source\azure_iot_sdk\uamqp\src/cbs.c ****                     {
 534:Source\azure_iot_sdk\uamqp\src/cbs.c ****                         if (add_string_key_value_pair_to_map(application_properties, "name", audien
 1970              		.loc 1 534 0
 1971 0144 4A46     		mov	r2, r9
 1972 0146 5E49     		ldr	r1, .L128+48
 1973 0148 0998     		ldr	r0, [sp, #36]
 1974              	.LVL316:
 1975 014a FFF7FEFF 		bl	add_string_key_value_pair_to_map
 1976              	.LVL317:
 1977 014e 0028     		cmp	r0, #0
 1978 0150 70D1     		bne	.L122
 535:Source\azure_iot_sdk\uamqp\src/cbs.c ****                         {
 536:Source\azure_iot_sdk\uamqp\src/cbs.c ****                             result = __FAILURE__;
 537:Source\azure_iot_sdk\uamqp\src/cbs.c ****                         }
 538:Source\azure_iot_sdk\uamqp\src/cbs.c ****                         else
 539:Source\azure_iot_sdk\uamqp\src/cbs.c ****                         {
 540:Source\azure_iot_sdk\uamqp\src/cbs.c ****                             if (message_set_application_properties(message, application_properties)
 1979              		.loc 1 540 0
 1980 0152 0999     		ldr	r1, [sp, #36]
 1981 0154 2800     		movs	r0, r5
 1982 0156 FFF7FEFF 		bl	message_set_application_properties
 1983              	.LVL318:
 1984 015a 0028     		cmp	r0, #0
 1985 015c 10D0     		beq	.L113
 1986              	.LBB51:
 541:Source\azure_iot_sdk\uamqp\src/cbs.c ****                             {
 542:Source\azure_iot_sdk\uamqp\src/cbs.c ****                                 /* Codes_SRS_CBS_01_072: [ If constructing the message fails, `cbs_
 543:Source\azure_iot_sdk\uamqp\src/cbs.c ****                                 LogError("Failed setting message application properties");
 1987              		.loc 1 543 0 discriminator 3
 1988 015e FFF7FEFF 		bl	xlogging_get_log_function
 1989              	.LVL319:
 1990 0162 041E     		subs	r4, r0, #0
 1991              	.LVL320:
 1992 0164 69D0     		beq	.L123
 1993              		.loc 1 543 0 is_stmt 0 discriminator 4
 1994 0166 574B     		ldr	r3, .L128+52
 1995 0168 0193     		str	r3, [sp, #4]
 1996 016a 0123     		movs	r3, #1
 1997 016c 0093     		str	r3, [sp]
 1998 016e 564B     		ldr	r3, .L128+56
 1999 0170 484A     		ldr	r2, .L128+4
 2000 0172 5832     		adds	r2, r2, #88
 2001 0174 4849     		ldr	r1, .L128+8
 2002 0176 0020     		movs	r0, #0
 2003              	.LVL321:
 2004 0178 A047     		blx	r4
 2005              	.LVL322:
 2006              	.LBE51:
 544:Source\azure_iot_sdk\uamqp\src/cbs.c ****                                 result = __FAILURE__;
 2007              		.loc 1 544 0 is_stmt 1 discriminator 4
 2008 017a 8824     		movs	r4, #136
 2009              	.LVL323:
 2010 017c A400     		lsls	r4, r4, #2
 2011 017e 67E0     		b	.L112
ARM GAS  C:\Users\Phuong\AppData\Local\Temp\ccGVgD3r.s 			page 47


 2012              	.LVL324:
 2013              	.L113:
 2014              	.LBB52:
 545:Source\azure_iot_sdk\uamqp\src/cbs.c ****                             }
 546:Source\azure_iot_sdk\uamqp\src/cbs.c ****                             else
 547:Source\azure_iot_sdk\uamqp\src/cbs.c ****                             {
 548:Source\azure_iot_sdk\uamqp\src/cbs.c ****                                 CBS_OPERATION* cbs_operation = (CBS_OPERATION*)malloc(sizeof(CBS_OP
 2015              		.loc 1 548 0
 2016 0180 0C20     		movs	r0, #12
 2017 0182 FFF7FEFF 		bl	malloc
 2018              	.LVL325:
 2019 0186 8146     		mov	r9, r0
 2020              	.LVL326:
 549:Source\azure_iot_sdk\uamqp\src/cbs.c ****                                 if (cbs_operation == NULL)
 2021              		.loc 1 549 0
 2022 0188 0028     		cmp	r0, #0
 2023 018a 10D1     		bne	.L114
 2024              	.LBB53:
 550:Source\azure_iot_sdk\uamqp\src/cbs.c ****                                 {
 551:Source\azure_iot_sdk\uamqp\src/cbs.c ****                                     LogError("Failed allocating CBS operation instance");
 2025              		.loc 1 551 0 discriminator 3
 2026 018c FFF7FEFF 		bl	xlogging_get_log_function
 2027              	.LVL327:
 2028 0190 041E     		subs	r4, r0, #0
 2029              	.LVL328:
 2030 0192 55D0     		beq	.L124
 2031              		.loc 1 551 0 is_stmt 0 discriminator 4
 2032 0194 4D4B     		ldr	r3, .L128+60
 2033 0196 0193     		str	r3, [sp, #4]
 2034 0198 0123     		movs	r3, #1
 2035 019a 0093     		str	r3, [sp]
 2036 019c 4C4B     		ldr	r3, .L128+64
 2037 019e 3D4A     		ldr	r2, .L128+4
 2038 01a0 5832     		adds	r2, r2, #88
 2039 01a2 3D49     		ldr	r1, .L128+8
 2040 01a4 0020     		movs	r0, #0
 2041              	.LVL329:
 2042 01a6 A047     		blx	r4
 2043              	.LVL330:
 2044              	.LBE53:
 552:Source\azure_iot_sdk\uamqp\src/cbs.c ****                                     result = __FAILURE__;
 2045              		.loc 1 552 0 is_stmt 1 discriminator 4
 2046 01a8 8A24     		movs	r4, #138
 2047              	.LVL331:
 2048 01aa A400     		lsls	r4, r4, #2
 2049 01ac 50E0     		b	.L112
 2050              	.LVL332:
 2051              	.L114:
 2052              	.LBB54:
 553:Source\azure_iot_sdk\uamqp\src/cbs.c ****                                 }
 554:Source\azure_iot_sdk\uamqp\src/cbs.c ****                                 else
 555:Source\azure_iot_sdk\uamqp\src/cbs.c ****                                 {
 556:Source\azure_iot_sdk\uamqp\src/cbs.c ****                                     LIST_ITEM_HANDLE list_item;
 557:Source\azure_iot_sdk\uamqp\src/cbs.c **** 
 558:Source\azure_iot_sdk\uamqp\src/cbs.c ****                                     cbs_operation->on_cbs_operation_complete = on_cbs_put_token_com
 2053              		.loc 1 558 0
 2054 01ae 129A     		ldr	r2, [sp, #72]
ARM GAS  C:\Users\Phuong\AppData\Local\Temp\ccGVgD3r.s 			page 48


 2055 01b0 0260     		str	r2, [r0]
 559:Source\azure_iot_sdk\uamqp\src/cbs.c ****                                     cbs_operation->on_cbs_operation_complete_context = on_cbs_put_t
 2056              		.loc 1 559 0
 2057 01b2 139A     		ldr	r2, [sp, #76]
 2058 01b4 4260     		str	r2, [r0, #4]
 560:Source\azure_iot_sdk\uamqp\src/cbs.c ****                                     cbs_operation->pending_operations = cbs->pending_operations;
 2059              		.loc 1 560 0
 2060 01b6 A269     		ldr	r2, [r4, #24]
 2061 01b8 8260     		str	r2, [r0, #8]
 561:Source\azure_iot_sdk\uamqp\src/cbs.c **** 
 562:Source\azure_iot_sdk\uamqp\src/cbs.c ****                                     list_item = singlylinkedlist_add(cbs->pending_operations, cbs_o
 2062              		.loc 1 562 0
 2063 01ba 0100     		movs	r1, r0
 2064 01bc A069     		ldr	r0, [r4, #24]
 2065              	.LVL333:
 2066 01be FFF7FEFF 		bl	singlylinkedlist_add
 2067              	.LVL334:
 2068 01c2 8246     		mov	r10, r0
 2069              	.LVL335:
 563:Source\azure_iot_sdk\uamqp\src/cbs.c ****                                     if (list_item == NULL)
 2070              		.loc 1 563 0
 2071 01c4 0028     		cmp	r0, #0
 2072 01c6 12D1     		bne	.L115
 564:Source\azure_iot_sdk\uamqp\src/cbs.c ****                                     {
 565:Source\azure_iot_sdk\uamqp\src/cbs.c ****                                         free(cbs_operation);
 2073              		.loc 1 565 0
 2074 01c8 4846     		mov	r0, r9
 2075              	.LVL336:
 2076 01ca FFF7FEFF 		bl	free
 2077              	.LVL337:
 2078              	.LBB55:
 566:Source\azure_iot_sdk\uamqp\src/cbs.c ****                                         LogError("Failed adding pending operation to list");
 2079              		.loc 1 566 0
 2080 01ce FFF7FEFF 		bl	xlogging_get_log_function
 2081              	.LVL338:
 2082 01d2 041E     		subs	r4, r0, #0
 2083              	.LVL339:
 2084 01d4 37D0     		beq	.L125
 2085              		.loc 1 566 0 is_stmt 0 discriminator 4
 2086 01d6 3F4B     		ldr	r3, .L128+68
 2087 01d8 0193     		str	r3, [sp, #4]
 2088 01da 0123     		movs	r3, #1
 2089 01dc 0093     		str	r3, [sp]
 2090 01de 3E4B     		ldr	r3, .L128+72
 2091 01e0 2C4A     		ldr	r2, .L128+4
 2092 01e2 5832     		adds	r2, r2, #88
 2093 01e4 2C49     		ldr	r1, .L128+8
 2094 01e6 0020     		movs	r0, #0
 2095              	.LVL340:
 2096 01e8 A047     		blx	r4
 2097              	.LVL341:
 2098              	.LBE55:
 567:Source\azure_iot_sdk\uamqp\src/cbs.c ****                                         result = __FAILURE__;
 2099              		.loc 1 567 0 is_stmt 1 discriminator 4
 2100 01ea 3C4C     		ldr	r4, .L128+76
 2101              	.LVL342:
 2102 01ec 30E0     		b	.L112
ARM GAS  C:\Users\Phuong\AppData\Local\Temp\ccGVgD3r.s 			page 49


 2103              	.LVL343:
 2104              	.L115:
 568:Source\azure_iot_sdk\uamqp\src/cbs.c ****                                     }
 569:Source\azure_iot_sdk\uamqp\src/cbs.c ****                                     else
 570:Source\azure_iot_sdk\uamqp\src/cbs.c ****                                     {
 571:Source\azure_iot_sdk\uamqp\src/cbs.c ****                                         /* Codes_SRS_CBS_01_051: [ `cbs_put_token_async` shall star
 572:Source\azure_iot_sdk\uamqp\src/cbs.c ****                                         /* Codes_SRS_CBS_01_052: [ The `amqp_management` argument s
 573:Source\azure_iot_sdk\uamqp\src/cbs.c ****                                         /* Codes_SRS_CBS_01_053: [ The `operation` argument shall b
 574:Source\azure_iot_sdk\uamqp\src/cbs.c ****                                         /* Codes_SRS_CBS_01_054: [ The `type` argument shall be set
 575:Source\azure_iot_sdk\uamqp\src/cbs.c ****                                         /* Codes_SRS_CBS_01_055: [ The `locales` argument shall be 
 576:Source\azure_iot_sdk\uamqp\src/cbs.c ****                                         /* Codes_SRS_CBS_01_056: [ The `message` argument shall be 
 577:Source\azure_iot_sdk\uamqp\src/cbs.c ****                                         /* Codes_SRS_CBS_01_057: [ The arguments `on_execute_operat
 578:Source\azure_iot_sdk\uamqp\src/cbs.c ****                                         /* Codes_SRS_CBS_01_005: [ operation    No    string    "pu
 579:Source\azure_iot_sdk\uamqp\src/cbs.c ****                                         /* Codes_SRS_CBS_01_006: [ Type    No    string    The type
 580:Source\azure_iot_sdk\uamqp\src/cbs.c ****                                         /* Codes_SRS_CBS_01_007: [ name    No    string    The "aud
 581:Source\azure_iot_sdk\uamqp\src/cbs.c ****                                         if (amqp_management_execute_operation_async(cbs->amqp_manag
 2105              		.loc 1 581 0
 2106 01ee 0290     		str	r0, [sp, #8]
 2107 01f0 3B4B     		ldr	r3, .L128+80
 2108 01f2 0193     		str	r3, [sp, #4]
 2109 01f4 0095     		str	r5, [sp]
 2110 01f6 0023     		movs	r3, #0
 2111 01f8 3A00     		movs	r2, r7
 2112 01fa 3A49     		ldr	r1, .L128+84
 2113 01fc 2068     		ldr	r0, [r4]
 2114              	.LVL344:
 2115 01fe FFF7FEFF 		bl	amqp_management_execute_operation_async
 2116              	.LVL345:
 2117 0202 0028     		cmp	r0, #0
 2118 0204 21D0     		beq	.L126
 582:Source\azure_iot_sdk\uamqp\src/cbs.c ****                                         {
 583:Source\azure_iot_sdk\uamqp\src/cbs.c ****                                             singlylinkedlist_remove(cbs->pending_operations, list_i
 2119              		.loc 1 583 0
 2120 0206 A069     		ldr	r0, [r4, #24]
 2121 0208 5146     		mov	r1, r10
 2122 020a FFF7FEFF 		bl	singlylinkedlist_remove
 2123              	.LVL346:
 584:Source\azure_iot_sdk\uamqp\src/cbs.c ****                                             free(cbs_operation);
 2124              		.loc 1 584 0
 2125 020e 4846     		mov	r0, r9
 2126 0210 FFF7FEFF 		bl	free
 2127              	.LVL347:
 2128              	.LBB56:
 585:Source\azure_iot_sdk\uamqp\src/cbs.c ****                                             /* Codes_SRS_CBS_01_084: [ If `amqp_management_execute_
 586:Source\azure_iot_sdk\uamqp\src/cbs.c ****                                             LogError("Failed starting AMQP management operation");
 2129              		.loc 1 586 0
 2130 0214 FFF7FEFF 		bl	xlogging_get_log_function
 2131              	.LVL348:
 2132 0218 041E     		subs	r4, r0, #0
 2133              	.LVL349:
 2134 021a 18D0     		beq	.L127
 2135              		.loc 1 586 0 is_stmt 0 discriminator 4
 2136 021c 324B     		ldr	r3, .L128+88
 2137 021e 0193     		str	r3, [sp, #4]
 2138 0220 0123     		movs	r3, #1
 2139 0222 0093     		str	r3, [sp]
 2140 0224 314B     		ldr	r3, .L128+92
ARM GAS  C:\Users\Phuong\AppData\Local\Temp\ccGVgD3r.s 			page 50


 2141 0226 1B4A     		ldr	r2, .L128+4
 2142 0228 5832     		adds	r2, r2, #88
 2143 022a 1B49     		ldr	r1, .L128+8
 2144 022c 0020     		movs	r0, #0
 2145              	.LVL350:
 2146 022e A047     		blx	r4
 2147              	.LVL351:
 2148              	.LBE56:
 587:Source\azure_iot_sdk\uamqp\src/cbs.c ****                                             result = __FAILURE__;
 2149              		.loc 1 587 0 is_stmt 1 discriminator 4
 2150 0230 2F4C     		ldr	r4, .L128+96
 2151              	.LVL352:
 2152 0232 0DE0     		b	.L112
 2153              	.LVL353:
 2154              	.L122:
 2155              	.LBE54:
 2156              	.LBE52:
 536:Source\azure_iot_sdk\uamqp\src/cbs.c ****                         }
 2157              		.loc 1 536 0
 2158 0234 8624     		movs	r4, #134
 2159              	.LVL354:
 2160 0236 A400     		lsls	r4, r4, #2
 2161 0238 0AE0     		b	.L112
 2162              	.LVL355:
 2163              	.L123:
 544:Source\azure_iot_sdk\uamqp\src/cbs.c ****                             }
 2164              		.loc 1 544 0
 2165 023a 8824     		movs	r4, #136
 2166 023c A400     		lsls	r4, r4, #2
 2167 023e 07E0     		b	.L112
 2168              	.LVL356:
 2169              	.L124:
 2170              	.LBB58:
 552:Source\azure_iot_sdk\uamqp\src/cbs.c ****                                 }
 2171              		.loc 1 552 0
 2172 0240 8A24     		movs	r4, #138
 2173 0242 A400     		lsls	r4, r4, #2
 2174 0244 04E0     		b	.L112
 2175              	.LVL357:
 2176              	.L125:
 2177              	.LBB57:
 567:Source\azure_iot_sdk\uamqp\src/cbs.c ****                                     }
 2178              		.loc 1 567 0
 2179 0246 254C     		ldr	r4, .L128+76
 2180 0248 02E0     		b	.L112
 2181              	.LVL358:
 2182              	.L126:
 588:Source\azure_iot_sdk\uamqp\src/cbs.c ****                                         }
 589:Source\azure_iot_sdk\uamqp\src/cbs.c ****                                         else
 590:Source\azure_iot_sdk\uamqp\src/cbs.c ****                                         {
 591:Source\azure_iot_sdk\uamqp\src/cbs.c ****                                             /* Codes_SRS_CBS_01_081: [ On success `cbs_put_token_as
 592:Source\azure_iot_sdk\uamqp\src/cbs.c ****                                             result = 0;
 2183              		.loc 1 592 0
 2184 024a 0024     		movs	r4, #0
 2185              	.LVL359:
 2186 024c 00E0     		b	.L112
 2187              	.LVL360:
ARM GAS  C:\Users\Phuong\AppData\Local\Temp\ccGVgD3r.s 			page 51


 2188              	.L127:
 587:Source\azure_iot_sdk\uamqp\src/cbs.c ****                                         }
 2189              		.loc 1 587 0
 2190 024e 284C     		ldr	r4, .L128+96
 2191              	.LVL361:
 2192              	.L112:
 2193              	.LBE57:
 2194              	.LBE58:
 593:Source\azure_iot_sdk\uamqp\src/cbs.c ****                                         }
 594:Source\azure_iot_sdk\uamqp\src/cbs.c ****                                     }
 595:Source\azure_iot_sdk\uamqp\src/cbs.c ****                                 }
 596:Source\azure_iot_sdk\uamqp\src/cbs.c ****                             }
 597:Source\azure_iot_sdk\uamqp\src/cbs.c ****                         }
 598:Source\azure_iot_sdk\uamqp\src/cbs.c **** 
 599:Source\azure_iot_sdk\uamqp\src/cbs.c ****                         amqpvalue_destroy(application_properties);
 2195              		.loc 1 599 0
 2196 0250 0998     		ldr	r0, [sp, #36]
 2197 0252 FFF7FEFF 		bl	amqpvalue_destroy
 2198              	.LVL362:
 2199 0256 00E0     		b	.L111
 2200              	.LVL363:
 2201              	.L121:
 530:Source\azure_iot_sdk\uamqp\src/cbs.c ****                     }
 2202              		.loc 1 530 0
 2203 0258 184C     		ldr	r4, .L128+44
 2204              	.LVL364:
 2205              	.L111:
 600:Source\azure_iot_sdk\uamqp\src/cbs.c ****                     }
 601:Source\azure_iot_sdk\uamqp\src/cbs.c **** 
 602:Source\azure_iot_sdk\uamqp\src/cbs.c ****                     amqpvalue_destroy(token_value);
 2206              		.loc 1 602 0
 2207 025a 3000     		movs	r0, r6
 2208 025c FFF7FEFF 		bl	amqpvalue_destroy
 2209              	.LVL365:
 2210 0260 03E0     		b	.L108
 2211              	.LVL366:
 2212              	.L119:
 2213              	.LBE49:
 512:Source\azure_iot_sdk\uamqp\src/cbs.c ****             }
 2214              		.loc 1 512 0
 2215 0262 8024     		movs	r4, #128
 2216 0264 A400     		lsls	r4, r4, #2
 2217 0266 00E0     		b	.L108
 2218              	.LVL367:
 2219              	.L120:
 521:Source\azure_iot_sdk\uamqp\src/cbs.c ****                 }
 2220              		.loc 1 521 0
 2221 0268 114C     		ldr	r4, .L128+32
 2222              	.LVL368:
 2223              	.L108:
 603:Source\azure_iot_sdk\uamqp\src/cbs.c ****                 }
 604:Source\azure_iot_sdk\uamqp\src/cbs.c ****             }
 605:Source\azure_iot_sdk\uamqp\src/cbs.c **** 
 606:Source\azure_iot_sdk\uamqp\src/cbs.c ****             message_destroy(message);
 2224              		.loc 1 606 0
 2225 026a 2800     		movs	r0, r5
 2226 026c FFF7FEFF 		bl	message_destroy
ARM GAS  C:\Users\Phuong\AppData\Local\Temp\ccGVgD3r.s 			page 52


 2227              	.LVL369:
 2228 0270 07E0     		b	.L103
 2229              	.LVL370:
 2230              	.L116:
 2231              	.LBE46:
 2232              	.LBE44:
 486:Source\azure_iot_sdk\uamqp\src/cbs.c ****     }
 2233              		.loc 1 486 0
 2234 0272 F324     		movs	r4, #243
 2235              	.LVL371:
 2236 0274 6400     		lsls	r4, r4, #1
 2237 0276 04E0     		b	.L103
 2238              	.LVL372:
 2239              	.L117:
 493:Source\azure_iot_sdk\uamqp\src/cbs.c ****     }
 2240              		.loc 1 493 0
 2241 0278 EE24     		movs	r4, #238
 2242 027a FF34     		adds	r4, r4, #255
 2243 027c 01E0     		b	.L103
 2244              	.LVL373:
 2245              	.L118:
 2246              	.LBB59:
 503:Source\azure_iot_sdk\uamqp\src/cbs.c ****         }
 2247              		.loc 1 503 0
 2248 027e F824     		movs	r4, #248
 2249 0280 FF34     		adds	r4, r4, #255
 2250              	.LVL374:
 2251              	.L103:
 2252              	.LBE59:
 607:Source\azure_iot_sdk\uamqp\src/cbs.c ****         }
 608:Source\azure_iot_sdk\uamqp\src/cbs.c ****     }
 609:Source\azure_iot_sdk\uamqp\src/cbs.c **** 
 610:Source\azure_iot_sdk\uamqp\src/cbs.c ****     return result;
 611:Source\azure_iot_sdk\uamqp\src/cbs.c **** }
 2253              		.loc 1 611 0
 2254 0282 2000     		movs	r0, r4
 2255 0284 0BB0     		add	sp, sp, #44
 2256              		@ sp needed
 2257              	.LVL375:
 2258              	.LVL376:
 2259 0286 0CBC     		pop	{r2, r3}
 2260 0288 9146     		mov	r9, r2
 2261 028a 9A46     		mov	r10, r3
 2262 028c F0BD     		pop	{r4, r5, r6, r7, pc}
 2263              	.L129:
 2264 028e C046     		.align	2
 2265              	.L128:
 2266 0290 1C060000 		.word	.LC94
 2267 0294 80000000 		.word	.LANCHOR1
 2268 0298 00000000 		.word	.LC1
 2269 029c 7C060000 		.word	.LC96
 2270 02a0 A8060000 		.word	.LC98
 2271 02a4 C0060000 		.word	.LC100
 2272 02a8 FF010000 		.word	511
 2273 02ac E4060000 		.word	.LC102
 2274 02b0 09020000 		.word	521
 2275 02b4 14070000 		.word	.LC104
ARM GAS  C:\Users\Phuong\AppData\Local\Temp\ccGVgD3r.s 			page 53


 2276 02b8 11020000 		.word	529
 2277 02bc 12020000 		.word	530
 2278 02c0 40070000 		.word	.LC106
 2279 02c4 48070000 		.word	.LC108
 2280 02c8 1F020000 		.word	543
 2281 02cc 78070000 		.word	.LC110
 2282 02d0 27020000 		.word	551
 2283 02d4 A4070000 		.word	.LC112
 2284 02d8 36020000 		.word	566
 2285 02dc 37020000 		.word	567
 2286 02e0 00000000 		.word	on_amqp_management_execute_operation_complete
 2287 02e4 CC070000 		.word	.LC114
 2288 02e8 D8070000 		.word	.LC117
 2289 02ec 4A020000 		.word	586
 2290 02f0 4B020000 		.word	587
 2291              		.cfi_endproc
 2292              	.LFE9:
 2293              		.size	cbs_put_token_async, .-cbs_put_token_async
 2294              		.section	.text.cbs_delete_token_async,"ax",%progbits
 2295              		.align	2
 2296              		.global	cbs_delete_token_async
 2297              		.code	16
 2298              		.thumb_func
 2299              		.type	cbs_delete_token_async, %function
 2300              	cbs_delete_token_async:
 2301              	.LFB10:
 612:Source\azure_iot_sdk\uamqp\src/cbs.c **** 
 613:Source\azure_iot_sdk\uamqp\src/cbs.c **** int cbs_delete_token_async(CBS_HANDLE cbs, const char* type, const char* audience, ON_CBS_OPERATION
 614:Source\azure_iot_sdk\uamqp\src/cbs.c **** {
 2302              		.loc 1 614 0
 2303              		.cfi_startproc
 2304              		@ args = 4, pretend = 0, frame = 8
 2305              		@ frame_needed = 0, uses_anonymous_args = 0
 2306              	.LVL377:
 2307 0000 F0B5     		push	{r4, r5, r6, r7, lr}
 2308              		.cfi_def_cfa_offset 20
 2309              		.cfi_offset 4, -20
 2310              		.cfi_offset 5, -16
 2311              		.cfi_offset 6, -12
 2312              		.cfi_offset 7, -8
 2313              		.cfi_offset 14, -4
 2314 0002 4F46     		mov	r7, r9
 2315 0004 4646     		mov	r6, r8
 2316 0006 C0B4     		push	{r6, r7}
 2317              		.cfi_def_cfa_offset 28
 2318              		.cfi_offset 8, -28
 2319              		.cfi_offset 9, -24
 2320 0008 89B0     		sub	sp, sp, #36
 2321              		.cfi_def_cfa_offset 64
 2322 000a 0400     		movs	r4, r0
 2323 000c 0D00     		movs	r5, r1
 2324 000e 1600     		movs	r6, r2
 2325 0010 1F00     		movs	r7, r3
 615:Source\azure_iot_sdk\uamqp\src/cbs.c ****     int result;
 616:Source\azure_iot_sdk\uamqp\src/cbs.c **** 
 617:Source\azure_iot_sdk\uamqp\src/cbs.c ****     /* Codes_SRS_CBS_01_086: [ `on_cbs_delete_token_complete_context` shall be allowed to be NULL. 
 618:Source\azure_iot_sdk\uamqp\src/cbs.c ****     if ((cbs == NULL) ||
ARM GAS  C:\Users\Phuong\AppData\Local\Temp\ccGVgD3r.s 			page 54


 2326              		.loc 1 618 0
 2327 0012 0028     		cmp	r0, #0
 2328 0014 05D0     		beq	.L131
 2329              		.loc 1 618 0 is_stmt 0 discriminator 1
 2330 0016 0029     		cmp	r1, #0
 2331 0018 03D0     		beq	.L131
 619:Source\azure_iot_sdk\uamqp\src/cbs.c ****         (type == NULL) ||
 2332              		.loc 1 619 0 is_stmt 1
 2333 001a 002A     		cmp	r2, #0
 2334 001c 01D0     		beq	.L131
 620:Source\azure_iot_sdk\uamqp\src/cbs.c ****         (audience == NULL) ||
 2335              		.loc 1 620 0
 2336 001e 002B     		cmp	r3, #0
 2337 0020 15D1     		bne	.L132
 2338              	.L131:
 2339              	.LBB60:
 621:Source\azure_iot_sdk\uamqp\src/cbs.c ****         (on_cbs_delete_token_complete == NULL))
 622:Source\azure_iot_sdk\uamqp\src/cbs.c ****     {
 623:Source\azure_iot_sdk\uamqp\src/cbs.c ****         /* Codes_SRS_CBS_01_060: [ If any of the arguments `cbs`, `type`, `audience` or `on_cbs_del
 624:Source\azure_iot_sdk\uamqp\src/cbs.c ****         LogError("Bad arguments: cbs = %p, type = %p, audience = %p, on_cbs_delete_token_complete =
 2340              		.loc 1 624 0 discriminator 3
 2341 0022 FFF7FEFF 		bl	xlogging_get_log_function
 2342              	.LVL378:
 2343 0026 8046     		mov	r8, r0
 2344              	.LVL379:
 2345 0028 0028     		cmp	r0, #0
 2346 002a 00D1     		bne	.LCB2590
 2347 002c E4E0     		b	.L143	@long jump
 2348              	.LCB2590:
 2349              		.loc 1 624 0 is_stmt 0 discriminator 4
 2350 002e 0597     		str	r7, [sp, #20]
 2351 0030 0496     		str	r6, [sp, #16]
 2352 0032 0395     		str	r5, [sp, #12]
 2353 0034 0294     		str	r4, [sp, #8]
 2354 0036 764B     		ldr	r3, .L153
 2355 0038 0193     		str	r3, [sp, #4]
 2356 003a 0123     		movs	r3, #1
 2357 003c 0093     		str	r3, [sp]
 2358 003e 754B     		ldr	r3, .L153+4
 2359 0040 754A     		ldr	r2, .L153+8
 2360 0042 6C32     		adds	r2, r2, #108
 2361 0044 7549     		ldr	r1, .L153+12
 2362 0046 0020     		movs	r0, #0
 2363              	.LVL380:
 2364 0048 C047     		blx	r8
 2365              	.LVL381:
 2366              	.LBE60:
 625:Source\azure_iot_sdk\uamqp\src/cbs.c ****             cbs, type, audience, on_cbs_delete_token_complete);
 626:Source\azure_iot_sdk\uamqp\src/cbs.c ****         result = __FAILURE__;
 2367              		.loc 1 626 0 is_stmt 1 discriminator 4
 2368 004a 754C     		ldr	r4, .L153+16
 2369              	.LVL382:
 2370 004c DAE0     		b	.L133
 2371              	.LVL383:
 2372              	.L132:
 627:Source\azure_iot_sdk\uamqp\src/cbs.c ****     }
 628:Source\azure_iot_sdk\uamqp\src/cbs.c ****     else if ((cbs->cbs_state == CBS_STATE_CLOSED) ||
ARM GAS  C:\Users\Phuong\AppData\Local\Temp\ccGVgD3r.s 			page 55


 2373              		.loc 1 628 0
 2374 004e 0379     		ldrb	r3, [r0, #4]
 2375              	.LVL384:
 2376 0050 002B     		cmp	r3, #0
 2377 0052 01D0     		beq	.L134
 2378              		.loc 1 628 0 is_stmt 0 discriminator 1
 2379 0054 032B     		cmp	r3, #3
 2380 0056 11D1     		bne	.L135
 2381              	.L134:
 2382              	.LBB61:
 629:Source\azure_iot_sdk\uamqp\src/cbs.c ****         (cbs->cbs_state == CBS_STATE_ERROR))
 630:Source\azure_iot_sdk\uamqp\src/cbs.c ****     {
 631:Source\azure_iot_sdk\uamqp\src/cbs.c ****         /* Codes_SRS_CBS_01_067: [ If `cbs_delete_token_async` is called when the CBS instance is n
 632:Source\azure_iot_sdk\uamqp\src/cbs.c ****         LogError("put token called while closed or in error");
 2383              		.loc 1 632 0 is_stmt 1 discriminator 3
 2384 0058 FFF7FEFF 		bl	xlogging_get_log_function
 2385              	.LVL385:
 2386 005c 041E     		subs	r4, r0, #0
 2387              	.LVL386:
 2388 005e 00D1     		bne	.LCB2637
 2389 0060 CCE0     		b	.L144	@long jump
 2390              	.LCB2637:
 2391              		.loc 1 632 0 is_stmt 0 discriminator 4
 2392 0062 704B     		ldr	r3, .L153+20
 2393 0064 0193     		str	r3, [sp, #4]
 2394 0066 0123     		movs	r3, #1
 2395 0068 0093     		str	r3, [sp]
 2396 006a 9E23     		movs	r3, #158
 2397 006c 9B00     		lsls	r3, r3, #2
 2398 006e 6A4A     		ldr	r2, .L153+8
 2399 0070 6C32     		adds	r2, r2, #108
 2400 0072 6A49     		ldr	r1, .L153+12
 2401 0074 0020     		movs	r0, #0
 2402              	.LVL387:
 2403 0076 A047     		blx	r4
 2404              	.LVL388:
 2405              	.LBE61:
 633:Source\azure_iot_sdk\uamqp\src/cbs.c ****         result = __FAILURE__;
 2406              		.loc 1 633 0 is_stmt 1 discriminator 4
 2407 0078 6B4C     		ldr	r4, .L153+24
 2408              	.LVL389:
 2409 007a C3E0     		b	.L133
 2410              	.LVL390:
 2411              	.L135:
 2412              	.LBB62:
 634:Source\azure_iot_sdk\uamqp\src/cbs.c ****     }
 635:Source\azure_iot_sdk\uamqp\src/cbs.c ****     else
 636:Source\azure_iot_sdk\uamqp\src/cbs.c ****     {
 637:Source\azure_iot_sdk\uamqp\src/cbs.c ****         /* Codes_SRS_CBS_01_025: [ The body of the message MUST be empty. ]*/
 638:Source\azure_iot_sdk\uamqp\src/cbs.c ****         /* Codes_SRS_CBS_01_059: [ `cbs_delete_token_async` shall construct a request message for t
 639:Source\azure_iot_sdk\uamqp\src/cbs.c ****         MESSAGE_HANDLE message = message_create();
 2413              		.loc 1 639 0
 2414 007c FFF7FEFF 		bl	message_create
 2415              	.LVL391:
 2416 0080 0790     		str	r0, [sp, #28]
 2417              	.LVL392:
 640:Source\azure_iot_sdk\uamqp\src/cbs.c ****         if (message == NULL)
ARM GAS  C:\Users\Phuong\AppData\Local\Temp\ccGVgD3r.s 			page 56


 2418              		.loc 1 640 0
 2419 0082 0028     		cmp	r0, #0
 2420 0084 11D1     		bne	.L136
 2421              	.LBB63:
 641:Source\azure_iot_sdk\uamqp\src/cbs.c ****         {
 642:Source\azure_iot_sdk\uamqp\src/cbs.c ****             /* Codes_SRS_CBS_01_071: [ If constructing the message fails, `cbs_delete_token_async` 
 643:Source\azure_iot_sdk\uamqp\src/cbs.c ****             LogError("message_create failed");
 2422              		.loc 1 643 0 discriminator 3
 2423 0086 FFF7FEFF 		bl	xlogging_get_log_function
 2424              	.LVL393:
 2425 008a 041E     		subs	r4, r0, #0
 2426              	.LVL394:
 2427 008c 00D1     		bne	.LCB2681
 2428 008e B7E0     		b	.L145	@long jump
 2429              	.LCB2681:
 2430              		.loc 1 643 0 is_stmt 0 discriminator 4
 2431 0090 664B     		ldr	r3, .L153+28
 2432 0092 0193     		str	r3, [sp, #4]
 2433 0094 0123     		movs	r3, #1
 2434 0096 0093     		str	r3, [sp]
 2435 0098 654B     		ldr	r3, .L153+32
 2436 009a 5F4A     		ldr	r2, .L153+8
 2437 009c 6C32     		adds	r2, r2, #108
 2438 009e 5F49     		ldr	r1, .L153+12
 2439 00a0 0020     		movs	r0, #0
 2440              	.LVL395:
 2441 00a2 A047     		blx	r4
 2442              	.LVL396:
 2443              	.LBE63:
 644:Source\azure_iot_sdk\uamqp\src/cbs.c ****             result = __FAILURE__;
 2444              		.loc 1 644 0 is_stmt 1 discriminator 4
 2445 00a4 A124     		movs	r4, #161
 2446              	.LVL397:
 2447 00a6 A400     		lsls	r4, r4, #2
 2448 00a8 ACE0     		b	.L133
 2449              	.LVL398:
 2450              	.L136:
 2451              	.LBB64:
 645:Source\azure_iot_sdk\uamqp\src/cbs.c ****         }
 646:Source\azure_iot_sdk\uamqp\src/cbs.c ****         else
 647:Source\azure_iot_sdk\uamqp\src/cbs.c ****         {
 648:Source\azure_iot_sdk\uamqp\src/cbs.c ****             AMQP_VALUE application_properties = amqpvalue_create_map();
 2452              		.loc 1 648 0
 2453 00aa FFF7FEFF 		bl	amqpvalue_create_map
 2454              	.LVL399:
 2455 00ae 0690     		str	r0, [sp, #24]
 2456              	.LVL400:
 649:Source\azure_iot_sdk\uamqp\src/cbs.c ****             if (application_properties == NULL)
 2457              		.loc 1 649 0
 2458 00b0 0028     		cmp	r0, #0
 2459 00b2 11D1     		bne	.L137
 2460              	.LBB65:
 650:Source\azure_iot_sdk\uamqp\src/cbs.c ****             {
 651:Source\azure_iot_sdk\uamqp\src/cbs.c ****                 /* Codes_SRS_CBS_01_071: [ If constructing the message fails, `cbs_delete_token_asy
 652:Source\azure_iot_sdk\uamqp\src/cbs.c ****                 LogError("Failed creating application properties map");
 2461              		.loc 1 652 0 discriminator 3
 2462 00b4 FFF7FEFF 		bl	xlogging_get_log_function
ARM GAS  C:\Users\Phuong\AppData\Local\Temp\ccGVgD3r.s 			page 57


 2463              	.LVL401:
 2464 00b8 041E     		subs	r4, r0, #0
 2465              	.LVL402:
 2466 00ba 00D1     		bne	.LCB2721
 2467 00bc 97E0     		b	.L146	@long jump
 2468              	.LCB2721:
 2469              		.loc 1 652 0 is_stmt 0 discriminator 4
 2470 00be 5D4B     		ldr	r3, .L153+36
 2471 00c0 0193     		str	r3, [sp, #4]
 2472 00c2 0123     		movs	r3, #1
 2473 00c4 0093     		str	r3, [sp]
 2474 00c6 A323     		movs	r3, #163
 2475 00c8 9B00     		lsls	r3, r3, #2
 2476 00ca 534A     		ldr	r2, .L153+8
 2477 00cc 6C32     		adds	r2, r2, #108
 2478 00ce 5349     		ldr	r1, .L153+12
 2479 00d0 0020     		movs	r0, #0
 2480              	.LVL403:
 2481 00d2 A047     		blx	r4
 2482              	.LVL404:
 2483              	.LBE65:
 653:Source\azure_iot_sdk\uamqp\src/cbs.c ****                 result = __FAILURE__;
 2484              		.loc 1 653 0 is_stmt 1 discriminator 4
 2485 00d4 584C     		ldr	r4, .L153+40
 2486              	.LVL405:
 2487 00d6 8BE0     		b	.L138
 2488              	.LVL406:
 2489              	.L137:
 654:Source\azure_iot_sdk\uamqp\src/cbs.c ****             }
 655:Source\azure_iot_sdk\uamqp\src/cbs.c ****             else
 656:Source\azure_iot_sdk\uamqp\src/cbs.c ****             {
 657:Source\azure_iot_sdk\uamqp\src/cbs.c ****                 if (add_string_key_value_pair_to_map(application_properties, "name", audience) != 0
 2490              		.loc 1 657 0
 2491 00d8 3200     		movs	r2, r6
 2492 00da 5849     		ldr	r1, .L153+44
 2493 00dc 0698     		ldr	r0, [sp, #24]
 2494              	.LVL407:
 2495 00de FFF7FEFF 		bl	add_string_key_value_pair_to_map
 2496              	.LVL408:
 2497 00e2 0028     		cmp	r0, #0
 2498 00e4 71D1     		bne	.L147
 658:Source\azure_iot_sdk\uamqp\src/cbs.c ****                 {
 659:Source\azure_iot_sdk\uamqp\src/cbs.c ****                     result = __FAILURE__;
 660:Source\azure_iot_sdk\uamqp\src/cbs.c ****                 }
 661:Source\azure_iot_sdk\uamqp\src/cbs.c ****                 else
 662:Source\azure_iot_sdk\uamqp\src/cbs.c ****                 {
 663:Source\azure_iot_sdk\uamqp\src/cbs.c ****                     /* Codes_SRS_CBS_01_021: [ The request message has the following application-pr
 664:Source\azure_iot_sdk\uamqp\src/cbs.c ****                     if (message_set_application_properties(message, application_properties) != 0)
 2499              		.loc 1 664 0
 2500 00e6 0699     		ldr	r1, [sp, #24]
 2501 00e8 0798     		ldr	r0, [sp, #28]
 2502 00ea FFF7FEFF 		bl	message_set_application_properties
 2503              	.LVL409:
 2504 00ee 0028     		cmp	r0, #0
 2505 00f0 10D0     		beq	.L140
 2506              	.LBB66:
 665:Source\azure_iot_sdk\uamqp\src/cbs.c ****                     {
ARM GAS  C:\Users\Phuong\AppData\Local\Temp\ccGVgD3r.s 			page 58


 666:Source\azure_iot_sdk\uamqp\src/cbs.c ****                         /* Codes_SRS_CBS_01_071: [ If constructing the message fails, `cbs_delete_t
 667:Source\azure_iot_sdk\uamqp\src/cbs.c ****                         LogError("Failed setting message application properties");
 2507              		.loc 1 667 0 discriminator 3
 2508 00f2 FFF7FEFF 		bl	xlogging_get_log_function
 2509              	.LVL410:
 2510 00f6 041E     		subs	r4, r0, #0
 2511              	.LVL411:
 2512 00f8 69D0     		beq	.L148
 2513              		.loc 1 667 0 is_stmt 0 discriminator 4
 2514 00fa 514B     		ldr	r3, .L153+48
 2515 00fc 0193     		str	r3, [sp, #4]
 2516 00fe 0123     		movs	r3, #1
 2517 0100 0093     		str	r3, [sp]
 2518 0102 504B     		ldr	r3, .L153+52
 2519 0104 444A     		ldr	r2, .L153+8
 2520 0106 6C32     		adds	r2, r2, #108
 2521 0108 4449     		ldr	r1, .L153+12
 2522 010a 0020     		movs	r0, #0
 2523              	.LVL412:
 2524 010c A047     		blx	r4
 2525              	.LVL413:
 2526              	.LBE66:
 668:Source\azure_iot_sdk\uamqp\src/cbs.c ****                         result = __FAILURE__;
 2527              		.loc 1 668 0 is_stmt 1 discriminator 4
 2528 010e A724     		movs	r4, #167
 2529              	.LVL414:
 2530 0110 A400     		lsls	r4, r4, #2
 2531 0112 68E0     		b	.L139
 2532              	.LVL415:
 2533              	.L140:
 2534              	.LBB67:
 669:Source\azure_iot_sdk\uamqp\src/cbs.c ****                     }
 670:Source\azure_iot_sdk\uamqp\src/cbs.c ****                     else
 671:Source\azure_iot_sdk\uamqp\src/cbs.c ****                     {
 672:Source\azure_iot_sdk\uamqp\src/cbs.c ****                         CBS_OPERATION* cbs_operation = (CBS_OPERATION*)malloc(sizeof(CBS_OPERATION)
 2535              		.loc 1 672 0
 2536 0114 0C20     		movs	r0, #12
 2537 0116 FFF7FEFF 		bl	malloc
 2538              	.LVL416:
 2539 011a 8046     		mov	r8, r0
 2540              	.LVL417:
 673:Source\azure_iot_sdk\uamqp\src/cbs.c ****                         if (cbs_operation == NULL)
 2541              		.loc 1 673 0
 2542 011c 0028     		cmp	r0, #0
 2543 011e 10D1     		bne	.L141
 2544              	.LBB68:
 674:Source\azure_iot_sdk\uamqp\src/cbs.c ****                         {
 675:Source\azure_iot_sdk\uamqp\src/cbs.c ****                             LogError("Failed allocating CBS operation instance");
 2545              		.loc 1 675 0 discriminator 3
 2546 0120 FFF7FEFF 		bl	xlogging_get_log_function
 2547              	.LVL418:
 2548 0124 041E     		subs	r4, r0, #0
 2549              	.LVL419:
 2550 0126 55D0     		beq	.L149
 2551              		.loc 1 675 0 is_stmt 0 discriminator 4
 2552 0128 474B     		ldr	r3, .L153+56
 2553 012a 0193     		str	r3, [sp, #4]
ARM GAS  C:\Users\Phuong\AppData\Local\Temp\ccGVgD3r.s 			page 59


 2554 012c 0123     		movs	r3, #1
 2555 012e 0093     		str	r3, [sp]
 2556 0130 464B     		ldr	r3, .L153+60
 2557 0132 394A     		ldr	r2, .L153+8
 2558 0134 6C32     		adds	r2, r2, #108
 2559 0136 3949     		ldr	r1, .L153+12
 2560 0138 0020     		movs	r0, #0
 2561              	.LVL420:
 2562 013a A047     		blx	r4
 2563              	.LVL421:
 2564              	.LBE68:
 676:Source\azure_iot_sdk\uamqp\src/cbs.c ****                             result = __FAILURE__;
 2565              		.loc 1 676 0 is_stmt 1 discriminator 4
 2566 013c A924     		movs	r4, #169
 2567              	.LVL422:
 2568 013e A400     		lsls	r4, r4, #2
 2569 0140 51E0     		b	.L139
 2570              	.LVL423:
 2571              	.L141:
 2572              	.LBB69:
 677:Source\azure_iot_sdk\uamqp\src/cbs.c ****                         }
 678:Source\azure_iot_sdk\uamqp\src/cbs.c ****                         else
 679:Source\azure_iot_sdk\uamqp\src/cbs.c ****                         {
 680:Source\azure_iot_sdk\uamqp\src/cbs.c ****                             LIST_ITEM_HANDLE list_item;
 681:Source\azure_iot_sdk\uamqp\src/cbs.c **** 
 682:Source\azure_iot_sdk\uamqp\src/cbs.c ****                             cbs_operation->on_cbs_operation_complete = on_cbs_delete_token_complete
 2573              		.loc 1 682 0
 2574 0142 0760     		str	r7, [r0]
 683:Source\azure_iot_sdk\uamqp\src/cbs.c ****                             cbs_operation->on_cbs_operation_complete_context = on_cbs_delete_token_
 2575              		.loc 1 683 0
 2576 0144 109A     		ldr	r2, [sp, #64]
 2577 0146 4260     		str	r2, [r0, #4]
 684:Source\azure_iot_sdk\uamqp\src/cbs.c ****                             cbs_operation->pending_operations = cbs->pending_operations;
 2578              		.loc 1 684 0
 2579 0148 A269     		ldr	r2, [r4, #24]
 2580 014a 8260     		str	r2, [r0, #8]
 685:Source\azure_iot_sdk\uamqp\src/cbs.c **** 
 686:Source\azure_iot_sdk\uamqp\src/cbs.c ****                             list_item = singlylinkedlist_add(cbs->pending_operations, cbs_operation
 2581              		.loc 1 686 0
 2582 014c 0100     		movs	r1, r0
 2583 014e A069     		ldr	r0, [r4, #24]
 2584              	.LVL424:
 2585 0150 FFF7FEFF 		bl	singlylinkedlist_add
 2586              	.LVL425:
 2587 0154 8146     		mov	r9, r0
 2588              	.LVL426:
 687:Source\azure_iot_sdk\uamqp\src/cbs.c ****                             if (list_item == NULL)
 2589              		.loc 1 687 0
 2590 0156 0028     		cmp	r0, #0
 2591 0158 12D1     		bne	.L142
 688:Source\azure_iot_sdk\uamqp\src/cbs.c ****                             {
 689:Source\azure_iot_sdk\uamqp\src/cbs.c ****                                 free(cbs_operation);
 2592              		.loc 1 689 0
 2593 015a 4046     		mov	r0, r8
 2594              	.LVL427:
 2595 015c FFF7FEFF 		bl	free
 2596              	.LVL428:
ARM GAS  C:\Users\Phuong\AppData\Local\Temp\ccGVgD3r.s 			page 60


 2597              	.LBB70:
 690:Source\azure_iot_sdk\uamqp\src/cbs.c ****                                 LogError("Failed adding pending operation to list");
 2598              		.loc 1 690 0
 2599 0160 FFF7FEFF 		bl	xlogging_get_log_function
 2600              	.LVL429:
 2601 0164 041E     		subs	r4, r0, #0
 2602              	.LVL430:
 2603 0166 38D0     		beq	.L150
 2604              		.loc 1 690 0 is_stmt 0 discriminator 4
 2605 0168 394B     		ldr	r3, .L153+64
 2606 016a 0193     		str	r3, [sp, #4]
 2607 016c 0123     		movs	r3, #1
 2608 016e 0093     		str	r3, [sp]
 2609 0170 384B     		ldr	r3, .L153+68
 2610 0172 294A     		ldr	r2, .L153+8
 2611 0174 6C32     		adds	r2, r2, #108
 2612 0176 2949     		ldr	r1, .L153+12
 2613 0178 0020     		movs	r0, #0
 2614              	.LVL431:
 2615 017a A047     		blx	r4
 2616              	.LVL432:
 2617              	.LBE70:
 691:Source\azure_iot_sdk\uamqp\src/cbs.c ****                                 result = __FAILURE__;
 2618              		.loc 1 691 0 is_stmt 1 discriminator 4
 2619 017c 364C     		ldr	r4, .L153+72
 2620              	.LVL433:
 2621 017e 32E0     		b	.L139
 2622              	.LVL434:
 2623              	.L142:
 692:Source\azure_iot_sdk\uamqp\src/cbs.c ****                             }
 693:Source\azure_iot_sdk\uamqp\src/cbs.c ****                             else
 694:Source\azure_iot_sdk\uamqp\src/cbs.c ****                             {
 695:Source\azure_iot_sdk\uamqp\src/cbs.c ****                                 /* Codes_SRS_CBS_01_061: [ `cbs_delete_token_async` shall start the
 696:Source\azure_iot_sdk\uamqp\src/cbs.c ****                                 /* Codes_SRS_CBS_01_085: [ The `amqp_management` argument shall be 
 697:Source\azure_iot_sdk\uamqp\src/cbs.c ****                                 /* Codes_SRS_CBS_01_062: [ The `operation` argument shall be `delet
 698:Source\azure_iot_sdk\uamqp\src/cbs.c ****                                 /* Codes_SRS_CBS_01_063: [ The `type` argument shall be set to the 
 699:Source\azure_iot_sdk\uamqp\src/cbs.c ****                                 /* Codes_SRS_CBS_01_064: [ The `locales` argument shall be set to N
 700:Source\azure_iot_sdk\uamqp\src/cbs.c ****                                 /* Codes_SRS_CBS_01_065: [ The `message` argument shall be the mess
 701:Source\azure_iot_sdk\uamqp\src/cbs.c ****                                 /* Codes_SRS_CBS_01_066: [ The arguments `on_operation_complete` an
 702:Source\azure_iot_sdk\uamqp\src/cbs.c ****                                 /* Codes_SRS_CBS_01_020: [ To instruct a peer to delete a token ass
 703:Source\azure_iot_sdk\uamqp\src/cbs.c ****                                 /* Codes_SRS_CBS_01_022: [ operation    Yes    string    "delete-to
 704:Source\azure_iot_sdk\uamqp\src/cbs.c ****                                 /* Codes_SRS_CBS_01_023: [ Type    Yes    string    The type of the
 705:Source\azure_iot_sdk\uamqp\src/cbs.c ****                                 /* Codes_SRS_CBS_01_024: [ name    Yes    string    The "audience" 
 706:Source\azure_iot_sdk\uamqp\src/cbs.c ****                                 if (amqp_management_execute_operation_async(cbs->amqp_management, "
 2624              		.loc 1 706 0
 2625 0180 0290     		str	r0, [sp, #8]
 2626 0182 364B     		ldr	r3, .L153+76
 2627 0184 0193     		str	r3, [sp, #4]
 2628 0186 079B     		ldr	r3, [sp, #28]
 2629 0188 0093     		str	r3, [sp]
 2630 018a 0023     		movs	r3, #0
 2631 018c 2A00     		movs	r2, r5
 2632 018e 3449     		ldr	r1, .L153+80
 2633 0190 2068     		ldr	r0, [r4]
 2634              	.LVL435:
 2635 0192 FFF7FEFF 		bl	amqp_management_execute_operation_async
 2636              	.LVL436:
ARM GAS  C:\Users\Phuong\AppData\Local\Temp\ccGVgD3r.s 			page 61


 2637 0196 0028     		cmp	r0, #0
 2638 0198 21D0     		beq	.L151
 707:Source\azure_iot_sdk\uamqp\src/cbs.c ****                                 {
 708:Source\azure_iot_sdk\uamqp\src/cbs.c ****                                     /* Codes_SRS_CBS_01_087: [ If `amqp_management_execute_operatio
 709:Source\azure_iot_sdk\uamqp\src/cbs.c ****                                     singlylinkedlist_remove(cbs->pending_operations, list_item);
 2639              		.loc 1 709 0
 2640 019a A069     		ldr	r0, [r4, #24]
 2641 019c 4946     		mov	r1, r9
 2642 019e FFF7FEFF 		bl	singlylinkedlist_remove
 2643              	.LVL437:
 710:Source\azure_iot_sdk\uamqp\src/cbs.c ****                                     free(cbs_operation);
 2644              		.loc 1 710 0
 2645 01a2 4046     		mov	r0, r8
 2646 01a4 FFF7FEFF 		bl	free
 2647              	.LVL438:
 2648              	.LBB71:
 711:Source\azure_iot_sdk\uamqp\src/cbs.c ****                                     LogError("Failed starting AMQP management operation");
 2649              		.loc 1 711 0
 2650 01a8 FFF7FEFF 		bl	xlogging_get_log_function
 2651              	.LVL439:
 2652 01ac 041E     		subs	r4, r0, #0
 2653              	.LVL440:
 2654 01ae 18D0     		beq	.L152
 2655              		.loc 1 711 0 is_stmt 0 discriminator 4
 2656 01b0 2C4B     		ldr	r3, .L153+84
 2657 01b2 0193     		str	r3, [sp, #4]
 2658 01b4 0123     		movs	r3, #1
 2659 01b6 0093     		str	r3, [sp]
 2660 01b8 2B4B     		ldr	r3, .L153+88
 2661 01ba 174A     		ldr	r2, .L153+8
 2662 01bc 6C32     		adds	r2, r2, #108
 2663 01be 1749     		ldr	r1, .L153+12
 2664 01c0 0020     		movs	r0, #0
 2665              	.LVL441:
 2666 01c2 A047     		blx	r4
 2667              	.LVL442:
 2668              	.LBE71:
 712:Source\azure_iot_sdk\uamqp\src/cbs.c ****                                     result = __FAILURE__;
 2669              		.loc 1 712 0 is_stmt 1 discriminator 4
 2670 01c4 B224     		movs	r4, #178
 2671              	.LVL443:
 2672 01c6 A400     		lsls	r4, r4, #2
 2673 01c8 0DE0     		b	.L139
 2674              	.LVL444:
 2675              	.L147:
 2676              	.LBE69:
 2677              	.LBE67:
 659:Source\azure_iot_sdk\uamqp\src/cbs.c ****                 }
 2678              		.loc 1 659 0
 2679 01ca 284C     		ldr	r4, .L153+92
 2680              	.LVL445:
 2681 01cc 0BE0     		b	.L139
 2682              	.LVL446:
 2683              	.L148:
 668:Source\azure_iot_sdk\uamqp\src/cbs.c ****                     }
 2684              		.loc 1 668 0
 2685 01ce A724     		movs	r4, #167
ARM GAS  C:\Users\Phuong\AppData\Local\Temp\ccGVgD3r.s 			page 62


 2686 01d0 A400     		lsls	r4, r4, #2
 2687 01d2 08E0     		b	.L139
 2688              	.LVL447:
 2689              	.L149:
 2690              	.LBB73:
 676:Source\azure_iot_sdk\uamqp\src/cbs.c ****                         }
 2691              		.loc 1 676 0
 2692 01d4 A924     		movs	r4, #169
 2693 01d6 A400     		lsls	r4, r4, #2
 2694 01d8 05E0     		b	.L139
 2695              	.LVL448:
 2696              	.L150:
 2697              	.LBB72:
 691:Source\azure_iot_sdk\uamqp\src/cbs.c ****                             }
 2698              		.loc 1 691 0
 2699 01da 1F4C     		ldr	r4, .L153+72
 2700 01dc 03E0     		b	.L139
 2701              	.LVL449:
 2702              	.L151:
 713:Source\azure_iot_sdk\uamqp\src/cbs.c ****                                 }
 714:Source\azure_iot_sdk\uamqp\src/cbs.c ****                                 else
 715:Source\azure_iot_sdk\uamqp\src/cbs.c ****                                 {
 716:Source\azure_iot_sdk\uamqp\src/cbs.c ****                                     /* Codes_SRS_CBS_01_082: [ On success `cbs_delete_token_async` 
 717:Source\azure_iot_sdk\uamqp\src/cbs.c ****                                     result = 0;
 2703              		.loc 1 717 0
 2704 01de 0024     		movs	r4, #0
 2705              	.LVL450:
 2706 01e0 01E0     		b	.L139
 2707              	.LVL451:
 2708              	.L152:
 712:Source\azure_iot_sdk\uamqp\src/cbs.c ****                                 }
 2709              		.loc 1 712 0
 2710 01e2 B224     		movs	r4, #178
 2711 01e4 A400     		lsls	r4, r4, #2
 2712              	.LVL452:
 2713              	.L139:
 2714              	.LBE72:
 2715              	.LBE73:
 718:Source\azure_iot_sdk\uamqp\src/cbs.c ****                                 }
 719:Source\azure_iot_sdk\uamqp\src/cbs.c ****                             }
 720:Source\azure_iot_sdk\uamqp\src/cbs.c ****                         }
 721:Source\azure_iot_sdk\uamqp\src/cbs.c ****                     }
 722:Source\azure_iot_sdk\uamqp\src/cbs.c ****                 }
 723:Source\azure_iot_sdk\uamqp\src/cbs.c **** 
 724:Source\azure_iot_sdk\uamqp\src/cbs.c ****                 amqpvalue_destroy(application_properties);
 2716              		.loc 1 724 0
 2717 01e6 0698     		ldr	r0, [sp, #24]
 2718 01e8 FFF7FEFF 		bl	amqpvalue_destroy
 2719              	.LVL453:
 2720 01ec 00E0     		b	.L138
 2721              	.LVL454:
 2722              	.L146:
 653:Source\azure_iot_sdk\uamqp\src/cbs.c ****             }
 2723              		.loc 1 653 0
 2724 01ee 124C     		ldr	r4, .L153+40
 2725              	.LVL455:
 2726              	.L138:
ARM GAS  C:\Users\Phuong\AppData\Local\Temp\ccGVgD3r.s 			page 63


 725:Source\azure_iot_sdk\uamqp\src/cbs.c ****             }
 726:Source\azure_iot_sdk\uamqp\src/cbs.c **** 
 727:Source\azure_iot_sdk\uamqp\src/cbs.c ****             message_destroy(message);
 2727              		.loc 1 727 0
 2728 01f0 0798     		ldr	r0, [sp, #28]
 2729 01f2 FFF7FEFF 		bl	message_destroy
 2730              	.LVL456:
 2731 01f6 05E0     		b	.L133
 2732              	.LVL457:
 2733              	.L143:
 2734              	.LBE64:
 2735              	.LBE62:
 626:Source\azure_iot_sdk\uamqp\src/cbs.c ****     }
 2736              		.loc 1 626 0
 2737 01f8 094C     		ldr	r4, .L153+16
 2738              	.LVL458:
 2739 01fa 03E0     		b	.L133
 2740              	.LVL459:
 2741              	.L144:
 633:Source\azure_iot_sdk\uamqp\src/cbs.c ****     }
 2742              		.loc 1 633 0
 2743 01fc 0A4C     		ldr	r4, .L153+24
 2744 01fe 01E0     		b	.L133
 2745              	.LVL460:
 2746              	.L145:
 2747              	.LBB74:
 644:Source\azure_iot_sdk\uamqp\src/cbs.c ****         }
 2748              		.loc 1 644 0
 2749 0200 A124     		movs	r4, #161
 2750 0202 A400     		lsls	r4, r4, #2
 2751              	.LVL461:
 2752              	.L133:
 2753              	.LBE74:
 728:Source\azure_iot_sdk\uamqp\src/cbs.c ****         }
 729:Source\azure_iot_sdk\uamqp\src/cbs.c ****     }
 730:Source\azure_iot_sdk\uamqp\src/cbs.c ****     return result;
 731:Source\azure_iot_sdk\uamqp\src/cbs.c **** }
 2754              		.loc 1 731 0
 2755 0204 2000     		movs	r0, r4
 2756 0206 09B0     		add	sp, sp, #36
 2757              		@ sp needed
 2758              	.LVL462:
 2759              	.LVL463:
 2760              	.LVL464:
 2761              	.LVL465:
 2762 0208 0CBC     		pop	{r2, r3}
 2763 020a 9046     		mov	r8, r2
 2764 020c 9946     		mov	r9, r3
 2765 020e F0BD     		pop	{r4, r5, r6, r7, pc}
 2766              	.L154:
 2767              		.align	2
 2768              	.L153:
 2769 0210 04080000 		.word	.LC121
 2770 0214 71020000 		.word	625
 2771 0218 80000000 		.word	.LANCHOR1
 2772 021c 00000000 		.word	.LC1
 2773 0220 72020000 		.word	626
ARM GAS  C:\Users\Phuong\AppData\Local\Temp\ccGVgD3r.s 			page 64


 2774 0224 7C060000 		.word	.LC96
 2775 0228 79020000 		.word	633
 2776 022c A8060000 		.word	.LC98
 2777 0230 83020000 		.word	643
 2778 0234 14070000 		.word	.LC104
 2779 0238 8D020000 		.word	653
 2780 023c 40070000 		.word	.LC106
 2781 0240 48070000 		.word	.LC108
 2782 0244 9B020000 		.word	667
 2783 0248 78070000 		.word	.LC110
 2784 024c A3020000 		.word	675
 2785 0250 A4070000 		.word	.LC112
 2786 0254 B2020000 		.word	690
 2787 0258 B3020000 		.word	691
 2788 025c 00000000 		.word	on_amqp_management_execute_operation_complete
 2789 0260 5C080000 		.word	.LC130
 2790 0264 D8070000 		.word	.LC117
 2791 0268 C7020000 		.word	711
 2792 026c 93020000 		.word	659
 2793              		.cfi_endproc
 2794              	.LFE10:
 2795              		.size	cbs_delete_token_async, .-cbs_delete_token_async
 2796              		.section	.text.cbs_set_trace,"ax",%progbits
 2797              		.align	2
 2798              		.global	cbs_set_trace
 2799              		.code	16
 2800              		.thumb_func
 2801              		.type	cbs_set_trace, %function
 2802              	cbs_set_trace:
 2803              	.LFB11:
 732:Source\azure_iot_sdk\uamqp\src/cbs.c **** 
 733:Source\azure_iot_sdk\uamqp\src/cbs.c **** int cbs_set_trace(CBS_HANDLE cbs, bool trace_on)
 734:Source\azure_iot_sdk\uamqp\src/cbs.c **** {
 2804              		.loc 1 734 0
 2805              		.cfi_startproc
 2806              		@ args = 0, pretend = 0, frame = 0
 2807              		@ frame_needed = 0, uses_anonymous_args = 0
 2808              	.LVL466:
 2809 0000 10B5     		push	{r4, lr}
 2810              		.cfi_def_cfa_offset 8
 2811              		.cfi_offset 4, -8
 2812              		.cfi_offset 14, -4
 2813 0002 82B0     		sub	sp, sp, #8
 2814              		.cfi_def_cfa_offset 16
 735:Source\azure_iot_sdk\uamqp\src/cbs.c ****     int result;
 736:Source\azure_iot_sdk\uamqp\src/cbs.c **** 
 737:Source\azure_iot_sdk\uamqp\src/cbs.c ****     if (cbs == NULL)
 2815              		.loc 1 737 0
 2816 0004 0028     		cmp	r0, #0
 2817 0006 10D1     		bne	.L156
 2818              	.LBB75:
 738:Source\azure_iot_sdk\uamqp\src/cbs.c ****     {
 739:Source\azure_iot_sdk\uamqp\src/cbs.c ****         /* Codes_SRS_CBS_01_090: [ If the argument `cbs` is NULL, `cbs_set_trace` shall fail and re
 740:Source\azure_iot_sdk\uamqp\src/cbs.c ****         LogError("NULL cbs handle");
 2819              		.loc 1 740 0 discriminator 3
 2820 0008 FFF7FEFF 		bl	xlogging_get_log_function
 2821              	.LVL467:
ARM GAS  C:\Users\Phuong\AppData\Local\Temp\ccGVgD3r.s 			page 65


 2822 000c 041E     		subs	r4, r0, #0
 2823              	.LVL468:
 2824 000e 11D0     		beq	.L158
 2825              		.loc 1 740 0 is_stmt 0 discriminator 4
 2826 0010 0A4B     		ldr	r3, .L159
 2827 0012 0193     		str	r3, [sp, #4]
 2828 0014 0123     		movs	r3, #1
 2829 0016 0093     		str	r3, [sp]
 2830 0018 B923     		movs	r3, #185
 2831 001a 9B00     		lsls	r3, r3, #2
 2832 001c 084A     		ldr	r2, .L159+4
 2833 001e 0432     		adds	r2, r2, #4
 2834 0020 0849     		ldr	r1, .L159+8
 2835 0022 0020     		movs	r0, #0
 2836              	.LVL469:
 2837 0024 A047     		blx	r4
 2838              	.LVL470:
 2839              	.LBE75:
 741:Source\azure_iot_sdk\uamqp\src/cbs.c ****         result = __FAILURE__;
 2840              		.loc 1 741 0 is_stmt 1 discriminator 4
 2841 0026 0848     		ldr	r0, .L159+12
 2842 0028 05E0     		b	.L157
 2843              	.LVL471:
 2844              	.L156:
 742:Source\azure_iot_sdk\uamqp\src/cbs.c ****     }
 743:Source\azure_iot_sdk\uamqp\src/cbs.c ****     else
 744:Source\azure_iot_sdk\uamqp\src/cbs.c ****     {
 745:Source\azure_iot_sdk\uamqp\src/cbs.c ****         /* Codes_SRS_CBS_01_088: [ `cbs_set_trace` shall enable or disable tracing by calling `amqp
 746:Source\azure_iot_sdk\uamqp\src/cbs.c ****         amqp_management_set_trace(cbs->amqp_management, trace_on);
 2845              		.loc 1 746 0
 2846 002a 0068     		ldr	r0, [r0]
 2847              	.LVL472:
 2848 002c FFF7FEFF 		bl	amqp_management_set_trace
 2849              	.LVL473:
 747:Source\azure_iot_sdk\uamqp\src/cbs.c **** 
 748:Source\azure_iot_sdk\uamqp\src/cbs.c ****         /* Codes_SRS_CBS_01_089: [ On success, `cbs_set_trace` shall return 0. ]*/
 749:Source\azure_iot_sdk\uamqp\src/cbs.c ****         result = 0;
 2850              		.loc 1 749 0
 2851 0030 0020     		movs	r0, #0
 2852 0032 00E0     		b	.L157
 2853              	.LVL474:
 2854              	.L158:
 741:Source\azure_iot_sdk\uamqp\src/cbs.c ****     }
 2855              		.loc 1 741 0
 2856 0034 0448     		ldr	r0, .L159+12
 2857              	.LVL475:
 2858              	.L157:
 750:Source\azure_iot_sdk\uamqp\src/cbs.c ****     }
 751:Source\azure_iot_sdk\uamqp\src/cbs.c **** 
 752:Source\azure_iot_sdk\uamqp\src/cbs.c ****     return result;
 753:Source\azure_iot_sdk\uamqp\src/cbs.c **** }
 2859              		.loc 1 753 0
 2860 0036 02B0     		add	sp, sp, #8
 2861              		@ sp needed
 2862 0038 10BD     		pop	{r4, pc}
 2863              	.L160:
 2864 003a C046     		.align	2
ARM GAS  C:\Users\Phuong\AppData\Local\Temp\ccGVgD3r.s 			page 66


 2865              	.L159:
 2866 003c D4040000 		.word	.LC67
 2867 0040 00010000 		.word	.LANCHOR2
 2868 0044 00000000 		.word	.LC1
 2869 0048 E5020000 		.word	741
 2870              		.cfi_endproc
 2871              	.LFE11:
 2872              		.size	cbs_set_trace, .-cbs_set_trace
 2873              		.section	.rodata
 2874              		.align	2
 2875              		.set	.LANCHOR0,. + 0
 2876              		.set	.LANCHOR1,. + 128
 2877              		.set	.LANCHOR2,. + 256
 2878              		.type	__func__.7473, %object
 2879              		.size	__func__.7473, 36
 2880              	__func__.7473:
 2881 0000 6F6E5F75 		.ascii	"on_underlying_amqp_management_error\000"
 2881      6E646572 
 2881      6C79696E 
 2881      675F616D 
 2881      71705F6D 
 2882              		.type	__func__.7430, %object
 2883              		.size	__func__.7430, 44
 2884              	__func__.7430:
 2885 0024 6F6E5F75 		.ascii	"on_underlying_amqp_management_open_complete\000"
 2885      6E646572 
 2885      6C79696E 
 2885      675F616D 
 2885      71705F6D 
 2886              		.type	__func__.7496, %object
 2887              		.size	__func__.7496, 46
 2888              	__func__.7496:
 2889 0050 6F6E5F61 		.ascii	"on_amqp_management_execute_operation_complete\000"
 2889      6D71705F 
 2889      6D616E61 
 2889      67656D65 
 2889      6E745F65 
 2890 007e 0000     		.space	2
 2891              		.type	__func__.7415, %object
 2892              		.size	__func__.7415, 33
 2893              	__func__.7415:
 2894 0080 6164645F 		.ascii	"add_string_key_value_pair_to_map\000"
 2894      73747269 
 2894      6E675F6B 
 2894      65795F76 
 2894      616C7565 
 2895 00a1 000000   		.space	3
 2896              		.type	__func__.7518, %object
 2897              		.size	__func__.7518, 11
 2898              	__func__.7518:
 2899 00a4 6362735F 		.ascii	"cbs_create\000"
 2899      63726561 
 2899      746500
 2900 00af 00       		.space	1
 2901              		.type	__func__.7541, %object
 2902              		.size	__func__.7541, 12
 2903              	__func__.7541:
ARM GAS  C:\Users\Phuong\AppData\Local\Temp\ccGVgD3r.s 			page 67


 2904 00b0 6362735F 		.ascii	"cbs_destroy\000"
 2904      64657374 
 2904      726F7900 
 2905              		.type	__func__.7561, %object
 2906              		.size	__func__.7561, 15
 2907              	__func__.7561:
 2908 00bc 6362735F 		.ascii	"cbs_open_async\000"
 2908      6F70656E 
 2908      5F617379 
 2908      6E6300
 2909 00cb 00       		.space	1
 2910              		.type	__func__.7581, %object
 2911              		.size	__func__.7581, 10
 2912              	__func__.7581:
 2913 00cc 6362735F 		.ascii	"cbs_close\000"
 2913      636C6F73 
 2913      6500
 2914 00d6 0000     		.space	2
 2915              		.type	__func__.7600, %object
 2916              		.size	__func__.7600, 20
 2917              	__func__.7600:
 2918 00d8 6362735F 		.ascii	"cbs_put_token_async\000"
 2918      7075745F 
 2918      746F6B65 
 2918      6E5F6173 
 2918      796E6300 
 2919              		.type	__func__.7644, %object
 2920              		.size	__func__.7644, 23
 2921              	__func__.7644:
 2922 00ec 6362735F 		.ascii	"cbs_delete_token_async\000"
 2922      64656C65 
 2922      74655F74 
 2922      6F6B656E 
 2922      5F617379 
 2923 0103 00       		.space	1
 2924              		.type	__func__.7678, %object
 2925              		.size	__func__.7678, 14
 2926              	__func__.7678:
 2927 0104 6362735F 		.ascii	"cbs_set_trace\000"
 2927      7365745F 
 2927      74726163 
 2927      6500
 2928              		.section	.rodata.str1.4,"aMS",%progbits,1
 2929              		.align	2
 2930              	.LC1:
 2931 0000 536F7572 		.ascii	"Source\\azure_iot_sdk\\uamqp\\src\\cbs.c\000"
 2931      63655C61 
 2931      7A757265 
 2931      5F696F74 
 2931      5F73646B 
 2932 0025 000000   		.space	3
 2933              	.LC3:
 2934 0028 6F6E5F75 		.ascii	"on_underlying_amqp_management_error called with NUL"
 2934      6E646572 
 2934      6C79696E 
 2934      675F616D 
 2934      71705F6D 
ARM GAS  C:\Users\Phuong\AppData\Local\Temp\ccGVgD3r.s 			page 68


 2935 005b 4C20636F 		.ascii	"L context\000"
 2935      6E746578 
 2935      7400
 2936 0065 000000   		.space	3
 2937              	.LC5:
 2938 0068 414D5150 		.ascii	"AMQP management error in unknown state\000"
 2938      206D616E 
 2938      6167656D 
 2938      656E7420 
 2938      6572726F 
 2939 008f 00       		.space	1
 2940              	.LC7:
 2941 0090 556E6578 		.ascii	"Unexpected AMQP error in CLOSED state\000"
 2941      70656374 
 2941      65642041 
 2941      4D515020 
 2941      6572726F 
 2942 00b6 0000     		.space	2
 2943              	.LC11:
 2944 00b8 6F6E5F75 		.ascii	"on_underlying_amqp_management_open_complete called "
 2944      6E646572 
 2944      6C79696E 
 2944      675F616D 
 2944      71705F6D 
 2945 00eb 77697468 		.ascii	"with NULL context\000"
 2945      204E554C 
 2945      4C20636F 
 2945      6E746578 
 2945      7400
 2946 00fd 000000   		.space	3
 2947              	.LC13:
 2948 0100 50534F43 		.ascii	"PSOC6--CBS_OPEN_DEBUGGING_on_underlying_amqp_manage"
 2948      362D2D43 
 2948      42535F4F 
 2948      50454E5F 
 2948      44454255 
 2949 0133 6D656E74 		.ascii	"ment_open_complete--PSOC6\000"
 2949      5F6F7065 
 2949      6E5F636F 
 2949      6D706C65 
 2949      74652D2D 
 2950 014d 000000   		.space	3
 2951              	.LC15:
 2952 0150 414D5150 		.ascii	"AMQP management open complete in unknown state\000"
 2952      206D616E 
 2952      6167656D 
 2952      656E7420 
 2952      6F70656E 
 2953 017f 00       		.space	1
 2954              	.LC17:
 2955 0180 556E6578 		.ascii	"Unexpected AMQP management open complete\000"
 2955      70656374 
 2955      65642041 
 2955      4D515020 
 2955      6D616E61 
 2956 01a9 000000   		.space	3
 2957              	.LC19:
ARM GAS  C:\Users\Phuong\AppData\Local\Temp\ccGVgD3r.s 			page 69


 2958 01ac 556E6578 		.ascii	"Unexpected AMQP management open complete in OPEN\000"
 2958      70656374 
 2958      65642041 
 2958      4D515020 
 2958      6D616E61 
 2959 01dd 000000   		.space	3
 2960              	.LC21:
 2961 01e0 556E6B6E 		.ascii	"Unknown AMQP management state\000"
 2961      6F776E20 
 2961      414D5150 
 2961      206D616E 
 2961      6167656D 
 2962 01fe 0000     		.space	2
 2963              	.LC23:
 2964 0200 50534F43 		.ascii	"PSOC6---AMQP_MANAGEMENT_OPEN_ERROR---PSOC6\000"
 2964      362D2D2D 
 2964      414D5150 
 2964      5F4D414E 
 2964      4147454D 
 2965 022b 00       		.space	1
 2966              	.LC25:
 2967 022c 50534F43 		.ascii	"PSOC6---AMQP_MANAGEMENT_OPEN_CANCELLED---PSOC6\000"
 2967      362D2D2D 
 2967      414D5150 
 2967      5F4D414E 
 2967      4147454D 
 2968 025b 00       		.space	1
 2969              	.LC27:
 2970 025c 50534F43 		.ascii	"PSOC6---AMQP_MANAGEMENT_OPEN_OK---PSOC6\000"
 2970      362D2D2D 
 2970      414D5150 
 2970      5F4D414E 
 2970      4147454D 
 2971              	.LC31:
 2972 0284 6F6E5F61 		.ascii	"on_amqp_management_execute_operation_complete calle"
 2972      6D71705F 
 2972      6D616E61 
 2972      67656D65 
 2972      6E745F65 
 2973 02b7 64207769 		.ascii	"d with NULL context\000"
 2973      7468204E 
 2973      554C4C20 
 2973      636F6E74 
 2973      65787400 
 2974 02cb 00       		.space	1
 2975              	.LC33:
 2976 02cc 4E554C4C 		.ascii	"NULL cbs_operation\000"
 2976      20636273 
 2976      5F6F7065 
 2976      72617469 
 2976      6F6E00
 2977 02df 00       		.space	1
 2978              	.LC35:
 2979 02e0 4661696C 		.ascii	"Failed removing operation from the pending list\000"
 2979      65642072 
 2979      656D6F76 
 2979      696E6720 
ARM GAS  C:\Users\Phuong\AppData\Local\Temp\ccGVgD3r.s 			page 70


 2979      6F706572 
 2980              	.LC39:
 2981 0310 4661696C 		.ascii	"Failed creating value for property key %s\000"
 2981      65642063 
 2981      72656174 
 2981      696E6720 
 2981      76616C75 
 2982 033a 0000     		.space	2
 2983              	.LC41:
 2984 033c 4661696C 		.ascii	"Failed creating value for property value %s\000"
 2984      65642063 
 2984      72656174 
 2984      696E6720 
 2984      76616C75 
 2985              	.LC43:
 2986 0368 4661696C 		.ascii	"Failed inserting key/value pair in the map\000"
 2986      65642069 
 2986      6E736572 
 2986      74696E67 
 2986      206B6579 
 2987 0393 00       		.space	1
 2988              	.LC47:
 2989 0394 4E554C4C 		.ascii	"NULL session handle\000"
 2989      20736573 
 2989      73696F6E 
 2989      2068616E 
 2989      646C6500 
 2990              	.LC49:
 2991 03a8 43616E6E 		.ascii	"Cannot allocate memory for cbs instance.\000"
 2991      6F742061 
 2991      6C6C6F63 
 2991      61746520 
 2991      6D656D6F 
 2992 03d1 000000   		.space	3
 2993              	.LC51:
 2994 03d4 43616E6E 		.ascii	"Cannot allocate pending operations list.\000"
 2994      6F742061 
 2994      6C6C6F63 
 2994      61746520 
 2994      70656E64 
 2995 03fd 000000   		.space	3
 2996              	.LC53:
 2997 0400 24636273 		.ascii	"$cbs\000"
 2997      00
 2998 0405 000000   		.space	3
 2999              	.LC55:
 3000 0408 50534F43 		.ascii	"PSOC6--Cannot create AMQP management instance for t"
 3000      362D2D43 
 3000      616E6E6F 
 3000      74206372 
 3000      65617465 
 3001 043b 68652024 		.ascii	"he $cbs node.--PSOC6\000"
 3001      63627320 
 3001      6E6F6465 
 3001      2E2D2D50 
 3001      534F4336 
 3002              	.LC57:
ARM GAS  C:\Users\Phuong\AppData\Local\Temp\ccGVgD3r.s 			page 71


 3003 0450 73746174 		.ascii	"status-code\000"
 3003      75732D63 
 3003      6F646500 
 3004              	.LC59:
 3005 045c 43616E6E 		.ascii	"Cannot set the override status code key name\000"
 3005      6F742073 
 3005      65742074 
 3005      6865206F 
 3005      76657272 
 3006 0489 000000   		.space	3
 3007              	.LC61:
 3008 048c 73746174 		.ascii	"status-description\000"
 3008      75732D64 
 3008      65736372 
 3008      69707469 
 3008      6F6E00
 3009 049f 00       		.space	1
 3010              	.LC63:
 3011 04a0 43616E6E 		.ascii	"Cannot set the override status description key name"
 3011      6F742073 
 3011      65742074 
 3011      6865206F 
 3011      76657272 
 3012 04d3 00       		.ascii	"\000"
 3013              	.LC67:
 3014 04d4 4E554C4C 		.ascii	"NULL cbs handle\000"
 3014      20636273 
 3014      2068616E 
 3014      646C6500 
 3015              	.LC69:
 3016 04e4 50534F43 		.ascii	"PSOC6---cbs_destroy---PSOC6\000"
 3016      362D2D2D 
 3016      6362735F 
 3016      64657374 
 3016      726F792D 
 3017              	.LC73:
 3018 0500 50534F43 		.ascii	"PSOC6---DEBUGGING_cbs_open_async---PSOC6\000"
 3018      362D2D2D 
 3018      44454255 
 3018      4747494E 
 3018      475F6362 
 3019 0529 000000   		.space	3
 3020              	.LC75:
 3021 052c 42616420 		.ascii	"Bad arguments: cbs = %p, on_cbs_open_complete = %p,"
 3021      61726775 
 3021      6D656E74 
 3021      733A2063 
 3021      6273203D 
 3022 055f 206F6E5F 		.ascii	" on_cbs_error = %p\000"
 3022      6362735F 
 3022      6572726F 
 3022      72203D20 
 3022      257000
 3023 0572 0000     		.space	2
 3024              	.LC77:
 3025 0574 63627320 		.ascii	"cbs instance already open\000"
 3025      696E7374 
ARM GAS  C:\Users\Phuong\AppData\Local\Temp\ccGVgD3r.s 			page 72


 3025      616E6365 
 3025      20616C72 
 3025      65616479 
 3026 058e 0000     		.space	2
 3027              	.LC81:
 3028 0590 50534F43 		.ascii	"PSOC6--Failed_to_open_amqp_async--PSOC6\000"
 3028      362D2D46 
 3028      61696C65 
 3028      645F746F 
 3028      5F6F7065 
 3029              	.LC83:
 3030 05b8 50534F43 		.ascii	"PSOC6---cbs_open_async_successfully---PSOC6\000"
 3030      362D2D2D 
 3030      6362735F 
 3030      6F70656E 
 3030      5F617379 
 3031              	.LC88:
 3032 05e4 416C7265 		.ascii	"Already closed\000"
 3032      61647920 
 3032      636C6F73 
 3032      656400
 3033 05f3 00       		.space	1
 3034              	.LC90:
 3035 05f4 4661696C 		.ascii	"Failed closing AMQP management instance\000"
 3035      65642063 
 3035      6C6F7369 
 3035      6E672041 
 3035      4D515020 
 3036              	.LC94:
 3037 061c 42616420 		.ascii	"Bad arguments: cbs = %p, type = %p, audience = %p, "
 3037      61726775 
 3037      6D656E74 
 3037      733A2063 
 3037      6273203D 
 3038 064f 746F6B65 		.ascii	"token = %p, on_cbs_put_token_complete = %p\000"
 3038      6E203D20 
 3038      25702C20 
 3038      6F6E5F63 
 3038      62735F70 
 3039 067a 0000     		.space	2
 3040              	.LC96:
 3041 067c 70757420 		.ascii	"put token called while closed or in error\000"
 3041      746F6B65 
 3041      6E206361 
 3041      6C6C6564 
 3041      20776869 
 3042 06a6 0000     		.space	2
 3043              	.LC98:
 3044 06a8 6D657373 		.ascii	"message_create failed\000"
 3044      6167655F 
 3044      63726561 
 3044      74652066 
 3044      61696C65 
 3045 06be 0000     		.space	2
 3046              	.LC100:
 3047 06c0 4661696C 		.ascii	"Failed creating token AMQP value\000"
 3047      65642063 
ARM GAS  C:\Users\Phuong\AppData\Local\Temp\ccGVgD3r.s 			page 73


 3047      72656174 
 3047      696E6720 
 3047      746F6B65 
 3048 06e1 000000   		.space	3
 3049              	.LC102:
 3050 06e4 4661696C 		.ascii	"Failed setting the token in the message body\000"
 3050      65642073 
 3050      65747469 
 3050      6E672074 
 3050      68652074 
 3051 0711 000000   		.space	3
 3052              	.LC104:
 3053 0714 4661696C 		.ascii	"Failed creating application properties map\000"
 3053      65642063 
 3053      72656174 
 3053      696E6720 
 3053      6170706C 
 3054 073f 00       		.space	1
 3055              	.LC106:
 3056 0740 6E616D65 		.ascii	"name\000"
 3056      00
 3057 0745 000000   		.space	3
 3058              	.LC108:
 3059 0748 4661696C 		.ascii	"Failed setting message application properties\000"
 3059      65642073 
 3059      65747469 
 3059      6E67206D 
 3059      65737361 
 3060 0776 0000     		.space	2
 3061              	.LC110:
 3062 0778 4661696C 		.ascii	"Failed allocating CBS operation instance\000"
 3062      65642061 
 3062      6C6C6F63 
 3062      6174696E 
 3062      67204342 
 3063 07a1 000000   		.space	3
 3064              	.LC112:
 3065 07a4 4661696C 		.ascii	"Failed adding pending operation to list\000"
 3065      65642061 
 3065      6464696E 
 3065      67207065 
 3065      6E64696E 
 3066              	.LC114:
 3067 07cc 7075742D 		.ascii	"put-token\000"
 3067      746F6B65 
 3067      6E00
 3068 07d6 0000     		.space	2
 3069              	.LC117:
 3070 07d8 4661696C 		.ascii	"Failed starting AMQP management operation\000"
 3070      65642073 
 3070      74617274 
 3070      696E6720 
 3070      414D5150 
 3071 0802 0000     		.space	2
 3072              	.LC121:
 3073 0804 42616420 		.ascii	"Bad arguments: cbs = %p, type = %p, audience = %p, "
 3073      61726775 
ARM GAS  C:\Users\Phuong\AppData\Local\Temp\ccGVgD3r.s 			page 74


 3073      6D656E74 
 3073      733A2063 
 3073      6273203D 
 3074 0837 6F6E5F63 		.ascii	"on_cbs_delete_token_complete = %p\000"
 3074      62735F64 
 3074      656C6574 
 3074      655F746F 
 3074      6B656E5F 
 3075 0859 000000   		.space	3
 3076              	.LC130:
 3077 085c 64656C65 		.ascii	"delete-token\000"
 3077      74652D74 
 3077      6F6B656E 
 3077      00
 3078              		.text
 3079              	.Letext0:
 3080              		.file 2 ".\\Source\\azure_iot_sdk\\c-utility\\inc/azure_c_shared_utility/singlylinkedlist.h"
 3081              		.file 3 ".\\Source\\azure_iot_sdk\\c-utility\\inc/azure_c_shared_utility/xlogging.h"
 3082              		.file 4 ".\\Source\\azure_iot_sdk\\uamqp\\inc/azure_uamqp_c/amqpvalue.h"
 3083              		.file 5 ".\\Source\\azure_iot_sdk\\uamqp\\inc/azure_uamqp_c/session.h"
 3084              		.file 6 ".\\Source\\azure_iot_sdk\\uamqp\\inc/azure_uamqp_c/cbs.h"
 3085              		.file 7 ".\\Source\\azure_iot_sdk\\uamqp\\inc/azure_uamqp_c/message.h"
 3086              		.file 8 ".\\Source\\azure_iot_sdk\\uamqp\\inc/azure_uamqp_c/amqp_management.h"
 3087              		.file 9 "c:\\program files (x86)\\cypress\\psoc creator\\4.2\\psoc creator\\import\\gnu\\arm\\5.4.