ARM GAS  C:\Users\Phuong\AppData\Local\Temp\ccGVgD3r.s 			page 1


   1              		.syntax unified
   2              		.cpu cortex-m0plus
   3              		.fpu softvfp
   4              		.eabi_attribute 20, 1
   5              		.eabi_attribute 21, 1
   6              		.eabi_attribute 23, 3
   7              		.eabi_attribute 24, 1
   8              		.eabi_attribute 25, 1
   9              		.eabi_attribute 26, 1
  10              		.eabi_attribute 30, 1
  11              		.eabi_attribute 34, 0
  12              		.eabi_attribute 18, 4
  13              		.thumb
  14              		.syntax unified
  15              		.file	"cbs.c"
  16              		.text
  17              	.Ltext0:
  18              		.cfi_sections	.debug_frame
  19              		.section	.text.on_underlying_amqp_management_error,"ax",%progbits
  20              		.align	2
  21              		.code	16
  22              		.thumb_func
  23              		.type	on_underlying_amqp_management_error, %function
  24              	on_underlying_amqp_management_error:
  25              	.LFB3:
  26              		.file 1 "Source\\azure_iot_sdk\\uamqp\\src\\cbs.c"
   1:Source\azure_iot_sdk\uamqp\src/cbs.c **** // Copyright (c) Microsoft. All rights reserved.
   2:Source\azure_iot_sdk\uamqp\src/cbs.c **** // Licensed under the MIT license. See LICENSE file in the project root for full license informatio
   3:Source\azure_iot_sdk\uamqp\src/cbs.c **** 
   4:Source\azure_iot_sdk\uamqp\src/cbs.c **** #include <stdlib.h>
   5:Source\azure_iot_sdk\uamqp\src/cbs.c **** #include <stdbool.h>
   6:Source\azure_iot_sdk\uamqp\src/cbs.c **** #include <stdio.h>
   7:Source\azure_iot_sdk\uamqp\src/cbs.c **** #include <string.h>
   8:Source\azure_iot_sdk\uamqp\src/cbs.c **** #include "azure_c_shared_utility/optimize_size.h"
   9:Source\azure_iot_sdk\uamqp\src/cbs.c **** #include "azure_c_shared_utility/gballoc.h"
  10:Source\azure_iot_sdk\uamqp\src/cbs.c **** #include "azure_c_shared_utility/singlylinkedlist.h"
  11:Source\azure_iot_sdk\uamqp\src/cbs.c **** #include "azure_c_shared_utility/xlogging.h"
  12:Source\azure_iot_sdk\uamqp\src/cbs.c **** #include "azure_uamqp_c/cbs.h"
  13:Source\azure_iot_sdk\uamqp\src/cbs.c **** #include "azure_uamqp_c/amqp_management.h"
  14:Source\azure_iot_sdk\uamqp\src/cbs.c **** #include "azure_uamqp_c/session.h"
  15:Source\azure_iot_sdk\uamqp\src/cbs.c **** 
  16:Source\azure_iot_sdk\uamqp\src/cbs.c **** typedef enum CBS_STATE_TAG
  17:Source\azure_iot_sdk\uamqp\src/cbs.c **** {
  18:Source\azure_iot_sdk\uamqp\src/cbs.c ****     CBS_STATE_CLOSED,
  19:Source\azure_iot_sdk\uamqp\src/cbs.c ****     CBS_STATE_OPENING,
  20:Source\azure_iot_sdk\uamqp\src/cbs.c ****     CBS_STATE_OPEN,
  21:Source\azure_iot_sdk\uamqp\src/cbs.c ****     CBS_STATE_ERROR
  22:Source\azure_iot_sdk\uamqp\src/cbs.c **** } CBS_STATE;
  23:Source\azure_iot_sdk\uamqp\src/cbs.c **** 
  24:Source\azure_iot_sdk\uamqp\src/cbs.c **** typedef struct CBS_OPERATION_TAG
  25:Source\azure_iot_sdk\uamqp\src/cbs.c **** {
  26:Source\azure_iot_sdk\uamqp\src/cbs.c ****     ON_CBS_OPERATION_COMPLETE on_cbs_operation_complete;
  27:Source\azure_iot_sdk\uamqp\src/cbs.c ****     void* on_cbs_operation_complete_context;
  28:Source\azure_iot_sdk\uamqp\src/cbs.c ****     SINGLYLINKEDLIST_HANDLE pending_operations;
  29:Source\azure_iot_sdk\uamqp\src/cbs.c **** } CBS_OPERATION;
  30:Source\azure_iot_sdk\uamqp\src/cbs.c **** 
  31:Source\azure_iot_sdk\uamqp\src/cbs.c **** typedef struct CBS_INSTANCE_TAG
ARM GAS  C:\Users\Phuong\AppData\Local\Temp\ccGVgD3r.s 			page 2


  32:Source\azure_iot_sdk\uamqp\src/cbs.c **** {
  33:Source\azure_iot_sdk\uamqp\src/cbs.c ****     AMQP_MANAGEMENT_HANDLE amqp_management;
  34:Source\azure_iot_sdk\uamqp\src/cbs.c ****     CBS_STATE cbs_state;
  35:Source\azure_iot_sdk\uamqp\src/cbs.c ****     ON_CBS_OPEN_COMPLETE on_cbs_open_complete;
  36:Source\azure_iot_sdk\uamqp\src/cbs.c ****     void* on_cbs_open_complete_context;
  37:Source\azure_iot_sdk\uamqp\src/cbs.c ****     ON_CBS_ERROR on_cbs_error;
  38:Source\azure_iot_sdk\uamqp\src/cbs.c ****     void* on_cbs_error_context;
  39:Source\azure_iot_sdk\uamqp\src/cbs.c ****     SINGLYLINKEDLIST_HANDLE pending_operations;
  40:Source\azure_iot_sdk\uamqp\src/cbs.c **** } CBS_INSTANCE;
  41:Source\azure_iot_sdk\uamqp\src/cbs.c **** 
  42:Source\azure_iot_sdk\uamqp\src/cbs.c **** static int add_string_key_value_pair_to_map(AMQP_VALUE map, const char* key, const char* value)
  43:Source\azure_iot_sdk\uamqp\src/cbs.c **** {
  44:Source\azure_iot_sdk\uamqp\src/cbs.c ****     int result;
  45:Source\azure_iot_sdk\uamqp\src/cbs.c **** 
  46:Source\azure_iot_sdk\uamqp\src/cbs.c ****     AMQP_VALUE key_value = amqpvalue_create_string(key);
  47:Source\azure_iot_sdk\uamqp\src/cbs.c ****     if (key_value == NULL)
  48:Source\azure_iot_sdk\uamqp\src/cbs.c ****     {
  49:Source\azure_iot_sdk\uamqp\src/cbs.c ****         /* Codes_SRS_CBS_01_072: [ If constructing the message fails, `cbs_put_token_async` shall f
  50:Source\azure_iot_sdk\uamqp\src/cbs.c ****         LogError("Failed creating value for property key %s", key);
  51:Source\azure_iot_sdk\uamqp\src/cbs.c ****         result = __FAILURE__;
  52:Source\azure_iot_sdk\uamqp\src/cbs.c ****     }
  53:Source\azure_iot_sdk\uamqp\src/cbs.c ****     else
  54:Source\azure_iot_sdk\uamqp\src/cbs.c ****     {
  55:Source\azure_iot_sdk\uamqp\src/cbs.c ****         AMQP_VALUE value_value = amqpvalue_create_string(value);
  56:Source\azure_iot_sdk\uamqp\src/cbs.c ****         if (value_value == NULL)
  57:Source\azure_iot_sdk\uamqp\src/cbs.c ****         {
  58:Source\azure_iot_sdk\uamqp\src/cbs.c ****             /* Codes_SRS_CBS_01_072: [ If constructing the message fails, `cbs_put_token_async` sha
  59:Source\azure_iot_sdk\uamqp\src/cbs.c ****             LogError("Failed creating value for property value %s", value);
  60:Source\azure_iot_sdk\uamqp\src/cbs.c ****             result = __FAILURE__;
  61:Source\azure_iot_sdk\uamqp\src/cbs.c ****         }
  62:Source\azure_iot_sdk\uamqp\src/cbs.c ****         else
  63:Source\azure_iot_sdk\uamqp\src/cbs.c ****         {
  64:Source\azure_iot_sdk\uamqp\src/cbs.c ****             if (amqpvalue_set_map_value(map, key_value, value_value) != 0)
  65:Source\azure_iot_sdk\uamqp\src/cbs.c ****             {
  66:Source\azure_iot_sdk\uamqp\src/cbs.c ****                 /* Codes_SRS_CBS_01_072: [ If constructing the message fails, `cbs_put_token_async`
  67:Source\azure_iot_sdk\uamqp\src/cbs.c ****                 LogError("Failed inserting key/value pair in the map");
  68:Source\azure_iot_sdk\uamqp\src/cbs.c ****                 result = __FAILURE__;
  69:Source\azure_iot_sdk\uamqp\src/cbs.c ****             }
  70:Source\azure_iot_sdk\uamqp\src/cbs.c ****             else
  71:Source\azure_iot_sdk\uamqp\src/cbs.c ****             {
  72:Source\azure_iot_sdk\uamqp\src/cbs.c ****                 result = 0;
  73:Source\azure_iot_sdk\uamqp\src/cbs.c ****             }
  74:Source\azure_iot_sdk\uamqp\src/cbs.c **** 
  75:Source\azure_iot_sdk\uamqp\src/cbs.c ****             amqpvalue_destroy(value_value);
  76:Source\azure_iot_sdk\uamqp\src/cbs.c ****         }
  77:Source\azure_iot_sdk\uamqp\src/cbs.c **** 
  78:Source\azure_iot_sdk\uamqp\src/cbs.c ****         amqpvalue_destroy(key_value);
  79:Source\azure_iot_sdk\uamqp\src/cbs.c ****     }
  80:Source\azure_iot_sdk\uamqp\src/cbs.c **** 
  81:Source\azure_iot_sdk\uamqp\src/cbs.c ****     return result;
  82:Source\azure_iot_sdk\uamqp\src/cbs.c **** }
  83:Source\azure_iot_sdk\uamqp\src/cbs.c **** 
  84:Source\azure_iot_sdk\uamqp\src/cbs.c **** static void on_underlying_amqp_management_open_complete(void* context, AMQP_MANAGEMENT_OPEN_RESULT 
  85:Source\azure_iot_sdk\uamqp\src/cbs.c **** {
  86:Source\azure_iot_sdk\uamqp\src/cbs.c ****     if (context == NULL)
  87:Source\azure_iot_sdk\uamqp\src/cbs.c ****     {
  88:Source\azure_iot_sdk\uamqp\src/cbs.c ****         /* Codes_SRS_CBS_01_105: [ When `on_amqp_management_open_complete` is called with NULL `con
ARM GAS  C:\Users\Phuong\AppData\Local\Temp\ccGVgD3r.s 			page 3


  89:Source\azure_iot_sdk\uamqp\src/cbs.c ****         LogError("on_underlying_amqp_management_open_complete called with NULL context");
  90:Source\azure_iot_sdk\uamqp\src/cbs.c ****     }
  91:Source\azure_iot_sdk\uamqp\src/cbs.c ****     else
  92:Source\azure_iot_sdk\uamqp\src/cbs.c ****     {
  93:Source\azure_iot_sdk\uamqp\src/cbs.c ****         CBS_HANDLE cbs = (CBS_HANDLE)context;
  94:Source\azure_iot_sdk\uamqp\src/cbs.c **** 
  95:Source\azure_iot_sdk\uamqp\src/cbs.c ****         LogError("PSOC6--CBS_OPEN_DEBUGGING_on_underlying_amqp_management_open_complete--PSOC6");
  96:Source\azure_iot_sdk\uamqp\src/cbs.c ****         switch (cbs->cbs_state)
  97:Source\azure_iot_sdk\uamqp\src/cbs.c ****         {
  98:Source\azure_iot_sdk\uamqp\src/cbs.c ****         default:
  99:Source\azure_iot_sdk\uamqp\src/cbs.c ****             LogError("AMQP management open complete in unknown state");
 100:Source\azure_iot_sdk\uamqp\src/cbs.c ****             break;
 101:Source\azure_iot_sdk\uamqp\src/cbs.c **** 
 102:Source\azure_iot_sdk\uamqp\src/cbs.c ****         case CBS_STATE_CLOSED:
 103:Source\azure_iot_sdk\uamqp\src/cbs.c ****         case CBS_STATE_ERROR:
 104:Source\azure_iot_sdk\uamqp\src/cbs.c ****             LogError("Unexpected AMQP management open complete");
 105:Source\azure_iot_sdk\uamqp\src/cbs.c ****             break;
 106:Source\azure_iot_sdk\uamqp\src/cbs.c **** 
 107:Source\azure_iot_sdk\uamqp\src/cbs.c ****         case CBS_STATE_OPEN:
 108:Source\azure_iot_sdk\uamqp\src/cbs.c ****             LogError("Unexpected AMQP management open complete in OPEN");
 109:Source\azure_iot_sdk\uamqp\src/cbs.c ****             /* Codes_SRS_CBS_01_109: [ When `on_amqp_management_open_complete` is called when the C
 110:Source\azure_iot_sdk\uamqp\src/cbs.c ****             cbs->cbs_state = CBS_STATE_ERROR;
 111:Source\azure_iot_sdk\uamqp\src/cbs.c ****             cbs->on_cbs_error(cbs->on_cbs_error_context);
 112:Source\azure_iot_sdk\uamqp\src/cbs.c ****             break;
 113:Source\azure_iot_sdk\uamqp\src/cbs.c **** 
 114:Source\azure_iot_sdk\uamqp\src/cbs.c ****         case CBS_STATE_OPENING:
 115:Source\azure_iot_sdk\uamqp\src/cbs.c ****         {
 116:Source\azure_iot_sdk\uamqp\src/cbs.c ****             switch (open_result)
 117:Source\azure_iot_sdk\uamqp\src/cbs.c ****             {
 118:Source\azure_iot_sdk\uamqp\src/cbs.c ****             default:
 119:Source\azure_iot_sdk\uamqp\src/cbs.c ****                 LogError("Unknown AMQP management state");
 120:Source\azure_iot_sdk\uamqp\src/cbs.c **** 
 121:Source\azure_iot_sdk\uamqp\src/cbs.c ****             case AMQP_MANAGEMENT_OPEN_ERROR:
 122:Source\azure_iot_sdk\uamqp\src/cbs.c ****                 cbs->cbs_state = CBS_STATE_CLOSED;
 123:Source\azure_iot_sdk\uamqp\src/cbs.c ****                 LogError("PSOC6---AMQP_MANAGEMENT_OPEN_ERROR---PSOC6");
 124:Source\azure_iot_sdk\uamqp\src/cbs.c ****                 /* Codes_SRS_CBS_01_113: [ When `on_amqp_management_open_complete` reports a failur
 125:Source\azure_iot_sdk\uamqp\src/cbs.c ****                 (void)amqp_management_close(cbs->amqp_management);
 126:Source\azure_iot_sdk\uamqp\src/cbs.c ****                 /* Codes_SRS_CBS_01_107: [ If CBS is OPENING and `open_result` is `AMQP_MANAGEMENT_
 127:Source\azure_iot_sdk\uamqp\src/cbs.c ****                 cbs->on_cbs_open_complete(cbs->on_cbs_open_complete_context, CBS_OPEN_ERROR);
 128:Source\azure_iot_sdk\uamqp\src/cbs.c ****                 break;
 129:Source\azure_iot_sdk\uamqp\src/cbs.c **** 
 130:Source\azure_iot_sdk\uamqp\src/cbs.c ****             case AMQP_MANAGEMENT_OPEN_CANCELLED:
 131:Source\azure_iot_sdk\uamqp\src/cbs.c ****                 cbs->cbs_state = CBS_STATE_CLOSED;
 132:Source\azure_iot_sdk\uamqp\src/cbs.c ****                 LogError("PSOC6---AMQP_MANAGEMENT_OPEN_CANCELLED---PSOC6");
 133:Source\azure_iot_sdk\uamqp\src/cbs.c ****                 /* Codes_SRS_CBS_01_113: [ When `on_amqp_management_open_complete` reports a failur
 134:Source\azure_iot_sdk\uamqp\src/cbs.c ****                 (void)amqp_management_close(cbs->amqp_management);
 135:Source\azure_iot_sdk\uamqp\src/cbs.c ****                 /* Codes_SRS_CBS_01_108: [ If CBS is OPENING and `open_result` is `AMQP_MANAGEMENT_
 136:Source\azure_iot_sdk\uamqp\src/cbs.c ****                 cbs->on_cbs_open_complete(cbs->on_cbs_open_complete_context, CBS_OPEN_CANCELLED);
 137:Source\azure_iot_sdk\uamqp\src/cbs.c ****                 break;
 138:Source\azure_iot_sdk\uamqp\src/cbs.c **** 
 139:Source\azure_iot_sdk\uamqp\src/cbs.c ****             case AMQP_MANAGEMENT_OPEN_OK:
 140:Source\azure_iot_sdk\uamqp\src/cbs.c ****                 LogError("PSOC6---AMQP_MANAGEMENT_OPEN_OK---PSOC6");
 141:Source\azure_iot_sdk\uamqp\src/cbs.c ****                 /* Codes_SRS_CBS_01_106: [ If CBS is OPENING and `open_result` is `AMQP_MANAGEMENT_
 142:Source\azure_iot_sdk\uamqp\src/cbs.c ****                 cbs->cbs_state = CBS_STATE_OPEN;
 143:Source\azure_iot_sdk\uamqp\src/cbs.c ****                 cbs->on_cbs_open_complete(cbs->on_cbs_open_complete_context, CBS_OPEN_OK);
 144:Source\azure_iot_sdk\uamqp\src/cbs.c ****                 break;
 145:Source\azure_iot_sdk\uamqp\src/cbs.c ****             }
ARM GAS  C:\Users\Phuong\AppData\Local\Temp\ccGVgD3r.s 			page 4


 146:Source\azure_iot_sdk\uamqp\src/cbs.c ****             break;
 147:Source\azure_iot_sdk\uamqp\src/cbs.c ****         }
 148:Source\azure_iot_sdk\uamqp\src/cbs.c ****         }
 149:Source\azure_iot_sdk\uamqp\src/cbs.c ****     }
 150:Source\azure_iot_sdk\uamqp\src/cbs.c **** }
 151:Source\azure_iot_sdk\uamqp\src/cbs.c **** 
 152:Source\azure_iot_sdk\uamqp\src/cbs.c **** static void on_underlying_amqp_management_error(void* context)
 153:Source\azure_iot_sdk\uamqp\src/cbs.c **** {
  27              		.loc 1 153 0
  28              		.cfi_startproc
  29              		@ args = 0, pretend = 0, frame = 0
  30              		@ frame_needed = 0, uses_anonymous_args = 0
  31              	.LVL0:
  32 0000 10B5     		push	{r4, lr}
  33              		.cfi_def_cfa_offset 8
  34              		.cfi_offset 4, -8
  35              		.cfi_offset 14, -4
  36 0002 82B0     		sub	sp, sp, #8
  37              		.cfi_def_cfa_offset 16
  38 0004 041E     		subs	r4, r0, #0
 154:Source\azure_iot_sdk\uamqp\src/cbs.c ****     if (context == NULL)
  39              		.loc 1 154 0
  40 0006 0DD1     		bne	.L2
  41              	.LBB2:
 155:Source\azure_iot_sdk\uamqp\src/cbs.c ****     {
 156:Source\azure_iot_sdk\uamqp\src/cbs.c ****         /* Codes_SRS_CBS_01_110: [ When `on_amqp_management_error` is called with NULL `context`, i
 157:Source\azure_iot_sdk\uamqp\src/cbs.c ****         LogError("on_underlying_amqp_management_error called with NULL context");
  42              		.loc 1 157 0 discriminator 3
  43 0008 FFF7FEFF 		bl	xlogging_get_log_function
  44              	.LVL1:
  45 000c 041E     		subs	r4, r0, #0
  46              	.LVL2:
  47 000e 3BD0     		beq	.L1
  48              		.loc 1 157 0 is_stmt 0 discriminator 4
  49 0010 1E4B     		ldr	r3, .L8
  50 0012 0193     		str	r3, [sp, #4]
  51 0014 0123     		movs	r3, #1
  52 0016 0093     		str	r3, [sp]
  53 0018 9C33     		adds	r3, r3, #156
  54 001a 1D4A     		ldr	r2, .L8+4
  55 001c 1D49     		ldr	r1, .L8+8
  56 001e 0020     		movs	r0, #0
  57              	.LVL3:
  58 0020 A047     		blx	r4
  59              	.LVL4:
  60 0022 31E0     		b	.L1
  61              	.LVL5:
  62              	.L2:
  63              	.LBE2:
  64              	.LBB3:
 158:Source\azure_iot_sdk\uamqp\src/cbs.c ****     }
 159:Source\azure_iot_sdk\uamqp\src/cbs.c ****     else
 160:Source\azure_iot_sdk\uamqp\src/cbs.c ****     {
 161:Source\azure_iot_sdk\uamqp\src/cbs.c ****         CBS_HANDLE cbs = (CBS_HANDLE)context;
 162:Source\azure_iot_sdk\uamqp\src/cbs.c **** 
 163:Source\azure_iot_sdk\uamqp\src/cbs.c ****         switch (cbs->cbs_state)
  65              		.loc 1 163 0 is_stmt 1
ARM GAS  C:\Users\Phuong\AppData\Local\Temp\ccGVgD3r.s 			page 5


  66 0024 0379     		ldrb	r3, [r0, #4]
  67 0026 012B     		cmp	r3, #1
  68 0028 1FD0     		beq	.L5
  69 002a 002B     		cmp	r3, #0
  70 002c 0FD0     		beq	.L6
  71 002e 022B     		cmp	r3, #2
  72 0030 25D0     		beq	.L7
  73              	.LBB4:
 164:Source\azure_iot_sdk\uamqp\src/cbs.c ****         {
 165:Source\azure_iot_sdk\uamqp\src/cbs.c ****         default:
 166:Source\azure_iot_sdk\uamqp\src/cbs.c ****             LogError("AMQP management error in unknown state");
  74              		.loc 1 166 0
  75 0032 FFF7FEFF 		bl	xlogging_get_log_function
  76              	.LVL6:
  77 0036 041E     		subs	r4, r0, #0
  78              	.LVL7:
  79 0038 26D0     		beq	.L1
  80              		.loc 1 166 0 is_stmt 0 discriminator 4
  81 003a 174B     		ldr	r3, .L8+12
  82 003c 0193     		str	r3, [sp, #4]
  83 003e 0123     		movs	r3, #1
  84 0040 0093     		str	r3, [sp]
  85 0042 A533     		adds	r3, r3, #165
  86 0044 124A     		ldr	r2, .L8+4
  87 0046 1349     		ldr	r1, .L8+8
  88 0048 0020     		movs	r0, #0
  89              	.LVL8:
  90 004a A047     		blx	r4
  91              	.LVL9:
  92 004c 1CE0     		b	.L1
  93              	.LVL10:
  94              	.L6:
  95              	.LBE4:
  96              	.LBB5:
 167:Source\azure_iot_sdk\uamqp\src/cbs.c ****             break;
 168:Source\azure_iot_sdk\uamqp\src/cbs.c **** 
 169:Source\azure_iot_sdk\uamqp\src/cbs.c ****         case CBS_STATE_CLOSED:
 170:Source\azure_iot_sdk\uamqp\src/cbs.c ****             LogError("Unexpected AMQP error in CLOSED state");
  97              		.loc 1 170 0 is_stmt 1 discriminator 3
  98 004e FFF7FEFF 		bl	xlogging_get_log_function
  99              	.LVL11:
 100 0052 041E     		subs	r4, r0, #0
 101              	.LVL12:
 102 0054 18D0     		beq	.L1
 103              		.loc 1 170 0 is_stmt 0 discriminator 4
 104 0056 114B     		ldr	r3, .L8+16
 105 0058 0193     		str	r3, [sp, #4]
 106 005a 0123     		movs	r3, #1
 107 005c 0093     		str	r3, [sp]
 108 005e A933     		adds	r3, r3, #169
 109 0060 0B4A     		ldr	r2, .L8+4
 110 0062 0C49     		ldr	r1, .L8+8
 111 0064 0020     		movs	r0, #0
 112              	.LVL13:
 113 0066 A047     		blx	r4
 114              	.LVL14:
 115 0068 0EE0     		b	.L1
ARM GAS  C:\Users\Phuong\AppData\Local\Temp\ccGVgD3r.s 			page 6


 116              	.LVL15:
 117              	.L5:
 118              	.LBE5:
 171:Source\azure_iot_sdk\uamqp\src/cbs.c ****             break;
 172:Source\azure_iot_sdk\uamqp\src/cbs.c **** 
 173:Source\azure_iot_sdk\uamqp\src/cbs.c ****         case CBS_STATE_OPENING:
 174:Source\azure_iot_sdk\uamqp\src/cbs.c ****             cbs->cbs_state = CBS_STATE_CLOSED;
 119              		.loc 1 174 0 is_stmt 1
 120 006a 0023     		movs	r3, #0
 121 006c 0371     		strb	r3, [r0, #4]
 175:Source\azure_iot_sdk\uamqp\src/cbs.c ****             /* Codes_SRS_CBS_01_114: [ Additionally the underlying AMQP management shall be closed 
 176:Source\azure_iot_sdk\uamqp\src/cbs.c ****             (void)amqp_management_close(cbs->amqp_management);
 122              		.loc 1 176 0
 123 006e 0068     		ldr	r0, [r0]
 124              	.LVL16:
 125 0070 FFF7FEFF 		bl	amqp_management_close
 126              	.LVL17:
 177:Source\azure_iot_sdk\uamqp\src/cbs.c ****             /* Codes_SRS_CBS_01_111: [ If CBS is OPENING the callback `on_cbs_open_complete` shall 
 178:Source\azure_iot_sdk\uamqp\src/cbs.c ****             cbs->on_cbs_open_complete(cbs->on_cbs_open_complete_context, CBS_OPEN_ERROR);
 127              		.loc 1 178 0
 128 0074 A368     		ldr	r3, [r4, #8]
 129 0076 E068     		ldr	r0, [r4, #12]
 130 0078 0121     		movs	r1, #1
 131 007a 9847     		blx	r3
 132              	.LVL18:
 179:Source\azure_iot_sdk\uamqp\src/cbs.c ****             break;
 133              		.loc 1 179 0
 134 007c 04E0     		b	.L1
 135              	.LVL19:
 136              	.L7:
 180:Source\azure_iot_sdk\uamqp\src/cbs.c **** 
 181:Source\azure_iot_sdk\uamqp\src/cbs.c ****         case CBS_STATE_OPEN:
 182:Source\azure_iot_sdk\uamqp\src/cbs.c ****             /* Codes_SRS_CBS_01_112: [ If CBS is OPEN the callback `on_cbs_error` shall be called a
 183:Source\azure_iot_sdk\uamqp\src/cbs.c ****             cbs->cbs_state = CBS_STATE_ERROR;
 137              		.loc 1 183 0
 138 007e 0323     		movs	r3, #3
 139 0080 0371     		strb	r3, [r0, #4]
 184:Source\azure_iot_sdk\uamqp\src/cbs.c ****             cbs->on_cbs_error(cbs->on_cbs_error_context);
 140              		.loc 1 184 0
 141 0082 0369     		ldr	r3, [r0, #16]
 142 0084 4069     		ldr	r0, [r0, #20]
 143              	.LVL20:
 144 0086 9847     		blx	r3
 145              	.LVL21:
 146              	.L1:
 147              	.LBE3:
 185:Source\azure_iot_sdk\uamqp\src/cbs.c ****             break;
 186:Source\azure_iot_sdk\uamqp\src/cbs.c ****         }
 187:Source\azure_iot_sdk\uamqp\src/cbs.c ****     }
 188:Source\azure_iot_sdk\uamqp\src/cbs.c **** }
 148              		.loc 1 188 0
 149 0088 02B0     		add	sp, sp, #8
 150              		@ sp needed
 151 008a 10BD     		pop	{r4, pc}
 152              	.L9:
 153              		.align	2
 154              	.L8:
ARM GAS  C:\Users\Phuong\AppData\Local\Temp\ccGVgD3r.s 			page 7


 155 008c 28000000 		.word	.LC3
 156 0090 00000000 		.word	.LANCHOR0
 157 0094 00000000 		.word	.LC1
 158 0098 68000000 		.word	.LC5
 159 009c 90000000 		.word	.LC7
 160              		.cfi_endproc
 161              	.LFE3:
 162              		.size	on_underlying_amqp_management_error, .-on_underlying_amqp_management_error
 163              		.section	.text.on_underlying_amqp_management_open_complete,"ax",%progbits
 164              		.align	2
 165              		.code	16
 166              		.thumb_func
 167              		.type	on_underlying_amqp_management_open_complete, %function
 168              	on_underlying_amqp_management_open_complete:
 169              	.LFB2:
  85:Source\azure_iot_sdk\uamqp\src/cbs.c ****     if (context == NULL)
 170              		.loc 1 85 0
 171              		.cfi_startproc
 172              		@ args = 0, pretend = 0, frame = 0
 173              		@ frame_needed = 0, uses_anonymous_args = 0
 174              	.LVL22:
 175 0000 70B5     		push	{r4, r5, r6, lr}
 176              		.cfi_def_cfa_offset 16
 177              		.cfi_offset 4, -16
 178              		.cfi_offset 5, -12
 179              		.cfi_offset 6, -8
 180              		.cfi_offset 14, -4
 181 0002 82B0     		sub	sp, sp, #8
 182              		.cfi_def_cfa_offset 24
 183 0004 0400     		movs	r4, r0
 184 0006 0E00     		movs	r6, r1
  86:Source\azure_iot_sdk\uamqp\src/cbs.c ****     {
 185              		.loc 1 86 0
 186 0008 0028     		cmp	r0, #0
 187 000a 0FD1     		bne	.L11
 188              	.LBB6:
  89:Source\azure_iot_sdk\uamqp\src/cbs.c ****     }
 189              		.loc 1 89 0 discriminator 3
 190 000c FFF7FEFF 		bl	xlogging_get_log_function
 191              	.LVL23:
 192 0010 041E     		subs	r4, r0, #0
 193              	.LVL24:
 194 0012 00D1     		bne	.LCB187
 195 0014 ACE0     		b	.L10	@long jump
 196              	.LCB187:
  89:Source\azure_iot_sdk\uamqp\src/cbs.c ****     }
 197              		.loc 1 89 0 is_stmt 0 discriminator 4
 198 0016 574B     		ldr	r3, .L26
 199 0018 0193     		str	r3, [sp, #4]
 200 001a 0123     		movs	r3, #1
 201 001c 0093     		str	r3, [sp]
 202 001e 5833     		adds	r3, r3, #88
 203 0020 554A     		ldr	r2, .L26+4
 204 0022 2432     		adds	r2, r2, #36
 205 0024 5549     		ldr	r1, .L26+8
 206 0026 0020     		movs	r0, #0
 207              	.LVL25:
ARM GAS  C:\Users\Phuong\AppData\Local\Temp\ccGVgD3r.s 			page 8


 208 0028 A047     		blx	r4
 209              	.LVL26:
 210 002a A1E0     		b	.L10
 211              	.LVL27:
 212              	.L11:
 213              	.LBE6:
 214              	.LBB7:
 215              	.LBB8:
  95:Source\azure_iot_sdk\uamqp\src/cbs.c ****         switch (cbs->cbs_state)
 216              		.loc 1 95 0 is_stmt 1
 217 002c FFF7FEFF 		bl	xlogging_get_log_function
 218              	.LVL28:
 219 0030 051E     		subs	r5, r0, #0
 220              	.LVL29:
 221 0032 09D0     		beq	.L13
  95:Source\azure_iot_sdk\uamqp\src/cbs.c ****         switch (cbs->cbs_state)
 222              		.loc 1 95 0 is_stmt 0 discriminator 4
 223 0034 524B     		ldr	r3, .L26+12
 224 0036 0193     		str	r3, [sp, #4]
 225 0038 0123     		movs	r3, #1
 226 003a 0093     		str	r3, [sp]
 227 003c 5E33     		adds	r3, r3, #94
 228 003e 4E4A     		ldr	r2, .L26+4
 229 0040 2432     		adds	r2, r2, #36
 230 0042 4E49     		ldr	r1, .L26+8
 231 0044 0020     		movs	r0, #0
 232              	.LVL30:
 233 0046 A847     		blx	r5
 234              	.LVL31:
 235              	.L13:
 236              	.LBE8:
  96:Source\azure_iot_sdk\uamqp\src/cbs.c ****         {
 237              		.loc 1 96 0 is_stmt 1
 238 0048 2379     		ldrb	r3, [r4, #4]
 239 004a 012B     		cmp	r3, #1
 240 004c 38D0     		beq	.L15
 241 004e 002B     		cmp	r3, #0
 242 0050 13D0     		beq	.L16
 243 0052 022B     		cmp	r3, #2
 244 0054 20D0     		beq	.L17
 245 0056 032B     		cmp	r3, #3
 246 0058 0FD0     		beq	.L16
 247              	.LBB9:
  99:Source\azure_iot_sdk\uamqp\src/cbs.c ****             break;
 248              		.loc 1 99 0
 249 005a FFF7FEFF 		bl	xlogging_get_log_function
 250              	.LVL32:
 251 005e 041E     		subs	r4, r0, #0
 252              	.LVL33:
 253 0060 00D1     		bne	.LCB253
 254 0062 85E0     		b	.L10	@long jump
 255              	.LCB253:
  99:Source\azure_iot_sdk\uamqp\src/cbs.c ****             break;
 256              		.loc 1 99 0 is_stmt 0 discriminator 4
 257 0064 474B     		ldr	r3, .L26+16
 258 0066 0193     		str	r3, [sp, #4]
 259 0068 0123     		movs	r3, #1
ARM GAS  C:\Users\Phuong\AppData\Local\Temp\ccGVgD3r.s 			page 9


 260 006a 0093     		str	r3, [sp]
 261 006c 6233     		adds	r3, r3, #98
 262 006e 424A     		ldr	r2, .L26+4
 263 0070 2432     		adds	r2, r2, #36
 264 0072 4249     		ldr	r1, .L26+8
 265 0074 0020     		movs	r0, #0
 266              	.LVL34:
 267 0076 A047     		blx	r4
 268              	.LVL35:
 269 0078 7AE0     		b	.L10
 270              	.LVL36:
 271              	.L16:
 272              	.LBE9:
 273              	.LBB10:
 104:Source\azure_iot_sdk\uamqp\src/cbs.c ****             break;
 274              		.loc 1 104 0 is_stmt 1 discriminator 3
 275 007a FFF7FEFF 		bl	xlogging_get_log_function
 276              	.LVL37:
 277 007e 041E     		subs	r4, r0, #0
 278              	.LVL38:
 279 0080 76D0     		beq	.L10
 104:Source\azure_iot_sdk\uamqp\src/cbs.c ****             break;
 280              		.loc 1 104 0 is_stmt 0 discriminator 4
 281 0082 414B     		ldr	r3, .L26+20
 282 0084 0193     		str	r3, [sp, #4]
 283 0086 0123     		movs	r3, #1
 284 0088 0093     		str	r3, [sp]
 285 008a 6733     		adds	r3, r3, #103
 286 008c 3A4A     		ldr	r2, .L26+4
 287 008e 2432     		adds	r2, r2, #36
 288 0090 3A49     		ldr	r1, .L26+8
 289 0092 0020     		movs	r0, #0
 290              	.LVL39:
 291 0094 A047     		blx	r4
 292              	.LVL40:
 293 0096 6BE0     		b	.L10
 294              	.LVL41:
 295              	.L17:
 296              	.LBE10:
 297              	.LBB11:
 108:Source\azure_iot_sdk\uamqp\src/cbs.c ****             /* Codes_SRS_CBS_01_109: [ When `on_amqp_management_open_complete` is called when the C
 298              		.loc 1 108 0 is_stmt 1 discriminator 3
 299 0098 FFF7FEFF 		bl	xlogging_get_log_function
 300              	.LVL42:
 301 009c 051E     		subs	r5, r0, #0
 302              	.LVL43:
 303 009e 09D0     		beq	.L18
 108:Source\azure_iot_sdk\uamqp\src/cbs.c ****             /* Codes_SRS_CBS_01_109: [ When `on_amqp_management_open_complete` is called when the C
 304              		.loc 1 108 0 is_stmt 0 discriminator 4
 305 00a0 3A4B     		ldr	r3, .L26+24
 306 00a2 0193     		str	r3, [sp, #4]
 307 00a4 0123     		movs	r3, #1
 308 00a6 0093     		str	r3, [sp]
 309 00a8 6B33     		adds	r3, r3, #107
 310 00aa 334A     		ldr	r2, .L26+4
 311 00ac 2432     		adds	r2, r2, #36
 312 00ae 3349     		ldr	r1, .L26+8
ARM GAS  C:\Users\Phuong\AppData\Local\Temp\ccGVgD3r.s 			page 10


 313 00b0 0020     		movs	r0, #0
 314              	.LVL44:
 315 00b2 A847     		blx	r5
 316              	.LVL45:
 317              	.L18:
 318              	.LBE11:
 110:Source\azure_iot_sdk\uamqp\src/cbs.c ****             cbs->on_cbs_error(cbs->on_cbs_error_context);
 319              		.loc 1 110 0 is_stmt 1
 320 00b4 0323     		movs	r3, #3
 321 00b6 2371     		strb	r3, [r4, #4]
 111:Source\azure_iot_sdk\uamqp\src/cbs.c ****             break;
 322              		.loc 1 111 0
 323 00b8 2369     		ldr	r3, [r4, #16]
 324 00ba 6069     		ldr	r0, [r4, #20]
 325 00bc 9847     		blx	r3
 326              	.LVL46:
 112:Source\azure_iot_sdk\uamqp\src/cbs.c **** 
 327              		.loc 1 112 0
 328 00be 57E0     		b	.L10
 329              	.LVL47:
 330              	.L15:
 116:Source\azure_iot_sdk\uamqp\src/cbs.c ****             {
 331              		.loc 1 116 0
 332 00c0 012E     		cmp	r6, #1
 333 00c2 11D0     		beq	.L20
 334 00c4 002E     		cmp	r6, #0
 335 00c6 3FD0     		beq	.L21
 336 00c8 022E     		cmp	r6, #2
 337 00ca 25D0     		beq	.L22
 338              	.LBB12:
 119:Source\azure_iot_sdk\uamqp\src/cbs.c **** 
 339              		.loc 1 119 0
 340 00cc FFF7FEFF 		bl	xlogging_get_log_function
 341              	.LVL48:
 342 00d0 051E     		subs	r5, r0, #0
 343              	.LVL49:
 344 00d2 09D0     		beq	.L20
 119:Source\azure_iot_sdk\uamqp\src/cbs.c **** 
 345              		.loc 1 119 0 is_stmt 0 discriminator 4
 346 00d4 2E4B     		ldr	r3, .L26+28
 347 00d6 0193     		str	r3, [sp, #4]
 348 00d8 0123     		movs	r3, #1
 349 00da 0093     		str	r3, [sp]
 350 00dc 7633     		adds	r3, r3, #118
 351 00de 264A     		ldr	r2, .L26+4
 352 00e0 2432     		adds	r2, r2, #36
 353 00e2 2649     		ldr	r1, .L26+8
 354 00e4 0020     		movs	r0, #0
 355              	.LVL50:
 356 00e6 A847     		blx	r5
 357              	.LVL51:
 358              	.L20:
 359              	.LBE12:
 122:Source\azure_iot_sdk\uamqp\src/cbs.c ****                 LogError("PSOC6---AMQP_MANAGEMENT_OPEN_ERROR---PSOC6");
 360              		.loc 1 122 0 is_stmt 1
 361 00e8 0023     		movs	r3, #0
 362 00ea 2371     		strb	r3, [r4, #4]
ARM GAS  C:\Users\Phuong\AppData\Local\Temp\ccGVgD3r.s 			page 11


 363              	.LBB13:
 123:Source\azure_iot_sdk\uamqp\src/cbs.c ****                 /* Codes_SRS_CBS_01_113: [ When `on_amqp_management_open_complete` reports a failur
 364              		.loc 1 123 0
 365 00ec FFF7FEFF 		bl	xlogging_get_log_function
 366              	.LVL52:
 367 00f0 051E     		subs	r5, r0, #0
 368              	.LVL53:
 369 00f2 09D0     		beq	.L23
 123:Source\azure_iot_sdk\uamqp\src/cbs.c ****                 /* Codes_SRS_CBS_01_113: [ When `on_amqp_management_open_complete` reports a failur
 370              		.loc 1 123 0 is_stmt 0 discriminator 4
 371 00f4 274B     		ldr	r3, .L26+32
 372 00f6 0193     		str	r3, [sp, #4]
 373 00f8 0123     		movs	r3, #1
 374 00fa 0093     		str	r3, [sp]
 375 00fc 7A33     		adds	r3, r3, #122
 376 00fe 1E4A     		ldr	r2, .L26+4
 377 0100 2432     		adds	r2, r2, #36
 378 0102 1E49     		ldr	r1, .L26+8
 379 0104 0020     		movs	r0, #0
 380              	.LVL54:
 381 0106 A847     		blx	r5
 382              	.LVL55:
 383              	.L23:
 384              	.LBE13:
 125:Source\azure_iot_sdk\uamqp\src/cbs.c ****                 /* Codes_SRS_CBS_01_107: [ If CBS is OPENING and `open_result` is `AMQP_MANAGEMENT_
 385              		.loc 1 125 0 is_stmt 1
 386 0108 2068     		ldr	r0, [r4]
 387 010a FFF7FEFF 		bl	amqp_management_close
 388              	.LVL56:
 127:Source\azure_iot_sdk\uamqp\src/cbs.c ****                 break;
 389              		.loc 1 127 0
 390 010e A368     		ldr	r3, [r4, #8]
 391 0110 E068     		ldr	r0, [r4, #12]
 392 0112 0121     		movs	r1, #1
 393 0114 9847     		blx	r3
 394              	.LVL57:
 128:Source\azure_iot_sdk\uamqp\src/cbs.c **** 
 395              		.loc 1 128 0
 396 0116 2BE0     		b	.L10
 397              	.LVL58:
 398              	.L22:
 131:Source\azure_iot_sdk\uamqp\src/cbs.c ****                 LogError("PSOC6---AMQP_MANAGEMENT_OPEN_CANCELLED---PSOC6");
 399              		.loc 1 131 0
 400 0118 0023     		movs	r3, #0
 401 011a 2371     		strb	r3, [r4, #4]
 402              	.LBB14:
 132:Source\azure_iot_sdk\uamqp\src/cbs.c ****                 /* Codes_SRS_CBS_01_113: [ When `on_amqp_management_open_complete` reports a failur
 403              		.loc 1 132 0
 404 011c FFF7FEFF 		bl	xlogging_get_log_function
 405              	.LVL59:
 406 0120 051E     		subs	r5, r0, #0
 407              	.LVL60:
 408 0122 09D0     		beq	.L24
 132:Source\azure_iot_sdk\uamqp\src/cbs.c ****                 /* Codes_SRS_CBS_01_113: [ When `on_amqp_management_open_complete` reports a failur
 409              		.loc 1 132 0 is_stmt 0 discriminator 4
 410 0124 1C4B     		ldr	r3, .L26+36
 411 0126 0193     		str	r3, [sp, #4]
ARM GAS  C:\Users\Phuong\AppData\Local\Temp\ccGVgD3r.s 			page 12


 412 0128 0123     		movs	r3, #1
 413 012a 0093     		str	r3, [sp]
 414 012c 8333     		adds	r3, r3, #131
 415 012e 124A     		ldr	r2, .L26+4
 416 0130 2432     		adds	r2, r2, #36
 417 0132 1249     		ldr	r1, .L26+8
 418 0134 0020     		movs	r0, #0
 419              	.LVL61:
 420 0136 A847     		blx	r5
 421              	.LVL62:
 422              	.L24:
 423              	.LBE14:
 134:Source\azure_iot_sdk\uamqp\src/cbs.c ****                 /* Codes_SRS_CBS_01_108: [ If CBS is OPENING and `open_result` is `AMQP_MANAGEMENT_
 424              		.loc 1 134 0 is_stmt 1
 425 0138 2068     		ldr	r0, [r4]
 426 013a FFF7FEFF 		bl	amqp_management_close
 427              	.LVL63:
 136:Source\azure_iot_sdk\uamqp\src/cbs.c ****                 break;
 428              		.loc 1 136 0
 429 013e A368     		ldr	r3, [r4, #8]
 430 0140 E068     		ldr	r0, [r4, #12]
 431 0142 0221     		movs	r1, #2
 432 0144 9847     		blx	r3
 433              	.LVL64:
 137:Source\azure_iot_sdk\uamqp\src/cbs.c **** 
 434              		.loc 1 137 0
 435 0146 13E0     		b	.L10
 436              	.LVL65:
 437              	.L21:
 438              	.LBB15:
 140:Source\azure_iot_sdk\uamqp\src/cbs.c ****                 /* Codes_SRS_CBS_01_106: [ If CBS is OPENING and `open_result` is `AMQP_MANAGEMENT_
 439              		.loc 1 140 0 discriminator 3
 440 0148 FFF7FEFF 		bl	xlogging_get_log_function
 441              	.LVL66:
 442 014c 051E     		subs	r5, r0, #0
 443              	.LVL67:
 444 014e 09D0     		beq	.L25
 140:Source\azure_iot_sdk\uamqp\src/cbs.c ****                 /* Codes_SRS_CBS_01_106: [ If CBS is OPENING and `open_result` is `AMQP_MANAGEMENT_
 445              		.loc 1 140 0 is_stmt 0 discriminator 4
 446 0150 124B     		ldr	r3, .L26+40
 447 0152 0193     		str	r3, [sp, #4]
 448 0154 0123     		movs	r3, #1
 449 0156 0093     		str	r3, [sp]
 450 0158 8B33     		adds	r3, r3, #139
 451 015a 074A     		ldr	r2, .L26+4
 452 015c 2432     		adds	r2, r2, #36
 453 015e 0749     		ldr	r1, .L26+8
 454 0160 0020     		movs	r0, #0
 455              	.LVL68:
 456 0162 A847     		blx	r5
 457              	.LVL69:
 458              	.L25:
 459              	.LBE15:
 142:Source\azure_iot_sdk\uamqp\src/cbs.c ****                 cbs->on_cbs_open_complete(cbs->on_cbs_open_complete_context, CBS_OPEN_OK);
 460              		.loc 1 142 0 is_stmt 1
 461 0164 0223     		movs	r3, #2
 462 0166 2371     		strb	r3, [r4, #4]
ARM GAS  C:\Users\Phuong\AppData\Local\Temp\ccGVgD3r.s 			page 13


 143:Source\azure_iot_sdk\uamqp\src/cbs.c ****                 break;
 463              		.loc 1 143 0
 464 0168 A368     		ldr	r3, [r4, #8]
 465 016a E068     		ldr	r0, [r4, #12]
 466 016c 0021     		movs	r1, #0
 467 016e 9847     		blx	r3
 468              	.LVL70:
 469              	.L10:
 470              	.LBE7:
 150:Source\azure_iot_sdk\uamqp\src/cbs.c **** 
 471              		.loc 1 150 0
 472 0170 02B0     		add	sp, sp, #8
 473              		@ sp needed
 474 0172 70BD     		pop	{r4, r5, r6, pc}
 475              	.L27:
 476              		.align	2
 477              	.L26:
 478 0174 B8000000 		.word	.LC11
 479 0178 00000000 		.word	.LANCHOR0
 480 017c 00000000 		.word	.LC1
 481 0180 00010000 		.word	.LC13
 482 0184 50010000 		.word	.LC15
 483 0188 80010000 		.word	.LC17
 484 018c AC010000 		.word	.LC19
 485 0190 E0010000 		.word	.LC21
 486 0194 00020000 		.word	.LC23
 487 0198 2C020000 		.word	.LC25
 488 019c 5C020000 		.word	.LC27
 489              		.cfi_endproc
 490              	.LFE2:
 491              		.size	on_underlying_amqp_management_open_complete, .-on_underlying_amqp_management_open_complete
 492              		.section	.text.on_amqp_management_execute_operation_complete,"ax",%progbits
 493              		.align	2
 494              		.code	16
 495              		.thumb_func
 496              		.type	on_amqp_management_execute_operation_complete, %function
 497              	on_amqp_management_execute_operation_complete:
 498              	.LFB4:
 189:Source\azure_iot_sdk\uamqp\src/cbs.c **** 
 190:Source\azure_iot_sdk\uamqp\src/cbs.c **** static void on_amqp_management_execute_operation_complete(void* context, AMQP_MANAGEMENT_EXECUTE_OP
 191:Source\azure_iot_sdk\uamqp\src/cbs.c **** {
 499              		.loc 1 191 0
 500              		.cfi_startproc
 501              		@ args = 4, pretend = 0, frame = 8
 502              		@ frame_needed = 0, uses_anonymous_args = 0
 503              	.LVL71:
 504 0000 F0B5     		push	{r4, r5, r6, r7, lr}
 505              		.cfi_def_cfa_offset 20
 506              		.cfi_offset 4, -20
 507              		.cfi_offset 5, -16
 508              		.cfi_offset 6, -12
 509              		.cfi_offset 7, -8
 510              		.cfi_offset 14, -4
 511 0002 85B0     		sub	sp, sp, #20
 512              		.cfi_def_cfa_offset 40
 513 0004 0500     		movs	r5, r0
 514 0006 0E00     		movs	r6, r1
ARM GAS  C:\Users\Phuong\AppData\Local\Temp\ccGVgD3r.s 			page 14


 515 0008 0392     		str	r2, [sp, #12]
 516 000a 1F00     		movs	r7, r3
 192:Source\azure_iot_sdk\uamqp\src/cbs.c ****     if (context == NULL)
 517              		.loc 1 192 0
 518 000c 0028     		cmp	r0, #0
 519 000e 0ED1     		bne	.L29
 520              	.LBB16:
 193:Source\azure_iot_sdk\uamqp\src/cbs.c ****     {
 194:Source\azure_iot_sdk\uamqp\src/cbs.c ****         /* Codes_SRS_CBS_01_091: [ When `on_amqp_management_execute_operation_complete` is called w
 195:Source\azure_iot_sdk\uamqp\src/cbs.c ****         LogError("on_amqp_management_execute_operation_complete called with NULL context");
 521              		.loc 1 195 0 discriminator 3
 522 0010 FFF7FEFF 		bl	xlogging_get_log_function
 523              	.LVL72:
 524 0014 041E     		subs	r4, r0, #0
 525              	.LVL73:
 526 0016 46D0     		beq	.L28
 527              		.loc 1 195 0 is_stmt 0 discriminator 4
 528 0018 244B     		ldr	r3, .L38
 529 001a 0193     		str	r3, [sp, #4]
 530 001c 0123     		movs	r3, #1
 531 001e 0093     		str	r3, [sp]
 532 0020 C233     		adds	r3, r3, #194
 533 0022 234A     		ldr	r2, .L38+4
 534 0024 5032     		adds	r2, r2, #80
 535 0026 2349     		ldr	r1, .L38+8
 536 0028 0020     		movs	r0, #0
 537              	.LVL74:
 538 002a A047     		blx	r4
 539              	.LVL75:
 540 002c 3BE0     		b	.L28
 541              	.LVL76:
 542              	.L29:
 543              	.LBE16:
 544              	.LBB17:
 196:Source\azure_iot_sdk\uamqp\src/cbs.c ****     }
 197:Source\azure_iot_sdk\uamqp\src/cbs.c ****     else
 198:Source\azure_iot_sdk\uamqp\src/cbs.c ****     {
 199:Source\azure_iot_sdk\uamqp\src/cbs.c ****         /* Codes_SRS_CBS_01_103: [ The `context` shall be used to obtain the pending operation info
 200:Source\azure_iot_sdk\uamqp\src/cbs.c ****         CBS_OPERATION* cbs_operation = (CBS_OPERATION*)singlylinkedlist_item_get_value((LIST_ITEM_H
 545              		.loc 1 200 0 is_stmt 1
 546 002e FFF7FEFF 		bl	singlylinkedlist_item_get_value
 547              	.LVL77:
 548 0032 041E     		subs	r4, r0, #0
 549              	.LVL78:
 201:Source\azure_iot_sdk\uamqp\src/cbs.c ****         CBS_OPERATION_RESULT cbs_operation_result;
 202:Source\azure_iot_sdk\uamqp\src/cbs.c **** 
 203:Source\azure_iot_sdk\uamqp\src/cbs.c ****         (void)message;
 204:Source\azure_iot_sdk\uamqp\src/cbs.c **** 
 205:Source\azure_iot_sdk\uamqp\src/cbs.c ****         if (cbs_operation == NULL)
 550              		.loc 1 205 0
 551 0034 0ED1     		bne	.L31
 552              	.LBB18:
 206:Source\azure_iot_sdk\uamqp\src/cbs.c ****         {
 207:Source\azure_iot_sdk\uamqp\src/cbs.c ****             LogError("NULL cbs_operation");
 553              		.loc 1 207 0 discriminator 3
 554 0036 FFF7FEFF 		bl	xlogging_get_log_function
 555              	.LVL79:
ARM GAS  C:\Users\Phuong\AppData\Local\Temp\ccGVgD3r.s 			page 15


 556 003a 041E     		subs	r4, r0, #0
 557              	.LVL80:
 558 003c 33D0     		beq	.L28
 559              		.loc 1 207 0 is_stmt 0 discriminator 4
 560 003e 1E4B     		ldr	r3, .L38+12
 561 0040 0193     		str	r3, [sp, #4]
 562 0042 0123     		movs	r3, #1
 563 0044 0093     		str	r3, [sp]
 564 0046 CE33     		adds	r3, r3, #206
 565 0048 194A     		ldr	r2, .L38+4
 566 004a 5032     		adds	r2, r2, #80
 567 004c 1949     		ldr	r1, .L38+8
 568 004e 0020     		movs	r0, #0
 569              	.LVL81:
 570 0050 A047     		blx	r4
 571              	.LVL82:
 572 0052 28E0     		b	.L28
 573              	.LVL83:
 574              	.L31:
 575              	.LBE18:
 208:Source\azure_iot_sdk\uamqp\src/cbs.c ****         }
 209:Source\azure_iot_sdk\uamqp\src/cbs.c ****         else
 210:Source\azure_iot_sdk\uamqp\src/cbs.c ****         {
 211:Source\azure_iot_sdk\uamqp\src/cbs.c ****             switch (execute_operation_result)
 576              		.loc 1 211 0 is_stmt 1
 577 0054 022E     		cmp	r6, #2
 578 0056 09D0     		beq	.L37
 579 0058 032E     		cmp	r6, #3
 580 005a 03D0     		beq	.L34
 581 005c 002E     		cmp	r6, #0
 582 005e 03D0     		beq	.L35
 212:Source\azure_iot_sdk\uamqp\src/cbs.c ****             {
 213:Source\azure_iot_sdk\uamqp\src/cbs.c ****             default:
 214:Source\azure_iot_sdk\uamqp\src/cbs.c ****                 cbs_operation_result = CBS_OPERATION_RESULT_CBS_ERROR;
 583              		.loc 1 214 0
 584 0060 0121     		movs	r1, #1
 585 0062 04E0     		b	.L33
 586              	.L34:
 587              	.LVL84:
 215:Source\azure_iot_sdk\uamqp\src/cbs.c ****                 break;
 216:Source\azure_iot_sdk\uamqp\src/cbs.c **** 
 217:Source\azure_iot_sdk\uamqp\src/cbs.c ****             case AMQP_MANAGEMENT_EXECUTE_OPERATION_FAILED_BAD_STATUS:
 218:Source\azure_iot_sdk\uamqp\src/cbs.c ****                 /* Tests_SRS_CBS_01_094: [ When `on_amqp_management_execute_operation_complete` is 
 219:Source\azure_iot_sdk\uamqp\src/cbs.c ****                 cbs_operation_result = CBS_OPERATION_RESULT_OPERATION_FAILED;
 220:Source\azure_iot_sdk\uamqp\src/cbs.c ****                 break;
 221:Source\azure_iot_sdk\uamqp\src/cbs.c **** 
 222:Source\azure_iot_sdk\uamqp\src/cbs.c ****             case AMQP_MANAGEMENT_EXECUTE_OPERATION_INSTANCE_CLOSED:
 223:Source\azure_iot_sdk\uamqp\src/cbs.c ****                 /* Tests_SRS_CBS_01_115: [ When `on_amqp_management_execute_operation_complete` is 
 224:Source\azure_iot_sdk\uamqp\src/cbs.c ****                 cbs_operation_result = CBS_OPERATION_RESULT_INSTANCE_CLOSED;
 588              		.loc 1 224 0
 589 0064 0321     		movs	r1, #3
 225:Source\azure_iot_sdk\uamqp\src/cbs.c ****                 break;
 590              		.loc 1 225 0
 591 0066 02E0     		b	.L33
 592              	.LVL85:
 593              	.L35:
 226:Source\azure_iot_sdk\uamqp\src/cbs.c **** 
ARM GAS  C:\Users\Phuong\AppData\Local\Temp\ccGVgD3r.s 			page 16


 227:Source\azure_iot_sdk\uamqp\src/cbs.c ****             case AMQP_MANAGEMENT_EXECUTE_OPERATION_ERROR:
 228:Source\azure_iot_sdk\uamqp\src/cbs.c ****                 /* Tests_SRS_CBS_01_093: [ When `on_amqp_management_execute_operation_complete` is 
 229:Source\azure_iot_sdk\uamqp\src/cbs.c ****                 cbs_operation_result = CBS_OPERATION_RESULT_CBS_ERROR;
 230:Source\azure_iot_sdk\uamqp\src/cbs.c ****                 break;
 231:Source\azure_iot_sdk\uamqp\src/cbs.c **** 
 232:Source\azure_iot_sdk\uamqp\src/cbs.c ****             case AMQP_MANAGEMENT_EXECUTE_OPERATION_OK:
 233:Source\azure_iot_sdk\uamqp\src/cbs.c ****                 /* Codes_SRS_CBS_01_092: [ When `on_amqp_management_execute_operation_complete` is 
 234:Source\azure_iot_sdk\uamqp\src/cbs.c ****                 cbs_operation_result = CBS_OPERATION_RESULT_OK;
 594              		.loc 1 234 0
 595 0068 0021     		movs	r1, #0
 235:Source\azure_iot_sdk\uamqp\src/cbs.c ****                 break;
 596              		.loc 1 235 0
 597 006a 00E0     		b	.L33
 598              	.LVL86:
 599              	.L37:
 219:Source\azure_iot_sdk\uamqp\src/cbs.c ****                 break;
 600              		.loc 1 219 0
 601 006c 0221     		movs	r1, #2
 602              	.L33:
 603              	.LVL87:
 236:Source\azure_iot_sdk\uamqp\src/cbs.c ****             }
 237:Source\azure_iot_sdk\uamqp\src/cbs.c **** 
 238:Source\azure_iot_sdk\uamqp\src/cbs.c ****             /* Codes_SRS_CBS_01_095: [ `status_code` and `status_description` shall be passed as th
 239:Source\azure_iot_sdk\uamqp\src/cbs.c ****             /* Codes_SRS_CBS_01_014: [ The response message has the following application-propertie
 240:Source\azure_iot_sdk\uamqp\src/cbs.c ****             /* Codes_SRS_CBS_01_013: [ status-code    No    int    HTTP response code [RFC2616]. ]*
 241:Source\azure_iot_sdk\uamqp\src/cbs.c ****             /* Codes_SRS_CBS_01_015: [ status-description    Yes    string    Description of the st
 242:Source\azure_iot_sdk\uamqp\src/cbs.c ****             /* Codes_SRS_CBS_01_016: [ The body of the message MUST be empty. ]*/
 243:Source\azure_iot_sdk\uamqp\src/cbs.c ****             /* Codes_SRS_CBS_01_026: [ The response message has the following application-propertie
 244:Source\azure_iot_sdk\uamqp\src/cbs.c ****             /* Codes_SRS_CBS_01_027: [ status-code    Yes    int    HTTP response code [RFC2616]. ]
 245:Source\azure_iot_sdk\uamqp\src/cbs.c ****             /* Codes_SRS_CBS_01_028: [ status-description    No    string    Description of the sta
 246:Source\azure_iot_sdk\uamqp\src/cbs.c ****             /* Codes_SRS_CBS_01_029: [ The body of the message MUST be empty. ]*/
 247:Source\azure_iot_sdk\uamqp\src/cbs.c ****             cbs_operation->on_cbs_operation_complete(cbs_operation->on_cbs_operation_complete_conte
 604              		.loc 1 247 0
 605 006e 3B00     		movs	r3, r7
 606 0070 039A     		ldr	r2, [sp, #12]
 607 0072 6068     		ldr	r0, [r4, #4]
 608              	.LVL88:
 609 0074 2668     		ldr	r6, [r4]
 610 0076 B047     		blx	r6
 611              	.LVL89:
 248:Source\azure_iot_sdk\uamqp\src/cbs.c **** 
 249:Source\azure_iot_sdk\uamqp\src/cbs.c ****             /* Codes_SRS_CBS_01_102: [ The pending operation shall be removed from the pending oper
 250:Source\azure_iot_sdk\uamqp\src/cbs.c ****             if (singlylinkedlist_remove(cbs_operation->pending_operations, (LIST_ITEM_HANDLE)contex
 612              		.loc 1 250 0
 613 0078 2900     		movs	r1, r5
 614 007a A068     		ldr	r0, [r4, #8]
 615 007c FFF7FEFF 		bl	singlylinkedlist_remove
 616              	.LVL90:
 617 0080 0028     		cmp	r0, #0
 618 0082 0DD0     		beq	.L36
 619              	.LBB19:
 251:Source\azure_iot_sdk\uamqp\src/cbs.c ****             {
 252:Source\azure_iot_sdk\uamqp\src/cbs.c ****                 LogError("Failed removing operation from the pending list");
 620              		.loc 1 252 0 discriminator 3
 621 0084 FFF7FEFF 		bl	xlogging_get_log_function
 622              	.LVL91:
 623 0088 051E     		subs	r5, r0, #0
ARM GAS  C:\Users\Phuong\AppData\Local\Temp\ccGVgD3r.s 			page 17


 624              	.LVL92:
 625 008a 09D0     		beq	.L36
 626              		.loc 1 252 0 is_stmt 0 discriminator 4
 627 008c 0B4B     		ldr	r3, .L38+16
 628 008e 0193     		str	r3, [sp, #4]
 629 0090 0123     		movs	r3, #1
 630 0092 0093     		str	r3, [sp]
 631 0094 FB33     		adds	r3, r3, #251
 632 0096 064A     		ldr	r2, .L38+4
 633 0098 5032     		adds	r2, r2, #80
 634 009a 0649     		ldr	r1, .L38+8
 635 009c 0020     		movs	r0, #0
 636              	.LVL93:
 637 009e A847     		blx	r5
 638              	.LVL94:
 639              	.L36:
 640              	.LBE19:
 253:Source\azure_iot_sdk\uamqp\src/cbs.c ****             }
 254:Source\azure_iot_sdk\uamqp\src/cbs.c **** 
 255:Source\azure_iot_sdk\uamqp\src/cbs.c ****             /* Codes_SRS_CBS_01_096: [ The `context` for the operation shall also be freed. ]*/
 256:Source\azure_iot_sdk\uamqp\src/cbs.c ****             free(cbs_operation);
 641              		.loc 1 256 0 is_stmt 1
 642 00a0 2000     		movs	r0, r4
 643 00a2 FFF7FEFF 		bl	free
 644              	.LVL95:
 645              	.L28:
 646              	.LBE17:
 257:Source\azure_iot_sdk\uamqp\src/cbs.c ****         }
 258:Source\azure_iot_sdk\uamqp\src/cbs.c ****     }
 259:Source\azure_iot_sdk\uamqp\src/cbs.c **** }
 647              		.loc 1 259 0
 648 00a6 05B0     		add	sp, sp, #20
 649              		@ sp needed
 650              	.LVL96:
 651 00a8 F0BD     		pop	{r4, r5, r6, r7, pc}
 652              	.L39:
 653 00aa C046     		.align	2
 654              	.L38:
 655 00ac 84020000 		.word	.LC31
 656 00b0 00000000 		.word	.LANCHOR0
 657 00b4 00000000 		.word	.LC1
 658 00b8 CC020000 		.word	.LC33
 659 00bc E0020000 		.word	.LC35
 660              		.cfi_endproc
 661              	.LFE4:
 662              		.size	on_amqp_management_execute_operation_complete, .-on_amqp_management_execute_operation_comple
 663              		.section	.text.add_string_key_value_pair_to_map,"ax",%progbits
 664              		.align	2
 665              		.code	16
 666              		.thumb_func
 667              		.type	add_string_key_value_pair_to_map, %function
 668              	add_string_key_value_pair_to_map:
 669              	.LFB1:
  43:Source\azure_iot_sdk\uamqp\src/cbs.c ****     int result;
 670              		.loc 1 43 0
 671              		.cfi_startproc
 672              		@ args = 0, pretend = 0, frame = 0
ARM GAS  C:\Users\Phuong\AppData\Local\Temp\ccGVgD3r.s 			page 18


 673              		@ frame_needed = 0, uses_anonymous_args = 0
 674              	.LVL97:
 675 0000 F0B5     		push	{r4, r5, r6, r7, lr}
 676              		.cfi_def_cfa_offset 20
 677              		.cfi_offset 4, -20
 678              		.cfi_offset 5, -16
 679              		.cfi_offset 6, -12
 680              		.cfi_offset 7, -8
 681              		.cfi_offset 14, -4
 682 0002 85B0     		sub	sp, sp, #20
 683              		.cfi_def_cfa_offset 40
 684 0004 0700     		movs	r7, r0
 685 0006 0D00     		movs	r5, r1
 686 0008 1600     		movs	r6, r2
  46:Source\azure_iot_sdk\uamqp\src/cbs.c ****     if (key_value == NULL)
 687              		.loc 1 46 0
 688 000a 0800     		movs	r0, r1
 689              	.LVL98:
 690 000c FFF7FEFF 		bl	amqpvalue_create_string
 691              	.LVL99:
 692 0010 041E     		subs	r4, r0, #0
 693              	.LVL100:
  47:Source\azure_iot_sdk\uamqp\src/cbs.c ****     {
 694              		.loc 1 47 0
 695 0012 0FD1     		bne	.L41
 696              	.LBB20:
  50:Source\azure_iot_sdk\uamqp\src/cbs.c ****         result = __FAILURE__;
 697              		.loc 1 50 0 discriminator 3
 698 0014 FFF7FEFF 		bl	xlogging_get_log_function
 699              	.LVL101:
 700 0018 041E     		subs	r4, r0, #0
 701              	.LVL102:
 702 001a 42D0     		beq	.L46
  50:Source\azure_iot_sdk\uamqp\src/cbs.c ****         result = __FAILURE__;
 703              		.loc 1 50 0 is_stmt 0 discriminator 4
 704 001c 0295     		str	r5, [sp, #8]
 705 001e 234B     		ldr	r3, .L50
 706 0020 0193     		str	r3, [sp, #4]
 707 0022 0123     		movs	r3, #1
 708 0024 0093     		str	r3, [sp]
 709 0026 3133     		adds	r3, r3, #49
 710 0028 214A     		ldr	r2, .L50+4
 711 002a 2249     		ldr	r1, .L50+8
 712 002c 0020     		movs	r0, #0
 713              	.LVL103:
 714 002e A047     		blx	r4
 715              	.LVL104:
 716              	.LBE20:
  51:Source\azure_iot_sdk\uamqp\src/cbs.c ****     }
 717              		.loc 1 51 0 is_stmt 1 discriminator 4
 718 0030 3326     		movs	r6, #51
 719              	.LVL105:
 720 0032 37E0     		b	.L42
 721              	.LVL106:
 722              	.L41:
 723              	.LBB21:
  55:Source\azure_iot_sdk\uamqp\src/cbs.c ****         if (value_value == NULL)
ARM GAS  C:\Users\Phuong\AppData\Local\Temp\ccGVgD3r.s 			page 19


 724              		.loc 1 55 0
 725 0034 3000     		movs	r0, r6
 726              	.LVL107:
 727 0036 FFF7FEFF 		bl	amqpvalue_create_string
 728              	.LVL108:
 729 003a 051E     		subs	r5, r0, #0
 730              	.LVL109:
  56:Source\azure_iot_sdk\uamqp\src/cbs.c ****         {
 731              		.loc 1 56 0
 732 003c 0FD1     		bne	.L43
 733              	.LBB22:
  59:Source\azure_iot_sdk\uamqp\src/cbs.c ****             result = __FAILURE__;
 734              		.loc 1 59 0 discriminator 3
 735 003e FFF7FEFF 		bl	xlogging_get_log_function
 736              	.LVL110:
 737 0042 051E     		subs	r5, r0, #0
 738              	.LVL111:
 739 0044 28D0     		beq	.L47
  59:Source\azure_iot_sdk\uamqp\src/cbs.c ****             result = __FAILURE__;
 740              		.loc 1 59 0 is_stmt 0 discriminator 4
 741 0046 0296     		str	r6, [sp, #8]
 742 0048 1B4B     		ldr	r3, .L50+12
 743 004a 0193     		str	r3, [sp, #4]
 744 004c 0123     		movs	r3, #1
 745 004e 0093     		str	r3, [sp]
 746 0050 3A33     		adds	r3, r3, #58
 747 0052 174A     		ldr	r2, .L50+4
 748 0054 1749     		ldr	r1, .L50+8
 749 0056 0020     		movs	r0, #0
 750              	.LVL112:
 751 0058 A847     		blx	r5
 752              	.LVL113:
 753              	.LBE22:
  60:Source\azure_iot_sdk\uamqp\src/cbs.c ****         }
 754              		.loc 1 60 0 is_stmt 1 discriminator 4
 755 005a 3C26     		movs	r6, #60
 756              	.LVL114:
 757 005c 1DE0     		b	.L44
 758              	.LVL115:
 759              	.L43:
  64:Source\azure_iot_sdk\uamqp\src/cbs.c ****             {
 760              		.loc 1 64 0
 761 005e 0200     		movs	r2, r0
 762 0060 2100     		movs	r1, r4
 763 0062 3800     		movs	r0, r7
 764              	.LVL116:
 765 0064 FFF7FEFF 		bl	amqpvalue_set_map_value
 766              	.LVL117:
 767 0068 0028     		cmp	r0, #0
 768 006a 0ED0     		beq	.L48
 769              	.LBB23:
  67:Source\azure_iot_sdk\uamqp\src/cbs.c ****                 result = __FAILURE__;
 770              		.loc 1 67 0 discriminator 3
 771 006c FFF7FEFF 		bl	xlogging_get_log_function
 772              	.LVL118:
 773 0070 061E     		subs	r6, r0, #0
 774              	.LVL119:
ARM GAS  C:\Users\Phuong\AppData\Local\Temp\ccGVgD3r.s 			page 20


 775 0072 0CD0     		beq	.L49
  67:Source\azure_iot_sdk\uamqp\src/cbs.c ****                 result = __FAILURE__;
 776              		.loc 1 67 0 is_stmt 0 discriminator 4
 777 0074 114B     		ldr	r3, .L50+16
 778 0076 0193     		str	r3, [sp, #4]
 779 0078 0123     		movs	r3, #1
 780 007a 0093     		str	r3, [sp]
 781 007c 4233     		adds	r3, r3, #66
 782 007e 0C4A     		ldr	r2, .L50+4
 783 0080 0C49     		ldr	r1, .L50+8
 784 0082 0020     		movs	r0, #0
 785              	.LVL120:
 786 0084 B047     		blx	r6
 787              	.LVL121:
 788              	.LBE23:
  68:Source\azure_iot_sdk\uamqp\src/cbs.c ****             }
 789              		.loc 1 68 0 is_stmt 1 discriminator 4
 790 0086 4426     		movs	r6, #68
 791              	.LVL122:
 792 0088 02E0     		b	.L45
 793              	.LVL123:
 794              	.L48:
  72:Source\azure_iot_sdk\uamqp\src/cbs.c ****             }
 795              		.loc 1 72 0
 796 008a 0026     		movs	r6, #0
 797              	.LVL124:
 798 008c 00E0     		b	.L45
 799              	.LVL125:
 800              	.L49:
  68:Source\azure_iot_sdk\uamqp\src/cbs.c ****             }
 801              		.loc 1 68 0
 802 008e 4426     		movs	r6, #68
 803              	.LVL126:
 804              	.L45:
  75:Source\azure_iot_sdk\uamqp\src/cbs.c ****         }
 805              		.loc 1 75 0
 806 0090 2800     		movs	r0, r5
 807 0092 FFF7FEFF 		bl	amqpvalue_destroy
 808              	.LVL127:
 809 0096 00E0     		b	.L44
 810              	.LVL128:
 811              	.L47:
  60:Source\azure_iot_sdk\uamqp\src/cbs.c ****         }
 812              		.loc 1 60 0
 813 0098 3C26     		movs	r6, #60
 814              	.LVL129:
 815              	.L44:
  78:Source\azure_iot_sdk\uamqp\src/cbs.c ****     }
 816              		.loc 1 78 0
 817 009a 2000     		movs	r0, r4
 818 009c FFF7FEFF 		bl	amqpvalue_destroy
 819              	.LVL130:
 820 00a0 00E0     		b	.L42
 821              	.LVL131:
 822              	.L46:
 823              	.LBE21:
  51:Source\azure_iot_sdk\uamqp\src/cbs.c ****     }
ARM GAS  C:\Users\Phuong\AppData\Local\Temp\ccGVgD3r.s 			page 21


 824              		.loc 1 51 0
 825 00a2 3326     		movs	r6, #51
 826              	.LVL132:
 827              	.L42:
  82:Source\azure_iot_sdk\uamqp\src/cbs.c **** 
 828              		.loc 1 82 0
 829 00a4 3000     		movs	r0, r6
 830 00a6 05B0     		add	sp, sp, #20
 831              		@ sp needed
 832              	.LVL133:
 833              	.LVL134:
 834 00a8 F0BD     		pop	{r4, r5, r6, r7, pc}
 835              	.L51:
 836 00aa C046     		.align	2
 837              	.L50:
 838 00ac 10030000 		.word	.LC39
 839 00b0 80000000 		.word	.LANCHOR1
 840 00b4 00000000 		.word	.LC1
 841 00b8 3C030000 		.word	.LC41
 842 00bc 68030000 		.word	.LC43
 843              		.cfi_endproc
 844              	.LFE1:
 845              		.size	add_string_key_value_pair_to_map, .-add_string_key_value_pair_to_map
 846              		.section	.text.cbs_create,"ax",%progbits
 847              		.align	2
 848              		.global	cbs_create
 849              		.code	16
 850              		.thumb_func
 851              		.type	cbs_create, %function
 852              	cbs_create:
 853              	.LFB5:
 260:Source\azure_iot_sdk\uamqp\src/cbs.c **** 
 261:Source\azure_iot_sdk\uamqp\src/cbs.c **** CBS_HANDLE cbs_create(SESSION_HANDLE session)
 262:Source\azure_iot_sdk\uamqp\src/cbs.c **** {
 854              		.loc 1 262 0
 855              		.cfi_startproc
 856              		@ args = 0, pretend = 0, frame = 0
 857              		@ frame_needed = 0, uses_anonymous_args = 0
 858              	.LVL135:
 859 0000 30B5     		push	{r4, r5, lr}
 860              		.cfi_def_cfa_offset 12
 861              		.cfi_offset 4, -12
 862              		.cfi_offset 5, -8
 863              		.cfi_offset 14, -4
 864 0002 83B0     		sub	sp, sp, #12
 865              		.cfi_def_cfa_offset 24
 866 0004 051E     		subs	r5, r0, #0
 263:Source\azure_iot_sdk\uamqp\src/cbs.c ****     CBS_INSTANCE* cbs;
 264:Source\azure_iot_sdk\uamqp\src/cbs.c **** 
 265:Source\azure_iot_sdk\uamqp\src/cbs.c ****     if (session == NULL)
 867              		.loc 1 265 0
 868 0006 11D1     		bne	.L53
 869              	.LBB24:
 266:Source\azure_iot_sdk\uamqp\src/cbs.c ****     {
 267:Source\azure_iot_sdk\uamqp\src/cbs.c ****         /* Codes_SRS_CBS_01_033: [** If `session` is NULL then `cbs_create` shall fail and return N
 268:Source\azure_iot_sdk\uamqp\src/cbs.c ****         LogError("NULL session handle");
 870              		.loc 1 268 0 discriminator 3
ARM GAS  C:\Users\Phuong\AppData\Local\Temp\ccGVgD3r.s 			page 22


 871 0008 FFF7FEFF 		bl	xlogging_get_log_function
 872              	.LVL136:
 873 000c 041E     		subs	r4, r0, #0
 874              	.LVL137:
 875 000e 00D1     		bne	.LCB951
 876 0010 86E0     		b	.L63	@long jump
 877              	.LCB951:
 878              		.loc 1 268 0 is_stmt 0 discriminator 4
 879 0012 454B     		ldr	r3, .L64
 880 0014 0193     		str	r3, [sp, #4]
 881 0016 0123     		movs	r3, #1
 882 0018 0093     		str	r3, [sp]
 883 001a 0C33     		adds	r3, r3, #12
 884 001c FF33     		adds	r3, r3, #255
 885 001e 434A     		ldr	r2, .L64+4
 886 0020 2432     		adds	r2, r2, #36
 887 0022 4349     		ldr	r1, .L64+8
 888 0024 0020     		movs	r0, #0
 889              	.LVL138:
 890 0026 A047     		blx	r4
 891              	.LVL139:
 892              	.LBE24:
 269:Source\azure_iot_sdk\uamqp\src/cbs.c ****         cbs = NULL;
 893              		.loc 1 269 0 is_stmt 1 discriminator 4
 894 0028 0024     		movs	r4, #0
 895              	.LVL140:
 896 002a 7AE0     		b	.L54
 897              	.LVL141:
 898              	.L53:
 270:Source\azure_iot_sdk\uamqp\src/cbs.c ****     }
 271:Source\azure_iot_sdk\uamqp\src/cbs.c ****     else
 272:Source\azure_iot_sdk\uamqp\src/cbs.c ****     {
 273:Source\azure_iot_sdk\uamqp\src/cbs.c ****         cbs = (CBS_INSTANCE*)malloc(sizeof(CBS_INSTANCE));
 899              		.loc 1 273 0
 900 002c 1C20     		movs	r0, #28
 901              	.LVL142:
 902 002e FFF7FEFF 		bl	malloc
 903              	.LVL143:
 904 0032 041E     		subs	r4, r0, #0
 905              	.LVL144:
 274:Source\azure_iot_sdk\uamqp\src/cbs.c ****         if (cbs == NULL)
 906              		.loc 1 274 0
 907 0034 0FD1     		bne	.L55
 908              	.LBB25:
 275:Source\azure_iot_sdk\uamqp\src/cbs.c ****         {
 276:Source\azure_iot_sdk\uamqp\src/cbs.c ****             /* Codes_SRS_CBS_01_076: [ If allocating memory for the new handle fails, `cbs_create` 
 277:Source\azure_iot_sdk\uamqp\src/cbs.c ****             LogError("Cannot allocate memory for cbs instance.");
 909              		.loc 1 277 0 discriminator 3
 910 0036 FFF7FEFF 		bl	xlogging_get_log_function
 911              	.LVL145:
 912 003a 051E     		subs	r5, r0, #0
 913              	.LVL146:
 914 003c 71D0     		beq	.L54
 915              		.loc 1 277 0 is_stmt 0 discriminator 4
 916 003e 3D4B     		ldr	r3, .L64+12
 917 0040 0193     		str	r3, [sp, #4]
 918 0042 0123     		movs	r3, #1
ARM GAS  C:\Users\Phuong\AppData\Local\Temp\ccGVgD3r.s 			page 23


 919 0044 0093     		str	r3, [sp]
 920 0046 1623     		movs	r3, #22
 921 0048 FF33     		adds	r3, r3, #255
 922 004a 384A     		ldr	r2, .L64+4
 923 004c 2432     		adds	r2, r2, #36
 924 004e 3849     		ldr	r1, .L64+8
 925 0050 0020     		movs	r0, #0
 926              	.LVL147:
 927 0052 A847     		blx	r5
 928              	.LVL148:
 929 0054 65E0     		b	.L54
 930              	.LVL149:
 931              	.L55:
 932              	.LBE25:
 278:Source\azure_iot_sdk\uamqp\src/cbs.c ****         }
 279:Source\azure_iot_sdk\uamqp\src/cbs.c ****         else
 280:Source\azure_iot_sdk\uamqp\src/cbs.c ****         {
 281:Source\azure_iot_sdk\uamqp\src/cbs.c ****             /* Codes_SRS_CBS_01_097: [ `cbs_create` shall create a singly linked list for pending o
 282:Source\azure_iot_sdk\uamqp\src/cbs.c ****             cbs->pending_operations = singlylinkedlist_create();
 933              		.loc 1 282 0 is_stmt 1
 934 0056 FFF7FEFF 		bl	singlylinkedlist_create
 935              	.LVL150:
 936 005a A061     		str	r0, [r4, #24]
 283:Source\azure_iot_sdk\uamqp\src/cbs.c ****             if (cbs->pending_operations == NULL)
 937              		.loc 1 283 0
 938 005c 0028     		cmp	r0, #0
 939 005e 0FD1     		bne	.L56
 940              	.LBB26:
 284:Source\azure_iot_sdk\uamqp\src/cbs.c ****             {
 285:Source\azure_iot_sdk\uamqp\src/cbs.c ****                 /* Codes_SRS_CBS_01_101: [ If `singlylinkedlist_create` fails, `cbs_create` shall f
 286:Source\azure_iot_sdk\uamqp\src/cbs.c ****                 LogError("Cannot allocate pending operations list.");
 941              		.loc 1 286 0 discriminator 3
 942 0060 FFF7FEFF 		bl	xlogging_get_log_function
 943              	.LVL151:
 944 0064 051E     		subs	r5, r0, #0
 945              	.LVL152:
 946 0066 56D0     		beq	.L57
 947              		.loc 1 286 0 is_stmt 0 discriminator 4
 948 0068 334B     		ldr	r3, .L64+16
 949 006a 0193     		str	r3, [sp, #4]
 950 006c 0123     		movs	r3, #1
 951 006e 0093     		str	r3, [sp]
 952 0070 1E33     		adds	r3, r3, #30
 953 0072 FF33     		adds	r3, r3, #255
 954 0074 2D4A     		ldr	r2, .L64+4
 955 0076 2432     		adds	r2, r2, #36
 956 0078 2D49     		ldr	r1, .L64+8
 957 007a 0020     		movs	r0, #0
 958              	.LVL153:
 959 007c A847     		blx	r5
 960              	.LVL154:
 961 007e 4AE0     		b	.L57
 962              	.LVL155:
 963              	.L56:
 964              	.LBE26:
 287:Source\azure_iot_sdk\uamqp\src/cbs.c ****             }
 288:Source\azure_iot_sdk\uamqp\src/cbs.c ****             else
ARM GAS  C:\Users\Phuong\AppData\Local\Temp\ccGVgD3r.s 			page 24


 289:Source\azure_iot_sdk\uamqp\src/cbs.c ****             {
 290:Source\azure_iot_sdk\uamqp\src/cbs.c ****                 /* Codes_SRS_CBS_01_034: [ `cbs_create` shall create an AMQP management handle by c
 291:Source\azure_iot_sdk\uamqp\src/cbs.c ****                 /* Codes_SRS_CBS_01_002: [ Tokens are communicated between AMQP peers by sending sp
 292:Source\azure_iot_sdk\uamqp\src/cbs.c ****                 /* Codes_SRS_CBS_01_003: [ The mechanism follows the scheme defined in the AMQP Man
 293:Source\azure_iot_sdk\uamqp\src/cbs.c ****                 cbs->amqp_management = amqp_management_create(session, "$cbs");
 965              		.loc 1 293 0 is_stmt 1
 966 0080 2E49     		ldr	r1, .L64+20
 967 0082 2800     		movs	r0, r5
 968 0084 FFF7FEFF 		bl	amqp_management_create
 969              	.LVL156:
 970 0088 2060     		str	r0, [r4]
 294:Source\azure_iot_sdk\uamqp\src/cbs.c ****                 if (cbs->amqp_management == NULL)
 971              		.loc 1 294 0
 972 008a 0028     		cmp	r0, #0
 973 008c 0FD1     		bne	.L58
 974              	.LBB27:
 295:Source\azure_iot_sdk\uamqp\src/cbs.c ****                 {
 296:Source\azure_iot_sdk\uamqp\src/cbs.c ****                     LogError("PSOC6--Cannot create AMQP management instance for the $cbs node.--PSO
 975              		.loc 1 296 0 discriminator 3
 976 008e FFF7FEFF 		bl	xlogging_get_log_function
 977              	.LVL157:
 978 0092 051E     		subs	r5, r0, #0
 979              	.LVL158:
 980 0094 3CD0     		beq	.L59
 981              		.loc 1 296 0 is_stmt 0 discriminator 4
 982 0096 2A4B     		ldr	r3, .L64+24
 983 0098 0193     		str	r3, [sp, #4]
 984 009a 0123     		movs	r3, #1
 985 009c 0093     		str	r3, [sp]
 986 009e 2833     		adds	r3, r3, #40
 987 00a0 FF33     		adds	r3, r3, #255
 988 00a2 224A     		ldr	r2, .L64+4
 989 00a4 2432     		adds	r2, r2, #36
 990 00a6 2249     		ldr	r1, .L64+8
 991 00a8 0020     		movs	r0, #0
 992              	.LVL159:
 993 00aa A847     		blx	r5
 994              	.LVL160:
 995 00ac 30E0     		b	.L59
 996              	.LVL161:
 997              	.L58:
 998              	.LBE27:
 297:Source\azure_iot_sdk\uamqp\src/cbs.c ****                 }
 298:Source\azure_iot_sdk\uamqp\src/cbs.c ****                 else
 299:Source\azure_iot_sdk\uamqp\src/cbs.c ****                 {
 300:Source\azure_iot_sdk\uamqp\src/cbs.c ****                     /* Codes_SRS_CBS_01_116: [ If setting the override key names fails, then `cbs_c
 301:Source\azure_iot_sdk\uamqp\src/cbs.c ****                     if (amqp_management_set_override_status_code_key_name(cbs->amqp_management, "st
 999              		.loc 1 301 0 is_stmt 1
 1000 00ae 2549     		ldr	r1, .L64+28
 1001 00b0 FFF7FEFF 		bl	amqp_management_set_override_status_code_key_name
 1002              	.LVL162:
 1003 00b4 0028     		cmp	r0, #0
 1004 00b6 0FD0     		beq	.L60
 1005              	.LBB28:
 302:Source\azure_iot_sdk\uamqp\src/cbs.c ****                     {
 303:Source\azure_iot_sdk\uamqp\src/cbs.c ****                         /* Codes_SRS_CBS_01_116: [ If setting the override key names fails, then `c
 304:Source\azure_iot_sdk\uamqp\src/cbs.c ****                         LogError("Cannot set the override status code key name");
ARM GAS  C:\Users\Phuong\AppData\Local\Temp\ccGVgD3r.s 			page 25


 1006              		.loc 1 304 0 discriminator 3
 1007 00b8 FFF7FEFF 		bl	xlogging_get_log_function
 1008              	.LVL163:
 1009 00bc 051E     		subs	r5, r0, #0
 1010              	.LVL164:
 1011 00be 24D0     		beq	.L61
 1012              		.loc 1 304 0 is_stmt 0 discriminator 4
 1013 00c0 214B     		ldr	r3, .L64+32
 1014 00c2 0193     		str	r3, [sp, #4]
 1015 00c4 0123     		movs	r3, #1
 1016 00c6 0093     		str	r3, [sp]
 1017 00c8 3033     		adds	r3, r3, #48
 1018 00ca FF33     		adds	r3, r3, #255
 1019 00cc 174A     		ldr	r2, .L64+4
 1020 00ce 2432     		adds	r2, r2, #36
 1021 00d0 1749     		ldr	r1, .L64+8
 1022 00d2 0020     		movs	r0, #0
 1023              	.LVL165:
 1024 00d4 A847     		blx	r5
 1025              	.LVL166:
 1026 00d6 18E0     		b	.L61
 1027              	.LVL167:
 1028              	.L60:
 1029              	.LBE28:
 305:Source\azure_iot_sdk\uamqp\src/cbs.c ****                     }
 306:Source\azure_iot_sdk\uamqp\src/cbs.c ****                     else
 307:Source\azure_iot_sdk\uamqp\src/cbs.c ****                     {
 308:Source\azure_iot_sdk\uamqp\src/cbs.c ****                         /* Codes_SRS_CBS_01_118: [ `cbs_create` shall set the override status descr
 309:Source\azure_iot_sdk\uamqp\src/cbs.c ****                         if (amqp_management_set_override_status_description_key_name(cbs->amqp_mana
 1030              		.loc 1 309 0 is_stmt 1
 1031 00d8 1C49     		ldr	r1, .L64+36
 1032 00da 2068     		ldr	r0, [r4]
 1033 00dc FFF7FEFF 		bl	amqp_management_set_override_status_description_key_name
 1034              	.LVL168:
 1035 00e0 0028     		cmp	r0, #0
 1036 00e2 0FD0     		beq	.L62
 1037              	.LBB29:
 310:Source\azure_iot_sdk\uamqp\src/cbs.c ****                         {
 311:Source\azure_iot_sdk\uamqp\src/cbs.c ****                             /* Codes_SRS_CBS_01_116: [ If setting the override key names fails, the
 312:Source\azure_iot_sdk\uamqp\src/cbs.c ****                             LogError("Cannot set the override status description key name");
 1038              		.loc 1 312 0 discriminator 3
 1039 00e4 FFF7FEFF 		bl	xlogging_get_log_function
 1040              	.LVL169:
 1041 00e8 051E     		subs	r5, r0, #0
 1042              	.LVL170:
 1043 00ea 0ED0     		beq	.L61
 1044              		.loc 1 312 0 is_stmt 0 discriminator 4
 1045 00ec 184B     		ldr	r3, .L64+40
 1046 00ee 0193     		str	r3, [sp, #4]
 1047 00f0 0123     		movs	r3, #1
 1048 00f2 0093     		str	r3, [sp]
 1049 00f4 3833     		adds	r3, r3, #56
 1050 00f6 FF33     		adds	r3, r3, #255
 1051 00f8 0C4A     		ldr	r2, .L64+4
 1052 00fa 2432     		adds	r2, r2, #36
 1053 00fc 0C49     		ldr	r1, .L64+8
 1054 00fe 0020     		movs	r0, #0
ARM GAS  C:\Users\Phuong\AppData\Local\Temp\ccGVgD3r.s 			page 26


 1055              	.LVL171:
 1056 0100 A847     		blx	r5
 1057              	.LVL172:
 1058 0102 02E0     		b	.L61
 1059              	.LVL173:
 1060              	.L62:
 1061              	.LBE29:
 313:Source\azure_iot_sdk\uamqp\src/cbs.c ****                         }
 314:Source\azure_iot_sdk\uamqp\src/cbs.c ****                         else
 315:Source\azure_iot_sdk\uamqp\src/cbs.c ****                         {
 316:Source\azure_iot_sdk\uamqp\src/cbs.c ****                             /* Codes_SRS_CBS_01_001: [ `cbs_create` shall create a new CBS instance
 317:Source\azure_iot_sdk\uamqp\src/cbs.c ****                             cbs->cbs_state = CBS_STATE_CLOSED;
 1062              		.loc 1 317 0 is_stmt 1
 1063 0104 0023     		movs	r3, #0
 1064 0106 2371     		strb	r3, [r4, #4]
 318:Source\azure_iot_sdk\uamqp\src/cbs.c **** 
 319:Source\azure_iot_sdk\uamqp\src/cbs.c ****                             goto all_ok;
 1065              		.loc 1 319 0
 1066 0108 0BE0     		b	.L54
 1067              	.LVL174:
 1068              	.L61:
 320:Source\azure_iot_sdk\uamqp\src/cbs.c ****                         }
 321:Source\azure_iot_sdk\uamqp\src/cbs.c ****                     }
 322:Source\azure_iot_sdk\uamqp\src/cbs.c **** 
 323:Source\azure_iot_sdk\uamqp\src/cbs.c ****                     amqp_management_destroy(cbs->amqp_management);
 1069              		.loc 1 323 0
 1070 010a 2068     		ldr	r0, [r4]
 1071 010c FFF7FEFF 		bl	amqp_management_destroy
 1072              	.LVL175:
 1073              	.L59:
 324:Source\azure_iot_sdk\uamqp\src/cbs.c ****                 }
 325:Source\azure_iot_sdk\uamqp\src/cbs.c **** 
 326:Source\azure_iot_sdk\uamqp\src/cbs.c ****                 singlylinkedlist_destroy(cbs->pending_operations);
 1074              		.loc 1 326 0
 1075 0110 A069     		ldr	r0, [r4, #24]
 1076 0112 FFF7FEFF 		bl	singlylinkedlist_destroy
 1077              	.LVL176:
 1078              	.L57:
 327:Source\azure_iot_sdk\uamqp\src/cbs.c ****             }
 328:Source\azure_iot_sdk\uamqp\src/cbs.c **** 
 329:Source\azure_iot_sdk\uamqp\src/cbs.c ****             free(cbs);
 1079              		.loc 1 329 0
 1080 0116 2000     		movs	r0, r4
 1081 0118 FFF7FEFF 		bl	free
 1082              	.LVL177:
 330:Source\azure_iot_sdk\uamqp\src/cbs.c ****             cbs = NULL;
 1083              		.loc 1 330 0
 1084 011c 0024     		movs	r4, #0
 1085 011e 00E0     		b	.L54
 1086              	.LVL178:
 1087              	.L63:
 269:Source\azure_iot_sdk\uamqp\src/cbs.c ****     }
 1088              		.loc 1 269 0
 1089 0120 0024     		movs	r4, #0
 1090              	.LVL179:
 1091              	.L54:
 331:Source\azure_iot_sdk\uamqp\src/cbs.c ****         }
ARM GAS  C:\Users\Phuong\AppData\Local\Temp\ccGVgD3r.s 			page 27


 332:Source\azure_iot_sdk\uamqp\src/cbs.c ****     }
 333:Source\azure_iot_sdk\uamqp\src/cbs.c **** 
 334:Source\azure_iot_sdk\uamqp\src/cbs.c **** all_ok:
 335:Source\azure_iot_sdk\uamqp\src/cbs.c ****     return cbs;
 336:Source\azure_iot_sdk\uamqp\src/cbs.c **** }
 1092              		.loc 1 336 0
 1093 0122 2000     		movs	r0, r4
 1094 0124 03B0     		add	sp, sp, #12
 1095              		@ sp needed
 1096              	.LVL180:
 1097 0126 30BD     		pop	{r4, r5, pc}
 1098              	.L65:
 1099              		.align	2
 1100              	.L64:
 1101 0128 94030000 		.word	.LC47
 1102 012c 80000000 		.word	.LANCHOR1
 1103 0130 00000000 		.word	.LC1
 1104 0134 A8030000 		.word	.LC49
 1105 0138 D4030000 		.word	.LC51
 1106 013c 00040000 		.word	.LC53
 1107 0140 08040000 		.word	.LC55
 1108 0144 50040000 		.word	.LC57
 1109 0148 5C040000 		.word	.LC59
 1110 014c 8C040000 		.word	.LC61
 1111 0150 A0040000 		.word	.LC63
 1112              		.cfi_endproc
 1113              	.LFE5:
 1114              		.size	cbs_create, .-cbs_create
 1115              		.section	.text.cbs_destroy,"ax",%progbits
 1116              		.align	2
 1117              		.global	cbs_destroy
 1118              		.code	16
 1119              		.thumb_func
 1120              		.type	cbs_destroy, %function
 1121              	cbs_destroy:
 1122              	.LFB6:
 337:Source\azure_iot_sdk\uamqp\src/cbs.c **** 
 338:Source\azure_iot_sdk\uamqp\src/cbs.c **** void cbs_destroy(CBS_HANDLE cbs)
 339:Source\azure_iot_sdk\uamqp\src/cbs.c **** {
 1123              		.loc 1 339 0
 1124              		.cfi_startproc
 1125              		@ args = 0, pretend = 0, frame = 0
 1126              		@ frame_needed = 0, uses_anonymous_args = 0
 1127              	.LVL181:
 1128 0000 F0B5     		push	{r4, r5, r6, r7, lr}
 1129              		.cfi_def_cfa_offset 20
 1130              		.cfi_offset 4, -20
 1131              		.cfi_offset 5, -16
 1132              		.cfi_offset 6, -12
 1133              		.cfi_offset 7, -8
 1134              		.cfi_offset 14, -4
 1135 0002 83B0     		sub	sp, sp, #12
 1136              		.cfi_def_cfa_offset 32
 1137 0004 061E     		subs	r6, r0, #0
 340:Source\azure_iot_sdk\uamqp\src/cbs.c ****     if (cbs == NULL)
 1138              		.loc 1 340 0
 1139 0006 0FD1     		bne	.L67
ARM GAS  C:\Users\Phuong\AppData\Local\Temp\ccGVgD3r.s 			page 28


 1140              	.LBB30:
 341:Source\azure_iot_sdk\uamqp\src/cbs.c ****     {
 342:Source\azure_iot_sdk\uamqp\src/cbs.c ****         /* Codes_SRS_CBS_01_037: [ If `cbs` is NULL, `cbs_destroy` shall do nothing. ]*/
 343:Source\azure_iot_sdk\uamqp\src/cbs.c ****         LogError("NULL cbs handle");
 1141              		.loc 1 343 0 discriminator 3
 1142 0008 FFF7FEFF 		bl	xlogging_get_log_function
 1143              	.LVL182:
 1144 000c 041E     		subs	r4, r0, #0
 1145              	.LVL183:
 1146 000e 41D0     		beq	.L66
 1147              		.loc 1 343 0 is_stmt 0 discriminator 4
 1148 0010 214B     		ldr	r3, .L74
 1149 0012 0193     		str	r3, [sp, #4]
 1150 0014 0123     		movs	r3, #1
 1151 0016 0093     		str	r3, [sp]
 1152 0018 5823     		movs	r3, #88
 1153 001a FF33     		adds	r3, r3, #255
 1154 001c 1F4A     		ldr	r2, .L74+4
 1155 001e 3032     		adds	r2, r2, #48
 1156 0020 1F49     		ldr	r1, .L74+8
 1157 0022 0020     		movs	r0, #0
 1158              	.LVL184:
 1159 0024 A047     		blx	r4
 1160              	.LVL185:
 1161 0026 35E0     		b	.L66
 1162              	.LVL186:
 1163              	.L67:
 1164              	.LBE30:
 1165              	.LBB31:
 1166              	.LBB32:
 344:Source\azure_iot_sdk\uamqp\src/cbs.c ****     }
 345:Source\azure_iot_sdk\uamqp\src/cbs.c ****     else
 346:Source\azure_iot_sdk\uamqp\src/cbs.c ****     {
 347:Source\azure_iot_sdk\uamqp\src/cbs.c ****         LIST_ITEM_HANDLE first_pending_operation;
 348:Source\azure_iot_sdk\uamqp\src/cbs.c **** 
 349:Source\azure_iot_sdk\uamqp\src/cbs.c ****         LogError("PSOC6---cbs_destroy---PSOC6");
 1167              		.loc 1 349 0 is_stmt 1 discriminator 3
 1168 0028 FFF7FEFF 		bl	xlogging_get_log_function
 1169              	.LVL187:
 1170 002c 041E     		subs	r4, r0, #0
 1171              	.LVL188:
 1172 002e 0AD0     		beq	.L69
 1173              		.loc 1 349 0 is_stmt 0 discriminator 4
 1174 0030 1C4B     		ldr	r3, .L74+12
 1175 0032 0193     		str	r3, [sp, #4]
 1176 0034 0123     		movs	r3, #1
 1177 0036 0093     		str	r3, [sp]
 1178 0038 5E23     		movs	r3, #94
 1179 003a FF33     		adds	r3, r3, #255
 1180 003c 174A     		ldr	r2, .L74+4
 1181 003e 3032     		adds	r2, r2, #48
 1182 0040 1749     		ldr	r1, .L74+8
 1183 0042 0020     		movs	r0, #0
 1184              	.LVL189:
 1185 0044 A047     		blx	r4
 1186              	.LVL190:
 1187              	.L69:
ARM GAS  C:\Users\Phuong\AppData\Local\Temp\ccGVgD3r.s 			page 29


 1188              	.LBE32:
 350:Source\azure_iot_sdk\uamqp\src/cbs.c ****         /* Codes_SRS_CBS_01_100: [ If the CBS instance is not closed, all actions performed by `cbs
 351:Source\azure_iot_sdk\uamqp\src/cbs.c ****         if (cbs->cbs_state != CBS_STATE_CLOSED)
 1189              		.loc 1 351 0 is_stmt 1
 1190 0046 3379     		ldrb	r3, [r6, #4]
 1191 0048 002B     		cmp	r3, #0
 1192 004a 02D0     		beq	.L70
 352:Source\azure_iot_sdk\uamqp\src/cbs.c ****         {
 353:Source\azure_iot_sdk\uamqp\src/cbs.c ****             (void)amqp_management_close(cbs->amqp_management);
 1193              		.loc 1 353 0
 1194 004c 3068     		ldr	r0, [r6]
 1195 004e FFF7FEFF 		bl	amqp_management_close
 1196              	.LVL191:
 1197              	.L70:
 354:Source\azure_iot_sdk\uamqp\src/cbs.c ****         }
 355:Source\azure_iot_sdk\uamqp\src/cbs.c **** 
 356:Source\azure_iot_sdk\uamqp\src/cbs.c ****         /* Codes_SRS_CBS_01_036: [ `cbs_destroy` shall free all resources associated with the handl
 357:Source\azure_iot_sdk\uamqp\src/cbs.c ****         /* Codes_SRS_CBS_01_038: [ `cbs_destroy` shall free the AMQP management handle created in `
 358:Source\azure_iot_sdk\uamqp\src/cbs.c ****         amqp_management_destroy(cbs->amqp_management);
 1198              		.loc 1 358 0
 1199 0052 3068     		ldr	r0, [r6]
 1200 0054 FFF7FEFF 		bl	amqp_management_destroy
 1201              	.LVL192:
 359:Source\azure_iot_sdk\uamqp\src/cbs.c **** 
 360:Source\azure_iot_sdk\uamqp\src/cbs.c ****         /* Codes_SRS_CBS_01_099: [ All pending operations shall be freed. ]*/
 361:Source\azure_iot_sdk\uamqp\src/cbs.c ****         while ((first_pending_operation = singlylinkedlist_get_head_item(cbs->pending_operations)) 
 1202              		.loc 1 361 0
 1203 0058 11E0     		b	.L71
 1204              	.LVL193:
 1205              	.L73:
 1206              	.LBB33:
 362:Source\azure_iot_sdk\uamqp\src/cbs.c ****         {
 363:Source\azure_iot_sdk\uamqp\src/cbs.c ****             CBS_OPERATION* pending_operation = (CBS_OPERATION*)singlylinkedlist_item_get_value(firs
 1207              		.loc 1 363 0
 1208 005a 2000     		movs	r0, r4
 1209              	.LVL194:
 1210 005c FFF7FEFF 		bl	singlylinkedlist_item_get_value
 1211              	.LVL195:
 1212 0060 051E     		subs	r5, r0, #0
 1213              	.LVL196:
 364:Source\azure_iot_sdk\uamqp\src/cbs.c ****             if (pending_operation != NULL)
 1214              		.loc 1 364 0
 1215 0062 08D0     		beq	.L72
 365:Source\azure_iot_sdk\uamqp\src/cbs.c ****             {
 366:Source\azure_iot_sdk\uamqp\src/cbs.c ****                 pending_operation->on_cbs_operation_complete(pending_operation->on_cbs_operation_co
 1216              		.loc 1 366 0
 1217 0064 0023     		movs	r3, #0
 1218 0066 0022     		movs	r2, #0
 1219 0068 0321     		movs	r1, #3
 1220 006a 4068     		ldr	r0, [r0, #4]
 1221              	.LVL197:
 1222 006c 2F68     		ldr	r7, [r5]
 1223 006e B847     		blx	r7
 1224              	.LVL198:
 367:Source\azure_iot_sdk\uamqp\src/cbs.c ****                 free(pending_operation);
 1225              		.loc 1 367 0
 1226 0070 2800     		movs	r0, r5
ARM GAS  C:\Users\Phuong\AppData\Local\Temp\ccGVgD3r.s 			page 30


 1227 0072 FFF7FEFF 		bl	free
 1228              	.LVL199:
 1229              	.L72:
 368:Source\azure_iot_sdk\uamqp\src/cbs.c ****             }
 369:Source\azure_iot_sdk\uamqp\src/cbs.c **** 
 370:Source\azure_iot_sdk\uamqp\src/cbs.c ****             singlylinkedlist_remove(cbs->pending_operations, first_pending_operation);
 1230              		.loc 1 370 0
 1231 0076 2100     		movs	r1, r4
 1232 0078 B069     		ldr	r0, [r6, #24]
 1233 007a FFF7FEFF 		bl	singlylinkedlist_remove
 1234              	.LVL200:
 1235              	.L71:
 1236              	.LBE33:
 361:Source\azure_iot_sdk\uamqp\src/cbs.c ****         {
 1237              		.loc 1 361 0
 1238 007e B069     		ldr	r0, [r6, #24]
 1239 0080 FFF7FEFF 		bl	singlylinkedlist_get_head_item
 1240              	.LVL201:
 1241 0084 041E     		subs	r4, r0, #0
 1242              	.LVL202:
 1243 0086 E8D1     		bne	.L73
 371:Source\azure_iot_sdk\uamqp\src/cbs.c ****         }
 372:Source\azure_iot_sdk\uamqp\src/cbs.c **** 
 373:Source\azure_iot_sdk\uamqp\src/cbs.c ****         /* Codes_SRS_CBS_01_098: [ `cbs_destroy` shall free the pending operations list by calling 
 374:Source\azure_iot_sdk\uamqp\src/cbs.c ****         singlylinkedlist_destroy(cbs->pending_operations);
 1244              		.loc 1 374 0
 1245 0088 B069     		ldr	r0, [r6, #24]
 1246              	.LVL203:
 1247 008a FFF7FEFF 		bl	singlylinkedlist_destroy
 1248              	.LVL204:
 375:Source\azure_iot_sdk\uamqp\src/cbs.c ****         free(cbs);
 1249              		.loc 1 375 0
 1250 008e 3000     		movs	r0, r6
 1251 0090 FFF7FEFF 		bl	free
 1252              	.LVL205:
 1253              	.L66:
 1254              	.LBE31:
 376:Source\azure_iot_sdk\uamqp\src/cbs.c ****     }
 377:Source\azure_iot_sdk\uamqp\src/cbs.c **** }
 1255              		.loc 1 377 0
 1256 0094 03B0     		add	sp, sp, #12
 1257              		@ sp needed
 1258              	.LVL206:
 1259 0096 F0BD     		pop	{r4, r5, r6, r7, pc}
 1260              	.L75:
 1261              		.align	2
 1262              	.L74:
 1263 0098 D4040000 		.word	.LC67
 1264 009c 80000000 		.word	.LANCHOR1
 1265 00a0 00000000 		.word	.LC1
 1266 00a4 E4040000 		.word	.LC69
 1267              		.cfi_endproc
 1268              	.LFE6:
 1269              		.size	cbs_destroy, .-cbs_destroy
 1270              		.section	.text.cbs_open_async,"ax",%progbits
 1271              		.align	2
 1272              		.global	cbs_open_async
ARM GAS  C:\Users\Phuong\AppData\Local\Temp\ccGVgD3r.s 			page 31


 1273              		.code	16
 1274              		.thumb_func
 1275              		.type	cbs_open_async, %function
 1276              	cbs_open_async:
 1277              	.LFB7:
 378:Source\azure_iot_sdk\uamqp\src/cbs.c **** 
 379:Source\azure_iot_sdk\uamqp\src/cbs.c **** int cbs_open_async(CBS_HANDLE cbs, ON_CBS_OPEN_COMPLETE on_cbs_open_complete, void* on_cbs_open_com
 380:Source\azure_iot_sdk\uamqp\src/cbs.c **** {
 1278              		.loc 1 380 0
 1279              		.cfi_startproc
 1280              		@ args = 4, pretend = 0, frame = 8
 1281              		@ frame_needed = 0, uses_anonymous_args = 0
 1282              	.LVL207:
 1283 0000 F0B5     		push	{r4, r5, r6, r7, lr}
 1284              		.cfi_def_cfa_offset 20
 1285              		.cfi_offset 4, -20
 1286              		.cfi_offset 5, -16
 1287              		.cfi_offset 6, -12
 1288              		.cfi_offset 7, -8
 1289              		.cfi_offset 14, -4
 1290 0002 89B0     		sub	sp, sp, #36
 1291              		.cfi_def_cfa_offset 56
 1292 0004 0400     		movs	r4, r0
 1293 0006 0E00     		movs	r6, r1
 1294 0008 0792     		str	r2, [sp, #28]
 1295 000a 1F00     		movs	r7, r3
 1296              	.LBB34:
 381:Source\azure_iot_sdk\uamqp\src/cbs.c ****     int result;
 382:Source\azure_iot_sdk\uamqp\src/cbs.c **** 
 383:Source\azure_iot_sdk\uamqp\src/cbs.c ****     LogError("PSOC6---DEBUGGING_cbs_open_async---PSOC6");
 1297              		.loc 1 383 0
 1298 000c FFF7FEFF 		bl	xlogging_get_log_function
 1299              	.LVL208:
 1300 0010 051E     		subs	r5, r0, #0
 1301              	.LVL209:
 1302 0012 0AD0     		beq	.L77
 1303              		.loc 1 383 0 is_stmt 0 discriminator 4
 1304 0014 3D4B     		ldr	r3, .L87
 1305 0016 0193     		str	r3, [sp, #4]
 1306 0018 0123     		movs	r3, #1
 1307 001a 0093     		str	r3, [sp]
 1308 001c 8023     		movs	r3, #128
 1309 001e FF33     		adds	r3, r3, #255
 1310 0020 3B4A     		ldr	r2, .L87+4
 1311 0022 3C32     		adds	r2, r2, #60
 1312 0024 3B49     		ldr	r1, .L87+8
 1313 0026 0020     		movs	r0, #0
 1314              	.LVL210:
 1315 0028 A847     		blx	r5
 1316              	.LVL211:
 1317              	.L77:
 1318              	.LBE34:
 384:Source\azure_iot_sdk\uamqp\src/cbs.c ****     /* Codes_SRS_CBS_01_042: [ `on_cbs_open_complete_context` and `on_cbs_error_context` shall be a
 385:Source\azure_iot_sdk\uamqp\src/cbs.c ****     if ((cbs == NULL) ||
 1319              		.loc 1 385 0 is_stmt 1
 1320 002a 002C     		cmp	r4, #0
 1321 002c 03D0     		beq	.L78
ARM GAS  C:\Users\Phuong\AppData\Local\Temp\ccGVgD3r.s 			page 32


 1322              		.loc 1 385 0 is_stmt 0 discriminator 1
 1323 002e 002E     		cmp	r6, #0
 1324 0030 01D0     		beq	.L78
 386:Source\azure_iot_sdk\uamqp\src/cbs.c ****         (on_cbs_open_complete == NULL) ||
 1325              		.loc 1 386 0 is_stmt 1
 1326 0032 002F     		cmp	r7, #0
 1327 0034 14D1     		bne	.L79
 1328              	.L78:
 1329              	.LBB35:
 387:Source\azure_iot_sdk\uamqp\src/cbs.c ****         (on_cbs_error == NULL))
 388:Source\azure_iot_sdk\uamqp\src/cbs.c ****     {
 389:Source\azure_iot_sdk\uamqp\src/cbs.c ****         /* Codes_SRS_CBS_01_040: [ If any of the arguments `cbs`, `on_cbs_open_complete` or `on_cbs
 390:Source\azure_iot_sdk\uamqp\src/cbs.c ****         LogError("Bad arguments: cbs = %p, on_cbs_open_complete = %p, on_cbs_error = %p",
 1330              		.loc 1 390 0 discriminator 3
 1331 0036 FFF7FEFF 		bl	xlogging_get_log_function
 1332              	.LVL212:
 1333 003a 051E     		subs	r5, r0, #0
 1334              	.LVL213:
 1335 003c 59D0     		beq	.L83
 1336              		.loc 1 390 0 is_stmt 0 discriminator 4
 1337 003e 0497     		str	r7, [sp, #16]
 1338 0040 0396     		str	r6, [sp, #12]
 1339 0042 0294     		str	r4, [sp, #8]
 1340 0044 344B     		ldr	r3, .L87+12
 1341 0046 0193     		str	r3, [sp, #4]
 1342 0048 0123     		movs	r3, #1
 1343 004a 0093     		str	r3, [sp]
 1344 004c 8823     		movs	r3, #136
 1345 004e FF33     		adds	r3, r3, #255
 1346 0050 2F4A     		ldr	r2, .L87+4
 1347 0052 3C32     		adds	r2, r2, #60
 1348 0054 2F49     		ldr	r1, .L87+8
 1349 0056 0020     		movs	r0, #0
 1350              	.LVL214:
 1351 0058 A847     		blx	r5
 1352              	.LVL215:
 1353              	.LBE35:
 391:Source\azure_iot_sdk\uamqp\src/cbs.c ****             cbs, on_cbs_open_complete, on_cbs_error);
 392:Source\azure_iot_sdk\uamqp\src/cbs.c ****         result = __FAILURE__;
 1354              		.loc 1 392 0 is_stmt 1 discriminator 4
 1355 005a C420     		movs	r0, #196
 1356 005c 4000     		lsls	r0, r0, #1
 1357 005e 52E0     		b	.L80
 1358              	.LVL216:
 1359              	.L79:
 393:Source\azure_iot_sdk\uamqp\src/cbs.c ****     }
 394:Source\azure_iot_sdk\uamqp\src/cbs.c ****     else if (cbs->cbs_state != CBS_STATE_CLOSED)
 1360              		.loc 1 394 0
 1361 0060 2379     		ldrb	r3, [r4, #4]
 1362 0062 002B     		cmp	r3, #0
 1363 0064 11D0     		beq	.L81
 1364              	.LBB36:
 395:Source\azure_iot_sdk\uamqp\src/cbs.c ****     {
 396:Source\azure_iot_sdk\uamqp\src/cbs.c ****         /* Codes_SRS_CBS_01_043: [ `cbs_open_async` while already open or opening shall fail and re
 397:Source\azure_iot_sdk\uamqp\src/cbs.c ****         LogError("cbs instance already open");
 1365              		.loc 1 397 0 discriminator 3
 1366 0066 FFF7FEFF 		bl	xlogging_get_log_function
ARM GAS  C:\Users\Phuong\AppData\Local\Temp\ccGVgD3r.s 			page 33


 1367              	.LVL217:
 1368 006a 041E     		subs	r4, r0, #0
 1369              	.LVL218:
 1370 006c 44D0     		beq	.L84
 1371              		.loc 1 397 0 is_stmt 0 discriminator 4
 1372 006e 2B4B     		ldr	r3, .L87+16
 1373 0070 0193     		str	r3, [sp, #4]
 1374 0072 0123     		movs	r3, #1
 1375 0074 0093     		str	r3, [sp]
 1376 0076 8E23     		movs	r3, #142
 1377 0078 FF33     		adds	r3, r3, #255
 1378 007a 254A     		ldr	r2, .L87+4
 1379 007c 3C32     		adds	r2, r2, #60
 1380 007e 2549     		ldr	r1, .L87+8
 1381 0080 0020     		movs	r0, #0
 1382              	.LVL219:
 1383 0082 A047     		blx	r4
 1384              	.LVL220:
 1385              	.LBE36:
 398:Source\azure_iot_sdk\uamqp\src/cbs.c ****         result = __FAILURE__;
 1386              		.loc 1 398 0 is_stmt 1 discriminator 4
 1387 0084 C720     		movs	r0, #199
 1388 0086 4000     		lsls	r0, r0, #1
 1389 0088 3DE0     		b	.L80
 1390              	.LVL221:
 1391              	.L81:
 399:Source\azure_iot_sdk\uamqp\src/cbs.c ****     }
 400:Source\azure_iot_sdk\uamqp\src/cbs.c ****     else
 401:Source\azure_iot_sdk\uamqp\src/cbs.c ****     {
 402:Source\azure_iot_sdk\uamqp\src/cbs.c ****         /* Codes_SRS_CBS_01_078: [ The cbs instance shall be considered OPENING until the `on_amqp_
 403:Source\azure_iot_sdk\uamqp\src/cbs.c ****         cbs->cbs_state = CBS_STATE_OPENING;
 1392              		.loc 1 403 0
 1393 008a 0123     		movs	r3, #1
 1394 008c 2371     		strb	r3, [r4, #4]
 404:Source\azure_iot_sdk\uamqp\src/cbs.c ****         cbs->on_cbs_open_complete = on_cbs_open_complete;
 1395              		.loc 1 404 0
 1396 008e A660     		str	r6, [r4, #8]
 405:Source\azure_iot_sdk\uamqp\src/cbs.c ****         cbs->on_cbs_open_complete_context = on_cbs_open_complete_context;
 1397              		.loc 1 405 0
 1398 0090 079B     		ldr	r3, [sp, #28]
 1399 0092 E360     		str	r3, [r4, #12]
 406:Source\azure_iot_sdk\uamqp\src/cbs.c ****         cbs->on_cbs_error = on_cbs_error;
 1400              		.loc 1 406 0
 1401 0094 2761     		str	r7, [r4, #16]
 407:Source\azure_iot_sdk\uamqp\src/cbs.c ****         cbs->on_cbs_error_context = on_cbs_error_context;
 1402              		.loc 1 407 0
 1403 0096 0E9B     		ldr	r3, [sp, #56]
 1404 0098 6361     		str	r3, [r4, #20]
 408:Source\azure_iot_sdk\uamqp\src/cbs.c **** 
 409:Source\azure_iot_sdk\uamqp\src/cbs.c ****         /* Codes_SRS_CBS_01_039: [ `cbs_open_async` shall open the cbs communication by calling `am
 410:Source\azure_iot_sdk\uamqp\src/cbs.c ****         if (amqp_management_open_async(cbs->amqp_management, on_underlying_amqp_management_open_com
 1405              		.loc 1 410 0
 1406 009a 2068     		ldr	r0, [r4]
 1407 009c 0094     		str	r4, [sp]
 1408 009e 204B     		ldr	r3, .L87+20
 1409 00a0 2200     		movs	r2, r4
 1410 00a2 2049     		ldr	r1, .L87+24
ARM GAS  C:\Users\Phuong\AppData\Local\Temp\ccGVgD3r.s 			page 34


 1411 00a4 FFF7FEFF 		bl	amqp_management_open_async
 1412              	.LVL222:
 1413 00a8 0028     		cmp	r0, #0
 1414 00aa 11D0     		beq	.L82
 1415              	.LBB37:
 411:Source\azure_iot_sdk\uamqp\src/cbs.c ****         {
 412:Source\azure_iot_sdk\uamqp\src/cbs.c ****             /* Codes_SRS_CBS_01_041: [ If `amqp_management_open_async` fails, shall fail and return
 413:Source\azure_iot_sdk\uamqp\src/cbs.c ****             LogError("PSOC6--Failed_to_open_amqp_async--PSOC6");
 1416              		.loc 1 413 0 discriminator 3
 1417 00ac FFF7FEFF 		bl	xlogging_get_log_function
 1418              	.LVL223:
 1419 00b0 041E     		subs	r4, r0, #0
 1420              	.LVL224:
 1421 00b2 24D0     		beq	.L85
 1422              		.loc 1 413 0 is_stmt 0 discriminator 4
 1423 00b4 1C4B     		ldr	r3, .L87+28
 1424 00b6 0193     		str	r3, [sp, #4]
 1425 00b8 0123     		movs	r3, #1
 1426 00ba 0093     		str	r3, [sp]
 1427 00bc 9E23     		movs	r3, #158
 1428 00be FF33     		adds	r3, r3, #255
 1429 00c0 134A     		ldr	r2, .L87+4
 1430 00c2 3C32     		adds	r2, r2, #60
 1431 00c4 1349     		ldr	r1, .L87+8
 1432 00c6 0020     		movs	r0, #0
 1433              	.LVL225:
 1434 00c8 A047     		blx	r4
 1435              	.LVL226:
 1436              	.LBE37:
 414:Source\azure_iot_sdk\uamqp\src/cbs.c ****             result = __FAILURE__;
 1437              		.loc 1 414 0 is_stmt 1 discriminator 4
 1438 00ca CF20     		movs	r0, #207
 1439 00cc 4000     		lsls	r0, r0, #1
 1440 00ce 1AE0     		b	.L80
 1441              	.LVL227:
 1442              	.L82:
 1443              	.LBB38:
 415:Source\azure_iot_sdk\uamqp\src/cbs.c ****         }
 416:Source\azure_iot_sdk\uamqp\src/cbs.c ****         else
 417:Source\azure_iot_sdk\uamqp\src/cbs.c ****         {
 418:Source\azure_iot_sdk\uamqp\src/cbs.c ****             
 419:Source\azure_iot_sdk\uamqp\src/cbs.c ****             LogError("PSOC6---cbs_open_async_successfully---PSOC6");
 1444              		.loc 1 419 0 discriminator 3
 1445 00d0 FFF7FEFF 		bl	xlogging_get_log_function
 1446              	.LVL228:
 1447 00d4 041E     		subs	r4, r0, #0
 1448              	.LVL229:
 1449 00d6 15D0     		beq	.L86
 1450              		.loc 1 419 0 is_stmt 0 discriminator 4
 1451 00d8 144B     		ldr	r3, .L87+32
 1452 00da 0193     		str	r3, [sp, #4]
 1453 00dc 0123     		movs	r3, #1
 1454 00de 0093     		str	r3, [sp]
 1455 00e0 A423     		movs	r3, #164
 1456 00e2 FF33     		adds	r3, r3, #255
 1457 00e4 0A4A     		ldr	r2, .L87+4
 1458 00e6 3C32     		adds	r2, r2, #60
ARM GAS  C:\Users\Phuong\AppData\Local\Temp\ccGVgD3r.s 			page 35


 1459 00e8 0A49     		ldr	r1, .L87+8
 1460 00ea 0020     		movs	r0, #0
 1461              	.LVL230:
 1462 00ec A047     		blx	r4
 1463              	.LVL231:
 1464              	.LBE38:
 420:Source\azure_iot_sdk\uamqp\src/cbs.c ****             /* Codes_SRS_CBS_01_077: [ On success, `cbs_open_async` shall return 0. ]*/
 421:Source\azure_iot_sdk\uamqp\src/cbs.c ****             result = 0;
 1465              		.loc 1 421 0 is_stmt 1 discriminator 4
 1466 00ee 0020     		movs	r0, #0
 1467 00f0 09E0     		b	.L80
 1468              	.LVL232:
 1469              	.L83:
 392:Source\azure_iot_sdk\uamqp\src/cbs.c ****     }
 1470              		.loc 1 392 0
 1471 00f2 C420     		movs	r0, #196
 1472              	.LVL233:
 1473 00f4 4000     		lsls	r0, r0, #1
 1474 00f6 06E0     		b	.L80
 1475              	.LVL234:
 1476              	.L84:
 398:Source\azure_iot_sdk\uamqp\src/cbs.c ****     }
 1477              		.loc 1 398 0
 1478 00f8 C720     		movs	r0, #199
 1479              	.LVL235:
 1480 00fa 4000     		lsls	r0, r0, #1
 1481 00fc 03E0     		b	.L80
 1482              	.LVL236:
 1483              	.L85:
 414:Source\azure_iot_sdk\uamqp\src/cbs.c ****         }
 1484              		.loc 1 414 0
 1485 00fe CF20     		movs	r0, #207
 1486              	.LVL237:
 1487 0100 4000     		lsls	r0, r0, #1
 1488 0102 00E0     		b	.L80
 1489              	.LVL238:
 1490              	.L86:
 1491              		.loc 1 421 0
 1492 0104 0020     		movs	r0, #0
 1493              	.LVL239:
 1494              	.L80:
 422:Source\azure_iot_sdk\uamqp\src/cbs.c ****         }
 423:Source\azure_iot_sdk\uamqp\src/cbs.c ****     }
 424:Source\azure_iot_sdk\uamqp\src/cbs.c **** 
 425:Source\azure_iot_sdk\uamqp\src/cbs.c ****     return result;
 426:Source\azure_iot_sdk\uamqp\src/cbs.c **** }
 1495              		.loc 1 426 0
 1496 0106 09B0     		add	sp, sp, #36
 1497              		@ sp needed
 1498              	.LVL240:
 1499              	.LVL241:
 1500 0108 F0BD     		pop	{r4, r5, r6, r7, pc}
 1501              	.L88:
 1502 010a C046     		.align	2
 1503              	.L87:
 1504 010c 00050000 		.word	.LC73
 1505 0110 80000000 		.word	.LANCHOR1
ARM GAS  C:\Users\Phuong\AppData\Local\Temp\ccGVgD3r.s 			page 36


 1506 0114 00000000 		.word	.LC1
 1507 0118 2C050000 		.word	.LC75
 1508 011c 74050000 		.word	.LC77
 1509 0120 00000000 		.word	on_underlying_amqp_management_error
 1510 0124 00000000 		.word	on_underlying_amqp_management_open_complete
 1511 0128 90050000 		.word	.LC81
 1512 012c B8050000 		.word	.LC83
 1513              		.cfi_endproc
 1514              	.LFE7:
 1515              		.size	cbs_open_async, .-cbs_open_async
 1516              		.section	.text.cbs_close,"ax",%progbits
 1517              		.align	2
 1518              		.global	cbs_close
 1519              		.code	16
 1520              		.thumb_func
 1521              		.type	cbs_close, %function
 1522              	cbs_close:
 1523              	.LFB8:
 427:Source\azure_iot_sdk\uamqp\src/cbs.c **** 
 428:Source\azure_iot_sdk\uamqp\src/cbs.c **** int cbs_close(CBS_HANDLE cbs)
 429:Source\azure_iot_sdk\uamqp\src/cbs.c **** {
 1524              		.loc 1 429 0
 1525              		.cfi_startproc
 1526              		@ args = 0, pretend = 0, frame = 0
 1527              		@ frame_needed = 0, uses_anonymous_args = 0
 1528              	.LVL242:
 1529 0000 10B5     		push	{r4, lr}
 1530              		.cfi_def_cfa_offset 8
 1531              		.cfi_offset 4, -8
 1532              		.cfi_offset 14, -4
 1533 0002 82B0     		sub	sp, sp, #8
 1534              		.cfi_def_cfa_offset 16
 1535 0004 041E     		subs	r4, r0, #0
 430:Source\azure_iot_sdk\uamqp\src/cbs.c ****     int result;
 431:Source\azure_iot_sdk\uamqp\src/cbs.c **** 
 432:Source\azure_iot_sdk\uamqp\src/cbs.c ****     if (cbs == NULL)
 1536              		.loc 1 432 0
 1537 0006 11D1     		bne	.L90
 1538              	.LBB39:
 433:Source\azure_iot_sdk\uamqp\src/cbs.c ****     {
 434:Source\azure_iot_sdk\uamqp\src/cbs.c ****         /* Codes_SRS_CBS_01_045: [ If the argument `cbs` is NULL, `cbs_close` shall fail and return
 435:Source\azure_iot_sdk\uamqp\src/cbs.c ****         LogError("NULL cbs handle");
 1539              		.loc 1 435 0 discriminator 3
 1540 0008 FFF7FEFF 		bl	xlogging_get_log_function
 1541              	.LVL243:
 1542 000c 041E     		subs	r4, r0, #0
 1543              	.LVL244:
 1544 000e 44D0     		beq	.L95
 1545              		.loc 1 435 0 is_stmt 0 discriminator 4
 1546 0010 274B     		ldr	r3, .L98
 1547 0012 0193     		str	r3, [sp, #4]
 1548 0014 0123     		movs	r3, #1
 1549 0016 0093     		str	r3, [sp]
 1550 0018 B423     		movs	r3, #180
 1551 001a FF33     		adds	r3, r3, #255
 1552 001c 254A     		ldr	r2, .L98+4
 1553 001e 4C32     		adds	r2, r2, #76
ARM GAS  C:\Users\Phuong\AppData\Local\Temp\ccGVgD3r.s 			page 37


 1554 0020 2549     		ldr	r1, .L98+8
 1555 0022 0020     		movs	r0, #0
 1556              	.LVL245:
 1557 0024 A047     		blx	r4
 1558              	.LVL246:
 1559              	.LBE39:
 436:Source\azure_iot_sdk\uamqp\src/cbs.c ****         result = __FAILURE__;
 1560              		.loc 1 436 0 is_stmt 1 discriminator 4
 1561 0026 DA20     		movs	r0, #218
 1562 0028 4000     		lsls	r0, r0, #1
 1563 002a 3EE0     		b	.L91
 1564              	.LVL247:
 1565              	.L90:
 437:Source\azure_iot_sdk\uamqp\src/cbs.c ****     }
 438:Source\azure_iot_sdk\uamqp\src/cbs.c ****     else if (cbs->cbs_state == CBS_STATE_CLOSED)
 1566              		.loc 1 438 0
 1567 002c 0379     		ldrb	r3, [r0, #4]
 1568 002e 002B     		cmp	r3, #0
 1569 0030 11D1     		bne	.L92
 1570              	.LBB40:
 439:Source\azure_iot_sdk\uamqp\src/cbs.c ****     {
 440:Source\azure_iot_sdk\uamqp\src/cbs.c ****         /* Codes_SRS_CBS_01_047: [ `cbs_close` when closed shall fail and return a non-zero value. 
 441:Source\azure_iot_sdk\uamqp\src/cbs.c ****         /* Codes_SRS_CBS_01_048: [ `cbs_close` when not opened shall fail and return a non-zero val
 442:Source\azure_iot_sdk\uamqp\src/cbs.c ****         LogError("Already closed");
 1571              		.loc 1 442 0 discriminator 3
 1572 0032 FFF7FEFF 		bl	xlogging_get_log_function
 1573              	.LVL248:
 1574 0036 041E     		subs	r4, r0, #0
 1575              	.LVL249:
 1576 0038 32D0     		beq	.L96
 1577              		.loc 1 442 0 is_stmt 0 discriminator 4
 1578 003a 204B     		ldr	r3, .L98+12
 1579 003c 0193     		str	r3, [sp, #4]
 1580 003e 0123     		movs	r3, #1
 1581 0040 0093     		str	r3, [sp]
 1582 0042 BA33     		adds	r3, r3, #186
 1583 0044 FF33     		adds	r3, r3, #255
 1584 0046 1B4A     		ldr	r2, .L98+4
 1585 0048 4C32     		adds	r2, r2, #76
 1586 004a 1B49     		ldr	r1, .L98+8
 1587 004c 0020     		movs	r0, #0
 1588              	.LVL250:
 1589 004e A047     		blx	r4
 1590              	.LVL251:
 1591              	.LBE40:
 443:Source\azure_iot_sdk\uamqp\src/cbs.c ****         result = __FAILURE__;
 1592              		.loc 1 443 0 is_stmt 1 discriminator 4
 1593 0050 BC20     		movs	r0, #188
 1594 0052 FF30     		adds	r0, r0, #255
 1595 0054 29E0     		b	.L91
 1596              	.LVL252:
 1597              	.L92:
 444:Source\azure_iot_sdk\uamqp\src/cbs.c ****     }
 445:Source\azure_iot_sdk\uamqp\src/cbs.c ****     else
 446:Source\azure_iot_sdk\uamqp\src/cbs.c ****     {
 447:Source\azure_iot_sdk\uamqp\src/cbs.c ****         /* Codes_SRS_CBS_01_044: [ `cbs_close` shall close the CBS instance by calling `amqp_manage
 448:Source\azure_iot_sdk\uamqp\src/cbs.c ****         if (amqp_management_close(cbs->amqp_management) != 0)
ARM GAS  C:\Users\Phuong\AppData\Local\Temp\ccGVgD3r.s 			page 38


 1598              		.loc 1 448 0
 1599 0056 0068     		ldr	r0, [r0]
 1600              	.LVL253:
 1601 0058 FFF7FEFF 		bl	amqp_management_close
 1602              	.LVL254:
 1603 005c 0028     		cmp	r0, #0
 1604 005e 11D0     		beq	.L93
 1605              	.LBB41:
 449:Source\azure_iot_sdk\uamqp\src/cbs.c ****         {
 450:Source\azure_iot_sdk\uamqp\src/cbs.c ****             /* Codes_SRS_CBS_01_046: [ If `amqp_management_close` fails, `cbs_close` shall fail and
 451:Source\azure_iot_sdk\uamqp\src/cbs.c ****             LogError("Failed closing AMQP management instance");
 1606              		.loc 1 451 0 discriminator 3
 1607 0060 FFF7FEFF 		bl	xlogging_get_log_function
 1608              	.LVL255:
 1609 0064 041E     		subs	r4, r0, #0
 1610              	.LVL256:
 1611 0066 1ED0     		beq	.L97
 1612              		.loc 1 451 0 is_stmt 0 discriminator 4
 1613 0068 154B     		ldr	r3, .L98+16
 1614 006a 0193     		str	r3, [sp, #4]
 1615 006c 0123     		movs	r3, #1
 1616 006e 0093     		str	r3, [sp]
 1617 0070 C423     		movs	r3, #196
 1618 0072 FF33     		adds	r3, r3, #255
 1619 0074 0F4A     		ldr	r2, .L98+4
 1620 0076 4C32     		adds	r2, r2, #76
 1621 0078 0F49     		ldr	r1, .L98+8
 1622 007a 0020     		movs	r0, #0
 1623              	.LVL257:
 1624 007c A047     		blx	r4
 1625              	.LVL258:
 1626              	.LBE41:
 452:Source\azure_iot_sdk\uamqp\src/cbs.c ****             result = __FAILURE__;
 1627              		.loc 1 452 0 is_stmt 1 discriminator 4
 1628 007e E220     		movs	r0, #226
 1629 0080 4000     		lsls	r0, r0, #1
 1630 0082 12E0     		b	.L91
 1631              	.LVL259:
 1632              	.L93:
 453:Source\azure_iot_sdk\uamqp\src/cbs.c ****         }
 454:Source\azure_iot_sdk\uamqp\src/cbs.c ****         else
 455:Source\azure_iot_sdk\uamqp\src/cbs.c ****         {
 456:Source\azure_iot_sdk\uamqp\src/cbs.c ****             if (cbs->cbs_state == CBS_STATE_OPENING)
 1633              		.loc 1 456 0
 1634 0084 2379     		ldrb	r3, [r4, #4]
 1635 0086 012B     		cmp	r3, #1
 1636 0088 03D1     		bne	.L94
 457:Source\azure_iot_sdk\uamqp\src/cbs.c ****             {
 458:Source\azure_iot_sdk\uamqp\src/cbs.c ****                 /* Codes_SRS_CBS_01_079: [ If `cbs_close` is called while OPENING, the `on_cbs_open
 459:Source\azure_iot_sdk\uamqp\src/cbs.c ****                 cbs->on_cbs_open_complete(cbs->on_cbs_open_complete_context, CBS_OPEN_CANCELLED);
 1637              		.loc 1 459 0
 1638 008a 0221     		movs	r1, #2
 1639 008c E068     		ldr	r0, [r4, #12]
 1640 008e A368     		ldr	r3, [r4, #8]
 1641 0090 9847     		blx	r3
 1642              	.LVL260:
 1643              	.L94:
ARM GAS  C:\Users\Phuong\AppData\Local\Temp\ccGVgD3r.s 			page 39


 460:Source\azure_iot_sdk\uamqp\src/cbs.c ****             }
 461:Source\azure_iot_sdk\uamqp\src/cbs.c **** 
 462:Source\azure_iot_sdk\uamqp\src/cbs.c ****             cbs->cbs_state = CBS_STATE_CLOSED;
 1644              		.loc 1 462 0
 1645 0092 0023     		movs	r3, #0
 1646 0094 2371     		strb	r3, [r4, #4]
 1647              	.LVL261:
 463:Source\azure_iot_sdk\uamqp\src/cbs.c **** 
 464:Source\azure_iot_sdk\uamqp\src/cbs.c ****             /* Codes_SRS_CBS_01_080: [ On success, `cbs_close` shall return 0. ]*/
 465:Source\azure_iot_sdk\uamqp\src/cbs.c ****             result = 0;
 1648              		.loc 1 465 0
 1649 0096 0020     		movs	r0, #0
 1650 0098 07E0     		b	.L91
 1651              	.LVL262:
 1652              	.L95:
 436:Source\azure_iot_sdk\uamqp\src/cbs.c ****     }
 1653              		.loc 1 436 0
 1654 009a DA20     		movs	r0, #218
 1655              	.LVL263:
 1656 009c 4000     		lsls	r0, r0, #1
 1657 009e 04E0     		b	.L91
 1658              	.LVL264:
 1659              	.L96:
 443:Source\azure_iot_sdk\uamqp\src/cbs.c ****     }
 1660              		.loc 1 443 0
 1661 00a0 BC20     		movs	r0, #188
 1662              	.LVL265:
 1663 00a2 FF30     		adds	r0, r0, #255
 1664 00a4 01E0     		b	.L91
 1665              	.LVL266:
 1666              	.L97:
 452:Source\azure_iot_sdk\uamqp\src/cbs.c ****         }
 1667              		.loc 1 452 0
 1668 00a6 E220     		movs	r0, #226
 1669              	.LVL267:
 1670 00a8 4000     		lsls	r0, r0, #1
 1671              	.LVL268:
 1672              	.L91:
 466:Source\azure_iot_sdk\uamqp\src/cbs.c ****         }
 467:Source\azure_iot_sdk\uamqp\src/cbs.c ****     }
 468:Source\azure_iot_sdk\uamqp\src/cbs.c **** 
 469:Source\azure_iot_sdk\uamqp\src/cbs.c ****     return result;
 470:Source\azure_iot_sdk\uamqp\src/cbs.c **** }
 1673              		.loc 1 470 0
 1674 00aa 02B0     		add	sp, sp, #8
 1675              		@ sp needed
 1676 00ac 10BD     		pop	{r4, pc}
 1677              	.L99:
 1678 00ae C046     		.align	2
 1679              	.L98:
 1680 00b0 D4040000 		.word	.LC67
 1681 00b4 80000000 		.word	.LANCHOR1
 1682 00b8 00000000 		.word	.LC1
 1683 00bc E4050000 		.word	.LC88
 1684 00c0 F4050000 		.word	.LC90
 1685              		.cfi_endproc
 1686              	.LFE8:
ARM GAS  C:\Users\Phuong\AppData\Local\Temp\ccGVgD3r.s 			page 40


 1687              		.size	cbs_close, .-cbs_close
 1688              		.section	.text.cbs_put_token_async,"ax",%progbits
 1689              		.align	2
 1690              		.global	cbs_put_token_async
 1691              		.code	16
 1692              		.thumb_func
 1693              		.type	cbs_put_token_async, %function
 1694              	cbs_put_token_async:
 1695              	.LFB9:
 471:Source\azure_iot_sdk\uamqp\src/cbs.c **** 
 472:Source\azure_iot_sdk\uamqp\src/cbs.c **** int cbs_put_token_async(CBS_HANDLE cbs, const char* type, const char* audience, const char* token, 
 473:Source\azure_iot_sdk\uamqp\src/cbs.c **** {
 1696              		.loc 1 473 0
 1697              		.cfi_startproc
 1698              		@ args = 8, pretend = 0, frame = 8
 1699              		@ frame_needed = 0, uses_anonymous_args = 0
 1700              	.LVL269:
 1701 0000 F0B5     		push	{r4, r5, r6, r7, lr}
 1702              		.cfi_def_cfa_offset 20
 1703              		.cfi_offset 4, -20
 1704              		.cfi_offset 5, -16
 1705              		.cfi_offset 6, -12
 1706              		.cfi_offset 7, -8
 1707              		.cfi_offset 14, -4
 1708 0002 5746     		mov	r7, r10
 1709 0004 4E46     		mov	r6, r9
 1710 0006 C0B4     		push	{r6, r7}
 1711              		.cfi_def_cfa_offset 28
 1712              		.cfi_offset 9, -28
 1713              		.cfi_offset 10, -24
 1714 0008 8BB0     		sub	sp, sp, #44
 1715              		.cfi_def_cfa_offset 72
 1716 000a 0400     		movs	r4, r0
 1717 000c 0F00     		movs	r7, r1
 1718 000e 9146     		mov	r9, r2
 1719 0010 1E00     		movs	r6, r3
 474:Source\azure_iot_sdk\uamqp\src/cbs.c ****     int result;
 475:Source\azure_iot_sdk\uamqp\src/cbs.c **** 
 476:Source\azure_iot_sdk\uamqp\src/cbs.c ****     /* Codes_SRS_CBS_01_083: [ `on_cbs_put_token_complete_context` shall be allowed to be NULL. ]*/
 477:Source\azure_iot_sdk\uamqp\src/cbs.c ****     if ((cbs == NULL) ||
 1720              		.loc 1 477 0
 1721 0012 0028     		cmp	r0, #0
 1722 0014 08D0     		beq	.L101
 1723              		.loc 1 477 0 is_stmt 0 discriminator 1
 1724 0016 0029     		cmp	r1, #0
 1725 0018 06D0     		beq	.L101
 478:Source\azure_iot_sdk\uamqp\src/cbs.c ****         (type == NULL) ||
 1726              		.loc 1 478 0 is_stmt 1
 1727 001a 002A     		cmp	r2, #0
 1728 001c 04D0     		beq	.L101
 479:Source\azure_iot_sdk\uamqp\src/cbs.c ****         (audience == NULL) ||
 1729              		.loc 1 479 0
 1730 001e 002E     		cmp	r6, #0
 1731 0020 02D0     		beq	.L101
 480:Source\azure_iot_sdk\uamqp\src/cbs.c ****         (token == NULL) ||
 1732              		.loc 1 480 0
 1733 0022 129B     		ldr	r3, [sp, #72]
ARM GAS  C:\Users\Phuong\AppData\Local\Temp\ccGVgD3r.s 			page 41


 1734              	.LVL270:
 1735 0024 002B     		cmp	r3, #0
 1736 0026 19D1     		bne	.L102
 1737              	.L101:
 1738              	.LBB42:
 481:Source\azure_iot_sdk\uamqp\src/cbs.c ****         (on_cbs_put_token_complete == NULL))
 482:Source\azure_iot_sdk\uamqp\src/cbs.c ****     {
 483:Source\azure_iot_sdk\uamqp\src/cbs.c ****         /* Codes_SRS_CBS_01_050: [ If any of the arguments `cbs`, `type`, `audience`, `token` or `o
 484:Source\azure_iot_sdk\uamqp\src/cbs.c ****         LogError("Bad arguments: cbs = %p, type = %p, audience = %p, token = %p, on_cbs_put_token_c
 1739              		.loc 1 484 0 discriminator 3
 1740 0028 FFF7FEFF 		bl	xlogging_get_log_function
 1741              	.LVL271:
 1742 002c 051E     		subs	r5, r0, #0
 1743              	.LVL272:
 1744 002e 00D1     		bne	.LCB1902
 1745 0030 1FE1     		b	.L116	@long jump
 1746              	.LCB1902:
 1747              		.loc 1 484 0 is_stmt 0 discriminator 4
 1748 0032 129B     		ldr	r3, [sp, #72]
 1749 0034 0693     		str	r3, [sp, #24]
 1750 0036 0596     		str	r6, [sp, #20]
 1751 0038 4B46     		mov	r3, r9
 1752 003a 0493     		str	r3, [sp, #16]
 1753 003c 0397     		str	r7, [sp, #12]
 1754 003e 0294     		str	r4, [sp, #8]
 1755 0040 934B     		ldr	r3, .L128
 1756 0042 0193     		str	r3, [sp, #4]
 1757 0044 0123     		movs	r3, #1
 1758 0046 0093     		str	r3, [sp]
 1759 0048 E623     		movs	r3, #230
 1760 004a FF33     		adds	r3, r3, #255
 1761 004c 914A     		ldr	r2, .L128+4
 1762 004e 5832     		adds	r2, r2, #88
 1763 0050 9149     		ldr	r1, .L128+8
 1764 0052 0020     		movs	r0, #0
 1765              	.LVL273:
 1766 0054 A847     		blx	r5
 1767              	.LVL274:
 1768              	.LBE42:
 485:Source\azure_iot_sdk\uamqp\src/cbs.c ****             cbs, type, audience, token, on_cbs_put_token_complete);
 486:Source\azure_iot_sdk\uamqp\src/cbs.c ****         result = __FAILURE__;
 1769              		.loc 1 486 0 is_stmt 1 discriminator 4
 1770 0056 F324     		movs	r4, #243
 1771              	.LVL275:
 1772 0058 6400     		lsls	r4, r4, #1
 1773 005a 12E1     		b	.L103
 1774              	.LVL276:
 1775              	.L102:
 487:Source\azure_iot_sdk\uamqp\src/cbs.c ****     }
 488:Source\azure_iot_sdk\uamqp\src/cbs.c ****     else if ((cbs->cbs_state == CBS_STATE_CLOSED) ||
 1776              		.loc 1 488 0
 1777 005c 0379     		ldrb	r3, [r0, #4]
 1778 005e 002B     		cmp	r3, #0
 1779 0060 01D0     		beq	.L104
 1780              		.loc 1 488 0 is_stmt 0 discriminator 1
 1781 0062 032B     		cmp	r3, #3
 1782 0064 12D1     		bne	.L105
ARM GAS  C:\Users\Phuong\AppData\Local\Temp\ccGVgD3r.s 			page 42


 1783              	.L104:
 1784              	.LBB43:
 489:Source\azure_iot_sdk\uamqp\src/cbs.c ****         (cbs->cbs_state == CBS_STATE_ERROR))
 490:Source\azure_iot_sdk\uamqp\src/cbs.c ****     {
 491:Source\azure_iot_sdk\uamqp\src/cbs.c ****         /* Codes_SRS_CBS_01_058: [ If `cbs_put_token_async` is called when the CBS instance is not 
 492:Source\azure_iot_sdk\uamqp\src/cbs.c ****         LogError("put token called while closed or in error");
 1785              		.loc 1 492 0 is_stmt 1 discriminator 3
 1786 0066 FFF7FEFF 		bl	xlogging_get_log_function
 1787              	.LVL277:
 1788 006a 041E     		subs	r4, r0, #0
 1789              	.LVL278:
 1790 006c 00D1     		bne	.LCB1954
 1791 006e 03E1     		b	.L117	@long jump
 1792              	.LCB1954:
 1793              		.loc 1 492 0 is_stmt 0 discriminator 4
 1794 0070 8A4B     		ldr	r3, .L128+12
 1795 0072 0193     		str	r3, [sp, #4]
 1796 0074 0123     		movs	r3, #1
 1797 0076 0093     		str	r3, [sp]
 1798 0078 EC33     		adds	r3, r3, #236
 1799 007a FF33     		adds	r3, r3, #255
 1800 007c 854A     		ldr	r2, .L128+4
 1801 007e 5832     		adds	r2, r2, #88
 1802 0080 8549     		ldr	r1, .L128+8
 1803 0082 0020     		movs	r0, #0
 1804              	.LVL279:
 1805 0084 A047     		blx	r4
 1806              	.LVL280:
 1807              	.LBE43:
 493:Source\azure_iot_sdk\uamqp\src/cbs.c ****         result = __FAILURE__;
 1808              		.loc 1 493 0 is_stmt 1 discriminator 4
 1809 0086 EE24     		movs	r4, #238
 1810              	.LVL281:
 1811 0088 FF34     		adds	r4, r4, #255
 1812 008a FAE0     		b	.L103
 1813              	.LVL282:
 1814              	.L105:
 1815              	.LBB44:
 494:Source\azure_iot_sdk\uamqp\src/cbs.c ****     }
 495:Source\azure_iot_sdk\uamqp\src/cbs.c ****     else
 496:Source\azure_iot_sdk\uamqp\src/cbs.c ****     {
 497:Source\azure_iot_sdk\uamqp\src/cbs.c ****         /* Codes_SRS_CBS_01_049: [ `cbs_put_token_async` shall construct a request message for the 
 498:Source\azure_iot_sdk\uamqp\src/cbs.c ****         MESSAGE_HANDLE message = message_create();
 1816              		.loc 1 498 0
 1817 008c FFF7FEFF 		bl	message_create
 1818              	.LVL283:
 1819 0090 051E     		subs	r5, r0, #0
 1820              	.LVL284:
 499:Source\azure_iot_sdk\uamqp\src/cbs.c ****         if (message == NULL)
 1821              		.loc 1 499 0
 1822 0092 12D1     		bne	.L106
 1823              	.LBB45:
 500:Source\azure_iot_sdk\uamqp\src/cbs.c ****         {
 501:Source\azure_iot_sdk\uamqp\src/cbs.c ****             /* Codes_SRS_CBS_01_072: [ If constructing the message fails, `cbs_put_token_async` sha
 502:Source\azure_iot_sdk\uamqp\src/cbs.c ****             LogError("message_create failed");
 1824              		.loc 1 502 0 discriminator 3
 1825 0094 FFF7FEFF 		bl	xlogging_get_log_function
ARM GAS  C:\Users\Phuong\AppData\Local\Temp\ccGVgD3r.s 			page 43


 1826              	.LVL285:
 1827 0098 041E     		subs	r4, r0, #0
 1828              	.LVL286:
 1829 009a 00D1     		bne	.LCB2000
 1830 009c EFE0     		b	.L118	@long jump
 1831              	.LCB2000:
 1832              		.loc 1 502 0 is_stmt 0 discriminator 4
 1833 009e 804B     		ldr	r3, .L128+16
 1834 00a0 0193     		str	r3, [sp, #4]
 1835 00a2 0123     		movs	r3, #1
 1836 00a4 0093     		str	r3, [sp]
 1837 00a6 F633     		adds	r3, r3, #246
 1838 00a8 FF33     		adds	r3, r3, #255
 1839 00aa 7A4A     		ldr	r2, .L128+4
 1840 00ac 5832     		adds	r2, r2, #88
 1841 00ae 7A49     		ldr	r1, .L128+8
 1842 00b0 0020     		movs	r0, #0
 1843              	.LVL287:
 1844 00b2 A047     		blx	r4
 1845              	.LVL288:
 1846              	.LBE45:
 503:Source\azure_iot_sdk\uamqp\src/cbs.c ****             result = __FAILURE__;
 1847              		.loc 1 503 0 is_stmt 1 discriminator 4
 1848 00b4 F824     		movs	r4, #248
 1849              	.LVL289:
 1850 00b6 FF34     		adds	r4, r4, #255
 1851 00b8 E3E0     		b	.L103
 1852              	.LVL290:
 1853              	.L106:
 1854              	.LBB46:
 504:Source\azure_iot_sdk\uamqp\src/cbs.c ****         }
 505:Source\azure_iot_sdk\uamqp\src/cbs.c ****         else
 506:Source\azure_iot_sdk\uamqp\src/cbs.c ****         {
 507:Source\azure_iot_sdk\uamqp\src/cbs.c ****             AMQP_VALUE token_value = amqpvalue_create_string(token);
 1855              		.loc 1 507 0
 1856 00ba 3000     		movs	r0, r6
 1857              	.LVL291:
 1858 00bc FFF7FEFF 		bl	amqpvalue_create_string
 1859              	.LVL292:
 1860 00c0 061E     		subs	r6, r0, #0
 1861              	.LVL293:
 508:Source\azure_iot_sdk\uamqp\src/cbs.c ****             if (token_value == NULL)
 1862              		.loc 1 508 0
 1863 00c2 11D1     		bne	.L107
 1864              	.LBB47:
 509:Source\azure_iot_sdk\uamqp\src/cbs.c ****             {
 510:Source\azure_iot_sdk\uamqp\src/cbs.c ****                 /* Codes_SRS_CBS_01_072: [ If constructing the message fails, `cbs_put_token_async`
 511:Source\azure_iot_sdk\uamqp\src/cbs.c ****                 LogError("Failed creating token AMQP value");
 1865              		.loc 1 511 0 discriminator 3
 1866 00c4 FFF7FEFF 		bl	xlogging_get_log_function
 1867              	.LVL294:
 1868 00c8 041E     		subs	r4, r0, #0
 1869              	.LVL295:
 1870 00ca 00D1     		bne	.LCB2043
 1871 00cc C9E0     		b	.L119	@long jump
 1872              	.LCB2043:
 1873              		.loc 1 511 0 is_stmt 0 discriminator 4
ARM GAS  C:\Users\Phuong\AppData\Local\Temp\ccGVgD3r.s 			page 44


 1874 00ce 754B     		ldr	r3, .L128+20
 1875 00d0 0193     		str	r3, [sp, #4]
 1876 00d2 0123     		movs	r3, #1
 1877 00d4 0093     		str	r3, [sp]
 1878 00d6 744B     		ldr	r3, .L128+24
 1879 00d8 6E4A     		ldr	r2, .L128+4
 1880 00da 5832     		adds	r2, r2, #88
 1881 00dc 6E49     		ldr	r1, .L128+8
 1882 00de 0020     		movs	r0, #0
 1883              	.LVL296:
 1884 00e0 A047     		blx	r4
 1885              	.LVL297:
 1886              	.LBE47:
 512:Source\azure_iot_sdk\uamqp\src/cbs.c ****                 result = __FAILURE__;
 1887              		.loc 1 512 0 is_stmt 1 discriminator 4
 1888 00e2 8024     		movs	r4, #128
 1889              	.LVL298:
 1890 00e4 A400     		lsls	r4, r4, #2
 1891 00e6 C0E0     		b	.L108
 1892              	.LVL299:
 1893              	.L107:
 513:Source\azure_iot_sdk\uamqp\src/cbs.c ****             }
 514:Source\azure_iot_sdk\uamqp\src/cbs.c ****             else
 515:Source\azure_iot_sdk\uamqp\src/cbs.c ****             {
 516:Source\azure_iot_sdk\uamqp\src/cbs.c ****                 /* Codes_SRS_CBS_01_009: [ The body of the message MUST contain the token. ]*/
 517:Source\azure_iot_sdk\uamqp\src/cbs.c ****                 if (message_set_body_amqp_value(message, token_value) != 0)
 1894              		.loc 1 517 0
 1895 00e8 0100     		movs	r1, r0
 1896 00ea 2800     		movs	r0, r5
 1897              	.LVL300:
 1898 00ec FFF7FEFF 		bl	message_set_body_amqp_value
 1899              	.LVL301:
 1900 00f0 0028     		cmp	r0, #0
 1901 00f2 11D0     		beq	.L109
 1902              	.LBB48:
 518:Source\azure_iot_sdk\uamqp\src/cbs.c ****                 {
 519:Source\azure_iot_sdk\uamqp\src/cbs.c ****                     /* Codes_SRS_CBS_01_072: [ If constructing the message fails, `cbs_put_token_as
 520:Source\azure_iot_sdk\uamqp\src/cbs.c ****                     LogError("Failed setting the token in the message body");
 1903              		.loc 1 520 0 discriminator 3
 1904 00f4 FFF7FEFF 		bl	xlogging_get_log_function
 1905              	.LVL302:
 1906 00f8 041E     		subs	r4, r0, #0
 1907              	.LVL303:
 1908 00fa 00D1     		bne	.LCB2081
 1909 00fc B4E0     		b	.L120	@long jump
 1910              	.LCB2081:
 1911              		.loc 1 520 0 is_stmt 0 discriminator 4
 1912 00fe 6B4B     		ldr	r3, .L128+28
 1913 0100 0193     		str	r3, [sp, #4]
 1914 0102 0123     		movs	r3, #1
 1915 0104 0093     		str	r3, [sp]
 1916 0106 8223     		movs	r3, #130
 1917 0108 9B00     		lsls	r3, r3, #2
 1918 010a 624A     		ldr	r2, .L128+4
 1919 010c 5832     		adds	r2, r2, #88
 1920 010e 6249     		ldr	r1, .L128+8
 1921 0110 0020     		movs	r0, #0
ARM GAS  C:\Users\Phuong\AppData\Local\Temp\ccGVgD3r.s 			page 45


 1922              	.LVL304:
 1923 0112 A047     		blx	r4
 1924              	.LVL305:
 1925              	.LBE48:
 521:Source\azure_iot_sdk\uamqp\src/cbs.c ****                     result = __FAILURE__;
 1926              		.loc 1 521 0 is_stmt 1 discriminator 4
 1927 0114 664C     		ldr	r4, .L128+32
 1928              	.LVL306:
 1929 0116 A8E0     		b	.L108
 1930              	.LVL307:
 1931              	.L109:
 1932              	.LBB49:
 522:Source\azure_iot_sdk\uamqp\src/cbs.c ****                 }
 523:Source\azure_iot_sdk\uamqp\src/cbs.c ****                 else
 524:Source\azure_iot_sdk\uamqp\src/cbs.c ****                 {
 525:Source\azure_iot_sdk\uamqp\src/cbs.c ****                     AMQP_VALUE application_properties = amqpvalue_create_map();
 1933              		.loc 1 525 0
 1934 0118 FFF7FEFF 		bl	amqpvalue_create_map
 1935              	.LVL308:
 1936 011c 0990     		str	r0, [sp, #36]
 1937              	.LVL309:
 526:Source\azure_iot_sdk\uamqp\src/cbs.c ****                     if (application_properties == NULL)
 1938              		.loc 1 526 0
 1939 011e 0028     		cmp	r0, #0
 1940 0120 10D1     		bne	.L110
 1941              	.LBB50:
 527:Source\azure_iot_sdk\uamqp\src/cbs.c ****                     {
 528:Source\azure_iot_sdk\uamqp\src/cbs.c ****                         /* Codes_SRS_CBS_01_072: [ If constructing the message fails, `cbs_put_toke
 529:Source\azure_iot_sdk\uamqp\src/cbs.c ****                         LogError("Failed creating application properties map");
 1942              		.loc 1 529 0 discriminator 3
 1943 0122 FFF7FEFF 		bl	xlogging_get_log_function
 1944              	.LVL310:
 1945 0126 041E     		subs	r4, r0, #0
 1946              	.LVL311:
 1947 0128 00D1     		bne	.LCB2119
 1948 012a 95E0     		b	.L121	@long jump
 1949              	.LCB2119:
 1950              		.loc 1 529 0 is_stmt 0 discriminator 4
 1951 012c 614B     		ldr	r3, .L128+36
 1952 012e 0193     		str	r3, [sp, #4]
 1953 0130 0123     		movs	r3, #1
 1954 0132 0093     		str	r3, [sp]
 1955 0134 604B     		ldr	r3, .L128+40
 1956 0136 574A     		ldr	r2, .L128+4
 1957 0138 5832     		adds	r2, r2, #88
 1958 013a 5749     		ldr	r1, .L128+8
 1959 013c 0020     		movs	r0, #0
 1960              	.LVL312:
 1961 013e A047     		blx	r4
 1962              	.LVL313:
 1963              	.LBE50:
 530:Source\azure_iot_sdk\uamqp\src/cbs.c ****                         result = __FAILURE__;
 1964              		.loc 1 530 0 is_stmt 1 discriminator 4
 1965 0140 5E4C     		ldr	r4, .L128+44
 1966              	.LVL314:
 1967 0142 8AE0     		b	.L111
 1968              	.LVL315:
ARM GAS  C:\Users\Phuong\AppData\Local\Temp\ccGVgD3r.s 			page 46


 1969              	.L110:
 531:Source\azure_iot_sdk\uamqp\src/cbs.c ****                     }
 532:Source\azure_iot_sdk\uamqp\src/cbs.c ****                     else
 533:Source\azure_iot_sdk\uamqp\src/cbs.c ****                     {
 534:Source\azure_iot_sdk\uamqp\src/cbs.c ****                         if (add_string_key_value_pair_to_map(application_properties, "name", audien
 1970              		.loc 1 534 0
 1971 0144 4A46     		mov	r2, r9
 1972 0146 5E49     		ldr	r1, .L128+48
 1973 0148 0998     		ldr	r0, [sp, #36]
 1974              	.LVL316:
 1975 014a FFF7FEFF 		bl	add_string_key_value_pair_to_map
 1976              	.LVL317:
 1977 014e 0028     		cmp	r0, #0
 1978 0150 70D1     		bne	.L122
 535:Source\azure_iot_sdk\uamqp\src/cbs.c ****                         {
 536:Source\azure_iot_sdk\uamqp\src/cbs.c ****                             result = __FAILURE__;
 537:Source\azure_iot_sdk\uamqp\src/cbs.c ****                         }
 538:Source\azure_iot_sdk\uamqp\src/cbs.c ****                         else
 539:Source\azure_iot_sdk\uamqp\src/cbs.c ****                         {
 540:Source\azure_iot_sdk\uamqp\src/cbs.c ****                             if (message_set_application_properties(message, application_properties)
 1979              		.loc 1 540 0
 1980 0152 0999     		ldr	r1, [sp, #36]
 1981 0154 2800     		movs	r0, r5
 1982 0156 FFF7FEFF 		bl	message_set_application_properties
 1983              	.LVL318:
 1984 015a 0028     		cmp	r0, #0
 1985 015c 10D0     		beq	.L113
 1986              	.LBB51:
 541:Source\azure_iot_sdk\uamqp\src/cbs.c ****                             {
 542:Source\azure_iot_sdk\uamqp\src/cbs.c ****                                 /* Codes_SRS_CBS_01_072: [ If constructing the message fails, `cbs_
 543:Source\azure_iot_sdk\uamqp\src/cbs.c ****                                 LogError("Failed setting message application properties");
 1987              		.loc 1 543 0 discriminator 3
 1988 015e FFF7FEFF 		bl	xlogging_get_log_function
 1989              	.LVL319:
 1990 0162 041E     		subs	r4, r0, #0
 1991              	.LVL320:
 1992 0164 69D0     		beq	.L123
 1993              		.loc 1 543 0 is_stmt 0 discriminator 4
 1994 0166 574B     		ldr	r3, .L128+52
 1995 0168 0193     		str	r3, [sp, #4]
 1996 016a 0123     		movs	r3, #1
 1997 016c 0093     		str	r3, [sp]
 1998 016e 564B     		ldr	r3, .L128+56
 1999 0170 484A     		ldr	r2, .L128+4
 2000 0172 5832     		adds	r2, r2, #88
 2001 0174 4849     		ldr	r1, .L128+8
 2002 0176 0020     		movs	r0, #0
 2003              	.LVL321:
 2004 0178 A047     		blx	r4
 2005              	.LVL322:
 2006              	.LBE51:
 544:Source\azure_iot_sdk\uamqp\src/cbs.c ****                                 result = __FAILURE__;
 2007              		.loc 1 544 0 is_stmt 1 discriminator 4
 2008 017a 8824     		movs	r4, #136
 2009              	.LVL323:
 2010 017c A400     		lsls	r4, r4, #2
 2011 017e 67E0     		b	.L112
ARM GAS  C:\Users\Phuong\AppData\Local\Temp\ccGVgD3r.s 			page 47


 2012              	.LVL324:
 2013              	.L113:
 2014              	.LBB52:
 545:Source\azure_iot_sdk\uamqp\src/cbs.c ****                             }
 546:Source\azure_iot_sdk\uamqp\src/cbs.c ****                             else
 547:Source\azure_iot_sdk\uamqp\src/cbs.c ****                             {
 548:Source\azure_iot_sdk\uamqp\src/cbs.c ****                                 CBS_OPERATION* cbs_operation = (CBS_OPERATION*)malloc(sizeof(CBS_OP
 2015              		.loc 1 548 0
 2016 0180 0C20     		movs	r0, #12
 2017 0182 FFF7FEFF 		bl	malloc
 2018              	.LVL325:
 2019 0186 8146     		mov	r9, r0
 2020              	.LVL326:
 549:Source\azure_iot_sdk\uamqp\src/cbs.c ****                                 if (cbs_operation == NULL)
 2021              		.loc 1 549 0
 2022 0188 0028     		cmp	r0, #0
 2023 018a 10D1     		bne	.L114
 2024              	.LBB53:
 550:Source\azure_iot_sdk\uamqp\src/cbs.c ****                                 {
 551:Source\azure_iot_sdk\uamqp\src/cbs.c ****                                     LogError("Failed allocating CBS operation instance");
 2025              		.loc 1 551 0 discriminator 3
 2026 018c FFF7FEFF 		bl	xlogging_get_log_function
 2027              	.LVL327:
 2028 0190 041E     		subs	r4, r0, #0
 2029              	.LVL328:
 2030 0192 55D0     		beq	.L124
 2031              		.loc 1 551 0 is_stmt 0 discriminator 4
 2032 0194 4D4B     		ldr	r3, .L128+60
 2033 0196 0193     		str	r3, [sp, #4]
 2034 0198 0123     		movs	r3, #1
 2035 019a 0093     		str	r3, [sp]
 2036 019c 4C4B     		ldr	r3, .L128+64
 2037 019e 3D4A     		ldr	r2, .L128+4
 2038 01a0 5832     		adds	r2, r2, #88
 2039 01a2 3D49     		ldr	r1, .L128+8
 2040 01a4 0020     		movs	r0, #0
 2041              	.LVL329:
 2042 01a6 A047     		blx	r4
 2043              	.LVL330:
 2044              	.LBE53:
 552:Source\azure_iot_sdk\uamqp\src/cbs.c ****                                     result = __FAILURE__;
 2045              		.loc 1 552 0 is_stmt 1 discriminator 4
 2046 01a8 8A24     		movs	r4, #138
 2047              	.LVL331:
 2048 01aa A400     		lsls	r4, r4, #2
 2049 01ac 50E0     		b	.L112
 2050              	.LVL332:
 2051              	.L114:
 2052              	.LBB54:
 553:Source\azure_iot_sdk\uamqp\src/cbs.c ****                                 }
 554:Source\azure_iot_sdk\uamqp\src/cbs.c ****                                 else
 555:Source\azure_iot_sdk\uamqp\src/cbs.c ****                                 {
 556:Source\azure_iot_sdk\uamqp\src/cbs.c ****                                     LIST_ITEM_HANDLE list_item;
 557:Source\azure_iot_sdk\uamqp\src/cbs.c **** 
 558:Source\azure_iot_sdk\uamqp\src/cbs.c ****                                     cbs_operation->on_cbs_operation_complete = on_cbs_put_token_com
 2053              		.loc 1 558 0
 2054 01ae 129A     		ldr	r2, [sp, #72]
ARM GAS  C:\Users\Phuong\AppData\Local\Temp\ccGVgD3r.s 			page 48


 2055 01b0 0260     		str	r2, [r0]
 559:Source\azure_iot_sdk\uamqp\src/cbs.c ****                                     cbs_operation->on_cbs_operation_complete_context = on_cbs_put_t
 2056              		.loc 1 559 0
 2057 01b2 139A     		ldr	r2, [sp, #76]
 2058 01b4 4260     		str	r2, [r0, #4]
 560:Source\azure_iot_sdk\uamqp\src/cbs.c ****                                     cbs_operation->pending_operations = cbs->pending_operations;
 2059              		.loc 1 560 0
 2060 01b6 A269     		ldr	r2, [r4, #24]
 2061 01b8 8260     		str	r2, [r0, #8]
 561:Source\azure_iot_sdk\uamqp\src/cbs.c **** 
 562:Source\azure_iot_sdk\uamqp\src/cbs.c ****                                     list_item = singlylinkedlist_add(cbs->pending_operations, cbs_o
 2062              		.loc 1 562 0
 2063 01ba 0100     		movs	r1, r0
 2064 01bc A069     		ldr	r0, [r4, #24]
 2065              	.LVL333:
 2066 01be FFF7FEFF 		bl	singlylinkedlist_add
 2067              	.LVL334:
 2068 01c2 8246     		mov	r10, r0
 2069              	.LVL335:
 563:Source\azure_iot_sdk\uamqp\src/cbs.c ****                                     if (list_item == NULL)
 2070              		.loc 1 563 0
 2071 01c4 0028     		cmp	r0, #0
 2072 01c6 12D1     		bne	.L115
 564:Source\azure_iot_sdk\uamqp\src/cbs.c ****                                     {
 565:Source\azure_iot_sdk\uamqp\src/cbs.c ****                                         free(cbs_operation);
 2073              		.loc 1 565 0
 2074 01c8 4846     		mov	r0, r9
 2075              	.LVL336:
 2076 01ca FFF7FEFF 		bl	free
 2077              	.LVL337:
 2078              	.LBB55:
 566:Source\azure_iot_sdk\uamqp\src/cbs.c ****                                         LogError("Failed adding pending operation to list");
 2079              		.loc 1 566 0
 2080 01ce FFF7FEFF 		bl	xlogging_get_log_function
 2081              	.LVL338:
 2082 01d2 041E     		subs	r4, r0, #0
 2083              	.LVL339:
 2084 01d4 37D0     		beq	.L125
 2085              		.loc 1 566 0 is_stmt 0 discriminator 4
 2086 01d6 3F4B     		ldr	r3, .L128+68
 2087 01d8 0193     		str	r3, [sp, #4]
 2088 01da 0123     		movs	r3, #1
 2089 01dc 0093     		str	r3, [sp]
 2090 01de 3E4B     		ldr	r3, .L128+72
 2091 01e0 2C4A     		ldr	r2, .L128+4
 2092 01e2 5832     		adds	r2, r2, #88
 2093 01e4 2C49     		ldr	r1, .L128+8
 2094 01e6 0020     		movs	r0, #0
 2095              	.LVL340:
 2096 01e8 A047     		blx	r4
 2097              	.LVL341:
 2098              	.LBE55:
 567:Source\azure_iot_sdk\uamqp\src/cbs.c ****                                         result = __FAILURE__;
 2099              		.loc 1 567 0 is_stmt 1 discriminator 4
 2100 01ea 3C4C     		ldr	r4, .L128+76
 2101              	.LVL342:
 2102 01ec 30E0     		b	.L112
ARM GAS  C:\Users\Phuong\AppData\Local\Temp\ccGVgD3r.s 			page 49


 2103              	.LVL343:
 2104              	.L115:
 568:Source\azure_iot_sdk\uamqp\src/cbs.c ****                                     }
 569:Source\azure_iot_sdk\uamqp\src/cbs.c ****                                     else
 570:Source\azure_iot_sdk\uamqp\src/cbs.c ****                                     {
 571:Source\azure_iot_sdk\uamqp\src/cbs.c ****                                         /* Codes_SRS_CBS_01_051: [ `cbs_put_token_async` shall star
 572:Source\azure_iot_sdk\uamqp\src/cbs.c ****                                         /* Codes_SRS_CBS_01_052: [ The `amqp_management` argument s
 573:Source\azure_iot_sdk\uamqp\src/cbs.c ****                                         /* Codes_SRS_CBS_01_053: [ The `operation` argument shall b
 574:Source\azure_iot_sdk\uamqp\src/cbs.c ****                                         /* Codes_SRS_CBS_01_054: [ The `type` argument shall be set
 575:Source\azure_iot_sdk\uamqp\src/cbs.c ****                                         /* Codes_SRS_CBS_01_055: [ The `locales` argument shall be 
 576:Source\azure_iot_sdk\uamqp\src/cbs.c ****                                         /* Codes_SRS_CBS_01_056: [ The `message` argument shall be 
 577:Source\azure_iot_sdk\uamqp\src/cbs.c ****                                         /* Codes_SRS_CBS_01_057: [ The arguments `on_execute_operat
 578:Source\azure_iot_sdk\uamqp\src/cbs.c ****                                         /* Codes_SRS_CBS_01_005: [ operation    No    string    "pu
 579:Source\azure_iot_sdk\uamqp\src/cbs.c ****                                         /* Codes_SRS_CBS_01_006: [ Type    No    string    The type
 580:Source\azure_iot_sdk\uamqp\src/cbs.c ****                                         /* Codes_SRS_CBS_01_007: [ name    No    string    The "aud
 581:Source\azure_iot_sdk\uamqp\src/cbs.c ****                                         if (amqp_management_execute_operation_async(cbs->amqp_manag
 2105              		.loc 1 581 0
 2106 01ee 0290     		str	r0, [sp, #8]
 2107 01f0 3B4B     		ldr	r3, .L128+80
 2108 01f2 0193     		str	r3, [sp, #4]
 2109 01f4 0095     		str	r5, [sp]
 2110 01f6 0023     		movs	r3, #0
 2111 01f8 3A00     		movs	r2, r7
 2112 01fa 3A49     		ldr	r1, .L128+84
 2113 01fc 2068     		ldr	r0, [r4]
 2114              	.LVL344:
 2115 01fe FFF7FEFF 		bl	amqp_management_execute_operation_async
 2116              	.LVL345:
 2117 0202 0028     		cmp	r0, #0
 2118 0204 21D0     		beq	.L126
 582:Source\azure_iot_sdk\uamqp\src/cbs.c ****                                         {
 583:Source\azure_iot_sdk\uamqp\src/cbs.c ****                                             singlylinkedlist_remove(cbs->pending_operations, list_i
 2119              		.loc 1 583 0
 2120 0206 A069     		ldr	r0, [r4, #24]
 2121 0208 5146     		mov	r1, r10
 2122 020a FFF7FEFF 		bl	singlylinkedlist_remove
 2123              	.LVL346:
 584:Source\azure_iot_sdk\uamqp\src/cbs.c ****                                             free(cbs_operation);
 2124              		.loc 1 584 0
 2125 020e 4846     		mov	r0, r9
 2126 0210 FFF7FEFF 		bl	free
 2127              	.LVL347:
 2128              	.LBB56:
 585:Source\azure_iot_sdk\uamqp\src/cbs.c ****                                             /* Codes_SRS_CBS_01_084: [ If `amqp_management_execute_
 586:Source\azure_iot_sdk\uamqp\src/cbs.c ****                                             LogError("Failed starting AMQP management operation");
 2129              		.loc 1 586 0
 2130 0214 FFF7FEFF 		bl	xlogging_get_log_function
 2131              	.LVL348:
 2132 0218 041E     		subs	r4, r0, #0
 2133              	.LVL349:
 2134 021a 18D0     		beq	.L127
 2135              		.loc 1 586 0 is_stmt 0 discriminator 4
 2136 021c 324B     		ldr	r3, .L128+88
 2137 021e 0193     		str	r3, [sp, #4]
 2138 0220 0123     		movs	r3, #1
 2139 0222 0093     		str	r3, [sp]
 2140 0224 314B     		ldr	r3, .L128+92
ARM GAS  C:\Users\Phuong\AppData\Local\Temp\ccGVgD3r.s 			page 50


 2141 0226 1B4A     		ldr	r2, .L128+4
 2142 0228 5832     		adds	r2, r2, #88
 2143 022a 1B49     		ldr	r1, .L128+8
 2144 022c 0020     		movs	r0, #0
 2145              	.LVL350:
 2146 022e A047     		blx	r4
 2147              	.LVL351:
 2148              	.LBE56:
 587:Source\azure_iot_sdk\uamqp\src/cbs.c ****                                             result = __FAILURE__;
 2149              		.loc 1 587 0 is_stmt 1 discriminator 4
 2150 0230 2F4C     		ldr	r4, .L128+96
 2151              	.LVL352:
 2152 0232 0DE0     		b	.L112
 2153              	.LVL353:
 2154              	.L122:
 2155              	.LBE54:
 2156              	.LBE52:
 536:Source\azure_iot_sdk\uamqp\src/cbs.c ****                         }
 2157              		.loc 1 536 0
 2158 0234 8624     		movs	r4, #134
 2159              	.LVL354:
 2160 0236 A400     		lsls	r4, r4, #2
 2161 0238 0AE0     		b	.L112
 2162              	.LVL355:
 2163              	.L123:
 544:Source\azure_iot_sdk\uamqp\src/cbs.c ****                             }
 2164              		.loc 1 544 0
 2165 023a 8824     		movs	r4, #136
 2166 023c A400     		lsls	r4, r4, #2
 2167 023e 07E0     		b	.L112
 2168              	.LVL356:
 2169              	.L124:
 2170              	.LBB58:
 552:Source\azure_iot_sdk\uamqp\src/cbs.c ****                                 }
 2171              		.loc 1 552 0
 2172 0240 8A24     		movs	r4, #138
 2173 0242 A400     		lsls	r4, r4, #2
 2174 0244 04E0     		b	.L112
 2175              	.LVL357:
 2176              	.L125:
 2177              	.LBB57:
 567:Source\azure_iot_sdk\uamqp\src/cbs.c ****                                     }
 2178              		.loc 1 567 0
 2179 0246 254C     		ldr	r4, .L128+76
 2180 0248 02E0     		b	.L112
 2181              	.LVL358:
 2182              	.L126:
 588:Source\azure_iot_sdk\uamqp\src/cbs.c ****                                         }
 589:Source\azure_iot_sdk\uamqp\src/cbs.c ****                                         else
 590:Source\azure_iot_sdk\uamqp\src/cbs.c ****                                         {
 591:Source\azure_iot_sdk\uamqp\src/cbs.c ****                                             /* Codes_SRS_CBS_01_081: [ On success `cbs_put_token_as
 592:Source\azure_iot_sdk\uamqp\src/cbs.c ****                                             result = 0;
 2183              		.loc 1 592 0
 2184 024a 0024     		movs	r4, #0
 2185              	.LVL359:
 2186 024c 00E0     		b	.L112
 2187              	.LVL360:
ARM GAS  C:\Users\Phuong\AppData\Local\Temp\ccGVgD3r.s 			page 51


 2188              	.L127:
 587:Source\azure_iot_sdk\uamqp\src/cbs.c ****                                         }
 2189              		.loc 1 587 0
 2190 024e 284C     		ldr	r4, .L128+96
 2191              	.LVL361:
 2192              	.L112:
 2193              	.LBE57:
 2194              	.LBE58:
 593:Source\azure_iot_sdk\uamqp\src/cbs.c ****                                         }
 594:Source\azure_iot_sdk\uamqp\src/cbs.c ****                                     }
 595:Source\azure_iot_sdk\uamqp\src/cbs.c ****                                 }
 596:Source\azure_iot_sdk\uamqp\src/cbs.c ****                             }
 597:Source\azure_iot_sdk\uamqp\src/cbs.c ****                         }
 598:Source\azure_iot_sdk\uamqp\src/cbs.c **** 
 599:Source\azure_iot_sdk\uamqp\src/cbs.c ****                         amqpvalue_destroy(application_properties);
 2195              		.loc 1 599 0
 2196 0250 0998     		ldr	r0, [sp, #36]
 2197 0252 FFF7FEFF 		bl	amqpvalue_destroy
 2198              	.LVL362:
 2199 0256 00E0     		b	.L111
 2200              	.LVL363:
 2201              	.L121:
 530:Source\azure_iot_sdk\uamqp\src/cbs.c ****                     }
 2202              		.loc 1 530 0
 2203 0258 184C     		ldr	r4, .L128+44
 2204              	.LVL364:
 2205              	.L111:
 600:Source\azure_iot_sdk\uamqp\src/cbs.c ****                     }
 601:Source\azure_iot_sdk\uamqp\src/cbs.c **** 
 602:Source\azure_iot_sdk\uamqp\src/cbs.c ****                     amqpvalue_destroy(token_value);
 2206              		.loc 1 602 0
 2207 025a 3000     		movs	r0, r6
 2208 025c FFF7FEFF 		bl	amqpvalue_destroy
 2209              	.LVL365:
 2210 0260 03E0     		b	.L108
 2211              	.LVL366:
 2212              	.L119:
 2213              	.LBE49:
 512:Source\azure_iot_sdk\uamqp\src/cbs.c ****             }
 2214              		.loc 1 512 0
 2215 0262 8024     		movs	r4, #128
 2216 0264 A400     		lsls	r4, r4, #2
 2217 0266 00E0     		b	.L108
 2218              	.LVL367:
 2219              	.L120:
 521:Source\azure_iot_sdk\uamqp\src/cbs.c ****                 }
 2220              		.loc 1 521 0
 2221 0268 114C     		ldr	r4, .L128+32
 2222              	.LVL368:
 2223              	.L108:
 603:Source\azure_iot_sdk\uamqp\src/cbs.c ****                 }
 604:Source\azure_iot_sdk\uamqp\src/cbs.c ****             }
 605:Source\azure_iot_sdk\uamqp\src/cbs.c **** 
 606:Source\azure_iot_sdk\uamqp\src/cbs.c ****             message_destroy(message);
 2224              		.loc 1 606 0
 2225 026a 2800     		movs	r0, r5
 2226 026c FFF7FEFF 		bl	message_destroy
ARM GAS  C:\Users\Phuong\AppData\Local\Temp\ccGVgD3r.s 			page 52


 2227              	.LVL369:
 2228 0270 07E0     		b	.L103
 2229              	.LVL370:
 2230              	.L116:
 2231              	.LBE46:
 2232              	.LBE44:
 486:Source\azure_iot_sdk\uamqp\src/cbs.c ****     }
 2233              		.loc 1 486 0
 2234 0272 F324     		movs	r4, #243
 2235              	.LVL371:
 2236 0274 6400     		lsls	r4, r4, #1
 2237 0276 04E0     		b	.L103
 2238              	.LVL372:
 2239              	.L117:
 493:Source\azure_iot_sdk\uamqp\src/cbs.c ****     }
 2240              		.loc 1 493 0
 2241 0278 EE24     		movs	r4, #238
 2242 027a FF34     		adds	r4, r4, #255
 2243 027c 01E0     		b	.L103
 2244              	.LVL373:
 2245              	.L118:
 2246              	.LBB59:
 503:Source\azure_iot_sdk\uamqp\src/cbs.c ****         }
 2247              		.loc 1 503 0
 2248 027e F824     		movs	r4, #248
 2249 0280 FF34     		adds	r4, r4, #255
 2250              	.LVL374:
 2251              	.L103:
 2252              	.LBE59:
 607:Source\azure_iot_sdk\uamqp\src/cbs.c ****         }
 608:Source\azure_iot_sdk\uamqp\src/cbs.c ****     }
 609:Source\azure_iot_sdk\uamqp\src/cbs.c **** 
 610:Source\azure_iot_sdk\uamqp\src/cbs.c ****     return result;
 611:Source\azure_iot_sdk\uamqp\src/cbs.c **** }
 2253              		.loc 1 611 0
 2254 0282 2000     		movs	r0, r4
 2255 0284 0BB0     		add	sp, sp, #44
 2256              		@ sp needed
 2257              	.LVL375:
 2258              	.LVL376:
 2259 0286 0CBC     		pop	{r2, r3}
 2260 0288 9146     		mov	r9, r2
 2261 028a 9A46     		mov	r10, r3
 2262 028c F0BD     		pop	{r4, r5, r6, r7, pc}
 2263              	.L129:
 2264 028e C046     		.align	2
 2265              	.L128:
 2266 0290 1C060000 		.word	.LC94
 2267 0294 80000000 		.word	.LANCHOR1
 2268 0298 00000000 		.word	.LC1
 2269 029c 7C060000 		.word	.LC96
 2270 02a0 A8060000 		.word	.LC98
 2271 02a4 C0060000 		.word	.LC100
 2272 02a8 FF010000 		.word	511
 2273 02ac E4060000 		.word	.LC102
 2274 02b0 09020000 		.word	521
 2275 02b4 14070000 		.word	.LC104
ARM GAS  C:\Users\Phuong\AppData\Local\Temp\ccGVgD3r.s 			page 53


 2276 02b8 11020000 		.word	529
 2277 02bc 12020000 		.word	530
 2278 02c0 40070000 		.word	.LC106
 2279 02c4 48070000 		.word	.LC108
 2280 02c8 1F020000 		.word	543
 2281 02cc 78070000 		.word	.LC110
 2282 02d0 27020000 		.word	551
 2283 02d4 A4070000 		.word	.LC112
 2284 02d8 36020000 		.word	566
 2285 02dc 37020000 		.word	567
 2286 02e0 00000000 		.word	on_amqp_management_execute_operation_complete
 2287 02e4 CC070000 		.word	.LC114
 2288 02e8 D8070000 		.word	.LC117
 2289 02ec 4A020000 		.word	586
 2290 02f0 4B020000 		.word	587
 2291              		.cfi_endproc
 2292              	.LFE9:
 2293              		.size	cbs_put_token_async, .-cbs_put_token_async
 2294              		.section	.text.cbs_delete_token_async,"ax",%progbits
 2295              		.align	2
 2296              		.global	cbs_delete_token_async
 2297              		.code	16
 2298              		.thumb_func
 2299              		.type	cbs_delete_token_async, %function
 2300              	cbs_delete_token_async:
 2301              	.LFB10:
 612:Source\azure_iot_sdk\uamqp\src/cbs.c **** 
 613:Source\azure_iot_sdk\uamqp\src/cbs.c **** int cbs_delete_token_async(CBS_HANDLE cbs, const char* type, const char* audience, ON_CBS_OPERATION
 614:Source\azure_iot_sdk\uamqp\src/cbs.c **** {
 2302              		.loc 1 614 0
 2303              		.cfi_startproc
 2304              		@ args = 4, pretend = 0, frame = 8
 2305              		@ frame_needed = 0, uses_anonymous_args = 0
 2306              	.LVL377:
 2307 0000 F0B5     		push	{r4, r5, r6, r7, lr}
 2308              		.cfi_def_cfa_offset 20
 2309              		.cfi_offset 4, -20
 2310              		.cfi_offset 5, -16
 2311              		.cfi_offset 6, -12
 2312              		.cfi_offset 7, -8
 2313              		.cfi_offset 14, -4
 2314 0002 4F46     		mov	r7, r9
 2315 0004 4646     		mov	r6, r8
 2316 0006 C0B4     		push	{r6, r7}
 2317              		.cfi_def_cfa_offset 28
 2318              		.cfi_offset 8, -28
 2319              		.cfi_offset 9, -24
 2320 0008 89B0     		sub	sp, sp, #36
 2321              		.cfi_def_cfa_offset 64
 2322 000a 0400     		movs	r4, r0
 2323 000c 0D00     		movs	r5, r1
 2324 000e 1600     		movs	r6, r2
 2325 0010 1F00     		movs	r7, r3
 615:Source\azure_iot_sdk\uamqp\src/cbs.c ****     int result;
 616:Source\azure_iot_sdk\uamqp\src/cbs.c **** 
 617:Source\azure_iot_sdk\uamqp\src/cbs.c ****     /* Codes_SRS_CBS_01_086: [ `on_cbs_delete_token_complete_context` shall be allowed to be NULL. 
 618:Source\azure_iot_sdk\uamqp\src/cbs.c ****     if ((cbs == NULL) ||
ARM GAS  C:\Users\Phuong\AppData\Local\Temp\ccGVgD3r.s 			page 54


 2326              		.loc 1 618 0
 2327 0012 0028     		cmp	r0, #0
 2328 0014 05D0     		beq	.L131
 2329              		.loc 1 618 0 is_stmt 0 discriminator 1
 2330 0016 0029     		cmp	r1, #0
 2331 0018 03D0     		beq	.L131
 619:Source\azure_iot_sdk\uamqp\src/cbs.c ****         (type == NULL) ||
 2332              		.loc 1 619 0 is_stmt 1
 2333 001a 002A     		cmp	r2, #0
 2334 001c 01D0     		beq	.L131
 620:Source\azure_iot_sdk\uamqp\src/cbs.c ****         (audience == NULL) ||
 2335              		.loc 1 620 0
 2336 001e 002B     		cmp	r3, #0
 2337 0020 15D1     		bne	.L132
 2338              	.L131:
 2339              	.LBB60:
 621:Source\azure_iot_sdk\uamqp\src/cbs.c ****         (on_cbs_delete_token_complete == NULL))
 622:Source\azure_iot_sdk\uamqp\src/cbs.c ****     {
 623:Source\azure_iot_sdk\uamqp\src/cbs.c ****         /* Codes_SRS_CBS_01_060: [ If any of the arguments `cbs`, `type`, `audience` or `on_cbs_del
 624:Source\azure_iot_sdk\uamqp\src/cbs.c ****         LogError("Bad arguments: cbs = %p, type = %p, audience = %p, on_cbs_delete_token_complete =
 2340              		.loc 1 624 0 discriminator 3
 2341 0022 FFF7FEFF 		bl	xlogging_get_log_function
 2342              	.LVL378:
 2343 0026 8046     		mov	r8, r0
 2344              	.LVL379:
 2345 0028 0028     		cmp	r0, #0
 2346 002a 00D1     		bne	.LCB2590
 2347 002c E4E0     		b	.L143	@long jump
 2348              	.LCB2590:
 2349              		.loc 1 624 0 is_stmt 0 discriminator 4
 2350 002e 0597     		str	r7, [sp, #20]
 2351 0030 0496     		str	r6, [sp, #16]
 2352 0032 0395     		str	r5, [sp, #12]
 2353 0034 0294     		str	r4, [sp, #8]
 2354 0036 764B     		ldr	r3, .L153
 2355 0038 0193     		str	r3, [sp, #4]
 2356 003a 0123     		movs	r3, #1
 2357 003c 0093     		str	r3, [sp]
 2358 003e 754B     		ldr	r3, .L153+4
 2359 0040 754A     		ldr	r2, .L153+8
 2360 0042 6C32     		adds	r2, r2, #108
 2361 0044 7549     		ldr	r1, .L153+12
 2362 0046 0020     		movs	r0, #0
 2363              	.LVL380:
 2364 0048 C047     		blx	r8
 2365              	.LVL381:
 2366              	.LBE60:
 625:Source\azure_iot_sdk\uamqp\src/cbs.c ****             cbs, type, audience, on_cbs_delete_token_complete);
 626:Source\azure_iot_sdk\uamqp\src/cbs.c ****         result = __FAILURE__;
 2367              		.loc 1 626 0 is_stmt 1 discriminator 4
 2368 004a 754C     		ldr	r4, .L153+16
 2369              	.LVL382:
 2370 004c DAE0     		b	.L133
 2371              	.LVL383:
 2372              	.L132:
 627:Source\azure_iot_sdk\uamqp\src/cbs.c ****     }
 628:Source\azure_iot_sdk\uamqp\src/cbs.c ****     else if ((cbs->cbs_state == CBS_STATE_CLOSED) ||
ARM GAS  C:\Users\Phuong\AppData\Local\Temp\ccGVgD3r.s 			page 55


 2373              		.loc 1 628 0
 2374 004e 0379     		ldrb	r3, [r0, #4]
 2375              	.LVL384:
 2376 0050 002B     		cmp	r3, #0
 2377 0052 01D0     		beq	.L134
 2378              		.loc 1 628 0 is_stmt 0 discriminator 1
 2379 0054 032B     		cmp	r3, #3
 2380 0056 11D1     		bne	.L135
 2381              	.L134:
 2382              	.LBB61:
 629:Source\azure_iot_sdk\uamqp\src/cbs.c ****         (cbs->cbs_state == CBS_STATE_ERROR))
 630:Source\azure_iot_sdk\uamqp\src/cbs.c ****     {
 631:Source\azure_iot_sdk\uamqp\src/cbs.c ****         /* Codes_SRS_CBS_01_067: [ If `cbs_delete_token_async` is called when the CBS instance is n
 632:Source\azure_iot_sdk\uamqp\src/cbs.c ****         LogError("put token called while closed or in error");
 2383              		.loc 1 632 0 is_stmt 1 discriminator 3
 2384 0058 FFF7FEFF 		bl	xlogging_get_log_function
 2385              	.LVL385:
 2386 005c 041E     		subs	r4, r0, #0
 2387              	.LVL386:
 2388 005e 00D1     		bne	.LCB2637
 2389 0060 CCE0     		b	.L144	@long jump
 2390              	.LCB2637:
 2391              		.loc 1 632 0 is_stmt 0 discriminator 4
 2392 0062 704B     		ldr	r3, .L153+20
 2393 0064 0193     		str	r3, [sp, #4]
 2394 0066 0123     		movs	r3, #1
 2395 0068 0093     		str	r3, [sp]
 2396 006a 9E23     		movs	r3, #158
 2397 006c 9B00     		lsls	r3, r3, #2
 2398 006e 6A4A     		ldr	r2, .L153+8
 2399 0070 6C32     		adds	r2, r2, #108
 2400 0072 6A49     		ldr	r1, .L153+12
 2401 0074 0020     		movs	r0, #0
 2402              	.LVL387:
 2403 0076 A047     		blx	r4
 2404              	.LVL388:
 2405              	.LBE61:
 633:Source\azure_iot_sdk\uamqp\src/cbs.c ****         result = __FAILURE__;
 2406              		.loc 1 633 0 is_stmt 1 discriminator 4
 2407 0078 6B4C     		ldr	r4, .L153+24
 2408              	.LVL389:
 2409 007a C3E0     		b	.L133
 2410              	.LVL390:
 2411              	.L135:
 2412              	.LBB62:
 634:Source\azure_iot_sdk\uamqp\src/cbs.c ****     }
 635:Source\azure_iot_sdk\uamqp\src/cbs.c ****     else
 636:Source\azure_iot_sdk\uamqp\src/cbs.c ****     {
 637:Source\azure_iot_sdk\uamqp\src/cbs.c ****         /* Codes_SRS_CBS_01_025: [ The body of the message MUST be empty. ]*/
 638:Source\azure_iot_sdk\uamqp\src/cbs.c ****         /* Codes_SRS_CBS_01_059: [ `cbs_delete_token_async` shall construct a request message for t
 639:Source\azure_iot_sdk\uamqp\src/cbs.c ****         MESSAGE_HANDLE message = message_create();
 2413              		.loc 1 639 0
 2414 007c FFF7FEFF 		bl	message_create
 2415              	.LVL391:
 2416 0080 0790     		str	r0, [sp, #28]
 2417              	.LVL392:
 640:Source\azure_iot_sdk\uamqp\src/cbs.c ****         if (message == NULL)
ARM GAS  C:\Users\Phuong\AppData\Local\Temp\ccGVgD3r.s 			page 56


 2418              		.loc 1 640 0
 2419 0082 0028     		cmp	r0, #0
 2420 0084 11D1     		bne	.L136
 2421              	.LBB63:
 641:Source\azure_iot_sdk\uamqp\src/cbs.c ****         {
 642:Source\azure_iot_sdk\uamqp\src/cbs.c ****             /* Codes_SRS_CBS_01_071: [ If constructing the message fails, `cbs_delete_token_async` 
 643:Source\azure_iot_sdk\uamqp\src/cbs.c ****             LogError("message_create failed");
 2422              		.loc 1 643 0 discriminator 3
 2423 0086 FFF7FEFF 		bl	xlogging_get_log_function
 2424              	.LVL393:
 2425 008a 041E     		subs	r4, r0, #0
 2426              	.LVL394:
 2427 008c 00D1     		bne	.LCB2681
 2428 008e B7E0     		b	.L145	@long jump
 2429              	.LCB2681:
 2430              		.loc 1 643 0 is_stmt 0 discriminator 4
 2431 0090 664B     		ldr	r3, .L153+28
 2432 0092 0193     		str	r3, [sp, #4]
 2433 0094 0123     		movs	r3, #1
 2434 0096 0093     		str	r3, [sp]
 2435 0098 654B     		ldr	r3, .L153+32
 2436 009a 5F4A     		ldr	r2, .L153+8
 2437 009c 6C32     		adds	r2, r2, #108
 2438 009e 5F49     		ldr	r1, .L153+12
 2439 00a0 0020     		movs	r0, #0
 2440              	.LVL395:
 2441 00a2 A047     		blx	r4
 2442              	.LVL396:
 2443              	.LBE63:
 644:Source\azure_iot_sdk\uamqp\src/cbs.c ****             result = __FAILURE__;
 2444              		.loc 1 644 0 is_stmt 1 discriminator 4
 2445 00a4 A124     		movs	r4, #161
 2446              	.LVL397:
 2447 00a6 A400     		lsls	r4, r4, #2
 2448 00a8 ACE0     		b	.L133
 2449              	.LVL398:
 2450              	.L136:
 2451              	.LBB64:
 645:Source\azure_iot_sdk\uamqp\src/cbs.c ****         }
 646:Source\azure_iot_sdk\uamqp\src/cbs.c ****         else
 647:Source\azure_iot_sdk\uamqp\src/cbs.c ****         {
 648:Source\azure_iot_sdk\uamqp\src/cbs.c ****             AMQP_VALUE application_properties = amqpvalue_create_map();
 2452              		.loc 1 648 0
 2453 00aa FFF7FEFF 		bl	amqpvalue_create_map
 2454              	.LVL399:
 2455 00ae 0690     		str	r0, [sp, #24]
 2456              	.LVL400:
 649:Source\azure_iot_sdk\uamqp\src/cbs.c ****             if (application_properties == NULL)
 2457              		.loc 1 649 0
 2458 00b0 0028     		cmp	r0, #0
 2459 00b2 11D1     		bne	.L137
 2460              	.LBB65:
 650:Source\azure_iot_sdk\uamqp\src/cbs.c ****             {
 651:Source\azure_iot_sdk\uamqp\src/cbs.c ****                 /* Codes_SRS_CBS_01_071: [ If constructing the message fails, `cbs_delete_token_asy
 652:Source\azure_iot_sdk\uamqp\src/cbs.c ****                 LogError("Failed creating application properties map");
 2461              		.loc 1 652 0 discriminator 3
 2462 00b4 FFF7FEFF 		bl	xlogging_get_log_function
ARM GAS  C:\Users\Phuong\AppData\Local\Temp\ccGVgD3r.s 			page 57


 2463              	.LVL401:
 2464 00b8 041E     		subs	r4, r0, #0
 2465              	.LVL402:
 2466 00ba 00D1     		bne	.LCB2721
 2467 00bc 97E0     		b	.L146	@long jump
 2468              	.LCB2721:
 2469              		.loc 1 652 0 is_stmt 0 discriminator 4
 2470 00be 5D4B     		ldr	r3, .L153+36
 2471 00c0 0193     		str	r3, [sp, #4]
 2472 00c2 0123     		movs	r3, #1
 2473 00c4 0093     		str	r3, [sp]
 2474 00c6 A323     		movs	r3, #163
 2475 00c8 9B00     		lsls	r3, r3, #2
 2476 00ca 534A     		ldr	r2, .L153+8
 2477 00cc 6C32     		adds	r2, r2, #108
 2478 00ce 5349     		ldr	r1, .L153+12
 2479 00d0 0020     		movs	r0, #0
 2480              	.LVL403:
 2481 00d2 A047     		blx	r4
 2482              	.LVL404:
 2483              	.LBE65:
 653:Source\azure_iot_sdk\uamqp\src/cbs.c ****                 result = __FAILURE__;
 2484              		.loc 1 653 0 is_stmt 1 discriminator 4
 2485 00d4 584C     		ldr	r4, .L153+40
 2486              	.LVL405:
 2487 00d6 8BE0     		b	.L138
 2488              	.LVL406:
 2489              	.L137:
 654:Source\azure_iot_sdk\uamqp\src/cbs.c ****             }
 655:Source\azure_iot_sdk\uamqp\src/cbs.c ****             else
 656:Source\azure_iot_sdk\uamqp\src/cbs.c ****             {
 657:Source\azure_iot_sdk\uamqp\src/cbs.c ****                 if (add_string_key_value_pair_to_map(application_properties, "name", audience) != 0
 2490              		.loc 1 657 0
 2491 00d8 3200     		movs	r2, r6
 2492 00da 5849     		ldr	r1, .L153+44
 2493 00dc 0698     		ldr	r0, [sp, #24]
 2494              	.LVL407:
 2495 00de FFF7FEFF 		bl	add_string_key_value_pair_to_map
 2496              	.LVL408:
 2497 00e2 0028     		cmp	r0, #0
 2498 00e4 71D1     		bne	.L147
 658:Source\azure_iot_sdk\uamqp\src/cbs.c ****                 {
 659:Source\azure_iot_sdk\uamqp\src/cbs.c ****                     result = __FAILURE__;
 660:Source\azure_iot_sdk\uamqp\src/cbs.c ****                 }
 661:Source\azure_iot_sdk\uamqp\src/cbs.c ****                 else
 662:Source\azure_iot_sdk\uamqp\src/cbs.c ****                 {
 663:Source\azure_iot_sdk\uamqp\src/cbs.c ****                     /* Codes_SRS_CBS_01_021: [ The request message has the following application-pr
 664:Source\azure_iot_sdk\uamqp\src/cbs.c ****                     if (message_set_application_properties(message, application_properties) != 0)
 2499              		.loc 1 664 0
 2500 00e6 0699     		ldr	r1, [sp, #24]
 2501 00e8 0798     		ldr	r0, [sp, #28]
 2502 00ea FFF7FEFF 		bl	message_set_application_properties
 2503              	.LVL409:
 2504 00ee 0028     		cmp	r0, #0
 2505 00f0 10D0     		beq	.L140
 2506              	.LBB66:
 665:Source\azure_iot_sdk\uamqp\src/cbs.c ****                     {
ARM GAS  C:\Users\Phuong\AppData\Local\Temp\ccGVgD3r.s 			page 58


 666:Source\azure_iot_sdk\uamqp\src/cbs.c ****                         /* Codes_SRS_CBS_01_071: [ If constructing the message fails, `cbs_delete_t
 667:Source\azure_iot_sdk\uamqp\src/cbs.c ****                         LogError("Failed setting message application properties");
 2507              		.loc 1 667 0 discriminator 3
 2508 00f2 FFF7FEFF 		bl	xlogging_get_log_function
 2509              	.LVL410:
 2510 00f6 041E     		subs	r4, r0, #0
 2511              	.LVL411:
 2512 00f8 69D0     		beq	.L148
 2513              		.loc 1 667 0 is_stmt 0 discriminator 4
 2514 00fa 514B     		ldr	r3, .L153+48
 2515 00fc 0193     		str	r3, [sp, #4]
 2516 00fe 0123     		movs	r3, #1
 2517 0100 0093     		str	r3, [sp]
 2518 0102 504B     		ldr	r3, .L153+52
 2519 0104 444A     		ldr	r2, .L153+8
 2520 0106 6C32     		adds	r2, r2, #108
 2521 0108 4449     		ldr	r1, .L153+12
 2522 010a 0020     		movs	r0, #0
 2523              	.LVL412:
 2524 010c A047     		blx	r4
 2525              	.LVL413:
 2526              	.LBE66:
 668:Source\azure_iot_sdk\uamqp\src/cbs.c ****                         result = __FAILURE__;
 2527              		.loc 1 668 0 is_stmt 1 discriminator 4
 2528 010e A724     		movs	r4, #167
 2529              	.LVL414:
 2530 0110 A400     		lsls	r4, r4, #2
 2531 0112 68E0     		b	.L139
 2532              	.LVL415:
 2533              	.L140:
 2534              	.LBB67:
 669:Source\azure_iot_sdk\uamqp\src/cbs.c ****                     }
 670:Source\azure_iot_sdk\uamqp\src/cbs.c ****                     else
 671:Source\azure_iot_sdk\uamqp\src/cbs.c ****                     {
 672:Source\azure_iot_sdk\uamqp\src/cbs.c ****                         CBS_OPERATION* cbs_operation = (CBS_OPERATION*)malloc(sizeof(CBS_OPERATION)
 2535              		.loc 1 672 0
 2536 0114 0C20     		movs	r0, #12
 2537 0116 FFF7FEFF 		bl	malloc
 2538              	.LVL416:
 2539 011a 8046     		mov	r8, r0
 2540              	.LVL417:
 673:Source\azure_iot_sdk\uamqp\src/cbs.c ****                         if (cbs_operation == NULL)
 2541              		.loc 1 673 0
 2542 011c 0028     		cmp	r0, #0
 2543 011e 10D1     		bne	.L141
 2544              	.LBB68:
 674:Source\azure_iot_sdk\uamqp\src/cbs.c ****                         {
 675:Source\azure_iot_sdk\uamqp\src/cbs.c ****                             LogError("Failed allocating CBS operation instance");
 2545              		.loc 1 675 0 discriminator 3
 2546 0120 FFF7FEFF 		bl	xlogging_get_log_function
 2547              	.LVL418:
 2548 0124 041E     		subs	r4, r0, #0
 2549              	.LVL419:
 2550 0126 55D0     		beq	.L149
 2551              		.loc 1 675 0 is_stmt 0 discriminator 4
 2552 0128 474B     		ldr	r3, .L153+56
 2553 012a 0193     		str	r3, [sp, #4]
ARM GAS  C:\Users\Phuong\AppData\Local\Temp\ccGVgD3r.s 			page 59


 2554 012c 0123     		movs	r3, #1
 2555 012e 0093     		str	r3, [sp]
 2556 0130 464B     		ldr	r3, .L153+60
 2557 0132 394A     		ldr	r2, .L153+8
 2558 0134 6C32     		adds	r2, r2, #108
 2559 0136 3949     		ldr	r1, .L153+12
 2560 0138 0020     		movs	r0, #0
 2561              	.LVL420:
 2562 013a A047     		blx	r4
 2563              	.LVL421:
 2564              	.LBE68:
 676:Source\azure_iot_sdk\uamqp\src/cbs.c ****                             result = __FAILURE__;
 2565              		.loc 1 676 0 is_stmt 1 discriminator 4
 2566 013c A924     		movs	r4, #169
 2567              	.LVL422:
 2568 013e A400     		lsls	r4, r4, #2
 2569 0140 51E0     		b	.L139
 2570              	.LVL423:
 2571              	.L141:
 2572              	.LBB69:
 677:Source\azure_iot_sdk\uamqp\src/cbs.c ****                         }
 678:Source\azure_iot_sdk\uamqp\src/cbs.c ****                         else
 679:Source\azure_iot_sdk\uamqp\src/cbs.c ****                         {
 680:Source\azure_iot_sdk\uamqp\src/cbs.c ****                             LIST_ITEM_HANDLE list_item;
 681:Source\azure_iot_sdk\uamqp\src/cbs.c **** 
 682:Source\azure_iot_sdk\uamqp\src/cbs.c ****                             cbs_operation->on_cbs_operation_complete = on_cbs_delete_token_complete
 2573              		.loc 1 682 0
 2574 0142 0760     		str	r7, [r0]
 683:Source\azure_iot_sdk\uamqp\src/cbs.c ****                             cbs_operation->on_cbs_operation_complete_context = on_cbs_delete_token_
 2575              		.loc 1 683 0
 2576 0144 109A     		ldr	r2, [sp, #64]
 2577 0146 4260     		str	r2, [r0, #4]
 684:Source\azure_iot_sdk\uamqp\src/cbs.c ****                             cbs_operation->pending_operations = cbs->pending_operations;
 2578              		.loc 1 684 0
 2579 0148 A269     		ldr	r2, [r4, #24]
 2580 014a 8260     		str	r2, [r0, #8]
 685:Source\azure_iot_sdk\uamqp\src/cbs.c **** 
 686:Source\azure_iot_sdk\uamqp\src/cbs.c ****                             list_item = singlylinkedlist_add(cbs->pending_operations, cbs_operation
 2581              		.loc 1 686 0
 2582 014c 0100     		movs	r1, r0
 2583 014e A069     		ldr	r0, [r4, #24]
 2584              	.LVL424:
 2585 0150 FFF7FEFF 		bl	singlylinkedlist_add
 2586              	.LVL425:
 2587 0154 8146     		mov	r9, r0
 2588              	.LVL426:
 687:Source\azure_iot_sdk\uamqp\src/cbs.c ****                             if (list_item == NULL)
 2589              		.loc 1 687 0
 2590 0156 0028     		cmp	r0, #0
 2591 0158 12D1     		bne	.L142
 688:Source\azure_iot_sdk\uamqp\src/cbs.c ****                             {
 689:Source\azure_iot_sdk\uamqp\src/cbs.c ****                                 free(cbs_operation);
 2592              		.loc 1 689 0
 2593 015a 4046     		mov	r0, r8
 2594              	.LVL427:
 2595 015c FFF7FEFF 		bl	free
 2596              	.LVL428:
ARM GAS  C:\Users\Phuong\AppData\Local\Temp\ccGVgD3r.s 			page 60


 2597              	.LBB70:
 690:Source\azure_iot_sdk\uamqp\src/cbs.c ****                                 LogError("Failed adding pending operation to list");
 2598              		.loc 1 690 0
 2599 0160 FFF7FEFF 		bl	xlogging_get_log_function
 2600              	.LVL429:
 2601 0164 041E     		subs	r4, r0, #0
 2602              	.LVL430:
 2603 0166 38D0     		beq	.L150
 2604              		.loc 1 690 0 is_stmt 0 discriminator 4
 2605 0168 394B     		ldr	r3, .L153+64
 2606 016a 0193     		str	r3, [sp, #4]
 2607 016c 0123     		movs	r3, #1
 2608 016e 0093     		str	r3, [sp]
 2609 0170 384B     		ldr	r3, .L153+68
 2610 0172 294A     		ldr	r2, .L153+8
 2611 0174 6C32     		adds	r2, r2, #108
 2612 0176 2949     		ldr	r1, .L153+12
 2613 0178 0020     		movs	r0, #0
 2614              	.LVL431:
 2615 017a A047     		blx	r4
 2616              	.LVL432:
 2617              	.LBE70:
 691:Source\azure_iot_sdk\uamqp\src/cbs.c ****                                 result = __FAILURE__;
 2618              		.loc 1 691 0 is_stmt 1 discriminator 4
 2619 017c 364C     		ldr	r4, .L153+72
 2620              	.LVL433:
 2621 017e 32E0     		b	.L139
 2622              	.LVL434:
 2623              	.L142:
 692:Source\azure_iot_sdk\uamqp\src/cbs.c ****                             }
 693:Source\azure_iot_sdk\uamqp\src/cbs.c ****                             else
 694:Source\azure_iot_sdk\uamqp\src/cbs.c ****                             {
 695:Source\azure_iot_sdk\uamqp\src/cbs.c ****                                 /* Codes_SRS_CBS_01_061: [ `cbs_delete_token_async` shall start the
 696:Source\azure_iot_sdk\uamqp\src/cbs.c ****                                 /* Codes_SRS_CBS_01_085: [ The `amqp_management` argument shall be 
 697:Source\azure_iot_sdk\uamqp\src/cbs.c ****                                 /* Codes_SRS_CBS_01_062: [ The `operation` argument shall be `delet
 698:Source\azure_iot_sdk\uamqp\src/cbs.c ****                                 /* Codes_SRS_CBS_01_063: [ The `type` argument shall be set to the 
 699:Source\azure_iot_sdk\uamqp\src/cbs.c ****                                 /* Codes_SRS_CBS_01_064: [ The `locales` argument shall be set to N
 700:Source\azure_iot_sdk\uamqp\src/cbs.c ****                                 /* Codes_SRS_CBS_01_065: [ The `message` argument shall be the mess
 701:Source\azure_iot_sdk\uamqp\src/cbs.c ****                                 /* Codes_SRS_CBS_01_066: [ The arguments `on_operation_complete` an
 702:Source\azure_iot_sdk\uamqp\src/cbs.c ****                                 /* Codes_SRS_CBS_01_020: [ To instruct a peer to delete a token ass
 703:Source\azure_iot_sdk\uamqp\src/cbs.c ****                                 /* Codes_SRS_CBS_01_022: [ operation    Yes    string    "delete-to
 704:Source\azure_iot_sdk\uamqp\src/cbs.c ****                                 /* Codes_SRS_CBS_01_023: [ Type    Yes    string    The type of the
 705:Source\azure_iot_sdk\uamqp\src/cbs.c ****                                 /* Codes_SRS_CBS_01_024: [ name    Yes    string    The "audience" 
 706:Source\azure_iot_sdk\uamqp\src/cbs.c ****                                 if (amqp_management_execute_operation_async(cbs->amqp_management, "
 2624              		.loc 1 706 0
 2625 0180 0290     		str	r0, [sp, #8]
 2626 0182 364B     		ldr	r3, .L153+76
 2627 0184 0193     		str	r3, [sp, #4]
 2628 0186 079B     		ldr	r3, [sp, #28]
 2629 0188 0093     		str	r3, [sp]
 2630 018a 0023     		movs	r3, #0
 2631 018c 2A00     		movs	r2, r5
 2632 018e 3449     		ldr	r1, .L153+80
 2633 0190 2068     		ldr	r0, [r4]
 2634              	.LVL435:
 2635 0192 FFF7FEFF 		bl	amqp_management_execute_operation_async
 2636              	.LVL436:
ARM GAS  C:\Users\Phuong\AppData\Local\Temp\ccGVgD3r.s 			page 61


 2637 0196 0028     		cmp	r0, #0
 2638 0198 21D0     		beq	.L151
 707:Source\azure_iot_sdk\uamqp\src/cbs.c ****                                 {
 708:Source\azure_iot_sdk\uamqp\src/cbs.c ****                                     /* Codes_SRS_CBS_01_087: [ If `amqp_management_execute_operatio
 709:Source\azure_iot_sdk\uamqp\src/cbs.c ****                                     singlylinkedlist_remove(cbs->pending_operations, list_item);
 2639              		.loc 1 709 0
 2640 019a A069     		ldr	r0, [r4, #24]
 2641 019c 4946     		mov	r1, r9
 2642 019e FFF7FEFF 		bl	singlylinkedlist_remove
 2643              	.LVL437:
 710:Source\azure_iot_sdk\uamqp\src/cbs.c ****                                     free(cbs_operation);
 2644              		.loc 1 710 0
 2645 01a2 4046     		mov	r0, r8
 2646 01a4 FFF7FEFF 		bl	free
 2647              	.LVL438:
 2648              	.LBB71:
 711:Source\azure_iot_sdk\uamqp\src/cbs.c ****                                     LogError("Failed starting AMQP management operation");
 2649              		.loc 1 711 0
 2650 01a8 FFF7FEFF 		bl	xlogging_get_log_function
 2651              	.LVL439:
 2652 01ac 041E     		subs	r4, r0, #0
 2653              	.LVL440:
 2654 01ae 18D0     		beq	.L152
 2655              		.loc 1 711 0 is_stmt 0 discriminator 4
 2656 01b0 2C4B     		ldr	r3, .L153+84
 2657 01b2 0193     		str	r3, [sp, #4]
 2658 01b4 0123     		movs	r3, #1
 2659 01b6 0093     		str	r3, [sp]
 2660 01b8 2B4B     		ldr	r3, .L153+88
 2661 01ba 174A     		ldr	r2, .L153+8
 2662 01bc 6C32     		adds	r2, r2, #108
 2663 01be 1749     		ldr	r1, .L153+12
 2664 01c0 0020     		movs	r0, #0
 2665              	.LVL441:
 2666 01c2 A047     		blx	r4
 2667              	.LVL442:
 2668              	.LBE71:
 712:Source\azure_iot_sdk\uamqp\src/cbs.c ****                                     result = __FAILURE__;
 2669              		.loc 1 712 0 is_stmt 1 discriminator 4
 2670 01c4 B224     		movs	r4, #178
 2671              	.LVL443:
 2672 01c6 A400     		lsls	r4, r4, #2
 2673 01c8 0DE0     		b	.L139
 2674              	.LVL444:
 2675              	.L147:
 2676              	.LBE69:
 2677              	.LBE67:
 659:Source\azure_iot_sdk\uamqp\src/cbs.c ****                 }
 2678              		.loc 1 659 0
 2679 01ca 284C     		ldr	r4, .L153+92
 2680              	.LVL445:
 2681 01cc 0BE0     		b	.L139
 2682              	.LVL446:
 2683              	.L148:
 668:Source\azure_iot_sdk\uamqp\src/cbs.c ****                     }
 2684              		.loc 1 668 0
 2685 01ce A724     		movs	r4, #167
ARM GAS  C:\Users\Phuong\AppData\Local\Temp\ccGVgD3r.s 			page 62


 2686 01d0 A400     		lsls	r4, r4, #2
 2687 01d2 08E0     		b	.L139
 2688              	.LVL447:
 2689              	.L149:
 2690              	.LBB73:
 676:Source\azure_iot_sdk\uamqp\src/cbs.c ****                         }
 2691              		.loc 1 676 0
 2692 01d4 A924     		movs	r4, #169
 2693 01d6 A400     		lsls	r4, r4, #2
 2694 01d8 05E0     		b	.L139
 2695              	.LVL448:
 2696              	.L150:
 2697              	.LBB72:
 691:Source\azure_iot_sdk\uamqp\src/cbs.c ****                             }
 2698              		.loc 1 691 0
 2699 01da 1F4C     		ldr	r4, .L153+72
 2700 01dc 03E0     		b	.L139
 2701              	.LVL449:
 2702              	.L151:
 713:Source\azure_iot_sdk\uamqp\src/cbs.c ****                                 }
 714:Source\azure_iot_sdk\uamqp\src/cbs.c ****                                 else
 715:Source\azure_iot_sdk\uamqp\src/cbs.c ****                                 {
 716:Source\azure_iot_sdk\uamqp\src/cbs.c ****                                     /* Codes_SRS_CBS_01_082: [ On success `cbs_delete_token_async` 
 717:Source\azure_iot_sdk\uamqp\src/cbs.c ****                                     result = 0;
 2703              		.loc 1 717 0
 2704 01de 0024     		movs	r4, #0
 2705              	.LVL450:
 2706 01e0 01E0     		b	.L139
 2707              	.LVL451:
 2708              	.L152:
 712:Source\azure_iot_sdk\uamqp\src/cbs.c ****                                 }
 2709              		.loc 1 712 0
 2710 01e2 B224     		movs	r4, #178
 2711 01e4 A400     		lsls	r4, r4, #2
 2712              	.LVL452:
 2713              	.L139:
 2714              	.LBE72:
 2715              	.LBE73:
 718:Source\azure_iot_sdk\uamqp\src/cbs.c ****                                 }
 719:Source\azure_iot_sdk\uamqp\src/cbs.c ****                             }
 720:Source\azure_iot_sdk\uamqp\src/cbs.c ****                         }
 721:Source\azure_iot_sdk\uamqp\src/cbs.c ****                     }
 722:Source\azure_iot_sdk\uamqp\src/cbs.c ****                 }
 723:Source\azure_iot_sdk\uamqp\src/cbs.c **** 
 724:Source\azure_iot_sdk\uamqp\src/cbs.c ****                 amqpvalue_destroy(application_properties);
 2716              		.loc 1 724 0
 2717 01e6 0698     		ldr	r0, [sp, #24]
 2718 01e8 FFF7FEFF 		bl	amqpvalue_destroy
 2719              	.LVL453:
 2720 01ec 00E0     		b	.L138
 2721              	.LVL454:
 2722              	.L146:
 653:Source\azure_iot_sdk\uamqp\src/cbs.c ****             }
 2723              		.loc 1 653 0
 2724 01ee 124C     		ldr	r4, .L153+40
 2725              	.LVL455:
 2726              	.L138:
ARM GAS  C:\Users\Phuong\AppData\Local\Temp\ccGVgD3r.s 			page 63


 725:Source\azure_iot_sdk\uamqp\src/cbs.c ****             }
 726:Source\azure_iot_sdk\uamqp\src/cbs.c **** 
 727:Source\azure_iot_sdk\uamqp\src/cbs.c ****             message_destroy(message);
 2727              		.loc 1 727 0
 2728 01f0 0798     		ldr	r0, [sp, #28]
 2729 01f2 FFF7FEFF 		bl	message_destroy
 2730              	.LVL456:
 2731 01f6 05E0     		b	.L133
 2732              	.LVL457:
 2733              	.L143:
 2734              	.LBE64:
 2735              	.LBE62:
 626:Source\azure_iot_sdk\uamqp\src/cbs.c ****     }
 2736              		.loc 1 626 0
 2737 01f8 094C     		ldr	r4, .L153+16
 2738              	.LVL458:
 2739 01fa 03E0     		b	.L133
 2740              	.LVL459:
 2741              	.L144:
 633:Source\azure_iot_sdk\uamqp\src/cbs.c ****     }
 2742              		.loc 1 633 0
 2743 01fc 0A4C     		ldr	r4, .L153+24
 2744 01fe 01E0     		b	.L133
 2745              	.LVL460:
 2746              	.L145:
 2747              	.LBB74:
 644:Source\azure_iot_sdk\uamqp\src/cbs.c ****         }
 2748              		.loc 1 644 0
 2749 0200 A124     		movs	r4, #161
 2750 0202 A400     		lsls	r4, r4, #2
 2751              	.LVL461:
 2752              	.L133:
 2753              	.LBE74:
 728:Source\azure_iot_sdk\uamqp\src/cbs.c ****         }
 729:Source\azure_iot_sdk\uamqp\src/cbs.c ****     }
 730:Source\azure_iot_sdk\uamqp\src/cbs.c ****     return result;
 731:Source\azure_iot_sdk\uamqp\src/cbs.c **** }
 2754              		.loc 1 731 0
 2755 0204 2000     		movs	r0, r4
 2756 0206 09B0     		add	sp, sp, #36
 2757              		@ sp needed
 2758              	.LVL462:
 2759              	.LVL463:
 2760              	.LVL464:
 2761              	.LVL465:
 2762 0208 0CBC     		pop	{r2, r3}
 2763 020a 9046     		mov	r8, r2
 2764 020c 9946     		mov	r9, r3
 2765 020e F0BD     		pop	{r4, r5, r6, r7, pc}
 2766              	.L154:
 2767              		.align	2
 2768              	.L153:
 2769 0210 04080000 		.word	.LC121
 2770 0214 71020000 		.word	625
 2771 0218 80000000 		.word	.LANCHOR1
 2772 021c 00000000 		.word	.LC1
 2773 0220 72020000 		.word	626
ARM GAS  C:\Users\Phuong\AppData\Local\Temp\ccGVgD3r.s 			page 64


 2774 0224 7C060000 		.word	.LC96
 2775 0228 79020000 		.word	633
 2776 022c A8060000 		.word	.LC98
 2777 0230 83020000 		.word	643
 2778 0234 14070000 		.word	.LC104
 2779 0238 8D020000 		.word	653
 2780 023c 40070000 		.word	.LC106
 2781 0240 48070000 		.word	.LC108
 2782 0244 9B020000 		.word	667
 2783 0248 78070000 		.word	.LC110
 2784 024c A3020000 		.word	675
 2785 0250 A4070000 		.word	.LC112
 2786 0254 B2020000 		.word	690
 2787 0258 B3020000 		.word	691
 2788 025c 00000000 		.word	on_amqp_management_execute_operation_complete
 2789 0260 5C080000 		.word	.LC130
 2790 0264 D8070000 		.word	.LC117
 2791 0268 C7020000 		.word	711
 2792 026c 93020000 		.word	659
 2793              		.cfi_endproc
 2794              	.LFE10:
 2795              		.size	cbs_delete_token_async, .-cbs_delete_token_async
 2796              		.section	.text.cbs_set_trace,"ax",%progbits
 2797              		.align	2
 2798              		.global	cbs_set_trace
 2799              		.code	16
 2800              		.thumb_func
 2801              		.type	cbs_set_trace, %function
 2802              	cbs_set_trace:
 2803              	.LFB11:
 732:Source\azure_iot_sdk\uamqp\src/cbs.c **** 
 733:Source\azure_iot_sdk\uamqp\src/cbs.c **** int cbs_set_trace(CBS_HANDLE cbs, bool trace_on)
 734:Source\azure_iot_sdk\uamqp\src/cbs.c **** {
 2804              		.loc 1 734 0
 2805              		.cfi_startproc
 2806              		@ args = 0, pretend = 0, frame = 0
 2807              		@ frame_needed = 0, uses_anonymous_args = 0
 2808              	.LVL466:
 2809 0000 10B5     		push	{r4, lr}
 2810              		.cfi_def_cfa_offset 8
 2811              		.cfi_offset 4, -8
 2812              		.cfi_offset 14, -4
 2813 0002 82B0     		sub	sp, sp, #8
 2814              		.cfi_def_cfa_offset 16
 735:Source\azure_iot_sdk\uamqp\src/cbs.c ****     int result;
 736:Source\azure_iot_sdk\uamqp\src/cbs.c **** 
 737:Source\azure_iot_sdk\uamqp\src/cbs.c ****     if (cbs == NULL)
 2815              		.loc 1 737 0
 2816 0004 0028     		cmp	r0, #0
 2817 0006 10D1     		bne	.L156
 2818              	.LBB75:
 738:Source\azure_iot_sdk\uamqp\src/cbs.c ****     {
 739:Source\azure_iot_sdk\uamqp\src/cbs.c ****         /* Codes_SRS_CBS_01_090: [ If the argument `cbs` is NULL, `cbs_set_trace` shall fail and re
 740:Source\azure_iot_sdk\uamqp\src/cbs.c ****         LogError("NULL cbs handle");
 2819              		.loc 1 740 0 discriminator 3
 2820 0008 FFF7FEFF 		bl	xlogging_get_log_function
 2821              	.LVL467:
ARM GAS  C:\Users\Phuong\AppData\Local\Temp\ccGVgD3r.s 			page 65


 2822 000c 041E     		subs	r4, r0, #0
 2823              	.LVL468:
 2824 000e 11D0     		beq	.L158
 2825              		.loc 1 740 0 is_stmt 0 discriminator 4
 2826 0010 0A4B     		ldr	r3, .L159
 2827 0012 0193     		str	r3, [sp, #4]
 2828 0014 0123     		movs	r3, #1
 2829 0016 0093     		str	r3, [sp]
 2830 0018 B923     		movs	r3, #185
 2831 001a 9B00     		lsls	r3, r3, #2
 2832 001c 084A     		ldr	r2, .L159+4
 2833 001e 0432     		adds	r2, r2, #4
 2834 0020 0849     		ldr	r1, .L159+8
 2835 0022 0020     		movs	r0, #0
 2836              	.LVL469:
 2837 0024 A047     		blx	r4
 2838              	.LVL470:
 2839              	.LBE75:
 741:Source\azure_iot_sdk\uamqp\src/cbs.c ****         result = __FAILURE__;
 2840              		.loc 1 741 0 is_stmt 1 discriminator 4
 2841 0026 0848     		ldr	r0, .L159+12
 2842 0028 05E0     		b	.L157
 2843              	.LVL471:
 2844              	.L156:
 742:Source\azure_iot_sdk\uamqp\src/cbs.c ****     }
 743:Source\azure_iot_sdk\uamqp\src/cbs.c ****     else
 744:Source\azure_iot_sdk\uamqp\src/cbs.c ****     {
 745:Source\azure_iot_sdk\uamqp\src/cbs.c ****         /* Codes_SRS_CBS_01_088: [ `cbs_set_trace` shall enable or disable tracing by calling `amqp
 746:Source\azure_iot_sdk\uamqp\src/cbs.c ****         amqp_management_set_trace(cbs->amqp_management, trace_on);
 2845              		.loc 1 746 0
 2846 002a 0068     		ldr	r0, [r0]
 2847              	.LVL472:
 2848 002c FFF7FEFF 		bl	amqp_management_set_trace
 2849              	.LVL473:
 747:Source\azure_iot_sdk\uamqp\src/cbs.c **** 
 748:Source\azure_iot_sdk\uamqp\src/cbs.c ****         /* Codes_SRS_CBS_01_089: [ On success, `cbs_set_trace` shall return 0. ]*/
 749:Source\azure_iot_sdk\uamqp\src/cbs.c ****         result = 0;
 2850              		.loc 1 749 0
 2851 0030 0020     		movs	r0, #0
 2852 0032 00E0     		b	.L157
 2853              	.LVL474:
 2854              	.L158:
 741:Source\azure_iot_sdk\uamqp\src/cbs.c ****     }
 2855              		.loc 1 741 0
 2856 0034 0448     		ldr	r0, .L159+12
 2857              	.LVL475:
 2858              	.L157:
 750:Source\azure_iot_sdk\uamqp\src/cbs.c ****     }
 751:Source\azure_iot_sdk\uamqp\src/cbs.c **** 
 752:Source\azure_iot_sdk\uamqp\src/cbs.c ****     return result;
 753:Source\azure_iot_sdk\uamqp\src/cbs.c **** }
 2859              		.loc 1 753 0
 2860 0036 02B0     		add	sp, sp, #8
 2861              		@ sp needed
 2862 0038 10BD     		pop	{r4, pc}
 2863              	.L160:
 2864 003a C046     		.align	2
ARM GAS  C:\Users\Phuong\AppData\Local\Temp\ccGVgD3r.s 			page 66


 2865              	.L159:
 2866 003c D4040000 		.word	.LC67
 2867 0040 00010000 		.word	.LANCHOR2
 2868 0044 00000000 		.word	.LC1
 2869 0048 E5020000 		.word	741
 2870              		.cfi_endproc
 2871              	.LFE11:
 2872              		.size	cbs_set_trace, .-cbs_set_trace
 2873              		.section	.rodata
 2874              		.align	2
 2875              		.set	.LANCHOR0,. + 0
 2876              		.set	.LANCHOR1,. + 128
 2877              		.set	.LANCHOR2,. + 256
 2878              		.type	__func__.7473, %object
 2879              		.size	__func__.7473, 36
 2880              	__func__.7473:
 2881 0000 6F6E5F75 		.ascii	"on_underlying_amqp_management_error\000"
 2881      6E646572 
 2881      6C79696E 
 2881      675F616D 
 2881      71705F6D 
 2882              		.type	__func__.7430, %object
 2883              		.size	__func__.7430, 44
 2884              	__func__.7430:
 2885 0024 6F6E5F75 		.ascii	"on_underlying_amqp_management_open_complete\000"
 2885      6E646572 
 2885      6C79696E 
 2885      675F616D 
 2885      71705F6D 
 2886              		.type	__func__.7496, %object
 2887              		.size	__func__.7496, 46
 2888              	__func__.7496:
 2889 0050 6F6E5F61 		.ascii	"on_amqp_management_execute_operation_complete\000"
 2889      6D71705F 
 2889      6D616E61 
 2889      67656D65 
 2889      6E745F65 
 2890 007e 0000     		.space	2
 2891              		.type	__func__.7415, %object
 2892              		.size	__func__.7415, 33
 2893              	__func__.7415:
 2894 0080 6164645F 		.ascii	"add_string_key_value_pair_to_map\000"
 2894      73747269 
 2894      6E675F6B 
 2894      65795F76 
 2894      616C7565 
 2895 00a1 000000   		.space	3
 2896              		.type	__func__.7518, %object
 2897              		.size	__func__.7518, 11
 2898              	__func__.7518:
 2899 00a4 6362735F 		.ascii	"cbs_create\000"
 2899      63726561 
 2899      746500
 2900 00af 00       		.space	1
 2901              		.type	__func__.7541, %object
 2902              		.size	__func__.7541, 12
 2903              	__func__.7541:
ARM GAS  C:\Users\Phuong\AppData\Local\Temp\ccGVgD3r.s 			page 67


 2904 00b0 6362735F 		.ascii	"cbs_destroy\000"
 2904      64657374 
 2904      726F7900 
 2905              		.type	__func__.7561, %object
 2906              		.size	__func__.7561, 15
 2907              	__func__.7561:
 2908 00bc 6362735F 		.ascii	"cbs_open_async\000"
 2908      6F70656E 
 2908      5F617379 
 2908      6E6300
 2909 00cb 00       		.space	1
 2910              		.type	__func__.7581, %object
 2911              		.size	__func__.7581, 10
 2912              	__func__.7581:
 2913 00cc 6362735F 		.ascii	"cbs_close\000"
 2913      636C6F73 
 2913      6500
 2914 00d6 0000     		.space	2
 2915              		.type	__func__.7600, %object
 2916              		.size	__func__.7600, 20
 2917              	__func__.7600:
 2918 00d8 6362735F 		.ascii	"cbs_put_token_async\000"
 2918      7075745F 
 2918      746F6B65 
 2918      6E5F6173 
 2918      796E6300 
 2919              		.type	__func__.7644, %object
 2920              		.size	__func__.7644, 23
 2921              	__func__.7644:
 2922 00ec 6362735F 		.ascii	"cbs_delete_token_async\000"
 2922      64656C65 
 2922      74655F74 
 2922      6F6B656E 
 2922      5F617379 
 2923 0103 00       		.space	1
 2924              		.type	__func__.7678, %object
 2925              		.size	__func__.7678, 14
 2926              	__func__.7678:
 2927 0104 6362735F 		.ascii	"cbs_set_trace\000"
 2927      7365745F 
 2927      74726163 
 2927      6500
 2928              		.section	.rodata.str1.4,"aMS",%progbits,1
 2929              		.align	2
 2930              	.LC1:
 2931 0000 536F7572 		.ascii	"Source\\azure_iot_sdk\\uamqp\\src\\cbs.c\000"
 2931      63655C61 
 2931      7A757265 
 2931      5F696F74 
 2931      5F73646B 
 2932 0025 000000   		.space	3
 2933              	.LC3:
 2934 0028 6F6E5F75 		.ascii	"on_underlying_amqp_management_error called with NUL"
 2934      6E646572 
 2934      6C79696E 
 2934      675F616D 
 2934      71705F6D 
ARM GAS  C:\Users\Phuong\AppData\Local\Temp\ccGVgD3r.s 			page 68


 2935 005b 4C20636F 		.ascii	"L context\000"
 2935      6E746578 
 2935      7400
 2936 0065 000000   		.space	3
 2937              	.LC5:
 2938 0068 414D5150 		.ascii	"AMQP management error in unknown state\000"
 2938      206D616E 
 2938      6167656D 
 2938      656E7420 
 2938      6572726F 
 2939 008f 00       		.space	1
 2940              	.LC7:
 2941 0090 556E6578 		.ascii	"Unexpected AMQP error in CLOSED state\000"
 2941      70656374 
 2941      65642041 
 2941      4D515020 
 2941      6572726F 
 2942 00b6 0000     		.space	2
 2943              	.LC11:
 2944 00b8 6F6E5F75 		.ascii	"on_underlying_amqp_management_open_complete called "
 2944      6E646572 
 2944      6C79696E 
 2944      675F616D 
 2944      71705F6D 
 2945 00eb 77697468 		.ascii	"with NULL context\000"
 2945      204E554C 
 2945      4C20636F 
 2945      6E746578 
 2945      7400
 2946 00fd 000000   		.space	3
 2947              	.LC13:
 2948 0100 50534F43 		.ascii	"PSOC6--CBS_OPEN_DEBUGGING_on_underlying_amqp_manage"
 2948      362D2D43 
 2948      42535F4F 
 2948      50454E5F 
 2948      44454255 
 2949 0133 6D656E74 		.ascii	"ment_open_complete--PSOC6\000"
 2949      5F6F7065 
 2949      6E5F636F 
 2949      6D706C65 
 2949      74652D2D 
 2950 014d 000000   		.space	3
 2951              	.LC15:
 2952 0150 414D5150 		.ascii	"AMQP management open complete in unknown state\000"
 2952      206D616E 
 2952      6167656D 
 2952      656E7420 
 2952      6F70656E 
 2953 017f 00       		.space	1
 2954              	.LC17:
 2955 0180 556E6578 		.ascii	"Unexpected AMQP management open complete\000"
 2955      70656374 
 2955      65642041 
 2955      4D515020 
 2955      6D616E61 
 2956 01a9 000000   		.space	3
 2957              	.LC19:
ARM GAS  C:\Users\Phuong\AppData\Local\Temp\ccGVgD3r.s 			page 69


 2958 01ac 556E6578 		.ascii	"Unexpected AMQP management open complete in OPEN\000"
 2958      70656374 
 2958      65642041 
 2958      4D515020 
 2958      6D616E61 
 2959 01dd 000000   		.space	3
 2960              	.LC21:
 2961 01e0 556E6B6E 		.ascii	"Unknown AMQP management state\000"
 2961      6F776E20 
 2961      414D5150 
 2961      206D616E 
 2961      6167656D 
 2962 01fe 0000     		.space	2
 2963              	.LC23:
 2964 0200 50534F43 		.ascii	"PSOC6---AMQP_MANAGEMENT_OPEN_ERROR---PSOC6\000"
 2964      362D2D2D 
 2964      414D5150 
 2964      5F4D414E 
 2964      4147454D 
 2965 022b 00       		.space	1
 2966              	.LC25:
 2967 022c 50534F43 		.ascii	"PSOC6---AMQP_MANAGEMENT_OPEN_CANCELLED---PSOC6\000"
 2967      362D2D2D 
 2967      414D5150 
 2967      5F4D414E 
 2967      4147454D 
 2968 025b 00       		.space	1
 2969              	.LC27:
 2970 025c 50534F43 		.ascii	"PSOC6---AMQP_MANAGEMENT_OPEN_OK---PSOC6\000"
 2970      362D2D2D 
 2970      414D5150 
 2970      5F4D414E 
 2970      4147454D 
 2971              	.LC31:
 2972 0284 6F6E5F61 		.ascii	"on_amqp_management_execute_operation_complete calle"
 2972      6D71705F 
 2972      6D616E61 
 2972      67656D65 
 2972      6E745F65 
 2973 02b7 64207769 		.ascii	"d with NULL context\000"
 2973      7468204E 
 2973      554C4C20 
 2973      636F6E74 
 2973      65787400 
 2974 02cb 00       		.space	1
 2975              	.LC33:
 2976 02cc 4E554C4C 		.ascii	"NULL cbs_operation\000"
 2976      20636273 
 2976      5F6F7065 
 2976      72617469 
 2976      6F6E00
 2977 02df 00       		.space	1
 2978              	.LC35:
 2979 02e0 4661696C 		.ascii	"Failed removing operation from the pending list\000"
 2979      65642072 
 2979      656D6F76 
 2979      696E6720 
ARM GAS  C:\Users\Phuong\AppData\Local\Temp\ccGVgD3r.s 			page 70


 2979      6F706572 
 2980              	.LC39:
 2981 0310 4661696C 		.ascii	"Failed creating value for property key %s\000"
 2981      65642063 
 2981      72656174 
 2981      696E6720 
 2981      76616C75 
 2982 033a 0000     		.space	2
 2983              	.LC41:
 2984 033c 4661696C 		.ascii	"Failed creating value for property value %s\000"
 2984      65642063 
 2984      72656174 
 2984      696E6720 
 2984      76616C75 
 2985              	.LC43:
 2986 0368 4661696C 		.ascii	"Failed inserting key/value pair in the map\000"
 2986      65642069 
 2986      6E736572 
 2986      74696E67 
 2986      206B6579 
 2987 0393 00       		.space	1
 2988              	.LC47:
 2989 0394 4E554C4C 		.ascii	"NULL session handle\000"
 2989      20736573 
 2989      73696F6E 
 2989      2068616E 
 2989      646C6500 
 2990              	.LC49:
 2991 03a8 43616E6E 		.ascii	"Cannot allocate memory for cbs instance.\000"
 2991      6F742061 
 2991      6C6C6F63 
 2991      61746520 
 2991      6D656D6F 
 2992 03d1 000000   		.space	3
 2993              	.LC51:
 2994 03d4 43616E6E 		.ascii	"Cannot allocate pending operations list.\000"
 2994      6F742061 
 2994      6C6C6F63 
 2994      61746520 
 2994      70656E64 
 2995 03fd 000000   		.space	3
 2996              	.LC53:
 2997 0400 24636273 		.ascii	"$cbs\000"
 2997      00
 2998 0405 000000   		.space	3
 2999              	.LC55:
 3000 0408 50534F43 		.ascii	"PSOC6--Cannot create AMQP management instance for t"
 3000      362D2D43 
 3000      616E6E6F 
 3000      74206372 
 3000      65617465 
 3001 043b 68652024 		.ascii	"he $cbs node.--PSOC6\000"
 3001      63627320 
 3001      6E6F6465 
 3001      2E2D2D50 
 3001      534F4336 
 3002              	.LC57:
ARM GAS  C:\Users\Phuong\AppData\Local\Temp\ccGVgD3r.s 			page 71


 3003 0450 73746174 		.ascii	"status-code\000"
 3003      75732D63 
 3003      6F646500 
 3004              	.LC59:
 3005 045c 43616E6E 		.ascii	"Cannot set the override status code key name\000"
 3005      6F742073 
 3005      65742074 
 3005      6865206F 
 3005      76657272 
 3006 0489 000000   		.space	3
 3007              	.LC61:
 3008 048c 73746174 		.ascii	"status-description\000"
 3008      75732D64 
 3008      65736372 
 3008      69707469 
 3008      6F6E00
 3009 049f 00       		.space	1
 3010              	.LC63:
 3011 04a0 43616E6E 		.ascii	"Cannot set the override status description key name"
 3011      6F742073 
 3011      65742074 
 3011      6865206F 
 3011      76657272 
 3012 04d3 00       		.ascii	"\000"
 3013              	.LC67:
 3014 04d4 4E554C4C 		.ascii	"NULL cbs handle\000"
 3014      20636273 
 3014      2068616E 
 3014      646C6500 
 3015              	.LC69:
 3016 04e4 50534F43 		.ascii	"PSOC6---cbs_destroy---PSOC6\000"
 3016      362D2D2D 
 3016      6362735F 
 3016      64657374 
 3016      726F792D 
 3017              	.LC73:
 3018 0500 50534F43 		.ascii	"PSOC6---DEBUGGING_cbs_open_async---PSOC6\000"
 3018      362D2D2D 
 3018      44454255 
 3018      4747494E 
 3018      475F6362 
 3019 0529 000000   		.space	3
 3020              	.LC75:
 3021 052c 42616420 		.ascii	"Bad arguments: cbs = %p, on_cbs_open_complete = %p,"
 3021      61726775 
 3021      6D656E74 
 3021      733A2063 
 3021      6273203D 
 3022 055f 206F6E5F 		.ascii	" on_cbs_error = %p\000"
 3022      6362735F 
 3022      6572726F 
 3022      72203D20 
 3022      257000
 3023 0572 0000     		.space	2
 3024              	.LC77:
 3025 0574 63627320 		.ascii	"cbs instance already open\000"
 3025      696E7374 
ARM GAS  C:\Users\Phuong\AppData\Local\Temp\ccGVgD3r.s 			page 72


 3025      616E6365 
 3025      20616C72 
 3025      65616479 
 3026 058e 0000     		.space	2
 3027              	.LC81:
 3028 0590 50534F43 		.ascii	"PSOC6--Failed_to_open_amqp_async--PSOC6\000"
 3028      362D2D46 
 3028      61696C65 
 3028      645F746F 
 3028      5F6F7065 
 3029              	.LC83:
 3030 05b8 50534F43 		.ascii	"PSOC6---cbs_open_async_successfully---PSOC6\000"
 3030      362D2D2D 
 3030      6362735F 
 3030      6F70656E 
 3030      5F617379 
 3031              	.LC88:
 3032 05e4 416C7265 		.ascii	"Already closed\000"
 3032      61647920 
 3032      636C6F73 
 3032      656400
 3033 05f3 00       		.space	1
 3034              	.LC90:
 3035 05f4 4661696C 		.ascii	"Failed closing AMQP management instance\000"
 3035      65642063 
 3035      6C6F7369 
 3035      6E672041 
 3035      4D515020 
 3036              	.LC94:
 3037 061c 42616420 		.ascii	"Bad arguments: cbs = %p, type = %p, audience = %p, "
 3037      61726775 
 3037      6D656E74 
 3037      733A2063 
 3037      6273203D 
 3038 064f 746F6B65 		.ascii	"token = %p, on_cbs_put_token_complete = %p\000"
 3038      6E203D20 
 3038      25702C20 
 3038      6F6E5F63 
 3038      62735F70 
 3039 067a 0000     		.space	2
 3040              	.LC96:
 3041 067c 70757420 		.ascii	"put token called while closed or in error\000"
 3041      746F6B65 
 3041      6E206361 
 3041      6C6C6564 
 3041      20776869 
 3042 06a6 0000     		.space	2
 3043              	.LC98:
 3044 06a8 6D657373 		.ascii	"message_create failed\000"
 3044      6167655F 
 3044      63726561 
 3044      74652066 
 3044      61696C65 
 3045 06be 0000     		.space	2
 3046              	.LC100:
 3047 06c0 4661696C 		.ascii	"Failed creating token AMQP value\000"
 3047      65642063 
ARM GAS  C:\Users\Phuong\AppData\Local\Temp\ccGVgD3r.s 			page 73


 3047      72656174 
 3047      696E6720 
 3047      746F6B65 
 3048 06e1 000000   		.space	3
 3049              	.LC102:
 3050 06e4 4661696C 		.ascii	"Failed setting the token in the message body\000"
 3050      65642073 
 3050      65747469 
 3050      6E672074 
 3050      68652074 
 3051 0711 000000   		.space	3
 3052              	.LC104:
 3053 0714 4661696C 		.ascii	"Failed creating application properties map\000"
 3053      65642063 
 3053      72656174 
 3053      696E6720 
 3053      6170706C 
 3054 073f 00       		.space	1
 3055              	.LC106:
 3056 0740 6E616D65 		.ascii	"name\000"
 3056      00
 3057 0745 000000   		.space	3
 3058              	.LC108:
 3059 0748 4661696C 		.ascii	"Failed setting message application properties\000"
 3059      65642073 
 3059      65747469 
 3059      6E67206D 
 3059      65737361 
 3060 0776 0000     		.space	2
 3061              	.LC110:
 3062 0778 4661696C 		.ascii	"Failed allocating CBS operation instance\000"
 3062      65642061 
 3062      6C6C6F63 
 3062      6174696E 
 3062      67204342 
 3063 07a1 000000   		.space	3
 3064              	.LC112:
 3065 07a4 4661696C 		.ascii	"Failed adding pending operation to list\000"
 3065      65642061 
 3065      6464696E 
 3065      67207065 
 3065      6E64696E 
 3066              	.LC114:
 3067 07cc 7075742D 		.ascii	"put-token\000"
 3067      746F6B65 
 3067      6E00
 3068 07d6 0000     		.space	2
 3069              	.LC117:
 3070 07d8 4661696C 		.ascii	"Failed starting AMQP management operation\000"
 3070      65642073 
 3070      74617274 
 3070      696E6720 
 3070      414D5150 
 3071 0802 0000     		.space	2
 3072              	.LC121:
 3073 0804 42616420 		.ascii	"Bad arguments: cbs = %p, type = %p, audience = %p, "
 3073      61726775 
ARM GAS  C:\Users\Phuong\AppData\Local\Temp\ccGVgD3r.s 			page 74


 3073      6D656E74 
 3073      733A2063 
 3073      6273203D 
 3074 0837 6F6E5F63 		.ascii	"on_cbs_delete_token_complete = %p\000"
 3074      62735F64 
 3074      656C6574 
 3074      655F746F 
 3074      6B656E5F 
 3075 0859 000000   		.space	3
 3076              	.LC130:
 3077 085c 64656C65 		.ascii	"delete-token\000"
 3077      74652D74 
 3077      6F6B656E 
 3077      00
 3078              		.text
 3079              	.Letext0:
 3080              		.file 2 ".\\Source\\azure_iot_sdk\\c-utility\\inc/azure_c_shared_utility/singlylinkedlist.h"
 3081              		.file 3 ".\\Source\\azure_iot_sdk\\c-utility\\inc/azure_c_shared_utility/xlogging.h"
 3082              		.file 4 ".\\Source\\azure_iot_sdk\\uamqp\\inc/azure_uamqp_c/amqpvalue.h"
 3083              		.file 5 ".\\Source\\azure_iot_sdk\\uamqp\\inc/azure_uamqp_c/session.h"
 3084              		.file 6 ".\\Source\\azure_iot_sdk\\uamqp\\inc/azure_uamqp_c/cbs.h"
 3085              		.file 7 ".\\Source\\azure_iot_sdk\\uamqp\\inc/azure_uamqp_c/message.h"
 3086              		.file 8 ".\\Source\\azure_iot_sdk\\uamqp\\inc/azure_uamqp_c/amqp_management.h"
 3087              		.file 9 "c:\\program files (x86)\\cypress\\psoc creator\\4.2\\psoc creator\\import\\gnu\\arm\\5.4.
 3088              		.section	.debug_info,"",%progbits
 3089              	.Ldebug_info0:
 3090 0000 5E230000 		.4byte	0x235e
 3091 0004 0400     		.2byte	0x4
 3092 0006 00000000 		.4byte	.Ldebug_abbrev0
 3093 000a 04       		.byte	0x4
 3094 000b 01       		.uleb128 0x1
 3095 000c A5020000 		.4byte	.LASF137
 3096 0010 0C       		.byte	0xc
 3097 0011 4C090000 		.4byte	.LASF138
 3098 0015 F1030000 		.4byte	.LASF139
 3099 0019 90000000 		.4byte	.Ldebug_ranges0+0x90
 3100 001d 00000000 		.4byte	0
 3101 0021 00000000 		.4byte	.Ldebug_line0
 3102 0025 02       		.uleb128 0x2
 3103 0026 04       		.byte	0x4
 3104 0027 07       		.byte	0x7
 3105 0028 D9000000 		.4byte	.LASF0
 3106 002c 03       		.uleb128 0x3
 3107 002d 04       		.byte	0x4
 3108 002e 05       		.byte	0x5
 3109 002f 696E7400 		.ascii	"int\000"
 3110 0033 02       		.uleb128 0x2
 3111 0034 08       		.byte	0x8
 3112 0035 05       		.byte	0x5
 3113 0036 7F060000 		.4byte	.LASF1
 3114 003a 02       		.uleb128 0x2
 3115 003b 08       		.byte	0x8
 3116 003c 04       		.byte	0x4
 3117 003d F0070000 		.4byte	.LASF2
 3118 0041 02       		.uleb128 0x2
 3119 0042 01       		.byte	0x1
 3120 0043 06       		.byte	0x6
ARM GAS  C:\Users\Phuong\AppData\Local\Temp\ccGVgD3r.s 			page 75


 3121 0044 020C0000 		.4byte	.LASF3
 3122 0048 02       		.uleb128 0x2
 3123 0049 01       		.byte	0x1
 3124 004a 08       		.byte	0x8
 3125 004b 0D0B0000 		.4byte	.LASF4
 3126 004f 02       		.uleb128 0x2
 3127 0050 02       		.byte	0x2
 3128 0051 05       		.byte	0x5
 3129 0052 80080000 		.4byte	.LASF5
 3130 0056 02       		.uleb128 0x2
 3131 0057 02       		.byte	0x2
 3132 0058 07       		.byte	0x7
 3133 0059 280C0000 		.4byte	.LASF6
 3134 005d 02       		.uleb128 0x2
 3135 005e 04       		.byte	0x4
 3136 005f 05       		.byte	0x5
 3137 0060 8A080000 		.4byte	.LASF7
 3138 0064 02       		.uleb128 0x2
 3139 0065 04       		.byte	0x4
 3140 0066 07       		.byte	0x7
 3141 0067 060A0000 		.4byte	.LASF8
 3142 006b 02       		.uleb128 0x2
 3143 006c 08       		.byte	0x8
 3144 006d 07       		.byte	0x7
 3145 006e 88030000 		.4byte	.LASF9
 3146 0072 02       		.uleb128 0x2
 3147 0073 04       		.byte	0x4
 3148 0074 07       		.byte	0x7
 3149 0075 FD090000 		.4byte	.LASF10
 3150 0079 04       		.uleb128 0x4
 3151 007a 04       		.byte	0x4
 3152 007b 02       		.uleb128 0x2
 3153 007c 01       		.byte	0x1
 3154 007d 08       		.byte	0x8
 3155 007e E9050000 		.4byte	.LASF11
 3156 0082 05       		.uleb128 0x5
 3157 0083 04       		.byte	0x4
 3158 0084 88000000 		.4byte	0x88
 3159 0088 06       		.uleb128 0x6
 3160 0089 7B000000 		.4byte	0x7b
 3161 008d 07       		.uleb128 0x7
 3162 008e 34090000 		.4byte	.LASF12
 3163 0092 02       		.byte	0x2
 3164 0093 0F       		.byte	0xf
 3165 0094 98000000 		.4byte	0x98
 3166 0098 05       		.uleb128 0x5
 3167 0099 04       		.byte	0x4
 3168 009a 9E000000 		.4byte	0x9e
 3169 009e 08       		.uleb128 0x8
 3170 009f EE050000 		.4byte	.LASF14
 3171 00a3 07       		.uleb128 0x7
 3172 00a4 B4000000 		.4byte	.LASF13
 3173 00a8 02       		.byte	0x2
 3174 00a9 10       		.byte	0x10
 3175 00aa AE000000 		.4byte	0xae
 3176 00ae 05       		.uleb128 0x5
 3177 00af 04       		.byte	0x4
ARM GAS  C:\Users\Phuong\AppData\Local\Temp\ccGVgD3r.s 			page 76


 3178 00b0 B4000000 		.4byte	0xb4
 3179 00b4 08       		.uleb128 0x8
 3180 00b5 E9040000 		.4byte	.LASF15
 3181 00b9 02       		.uleb128 0x2
 3182 00ba 01       		.byte	0x1
 3183 00bb 02       		.byte	0x2
 3184 00bc 0F050000 		.4byte	.LASF16
 3185 00c0 09       		.uleb128 0x9
 3186 00c1 4B0B0000 		.4byte	.LASF26
 3187 00c5 01       		.byte	0x1
 3188 00c6 48000000 		.4byte	0x48
 3189 00ca 03       		.byte	0x3
 3190 00cb 22       		.byte	0x22
 3191 00cc E3000000 		.4byte	0xe3
 3192 00d0 0A       		.uleb128 0xa
 3193 00d1 1B080000 		.4byte	.LASF17
 3194 00d5 00       		.byte	0
 3195 00d6 0A       		.uleb128 0xa
 3196 00d7 36060000 		.4byte	.LASF18
 3197 00db 01       		.byte	0x1
 3198 00dc 0A       		.uleb128 0xa
 3199 00dd 930B0000 		.4byte	.LASF19
 3200 00e1 02       		.byte	0x2
 3201 00e2 00       		.byte	0
 3202 00e3 07       		.uleb128 0x7
 3203 00e4 EB060000 		.4byte	.LASF20
 3204 00e8 03       		.byte	0x3
 3205 00e9 27       		.byte	0x27
 3206 00ea C0000000 		.4byte	0xc0
 3207 00ee 07       		.uleb128 0x7
 3208 00ef E6090000 		.4byte	.LASF21
 3209 00f3 03       		.byte	0x3
 3210 00f4 2F       		.byte	0x2f
 3211 00f5 F9000000 		.4byte	0xf9
 3212 00f9 05       		.uleb128 0x5
 3213 00fa 04       		.byte	0x4
 3214 00fb FF000000 		.4byte	0xff
 3215 00ff 0B       		.uleb128 0xb
 3216 0100 24010000 		.4byte	0x124
 3217 0104 0C       		.uleb128 0xc
 3218 0105 E3000000 		.4byte	0xe3
 3219 0109 0C       		.uleb128 0xc
 3220 010a 82000000 		.4byte	0x82
 3221 010e 0C       		.uleb128 0xc
 3222 010f 82000000 		.4byte	0x82
 3223 0113 0C       		.uleb128 0xc
 3224 0114 2C000000 		.4byte	0x2c
 3225 0118 0C       		.uleb128 0xc
 3226 0119 25000000 		.4byte	0x25
 3227 011d 0C       		.uleb128 0xc
 3228 011e 82000000 		.4byte	0x82
 3229 0122 0D       		.uleb128 0xd
 3230 0123 00       		.byte	0
 3231 0124 07       		.uleb128 0x7
 3232 0125 39080000 		.4byte	.LASF22
 3233 0129 04       		.byte	0x4
 3234 012a 15       		.byte	0x15
ARM GAS  C:\Users\Phuong\AppData\Local\Temp\ccGVgD3r.s 			page 77


 3235 012b 2F010000 		.4byte	0x12f
 3236 012f 05       		.uleb128 0x5
 3237 0130 04       		.byte	0x4
 3238 0131 35010000 		.4byte	0x135
 3239 0135 08       		.uleb128 0x8
 3240 0136 37030000 		.4byte	.LASF23
 3241 013a 05       		.uleb128 0x5
 3242 013b 04       		.byte	0x4
 3243 013c 40010000 		.4byte	0x140
 3244 0140 0B       		.uleb128 0xb
 3245 0141 4B010000 		.4byte	0x14b
 3246 0145 0C       		.uleb128 0xc
 3247 0146 79000000 		.4byte	0x79
 3248 014a 00       		.byte	0
 3249 014b 07       		.uleb128 0x7
 3250 014c 8B000000 		.4byte	.LASF24
 3251 0150 05       		.byte	0x5
 3252 0151 26       		.byte	0x26
 3253 0152 56010000 		.4byte	0x156
 3254 0156 05       		.uleb128 0x5
 3255 0157 04       		.byte	0x4
 3256 0158 5C010000 		.4byte	0x15c
 3257 015c 08       		.uleb128 0x8
 3258 015d 6C030000 		.4byte	.LASF25
 3259 0161 09       		.uleb128 0x9
 3260 0162 9F080000 		.4byte	.LASF27
 3261 0166 01       		.byte	0x1
 3262 0167 48000000 		.4byte	0x48
 3263 016b 06       		.byte	0x6
 3264 016c 17       		.byte	0x17
 3265 016d 8A010000 		.4byte	0x18a
 3266 0171 0A       		.uleb128 0xa
 3267 0172 01090000 		.4byte	.LASF28
 3268 0176 00       		.byte	0
 3269 0177 0A       		.uleb128 0xa
 3270 0178 940C0000 		.4byte	.LASF29
 3271 017c 01       		.byte	0x1
 3272 017d 0A       		.uleb128 0xa
 3273 017e BC0B0000 		.4byte	.LASF30
 3274 0182 02       		.byte	0x2
 3275 0183 0A       		.uleb128 0xa
 3276 0184 51050000 		.4byte	.LASF31
 3277 0188 03       		.byte	0x3
 3278 0189 00       		.byte	0
 3279 018a 07       		.uleb128 0x7
 3280 018b 00000000 		.4byte	.LASF32
 3281 018f 06       		.byte	0x6
 3282 0190 17       		.byte	0x17
 3283 0191 61010000 		.4byte	0x161
 3284 0195 09       		.uleb128 0x9
 3285 0196 A4040000 		.4byte	.LASF33
 3286 019a 01       		.byte	0x1
 3287 019b 48000000 		.4byte	0x48
 3288 019f 06       		.byte	0x6
 3289 01a0 1E       		.byte	0x1e
 3290 01a1 B8010000 		.4byte	0x1b8
 3291 01a5 0A       		.uleb128 0xa
ARM GAS  C:\Users\Phuong\AppData\Local\Temp\ccGVgD3r.s 			page 78


 3292 01a6 93080000 		.4byte	.LASF34
 3293 01aa 00       		.byte	0
 3294 01ab 0A       		.uleb128 0xa
 3295 01ac 00050000 		.4byte	.LASF35
 3296 01b0 01       		.byte	0x1
 3297 01b1 0A       		.uleb128 0xa
 3298 01b2 54010000 		.4byte	.LASF36
 3299 01b6 02       		.byte	0x2
 3300 01b7 00       		.byte	0
 3301 01b8 07       		.uleb128 0x7
 3302 01b9 02080000 		.4byte	.LASF37
 3303 01bd 06       		.byte	0x6
 3304 01be 1E       		.byte	0x1e
 3305 01bf 95010000 		.4byte	0x195
 3306 01c3 07       		.uleb128 0x7
 3307 01c4 F1010000 		.4byte	.LASF38
 3308 01c8 06       		.byte	0x6
 3309 01c9 20       		.byte	0x20
 3310 01ca CE010000 		.4byte	0x1ce
 3311 01ce 05       		.uleb128 0x5
 3312 01cf 04       		.byte	0x4
 3313 01d0 D4010000 		.4byte	0x1d4
 3314 01d4 0E       		.uleb128 0xe
 3315 01d5 3B0C0000 		.4byte	.LASF70
 3316 01d9 1C       		.byte	0x1c
 3317 01da 01       		.byte	0x1
 3318 01db 1F       		.byte	0x1f
 3319 01dc 35020000 		.4byte	0x235
 3320 01e0 0F       		.uleb128 0xf
 3321 01e1 87010000 		.4byte	.LASF39
 3322 01e5 01       		.byte	0x1
 3323 01e6 21       		.byte	0x21
 3324 01e7 04030000 		.4byte	0x304
 3325 01eb 00       		.byte	0
 3326 01ec 0F       		.uleb128 0xf
 3327 01ed B8080000 		.4byte	.LASF40
 3328 01f1 01       		.byte	0x1
 3329 01f2 22       		.byte	0x22
 3330 01f3 43030000 		.4byte	0x343
 3331 01f7 04       		.byte	0x4
 3332 01f8 0F       		.uleb128 0xf
 3333 01f9 8D060000 		.4byte	.LASF41
 3334 01fd 01       		.byte	0x1
 3335 01fe 23       		.byte	0x23
 3336 01ff 35020000 		.4byte	0x235
 3337 0203 08       		.byte	0x8
 3338 0204 0F       		.uleb128 0xf
 3339 0205 19060000 		.4byte	.LASF42
 3340 0209 01       		.byte	0x1
 3341 020a 24       		.byte	0x24
 3342 020b 79000000 		.4byte	0x79
 3343 020f 0C       		.byte	0xc
 3344 0210 0F       		.uleb128 0xf
 3345 0211 0C060000 		.4byte	.LASF43
 3346 0215 01       		.byte	0x1
 3347 0216 25       		.byte	0x25
 3348 0217 56020000 		.4byte	0x256
ARM GAS  C:\Users\Phuong\AppData\Local\Temp\ccGVgD3r.s 			page 79


 3349 021b 10       		.byte	0x10
 3350 021c 0F       		.uleb128 0xf
 3351 021d 3F010000 		.4byte	.LASF44
 3352 0221 01       		.byte	0x1
 3353 0222 26       		.byte	0x26
 3354 0223 79000000 		.4byte	0x79
 3355 0227 14       		.byte	0x14
 3356 0228 0F       		.uleb128 0xf
 3357 0229 84070000 		.4byte	.LASF45
 3358 022d 01       		.byte	0x1
 3359 022e 27       		.byte	0x27
 3360 022f 8D000000 		.4byte	0x8d
 3361 0233 18       		.byte	0x18
 3362 0234 00       		.byte	0
 3363 0235 07       		.uleb128 0x7
 3364 0236 5C0B0000 		.4byte	.LASF46
 3365 023a 06       		.byte	0x6
 3366 023b 21       		.byte	0x21
 3367 023c 40020000 		.4byte	0x240
 3368 0240 05       		.uleb128 0x5
 3369 0241 04       		.byte	0x4
 3370 0242 46020000 		.4byte	0x246
 3371 0246 0B       		.uleb128 0xb
 3372 0247 56020000 		.4byte	0x256
 3373 024b 0C       		.uleb128 0xc
 3374 024c 79000000 		.4byte	0x79
 3375 0250 0C       		.uleb128 0xc
 3376 0251 B8010000 		.4byte	0x1b8
 3377 0255 00       		.byte	0
 3378 0256 07       		.uleb128 0x7
 3379 0257 B30C0000 		.4byte	.LASF47
 3380 025b 06       		.byte	0x6
 3381 025c 22       		.byte	0x22
 3382 025d 3A010000 		.4byte	0x13a
 3383 0261 07       		.uleb128 0x7
 3384 0262 52030000 		.4byte	.LASF48
 3385 0266 06       		.byte	0x6
 3386 0267 23       		.byte	0x23
 3387 0268 6C020000 		.4byte	0x26c
 3388 026c 05       		.uleb128 0x5
 3389 026d 04       		.byte	0x4
 3390 026e 72020000 		.4byte	0x272
 3391 0272 0B       		.uleb128 0xb
 3392 0273 8C020000 		.4byte	0x28c
 3393 0277 0C       		.uleb128 0xc
 3394 0278 79000000 		.4byte	0x79
 3395 027c 0C       		.uleb128 0xc
 3396 027d 8A010000 		.4byte	0x18a
 3397 0281 0C       		.uleb128 0xc
 3398 0282 25000000 		.4byte	0x25
 3399 0286 0C       		.uleb128 0xc
 3400 0287 82000000 		.4byte	0x82
 3401 028b 00       		.byte	0
 3402 028c 07       		.uleb128 0x7
 3403 028d 44080000 		.4byte	.LASF49
 3404 0291 07       		.byte	0x7
 3405 0292 24       		.byte	0x24
ARM GAS  C:\Users\Phuong\AppData\Local\Temp\ccGVgD3r.s 			page 80


 3406 0293 97020000 		.4byte	0x297
 3407 0297 05       		.uleb128 0x5
 3408 0298 04       		.byte	0x4
 3409 0299 9D020000 		.4byte	0x29d
 3410 029d 08       		.uleb128 0x8
 3411 029e DD080000 		.4byte	.LASF50
 3412 02a2 09       		.uleb128 0x9
 3413 02a3 E6000000 		.4byte	.LASF51
 3414 02a7 01       		.byte	0x1
 3415 02a8 48000000 		.4byte	0x48
 3416 02ac 08       		.byte	0x8
 3417 02ad 18       		.byte	0x18
 3418 02ae CB020000 		.4byte	0x2cb
 3419 02b2 0A       		.uleb128 0xa
 3420 02b3 5A060000 		.4byte	.LASF52
 3421 02b7 00       		.byte	0
 3422 02b8 0A       		.uleb128 0xa
 3423 02b9 4D070000 		.4byte	.LASF53
 3424 02bd 01       		.byte	0x1
 3425 02be 0A       		.uleb128 0xa
 3426 02bf 3D000000 		.4byte	.LASF54
 3427 02c3 02       		.byte	0x2
 3428 02c4 0A       		.uleb128 0xa
 3429 02c5 9A090000 		.4byte	.LASF55
 3430 02c9 03       		.byte	0x3
 3431 02ca 00       		.byte	0
 3432 02cb 07       		.uleb128 0x7
 3433 02cc 650A0000 		.4byte	.LASF56
 3434 02d0 08       		.byte	0x8
 3435 02d1 18       		.byte	0x18
 3436 02d2 A2020000 		.4byte	0x2a2
 3437 02d6 09       		.uleb128 0x9
 3438 02d7 67010000 		.4byte	.LASF57
 3439 02db 01       		.byte	0x1
 3440 02dc 48000000 		.4byte	0x48
 3441 02e0 08       		.byte	0x8
 3442 02e1 1F       		.byte	0x1f
 3443 02e2 F9020000 		.4byte	0x2f9
 3444 02e6 0A       		.uleb128 0xa
 3445 02e7 550C0000 		.4byte	.LASF58
 3446 02eb 00       		.byte	0
 3447 02ec 0A       		.uleb128 0xa
 3448 02ed C2080000 		.4byte	.LASF59
 3449 02f1 01       		.byte	0x1
 3450 02f2 0A       		.uleb128 0xa
 3451 02f3 B30A0000 		.4byte	.LASF60
 3452 02f7 02       		.byte	0x2
 3453 02f8 00       		.byte	0
 3454 02f9 07       		.uleb128 0x7
 3455 02fa 9F030000 		.4byte	.LASF61
 3456 02fe 08       		.byte	0x8
 3457 02ff 1F       		.byte	0x1f
 3458 0300 D6020000 		.4byte	0x2d6
 3459 0304 07       		.uleb128 0x7
 3460 0305 4E0A0000 		.4byte	.LASF62
 3461 0309 08       		.byte	0x8
 3462 030a 21       		.byte	0x21
ARM GAS  C:\Users\Phuong\AppData\Local\Temp\ccGVgD3r.s 			page 81


 3463 030b 0F030000 		.4byte	0x30f
 3464 030f 05       		.uleb128 0x5
 3465 0310 04       		.byte	0x4
 3466 0311 15030000 		.4byte	0x315
 3467 0315 08       		.uleb128 0x8
 3468 0316 7D090000 		.4byte	.LASF63
 3469 031a 09       		.uleb128 0x9
 3470 031b D8090000 		.4byte	.LASF64
 3471 031f 01       		.byte	0x1
 3472 0320 48000000 		.4byte	0x48
 3473 0324 01       		.byte	0x1
 3474 0325 10       		.byte	0x10
 3475 0326 43030000 		.4byte	0x343
 3476 032a 0A       		.uleb128 0xa
 3477 032b 28080000 		.4byte	.LASF65
 3478 032f 00       		.byte	0
 3479 0330 0A       		.uleb128 0xa
 3480 0331 A2060000 		.4byte	.LASF66
 3481 0335 01       		.byte	0x1
 3482 0336 0A       		.uleb128 0xa
 3483 0337 DC030000 		.4byte	.LASF67
 3484 033b 02       		.byte	0x2
 3485 033c 0A       		.uleb128 0xa
 3486 033d A00B0000 		.4byte	.LASF68
 3487 0341 03       		.byte	0x3
 3488 0342 00       		.byte	0
 3489 0343 07       		.uleb128 0x7
 3490 0344 8A0C0000 		.4byte	.LASF69
 3491 0348 01       		.byte	0x1
 3492 0349 16       		.byte	0x16
 3493 034a 1A030000 		.4byte	0x31a
 3494 034e 0E       		.uleb128 0xe
 3495 034f A2000000 		.4byte	.LASF71
 3496 0353 0C       		.byte	0xc
 3497 0354 01       		.byte	0x1
 3498 0355 18       		.byte	0x18
 3499 0356 7F030000 		.4byte	0x37f
 3500 035a 0F       		.uleb128 0xf
 3501 035b D1060000 		.4byte	.LASF72
 3502 035f 01       		.byte	0x1
 3503 0360 1A       		.byte	0x1a
 3504 0361 61020000 		.4byte	0x261
 3505 0365 00       		.byte	0
 3506 0366 0F       		.uleb128 0xf
 3507 0367 C6010000 		.4byte	.LASF73
 3508 036b 01       		.byte	0x1
 3509 036c 1B       		.byte	0x1b
 3510 036d 79000000 		.4byte	0x79
 3511 0371 04       		.byte	0x4
 3512 0372 0F       		.uleb128 0xf
 3513 0373 84070000 		.4byte	.LASF45
 3514 0377 01       		.byte	0x1
 3515 0378 1C       		.byte	0x1c
 3516 0379 8D000000 		.4byte	0x8d
 3517 037d 08       		.byte	0x8
 3518 037e 00       		.byte	0
 3519 037f 07       		.uleb128 0x7
ARM GAS  C:\Users\Phuong\AppData\Local\Temp\ccGVgD3r.s 			page 82


 3520 0380 8E0A0000 		.4byte	.LASF74
 3521 0384 01       		.byte	0x1
 3522 0385 1D       		.byte	0x1d
 3523 0386 4E030000 		.4byte	0x34e
 3524 038a 07       		.uleb128 0x7
 3525 038b 79020000 		.4byte	.LASF75
 3526 038f 01       		.byte	0x1
 3527 0390 28       		.byte	0x28
 3528 0391 D4010000 		.4byte	0x1d4
 3529 0395 10       		.uleb128 0x10
 3530 0396 2A0A0000 		.4byte	.LASF76
 3531 039a 01       		.byte	0x1
 3532 039b 98       		.byte	0x98
 3533 039c 00000000 		.4byte	.LFB3
 3534 03a0 A0000000 		.4byte	.LFE3-.LFB3
 3535 03a4 01       		.uleb128 0x1
 3536 03a5 9C       		.byte	0x9c
 3537 03a6 04050000 		.4byte	0x504
 3538 03aa 11       		.uleb128 0x11
 3539 03ab B4060000 		.4byte	.LASF78
 3540 03af 01       		.byte	0x1
 3541 03b0 98       		.byte	0x98
 3542 03b1 79000000 		.4byte	0x79
 3543 03b5 00000000 		.4byte	.LLST0
 3544 03b9 12       		.uleb128 0x12
 3545 03ba 4C0C0000 		.4byte	.LASF80
 3546 03be 14050000 		.4byte	0x514
 3547 03c2 05       		.uleb128 0x5
 3548 03c3 03       		.byte	0x3
 3549 03c4 00000000 		.4byte	__func__.7473
 3550 03c8 13       		.uleb128 0x13
 3551 03c9 08000000 		.4byte	.LBB2
 3552 03cd 1C000000 		.4byte	.LBE2-.LBB2
 3553 03d1 22040000 		.4byte	0x422
 3554 03d5 14       		.uleb128 0x14
 3555 03d6 6C00     		.ascii	"l\000"
 3556 03d8 01       		.byte	0x1
 3557 03d9 9D       		.byte	0x9d
 3558 03da EE000000 		.4byte	0xee
 3559 03de AE000000 		.4byte	.LLST1
 3560 03e2 15       		.uleb128 0x15
 3561 03e3 0C000000 		.4byte	.LVL1
 3562 03e7 4E220000 		.4byte	0x224e
 3563 03eb 16       		.uleb128 0x16
 3564 03ec 22000000 		.4byte	.LVL4
 3565 03f0 02       		.uleb128 0x2
 3566 03f1 74       		.byte	0x74
 3567 03f2 00       		.sleb128 0
 3568 03f3 17       		.uleb128 0x17
 3569 03f4 01       		.uleb128 0x1
 3570 03f5 50       		.byte	0x50
 3571 03f6 01       		.uleb128 0x1
 3572 03f7 30       		.byte	0x30
 3573 03f8 17       		.uleb128 0x17
 3574 03f9 01       		.uleb128 0x1
 3575 03fa 51       		.byte	0x51
 3576 03fb 05       		.uleb128 0x5
ARM GAS  C:\Users\Phuong\AppData\Local\Temp\ccGVgD3r.s 			page 83


 3577 03fc 03       		.byte	0x3
 3578 03fd 00000000 		.4byte	.LC1
 3579 0401 17       		.uleb128 0x17
 3580 0402 01       		.uleb128 0x1
 3581 0403 52       		.byte	0x52
 3582 0404 05       		.uleb128 0x5
 3583 0405 03       		.byte	0x3
 3584 0406 00000000 		.4byte	.LANCHOR0
 3585 040a 17       		.uleb128 0x17
 3586 040b 01       		.uleb128 0x1
 3587 040c 53       		.byte	0x53
 3588 040d 02       		.uleb128 0x2
 3589 040e 08       		.byte	0x8
 3590 040f 9D       		.byte	0x9d
 3591 0410 17       		.uleb128 0x17
 3592 0411 02       		.uleb128 0x2
 3593 0412 7D       		.byte	0x7d
 3594 0413 00       		.sleb128 0
 3595 0414 01       		.uleb128 0x1
 3596 0415 31       		.byte	0x31
 3597 0416 17       		.uleb128 0x17
 3598 0417 02       		.uleb128 0x2
 3599 0418 7D       		.byte	0x7d
 3600 0419 04       		.sleb128 4
 3601 041a 05       		.uleb128 0x5
 3602 041b 03       		.byte	0x3
 3603 041c 28000000 		.4byte	.LC3
 3604 0420 00       		.byte	0
 3605 0421 00       		.byte	0
 3606 0422 18       		.uleb128 0x18
 3607 0423 24000000 		.4byte	.LBB3
 3608 0427 64000000 		.4byte	.LBE3-.LBB3
 3609 042b 14       		.uleb128 0x14
 3610 042c 63627300 		.ascii	"cbs\000"
 3611 0430 01       		.byte	0x1
 3612 0431 A1       		.byte	0xa1
 3613 0432 C3010000 		.4byte	0x1c3
 3614 0436 CC000000 		.4byte	.LLST2
 3615 043a 13       		.uleb128 0x13
 3616 043b 32000000 		.4byte	.LBB4
 3617 043f 1C000000 		.4byte	.LBE4-.LBB4
 3618 0443 94040000 		.4byte	0x494
 3619 0447 14       		.uleb128 0x14
 3620 0448 6C00     		.ascii	"l\000"
 3621 044a 01       		.byte	0x1
 3622 044b A6       		.byte	0xa6
 3623 044c EE000000 		.4byte	0xee
 3624 0450 48010000 		.4byte	.LLST3
 3625 0454 15       		.uleb128 0x15
 3626 0455 36000000 		.4byte	.LVL6
 3627 0459 4E220000 		.4byte	0x224e
 3628 045d 16       		.uleb128 0x16
 3629 045e 4C000000 		.4byte	.LVL9
 3630 0462 02       		.uleb128 0x2
 3631 0463 74       		.byte	0x74
 3632 0464 00       		.sleb128 0
 3633 0465 17       		.uleb128 0x17
ARM GAS  C:\Users\Phuong\AppData\Local\Temp\ccGVgD3r.s 			page 84


 3634 0466 01       		.uleb128 0x1
 3635 0467 50       		.byte	0x50
 3636 0468 01       		.uleb128 0x1
 3637 0469 30       		.byte	0x30
 3638 046a 17       		.uleb128 0x17
 3639 046b 01       		.uleb128 0x1
 3640 046c 51       		.byte	0x51
 3641 046d 05       		.uleb128 0x5
 3642 046e 03       		.byte	0x3
 3643 046f 00000000 		.4byte	.LC1
 3644 0473 17       		.uleb128 0x17
 3645 0474 01       		.uleb128 0x1
 3646 0475 52       		.byte	0x52
 3647 0476 05       		.uleb128 0x5
 3648 0477 03       		.byte	0x3
 3649 0478 00000000 		.4byte	.LANCHOR0
 3650 047c 17       		.uleb128 0x17
 3651 047d 01       		.uleb128 0x1
 3652 047e 53       		.byte	0x53
 3653 047f 02       		.uleb128 0x2
 3654 0480 08       		.byte	0x8
 3655 0481 A6       		.byte	0xa6
 3656 0482 17       		.uleb128 0x17
 3657 0483 02       		.uleb128 0x2
 3658 0484 7D       		.byte	0x7d
 3659 0485 00       		.sleb128 0
 3660 0486 01       		.uleb128 0x1
 3661 0487 31       		.byte	0x31
 3662 0488 17       		.uleb128 0x17
 3663 0489 02       		.uleb128 0x2
 3664 048a 7D       		.byte	0x7d
 3665 048b 04       		.sleb128 4
 3666 048c 05       		.uleb128 0x5
 3667 048d 03       		.byte	0x3
 3668 048e 68000000 		.4byte	.LC5
 3669 0492 00       		.byte	0
 3670 0493 00       		.byte	0
 3671 0494 13       		.uleb128 0x13
 3672 0495 4E000000 		.4byte	.LBB5
 3673 0499 1C000000 		.4byte	.LBE5-.LBB5
 3674 049d EE040000 		.4byte	0x4ee
 3675 04a1 14       		.uleb128 0x14
 3676 04a2 6C00     		.ascii	"l\000"
 3677 04a4 01       		.byte	0x1
 3678 04a5 AA       		.byte	0xaa
 3679 04a6 EE000000 		.4byte	0xee
 3680 04aa 66010000 		.4byte	.LLST4
 3681 04ae 15       		.uleb128 0x15
 3682 04af 52000000 		.4byte	.LVL11
 3683 04b3 4E220000 		.4byte	0x224e
 3684 04b7 16       		.uleb128 0x16
 3685 04b8 68000000 		.4byte	.LVL14
 3686 04bc 02       		.uleb128 0x2
 3687 04bd 74       		.byte	0x74
 3688 04be 00       		.sleb128 0
 3689 04bf 17       		.uleb128 0x17
 3690 04c0 01       		.uleb128 0x1
ARM GAS  C:\Users\Phuong\AppData\Local\Temp\ccGVgD3r.s 			page 85


 3691 04c1 50       		.byte	0x50
 3692 04c2 01       		.uleb128 0x1
 3693 04c3 30       		.byte	0x30
 3694 04c4 17       		.uleb128 0x17
 3695 04c5 01       		.uleb128 0x1
 3696 04c6 51       		.byte	0x51
 3697 04c7 05       		.uleb128 0x5
 3698 04c8 03       		.byte	0x3
 3699 04c9 00000000 		.4byte	.LC1
 3700 04cd 17       		.uleb128 0x17
 3701 04ce 01       		.uleb128 0x1
 3702 04cf 52       		.byte	0x52
 3703 04d0 05       		.uleb128 0x5
 3704 04d1 03       		.byte	0x3
 3705 04d2 00000000 		.4byte	.LANCHOR0
 3706 04d6 17       		.uleb128 0x17
 3707 04d7 01       		.uleb128 0x1
 3708 04d8 53       		.byte	0x53
 3709 04d9 02       		.uleb128 0x2
 3710 04da 08       		.byte	0x8
 3711 04db AA       		.byte	0xaa
 3712 04dc 17       		.uleb128 0x17
 3713 04dd 02       		.uleb128 0x2
 3714 04de 7D       		.byte	0x7d
 3715 04df 00       		.sleb128 0
 3716 04e0 01       		.uleb128 0x1
 3717 04e1 31       		.byte	0x31
 3718 04e2 17       		.uleb128 0x17
 3719 04e3 02       		.uleb128 0x2
 3720 04e4 7D       		.byte	0x7d
 3721 04e5 04       		.sleb128 4
 3722 04e6 05       		.uleb128 0x5
 3723 04e7 03       		.byte	0x3
 3724 04e8 90000000 		.4byte	.LC7
 3725 04ec 00       		.byte	0
 3726 04ed 00       		.byte	0
 3727 04ee 15       		.uleb128 0x15
 3728 04ef 74000000 		.4byte	.LVL17
 3729 04f3 59220000 		.4byte	0x2259
 3730 04f7 19       		.uleb128 0x19
 3731 04f8 7C000000 		.4byte	.LVL18
 3732 04fc 17       		.uleb128 0x17
 3733 04fd 01       		.uleb128 0x1
 3734 04fe 51       		.byte	0x51
 3735 04ff 01       		.uleb128 0x1
 3736 0500 31       		.byte	0x31
 3737 0501 00       		.byte	0
 3738 0502 00       		.byte	0
 3739 0503 00       		.byte	0
 3740 0504 1A       		.uleb128 0x1a
 3741 0505 88000000 		.4byte	0x88
 3742 0509 14050000 		.4byte	0x514
 3743 050d 1B       		.uleb128 0x1b
 3744 050e 72000000 		.4byte	0x72
 3745 0512 23       		.byte	0x23
 3746 0513 00       		.byte	0
 3747 0514 06       		.uleb128 0x6
ARM GAS  C:\Users\Phuong\AppData\Local\Temp\ccGVgD3r.s 			page 86


 3748 0515 04050000 		.4byte	0x504
 3749 0519 10       		.uleb128 0x10
 3750 051a D20A0000 		.4byte	.LASF77
 3751 051e 01       		.byte	0x1
 3752 051f 54       		.byte	0x54
 3753 0520 00000000 		.4byte	.LFB2
 3754 0524 A0010000 		.4byte	.LFE2-.LFB2
 3755 0528 01       		.uleb128 0x1
 3756 0529 9C       		.byte	0x9c
 3757 052a DA080000 		.4byte	0x8da
 3758 052e 11       		.uleb128 0x11
 3759 052f B4060000 		.4byte	.LASF78
 3760 0533 01       		.byte	0x1
 3761 0534 54       		.byte	0x54
 3762 0535 79000000 		.4byte	0x79
 3763 0539 84010000 		.4byte	.LLST5
 3764 053d 11       		.uleb128 0x11
 3765 053e F1090000 		.4byte	.LASF79
 3766 0542 01       		.byte	0x1
 3767 0543 54       		.byte	0x54
 3768 0544 F9020000 		.4byte	0x2f9
 3769 0548 06020000 		.4byte	.LLST6
 3770 054c 12       		.uleb128 0x12
 3771 054d 4C0C0000 		.4byte	.LASF80
 3772 0551 EA080000 		.4byte	0x8ea
 3773 0555 05       		.uleb128 0x5
 3774 0556 03       		.byte	0x3
 3775 0557 24000000 		.4byte	__func__.7430
 3776 055b 13       		.uleb128 0x13
 3777 055c 0C000000 		.4byte	.LBB6
 3778 0560 20000000 		.4byte	.LBE6-.LBB6
 3779 0564 B5050000 		.4byte	0x5b5
 3780 0568 14       		.uleb128 0x14
 3781 0569 6C00     		.ascii	"l\000"
 3782 056b 01       		.byte	0x1
 3783 056c 59       		.byte	0x59
 3784 056d EE000000 		.4byte	0xee
 3785 0571 40020000 		.4byte	.LLST7
 3786 0575 15       		.uleb128 0x15
 3787 0576 10000000 		.4byte	.LVL23
 3788 057a 4E220000 		.4byte	0x224e
 3789 057e 16       		.uleb128 0x16
 3790 057f 2A000000 		.4byte	.LVL26
 3791 0583 02       		.uleb128 0x2
 3792 0584 74       		.byte	0x74
 3793 0585 00       		.sleb128 0
 3794 0586 17       		.uleb128 0x17
 3795 0587 01       		.uleb128 0x1
 3796 0588 50       		.byte	0x50
 3797 0589 01       		.uleb128 0x1
 3798 058a 30       		.byte	0x30
 3799 058b 17       		.uleb128 0x17
 3800 058c 01       		.uleb128 0x1
 3801 058d 51       		.byte	0x51
 3802 058e 05       		.uleb128 0x5
 3803 058f 03       		.byte	0x3
 3804 0590 00000000 		.4byte	.LC1
ARM GAS  C:\Users\Phuong\AppData\Local\Temp\ccGVgD3r.s 			page 87


 3805 0594 17       		.uleb128 0x17
 3806 0595 01       		.uleb128 0x1
 3807 0596 52       		.byte	0x52
 3808 0597 05       		.uleb128 0x5
 3809 0598 03       		.byte	0x3
 3810 0599 24000000 		.4byte	.LANCHOR0+36
 3811 059d 17       		.uleb128 0x17
 3812 059e 01       		.uleb128 0x1
 3813 059f 53       		.byte	0x53
 3814 05a0 02       		.uleb128 0x2
 3815 05a1 08       		.byte	0x8
 3816 05a2 59       		.byte	0x59
 3817 05a3 17       		.uleb128 0x17
 3818 05a4 02       		.uleb128 0x2
 3819 05a5 7D       		.byte	0x7d
 3820 05a6 00       		.sleb128 0
 3821 05a7 01       		.uleb128 0x1
 3822 05a8 31       		.byte	0x31
 3823 05a9 17       		.uleb128 0x17
 3824 05aa 02       		.uleb128 0x2
 3825 05ab 7D       		.byte	0x7d
 3826 05ac 04       		.sleb128 4
 3827 05ad 05       		.uleb128 0x5
 3828 05ae 03       		.byte	0x3
 3829 05af B8000000 		.4byte	.LC11
 3830 05b3 00       		.byte	0
 3831 05b4 00       		.byte	0
 3832 05b5 18       		.uleb128 0x18
 3833 05b6 2C000000 		.4byte	.LBB7
 3834 05ba 44010000 		.4byte	.LBE7-.LBB7
 3835 05be 14       		.uleb128 0x14
 3836 05bf 63627300 		.ascii	"cbs\000"
 3837 05c3 01       		.byte	0x1
 3838 05c4 5D       		.byte	0x5d
 3839 05c5 C3010000 		.4byte	0x1c3
 3840 05c9 5E020000 		.4byte	.LLST8
 3841 05cd 13       		.uleb128 0x13
 3842 05ce 2C000000 		.4byte	.LBB8
 3843 05d2 1C000000 		.4byte	.LBE8-.LBB8
 3844 05d6 27060000 		.4byte	0x627
 3845 05da 14       		.uleb128 0x14
 3846 05db 6C00     		.ascii	"l\000"
 3847 05dd 01       		.byte	0x1
 3848 05de 5F       		.byte	0x5f
 3849 05df EE000000 		.4byte	0xee
 3850 05e3 AE020000 		.4byte	.LLST9
 3851 05e7 15       		.uleb128 0x15
 3852 05e8 30000000 		.4byte	.LVL28
 3853 05ec 4E220000 		.4byte	0x224e
 3854 05f0 16       		.uleb128 0x16
 3855 05f1 48000000 		.4byte	.LVL31
 3856 05f5 02       		.uleb128 0x2
 3857 05f6 75       		.byte	0x75
 3858 05f7 00       		.sleb128 0
 3859 05f8 17       		.uleb128 0x17
 3860 05f9 01       		.uleb128 0x1
 3861 05fa 50       		.byte	0x50
ARM GAS  C:\Users\Phuong\AppData\Local\Temp\ccGVgD3r.s 			page 88


 3862 05fb 01       		.uleb128 0x1
 3863 05fc 30       		.byte	0x30
 3864 05fd 17       		.uleb128 0x17
 3865 05fe 01       		.uleb128 0x1
 3866 05ff 51       		.byte	0x51
 3867 0600 05       		.uleb128 0x5
 3868 0601 03       		.byte	0x3
 3869 0602 00000000 		.4byte	.LC1
 3870 0606 17       		.uleb128 0x17
 3871 0607 01       		.uleb128 0x1
 3872 0608 52       		.byte	0x52
 3873 0609 05       		.uleb128 0x5
 3874 060a 03       		.byte	0x3
 3875 060b 24000000 		.4byte	.LANCHOR0+36
 3876 060f 17       		.uleb128 0x17
 3877 0610 01       		.uleb128 0x1
 3878 0611 53       		.byte	0x53
 3879 0612 02       		.uleb128 0x2
 3880 0613 08       		.byte	0x8
 3881 0614 5F       		.byte	0x5f
 3882 0615 17       		.uleb128 0x17
 3883 0616 02       		.uleb128 0x2
 3884 0617 7D       		.byte	0x7d
 3885 0618 00       		.sleb128 0
 3886 0619 01       		.uleb128 0x1
 3887 061a 31       		.byte	0x31
 3888 061b 17       		.uleb128 0x17
 3889 061c 02       		.uleb128 0x2
 3890 061d 7D       		.byte	0x7d
 3891 061e 04       		.sleb128 4
 3892 061f 05       		.uleb128 0x5
 3893 0620 03       		.byte	0x3
 3894 0621 00010000 		.4byte	.LC13
 3895 0625 00       		.byte	0
 3896 0626 00       		.byte	0
 3897 0627 13       		.uleb128 0x13
 3898 0628 5A000000 		.4byte	.LBB9
 3899 062c 20000000 		.4byte	.LBE9-.LBB9
 3900 0630 81060000 		.4byte	0x681
 3901 0634 14       		.uleb128 0x14
 3902 0635 6C00     		.ascii	"l\000"
 3903 0637 01       		.byte	0x1
 3904 0638 63       		.byte	0x63
 3905 0639 EE000000 		.4byte	0xee
 3906 063d ED020000 		.4byte	.LLST10
 3907 0641 15       		.uleb128 0x15
 3908 0642 5E000000 		.4byte	.LVL32
 3909 0646 4E220000 		.4byte	0x224e
 3910 064a 16       		.uleb128 0x16
 3911 064b 78000000 		.4byte	.LVL35
 3912 064f 02       		.uleb128 0x2
 3913 0650 74       		.byte	0x74
 3914 0651 00       		.sleb128 0
 3915 0652 17       		.uleb128 0x17
 3916 0653 01       		.uleb128 0x1
 3917 0654 50       		.byte	0x50
 3918 0655 01       		.uleb128 0x1
ARM GAS  C:\Users\Phuong\AppData\Local\Temp\ccGVgD3r.s 			page 89


 3919 0656 30       		.byte	0x30
 3920 0657 17       		.uleb128 0x17
 3921 0658 01       		.uleb128 0x1
 3922 0659 51       		.byte	0x51
 3923 065a 05       		.uleb128 0x5
 3924 065b 03       		.byte	0x3
 3925 065c 00000000 		.4byte	.LC1
 3926 0660 17       		.uleb128 0x17
 3927 0661 01       		.uleb128 0x1
 3928 0662 52       		.byte	0x52
 3929 0663 05       		.uleb128 0x5
 3930 0664 03       		.byte	0x3
 3931 0665 24000000 		.4byte	.LANCHOR0+36
 3932 0669 17       		.uleb128 0x17
 3933 066a 01       		.uleb128 0x1
 3934 066b 53       		.byte	0x53
 3935 066c 02       		.uleb128 0x2
 3936 066d 08       		.byte	0x8
 3937 066e 63       		.byte	0x63
 3938 066f 17       		.uleb128 0x17
 3939 0670 02       		.uleb128 0x2
 3940 0671 7D       		.byte	0x7d
 3941 0672 00       		.sleb128 0
 3942 0673 01       		.uleb128 0x1
 3943 0674 31       		.byte	0x31
 3944 0675 17       		.uleb128 0x17
 3945 0676 02       		.uleb128 0x2
 3946 0677 7D       		.byte	0x7d
 3947 0678 04       		.sleb128 4
 3948 0679 05       		.uleb128 0x5
 3949 067a 03       		.byte	0x3
 3950 067b 50010000 		.4byte	.LC15
 3951 067f 00       		.byte	0
 3952 0680 00       		.byte	0
 3953 0681 13       		.uleb128 0x13
 3954 0682 7A000000 		.4byte	.LBB10
 3955 0686 1E000000 		.4byte	.LBE10-.LBB10
 3956 068a DB060000 		.4byte	0x6db
 3957 068e 14       		.uleb128 0x14
 3958 068f 6C00     		.ascii	"l\000"
 3959 0691 01       		.byte	0x1
 3960 0692 68       		.byte	0x68
 3961 0693 EE000000 		.4byte	0xee
 3962 0697 0B030000 		.4byte	.LLST11
 3963 069b 15       		.uleb128 0x15
 3964 069c 7E000000 		.4byte	.LVL37
 3965 06a0 4E220000 		.4byte	0x224e
 3966 06a4 16       		.uleb128 0x16
 3967 06a5 96000000 		.4byte	.LVL40
 3968 06a9 02       		.uleb128 0x2
 3969 06aa 74       		.byte	0x74
 3970 06ab 00       		.sleb128 0
 3971 06ac 17       		.uleb128 0x17
 3972 06ad 01       		.uleb128 0x1
 3973 06ae 50       		.byte	0x50
 3974 06af 01       		.uleb128 0x1
 3975 06b0 30       		.byte	0x30
ARM GAS  C:\Users\Phuong\AppData\Local\Temp\ccGVgD3r.s 			page 90


 3976 06b1 17       		.uleb128 0x17
 3977 06b2 01       		.uleb128 0x1
 3978 06b3 51       		.byte	0x51
 3979 06b4 05       		.uleb128 0x5
 3980 06b5 03       		.byte	0x3
 3981 06b6 00000000 		.4byte	.LC1
 3982 06ba 17       		.uleb128 0x17
 3983 06bb 01       		.uleb128 0x1
 3984 06bc 52       		.byte	0x52
 3985 06bd 05       		.uleb128 0x5
 3986 06be 03       		.byte	0x3
 3987 06bf 24000000 		.4byte	.LANCHOR0+36
 3988 06c3 17       		.uleb128 0x17
 3989 06c4 01       		.uleb128 0x1
 3990 06c5 53       		.byte	0x53
 3991 06c6 02       		.uleb128 0x2
 3992 06c7 08       		.byte	0x8
 3993 06c8 68       		.byte	0x68
 3994 06c9 17       		.uleb128 0x17
 3995 06ca 02       		.uleb128 0x2
 3996 06cb 7D       		.byte	0x7d
 3997 06cc 00       		.sleb128 0
 3998 06cd 01       		.uleb128 0x1
 3999 06ce 31       		.byte	0x31
 4000 06cf 17       		.uleb128 0x17
 4001 06d0 02       		.uleb128 0x2
 4002 06d1 7D       		.byte	0x7d
 4003 06d2 04       		.sleb128 4
 4004 06d3 05       		.uleb128 0x5
 4005 06d4 03       		.byte	0x3
 4006 06d5 80010000 		.4byte	.LC17
 4007 06d9 00       		.byte	0
 4008 06da 00       		.byte	0
 4009 06db 13       		.uleb128 0x13
 4010 06dc 98000000 		.4byte	.LBB11
 4011 06e0 1C000000 		.4byte	.LBE11-.LBB11
 4012 06e4 35070000 		.4byte	0x735
 4013 06e8 14       		.uleb128 0x14
 4014 06e9 6C00     		.ascii	"l\000"
 4015 06eb 01       		.byte	0x1
 4016 06ec 6C       		.byte	0x6c
 4017 06ed EE000000 		.4byte	0xee
 4018 06f1 29030000 		.4byte	.LLST12
 4019 06f5 15       		.uleb128 0x15
 4020 06f6 9C000000 		.4byte	.LVL42
 4021 06fa 4E220000 		.4byte	0x224e
 4022 06fe 16       		.uleb128 0x16
 4023 06ff B4000000 		.4byte	.LVL45
 4024 0703 02       		.uleb128 0x2
 4025 0704 75       		.byte	0x75
 4026 0705 00       		.sleb128 0
 4027 0706 17       		.uleb128 0x17
 4028 0707 01       		.uleb128 0x1
 4029 0708 50       		.byte	0x50
 4030 0709 01       		.uleb128 0x1
 4031 070a 30       		.byte	0x30
 4032 070b 17       		.uleb128 0x17
ARM GAS  C:\Users\Phuong\AppData\Local\Temp\ccGVgD3r.s 			page 91


 4033 070c 01       		.uleb128 0x1
 4034 070d 51       		.byte	0x51
 4035 070e 05       		.uleb128 0x5
 4036 070f 03       		.byte	0x3
 4037 0710 00000000 		.4byte	.LC1
 4038 0714 17       		.uleb128 0x17
 4039 0715 01       		.uleb128 0x1
 4040 0716 52       		.byte	0x52
 4041 0717 05       		.uleb128 0x5
 4042 0718 03       		.byte	0x3
 4043 0719 24000000 		.4byte	.LANCHOR0+36
 4044 071d 17       		.uleb128 0x17
 4045 071e 01       		.uleb128 0x1
 4046 071f 53       		.byte	0x53
 4047 0720 02       		.uleb128 0x2
 4048 0721 08       		.byte	0x8
 4049 0722 6C       		.byte	0x6c
 4050 0723 17       		.uleb128 0x17
 4051 0724 02       		.uleb128 0x2
 4052 0725 7D       		.byte	0x7d
 4053 0726 00       		.sleb128 0
 4054 0727 01       		.uleb128 0x1
 4055 0728 31       		.byte	0x31
 4056 0729 17       		.uleb128 0x17
 4057 072a 02       		.uleb128 0x2
 4058 072b 7D       		.byte	0x7d
 4059 072c 04       		.sleb128 4
 4060 072d 05       		.uleb128 0x5
 4061 072e 03       		.byte	0x3
 4062 072f AC010000 		.4byte	.LC19
 4063 0733 00       		.byte	0
 4064 0734 00       		.byte	0
 4065 0735 13       		.uleb128 0x13
 4066 0736 CC000000 		.4byte	.LBB12
 4067 073a 1C000000 		.4byte	.LBE12-.LBB12
 4068 073e 8F070000 		.4byte	0x78f
 4069 0742 14       		.uleb128 0x14
 4070 0743 6C00     		.ascii	"l\000"
 4071 0745 01       		.byte	0x1
 4072 0746 77       		.byte	0x77
 4073 0747 EE000000 		.4byte	0xee
 4074 074b 47030000 		.4byte	.LLST13
 4075 074f 15       		.uleb128 0x15
 4076 0750 D0000000 		.4byte	.LVL48
 4077 0754 4E220000 		.4byte	0x224e
 4078 0758 16       		.uleb128 0x16
 4079 0759 E8000000 		.4byte	.LVL51
 4080 075d 02       		.uleb128 0x2
 4081 075e 75       		.byte	0x75
 4082 075f 00       		.sleb128 0
 4083 0760 17       		.uleb128 0x17
 4084 0761 01       		.uleb128 0x1
 4085 0762 50       		.byte	0x50
 4086 0763 01       		.uleb128 0x1
 4087 0764 30       		.byte	0x30
 4088 0765 17       		.uleb128 0x17
 4089 0766 01       		.uleb128 0x1
ARM GAS  C:\Users\Phuong\AppData\Local\Temp\ccGVgD3r.s 			page 92


 4090 0767 51       		.byte	0x51
 4091 0768 05       		.uleb128 0x5
 4092 0769 03       		.byte	0x3
 4093 076a 00000000 		.4byte	.LC1
 4094 076e 17       		.uleb128 0x17
 4095 076f 01       		.uleb128 0x1
 4096 0770 52       		.byte	0x52
 4097 0771 05       		.uleb128 0x5
 4098 0772 03       		.byte	0x3
 4099 0773 24000000 		.4byte	.LANCHOR0+36
 4100 0777 17       		.uleb128 0x17
 4101 0778 01       		.uleb128 0x1
 4102 0779 53       		.byte	0x53
 4103 077a 02       		.uleb128 0x2
 4104 077b 08       		.byte	0x8
 4105 077c 77       		.byte	0x77
 4106 077d 17       		.uleb128 0x17
 4107 077e 02       		.uleb128 0x2
 4108 077f 7D       		.byte	0x7d
 4109 0780 00       		.sleb128 0
 4110 0781 01       		.uleb128 0x1
 4111 0782 31       		.byte	0x31
 4112 0783 17       		.uleb128 0x17
 4113 0784 02       		.uleb128 0x2
 4114 0785 7D       		.byte	0x7d
 4115 0786 04       		.sleb128 4
 4116 0787 05       		.uleb128 0x5
 4117 0788 03       		.byte	0x3
 4118 0789 E0010000 		.4byte	.LC21
 4119 078d 00       		.byte	0
 4120 078e 00       		.byte	0
 4121 078f 13       		.uleb128 0x13
 4122 0790 EC000000 		.4byte	.LBB13
 4123 0794 1C000000 		.4byte	.LBE13-.LBB13
 4124 0798 E9070000 		.4byte	0x7e9
 4125 079c 14       		.uleb128 0x14
 4126 079d 6C00     		.ascii	"l\000"
 4127 079f 01       		.byte	0x1
 4128 07a0 7B       		.byte	0x7b
 4129 07a1 EE000000 		.4byte	0xee
 4130 07a5 65030000 		.4byte	.LLST14
 4131 07a9 15       		.uleb128 0x15
 4132 07aa F0000000 		.4byte	.LVL52
 4133 07ae 4E220000 		.4byte	0x224e
 4134 07b2 16       		.uleb128 0x16
 4135 07b3 08010000 		.4byte	.LVL55
 4136 07b7 02       		.uleb128 0x2
 4137 07b8 75       		.byte	0x75
 4138 07b9 00       		.sleb128 0
 4139 07ba 17       		.uleb128 0x17
 4140 07bb 01       		.uleb128 0x1
 4141 07bc 50       		.byte	0x50
 4142 07bd 01       		.uleb128 0x1
 4143 07be 30       		.byte	0x30
 4144 07bf 17       		.uleb128 0x17
 4145 07c0 01       		.uleb128 0x1
 4146 07c1 51       		.byte	0x51
ARM GAS  C:\Users\Phuong\AppData\Local\Temp\ccGVgD3r.s 			page 93


 4147 07c2 05       		.uleb128 0x5
 4148 07c3 03       		.byte	0x3
 4149 07c4 00000000 		.4byte	.LC1
 4150 07c8 17       		.uleb128 0x17
 4151 07c9 01       		.uleb128 0x1
 4152 07ca 52       		.byte	0x52
 4153 07cb 05       		.uleb128 0x5
 4154 07cc 03       		.byte	0x3
 4155 07cd 24000000 		.4byte	.LANCHOR0+36
 4156 07d1 17       		.uleb128 0x17
 4157 07d2 01       		.uleb128 0x1
 4158 07d3 53       		.byte	0x53
 4159 07d4 02       		.uleb128 0x2
 4160 07d5 08       		.byte	0x8
 4161 07d6 7B       		.byte	0x7b
 4162 07d7 17       		.uleb128 0x17
 4163 07d8 02       		.uleb128 0x2
 4164 07d9 7D       		.byte	0x7d
 4165 07da 00       		.sleb128 0
 4166 07db 01       		.uleb128 0x1
 4167 07dc 31       		.byte	0x31
 4168 07dd 17       		.uleb128 0x17
 4169 07de 02       		.uleb128 0x2
 4170 07df 7D       		.byte	0x7d
 4171 07e0 04       		.sleb128 4
 4172 07e1 05       		.uleb128 0x5
 4173 07e2 03       		.byte	0x3
 4174 07e3 00020000 		.4byte	.LC23
 4175 07e7 00       		.byte	0
 4176 07e8 00       		.byte	0
 4177 07e9 13       		.uleb128 0x13
 4178 07ea 1C010000 		.4byte	.LBB14
 4179 07ee 1C000000 		.4byte	.LBE14-.LBB14
 4180 07f2 43080000 		.4byte	0x843
 4181 07f6 14       		.uleb128 0x14
 4182 07f7 6C00     		.ascii	"l\000"
 4183 07f9 01       		.byte	0x1
 4184 07fa 84       		.byte	0x84
 4185 07fb EE000000 		.4byte	0xee
 4186 07ff 83030000 		.4byte	.LLST15
 4187 0803 15       		.uleb128 0x15
 4188 0804 20010000 		.4byte	.LVL59
 4189 0808 4E220000 		.4byte	0x224e
 4190 080c 16       		.uleb128 0x16
 4191 080d 38010000 		.4byte	.LVL62
 4192 0811 02       		.uleb128 0x2
 4193 0812 75       		.byte	0x75
 4194 0813 00       		.sleb128 0
 4195 0814 17       		.uleb128 0x17
 4196 0815 01       		.uleb128 0x1
 4197 0816 50       		.byte	0x50
 4198 0817 01       		.uleb128 0x1
 4199 0818 30       		.byte	0x30
 4200 0819 17       		.uleb128 0x17
 4201 081a 01       		.uleb128 0x1
 4202 081b 51       		.byte	0x51
 4203 081c 05       		.uleb128 0x5
ARM GAS  C:\Users\Phuong\AppData\Local\Temp\ccGVgD3r.s 			page 94


 4204 081d 03       		.byte	0x3
 4205 081e 00000000 		.4byte	.LC1
 4206 0822 17       		.uleb128 0x17
 4207 0823 01       		.uleb128 0x1
 4208 0824 52       		.byte	0x52
 4209 0825 05       		.uleb128 0x5
 4210 0826 03       		.byte	0x3
 4211 0827 24000000 		.4byte	.LANCHOR0+36
 4212 082b 17       		.uleb128 0x17
 4213 082c 01       		.uleb128 0x1
 4214 082d 53       		.byte	0x53
 4215 082e 02       		.uleb128 0x2
 4216 082f 08       		.byte	0x8
 4217 0830 84       		.byte	0x84
 4218 0831 17       		.uleb128 0x17
 4219 0832 02       		.uleb128 0x2
 4220 0833 7D       		.byte	0x7d
 4221 0834 00       		.sleb128 0
 4222 0835 01       		.uleb128 0x1
 4223 0836 31       		.byte	0x31
 4224 0837 17       		.uleb128 0x17
 4225 0838 02       		.uleb128 0x2
 4226 0839 7D       		.byte	0x7d
 4227 083a 04       		.sleb128 4
 4228 083b 05       		.uleb128 0x5
 4229 083c 03       		.byte	0x3
 4230 083d 2C020000 		.4byte	.LC25
 4231 0841 00       		.byte	0
 4232 0842 00       		.byte	0
 4233 0843 13       		.uleb128 0x13
 4234 0844 48010000 		.4byte	.LBB15
 4235 0848 1C000000 		.4byte	.LBE15-.LBB15
 4236 084c 9D080000 		.4byte	0x89d
 4237 0850 14       		.uleb128 0x14
 4238 0851 6C00     		.ascii	"l\000"
 4239 0853 01       		.byte	0x1
 4240 0854 8C       		.byte	0x8c
 4241 0855 EE000000 		.4byte	0xee
 4242 0859 A1030000 		.4byte	.LLST16
 4243 085d 15       		.uleb128 0x15
 4244 085e 4C010000 		.4byte	.LVL66
 4245 0862 4E220000 		.4byte	0x224e
 4246 0866 16       		.uleb128 0x16
 4247 0867 64010000 		.4byte	.LVL69
 4248 086b 02       		.uleb128 0x2
 4249 086c 75       		.byte	0x75
 4250 086d 00       		.sleb128 0
 4251 086e 17       		.uleb128 0x17
 4252 086f 01       		.uleb128 0x1
 4253 0870 50       		.byte	0x50
 4254 0871 01       		.uleb128 0x1
 4255 0872 30       		.byte	0x30
 4256 0873 17       		.uleb128 0x17
 4257 0874 01       		.uleb128 0x1
 4258 0875 51       		.byte	0x51
 4259 0876 05       		.uleb128 0x5
 4260 0877 03       		.byte	0x3
ARM GAS  C:\Users\Phuong\AppData\Local\Temp\ccGVgD3r.s 			page 95


 4261 0878 00000000 		.4byte	.LC1
 4262 087c 17       		.uleb128 0x17
 4263 087d 01       		.uleb128 0x1
 4264 087e 52       		.byte	0x52
 4265 087f 05       		.uleb128 0x5
 4266 0880 03       		.byte	0x3
 4267 0881 24000000 		.4byte	.LANCHOR0+36
 4268 0885 17       		.uleb128 0x17
 4269 0886 01       		.uleb128 0x1
 4270 0887 53       		.byte	0x53
 4271 0888 02       		.uleb128 0x2
 4272 0889 08       		.byte	0x8
 4273 088a 8C       		.byte	0x8c
 4274 088b 17       		.uleb128 0x17
 4275 088c 02       		.uleb128 0x2
 4276 088d 7D       		.byte	0x7d
 4277 088e 00       		.sleb128 0
 4278 088f 01       		.uleb128 0x1
 4279 0890 31       		.byte	0x31
 4280 0891 17       		.uleb128 0x17
 4281 0892 02       		.uleb128 0x2
 4282 0893 7D       		.byte	0x7d
 4283 0894 04       		.sleb128 4
 4284 0895 05       		.uleb128 0x5
 4285 0896 03       		.byte	0x3
 4286 0897 5C020000 		.4byte	.LC27
 4287 089b 00       		.byte	0
 4288 089c 00       		.byte	0
 4289 089d 15       		.uleb128 0x15
 4290 089e 0E010000 		.4byte	.LVL56
 4291 08a2 59220000 		.4byte	0x2259
 4292 08a6 1C       		.uleb128 0x1c
 4293 08a7 16010000 		.4byte	.LVL57
 4294 08ab B5080000 		.4byte	0x8b5
 4295 08af 17       		.uleb128 0x17
 4296 08b0 01       		.uleb128 0x1
 4297 08b1 51       		.byte	0x51
 4298 08b2 01       		.uleb128 0x1
 4299 08b3 31       		.byte	0x31
 4300 08b4 00       		.byte	0
 4301 08b5 15       		.uleb128 0x15
 4302 08b6 3E010000 		.4byte	.LVL63
 4303 08ba 59220000 		.4byte	0x2259
 4304 08be 1C       		.uleb128 0x1c
 4305 08bf 46010000 		.4byte	.LVL64
 4306 08c3 CD080000 		.4byte	0x8cd
 4307 08c7 17       		.uleb128 0x17
 4308 08c8 01       		.uleb128 0x1
 4309 08c9 51       		.byte	0x51
 4310 08ca 01       		.uleb128 0x1
 4311 08cb 32       		.byte	0x32
 4312 08cc 00       		.byte	0
 4313 08cd 19       		.uleb128 0x19
 4314 08ce 70010000 		.4byte	.LVL70
 4315 08d2 17       		.uleb128 0x17
 4316 08d3 01       		.uleb128 0x1
 4317 08d4 51       		.byte	0x51
ARM GAS  C:\Users\Phuong\AppData\Local\Temp\ccGVgD3r.s 			page 96


 4318 08d5 01       		.uleb128 0x1
 4319 08d6 30       		.byte	0x30
 4320 08d7 00       		.byte	0
 4321 08d8 00       		.byte	0
 4322 08d9 00       		.byte	0
 4323 08da 1A       		.uleb128 0x1a
 4324 08db 88000000 		.4byte	0x88
 4325 08df EA080000 		.4byte	0x8ea
 4326 08e3 1B       		.uleb128 0x1b
 4327 08e4 72000000 		.4byte	0x72
 4328 08e8 2B       		.byte	0x2b
 4329 08e9 00       		.byte	0
 4330 08ea 06       		.uleb128 0x6
 4331 08eb DA080000 		.4byte	0x8da
 4332 08ef 1D       		.uleb128 0x1d
 4333 08f0 C2070000 		.4byte	.LASF81
 4334 08f4 01       		.byte	0x1
 4335 08f5 BE       		.byte	0xbe
 4336 08f6 00000000 		.4byte	.LFB4
 4337 08fa C0000000 		.4byte	.LFE4-.LFB4
 4338 08fe 01       		.uleb128 0x1
 4339 08ff 9C       		.byte	0x9c
 4340 0900 DB0A0000 		.4byte	0xadb
 4341 0904 11       		.uleb128 0x11
 4342 0905 B4060000 		.4byte	.LASF78
 4343 0909 01       		.byte	0x1
 4344 090a BE       		.byte	0xbe
 4345 090b 79000000 		.4byte	0x79
 4346 090f BF030000 		.4byte	.LLST17
 4347 0913 11       		.uleb128 0x11
 4348 0914 D0050000 		.4byte	.LASF82
 4349 0918 01       		.byte	0x1
 4350 0919 BE       		.byte	0xbe
 4351 091a CB020000 		.4byte	0x2cb
 4352 091e 01040000 		.4byte	.LLST18
 4353 0922 11       		.uleb128 0x11
 4354 0923 B00B0000 		.4byte	.LASF83
 4355 0927 01       		.byte	0x1
 4356 0928 BE       		.byte	0xbe
 4357 0929 25000000 		.4byte	0x25
 4358 092d 3B040000 		.4byte	.LLST19
 4359 0931 11       		.uleb128 0x11
 4360 0932 1A050000 		.4byte	.LASF84
 4361 0936 01       		.byte	0x1
 4362 0937 BE       		.byte	0xbe
 4363 0938 82000000 		.4byte	0x82
 4364 093c 71040000 		.4byte	.LLST20
 4365 0940 1E       		.uleb128 0x1e
 4366 0941 C5000000 		.4byte	.LASF85
 4367 0945 01       		.byte	0x1
 4368 0946 BE       		.byte	0xbe
 4369 0947 8C020000 		.4byte	0x28c
 4370 094b 02       		.uleb128 0x2
 4371 094c 91       		.byte	0x91
 4372 094d 00       		.sleb128 0
 4373 094e 12       		.uleb128 0x12
 4374 094f 4C0C0000 		.4byte	.LASF80
ARM GAS  C:\Users\Phuong\AppData\Local\Temp\ccGVgD3r.s 			page 97


 4375 0953 EB0A0000 		.4byte	0xaeb
 4376 0957 05       		.uleb128 0x5
 4377 0958 03       		.byte	0x3
 4378 0959 50000000 		.4byte	__func__.7496
 4379 095d 13       		.uleb128 0x13
 4380 095e 10000000 		.4byte	.LBB16
 4381 0962 1E000000 		.4byte	.LBE16-.LBB16
 4382 0966 B7090000 		.4byte	0x9b7
 4383 096a 14       		.uleb128 0x14
 4384 096b 6C00     		.ascii	"l\000"
 4385 096d 01       		.byte	0x1
 4386 096e C3       		.byte	0xc3
 4387 096f EE000000 		.4byte	0xee
 4388 0973 B3040000 		.4byte	.LLST21
 4389 0977 15       		.uleb128 0x15
 4390 0978 14000000 		.4byte	.LVL72
 4391 097c 4E220000 		.4byte	0x224e
 4392 0980 16       		.uleb128 0x16
 4393 0981 2C000000 		.4byte	.LVL75
 4394 0985 02       		.uleb128 0x2
 4395 0986 74       		.byte	0x74
 4396 0987 00       		.sleb128 0
 4397 0988 17       		.uleb128 0x17
 4398 0989 01       		.uleb128 0x1
 4399 098a 50       		.byte	0x50
 4400 098b 01       		.uleb128 0x1
 4401 098c 30       		.byte	0x30
 4402 098d 17       		.uleb128 0x17
 4403 098e 01       		.uleb128 0x1
 4404 098f 51       		.byte	0x51
 4405 0990 05       		.uleb128 0x5
 4406 0991 03       		.byte	0x3
 4407 0992 00000000 		.4byte	.LC1
 4408 0996 17       		.uleb128 0x17
 4409 0997 01       		.uleb128 0x1
 4410 0998 52       		.byte	0x52
 4411 0999 05       		.uleb128 0x5
 4412 099a 03       		.byte	0x3
 4413 099b 50000000 		.4byte	.LANCHOR0+80
 4414 099f 17       		.uleb128 0x17
 4415 09a0 01       		.uleb128 0x1
 4416 09a1 53       		.byte	0x53
 4417 09a2 02       		.uleb128 0x2
 4418 09a3 08       		.byte	0x8
 4419 09a4 C3       		.byte	0xc3
 4420 09a5 17       		.uleb128 0x17
 4421 09a6 02       		.uleb128 0x2
 4422 09a7 7D       		.byte	0x7d
 4423 09a8 00       		.sleb128 0
 4424 09a9 01       		.uleb128 0x1
 4425 09aa 31       		.byte	0x31
 4426 09ab 17       		.uleb128 0x17
 4427 09ac 02       		.uleb128 0x2
 4428 09ad 7D       		.byte	0x7d
 4429 09ae 04       		.sleb128 4
 4430 09af 05       		.uleb128 0x5
 4431 09b0 03       		.byte	0x3
ARM GAS  C:\Users\Phuong\AppData\Local\Temp\ccGVgD3r.s 			page 98


 4432 09b1 84020000 		.4byte	.LC31
 4433 09b5 00       		.byte	0
 4434 09b6 00       		.byte	0
 4435 09b7 18       		.uleb128 0x18
 4436 09b8 2E000000 		.4byte	.LBB17
 4437 09bc 78000000 		.4byte	.LBE17-.LBB17
 4438 09c0 1F       		.uleb128 0x1f
 4439 09c1 96040000 		.4byte	.LASF86
 4440 09c5 01       		.byte	0x1
 4441 09c6 C8       		.byte	0xc8
 4442 09c7 F00A0000 		.4byte	0xaf0
 4443 09cb D1040000 		.4byte	.LLST22
 4444 09cf 1F       		.uleb128 0x1f
 4445 09d0 13010000 		.4byte	.LASF87
 4446 09d4 01       		.byte	0x1
 4447 09d5 C9       		.byte	0xc9
 4448 09d6 8A010000 		.4byte	0x18a
 4449 09da 05050000 		.4byte	.LLST23
 4450 09de 13       		.uleb128 0x13
 4451 09df 36000000 		.4byte	.LBB18
 4452 09e3 1E000000 		.4byte	.LBE18-.LBB18
 4453 09e7 380A0000 		.4byte	0xa38
 4454 09eb 14       		.uleb128 0x14
 4455 09ec 6C00     		.ascii	"l\000"
 4456 09ee 01       		.byte	0x1
 4457 09ef CF       		.byte	0xcf
 4458 09f0 EE000000 		.4byte	0xee
 4459 09f4 30050000 		.4byte	.LLST24
 4460 09f8 15       		.uleb128 0x15
 4461 09f9 3A000000 		.4byte	.LVL79
 4462 09fd 4E220000 		.4byte	0x224e
 4463 0a01 16       		.uleb128 0x16
 4464 0a02 52000000 		.4byte	.LVL82
 4465 0a06 02       		.uleb128 0x2
 4466 0a07 74       		.byte	0x74
 4467 0a08 00       		.sleb128 0
 4468 0a09 17       		.uleb128 0x17
 4469 0a0a 01       		.uleb128 0x1
 4470 0a0b 50       		.byte	0x50
 4471 0a0c 01       		.uleb128 0x1
 4472 0a0d 30       		.byte	0x30
 4473 0a0e 17       		.uleb128 0x17
 4474 0a0f 01       		.uleb128 0x1
 4475 0a10 51       		.byte	0x51
 4476 0a11 05       		.uleb128 0x5
 4477 0a12 03       		.byte	0x3
 4478 0a13 00000000 		.4byte	.LC1
 4479 0a17 17       		.uleb128 0x17
 4480 0a18 01       		.uleb128 0x1
 4481 0a19 52       		.byte	0x52
 4482 0a1a 05       		.uleb128 0x5
 4483 0a1b 03       		.byte	0x3
 4484 0a1c 50000000 		.4byte	.LANCHOR0+80
 4485 0a20 17       		.uleb128 0x17
 4486 0a21 01       		.uleb128 0x1
 4487 0a22 53       		.byte	0x53
 4488 0a23 02       		.uleb128 0x2
ARM GAS  C:\Users\Phuong\AppData\Local\Temp\ccGVgD3r.s 			page 99


 4489 0a24 08       		.byte	0x8
 4490 0a25 CF       		.byte	0xcf
 4491 0a26 17       		.uleb128 0x17
 4492 0a27 02       		.uleb128 0x2
 4493 0a28 7D       		.byte	0x7d
 4494 0a29 00       		.sleb128 0
 4495 0a2a 01       		.uleb128 0x1
 4496 0a2b 31       		.byte	0x31
 4497 0a2c 17       		.uleb128 0x17
 4498 0a2d 02       		.uleb128 0x2
 4499 0a2e 7D       		.byte	0x7d
 4500 0a2f 04       		.sleb128 4
 4501 0a30 05       		.uleb128 0x5
 4502 0a31 03       		.byte	0x3
 4503 0a32 CC020000 		.4byte	.LC33
 4504 0a36 00       		.byte	0
 4505 0a37 00       		.byte	0
 4506 0a38 13       		.uleb128 0x13
 4507 0a39 84000000 		.4byte	.LBB19
 4508 0a3d 1C000000 		.4byte	.LBE19-.LBB19
 4509 0a41 920A0000 		.4byte	0xa92
 4510 0a45 14       		.uleb128 0x14
 4511 0a46 6C00     		.ascii	"l\000"
 4512 0a48 01       		.byte	0x1
 4513 0a49 FC       		.byte	0xfc
 4514 0a4a EE000000 		.4byte	0xee
 4515 0a4e 4E050000 		.4byte	.LLST25
 4516 0a52 15       		.uleb128 0x15
 4517 0a53 88000000 		.4byte	.LVL91
 4518 0a57 4E220000 		.4byte	0x224e
 4519 0a5b 16       		.uleb128 0x16
 4520 0a5c A0000000 		.4byte	.LVL94
 4521 0a60 02       		.uleb128 0x2
 4522 0a61 75       		.byte	0x75
 4523 0a62 00       		.sleb128 0
 4524 0a63 17       		.uleb128 0x17
 4525 0a64 01       		.uleb128 0x1
 4526 0a65 50       		.byte	0x50
 4527 0a66 01       		.uleb128 0x1
 4528 0a67 30       		.byte	0x30
 4529 0a68 17       		.uleb128 0x17
 4530 0a69 01       		.uleb128 0x1
 4531 0a6a 51       		.byte	0x51
 4532 0a6b 05       		.uleb128 0x5
 4533 0a6c 03       		.byte	0x3
 4534 0a6d 00000000 		.4byte	.LC1
 4535 0a71 17       		.uleb128 0x17
 4536 0a72 01       		.uleb128 0x1
 4537 0a73 52       		.byte	0x52
 4538 0a74 05       		.uleb128 0x5
 4539 0a75 03       		.byte	0x3
 4540 0a76 50000000 		.4byte	.LANCHOR0+80
 4541 0a7a 17       		.uleb128 0x17
 4542 0a7b 01       		.uleb128 0x1
 4543 0a7c 53       		.byte	0x53
 4544 0a7d 02       		.uleb128 0x2
 4545 0a7e 08       		.byte	0x8
ARM GAS  C:\Users\Phuong\AppData\Local\Temp\ccGVgD3r.s 			page 100


 4546 0a7f FC       		.byte	0xfc
 4547 0a80 17       		.uleb128 0x17
 4548 0a81 02       		.uleb128 0x2
 4549 0a82 7D       		.byte	0x7d
 4550 0a83 00       		.sleb128 0
 4551 0a84 01       		.uleb128 0x1
 4552 0a85 31       		.byte	0x31
 4553 0a86 17       		.uleb128 0x17
 4554 0a87 02       		.uleb128 0x2
 4555 0a88 7D       		.byte	0x7d
 4556 0a89 04       		.sleb128 4
 4557 0a8a 05       		.uleb128 0x5
 4558 0a8b 03       		.byte	0x3
 4559 0a8c E0020000 		.4byte	.LC35
 4560 0a90 00       		.byte	0
 4561 0a91 00       		.byte	0
 4562 0a92 15       		.uleb128 0x15
 4563 0a93 32000000 		.4byte	.LVL77
 4564 0a97 64220000 		.4byte	0x2264
 4565 0a9b 20       		.uleb128 0x20
 4566 0a9c 78000000 		.4byte	.LVL89
 4567 0aa0 02       		.uleb128 0x2
 4568 0aa1 76       		.byte	0x76
 4569 0aa2 00       		.sleb128 0
 4570 0aa3 B50A0000 		.4byte	0xab5
 4571 0aa7 17       		.uleb128 0x17
 4572 0aa8 01       		.uleb128 0x1
 4573 0aa9 52       		.byte	0x52
 4574 0aaa 03       		.uleb128 0x3
 4575 0aab 91       		.byte	0x91
 4576 0aac 64       		.sleb128 -28
 4577 0aad 06       		.byte	0x6
 4578 0aae 17       		.uleb128 0x17
 4579 0aaf 01       		.uleb128 0x1
 4580 0ab0 53       		.byte	0x53
 4581 0ab1 02       		.uleb128 0x2
 4582 0ab2 77       		.byte	0x77
 4583 0ab3 00       		.sleb128 0
 4584 0ab4 00       		.byte	0
 4585 0ab5 21       		.uleb128 0x21
 4586 0ab6 80000000 		.4byte	.LVL90
 4587 0aba 6F220000 		.4byte	0x226f
 4588 0abe C90A0000 		.4byte	0xac9
 4589 0ac2 17       		.uleb128 0x17
 4590 0ac3 01       		.uleb128 0x1
 4591 0ac4 51       		.byte	0x51
 4592 0ac5 02       		.uleb128 0x2
 4593 0ac6 75       		.byte	0x75
 4594 0ac7 00       		.sleb128 0
 4595 0ac8 00       		.byte	0
 4596 0ac9 22       		.uleb128 0x22
 4597 0aca A6000000 		.4byte	.LVL95
 4598 0ace 7A220000 		.4byte	0x227a
 4599 0ad2 17       		.uleb128 0x17
 4600 0ad3 01       		.uleb128 0x1
 4601 0ad4 50       		.byte	0x50
 4602 0ad5 02       		.uleb128 0x2
ARM GAS  C:\Users\Phuong\AppData\Local\Temp\ccGVgD3r.s 			page 101


 4603 0ad6 74       		.byte	0x74
 4604 0ad7 00       		.sleb128 0
 4605 0ad8 00       		.byte	0
 4606 0ad9 00       		.byte	0
 4607 0ada 00       		.byte	0
 4608 0adb 1A       		.uleb128 0x1a
 4609 0adc 88000000 		.4byte	0x88
 4610 0ae0 EB0A0000 		.4byte	0xaeb
 4611 0ae4 1B       		.uleb128 0x1b
 4612 0ae5 72000000 		.4byte	0x72
 4613 0ae9 2D       		.byte	0x2d
 4614 0aea 00       		.byte	0
 4615 0aeb 06       		.uleb128 0x6
 4616 0aec DB0A0000 		.4byte	0xadb
 4617 0af0 05       		.uleb128 0x5
 4618 0af1 04       		.byte	0x4
 4619 0af2 7F030000 		.4byte	0x37f
 4620 0af6 23       		.uleb128 0x23
 4621 0af7 76050000 		.4byte	.LASF140
 4622 0afb 01       		.byte	0x1
 4623 0afc 2A       		.byte	0x2a
 4624 0afd 2C000000 		.4byte	0x2c
 4625 0b01 00000000 		.4byte	.LFB1
 4626 0b05 C0000000 		.4byte	.LFE1-.LFB1
 4627 0b09 01       		.uleb128 0x1
 4628 0b0a 9C       		.byte	0x9c
 4629 0b0b 0B0D0000 		.4byte	0xd0b
 4630 0b0f 24       		.uleb128 0x24
 4631 0b10 6D617000 		.ascii	"map\000"
 4632 0b14 01       		.byte	0x1
 4633 0b15 2A       		.byte	0x2a
 4634 0b16 24010000 		.4byte	0x124
 4635 0b1a 6C050000 		.4byte	.LLST26
 4636 0b1e 24       		.uleb128 0x24
 4637 0b1f 6B657900 		.ascii	"key\000"
 4638 0b23 01       		.byte	0x1
 4639 0b24 2A       		.byte	0x2a
 4640 0b25 82000000 		.4byte	0x82
 4641 0b29 98050000 		.4byte	.LLST27
 4642 0b2d 11       		.uleb128 0x11
 4643 0b2e EB030000 		.4byte	.LASF88
 4644 0b32 01       		.byte	0x1
 4645 0b33 2A       		.byte	0x2a
 4646 0b34 82000000 		.4byte	0x82
 4647 0b38 DD050000 		.4byte	.LLST28
 4648 0b3c 1F       		.uleb128 0x1f
 4649 0b3d 81030000 		.4byte	.LASF89
 4650 0b41 01       		.byte	0x1
 4651 0b42 2C       		.byte	0x2c
 4652 0b43 2C000000 		.4byte	0x2c
 4653 0b47 86060000 		.4byte	.LLST29
 4654 0b4b 1F       		.uleb128 0x1f
 4655 0b4c 030B0000 		.4byte	.LASF90
 4656 0b50 01       		.byte	0x1
 4657 0b51 2E       		.byte	0x2e
 4658 0b52 24010000 		.4byte	0x124
 4659 0b56 BA060000 		.4byte	.LLST30
ARM GAS  C:\Users\Phuong\AppData\Local\Temp\ccGVgD3r.s 			page 102


 4660 0b5a 12       		.uleb128 0x12
 4661 0b5b 4C0C0000 		.4byte	.LASF80
 4662 0b5f 1B0D0000 		.4byte	0xd1b
 4663 0b63 05       		.uleb128 0x5
 4664 0b64 03       		.byte	0x3
 4665 0b65 80000000 		.4byte	__func__.7415
 4666 0b69 13       		.uleb128 0x13
 4667 0b6a 14000000 		.4byte	.LBB20
 4668 0b6e 1C000000 		.4byte	.LBE20-.LBB20
 4669 0b72 CA0B0000 		.4byte	0xbca
 4670 0b76 14       		.uleb128 0x14
 4671 0b77 6C00     		.ascii	"l\000"
 4672 0b79 01       		.byte	0x1
 4673 0b7a 32       		.byte	0x32
 4674 0b7b EE000000 		.4byte	0xee
 4675 0b7f EE060000 		.4byte	.LLST31
 4676 0b83 15       		.uleb128 0x15
 4677 0b84 18000000 		.4byte	.LVL101
 4678 0b88 4E220000 		.4byte	0x224e
 4679 0b8c 16       		.uleb128 0x16
 4680 0b8d 30000000 		.4byte	.LVL104
 4681 0b91 02       		.uleb128 0x2
 4682 0b92 74       		.byte	0x74
 4683 0b93 00       		.sleb128 0
 4684 0b94 17       		.uleb128 0x17
 4685 0b95 01       		.uleb128 0x1
 4686 0b96 50       		.byte	0x50
 4687 0b97 01       		.uleb128 0x1
 4688 0b98 30       		.byte	0x30
 4689 0b99 17       		.uleb128 0x17
 4690 0b9a 01       		.uleb128 0x1
 4691 0b9b 51       		.byte	0x51
 4692 0b9c 05       		.uleb128 0x5
 4693 0b9d 03       		.byte	0x3
 4694 0b9e 00000000 		.4byte	.LC1
 4695 0ba2 17       		.uleb128 0x17
 4696 0ba3 01       		.uleb128 0x1
 4697 0ba4 52       		.byte	0x52
 4698 0ba5 05       		.uleb128 0x5
 4699 0ba6 03       		.byte	0x3
 4700 0ba7 80000000 		.4byte	.LANCHOR1
 4701 0bab 17       		.uleb128 0x17
 4702 0bac 01       		.uleb128 0x1
 4703 0bad 53       		.byte	0x53
 4704 0bae 02       		.uleb128 0x2
 4705 0baf 08       		.byte	0x8
 4706 0bb0 32       		.byte	0x32
 4707 0bb1 17       		.uleb128 0x17
 4708 0bb2 02       		.uleb128 0x2
 4709 0bb3 7D       		.byte	0x7d
 4710 0bb4 00       		.sleb128 0
 4711 0bb5 01       		.uleb128 0x1
 4712 0bb6 31       		.byte	0x31
 4713 0bb7 17       		.uleb128 0x17
 4714 0bb8 02       		.uleb128 0x2
 4715 0bb9 7D       		.byte	0x7d
 4716 0bba 04       		.sleb128 4
ARM GAS  C:\Users\Phuong\AppData\Local\Temp\ccGVgD3r.s 			page 103


 4717 0bbb 05       		.uleb128 0x5
 4718 0bbc 03       		.byte	0x3
 4719 0bbd 10030000 		.4byte	.LC39
 4720 0bc1 17       		.uleb128 0x17
 4721 0bc2 02       		.uleb128 0x2
 4722 0bc3 7D       		.byte	0x7d
 4723 0bc4 08       		.sleb128 8
 4724 0bc5 02       		.uleb128 0x2
 4725 0bc6 75       		.byte	0x75
 4726 0bc7 00       		.sleb128 0
 4727 0bc8 00       		.byte	0
 4728 0bc9 00       		.byte	0
 4729 0bca 13       		.uleb128 0x13
 4730 0bcb 34000000 		.4byte	.LBB21
 4731 0bcf 6E000000 		.4byte	.LBE21-.LBB21
 4732 0bd3 FA0C0000 		.4byte	0xcfa
 4733 0bd7 1F       		.uleb128 0x1f
 4734 0bd8 CD000000 		.4byte	.LASF91
 4735 0bdc 01       		.byte	0x1
 4736 0bdd 37       		.byte	0x37
 4737 0bde 24010000 		.4byte	0x124
 4738 0be2 17070000 		.4byte	.LLST32
 4739 0be6 13       		.uleb128 0x13
 4740 0be7 3E000000 		.4byte	.LBB22
 4741 0beb 1C000000 		.4byte	.LBE22-.LBB22
 4742 0bef 470C0000 		.4byte	0xc47
 4743 0bf3 14       		.uleb128 0x14
 4744 0bf4 6C00     		.ascii	"l\000"
 4745 0bf6 01       		.byte	0x1
 4746 0bf7 3B       		.byte	0x3b
 4747 0bf8 EE000000 		.4byte	0xee
 4748 0bfc 4B070000 		.4byte	.LLST33
 4749 0c00 15       		.uleb128 0x15
 4750 0c01 42000000 		.4byte	.LVL110
 4751 0c05 4E220000 		.4byte	0x224e
 4752 0c09 16       		.uleb128 0x16
 4753 0c0a 5A000000 		.4byte	.LVL113
 4754 0c0e 02       		.uleb128 0x2
 4755 0c0f 75       		.byte	0x75
 4756 0c10 00       		.sleb128 0
 4757 0c11 17       		.uleb128 0x17
 4758 0c12 01       		.uleb128 0x1
 4759 0c13 50       		.byte	0x50
 4760 0c14 01       		.uleb128 0x1
 4761 0c15 30       		.byte	0x30
 4762 0c16 17       		.uleb128 0x17
 4763 0c17 01       		.uleb128 0x1
 4764 0c18 51       		.byte	0x51
 4765 0c19 05       		.uleb128 0x5
 4766 0c1a 03       		.byte	0x3
 4767 0c1b 00000000 		.4byte	.LC1
 4768 0c1f 17       		.uleb128 0x17
 4769 0c20 01       		.uleb128 0x1
 4770 0c21 52       		.byte	0x52
 4771 0c22 05       		.uleb128 0x5
 4772 0c23 03       		.byte	0x3
 4773 0c24 80000000 		.4byte	.LANCHOR1
ARM GAS  C:\Users\Phuong\AppData\Local\Temp\ccGVgD3r.s 			page 104


 4774 0c28 17       		.uleb128 0x17
 4775 0c29 01       		.uleb128 0x1
 4776 0c2a 53       		.byte	0x53
 4777 0c2b 02       		.uleb128 0x2
 4778 0c2c 08       		.byte	0x8
 4779 0c2d 3B       		.byte	0x3b
 4780 0c2e 17       		.uleb128 0x17
 4781 0c2f 02       		.uleb128 0x2
 4782 0c30 7D       		.byte	0x7d
 4783 0c31 00       		.sleb128 0
 4784 0c32 01       		.uleb128 0x1
 4785 0c33 31       		.byte	0x31
 4786 0c34 17       		.uleb128 0x17
 4787 0c35 02       		.uleb128 0x2
 4788 0c36 7D       		.byte	0x7d
 4789 0c37 04       		.sleb128 4
 4790 0c38 05       		.uleb128 0x5
 4791 0c39 03       		.byte	0x3
 4792 0c3a 3C030000 		.4byte	.LC41
 4793 0c3e 17       		.uleb128 0x17
 4794 0c3f 02       		.uleb128 0x2
 4795 0c40 7D       		.byte	0x7d
 4796 0c41 08       		.sleb128 8
 4797 0c42 02       		.uleb128 0x2
 4798 0c43 76       		.byte	0x76
 4799 0c44 00       		.sleb128 0
 4800 0c45 00       		.byte	0
 4801 0c46 00       		.byte	0
 4802 0c47 13       		.uleb128 0x13
 4803 0c48 6C000000 		.4byte	.LBB23
 4804 0c4c 1A000000 		.4byte	.LBE23-.LBB23
 4805 0c50 A10C0000 		.4byte	0xca1
 4806 0c54 14       		.uleb128 0x14
 4807 0c55 6C00     		.ascii	"l\000"
 4808 0c57 01       		.byte	0x1
 4809 0c58 43       		.byte	0x43
 4810 0c59 EE000000 		.4byte	0xee
 4811 0c5d 74070000 		.4byte	.LLST34
 4812 0c61 15       		.uleb128 0x15
 4813 0c62 70000000 		.4byte	.LVL118
 4814 0c66 4E220000 		.4byte	0x224e
 4815 0c6a 16       		.uleb128 0x16
 4816 0c6b 86000000 		.4byte	.LVL121
 4817 0c6f 02       		.uleb128 0x2
 4818 0c70 76       		.byte	0x76
 4819 0c71 00       		.sleb128 0
 4820 0c72 17       		.uleb128 0x17
 4821 0c73 01       		.uleb128 0x1
 4822 0c74 50       		.byte	0x50
 4823 0c75 01       		.uleb128 0x1
 4824 0c76 30       		.byte	0x30
 4825 0c77 17       		.uleb128 0x17
 4826 0c78 01       		.uleb128 0x1
 4827 0c79 51       		.byte	0x51
 4828 0c7a 05       		.uleb128 0x5
 4829 0c7b 03       		.byte	0x3
 4830 0c7c 00000000 		.4byte	.LC1
ARM GAS  C:\Users\Phuong\AppData\Local\Temp\ccGVgD3r.s 			page 105


 4831 0c80 17       		.uleb128 0x17
 4832 0c81 01       		.uleb128 0x1
 4833 0c82 52       		.byte	0x52
 4834 0c83 05       		.uleb128 0x5
 4835 0c84 03       		.byte	0x3
 4836 0c85 80000000 		.4byte	.LANCHOR1
 4837 0c89 17       		.uleb128 0x17
 4838 0c8a 01       		.uleb128 0x1
 4839 0c8b 53       		.byte	0x53
 4840 0c8c 02       		.uleb128 0x2
 4841 0c8d 08       		.byte	0x8
 4842 0c8e 43       		.byte	0x43
 4843 0c8f 17       		.uleb128 0x17
 4844 0c90 02       		.uleb128 0x2
 4845 0c91 7D       		.byte	0x7d
 4846 0c92 00       		.sleb128 0
 4847 0c93 01       		.uleb128 0x1
 4848 0c94 31       		.byte	0x31
 4849 0c95 17       		.uleb128 0x17
 4850 0c96 02       		.uleb128 0x2
 4851 0c97 7D       		.byte	0x7d
 4852 0c98 04       		.sleb128 4
 4853 0c99 05       		.uleb128 0x5
 4854 0c9a 03       		.byte	0x3
 4855 0c9b 68030000 		.4byte	.LC43
 4856 0c9f 00       		.byte	0
 4857 0ca0 00       		.byte	0
 4858 0ca1 21       		.uleb128 0x21
 4859 0ca2 3A000000 		.4byte	.LVL108
 4860 0ca6 85220000 		.4byte	0x2285
 4861 0caa B50C0000 		.4byte	0xcb5
 4862 0cae 17       		.uleb128 0x17
 4863 0caf 01       		.uleb128 0x1
 4864 0cb0 50       		.byte	0x50
 4865 0cb1 02       		.uleb128 0x2
 4866 0cb2 76       		.byte	0x76
 4867 0cb3 00       		.sleb128 0
 4868 0cb4 00       		.byte	0
 4869 0cb5 21       		.uleb128 0x21
 4870 0cb6 68000000 		.4byte	.LVL117
 4871 0cba 90220000 		.4byte	0x2290
 4872 0cbe D50C0000 		.4byte	0xcd5
 4873 0cc2 17       		.uleb128 0x17
 4874 0cc3 01       		.uleb128 0x1
 4875 0cc4 50       		.byte	0x50
 4876 0cc5 02       		.uleb128 0x2
 4877 0cc6 77       		.byte	0x77
 4878 0cc7 00       		.sleb128 0
 4879 0cc8 17       		.uleb128 0x17
 4880 0cc9 01       		.uleb128 0x1
 4881 0cca 51       		.byte	0x51
 4882 0ccb 02       		.uleb128 0x2
 4883 0ccc 74       		.byte	0x74
 4884 0ccd 00       		.sleb128 0
 4885 0cce 17       		.uleb128 0x17
 4886 0ccf 01       		.uleb128 0x1
 4887 0cd0 52       		.byte	0x52
ARM GAS  C:\Users\Phuong\AppData\Local\Temp\ccGVgD3r.s 			page 106


 4888 0cd1 02       		.uleb128 0x2
 4889 0cd2 75       		.byte	0x75
 4890 0cd3 00       		.sleb128 0
 4891 0cd4 00       		.byte	0
 4892 0cd5 21       		.uleb128 0x21
 4893 0cd6 96000000 		.4byte	.LVL127
 4894 0cda 9B220000 		.4byte	0x229b
 4895 0cde E90C0000 		.4byte	0xce9
 4896 0ce2 17       		.uleb128 0x17
 4897 0ce3 01       		.uleb128 0x1
 4898 0ce4 50       		.byte	0x50
 4899 0ce5 02       		.uleb128 0x2
 4900 0ce6 75       		.byte	0x75
 4901 0ce7 00       		.sleb128 0
 4902 0ce8 00       		.byte	0
 4903 0ce9 22       		.uleb128 0x22
 4904 0cea A0000000 		.4byte	.LVL130
 4905 0cee 9B220000 		.4byte	0x229b
 4906 0cf2 17       		.uleb128 0x17
 4907 0cf3 01       		.uleb128 0x1
 4908 0cf4 50       		.byte	0x50
 4909 0cf5 02       		.uleb128 0x2
 4910 0cf6 74       		.byte	0x74
 4911 0cf7 00       		.sleb128 0
 4912 0cf8 00       		.byte	0
 4913 0cf9 00       		.byte	0
 4914 0cfa 22       		.uleb128 0x22
 4915 0cfb 10000000 		.4byte	.LVL99
 4916 0cff 85220000 		.4byte	0x2285
 4917 0d03 17       		.uleb128 0x17
 4918 0d04 01       		.uleb128 0x1
 4919 0d05 50       		.byte	0x50
 4920 0d06 02       		.uleb128 0x2
 4921 0d07 75       		.byte	0x75
 4922 0d08 00       		.sleb128 0
 4923 0d09 00       		.byte	0
 4924 0d0a 00       		.byte	0
 4925 0d0b 1A       		.uleb128 0x1a
 4926 0d0c 88000000 		.4byte	0x88
 4927 0d10 1B0D0000 		.4byte	0xd1b
 4928 0d14 1B       		.uleb128 0x1b
 4929 0d15 72000000 		.4byte	0x72
 4930 0d19 20       		.byte	0x20
 4931 0d1a 00       		.byte	0
 4932 0d1b 06       		.uleb128 0x6
 4933 0d1c 0B0D0000 		.4byte	0xd0b
 4934 0d20 25       		.uleb128 0x25
 4935 0d21 D1030000 		.4byte	.LASF95
 4936 0d25 01       		.byte	0x1
 4937 0d26 0501     		.2byte	0x105
 4938 0d28 C3010000 		.4byte	0x1c3
 4939 0d2c 00000000 		.4byte	.LFB5
 4940 0d30 54010000 		.4byte	.LFE5-.LFB5
 4941 0d34 01       		.uleb128 0x1
 4942 0d35 9C       		.byte	0x9c
 4943 0d36 27100000 		.4byte	0x1027
 4944 0d3a 26       		.uleb128 0x26
ARM GAS  C:\Users\Phuong\AppData\Local\Temp\ccGVgD3r.s 			page 107


 4945 0d3b 9A000000 		.4byte	.LASF92
 4946 0d3f 01       		.byte	0x1
 4947 0d40 0501     		.2byte	0x105
 4948 0d42 4B010000 		.4byte	0x14b
 4949 0d46 9D070000 		.4byte	.LLST35
 4950 0d4a 27       		.uleb128 0x27
 4951 0d4b 63627300 		.ascii	"cbs\000"
 4952 0d4f 01       		.byte	0x1
 4953 0d50 0701     		.2byte	0x107
 4954 0d52 27100000 		.4byte	0x1027
 4955 0d56 75080000 		.4byte	.LLST36
 4956 0d5a 12       		.uleb128 0x12
 4957 0d5b 4C0C0000 		.4byte	.LASF80
 4958 0d5f 3D100000 		.4byte	0x103d
 4959 0d63 05       		.uleb128 0x5
 4960 0d64 03       		.byte	0x3
 4961 0d65 A4000000 		.4byte	__func__.7518
 4962 0d69 28       		.uleb128 0x28
 4963 0d6a 86020000 		.4byte	.LASF141
 4964 0d6e 01       		.byte	0x1
 4965 0d6f 4E01     		.2byte	0x14e
 4966 0d71 22010000 		.4byte	.L54
 4967 0d75 13       		.uleb128 0x13
 4968 0d76 08000000 		.4byte	.LBB24
 4969 0d7a 20000000 		.4byte	.LBE24-.LBB24
 4970 0d7e D10D0000 		.4byte	0xdd1
 4971 0d82 27       		.uleb128 0x27
 4972 0d83 6C00     		.ascii	"l\000"
 4973 0d85 01       		.byte	0x1
 4974 0d86 0C01     		.2byte	0x10c
 4975 0d88 EE000000 		.4byte	0xee
 4976 0d8c CB080000 		.4byte	.LLST37
 4977 0d90 15       		.uleb128 0x15
 4978 0d91 0C000000 		.4byte	.LVL136
 4979 0d95 4E220000 		.4byte	0x224e
 4980 0d99 16       		.uleb128 0x16
 4981 0d9a 28000000 		.4byte	.LVL139
 4982 0d9e 02       		.uleb128 0x2
 4983 0d9f 74       		.byte	0x74
 4984 0da0 00       		.sleb128 0
 4985 0da1 17       		.uleb128 0x17
 4986 0da2 01       		.uleb128 0x1
 4987 0da3 50       		.byte	0x50
 4988 0da4 01       		.uleb128 0x1
 4989 0da5 30       		.byte	0x30
 4990 0da6 17       		.uleb128 0x17
 4991 0da7 01       		.uleb128 0x1
 4992 0da8 51       		.byte	0x51
 4993 0da9 05       		.uleb128 0x5
 4994 0daa 03       		.byte	0x3
 4995 0dab 00000000 		.4byte	.LC1
 4996 0daf 17       		.uleb128 0x17
 4997 0db0 01       		.uleb128 0x1
 4998 0db1 52       		.byte	0x52
 4999 0db2 05       		.uleb128 0x5
 5000 0db3 03       		.byte	0x3
 5001 0db4 A4000000 		.4byte	.LANCHOR1+36
ARM GAS  C:\Users\Phuong\AppData\Local\Temp\ccGVgD3r.s 			page 108


 5002 0db8 17       		.uleb128 0x17
 5003 0db9 01       		.uleb128 0x1
 5004 0dba 53       		.byte	0x53
 5005 0dbb 03       		.uleb128 0x3
 5006 0dbc 0A       		.byte	0xa
 5007 0dbd 0C01     		.2byte	0x10c
 5008 0dbf 17       		.uleb128 0x17
 5009 0dc0 02       		.uleb128 0x2
 5010 0dc1 7D       		.byte	0x7d
 5011 0dc2 00       		.sleb128 0
 5012 0dc3 01       		.uleb128 0x1
 5013 0dc4 31       		.byte	0x31
 5014 0dc5 17       		.uleb128 0x17
 5015 0dc6 02       		.uleb128 0x2
 5016 0dc7 7D       		.byte	0x7d
 5017 0dc8 04       		.sleb128 4
 5018 0dc9 05       		.uleb128 0x5
 5019 0dca 03       		.byte	0x3
 5020 0dcb 94030000 		.4byte	.LC47
 5021 0dcf 00       		.byte	0
 5022 0dd0 00       		.byte	0
 5023 0dd1 13       		.uleb128 0x13
 5024 0dd2 36000000 		.4byte	.LBB25
 5025 0dd6 20000000 		.4byte	.LBE25-.LBB25
 5026 0dda 2D0E0000 		.4byte	0xe2d
 5027 0dde 27       		.uleb128 0x27
 5028 0ddf 6C00     		.ascii	"l\000"
 5029 0de1 01       		.byte	0x1
 5030 0de2 1501     		.2byte	0x115
 5031 0de4 EE000000 		.4byte	0xee
 5032 0de8 F4080000 		.4byte	.LLST38
 5033 0dec 15       		.uleb128 0x15
 5034 0ded 3A000000 		.4byte	.LVL145
 5035 0df1 4E220000 		.4byte	0x224e
 5036 0df5 16       		.uleb128 0x16
 5037 0df6 54000000 		.4byte	.LVL148
 5038 0dfa 02       		.uleb128 0x2
 5039 0dfb 75       		.byte	0x75
 5040 0dfc 00       		.sleb128 0
 5041 0dfd 17       		.uleb128 0x17
 5042 0dfe 01       		.uleb128 0x1
 5043 0dff 50       		.byte	0x50
 5044 0e00 01       		.uleb128 0x1
 5045 0e01 30       		.byte	0x30
 5046 0e02 17       		.uleb128 0x17
 5047 0e03 01       		.uleb128 0x1
 5048 0e04 51       		.byte	0x51
 5049 0e05 05       		.uleb128 0x5
 5050 0e06 03       		.byte	0x3
 5051 0e07 00000000 		.4byte	.LC1
 5052 0e0b 17       		.uleb128 0x17
 5053 0e0c 01       		.uleb128 0x1
 5054 0e0d 52       		.byte	0x52
 5055 0e0e 05       		.uleb128 0x5
 5056 0e0f 03       		.byte	0x3
 5057 0e10 A4000000 		.4byte	.LANCHOR1+36
 5058 0e14 17       		.uleb128 0x17
ARM GAS  C:\Users\Phuong\AppData\Local\Temp\ccGVgD3r.s 			page 109


 5059 0e15 01       		.uleb128 0x1
 5060 0e16 53       		.byte	0x53
 5061 0e17 03       		.uleb128 0x3
 5062 0e18 0A       		.byte	0xa
 5063 0e19 1501     		.2byte	0x115
 5064 0e1b 17       		.uleb128 0x17
 5065 0e1c 02       		.uleb128 0x2
 5066 0e1d 7D       		.byte	0x7d
 5067 0e1e 00       		.sleb128 0
 5068 0e1f 01       		.uleb128 0x1
 5069 0e20 31       		.byte	0x31
 5070 0e21 17       		.uleb128 0x17
 5071 0e22 02       		.uleb128 0x2
 5072 0e23 7D       		.byte	0x7d
 5073 0e24 04       		.sleb128 4
 5074 0e25 05       		.uleb128 0x5
 5075 0e26 03       		.byte	0x3
 5076 0e27 A8030000 		.4byte	.LC49
 5077 0e2b 00       		.byte	0
 5078 0e2c 00       		.byte	0
 5079 0e2d 13       		.uleb128 0x13
 5080 0e2e 60000000 		.4byte	.LBB26
 5081 0e32 20000000 		.4byte	.LBE26-.LBB26
 5082 0e36 890E0000 		.4byte	0xe89
 5083 0e3a 27       		.uleb128 0x27
 5084 0e3b 6C00     		.ascii	"l\000"
 5085 0e3d 01       		.byte	0x1
 5086 0e3e 1E01     		.2byte	0x11e
 5087 0e40 EE000000 		.4byte	0xee
 5088 0e44 12090000 		.4byte	.LLST39
 5089 0e48 15       		.uleb128 0x15
 5090 0e49 64000000 		.4byte	.LVL151
 5091 0e4d 4E220000 		.4byte	0x224e
 5092 0e51 16       		.uleb128 0x16
 5093 0e52 7E000000 		.4byte	.LVL154
 5094 0e56 02       		.uleb128 0x2
 5095 0e57 75       		.byte	0x75
 5096 0e58 00       		.sleb128 0
 5097 0e59 17       		.uleb128 0x17
 5098 0e5a 01       		.uleb128 0x1
 5099 0e5b 50       		.byte	0x50
 5100 0e5c 01       		.uleb128 0x1
 5101 0e5d 30       		.byte	0x30
 5102 0e5e 17       		.uleb128 0x17
 5103 0e5f 01       		.uleb128 0x1
 5104 0e60 51       		.byte	0x51
 5105 0e61 05       		.uleb128 0x5
 5106 0e62 03       		.byte	0x3
 5107 0e63 00000000 		.4byte	.LC1
 5108 0e67 17       		.uleb128 0x17
 5109 0e68 01       		.uleb128 0x1
 5110 0e69 52       		.byte	0x52
 5111 0e6a 05       		.uleb128 0x5
 5112 0e6b 03       		.byte	0x3
 5113 0e6c A4000000 		.4byte	.LANCHOR1+36
 5114 0e70 17       		.uleb128 0x17
 5115 0e71 01       		.uleb128 0x1
ARM GAS  C:\Users\Phuong\AppData\Local\Temp\ccGVgD3r.s 			page 110


 5116 0e72 53       		.byte	0x53
 5117 0e73 03       		.uleb128 0x3
 5118 0e74 0A       		.byte	0xa
 5119 0e75 1E01     		.2byte	0x11e
 5120 0e77 17       		.uleb128 0x17
 5121 0e78 02       		.uleb128 0x2
 5122 0e79 7D       		.byte	0x7d
 5123 0e7a 00       		.sleb128 0
 5124 0e7b 01       		.uleb128 0x1
 5125 0e7c 31       		.byte	0x31
 5126 0e7d 17       		.uleb128 0x17
 5127 0e7e 02       		.uleb128 0x2
 5128 0e7f 7D       		.byte	0x7d
 5129 0e80 04       		.sleb128 4
 5130 0e81 05       		.uleb128 0x5
 5131 0e82 03       		.byte	0x3
 5132 0e83 D4030000 		.4byte	.LC51
 5133 0e87 00       		.byte	0
 5134 0e88 00       		.byte	0
 5135 0e89 13       		.uleb128 0x13
 5136 0e8a 8E000000 		.4byte	.LBB27
 5137 0e8e 20000000 		.4byte	.LBE27-.LBB27
 5138 0e92 E50E0000 		.4byte	0xee5
 5139 0e96 27       		.uleb128 0x27
 5140 0e97 6C00     		.ascii	"l\000"
 5141 0e99 01       		.byte	0x1
 5142 0e9a 2801     		.2byte	0x128
 5143 0e9c EE000000 		.4byte	0xee
 5144 0ea0 30090000 		.4byte	.LLST40
 5145 0ea4 15       		.uleb128 0x15
 5146 0ea5 92000000 		.4byte	.LVL157
 5147 0ea9 4E220000 		.4byte	0x224e
 5148 0ead 16       		.uleb128 0x16
 5149 0eae AC000000 		.4byte	.LVL160
 5150 0eb2 02       		.uleb128 0x2
 5151 0eb3 75       		.byte	0x75
 5152 0eb4 00       		.sleb128 0
 5153 0eb5 17       		.uleb128 0x17
 5154 0eb6 01       		.uleb128 0x1
 5155 0eb7 50       		.byte	0x50
 5156 0eb8 01       		.uleb128 0x1
 5157 0eb9 30       		.byte	0x30
 5158 0eba 17       		.uleb128 0x17
 5159 0ebb 01       		.uleb128 0x1
 5160 0ebc 51       		.byte	0x51
 5161 0ebd 05       		.uleb128 0x5
 5162 0ebe 03       		.byte	0x3
 5163 0ebf 00000000 		.4byte	.LC1
 5164 0ec3 17       		.uleb128 0x17
 5165 0ec4 01       		.uleb128 0x1
 5166 0ec5 52       		.byte	0x52
 5167 0ec6 05       		.uleb128 0x5
 5168 0ec7 03       		.byte	0x3
 5169 0ec8 A4000000 		.4byte	.LANCHOR1+36
 5170 0ecc 17       		.uleb128 0x17
 5171 0ecd 01       		.uleb128 0x1
 5172 0ece 53       		.byte	0x53
ARM GAS  C:\Users\Phuong\AppData\Local\Temp\ccGVgD3r.s 			page 111


 5173 0ecf 03       		.uleb128 0x3
 5174 0ed0 0A       		.byte	0xa
 5175 0ed1 2801     		.2byte	0x128
 5176 0ed3 17       		.uleb128 0x17
 5177 0ed4 02       		.uleb128 0x2
 5178 0ed5 7D       		.byte	0x7d
 5179 0ed6 00       		.sleb128 0
 5180 0ed7 01       		.uleb128 0x1
 5181 0ed8 31       		.byte	0x31
 5182 0ed9 17       		.uleb128 0x17
 5183 0eda 02       		.uleb128 0x2
 5184 0edb 7D       		.byte	0x7d
 5185 0edc 04       		.sleb128 4
 5186 0edd 05       		.uleb128 0x5
 5187 0ede 03       		.byte	0x3
 5188 0edf 08040000 		.4byte	.LC55
 5189 0ee3 00       		.byte	0
 5190 0ee4 00       		.byte	0
 5191 0ee5 13       		.uleb128 0x13
 5192 0ee6 B8000000 		.4byte	.LBB28
 5193 0eea 20000000 		.4byte	.LBE28-.LBB28
 5194 0eee 410F0000 		.4byte	0xf41
 5195 0ef2 27       		.uleb128 0x27
 5196 0ef3 6C00     		.ascii	"l\000"
 5197 0ef5 01       		.byte	0x1
 5198 0ef6 3001     		.2byte	0x130
 5199 0ef8 EE000000 		.4byte	0xee
 5200 0efc 4E090000 		.4byte	.LLST41
 5201 0f00 15       		.uleb128 0x15
 5202 0f01 BC000000 		.4byte	.LVL163
 5203 0f05 4E220000 		.4byte	0x224e
 5204 0f09 16       		.uleb128 0x16
 5205 0f0a D6000000 		.4byte	.LVL166
 5206 0f0e 02       		.uleb128 0x2
 5207 0f0f 75       		.byte	0x75
 5208 0f10 00       		.sleb128 0
 5209 0f11 17       		.uleb128 0x17
 5210 0f12 01       		.uleb128 0x1
 5211 0f13 50       		.byte	0x50
 5212 0f14 01       		.uleb128 0x1
 5213 0f15 30       		.byte	0x30
 5214 0f16 17       		.uleb128 0x17
 5215 0f17 01       		.uleb128 0x1
 5216 0f18 51       		.byte	0x51
 5217 0f19 05       		.uleb128 0x5
 5218 0f1a 03       		.byte	0x3
 5219 0f1b 00000000 		.4byte	.LC1
 5220 0f1f 17       		.uleb128 0x17
 5221 0f20 01       		.uleb128 0x1
 5222 0f21 52       		.byte	0x52
 5223 0f22 05       		.uleb128 0x5
 5224 0f23 03       		.byte	0x3
 5225 0f24 A4000000 		.4byte	.LANCHOR1+36
 5226 0f28 17       		.uleb128 0x17
 5227 0f29 01       		.uleb128 0x1
 5228 0f2a 53       		.byte	0x53
 5229 0f2b 03       		.uleb128 0x3
ARM GAS  C:\Users\Phuong\AppData\Local\Temp\ccGVgD3r.s 			page 112


 5230 0f2c 0A       		.byte	0xa
 5231 0f2d 3001     		.2byte	0x130
 5232 0f2f 17       		.uleb128 0x17
 5233 0f30 02       		.uleb128 0x2
 5234 0f31 7D       		.byte	0x7d
 5235 0f32 00       		.sleb128 0
 5236 0f33 01       		.uleb128 0x1
 5237 0f34 31       		.byte	0x31
 5238 0f35 17       		.uleb128 0x17
 5239 0f36 02       		.uleb128 0x2
 5240 0f37 7D       		.byte	0x7d
 5241 0f38 04       		.sleb128 4
 5242 0f39 05       		.uleb128 0x5
 5243 0f3a 03       		.byte	0x3
 5244 0f3b 5C040000 		.4byte	.LC59
 5245 0f3f 00       		.byte	0
 5246 0f40 00       		.byte	0
 5247 0f41 13       		.uleb128 0x13
 5248 0f42 E4000000 		.4byte	.LBB29
 5249 0f46 20000000 		.4byte	.LBE29-.LBB29
 5250 0f4a 9D0F0000 		.4byte	0xf9d
 5251 0f4e 27       		.uleb128 0x27
 5252 0f4f 6C00     		.ascii	"l\000"
 5253 0f51 01       		.byte	0x1
 5254 0f52 3801     		.2byte	0x138
 5255 0f54 EE000000 		.4byte	0xee
 5256 0f58 6C090000 		.4byte	.LLST42
 5257 0f5c 15       		.uleb128 0x15
 5258 0f5d E8000000 		.4byte	.LVL169
 5259 0f61 4E220000 		.4byte	0x224e
 5260 0f65 16       		.uleb128 0x16
 5261 0f66 02010000 		.4byte	.LVL172
 5262 0f6a 02       		.uleb128 0x2
 5263 0f6b 75       		.byte	0x75
 5264 0f6c 00       		.sleb128 0
 5265 0f6d 17       		.uleb128 0x17
 5266 0f6e 01       		.uleb128 0x1
 5267 0f6f 50       		.byte	0x50
 5268 0f70 01       		.uleb128 0x1
 5269 0f71 30       		.byte	0x30
 5270 0f72 17       		.uleb128 0x17
 5271 0f73 01       		.uleb128 0x1
 5272 0f74 51       		.byte	0x51
 5273 0f75 05       		.uleb128 0x5
 5274 0f76 03       		.byte	0x3
 5275 0f77 00000000 		.4byte	.LC1
 5276 0f7b 17       		.uleb128 0x17
 5277 0f7c 01       		.uleb128 0x1
 5278 0f7d 52       		.byte	0x52
 5279 0f7e 05       		.uleb128 0x5
 5280 0f7f 03       		.byte	0x3
 5281 0f80 A4000000 		.4byte	.LANCHOR1+36
 5282 0f84 17       		.uleb128 0x17
 5283 0f85 01       		.uleb128 0x1
 5284 0f86 53       		.byte	0x53
 5285 0f87 03       		.uleb128 0x3
 5286 0f88 0A       		.byte	0xa
ARM GAS  C:\Users\Phuong\AppData\Local\Temp\ccGVgD3r.s 			page 113


 5287 0f89 3801     		.2byte	0x138
 5288 0f8b 17       		.uleb128 0x17
 5289 0f8c 02       		.uleb128 0x2
 5290 0f8d 7D       		.byte	0x7d
 5291 0f8e 00       		.sleb128 0
 5292 0f8f 01       		.uleb128 0x1
 5293 0f90 31       		.byte	0x31
 5294 0f91 17       		.uleb128 0x17
 5295 0f92 02       		.uleb128 0x2
 5296 0f93 7D       		.byte	0x7d
 5297 0f94 04       		.sleb128 4
 5298 0f95 05       		.uleb128 0x5
 5299 0f96 03       		.byte	0x3
 5300 0f97 A0040000 		.4byte	.LC63
 5301 0f9b 00       		.byte	0
 5302 0f9c 00       		.byte	0
 5303 0f9d 21       		.uleb128 0x21
 5304 0f9e 32000000 		.4byte	.LVL143
 5305 0fa2 A6220000 		.4byte	0x22a6
 5306 0fa6 B00F0000 		.4byte	0xfb0
 5307 0faa 17       		.uleb128 0x17
 5308 0fab 01       		.uleb128 0x1
 5309 0fac 50       		.byte	0x50
 5310 0fad 01       		.uleb128 0x1
 5311 0fae 4C       		.byte	0x4c
 5312 0faf 00       		.byte	0
 5313 0fb0 15       		.uleb128 0x15
 5314 0fb1 5A000000 		.4byte	.LVL150
 5315 0fb5 B1220000 		.4byte	0x22b1
 5316 0fb9 21       		.uleb128 0x21
 5317 0fba 88000000 		.4byte	.LVL156
 5318 0fbe BC220000 		.4byte	0x22bc
 5319 0fc2 D60F0000 		.4byte	0xfd6
 5320 0fc6 17       		.uleb128 0x17
 5321 0fc7 01       		.uleb128 0x1
 5322 0fc8 50       		.byte	0x50
 5323 0fc9 02       		.uleb128 0x2
 5324 0fca 75       		.byte	0x75
 5325 0fcb 00       		.sleb128 0
 5326 0fcc 17       		.uleb128 0x17
 5327 0fcd 01       		.uleb128 0x1
 5328 0fce 51       		.byte	0x51
 5329 0fcf 05       		.uleb128 0x5
 5330 0fd0 03       		.byte	0x3
 5331 0fd1 00040000 		.4byte	.LC53
 5332 0fd5 00       		.byte	0
 5333 0fd6 21       		.uleb128 0x21
 5334 0fd7 B4000000 		.4byte	.LVL162
 5335 0fdb C7220000 		.4byte	0x22c7
 5336 0fdf ED0F0000 		.4byte	0xfed
 5337 0fe3 17       		.uleb128 0x17
 5338 0fe4 01       		.uleb128 0x1
 5339 0fe5 51       		.byte	0x51
 5340 0fe6 05       		.uleb128 0x5
 5341 0fe7 03       		.byte	0x3
 5342 0fe8 50040000 		.4byte	.LC57
 5343 0fec 00       		.byte	0
ARM GAS  C:\Users\Phuong\AppData\Local\Temp\ccGVgD3r.s 			page 114


 5344 0fed 21       		.uleb128 0x21
 5345 0fee E0000000 		.4byte	.LVL168
 5346 0ff2 D2220000 		.4byte	0x22d2
 5347 0ff6 04100000 		.4byte	0x1004
 5348 0ffa 17       		.uleb128 0x17
 5349 0ffb 01       		.uleb128 0x1
 5350 0ffc 51       		.byte	0x51
 5351 0ffd 05       		.uleb128 0x5
 5352 0ffe 03       		.byte	0x3
 5353 0fff 8C040000 		.4byte	.LC61
 5354 1003 00       		.byte	0
 5355 1004 15       		.uleb128 0x15
 5356 1005 10010000 		.4byte	.LVL175
 5357 1009 DD220000 		.4byte	0x22dd
 5358 100d 15       		.uleb128 0x15
 5359 100e 16010000 		.4byte	.LVL176
 5360 1012 E8220000 		.4byte	0x22e8
 5361 1016 22       		.uleb128 0x22
 5362 1017 1C010000 		.4byte	.LVL177
 5363 101b 7A220000 		.4byte	0x227a
 5364 101f 17       		.uleb128 0x17
 5365 1020 01       		.uleb128 0x1
 5366 1021 50       		.byte	0x50
 5367 1022 02       		.uleb128 0x2
 5368 1023 74       		.byte	0x74
 5369 1024 00       		.sleb128 0
 5370 1025 00       		.byte	0
 5371 1026 00       		.byte	0
 5372 1027 05       		.uleb128 0x5
 5373 1028 04       		.byte	0x4
 5374 1029 8A030000 		.4byte	0x38a
 5375 102d 1A       		.uleb128 0x1a
 5376 102e 88000000 		.4byte	0x88
 5377 1032 3D100000 		.4byte	0x103d
 5378 1036 1B       		.uleb128 0x1b
 5379 1037 72000000 		.4byte	0x72
 5380 103b 0A       		.byte	0xa
 5381 103c 00       		.byte	0
 5382 103d 06       		.uleb128 0x6
 5383 103e 2D100000 		.4byte	0x102d
 5384 1042 29       		.uleb128 0x29
 5385 1043 CC090000 		.4byte	.LASF142
 5386 1047 01       		.byte	0x1
 5387 1048 5201     		.2byte	0x152
 5388 104a 00000000 		.4byte	.LFB6
 5389 104e A8000000 		.4byte	.LFE6-.LFB6
 5390 1052 01       		.uleb128 0x1
 5391 1053 9C       		.byte	0x9c
 5392 1054 F0110000 		.4byte	0x11f0
 5393 1058 2A       		.uleb128 0x2a
 5394 1059 63627300 		.ascii	"cbs\000"
 5395 105d 01       		.byte	0x1
 5396 105e 5201     		.2byte	0x152
 5397 1060 C3010000 		.4byte	0x1c3
 5398 1064 8A090000 		.4byte	.LLST43
 5399 1068 12       		.uleb128 0x12
 5400 1069 4C0C0000 		.4byte	.LASF80
ARM GAS  C:\Users\Phuong\AppData\Local\Temp\ccGVgD3r.s 			page 115


 5401 106d 00120000 		.4byte	0x1200
 5402 1071 05       		.uleb128 0x5
 5403 1072 03       		.byte	0x3
 5404 1073 B0000000 		.4byte	__func__.7541
 5405 1077 13       		.uleb128 0x13
 5406 1078 08000000 		.4byte	.LBB30
 5407 107c 20000000 		.4byte	.LBE30-.LBB30
 5408 1080 D3100000 		.4byte	0x10d3
 5409 1084 27       		.uleb128 0x27
 5410 1085 6C00     		.ascii	"l\000"
 5411 1087 01       		.byte	0x1
 5412 1088 5701     		.2byte	0x157
 5413 108a EE000000 		.4byte	0xee
 5414 108e CC090000 		.4byte	.LLST44
 5415 1092 15       		.uleb128 0x15
 5416 1093 0C000000 		.4byte	.LVL182
 5417 1097 4E220000 		.4byte	0x224e
 5418 109b 16       		.uleb128 0x16
 5419 109c 26000000 		.4byte	.LVL185
 5420 10a0 02       		.uleb128 0x2
 5421 10a1 74       		.byte	0x74
 5422 10a2 00       		.sleb128 0
 5423 10a3 17       		.uleb128 0x17
 5424 10a4 01       		.uleb128 0x1
 5425 10a5 50       		.byte	0x50
 5426 10a6 01       		.uleb128 0x1
 5427 10a7 30       		.byte	0x30
 5428 10a8 17       		.uleb128 0x17
 5429 10a9 01       		.uleb128 0x1
 5430 10aa 51       		.byte	0x51
 5431 10ab 05       		.uleb128 0x5
 5432 10ac 03       		.byte	0x3
 5433 10ad 00000000 		.4byte	.LC1
 5434 10b1 17       		.uleb128 0x17
 5435 10b2 01       		.uleb128 0x1
 5436 10b3 52       		.byte	0x52
 5437 10b4 05       		.uleb128 0x5
 5438 10b5 03       		.byte	0x3
 5439 10b6 B0000000 		.4byte	.LANCHOR1+48
 5440 10ba 17       		.uleb128 0x17
 5441 10bb 01       		.uleb128 0x1
 5442 10bc 53       		.byte	0x53
 5443 10bd 03       		.uleb128 0x3
 5444 10be 0A       		.byte	0xa
 5445 10bf 5701     		.2byte	0x157
 5446 10c1 17       		.uleb128 0x17
 5447 10c2 02       		.uleb128 0x2
 5448 10c3 7D       		.byte	0x7d
 5449 10c4 00       		.sleb128 0
 5450 10c5 01       		.uleb128 0x1
 5451 10c6 31       		.byte	0x31
 5452 10c7 17       		.uleb128 0x17
 5453 10c8 02       		.uleb128 0x2
 5454 10c9 7D       		.byte	0x7d
 5455 10ca 04       		.sleb128 4
 5456 10cb 05       		.uleb128 0x5
 5457 10cc 03       		.byte	0x3
ARM GAS  C:\Users\Phuong\AppData\Local\Temp\ccGVgD3r.s 			page 116


 5458 10cd D4040000 		.4byte	.LC67
 5459 10d1 00       		.byte	0
 5460 10d2 00       		.byte	0
 5461 10d3 18       		.uleb128 0x18
 5462 10d4 28000000 		.4byte	.LBB31
 5463 10d8 6C000000 		.4byte	.LBE31-.LBB31
 5464 10dc 2B       		.uleb128 0x2b
 5465 10dd 06070000 		.4byte	.LASF93
 5466 10e1 01       		.byte	0x1
 5467 10e2 5B01     		.2byte	0x15b
 5468 10e4 A3000000 		.4byte	0xa3
 5469 10e8 EA090000 		.4byte	.LLST45
 5470 10ec 13       		.uleb128 0x13
 5471 10ed 28000000 		.4byte	.LBB32
 5472 10f1 1E000000 		.4byte	.LBE32-.LBB32
 5473 10f5 48110000 		.4byte	0x1148
 5474 10f9 27       		.uleb128 0x27
 5475 10fa 6C00     		.ascii	"l\000"
 5476 10fc 01       		.byte	0x1
 5477 10fd 5D01     		.2byte	0x15d
 5478 10ff EE000000 		.4byte	0xee
 5479 1103 1E0A0000 		.4byte	.LLST46
 5480 1107 15       		.uleb128 0x15
 5481 1108 2C000000 		.4byte	.LVL187
 5482 110c 4E220000 		.4byte	0x224e
 5483 1110 16       		.uleb128 0x16
 5484 1111 46000000 		.4byte	.LVL190
 5485 1115 02       		.uleb128 0x2
 5486 1116 74       		.byte	0x74
 5487 1117 00       		.sleb128 0
 5488 1118 17       		.uleb128 0x17
 5489 1119 01       		.uleb128 0x1
 5490 111a 50       		.byte	0x50
 5491 111b 01       		.uleb128 0x1
 5492 111c 30       		.byte	0x30
 5493 111d 17       		.uleb128 0x17
 5494 111e 01       		.uleb128 0x1
 5495 111f 51       		.byte	0x51
 5496 1120 05       		.uleb128 0x5
 5497 1121 03       		.byte	0x3
 5498 1122 00000000 		.4byte	.LC1
 5499 1126 17       		.uleb128 0x17
 5500 1127 01       		.uleb128 0x1
 5501 1128 52       		.byte	0x52
 5502 1129 05       		.uleb128 0x5
 5503 112a 03       		.byte	0x3
 5504 112b B0000000 		.4byte	.LANCHOR1+48
 5505 112f 17       		.uleb128 0x17
 5506 1130 01       		.uleb128 0x1
 5507 1131 53       		.byte	0x53
 5508 1132 03       		.uleb128 0x3
 5509 1133 0A       		.byte	0xa
 5510 1134 5D01     		.2byte	0x15d
 5511 1136 17       		.uleb128 0x17
 5512 1137 02       		.uleb128 0x2
 5513 1138 7D       		.byte	0x7d
 5514 1139 00       		.sleb128 0
ARM GAS  C:\Users\Phuong\AppData\Local\Temp\ccGVgD3r.s 			page 117


 5515 113a 01       		.uleb128 0x1
 5516 113b 31       		.byte	0x31
 5517 113c 17       		.uleb128 0x17
 5518 113d 02       		.uleb128 0x2
 5519 113e 7D       		.byte	0x7d
 5520 113f 04       		.sleb128 4
 5521 1140 05       		.uleb128 0x5
 5522 1141 03       		.byte	0x3
 5523 1142 E4040000 		.4byte	.LC69
 5524 1146 00       		.byte	0
 5525 1147 00       		.byte	0
 5526 1148 13       		.uleb128 0x13
 5527 1149 5A000000 		.4byte	.LBB33
 5528 114d 24000000 		.4byte	.LBE33-.LBB33
 5529 1151 BA110000 		.4byte	0x11ba
 5530 1155 2B       		.uleb128 0x2b
 5531 1156 180A0000 		.4byte	.LASF94
 5532 115a 01       		.byte	0x1
 5533 115b 6B01     		.2byte	0x16b
 5534 115d F00A0000 		.4byte	0xaf0
 5535 1161 3C0A0000 		.4byte	.LLST47
 5536 1165 21       		.uleb128 0x21
 5537 1166 60000000 		.4byte	.LVL195
 5538 116a 64220000 		.4byte	0x2264
 5539 116e 79110000 		.4byte	0x1179
 5540 1172 17       		.uleb128 0x17
 5541 1173 01       		.uleb128 0x1
 5542 1174 50       		.byte	0x50
 5543 1175 02       		.uleb128 0x2
 5544 1176 74       		.byte	0x74
 5545 1177 00       		.sleb128 0
 5546 1178 00       		.byte	0
 5547 1179 20       		.uleb128 0x20
 5548 117a 70000000 		.4byte	.LVL198
 5549 117e 02       		.uleb128 0x2
 5550 117f 77       		.byte	0x77
 5551 1180 00       		.sleb128 0
 5552 1181 95110000 		.4byte	0x1195
 5553 1185 17       		.uleb128 0x17
 5554 1186 01       		.uleb128 0x1
 5555 1187 51       		.byte	0x51
 5556 1188 01       		.uleb128 0x1
 5557 1189 33       		.byte	0x33
 5558 118a 17       		.uleb128 0x17
 5559 118b 01       		.uleb128 0x1
 5560 118c 52       		.byte	0x52
 5561 118d 01       		.uleb128 0x1
 5562 118e 30       		.byte	0x30
 5563 118f 17       		.uleb128 0x17
 5564 1190 01       		.uleb128 0x1
 5565 1191 53       		.byte	0x53
 5566 1192 01       		.uleb128 0x1
 5567 1193 30       		.byte	0x30
 5568 1194 00       		.byte	0
 5569 1195 21       		.uleb128 0x21
 5570 1196 76000000 		.4byte	.LVL199
 5571 119a 7A220000 		.4byte	0x227a
ARM GAS  C:\Users\Phuong\AppData\Local\Temp\ccGVgD3r.s 			page 118


 5572 119e A9110000 		.4byte	0x11a9
 5573 11a2 17       		.uleb128 0x17
 5574 11a3 01       		.uleb128 0x1
 5575 11a4 50       		.byte	0x50
 5576 11a5 02       		.uleb128 0x2
 5577 11a6 75       		.byte	0x75
 5578 11a7 00       		.sleb128 0
 5579 11a8 00       		.byte	0
 5580 11a9 22       		.uleb128 0x22
 5581 11aa 7E000000 		.4byte	.LVL200
 5582 11ae 6F220000 		.4byte	0x226f
 5583 11b2 17       		.uleb128 0x17
 5584 11b3 01       		.uleb128 0x1
 5585 11b4 51       		.byte	0x51
 5586 11b5 02       		.uleb128 0x2
 5587 11b6 74       		.byte	0x74
 5588 11b7 00       		.sleb128 0
 5589 11b8 00       		.byte	0
 5590 11b9 00       		.byte	0
 5591 11ba 15       		.uleb128 0x15
 5592 11bb 52000000 		.4byte	.LVL191
 5593 11bf 59220000 		.4byte	0x2259
 5594 11c3 15       		.uleb128 0x15
 5595 11c4 58000000 		.4byte	.LVL192
 5596 11c8 DD220000 		.4byte	0x22dd
 5597 11cc 15       		.uleb128 0x15
 5598 11cd 84000000 		.4byte	.LVL201
 5599 11d1 F3220000 		.4byte	0x22f3
 5600 11d5 15       		.uleb128 0x15
 5601 11d6 8E000000 		.4byte	.LVL204
 5602 11da E8220000 		.4byte	0x22e8
 5603 11de 22       		.uleb128 0x22
 5604 11df 94000000 		.4byte	.LVL205
 5605 11e3 7A220000 		.4byte	0x227a
 5606 11e7 17       		.uleb128 0x17
 5607 11e8 01       		.uleb128 0x1
 5608 11e9 50       		.byte	0x50
 5609 11ea 02       		.uleb128 0x2
 5610 11eb 76       		.byte	0x76
 5611 11ec 00       		.sleb128 0
 5612 11ed 00       		.byte	0
 5613 11ee 00       		.byte	0
 5614 11ef 00       		.byte	0
 5615 11f0 1A       		.uleb128 0x1a
 5616 11f1 88000000 		.4byte	0x88
 5617 11f5 00120000 		.4byte	0x1200
 5618 11f9 1B       		.uleb128 0x1b
 5619 11fa 72000000 		.4byte	0x72
 5620 11fe 0B       		.byte	0xb
 5621 11ff 00       		.byte	0
 5622 1200 06       		.uleb128 0x6
 5623 1201 F0110000 		.4byte	0x11f0
 5624 1205 25       		.uleb128 0x25
 5625 1206 F2080000 		.4byte	.LASF96
 5626 120a 01       		.byte	0x1
 5627 120b 7B01     		.2byte	0x17b
 5628 120d 2C000000 		.4byte	0x2c
ARM GAS  C:\Users\Phuong\AppData\Local\Temp\ccGVgD3r.s 			page 119


 5629 1211 00000000 		.4byte	.LFB7
 5630 1215 30010000 		.4byte	.LFE7-.LFB7
 5631 1219 01       		.uleb128 0x1
 5632 121a 9C       		.byte	0x9c
 5633 121b 96140000 		.4byte	0x1496
 5634 121f 2A       		.uleb128 0x2a
 5635 1220 63627300 		.ascii	"cbs\000"
 5636 1224 01       		.byte	0x1
 5637 1225 7B01     		.2byte	0x17b
 5638 1227 C3010000 		.4byte	0x1c3
 5639 122b 5A0A0000 		.4byte	.LLST48
 5640 122f 26       		.uleb128 0x26
 5641 1230 8D060000 		.4byte	.LASF41
 5642 1234 01       		.byte	0x1
 5643 1235 7B01     		.2byte	0x17b
 5644 1237 35020000 		.4byte	0x235
 5645 123b D10A0000 		.4byte	.LLST49
 5646 123f 26       		.uleb128 0x26
 5647 1240 19060000 		.4byte	.LASF42
 5648 1244 01       		.byte	0x1
 5649 1245 7B01     		.2byte	0x17b
 5650 1247 79000000 		.4byte	0x79
 5651 124b FD0A0000 		.4byte	.LLST50
 5652 124f 26       		.uleb128 0x26
 5653 1250 0C060000 		.4byte	.LASF43
 5654 1254 01       		.byte	0x1
 5655 1255 7B01     		.2byte	0x17b
 5656 1257 56020000 		.4byte	0x256
 5657 125b 1C0B0000 		.4byte	.LLST51
 5658 125f 2C       		.uleb128 0x2c
 5659 1260 3F010000 		.4byte	.LASF44
 5660 1264 01       		.byte	0x1
 5661 1265 7B01     		.2byte	0x17b
 5662 1267 79000000 		.4byte	0x79
 5663 126b 02       		.uleb128 0x2
 5664 126c 91       		.byte	0x91
 5665 126d 00       		.sleb128 0
 5666 126e 2D       		.uleb128 0x2d
 5667 126f 81030000 		.4byte	.LASF89
 5668 1273 01       		.byte	0x1
 5669 1274 7D01     		.2byte	0x17d
 5670 1276 2C000000 		.4byte	0x2c
 5671 127a 01       		.uleb128 0x1
 5672 127b 50       		.byte	0x50
 5673 127c 12       		.uleb128 0x12
 5674 127d 4C0C0000 		.4byte	.LASF80
 5675 1281 A6140000 		.4byte	0x14a6
 5676 1285 05       		.uleb128 0x5
 5677 1286 03       		.byte	0x3
 5678 1287 BC000000 		.4byte	__func__.7561
 5679 128b 13       		.uleb128 0x13
 5680 128c 0C000000 		.4byte	.LBB34
 5681 1290 1E000000 		.4byte	.LBE34-.LBB34
 5682 1294 E7120000 		.4byte	0x12e7
 5683 1298 27       		.uleb128 0x27
 5684 1299 6C00     		.ascii	"l\000"
 5685 129b 01       		.byte	0x1
ARM GAS  C:\Users\Phuong\AppData\Local\Temp\ccGVgD3r.s 			page 120


 5686 129c 7F01     		.2byte	0x17f
 5687 129e EE000000 		.4byte	0xee
 5688 12a2 480B0000 		.4byte	.LLST52
 5689 12a6 15       		.uleb128 0x15
 5690 12a7 10000000 		.4byte	.LVL208
 5691 12ab 4E220000 		.4byte	0x224e
 5692 12af 16       		.uleb128 0x16
 5693 12b0 2A000000 		.4byte	.LVL211
 5694 12b4 02       		.uleb128 0x2
 5695 12b5 75       		.byte	0x75
 5696 12b6 00       		.sleb128 0
 5697 12b7 17       		.uleb128 0x17
 5698 12b8 01       		.uleb128 0x1
 5699 12b9 50       		.byte	0x50
 5700 12ba 01       		.uleb128 0x1
 5701 12bb 30       		.byte	0x30
 5702 12bc 17       		.uleb128 0x17
 5703 12bd 01       		.uleb128 0x1
 5704 12be 51       		.byte	0x51
 5705 12bf 05       		.uleb128 0x5
 5706 12c0 03       		.byte	0x3
 5707 12c1 00000000 		.4byte	.LC1
 5708 12c5 17       		.uleb128 0x17
 5709 12c6 01       		.uleb128 0x1
 5710 12c7 52       		.byte	0x52
 5711 12c8 05       		.uleb128 0x5
 5712 12c9 03       		.byte	0x3
 5713 12ca BC000000 		.4byte	.LANCHOR1+60
 5714 12ce 17       		.uleb128 0x17
 5715 12cf 01       		.uleb128 0x1
 5716 12d0 53       		.byte	0x53
 5717 12d1 03       		.uleb128 0x3
 5718 12d2 0A       		.byte	0xa
 5719 12d3 7F01     		.2byte	0x17f
 5720 12d5 17       		.uleb128 0x17
 5721 12d6 02       		.uleb128 0x2
 5722 12d7 7D       		.byte	0x7d
 5723 12d8 00       		.sleb128 0
 5724 12d9 01       		.uleb128 0x1
 5725 12da 31       		.byte	0x31
 5726 12db 17       		.uleb128 0x17
 5727 12dc 02       		.uleb128 0x2
 5728 12dd 7D       		.byte	0x7d
 5729 12de 04       		.sleb128 4
 5730 12df 05       		.uleb128 0x5
 5731 12e0 03       		.byte	0x3
 5732 12e1 00050000 		.4byte	.LC73
 5733 12e5 00       		.byte	0
 5734 12e6 00       		.byte	0
 5735 12e7 13       		.uleb128 0x13
 5736 12e8 36000000 		.4byte	.LBB35
 5737 12ec 24000000 		.4byte	.LBE35-.LBB35
 5738 12f0 58130000 		.4byte	0x1358
 5739 12f4 27       		.uleb128 0x27
 5740 12f5 6C00     		.ascii	"l\000"
 5741 12f7 01       		.byte	0x1
 5742 12f8 8601     		.2byte	0x186
ARM GAS  C:\Users\Phuong\AppData\Local\Temp\ccGVgD3r.s 			page 121


 5743 12fa EE000000 		.4byte	0xee
 5744 12fe 7C0B0000 		.4byte	.LLST53
 5745 1302 15       		.uleb128 0x15
 5746 1303 3A000000 		.4byte	.LVL212
 5747 1307 4E220000 		.4byte	0x224e
 5748 130b 16       		.uleb128 0x16
 5749 130c 5A000000 		.4byte	.LVL215
 5750 1310 02       		.uleb128 0x2
 5751 1311 75       		.byte	0x75
 5752 1312 00       		.sleb128 0
 5753 1313 17       		.uleb128 0x17
 5754 1314 01       		.uleb128 0x1
 5755 1315 50       		.byte	0x50
 5756 1316 01       		.uleb128 0x1
 5757 1317 30       		.byte	0x30
 5758 1318 17       		.uleb128 0x17
 5759 1319 01       		.uleb128 0x1
 5760 131a 51       		.byte	0x51
 5761 131b 05       		.uleb128 0x5
 5762 131c 03       		.byte	0x3
 5763 131d 00000000 		.4byte	.LC1
 5764 1321 17       		.uleb128 0x17
 5765 1322 01       		.uleb128 0x1
 5766 1323 52       		.byte	0x52
 5767 1324 05       		.uleb128 0x5
 5768 1325 03       		.byte	0x3
 5769 1326 BC000000 		.4byte	.LANCHOR1+60
 5770 132a 17       		.uleb128 0x17
 5771 132b 01       		.uleb128 0x1
 5772 132c 53       		.byte	0x53
 5773 132d 03       		.uleb128 0x3
 5774 132e 0A       		.byte	0xa
 5775 132f 8701     		.2byte	0x187
 5776 1331 17       		.uleb128 0x17
 5777 1332 02       		.uleb128 0x2
 5778 1333 7D       		.byte	0x7d
 5779 1334 00       		.sleb128 0
 5780 1335 01       		.uleb128 0x1
 5781 1336 31       		.byte	0x31
 5782 1337 17       		.uleb128 0x17
 5783 1338 02       		.uleb128 0x2
 5784 1339 7D       		.byte	0x7d
 5785 133a 04       		.sleb128 4
 5786 133b 05       		.uleb128 0x5
 5787 133c 03       		.byte	0x3
 5788 133d 2C050000 		.4byte	.LC75
 5789 1341 17       		.uleb128 0x17
 5790 1342 02       		.uleb128 0x2
 5791 1343 7D       		.byte	0x7d
 5792 1344 08       		.sleb128 8
 5793 1345 02       		.uleb128 0x2
 5794 1346 74       		.byte	0x74
 5795 1347 00       		.sleb128 0
 5796 1348 17       		.uleb128 0x17
 5797 1349 02       		.uleb128 0x2
 5798 134a 7D       		.byte	0x7d
 5799 134b 0C       		.sleb128 12
ARM GAS  C:\Users\Phuong\AppData\Local\Temp\ccGVgD3r.s 			page 122


 5800 134c 02       		.uleb128 0x2
 5801 134d 76       		.byte	0x76
 5802 134e 00       		.sleb128 0
 5803 134f 17       		.uleb128 0x17
 5804 1350 02       		.uleb128 0x2
 5805 1351 7D       		.byte	0x7d
 5806 1352 10       		.sleb128 16
 5807 1353 02       		.uleb128 0x2
 5808 1354 77       		.byte	0x77
 5809 1355 00       		.sleb128 0
 5810 1356 00       		.byte	0
 5811 1357 00       		.byte	0
 5812 1358 13       		.uleb128 0x13
 5813 1359 66000000 		.4byte	.LBB36
 5814 135d 1E000000 		.4byte	.LBE36-.LBB36
 5815 1361 B4130000 		.4byte	0x13b4
 5816 1365 27       		.uleb128 0x27
 5817 1366 6C00     		.ascii	"l\000"
 5818 1368 01       		.byte	0x1
 5819 1369 8D01     		.2byte	0x18d
 5820 136b EE000000 		.4byte	0xee
 5821 136f B00B0000 		.4byte	.LLST54
 5822 1373 15       		.uleb128 0x15
 5823 1374 6A000000 		.4byte	.LVL217
 5824 1378 4E220000 		.4byte	0x224e
 5825 137c 16       		.uleb128 0x16
 5826 137d 84000000 		.4byte	.LVL220
 5827 1381 02       		.uleb128 0x2
 5828 1382 74       		.byte	0x74
 5829 1383 00       		.sleb128 0
 5830 1384 17       		.uleb128 0x17
 5831 1385 01       		.uleb128 0x1
 5832 1386 50       		.byte	0x50
 5833 1387 01       		.uleb128 0x1
 5834 1388 30       		.byte	0x30
 5835 1389 17       		.uleb128 0x17
 5836 138a 01       		.uleb128 0x1
 5837 138b 51       		.byte	0x51
 5838 138c 05       		.uleb128 0x5
 5839 138d 03       		.byte	0x3
 5840 138e 00000000 		.4byte	.LC1
 5841 1392 17       		.uleb128 0x17
 5842 1393 01       		.uleb128 0x1
 5843 1394 52       		.byte	0x52
 5844 1395 05       		.uleb128 0x5
 5845 1396 03       		.byte	0x3
 5846 1397 BC000000 		.4byte	.LANCHOR1+60
 5847 139b 17       		.uleb128 0x17
 5848 139c 01       		.uleb128 0x1
 5849 139d 53       		.byte	0x53
 5850 139e 03       		.uleb128 0x3
 5851 139f 0A       		.byte	0xa
 5852 13a0 8D01     		.2byte	0x18d
 5853 13a2 17       		.uleb128 0x17
 5854 13a3 02       		.uleb128 0x2
 5855 13a4 7D       		.byte	0x7d
 5856 13a5 00       		.sleb128 0
ARM GAS  C:\Users\Phuong\AppData\Local\Temp\ccGVgD3r.s 			page 123


 5857 13a6 01       		.uleb128 0x1
 5858 13a7 31       		.byte	0x31
 5859 13a8 17       		.uleb128 0x17
 5860 13a9 02       		.uleb128 0x2
 5861 13aa 7D       		.byte	0x7d
 5862 13ab 04       		.sleb128 4
 5863 13ac 05       		.uleb128 0x5
 5864 13ad 03       		.byte	0x3
 5865 13ae 74050000 		.4byte	.LC77
 5866 13b2 00       		.byte	0
 5867 13b3 00       		.byte	0
 5868 13b4 13       		.uleb128 0x13
 5869 13b5 AC000000 		.4byte	.LBB37
 5870 13b9 1E000000 		.4byte	.LBE37-.LBB37
 5871 13bd 10140000 		.4byte	0x1410
 5872 13c1 27       		.uleb128 0x27
 5873 13c2 6C00     		.ascii	"l\000"
 5874 13c4 01       		.byte	0x1
 5875 13c5 9D01     		.2byte	0x19d
 5876 13c7 EE000000 		.4byte	0xee
 5877 13cb E40B0000 		.4byte	.LLST55
 5878 13cf 15       		.uleb128 0x15
 5879 13d0 B0000000 		.4byte	.LVL223
 5880 13d4 4E220000 		.4byte	0x224e
 5881 13d8 16       		.uleb128 0x16
 5882 13d9 CA000000 		.4byte	.LVL226
 5883 13dd 02       		.uleb128 0x2
 5884 13de 74       		.byte	0x74
 5885 13df 00       		.sleb128 0
 5886 13e0 17       		.uleb128 0x17
 5887 13e1 01       		.uleb128 0x1
 5888 13e2 50       		.byte	0x50
 5889 13e3 01       		.uleb128 0x1
 5890 13e4 30       		.byte	0x30
 5891 13e5 17       		.uleb128 0x17
 5892 13e6 01       		.uleb128 0x1
 5893 13e7 51       		.byte	0x51
 5894 13e8 05       		.uleb128 0x5
 5895 13e9 03       		.byte	0x3
 5896 13ea 00000000 		.4byte	.LC1
 5897 13ee 17       		.uleb128 0x17
 5898 13ef 01       		.uleb128 0x1
 5899 13f0 52       		.byte	0x52
 5900 13f1 05       		.uleb128 0x5
 5901 13f2 03       		.byte	0x3
 5902 13f3 BC000000 		.4byte	.LANCHOR1+60
 5903 13f7 17       		.uleb128 0x17
 5904 13f8 01       		.uleb128 0x1
 5905 13f9 53       		.byte	0x53
 5906 13fa 03       		.uleb128 0x3
 5907 13fb 0A       		.byte	0xa
 5908 13fc 9D01     		.2byte	0x19d
 5909 13fe 17       		.uleb128 0x17
 5910 13ff 02       		.uleb128 0x2
 5911 1400 7D       		.byte	0x7d
 5912 1401 00       		.sleb128 0
 5913 1402 01       		.uleb128 0x1
ARM GAS  C:\Users\Phuong\AppData\Local\Temp\ccGVgD3r.s 			page 124


 5914 1403 31       		.byte	0x31
 5915 1404 17       		.uleb128 0x17
 5916 1405 02       		.uleb128 0x2
 5917 1406 7D       		.byte	0x7d
 5918 1407 04       		.sleb128 4
 5919 1408 05       		.uleb128 0x5
 5920 1409 03       		.byte	0x3
 5921 140a 90050000 		.4byte	.LC81
 5922 140e 00       		.byte	0
 5923 140f 00       		.byte	0
 5924 1410 13       		.uleb128 0x13
 5925 1411 D0000000 		.4byte	.LBB38
 5926 1415 1E000000 		.4byte	.LBE38-.LBB38
 5927 1419 6C140000 		.4byte	0x146c
 5928 141d 27       		.uleb128 0x27
 5929 141e 6C00     		.ascii	"l\000"
 5930 1420 01       		.byte	0x1
 5931 1421 A301     		.2byte	0x1a3
 5932 1423 EE000000 		.4byte	0xee
 5933 1427 180C0000 		.4byte	.LLST56
 5934 142b 15       		.uleb128 0x15
 5935 142c D4000000 		.4byte	.LVL228
 5936 1430 4E220000 		.4byte	0x224e
 5937 1434 16       		.uleb128 0x16
 5938 1435 EE000000 		.4byte	.LVL231
 5939 1439 02       		.uleb128 0x2
 5940 143a 74       		.byte	0x74
 5941 143b 00       		.sleb128 0
 5942 143c 17       		.uleb128 0x17
 5943 143d 01       		.uleb128 0x1
 5944 143e 50       		.byte	0x50
 5945 143f 01       		.uleb128 0x1
 5946 1440 30       		.byte	0x30
 5947 1441 17       		.uleb128 0x17
 5948 1442 01       		.uleb128 0x1
 5949 1443 51       		.byte	0x51
 5950 1444 05       		.uleb128 0x5
 5951 1445 03       		.byte	0x3
 5952 1446 00000000 		.4byte	.LC1
 5953 144a 17       		.uleb128 0x17
 5954 144b 01       		.uleb128 0x1
 5955 144c 52       		.byte	0x52
 5956 144d 05       		.uleb128 0x5
 5957 144e 03       		.byte	0x3
 5958 144f BC000000 		.4byte	.LANCHOR1+60
 5959 1453 17       		.uleb128 0x17
 5960 1454 01       		.uleb128 0x1
 5961 1455 53       		.byte	0x53
 5962 1456 03       		.uleb128 0x3
 5963 1457 0A       		.byte	0xa
 5964 1458 A301     		.2byte	0x1a3
 5965 145a 17       		.uleb128 0x17
 5966 145b 02       		.uleb128 0x2
 5967 145c 7D       		.byte	0x7d
 5968 145d 00       		.sleb128 0
 5969 145e 01       		.uleb128 0x1
 5970 145f 31       		.byte	0x31
ARM GAS  C:\Users\Phuong\AppData\Local\Temp\ccGVgD3r.s 			page 125


 5971 1460 17       		.uleb128 0x17
 5972 1461 02       		.uleb128 0x2
 5973 1462 7D       		.byte	0x7d
 5974 1463 04       		.sleb128 4
 5975 1464 05       		.uleb128 0x5
 5976 1465 03       		.byte	0x3
 5977 1466 B8050000 		.4byte	.LC83
 5978 146a 00       		.byte	0
 5979 146b 00       		.byte	0
 5980 146c 22       		.uleb128 0x22
 5981 146d A8000000 		.4byte	.LVL222
 5982 1471 FE220000 		.4byte	0x22fe
 5983 1475 17       		.uleb128 0x17
 5984 1476 01       		.uleb128 0x1
 5985 1477 51       		.byte	0x51
 5986 1478 05       		.uleb128 0x5
 5987 1479 03       		.byte	0x3
 5988 147a 00000000 		.4byte	on_underlying_amqp_management_open_complete
 5989 147e 17       		.uleb128 0x17
 5990 147f 01       		.uleb128 0x1
 5991 1480 52       		.byte	0x52
 5992 1481 02       		.uleb128 0x2
 5993 1482 74       		.byte	0x74
 5994 1483 00       		.sleb128 0
 5995 1484 17       		.uleb128 0x17
 5996 1485 01       		.uleb128 0x1
 5997 1486 53       		.byte	0x53
 5998 1487 05       		.uleb128 0x5
 5999 1488 03       		.byte	0x3
 6000 1489 00000000 		.4byte	on_underlying_amqp_management_error
 6001 148d 17       		.uleb128 0x17
 6002 148e 02       		.uleb128 0x2
 6003 148f 7D       		.byte	0x7d
 6004 1490 00       		.sleb128 0
 6005 1491 02       		.uleb128 0x2
 6006 1492 74       		.byte	0x74
 6007 1493 00       		.sleb128 0
 6008 1494 00       		.byte	0
 6009 1495 00       		.byte	0
 6010 1496 1A       		.uleb128 0x1a
 6011 1497 88000000 		.4byte	0x88
 6012 149b A6140000 		.4byte	0x14a6
 6013 149f 1B       		.uleb128 0x1b
 6014 14a0 72000000 		.4byte	0x72
 6015 14a4 0E       		.byte	0xe
 6016 14a5 00       		.byte	0
 6017 14a6 06       		.uleb128 0x6
 6018 14a7 96140000 		.4byte	0x1496
 6019 14ab 25       		.uleb128 0x25
 6020 14ac BC010000 		.4byte	.LASF97
 6021 14b0 01       		.byte	0x1
 6022 14b1 AC01     		.2byte	0x1ac
 6023 14b3 2C000000 		.4byte	0x2c
 6024 14b7 00000000 		.4byte	.LFB8
 6025 14bb C4000000 		.4byte	.LFE8-.LFB8
 6026 14bf 01       		.uleb128 0x1
 6027 14c0 9C       		.byte	0x9c
ARM GAS  C:\Users\Phuong\AppData\Local\Temp\ccGVgD3r.s 			page 126


 6028 14c1 1D160000 		.4byte	0x161d
 6029 14c5 2A       		.uleb128 0x2a
 6030 14c6 63627300 		.ascii	"cbs\000"
 6031 14ca 01       		.byte	0x1
 6032 14cb AC01     		.2byte	0x1ac
 6033 14cd C3010000 		.4byte	0x1c3
 6034 14d1 410C0000 		.4byte	.LLST57
 6035 14d5 2B       		.uleb128 0x2b
 6036 14d6 81030000 		.4byte	.LASF89
 6037 14da 01       		.byte	0x1
 6038 14db AE01     		.2byte	0x1ae
 6039 14dd 2C000000 		.4byte	0x2c
 6040 14e1 CE0C0000 		.4byte	.LLST58
 6041 14e5 12       		.uleb128 0x12
 6042 14e6 4C0C0000 		.4byte	.LASF80
 6043 14ea 2D160000 		.4byte	0x162d
 6044 14ee 05       		.uleb128 0x5
 6045 14ef 03       		.byte	0x3
 6046 14f0 CC000000 		.4byte	__func__.7581
 6047 14f4 13       		.uleb128 0x13
 6048 14f5 08000000 		.4byte	.LBB39
 6049 14f9 1E000000 		.4byte	.LBE39-.LBB39
 6050 14fd 50150000 		.4byte	0x1550
 6051 1501 27       		.uleb128 0x27
 6052 1502 6C00     		.ascii	"l\000"
 6053 1504 01       		.byte	0x1
 6054 1505 B301     		.2byte	0x1b3
 6055 1507 EE000000 		.4byte	0xee
 6056 150b ED0C0000 		.4byte	.LLST59
 6057 150f 15       		.uleb128 0x15
 6058 1510 0C000000 		.4byte	.LVL243
 6059 1514 4E220000 		.4byte	0x224e
 6060 1518 16       		.uleb128 0x16
 6061 1519 26000000 		.4byte	.LVL246
 6062 151d 02       		.uleb128 0x2
 6063 151e 74       		.byte	0x74
 6064 151f 00       		.sleb128 0
 6065 1520 17       		.uleb128 0x17
 6066 1521 01       		.uleb128 0x1
 6067 1522 50       		.byte	0x50
 6068 1523 01       		.uleb128 0x1
 6069 1524 30       		.byte	0x30
 6070 1525 17       		.uleb128 0x17
 6071 1526 01       		.uleb128 0x1
 6072 1527 51       		.byte	0x51
 6073 1528 05       		.uleb128 0x5
 6074 1529 03       		.byte	0x3
 6075 152a 00000000 		.4byte	.LC1
 6076 152e 17       		.uleb128 0x17
 6077 152f 01       		.uleb128 0x1
 6078 1530 52       		.byte	0x52
 6079 1531 05       		.uleb128 0x5
 6080 1532 03       		.byte	0x3
 6081 1533 CC000000 		.4byte	.LANCHOR1+76
 6082 1537 17       		.uleb128 0x17
 6083 1538 01       		.uleb128 0x1
 6084 1539 53       		.byte	0x53
ARM GAS  C:\Users\Phuong\AppData\Local\Temp\ccGVgD3r.s 			page 127


 6085 153a 03       		.uleb128 0x3
 6086 153b 0A       		.byte	0xa
 6087 153c B301     		.2byte	0x1b3
 6088 153e 17       		.uleb128 0x17
 6089 153f 02       		.uleb128 0x2
 6090 1540 7D       		.byte	0x7d
 6091 1541 00       		.sleb128 0
 6092 1542 01       		.uleb128 0x1
 6093 1543 31       		.byte	0x31
 6094 1544 17       		.uleb128 0x17
 6095 1545 02       		.uleb128 0x2
 6096 1546 7D       		.byte	0x7d
 6097 1547 04       		.sleb128 4
 6098 1548 05       		.uleb128 0x5
 6099 1549 03       		.byte	0x3
 6100 154a D4040000 		.4byte	.LC67
 6101 154e 00       		.byte	0
 6102 154f 00       		.byte	0
 6103 1550 13       		.uleb128 0x13
 6104 1551 32000000 		.4byte	.LBB40
 6105 1555 1E000000 		.4byte	.LBE40-.LBB40
 6106 1559 AC150000 		.4byte	0x15ac
 6107 155d 27       		.uleb128 0x27
 6108 155e 6C00     		.ascii	"l\000"
 6109 1560 01       		.byte	0x1
 6110 1561 BA01     		.2byte	0x1ba
 6111 1563 EE000000 		.4byte	0xee
 6112 1567 210D0000 		.4byte	.LLST60
 6113 156b 15       		.uleb128 0x15
 6114 156c 36000000 		.4byte	.LVL248
 6115 1570 4E220000 		.4byte	0x224e
 6116 1574 16       		.uleb128 0x16
 6117 1575 50000000 		.4byte	.LVL251
 6118 1579 02       		.uleb128 0x2
 6119 157a 74       		.byte	0x74
 6120 157b 00       		.sleb128 0
 6121 157c 17       		.uleb128 0x17
 6122 157d 01       		.uleb128 0x1
 6123 157e 50       		.byte	0x50
 6124 157f 01       		.uleb128 0x1
 6125 1580 30       		.byte	0x30
 6126 1581 17       		.uleb128 0x17
 6127 1582 01       		.uleb128 0x1
 6128 1583 51       		.byte	0x51
 6129 1584 05       		.uleb128 0x5
 6130 1585 03       		.byte	0x3
 6131 1586 00000000 		.4byte	.LC1
 6132 158a 17       		.uleb128 0x17
 6133 158b 01       		.uleb128 0x1
 6134 158c 52       		.byte	0x52
 6135 158d 05       		.uleb128 0x5
 6136 158e 03       		.byte	0x3
 6137 158f CC000000 		.4byte	.LANCHOR1+76
 6138 1593 17       		.uleb128 0x17
 6139 1594 01       		.uleb128 0x1
 6140 1595 53       		.byte	0x53
 6141 1596 03       		.uleb128 0x3
ARM GAS  C:\Users\Phuong\AppData\Local\Temp\ccGVgD3r.s 			page 128


 6142 1597 0A       		.byte	0xa
 6143 1598 BA01     		.2byte	0x1ba
 6144 159a 17       		.uleb128 0x17
 6145 159b 02       		.uleb128 0x2
 6146 159c 7D       		.byte	0x7d
 6147 159d 00       		.sleb128 0
 6148 159e 01       		.uleb128 0x1
 6149 159f 31       		.byte	0x31
 6150 15a0 17       		.uleb128 0x17
 6151 15a1 02       		.uleb128 0x2
 6152 15a2 7D       		.byte	0x7d
 6153 15a3 04       		.sleb128 4
 6154 15a4 05       		.uleb128 0x5
 6155 15a5 03       		.byte	0x3
 6156 15a6 E4050000 		.4byte	.LC88
 6157 15aa 00       		.byte	0
 6158 15ab 00       		.byte	0
 6159 15ac 13       		.uleb128 0x13
 6160 15ad 60000000 		.4byte	.LBB41
 6161 15b1 1E000000 		.4byte	.LBE41-.LBB41
 6162 15b5 08160000 		.4byte	0x1608
 6163 15b9 27       		.uleb128 0x27
 6164 15ba 6C00     		.ascii	"l\000"
 6165 15bc 01       		.byte	0x1
 6166 15bd C301     		.2byte	0x1c3
 6167 15bf EE000000 		.4byte	0xee
 6168 15c3 550D0000 		.4byte	.LLST61
 6169 15c7 15       		.uleb128 0x15
 6170 15c8 64000000 		.4byte	.LVL255
 6171 15cc 4E220000 		.4byte	0x224e
 6172 15d0 16       		.uleb128 0x16
 6173 15d1 7E000000 		.4byte	.LVL258
 6174 15d5 02       		.uleb128 0x2
 6175 15d6 74       		.byte	0x74
 6176 15d7 00       		.sleb128 0
 6177 15d8 17       		.uleb128 0x17
 6178 15d9 01       		.uleb128 0x1
 6179 15da 50       		.byte	0x50
 6180 15db 01       		.uleb128 0x1
 6181 15dc 30       		.byte	0x30
 6182 15dd 17       		.uleb128 0x17
 6183 15de 01       		.uleb128 0x1
 6184 15df 51       		.byte	0x51
 6185 15e0 05       		.uleb128 0x5
 6186 15e1 03       		.byte	0x3
 6187 15e2 00000000 		.4byte	.LC1
 6188 15e6 17       		.uleb128 0x17
 6189 15e7 01       		.uleb128 0x1
 6190 15e8 52       		.byte	0x52
 6191 15e9 05       		.uleb128 0x5
 6192 15ea 03       		.byte	0x3
 6193 15eb CC000000 		.4byte	.LANCHOR1+76
 6194 15ef 17       		.uleb128 0x17
 6195 15f0 01       		.uleb128 0x1
 6196 15f1 53       		.byte	0x53
 6197 15f2 03       		.uleb128 0x3
 6198 15f3 0A       		.byte	0xa
ARM GAS  C:\Users\Phuong\AppData\Local\Temp\ccGVgD3r.s 			page 129


 6199 15f4 C301     		.2byte	0x1c3
 6200 15f6 17       		.uleb128 0x17
 6201 15f7 02       		.uleb128 0x2
 6202 15f8 7D       		.byte	0x7d
 6203 15f9 00       		.sleb128 0
 6204 15fa 01       		.uleb128 0x1
 6205 15fb 31       		.byte	0x31
 6206 15fc 17       		.uleb128 0x17
 6207 15fd 02       		.uleb128 0x2
 6208 15fe 7D       		.byte	0x7d
 6209 15ff 04       		.sleb128 4
 6210 1600 05       		.uleb128 0x5
 6211 1601 03       		.byte	0x3
 6212 1602 F4050000 		.4byte	.LC90
 6213 1606 00       		.byte	0
 6214 1607 00       		.byte	0
 6215 1608 15       		.uleb128 0x15
 6216 1609 5C000000 		.4byte	.LVL254
 6217 160d 59220000 		.4byte	0x2259
 6218 1611 19       		.uleb128 0x19
 6219 1612 92000000 		.4byte	.LVL260
 6220 1616 17       		.uleb128 0x17
 6221 1617 01       		.uleb128 0x1
 6222 1618 51       		.byte	0x51
 6223 1619 01       		.uleb128 0x1
 6224 161a 32       		.byte	0x32
 6225 161b 00       		.byte	0
 6226 161c 00       		.byte	0
 6227 161d 1A       		.uleb128 0x1a
 6228 161e 88000000 		.4byte	0x88
 6229 1622 2D160000 		.4byte	0x162d
 6230 1626 1B       		.uleb128 0x1b
 6231 1627 72000000 		.4byte	0x72
 6232 162b 09       		.byte	0x9
 6233 162c 00       		.byte	0
 6234 162d 06       		.uleb128 0x6
 6235 162e 1D160000 		.4byte	0x161d
 6236 1632 25       		.uleb128 0x25
 6237 1633 3D050000 		.4byte	.LASF98
 6238 1637 01       		.byte	0x1
 6239 1638 D801     		.2byte	0x1d8
 6240 163a 2C000000 		.4byte	0x2c
 6241 163e 00000000 		.4byte	.LFB9
 6242 1642 F4020000 		.4byte	.LFE9-.LFB9
 6243 1646 01       		.uleb128 0x1
 6244 1647 9C       		.byte	0x9c
 6245 1648 551C0000 		.4byte	0x1c55
 6246 164c 2A       		.uleb128 0x2a
 6247 164d 63627300 		.ascii	"cbs\000"
 6248 1651 01       		.byte	0x1
 6249 1652 D801     		.2byte	0x1d8
 6250 1654 C3010000 		.4byte	0x1c3
 6251 1658 890D0000 		.4byte	.LLST62
 6252 165c 26       		.uleb128 0x26
 6253 165d FE0A0000 		.4byte	.LASF99
 6254 1661 01       		.byte	0x1
 6255 1662 D801     		.2byte	0x1d8
ARM GAS  C:\Users\Phuong\AppData\Local\Temp\ccGVgD3r.s 			page 130


 6256 1664 82000000 		.4byte	0x82
 6257 1668 F70E0000 		.4byte	.LLST63
 6258 166c 26       		.uleb128 0x26
 6259 166d E0040000 		.4byte	.LASF100
 6260 1671 01       		.byte	0x1
 6261 1672 D801     		.2byte	0x1d8
 6262 1674 82000000 		.4byte	0x82
 6263 1678 4F0F0000 		.4byte	.LLST64
 6264 167c 26       		.uleb128 0x26
 6265 167d FC070000 		.4byte	.LASF101
 6266 1681 01       		.byte	0x1
 6267 1682 D801     		.2byte	0x1d8
 6268 1684 82000000 		.4byte	0x82
 6269 1688 0B100000 		.4byte	.LLST65
 6270 168c 2C       		.uleb128 0x2c
 6271 168d 71000000 		.4byte	.LASF102
 6272 1691 01       		.byte	0x1
 6273 1692 D801     		.2byte	0x1d8
 6274 1694 61020000 		.4byte	0x261
 6275 1698 02       		.uleb128 0x2
 6276 1699 91       		.byte	0x91
 6277 169a 00       		.sleb128 0
 6278 169b 2C       		.uleb128 0x2c
 6279 169c 710B0000 		.4byte	.LASF103
 6280 16a0 01       		.byte	0x1
 6281 16a1 D801     		.2byte	0x1d8
 6282 16a3 79000000 		.4byte	0x79
 6283 16a7 02       		.uleb128 0x2
 6284 16a8 91       		.byte	0x91
 6285 16a9 04       		.sleb128 4
 6286 16aa 2B       		.uleb128 0x2b
 6287 16ab 81030000 		.4byte	.LASF89
 6288 16af 01       		.byte	0x1
 6289 16b0 DA01     		.2byte	0x1da
 6290 16b2 2C000000 		.4byte	0x2c
 6291 16b6 50100000 		.4byte	.LLST66
 6292 16ba 12       		.uleb128 0x12
 6293 16bb 4C0C0000 		.4byte	.LASF80
 6294 16bf 651C0000 		.4byte	0x1c65
 6295 16c3 05       		.uleb128 0x5
 6296 16c4 03       		.byte	0x3
 6297 16c5 D8000000 		.4byte	__func__.7600
 6298 16c9 13       		.uleb128 0x13
 6299 16ca 28000000 		.4byte	.LBB42
 6300 16ce 2E000000 		.4byte	.LBE42-.LBB42
 6301 16d2 49170000 		.4byte	0x1749
 6302 16d6 27       		.uleb128 0x27
 6303 16d7 6C00     		.ascii	"l\000"
 6304 16d9 01       		.byte	0x1
 6305 16da E401     		.2byte	0x1e4
 6306 16dc EE000000 		.4byte	0xee
 6307 16e0 8F100000 		.4byte	.LLST67
 6308 16e4 15       		.uleb128 0x15
 6309 16e5 2C000000 		.4byte	.LVL271
 6310 16e9 4E220000 		.4byte	0x224e
 6311 16ed 16       		.uleb128 0x16
 6312 16ee 56000000 		.4byte	.LVL274
ARM GAS  C:\Users\Phuong\AppData\Local\Temp\ccGVgD3r.s 			page 131


 6313 16f2 02       		.uleb128 0x2
 6314 16f3 75       		.byte	0x75
 6315 16f4 00       		.sleb128 0
 6316 16f5 17       		.uleb128 0x17
 6317 16f6 01       		.uleb128 0x1
 6318 16f7 50       		.byte	0x50
 6319 16f8 01       		.uleb128 0x1
 6320 16f9 30       		.byte	0x30
 6321 16fa 17       		.uleb128 0x17
 6322 16fb 01       		.uleb128 0x1
 6323 16fc 51       		.byte	0x51
 6324 16fd 05       		.uleb128 0x5
 6325 16fe 03       		.byte	0x3
 6326 16ff 00000000 		.4byte	.LC1
 6327 1703 17       		.uleb128 0x17
 6328 1704 01       		.uleb128 0x1
 6329 1705 52       		.byte	0x52
 6330 1706 05       		.uleb128 0x5
 6331 1707 03       		.byte	0x3
 6332 1708 D8000000 		.4byte	.LANCHOR1+88
 6333 170c 17       		.uleb128 0x17
 6334 170d 01       		.uleb128 0x1
 6335 170e 53       		.byte	0x53
 6336 170f 03       		.uleb128 0x3
 6337 1710 0A       		.byte	0xa
 6338 1711 E501     		.2byte	0x1e5
 6339 1713 17       		.uleb128 0x17
 6340 1714 02       		.uleb128 0x2
 6341 1715 7D       		.byte	0x7d
 6342 1716 00       		.sleb128 0
 6343 1717 01       		.uleb128 0x1
 6344 1718 31       		.byte	0x31
 6345 1719 17       		.uleb128 0x17
 6346 171a 02       		.uleb128 0x2
 6347 171b 7D       		.byte	0x7d
 6348 171c 04       		.sleb128 4
 6349 171d 05       		.uleb128 0x5
 6350 171e 03       		.byte	0x3
 6351 171f 1C060000 		.4byte	.LC94
 6352 1723 17       		.uleb128 0x17
 6353 1724 02       		.uleb128 0x2
 6354 1725 7D       		.byte	0x7d
 6355 1726 08       		.sleb128 8
 6356 1727 02       		.uleb128 0x2
 6357 1728 74       		.byte	0x74
 6358 1729 00       		.sleb128 0
 6359 172a 17       		.uleb128 0x17
 6360 172b 02       		.uleb128 0x2
 6361 172c 7D       		.byte	0x7d
 6362 172d 0C       		.sleb128 12
 6363 172e 02       		.uleb128 0x2
 6364 172f 77       		.byte	0x77
 6365 1730 00       		.sleb128 0
 6366 1731 17       		.uleb128 0x17
 6367 1732 02       		.uleb128 0x2
 6368 1733 7D       		.byte	0x7d
 6369 1734 10       		.sleb128 16
ARM GAS  C:\Users\Phuong\AppData\Local\Temp\ccGVgD3r.s 			page 132


 6370 1735 02       		.uleb128 0x2
 6371 1736 79       		.byte	0x79
 6372 1737 00       		.sleb128 0
 6373 1738 17       		.uleb128 0x17
 6374 1739 02       		.uleb128 0x2
 6375 173a 7D       		.byte	0x7d
 6376 173b 14       		.sleb128 20
 6377 173c 02       		.uleb128 0x2
 6378 173d 76       		.byte	0x76
 6379 173e 00       		.sleb128 0
 6380 173f 17       		.uleb128 0x17
 6381 1740 02       		.uleb128 0x2
 6382 1741 7D       		.byte	0x7d
 6383 1742 18       		.sleb128 24
 6384 1743 03       		.uleb128 0x3
 6385 1744 91       		.byte	0x91
 6386 1745 00       		.sleb128 0
 6387 1746 06       		.byte	0x6
 6388 1747 00       		.byte	0
 6389 1748 00       		.byte	0
 6390 1749 13       		.uleb128 0x13
 6391 174a 66000000 		.4byte	.LBB43
 6392 174e 20000000 		.4byte	.LBE43-.LBB43
 6393 1752 A5170000 		.4byte	0x17a5
 6394 1756 27       		.uleb128 0x27
 6395 1757 6C00     		.ascii	"l\000"
 6396 1759 01       		.byte	0x1
 6397 175a EC01     		.2byte	0x1ec
 6398 175c EE000000 		.4byte	0xee
 6399 1760 B8100000 		.4byte	.LLST68
 6400 1764 15       		.uleb128 0x15
 6401 1765 6A000000 		.4byte	.LVL277
 6402 1769 4E220000 		.4byte	0x224e
 6403 176d 16       		.uleb128 0x16
 6404 176e 86000000 		.4byte	.LVL280
 6405 1772 02       		.uleb128 0x2
 6406 1773 74       		.byte	0x74
 6407 1774 00       		.sleb128 0
 6408 1775 17       		.uleb128 0x17
 6409 1776 01       		.uleb128 0x1
 6410 1777 50       		.byte	0x50
 6411 1778 01       		.uleb128 0x1
 6412 1779 30       		.byte	0x30
 6413 177a 17       		.uleb128 0x17
 6414 177b 01       		.uleb128 0x1
 6415 177c 51       		.byte	0x51
 6416 177d 05       		.uleb128 0x5
 6417 177e 03       		.byte	0x3
 6418 177f 00000000 		.4byte	.LC1
 6419 1783 17       		.uleb128 0x17
 6420 1784 01       		.uleb128 0x1
 6421 1785 52       		.byte	0x52
 6422 1786 05       		.uleb128 0x5
 6423 1787 03       		.byte	0x3
 6424 1788 D8000000 		.4byte	.LANCHOR1+88
 6425 178c 17       		.uleb128 0x17
 6426 178d 01       		.uleb128 0x1
ARM GAS  C:\Users\Phuong\AppData\Local\Temp\ccGVgD3r.s 			page 133


 6427 178e 53       		.byte	0x53
 6428 178f 03       		.uleb128 0x3
 6429 1790 0A       		.byte	0xa
 6430 1791 EC01     		.2byte	0x1ec
 6431 1793 17       		.uleb128 0x17
 6432 1794 02       		.uleb128 0x2
 6433 1795 7D       		.byte	0x7d
 6434 1796 00       		.sleb128 0
 6435 1797 01       		.uleb128 0x1
 6436 1798 31       		.byte	0x31
 6437 1799 17       		.uleb128 0x17
 6438 179a 02       		.uleb128 0x2
 6439 179b 7D       		.byte	0x7d
 6440 179c 04       		.sleb128 4
 6441 179d 05       		.uleb128 0x5
 6442 179e 03       		.byte	0x3
 6443 179f 7C060000 		.4byte	.LC96
 6444 17a3 00       		.byte	0
 6445 17a4 00       		.byte	0
 6446 17a5 2E       		.uleb128 0x2e
 6447 17a6 00000000 		.4byte	.Ldebug_ranges0+0
 6448 17aa 2B       		.uleb128 0x2b
 6449 17ab C5000000 		.4byte	.LASF85
 6450 17af 01       		.byte	0x1
 6451 17b0 F201     		.2byte	0x1f2
 6452 17b2 8C020000 		.4byte	0x28c
 6453 17b6 E1100000 		.4byte	.LLST69
 6454 17ba 13       		.uleb128 0x13
 6455 17bb 94000000 		.4byte	.LBB45
 6456 17bf 20000000 		.4byte	.LBE45-.LBB45
 6457 17c3 16180000 		.4byte	0x1816
 6458 17c7 27       		.uleb128 0x27
 6459 17c8 6C00     		.ascii	"l\000"
 6460 17ca 01       		.byte	0x1
 6461 17cb F601     		.2byte	0x1f6
 6462 17cd EE000000 		.4byte	0xee
 6463 17d1 20110000 		.4byte	.LLST70
 6464 17d5 15       		.uleb128 0x15
 6465 17d6 98000000 		.4byte	.LVL285
 6466 17da 4E220000 		.4byte	0x224e
 6467 17de 16       		.uleb128 0x16
 6468 17df B4000000 		.4byte	.LVL288
 6469 17e3 02       		.uleb128 0x2
 6470 17e4 74       		.byte	0x74
 6471 17e5 00       		.sleb128 0
 6472 17e6 17       		.uleb128 0x17
 6473 17e7 01       		.uleb128 0x1
 6474 17e8 50       		.byte	0x50
 6475 17e9 01       		.uleb128 0x1
 6476 17ea 30       		.byte	0x30
 6477 17eb 17       		.uleb128 0x17
 6478 17ec 01       		.uleb128 0x1
 6479 17ed 51       		.byte	0x51
 6480 17ee 05       		.uleb128 0x5
 6481 17ef 03       		.byte	0x3
 6482 17f0 00000000 		.4byte	.LC1
 6483 17f4 17       		.uleb128 0x17
ARM GAS  C:\Users\Phuong\AppData\Local\Temp\ccGVgD3r.s 			page 134


 6484 17f5 01       		.uleb128 0x1
 6485 17f6 52       		.byte	0x52
 6486 17f7 05       		.uleb128 0x5
 6487 17f8 03       		.byte	0x3
 6488 17f9 D8000000 		.4byte	.LANCHOR1+88
 6489 17fd 17       		.uleb128 0x17
 6490 17fe 01       		.uleb128 0x1
 6491 17ff 53       		.byte	0x53
 6492 1800 03       		.uleb128 0x3
 6493 1801 0A       		.byte	0xa
 6494 1802 F601     		.2byte	0x1f6
 6495 1804 17       		.uleb128 0x17
 6496 1805 02       		.uleb128 0x2
 6497 1806 7D       		.byte	0x7d
 6498 1807 00       		.sleb128 0
 6499 1808 01       		.uleb128 0x1
 6500 1809 31       		.byte	0x31
 6501 180a 17       		.uleb128 0x17
 6502 180b 02       		.uleb128 0x2
 6503 180c 7D       		.byte	0x7d
 6504 180d 04       		.sleb128 4
 6505 180e 05       		.uleb128 0x5
 6506 180f 03       		.byte	0x3
 6507 1810 A8060000 		.4byte	.LC98
 6508 1814 00       		.byte	0
 6509 1815 00       		.byte	0
 6510 1816 13       		.uleb128 0x13
 6511 1817 BA000000 		.4byte	.LBB46
 6512 181b B8010000 		.4byte	.LBE46-.LBB46
 6513 181f 4A1C0000 		.4byte	0x1c4a
 6514 1823 2B       		.uleb128 0x2b
 6515 1824 71090000 		.4byte	.LASF104
 6516 1828 01       		.byte	0x1
 6517 1829 FB01     		.2byte	0x1fb
 6518 182b 24010000 		.4byte	0x124
 6519 182f 49110000 		.4byte	.LLST71
 6520 1833 13       		.uleb128 0x13
 6521 1834 C4000000 		.4byte	.LBB47
 6522 1838 1E000000 		.4byte	.LBE47-.LBB47
 6523 183c 8F180000 		.4byte	0x188f
 6524 1840 27       		.uleb128 0x27
 6525 1841 6C00     		.ascii	"l\000"
 6526 1843 01       		.byte	0x1
 6527 1844 FF01     		.2byte	0x1ff
 6528 1846 EE000000 		.4byte	0xee
 6529 184a 7D110000 		.4byte	.LLST72
 6530 184e 15       		.uleb128 0x15
 6531 184f C8000000 		.4byte	.LVL294
 6532 1853 4E220000 		.4byte	0x224e
 6533 1857 16       		.uleb128 0x16
 6534 1858 E2000000 		.4byte	.LVL297
 6535 185c 02       		.uleb128 0x2
 6536 185d 74       		.byte	0x74
 6537 185e 00       		.sleb128 0
 6538 185f 17       		.uleb128 0x17
 6539 1860 01       		.uleb128 0x1
 6540 1861 50       		.byte	0x50
ARM GAS  C:\Users\Phuong\AppData\Local\Temp\ccGVgD3r.s 			page 135


 6541 1862 01       		.uleb128 0x1
 6542 1863 30       		.byte	0x30
 6543 1864 17       		.uleb128 0x17
 6544 1865 01       		.uleb128 0x1
 6545 1866 51       		.byte	0x51
 6546 1867 05       		.uleb128 0x5
 6547 1868 03       		.byte	0x3
 6548 1869 00000000 		.4byte	.LC1
 6549 186d 17       		.uleb128 0x17
 6550 186e 01       		.uleb128 0x1
 6551 186f 52       		.byte	0x52
 6552 1870 05       		.uleb128 0x5
 6553 1871 03       		.byte	0x3
 6554 1872 D8000000 		.4byte	.LANCHOR1+88
 6555 1876 17       		.uleb128 0x17
 6556 1877 01       		.uleb128 0x1
 6557 1878 53       		.byte	0x53
 6558 1879 03       		.uleb128 0x3
 6559 187a 0A       		.byte	0xa
 6560 187b FF01     		.2byte	0x1ff
 6561 187d 17       		.uleb128 0x17
 6562 187e 02       		.uleb128 0x2
 6563 187f 7D       		.byte	0x7d
 6564 1880 00       		.sleb128 0
 6565 1881 01       		.uleb128 0x1
 6566 1882 31       		.byte	0x31
 6567 1883 17       		.uleb128 0x17
 6568 1884 02       		.uleb128 0x2
 6569 1885 7D       		.byte	0x7d
 6570 1886 04       		.sleb128 4
 6571 1887 05       		.uleb128 0x5
 6572 1888 03       		.byte	0x3
 6573 1889 C0060000 		.4byte	.LC100
 6574 188d 00       		.byte	0
 6575 188e 00       		.byte	0
 6576 188f 13       		.uleb128 0x13
 6577 1890 F4000000 		.4byte	.LBB48
 6578 1894 20000000 		.4byte	.LBE48-.LBB48
 6579 1898 EB180000 		.4byte	0x18eb
 6580 189c 27       		.uleb128 0x27
 6581 189d 6C00     		.ascii	"l\000"
 6582 189f 01       		.byte	0x1
 6583 18a0 0802     		.2byte	0x208
 6584 18a2 EE000000 		.4byte	0xee
 6585 18a6 A6110000 		.4byte	.LLST73
 6586 18aa 15       		.uleb128 0x15
 6587 18ab F8000000 		.4byte	.LVL302
 6588 18af 4E220000 		.4byte	0x224e
 6589 18b3 16       		.uleb128 0x16
 6590 18b4 14010000 		.4byte	.LVL305
 6591 18b8 02       		.uleb128 0x2
 6592 18b9 74       		.byte	0x74
 6593 18ba 00       		.sleb128 0
 6594 18bb 17       		.uleb128 0x17
 6595 18bc 01       		.uleb128 0x1
 6596 18bd 50       		.byte	0x50
 6597 18be 01       		.uleb128 0x1
ARM GAS  C:\Users\Phuong\AppData\Local\Temp\ccGVgD3r.s 			page 136


 6598 18bf 30       		.byte	0x30
 6599 18c0 17       		.uleb128 0x17
 6600 18c1 01       		.uleb128 0x1
 6601 18c2 51       		.byte	0x51
 6602 18c3 05       		.uleb128 0x5
 6603 18c4 03       		.byte	0x3
 6604 18c5 00000000 		.4byte	.LC1
 6605 18c9 17       		.uleb128 0x17
 6606 18ca 01       		.uleb128 0x1
 6607 18cb 52       		.byte	0x52
 6608 18cc 05       		.uleb128 0x5
 6609 18cd 03       		.byte	0x3
 6610 18ce D8000000 		.4byte	.LANCHOR1+88
 6611 18d2 17       		.uleb128 0x17
 6612 18d3 01       		.uleb128 0x1
 6613 18d4 53       		.byte	0x53
 6614 18d5 03       		.uleb128 0x3
 6615 18d6 0A       		.byte	0xa
 6616 18d7 0802     		.2byte	0x208
 6617 18d9 17       		.uleb128 0x17
 6618 18da 02       		.uleb128 0x2
 6619 18db 7D       		.byte	0x7d
 6620 18dc 00       		.sleb128 0
 6621 18dd 01       		.uleb128 0x1
 6622 18de 31       		.byte	0x31
 6623 18df 17       		.uleb128 0x17
 6624 18e0 02       		.uleb128 0x2
 6625 18e1 7D       		.byte	0x7d
 6626 18e2 04       		.sleb128 4
 6627 18e3 05       		.uleb128 0x5
 6628 18e4 03       		.byte	0x3
 6629 18e5 E4060000 		.4byte	.LC102
 6630 18e9 00       		.byte	0
 6631 18ea 00       		.byte	0
 6632 18eb 13       		.uleb128 0x13
 6633 18ec 18010000 		.4byte	.LBB49
 6634 18f0 4A010000 		.4byte	.LBE49-.LBB49
 6635 18f4 0B1C0000 		.4byte	0x1c0b
 6636 18f8 2B       		.uleb128 0x2b
 6637 18f9 28010000 		.4byte	.LASF105
 6638 18fd 01       		.byte	0x1
 6639 18fe 0D02     		.2byte	0x20d
 6640 1900 24010000 		.4byte	0x124
 6641 1904 CF110000 		.4byte	.LLST74
 6642 1908 13       		.uleb128 0x13
 6643 1909 22010000 		.4byte	.LBB50
 6644 190d 1E000000 		.4byte	.LBE50-.LBB50
 6645 1911 64190000 		.4byte	0x1964
 6646 1915 27       		.uleb128 0x27
 6647 1916 6C00     		.ascii	"l\000"
 6648 1918 01       		.byte	0x1
 6649 1919 1102     		.2byte	0x211
 6650 191b EE000000 		.4byte	0xee
 6651 191f 05120000 		.4byte	.LLST75
 6652 1923 15       		.uleb128 0x15
 6653 1924 26010000 		.4byte	.LVL310
 6654 1928 4E220000 		.4byte	0x224e
ARM GAS  C:\Users\Phuong\AppData\Local\Temp\ccGVgD3r.s 			page 137


 6655 192c 16       		.uleb128 0x16
 6656 192d 40010000 		.4byte	.LVL313
 6657 1931 02       		.uleb128 0x2
 6658 1932 74       		.byte	0x74
 6659 1933 00       		.sleb128 0
 6660 1934 17       		.uleb128 0x17
 6661 1935 01       		.uleb128 0x1
 6662 1936 50       		.byte	0x50
 6663 1937 01       		.uleb128 0x1
 6664 1938 30       		.byte	0x30
 6665 1939 17       		.uleb128 0x17
 6666 193a 01       		.uleb128 0x1
 6667 193b 51       		.byte	0x51
 6668 193c 05       		.uleb128 0x5
 6669 193d 03       		.byte	0x3
 6670 193e 00000000 		.4byte	.LC1
 6671 1942 17       		.uleb128 0x17
 6672 1943 01       		.uleb128 0x1
 6673 1944 52       		.byte	0x52
 6674 1945 05       		.uleb128 0x5
 6675 1946 03       		.byte	0x3
 6676 1947 D8000000 		.4byte	.LANCHOR1+88
 6677 194b 17       		.uleb128 0x17
 6678 194c 01       		.uleb128 0x1
 6679 194d 53       		.byte	0x53
 6680 194e 03       		.uleb128 0x3
 6681 194f 0A       		.byte	0xa
 6682 1950 1102     		.2byte	0x211
 6683 1952 17       		.uleb128 0x17
 6684 1953 02       		.uleb128 0x2
 6685 1954 7D       		.byte	0x7d
 6686 1955 00       		.sleb128 0
 6687 1956 01       		.uleb128 0x1
 6688 1957 31       		.byte	0x31
 6689 1958 17       		.uleb128 0x17
 6690 1959 02       		.uleb128 0x2
 6691 195a 7D       		.byte	0x7d
 6692 195b 04       		.sleb128 4
 6693 195c 05       		.uleb128 0x5
 6694 195d 03       		.byte	0x3
 6695 195e 14070000 		.4byte	.LC104
 6696 1962 00       		.byte	0
 6697 1963 00       		.byte	0
 6698 1964 13       		.uleb128 0x13
 6699 1965 5E010000 		.4byte	.LBB51
 6700 1969 1C000000 		.4byte	.LBE51-.LBB51
 6701 196d C0190000 		.4byte	0x19c0
 6702 1971 27       		.uleb128 0x27
 6703 1972 6C00     		.ascii	"l\000"
 6704 1974 01       		.byte	0x1
 6705 1975 1F02     		.2byte	0x21f
 6706 1977 EE000000 		.4byte	0xee
 6707 197b 2E120000 		.4byte	.LLST76
 6708 197f 15       		.uleb128 0x15
 6709 1980 62010000 		.4byte	.LVL319
 6710 1984 4E220000 		.4byte	0x224e
 6711 1988 16       		.uleb128 0x16
ARM GAS  C:\Users\Phuong\AppData\Local\Temp\ccGVgD3r.s 			page 138


 6712 1989 7A010000 		.4byte	.LVL322
 6713 198d 02       		.uleb128 0x2
 6714 198e 74       		.byte	0x74
 6715 198f 00       		.sleb128 0
 6716 1990 17       		.uleb128 0x17
 6717 1991 01       		.uleb128 0x1
 6718 1992 50       		.byte	0x50
 6719 1993 01       		.uleb128 0x1
 6720 1994 30       		.byte	0x30
 6721 1995 17       		.uleb128 0x17
 6722 1996 01       		.uleb128 0x1
 6723 1997 51       		.byte	0x51
 6724 1998 05       		.uleb128 0x5
 6725 1999 03       		.byte	0x3
 6726 199a 00000000 		.4byte	.LC1
 6727 199e 17       		.uleb128 0x17
 6728 199f 01       		.uleb128 0x1
 6729 19a0 52       		.byte	0x52
 6730 19a1 05       		.uleb128 0x5
 6731 19a2 03       		.byte	0x3
 6732 19a3 D8000000 		.4byte	.LANCHOR1+88
 6733 19a7 17       		.uleb128 0x17
 6734 19a8 01       		.uleb128 0x1
 6735 19a9 53       		.byte	0x53
 6736 19aa 03       		.uleb128 0x3
 6737 19ab 0A       		.byte	0xa
 6738 19ac 1F02     		.2byte	0x21f
 6739 19ae 17       		.uleb128 0x17
 6740 19af 02       		.uleb128 0x2
 6741 19b0 7D       		.byte	0x7d
 6742 19b1 00       		.sleb128 0
 6743 19b2 01       		.uleb128 0x1
 6744 19b3 31       		.byte	0x31
 6745 19b4 17       		.uleb128 0x17
 6746 19b5 02       		.uleb128 0x2
 6747 19b6 7D       		.byte	0x7d
 6748 19b7 04       		.sleb128 4
 6749 19b8 05       		.uleb128 0x5
 6750 19b9 03       		.byte	0x3
 6751 19ba 48070000 		.4byte	.LC108
 6752 19be 00       		.byte	0
 6753 19bf 00       		.byte	0
 6754 19c0 2F       		.uleb128 0x2f
 6755 19c1 18000000 		.4byte	.Ldebug_ranges0+0x18
 6756 19c5 9D1B0000 		.4byte	0x1b9d
 6757 19c9 2B       		.uleb128 0x2b
 6758 19ca 96040000 		.4byte	.LASF86
 6759 19ce 01       		.byte	0x1
 6760 19cf 2402     		.2byte	0x224
 6761 19d1 F00A0000 		.4byte	0xaf0
 6762 19d5 57120000 		.4byte	.LLST77
 6763 19d9 13       		.uleb128 0x13
 6764 19da 8C010000 		.4byte	.LBB53
 6765 19de 1C000000 		.4byte	.LBE53-.LBB53
 6766 19e2 351A0000 		.4byte	0x1a35
 6767 19e6 27       		.uleb128 0x27
 6768 19e7 6C00     		.ascii	"l\000"
ARM GAS  C:\Users\Phuong\AppData\Local\Temp\ccGVgD3r.s 			page 139


 6769 19e9 01       		.byte	0x1
 6770 19ea 2702     		.2byte	0x227
 6771 19ec EE000000 		.4byte	0xee
 6772 19f0 96120000 		.4byte	.LLST78
 6773 19f4 15       		.uleb128 0x15
 6774 19f5 90010000 		.4byte	.LVL327
 6775 19f9 4E220000 		.4byte	0x224e
 6776 19fd 16       		.uleb128 0x16
 6777 19fe A8010000 		.4byte	.LVL330
 6778 1a02 02       		.uleb128 0x2
 6779 1a03 74       		.byte	0x74
 6780 1a04 00       		.sleb128 0
 6781 1a05 17       		.uleb128 0x17
 6782 1a06 01       		.uleb128 0x1
 6783 1a07 50       		.byte	0x50
 6784 1a08 01       		.uleb128 0x1
 6785 1a09 30       		.byte	0x30
 6786 1a0a 17       		.uleb128 0x17
 6787 1a0b 01       		.uleb128 0x1
 6788 1a0c 51       		.byte	0x51
 6789 1a0d 05       		.uleb128 0x5
 6790 1a0e 03       		.byte	0x3
 6791 1a0f 00000000 		.4byte	.LC1
 6792 1a13 17       		.uleb128 0x17
 6793 1a14 01       		.uleb128 0x1
 6794 1a15 52       		.byte	0x52
 6795 1a16 05       		.uleb128 0x5
 6796 1a17 03       		.byte	0x3
 6797 1a18 D8000000 		.4byte	.LANCHOR1+88
 6798 1a1c 17       		.uleb128 0x17
 6799 1a1d 01       		.uleb128 0x1
 6800 1a1e 53       		.byte	0x53
 6801 1a1f 03       		.uleb128 0x3
 6802 1a20 0A       		.byte	0xa
 6803 1a21 2702     		.2byte	0x227
 6804 1a23 17       		.uleb128 0x17
 6805 1a24 02       		.uleb128 0x2
 6806 1a25 7D       		.byte	0x7d
 6807 1a26 00       		.sleb128 0
 6808 1a27 01       		.uleb128 0x1
 6809 1a28 31       		.byte	0x31
 6810 1a29 17       		.uleb128 0x17
 6811 1a2a 02       		.uleb128 0x2
 6812 1a2b 7D       		.byte	0x7d
 6813 1a2c 04       		.sleb128 4
 6814 1a2d 05       		.uleb128 0x5
 6815 1a2e 03       		.byte	0x3
 6816 1a2f 78070000 		.4byte	.LC110
 6817 1a33 00       		.byte	0
 6818 1a34 00       		.byte	0
 6819 1a35 2F       		.uleb128 0x2f
 6820 1a36 30000000 		.4byte	.Ldebug_ranges0+0x30
 6821 1a3a 8D1B0000 		.4byte	0x1b8d
 6822 1a3e 2B       		.uleb128 0x2b
 6823 1a3f 76080000 		.4byte	.LASF106
 6824 1a43 01       		.byte	0x1
 6825 1a44 2C02     		.2byte	0x22c
ARM GAS  C:\Users\Phuong\AppData\Local\Temp\ccGVgD3r.s 			page 140


 6826 1a46 A3000000 		.4byte	0xa3
 6827 1a4a BF120000 		.4byte	.LLST79
 6828 1a4e 13       		.uleb128 0x13
 6829 1a4f CE010000 		.4byte	.LBB55
 6830 1a53 1C000000 		.4byte	.LBE55-.LBB55
 6831 1a57 AA1A0000 		.4byte	0x1aaa
 6832 1a5b 27       		.uleb128 0x27
 6833 1a5c 6C00     		.ascii	"l\000"
 6834 1a5e 01       		.byte	0x1
 6835 1a5f 3602     		.2byte	0x236
 6836 1a61 EE000000 		.4byte	0xee
 6837 1a65 FE120000 		.4byte	.LLST80
 6838 1a69 15       		.uleb128 0x15
 6839 1a6a D2010000 		.4byte	.LVL338
 6840 1a6e 4E220000 		.4byte	0x224e
 6841 1a72 16       		.uleb128 0x16
 6842 1a73 EA010000 		.4byte	.LVL341
 6843 1a77 02       		.uleb128 0x2
 6844 1a78 74       		.byte	0x74
 6845 1a79 00       		.sleb128 0
 6846 1a7a 17       		.uleb128 0x17
 6847 1a7b 01       		.uleb128 0x1
 6848 1a7c 50       		.byte	0x50
 6849 1a7d 01       		.uleb128 0x1
 6850 1a7e 30       		.byte	0x30
 6851 1a7f 17       		.uleb128 0x17
 6852 1a80 01       		.uleb128 0x1
 6853 1a81 51       		.byte	0x51
 6854 1a82 05       		.uleb128 0x5
 6855 1a83 03       		.byte	0x3
 6856 1a84 00000000 		.4byte	.LC1
 6857 1a88 17       		.uleb128 0x17
 6858 1a89 01       		.uleb128 0x1
 6859 1a8a 52       		.byte	0x52
 6860 1a8b 05       		.uleb128 0x5
 6861 1a8c 03       		.byte	0x3
 6862 1a8d D8000000 		.4byte	.LANCHOR1+88
 6863 1a91 17       		.uleb128 0x17
 6864 1a92 01       		.uleb128 0x1
 6865 1a93 53       		.byte	0x53
 6866 1a94 03       		.uleb128 0x3
 6867 1a95 0A       		.byte	0xa
 6868 1a96 3602     		.2byte	0x236
 6869 1a98 17       		.uleb128 0x17
 6870 1a99 02       		.uleb128 0x2
 6871 1a9a 7D       		.byte	0x7d
 6872 1a9b 00       		.sleb128 0
 6873 1a9c 01       		.uleb128 0x1
 6874 1a9d 31       		.byte	0x31
 6875 1a9e 17       		.uleb128 0x17
 6876 1a9f 02       		.uleb128 0x2
 6877 1aa0 7D       		.byte	0x7d
 6878 1aa1 04       		.sleb128 4
 6879 1aa2 05       		.uleb128 0x5
 6880 1aa3 03       		.byte	0x3
 6881 1aa4 A4070000 		.4byte	.LC112
 6882 1aa8 00       		.byte	0
ARM GAS  C:\Users\Phuong\AppData\Local\Temp\ccGVgD3r.s 			page 141


 6883 1aa9 00       		.byte	0
 6884 1aaa 13       		.uleb128 0x13
 6885 1aab 14020000 		.4byte	.LBB56
 6886 1aaf 1C000000 		.4byte	.LBE56-.LBB56
 6887 1ab3 061B0000 		.4byte	0x1b06
 6888 1ab7 27       		.uleb128 0x27
 6889 1ab8 6C00     		.ascii	"l\000"
 6890 1aba 01       		.byte	0x1
 6891 1abb 4A02     		.2byte	0x24a
 6892 1abd EE000000 		.4byte	0xee
 6893 1ac1 27130000 		.4byte	.LLST81
 6894 1ac5 15       		.uleb128 0x15
 6895 1ac6 18020000 		.4byte	.LVL348
 6896 1aca 4E220000 		.4byte	0x224e
 6897 1ace 16       		.uleb128 0x16
 6898 1acf 30020000 		.4byte	.LVL351
 6899 1ad3 02       		.uleb128 0x2
 6900 1ad4 74       		.byte	0x74
 6901 1ad5 00       		.sleb128 0
 6902 1ad6 17       		.uleb128 0x17
 6903 1ad7 01       		.uleb128 0x1
 6904 1ad8 50       		.byte	0x50
 6905 1ad9 01       		.uleb128 0x1
 6906 1ada 30       		.byte	0x30
 6907 1adb 17       		.uleb128 0x17
 6908 1adc 01       		.uleb128 0x1
 6909 1add 51       		.byte	0x51
 6910 1ade 05       		.uleb128 0x5
 6911 1adf 03       		.byte	0x3
 6912 1ae0 00000000 		.4byte	.LC1
 6913 1ae4 17       		.uleb128 0x17
 6914 1ae5 01       		.uleb128 0x1
 6915 1ae6 52       		.byte	0x52
 6916 1ae7 05       		.uleb128 0x5
 6917 1ae8 03       		.byte	0x3
 6918 1ae9 D8000000 		.4byte	.LANCHOR1+88
 6919 1aed 17       		.uleb128 0x17
 6920 1aee 01       		.uleb128 0x1
 6921 1aef 53       		.byte	0x53
 6922 1af0 03       		.uleb128 0x3
 6923 1af1 0A       		.byte	0xa
 6924 1af2 4A02     		.2byte	0x24a
 6925 1af4 17       		.uleb128 0x17
 6926 1af5 02       		.uleb128 0x2
 6927 1af6 7D       		.byte	0x7d
 6928 1af7 00       		.sleb128 0
 6929 1af8 01       		.uleb128 0x1
 6930 1af9 31       		.byte	0x31
 6931 1afa 17       		.uleb128 0x17
 6932 1afb 02       		.uleb128 0x2
 6933 1afc 7D       		.byte	0x7d
 6934 1afd 04       		.sleb128 4
 6935 1afe 05       		.uleb128 0x5
 6936 1aff 03       		.byte	0x3
 6937 1b00 D8070000 		.4byte	.LC117
 6938 1b04 00       		.byte	0
 6939 1b05 00       		.byte	0
ARM GAS  C:\Users\Phuong\AppData\Local\Temp\ccGVgD3r.s 			page 142


 6940 1b06 21       		.uleb128 0x21
 6941 1b07 C2010000 		.4byte	.LVL334
 6942 1b0b 09230000 		.4byte	0x2309
 6943 1b0f 1A1B0000 		.4byte	0x1b1a
 6944 1b13 17       		.uleb128 0x17
 6945 1b14 01       		.uleb128 0x1
 6946 1b15 51       		.byte	0x51
 6947 1b16 02       		.uleb128 0x2
 6948 1b17 79       		.byte	0x79
 6949 1b18 00       		.sleb128 0
 6950 1b19 00       		.byte	0
 6951 1b1a 21       		.uleb128 0x21
 6952 1b1b CE010000 		.4byte	.LVL337
 6953 1b1f 7A220000 		.4byte	0x227a
 6954 1b23 2E1B0000 		.4byte	0x1b2e
 6955 1b27 17       		.uleb128 0x17
 6956 1b28 01       		.uleb128 0x1
 6957 1b29 50       		.byte	0x50
 6958 1b2a 02       		.uleb128 0x2
 6959 1b2b 79       		.byte	0x79
 6960 1b2c 00       		.sleb128 0
 6961 1b2d 00       		.byte	0
 6962 1b2e 21       		.uleb128 0x21
 6963 1b2f 02020000 		.4byte	.LVL345
 6964 1b33 14230000 		.4byte	0x2314
 6965 1b37 681B0000 		.4byte	0x1b68
 6966 1b3b 17       		.uleb128 0x17
 6967 1b3c 01       		.uleb128 0x1
 6968 1b3d 51       		.byte	0x51
 6969 1b3e 05       		.uleb128 0x5
 6970 1b3f 03       		.byte	0x3
 6971 1b40 CC070000 		.4byte	.LC114
 6972 1b44 17       		.uleb128 0x17
 6973 1b45 01       		.uleb128 0x1
 6974 1b46 52       		.byte	0x52
 6975 1b47 02       		.uleb128 0x2
 6976 1b48 77       		.byte	0x77
 6977 1b49 00       		.sleb128 0
 6978 1b4a 17       		.uleb128 0x17
 6979 1b4b 01       		.uleb128 0x1
 6980 1b4c 53       		.byte	0x53
 6981 1b4d 01       		.uleb128 0x1
 6982 1b4e 30       		.byte	0x30
 6983 1b4f 17       		.uleb128 0x17
 6984 1b50 02       		.uleb128 0x2
 6985 1b51 7D       		.byte	0x7d
 6986 1b52 00       		.sleb128 0
 6987 1b53 02       		.uleb128 0x2
 6988 1b54 75       		.byte	0x75
 6989 1b55 00       		.sleb128 0
 6990 1b56 17       		.uleb128 0x17
 6991 1b57 02       		.uleb128 0x2
 6992 1b58 7D       		.byte	0x7d
 6993 1b59 04       		.sleb128 4
 6994 1b5a 05       		.uleb128 0x5
 6995 1b5b 03       		.byte	0x3
 6996 1b5c 00000000 		.4byte	on_amqp_management_execute_operation_complete
ARM GAS  C:\Users\Phuong\AppData\Local\Temp\ccGVgD3r.s 			page 143


 6997 1b60 17       		.uleb128 0x17
 6998 1b61 02       		.uleb128 0x2
 6999 1b62 7D       		.byte	0x7d
 7000 1b63 08       		.sleb128 8
 7001 1b64 02       		.uleb128 0x2
 7002 1b65 7A       		.byte	0x7a
 7003 1b66 00       		.sleb128 0
 7004 1b67 00       		.byte	0
 7005 1b68 21       		.uleb128 0x21
 7006 1b69 0E020000 		.4byte	.LVL346
 7007 1b6d 6F220000 		.4byte	0x226f
 7008 1b71 7C1B0000 		.4byte	0x1b7c
 7009 1b75 17       		.uleb128 0x17
 7010 1b76 01       		.uleb128 0x1
 7011 1b77 51       		.byte	0x51
 7012 1b78 02       		.uleb128 0x2
 7013 1b79 7A       		.byte	0x7a
 7014 1b7a 00       		.sleb128 0
 7015 1b7b 00       		.byte	0
 7016 1b7c 22       		.uleb128 0x22
 7017 1b7d 14020000 		.4byte	.LVL347
 7018 1b81 7A220000 		.4byte	0x227a
 7019 1b85 17       		.uleb128 0x17
 7020 1b86 01       		.uleb128 0x1
 7021 1b87 50       		.byte	0x50
 7022 1b88 02       		.uleb128 0x2
 7023 1b89 79       		.byte	0x79
 7024 1b8a 00       		.sleb128 0
 7025 1b8b 00       		.byte	0
 7026 1b8c 00       		.byte	0
 7027 1b8d 22       		.uleb128 0x22
 7028 1b8e 86010000 		.4byte	.LVL325
 7029 1b92 A6220000 		.4byte	0x22a6
 7030 1b96 17       		.uleb128 0x17
 7031 1b97 01       		.uleb128 0x1
 7032 1b98 50       		.byte	0x50
 7033 1b99 01       		.uleb128 0x1
 7034 1b9a 3C       		.byte	0x3c
 7035 1b9b 00       		.byte	0
 7036 1b9c 00       		.byte	0
 7037 1b9d 15       		.uleb128 0x15
 7038 1b9e 1C010000 		.4byte	.LVL308
 7039 1ba2 1F230000 		.4byte	0x231f
 7040 1ba6 21       		.uleb128 0x21
 7041 1ba7 4E010000 		.4byte	.LVL317
 7042 1bab F60A0000 		.4byte	0xaf6
 7043 1baf CA1B0000 		.4byte	0x1bca
 7044 1bb3 17       		.uleb128 0x17
 7045 1bb4 01       		.uleb128 0x1
 7046 1bb5 50       		.byte	0x50
 7047 1bb6 03       		.uleb128 0x3
 7048 1bb7 91       		.byte	0x91
 7049 1bb8 5C       		.sleb128 -36
 7050 1bb9 06       		.byte	0x6
 7051 1bba 17       		.uleb128 0x17
 7052 1bbb 01       		.uleb128 0x1
 7053 1bbc 51       		.byte	0x51
ARM GAS  C:\Users\Phuong\AppData\Local\Temp\ccGVgD3r.s 			page 144


 7054 1bbd 05       		.uleb128 0x5
 7055 1bbe 03       		.byte	0x3
 7056 1bbf 40070000 		.4byte	.LC106
 7057 1bc3 17       		.uleb128 0x17
 7058 1bc4 01       		.uleb128 0x1
 7059 1bc5 52       		.byte	0x52
 7060 1bc6 02       		.uleb128 0x2
 7061 1bc7 79       		.byte	0x79
 7062 1bc8 00       		.sleb128 0
 7063 1bc9 00       		.byte	0
 7064 1bca 21       		.uleb128 0x21
 7065 1bcb 5A010000 		.4byte	.LVL318
 7066 1bcf 2A230000 		.4byte	0x232a
 7067 1bd3 E51B0000 		.4byte	0x1be5
 7068 1bd7 17       		.uleb128 0x17
 7069 1bd8 01       		.uleb128 0x1
 7070 1bd9 50       		.byte	0x50
 7071 1bda 02       		.uleb128 0x2
 7072 1bdb 75       		.byte	0x75
 7073 1bdc 00       		.sleb128 0
 7074 1bdd 17       		.uleb128 0x17
 7075 1bde 01       		.uleb128 0x1
 7076 1bdf 51       		.byte	0x51
 7077 1be0 03       		.uleb128 0x3
 7078 1be1 91       		.byte	0x91
 7079 1be2 5C       		.sleb128 -36
 7080 1be3 06       		.byte	0x6
 7081 1be4 00       		.byte	0
 7082 1be5 21       		.uleb128 0x21
 7083 1be6 56020000 		.4byte	.LVL362
 7084 1bea 9B220000 		.4byte	0x229b
 7085 1bee FA1B0000 		.4byte	0x1bfa
 7086 1bf2 17       		.uleb128 0x17
 7087 1bf3 01       		.uleb128 0x1
 7088 1bf4 50       		.byte	0x50
 7089 1bf5 03       		.uleb128 0x3
 7090 1bf6 91       		.byte	0x91
 7091 1bf7 5C       		.sleb128 -36
 7092 1bf8 06       		.byte	0x6
 7093 1bf9 00       		.byte	0
 7094 1bfa 22       		.uleb128 0x22
 7095 1bfb 60020000 		.4byte	.LVL365
 7096 1bff 9B220000 		.4byte	0x229b
 7097 1c03 17       		.uleb128 0x17
 7098 1c04 01       		.uleb128 0x1
 7099 1c05 50       		.byte	0x50
 7100 1c06 02       		.uleb128 0x2
 7101 1c07 76       		.byte	0x76
 7102 1c08 00       		.sleb128 0
 7103 1c09 00       		.byte	0
 7104 1c0a 00       		.byte	0
 7105 1c0b 21       		.uleb128 0x21
 7106 1c0c C0000000 		.4byte	.LVL292
 7107 1c10 85220000 		.4byte	0x2285
 7108 1c14 1F1C0000 		.4byte	0x1c1f
 7109 1c18 17       		.uleb128 0x17
 7110 1c19 01       		.uleb128 0x1
ARM GAS  C:\Users\Phuong\AppData\Local\Temp\ccGVgD3r.s 			page 145


 7111 1c1a 50       		.byte	0x50
 7112 1c1b 02       		.uleb128 0x2
 7113 1c1c 76       		.byte	0x76
 7114 1c1d 00       		.sleb128 0
 7115 1c1e 00       		.byte	0
 7116 1c1f 21       		.uleb128 0x21
 7117 1c20 F0000000 		.4byte	.LVL301
 7118 1c24 35230000 		.4byte	0x2335
 7119 1c28 391C0000 		.4byte	0x1c39
 7120 1c2c 17       		.uleb128 0x17
 7121 1c2d 01       		.uleb128 0x1
 7122 1c2e 50       		.byte	0x50
 7123 1c2f 02       		.uleb128 0x2
 7124 1c30 75       		.byte	0x75
 7125 1c31 00       		.sleb128 0
 7126 1c32 17       		.uleb128 0x17
 7127 1c33 01       		.uleb128 0x1
 7128 1c34 51       		.byte	0x51
 7129 1c35 02       		.uleb128 0x2
 7130 1c36 76       		.byte	0x76
 7131 1c37 00       		.sleb128 0
 7132 1c38 00       		.byte	0
 7133 1c39 22       		.uleb128 0x22
 7134 1c3a 70020000 		.4byte	.LVL369
 7135 1c3e 40230000 		.4byte	0x2340
 7136 1c42 17       		.uleb128 0x17
 7137 1c43 01       		.uleb128 0x1
 7138 1c44 50       		.byte	0x50
 7139 1c45 02       		.uleb128 0x2
 7140 1c46 75       		.byte	0x75
 7141 1c47 00       		.sleb128 0
 7142 1c48 00       		.byte	0
 7143 1c49 00       		.byte	0
 7144 1c4a 15       		.uleb128 0x15
 7145 1c4b 90000000 		.4byte	.LVL283
 7146 1c4f 4B230000 		.4byte	0x234b
 7147 1c53 00       		.byte	0
 7148 1c54 00       		.byte	0
 7149 1c55 1A       		.uleb128 0x1a
 7150 1c56 88000000 		.4byte	0x88
 7151 1c5a 651C0000 		.4byte	0x1c65
 7152 1c5e 1B       		.uleb128 0x1b
 7153 1c5f 72000000 		.4byte	0x72
 7154 1c63 13       		.byte	0x13
 7155 1c64 00       		.byte	0
 7156 1c65 06       		.uleb128 0x6
 7157 1c66 551C0000 		.4byte	0x1c55
 7158 1c6a 25       		.uleb128 0x25
 7159 1c6b 36070000 		.4byte	.LASF107
 7160 1c6f 01       		.byte	0x1
 7161 1c70 6502     		.2byte	0x265
 7162 1c72 2C000000 		.4byte	0x2c
 7163 1c76 00000000 		.4byte	.LFB10
 7164 1c7a 70020000 		.4byte	.LFE10-.LFB10
 7165 1c7e 01       		.uleb128 0x1
 7166 1c7f 9C       		.byte	0x9c
 7167 1c80 65210000 		.4byte	0x2165
ARM GAS  C:\Users\Phuong\AppData\Local\Temp\ccGVgD3r.s 			page 146


 7168 1c84 2A       		.uleb128 0x2a
 7169 1c85 63627300 		.ascii	"cbs\000"
 7170 1c89 01       		.byte	0x1
 7171 1c8a 6502     		.2byte	0x265
 7172 1c8c C3010000 		.4byte	0x1c3
 7173 1c90 50130000 		.4byte	.LLST82
 7174 1c94 26       		.uleb128 0x26
 7175 1c95 FE0A0000 		.4byte	.LASF99
 7176 1c99 01       		.byte	0x1
 7177 1c9a 6502     		.2byte	0x265
 7178 1c9c 82000000 		.4byte	0x82
 7179 1ca0 8C140000 		.4byte	.LLST83
 7180 1ca4 26       		.uleb128 0x26
 7181 1ca5 E0040000 		.4byte	.LASF100
 7182 1ca9 01       		.byte	0x1
 7183 1caa 6502     		.2byte	0x265
 7184 1cac 82000000 		.4byte	0x82
 7185 1cb0 E4140000 		.4byte	.LLST84
 7186 1cb4 26       		.uleb128 0x26
 7187 1cb5 6D0C0000 		.4byte	.LASF108
 7188 1cb9 01       		.byte	0x1
 7189 1cba 6502     		.2byte	0x265
 7190 1cbc 61020000 		.4byte	0x261
 7191 1cc0 3C150000 		.4byte	.LLST85
 7192 1cc4 2C       		.uleb128 0x2c
 7193 1cc5 97010000 		.4byte	.LASF109
 7194 1cc9 01       		.byte	0x1
 7195 1cca 6502     		.2byte	0x265
 7196 1ccc 79000000 		.4byte	0x79
 7197 1cd0 02       		.uleb128 0x2
 7198 1cd1 91       		.byte	0x91
 7199 1cd2 00       		.sleb128 0
 7200 1cd3 2B       		.uleb128 0x2b
 7201 1cd4 81030000 		.4byte	.LASF89
 7202 1cd8 01       		.byte	0x1
 7203 1cd9 6702     		.2byte	0x267
 7204 1cdb 2C000000 		.4byte	0x2c
 7205 1cdf 7E150000 		.4byte	.LLST86
 7206 1ce3 12       		.uleb128 0x12
 7207 1ce4 4C0C0000 		.4byte	.LASF80
 7208 1ce8 75210000 		.4byte	0x2175
 7209 1cec 05       		.uleb128 0x5
 7210 1ced 03       		.byte	0x3
 7211 1cee EC000000 		.4byte	__func__.7644
 7212 1cf2 13       		.uleb128 0x13
 7213 1cf3 22000000 		.4byte	.LBB60
 7214 1cf7 28000000 		.4byte	.LBE60-.LBB60
 7215 1cfb 6A1D0000 		.4byte	0x1d6a
 7216 1cff 27       		.uleb128 0x27
 7217 1d00 6C00     		.ascii	"l\000"
 7218 1d02 01       		.byte	0x1
 7219 1d03 7002     		.2byte	0x270
 7220 1d05 EE000000 		.4byte	0xee
 7221 1d09 B2150000 		.4byte	.LLST87
 7222 1d0d 15       		.uleb128 0x15
 7223 1d0e 26000000 		.4byte	.LVL378
 7224 1d12 4E220000 		.4byte	0x224e
ARM GAS  C:\Users\Phuong\AppData\Local\Temp\ccGVgD3r.s 			page 147


 7225 1d16 16       		.uleb128 0x16
 7226 1d17 4A000000 		.4byte	.LVL381
 7227 1d1b 02       		.uleb128 0x2
 7228 1d1c 78       		.byte	0x78
 7229 1d1d 00       		.sleb128 0
 7230 1d1e 17       		.uleb128 0x17
 7231 1d1f 01       		.uleb128 0x1
 7232 1d20 50       		.byte	0x50
 7233 1d21 01       		.uleb128 0x1
 7234 1d22 30       		.byte	0x30
 7235 1d23 17       		.uleb128 0x17
 7236 1d24 01       		.uleb128 0x1
 7237 1d25 51       		.byte	0x51
 7238 1d26 05       		.uleb128 0x5
 7239 1d27 03       		.byte	0x3
 7240 1d28 00000000 		.4byte	.LC1
 7241 1d2c 17       		.uleb128 0x17
 7242 1d2d 01       		.uleb128 0x1
 7243 1d2e 52       		.byte	0x52
 7244 1d2f 05       		.uleb128 0x5
 7245 1d30 03       		.byte	0x3
 7246 1d31 EC000000 		.4byte	.LANCHOR1+108
 7247 1d35 17       		.uleb128 0x17
 7248 1d36 01       		.uleb128 0x1
 7249 1d37 53       		.byte	0x53
 7250 1d38 03       		.uleb128 0x3
 7251 1d39 0A       		.byte	0xa
 7252 1d3a 7102     		.2byte	0x271
 7253 1d3c 17       		.uleb128 0x17
 7254 1d3d 02       		.uleb128 0x2
 7255 1d3e 7D       		.byte	0x7d
 7256 1d3f 00       		.sleb128 0
 7257 1d40 01       		.uleb128 0x1
 7258 1d41 31       		.byte	0x31
 7259 1d42 17       		.uleb128 0x17
 7260 1d43 02       		.uleb128 0x2
 7261 1d44 7D       		.byte	0x7d
 7262 1d45 04       		.sleb128 4
 7263 1d46 05       		.uleb128 0x5
 7264 1d47 03       		.byte	0x3
 7265 1d48 04080000 		.4byte	.LC121
 7266 1d4c 17       		.uleb128 0x17
 7267 1d4d 02       		.uleb128 0x2
 7268 1d4e 7D       		.byte	0x7d
 7269 1d4f 08       		.sleb128 8
 7270 1d50 02       		.uleb128 0x2
 7271 1d51 74       		.byte	0x74
 7272 1d52 00       		.sleb128 0
 7273 1d53 17       		.uleb128 0x17
 7274 1d54 02       		.uleb128 0x2
 7275 1d55 7D       		.byte	0x7d
 7276 1d56 0C       		.sleb128 12
 7277 1d57 02       		.uleb128 0x2
 7278 1d58 75       		.byte	0x75
 7279 1d59 00       		.sleb128 0
 7280 1d5a 17       		.uleb128 0x17
 7281 1d5b 02       		.uleb128 0x2
ARM GAS  C:\Users\Phuong\AppData\Local\Temp\ccGVgD3r.s 			page 148


 7282 1d5c 7D       		.byte	0x7d
 7283 1d5d 10       		.sleb128 16
 7284 1d5e 02       		.uleb128 0x2
 7285 1d5f 76       		.byte	0x76
 7286 1d60 00       		.sleb128 0
 7287 1d61 17       		.uleb128 0x17
 7288 1d62 02       		.uleb128 0x2
 7289 1d63 7D       		.byte	0x7d
 7290 1d64 14       		.sleb128 20
 7291 1d65 02       		.uleb128 0x2
 7292 1d66 77       		.byte	0x77
 7293 1d67 00       		.sleb128 0
 7294 1d68 00       		.byte	0
 7295 1d69 00       		.byte	0
 7296 1d6a 13       		.uleb128 0x13
 7297 1d6b 58000000 		.4byte	.LBB61
 7298 1d6f 20000000 		.4byte	.LBE61-.LBB61
 7299 1d73 C61D0000 		.4byte	0x1dc6
 7300 1d77 27       		.uleb128 0x27
 7301 1d78 6C00     		.ascii	"l\000"
 7302 1d7a 01       		.byte	0x1
 7303 1d7b 7802     		.2byte	0x278
 7304 1d7d EE000000 		.4byte	0xee
 7305 1d81 DB150000 		.4byte	.LLST88
 7306 1d85 15       		.uleb128 0x15
 7307 1d86 5C000000 		.4byte	.LVL385
 7308 1d8a 4E220000 		.4byte	0x224e
 7309 1d8e 16       		.uleb128 0x16
 7310 1d8f 78000000 		.4byte	.LVL388
 7311 1d93 02       		.uleb128 0x2
 7312 1d94 74       		.byte	0x74
 7313 1d95 00       		.sleb128 0
 7314 1d96 17       		.uleb128 0x17
 7315 1d97 01       		.uleb128 0x1
 7316 1d98 50       		.byte	0x50
 7317 1d99 01       		.uleb128 0x1
 7318 1d9a 30       		.byte	0x30
 7319 1d9b 17       		.uleb128 0x17
 7320 1d9c 01       		.uleb128 0x1
 7321 1d9d 51       		.byte	0x51
 7322 1d9e 05       		.uleb128 0x5
 7323 1d9f 03       		.byte	0x3
 7324 1da0 00000000 		.4byte	.LC1
 7325 1da4 17       		.uleb128 0x17
 7326 1da5 01       		.uleb128 0x1
 7327 1da6 52       		.byte	0x52
 7328 1da7 05       		.uleb128 0x5
 7329 1da8 03       		.byte	0x3
 7330 1da9 EC000000 		.4byte	.LANCHOR1+108
 7331 1dad 17       		.uleb128 0x17
 7332 1dae 01       		.uleb128 0x1
 7333 1daf 53       		.byte	0x53
 7334 1db0 03       		.uleb128 0x3
 7335 1db1 0A       		.byte	0xa
 7336 1db2 7802     		.2byte	0x278
 7337 1db4 17       		.uleb128 0x17
 7338 1db5 02       		.uleb128 0x2
ARM GAS  C:\Users\Phuong\AppData\Local\Temp\ccGVgD3r.s 			page 149


 7339 1db6 7D       		.byte	0x7d
 7340 1db7 00       		.sleb128 0
 7341 1db8 01       		.uleb128 0x1
 7342 1db9 31       		.byte	0x31
 7343 1dba 17       		.uleb128 0x17
 7344 1dbb 02       		.uleb128 0x2
 7345 1dbc 7D       		.byte	0x7d
 7346 1dbd 04       		.sleb128 4
 7347 1dbe 05       		.uleb128 0x5
 7348 1dbf 03       		.byte	0x3
 7349 1dc0 7C060000 		.4byte	.LC96
 7350 1dc4 00       		.byte	0
 7351 1dc5 00       		.byte	0
 7352 1dc6 2E       		.uleb128 0x2e
 7353 1dc7 48000000 		.4byte	.Ldebug_ranges0+0x48
 7354 1dcb 2B       		.uleb128 0x2b
 7355 1dcc C5000000 		.4byte	.LASF85
 7356 1dd0 01       		.byte	0x1
 7357 1dd1 7F02     		.2byte	0x27f
 7358 1dd3 8C020000 		.4byte	0x28c
 7359 1dd7 04160000 		.4byte	.LLST89
 7360 1ddb 13       		.uleb128 0x13
 7361 1ddc 86000000 		.4byte	.LBB63
 7362 1de0 1E000000 		.4byte	.LBE63-.LBB63
 7363 1de4 371E0000 		.4byte	0x1e37
 7364 1de8 27       		.uleb128 0x27
 7365 1de9 6C00     		.ascii	"l\000"
 7366 1deb 01       		.byte	0x1
 7367 1dec 8302     		.2byte	0x283
 7368 1dee EE000000 		.4byte	0xee
 7369 1df2 46160000 		.4byte	.LLST90
 7370 1df6 15       		.uleb128 0x15
 7371 1df7 8A000000 		.4byte	.LVL393
 7372 1dfb 4E220000 		.4byte	0x224e
 7373 1dff 16       		.uleb128 0x16
 7374 1e00 A4000000 		.4byte	.LVL396
 7375 1e04 02       		.uleb128 0x2
 7376 1e05 74       		.byte	0x74
 7377 1e06 00       		.sleb128 0
 7378 1e07 17       		.uleb128 0x17
 7379 1e08 01       		.uleb128 0x1
 7380 1e09 50       		.byte	0x50
 7381 1e0a 01       		.uleb128 0x1
 7382 1e0b 30       		.byte	0x30
 7383 1e0c 17       		.uleb128 0x17
 7384 1e0d 01       		.uleb128 0x1
 7385 1e0e 51       		.byte	0x51
 7386 1e0f 05       		.uleb128 0x5
 7387 1e10 03       		.byte	0x3
 7388 1e11 00000000 		.4byte	.LC1
 7389 1e15 17       		.uleb128 0x17
 7390 1e16 01       		.uleb128 0x1
 7391 1e17 52       		.byte	0x52
 7392 1e18 05       		.uleb128 0x5
 7393 1e19 03       		.byte	0x3
 7394 1e1a EC000000 		.4byte	.LANCHOR1+108
 7395 1e1e 17       		.uleb128 0x17
ARM GAS  C:\Users\Phuong\AppData\Local\Temp\ccGVgD3r.s 			page 150


 7396 1e1f 01       		.uleb128 0x1
 7397 1e20 53       		.byte	0x53
 7398 1e21 03       		.uleb128 0x3
 7399 1e22 0A       		.byte	0xa
 7400 1e23 8302     		.2byte	0x283
 7401 1e25 17       		.uleb128 0x17
 7402 1e26 02       		.uleb128 0x2
 7403 1e27 7D       		.byte	0x7d
 7404 1e28 00       		.sleb128 0
 7405 1e29 01       		.uleb128 0x1
 7406 1e2a 31       		.byte	0x31
 7407 1e2b 17       		.uleb128 0x17
 7408 1e2c 02       		.uleb128 0x2
 7409 1e2d 7D       		.byte	0x7d
 7410 1e2e 04       		.sleb128 4
 7411 1e2f 05       		.uleb128 0x5
 7412 1e30 03       		.byte	0x3
 7413 1e31 A8060000 		.4byte	.LC98
 7414 1e35 00       		.byte	0
 7415 1e36 00       		.byte	0
 7416 1e37 13       		.uleb128 0x13
 7417 1e38 AA000000 		.4byte	.LBB64
 7418 1e3c 4E010000 		.4byte	.LBE64-.LBB64
 7419 1e40 5A210000 		.4byte	0x215a
 7420 1e44 2B       		.uleb128 0x2b
 7421 1e45 28010000 		.4byte	.LASF105
 7422 1e49 01       		.byte	0x1
 7423 1e4a 8802     		.2byte	0x288
 7424 1e4c 24010000 		.4byte	0x124
 7425 1e50 6F160000 		.4byte	.LLST91
 7426 1e54 13       		.uleb128 0x13
 7427 1e55 B4000000 		.4byte	.LBB65
 7428 1e59 20000000 		.4byte	.LBE65-.LBB65
 7429 1e5d B01E0000 		.4byte	0x1eb0
 7430 1e61 27       		.uleb128 0x27
 7431 1e62 6C00     		.ascii	"l\000"
 7432 1e64 01       		.byte	0x1
 7433 1e65 8C02     		.2byte	0x28c
 7434 1e67 EE000000 		.4byte	0xee
 7435 1e6b A5160000 		.4byte	.LLST92
 7436 1e6f 15       		.uleb128 0x15
 7437 1e70 B8000000 		.4byte	.LVL401
 7438 1e74 4E220000 		.4byte	0x224e
 7439 1e78 16       		.uleb128 0x16
 7440 1e79 D4000000 		.4byte	.LVL404
 7441 1e7d 02       		.uleb128 0x2
 7442 1e7e 74       		.byte	0x74
 7443 1e7f 00       		.sleb128 0
 7444 1e80 17       		.uleb128 0x17
 7445 1e81 01       		.uleb128 0x1
 7446 1e82 50       		.byte	0x50
 7447 1e83 01       		.uleb128 0x1
 7448 1e84 30       		.byte	0x30
 7449 1e85 17       		.uleb128 0x17
 7450 1e86 01       		.uleb128 0x1
 7451 1e87 51       		.byte	0x51
 7452 1e88 05       		.uleb128 0x5
ARM GAS  C:\Users\Phuong\AppData\Local\Temp\ccGVgD3r.s 			page 151


 7453 1e89 03       		.byte	0x3
 7454 1e8a 00000000 		.4byte	.LC1
 7455 1e8e 17       		.uleb128 0x17
 7456 1e8f 01       		.uleb128 0x1
 7457 1e90 52       		.byte	0x52
 7458 1e91 05       		.uleb128 0x5
 7459 1e92 03       		.byte	0x3
 7460 1e93 EC000000 		.4byte	.LANCHOR1+108
 7461 1e97 17       		.uleb128 0x17
 7462 1e98 01       		.uleb128 0x1
 7463 1e99 53       		.byte	0x53
 7464 1e9a 03       		.uleb128 0x3
 7465 1e9b 0A       		.byte	0xa
 7466 1e9c 8C02     		.2byte	0x28c
 7467 1e9e 17       		.uleb128 0x17
 7468 1e9f 02       		.uleb128 0x2
 7469 1ea0 7D       		.byte	0x7d
 7470 1ea1 00       		.sleb128 0
 7471 1ea2 01       		.uleb128 0x1
 7472 1ea3 31       		.byte	0x31
 7473 1ea4 17       		.uleb128 0x17
 7474 1ea5 02       		.uleb128 0x2
 7475 1ea6 7D       		.byte	0x7d
 7476 1ea7 04       		.sleb128 4
 7477 1ea8 05       		.uleb128 0x5
 7478 1ea9 03       		.byte	0x3
 7479 1eaa 14070000 		.4byte	.LC104
 7480 1eae 00       		.byte	0
 7481 1eaf 00       		.byte	0
 7482 1eb0 13       		.uleb128 0x13
 7483 1eb1 F2000000 		.4byte	.LBB66
 7484 1eb5 1C000000 		.4byte	.LBE66-.LBB66
 7485 1eb9 0C1F0000 		.4byte	0x1f0c
 7486 1ebd 27       		.uleb128 0x27
 7487 1ebe 6C00     		.ascii	"l\000"
 7488 1ec0 01       		.byte	0x1
 7489 1ec1 9B02     		.2byte	0x29b
 7490 1ec3 EE000000 		.4byte	0xee
 7491 1ec7 CE160000 		.4byte	.LLST93
 7492 1ecb 15       		.uleb128 0x15
 7493 1ecc F6000000 		.4byte	.LVL410
 7494 1ed0 4E220000 		.4byte	0x224e
 7495 1ed4 16       		.uleb128 0x16
 7496 1ed5 0E010000 		.4byte	.LVL413
 7497 1ed9 02       		.uleb128 0x2
 7498 1eda 74       		.byte	0x74
 7499 1edb 00       		.sleb128 0
 7500 1edc 17       		.uleb128 0x17
 7501 1edd 01       		.uleb128 0x1
 7502 1ede 50       		.byte	0x50
 7503 1edf 01       		.uleb128 0x1
 7504 1ee0 30       		.byte	0x30
 7505 1ee1 17       		.uleb128 0x17
 7506 1ee2 01       		.uleb128 0x1
 7507 1ee3 51       		.byte	0x51
 7508 1ee4 05       		.uleb128 0x5
 7509 1ee5 03       		.byte	0x3
ARM GAS  C:\Users\Phuong\AppData\Local\Temp\ccGVgD3r.s 			page 152


 7510 1ee6 00000000 		.4byte	.LC1
 7511 1eea 17       		.uleb128 0x17
 7512 1eeb 01       		.uleb128 0x1
 7513 1eec 52       		.byte	0x52
 7514 1eed 05       		.uleb128 0x5
 7515 1eee 03       		.byte	0x3
 7516 1eef EC000000 		.4byte	.LANCHOR1+108
 7517 1ef3 17       		.uleb128 0x17
 7518 1ef4 01       		.uleb128 0x1
 7519 1ef5 53       		.byte	0x53
 7520 1ef6 03       		.uleb128 0x3
 7521 1ef7 0A       		.byte	0xa
 7522 1ef8 9B02     		.2byte	0x29b
 7523 1efa 17       		.uleb128 0x17
 7524 1efb 02       		.uleb128 0x2
 7525 1efc 7D       		.byte	0x7d
 7526 1efd 00       		.sleb128 0
 7527 1efe 01       		.uleb128 0x1
 7528 1eff 31       		.byte	0x31
 7529 1f00 17       		.uleb128 0x17
 7530 1f01 02       		.uleb128 0x2
 7531 1f02 7D       		.byte	0x7d
 7532 1f03 04       		.sleb128 4
 7533 1f04 05       		.uleb128 0x5
 7534 1f05 03       		.byte	0x3
 7535 1f06 48070000 		.4byte	.LC108
 7536 1f0a 00       		.byte	0
 7537 1f0b 00       		.byte	0
 7538 1f0c 2F       		.uleb128 0x2f
 7539 1f0d 60000000 		.4byte	.Ldebug_ranges0+0x60
 7540 1f11 EA200000 		.4byte	0x20ea
 7541 1f15 2B       		.uleb128 0x2b
 7542 1f16 96040000 		.4byte	.LASF86
 7543 1f1a 01       		.byte	0x1
 7544 1f1b A002     		.2byte	0x2a0
 7545 1f1d F00A0000 		.4byte	0xaf0
 7546 1f21 F7160000 		.4byte	.LLST94
 7547 1f25 13       		.uleb128 0x13
 7548 1f26 20010000 		.4byte	.LBB68
 7549 1f2a 1C000000 		.4byte	.LBE68-.LBB68
 7550 1f2e 811F0000 		.4byte	0x1f81
 7551 1f32 27       		.uleb128 0x27
 7552 1f33 6C00     		.ascii	"l\000"
 7553 1f35 01       		.byte	0x1
 7554 1f36 A302     		.2byte	0x2a3
 7555 1f38 EE000000 		.4byte	0xee
 7556 1f3c 36170000 		.4byte	.LLST95
 7557 1f40 15       		.uleb128 0x15
 7558 1f41 24010000 		.4byte	.LVL418
 7559 1f45 4E220000 		.4byte	0x224e
 7560 1f49 16       		.uleb128 0x16
 7561 1f4a 3C010000 		.4byte	.LVL421
 7562 1f4e 02       		.uleb128 0x2
 7563 1f4f 74       		.byte	0x74
 7564 1f50 00       		.sleb128 0
 7565 1f51 17       		.uleb128 0x17
 7566 1f52 01       		.uleb128 0x1
ARM GAS  C:\Users\Phuong\AppData\Local\Temp\ccGVgD3r.s 			page 153


 7567 1f53 50       		.byte	0x50
 7568 1f54 01       		.uleb128 0x1
 7569 1f55 30       		.byte	0x30
 7570 1f56 17       		.uleb128 0x17
 7571 1f57 01       		.uleb128 0x1
 7572 1f58 51       		.byte	0x51
 7573 1f59 05       		.uleb128 0x5
 7574 1f5a 03       		.byte	0x3
 7575 1f5b 00000000 		.4byte	.LC1
 7576 1f5f 17       		.uleb128 0x17
 7577 1f60 01       		.uleb128 0x1
 7578 1f61 52       		.byte	0x52
 7579 1f62 05       		.uleb128 0x5
 7580 1f63 03       		.byte	0x3
 7581 1f64 EC000000 		.4byte	.LANCHOR1+108
 7582 1f68 17       		.uleb128 0x17
 7583 1f69 01       		.uleb128 0x1
 7584 1f6a 53       		.byte	0x53
 7585 1f6b 03       		.uleb128 0x3
 7586 1f6c 0A       		.byte	0xa
 7587 1f6d A302     		.2byte	0x2a3
 7588 1f6f 17       		.uleb128 0x17
 7589 1f70 02       		.uleb128 0x2
 7590 1f71 7D       		.byte	0x7d
 7591 1f72 00       		.sleb128 0
 7592 1f73 01       		.uleb128 0x1
 7593 1f74 31       		.byte	0x31
 7594 1f75 17       		.uleb128 0x17
 7595 1f76 02       		.uleb128 0x2
 7596 1f77 7D       		.byte	0x7d
 7597 1f78 04       		.sleb128 4
 7598 1f79 05       		.uleb128 0x5
 7599 1f7a 03       		.byte	0x3
 7600 1f7b 78070000 		.4byte	.LC110
 7601 1f7f 00       		.byte	0
 7602 1f80 00       		.byte	0
 7603 1f81 2F       		.uleb128 0x2f
 7604 1f82 78000000 		.4byte	.Ldebug_ranges0+0x78
 7605 1f86 DA200000 		.4byte	0x20da
 7606 1f8a 2B       		.uleb128 0x2b
 7607 1f8b 76080000 		.4byte	.LASF106
 7608 1f8f 01       		.byte	0x1
 7609 1f90 A802     		.2byte	0x2a8
 7610 1f92 A3000000 		.4byte	0xa3
 7611 1f96 5F170000 		.4byte	.LLST96
 7612 1f9a 13       		.uleb128 0x13
 7613 1f9b 60010000 		.4byte	.LBB70
 7614 1f9f 1C000000 		.4byte	.LBE70-.LBB70
 7615 1fa3 F61F0000 		.4byte	0x1ff6
 7616 1fa7 27       		.uleb128 0x27
 7617 1fa8 6C00     		.ascii	"l\000"
 7618 1faa 01       		.byte	0x1
 7619 1fab B202     		.2byte	0x2b2
 7620 1fad EE000000 		.4byte	0xee
 7621 1fb1 9E170000 		.4byte	.LLST97
 7622 1fb5 15       		.uleb128 0x15
 7623 1fb6 64010000 		.4byte	.LVL429
ARM GAS  C:\Users\Phuong\AppData\Local\Temp\ccGVgD3r.s 			page 154


 7624 1fba 4E220000 		.4byte	0x224e
 7625 1fbe 16       		.uleb128 0x16
 7626 1fbf 7C010000 		.4byte	.LVL432
 7627 1fc3 02       		.uleb128 0x2
 7628 1fc4 74       		.byte	0x74
 7629 1fc5 00       		.sleb128 0
 7630 1fc6 17       		.uleb128 0x17
 7631 1fc7 01       		.uleb128 0x1
 7632 1fc8 50       		.byte	0x50
 7633 1fc9 01       		.uleb128 0x1
 7634 1fca 30       		.byte	0x30
 7635 1fcb 17       		.uleb128 0x17
 7636 1fcc 01       		.uleb128 0x1
 7637 1fcd 51       		.byte	0x51
 7638 1fce 05       		.uleb128 0x5
 7639 1fcf 03       		.byte	0x3
 7640 1fd0 00000000 		.4byte	.LC1
 7641 1fd4 17       		.uleb128 0x17
 7642 1fd5 01       		.uleb128 0x1
 7643 1fd6 52       		.byte	0x52
 7644 1fd7 05       		.uleb128 0x5
 7645 1fd8 03       		.byte	0x3
 7646 1fd9 EC000000 		.4byte	.LANCHOR1+108
 7647 1fdd 17       		.uleb128 0x17
 7648 1fde 01       		.uleb128 0x1
 7649 1fdf 53       		.byte	0x53
 7650 1fe0 03       		.uleb128 0x3
 7651 1fe1 0A       		.byte	0xa
 7652 1fe2 B202     		.2byte	0x2b2
 7653 1fe4 17       		.uleb128 0x17
 7654 1fe5 02       		.uleb128 0x2
 7655 1fe6 7D       		.byte	0x7d
 7656 1fe7 00       		.sleb128 0
 7657 1fe8 01       		.uleb128 0x1
 7658 1fe9 31       		.byte	0x31
 7659 1fea 17       		.uleb128 0x17
 7660 1feb 02       		.uleb128 0x2
 7661 1fec 7D       		.byte	0x7d
 7662 1fed 04       		.sleb128 4
 7663 1fee 05       		.uleb128 0x5
 7664 1fef 03       		.byte	0x3
 7665 1ff0 A4070000 		.4byte	.LC112
 7666 1ff4 00       		.byte	0
 7667 1ff5 00       		.byte	0
 7668 1ff6 13       		.uleb128 0x13
 7669 1ff7 A8010000 		.4byte	.LBB71
 7670 1ffb 1C000000 		.4byte	.LBE71-.LBB71
 7671 1fff 52200000 		.4byte	0x2052
 7672 2003 27       		.uleb128 0x27
 7673 2004 6C00     		.ascii	"l\000"
 7674 2006 01       		.byte	0x1
 7675 2007 C702     		.2byte	0x2c7
 7676 2009 EE000000 		.4byte	0xee
 7677 200d C7170000 		.4byte	.LLST98
 7678 2011 15       		.uleb128 0x15
 7679 2012 AC010000 		.4byte	.LVL439
 7680 2016 4E220000 		.4byte	0x224e
ARM GAS  C:\Users\Phuong\AppData\Local\Temp\ccGVgD3r.s 			page 155


 7681 201a 16       		.uleb128 0x16
 7682 201b C4010000 		.4byte	.LVL442
 7683 201f 02       		.uleb128 0x2
 7684 2020 74       		.byte	0x74
 7685 2021 00       		.sleb128 0
 7686 2022 17       		.uleb128 0x17
 7687 2023 01       		.uleb128 0x1
 7688 2024 50       		.byte	0x50
 7689 2025 01       		.uleb128 0x1
 7690 2026 30       		.byte	0x30
 7691 2027 17       		.uleb128 0x17
 7692 2028 01       		.uleb128 0x1
 7693 2029 51       		.byte	0x51
 7694 202a 05       		.uleb128 0x5
 7695 202b 03       		.byte	0x3
 7696 202c 00000000 		.4byte	.LC1
 7697 2030 17       		.uleb128 0x17
 7698 2031 01       		.uleb128 0x1
 7699 2032 52       		.byte	0x52
 7700 2033 05       		.uleb128 0x5
 7701 2034 03       		.byte	0x3
 7702 2035 EC000000 		.4byte	.LANCHOR1+108
 7703 2039 17       		.uleb128 0x17
 7704 203a 01       		.uleb128 0x1
 7705 203b 53       		.byte	0x53
 7706 203c 03       		.uleb128 0x3
 7707 203d 0A       		.byte	0xa
 7708 203e C702     		.2byte	0x2c7
 7709 2040 17       		.uleb128 0x17
 7710 2041 02       		.uleb128 0x2
 7711 2042 7D       		.byte	0x7d
 7712 2043 00       		.sleb128 0
 7713 2044 01       		.uleb128 0x1
 7714 2045 31       		.byte	0x31
 7715 2046 17       		.uleb128 0x17
 7716 2047 02       		.uleb128 0x2
 7717 2048 7D       		.byte	0x7d
 7718 2049 04       		.sleb128 4
 7719 204a 05       		.uleb128 0x5
 7720 204b 03       		.byte	0x3
 7721 204c D8070000 		.4byte	.LC117
 7722 2050 00       		.byte	0
 7723 2051 00       		.byte	0
 7724 2052 21       		.uleb128 0x21
 7725 2053 54010000 		.4byte	.LVL425
 7726 2057 09230000 		.4byte	0x2309
 7727 205b 66200000 		.4byte	0x2066
 7728 205f 17       		.uleb128 0x17
 7729 2060 01       		.uleb128 0x1
 7730 2061 51       		.byte	0x51
 7731 2062 02       		.uleb128 0x2
 7732 2063 78       		.byte	0x78
 7733 2064 00       		.sleb128 0
 7734 2065 00       		.byte	0
 7735 2066 21       		.uleb128 0x21
 7736 2067 60010000 		.4byte	.LVL428
 7737 206b 7A220000 		.4byte	0x227a
ARM GAS  C:\Users\Phuong\AppData\Local\Temp\ccGVgD3r.s 			page 156


 7738 206f 7A200000 		.4byte	0x207a
 7739 2073 17       		.uleb128 0x17
 7740 2074 01       		.uleb128 0x1
 7741 2075 50       		.byte	0x50
 7742 2076 02       		.uleb128 0x2
 7743 2077 78       		.byte	0x78
 7744 2078 00       		.sleb128 0
 7745 2079 00       		.byte	0
 7746 207a 21       		.uleb128 0x21
 7747 207b 96010000 		.4byte	.LVL436
 7748 207f 14230000 		.4byte	0x2314
 7749 2083 B5200000 		.4byte	0x20b5
 7750 2087 17       		.uleb128 0x17
 7751 2088 01       		.uleb128 0x1
 7752 2089 51       		.byte	0x51
 7753 208a 05       		.uleb128 0x5
 7754 208b 03       		.byte	0x3
 7755 208c 5C080000 		.4byte	.LC130
 7756 2090 17       		.uleb128 0x17
 7757 2091 01       		.uleb128 0x1
 7758 2092 52       		.byte	0x52
 7759 2093 02       		.uleb128 0x2
 7760 2094 75       		.byte	0x75
 7761 2095 00       		.sleb128 0
 7762 2096 17       		.uleb128 0x17
 7763 2097 01       		.uleb128 0x1
 7764 2098 53       		.byte	0x53
 7765 2099 01       		.uleb128 0x1
 7766 209a 30       		.byte	0x30
 7767 209b 17       		.uleb128 0x17
 7768 209c 02       		.uleb128 0x2
 7769 209d 7D       		.byte	0x7d
 7770 209e 00       		.sleb128 0
 7771 209f 03       		.uleb128 0x3
 7772 20a0 91       		.byte	0x91
 7773 20a1 5C       		.sleb128 -36
 7774 20a2 06       		.byte	0x6
 7775 20a3 17       		.uleb128 0x17
 7776 20a4 02       		.uleb128 0x2
 7777 20a5 7D       		.byte	0x7d
 7778 20a6 04       		.sleb128 4
 7779 20a7 05       		.uleb128 0x5
 7780 20a8 03       		.byte	0x3
 7781 20a9 00000000 		.4byte	on_amqp_management_execute_operation_complete
 7782 20ad 17       		.uleb128 0x17
 7783 20ae 02       		.uleb128 0x2
 7784 20af 7D       		.byte	0x7d
 7785 20b0 08       		.sleb128 8
 7786 20b1 02       		.uleb128 0x2
 7787 20b2 79       		.byte	0x79
 7788 20b3 00       		.sleb128 0
 7789 20b4 00       		.byte	0
 7790 20b5 21       		.uleb128 0x21
 7791 20b6 A2010000 		.4byte	.LVL437
 7792 20ba 6F220000 		.4byte	0x226f
 7793 20be C9200000 		.4byte	0x20c9
 7794 20c2 17       		.uleb128 0x17
ARM GAS  C:\Users\Phuong\AppData\Local\Temp\ccGVgD3r.s 			page 157


 7795 20c3 01       		.uleb128 0x1
 7796 20c4 51       		.byte	0x51
 7797 20c5 02       		.uleb128 0x2
 7798 20c6 79       		.byte	0x79
 7799 20c7 00       		.sleb128 0
 7800 20c8 00       		.byte	0
 7801 20c9 22       		.uleb128 0x22
 7802 20ca A8010000 		.4byte	.LVL438
 7803 20ce 7A220000 		.4byte	0x227a
 7804 20d2 17       		.uleb128 0x17
 7805 20d3 01       		.uleb128 0x1
 7806 20d4 50       		.byte	0x50
 7807 20d5 02       		.uleb128 0x2
 7808 20d6 78       		.byte	0x78
 7809 20d7 00       		.sleb128 0
 7810 20d8 00       		.byte	0
 7811 20d9 00       		.byte	0
 7812 20da 22       		.uleb128 0x22
 7813 20db 1A010000 		.4byte	.LVL416
 7814 20df A6220000 		.4byte	0x22a6
 7815 20e3 17       		.uleb128 0x17
 7816 20e4 01       		.uleb128 0x1
 7817 20e5 50       		.byte	0x50
 7818 20e6 01       		.uleb128 0x1
 7819 20e7 3C       		.byte	0x3c
 7820 20e8 00       		.byte	0
 7821 20e9 00       		.byte	0
 7822 20ea 15       		.uleb128 0x15
 7823 20eb AE000000 		.4byte	.LVL399
 7824 20ef 1F230000 		.4byte	0x231f
 7825 20f3 21       		.uleb128 0x21
 7826 20f4 E2000000 		.4byte	.LVL408
 7827 20f8 F60A0000 		.4byte	0xaf6
 7828 20fc 17210000 		.4byte	0x2117
 7829 2100 17       		.uleb128 0x17
 7830 2101 01       		.uleb128 0x1
 7831 2102 50       		.byte	0x50
 7832 2103 03       		.uleb128 0x3
 7833 2104 91       		.byte	0x91
 7834 2105 58       		.sleb128 -40
 7835 2106 06       		.byte	0x6
 7836 2107 17       		.uleb128 0x17
 7837 2108 01       		.uleb128 0x1
 7838 2109 51       		.byte	0x51
 7839 210a 05       		.uleb128 0x5
 7840 210b 03       		.byte	0x3
 7841 210c 40070000 		.4byte	.LC106
 7842 2110 17       		.uleb128 0x17
 7843 2111 01       		.uleb128 0x1
 7844 2112 52       		.byte	0x52
 7845 2113 02       		.uleb128 0x2
 7846 2114 76       		.byte	0x76
 7847 2115 00       		.sleb128 0
 7848 2116 00       		.byte	0
 7849 2117 21       		.uleb128 0x21
 7850 2118 EE000000 		.4byte	.LVL409
 7851 211c 2A230000 		.4byte	0x232a
ARM GAS  C:\Users\Phuong\AppData\Local\Temp\ccGVgD3r.s 			page 158


 7852 2120 33210000 		.4byte	0x2133
 7853 2124 17       		.uleb128 0x17
 7854 2125 01       		.uleb128 0x1
 7855 2126 50       		.byte	0x50
 7856 2127 03       		.uleb128 0x3
 7857 2128 91       		.byte	0x91
 7858 2129 5C       		.sleb128 -36
 7859 212a 06       		.byte	0x6
 7860 212b 17       		.uleb128 0x17
 7861 212c 01       		.uleb128 0x1
 7862 212d 51       		.byte	0x51
 7863 212e 03       		.uleb128 0x3
 7864 212f 91       		.byte	0x91
 7865 2130 58       		.sleb128 -40
 7866 2131 06       		.byte	0x6
 7867 2132 00       		.byte	0
 7868 2133 21       		.uleb128 0x21
 7869 2134 EC010000 		.4byte	.LVL453
 7870 2138 9B220000 		.4byte	0x229b
 7871 213c 48210000 		.4byte	0x2148
 7872 2140 17       		.uleb128 0x17
 7873 2141 01       		.uleb128 0x1
 7874 2142 50       		.byte	0x50
 7875 2143 03       		.uleb128 0x3
 7876 2144 91       		.byte	0x91
 7877 2145 58       		.sleb128 -40
 7878 2146 06       		.byte	0x6
 7879 2147 00       		.byte	0
 7880 2148 22       		.uleb128 0x22
 7881 2149 F6010000 		.4byte	.LVL456
 7882 214d 40230000 		.4byte	0x2340
 7883 2151 17       		.uleb128 0x17
 7884 2152 01       		.uleb128 0x1
 7885 2153 50       		.byte	0x50
 7886 2154 03       		.uleb128 0x3
 7887 2155 91       		.byte	0x91
 7888 2156 5C       		.sleb128 -36
 7889 2157 06       		.byte	0x6
 7890 2158 00       		.byte	0
 7891 2159 00       		.byte	0
 7892 215a 15       		.uleb128 0x15
 7893 215b 80000000 		.4byte	.LVL391
 7894 215f 4B230000 		.4byte	0x234b
 7895 2163 00       		.byte	0
 7896 2164 00       		.byte	0
 7897 2165 1A       		.uleb128 0x1a
 7898 2166 88000000 		.4byte	0x88
 7899 216a 75210000 		.4byte	0x2175
 7900 216e 1B       		.uleb128 0x1b
 7901 216f 72000000 		.4byte	0x72
 7902 2173 16       		.byte	0x16
 7903 2174 00       		.byte	0
 7904 2175 06       		.uleb128 0x6
 7905 2176 65210000 		.4byte	0x2165
 7906 217a 25       		.uleb128 0x25
 7907 217b F8060000 		.4byte	.LASF110
 7908 217f 01       		.byte	0x1
ARM GAS  C:\Users\Phuong\AppData\Local\Temp\ccGVgD3r.s 			page 159


 7909 2180 DD02     		.2byte	0x2dd
 7910 2182 2C000000 		.4byte	0x2c
 7911 2186 00000000 		.4byte	.LFB11
 7912 218a 4C000000 		.4byte	.LFE11-.LFB11
 7913 218e 01       		.uleb128 0x1
 7914 218f 9C       		.byte	0x9c
 7915 2190 39220000 		.4byte	0x2239
 7916 2194 2A       		.uleb128 0x2a
 7917 2195 63627300 		.ascii	"cbs\000"
 7918 2199 01       		.byte	0x1
 7919 219a DD02     		.2byte	0x2dd
 7920 219c C3010000 		.4byte	0x1c3
 7921 21a0 F0170000 		.4byte	.LLST99
 7922 21a4 26       		.uleb128 0x26
 7923 21a5 E8010000 		.4byte	.LASF111
 7924 21a9 01       		.byte	0x1
 7925 21aa DD02     		.2byte	0x2dd
 7926 21ac B9000000 		.4byte	0xb9
 7927 21b0 2A180000 		.4byte	.LLST100
 7928 21b4 2B       		.uleb128 0x2b
 7929 21b5 81030000 		.4byte	.LASF89
 7930 21b9 01       		.byte	0x1
 7931 21ba DF02     		.2byte	0x2df
 7932 21bc 2C000000 		.4byte	0x2c
 7933 21c0 64180000 		.4byte	.LLST101
 7934 21c4 12       		.uleb128 0x12
 7935 21c5 4C0C0000 		.4byte	.LASF80
 7936 21c9 49220000 		.4byte	0x2249
 7937 21cd 05       		.uleb128 0x5
 7938 21ce 03       		.byte	0x3
 7939 21cf 04010000 		.4byte	__func__.7678
 7940 21d3 13       		.uleb128 0x13
 7941 21d4 08000000 		.4byte	.LBB75
 7942 21d8 1E000000 		.4byte	.LBE75-.LBB75
 7943 21dc 2F220000 		.4byte	0x222f
 7944 21e0 27       		.uleb128 0x27
 7945 21e1 6C00     		.ascii	"l\000"
 7946 21e3 01       		.byte	0x1
 7947 21e4 E402     		.2byte	0x2e4
 7948 21e6 EE000000 		.4byte	0xee
 7949 21ea 83180000 		.4byte	.LLST102
 7950 21ee 15       		.uleb128 0x15
 7951 21ef 0C000000 		.4byte	.LVL467
 7952 21f3 4E220000 		.4byte	0x224e
 7953 21f7 16       		.uleb128 0x16
 7954 21f8 26000000 		.4byte	.LVL470
 7955 21fc 02       		.uleb128 0x2
 7956 21fd 74       		.byte	0x74
 7957 21fe 00       		.sleb128 0
 7958 21ff 17       		.uleb128 0x17
 7959 2200 01       		.uleb128 0x1
 7960 2201 50       		.byte	0x50
 7961 2202 01       		.uleb128 0x1
 7962 2203 30       		.byte	0x30
 7963 2204 17       		.uleb128 0x17
 7964 2205 01       		.uleb128 0x1
 7965 2206 51       		.byte	0x51
ARM GAS  C:\Users\Phuong\AppData\Local\Temp\ccGVgD3r.s 			page 160


 7966 2207 05       		.uleb128 0x5
 7967 2208 03       		.byte	0x3
 7968 2209 00000000 		.4byte	.LC1
 7969 220d 17       		.uleb128 0x17
 7970 220e 01       		.uleb128 0x1
 7971 220f 52       		.byte	0x52
 7972 2210 05       		.uleb128 0x5
 7973 2211 03       		.byte	0x3
 7974 2212 04010000 		.4byte	.LANCHOR2+4
 7975 2216 17       		.uleb128 0x17
 7976 2217 01       		.uleb128 0x1
 7977 2218 53       		.byte	0x53
 7978 2219 03       		.uleb128 0x3
 7979 221a 0A       		.byte	0xa
 7980 221b E402     		.2byte	0x2e4
 7981 221d 17       		.uleb128 0x17
 7982 221e 02       		.uleb128 0x2
 7983 221f 7D       		.byte	0x7d
 7984 2220 00       		.sleb128 0
 7985 2221 01       		.uleb128 0x1
 7986 2222 31       		.byte	0x31
 7987 2223 17       		.uleb128 0x17
 7988 2224 02       		.uleb128 0x2
 7989 2225 7D       		.byte	0x7d
 7990 2226 04       		.sleb128 4
 7991 2227 05       		.uleb128 0x5
 7992 2228 03       		.byte	0x3
 7993 2229 D4040000 		.4byte	.LC67
 7994 222d 00       		.byte	0
 7995 222e 00       		.byte	0
 7996 222f 15       		.uleb128 0x15
 7997 2230 30000000 		.4byte	.LVL473
 7998 2234 56230000 		.4byte	0x2356
 7999 2238 00       		.byte	0
 8000 2239 1A       		.uleb128 0x1a
 8001 223a 88000000 		.4byte	0x88
 8002 223e 49220000 		.4byte	0x2249
 8003 2242 1B       		.uleb128 0x1b
 8004 2243 72000000 		.4byte	0x72
 8005 2247 0D       		.byte	0xd
 8006 2248 00       		.byte	0
 8007 2249 06       		.uleb128 0x6
 8008 224a 39220000 		.4byte	0x2239
 8009 224e 30       		.uleb128 0x30
 8010 224f 43020000 		.4byte	.LASF112
 8011 2253 43020000 		.4byte	.LASF112
 8012 2257 03       		.byte	0x3
 8013 2258 9D       		.byte	0x9d
 8014 2259 30       		.uleb128 0x30
 8015 225a BB030000 		.4byte	.LASF113
 8016 225e BB030000 		.4byte	.LASF113
 8017 2262 08       		.byte	0x8
 8018 2263 29       		.byte	0x29
 8019 2264 30       		.uleb128 0x30
 8020 2265 E20B0000 		.4byte	.LASF114
 8021 2269 E20B0000 		.4byte	.LASF114
 8022 226d 02       		.byte	0x2
ARM GAS  C:\Users\Phuong\AppData\Local\Temp\ccGVgD3r.s 			page 161


 8023 226e 31       		.byte	0x31
 8024 226f 30       		.uleb128 0x30
 8025 2270 1B0B0000 		.4byte	.LASF115
 8026 2274 1B0B0000 		.4byte	.LASF115
 8027 2278 02       		.byte	0x2
 8028 2279 2D       		.byte	0x2d
 8029 227a 30       		.uleb128 0x30
 8030 227b 15050000 		.4byte	.LASF116
 8031 227f 15050000 		.4byte	.LASF116
 8032 2283 09       		.byte	0x9
 8033 2284 59       		.byte	0x59
 8034 2285 30       		.uleb128 0x30
 8035 2286 8D020000 		.4byte	.LASF117
 8036 228a 8D020000 		.4byte	.LASF117
 8037 228e 04       		.byte	0x4
 8038 228f 3F       		.byte	0x3f
 8039 2290 30       		.uleb128 0x30
 8040 2291 1E070000 		.4byte	.LASF118
 8041 2295 1E070000 		.4byte	.LASF118
 8042 2299 04       		.byte	0x4
 8043 229a 49       		.byte	0x49
 8044 229b 30       		.uleb128 0x30
 8045 229c B0070000 		.4byte	.LASF119
 8046 22a0 B0070000 		.4byte	.LASF119
 8047 22a4 04       		.byte	0x4
 8048 22a5 55       		.byte	0x55
 8049 22a6 30       		.uleb128 0x30
 8050 22a7 4B030000 		.4byte	.LASF120
 8051 22ab 4B030000 		.4byte	.LASF120
 8052 22af 09       		.byte	0x9
 8053 22b0 64       		.byte	0x64
 8054 22b1 30       		.uleb128 0x30
 8055 22b2 330B0000 		.4byte	.LASF121
 8056 22b6 330B0000 		.4byte	.LASF121
 8057 22ba 02       		.byte	0x2
 8058 22bb 29       		.byte	0x29
 8059 22bc 30       		.uleb128 0x30
 8060 22bd 9C0A0000 		.4byte	.LASF122
 8061 22c1 9C0A0000 		.4byte	.LASF122
 8062 22c5 08       		.byte	0x8
 8063 22c6 26       		.byte	0x26
 8064 22c7 30       		.uleb128 0x30
 8065 22c8 FC010000 		.4byte	.LASF123
 8066 22cc FC010000 		.4byte	.LASF123
 8067 22d0 08       		.byte	0x8
 8068 22d1 2C       		.byte	0x2c
 8069 22d2 30       		.uleb128 0x30
 8070 22d3 97050000 		.4byte	.LASF124
 8071 22d7 97050000 		.4byte	.LASF124
 8072 22db 08       		.byte	0x8
 8073 22dc 2D       		.byte	0x2d
 8074 22dd 30       		.uleb128 0x30
 8075 22de 42060000 		.4byte	.LASF125
 8076 22e2 42060000 		.4byte	.LASF125
 8077 22e6 08       		.byte	0x8
 8078 22e7 27       		.byte	0x27
 8079 22e8 30       		.uleb128 0x30
ARM GAS  C:\Users\Phuong\AppData\Local\Temp\ccGVgD3r.s 			page 162


 8080 22e9 97070000 		.4byte	.LASF126
 8081 22ed 97070000 		.4byte	.LASF126
 8082 22f1 02       		.byte	0x2
 8083 22f2 2A       		.byte	0x2a
 8084 22f3 30       		.uleb128 0x30
 8085 22f4 C1040000 		.4byte	.LASF127
 8086 22f8 C1040000 		.4byte	.LASF127
 8087 22fc 02       		.byte	0x2
 8088 22fd 2E       		.byte	0x2e
 8089 22fe 30       		.uleb128 0x30
 8090 22ff 19090000 		.4byte	.LASF128
 8091 2303 19090000 		.4byte	.LASF128
 8092 2307 08       		.byte	0x8
 8093 2308 28       		.byte	0x28
 8094 2309 30       		.uleb128 0x30
 8095 230a 2E020000 		.4byte	.LASF129
 8096 230e 2E020000 		.4byte	.LASF129
 8097 2312 02       		.byte	0x2
 8098 2313 2B       		.byte	0x2b
 8099 2314 30       		.uleb128 0x30
 8100 2315 15000000 		.4byte	.LASF130
 8101 2319 15000000 		.4byte	.LASF130
 8102 231d 08       		.byte	0x8
 8103 231e 2A       		.byte	0x2a
 8104 231f 30       		.uleb128 0x30
 8105 2320 BC060000 		.4byte	.LASF131
 8106 2324 BC060000 		.4byte	.LASF131
 8107 2328 04       		.byte	0x4
 8108 2329 48       		.byte	0x48
 8109 232a 30       		.uleb128 0x30
 8110 232b 53080000 		.4byte	.LASF132
 8111 232f 53080000 		.4byte	.LASF132
 8112 2333 07       		.byte	0x7
 8113 2334 36       		.byte	0x36
 8114 2335 30       		.uleb128 0x30
 8115 2336 5D020000 		.4byte	.LASF133
 8116 233a 5D020000 		.4byte	.LASF133
 8117 233e 07       		.byte	0x7
 8118 233f 3D       		.byte	0x3d
 8119 2340 30       		.uleb128 0x30
 8120 2341 2D050000 		.4byte	.LASF134
 8121 2345 2D050000 		.4byte	.LASF134
 8122 2349 07       		.byte	0x7
 8123 234a 2D       		.byte	0x2d
 8124 234b 30       		.uleb128 0x30
 8125 234c 75070000 		.4byte	.LASF135
 8126 2350 75070000 		.4byte	.LASF135
 8127 2354 07       		.byte	0x7
 8128 2355 2B       		.byte	0x2b
 8129 2356 30       		.uleb128 0x30
 8130 2357 0E0C0000 		.4byte	.LASF136
 8131 235b 0E0C0000 		.4byte	.LASF136
 8132 235f 08       		.byte	0x8
 8133 2360 2B       		.byte	0x2b
 8134 2361 00       		.byte	0
 8135              		.section	.debug_abbrev,"",%progbits
 8136              	.Ldebug_abbrev0:
ARM GAS  C:\Users\Phuong\AppData\Local\Temp\ccGVgD3r.s 			page 163


 8137 0000 01       		.uleb128 0x1
 8138 0001 11       		.uleb128 0x11
 8139 0002 01       		.byte	0x1
 8140 0003 25       		.uleb128 0x25
 8141 0004 0E       		.uleb128 0xe
 8142 0005 13       		.uleb128 0x13
 8143 0006 0B       		.uleb128 0xb
 8144 0007 03       		.uleb128 0x3
 8145 0008 0E       		.uleb128 0xe
 8146 0009 1B       		.uleb128 0x1b
 8147 000a 0E       		.uleb128 0xe
 8148 000b 55       		.uleb128 0x55
 8149 000c 17       		.uleb128 0x17
 8150 000d 11       		.uleb128 0x11
 8151 000e 01       		.uleb128 0x1
 8152 000f 10       		.uleb128 0x10
 8153 0010 17       		.uleb128 0x17
 8154 0011 00       		.byte	0
 8155 0012 00       		.byte	0
 8156 0013 02       		.uleb128 0x2
 8157 0014 24       		.uleb128 0x24
 8158 0015 00       		.byte	0
 8159 0016 0B       		.uleb128 0xb
 8160 0017 0B       		.uleb128 0xb
 8161 0018 3E       		.uleb128 0x3e
 8162 0019 0B       		.uleb128 0xb
 8163 001a 03       		.uleb128 0x3
 8164 001b 0E       		.uleb128 0xe
 8165 001c 00       		.byte	0
 8166 001d 00       		.byte	0
 8167 001e 03       		.uleb128 0x3
 8168 001f 24       		.uleb128 0x24
 8169 0020 00       		.byte	0
 8170 0021 0B       		.uleb128 0xb
 8171 0022 0B       		.uleb128 0xb
 8172 0023 3E       		.uleb128 0x3e
 8173 0024 0B       		.uleb128 0xb
 8174 0025 03       		.uleb128 0x3
 8175 0026 08       		.uleb128 0x8
 8176 0027 00       		.byte	0
 8177 0028 00       		.byte	0
 8178 0029 04       		.uleb128 0x4
 8179 002a 0F       		.uleb128 0xf
 8180 002b 00       		.byte	0
 8181 002c 0B       		.uleb128 0xb
 8182 002d 0B       		.uleb128 0xb
 8183 002e 00       		.byte	0
 8184 002f 00       		.byte	0
 8185 0030 05       		.uleb128 0x5
 8186 0031 0F       		.uleb128 0xf
 8187 0032 00       		.byte	0
 8188 0033 0B       		.uleb128 0xb
 8189 0034 0B       		.uleb128 0xb
 8190 0035 49       		.uleb128 0x49
 8191 0036 13       		.uleb128 0x13
 8192 0037 00       		.byte	0
 8193 0038 00       		.byte	0
ARM GAS  C:\Users\Phuong\AppData\Local\Temp\ccGVgD3r.s 			page 164


 8194 0039 06       		.uleb128 0x6
 8195 003a 26       		.uleb128 0x26
 8196 003b 00       		.byte	0
 8197 003c 49       		.uleb128 0x49
 8198 003d 13       		.uleb128 0x13
 8199 003e 00       		.byte	0
 8200 003f 00       		.byte	0
 8201 0040 07       		.uleb128 0x7
 8202 0041 16       		.uleb128 0x16
 8203 0042 00       		.byte	0
 8204 0043 03       		.uleb128 0x3
 8205 0044 0E       		.uleb128 0xe
 8206 0045 3A       		.uleb128 0x3a
 8207 0046 0B       		.uleb128 0xb
 8208 0047 3B       		.uleb128 0x3b
 8209 0048 0B       		.uleb128 0xb
 8210 0049 49       		.uleb128 0x49
 8211 004a 13       		.uleb128 0x13
 8212 004b 00       		.byte	0
 8213 004c 00       		.byte	0
 8214 004d 08       		.uleb128 0x8
 8215 004e 13       		.uleb128 0x13
 8216 004f 00       		.byte	0
 8217 0050 03       		.uleb128 0x3
 8218 0051 0E       		.uleb128 0xe
 8219 0052 3C       		.uleb128 0x3c
 8220 0053 19       		.uleb128 0x19
 8221 0054 00       		.byte	0
 8222 0055 00       		.byte	0
 8223 0056 09       		.uleb128 0x9
 8224 0057 04       		.uleb128 0x4
 8225 0058 01       		.byte	0x1
 8226 0059 03       		.uleb128 0x3
 8227 005a 0E       		.uleb128 0xe
 8228 005b 0B       		.uleb128 0xb
 8229 005c 0B       		.uleb128 0xb
 8230 005d 49       		.uleb128 0x49
 8231 005e 13       		.uleb128 0x13
 8232 005f 3A       		.uleb128 0x3a
 8233 0060 0B       		.uleb128 0xb
 8234 0061 3B       		.uleb128 0x3b
 8235 0062 0B       		.uleb128 0xb
 8236 0063 01       		.uleb128 0x1
 8237 0064 13       		.uleb128 0x13
 8238 0065 00       		.byte	0
 8239 0066 00       		.byte	0
 8240 0067 0A       		.uleb128 0xa
 8241 0068 28       		.uleb128 0x28
 8242 0069 00       		.byte	0
 8243 006a 03       		.uleb128 0x3
 8244 006b 0E       		.uleb128 0xe
 8245 006c 1C       		.uleb128 0x1c
 8246 006d 0B       		.uleb128 0xb
 8247 006e 00       		.byte	0
 8248 006f 00       		.byte	0
 8249 0070 0B       		.uleb128 0xb
 8250 0071 15       		.uleb128 0x15
ARM GAS  C:\Users\Phuong\AppData\Local\Temp\ccGVgD3r.s 			page 165


 8251 0072 01       		.byte	0x1
 8252 0073 27       		.uleb128 0x27
 8253 0074 19       		.uleb128 0x19
 8254 0075 01       		.uleb128 0x1
 8255 0076 13       		.uleb128 0x13
 8256 0077 00       		.byte	0
 8257 0078 00       		.byte	0
 8258 0079 0C       		.uleb128 0xc
 8259 007a 05       		.uleb128 0x5
 8260 007b 00       		.byte	0
 8261 007c 49       		.uleb128 0x49
 8262 007d 13       		.uleb128 0x13
 8263 007e 00       		.byte	0
 8264 007f 00       		.byte	0
 8265 0080 0D       		.uleb128 0xd
 8266 0081 18       		.uleb128 0x18
 8267 0082 00       		.byte	0
 8268 0083 00       		.byte	0
 8269 0084 00       		.byte	0
 8270 0085 0E       		.uleb128 0xe
 8271 0086 13       		.uleb128 0x13
 8272 0087 01       		.byte	0x1
 8273 0088 03       		.uleb128 0x3
 8274 0089 0E       		.uleb128 0xe
 8275 008a 0B       		.uleb128 0xb
 8276 008b 0B       		.uleb128 0xb
 8277 008c 3A       		.uleb128 0x3a
 8278 008d 0B       		.uleb128 0xb
 8279 008e 3B       		.uleb128 0x3b
 8280 008f 0B       		.uleb128 0xb
 8281 0090 01       		.uleb128 0x1
 8282 0091 13       		.uleb128 0x13
 8283 0092 00       		.byte	0
 8284 0093 00       		.byte	0
 8285 0094 0F       		.uleb128 0xf
 8286 0095 0D       		.uleb128 0xd
 8287 0096 00       		.byte	0
 8288 0097 03       		.uleb128 0x3
 8289 0098 0E       		.uleb128 0xe
 8290 0099 3A       		.uleb128 0x3a
 8291 009a 0B       		.uleb128 0xb
 8292 009b 3B       		.uleb128 0x3b
 8293 009c 0B       		.uleb128 0xb
 8294 009d 49       		.uleb128 0x49
 8295 009e 13       		.uleb128 0x13
 8296 009f 38       		.uleb128 0x38
 8297 00a0 0B       		.uleb128 0xb
 8298 00a1 00       		.byte	0
 8299 00a2 00       		.byte	0
 8300 00a3 10       		.uleb128 0x10
 8301 00a4 2E       		.uleb128 0x2e
 8302 00a5 01       		.byte	0x1
 8303 00a6 03       		.uleb128 0x3
 8304 00a7 0E       		.uleb128 0xe
 8305 00a8 3A       		.uleb128 0x3a
 8306 00a9 0B       		.uleb128 0xb
 8307 00aa 3B       		.uleb128 0x3b
ARM GAS  C:\Users\Phuong\AppData\Local\Temp\ccGVgD3r.s 			page 166


 8308 00ab 0B       		.uleb128 0xb
 8309 00ac 27       		.uleb128 0x27
 8310 00ad 19       		.uleb128 0x19
 8311 00ae 11       		.uleb128 0x11
 8312 00af 01       		.uleb128 0x1
 8313 00b0 12       		.uleb128 0x12
 8314 00b1 06       		.uleb128 0x6
 8315 00b2 40       		.uleb128 0x40
 8316 00b3 18       		.uleb128 0x18
 8317 00b4 9642     		.uleb128 0x2116
 8318 00b6 19       		.uleb128 0x19
 8319 00b7 01       		.uleb128 0x1
 8320 00b8 13       		.uleb128 0x13
 8321 00b9 00       		.byte	0
 8322 00ba 00       		.byte	0
 8323 00bb 11       		.uleb128 0x11
 8324 00bc 05       		.uleb128 0x5
 8325 00bd 00       		.byte	0
 8326 00be 03       		.uleb128 0x3
 8327 00bf 0E       		.uleb128 0xe
 8328 00c0 3A       		.uleb128 0x3a
 8329 00c1 0B       		.uleb128 0xb
 8330 00c2 3B       		.uleb128 0x3b
 8331 00c3 0B       		.uleb128 0xb
 8332 00c4 49       		.uleb128 0x49
 8333 00c5 13       		.uleb128 0x13
 8334 00c6 02       		.uleb128 0x2
 8335 00c7 17       		.uleb128 0x17
 8336 00c8 00       		.byte	0
 8337 00c9 00       		.byte	0
 8338 00ca 12       		.uleb128 0x12
 8339 00cb 34       		.uleb128 0x34
 8340 00cc 00       		.byte	0
 8341 00cd 03       		.uleb128 0x3
 8342 00ce 0E       		.uleb128 0xe
 8343 00cf 49       		.uleb128 0x49
 8344 00d0 13       		.uleb128 0x13
 8345 00d1 34       		.uleb128 0x34
 8346 00d2 19       		.uleb128 0x19
 8347 00d3 02       		.uleb128 0x2
 8348 00d4 18       		.uleb128 0x18
 8349 00d5 00       		.byte	0
 8350 00d6 00       		.byte	0
 8351 00d7 13       		.uleb128 0x13
 8352 00d8 0B       		.uleb128 0xb
 8353 00d9 01       		.byte	0x1
 8354 00da 11       		.uleb128 0x11
 8355 00db 01       		.uleb128 0x1
 8356 00dc 12       		.uleb128 0x12
 8357 00dd 06       		.uleb128 0x6
 8358 00de 01       		.uleb128 0x1
 8359 00df 13       		.uleb128 0x13
 8360 00e0 00       		.byte	0
 8361 00e1 00       		.byte	0
 8362 00e2 14       		.uleb128 0x14
 8363 00e3 34       		.uleb128 0x34
 8364 00e4 00       		.byte	0
ARM GAS  C:\Users\Phuong\AppData\Local\Temp\ccGVgD3r.s 			page 167


 8365 00e5 03       		.uleb128 0x3
 8366 00e6 08       		.uleb128 0x8
 8367 00e7 3A       		.uleb128 0x3a
 8368 00e8 0B       		.uleb128 0xb
 8369 00e9 3B       		.uleb128 0x3b
 8370 00ea 0B       		.uleb128 0xb
 8371 00eb 49       		.uleb128 0x49
 8372 00ec 13       		.uleb128 0x13
 8373 00ed 02       		.uleb128 0x2
 8374 00ee 17       		.uleb128 0x17
 8375 00ef 00       		.byte	0
 8376 00f0 00       		.byte	0
 8377 00f1 15       		.uleb128 0x15
 8378 00f2 898201   		.uleb128 0x4109
 8379 00f5 00       		.byte	0
 8380 00f6 11       		.uleb128 0x11
 8381 00f7 01       		.uleb128 0x1
 8382 00f8 31       		.uleb128 0x31
 8383 00f9 13       		.uleb128 0x13
 8384 00fa 00       		.byte	0
 8385 00fb 00       		.byte	0
 8386 00fc 16       		.uleb128 0x16
 8387 00fd 898201   		.uleb128 0x4109
 8388 0100 01       		.byte	0x1
 8389 0101 11       		.uleb128 0x11
 8390 0102 01       		.uleb128 0x1
 8391 0103 9342     		.uleb128 0x2113
 8392 0105 18       		.uleb128 0x18
 8393 0106 00       		.byte	0
 8394 0107 00       		.byte	0
 8395 0108 17       		.uleb128 0x17
 8396 0109 8A8201   		.uleb128 0x410a
 8397 010c 00       		.byte	0
 8398 010d 02       		.uleb128 0x2
 8399 010e 18       		.uleb128 0x18
 8400 010f 9142     		.uleb128 0x2111
 8401 0111 18       		.uleb128 0x18
 8402 0112 00       		.byte	0
 8403 0113 00       		.byte	0
 8404 0114 18       		.uleb128 0x18
 8405 0115 0B       		.uleb128 0xb
 8406 0116 01       		.byte	0x1
 8407 0117 11       		.uleb128 0x11
 8408 0118 01       		.uleb128 0x1
 8409 0119 12       		.uleb128 0x12
 8410 011a 06       		.uleb128 0x6
 8411 011b 00       		.byte	0
 8412 011c 00       		.byte	0
 8413 011d 19       		.uleb128 0x19
 8414 011e 898201   		.uleb128 0x4109
 8415 0121 01       		.byte	0x1
 8416 0122 11       		.uleb128 0x11
 8417 0123 01       		.uleb128 0x1
 8418 0124 00       		.byte	0
 8419 0125 00       		.byte	0
 8420 0126 1A       		.uleb128 0x1a
 8421 0127 01       		.uleb128 0x1
ARM GAS  C:\Users\Phuong\AppData\Local\Temp\ccGVgD3r.s 			page 168


 8422 0128 01       		.byte	0x1
 8423 0129 49       		.uleb128 0x49
 8424 012a 13       		.uleb128 0x13
 8425 012b 01       		.uleb128 0x1
 8426 012c 13       		.uleb128 0x13
 8427 012d 00       		.byte	0
 8428 012e 00       		.byte	0
 8429 012f 1B       		.uleb128 0x1b
 8430 0130 21       		.uleb128 0x21
 8431 0131 00       		.byte	0
 8432 0132 49       		.uleb128 0x49
 8433 0133 13       		.uleb128 0x13
 8434 0134 2F       		.uleb128 0x2f
 8435 0135 0B       		.uleb128 0xb
 8436 0136 00       		.byte	0
 8437 0137 00       		.byte	0
 8438 0138 1C       		.uleb128 0x1c
 8439 0139 898201   		.uleb128 0x4109
 8440 013c 01       		.byte	0x1
 8441 013d 11       		.uleb128 0x11
 8442 013e 01       		.uleb128 0x1
 8443 013f 01       		.uleb128 0x1
 8444 0140 13       		.uleb128 0x13
 8445 0141 00       		.byte	0
 8446 0142 00       		.byte	0
 8447 0143 1D       		.uleb128 0x1d
 8448 0144 2E       		.uleb128 0x2e
 8449 0145 01       		.byte	0x1
 8450 0146 03       		.uleb128 0x3
 8451 0147 0E       		.uleb128 0xe
 8452 0148 3A       		.uleb128 0x3a
 8453 0149 0B       		.uleb128 0xb
 8454 014a 3B       		.uleb128 0x3b
 8455 014b 0B       		.uleb128 0xb
 8456 014c 27       		.uleb128 0x27
 8457 014d 19       		.uleb128 0x19
 8458 014e 11       		.uleb128 0x11
 8459 014f 01       		.uleb128 0x1
 8460 0150 12       		.uleb128 0x12
 8461 0151 06       		.uleb128 0x6
 8462 0152 40       		.uleb128 0x40
 8463 0153 18       		.uleb128 0x18
 8464 0154 9742     		.uleb128 0x2117
 8465 0156 19       		.uleb128 0x19
 8466 0157 01       		.uleb128 0x1
 8467 0158 13       		.uleb128 0x13
 8468 0159 00       		.byte	0
 8469 015a 00       		.byte	0
 8470 015b 1E       		.uleb128 0x1e
 8471 015c 05       		.uleb128 0x5
 8472 015d 00       		.byte	0
 8473 015e 03       		.uleb128 0x3
 8474 015f 0E       		.uleb128 0xe
 8475 0160 3A       		.uleb128 0x3a
 8476 0161 0B       		.uleb128 0xb
 8477 0162 3B       		.uleb128 0x3b
 8478 0163 0B       		.uleb128 0xb
ARM GAS  C:\Users\Phuong\AppData\Local\Temp\ccGVgD3r.s 			page 169


 8479 0164 49       		.uleb128 0x49
 8480 0165 13       		.uleb128 0x13
 8481 0166 02       		.uleb128 0x2
 8482 0167 18       		.uleb128 0x18
 8483 0168 00       		.byte	0
 8484 0169 00       		.byte	0
 8485 016a 1F       		.uleb128 0x1f
 8486 016b 34       		.uleb128 0x34
 8487 016c 00       		.byte	0
 8488 016d 03       		.uleb128 0x3
 8489 016e 0E       		.uleb128 0xe
 8490 016f 3A       		.uleb128 0x3a
 8491 0170 0B       		.uleb128 0xb
 8492 0171 3B       		.uleb128 0x3b
 8493 0172 0B       		.uleb128 0xb
 8494 0173 49       		.uleb128 0x49
 8495 0174 13       		.uleb128 0x13
 8496 0175 02       		.uleb128 0x2
 8497 0176 17       		.uleb128 0x17
 8498 0177 00       		.byte	0
 8499 0178 00       		.byte	0
 8500 0179 20       		.uleb128 0x20
 8501 017a 898201   		.uleb128 0x4109
 8502 017d 01       		.byte	0x1
 8503 017e 11       		.uleb128 0x11
 8504 017f 01       		.uleb128 0x1
 8505 0180 9342     		.uleb128 0x2113
 8506 0182 18       		.uleb128 0x18
 8507 0183 01       		.uleb128 0x1
 8508 0184 13       		.uleb128 0x13
 8509 0185 00       		.byte	0
 8510 0186 00       		.byte	0
 8511 0187 21       		.uleb128 0x21
 8512 0188 898201   		.uleb128 0x4109
 8513 018b 01       		.byte	0x1
 8514 018c 11       		.uleb128 0x11
 8515 018d 01       		.uleb128 0x1
 8516 018e 31       		.uleb128 0x31
 8517 018f 13       		.uleb128 0x13
 8518 0190 01       		.uleb128 0x1
 8519 0191 13       		.uleb128 0x13
 8520 0192 00       		.byte	0
 8521 0193 00       		.byte	0
 8522 0194 22       		.uleb128 0x22
 8523 0195 898201   		.uleb128 0x4109
 8524 0198 01       		.byte	0x1
 8525 0199 11       		.uleb128 0x11
 8526 019a 01       		.uleb128 0x1
 8527 019b 31       		.uleb128 0x31
 8528 019c 13       		.uleb128 0x13
 8529 019d 00       		.byte	0
 8530 019e 00       		.byte	0
 8531 019f 23       		.uleb128 0x23
 8532 01a0 2E       		.uleb128 0x2e
 8533 01a1 01       		.byte	0x1
 8534 01a2 03       		.uleb128 0x3
 8535 01a3 0E       		.uleb128 0xe
ARM GAS  C:\Users\Phuong\AppData\Local\Temp\ccGVgD3r.s 			page 170


 8536 01a4 3A       		.uleb128 0x3a
 8537 01a5 0B       		.uleb128 0xb
 8538 01a6 3B       		.uleb128 0x3b
 8539 01a7 0B       		.uleb128 0xb
 8540 01a8 27       		.uleb128 0x27
 8541 01a9 19       		.uleb128 0x19
 8542 01aa 49       		.uleb128 0x49
 8543 01ab 13       		.uleb128 0x13
 8544 01ac 11       		.uleb128 0x11
 8545 01ad 01       		.uleb128 0x1
 8546 01ae 12       		.uleb128 0x12
 8547 01af 06       		.uleb128 0x6
 8548 01b0 40       		.uleb128 0x40
 8549 01b1 18       		.uleb128 0x18
 8550 01b2 9742     		.uleb128 0x2117
 8551 01b4 19       		.uleb128 0x19
 8552 01b5 01       		.uleb128 0x1
 8553 01b6 13       		.uleb128 0x13
 8554 01b7 00       		.byte	0
 8555 01b8 00       		.byte	0
 8556 01b9 24       		.uleb128 0x24
 8557 01ba 05       		.uleb128 0x5
 8558 01bb 00       		.byte	0
 8559 01bc 03       		.uleb128 0x3
 8560 01bd 08       		.uleb128 0x8
 8561 01be 3A       		.uleb128 0x3a
 8562 01bf 0B       		.uleb128 0xb
 8563 01c0 3B       		.uleb128 0x3b
 8564 01c1 0B       		.uleb128 0xb
 8565 01c2 49       		.uleb128 0x49
 8566 01c3 13       		.uleb128 0x13
 8567 01c4 02       		.uleb128 0x2
 8568 01c5 17       		.uleb128 0x17
 8569 01c6 00       		.byte	0
 8570 01c7 00       		.byte	0
 8571 01c8 25       		.uleb128 0x25
 8572 01c9 2E       		.uleb128 0x2e
 8573 01ca 01       		.byte	0x1
 8574 01cb 3F       		.uleb128 0x3f
 8575 01cc 19       		.uleb128 0x19
 8576 01cd 03       		.uleb128 0x3
 8577 01ce 0E       		.uleb128 0xe
 8578 01cf 3A       		.uleb128 0x3a
 8579 01d0 0B       		.uleb128 0xb
 8580 01d1 3B       		.uleb128 0x3b
 8581 01d2 05       		.uleb128 0x5
 8582 01d3 27       		.uleb128 0x27
 8583 01d4 19       		.uleb128 0x19
 8584 01d5 49       		.uleb128 0x49
 8585 01d6 13       		.uleb128 0x13
 8586 01d7 11       		.uleb128 0x11
 8587 01d8 01       		.uleb128 0x1
 8588 01d9 12       		.uleb128 0x12
 8589 01da 06       		.uleb128 0x6
 8590 01db 40       		.uleb128 0x40
 8591 01dc 18       		.uleb128 0x18
 8592 01dd 9742     		.uleb128 0x2117
ARM GAS  C:\Users\Phuong\AppData\Local\Temp\ccGVgD3r.s 			page 171


 8593 01df 19       		.uleb128 0x19
 8594 01e0 01       		.uleb128 0x1
 8595 01e1 13       		.uleb128 0x13
 8596 01e2 00       		.byte	0
 8597 01e3 00       		.byte	0
 8598 01e4 26       		.uleb128 0x26
 8599 01e5 05       		.uleb128 0x5
 8600 01e6 00       		.byte	0
 8601 01e7 03       		.uleb128 0x3
 8602 01e8 0E       		.uleb128 0xe
 8603 01e9 3A       		.uleb128 0x3a
 8604 01ea 0B       		.uleb128 0xb
 8605 01eb 3B       		.uleb128 0x3b
 8606 01ec 05       		.uleb128 0x5
 8607 01ed 49       		.uleb128 0x49
 8608 01ee 13       		.uleb128 0x13
 8609 01ef 02       		.uleb128 0x2
 8610 01f0 17       		.uleb128 0x17
 8611 01f1 00       		.byte	0
 8612 01f2 00       		.byte	0
 8613 01f3 27       		.uleb128 0x27
 8614 01f4 34       		.uleb128 0x34
 8615 01f5 00       		.byte	0
 8616 01f6 03       		.uleb128 0x3
 8617 01f7 08       		.uleb128 0x8
 8618 01f8 3A       		.uleb128 0x3a
 8619 01f9 0B       		.uleb128 0xb
 8620 01fa 3B       		.uleb128 0x3b
 8621 01fb 05       		.uleb128 0x5
 8622 01fc 49       		.uleb128 0x49
 8623 01fd 13       		.uleb128 0x13
 8624 01fe 02       		.uleb128 0x2
 8625 01ff 17       		.uleb128 0x17
 8626 0200 00       		.byte	0
 8627 0201 00       		.byte	0
 8628 0202 28       		.uleb128 0x28
 8629 0203 0A       		.uleb128 0xa
 8630 0204 00       		.byte	0
 8631 0205 03       		.uleb128 0x3
 8632 0206 0E       		.uleb128 0xe
 8633 0207 3A       		.uleb128 0x3a
 8634 0208 0B       		.uleb128 0xb
 8635 0209 3B       		.uleb128 0x3b
 8636 020a 05       		.uleb128 0x5
 8637 020b 11       		.uleb128 0x11
 8638 020c 01       		.uleb128 0x1
 8639 020d 00       		.byte	0
 8640 020e 00       		.byte	0
 8641 020f 29       		.uleb128 0x29
 8642 0210 2E       		.uleb128 0x2e
 8643 0211 01       		.byte	0x1
 8644 0212 3F       		.uleb128 0x3f
 8645 0213 19       		.uleb128 0x19
 8646 0214 03       		.uleb128 0x3
 8647 0215 0E       		.uleb128 0xe
 8648 0216 3A       		.uleb128 0x3a
 8649 0217 0B       		.uleb128 0xb
ARM GAS  C:\Users\Phuong\AppData\Local\Temp\ccGVgD3r.s 			page 172


 8650 0218 3B       		.uleb128 0x3b
 8651 0219 05       		.uleb128 0x5
 8652 021a 27       		.uleb128 0x27
 8653 021b 19       		.uleb128 0x19
 8654 021c 11       		.uleb128 0x11
 8655 021d 01       		.uleb128 0x1
 8656 021e 12       		.uleb128 0x12
 8657 021f 06       		.uleb128 0x6
 8658 0220 40       		.uleb128 0x40
 8659 0221 18       		.uleb128 0x18
 8660 0222 9742     		.uleb128 0x2117
 8661 0224 19       		.uleb128 0x19
 8662 0225 01       		.uleb128 0x1
 8663 0226 13       		.uleb128 0x13
 8664 0227 00       		.byte	0
 8665 0228 00       		.byte	0
 8666 0229 2A       		.uleb128 0x2a
 8667 022a 05       		.uleb128 0x5
 8668 022b 00       		.byte	0
 8669 022c 03       		.uleb128 0x3
 8670 022d 08       		.uleb128 0x8
 8671 022e 3A       		.uleb128 0x3a
 8672 022f 0B       		.uleb128 0xb
 8673 0230 3B       		.uleb128 0x3b
 8674 0231 05       		.uleb128 0x5
 8675 0232 49       		.uleb128 0x49
 8676 0233 13       		.uleb128 0x13
 8677 0234 02       		.uleb128 0x2
 8678 0235 17       		.uleb128 0x17
 8679 0236 00       		.byte	0
 8680 0237 00       		.byte	0
 8681 0238 2B       		.uleb128 0x2b
 8682 0239 34       		.uleb128 0x34
 8683 023a 00       		.byte	0
 8684 023b 03       		.uleb128 0x3
 8685 023c 0E       		.uleb128 0xe
 8686 023d 3A       		.uleb128 0x3a
 8687 023e 0B       		.uleb128 0xb
 8688 023f 3B       		.uleb128 0x3b
 8689 0240 05       		.uleb128 0x5
 8690 0241 49       		.uleb128 0x49
 8691 0242 13       		.uleb128 0x13
 8692 0243 02       		.uleb128 0x2
 8693 0244 17       		.uleb128 0x17
 8694 0245 00       		.byte	0
 8695 0246 00       		.byte	0
 8696 0247 2C       		.uleb128 0x2c
 8697 0248 05       		.uleb128 0x5
 8698 0249 00       		.byte	0
 8699 024a 03       		.uleb128 0x3
 8700 024b 0E       		.uleb128 0xe
 8701 024c 3A       		.uleb128 0x3a
 8702 024d 0B       		.uleb128 0xb
 8703 024e 3B       		.uleb128 0x3b
 8704 024f 05       		.uleb128 0x5
 8705 0250 49       		.uleb128 0x49
 8706 0251 13       		.uleb128 0x13
ARM GAS  C:\Users\Phuong\AppData\Local\Temp\ccGVgD3r.s 			page 173


 8707 0252 02       		.uleb128 0x2
 8708 0253 18       		.uleb128 0x18
 8709 0254 00       		.byte	0
 8710 0255 00       		.byte	0
 8711 0256 2D       		.uleb128 0x2d
 8712 0257 34       		.uleb128 0x34
 8713 0258 00       		.byte	0
 8714 0259 03       		.uleb128 0x3
 8715 025a 0E       		.uleb128 0xe
 8716 025b 3A       		.uleb128 0x3a
 8717 025c 0B       		.uleb128 0xb
 8718 025d 3B       		.uleb128 0x3b
 8719 025e 05       		.uleb128 0x5
 8720 025f 49       		.uleb128 0x49
 8721 0260 13       		.uleb128 0x13
 8722 0261 02       		.uleb128 0x2
 8723 0262 18       		.uleb128 0x18
 8724 0263 00       		.byte	0
 8725 0264 00       		.byte	0
 8726 0265 2E       		.uleb128 0x2e
 8727 0266 0B       		.uleb128 0xb
 8728 0267 01       		.byte	0x1
 8729 0268 55       		.uleb128 0x55
 8730 0269 17       		.uleb128 0x17
 8731 026a 00       		.byte	0
 8732 026b 00       		.byte	0
 8733 026c 2F       		.uleb128 0x2f
 8734 026d 0B       		.uleb128 0xb
 8735 026e 01       		.byte	0x1
 8736 026f 55       		.uleb128 0x55
 8737 0270 17       		.uleb128 0x17
 8738 0271 01       		.uleb128 0x1
 8739 0272 13       		.uleb128 0x13
 8740 0273 00       		.byte	0
 8741 0274 00       		.byte	0
 8742 0275 30       		.uleb128 0x30
 8743 0276 2E       		.uleb128 0x2e
 8744 0277 00       		.byte	0
 8745 0278 3F       		.uleb128 0x3f
 8746 0279 19       		.uleb128 0x19
 8747 027a 3C       		.uleb128 0x3c
 8748 027b 19       		.uleb128 0x19
 8749 027c 6E       		.uleb128 0x6e
 8750 027d 0E       		.uleb128 0xe
 8751 027e 03       		.uleb128 0x3
 8752 027f 0E       		.uleb128 0xe
 8753 0280 3A       		.uleb128 0x3a
 8754 0281 0B       		.uleb128 0xb
 8755 0282 3B       		.uleb128 0x3b
 8756 0283 0B       		.uleb128 0xb
 8757 0284 00       		.byte	0
 8758 0285 00       		.byte	0
 8759 0286 00       		.byte	0
 8760              		.section	.debug_loc,"",%progbits
 8761              	.Ldebug_loc0:
 8762              	.LLST0:
 8763 0000 00000000 		.4byte	.LVL0
ARM GAS  C:\Users\Phuong\AppData\Local\Temp\ccGVgD3r.s 			page 174


 8764 0004 0B000000 		.4byte	.LVL1-1
 8765 0008 0100     		.2byte	0x1
 8766 000a 50       		.byte	0x50
 8767 000b 0B000000 		.4byte	.LVL1-1
 8768 000f 0E000000 		.4byte	.LVL2
 8769 0013 0100     		.2byte	0x1
 8770 0015 54       		.byte	0x54
 8771 0016 0E000000 		.4byte	.LVL2
 8772 001a 24000000 		.4byte	.LVL5
 8773 001e 0400     		.2byte	0x4
 8774 0020 F3       		.byte	0xf3
 8775 0021 01       		.uleb128 0x1
 8776 0022 50       		.byte	0x50
 8777 0023 9F       		.byte	0x9f
 8778 0024 24000000 		.4byte	.LVL5
 8779 0028 35000000 		.4byte	.LVL6-1
 8780 002c 0100     		.2byte	0x1
 8781 002e 50       		.byte	0x50
 8782 002f 35000000 		.4byte	.LVL6-1
 8783 0033 38000000 		.4byte	.LVL7
 8784 0037 0100     		.2byte	0x1
 8785 0039 54       		.byte	0x54
 8786 003a 38000000 		.4byte	.LVL7
 8787 003e 4E000000 		.4byte	.LVL10
 8788 0042 0400     		.2byte	0x4
 8789 0044 F3       		.byte	0xf3
 8790 0045 01       		.uleb128 0x1
 8791 0046 50       		.byte	0x50
 8792 0047 9F       		.byte	0x9f
 8793 0048 4E000000 		.4byte	.LVL10
 8794 004c 51000000 		.4byte	.LVL11-1
 8795 0050 0100     		.2byte	0x1
 8796 0052 50       		.byte	0x50
 8797 0053 51000000 		.4byte	.LVL11-1
 8798 0057 54000000 		.4byte	.LVL12
 8799 005b 0100     		.2byte	0x1
 8800 005d 54       		.byte	0x54
 8801 005e 54000000 		.4byte	.LVL12
 8802 0062 6A000000 		.4byte	.LVL15
 8803 0066 0400     		.2byte	0x4
 8804 0068 F3       		.byte	0xf3
 8805 0069 01       		.uleb128 0x1
 8806 006a 50       		.byte	0x50
 8807 006b 9F       		.byte	0x9f
 8808 006c 6A000000 		.4byte	.LVL15
 8809 0070 70000000 		.4byte	.LVL16
 8810 0074 0100     		.2byte	0x1
 8811 0076 50       		.byte	0x50
 8812 0077 70000000 		.4byte	.LVL16
 8813 007b 7E000000 		.4byte	.LVL19
 8814 007f 0100     		.2byte	0x1
 8815 0081 54       		.byte	0x54
 8816 0082 7E000000 		.4byte	.LVL19
 8817 0086 86000000 		.4byte	.LVL20
 8818 008a 0100     		.2byte	0x1
 8819 008c 50       		.byte	0x50
 8820 008d 86000000 		.4byte	.LVL20
ARM GAS  C:\Users\Phuong\AppData\Local\Temp\ccGVgD3r.s 			page 175


 8821 0091 88000000 		.4byte	.LVL21
 8822 0095 0100     		.2byte	0x1
 8823 0097 54       		.byte	0x54
 8824 0098 88000000 		.4byte	.LVL21
 8825 009c A0000000 		.4byte	.LFE3
 8826 00a0 0400     		.2byte	0x4
 8827 00a2 F3       		.byte	0xf3
 8828 00a3 01       		.uleb128 0x1
 8829 00a4 50       		.byte	0x50
 8830 00a5 9F       		.byte	0x9f
 8831 00a6 00000000 		.4byte	0
 8832 00aa 00000000 		.4byte	0
 8833              	.LLST1:
 8834 00ae 0E000000 		.4byte	.LVL2
 8835 00b2 20000000 		.4byte	.LVL3
 8836 00b6 0100     		.2byte	0x1
 8837 00b8 50       		.byte	0x50
 8838 00b9 20000000 		.4byte	.LVL3
 8839 00bd 24000000 		.4byte	.LVL5
 8840 00c1 0100     		.2byte	0x1
 8841 00c3 54       		.byte	0x54
 8842 00c4 00000000 		.4byte	0
 8843 00c8 00000000 		.4byte	0
 8844              	.LLST2:
 8845 00cc 24000000 		.4byte	.LVL5
 8846 00d0 35000000 		.4byte	.LVL6-1
 8847 00d4 0100     		.2byte	0x1
 8848 00d6 50       		.byte	0x50
 8849 00d7 35000000 		.4byte	.LVL6-1
 8850 00db 38000000 		.4byte	.LVL7
 8851 00df 0100     		.2byte	0x1
 8852 00e1 54       		.byte	0x54
 8853 00e2 38000000 		.4byte	.LVL7
 8854 00e6 4E000000 		.4byte	.LVL10
 8855 00ea 0400     		.2byte	0x4
 8856 00ec F3       		.byte	0xf3
 8857 00ed 01       		.uleb128 0x1
 8858 00ee 50       		.byte	0x50
 8859 00ef 9F       		.byte	0x9f
 8860 00f0 4E000000 		.4byte	.LVL10
 8861 00f4 51000000 		.4byte	.LVL11-1
 8862 00f8 0100     		.2byte	0x1
 8863 00fa 50       		.byte	0x50
 8864 00fb 51000000 		.4byte	.LVL11-1
 8865 00ff 54000000 		.4byte	.LVL12
 8866 0103 0100     		.2byte	0x1
 8867 0105 54       		.byte	0x54
 8868 0106 54000000 		.4byte	.LVL12
 8869 010a 6A000000 		.4byte	.LVL15
 8870 010e 0400     		.2byte	0x4
 8871 0110 F3       		.byte	0xf3
 8872 0111 01       		.uleb128 0x1
 8873 0112 50       		.byte	0x50
 8874 0113 9F       		.byte	0x9f
 8875 0114 6A000000 		.4byte	.LVL15
 8876 0118 70000000 		.4byte	.LVL16
 8877 011c 0100     		.2byte	0x1
ARM GAS  C:\Users\Phuong\AppData\Local\Temp\ccGVgD3r.s 			page 176


 8878 011e 50       		.byte	0x50
 8879 011f 70000000 		.4byte	.LVL16
 8880 0123 7E000000 		.4byte	.LVL19
 8881 0127 0100     		.2byte	0x1
 8882 0129 54       		.byte	0x54
 8883 012a 7E000000 		.4byte	.LVL19
 8884 012e 86000000 		.4byte	.LVL20
 8885 0132 0100     		.2byte	0x1
 8886 0134 50       		.byte	0x50
 8887 0135 86000000 		.4byte	.LVL20
 8888 0139 88000000 		.4byte	.LVL21
 8889 013d 0100     		.2byte	0x1
 8890 013f 54       		.byte	0x54
 8891 0140 00000000 		.4byte	0
 8892 0144 00000000 		.4byte	0
 8893              	.LLST3:
 8894 0148 38000000 		.4byte	.LVL7
 8895 014c 4A000000 		.4byte	.LVL8
 8896 0150 0100     		.2byte	0x1
 8897 0152 50       		.byte	0x50
 8898 0153 4A000000 		.4byte	.LVL8
 8899 0157 4E000000 		.4byte	.LVL10
 8900 015b 0100     		.2byte	0x1
 8901 015d 54       		.byte	0x54
 8902 015e 00000000 		.4byte	0
 8903 0162 00000000 		.4byte	0
 8904              	.LLST4:
 8905 0166 54000000 		.4byte	.LVL12
 8906 016a 66000000 		.4byte	.LVL13
 8907 016e 0100     		.2byte	0x1
 8908 0170 50       		.byte	0x50
 8909 0171 66000000 		.4byte	.LVL13
 8910 0175 6A000000 		.4byte	.LVL15
 8911 0179 0100     		.2byte	0x1
 8912 017b 54       		.byte	0x54
 8913 017c 00000000 		.4byte	0
 8914 0180 00000000 		.4byte	0
 8915              	.LLST5:
 8916 0184 00000000 		.4byte	.LVL22
 8917 0188 0F000000 		.4byte	.LVL23-1
 8918 018c 0100     		.2byte	0x1
 8919 018e 50       		.byte	0x50
 8920 018f 0F000000 		.4byte	.LVL23-1
 8921 0193 12000000 		.4byte	.LVL24
 8922 0197 0100     		.2byte	0x1
 8923 0199 54       		.byte	0x54
 8924 019a 12000000 		.4byte	.LVL24
 8925 019e 2C000000 		.4byte	.LVL27
 8926 01a2 0400     		.2byte	0x4
 8927 01a4 F3       		.byte	0xf3
 8928 01a5 01       		.uleb128 0x1
 8929 01a6 50       		.byte	0x50
 8930 01a7 9F       		.byte	0x9f
 8931 01a8 2C000000 		.4byte	.LVL27
 8932 01ac 2F000000 		.4byte	.LVL28-1
 8933 01b0 0100     		.2byte	0x1
 8934 01b2 50       		.byte	0x50
ARM GAS  C:\Users\Phuong\AppData\Local\Temp\ccGVgD3r.s 			page 177


 8935 01b3 2F000000 		.4byte	.LVL28-1
 8936 01b7 60000000 		.4byte	.LVL33
 8937 01bb 0100     		.2byte	0x1
 8938 01bd 54       		.byte	0x54
 8939 01be 60000000 		.4byte	.LVL33
 8940 01c2 7A000000 		.4byte	.LVL36
 8941 01c6 0400     		.2byte	0x4
 8942 01c8 F3       		.byte	0xf3
 8943 01c9 01       		.uleb128 0x1
 8944 01ca 50       		.byte	0x50
 8945 01cb 9F       		.byte	0x9f
 8946 01cc 7A000000 		.4byte	.LVL36
 8947 01d0 80000000 		.4byte	.LVL38
 8948 01d4 0100     		.2byte	0x1
 8949 01d6 54       		.byte	0x54
 8950 01d7 80000000 		.4byte	.LVL38
 8951 01db 98000000 		.4byte	.LVL41
 8952 01df 0400     		.2byte	0x4
 8953 01e1 F3       		.byte	0xf3
 8954 01e2 01       		.uleb128 0x1
 8955 01e3 50       		.byte	0x50
 8956 01e4 9F       		.byte	0x9f
 8957 01e5 98000000 		.4byte	.LVL41
 8958 01e9 70010000 		.4byte	.LVL70
 8959 01ed 0100     		.2byte	0x1
 8960 01ef 54       		.byte	0x54
 8961 01f0 70010000 		.4byte	.LVL70
 8962 01f4 A0010000 		.4byte	.LFE2
 8963 01f8 0400     		.2byte	0x4
 8964 01fa F3       		.byte	0xf3
 8965 01fb 01       		.uleb128 0x1
 8966 01fc 50       		.byte	0x50
 8967 01fd 9F       		.byte	0x9f
 8968 01fe 00000000 		.4byte	0
 8969 0202 00000000 		.4byte	0
 8970              	.LLST6:
 8971 0206 00000000 		.4byte	.LVL22
 8972 020a 0F000000 		.4byte	.LVL23-1
 8973 020e 0100     		.2byte	0x1
 8974 0210 51       		.byte	0x51
 8975 0211 0F000000 		.4byte	.LVL23-1
 8976 0215 2C000000 		.4byte	.LVL27
 8977 0219 0400     		.2byte	0x4
 8978 021b F3       		.byte	0xf3
 8979 021c 01       		.uleb128 0x1
 8980 021d 51       		.byte	0x51
 8981 021e 9F       		.byte	0x9f
 8982 021f 2C000000 		.4byte	.LVL27
 8983 0223 2F000000 		.4byte	.LVL28-1
 8984 0227 0100     		.2byte	0x1
 8985 0229 51       		.byte	0x51
 8986 022a 2F000000 		.4byte	.LVL28-1
 8987 022e A0010000 		.4byte	.LFE2
 8988 0232 0400     		.2byte	0x4
 8989 0234 F3       		.byte	0xf3
 8990 0235 01       		.uleb128 0x1
 8991 0236 51       		.byte	0x51
ARM GAS  C:\Users\Phuong\AppData\Local\Temp\ccGVgD3r.s 			page 178


 8992 0237 9F       		.byte	0x9f
 8993 0238 00000000 		.4byte	0
 8994 023c 00000000 		.4byte	0
 8995              	.LLST7:
 8996 0240 12000000 		.4byte	.LVL24
 8997 0244 28000000 		.4byte	.LVL25
 8998 0248 0100     		.2byte	0x1
 8999 024a 50       		.byte	0x50
 9000 024b 28000000 		.4byte	.LVL25
 9001 024f 2C000000 		.4byte	.LVL27
 9002 0253 0100     		.2byte	0x1
 9003 0255 54       		.byte	0x54
 9004 0256 00000000 		.4byte	0
 9005 025a 00000000 		.4byte	0
 9006              	.LLST8:
 9007 025e 2C000000 		.4byte	.LVL27
 9008 0262 2F000000 		.4byte	.LVL28-1
 9009 0266 0100     		.2byte	0x1
 9010 0268 50       		.byte	0x50
 9011 0269 2F000000 		.4byte	.LVL28-1
 9012 026d 60000000 		.4byte	.LVL33
 9013 0271 0100     		.2byte	0x1
 9014 0273 54       		.byte	0x54
 9015 0274 60000000 		.4byte	.LVL33
 9016 0278 7A000000 		.4byte	.LVL36
 9017 027c 0400     		.2byte	0x4
 9018 027e F3       		.byte	0xf3
 9019 027f 01       		.uleb128 0x1
 9020 0280 50       		.byte	0x50
 9021 0281 9F       		.byte	0x9f
 9022 0282 7A000000 		.4byte	.LVL36
 9023 0286 80000000 		.4byte	.LVL38
 9024 028a 0100     		.2byte	0x1
 9025 028c 54       		.byte	0x54
 9026 028d 80000000 		.4byte	.LVL38
 9027 0291 98000000 		.4byte	.LVL41
 9028 0295 0400     		.2byte	0x4
 9029 0297 F3       		.byte	0xf3
 9030 0298 01       		.uleb128 0x1
 9031 0299 50       		.byte	0x50
 9032 029a 9F       		.byte	0x9f
 9033 029b 98000000 		.4byte	.LVL41
 9034 029f 70010000 		.4byte	.LVL70
 9035 02a3 0100     		.2byte	0x1
 9036 02a5 54       		.byte	0x54
 9037 02a6 00000000 		.4byte	0
 9038 02aa 00000000 		.4byte	0
 9039              	.LLST9:
 9040 02ae 32000000 		.4byte	.LVL29
 9041 02b2 46000000 		.4byte	.LVL30
 9042 02b6 0100     		.2byte	0x1
 9043 02b8 50       		.byte	0x50
 9044 02b9 46000000 		.4byte	.LVL30
 9045 02bd 9E000000 		.4byte	.LVL43
 9046 02c1 0100     		.2byte	0x1
 9047 02c3 55       		.byte	0x55
 9048 02c4 C0000000 		.4byte	.LVL47
ARM GAS  C:\Users\Phuong\AppData\Local\Temp\ccGVgD3r.s 			page 179


 9049 02c8 D2000000 		.4byte	.LVL49
 9050 02cc 0100     		.2byte	0x1
 9051 02ce 55       		.byte	0x55
 9052 02cf 18010000 		.4byte	.LVL58
 9053 02d3 22010000 		.4byte	.LVL60
 9054 02d7 0100     		.2byte	0x1
 9055 02d9 55       		.byte	0x55
 9056 02da 48010000 		.4byte	.LVL65
 9057 02de 4E010000 		.4byte	.LVL67
 9058 02e2 0100     		.2byte	0x1
 9059 02e4 55       		.byte	0x55
 9060 02e5 00000000 		.4byte	0
 9061 02e9 00000000 		.4byte	0
 9062              	.LLST10:
 9063 02ed 60000000 		.4byte	.LVL33
 9064 02f1 76000000 		.4byte	.LVL34
 9065 02f5 0100     		.2byte	0x1
 9066 02f7 50       		.byte	0x50
 9067 02f8 76000000 		.4byte	.LVL34
 9068 02fc 7A000000 		.4byte	.LVL36
 9069 0300 0100     		.2byte	0x1
 9070 0302 54       		.byte	0x54
 9071 0303 00000000 		.4byte	0
 9072 0307 00000000 		.4byte	0
 9073              	.LLST11:
 9074 030b 80000000 		.4byte	.LVL38
 9075 030f 94000000 		.4byte	.LVL39
 9076 0313 0100     		.2byte	0x1
 9077 0315 50       		.byte	0x50
 9078 0316 94000000 		.4byte	.LVL39
 9079 031a 98000000 		.4byte	.LVL41
 9080 031e 0100     		.2byte	0x1
 9081 0320 54       		.byte	0x54
 9082 0321 00000000 		.4byte	0
 9083 0325 00000000 		.4byte	0
 9084              	.LLST12:
 9085 0329 9E000000 		.4byte	.LVL43
 9086 032d B2000000 		.4byte	.LVL44
 9087 0331 0100     		.2byte	0x1
 9088 0333 50       		.byte	0x50
 9089 0334 B2000000 		.4byte	.LVL44
 9090 0338 C0000000 		.4byte	.LVL47
 9091 033c 0100     		.2byte	0x1
 9092 033e 55       		.byte	0x55
 9093 033f 00000000 		.4byte	0
 9094 0343 00000000 		.4byte	0
 9095              	.LLST13:
 9096 0347 D2000000 		.4byte	.LVL49
 9097 034b E6000000 		.4byte	.LVL50
 9098 034f 0100     		.2byte	0x1
 9099 0351 50       		.byte	0x50
 9100 0352 E6000000 		.4byte	.LVL50
 9101 0356 E8000000 		.4byte	.LVL51
 9102 035a 0100     		.2byte	0x1
 9103 035c 55       		.byte	0x55
 9104 035d 00000000 		.4byte	0
 9105 0361 00000000 		.4byte	0
ARM GAS  C:\Users\Phuong\AppData\Local\Temp\ccGVgD3r.s 			page 180


 9106              	.LLST14:
 9107 0365 F2000000 		.4byte	.LVL53
 9108 0369 06010000 		.4byte	.LVL54
 9109 036d 0100     		.2byte	0x1
 9110 036f 50       		.byte	0x50
 9111 0370 06010000 		.4byte	.LVL54
 9112 0374 18010000 		.4byte	.LVL58
 9113 0378 0100     		.2byte	0x1
 9114 037a 55       		.byte	0x55
 9115 037b 00000000 		.4byte	0
 9116 037f 00000000 		.4byte	0
 9117              	.LLST15:
 9118 0383 22010000 		.4byte	.LVL60
 9119 0387 36010000 		.4byte	.LVL61
 9120 038b 0100     		.2byte	0x1
 9121 038d 50       		.byte	0x50
 9122 038e 36010000 		.4byte	.LVL61
 9123 0392 48010000 		.4byte	.LVL65
 9124 0396 0100     		.2byte	0x1
 9125 0398 55       		.byte	0x55
 9126 0399 00000000 		.4byte	0
 9127 039d 00000000 		.4byte	0
 9128              	.LLST16:
 9129 03a1 4E010000 		.4byte	.LVL67
 9130 03a5 62010000 		.4byte	.LVL68
 9131 03a9 0100     		.2byte	0x1
 9132 03ab 50       		.byte	0x50
 9133 03ac 62010000 		.4byte	.LVL68
 9134 03b0 70010000 		.4byte	.LVL70
 9135 03b4 0100     		.2byte	0x1
 9136 03b6 55       		.byte	0x55
 9137 03b7 00000000 		.4byte	0
 9138 03bb 00000000 		.4byte	0
 9139              	.LLST17:
 9140 03bf 00000000 		.4byte	.LVL71
 9141 03c3 13000000 		.4byte	.LVL72-1
 9142 03c7 0100     		.2byte	0x1
 9143 03c9 50       		.byte	0x50
 9144 03ca 13000000 		.4byte	.LVL72-1
 9145 03ce 2E000000 		.4byte	.LVL76
 9146 03d2 0100     		.2byte	0x1
 9147 03d4 55       		.byte	0x55
 9148 03d5 2E000000 		.4byte	.LVL76
 9149 03d9 31000000 		.4byte	.LVL77-1
 9150 03dd 0100     		.2byte	0x1
 9151 03df 50       		.byte	0x50
 9152 03e0 31000000 		.4byte	.LVL77-1
 9153 03e4 8A000000 		.4byte	.LVL92
 9154 03e8 0100     		.2byte	0x1
 9155 03ea 55       		.byte	0x55
 9156 03eb 8A000000 		.4byte	.LVL92
 9157 03ef C0000000 		.4byte	.LFE4
 9158 03f3 0400     		.2byte	0x4
 9159 03f5 F3       		.byte	0xf3
 9160 03f6 01       		.uleb128 0x1
 9161 03f7 50       		.byte	0x50
 9162 03f8 9F       		.byte	0x9f
ARM GAS  C:\Users\Phuong\AppData\Local\Temp\ccGVgD3r.s 			page 181


 9163 03f9 00000000 		.4byte	0
 9164 03fd 00000000 		.4byte	0
 9165              	.LLST18:
 9166 0401 00000000 		.4byte	.LVL71
 9167 0405 13000000 		.4byte	.LVL72-1
 9168 0409 0100     		.2byte	0x1
 9169 040b 51       		.byte	0x51
 9170 040c 13000000 		.4byte	.LVL72-1
 9171 0410 2E000000 		.4byte	.LVL76
 9172 0414 0400     		.2byte	0x4
 9173 0416 F3       		.byte	0xf3
 9174 0417 01       		.uleb128 0x1
 9175 0418 51       		.byte	0x51
 9176 0419 9F       		.byte	0x9f
 9177 041a 2E000000 		.4byte	.LVL76
 9178 041e 31000000 		.4byte	.LVL77-1
 9179 0422 0100     		.2byte	0x1
 9180 0424 51       		.byte	0x51
 9181 0425 31000000 		.4byte	.LVL77-1
 9182 0429 C0000000 		.4byte	.LFE4
 9183 042d 0400     		.2byte	0x4
 9184 042f F3       		.byte	0xf3
 9185 0430 01       		.uleb128 0x1
 9186 0431 51       		.byte	0x51
 9187 0432 9F       		.byte	0x9f
 9188 0433 00000000 		.4byte	0
 9189 0437 00000000 		.4byte	0
 9190              	.LLST19:
 9191 043b 00000000 		.4byte	.LVL71
 9192 043f 13000000 		.4byte	.LVL72-1
 9193 0443 0100     		.2byte	0x1
 9194 0445 52       		.byte	0x52
 9195 0446 13000000 		.4byte	.LVL72-1
 9196 044a 2E000000 		.4byte	.LVL76
 9197 044e 0200     		.2byte	0x2
 9198 0450 91       		.byte	0x91
 9199 0451 64       		.sleb128 -28
 9200 0452 2E000000 		.4byte	.LVL76
 9201 0456 31000000 		.4byte	.LVL77-1
 9202 045a 0100     		.2byte	0x1
 9203 045c 52       		.byte	0x52
 9204 045d 31000000 		.4byte	.LVL77-1
 9205 0461 C0000000 		.4byte	.LFE4
 9206 0465 0200     		.2byte	0x2
 9207 0467 91       		.byte	0x91
 9208 0468 64       		.sleb128 -28
 9209 0469 00000000 		.4byte	0
 9210 046d 00000000 		.4byte	0
 9211              	.LLST20:
 9212 0471 00000000 		.4byte	.LVL71
 9213 0475 13000000 		.4byte	.LVL72-1
 9214 0479 0100     		.2byte	0x1
 9215 047b 53       		.byte	0x53
 9216 047c 13000000 		.4byte	.LVL72-1
 9217 0480 2E000000 		.4byte	.LVL76
 9218 0484 0100     		.2byte	0x1
 9219 0486 57       		.byte	0x57
ARM GAS  C:\Users\Phuong\AppData\Local\Temp\ccGVgD3r.s 			page 182


 9220 0487 2E000000 		.4byte	.LVL76
 9221 048b 31000000 		.4byte	.LVL77-1
 9222 048f 0100     		.2byte	0x1
 9223 0491 53       		.byte	0x53
 9224 0492 31000000 		.4byte	.LVL77-1
 9225 0496 A8000000 		.4byte	.LVL96
 9226 049a 0100     		.2byte	0x1
 9227 049c 57       		.byte	0x57
 9228 049d A8000000 		.4byte	.LVL96
 9229 04a1 C0000000 		.4byte	.LFE4
 9230 04a5 0400     		.2byte	0x4
 9231 04a7 F3       		.byte	0xf3
 9232 04a8 01       		.uleb128 0x1
 9233 04a9 53       		.byte	0x53
 9234 04aa 9F       		.byte	0x9f
 9235 04ab 00000000 		.4byte	0
 9236 04af 00000000 		.4byte	0
 9237              	.LLST21:
 9238 04b3 16000000 		.4byte	.LVL73
 9239 04b7 2A000000 		.4byte	.LVL74
 9240 04bb 0100     		.2byte	0x1
 9241 04bd 50       		.byte	0x50
 9242 04be 2A000000 		.4byte	.LVL74
 9243 04c2 2E000000 		.4byte	.LVL76
 9244 04c6 0100     		.2byte	0x1
 9245 04c8 54       		.byte	0x54
 9246 04c9 00000000 		.4byte	0
 9247 04cd 00000000 		.4byte	0
 9248              	.LLST22:
 9249 04d1 34000000 		.4byte	.LVL78
 9250 04d5 39000000 		.4byte	.LVL79-1
 9251 04d9 0100     		.2byte	0x1
 9252 04db 50       		.byte	0x50
 9253 04dc 39000000 		.4byte	.LVL79-1
 9254 04e0 3C000000 		.4byte	.LVL80
 9255 04e4 0100     		.2byte	0x1
 9256 04e6 54       		.byte	0x54
 9257 04e7 54000000 		.4byte	.LVL83
 9258 04eb 74000000 		.4byte	.LVL88
 9259 04ef 0100     		.2byte	0x1
 9260 04f1 50       		.byte	0x50
 9261 04f2 74000000 		.4byte	.LVL88
 9262 04f6 A6000000 		.4byte	.LVL95
 9263 04fa 0100     		.2byte	0x1
 9264 04fc 54       		.byte	0x54
 9265 04fd 00000000 		.4byte	0
 9266 0501 00000000 		.4byte	0
 9267              	.LLST23:
 9268 0505 64000000 		.4byte	.LVL84
 9269 0509 68000000 		.4byte	.LVL85
 9270 050d 0200     		.2byte	0x2
 9271 050f 33       		.byte	0x33
 9272 0510 9F       		.byte	0x9f
 9273 0511 68000000 		.4byte	.LVL85
 9274 0515 6C000000 		.4byte	.LVL86
 9275 0519 0200     		.2byte	0x2
 9276 051b 30       		.byte	0x30
ARM GAS  C:\Users\Phuong\AppData\Local\Temp\ccGVgD3r.s 			page 183


 9277 051c 9F       		.byte	0x9f
 9278 051d 6E000000 		.4byte	.LVL87
 9279 0521 77000000 		.4byte	.LVL89-1
 9280 0525 0100     		.2byte	0x1
 9281 0527 51       		.byte	0x51
 9282 0528 00000000 		.4byte	0
 9283 052c 00000000 		.4byte	0
 9284              	.LLST24:
 9285 0530 3C000000 		.4byte	.LVL80
 9286 0534 50000000 		.4byte	.LVL81
 9287 0538 0100     		.2byte	0x1
 9288 053a 50       		.byte	0x50
 9289 053b 50000000 		.4byte	.LVL81
 9290 053f 54000000 		.4byte	.LVL83
 9291 0543 0100     		.2byte	0x1
 9292 0545 54       		.byte	0x54
 9293 0546 00000000 		.4byte	0
 9294 054a 00000000 		.4byte	0
 9295              	.LLST25:
 9296 054e 8A000000 		.4byte	.LVL92
 9297 0552 9E000000 		.4byte	.LVL93
 9298 0556 0100     		.2byte	0x1
 9299 0558 50       		.byte	0x50
 9300 0559 9E000000 		.4byte	.LVL93
 9301 055d A0000000 		.4byte	.LVL94
 9302 0561 0100     		.2byte	0x1
 9303 0563 55       		.byte	0x55
 9304 0564 00000000 		.4byte	0
 9305 0568 00000000 		.4byte	0
 9306              	.LLST26:
 9307 056c 00000000 		.4byte	.LVL97
 9308 0570 0C000000 		.4byte	.LVL98
 9309 0574 0100     		.2byte	0x1
 9310 0576 50       		.byte	0x50
 9311 0577 0C000000 		.4byte	.LVL98
 9312 057b A8000000 		.4byte	.LVL134
 9313 057f 0100     		.2byte	0x1
 9314 0581 57       		.byte	0x57
 9315 0582 A8000000 		.4byte	.LVL134
 9316 0586 C0000000 		.4byte	.LFE1
 9317 058a 0400     		.2byte	0x4
 9318 058c F3       		.byte	0xf3
 9319 058d 01       		.uleb128 0x1
 9320 058e 50       		.byte	0x50
 9321 058f 9F       		.byte	0x9f
 9322 0590 00000000 		.4byte	0
 9323 0594 00000000 		.4byte	0
 9324              	.LLST27:
 9325 0598 00000000 		.4byte	.LVL97
 9326 059c 0F000000 		.4byte	.LVL99-1
 9327 05a0 0100     		.2byte	0x1
 9328 05a2 51       		.byte	0x51
 9329 05a3 0F000000 		.4byte	.LVL99-1
 9330 05a7 3C000000 		.4byte	.LVL109
 9331 05ab 0100     		.2byte	0x1
 9332 05ad 55       		.byte	0x55
 9333 05ae 3C000000 		.4byte	.LVL109
ARM GAS  C:\Users\Phuong\AppData\Local\Temp\ccGVgD3r.s 			page 184


 9334 05b2 A2000000 		.4byte	.LVL131
 9335 05b6 0400     		.2byte	0x4
 9336 05b8 F3       		.byte	0xf3
 9337 05b9 01       		.uleb128 0x1
 9338 05ba 51       		.byte	0x51
 9339 05bb 9F       		.byte	0x9f
 9340 05bc A2000000 		.4byte	.LVL131
 9341 05c0 A4000000 		.4byte	.LVL132
 9342 05c4 0100     		.2byte	0x1
 9343 05c6 55       		.byte	0x55
 9344 05c7 A4000000 		.4byte	.LVL132
 9345 05cb C0000000 		.4byte	.LFE1
 9346 05cf 0400     		.2byte	0x4
 9347 05d1 F3       		.byte	0xf3
 9348 05d2 01       		.uleb128 0x1
 9349 05d3 51       		.byte	0x51
 9350 05d4 9F       		.byte	0x9f
 9351 05d5 00000000 		.4byte	0
 9352 05d9 00000000 		.4byte	0
 9353              	.LLST28:
 9354 05dd 00000000 		.4byte	.LVL97
 9355 05e1 0F000000 		.4byte	.LVL99-1
 9356 05e5 0100     		.2byte	0x1
 9357 05e7 52       		.byte	0x52
 9358 05e8 0F000000 		.4byte	.LVL99-1
 9359 05ec 32000000 		.4byte	.LVL105
 9360 05f0 0100     		.2byte	0x1
 9361 05f2 56       		.byte	0x56
 9362 05f3 32000000 		.4byte	.LVL105
 9363 05f7 34000000 		.4byte	.LVL106
 9364 05fb 0400     		.2byte	0x4
 9365 05fd F3       		.byte	0xf3
 9366 05fe 01       		.uleb128 0x1
 9367 05ff 52       		.byte	0x52
 9368 0600 9F       		.byte	0x9f
 9369 0601 34000000 		.4byte	.LVL106
 9370 0605 5C000000 		.4byte	.LVL114
 9371 0609 0100     		.2byte	0x1
 9372 060b 56       		.byte	0x56
 9373 060c 5C000000 		.4byte	.LVL114
 9374 0610 5E000000 		.4byte	.LVL115
 9375 0614 0400     		.2byte	0x4
 9376 0616 F3       		.byte	0xf3
 9377 0617 01       		.uleb128 0x1
 9378 0618 52       		.byte	0x52
 9379 0619 9F       		.byte	0x9f
 9380 061a 5E000000 		.4byte	.LVL115
 9381 061e 72000000 		.4byte	.LVL119
 9382 0622 0100     		.2byte	0x1
 9383 0624 56       		.byte	0x56
 9384 0625 72000000 		.4byte	.LVL119
 9385 0629 8A000000 		.4byte	.LVL123
 9386 062d 0400     		.2byte	0x4
 9387 062f F3       		.byte	0xf3
 9388 0630 01       		.uleb128 0x1
 9389 0631 52       		.byte	0x52
 9390 0632 9F       		.byte	0x9f
ARM GAS  C:\Users\Phuong\AppData\Local\Temp\ccGVgD3r.s 			page 185


 9391 0633 8A000000 		.4byte	.LVL123
 9392 0637 8C000000 		.4byte	.LVL124
 9393 063b 0100     		.2byte	0x1
 9394 063d 56       		.byte	0x56
 9395 063e 8C000000 		.4byte	.LVL124
 9396 0642 98000000 		.4byte	.LVL128
 9397 0646 0400     		.2byte	0x4
 9398 0648 F3       		.byte	0xf3
 9399 0649 01       		.uleb128 0x1
 9400 064a 52       		.byte	0x52
 9401 064b 9F       		.byte	0x9f
 9402 064c 98000000 		.4byte	.LVL128
 9403 0650 9A000000 		.4byte	.LVL129
 9404 0654 0100     		.2byte	0x1
 9405 0656 56       		.byte	0x56
 9406 0657 9A000000 		.4byte	.LVL129
 9407 065b A2000000 		.4byte	.LVL131
 9408 065f 0400     		.2byte	0x4
 9409 0661 F3       		.byte	0xf3
 9410 0662 01       		.uleb128 0x1
 9411 0663 52       		.byte	0x52
 9412 0664 9F       		.byte	0x9f
 9413 0665 A2000000 		.4byte	.LVL131
 9414 0669 A4000000 		.4byte	.LVL132
 9415 066d 0100     		.2byte	0x1
 9416 066f 56       		.byte	0x56
 9417 0670 A4000000 		.4byte	.LVL132
 9418 0674 C0000000 		.4byte	.LFE1
 9419 0678 0400     		.2byte	0x4
 9420 067a F3       		.byte	0xf3
 9421 067b 01       		.uleb128 0x1
 9422 067c 52       		.byte	0x52
 9423 067d 9F       		.byte	0x9f
 9424 067e 00000000 		.4byte	0
 9425 0682 00000000 		.4byte	0
 9426              	.LLST29:
 9427 0686 90000000 		.4byte	.LVL126
 9428 068a 98000000 		.4byte	.LVL128
 9429 068e 0100     		.2byte	0x1
 9430 0690 56       		.byte	0x56
 9431 0691 9A000000 		.4byte	.LVL129
 9432 0695 A2000000 		.4byte	.LVL131
 9433 0699 0100     		.2byte	0x1
 9434 069b 56       		.byte	0x56
 9435 069c A4000000 		.4byte	.LVL132
 9436 06a0 A8000000 		.4byte	.LVL133
 9437 06a4 0100     		.2byte	0x1
 9438 06a6 56       		.byte	0x56
 9439 06a7 A8000000 		.4byte	.LVL133
 9440 06ab C0000000 		.4byte	.LFE1
 9441 06af 0100     		.2byte	0x1
 9442 06b1 50       		.byte	0x50
 9443 06b2 00000000 		.4byte	0
 9444 06b6 00000000 		.4byte	0
 9445              	.LLST30:
 9446 06ba 12000000 		.4byte	.LVL100
 9447 06be 17000000 		.4byte	.LVL101-1
ARM GAS  C:\Users\Phuong\AppData\Local\Temp\ccGVgD3r.s 			page 186


 9448 06c2 0100     		.2byte	0x1
 9449 06c4 50       		.byte	0x50
 9450 06c5 17000000 		.4byte	.LVL101-1
 9451 06c9 1A000000 		.4byte	.LVL102
 9452 06cd 0100     		.2byte	0x1
 9453 06cf 54       		.byte	0x54
 9454 06d0 34000000 		.4byte	.LVL106
 9455 06d4 36000000 		.4byte	.LVL107
 9456 06d8 0100     		.2byte	0x1
 9457 06da 50       		.byte	0x50
 9458 06db 36000000 		.4byte	.LVL107
 9459 06df A2000000 		.4byte	.LVL131
 9460 06e3 0100     		.2byte	0x1
 9461 06e5 54       		.byte	0x54
 9462 06e6 00000000 		.4byte	0
 9463 06ea 00000000 		.4byte	0
 9464              	.LLST31:
 9465 06ee 1A000000 		.4byte	.LVL102
 9466 06f2 2E000000 		.4byte	.LVL103
 9467 06f6 0100     		.2byte	0x1
 9468 06f8 50       		.byte	0x50
 9469 06f9 2E000000 		.4byte	.LVL103
 9470 06fd 34000000 		.4byte	.LVL106
 9471 0701 0100     		.2byte	0x1
 9472 0703 54       		.byte	0x54
 9473 0704 A2000000 		.4byte	.LVL131
 9474 0708 A4000000 		.4byte	.LVL132
 9475 070c 0100     		.2byte	0x1
 9476 070e 50       		.byte	0x50
 9477 070f 00000000 		.4byte	0
 9478 0713 00000000 		.4byte	0
 9479              	.LLST32:
 9480 0717 3C000000 		.4byte	.LVL109
 9481 071b 41000000 		.4byte	.LVL110-1
 9482 071f 0100     		.2byte	0x1
 9483 0721 50       		.byte	0x50
 9484 0722 41000000 		.4byte	.LVL110-1
 9485 0726 44000000 		.4byte	.LVL111
 9486 072a 0100     		.2byte	0x1
 9487 072c 55       		.byte	0x55
 9488 072d 5E000000 		.4byte	.LVL115
 9489 0731 64000000 		.4byte	.LVL116
 9490 0735 0100     		.2byte	0x1
 9491 0737 50       		.byte	0x50
 9492 0738 64000000 		.4byte	.LVL116
 9493 073c 98000000 		.4byte	.LVL128
 9494 0740 0100     		.2byte	0x1
 9495 0742 55       		.byte	0x55
 9496 0743 00000000 		.4byte	0
 9497 0747 00000000 		.4byte	0
 9498              	.LLST33:
 9499 074b 44000000 		.4byte	.LVL111
 9500 074f 58000000 		.4byte	.LVL112
 9501 0753 0100     		.2byte	0x1
 9502 0755 50       		.byte	0x50
 9503 0756 58000000 		.4byte	.LVL112
 9504 075a 5E000000 		.4byte	.LVL115
ARM GAS  C:\Users\Phuong\AppData\Local\Temp\ccGVgD3r.s 			page 187


 9505 075e 0100     		.2byte	0x1
 9506 0760 55       		.byte	0x55
 9507 0761 98000000 		.4byte	.LVL128
 9508 0765 9A000000 		.4byte	.LVL129
 9509 0769 0100     		.2byte	0x1
 9510 076b 50       		.byte	0x50
 9511 076c 00000000 		.4byte	0
 9512 0770 00000000 		.4byte	0
 9513              	.LLST34:
 9514 0774 72000000 		.4byte	.LVL119
 9515 0778 84000000 		.4byte	.LVL120
 9516 077c 0100     		.2byte	0x1
 9517 077e 50       		.byte	0x50
 9518 077f 84000000 		.4byte	.LVL120
 9519 0783 88000000 		.4byte	.LVL122
 9520 0787 0100     		.2byte	0x1
 9521 0789 56       		.byte	0x56
 9522 078a 8E000000 		.4byte	.LVL125
 9523 078e 90000000 		.4byte	.LVL126
 9524 0792 0100     		.2byte	0x1
 9525 0794 50       		.byte	0x50
 9526 0795 00000000 		.4byte	0
 9527 0799 00000000 		.4byte	0
 9528              	.LLST35:
 9529 079d 00000000 		.4byte	.LVL135
 9530 07a1 0B000000 		.4byte	.LVL136-1
 9531 07a5 0100     		.2byte	0x1
 9532 07a7 50       		.byte	0x50
 9533 07a8 0B000000 		.4byte	.LVL136-1
 9534 07ac 2C000000 		.4byte	.LVL141
 9535 07b0 0100     		.2byte	0x1
 9536 07b2 55       		.byte	0x55
 9537 07b3 2C000000 		.4byte	.LVL141
 9538 07b7 2E000000 		.4byte	.LVL142
 9539 07bb 0100     		.2byte	0x1
 9540 07bd 50       		.byte	0x50
 9541 07be 2E000000 		.4byte	.LVL142
 9542 07c2 3C000000 		.4byte	.LVL146
 9543 07c6 0100     		.2byte	0x1
 9544 07c8 55       		.byte	0x55
 9545 07c9 3C000000 		.4byte	.LVL146
 9546 07cd 56000000 		.4byte	.LVL149
 9547 07d1 0400     		.2byte	0x4
 9548 07d3 F3       		.byte	0xf3
 9549 07d4 01       		.uleb128 0x1
 9550 07d5 50       		.byte	0x50
 9551 07d6 9F       		.byte	0x9f
 9552 07d7 56000000 		.4byte	.LVL149
 9553 07db 66000000 		.4byte	.LVL152
 9554 07df 0100     		.2byte	0x1
 9555 07e1 55       		.byte	0x55
 9556 07e2 66000000 		.4byte	.LVL152
 9557 07e6 80000000 		.4byte	.LVL155
 9558 07ea 0400     		.2byte	0x4
 9559 07ec F3       		.byte	0xf3
 9560 07ed 01       		.uleb128 0x1
 9561 07ee 50       		.byte	0x50
ARM GAS  C:\Users\Phuong\AppData\Local\Temp\ccGVgD3r.s 			page 188


 9562 07ef 9F       		.byte	0x9f
 9563 07f0 80000000 		.4byte	.LVL155
 9564 07f4 94000000 		.4byte	.LVL158
 9565 07f8 0100     		.2byte	0x1
 9566 07fa 55       		.byte	0x55
 9567 07fb 94000000 		.4byte	.LVL158
 9568 07ff AE000000 		.4byte	.LVL161
 9569 0803 0400     		.2byte	0x4
 9570 0805 F3       		.byte	0xf3
 9571 0806 01       		.uleb128 0x1
 9572 0807 50       		.byte	0x50
 9573 0808 9F       		.byte	0x9f
 9574 0809 AE000000 		.4byte	.LVL161
 9575 080d BE000000 		.4byte	.LVL164
 9576 0811 0100     		.2byte	0x1
 9577 0813 55       		.byte	0x55
 9578 0814 BE000000 		.4byte	.LVL164
 9579 0818 D8000000 		.4byte	.LVL167
 9580 081c 0400     		.2byte	0x4
 9581 081e F3       		.byte	0xf3
 9582 081f 01       		.uleb128 0x1
 9583 0820 50       		.byte	0x50
 9584 0821 9F       		.byte	0x9f
 9585 0822 D8000000 		.4byte	.LVL167
 9586 0826 EA000000 		.4byte	.LVL170
 9587 082a 0100     		.2byte	0x1
 9588 082c 55       		.byte	0x55
 9589 082d EA000000 		.4byte	.LVL170
 9590 0831 04010000 		.4byte	.LVL173
 9591 0835 0400     		.2byte	0x4
 9592 0837 F3       		.byte	0xf3
 9593 0838 01       		.uleb128 0x1
 9594 0839 50       		.byte	0x50
 9595 083a 9F       		.byte	0x9f
 9596 083b 04010000 		.4byte	.LVL173
 9597 083f 0A010000 		.4byte	.LVL174
 9598 0843 0100     		.2byte	0x1
 9599 0845 55       		.byte	0x55
 9600 0846 0A010000 		.4byte	.LVL174
 9601 084a 20010000 		.4byte	.LVL178
 9602 084e 0400     		.2byte	0x4
 9603 0850 F3       		.byte	0xf3
 9604 0851 01       		.uleb128 0x1
 9605 0852 50       		.byte	0x50
 9606 0853 9F       		.byte	0x9f
 9607 0854 20010000 		.4byte	.LVL178
 9608 0858 22010000 		.4byte	.LVL179
 9609 085c 0100     		.2byte	0x1
 9610 085e 55       		.byte	0x55
 9611 085f 22010000 		.4byte	.LVL179
 9612 0863 54010000 		.4byte	.LFE5
 9613 0867 0400     		.2byte	0x4
 9614 0869 F3       		.byte	0xf3
 9615 086a 01       		.uleb128 0x1
 9616 086b 50       		.byte	0x50
 9617 086c 9F       		.byte	0x9f
 9618 086d 00000000 		.4byte	0
ARM GAS  C:\Users\Phuong\AppData\Local\Temp\ccGVgD3r.s 			page 189


 9619 0871 00000000 		.4byte	0
 9620              	.LLST36:
 9621 0875 34000000 		.4byte	.LVL144
 9622 0879 39000000 		.4byte	.LVL145-1
 9623 087d 0100     		.2byte	0x1
 9624 087f 50       		.byte	0x50
 9625 0880 39000000 		.4byte	.LVL145-1
 9626 0884 56000000 		.4byte	.LVL149
 9627 0888 0100     		.2byte	0x1
 9628 088a 54       		.byte	0x54
 9629 088b 56000000 		.4byte	.LVL149
 9630 088f 59000000 		.4byte	.LVL150-1
 9631 0893 0100     		.2byte	0x1
 9632 0895 50       		.byte	0x50
 9633 0896 59000000 		.4byte	.LVL150-1
 9634 089a 1C010000 		.4byte	.LVL177
 9635 089e 0100     		.2byte	0x1
 9636 08a0 54       		.byte	0x54
 9637 08a1 1C010000 		.4byte	.LVL177
 9638 08a5 20010000 		.4byte	.LVL178
 9639 08a9 0200     		.2byte	0x2
 9640 08ab 30       		.byte	0x30
 9641 08ac 9F       		.byte	0x9f
 9642 08ad 22010000 		.4byte	.LVL179
 9643 08b1 26010000 		.4byte	.LVL180
 9644 08b5 0100     		.2byte	0x1
 9645 08b7 54       		.byte	0x54
 9646 08b8 26010000 		.4byte	.LVL180
 9647 08bc 54010000 		.4byte	.LFE5
 9648 08c0 0100     		.2byte	0x1
 9649 08c2 50       		.byte	0x50
 9650 08c3 00000000 		.4byte	0
 9651 08c7 00000000 		.4byte	0
 9652              	.LLST37:
 9653 08cb 0E000000 		.4byte	.LVL137
 9654 08cf 26000000 		.4byte	.LVL138
 9655 08d3 0100     		.2byte	0x1
 9656 08d5 50       		.byte	0x50
 9657 08d6 26000000 		.4byte	.LVL138
 9658 08da 2A000000 		.4byte	.LVL140
 9659 08de 0100     		.2byte	0x1
 9660 08e0 54       		.byte	0x54
 9661 08e1 20010000 		.4byte	.LVL178
 9662 08e5 22010000 		.4byte	.LVL179
 9663 08e9 0100     		.2byte	0x1
 9664 08eb 50       		.byte	0x50
 9665 08ec 00000000 		.4byte	0
 9666 08f0 00000000 		.4byte	0
 9667              	.LLST38:
 9668 08f4 3C000000 		.4byte	.LVL146
 9669 08f8 52000000 		.4byte	.LVL147
 9670 08fc 0100     		.2byte	0x1
 9671 08fe 50       		.byte	0x50
 9672 08ff 52000000 		.4byte	.LVL147
 9673 0903 56000000 		.4byte	.LVL149
 9674 0907 0100     		.2byte	0x1
 9675 0909 55       		.byte	0x55
ARM GAS  C:\Users\Phuong\AppData\Local\Temp\ccGVgD3r.s 			page 190


 9676 090a 00000000 		.4byte	0
 9677 090e 00000000 		.4byte	0
 9678              	.LLST39:
 9679 0912 66000000 		.4byte	.LVL152
 9680 0916 7C000000 		.4byte	.LVL153
 9681 091a 0100     		.2byte	0x1
 9682 091c 50       		.byte	0x50
 9683 091d 7C000000 		.4byte	.LVL153
 9684 0921 80000000 		.4byte	.LVL155
 9685 0925 0100     		.2byte	0x1
 9686 0927 55       		.byte	0x55
 9687 0928 00000000 		.4byte	0
 9688 092c 00000000 		.4byte	0
 9689              	.LLST40:
 9690 0930 94000000 		.4byte	.LVL158
 9691 0934 AA000000 		.4byte	.LVL159
 9692 0938 0100     		.2byte	0x1
 9693 093a 50       		.byte	0x50
 9694 093b AA000000 		.4byte	.LVL159
 9695 093f AE000000 		.4byte	.LVL161
 9696 0943 0100     		.2byte	0x1
 9697 0945 55       		.byte	0x55
 9698 0946 00000000 		.4byte	0
 9699 094a 00000000 		.4byte	0
 9700              	.LLST41:
 9701 094e BE000000 		.4byte	.LVL164
 9702 0952 D4000000 		.4byte	.LVL165
 9703 0956 0100     		.2byte	0x1
 9704 0958 50       		.byte	0x50
 9705 0959 D4000000 		.4byte	.LVL165
 9706 095d D8000000 		.4byte	.LVL167
 9707 0961 0100     		.2byte	0x1
 9708 0963 55       		.byte	0x55
 9709 0964 00000000 		.4byte	0
 9710 0968 00000000 		.4byte	0
 9711              	.LLST42:
 9712 096c EA000000 		.4byte	.LVL170
 9713 0970 00010000 		.4byte	.LVL171
 9714 0974 0100     		.2byte	0x1
 9715 0976 50       		.byte	0x50
 9716 0977 00010000 		.4byte	.LVL171
 9717 097b 04010000 		.4byte	.LVL173
 9718 097f 0100     		.2byte	0x1
 9719 0981 55       		.byte	0x55
 9720 0982 00000000 		.4byte	0
 9721 0986 00000000 		.4byte	0
 9722              	.LLST43:
 9723 098a 00000000 		.4byte	.LVL181
 9724 098e 0B000000 		.4byte	.LVL182-1
 9725 0992 0100     		.2byte	0x1
 9726 0994 50       		.byte	0x50
 9727 0995 0B000000 		.4byte	.LVL182-1
 9728 0999 28000000 		.4byte	.LVL186
 9729 099d 0100     		.2byte	0x1
 9730 099f 56       		.byte	0x56
 9731 09a0 28000000 		.4byte	.LVL186
 9732 09a4 2B000000 		.4byte	.LVL187-1
ARM GAS  C:\Users\Phuong\AppData\Local\Temp\ccGVgD3r.s 			page 191


 9733 09a8 0100     		.2byte	0x1
 9734 09aa 50       		.byte	0x50
 9735 09ab 2B000000 		.4byte	.LVL187-1
 9736 09af 96000000 		.4byte	.LVL206
 9737 09b3 0100     		.2byte	0x1
 9738 09b5 56       		.byte	0x56
 9739 09b6 96000000 		.4byte	.LVL206
 9740 09ba A8000000 		.4byte	.LFE6
 9741 09be 0400     		.2byte	0x4
 9742 09c0 F3       		.byte	0xf3
 9743 09c1 01       		.uleb128 0x1
 9744 09c2 50       		.byte	0x50
 9745 09c3 9F       		.byte	0x9f
 9746 09c4 00000000 		.4byte	0
 9747 09c8 00000000 		.4byte	0
 9748              	.LLST44:
 9749 09cc 0E000000 		.4byte	.LVL183
 9750 09d0 24000000 		.4byte	.LVL184
 9751 09d4 0100     		.2byte	0x1
 9752 09d6 50       		.byte	0x50
 9753 09d7 24000000 		.4byte	.LVL184
 9754 09db 28000000 		.4byte	.LVL186
 9755 09df 0100     		.2byte	0x1
 9756 09e1 54       		.byte	0x54
 9757 09e2 00000000 		.4byte	0
 9758 09e6 00000000 		.4byte	0
 9759              	.LLST45:
 9760 09ea 5A000000 		.4byte	.LVL193
 9761 09ee 5C000000 		.4byte	.LVL194
 9762 09f2 0100     		.2byte	0x1
 9763 09f4 50       		.byte	0x50
 9764 09f5 5C000000 		.4byte	.LVL194
 9765 09f9 7E000000 		.4byte	.LVL200
 9766 09fd 0100     		.2byte	0x1
 9767 09ff 54       		.byte	0x54
 9768 0a00 86000000 		.4byte	.LVL202
 9769 0a04 8A000000 		.4byte	.LVL203
 9770 0a08 0100     		.2byte	0x1
 9771 0a0a 50       		.byte	0x50
 9772 0a0b 8A000000 		.4byte	.LVL203
 9773 0a0f 94000000 		.4byte	.LVL205
 9774 0a13 0100     		.2byte	0x1
 9775 0a15 54       		.byte	0x54
 9776 0a16 00000000 		.4byte	0
 9777 0a1a 00000000 		.4byte	0
 9778              	.LLST46:
 9779 0a1e 2E000000 		.4byte	.LVL188
 9780 0a22 44000000 		.4byte	.LVL189
 9781 0a26 0100     		.2byte	0x1
 9782 0a28 50       		.byte	0x50
 9783 0a29 44000000 		.4byte	.LVL189
 9784 0a2d 5A000000 		.4byte	.LVL193
 9785 0a31 0100     		.2byte	0x1
 9786 0a33 54       		.byte	0x54
 9787 0a34 00000000 		.4byte	0
 9788 0a38 00000000 		.4byte	0
 9789              	.LLST47:
ARM GAS  C:\Users\Phuong\AppData\Local\Temp\ccGVgD3r.s 			page 192


 9790 0a3c 62000000 		.4byte	.LVL196
 9791 0a40 6C000000 		.4byte	.LVL197
 9792 0a44 0100     		.2byte	0x1
 9793 0a46 50       		.byte	0x50
 9794 0a47 6C000000 		.4byte	.LVL197
 9795 0a4b 7E000000 		.4byte	.LVL200
 9796 0a4f 0100     		.2byte	0x1
 9797 0a51 55       		.byte	0x55
 9798 0a52 00000000 		.4byte	0
 9799 0a56 00000000 		.4byte	0
 9800              	.LLST48:
 9801 0a5a 00000000 		.4byte	.LVL207
 9802 0a5e 0F000000 		.4byte	.LVL208-1
 9803 0a62 0100     		.2byte	0x1
 9804 0a64 50       		.byte	0x50
 9805 0a65 0F000000 		.4byte	.LVL208-1
 9806 0a69 6C000000 		.4byte	.LVL218
 9807 0a6d 0100     		.2byte	0x1
 9808 0a6f 54       		.byte	0x54
 9809 0a70 6C000000 		.4byte	.LVL218
 9810 0a74 8A000000 		.4byte	.LVL221
 9811 0a78 0400     		.2byte	0x4
 9812 0a7a F3       		.byte	0xf3
 9813 0a7b 01       		.uleb128 0x1
 9814 0a7c 50       		.byte	0x50
 9815 0a7d 9F       		.byte	0x9f
 9816 0a7e 8A000000 		.4byte	.LVL221
 9817 0a82 B2000000 		.4byte	.LVL224
 9818 0a86 0100     		.2byte	0x1
 9819 0a88 54       		.byte	0x54
 9820 0a89 B2000000 		.4byte	.LVL224
 9821 0a8d D0000000 		.4byte	.LVL227
 9822 0a91 0400     		.2byte	0x4
 9823 0a93 F3       		.byte	0xf3
 9824 0a94 01       		.uleb128 0x1
 9825 0a95 50       		.byte	0x50
 9826 0a96 9F       		.byte	0x9f
 9827 0a97 D0000000 		.4byte	.LVL227
 9828 0a9b D6000000 		.4byte	.LVL229
 9829 0a9f 0100     		.2byte	0x1
 9830 0aa1 54       		.byte	0x54
 9831 0aa2 D6000000 		.4byte	.LVL229
 9832 0aa6 F2000000 		.4byte	.LVL232
 9833 0aaa 0400     		.2byte	0x4
 9834 0aac F3       		.byte	0xf3
 9835 0aad 01       		.uleb128 0x1
 9836 0aae 50       		.byte	0x50
 9837 0aaf 9F       		.byte	0x9f
 9838 0ab0 F2000000 		.4byte	.LVL232
 9839 0ab4 F8000000 		.4byte	.LVL234
 9840 0ab8 0100     		.2byte	0x1
 9841 0aba 54       		.byte	0x54
 9842 0abb F8000000 		.4byte	.LVL234
 9843 0abf 30010000 		.4byte	.LFE7
 9844 0ac3 0400     		.2byte	0x4
 9845 0ac5 F3       		.byte	0xf3
 9846 0ac6 01       		.uleb128 0x1
ARM GAS  C:\Users\Phuong\AppData\Local\Temp\ccGVgD3r.s 			page 193


 9847 0ac7 50       		.byte	0x50
 9848 0ac8 9F       		.byte	0x9f
 9849 0ac9 00000000 		.4byte	0
 9850 0acd 00000000 		.4byte	0
 9851              	.LLST49:
 9852 0ad1 00000000 		.4byte	.LVL207
 9853 0ad5 0F000000 		.4byte	.LVL208-1
 9854 0ad9 0100     		.2byte	0x1
 9855 0adb 51       		.byte	0x51
 9856 0adc 0F000000 		.4byte	.LVL208-1
 9857 0ae0 08010000 		.4byte	.LVL240
 9858 0ae4 0100     		.2byte	0x1
 9859 0ae6 56       		.byte	0x56
 9860 0ae7 08010000 		.4byte	.LVL240
 9861 0aeb 30010000 		.4byte	.LFE7
 9862 0aef 0400     		.2byte	0x4
 9863 0af1 F3       		.byte	0xf3
 9864 0af2 01       		.uleb128 0x1
 9865 0af3 51       		.byte	0x51
 9866 0af4 9F       		.byte	0x9f
 9867 0af5 00000000 		.4byte	0
 9868 0af9 00000000 		.4byte	0
 9869              	.LLST50:
 9870 0afd 00000000 		.4byte	.LVL207
 9871 0b01 0F000000 		.4byte	.LVL208-1
 9872 0b05 0100     		.2byte	0x1
 9873 0b07 52       		.byte	0x52
 9874 0b08 0F000000 		.4byte	.LVL208-1
 9875 0b0c 30010000 		.4byte	.LFE7
 9876 0b10 0200     		.2byte	0x2
 9877 0b12 91       		.byte	0x91
 9878 0b13 64       		.sleb128 -28
 9879 0b14 00000000 		.4byte	0
 9880 0b18 00000000 		.4byte	0
 9881              	.LLST51:
 9882 0b1c 00000000 		.4byte	.LVL207
 9883 0b20 0F000000 		.4byte	.LVL208-1
 9884 0b24 0100     		.2byte	0x1
 9885 0b26 53       		.byte	0x53
 9886 0b27 0F000000 		.4byte	.LVL208-1
 9887 0b2b 08010000 		.4byte	.LVL241
 9888 0b2f 0100     		.2byte	0x1
 9889 0b31 57       		.byte	0x57
 9890 0b32 08010000 		.4byte	.LVL241
 9891 0b36 30010000 		.4byte	.LFE7
 9892 0b3a 0400     		.2byte	0x4
 9893 0b3c F3       		.byte	0xf3
 9894 0b3d 01       		.uleb128 0x1
 9895 0b3e 53       		.byte	0x53
 9896 0b3f 9F       		.byte	0x9f
 9897 0b40 00000000 		.4byte	0
 9898 0b44 00000000 		.4byte	0
 9899              	.LLST52:
 9900 0b48 12000000 		.4byte	.LVL209
 9901 0b4c 28000000 		.4byte	.LVL210
 9902 0b50 0100     		.2byte	0x1
 9903 0b52 50       		.byte	0x50
ARM GAS  C:\Users\Phuong\AppData\Local\Temp\ccGVgD3r.s 			page 194


 9904 0b53 28000000 		.4byte	.LVL210
 9905 0b57 3C000000 		.4byte	.LVL213
 9906 0b5b 0100     		.2byte	0x1
 9907 0b5d 55       		.byte	0x55
 9908 0b5e 60000000 		.4byte	.LVL216
 9909 0b62 F2000000 		.4byte	.LVL232
 9910 0b66 0100     		.2byte	0x1
 9911 0b68 55       		.byte	0x55
 9912 0b69 F8000000 		.4byte	.LVL234
 9913 0b6d 06010000 		.4byte	.LVL239
 9914 0b71 0100     		.2byte	0x1
 9915 0b73 55       		.byte	0x55
 9916 0b74 00000000 		.4byte	0
 9917 0b78 00000000 		.4byte	0
 9918              	.LLST53:
 9919 0b7c 3C000000 		.4byte	.LVL213
 9920 0b80 58000000 		.4byte	.LVL214
 9921 0b84 0100     		.2byte	0x1
 9922 0b86 50       		.byte	0x50
 9923 0b87 58000000 		.4byte	.LVL214
 9924 0b8b 60000000 		.4byte	.LVL216
 9925 0b8f 0100     		.2byte	0x1
 9926 0b91 55       		.byte	0x55
 9927 0b92 F2000000 		.4byte	.LVL232
 9928 0b96 F4000000 		.4byte	.LVL233
 9929 0b9a 0100     		.2byte	0x1
 9930 0b9c 50       		.byte	0x50
 9931 0b9d F4000000 		.4byte	.LVL233
 9932 0ba1 F8000000 		.4byte	.LVL234
 9933 0ba5 0100     		.2byte	0x1
 9934 0ba7 55       		.byte	0x55
 9935 0ba8 00000000 		.4byte	0
 9936 0bac 00000000 		.4byte	0
 9937              	.LLST54:
 9938 0bb0 6C000000 		.4byte	.LVL218
 9939 0bb4 82000000 		.4byte	.LVL219
 9940 0bb8 0100     		.2byte	0x1
 9941 0bba 50       		.byte	0x50
 9942 0bbb 82000000 		.4byte	.LVL219
 9943 0bbf 8A000000 		.4byte	.LVL221
 9944 0bc3 0100     		.2byte	0x1
 9945 0bc5 54       		.byte	0x54
 9946 0bc6 F8000000 		.4byte	.LVL234
 9947 0bca FA000000 		.4byte	.LVL235
 9948 0bce 0100     		.2byte	0x1
 9949 0bd0 50       		.byte	0x50
 9950 0bd1 FA000000 		.4byte	.LVL235
 9951 0bd5 FE000000 		.4byte	.LVL236
 9952 0bd9 0100     		.2byte	0x1
 9953 0bdb 54       		.byte	0x54
 9954 0bdc 00000000 		.4byte	0
 9955 0be0 00000000 		.4byte	0
 9956              	.LLST55:
 9957 0be4 B2000000 		.4byte	.LVL224
 9958 0be8 C8000000 		.4byte	.LVL225
 9959 0bec 0100     		.2byte	0x1
 9960 0bee 50       		.byte	0x50
ARM GAS  C:\Users\Phuong\AppData\Local\Temp\ccGVgD3r.s 			page 195


 9961 0bef C8000000 		.4byte	.LVL225
 9962 0bf3 D0000000 		.4byte	.LVL227
 9963 0bf7 0100     		.2byte	0x1
 9964 0bf9 54       		.byte	0x54
 9965 0bfa FE000000 		.4byte	.LVL236
 9966 0bfe 00010000 		.4byte	.LVL237
 9967 0c02 0100     		.2byte	0x1
 9968 0c04 50       		.byte	0x50
 9969 0c05 00010000 		.4byte	.LVL237
 9970 0c09 04010000 		.4byte	.LVL238
 9971 0c0d 0100     		.2byte	0x1
 9972 0c0f 54       		.byte	0x54
 9973 0c10 00000000 		.4byte	0
 9974 0c14 00000000 		.4byte	0
 9975              	.LLST56:
 9976 0c18 D6000000 		.4byte	.LVL229
 9977 0c1c EC000000 		.4byte	.LVL230
 9978 0c20 0100     		.2byte	0x1
 9979 0c22 50       		.byte	0x50
 9980 0c23 EC000000 		.4byte	.LVL230
 9981 0c27 F2000000 		.4byte	.LVL232
 9982 0c2b 0100     		.2byte	0x1
 9983 0c2d 54       		.byte	0x54
 9984 0c2e 04010000 		.4byte	.LVL238
 9985 0c32 06010000 		.4byte	.LVL239
 9986 0c36 0100     		.2byte	0x1
 9987 0c38 50       		.byte	0x50
 9988 0c39 00000000 		.4byte	0
 9989 0c3d 00000000 		.4byte	0
 9990              	.LLST57:
 9991 0c41 00000000 		.4byte	.LVL242
 9992 0c45 0B000000 		.4byte	.LVL243-1
 9993 0c49 0100     		.2byte	0x1
 9994 0c4b 50       		.byte	0x50
 9995 0c4c 0B000000 		.4byte	.LVL243-1
 9996 0c50 0E000000 		.4byte	.LVL244
 9997 0c54 0100     		.2byte	0x1
 9998 0c56 54       		.byte	0x54
 9999 0c57 0E000000 		.4byte	.LVL244
 10000 0c5b 2C000000 		.4byte	.LVL247
 10001 0c5f 0400     		.2byte	0x4
 10002 0c61 F3       		.byte	0xf3
 10003 0c62 01       		.uleb128 0x1
 10004 0c63 50       		.byte	0x50
 10005 0c64 9F       		.byte	0x9f
 10006 0c65 2C000000 		.4byte	.LVL247
 10007 0c69 35000000 		.4byte	.LVL248-1
 10008 0c6d 0100     		.2byte	0x1
 10009 0c6f 50       		.byte	0x50
 10010 0c70 35000000 		.4byte	.LVL248-1
 10011 0c74 38000000 		.4byte	.LVL249
 10012 0c78 0100     		.2byte	0x1
 10013 0c7a 54       		.byte	0x54
 10014 0c7b 38000000 		.4byte	.LVL249
 10015 0c7f 56000000 		.4byte	.LVL252
 10016 0c83 0400     		.2byte	0x4
 10017 0c85 F3       		.byte	0xf3
ARM GAS  C:\Users\Phuong\AppData\Local\Temp\ccGVgD3r.s 			page 196


 10018 0c86 01       		.uleb128 0x1
 10019 0c87 50       		.byte	0x50
 10020 0c88 9F       		.byte	0x9f
 10021 0c89 56000000 		.4byte	.LVL252
 10022 0c8d 58000000 		.4byte	.LVL253
 10023 0c91 0100     		.2byte	0x1
 10024 0c93 50       		.byte	0x50
 10025 0c94 58000000 		.4byte	.LVL253
 10026 0c98 66000000 		.4byte	.LVL256
 10027 0c9c 0100     		.2byte	0x1
 10028 0c9e 54       		.byte	0x54
 10029 0c9f 66000000 		.4byte	.LVL256
 10030 0ca3 84000000 		.4byte	.LVL259
 10031 0ca7 0400     		.2byte	0x4
 10032 0ca9 F3       		.byte	0xf3
 10033 0caa 01       		.uleb128 0x1
 10034 0cab 50       		.byte	0x50
 10035 0cac 9F       		.byte	0x9f
 10036 0cad 84000000 		.4byte	.LVL259
 10037 0cb1 9A000000 		.4byte	.LVL262
 10038 0cb5 0100     		.2byte	0x1
 10039 0cb7 54       		.byte	0x54
 10040 0cb8 9A000000 		.4byte	.LVL262
 10041 0cbc C4000000 		.4byte	.LFE8
 10042 0cc0 0400     		.2byte	0x4
 10043 0cc2 F3       		.byte	0xf3
 10044 0cc3 01       		.uleb128 0x1
 10045 0cc4 50       		.byte	0x50
 10046 0cc5 9F       		.byte	0x9f
 10047 0cc6 00000000 		.4byte	0
 10048 0cca 00000000 		.4byte	0
 10049              	.LLST58:
 10050 0cce 96000000 		.4byte	.LVL261
 10051 0cd2 9A000000 		.4byte	.LVL262
 10052 0cd6 0200     		.2byte	0x2
 10053 0cd8 30       		.byte	0x30
 10054 0cd9 9F       		.byte	0x9f
 10055 0cda AA000000 		.4byte	.LVL268
 10056 0cde C4000000 		.4byte	.LFE8
 10057 0ce2 0100     		.2byte	0x1
 10058 0ce4 50       		.byte	0x50
 10059 0ce5 00000000 		.4byte	0
 10060 0ce9 00000000 		.4byte	0
 10061              	.LLST59:
 10062 0ced 0E000000 		.4byte	.LVL244
 10063 0cf1 24000000 		.4byte	.LVL245
 10064 0cf5 0100     		.2byte	0x1
 10065 0cf7 50       		.byte	0x50
 10066 0cf8 24000000 		.4byte	.LVL245
 10067 0cfc 2C000000 		.4byte	.LVL247
 10068 0d00 0100     		.2byte	0x1
 10069 0d02 54       		.byte	0x54
 10070 0d03 9A000000 		.4byte	.LVL262
 10071 0d07 9C000000 		.4byte	.LVL263
 10072 0d0b 0100     		.2byte	0x1
 10073 0d0d 50       		.byte	0x50
 10074 0d0e 9C000000 		.4byte	.LVL263
ARM GAS  C:\Users\Phuong\AppData\Local\Temp\ccGVgD3r.s 			page 197


 10075 0d12 A0000000 		.4byte	.LVL264
 10076 0d16 0100     		.2byte	0x1
 10077 0d18 54       		.byte	0x54
 10078 0d19 00000000 		.4byte	0
 10079 0d1d 00000000 		.4byte	0
 10080              	.LLST60:
 10081 0d21 38000000 		.4byte	.LVL249
 10082 0d25 4E000000 		.4byte	.LVL250
 10083 0d29 0100     		.2byte	0x1
 10084 0d2b 50       		.byte	0x50
 10085 0d2c 4E000000 		.4byte	.LVL250
 10086 0d30 56000000 		.4byte	.LVL252
 10087 0d34 0100     		.2byte	0x1
 10088 0d36 54       		.byte	0x54
 10089 0d37 A0000000 		.4byte	.LVL264
 10090 0d3b A2000000 		.4byte	.LVL265
 10091 0d3f 0100     		.2byte	0x1
 10092 0d41 50       		.byte	0x50
 10093 0d42 A2000000 		.4byte	.LVL265
 10094 0d46 A6000000 		.4byte	.LVL266
 10095 0d4a 0100     		.2byte	0x1
 10096 0d4c 54       		.byte	0x54
 10097 0d4d 00000000 		.4byte	0
 10098 0d51 00000000 		.4byte	0
 10099              	.LLST61:
 10100 0d55 66000000 		.4byte	.LVL256
 10101 0d59 7C000000 		.4byte	.LVL257
 10102 0d5d 0100     		.2byte	0x1
 10103 0d5f 50       		.byte	0x50
 10104 0d60 7C000000 		.4byte	.LVL257
 10105 0d64 84000000 		.4byte	.LVL259
 10106 0d68 0100     		.2byte	0x1
 10107 0d6a 54       		.byte	0x54
 10108 0d6b A6000000 		.4byte	.LVL266
 10109 0d6f A8000000 		.4byte	.LVL267
 10110 0d73 0100     		.2byte	0x1
 10111 0d75 50       		.byte	0x50
 10112 0d76 A8000000 		.4byte	.LVL267
 10113 0d7a AA000000 		.4byte	.LVL268
 10114 0d7e 0100     		.2byte	0x1
 10115 0d80 54       		.byte	0x54
 10116 0d81 00000000 		.4byte	0
 10117 0d85 00000000 		.4byte	0
 10118              	.LLST62:
 10119 0d89 00000000 		.4byte	.LVL269
 10120 0d8d 2B000000 		.4byte	.LVL271-1
 10121 0d91 0100     		.2byte	0x1
 10122 0d93 50       		.byte	0x50
 10123 0d94 2B000000 		.4byte	.LVL271-1
 10124 0d98 58000000 		.4byte	.LVL275
 10125 0d9c 0100     		.2byte	0x1
 10126 0d9e 54       		.byte	0x54
 10127 0d9f 58000000 		.4byte	.LVL275
 10128 0da3 5C000000 		.4byte	.LVL276
 10129 0da7 0400     		.2byte	0x4
 10130 0da9 F3       		.byte	0xf3
 10131 0daa 01       		.uleb128 0x1
ARM GAS  C:\Users\Phuong\AppData\Local\Temp\ccGVgD3r.s 			page 198


 10132 0dab 50       		.byte	0x50
 10133 0dac 9F       		.byte	0x9f
 10134 0dad 5C000000 		.4byte	.LVL276
 10135 0db1 69000000 		.4byte	.LVL277-1
 10136 0db5 0100     		.2byte	0x1
 10137 0db7 50       		.byte	0x50
 10138 0db8 69000000 		.4byte	.LVL277-1
 10139 0dbc 6C000000 		.4byte	.LVL278
 10140 0dc0 0100     		.2byte	0x1
 10141 0dc2 54       		.byte	0x54
 10142 0dc3 6C000000 		.4byte	.LVL278
 10143 0dc7 8C000000 		.4byte	.LVL282
 10144 0dcb 0400     		.2byte	0x4
 10145 0dcd F3       		.byte	0xf3
 10146 0dce 01       		.uleb128 0x1
 10147 0dcf 50       		.byte	0x50
 10148 0dd0 9F       		.byte	0x9f
 10149 0dd1 8C000000 		.4byte	.LVL282
 10150 0dd5 8F000000 		.4byte	.LVL283-1
 10151 0dd9 0100     		.2byte	0x1
 10152 0ddb 50       		.byte	0x50
 10153 0ddc 8F000000 		.4byte	.LVL283-1
 10154 0de0 9A000000 		.4byte	.LVL286
 10155 0de4 0100     		.2byte	0x1
 10156 0de6 54       		.byte	0x54
 10157 0de7 9A000000 		.4byte	.LVL286
 10158 0deb BA000000 		.4byte	.LVL290
 10159 0def 0400     		.2byte	0x4
 10160 0df1 F3       		.byte	0xf3
 10161 0df2 01       		.uleb128 0x1
 10162 0df3 50       		.byte	0x50
 10163 0df4 9F       		.byte	0x9f
 10164 0df5 BA000000 		.4byte	.LVL290
 10165 0df9 CA000000 		.4byte	.LVL295
 10166 0dfd 0100     		.2byte	0x1
 10167 0dff 54       		.byte	0x54
 10168 0e00 CA000000 		.4byte	.LVL295
 10169 0e04 E8000000 		.4byte	.LVL299
 10170 0e08 0400     		.2byte	0x4
 10171 0e0a F3       		.byte	0xf3
 10172 0e0b 01       		.uleb128 0x1
 10173 0e0c 50       		.byte	0x50
 10174 0e0d 9F       		.byte	0x9f
 10175 0e0e E8000000 		.4byte	.LVL299
 10176 0e12 FA000000 		.4byte	.LVL303
 10177 0e16 0100     		.2byte	0x1
 10178 0e18 54       		.byte	0x54
 10179 0e19 FA000000 		.4byte	.LVL303
 10180 0e1d 18010000 		.4byte	.LVL307
 10181 0e21 0400     		.2byte	0x4
 10182 0e23 F3       		.byte	0xf3
 10183 0e24 01       		.uleb128 0x1
 10184 0e25 50       		.byte	0x50
 10185 0e26 9F       		.byte	0x9f
 10186 0e27 18010000 		.4byte	.LVL307
 10187 0e2b 28010000 		.4byte	.LVL311
 10188 0e2f 0100     		.2byte	0x1
ARM GAS  C:\Users\Phuong\AppData\Local\Temp\ccGVgD3r.s 			page 199


 10189 0e31 54       		.byte	0x54
 10190 0e32 28010000 		.4byte	.LVL311
 10191 0e36 44010000 		.4byte	.LVL315
 10192 0e3a 0400     		.2byte	0x4
 10193 0e3c F3       		.byte	0xf3
 10194 0e3d 01       		.uleb128 0x1
 10195 0e3e 50       		.byte	0x50
 10196 0e3f 9F       		.byte	0x9f
 10197 0e40 44010000 		.4byte	.LVL315
 10198 0e44 64010000 		.4byte	.LVL320
 10199 0e48 0100     		.2byte	0x1
 10200 0e4a 54       		.byte	0x54
 10201 0e4b 64010000 		.4byte	.LVL320
 10202 0e4f 80010000 		.4byte	.LVL324
 10203 0e53 0400     		.2byte	0x4
 10204 0e55 F3       		.byte	0xf3
 10205 0e56 01       		.uleb128 0x1
 10206 0e57 50       		.byte	0x50
 10207 0e58 9F       		.byte	0x9f
 10208 0e59 80010000 		.4byte	.LVL324
 10209 0e5d 92010000 		.4byte	.LVL328
 10210 0e61 0100     		.2byte	0x1
 10211 0e63 54       		.byte	0x54
 10212 0e64 92010000 		.4byte	.LVL328
 10213 0e68 AE010000 		.4byte	.LVL332
 10214 0e6c 0400     		.2byte	0x4
 10215 0e6e F3       		.byte	0xf3
 10216 0e6f 01       		.uleb128 0x1
 10217 0e70 50       		.byte	0x50
 10218 0e71 9F       		.byte	0x9f
 10219 0e72 AE010000 		.4byte	.LVL332
 10220 0e76 D4010000 		.4byte	.LVL339
 10221 0e7a 0100     		.2byte	0x1
 10222 0e7c 54       		.byte	0x54
 10223 0e7d D4010000 		.4byte	.LVL339
 10224 0e81 EE010000 		.4byte	.LVL343
 10225 0e85 0400     		.2byte	0x4
 10226 0e87 F3       		.byte	0xf3
 10227 0e88 01       		.uleb128 0x1
 10228 0e89 50       		.byte	0x50
 10229 0e8a 9F       		.byte	0x9f
 10230 0e8b EE010000 		.4byte	.LVL343
 10231 0e8f 1A020000 		.4byte	.LVL349
 10232 0e93 0100     		.2byte	0x1
 10233 0e95 54       		.byte	0x54
 10234 0e96 1A020000 		.4byte	.LVL349
 10235 0e9a 34020000 		.4byte	.LVL353
 10236 0e9e 0400     		.2byte	0x4
 10237 0ea0 F3       		.byte	0xf3
 10238 0ea1 01       		.uleb128 0x1
 10239 0ea2 50       		.byte	0x50
 10240 0ea3 9F       		.byte	0x9f
 10241 0ea4 34020000 		.4byte	.LVL353
 10242 0ea8 36020000 		.4byte	.LVL354
 10243 0eac 0100     		.2byte	0x1
 10244 0eae 54       		.byte	0x54
 10245 0eaf 36020000 		.4byte	.LVL354
ARM GAS  C:\Users\Phuong\AppData\Local\Temp\ccGVgD3r.s 			page 200


 10246 0eb3 4A020000 		.4byte	.LVL358
 10247 0eb7 0400     		.2byte	0x4
 10248 0eb9 F3       		.byte	0xf3
 10249 0eba 01       		.uleb128 0x1
 10250 0ebb 50       		.byte	0x50
 10251 0ebc 9F       		.byte	0x9f
 10252 0ebd 4A020000 		.4byte	.LVL358
 10253 0ec1 4C020000 		.4byte	.LVL359
 10254 0ec5 0100     		.2byte	0x1
 10255 0ec7 54       		.byte	0x54
 10256 0ec8 4C020000 		.4byte	.LVL359
 10257 0ecc 72020000 		.4byte	.LVL370
 10258 0ed0 0400     		.2byte	0x4
 10259 0ed2 F3       		.byte	0xf3
 10260 0ed3 01       		.uleb128 0x1
 10261 0ed4 50       		.byte	0x50
 10262 0ed5 9F       		.byte	0x9f
 10263 0ed6 72020000 		.4byte	.LVL370
 10264 0eda 74020000 		.4byte	.LVL371
 10265 0ede 0100     		.2byte	0x1
 10266 0ee0 54       		.byte	0x54
 10267 0ee1 74020000 		.4byte	.LVL371
 10268 0ee5 F4020000 		.4byte	.LFE9
 10269 0ee9 0400     		.2byte	0x4
 10270 0eeb F3       		.byte	0xf3
 10271 0eec 01       		.uleb128 0x1
 10272 0eed 50       		.byte	0x50
 10273 0eee 9F       		.byte	0x9f
 10274 0eef 00000000 		.4byte	0
 10275 0ef3 00000000 		.4byte	0
 10276              	.LLST63:
 10277 0ef7 00000000 		.4byte	.LVL269
 10278 0efb 2B000000 		.4byte	.LVL271-1
 10279 0eff 0100     		.2byte	0x1
 10280 0f01 51       		.byte	0x51
 10281 0f02 2B000000 		.4byte	.LVL271-1
 10282 0f06 5C000000 		.4byte	.LVL276
 10283 0f0a 0100     		.2byte	0x1
 10284 0f0c 57       		.byte	0x57
 10285 0f0d 5C000000 		.4byte	.LVL276
 10286 0f11 69000000 		.4byte	.LVL277-1
 10287 0f15 0100     		.2byte	0x1
 10288 0f17 51       		.byte	0x51
 10289 0f18 69000000 		.4byte	.LVL277-1
 10290 0f1c 8C000000 		.4byte	.LVL282
 10291 0f20 0100     		.2byte	0x1
 10292 0f22 57       		.byte	0x57
 10293 0f23 8C000000 		.4byte	.LVL282
 10294 0f27 8F000000 		.4byte	.LVL283-1
 10295 0f2b 0100     		.2byte	0x1
 10296 0f2d 51       		.byte	0x51
 10297 0f2e 8F000000 		.4byte	.LVL283-1
 10298 0f32 86020000 		.4byte	.LVL376
 10299 0f36 0100     		.2byte	0x1
 10300 0f38 57       		.byte	0x57
 10301 0f39 86020000 		.4byte	.LVL376
 10302 0f3d F4020000 		.4byte	.LFE9
ARM GAS  C:\Users\Phuong\AppData\Local\Temp\ccGVgD3r.s 			page 201


 10303 0f41 0400     		.2byte	0x4
 10304 0f43 F3       		.byte	0xf3
 10305 0f44 01       		.uleb128 0x1
 10306 0f45 51       		.byte	0x51
 10307 0f46 9F       		.byte	0x9f
 10308 0f47 00000000 		.4byte	0
 10309 0f4b 00000000 		.4byte	0
 10310              	.LLST64:
 10311 0f4f 00000000 		.4byte	.LVL269
 10312 0f53 2B000000 		.4byte	.LVL271-1
 10313 0f57 0100     		.2byte	0x1
 10314 0f59 52       		.byte	0x52
 10315 0f5a 2B000000 		.4byte	.LVL271-1
 10316 0f5e 5C000000 		.4byte	.LVL276
 10317 0f62 0100     		.2byte	0x1
 10318 0f64 59       		.byte	0x59
 10319 0f65 5C000000 		.4byte	.LVL276
 10320 0f69 69000000 		.4byte	.LVL277-1
 10321 0f6d 0100     		.2byte	0x1
 10322 0f6f 52       		.byte	0x52
 10323 0f70 69000000 		.4byte	.LVL277-1
 10324 0f74 8C000000 		.4byte	.LVL282
 10325 0f78 0100     		.2byte	0x1
 10326 0f7a 59       		.byte	0x59
 10327 0f7b 8C000000 		.4byte	.LVL282
 10328 0f7f 8F000000 		.4byte	.LVL283-1
 10329 0f83 0100     		.2byte	0x1
 10330 0f85 52       		.byte	0x52
 10331 0f86 8F000000 		.4byte	.LVL283-1
 10332 0f8a 88010000 		.4byte	.LVL326
 10333 0f8e 0100     		.2byte	0x1
 10334 0f90 59       		.byte	0x59
 10335 0f91 88010000 		.4byte	.LVL326
 10336 0f95 34020000 		.4byte	.LVL353
 10337 0f99 0400     		.2byte	0x4
 10338 0f9b F3       		.byte	0xf3
 10339 0f9c 01       		.uleb128 0x1
 10340 0f9d 52       		.byte	0x52
 10341 0f9e 9F       		.byte	0x9f
 10342 0f9f 34020000 		.4byte	.LVL353
 10343 0fa3 40020000 		.4byte	.LVL356
 10344 0fa7 0100     		.2byte	0x1
 10345 0fa9 59       		.byte	0x59
 10346 0faa 40020000 		.4byte	.LVL356
 10347 0fae 58020000 		.4byte	.LVL363
 10348 0fb2 0400     		.2byte	0x4
 10349 0fb4 F3       		.byte	0xf3
 10350 0fb5 01       		.uleb128 0x1
 10351 0fb6 52       		.byte	0x52
 10352 0fb7 9F       		.byte	0x9f
 10353 0fb8 58020000 		.4byte	.LVL363
 10354 0fbc 5A020000 		.4byte	.LVL364
 10355 0fc0 0100     		.2byte	0x1
 10356 0fc2 59       		.byte	0x59
 10357 0fc3 5A020000 		.4byte	.LVL364
 10358 0fc7 62020000 		.4byte	.LVL366
 10359 0fcb 0400     		.2byte	0x4
ARM GAS  C:\Users\Phuong\AppData\Local\Temp\ccGVgD3r.s 			page 202


 10360 0fcd F3       		.byte	0xf3
 10361 0fce 01       		.uleb128 0x1
 10362 0fcf 52       		.byte	0x52
 10363 0fd0 9F       		.byte	0x9f
 10364 0fd1 62020000 		.4byte	.LVL366
 10365 0fd5 6A020000 		.4byte	.LVL368
 10366 0fd9 0100     		.2byte	0x1
 10367 0fdb 59       		.byte	0x59
 10368 0fdc 6A020000 		.4byte	.LVL368
 10369 0fe0 72020000 		.4byte	.LVL370
 10370 0fe4 0400     		.2byte	0x4
 10371 0fe6 F3       		.byte	0xf3
 10372 0fe7 01       		.uleb128 0x1
 10373 0fe8 52       		.byte	0x52
 10374 0fe9 9F       		.byte	0x9f
 10375 0fea 72020000 		.4byte	.LVL370
 10376 0fee 82020000 		.4byte	.LVL374
 10377 0ff2 0100     		.2byte	0x1
 10378 0ff4 59       		.byte	0x59
 10379 0ff5 82020000 		.4byte	.LVL374
 10380 0ff9 F4020000 		.4byte	.LFE9
 10381 0ffd 0400     		.2byte	0x4
 10382 0fff F3       		.byte	0xf3
 10383 1000 01       		.uleb128 0x1
 10384 1001 52       		.byte	0x52
 10385 1002 9F       		.byte	0x9f
 10386 1003 00000000 		.4byte	0
 10387 1007 00000000 		.4byte	0
 10388              	.LLST65:
 10389 100b 00000000 		.4byte	.LVL269
 10390 100f 24000000 		.4byte	.LVL270
 10391 1013 0100     		.2byte	0x1
 10392 1015 53       		.byte	0x53
 10393 1016 24000000 		.4byte	.LVL270
 10394 101a C2000000 		.4byte	.LVL293
 10395 101e 0100     		.2byte	0x1
 10396 1020 56       		.byte	0x56
 10397 1021 C2000000 		.4byte	.LVL293
 10398 1025 72020000 		.4byte	.LVL370
 10399 1029 0400     		.2byte	0x4
 10400 102b F3       		.byte	0xf3
 10401 102c 01       		.uleb128 0x1
 10402 102d 53       		.byte	0x53
 10403 102e 9F       		.byte	0x9f
 10404 102f 72020000 		.4byte	.LVL370
 10405 1033 82020000 		.4byte	.LVL374
 10406 1037 0100     		.2byte	0x1
 10407 1039 56       		.byte	0x56
 10408 103a 82020000 		.4byte	.LVL374
 10409 103e F4020000 		.4byte	.LFE9
 10410 1042 0400     		.2byte	0x4
 10411 1044 F3       		.byte	0xf3
 10412 1045 01       		.uleb128 0x1
 10413 1046 53       		.byte	0x53
 10414 1047 9F       		.byte	0x9f
 10415 1048 00000000 		.4byte	0
 10416 104c 00000000 		.4byte	0
ARM GAS  C:\Users\Phuong\AppData\Local\Temp\ccGVgD3r.s 			page 203


 10417              	.LLST66:
 10418 1050 50020000 		.4byte	.LVL361
 10419 1054 58020000 		.4byte	.LVL363
 10420 1058 0100     		.2byte	0x1
 10421 105a 54       		.byte	0x54
 10422 105b 5A020000 		.4byte	.LVL364
 10423 105f 62020000 		.4byte	.LVL366
 10424 1063 0100     		.2byte	0x1
 10425 1065 54       		.byte	0x54
 10426 1066 6A020000 		.4byte	.LVL368
 10427 106a 72020000 		.4byte	.LVL370
 10428 106e 0100     		.2byte	0x1
 10429 1070 54       		.byte	0x54
 10430 1071 82020000 		.4byte	.LVL374
 10431 1075 86020000 		.4byte	.LVL375
 10432 1079 0100     		.2byte	0x1
 10433 107b 54       		.byte	0x54
 10434 107c 86020000 		.4byte	.LVL375
 10435 1080 F4020000 		.4byte	.LFE9
 10436 1084 0100     		.2byte	0x1
 10437 1086 50       		.byte	0x50
 10438 1087 00000000 		.4byte	0
 10439 108b 00000000 		.4byte	0
 10440              	.LLST67:
 10441 108f 2E000000 		.4byte	.LVL272
 10442 1093 54000000 		.4byte	.LVL273
 10443 1097 0100     		.2byte	0x1
 10444 1099 50       		.byte	0x50
 10445 109a 54000000 		.4byte	.LVL273
 10446 109e 5C000000 		.4byte	.LVL276
 10447 10a2 0100     		.2byte	0x1
 10448 10a4 55       		.byte	0x55
 10449 10a5 72020000 		.4byte	.LVL370
 10450 10a9 78020000 		.4byte	.LVL372
 10451 10ad 0100     		.2byte	0x1
 10452 10af 50       		.byte	0x50
 10453 10b0 00000000 		.4byte	0
 10454 10b4 00000000 		.4byte	0
 10455              	.LLST68:
 10456 10b8 6C000000 		.4byte	.LVL278
 10457 10bc 84000000 		.4byte	.LVL279
 10458 10c0 0100     		.2byte	0x1
 10459 10c2 50       		.byte	0x50
 10460 10c3 84000000 		.4byte	.LVL279
 10461 10c7 88000000 		.4byte	.LVL281
 10462 10cb 0100     		.2byte	0x1
 10463 10cd 54       		.byte	0x54
 10464 10ce 78020000 		.4byte	.LVL372
 10465 10d2 7E020000 		.4byte	.LVL373
 10466 10d6 0100     		.2byte	0x1
 10467 10d8 50       		.byte	0x50
 10468 10d9 00000000 		.4byte	0
 10469 10dd 00000000 		.4byte	0
 10470              	.LLST69:
 10471 10e1 92000000 		.4byte	.LVL284
 10472 10e5 97000000 		.4byte	.LVL285-1
 10473 10e9 0100     		.2byte	0x1
ARM GAS  C:\Users\Phuong\AppData\Local\Temp\ccGVgD3r.s 			page 204


 10474 10eb 50       		.byte	0x50
 10475 10ec 97000000 		.4byte	.LVL285-1
 10476 10f0 BA000000 		.4byte	.LVL290
 10477 10f4 0100     		.2byte	0x1
 10478 10f6 55       		.byte	0x55
 10479 10f7 BA000000 		.4byte	.LVL290
 10480 10fb BC000000 		.4byte	.LVL291
 10481 10ff 0100     		.2byte	0x1
 10482 1101 50       		.byte	0x50
 10483 1102 BC000000 		.4byte	.LVL291
 10484 1106 72020000 		.4byte	.LVL370
 10485 110a 0100     		.2byte	0x1
 10486 110c 55       		.byte	0x55
 10487 110d 7E020000 		.4byte	.LVL373
 10488 1111 82020000 		.4byte	.LVL374
 10489 1115 0100     		.2byte	0x1
 10490 1117 55       		.byte	0x55
 10491 1118 00000000 		.4byte	0
 10492 111c 00000000 		.4byte	0
 10493              	.LLST70:
 10494 1120 9A000000 		.4byte	.LVL286
 10495 1124 B2000000 		.4byte	.LVL287
 10496 1128 0100     		.2byte	0x1
 10497 112a 50       		.byte	0x50
 10498 112b B2000000 		.4byte	.LVL287
 10499 112f B6000000 		.4byte	.LVL289
 10500 1133 0100     		.2byte	0x1
 10501 1135 54       		.byte	0x54
 10502 1136 7E020000 		.4byte	.LVL373
 10503 113a 82020000 		.4byte	.LVL374
 10504 113e 0100     		.2byte	0x1
 10505 1140 50       		.byte	0x50
 10506 1141 00000000 		.4byte	0
 10507 1145 00000000 		.4byte	0
 10508              	.LLST71:
 10509 1149 C2000000 		.4byte	.LVL293
 10510 114d C7000000 		.4byte	.LVL294-1
 10511 1151 0100     		.2byte	0x1
 10512 1153 50       		.byte	0x50
 10513 1154 C7000000 		.4byte	.LVL294-1
 10514 1158 E8000000 		.4byte	.LVL299
 10515 115c 0100     		.2byte	0x1
 10516 115e 56       		.byte	0x56
 10517 115f E8000000 		.4byte	.LVL299
 10518 1163 EC000000 		.4byte	.LVL300
 10519 1167 0100     		.2byte	0x1
 10520 1169 50       		.byte	0x50
 10521 116a EC000000 		.4byte	.LVL300
 10522 116e 72020000 		.4byte	.LVL370
 10523 1172 0100     		.2byte	0x1
 10524 1174 56       		.byte	0x56
 10525 1175 00000000 		.4byte	0
 10526 1179 00000000 		.4byte	0
 10527              	.LLST72:
 10528 117d CA000000 		.4byte	.LVL295
 10529 1181 E0000000 		.4byte	.LVL296
 10530 1185 0100     		.2byte	0x1
ARM GAS  C:\Users\Phuong\AppData\Local\Temp\ccGVgD3r.s 			page 205


 10531 1187 50       		.byte	0x50
 10532 1188 E0000000 		.4byte	.LVL296
 10533 118c E4000000 		.4byte	.LVL298
 10534 1190 0100     		.2byte	0x1
 10535 1192 54       		.byte	0x54
 10536 1193 62020000 		.4byte	.LVL366
 10537 1197 68020000 		.4byte	.LVL367
 10538 119b 0100     		.2byte	0x1
 10539 119d 50       		.byte	0x50
 10540 119e 00000000 		.4byte	0
 10541 11a2 00000000 		.4byte	0
 10542              	.LLST73:
 10543 11a6 FA000000 		.4byte	.LVL303
 10544 11aa 12010000 		.4byte	.LVL304
 10545 11ae 0100     		.2byte	0x1
 10546 11b0 50       		.byte	0x50
 10547 11b1 12010000 		.4byte	.LVL304
 10548 11b5 16010000 		.4byte	.LVL306
 10549 11b9 0100     		.2byte	0x1
 10550 11bb 54       		.byte	0x54
 10551 11bc 68020000 		.4byte	.LVL367
 10552 11c0 6A020000 		.4byte	.LVL368
 10553 11c4 0100     		.2byte	0x1
 10554 11c6 50       		.byte	0x50
 10555 11c7 00000000 		.4byte	0
 10556 11cb 00000000 		.4byte	0
 10557              	.LLST74:
 10558 11cf 1E010000 		.4byte	.LVL309
 10559 11d3 25010000 		.4byte	.LVL310-1
 10560 11d7 0100     		.2byte	0x1
 10561 11d9 50       		.byte	0x50
 10562 11da 25010000 		.4byte	.LVL310-1
 10563 11de 44010000 		.4byte	.LVL315
 10564 11e2 0200     		.2byte	0x2
 10565 11e4 91       		.byte	0x91
 10566 11e5 5C       		.sleb128 -36
 10567 11e6 44010000 		.4byte	.LVL315
 10568 11ea 4A010000 		.4byte	.LVL316
 10569 11ee 0100     		.2byte	0x1
 10570 11f0 50       		.byte	0x50
 10571 11f1 4A010000 		.4byte	.LVL316
 10572 11f5 62020000 		.4byte	.LVL366
 10573 11f9 0200     		.2byte	0x2
 10574 11fb 91       		.byte	0x91
 10575 11fc 5C       		.sleb128 -36
 10576 11fd 00000000 		.4byte	0
 10577 1201 00000000 		.4byte	0
 10578              	.LLST75:
 10579 1205 28010000 		.4byte	.LVL311
 10580 1209 3E010000 		.4byte	.LVL312
 10581 120d 0100     		.2byte	0x1
 10582 120f 50       		.byte	0x50
 10583 1210 3E010000 		.4byte	.LVL312
 10584 1214 42010000 		.4byte	.LVL314
 10585 1218 0100     		.2byte	0x1
 10586 121a 54       		.byte	0x54
 10587 121b 58020000 		.4byte	.LVL363
ARM GAS  C:\Users\Phuong\AppData\Local\Temp\ccGVgD3r.s 			page 206


 10588 121f 5A020000 		.4byte	.LVL364
 10589 1223 0100     		.2byte	0x1
 10590 1225 50       		.byte	0x50
 10591 1226 00000000 		.4byte	0
 10592 122a 00000000 		.4byte	0
 10593              	.LLST76:
 10594 122e 64010000 		.4byte	.LVL320
 10595 1232 78010000 		.4byte	.LVL321
 10596 1236 0100     		.2byte	0x1
 10597 1238 50       		.byte	0x50
 10598 1239 78010000 		.4byte	.LVL321
 10599 123d 7C010000 		.4byte	.LVL323
 10600 1241 0100     		.2byte	0x1
 10601 1243 54       		.byte	0x54
 10602 1244 3A020000 		.4byte	.LVL355
 10603 1248 40020000 		.4byte	.LVL356
 10604 124c 0100     		.2byte	0x1
 10605 124e 50       		.byte	0x50
 10606 124f 00000000 		.4byte	0
 10607 1253 00000000 		.4byte	0
 10608              	.LLST77:
 10609 1257 88010000 		.4byte	.LVL326
 10610 125b 8F010000 		.4byte	.LVL327-1
 10611 125f 0100     		.2byte	0x1
 10612 1261 50       		.byte	0x50
 10613 1262 8F010000 		.4byte	.LVL327-1
 10614 1266 AE010000 		.4byte	.LVL332
 10615 126a 0100     		.2byte	0x1
 10616 126c 59       		.byte	0x59
 10617 126d AE010000 		.4byte	.LVL332
 10618 1271 BE010000 		.4byte	.LVL333
 10619 1275 0100     		.2byte	0x1
 10620 1277 50       		.byte	0x50
 10621 1278 BE010000 		.4byte	.LVL333
 10622 127c 34020000 		.4byte	.LVL353
 10623 1280 0100     		.2byte	0x1
 10624 1282 59       		.byte	0x59
 10625 1283 40020000 		.4byte	.LVL356
 10626 1287 50020000 		.4byte	.LVL361
 10627 128b 0100     		.2byte	0x1
 10628 128d 59       		.byte	0x59
 10629 128e 00000000 		.4byte	0
 10630 1292 00000000 		.4byte	0
 10631              	.LLST78:
 10632 1296 92010000 		.4byte	.LVL328
 10633 129a A6010000 		.4byte	.LVL329
 10634 129e 0100     		.2byte	0x1
 10635 12a0 50       		.byte	0x50
 10636 12a1 A6010000 		.4byte	.LVL329
 10637 12a5 AA010000 		.4byte	.LVL331
 10638 12a9 0100     		.2byte	0x1
 10639 12ab 54       		.byte	0x54
 10640 12ac 40020000 		.4byte	.LVL356
 10641 12b0 46020000 		.4byte	.LVL357
 10642 12b4 0100     		.2byte	0x1
 10643 12b6 50       		.byte	0x50
 10644 12b7 00000000 		.4byte	0
ARM GAS  C:\Users\Phuong\AppData\Local\Temp\ccGVgD3r.s 			page 207


 10645 12bb 00000000 		.4byte	0
 10646              	.LLST79:
 10647 12bf C4010000 		.4byte	.LVL335
 10648 12c3 CA010000 		.4byte	.LVL336
 10649 12c7 0100     		.2byte	0x1
 10650 12c9 50       		.byte	0x50
 10651 12ca CA010000 		.4byte	.LVL336
 10652 12ce EE010000 		.4byte	.LVL343
 10653 12d2 0100     		.2byte	0x1
 10654 12d4 5A       		.byte	0x5a
 10655 12d5 EE010000 		.4byte	.LVL343
 10656 12d9 FE010000 		.4byte	.LVL344
 10657 12dd 0100     		.2byte	0x1
 10658 12df 50       		.byte	0x50
 10659 12e0 FE010000 		.4byte	.LVL344
 10660 12e4 34020000 		.4byte	.LVL353
 10661 12e8 0100     		.2byte	0x1
 10662 12ea 5A       		.byte	0x5a
 10663 12eb 46020000 		.4byte	.LVL357
 10664 12ef 50020000 		.4byte	.LVL361
 10665 12f3 0100     		.2byte	0x1
 10666 12f5 5A       		.byte	0x5a
 10667 12f6 00000000 		.4byte	0
 10668 12fa 00000000 		.4byte	0
 10669              	.LLST80:
 10670 12fe D4010000 		.4byte	.LVL339
 10671 1302 E8010000 		.4byte	.LVL340
 10672 1306 0100     		.2byte	0x1
 10673 1308 50       		.byte	0x50
 10674 1309 E8010000 		.4byte	.LVL340
 10675 130d EC010000 		.4byte	.LVL342
 10676 1311 0100     		.2byte	0x1
 10677 1313 54       		.byte	0x54
 10678 1314 46020000 		.4byte	.LVL357
 10679 1318 4A020000 		.4byte	.LVL358
 10680 131c 0100     		.2byte	0x1
 10681 131e 50       		.byte	0x50
 10682 131f 00000000 		.4byte	0
 10683 1323 00000000 		.4byte	0
 10684              	.LLST81:
 10685 1327 1A020000 		.4byte	.LVL349
 10686 132b 2E020000 		.4byte	.LVL350
 10687 132f 0100     		.2byte	0x1
 10688 1331 50       		.byte	0x50
 10689 1332 2E020000 		.4byte	.LVL350
 10690 1336 32020000 		.4byte	.LVL352
 10691 133a 0100     		.2byte	0x1
 10692 133c 54       		.byte	0x54
 10693 133d 4E020000 		.4byte	.LVL360
 10694 1341 50020000 		.4byte	.LVL361
 10695 1345 0100     		.2byte	0x1
 10696 1347 50       		.byte	0x50
 10697 1348 00000000 		.4byte	0
 10698 134c 00000000 		.4byte	0
 10699              	.LLST82:
 10700 1350 00000000 		.4byte	.LVL377
 10701 1354 25000000 		.4byte	.LVL378-1
ARM GAS  C:\Users\Phuong\AppData\Local\Temp\ccGVgD3r.s 			page 208


 10702 1358 0100     		.2byte	0x1
 10703 135a 50       		.byte	0x50
 10704 135b 25000000 		.4byte	.LVL378-1
 10705 135f 4C000000 		.4byte	.LVL382
 10706 1363 0100     		.2byte	0x1
 10707 1365 54       		.byte	0x54
 10708 1366 4C000000 		.4byte	.LVL382
 10709 136a 4E000000 		.4byte	.LVL383
 10710 136e 0400     		.2byte	0x4
 10711 1370 F3       		.byte	0xf3
 10712 1371 01       		.uleb128 0x1
 10713 1372 50       		.byte	0x50
 10714 1373 9F       		.byte	0x9f
 10715 1374 4E000000 		.4byte	.LVL383
 10716 1378 5B000000 		.4byte	.LVL385-1
 10717 137c 0100     		.2byte	0x1
 10718 137e 50       		.byte	0x50
 10719 137f 5B000000 		.4byte	.LVL385-1
 10720 1383 5E000000 		.4byte	.LVL386
 10721 1387 0100     		.2byte	0x1
 10722 1389 54       		.byte	0x54
 10723 138a 5E000000 		.4byte	.LVL386
 10724 138e 7C000000 		.4byte	.LVL390
 10725 1392 0400     		.2byte	0x4
 10726 1394 F3       		.byte	0xf3
 10727 1395 01       		.uleb128 0x1
 10728 1396 50       		.byte	0x50
 10729 1397 9F       		.byte	0x9f
 10730 1398 7C000000 		.4byte	.LVL390
 10731 139c 7F000000 		.4byte	.LVL391-1
 10732 13a0 0100     		.2byte	0x1
 10733 13a2 50       		.byte	0x50
 10734 13a3 7F000000 		.4byte	.LVL391-1
 10735 13a7 8C000000 		.4byte	.LVL394
 10736 13ab 0100     		.2byte	0x1
 10737 13ad 54       		.byte	0x54
 10738 13ae 8C000000 		.4byte	.LVL394
 10739 13b2 AA000000 		.4byte	.LVL398
 10740 13b6 0400     		.2byte	0x4
 10741 13b8 F3       		.byte	0xf3
 10742 13b9 01       		.uleb128 0x1
 10743 13ba 50       		.byte	0x50
 10744 13bb 9F       		.byte	0x9f
 10745 13bc AA000000 		.4byte	.LVL398
 10746 13c0 BA000000 		.4byte	.LVL402
 10747 13c4 0100     		.2byte	0x1
 10748 13c6 54       		.byte	0x54
 10749 13c7 BA000000 		.4byte	.LVL402
 10750 13cb D8000000 		.4byte	.LVL406
 10751 13cf 0400     		.2byte	0x4
 10752 13d1 F3       		.byte	0xf3
 10753 13d2 01       		.uleb128 0x1
 10754 13d3 50       		.byte	0x50
 10755 13d4 9F       		.byte	0x9f
 10756 13d5 D8000000 		.4byte	.LVL406
 10757 13d9 F8000000 		.4byte	.LVL411
 10758 13dd 0100     		.2byte	0x1
ARM GAS  C:\Users\Phuong\AppData\Local\Temp\ccGVgD3r.s 			page 209


 10759 13df 54       		.byte	0x54
 10760 13e0 F8000000 		.4byte	.LVL411
 10761 13e4 14010000 		.4byte	.LVL415
 10762 13e8 0400     		.2byte	0x4
 10763 13ea F3       		.byte	0xf3
 10764 13eb 01       		.uleb128 0x1
 10765 13ec 50       		.byte	0x50
 10766 13ed 9F       		.byte	0x9f
 10767 13ee 14010000 		.4byte	.LVL415
 10768 13f2 26010000 		.4byte	.LVL419
 10769 13f6 0100     		.2byte	0x1
 10770 13f8 54       		.byte	0x54
 10771 13f9 26010000 		.4byte	.LVL419
 10772 13fd 42010000 		.4byte	.LVL423
 10773 1401 0400     		.2byte	0x4
 10774 1403 F3       		.byte	0xf3
 10775 1404 01       		.uleb128 0x1
 10776 1405 50       		.byte	0x50
 10777 1406 9F       		.byte	0x9f
 10778 1407 42010000 		.4byte	.LVL423
 10779 140b 66010000 		.4byte	.LVL430
 10780 140f 0100     		.2byte	0x1
 10781 1411 54       		.byte	0x54
 10782 1412 66010000 		.4byte	.LVL430
 10783 1416 80010000 		.4byte	.LVL434
 10784 141a 0400     		.2byte	0x4
 10785 141c F3       		.byte	0xf3
 10786 141d 01       		.uleb128 0x1
 10787 141e 50       		.byte	0x50
 10788 141f 9F       		.byte	0x9f
 10789 1420 80010000 		.4byte	.LVL434
 10790 1424 AE010000 		.4byte	.LVL440
 10791 1428 0100     		.2byte	0x1
 10792 142a 54       		.byte	0x54
 10793 142b AE010000 		.4byte	.LVL440
 10794 142f CA010000 		.4byte	.LVL444
 10795 1433 0400     		.2byte	0x4
 10796 1435 F3       		.byte	0xf3
 10797 1436 01       		.uleb128 0x1
 10798 1437 50       		.byte	0x50
 10799 1438 9F       		.byte	0x9f
 10800 1439 CA010000 		.4byte	.LVL444
 10801 143d CC010000 		.4byte	.LVL445
 10802 1441 0100     		.2byte	0x1
 10803 1443 54       		.byte	0x54
 10804 1444 CC010000 		.4byte	.LVL445
 10805 1448 DE010000 		.4byte	.LVL449
 10806 144c 0400     		.2byte	0x4
 10807 144e F3       		.byte	0xf3
 10808 144f 01       		.uleb128 0x1
 10809 1450 50       		.byte	0x50
 10810 1451 9F       		.byte	0x9f
 10811 1452 DE010000 		.4byte	.LVL449
 10812 1456 E0010000 		.4byte	.LVL450
 10813 145a 0100     		.2byte	0x1
 10814 145c 54       		.byte	0x54
 10815 145d E0010000 		.4byte	.LVL450
ARM GAS  C:\Users\Phuong\AppData\Local\Temp\ccGVgD3r.s 			page 210


 10816 1461 F8010000 		.4byte	.LVL457
 10817 1465 0400     		.2byte	0x4
 10818 1467 F3       		.byte	0xf3
 10819 1468 01       		.uleb128 0x1
 10820 1469 50       		.byte	0x50
 10821 146a 9F       		.byte	0x9f
 10822 146b F8010000 		.4byte	.LVL457
 10823 146f FA010000 		.4byte	.LVL458
 10824 1473 0100     		.2byte	0x1
 10825 1475 54       		.byte	0x54
 10826 1476 FA010000 		.4byte	.LVL458
 10827 147a 70020000 		.4byte	.LFE10
 10828 147e 0400     		.2byte	0x4
 10829 1480 F3       		.byte	0xf3
 10830 1481 01       		.uleb128 0x1
 10831 1482 50       		.byte	0x50
 10832 1483 9F       		.byte	0x9f
 10833 1484 00000000 		.4byte	0
 10834 1488 00000000 		.4byte	0
 10835              	.LLST83:
 10836 148c 00000000 		.4byte	.LVL377
 10837 1490 25000000 		.4byte	.LVL378-1
 10838 1494 0100     		.2byte	0x1
 10839 1496 51       		.byte	0x51
 10840 1497 25000000 		.4byte	.LVL378-1
 10841 149b 4E000000 		.4byte	.LVL383
 10842 149f 0100     		.2byte	0x1
 10843 14a1 55       		.byte	0x55
 10844 14a2 4E000000 		.4byte	.LVL383
 10845 14a6 5B000000 		.4byte	.LVL385-1
 10846 14aa 0100     		.2byte	0x1
 10847 14ac 51       		.byte	0x51
 10848 14ad 5B000000 		.4byte	.LVL385-1
 10849 14b1 7C000000 		.4byte	.LVL390
 10850 14b5 0100     		.2byte	0x1
 10851 14b7 55       		.byte	0x55
 10852 14b8 7C000000 		.4byte	.LVL390
 10853 14bc 7F000000 		.4byte	.LVL391-1
 10854 14c0 0100     		.2byte	0x1
 10855 14c2 51       		.byte	0x51
 10856 14c3 7F000000 		.4byte	.LVL391-1
 10857 14c7 08020000 		.4byte	.LVL463
 10858 14cb 0100     		.2byte	0x1
 10859 14cd 55       		.byte	0x55
 10860 14ce 08020000 		.4byte	.LVL463
 10861 14d2 70020000 		.4byte	.LFE10
 10862 14d6 0400     		.2byte	0x4
 10863 14d8 F3       		.byte	0xf3
 10864 14d9 01       		.uleb128 0x1
 10865 14da 51       		.byte	0x51
 10866 14db 9F       		.byte	0x9f
 10867 14dc 00000000 		.4byte	0
 10868 14e0 00000000 		.4byte	0
 10869              	.LLST84:
 10870 14e4 00000000 		.4byte	.LVL377
 10871 14e8 25000000 		.4byte	.LVL378-1
 10872 14ec 0100     		.2byte	0x1
ARM GAS  C:\Users\Phuong\AppData\Local\Temp\ccGVgD3r.s 			page 211


 10873 14ee 52       		.byte	0x52
 10874 14ef 25000000 		.4byte	.LVL378-1
 10875 14f3 4E000000 		.4byte	.LVL383
 10876 14f7 0100     		.2byte	0x1
 10877 14f9 56       		.byte	0x56
 10878 14fa 4E000000 		.4byte	.LVL383
 10879 14fe 5B000000 		.4byte	.LVL385-1
 10880 1502 0100     		.2byte	0x1
 10881 1504 52       		.byte	0x52
 10882 1505 5B000000 		.4byte	.LVL385-1
 10883 1509 7C000000 		.4byte	.LVL390
 10884 150d 0100     		.2byte	0x1
 10885 150f 56       		.byte	0x56
 10886 1510 7C000000 		.4byte	.LVL390
 10887 1514 7F000000 		.4byte	.LVL391-1
 10888 1518 0100     		.2byte	0x1
 10889 151a 52       		.byte	0x52
 10890 151b 7F000000 		.4byte	.LVL391-1
 10891 151f 08020000 		.4byte	.LVL464
 10892 1523 0100     		.2byte	0x1
 10893 1525 56       		.byte	0x56
 10894 1526 08020000 		.4byte	.LVL464
 10895 152a 70020000 		.4byte	.LFE10
 10896 152e 0400     		.2byte	0x4
 10897 1530 F3       		.byte	0xf3
 10898 1531 01       		.uleb128 0x1
 10899 1532 52       		.byte	0x52
 10900 1533 9F       		.byte	0x9f
 10901 1534 00000000 		.4byte	0
 10902 1538 00000000 		.4byte	0
 10903              	.LLST85:
 10904 153c 00000000 		.4byte	.LVL377
 10905 1540 25000000 		.4byte	.LVL378-1
 10906 1544 0100     		.2byte	0x1
 10907 1546 53       		.byte	0x53
 10908 1547 25000000 		.4byte	.LVL378-1
 10909 154b 4E000000 		.4byte	.LVL383
 10910 154f 0100     		.2byte	0x1
 10911 1551 57       		.byte	0x57
 10912 1552 4E000000 		.4byte	.LVL383
 10913 1556 50000000 		.4byte	.LVL384
 10914 155a 0100     		.2byte	0x1
 10915 155c 53       		.byte	0x53
 10916 155d 50000000 		.4byte	.LVL384
 10917 1561 08020000 		.4byte	.LVL465
 10918 1565 0100     		.2byte	0x1
 10919 1567 57       		.byte	0x57
 10920 1568 08020000 		.4byte	.LVL465
 10921 156c 70020000 		.4byte	.LFE10
 10922 1570 0400     		.2byte	0x4
 10923 1572 F3       		.byte	0xf3
 10924 1573 01       		.uleb128 0x1
 10925 1574 53       		.byte	0x53
 10926 1575 9F       		.byte	0x9f
 10927 1576 00000000 		.4byte	0
 10928 157a 00000000 		.4byte	0
 10929              	.LLST86:
ARM GAS  C:\Users\Phuong\AppData\Local\Temp\ccGVgD3r.s 			page 212


 10930 157e E6010000 		.4byte	.LVL452
 10931 1582 EE010000 		.4byte	.LVL454
 10932 1586 0100     		.2byte	0x1
 10933 1588 54       		.byte	0x54
 10934 1589 F0010000 		.4byte	.LVL455
 10935 158d F8010000 		.4byte	.LVL457
 10936 1591 0100     		.2byte	0x1
 10937 1593 54       		.byte	0x54
 10938 1594 04020000 		.4byte	.LVL461
 10939 1598 08020000 		.4byte	.LVL462
 10940 159c 0100     		.2byte	0x1
 10941 159e 54       		.byte	0x54
 10942 159f 08020000 		.4byte	.LVL462
 10943 15a3 70020000 		.4byte	.LFE10
 10944 15a7 0100     		.2byte	0x1
 10945 15a9 50       		.byte	0x50
 10946 15aa 00000000 		.4byte	0
 10947 15ae 00000000 		.4byte	0
 10948              	.LLST87:
 10949 15b2 28000000 		.4byte	.LVL379
 10950 15b6 48000000 		.4byte	.LVL380
 10951 15ba 0100     		.2byte	0x1
 10952 15bc 50       		.byte	0x50
 10953 15bd 48000000 		.4byte	.LVL380
 10954 15c1 4E000000 		.4byte	.LVL383
 10955 15c5 0100     		.2byte	0x1
 10956 15c7 58       		.byte	0x58
 10957 15c8 F8010000 		.4byte	.LVL457
 10958 15cc FC010000 		.4byte	.LVL459
 10959 15d0 0100     		.2byte	0x1
 10960 15d2 50       		.byte	0x50
 10961 15d3 00000000 		.4byte	0
 10962 15d7 00000000 		.4byte	0
 10963              	.LLST88:
 10964 15db 5E000000 		.4byte	.LVL386
 10965 15df 76000000 		.4byte	.LVL387
 10966 15e3 0100     		.2byte	0x1
 10967 15e5 50       		.byte	0x50
 10968 15e6 76000000 		.4byte	.LVL387
 10969 15ea 7A000000 		.4byte	.LVL389
 10970 15ee 0100     		.2byte	0x1
 10971 15f0 54       		.byte	0x54
 10972 15f1 FC010000 		.4byte	.LVL459
 10973 15f5 00020000 		.4byte	.LVL460
 10974 15f9 0100     		.2byte	0x1
 10975 15fb 50       		.byte	0x50
 10976 15fc 00000000 		.4byte	0
 10977 1600 00000000 		.4byte	0
 10978              	.LLST89:
 10979 1604 82000000 		.4byte	.LVL392
 10980 1608 89000000 		.4byte	.LVL393-1
 10981 160c 0100     		.2byte	0x1
 10982 160e 50       		.byte	0x50
 10983 160f 89000000 		.4byte	.LVL393-1
 10984 1613 AA000000 		.4byte	.LVL398
 10985 1617 0200     		.2byte	0x2
 10986 1619 91       		.byte	0x91
ARM GAS  C:\Users\Phuong\AppData\Local\Temp\ccGVgD3r.s 			page 213


 10987 161a 5C       		.sleb128 -36
 10988 161b AA000000 		.4byte	.LVL398
 10989 161f AD000000 		.4byte	.LVL399-1
 10990 1623 0100     		.2byte	0x1
 10991 1625 50       		.byte	0x50
 10992 1626 AD000000 		.4byte	.LVL399-1
 10993 162a F8010000 		.4byte	.LVL457
 10994 162e 0200     		.2byte	0x2
 10995 1630 91       		.byte	0x91
 10996 1631 5C       		.sleb128 -36
 10997 1632 00020000 		.4byte	.LVL460
 10998 1636 04020000 		.4byte	.LVL461
 10999 163a 0200     		.2byte	0x2
 11000 163c 91       		.byte	0x91
 11001 163d 5C       		.sleb128 -36
 11002 163e 00000000 		.4byte	0
 11003 1642 00000000 		.4byte	0
 11004              	.LLST90:
 11005 1646 8C000000 		.4byte	.LVL394
 11006 164a A2000000 		.4byte	.LVL395
 11007 164e 0100     		.2byte	0x1
 11008 1650 50       		.byte	0x50
 11009 1651 A2000000 		.4byte	.LVL395
 11010 1655 A6000000 		.4byte	.LVL397
 11011 1659 0100     		.2byte	0x1
 11012 165b 54       		.byte	0x54
 11013 165c 00020000 		.4byte	.LVL460
 11014 1660 04020000 		.4byte	.LVL461
 11015 1664 0100     		.2byte	0x1
 11016 1666 50       		.byte	0x50
 11017 1667 00000000 		.4byte	0
 11018 166b 00000000 		.4byte	0
 11019              	.LLST91:
 11020 166f B0000000 		.4byte	.LVL400
 11021 1673 B7000000 		.4byte	.LVL401-1
 11022 1677 0100     		.2byte	0x1
 11023 1679 50       		.byte	0x50
 11024 167a B7000000 		.4byte	.LVL401-1
 11025 167e D8000000 		.4byte	.LVL406
 11026 1682 0200     		.2byte	0x2
 11027 1684 91       		.byte	0x91
 11028 1685 58       		.sleb128 -40
 11029 1686 D8000000 		.4byte	.LVL406
 11030 168a DE000000 		.4byte	.LVL407
 11031 168e 0100     		.2byte	0x1
 11032 1690 50       		.byte	0x50
 11033 1691 DE000000 		.4byte	.LVL407
 11034 1695 F8010000 		.4byte	.LVL457
 11035 1699 0200     		.2byte	0x2
 11036 169b 91       		.byte	0x91
 11037 169c 58       		.sleb128 -40
 11038 169d 00000000 		.4byte	0
 11039 16a1 00000000 		.4byte	0
 11040              	.LLST92:
 11041 16a5 BA000000 		.4byte	.LVL402
 11042 16a9 D2000000 		.4byte	.LVL403
 11043 16ad 0100     		.2byte	0x1
ARM GAS  C:\Users\Phuong\AppData\Local\Temp\ccGVgD3r.s 			page 214


 11044 16af 50       		.byte	0x50
 11045 16b0 D2000000 		.4byte	.LVL403
 11046 16b4 D6000000 		.4byte	.LVL405
 11047 16b8 0100     		.2byte	0x1
 11048 16ba 54       		.byte	0x54
 11049 16bb EE010000 		.4byte	.LVL454
 11050 16bf F0010000 		.4byte	.LVL455
 11051 16c3 0100     		.2byte	0x1
 11052 16c5 50       		.byte	0x50
 11053 16c6 00000000 		.4byte	0
 11054 16ca 00000000 		.4byte	0
 11055              	.LLST93:
 11056 16ce F8000000 		.4byte	.LVL411
 11057 16d2 0C010000 		.4byte	.LVL412
 11058 16d6 0100     		.2byte	0x1
 11059 16d8 50       		.byte	0x50
 11060 16d9 0C010000 		.4byte	.LVL412
 11061 16dd 10010000 		.4byte	.LVL414
 11062 16e1 0100     		.2byte	0x1
 11063 16e3 54       		.byte	0x54
 11064 16e4 CE010000 		.4byte	.LVL446
 11065 16e8 D4010000 		.4byte	.LVL447
 11066 16ec 0100     		.2byte	0x1
 11067 16ee 50       		.byte	0x50
 11068 16ef 00000000 		.4byte	0
 11069 16f3 00000000 		.4byte	0
 11070              	.LLST94:
 11071 16f7 1C010000 		.4byte	.LVL417
 11072 16fb 23010000 		.4byte	.LVL418-1
 11073 16ff 0100     		.2byte	0x1
 11074 1701 50       		.byte	0x50
 11075 1702 23010000 		.4byte	.LVL418-1
 11076 1706 42010000 		.4byte	.LVL423
 11077 170a 0100     		.2byte	0x1
 11078 170c 58       		.byte	0x58
 11079 170d 42010000 		.4byte	.LVL423
 11080 1711 50010000 		.4byte	.LVL424
 11081 1715 0100     		.2byte	0x1
 11082 1717 50       		.byte	0x50
 11083 1718 50010000 		.4byte	.LVL424
 11084 171c CA010000 		.4byte	.LVL444
 11085 1720 0100     		.2byte	0x1
 11086 1722 58       		.byte	0x58
 11087 1723 D4010000 		.4byte	.LVL447
 11088 1727 E6010000 		.4byte	.LVL452
 11089 172b 0100     		.2byte	0x1
 11090 172d 58       		.byte	0x58
 11091 172e 00000000 		.4byte	0
 11092 1732 00000000 		.4byte	0
 11093              	.LLST95:
 11094 1736 26010000 		.4byte	.LVL419
 11095 173a 3A010000 		.4byte	.LVL420
 11096 173e 0100     		.2byte	0x1
 11097 1740 50       		.byte	0x50
 11098 1741 3A010000 		.4byte	.LVL420
 11099 1745 3E010000 		.4byte	.LVL422
 11100 1749 0100     		.2byte	0x1
ARM GAS  C:\Users\Phuong\AppData\Local\Temp\ccGVgD3r.s 			page 215


 11101 174b 54       		.byte	0x54
 11102 174c D4010000 		.4byte	.LVL447
 11103 1750 DA010000 		.4byte	.LVL448
 11104 1754 0100     		.2byte	0x1
 11105 1756 50       		.byte	0x50
 11106 1757 00000000 		.4byte	0
 11107 175b 00000000 		.4byte	0
 11108              	.LLST96:
 11109 175f 56010000 		.4byte	.LVL426
 11110 1763 5C010000 		.4byte	.LVL427
 11111 1767 0100     		.2byte	0x1
 11112 1769 50       		.byte	0x50
 11113 176a 5C010000 		.4byte	.LVL427
 11114 176e 80010000 		.4byte	.LVL434
 11115 1772 0100     		.2byte	0x1
 11116 1774 59       		.byte	0x59
 11117 1775 80010000 		.4byte	.LVL434
 11118 1779 92010000 		.4byte	.LVL435
 11119 177d 0100     		.2byte	0x1
 11120 177f 50       		.byte	0x50
 11121 1780 92010000 		.4byte	.LVL435
 11122 1784 CA010000 		.4byte	.LVL444
 11123 1788 0100     		.2byte	0x1
 11124 178a 59       		.byte	0x59
 11125 178b DA010000 		.4byte	.LVL448
 11126 178f E6010000 		.4byte	.LVL452
 11127 1793 0100     		.2byte	0x1
 11128 1795 59       		.byte	0x59
 11129 1796 00000000 		.4byte	0
 11130 179a 00000000 		.4byte	0
 11131              	.LLST97:
 11132 179e 66010000 		.4byte	.LVL430
 11133 17a2 7A010000 		.4byte	.LVL431
 11134 17a6 0100     		.2byte	0x1
 11135 17a8 50       		.byte	0x50
 11136 17a9 7A010000 		.4byte	.LVL431
 11137 17ad 7E010000 		.4byte	.LVL433
 11138 17b1 0100     		.2byte	0x1
 11139 17b3 54       		.byte	0x54
 11140 17b4 DA010000 		.4byte	.LVL448
 11141 17b8 DE010000 		.4byte	.LVL449
 11142 17bc 0100     		.2byte	0x1
 11143 17be 50       		.byte	0x50
 11144 17bf 00000000 		.4byte	0
 11145 17c3 00000000 		.4byte	0
 11146              	.LLST98:
 11147 17c7 AE010000 		.4byte	.LVL440
 11148 17cb C2010000 		.4byte	.LVL441
 11149 17cf 0100     		.2byte	0x1
 11150 17d1 50       		.byte	0x50
 11151 17d2 C2010000 		.4byte	.LVL441
 11152 17d6 C6010000 		.4byte	.LVL443
 11153 17da 0100     		.2byte	0x1
 11154 17dc 54       		.byte	0x54
 11155 17dd E2010000 		.4byte	.LVL451
 11156 17e1 E6010000 		.4byte	.LVL452
 11157 17e5 0100     		.2byte	0x1
ARM GAS  C:\Users\Phuong\AppData\Local\Temp\ccGVgD3r.s 			page 216


 11158 17e7 50       		.byte	0x50
 11159 17e8 00000000 		.4byte	0
 11160 17ec 00000000 		.4byte	0
 11161              	.LLST99:
 11162 17f0 00000000 		.4byte	.LVL466
 11163 17f4 0B000000 		.4byte	.LVL467-1
 11164 17f8 0100     		.2byte	0x1
 11165 17fa 50       		.byte	0x50
 11166 17fb 0B000000 		.4byte	.LVL467-1
 11167 17ff 2A000000 		.4byte	.LVL471
 11168 1803 0400     		.2byte	0x4
 11169 1805 F3       		.byte	0xf3
 11170 1806 01       		.uleb128 0x1
 11171 1807 50       		.byte	0x50
 11172 1808 9F       		.byte	0x9f
 11173 1809 2A000000 		.4byte	.LVL471
 11174 180d 2C000000 		.4byte	.LVL472
 11175 1811 0100     		.2byte	0x1
 11176 1813 50       		.byte	0x50
 11177 1814 2C000000 		.4byte	.LVL472
 11178 1818 4C000000 		.4byte	.LFE11
 11179 181c 0400     		.2byte	0x4
 11180 181e F3       		.byte	0xf3
 11181 181f 01       		.uleb128 0x1
 11182 1820 50       		.byte	0x50
 11183 1821 9F       		.byte	0x9f
 11184 1822 00000000 		.4byte	0
 11185 1826 00000000 		.4byte	0
 11186              	.LLST100:
 11187 182a 00000000 		.4byte	.LVL466
 11188 182e 0B000000 		.4byte	.LVL467-1
 11189 1832 0100     		.2byte	0x1
 11190 1834 51       		.byte	0x51
 11191 1835 0B000000 		.4byte	.LVL467-1
 11192 1839 2A000000 		.4byte	.LVL471
 11193 183d 0400     		.2byte	0x4
 11194 183f F3       		.byte	0xf3
 11195 1840 01       		.uleb128 0x1
 11196 1841 51       		.byte	0x51
 11197 1842 9F       		.byte	0x9f
 11198 1843 2A000000 		.4byte	.LVL471
 11199 1847 2F000000 		.4byte	.LVL473-1
 11200 184b 0100     		.2byte	0x1
 11201 184d 51       		.byte	0x51
 11202 184e 2F000000 		.4byte	.LVL473-1
 11203 1852 4C000000 		.4byte	.LFE11
 11204 1856 0400     		.2byte	0x4
 11205 1858 F3       		.byte	0xf3
 11206 1859 01       		.uleb128 0x1
 11207 185a 51       		.byte	0x51
 11208 185b 9F       		.byte	0x9f
 11209 185c 00000000 		.4byte	0
 11210 1860 00000000 		.4byte	0
 11211              	.LLST101:
 11212 1864 30000000 		.4byte	.LVL473
 11213 1868 34000000 		.4byte	.LVL474
 11214 186c 0200     		.2byte	0x2
ARM GAS  C:\Users\Phuong\AppData\Local\Temp\ccGVgD3r.s 			page 217


 11215 186e 30       		.byte	0x30
 11216 186f 9F       		.byte	0x9f
 11217 1870 36000000 		.4byte	.LVL475
 11218 1874 4C000000 		.4byte	.LFE11
 11219 1878 0100     		.2byte	0x1
 11220 187a 50       		.byte	0x50
 11221 187b 00000000 		.4byte	0
 11222 187f 00000000 		.4byte	0
 11223              	.LLST102:
 11224 1883 0E000000 		.4byte	.LVL468
 11225 1887 24000000 		.4byte	.LVL469
 11226 188b 0100     		.2byte	0x1
 11227 188d 50       		.byte	0x50
 11228 188e 24000000 		.4byte	.LVL469
 11229 1892 2A000000 		.4byte	.LVL471
 11230 1896 0100     		.2byte	0x1
 11231 1898 54       		.byte	0x54
 11232 1899 34000000 		.4byte	.LVL474
 11233 189d 36000000 		.4byte	.LVL475
 11234 18a1 0100     		.2byte	0x1
 11235 18a3 50       		.byte	0x50
 11236 18a4 00000000 		.4byte	0
 11237 18a8 00000000 		.4byte	0
 11238              		.section	.debug_aranges,"",%progbits
 11239 0000 6C000000 		.4byte	0x6c
 11240 0004 0200     		.2byte	0x2
 11241 0006 00000000 		.4byte	.Ldebug_info0
 11242 000a 04       		.byte	0x4
 11243 000b 00       		.byte	0
 11244 000c 0000     		.2byte	0
 11245 000e 0000     		.2byte	0
 11246 0010 00000000 		.4byte	.LFB3
 11247 0014 A0000000 		.4byte	.LFE3-.LFB3
 11248 0018 00000000 		.4byte	.LFB2
 11249 001c A0010000 		.4byte	.LFE2-.LFB2
 11250 0020 00000000 		.4byte	.LFB4
 11251 0024 C0000000 		.4byte	.LFE4-.LFB4
 11252 0028 00000000 		.4byte	.LFB1
 11253 002c C0000000 		.4byte	.LFE1-.LFB1
 11254 0030 00000000 		.4byte	.LFB5
 11255 0034 54010000 		.4byte	.LFE5-.LFB5
 11256 0038 00000000 		.4byte	.LFB6
 11257 003c A8000000 		.4byte	.LFE6-.LFB6
 11258 0040 00000000 		.4byte	.LFB7
 11259 0044 30010000 		.4byte	.LFE7-.LFB7
 11260 0048 00000000 		.4byte	.LFB8
 11261 004c C4000000 		.4byte	.LFE8-.LFB8
 11262 0050 00000000 		.4byte	.LFB9
 11263 0054 F4020000 		.4byte	.LFE9-.LFB9
 11264 0058 00000000 		.4byte	.LFB10
 11265 005c 70020000 		.4byte	.LFE10-.LFB10
 11266 0060 00000000 		.4byte	.LFB11
 11267 0064 4C000000 		.4byte	.LFE11-.LFB11
 11268 0068 00000000 		.4byte	0
 11269 006c 00000000 		.4byte	0
 11270              		.section	.debug_ranges,"",%progbits
 11271              	.Ldebug_ranges0:
ARM GAS  C:\Users\Phuong\AppData\Local\Temp\ccGVgD3r.s 			page 218


 11272 0000 8C000000 		.4byte	.LBB44
 11273 0004 72020000 		.4byte	.LBE44
 11274 0008 7E020000 		.4byte	.LBB59
 11275 000c 82020000 		.4byte	.LBE59
 11276 0010 00000000 		.4byte	0
 11277 0014 00000000 		.4byte	0
 11278 0018 80010000 		.4byte	.LBB52
 11279 001c 34020000 		.4byte	.LBE52
 11280 0020 40020000 		.4byte	.LBB58
 11281 0024 50020000 		.4byte	.LBE58
 11282 0028 00000000 		.4byte	0
 11283 002c 00000000 		.4byte	0
 11284 0030 AE010000 		.4byte	.LBB54
 11285 0034 34020000 		.4byte	.LBE54
 11286 0038 46020000 		.4byte	.LBB57
 11287 003c 50020000 		.4byte	.LBE57
 11288 0040 00000000 		.4byte	0
 11289 0044 00000000 		.4byte	0
 11290 0048 7C000000 		.4byte	.LBB62
 11291 004c F8010000 		.4byte	.LBE62
 11292 0050 00020000 		.4byte	.LBB74
 11293 0054 04020000 		.4byte	.LBE74
 11294 0058 00000000 		.4byte	0
 11295 005c 00000000 		.4byte	0
 11296 0060 14010000 		.4byte	.LBB67
 11297 0064 CA010000 		.4byte	.LBE67
 11298 0068 D4010000 		.4byte	.LBB73
 11299 006c E6010000 		.4byte	.LBE73
 11300 0070 00000000 		.4byte	0
 11301 0074 00000000 		.4byte	0
 11302 0078 42010000 		.4byte	.LBB69
 11303 007c CA010000 		.4byte	.LBE69
 11304 0080 DA010000 		.4byte	.LBB72
 11305 0084 E6010000 		.4byte	.LBE72
 11306 0088 00000000 		.4byte	0
 11307 008c 00000000 		.4byte	0
 11308 0090 00000000 		.4byte	.LFB3
 11309 0094 A0000000 		.4byte	.LFE3
 11310 0098 00000000 		.4byte	.LFB2
 11311 009c A0010000 		.4byte	.LFE2
 11312 00a0 00000000 		.4byte	.LFB4
 11313 00a4 C0000000 		.4byte	.LFE4
 11314 00a8 00000000 		.4byte	.LFB1
 11315 00ac C0000000 		.4byte	.LFE1
 11316 00b0 00000000 		.4byte	.LFB5
 11317 00b4 54010000 		.4byte	.LFE5
 11318 00b8 00000000 		.4byte	.LFB6
 11319 00bc A8000000 		.4byte	.LFE6
 11320 00c0 00000000 		.4byte	.LFB7
 11321 00c4 30010000 		.4byte	.LFE7
 11322 00c8 00000000 		.4byte	.LFB8
 11323 00cc C4000000 		.4byte	.LFE8
 11324 00d0 00000000 		.4byte	.LFB9
 11325 00d4 F4020000 		.4byte	.LFE9
 11326 00d8 00000000 		.4byte	.LFB10
 11327 00dc 70020000 		.4byte	.LFE10
 11328 00e0 00000000 		.4byte	.LFB11
ARM GAS  C:\Users\Phuong\AppData\Local\Temp\ccGVgD3r.s 			page 219


 11329 00e4 4C000000 		.4byte	.LFE11
 11330 00e8 00000000 		.4byte	0
 11331 00ec 00000000 		.4byte	0
 11332              		.section	.debug_line,"",%progbits
 11333              	.Ldebug_line0:
 11334 0000 61060000 		.section	.debug_str,"MS",%progbits,1
 11334      02008501 
 11334      00000201 
 11334      FB0E0D00 
 11334      01010101 
 11335              	.LASF32:
 11336 0000 4342535F 		.ascii	"CBS_OPERATION_RESULT\000"
 11336      4F504552 
 11336      4154494F 
 11336      4E5F5245 
 11336      53554C54 
 11337              	.LASF130:
 11338 0015 616D7170 		.ascii	"amqp_management_execute_operation_async\000"
 11338      5F6D616E 
 11338      6167656D 
 11338      656E745F 
 11338      65786563 
 11339              	.LASF54:
 11340 003d 414D5150 		.ascii	"AMQP_MANAGEMENT_EXECUTE_OPERATION_FAILED_BAD_STATUS"
 11340      5F4D414E 
 11340      4147454D 
 11340      454E545F 
 11340      45584543 
 11341 0070 00       		.ascii	"\000"
 11342              	.LASF102:
 11343 0071 6F6E5F63 		.ascii	"on_cbs_put_token_complete\000"
 11343      62735F70 
 11343      75745F74 
 11343      6F6B656E 
 11343      5F636F6D 
 11344              	.LASF24:
 11345 008b 53455353 		.ascii	"SESSION_HANDLE\000"
 11345      494F4E5F 
 11345      48414E44 
 11345      4C4500
 11346              	.LASF92:
 11347 009a 73657373 		.ascii	"session\000"
 11347      696F6E00 
 11348              	.LASF71:
 11349 00a2 4342535F 		.ascii	"CBS_OPERATION_TAG\000"
 11349      4F504552 
 11349      4154494F 
 11349      4E5F5441 
 11349      4700
 11350              	.LASF13:
 11351 00b4 4C495354 		.ascii	"LIST_ITEM_HANDLE\000"
 11351      5F495445 
 11351      4D5F4841 
 11351      4E444C45 
 11351      00
 11352              	.LASF85:
 11353 00c5 6D657373 		.ascii	"message\000"
ARM GAS  C:\Users\Phuong\AppData\Local\Temp\ccGVgD3r.s 			page 220


 11353      61676500 
 11354              	.LASF91:
 11355 00cd 76616C75 		.ascii	"value_value\000"
 11355      655F7661 
 11355      6C756500 
 11356              	.LASF0:
 11357 00d9 756E7369 		.ascii	"unsigned int\000"
 11357      676E6564 
 11357      20696E74 
 11357      00
 11358              	.LASF51:
 11359 00e6 414D5150 		.ascii	"AMQP_MANAGEMENT_EXECUTE_OPERATION_RESULT_TAG\000"
 11359      5F4D414E 
 11359      4147454D 
 11359      454E545F 
 11359      45584543 
 11360              	.LASF87:
 11361 0113 6362735F 		.ascii	"cbs_operation_result\000"
 11361      6F706572 
 11361      6174696F 
 11361      6E5F7265 
 11361      73756C74 
 11362              	.LASF105:
 11363 0128 6170706C 		.ascii	"application_properties\000"
 11363      69636174 
 11363      696F6E5F 
 11363      70726F70 
 11363      65727469 
 11364              	.LASF44:
 11365 013f 6F6E5F63 		.ascii	"on_cbs_error_context\000"
 11365      62735F65 
 11365      72726F72 
 11365      5F636F6E 
 11365      74657874 
 11366              	.LASF36:
 11367 0154 4342535F 		.ascii	"CBS_OPEN_CANCELLED\000"
 11367      4F50454E 
 11367      5F43414E 
 11367      43454C4C 
 11367      454400
 11368              	.LASF57:
 11369 0167 414D5150 		.ascii	"AMQP_MANAGEMENT_OPEN_RESULT_TAG\000"
 11369      5F4D414E 
 11369      4147454D 
 11369      454E545F 
 11369      4F50454E 
 11370              	.LASF39:
 11371 0187 616D7170 		.ascii	"amqp_management\000"
 11371      5F6D616E 
 11371      6167656D 
 11371      656E7400 
 11372              	.LASF109:
 11373 0197 6F6E5F63 		.ascii	"on_cbs_delete_token_complete_context\000"
 11373      62735F64 
 11373      656C6574 
 11373      655F746F 
 11373      6B656E5F 
ARM GAS  C:\Users\Phuong\AppData\Local\Temp\ccGVgD3r.s 			page 221


 11374              	.LASF97:
 11375 01bc 6362735F 		.ascii	"cbs_close\000"
 11375      636C6F73 
 11375      6500
 11376              	.LASF73:
 11377 01c6 6F6E5F63 		.ascii	"on_cbs_operation_complete_context\000"
 11377      62735F6F 
 11377      70657261 
 11377      74696F6E 
 11377      5F636F6D 
 11378              	.LASF111:
 11379 01e8 74726163 		.ascii	"trace_on\000"
 11379      655F6F6E 
 11379      00
 11380              	.LASF38:
 11381 01f1 4342535F 		.ascii	"CBS_HANDLE\000"
 11381      48414E44 
 11381      4C4500
 11382              	.LASF123:
 11383 01fc 616D7170 		.ascii	"amqp_management_set_override_status_code_key_name\000"
 11383      5F6D616E 
 11383      6167656D 
 11383      656E745F 
 11383      7365745F 
 11384              	.LASF129:
 11385 022e 73696E67 		.ascii	"singlylinkedlist_add\000"
 11385      6C796C69 
 11385      6E6B6564 
 11385      6C697374 
 11385      5F616464 
 11386              	.LASF112:
 11387 0243 786C6F67 		.ascii	"xlogging_get_log_function\000"
 11387      67696E67 
 11387      5F676574 
 11387      5F6C6F67 
 11387      5F66756E 
 11388              	.LASF133:
 11389 025d 6D657373 		.ascii	"message_set_body_amqp_value\000"
 11389      6167655F 
 11389      7365745F 
 11389      626F6479 
 11389      5F616D71 
 11390              	.LASF75:
 11391 0279 4342535F 		.ascii	"CBS_INSTANCE\000"
 11391      494E5354 
 11391      414E4345 
 11391      00
 11392              	.LASF141:
 11393 0286 616C6C5F 		.ascii	"all_ok\000"
 11393      6F6B00
 11394              	.LASF117:
 11395 028d 616D7170 		.ascii	"amqpvalue_create_string\000"
 11395      76616C75 
 11395      655F6372 
 11395      65617465 
 11395      5F737472 
 11396              	.LASF137:
ARM GAS  C:\Users\Phuong\AppData\Local\Temp\ccGVgD3r.s 			page 222


 11397 02a5 474E5520 		.ascii	"GNU C11 5.4.1 20160609 (release) [ARM/embedded-5-br"
 11397      43313120 
 11397      352E342E 
 11397      31203230 
 11397      31363036 
 11398 02d8 616E6368 		.ascii	"anch revision 237715] -mcpu=cortex-m0plus -mthumb -"
 11398      20726576 
 11398      6973696F 
 11398      6E203233 
 11398      37373135 
 11399 030b 67202D4F 		.ascii	"g -Og -ffunction-sections -ffat-lto-objects\000"
 11399      67202D66 
 11399      66756E63 
 11399      74696F6E 
 11399      2D736563 
 11400              	.LASF23:
 11401 0337 414D5150 		.ascii	"AMQP_VALUE_DATA_TAG\000"
 11401      5F56414C 
 11401      55455F44 
 11401      4154415F 
 11401      54414700 
 11402              	.LASF120:
 11403 034b 6D616C6C 		.ascii	"malloc\000"
 11403      6F6300
 11404              	.LASF48:
 11405 0352 4F4E5F43 		.ascii	"ON_CBS_OPERATION_COMPLETE\000"
 11405      42535F4F 
 11405      50455241 
 11405      54494F4E 
 11405      5F434F4D 
 11406              	.LASF25:
 11407 036c 53455353 		.ascii	"SESSION_INSTANCE_TAG\000"
 11407      494F4E5F 
 11407      494E5354 
 11407      414E4345 
 11407      5F544147 
 11408              	.LASF89:
 11409 0381 72657375 		.ascii	"result\000"
 11409      6C7400
 11410              	.LASF9:
 11411 0388 6C6F6E67 		.ascii	"long long unsigned int\000"
 11411      206C6F6E 
 11411      6720756E 
 11411      7369676E 
 11411      65642069 
 11412              	.LASF61:
 11413 039f 414D5150 		.ascii	"AMQP_MANAGEMENT_OPEN_RESULT\000"
 11413      5F4D414E 
 11413      4147454D 
 11413      454E545F 
 11413      4F50454E 
 11414              	.LASF113:
 11415 03bb 616D7170 		.ascii	"amqp_management_close\000"
 11415      5F6D616E 
 11415      6167656D 
 11415      656E745F 
 11415      636C6F73 
ARM GAS  C:\Users\Phuong\AppData\Local\Temp\ccGVgD3r.s 			page 223


 11416              	.LASF95:
 11417 03d1 6362735F 		.ascii	"cbs_create\000"
 11417      63726561 
 11417      746500
 11418              	.LASF67:
 11419 03dc 4342535F 		.ascii	"CBS_STATE_OPEN\000"
 11419      53544154 
 11419      455F4F50 
 11419      454E00
 11420              	.LASF88:
 11421 03eb 76616C75 		.ascii	"value\000"
 11421      6500
 11422              	.LASF139:
 11423 03f1 433A5C55 		.ascii	"C:\\Users\\Phuong\\Documents\\PSoC Creator\\Dec0820"
 11423      73657273 
 11423      5C506875 
 11423      6F6E675C 
 11423      446F6375 
 11424 041f 31385C69 		.ascii	"18\\iot-sdk-iot-dev\\PSOC6_FreeRTOS+LwIP+MbedTLS_Az"
 11424      6F742D73 
 11424      646B2D69 
 11424      6F742D64 
 11424      65765C50 
 11425 0450 7572652D 		.ascii	"ure-IOT-Hub-Demo\\PSOC6_FreeRTOS+LwIP+MbedTLS_Azure"
 11425      494F542D 
 11425      4875622D 
 11425      44656D6F 
 11425      5C50534F 
 11426 0482 2D494F54 		.ascii	"-IOT-Hub-Demo.cydsn\000"
 11426      2D487562 
 11426      2D44656D 
 11426      6F2E6379 
 11426      64736E00 
 11427              	.LASF86:
 11428 0496 6362735F 		.ascii	"cbs_operation\000"
 11428      6F706572 
 11428      6174696F 
 11428      6E00
 11429              	.LASF33:
 11430 04a4 4342535F 		.ascii	"CBS_OPEN_COMPLETE_RESULT_TAG\000"
 11430      4F50454E 
 11430      5F434F4D 
 11430      504C4554 
 11430      455F5245 
 11431              	.LASF127:
 11432 04c1 73696E67 		.ascii	"singlylinkedlist_get_head_item\000"
 11432      6C796C69 
 11432      6E6B6564 
 11432      6C697374 
 11432      5F676574 
 11433              	.LASF100:
 11434 04e0 61756469 		.ascii	"audience\000"
 11434      656E6365 
 11434      00
 11435              	.LASF15:
 11436 04e9 4C495354 		.ascii	"LIST_ITEM_INSTANCE_TAG\000"
 11436      5F495445 
ARM GAS  C:\Users\Phuong\AppData\Local\Temp\ccGVgD3r.s 			page 224


 11436      4D5F494E 
 11436      5354414E 
 11436      43455F54 
 11437              	.LASF35:
 11438 0500 4342535F 		.ascii	"CBS_OPEN_ERROR\000"
 11438      4F50454E 
 11438      5F455252 
 11438      4F5200
 11439              	.LASF16:
 11440 050f 5F426F6F 		.ascii	"_Bool\000"
 11440      6C00
 11441              	.LASF116:
 11442 0515 66726565 		.ascii	"free\000"
 11442      00
 11443              	.LASF84:
 11444 051a 73746174 		.ascii	"status_description\000"
 11444      75735F64 
 11444      65736372 
 11444      69707469 
 11444      6F6E00
 11445              	.LASF134:
 11446 052d 6D657373 		.ascii	"message_destroy\000"
 11446      6167655F 
 11446      64657374 
 11446      726F7900 
 11447              	.LASF98:
 11448 053d 6362735F 		.ascii	"cbs_put_token_async\000"
 11448      7075745F 
 11448      746F6B65 
 11448      6E5F6173 
 11448      796E6300 
 11449              	.LASF31:
 11450 0551 4342535F 		.ascii	"CBS_OPERATION_RESULT_INSTANCE_CLOSED\000"
 11450      4F504552 
 11450      4154494F 
 11450      4E5F5245 
 11450      53554C54 
 11451              	.LASF140:
 11452 0576 6164645F 		.ascii	"add_string_key_value_pair_to_map\000"
 11452      73747269 
 11452      6E675F6B 
 11452      65795F76 
 11452      616C7565 
 11453              	.LASF124:
 11454 0597 616D7170 		.ascii	"amqp_management_set_override_status_description_key"
 11454      5F6D616E 
 11454      6167656D 
 11454      656E745F 
 11454      7365745F 
 11455 05ca 5F6E616D 		.ascii	"_name\000"
 11455      6500
 11456              	.LASF82:
 11457 05d0 65786563 		.ascii	"execute_operation_result\000"
 11457      7574655F 
 11457      6F706572 
 11457      6174696F 
 11457      6E5F7265 
ARM GAS  C:\Users\Phuong\AppData\Local\Temp\ccGVgD3r.s 			page 225


 11458              	.LASF11:
 11459 05e9 63686172 		.ascii	"char\000"
 11459      00
 11460              	.LASF14:
 11461 05ee 53494E47 		.ascii	"SINGLYLINKEDLIST_INSTANCE_TAG\000"
 11461      4C594C49 
 11461      4E4B4544 
 11461      4C495354 
 11461      5F494E53 
 11462              	.LASF43:
 11463 060c 6F6E5F63 		.ascii	"on_cbs_error\000"
 11463      62735F65 
 11463      72726F72 
 11463      00
 11464              	.LASF42:
 11465 0619 6F6E5F63 		.ascii	"on_cbs_open_complete_context\000"
 11465      62735F6F 
 11465      70656E5F 
 11465      636F6D70 
 11465      6C657465 
 11466              	.LASF18:
 11467 0636 415A5F4C 		.ascii	"AZ_LOG_INFO\000"
 11467      4F475F49 
 11467      4E464F00 
 11468              	.LASF125:
 11469 0642 616D7170 		.ascii	"amqp_management_destroy\000"
 11469      5F6D616E 
 11469      6167656D 
 11469      656E745F 
 11469      64657374 
 11470              	.LASF52:
 11471 065a 414D5150 		.ascii	"AMQP_MANAGEMENT_EXECUTE_OPERATION_OK\000"
 11471      5F4D414E 
 11471      4147454D 
 11471      454E545F 
 11471      45584543 
 11472              	.LASF1:
 11473 067f 6C6F6E67 		.ascii	"long long int\000"
 11473      206C6F6E 
 11473      6720696E 
 11473      7400
 11474              	.LASF41:
 11475 068d 6F6E5F63 		.ascii	"on_cbs_open_complete\000"
 11475      62735F6F 
 11475      70656E5F 
 11475      636F6D70 
 11475      6C657465 
 11476              	.LASF66:
 11477 06a2 4342535F 		.ascii	"CBS_STATE_OPENING\000"
 11477      53544154 
 11477      455F4F50 
 11477      454E494E 
 11477      4700
 11478              	.LASF78:
 11479 06b4 636F6E74 		.ascii	"context\000"
 11479      65787400 
 11480              	.LASF131:
ARM GAS  C:\Users\Phuong\AppData\Local\Temp\ccGVgD3r.s 			page 226


 11481 06bc 616D7170 		.ascii	"amqpvalue_create_map\000"
 11481      76616C75 
 11481      655F6372 
 11481      65617465 
 11481      5F6D6170 
 11482              	.LASF72:
 11483 06d1 6F6E5F63 		.ascii	"on_cbs_operation_complete\000"
 11483      62735F6F 
 11483      70657261 
 11483      74696F6E 
 11483      5F636F6D 
 11484              	.LASF20:
 11485 06eb 4C4F475F 		.ascii	"LOG_CATEGORY\000"
 11485      43415445 
 11485      474F5259 
 11485      00
 11486              	.LASF110:
 11487 06f8 6362735F 		.ascii	"cbs_set_trace\000"
 11487      7365745F 
 11487      74726163 
 11487      6500
 11488              	.LASF93:
 11489 0706 66697273 		.ascii	"first_pending_operation\000"
 11489      745F7065 
 11489      6E64696E 
 11489      675F6F70 
 11489      65726174 
 11490              	.LASF118:
 11491 071e 616D7170 		.ascii	"amqpvalue_set_map_value\000"
 11491      76616C75 
 11491      655F7365 
 11491      745F6D61 
 11491      705F7661 
 11492              	.LASF107:
 11493 0736 6362735F 		.ascii	"cbs_delete_token_async\000"
 11493      64656C65 
 11493      74655F74 
 11493      6F6B656E 
 11493      5F617379 
 11494              	.LASF53:
 11495 074d 414D5150 		.ascii	"AMQP_MANAGEMENT_EXECUTE_OPERATION_ERROR\000"
 11495      5F4D414E 
 11495      4147454D 
 11495      454E545F 
 11495      45584543 
 11496              	.LASF135:
 11497 0775 6D657373 		.ascii	"message_create\000"
 11497      6167655F 
 11497      63726561 
 11497      746500
 11498              	.LASF45:
 11499 0784 70656E64 		.ascii	"pending_operations\000"
 11499      696E675F 
 11499      6F706572 
 11499      6174696F 
 11499      6E7300
 11500              	.LASF126:
ARM GAS  C:\Users\Phuong\AppData\Local\Temp\ccGVgD3r.s 			page 227


 11501 0797 73696E67 		.ascii	"singlylinkedlist_destroy\000"
 11501      6C796C69 
 11501      6E6B6564 
 11501      6C697374 
 11501      5F646573 
 11502              	.LASF119:
 11503 07b0 616D7170 		.ascii	"amqpvalue_destroy\000"
 11503      76616C75 
 11503      655F6465 
 11503      7374726F 
 11503      7900
 11504              	.LASF81:
 11505 07c2 6F6E5F61 		.ascii	"on_amqp_management_execute_operation_complete\000"
 11505      6D71705F 
 11505      6D616E61 
 11505      67656D65 
 11505      6E745F65 
 11506              	.LASF2:
 11507 07f0 6C6F6E67 		.ascii	"long double\000"
 11507      20646F75 
 11507      626C6500 
 11508              	.LASF101:
 11509 07fc 746F6B65 		.ascii	"token\000"
 11509      6E00
 11510              	.LASF37:
 11511 0802 4342535F 		.ascii	"CBS_OPEN_COMPLETE_RESULT\000"
 11511      4F50454E 
 11511      5F434F4D 
 11511      504C4554 
 11511      455F5245 
 11512              	.LASF17:
 11513 081b 415A5F4C 		.ascii	"AZ_LOG_ERROR\000"
 11513      4F475F45 
 11513      52524F52 
 11513      00
 11514              	.LASF65:
 11515 0828 4342535F 		.ascii	"CBS_STATE_CLOSED\000"
 11515      53544154 
 11515      455F434C 
 11515      4F534544 
 11515      00
 11516              	.LASF22:
 11517 0839 414D5150 		.ascii	"AMQP_VALUE\000"
 11517      5F56414C 
 11517      554500
 11518              	.LASF49:
 11519 0844 4D455353 		.ascii	"MESSAGE_HANDLE\000"
 11519      4147455F 
 11519      48414E44 
 11519      4C4500
 11520              	.LASF132:
 11521 0853 6D657373 		.ascii	"message_set_application_properties\000"
 11521      6167655F 
 11521      7365745F 
 11521      6170706C 
 11521      69636174 
 11522              	.LASF106:
ARM GAS  C:\Users\Phuong\AppData\Local\Temp\ccGVgD3r.s 			page 228


 11523 0876 6C697374 		.ascii	"list_item\000"
 11523      5F697465 
 11523      6D00
 11524              	.LASF5:
 11525 0880 73686F72 		.ascii	"short int\000"
 11525      7420696E 
 11525      7400
 11526              	.LASF7:
 11527 088a 6C6F6E67 		.ascii	"long int\000"
 11527      20696E74 
 11527      00
 11528              	.LASF34:
 11529 0893 4342535F 		.ascii	"CBS_OPEN_OK\000"
 11529      4F50454E 
 11529      5F4F4B00 
 11530              	.LASF27:
 11531 089f 4342535F 		.ascii	"CBS_OPERATION_RESULT_TAG\000"
 11531      4F504552 
 11531      4154494F 
 11531      4E5F5245 
 11531      53554C54 
 11532              	.LASF40:
 11533 08b8 6362735F 		.ascii	"cbs_state\000"
 11533      73746174 
 11533      6500
 11534              	.LASF59:
 11535 08c2 414D5150 		.ascii	"AMQP_MANAGEMENT_OPEN_ERROR\000"
 11535      5F4D414E 
 11535      4147454D 
 11535      454E545F 
 11535      4F50454E 
 11536              	.LASF50:
 11537 08dd 4D455353 		.ascii	"MESSAGE_INSTANCE_TAG\000"
 11537      4147455F 
 11537      494E5354 
 11537      414E4345 
 11537      5F544147 
 11538              	.LASF96:
 11539 08f2 6362735F 		.ascii	"cbs_open_async\000"
 11539      6F70656E 
 11539      5F617379 
 11539      6E6300
 11540              	.LASF28:
 11541 0901 4342535F 		.ascii	"CBS_OPERATION_RESULT_OK\000"
 11541      4F504552 
 11541      4154494F 
 11541      4E5F5245 
 11541      53554C54 
 11542              	.LASF128:
 11543 0919 616D7170 		.ascii	"amqp_management_open_async\000"
 11543      5F6D616E 
 11543      6167656D 
 11543      656E745F 
 11543      6F70656E 
 11544              	.LASF12:
 11545 0934 53494E47 		.ascii	"SINGLYLINKEDLIST_HANDLE\000"
 11545      4C594C49 
ARM GAS  C:\Users\Phuong\AppData\Local\Temp\ccGVgD3r.s 			page 229


 11545      4E4B4544 
 11545      4C495354 
 11545      5F48414E 
 11546              	.LASF138:
 11547 094c 536F7572 		.ascii	"Source\\azure_iot_sdk\\uamqp\\src\\cbs.c\000"
 11547      63655C61 
 11547      7A757265 
 11547      5F696F74 
 11547      5F73646B 
 11548              	.LASF104:
 11549 0971 746F6B65 		.ascii	"token_value\000"
 11549      6E5F7661 
 11549      6C756500 
 11550              	.LASF63:
 11551 097d 414D5150 		.ascii	"AMQP_MANAGEMENT_INSTANCE_TAG\000"
 11551      5F4D414E 
 11551      4147454D 
 11551      454E545F 
 11551      494E5354 
 11552              	.LASF55:
 11553 099a 414D5150 		.ascii	"AMQP_MANAGEMENT_EXECUTE_OPERATION_INSTANCE_CLOSED\000"
 11553      5F4D414E 
 11553      4147454D 
 11553      454E545F 
 11553      45584543 
 11554              	.LASF142:
 11555 09cc 6362735F 		.ascii	"cbs_destroy\000"
 11555      64657374 
 11555      726F7900 
 11556              	.LASF64:
 11557 09d8 4342535F 		.ascii	"CBS_STATE_TAG\000"
 11557      53544154 
 11557      455F5441 
 11557      4700
 11558              	.LASF21:
 11559 09e6 4C4F4747 		.ascii	"LOGGER_LOG\000"
 11559      45525F4C 
 11559      4F4700
 11560              	.LASF79:
 11561 09f1 6F70656E 		.ascii	"open_result\000"
 11561      5F726573 
 11561      756C7400 
 11562              	.LASF10:
 11563 09fd 73697A65 		.ascii	"sizetype\000"
 11563      74797065 
 11563      00
 11564              	.LASF8:
 11565 0a06 6C6F6E67 		.ascii	"long unsigned int\000"
 11565      20756E73 
 11565      69676E65 
 11565      6420696E 
 11565      7400
 11566              	.LASF94:
 11567 0a18 70656E64 		.ascii	"pending_operation\000"
 11567      696E675F 
 11567      6F706572 
 11567      6174696F 
ARM GAS  C:\Users\Phuong\AppData\Local\Temp\ccGVgD3r.s 			page 230


 11567      6E00
 11568              	.LASF76:
 11569 0a2a 6F6E5F75 		.ascii	"on_underlying_amqp_management_error\000"
 11569      6E646572 
 11569      6C79696E 
 11569      675F616D 
 11569      71705F6D 
 11570              	.LASF62:
 11571 0a4e 414D5150 		.ascii	"AMQP_MANAGEMENT_HANDLE\000"
 11571      5F4D414E 
 11571      4147454D 
 11571      454E545F 
 11571      48414E44 
 11572              	.LASF56:
 11573 0a65 414D5150 		.ascii	"AMQP_MANAGEMENT_EXECUTE_OPERATION_RESULT\000"
 11573      5F4D414E 
 11573      4147454D 
 11573      454E545F 
 11573      45584543 
 11574              	.LASF74:
 11575 0a8e 4342535F 		.ascii	"CBS_OPERATION\000"
 11575      4F504552 
 11575      4154494F 
 11575      4E00
 11576              	.LASF122:
 11577 0a9c 616D7170 		.ascii	"amqp_management_create\000"
 11577      5F6D616E 
 11577      6167656D 
 11577      656E745F 
 11577      63726561 
 11578              	.LASF60:
 11579 0ab3 414D5150 		.ascii	"AMQP_MANAGEMENT_OPEN_CANCELLED\000"
 11579      5F4D414E 
 11579      4147454D 
 11579      454E545F 
 11579      4F50454E 
 11580              	.LASF77:
 11581 0ad2 6F6E5F75 		.ascii	"on_underlying_amqp_management_open_complete\000"
 11581      6E646572 
 11581      6C79696E 
 11581      675F616D 
 11581      71705F6D 
 11582              	.LASF99:
 11583 0afe 74797065 		.ascii	"type\000"
 11583      00
 11584              	.LASF90:
 11585 0b03 6B65795F 		.ascii	"key_value\000"
 11585      76616C75 
 11585      6500
 11586              	.LASF4:
 11587 0b0d 756E7369 		.ascii	"unsigned char\000"
 11587      676E6564 
 11587      20636861 
 11587      7200
 11588              	.LASF115:
 11589 0b1b 73696E67 		.ascii	"singlylinkedlist_remove\000"
 11589      6C796C69 
ARM GAS  C:\Users\Phuong\AppData\Local\Temp\ccGVgD3r.s 			page 231


 11589      6E6B6564 
 11589      6C697374 
 11589      5F72656D 
 11590              	.LASF121:
 11591 0b33 73696E67 		.ascii	"singlylinkedlist_create\000"
 11591      6C796C69 
 11591      6E6B6564 
 11591      6C697374 
 11591      5F637265 
 11592              	.LASF26:
 11593 0b4b 4C4F475F 		.ascii	"LOG_CATEGORY_TAG\000"
 11593      43415445 
 11593      474F5259 
 11593      5F544147 
 11593      00
 11594              	.LASF46:
 11595 0b5c 4F4E5F43 		.ascii	"ON_CBS_OPEN_COMPLETE\000"
 11595      42535F4F 
 11595      50454E5F 
 11595      434F4D50 
 11595      4C455445 
 11596              	.LASF103:
 11597 0b71 6F6E5F63 		.ascii	"on_cbs_put_token_complete_context\000"
 11597      62735F70 
 11597      75745F74 
 11597      6F6B656E 
 11597      5F636F6D 
 11598              	.LASF19:
 11599 0b93 415A5F4C 		.ascii	"AZ_LOG_TRACE\000"
 11599      4F475F54 
 11599      52414345 
 11599      00
 11600              	.LASF68:
 11601 0ba0 4342535F 		.ascii	"CBS_STATE_ERROR\000"
 11601      53544154 
 11601      455F4552 
 11601      524F5200 
 11602              	.LASF83:
 11603 0bb0 73746174 		.ascii	"status_code\000"
 11603      75735F63 
 11603      6F646500 
 11604              	.LASF30:
 11605 0bbc 4342535F 		.ascii	"CBS_OPERATION_RESULT_OPERATION_FAILED\000"
 11605      4F504552 
 11605      4154494F 
 11605      4E5F5245 
 11605      53554C54 
 11606              	.LASF114:
 11607 0be2 73696E67 		.ascii	"singlylinkedlist_item_get_value\000"
 11607      6C796C69 
 11607      6E6B6564 
 11607      6C697374 
 11607      5F697465 
 11608              	.LASF3:
 11609 0c02 7369676E 		.ascii	"signed char\000"
 11609      65642063 
 11609      68617200 
ARM GAS  C:\Users\Phuong\AppData\Local\Temp\ccGVgD3r.s 			page 232


 11610              	.LASF136:
 11611 0c0e 616D7170 		.ascii	"amqp_management_set_trace\000"
 11611      5F6D616E 
 11611      6167656D 
 11611      656E745F 
 11611      7365745F 
 11612              	.LASF6:
 11613 0c28 73686F72 		.ascii	"short unsigned int\000"
 11613      7420756E 
 11613      7369676E 
 11613      65642069 
 11613      6E7400
 11614              	.LASF70:
 11615 0c3b 4342535F 		.ascii	"CBS_INSTANCE_TAG\000"
 11615      494E5354 
 11615      414E4345 
 11615      5F544147 
 11615      00
 11616              	.LASF80:
 11617 0c4c 5F5F6675 		.ascii	"__func__\000"
 11617      6E635F5F 
 11617      00
 11618              	.LASF58:
 11619 0c55 414D5150 		.ascii	"AMQP_MANAGEMENT_OPEN_OK\000"
 11619      5F4D414E 
 11619      4147454D 
 11619      454E545F 
 11619      4F50454E 
 11620              	.LASF108:
 11621 0c6d 6F6E5F63 		.ascii	"on_cbs_delete_token_complete\000"
 11621      62735F64 
 11621      656C6574 
 11621      655F746F 
 11621      6B656E5F 
 11622              	.LASF69:
 11623 0c8a 4342535F 		.ascii	"CBS_STATE\000"
 11623      53544154 
 11623      4500
 11624              	.LASF29:
 11625 0c94 4342535F 		.ascii	"CBS_OPERATION_RESULT_CBS_ERROR\000"
 11625      4F504552 
 11625      4154494F 
 11625      4E5F5245 
 11625      53554C54 
 11626              	.LASF47:
 11627 0cb3 4F4E5F43 		.ascii	"ON_CBS_ERROR\000"
 11627      42535F45 
 11627      52524F52 
 11627      00
 11628              		.ident	"GCC: (GNU Tools for ARM Embedded Processors) 5.4.1 20160609 (release) [ARM/embedded-5-bran
