ARM GAS  C:\Users\Phuong\AppData\Local\Temp\ccOlY5Ml.s 			page 1


   1              		.syntax unified
   2              		.cpu cortex-m0plus
   3              		.fpu softvfp
   4              		.eabi_attribute 20, 1
   5              		.eabi_attribute 21, 1
   6              		.eabi_attribute 23, 3
   7              		.eabi_attribute 24, 1
   8              		.eabi_attribute 25, 1
   9              		.eabi_attribute 26, 1
  10              		.eabi_attribute 30, 1
  11              		.eabi_attribute 34, 0
  12              		.eabi_attribute 18, 4
  13              		.thumb
  14              		.syntax unified
  15              		.file	"ccm.c"
  16              		.text
  17              	.Ltext0:
  18              		.cfi_sections	.debug_frame
  19              		.section	.text.ccm_auth_crypt,"ax",%progbits
  20              		.align	2
  21              		.code	16
  22              		.thumb_func
  23              		.type	ccm_auth_crypt, %function
  24              	ccm_auth_crypt:
  25              	.LFB11:
  26              		.file 1 "Source\\mbedtls_open\\library\\ccm.c"
   1:Source\mbedtls_open\library/ccm.c **** /*
   2:Source\mbedtls_open\library/ccm.c ****  *  NIST SP800-38C compliant CCM implementation
   3:Source\mbedtls_open\library/ccm.c ****  *
   4:Source\mbedtls_open\library/ccm.c ****  *  Copyright (C) 2006-2015, ARM Limited, All Rights Reserved
   5:Source\mbedtls_open\library/ccm.c ****  *  SPDX-License-Identifier: Apache-2.0
   6:Source\mbedtls_open\library/ccm.c ****  *
   7:Source\mbedtls_open\library/ccm.c ****  *  Licensed under the Apache License, Version 2.0 (the "License"); you may
   8:Source\mbedtls_open\library/ccm.c ****  *  not use this file except in compliance with the License.
   9:Source\mbedtls_open\library/ccm.c ****  *  You may obtain a copy of the License at
  10:Source\mbedtls_open\library/ccm.c ****  *
  11:Source\mbedtls_open\library/ccm.c ****  *  http://www.apache.org/licenses/LICENSE-2.0
  12:Source\mbedtls_open\library/ccm.c ****  *
  13:Source\mbedtls_open\library/ccm.c ****  *  Unless required by applicable law or agreed to in writing, software
  14:Source\mbedtls_open\library/ccm.c ****  *  distributed under the License is distributed on an "AS IS" BASIS, WITHOUT
  15:Source\mbedtls_open\library/ccm.c ****  *  WARRANTIES OR CONDITIONS OF ANY KIND, either express or implied.
  16:Source\mbedtls_open\library/ccm.c ****  *  See the License for the specific language governing permissions and
  17:Source\mbedtls_open\library/ccm.c ****  *  limitations under the License.
  18:Source\mbedtls_open\library/ccm.c ****  *
  19:Source\mbedtls_open\library/ccm.c ****  *  This file is part of mbed TLS (https://tls.mbed.org)
  20:Source\mbedtls_open\library/ccm.c ****  */
  21:Source\mbedtls_open\library/ccm.c **** 
  22:Source\mbedtls_open\library/ccm.c **** /*
  23:Source\mbedtls_open\library/ccm.c ****  * Definition of CCM:
  24:Source\mbedtls_open\library/ccm.c ****  * http://csrc.nist.gov/publications/nistpubs/800-38C/SP800-38C_updated-July20_2007.pdf
  25:Source\mbedtls_open\library/ccm.c ****  * RFC 3610 "Counter with CBC-MAC (CCM)"
  26:Source\mbedtls_open\library/ccm.c ****  *
  27:Source\mbedtls_open\library/ccm.c ****  * Related:
  28:Source\mbedtls_open\library/ccm.c ****  * RFC 5116 "An Interface and Algorithms for Authenticated Encryption"
  29:Source\mbedtls_open\library/ccm.c ****  */
  30:Source\mbedtls_open\library/ccm.c **** 
  31:Source\mbedtls_open\library/ccm.c **** #if !defined(MBEDTLS_CONFIG_FILE)
ARM GAS  C:\Users\Phuong\AppData\Local\Temp\ccOlY5Ml.s 			page 2


  32:Source\mbedtls_open\library/ccm.c **** #include "mbedtls/config.h"
  33:Source\mbedtls_open\library/ccm.c **** #else
  34:Source\mbedtls_open\library/ccm.c **** #include MBEDTLS_CONFIG_FILE
  35:Source\mbedtls_open\library/ccm.c **** #endif
  36:Source\mbedtls_open\library/ccm.c **** 
  37:Source\mbedtls_open\library/ccm.c **** #if defined(MBEDTLS_CCM_C)
  38:Source\mbedtls_open\library/ccm.c **** 
  39:Source\mbedtls_open\library/ccm.c **** #include "mbedtls/ccm.h"
  40:Source\mbedtls_open\library/ccm.c **** #include "mbedtls/platform_util.h"
  41:Source\mbedtls_open\library/ccm.c **** 
  42:Source\mbedtls_open\library/ccm.c **** #include <string.h>
  43:Source\mbedtls_open\library/ccm.c **** 
  44:Source\mbedtls_open\library/ccm.c **** #if defined(MBEDTLS_SELF_TEST) && defined(MBEDTLS_AES_C)
  45:Source\mbedtls_open\library/ccm.c **** #if defined(MBEDTLS_PLATFORM_C)
  46:Source\mbedtls_open\library/ccm.c **** #include "mbedtls/platform.h"
  47:Source\mbedtls_open\library/ccm.c **** #else
  48:Source\mbedtls_open\library/ccm.c **** #include <stdio.h>
  49:Source\mbedtls_open\library/ccm.c **** #define mbedtls_printf printf
  50:Source\mbedtls_open\library/ccm.c **** #endif /* MBEDTLS_PLATFORM_C */
  51:Source\mbedtls_open\library/ccm.c **** #endif /* MBEDTLS_SELF_TEST && MBEDTLS_AES_C */
  52:Source\mbedtls_open\library/ccm.c **** 
  53:Source\mbedtls_open\library/ccm.c **** #if !defined(MBEDTLS_CCM_ALT)
  54:Source\mbedtls_open\library/ccm.c **** 
  55:Source\mbedtls_open\library/ccm.c **** #define CCM_ENCRYPT 0
  56:Source\mbedtls_open\library/ccm.c **** #define CCM_DECRYPT 1
  57:Source\mbedtls_open\library/ccm.c **** 
  58:Source\mbedtls_open\library/ccm.c **** /*
  59:Source\mbedtls_open\library/ccm.c ****  * Initialize context
  60:Source\mbedtls_open\library/ccm.c ****  */
  61:Source\mbedtls_open\library/ccm.c **** void mbedtls_ccm_init( mbedtls_ccm_context *ctx )
  62:Source\mbedtls_open\library/ccm.c **** {
  63:Source\mbedtls_open\library/ccm.c ****     memset( ctx, 0, sizeof( mbedtls_ccm_context ) );
  64:Source\mbedtls_open\library/ccm.c **** }
  65:Source\mbedtls_open\library/ccm.c **** 
  66:Source\mbedtls_open\library/ccm.c **** int mbedtls_ccm_setkey( mbedtls_ccm_context *ctx,
  67:Source\mbedtls_open\library/ccm.c ****                         mbedtls_cipher_id_t cipher,
  68:Source\mbedtls_open\library/ccm.c ****                         const unsigned char *key,
  69:Source\mbedtls_open\library/ccm.c ****                         unsigned int keybits )
  70:Source\mbedtls_open\library/ccm.c **** {
  71:Source\mbedtls_open\library/ccm.c ****     int ret;
  72:Source\mbedtls_open\library/ccm.c ****     const mbedtls_cipher_info_t *cipher_info;
  73:Source\mbedtls_open\library/ccm.c **** 
  74:Source\mbedtls_open\library/ccm.c ****     cipher_info = mbedtls_cipher_info_from_values( cipher, keybits, MBEDTLS_MODE_ECB );
  75:Source\mbedtls_open\library/ccm.c ****     if( cipher_info == NULL )
  76:Source\mbedtls_open\library/ccm.c ****         return( MBEDTLS_ERR_CCM_BAD_INPUT );
  77:Source\mbedtls_open\library/ccm.c **** 
  78:Source\mbedtls_open\library/ccm.c ****     if( cipher_info->block_size != 16 )
  79:Source\mbedtls_open\library/ccm.c ****         return( MBEDTLS_ERR_CCM_BAD_INPUT );
  80:Source\mbedtls_open\library/ccm.c **** 
  81:Source\mbedtls_open\library/ccm.c ****     mbedtls_cipher_free( &ctx->cipher_ctx );
  82:Source\mbedtls_open\library/ccm.c **** 
  83:Source\mbedtls_open\library/ccm.c ****     if( ( ret = mbedtls_cipher_setup( &ctx->cipher_ctx, cipher_info ) ) != 0 )
  84:Source\mbedtls_open\library/ccm.c ****         return( ret );
  85:Source\mbedtls_open\library/ccm.c **** 
  86:Source\mbedtls_open\library/ccm.c ****     if( ( ret = mbedtls_cipher_setkey( &ctx->cipher_ctx, key, keybits,
  87:Source\mbedtls_open\library/ccm.c ****                                MBEDTLS_ENCRYPT ) ) != 0 )
  88:Source\mbedtls_open\library/ccm.c ****     {
ARM GAS  C:\Users\Phuong\AppData\Local\Temp\ccOlY5Ml.s 			page 3


  89:Source\mbedtls_open\library/ccm.c ****         return( ret );
  90:Source\mbedtls_open\library/ccm.c ****     }
  91:Source\mbedtls_open\library/ccm.c **** 
  92:Source\mbedtls_open\library/ccm.c ****     return( 0 );
  93:Source\mbedtls_open\library/ccm.c **** }
  94:Source\mbedtls_open\library/ccm.c **** 
  95:Source\mbedtls_open\library/ccm.c **** /*
  96:Source\mbedtls_open\library/ccm.c ****  * Free context
  97:Source\mbedtls_open\library/ccm.c ****  */
  98:Source\mbedtls_open\library/ccm.c **** void mbedtls_ccm_free( mbedtls_ccm_context *ctx )
  99:Source\mbedtls_open\library/ccm.c **** {
 100:Source\mbedtls_open\library/ccm.c ****     mbedtls_cipher_free( &ctx->cipher_ctx );
 101:Source\mbedtls_open\library/ccm.c ****     mbedtls_platform_zeroize( ctx, sizeof( mbedtls_ccm_context ) );
 102:Source\mbedtls_open\library/ccm.c **** }
 103:Source\mbedtls_open\library/ccm.c **** 
 104:Source\mbedtls_open\library/ccm.c **** /*
 105:Source\mbedtls_open\library/ccm.c ****  * Macros for common operations.
 106:Source\mbedtls_open\library/ccm.c ****  * Results in smaller compiled code than static inline functions.
 107:Source\mbedtls_open\library/ccm.c ****  */
 108:Source\mbedtls_open\library/ccm.c **** 
 109:Source\mbedtls_open\library/ccm.c **** /*
 110:Source\mbedtls_open\library/ccm.c ****  * Update the CBC-MAC state in y using a block in b
 111:Source\mbedtls_open\library/ccm.c ****  * (Always using b as the source helps the compiler optimise a bit better.)
 112:Source\mbedtls_open\library/ccm.c ****  */
 113:Source\mbedtls_open\library/ccm.c **** #define UPDATE_CBC_MAC                                                      \
 114:Source\mbedtls_open\library/ccm.c ****     for( i = 0; i < 16; i++ )                                               \
 115:Source\mbedtls_open\library/ccm.c ****         y[i] ^= b[i];                                                       \
 116:Source\mbedtls_open\library/ccm.c ****                                                                             \
 117:Source\mbedtls_open\library/ccm.c ****     if( ( ret = mbedtls_cipher_update( &ctx->cipher_ctx, y, 16, y, &olen ) ) != 0 ) \
 118:Source\mbedtls_open\library/ccm.c ****         return( ret );
 119:Source\mbedtls_open\library/ccm.c **** 
 120:Source\mbedtls_open\library/ccm.c **** /*
 121:Source\mbedtls_open\library/ccm.c ****  * Encrypt or decrypt a partial block with CTR
 122:Source\mbedtls_open\library/ccm.c ****  * Warning: using b for temporary storage! src and dst must not be b!
 123:Source\mbedtls_open\library/ccm.c ****  * This avoids allocating one more 16 bytes buffer while allowing src == dst.
 124:Source\mbedtls_open\library/ccm.c ****  */
 125:Source\mbedtls_open\library/ccm.c **** #define CTR_CRYPT( dst, src, len  )                                            \
 126:Source\mbedtls_open\library/ccm.c ****     if( ( ret = mbedtls_cipher_update( &ctx->cipher_ctx, ctr, 16, b, &olen ) ) != 0 )  \
 127:Source\mbedtls_open\library/ccm.c ****         return( ret );                                                         \
 128:Source\mbedtls_open\library/ccm.c ****                                                                                \
 129:Source\mbedtls_open\library/ccm.c ****     for( i = 0; i < len; i++ )                                                 \
 130:Source\mbedtls_open\library/ccm.c ****         dst[i] = src[i] ^ b[i];
 131:Source\mbedtls_open\library/ccm.c **** 
 132:Source\mbedtls_open\library/ccm.c **** /*
 133:Source\mbedtls_open\library/ccm.c ****  * Authenticated encryption or decryption
 134:Source\mbedtls_open\library/ccm.c ****  */
 135:Source\mbedtls_open\library/ccm.c **** static int ccm_auth_crypt( mbedtls_ccm_context *ctx, int mode, size_t length,
 136:Source\mbedtls_open\library/ccm.c ****                            const unsigned char *iv, size_t iv_len,
 137:Source\mbedtls_open\library/ccm.c ****                            const unsigned char *add, size_t add_len,
 138:Source\mbedtls_open\library/ccm.c ****                            const unsigned char *input, unsigned char *output,
 139:Source\mbedtls_open\library/ccm.c ****                            unsigned char *tag, size_t tag_len )
 140:Source\mbedtls_open\library/ccm.c **** {
  27              		.loc 1 140 0
  28              		.cfi_startproc
  29              		@ args = 28, pretend = 0, frame = 72
  30              		@ frame_needed = 0, uses_anonymous_args = 0
  31              	.LVL0:
ARM GAS  C:\Users\Phuong\AppData\Local\Temp\ccOlY5Ml.s 			page 4


  32 0000 F0B5     		push	{r4, r5, r6, r7, lr}
  33              		.cfi_def_cfa_offset 20
  34              		.cfi_offset 4, -20
  35              		.cfi_offset 5, -16
  36              		.cfi_offset 6, -12
  37              		.cfi_offset 7, -8
  38              		.cfi_offset 14, -4
  39 0002 5F46     		mov	r7, fp
  40 0004 5646     		mov	r6, r10
  41 0006 4D46     		mov	r5, r9
  42 0008 4446     		mov	r4, r8
  43 000a F0B4     		push	{r4, r5, r6, r7}
  44              		.cfi_def_cfa_offset 36
  45              		.cfi_offset 8, -36
  46              		.cfi_offset 9, -32
  47              		.cfi_offset 10, -28
  48              		.cfi_offset 11, -24
  49 000c 95B0     		sub	sp, sp, #84
  50              		.cfi_def_cfa_offset 120
  51 000e 0490     		str	r0, [sp, #16]
  52 0010 8946     		mov	r9, r1
  53 0012 9246     		mov	r10, r2
  54 0014 0393     		str	r3, [sp, #12]
  55 0016 209E     		ldr	r6, [sp, #128]
  56 0018 219D     		ldr	r5, [sp, #132]
  57 001a 229F     		ldr	r7, [sp, #136]
 141:Source\mbedtls_open\library/ccm.c ****     int ret;
 142:Source\mbedtls_open\library/ccm.c ****     unsigned char i;
 143:Source\mbedtls_open\library/ccm.c ****     unsigned char q;
 144:Source\mbedtls_open\library/ccm.c ****     size_t len_left, olen;
 145:Source\mbedtls_open\library/ccm.c ****     unsigned char b[16];
 146:Source\mbedtls_open\library/ccm.c ****     unsigned char y[16];
 147:Source\mbedtls_open\library/ccm.c ****     unsigned char ctr[16];
 148:Source\mbedtls_open\library/ccm.c ****     const unsigned char *src;
 149:Source\mbedtls_open\library/ccm.c ****     unsigned char *dst;
 150:Source\mbedtls_open\library/ccm.c **** 
 151:Source\mbedtls_open\library/ccm.c ****     /*
 152:Source\mbedtls_open\library/ccm.c ****      * Check length requirements: SP800-38C A.1
 153:Source\mbedtls_open\library/ccm.c ****      * Additional requirement: a < 2^16 - 2^8 to simplify the code.
 154:Source\mbedtls_open\library/ccm.c ****      * 'length' checked later (when writing it to the first block)
 155:Source\mbedtls_open\library/ccm.c ****      *
 156:Source\mbedtls_open\library/ccm.c ****      * Also, loosen the requirements to enable support for CCM* (IEEE 802.15.4).
 157:Source\mbedtls_open\library/ccm.c ****      */
 158:Source\mbedtls_open\library/ccm.c ****     if( tag_len == 2 || tag_len > 16 || tag_len % 2 != 0 )
  58              		.loc 1 158 0
  59 001c 249B     		ldr	r3, [sp, #144]
  60              	.LVL1:
  61 001e 022B     		cmp	r3, #2
  62 0020 00D1     		bne	.LCB47
  63 0022 76E1     		b	.L35	@long jump
  64              	.LCB47:
  65              		.loc 1 158 0 is_stmt 0 discriminator 1
  66 0024 102B     		cmp	r3, #16
  67 0026 00D9     		bls	.LCB49
  68 0028 76E1     		b	.L36	@long jump
  69              	.LCB49:
  70              		.loc 1 158 0 discriminator 2
ARM GAS  C:\Users\Phuong\AppData\Local\Temp\ccOlY5Ml.s 			page 5


  71 002a DB07     		lsls	r3, r3, #31
  72 002c 00D5     		bpl	.LCB53
  73 002e 76E1     		b	.L37	@long jump
  74              	.LCB53:
 159:Source\mbedtls_open\library/ccm.c ****         return( MBEDTLS_ERR_CCM_BAD_INPUT );
 160:Source\mbedtls_open\library/ccm.c **** 
 161:Source\mbedtls_open\library/ccm.c ****     /* Also implies q is within bounds */
 162:Source\mbedtls_open\library/ccm.c ****     if( iv_len < 7 || iv_len > 13 )
  75              		.loc 1 162 0 is_stmt 1
  76 0030 1E9B     		ldr	r3, [sp, #120]
  77 0032 073B     		subs	r3, r3, #7
  78 0034 062B     		cmp	r3, #6
  79 0036 00D9     		bls	.LCB57
  80 0038 74E1     		b	.L38	@long jump
  81              	.LCB57:
 163:Source\mbedtls_open\library/ccm.c ****         return( MBEDTLS_ERR_CCM_BAD_INPUT );
 164:Source\mbedtls_open\library/ccm.c **** 
 165:Source\mbedtls_open\library/ccm.c ****     if( add_len > 0xFF00 )
  82              		.loc 1 165 0
  83 003a FF23     		movs	r3, #255
  84 003c 1B02     		lsls	r3, r3, #8
  85 003e 9E42     		cmp	r6, r3
  86 0040 00D9     		bls	.LCB61
  87 0042 72E1     		b	.L39	@long jump
  88              	.LCB61:
 166:Source\mbedtls_open\library/ccm.c ****         return( MBEDTLS_ERR_CCM_BAD_INPUT );
 167:Source\mbedtls_open\library/ccm.c **** 
 168:Source\mbedtls_open\library/ccm.c ****     q = 16 - 1 - (unsigned char) iv_len;
  89              		.loc 1 168 0
  90 0044 1E9B     		ldr	r3, [sp, #120]
  91 0046 DAB2     		uxtb	r2, r3
  92              	.LVL2:
  93 0048 0F24     		movs	r4, #15
  94 004a A41A     		subs	r4, r4, r2
  95 004c E4B2     		uxtb	r4, r4
  96              	.LVL3:
 169:Source\mbedtls_open\library/ccm.c **** 
 170:Source\mbedtls_open\library/ccm.c ****     /*
 171:Source\mbedtls_open\library/ccm.c ****      * First block B_0:
 172:Source\mbedtls_open\library/ccm.c ****      * 0        .. 0        flags
 173:Source\mbedtls_open\library/ccm.c ****      * 1        .. iv_len   nonce (aka iv)
 174:Source\mbedtls_open\library/ccm.c ****      * iv_len+1 .. 15       length
 175:Source\mbedtls_open\library/ccm.c ****      *
 176:Source\mbedtls_open\library/ccm.c ****      * With flags as (bits):
 177:Source\mbedtls_open\library/ccm.c ****      * 7        0
 178:Source\mbedtls_open\library/ccm.c ****      * 6        add present?
 179:Source\mbedtls_open\library/ccm.c ****      * 5 .. 3   (t - 2) / 2
 180:Source\mbedtls_open\library/ccm.c ****      * 2 .. 0   q - 1
 181:Source\mbedtls_open\library/ccm.c ****      */
 182:Source\mbedtls_open\library/ccm.c ****     b[0] = 0;
 183:Source\mbedtls_open\library/ccm.c ****     b[0] |= ( add_len > 0 ) << 6;
  97              		.loc 1 183 0
  98 004e 002E     		cmp	r6, #0
  99 0050 01D0     		beq	.L40
 100 0052 4021     		movs	r1, #64
 101              	.LVL4:
 102 0054 00E0     		b	.L3
ARM GAS  C:\Users\Phuong\AppData\Local\Temp\ccOlY5Ml.s 			page 6


 103              	.LVL5:
 104              	.L40:
 105 0056 0021     		movs	r1, #0
 106              	.LVL6:
 107              	.L3:
 184:Source\mbedtls_open\library/ccm.c ****     b[0] |= ( ( tag_len - 2 ) / 2 ) << 3;
 108              		.loc 1 184 0 discriminator 4
 109 0058 249B     		ldr	r3, [sp, #144]
 110 005a 023B     		subs	r3, r3, #2
 111 005c 5B08     		lsrs	r3, r3, #1
 112 005e DB00     		lsls	r3, r3, #3
 113 0060 0B43     		orrs	r3, r1
 114 0062 DBB2     		uxtb	r3, r3
 185:Source\mbedtls_open\library/ccm.c ****     b[0] |= q - 1;
 115              		.loc 1 185 0 discriminator 4
 116 0064 0E21     		movs	r1, #14
 117 0066 8A1A     		subs	r2, r1, r2
 118 0068 D2B2     		uxtb	r2, r2
 119 006a 0592     		str	r2, [sp, #20]
 120 006c 1343     		orrs	r3, r2
 121 006e 0FAA     		add	r2, sp, #60
 122 0070 1370     		strb	r3, [r2]
 186:Source\mbedtls_open\library/ccm.c **** 
 187:Source\mbedtls_open\library/ccm.c ****     memcpy( b + 1, iv, iv_len );
 123              		.loc 1 187 0 discriminator 4
 124 0072 1E9A     		ldr	r2, [sp, #120]
 125 0074 0399     		ldr	r1, [sp, #12]
 126 0076 2D20     		movs	r0, #45
 127              	.LVL7:
 128 0078 04AB     		add	r3, sp, #16
 129              	.LVL8:
 130 007a 9C46     		mov	ip, r3
 131 007c 6044     		add	r0, r0, ip
 132 007e FFF7FEFF 		bl	memcpy
 133              	.LVL9:
 188:Source\mbedtls_open\library/ccm.c **** 
 189:Source\mbedtls_open\library/ccm.c ****     for( i = 0, len_left = length; i < q; i++, len_left >>= 8 )
 134              		.loc 1 189 0 discriminator 4
 135 0082 5146     		mov	r1, r10
 136 0084 0023     		movs	r3, #0
 137 0086 06E0     		b	.L4
 138              	.LVL10:
 139              	.L5:
 190:Source\mbedtls_open\library/ccm.c ****         b[15-i] = (unsigned char)( len_left & 0xFF );
 140              		.loc 1 190 0 discriminator 3
 141 0088 0F22     		movs	r2, #15
 142 008a D21A     		subs	r2, r2, r3
 143 008c 0FA8     		add	r0, sp, #60
 144 008e 8154     		strb	r1, [r0, r2]
 189:Source\mbedtls_open\library/ccm.c ****         b[15-i] = (unsigned char)( len_left & 0xFF );
 145              		.loc 1 189 0 discriminator 3
 146 0090 0133     		adds	r3, r3, #1
 147              	.LVL11:
 148 0092 DBB2     		uxtb	r3, r3
 149              	.LVL12:
 150 0094 090A     		lsrs	r1, r1, #8
 151              	.LVL13:
ARM GAS  C:\Users\Phuong\AppData\Local\Temp\ccOlY5Ml.s 			page 7


 152              	.L4:
 189:Source\mbedtls_open\library/ccm.c ****         b[15-i] = (unsigned char)( len_left & 0xFF );
 153              		.loc 1 189 0 is_stmt 0 discriminator 1
 154 0096 A342     		cmp	r3, r4
 155 0098 F6D3     		bcc	.L5
 191:Source\mbedtls_open\library/ccm.c **** 
 192:Source\mbedtls_open\library/ccm.c ****     if( len_left > 0 )
 156              		.loc 1 192 0 is_stmt 1
 157 009a 0029     		cmp	r1, #0
 158 009c 00D0     		beq	.LCB139
 159 009e 47E1     		b	.L41	@long jump
 160              	.LCB139:
 193:Source\mbedtls_open\library/ccm.c ****         return( MBEDTLS_ERR_CCM_BAD_INPUT );
 194:Source\mbedtls_open\library/ccm.c **** 
 195:Source\mbedtls_open\library/ccm.c **** 
 196:Source\mbedtls_open\library/ccm.c ****     /* Start CBC-MAC with first block */
 197:Source\mbedtls_open\library/ccm.c ****     memset( y, 0, 16 );
 161              		.loc 1 197 0
 162 00a0 1022     		movs	r2, #16
 163 00a2 0BA8     		add	r0, sp, #44
 164 00a4 FFF7FEFF 		bl	memset
 165              	.LVL14:
 198:Source\mbedtls_open\library/ccm.c ****     UPDATE_CBC_MAC;
 166              		.loc 1 198 0
 167 00a8 0022     		movs	r2, #0
 168 00aa 07E0     		b	.L6
 169              	.LVL15:
 170              	.L7:
 171              		.loc 1 198 0 is_stmt 0 discriminator 3
 172 00ac 0FAB     		add	r3, sp, #60
 173 00ae 985C     		ldrb	r0, [r3, r2]
 174 00b0 0BA9     		add	r1, sp, #44
 175 00b2 8B5C     		ldrb	r3, [r1, r2]
 176 00b4 4340     		eors	r3, r0
 177 00b6 8B54     		strb	r3, [r1, r2]
 178 00b8 0132     		adds	r2, r2, #1
 179              	.LVL16:
 180 00ba D2B2     		uxtb	r2, r2
 181              	.LVL17:
 182              	.L6:
 183              		.loc 1 198 0 discriminator 1
 184 00bc 0F2A     		cmp	r2, #15
 185 00be F5D9     		bls	.L7
 186              		.loc 1 198 0 discriminator 4
 187 00c0 0498     		ldr	r0, [sp, #16]
 188 00c2 0290     		str	r0, [sp, #8]
 189 00c4 13AB     		add	r3, sp, #76
 190 00c6 0093     		str	r3, [sp]
 191 00c8 0BAB     		add	r3, sp, #44
 192 00ca 1022     		movs	r2, #16
 193              	.LVL18:
 194 00cc 1900     		movs	r1, r3
 195 00ce FFF7FEFF 		bl	mbedtls_cipher_update
 196              	.LVL19:
 197 00d2 0028     		cmp	r0, #0
 198 00d4 00D0     		beq	.LCB183
 199 00d6 2DE1     		b	.L2	@long jump
ARM GAS  C:\Users\Phuong\AppData\Local\Temp\ccOlY5Ml.s 			page 8


 200              	.LCB183:
 199:Source\mbedtls_open\library/ccm.c **** 
 200:Source\mbedtls_open\library/ccm.c ****     /*
 201:Source\mbedtls_open\library/ccm.c ****      * If there is additional data, update CBC-MAC with
 202:Source\mbedtls_open\library/ccm.c ****      * add_len, add, 0 (padding to a block boundary)
 203:Source\mbedtls_open\library/ccm.c ****      */
 204:Source\mbedtls_open\library/ccm.c ****     if( add_len > 0 )
 201              		.loc 1 204 0 is_stmt 1
 202 00d8 002E     		cmp	r6, #0
 203 00da 65D0     		beq	.L8
 204              	.LVL20:
 205              	.LBB2:
 205:Source\mbedtls_open\library/ccm.c ****     {
 206:Source\mbedtls_open\library/ccm.c ****         size_t use_len;
 207:Source\mbedtls_open\library/ccm.c ****         len_left = add_len;
 208:Source\mbedtls_open\library/ccm.c ****         src = add;
 209:Source\mbedtls_open\library/ccm.c **** 
 210:Source\mbedtls_open\library/ccm.c ****         memset( b, 0, 16 );
 206              		.loc 1 210 0
 207 00dc 1022     		movs	r2, #16
 208 00de 0021     		movs	r1, #0
 209 00e0 0FA8     		add	r0, sp, #60
 210              	.LVL21:
 211 00e2 FFF7FEFF 		bl	memset
 212              	.LVL22:
 211:Source\mbedtls_open\library/ccm.c ****         b[0] = (unsigned char)( ( add_len >> 8 ) & 0xFF );
 213              		.loc 1 211 0
 214 00e6 330A     		lsrs	r3, r6, #8
 215 00e8 04AA     		add	r2, sp, #16
 216              	.LVL23:
 217 00ea 2C21     		movs	r1, #44
 218 00ec 5218     		adds	r2, r2, r1
 219              	.LVL24:
 220 00ee 1370     		strb	r3, [r2]
 212:Source\mbedtls_open\library/ccm.c ****         b[1] = (unsigned char)( ( add_len      ) & 0xFF );
 221              		.loc 1 212 0
 222 00f0 04AB     		add	r3, sp, #16
 223              	.LVL25:
 224 00f2 2D22     		movs	r2, #45
 225 00f4 9B18     		adds	r3, r3, r2
 226              	.LVL26:
 227 00f6 1E70     		strb	r6, [r3]
 213:Source\mbedtls_open\library/ccm.c **** 
 214:Source\mbedtls_open\library/ccm.c ****         use_len = len_left < 16 - 2 ? len_left : 16 - 2;
 228              		.loc 1 214 0
 229 00f8 B046     		mov	r8, r6
 230 00fa 0E2E     		cmp	r6, #14
 231 00fc 01D9     		bls	.L9
 232 00fe 0E23     		movs	r3, #14
 233              	.LVL27:
 234 0100 9846     		mov	r8, r3
 235              	.L9:
 236              	.LVL28:
 215:Source\mbedtls_open\library/ccm.c ****         memcpy( b + 2, src, use_len );
 237              		.loc 1 215 0
 238 0102 4246     		mov	r2, r8
 239 0104 1F99     		ldr	r1, [sp, #124]
ARM GAS  C:\Users\Phuong\AppData\Local\Temp\ccOlY5Ml.s 			page 9


 240 0106 2E20     		movs	r0, #46
 241 0108 04AB     		add	r3, sp, #16
 242              	.LVL29:
 243 010a 9C46     		mov	ip, r3
 244 010c 6044     		add	r0, r0, ip
 245 010e FFF7FEFF 		bl	memcpy
 246              	.LVL30:
 216:Source\mbedtls_open\library/ccm.c ****         len_left -= use_len;
 247              		.loc 1 216 0
 248 0112 4346     		mov	r3, r8
 249 0114 F61A     		subs	r6, r6, r3
 250              	.LVL31:
 217:Source\mbedtls_open\library/ccm.c ****         src += use_len;
 251              		.loc 1 217 0
 252 0116 1F9B     		ldr	r3, [sp, #124]
 253 0118 4344     		add	r3, r3, r8
 254 011a 9B46     		mov	fp, r3
 255              	.LVL32:
 218:Source\mbedtls_open\library/ccm.c **** 
 219:Source\mbedtls_open\library/ccm.c ****         UPDATE_CBC_MAC;
 256              		.loc 1 219 0
 257 011c 0022     		movs	r2, #0
 258 011e 07E0     		b	.L10
 259              	.LVL33:
 260              	.L11:
 261              		.loc 1 219 0 is_stmt 0 discriminator 3
 262 0120 0FAB     		add	r3, sp, #60
 263 0122 985C     		ldrb	r0, [r3, r2]
 264 0124 0BA9     		add	r1, sp, #44
 265 0126 8B5C     		ldrb	r3, [r1, r2]
 266 0128 4340     		eors	r3, r0
 267 012a 8B54     		strb	r3, [r1, r2]
 268 012c 0132     		adds	r2, r2, #1
 269              	.LVL34:
 270 012e D2B2     		uxtb	r2, r2
 271              	.LVL35:
 272              	.L10:
 273              		.loc 1 219 0 discriminator 1
 274 0130 0F2A     		cmp	r2, #15
 275 0132 F5D9     		bls	.L11
 276              		.loc 1 219 0 discriminator 4
 277 0134 13AB     		add	r3, sp, #76
 278 0136 0093     		str	r3, [sp]
 279 0138 0BAB     		add	r3, sp, #44
 280 013a 1022     		movs	r2, #16
 281              	.LVL36:
 282 013c 1900     		movs	r1, r3
 283 013e 0498     		ldr	r0, [sp, #16]
 284 0140 FFF7FEFF 		bl	mbedtls_cipher_update
 285              	.LVL37:
 286 0144 0028     		cmp	r0, #0
 287 0146 28D0     		beq	.L49
 288 0148 F4E0     		b	.L2
 289              	.LVL38:
 290              	.L16:
 220:Source\mbedtls_open\library/ccm.c **** 
 221:Source\mbedtls_open\library/ccm.c ****         while( len_left > 0 )
ARM GAS  C:\Users\Phuong\AppData\Local\Temp\ccOlY5Ml.s 			page 10


 222:Source\mbedtls_open\library/ccm.c ****         {
 223:Source\mbedtls_open\library/ccm.c ****             use_len = len_left > 16 ? 16 : len_left;
 291              		.loc 1 223 0 is_stmt 1
 292 014a 3400     		movs	r4, r6
 293 014c 102E     		cmp	r6, #16
 294 014e 00D9     		bls	.L13
 295              	.LVL39:
 296 0150 1024     		movs	r4, #16
 297              	.LVL40:
 298              	.L13:
 224:Source\mbedtls_open\library/ccm.c **** 
 225:Source\mbedtls_open\library/ccm.c ****             memset( b, 0, 16 );
 299              		.loc 1 225 0
 300 0152 1022     		movs	r2, #16
 301 0154 0021     		movs	r1, #0
 302 0156 0FA8     		add	r0, sp, #60
 303              	.LVL41:
 304 0158 FFF7FEFF 		bl	memset
 305              	.LVL42:
 226:Source\mbedtls_open\library/ccm.c ****             memcpy( b, src, use_len );
 306              		.loc 1 226 0
 307 015c 2200     		movs	r2, r4
 308 015e 2900     		movs	r1, r5
 309 0160 0FA8     		add	r0, sp, #60
 310 0162 FFF7FEFF 		bl	memcpy
 311              	.LVL43:
 227:Source\mbedtls_open\library/ccm.c ****             UPDATE_CBC_MAC;
 312              		.loc 1 227 0
 313 0166 0022     		movs	r2, #0
 314 0168 07E0     		b	.L14
 315              	.LVL44:
 316              	.L15:
 317              		.loc 1 227 0 is_stmt 0 discriminator 3
 318 016a 0FAB     		add	r3, sp, #60
 319 016c 985C     		ldrb	r0, [r3, r2]
 320 016e 0BA9     		add	r1, sp, #44
 321 0170 8B5C     		ldrb	r3, [r1, r2]
 322 0172 4340     		eors	r3, r0
 323 0174 8B54     		strb	r3, [r1, r2]
 324 0176 0132     		adds	r2, r2, #1
 325              	.LVL45:
 326 0178 D2B2     		uxtb	r2, r2
 327              	.LVL46:
 328              	.L14:
 329              		.loc 1 227 0 discriminator 1
 330 017a 0F2A     		cmp	r2, #15
 331 017c F5D9     		bls	.L15
 332              		.loc 1 227 0 discriminator 4
 333 017e 13AB     		add	r3, sp, #76
 334 0180 0093     		str	r3, [sp]
 335 0182 0BAB     		add	r3, sp, #44
 336 0184 1022     		movs	r2, #16
 337              	.LVL47:
 338 0186 1900     		movs	r1, r3
 339 0188 0298     		ldr	r0, [sp, #8]
 340 018a FFF7FEFF 		bl	mbedtls_cipher_update
 341              	.LVL48:
ARM GAS  C:\Users\Phuong\AppData\Local\Temp\ccOlY5Ml.s 			page 11


 342 018e 0028     		cmp	r0, #0
 343 0190 00D0     		beq	.LCB347
 344 0192 CFE0     		b	.L2	@long jump
 345              	.LCB347:
 228:Source\mbedtls_open\library/ccm.c **** 
 229:Source\mbedtls_open\library/ccm.c ****             len_left -= use_len;
 346              		.loc 1 229 0 is_stmt 1
 347 0194 361B     		subs	r6, r6, r4
 348              	.LVL49:
 230:Source\mbedtls_open\library/ccm.c ****             src += use_len;
 349              		.loc 1 230 0
 350 0196 2D19     		adds	r5, r5, r4
 351              	.LVL50:
 352 0198 02E0     		b	.L12
 353              	.LVL51:
 354              	.L49:
 355 019a A846     		mov	r8, r5
 356              	.LVL52:
 357 019c 5D46     		mov	r5, fp
 358 019e A346     		mov	fp, r4
 359              	.LVL53:
 360              	.L12:
 221:Source\mbedtls_open\library/ccm.c ****         {
 361              		.loc 1 221 0
 362 01a0 002E     		cmp	r6, #0
 363 01a2 D2D1     		bne	.L16
 364 01a4 5C46     		mov	r4, fp
 365 01a6 4546     		mov	r5, r8
 366              	.LVL54:
 367              	.L8:
 368              	.LBE2:
 231:Source\mbedtls_open\library/ccm.c ****         }
 232:Source\mbedtls_open\library/ccm.c ****     }
 233:Source\mbedtls_open\library/ccm.c **** 
 234:Source\mbedtls_open\library/ccm.c ****     /*
 235:Source\mbedtls_open\library/ccm.c ****      * Prepare counter block for encryption:
 236:Source\mbedtls_open\library/ccm.c ****      * 0        .. 0        flags
 237:Source\mbedtls_open\library/ccm.c ****      * 1        .. iv_len   nonce (aka iv)
 238:Source\mbedtls_open\library/ccm.c ****      * iv_len+1 .. 15       counter (initially 1)
 239:Source\mbedtls_open\library/ccm.c ****      *
 240:Source\mbedtls_open\library/ccm.c ****      * With flags as (bits):
 241:Source\mbedtls_open\library/ccm.c ****      * 7 .. 3   0
 242:Source\mbedtls_open\library/ccm.c ****      * 2 .. 0   q - 1
 243:Source\mbedtls_open\library/ccm.c ****      */
 244:Source\mbedtls_open\library/ccm.c ****     ctr[0] = q - 1;
 369              		.loc 1 244 0
 370 01a8 07AE     		add	r6, sp, #28
 371 01aa 6B46     		mov	r3, sp
 372 01ac 1B7D     		ldrb	r3, [r3, #20]
 373 01ae 3370     		strb	r3, [r6]
 245:Source\mbedtls_open\library/ccm.c ****     memcpy( ctr + 1, iv, iv_len );
 374              		.loc 1 245 0
 375 01b0 1E9A     		ldr	r2, [sp, #120]
 376 01b2 0399     		ldr	r1, [sp, #12]
 377 01b4 0D20     		movs	r0, #13
 378              	.LVL55:
 379 01b6 04AB     		add	r3, sp, #16
ARM GAS  C:\Users\Phuong\AppData\Local\Temp\ccOlY5Ml.s 			page 12


 380              	.LVL56:
 381 01b8 9C46     		mov	ip, r3
 382 01ba 6044     		add	r0, r0, ip
 383 01bc FFF7FEFF 		bl	memcpy
 384              	.LVL57:
 246:Source\mbedtls_open\library/ccm.c ****     memset( ctr + 1 + iv_len, 0, q );
 385              		.loc 1 246 0
 386 01c0 1E9B     		ldr	r3, [sp, #120]
 387 01c2 581C     		adds	r0, r3, #1
 388 01c4 3018     		adds	r0, r6, r0
 389 01c6 2200     		movs	r2, r4
 390 01c8 0021     		movs	r1, #0
 391 01ca FFF7FEFF 		bl	memset
 392              	.LVL58:
 247:Source\mbedtls_open\library/ccm.c ****     ctr[15] = 1;
 393              		.loc 1 247 0
 394 01ce 0123     		movs	r3, #1
 395 01d0 F373     		strb	r3, [r6, #15]
 396              	.LVL59:
 397 01d2 D046     		mov	r8, r10
 248:Source\mbedtls_open\library/ccm.c **** 
 249:Source\mbedtls_open\library/ccm.c ****     /*
 250:Source\mbedtls_open\library/ccm.c ****      * Authenticate and {en,de}crypt the message.
 251:Source\mbedtls_open\library/ccm.c ****      *
 252:Source\mbedtls_open\library/ccm.c ****      * The only difference between encryption and decryption is
 253:Source\mbedtls_open\library/ccm.c ****      * the respective order of authentication and {en,de}cryption.
 254:Source\mbedtls_open\library/ccm.c ****      */
 255:Source\mbedtls_open\library/ccm.c ****     len_left = length;
 256:Source\mbedtls_open\library/ccm.c ****     src = input;
 257:Source\mbedtls_open\library/ccm.c ****     dst = output;
 258:Source\mbedtls_open\library/ccm.c **** 
 259:Source\mbedtls_open\library/ccm.c ****     while( len_left > 0 )
 398              		.loc 1 259 0
 399 01d4 73E0     		b	.L17
 400              	.LVL60:
 401              	.L30:
 402              	.LBB3:
 260:Source\mbedtls_open\library/ccm.c ****     {
 261:Source\mbedtls_open\library/ccm.c ****         size_t use_len = len_left > 16 ? 16 : len_left;
 403              		.loc 1 261 0
 404 01d6 4646     		mov	r6, r8
 405 01d8 102E     		cmp	r6, #16
 406 01da 00D9     		bls	.L18
 407 01dc 1026     		movs	r6, #16
 408              	.L18:
 409              	.LVL61:
 262:Source\mbedtls_open\library/ccm.c **** 
 263:Source\mbedtls_open\library/ccm.c ****         if( mode == CCM_ENCRYPT )
 410              		.loc 1 263 0
 411 01de 4B46     		mov	r3, r9
 412              	.LVL62:
 413 01e0 002B     		cmp	r3, #0
 414 01e2 20D1     		bne	.L19
 415              	.LVL63:
 264:Source\mbedtls_open\library/ccm.c ****         {
 265:Source\mbedtls_open\library/ccm.c ****             memset( b, 0, 16 );
 416              		.loc 1 265 0
ARM GAS  C:\Users\Phuong\AppData\Local\Temp\ccOlY5Ml.s 			page 13


 417 01e4 1022     		movs	r2, #16
 418 01e6 0021     		movs	r1, #0
 419 01e8 0FA8     		add	r0, sp, #60
 420 01ea FFF7FEFF 		bl	memset
 421              	.LVL64:
 266:Source\mbedtls_open\library/ccm.c ****             memcpy( b, src, use_len );
 422              		.loc 1 266 0
 423 01ee 3200     		movs	r2, r6
 424 01f0 2900     		movs	r1, r5
 425 01f2 0FA8     		add	r0, sp, #60
 426 01f4 FFF7FEFF 		bl	memcpy
 427              	.LVL65:
 267:Source\mbedtls_open\library/ccm.c ****             UPDATE_CBC_MAC;
 428              		.loc 1 267 0
 429 01f8 0023     		movs	r3, #0
 430 01fa 07E0     		b	.L20
 431              	.LVL66:
 432              	.L21:
 433              		.loc 1 267 0 is_stmt 0 discriminator 3
 434 01fc 0FAA     		add	r2, sp, #60
 435 01fe D05C     		ldrb	r0, [r2, r3]
 436 0200 0BA9     		add	r1, sp, #44
 437 0202 CA5C     		ldrb	r2, [r1, r3]
 438 0204 4240     		eors	r2, r0
 439 0206 CA54     		strb	r2, [r1, r3]
 440 0208 0133     		adds	r3, r3, #1
 441              	.LVL67:
 442 020a DBB2     		uxtb	r3, r3
 443              	.LVL68:
 444              	.L20:
 445              		.loc 1 267 0 discriminator 1
 446 020c 0F2B     		cmp	r3, #15
 447 020e F5D9     		bls	.L21
 448              		.loc 1 267 0 discriminator 4
 449 0210 13AB     		add	r3, sp, #76
 450              	.LVL69:
 451 0212 0093     		str	r3, [sp]
 452 0214 0BAB     		add	r3, sp, #44
 453 0216 1022     		movs	r2, #16
 454 0218 1900     		movs	r1, r3
 455 021a 0298     		ldr	r0, [sp, #8]
 456 021c FFF7FEFF 		bl	mbedtls_cipher_update
 457              	.LVL70:
 458 0220 0028     		cmp	r0, #0
 459 0222 00D0     		beq	.LCB494
 460 0224 86E0     		b	.L2	@long jump
 461              	.LCB494:
 462              	.LVL71:
 463              	.L19:
 268:Source\mbedtls_open\library/ccm.c ****         }
 269:Source\mbedtls_open\library/ccm.c **** 
 270:Source\mbedtls_open\library/ccm.c ****         CTR_CRYPT( dst, src, use_len );
 464              		.loc 1 270 0 is_stmt 1
 465 0226 13AB     		add	r3, sp, #76
 466 0228 0093     		str	r3, [sp]
 467 022a 0FAB     		add	r3, sp, #60
 468 022c 1022     		movs	r2, #16
ARM GAS  C:\Users\Phuong\AppData\Local\Temp\ccOlY5Ml.s 			page 14


 469 022e 07A9     		add	r1, sp, #28
 470 0230 0298     		ldr	r0, [sp, #8]
 471 0232 FFF7FEFF 		bl	mbedtls_cipher_update
 472              	.LVL72:
 473 0236 0028     		cmp	r0, #0
 474 0238 7CD1     		bne	.L2
 475 023a 0023     		movs	r3, #0
 476 023c 06E0     		b	.L22
 477              	.LVL73:
 478              	.L23:
 479              		.loc 1 270 0 is_stmt 0 discriminator 5
 480 023e E95C     		ldrb	r1, [r5, r3]
 481 0240 0FAA     		add	r2, sp, #60
 482 0242 D25C     		ldrb	r2, [r2, r3]
 483 0244 4A40     		eors	r2, r1
 484 0246 FA54     		strb	r2, [r7, r3]
 485 0248 0133     		adds	r3, r3, #1
 486              	.LVL74:
 487 024a DBB2     		uxtb	r3, r3
 488              	.LVL75:
 489              	.L22:
 490              		.loc 1 270 0 discriminator 3
 491 024c 9E42     		cmp	r6, r3
 492 024e F6D8     		bhi	.L23
 271:Source\mbedtls_open\library/ccm.c **** 
 272:Source\mbedtls_open\library/ccm.c ****         if( mode == CCM_DECRYPT )
 493              		.loc 1 272 0 is_stmt 1
 494 0250 4B46     		mov	r3, r9
 495              	.LVL76:
 496 0252 012B     		cmp	r3, #1
 497 0254 1FD1     		bne	.L24
 498              	.LVL77:
 273:Source\mbedtls_open\library/ccm.c ****         {
 274:Source\mbedtls_open\library/ccm.c ****             memset( b, 0, 16 );
 499              		.loc 1 274 0
 500 0256 1022     		movs	r2, #16
 501 0258 0021     		movs	r1, #0
 502 025a 0FA8     		add	r0, sp, #60
 503              	.LVL78:
 504 025c FFF7FEFF 		bl	memset
 505              	.LVL79:
 275:Source\mbedtls_open\library/ccm.c ****             memcpy( b, dst, use_len );
 506              		.loc 1 275 0
 507 0260 3200     		movs	r2, r6
 508 0262 3900     		movs	r1, r7
 509 0264 0FA8     		add	r0, sp, #60
 510 0266 FFF7FEFF 		bl	memcpy
 511              	.LVL80:
 276:Source\mbedtls_open\library/ccm.c ****             UPDATE_CBC_MAC;
 512              		.loc 1 276 0
 513 026a 0023     		movs	r3, #0
 514 026c 07E0     		b	.L25
 515              	.LVL81:
 516              	.L26:
 517              		.loc 1 276 0 is_stmt 0 discriminator 3
 518 026e 0FAA     		add	r2, sp, #60
 519 0270 D05C     		ldrb	r0, [r2, r3]
ARM GAS  C:\Users\Phuong\AppData\Local\Temp\ccOlY5Ml.s 			page 15


 520 0272 0BA9     		add	r1, sp, #44
 521 0274 CA5C     		ldrb	r2, [r1, r3]
 522 0276 4240     		eors	r2, r0
 523 0278 CA54     		strb	r2, [r1, r3]
 524 027a 0133     		adds	r3, r3, #1
 525              	.LVL82:
 526 027c DBB2     		uxtb	r3, r3
 527              	.LVL83:
 528              	.L25:
 529              		.loc 1 276 0 discriminator 1
 530 027e 0F2B     		cmp	r3, #15
 531 0280 F5D9     		bls	.L26
 532              		.loc 1 276 0 discriminator 4
 533 0282 13AB     		add	r3, sp, #76
 534              	.LVL84:
 535 0284 0093     		str	r3, [sp]
 536 0286 0BAB     		add	r3, sp, #44
 537 0288 1022     		movs	r2, #16
 538 028a 1900     		movs	r1, r3
 539 028c 0298     		ldr	r0, [sp, #8]
 540 028e FFF7FEFF 		bl	mbedtls_cipher_update
 541              	.LVL85:
 542 0292 0028     		cmp	r0, #0
 543 0294 4ED1     		bne	.L2
 544              	.L24:
 277:Source\mbedtls_open\library/ccm.c ****         }
 278:Source\mbedtls_open\library/ccm.c **** 
 279:Source\mbedtls_open\library/ccm.c ****         dst += use_len;
 545              		.loc 1 279 0 is_stmt 1
 546 0296 BF19     		adds	r7, r7, r6
 547              	.LVL86:
 280:Source\mbedtls_open\library/ccm.c ****         src += use_len;
 548              		.loc 1 280 0
 549 0298 AD19     		adds	r5, r5, r6
 550              	.LVL87:
 281:Source\mbedtls_open\library/ccm.c ****         len_left -= use_len;
 551              		.loc 1 281 0
 552 029a 4346     		mov	r3, r8
 553 029c 9B1B     		subs	r3, r3, r6
 554 029e 9846     		mov	r8, r3
 555              	.LVL88:
 282:Source\mbedtls_open\library/ccm.c **** 
 283:Source\mbedtls_open\library/ccm.c ****         /*
 284:Source\mbedtls_open\library/ccm.c ****          * Increment counter.
 285:Source\mbedtls_open\library/ccm.c ****          * No need to check for overflow thanks to the length check above.
 286:Source\mbedtls_open\library/ccm.c ****          */
 287:Source\mbedtls_open\library/ccm.c ****         for( i = 0; i < q; i++ )
 556              		.loc 1 287 0
 557 02a0 0021     		movs	r1, #0
 558 02a2 0AE0     		b	.L27
 559              	.LVL89:
 560              	.L29:
 288:Source\mbedtls_open\library/ccm.c ****             if( ++ctr[15-i] != 0 )
 561              		.loc 1 288 0
 562 02a4 0F22     		movs	r2, #15
 563 02a6 521A     		subs	r2, r2, r1
 564 02a8 07A8     		add	r0, sp, #28
ARM GAS  C:\Users\Phuong\AppData\Local\Temp\ccOlY5Ml.s 			page 16


 565 02aa 835C     		ldrb	r3, [r0, r2]
 566 02ac 0133     		adds	r3, r3, #1
 567 02ae DBB2     		uxtb	r3, r3
 568 02b0 8354     		strb	r3, [r0, r2]
 569 02b2 002B     		cmp	r3, #0
 570 02b4 03D1     		bne	.L17
 287:Source\mbedtls_open\library/ccm.c ****             if( ++ctr[15-i] != 0 )
 571              		.loc 1 287 0 discriminator 2
 572 02b6 0131     		adds	r1, r1, #1
 573              	.LVL90:
 574 02b8 C9B2     		uxtb	r1, r1
 575              	.LVL91:
 576              	.L27:
 287:Source\mbedtls_open\library/ccm.c ****             if( ++ctr[15-i] != 0 )
 577              		.loc 1 287 0 is_stmt 0 discriminator 1
 578 02ba A142     		cmp	r1, r4
 579 02bc F2D3     		bcc	.L29
 580              	.LVL92:
 581              	.L17:
 582              	.LBE3:
 259:Source\mbedtls_open\library/ccm.c ****     {
 583              		.loc 1 259 0 is_stmt 1
 584 02be 4346     		mov	r3, r8
 585 02c0 002B     		cmp	r3, #0
 586 02c2 88D1     		bne	.L30
 587              	.LVL93:
 588 02c4 06E0     		b	.L31
 589              	.LVL94:
 590              	.L32:
 289:Source\mbedtls_open\library/ccm.c ****                 break;
 290:Source\mbedtls_open\library/ccm.c ****     }
 291:Source\mbedtls_open\library/ccm.c **** 
 292:Source\mbedtls_open\library/ccm.c ****     /*
 293:Source\mbedtls_open\library/ccm.c ****      * Authentication: reset counter and crypt/mask internal tag
 294:Source\mbedtls_open\library/ccm.c ****      */
 295:Source\mbedtls_open\library/ccm.c ****     for( i = 0; i < q; i++ )
 296:Source\mbedtls_open\library/ccm.c ****         ctr[15-i] = 0;
 591              		.loc 1 296 0 discriminator 3
 592 02c6 0F22     		movs	r2, #15
 593 02c8 D21A     		subs	r2, r2, r3
 594 02ca 0020     		movs	r0, #0
 595 02cc 07A9     		add	r1, sp, #28
 596 02ce 8854     		strb	r0, [r1, r2]
 295:Source\mbedtls_open\library/ccm.c ****         ctr[15-i] = 0;
 597              		.loc 1 295 0 discriminator 3
 598 02d0 0133     		adds	r3, r3, #1
 599              	.LVL95:
 600 02d2 DBB2     		uxtb	r3, r3
 601              	.LVL96:
 602              	.L31:
 295:Source\mbedtls_open\library/ccm.c ****         ctr[15-i] = 0;
 603              		.loc 1 295 0 is_stmt 0 discriminator 1
 604 02d4 A342     		cmp	r3, r4
 605 02d6 F6D3     		bcc	.L32
 297:Source\mbedtls_open\library/ccm.c **** 
 298:Source\mbedtls_open\library/ccm.c ****     CTR_CRYPT( y, y, 16 );
 606              		.loc 1 298 0 is_stmt 1
ARM GAS  C:\Users\Phuong\AppData\Local\Temp\ccOlY5Ml.s 			page 17


 607 02d8 13AB     		add	r3, sp, #76
 608              	.LVL97:
 609 02da 0093     		str	r3, [sp]
 610 02dc 0FAB     		add	r3, sp, #60
 611 02de 1022     		movs	r2, #16
 612 02e0 07A9     		add	r1, sp, #28
 613 02e2 0498     		ldr	r0, [sp, #16]
 614 02e4 FFF7FEFF 		bl	mbedtls_cipher_update
 615              	.LVL98:
 616 02e8 0028     		cmp	r0, #0
 617 02ea 23D1     		bne	.L2
 618 02ec 0023     		movs	r3, #0
 619 02ee 07E0     		b	.L33
 620              	.LVL99:
 621              	.L34:
 622              		.loc 1 298 0 is_stmt 0 discriminator 5
 623 02f0 0BA9     		add	r1, sp, #44
 624 02f2 C85C     		ldrb	r0, [r1, r3]
 625 02f4 0FAA     		add	r2, sp, #60
 626 02f6 D25C     		ldrb	r2, [r2, r3]
 627 02f8 4240     		eors	r2, r0
 628 02fa CA54     		strb	r2, [r1, r3]
 629 02fc 0133     		adds	r3, r3, #1
 630              	.LVL100:
 631 02fe DBB2     		uxtb	r3, r3
 632              	.LVL101:
 633              	.L33:
 634              		.loc 1 298 0 discriminator 3
 635 0300 0F2B     		cmp	r3, #15
 636 0302 F5D9     		bls	.L34
 299:Source\mbedtls_open\library/ccm.c ****     memcpy( tag, y, tag_len );
 637              		.loc 1 299 0 is_stmt 1
 638 0304 249A     		ldr	r2, [sp, #144]
 639 0306 0BA9     		add	r1, sp, #44
 640 0308 2398     		ldr	r0, [sp, #140]
 641 030a FFF7FEFF 		bl	memcpy
 642              	.LVL102:
 300:Source\mbedtls_open\library/ccm.c **** 
 301:Source\mbedtls_open\library/ccm.c ****     return( 0 );
 643              		.loc 1 301 0
 644 030e 0020     		movs	r0, #0
 645 0310 10E0     		b	.L2
 646              	.LVL103:
 647              	.L35:
 159:Source\mbedtls_open\library/ccm.c **** 
 648              		.loc 1 159 0
 649 0312 0D20     		movs	r0, #13
 650              	.LVL104:
 651 0314 4042     		rsbs	r0, r0, #0
 652 0316 0DE0     		b	.L2
 653              	.LVL105:
 654              	.L36:
 655 0318 0D20     		movs	r0, #13
 656              	.LVL106:
 657 031a 4042     		rsbs	r0, r0, #0
 658 031c 0AE0     		b	.L2
 659              	.LVL107:
ARM GAS  C:\Users\Phuong\AppData\Local\Temp\ccOlY5Ml.s 			page 18


 660              	.L37:
 661 031e 0D20     		movs	r0, #13
 662              	.LVL108:
 663 0320 4042     		rsbs	r0, r0, #0
 664 0322 07E0     		b	.L2
 665              	.LVL109:
 666              	.L38:
 163:Source\mbedtls_open\library/ccm.c **** 
 667              		.loc 1 163 0
 668 0324 0D20     		movs	r0, #13
 669              	.LVL110:
 670 0326 4042     		rsbs	r0, r0, #0
 671 0328 04E0     		b	.L2
 672              	.LVL111:
 673              	.L39:
 166:Source\mbedtls_open\library/ccm.c **** 
 674              		.loc 1 166 0
 675 032a 0D20     		movs	r0, #13
 676              	.LVL112:
 677 032c 4042     		rsbs	r0, r0, #0
 678 032e 01E0     		b	.L2
 679              	.LVL113:
 680              	.L41:
 193:Source\mbedtls_open\library/ccm.c **** 
 681              		.loc 1 193 0
 682 0330 0D20     		movs	r0, #13
 683 0332 4042     		rsbs	r0, r0, #0
 684              	.LVL114:
 685              	.L2:
 302:Source\mbedtls_open\library/ccm.c **** }
 686              		.loc 1 302 0
 687 0334 15B0     		add	sp, sp, #84
 688              		@ sp needed
 689              	.LVL115:
 690              	.LVL116:
 691 0336 3CBC     		pop	{r2, r3, r4, r5}
 692 0338 9046     		mov	r8, r2
 693 033a 9946     		mov	r9, r3
 694 033c A246     		mov	r10, r4
 695 033e AB46     		mov	fp, r5
 696 0340 F0BD     		pop	{r4, r5, r6, r7, pc}
 697              		.cfi_endproc
 698              	.LFE11:
 699              		.size	ccm_auth_crypt, .-ccm_auth_crypt
 700 0342 C046     		.section	.text.mbedtls_ccm_init,"ax",%progbits
 701              		.align	2
 702              		.global	mbedtls_ccm_init
 703              		.code	16
 704              		.thumb_func
 705              		.type	mbedtls_ccm_init, %function
 706              	mbedtls_ccm_init:
 707              	.LFB8:
  62:Source\mbedtls_open\library/ccm.c ****     memset( ctx, 0, sizeof( mbedtls_ccm_context ) );
 708              		.loc 1 62 0
 709              		.cfi_startproc
 710              		@ args = 0, pretend = 0, frame = 0
 711              		@ frame_needed = 0, uses_anonymous_args = 0
ARM GAS  C:\Users\Phuong\AppData\Local\Temp\ccOlY5Ml.s 			page 19


 712              	.LVL117:
 713 0000 10B5     		push	{r4, lr}
 714              		.cfi_def_cfa_offset 8
 715              		.cfi_offset 4, -8
 716              		.cfi_offset 14, -4
  63:Source\mbedtls_open\library/ccm.c **** }
 717              		.loc 1 63 0
 718 0002 4022     		movs	r2, #64
 719 0004 0021     		movs	r1, #0
 720 0006 FFF7FEFF 		bl	memset
 721              	.LVL118:
  64:Source\mbedtls_open\library/ccm.c **** 
 722              		.loc 1 64 0
 723              		@ sp needed
 724 000a 10BD     		pop	{r4, pc}
 725              		.cfi_endproc
 726              	.LFE8:
 727              		.size	mbedtls_ccm_init, .-mbedtls_ccm_init
 728              		.section	.text.mbedtls_ccm_setkey,"ax",%progbits
 729              		.align	2
 730              		.global	mbedtls_ccm_setkey
 731              		.code	16
 732              		.thumb_func
 733              		.type	mbedtls_ccm_setkey, %function
 734              	mbedtls_ccm_setkey:
 735              	.LFB9:
  70:Source\mbedtls_open\library/ccm.c ****     int ret;
 736              		.loc 1 70 0
 737              		.cfi_startproc
 738              		@ args = 0, pretend = 0, frame = 0
 739              		@ frame_needed = 0, uses_anonymous_args = 0
 740              	.LVL119:
 741 0000 F8B5     		push	{r3, r4, r5, r6, r7, lr}
 742              		.cfi_def_cfa_offset 24
 743              		.cfi_offset 3, -24
 744              		.cfi_offset 4, -20
 745              		.cfi_offset 5, -16
 746              		.cfi_offset 6, -12
 747              		.cfi_offset 7, -8
 748              		.cfi_offset 14, -4
 749 0002 0400     		movs	r4, r0
 750 0004 0800     		movs	r0, r1
 751              	.LVL120:
 752 0006 1600     		movs	r6, r2
 753 0008 1D00     		movs	r5, r3
  74:Source\mbedtls_open\library/ccm.c ****     if( cipher_info == NULL )
 754              		.loc 1 74 0
 755 000a 0122     		movs	r2, #1
 756              	.LVL121:
 757 000c 1900     		movs	r1, r3
 758              	.LVL122:
 759 000e FFF7FEFF 		bl	mbedtls_cipher_info_from_values
 760              	.LVL123:
 761 0012 071E     		subs	r7, r0, #0
 762              	.LVL124:
  75:Source\mbedtls_open\library/ccm.c ****         return( MBEDTLS_ERR_CCM_BAD_INPUT );
 763              		.loc 1 75 0
ARM GAS  C:\Users\Phuong\AppData\Local\Temp\ccOlY5Ml.s 			page 20


 764 0014 12D0     		beq	.L54
  78:Source\mbedtls_open\library/ccm.c ****         return( MBEDTLS_ERR_CCM_BAD_INPUT );
 765              		.loc 1 78 0
 766 0016 4369     		ldr	r3, [r0, #20]
 767 0018 102B     		cmp	r3, #16
 768 001a 12D1     		bne	.L55
  81:Source\mbedtls_open\library/ccm.c **** 
 769              		.loc 1 81 0
 770 001c 2000     		movs	r0, r4
 771              	.LVL125:
 772 001e FFF7FEFF 		bl	mbedtls_cipher_free
 773              	.LVL126:
  83:Source\mbedtls_open\library/ccm.c ****         return( ret );
 774              		.loc 1 83 0
 775 0022 3900     		movs	r1, r7
 776 0024 2000     		movs	r0, r4
 777 0026 FFF7FEFF 		bl	mbedtls_cipher_setup
 778              	.LVL127:
 779 002a 0028     		cmp	r0, #0
 780 002c 0BD1     		bne	.L53
  86:Source\mbedtls_open\library/ccm.c ****                                MBEDTLS_ENCRYPT ) ) != 0 )
 781              		.loc 1 86 0
 782 002e 0123     		movs	r3, #1
 783 0030 2A00     		movs	r2, r5
 784 0032 3100     		movs	r1, r6
 785 0034 2000     		movs	r0, r4
 786              	.LVL128:
 787 0036 FFF7FEFF 		bl	mbedtls_cipher_setkey
 788              	.LVL129:
 789 003a 04E0     		b	.L53
 790              	.LVL130:
 791              	.L54:
  76:Source\mbedtls_open\library/ccm.c **** 
 792              		.loc 1 76 0
 793 003c 0D20     		movs	r0, #13
 794              	.LVL131:
 795 003e 4042     		rsbs	r0, r0, #0
 796 0040 01E0     		b	.L53
 797              	.LVL132:
 798              	.L55:
  79:Source\mbedtls_open\library/ccm.c **** 
 799              		.loc 1 79 0
 800 0042 0D20     		movs	r0, #13
 801              	.LVL133:
 802 0044 4042     		rsbs	r0, r0, #0
 803              	.L53:
  93:Source\mbedtls_open\library/ccm.c **** 
 804              		.loc 1 93 0
 805              		@ sp needed
 806              	.LVL134:
 807              	.LVL135:
 808              	.LVL136:
 809              	.LVL137:
 810 0046 F8BD     		pop	{r3, r4, r5, r6, r7, pc}
 811              		.cfi_endproc
 812              	.LFE9:
 813              		.size	mbedtls_ccm_setkey, .-mbedtls_ccm_setkey
ARM GAS  C:\Users\Phuong\AppData\Local\Temp\ccOlY5Ml.s 			page 21


 814              		.section	.text.mbedtls_ccm_free,"ax",%progbits
 815              		.align	2
 816              		.global	mbedtls_ccm_free
 817              		.code	16
 818              		.thumb_func
 819              		.type	mbedtls_ccm_free, %function
 820              	mbedtls_ccm_free:
 821              	.LFB10:
  99:Source\mbedtls_open\library/ccm.c ****     mbedtls_cipher_free( &ctx->cipher_ctx );
 822              		.loc 1 99 0
 823              		.cfi_startproc
 824              		@ args = 0, pretend = 0, frame = 0
 825              		@ frame_needed = 0, uses_anonymous_args = 0
 826              	.LVL138:
 827 0000 10B5     		push	{r4, lr}
 828              		.cfi_def_cfa_offset 8
 829              		.cfi_offset 4, -8
 830              		.cfi_offset 14, -4
 831 0002 0400     		movs	r4, r0
 100:Source\mbedtls_open\library/ccm.c ****     mbedtls_platform_zeroize( ctx, sizeof( mbedtls_ccm_context ) );
 832              		.loc 1 100 0
 833 0004 FFF7FEFF 		bl	mbedtls_cipher_free
 834              	.LVL139:
 101:Source\mbedtls_open\library/ccm.c **** }
 835              		.loc 1 101 0
 836 0008 4021     		movs	r1, #64
 837 000a 2000     		movs	r0, r4
 838 000c FFF7FEFF 		bl	mbedtls_platform_zeroize
 839              	.LVL140:
 102:Source\mbedtls_open\library/ccm.c **** 
 840              		.loc 1 102 0
 841              		@ sp needed
 842              	.LVL141:
 843 0010 10BD     		pop	{r4, pc}
 844              		.cfi_endproc
 845              	.LFE10:
 846              		.size	mbedtls_ccm_free, .-mbedtls_ccm_free
 847 0012 C046     		.section	.text.mbedtls_ccm_star_encrypt_and_tag,"ax",%progbits
 848              		.align	2
 849              		.global	mbedtls_ccm_star_encrypt_and_tag
 850              		.code	16
 851              		.thumb_func
 852              		.type	mbedtls_ccm_star_encrypt_and_tag, %function
 853              	mbedtls_ccm_star_encrypt_and_tag:
 854              	.LFB12:
 303:Source\mbedtls_open\library/ccm.c **** 
 304:Source\mbedtls_open\library/ccm.c **** /*
 305:Source\mbedtls_open\library/ccm.c ****  * Authenticated encryption
 306:Source\mbedtls_open\library/ccm.c ****  */
 307:Source\mbedtls_open\library/ccm.c **** int mbedtls_ccm_star_encrypt_and_tag( mbedtls_ccm_context *ctx, size_t length,
 308:Source\mbedtls_open\library/ccm.c ****                          const unsigned char *iv, size_t iv_len,
 309:Source\mbedtls_open\library/ccm.c ****                          const unsigned char *add, size_t add_len,
 310:Source\mbedtls_open\library/ccm.c ****                          const unsigned char *input, unsigned char *output,
 311:Source\mbedtls_open\library/ccm.c ****                          unsigned char *tag, size_t tag_len )
 312:Source\mbedtls_open\library/ccm.c **** {
 855              		.loc 1 312 0
 856              		.cfi_startproc
ARM GAS  C:\Users\Phuong\AppData\Local\Temp\ccOlY5Ml.s 			page 22


 857              		@ args = 24, pretend = 0, frame = 0
 858              		@ frame_needed = 0, uses_anonymous_args = 0
 859              	.LVL142:
 860 0000 10B5     		push	{r4, lr}
 861              		.cfi_def_cfa_offset 8
 862              		.cfi_offset 4, -8
 863              		.cfi_offset 14, -4
 864 0002 88B0     		sub	sp, sp, #32
 865              		.cfi_def_cfa_offset 40
 313:Source\mbedtls_open\library/ccm.c ****     return( ccm_auth_crypt( ctx, CCM_ENCRYPT, length, iv, iv_len,
 866              		.loc 1 313 0
 867 0004 0F9C     		ldr	r4, [sp, #60]
 868 0006 0694     		str	r4, [sp, #24]
 869 0008 0E9C     		ldr	r4, [sp, #56]
 870 000a 0594     		str	r4, [sp, #20]
 871 000c 0D9C     		ldr	r4, [sp, #52]
 872 000e 0494     		str	r4, [sp, #16]
 873 0010 0C9C     		ldr	r4, [sp, #48]
 874 0012 0394     		str	r4, [sp, #12]
 875 0014 0B9C     		ldr	r4, [sp, #44]
 876 0016 0294     		str	r4, [sp, #8]
 877 0018 0A9C     		ldr	r4, [sp, #40]
 878 001a 0194     		str	r4, [sp, #4]
 879 001c 0093     		str	r3, [sp]
 880 001e 1300     		movs	r3, r2
 881              	.LVL143:
 882 0020 0A00     		movs	r2, r1
 883              	.LVL144:
 884 0022 0021     		movs	r1, #0
 885              	.LVL145:
 886 0024 FFF7FEFF 		bl	ccm_auth_crypt
 887              	.LVL146:
 314:Source\mbedtls_open\library/ccm.c ****                             add, add_len, input, output, tag, tag_len ) );
 315:Source\mbedtls_open\library/ccm.c **** }
 888              		.loc 1 315 0
 889 0028 08B0     		add	sp, sp, #32
 890              		@ sp needed
 891 002a 10BD     		pop	{r4, pc}
 892              		.cfi_endproc
 893              	.LFE12:
 894              		.size	mbedtls_ccm_star_encrypt_and_tag, .-mbedtls_ccm_star_encrypt_and_tag
 895              		.section	.text.mbedtls_ccm_encrypt_and_tag,"ax",%progbits
 896              		.align	2
 897              		.global	mbedtls_ccm_encrypt_and_tag
 898              		.code	16
 899              		.thumb_func
 900              		.type	mbedtls_ccm_encrypt_and_tag, %function
 901              	mbedtls_ccm_encrypt_and_tag:
 902              	.LFB13:
 316:Source\mbedtls_open\library/ccm.c **** 
 317:Source\mbedtls_open\library/ccm.c **** int mbedtls_ccm_encrypt_and_tag( mbedtls_ccm_context *ctx, size_t length,
 318:Source\mbedtls_open\library/ccm.c ****                          const unsigned char *iv, size_t iv_len,
 319:Source\mbedtls_open\library/ccm.c ****                          const unsigned char *add, size_t add_len,
 320:Source\mbedtls_open\library/ccm.c ****                          const unsigned char *input, unsigned char *output,
 321:Source\mbedtls_open\library/ccm.c ****                          unsigned char *tag, size_t tag_len )
 322:Source\mbedtls_open\library/ccm.c **** {
 903              		.loc 1 322 0
ARM GAS  C:\Users\Phuong\AppData\Local\Temp\ccOlY5Ml.s 			page 23


 904              		.cfi_startproc
 905              		@ args = 24, pretend = 0, frame = 0
 906              		@ frame_needed = 0, uses_anonymous_args = 0
 907              	.LVL147:
 908 0000 10B5     		push	{r4, lr}
 909              		.cfi_def_cfa_offset 8
 910              		.cfi_offset 4, -8
 911              		.cfi_offset 14, -4
 912 0002 86B0     		sub	sp, sp, #24
 913              		.cfi_def_cfa_offset 32
 323:Source\mbedtls_open\library/ccm.c ****     if( tag_len == 0 )
 914              		.loc 1 323 0
 915 0004 0D9C     		ldr	r4, [sp, #52]
 916 0006 002C     		cmp	r4, #0
 917 0008 0DD0     		beq	.L62
 324:Source\mbedtls_open\library/ccm.c ****         return( MBEDTLS_ERR_CCM_BAD_INPUT );
 325:Source\mbedtls_open\library/ccm.c **** 
 326:Source\mbedtls_open\library/ccm.c ****     return( mbedtls_ccm_star_encrypt_and_tag( ctx, length, iv, iv_len, add,
 918              		.loc 1 326 0
 919 000a 0594     		str	r4, [sp, #20]
 920 000c 0C9C     		ldr	r4, [sp, #48]
 921 000e 0494     		str	r4, [sp, #16]
 922 0010 0B9C     		ldr	r4, [sp, #44]
 923 0012 0394     		str	r4, [sp, #12]
 924 0014 0A9C     		ldr	r4, [sp, #40]
 925 0016 0294     		str	r4, [sp, #8]
 926 0018 099C     		ldr	r4, [sp, #36]
 927 001a 0194     		str	r4, [sp, #4]
 928 001c 089C     		ldr	r4, [sp, #32]
 929 001e 0094     		str	r4, [sp]
 930 0020 FFF7FEFF 		bl	mbedtls_ccm_star_encrypt_and_tag
 931              	.LVL148:
 932 0024 01E0     		b	.L61
 933              	.LVL149:
 934              	.L62:
 324:Source\mbedtls_open\library/ccm.c ****         return( MBEDTLS_ERR_CCM_BAD_INPUT );
 935              		.loc 1 324 0
 936 0026 0D20     		movs	r0, #13
 937              	.LVL150:
 938 0028 4042     		rsbs	r0, r0, #0
 939              	.LVL151:
 940              	.L61:
 327:Source\mbedtls_open\library/ccm.c ****                 add_len, input, output, tag, tag_len ) );
 328:Source\mbedtls_open\library/ccm.c **** }
 941              		.loc 1 328 0
 942 002a 06B0     		add	sp, sp, #24
 943              		@ sp needed
 944 002c 10BD     		pop	{r4, pc}
 945              		.cfi_endproc
 946              	.LFE13:
 947              		.size	mbedtls_ccm_encrypt_and_tag, .-mbedtls_ccm_encrypt_and_tag
 948 002e C046     		.section	.text.mbedtls_ccm_star_auth_decrypt,"ax",%progbits
 949              		.align	2
 950              		.global	mbedtls_ccm_star_auth_decrypt
 951              		.code	16
 952              		.thumb_func
 953              		.type	mbedtls_ccm_star_auth_decrypt, %function
ARM GAS  C:\Users\Phuong\AppData\Local\Temp\ccOlY5Ml.s 			page 24


 954              	mbedtls_ccm_star_auth_decrypt:
 955              	.LFB14:
 329:Source\mbedtls_open\library/ccm.c **** 
 330:Source\mbedtls_open\library/ccm.c **** /*
 331:Source\mbedtls_open\library/ccm.c ****  * Authenticated decryption
 332:Source\mbedtls_open\library/ccm.c ****  */
 333:Source\mbedtls_open\library/ccm.c **** int mbedtls_ccm_star_auth_decrypt( mbedtls_ccm_context *ctx, size_t length,
 334:Source\mbedtls_open\library/ccm.c ****                       const unsigned char *iv, size_t iv_len,
 335:Source\mbedtls_open\library/ccm.c ****                       const unsigned char *add, size_t add_len,
 336:Source\mbedtls_open\library/ccm.c ****                       const unsigned char *input, unsigned char *output,
 337:Source\mbedtls_open\library/ccm.c ****                       const unsigned char *tag, size_t tag_len )
 338:Source\mbedtls_open\library/ccm.c **** {
 956              		.loc 1 338 0
 957              		.cfi_startproc
 958              		@ args = 24, pretend = 0, frame = 16
 959              		@ frame_needed = 0, uses_anonymous_args = 0
 960              	.LVL152:
 961 0000 70B5     		push	{r4, r5, r6, lr}
 962              		.cfi_def_cfa_offset 16
 963              		.cfi_offset 4, -16
 964              		.cfi_offset 5, -12
 965              		.cfi_offset 6, -8
 966              		.cfi_offset 14, -4
 967 0002 8CB0     		sub	sp, sp, #48
 968              		.cfi_def_cfa_offset 64
 969 0004 0C00     		movs	r4, r1
 970 0006 149E     		ldr	r6, [sp, #80]
 971 0008 159D     		ldr	r5, [sp, #84]
 339:Source\mbedtls_open\library/ccm.c ****     int ret;
 340:Source\mbedtls_open\library/ccm.c ****     unsigned char check_tag[16];
 341:Source\mbedtls_open\library/ccm.c ****     unsigned char i;
 342:Source\mbedtls_open\library/ccm.c ****     int diff;
 343:Source\mbedtls_open\library/ccm.c **** 
 344:Source\mbedtls_open\library/ccm.c ****     if( ( ret = ccm_auth_crypt( ctx, CCM_DECRYPT, length,
 972              		.loc 1 344 0
 973 000a 0695     		str	r5, [sp, #24]
 974 000c 08A9     		add	r1, sp, #32
 975              	.LVL153:
 976 000e 0591     		str	r1, [sp, #20]
 977 0010 1399     		ldr	r1, [sp, #76]
 978 0012 0491     		str	r1, [sp, #16]
 979 0014 1299     		ldr	r1, [sp, #72]
 980 0016 0391     		str	r1, [sp, #12]
 981 0018 1199     		ldr	r1, [sp, #68]
 982 001a 0291     		str	r1, [sp, #8]
 983 001c 1099     		ldr	r1, [sp, #64]
 984 001e 0191     		str	r1, [sp, #4]
 985 0020 0093     		str	r3, [sp]
 986 0022 1300     		movs	r3, r2
 987              	.LVL154:
 988 0024 2200     		movs	r2, r4
 989              	.LVL155:
 990 0026 0121     		movs	r1, #1
 991 0028 FFF7FEFF 		bl	ccm_auth_crypt
 992              	.LVL156:
 993 002c 0028     		cmp	r0, #0
 994 002e 15D1     		bne	.L64
ARM GAS  C:\Users\Phuong\AppData\Local\Temp\ccOlY5Ml.s 			page 25


 995 0030 0021     		movs	r1, #0
 996 0032 0023     		movs	r3, #0
 997 0034 06E0     		b	.L65
 998              	.LVL157:
 999              	.L66:
 345:Source\mbedtls_open\library/ccm.c ****                                 iv, iv_len, add, add_len,
 346:Source\mbedtls_open\library/ccm.c ****                                 input, output, check_tag, tag_len ) ) != 0 )
 347:Source\mbedtls_open\library/ccm.c ****     {
 348:Source\mbedtls_open\library/ccm.c ****         return( ret );
 349:Source\mbedtls_open\library/ccm.c ****     }
 350:Source\mbedtls_open\library/ccm.c **** 
 351:Source\mbedtls_open\library/ccm.c ****     /* Check tag in "constant-time" */
 352:Source\mbedtls_open\library/ccm.c ****     for( diff = 0, i = 0; i < tag_len; i++ )
 353:Source\mbedtls_open\library/ccm.c ****         diff |= tag[i] ^ check_tag[i];
 1000              		.loc 1 353 0 discriminator 3
 1001 0036 F05C     		ldrb	r0, [r6, r3]
 1002 0038 08AA     		add	r2, sp, #32
 1003 003a D25C     		ldrb	r2, [r2, r3]
 1004 003c 4240     		eors	r2, r0
 1005 003e 1143     		orrs	r1, r2
 1006              	.LVL158:
 352:Source\mbedtls_open\library/ccm.c ****         diff |= tag[i] ^ check_tag[i];
 1007              		.loc 1 352 0 discriminator 3
 1008 0040 0133     		adds	r3, r3, #1
 1009              	.LVL159:
 1010 0042 DBB2     		uxtb	r3, r3
 1011              	.LVL160:
 1012              	.L65:
 352:Source\mbedtls_open\library/ccm.c ****         diff |= tag[i] ^ check_tag[i];
 1013              		.loc 1 352 0 is_stmt 0 discriminator 1
 1014 0044 9D42     		cmp	r5, r3
 1015 0046 F6D8     		bhi	.L66
 354:Source\mbedtls_open\library/ccm.c **** 
 355:Source\mbedtls_open\library/ccm.c ****     if( diff != 0 )
 1016              		.loc 1 355 0 is_stmt 1
 1017 0048 0029     		cmp	r1, #0
 1018 004a 06D0     		beq	.L68
 356:Source\mbedtls_open\library/ccm.c ****     {
 357:Source\mbedtls_open\library/ccm.c ****         mbedtls_platform_zeroize( output, length );
 1019              		.loc 1 357 0
 1020 004c 2100     		movs	r1, r4
 1021              	.LVL161:
 1022 004e 1398     		ldr	r0, [sp, #76]
 1023 0050 FFF7FEFF 		bl	mbedtls_platform_zeroize
 1024              	.LVL162:
 358:Source\mbedtls_open\library/ccm.c ****         return( MBEDTLS_ERR_CCM_AUTH_FAILED );
 1025              		.loc 1 358 0
 1026 0054 0F20     		movs	r0, #15
 1027 0056 4042     		rsbs	r0, r0, #0
 1028 0058 00E0     		b	.L64
 1029              	.LVL163:
 1030              	.L68:
 359:Source\mbedtls_open\library/ccm.c ****     }
 360:Source\mbedtls_open\library/ccm.c **** 
 361:Source\mbedtls_open\library/ccm.c ****     return( 0 );
 1031              		.loc 1 361 0
 1032 005a 0020     		movs	r0, #0
ARM GAS  C:\Users\Phuong\AppData\Local\Temp\ccOlY5Ml.s 			page 26


 1033              	.LVL164:
 1034              	.L64:
 362:Source\mbedtls_open\library/ccm.c **** }
 1035              		.loc 1 362 0
 1036 005c 0CB0     		add	sp, sp, #48
 1037              		@ sp needed
 1038              	.LVL165:
 1039 005e 70BD     		pop	{r4, r5, r6, pc}
 1040              		.cfi_endproc
 1041              	.LFE14:
 1042              		.size	mbedtls_ccm_star_auth_decrypt, .-mbedtls_ccm_star_auth_decrypt
 1043              		.section	.text.mbedtls_ccm_auth_decrypt,"ax",%progbits
 1044              		.align	2
 1045              		.global	mbedtls_ccm_auth_decrypt
 1046              		.code	16
 1047              		.thumb_func
 1048              		.type	mbedtls_ccm_auth_decrypt, %function
 1049              	mbedtls_ccm_auth_decrypt:
 1050              	.LFB15:
 363:Source\mbedtls_open\library/ccm.c **** 
 364:Source\mbedtls_open\library/ccm.c **** int mbedtls_ccm_auth_decrypt( mbedtls_ccm_context *ctx, size_t length,
 365:Source\mbedtls_open\library/ccm.c ****                       const unsigned char *iv, size_t iv_len,
 366:Source\mbedtls_open\library/ccm.c ****                       const unsigned char *add, size_t add_len,
 367:Source\mbedtls_open\library/ccm.c ****                       const unsigned char *input, unsigned char *output,
 368:Source\mbedtls_open\library/ccm.c ****                       const unsigned char *tag, size_t tag_len )
 369:Source\mbedtls_open\library/ccm.c **** {
 1051              		.loc 1 369 0
 1052              		.cfi_startproc
 1053              		@ args = 24, pretend = 0, frame = 0
 1054              		@ frame_needed = 0, uses_anonymous_args = 0
 1055              	.LVL166:
 1056 0000 10B5     		push	{r4, lr}
 1057              		.cfi_def_cfa_offset 8
 1058              		.cfi_offset 4, -8
 1059              		.cfi_offset 14, -4
 1060 0002 86B0     		sub	sp, sp, #24
 1061              		.cfi_def_cfa_offset 32
 370:Source\mbedtls_open\library/ccm.c ****     if( tag_len == 0 )
 1062              		.loc 1 370 0
 1063 0004 0D9C     		ldr	r4, [sp, #52]
 1064 0006 002C     		cmp	r4, #0
 1065 0008 0DD0     		beq	.L71
 371:Source\mbedtls_open\library/ccm.c ****         return( MBEDTLS_ERR_CCM_BAD_INPUT );
 372:Source\mbedtls_open\library/ccm.c **** 
 373:Source\mbedtls_open\library/ccm.c ****     return( mbedtls_ccm_star_auth_decrypt( ctx, length, iv, iv_len, add,
 1066              		.loc 1 373 0
 1067 000a 0594     		str	r4, [sp, #20]
 1068 000c 0C9C     		ldr	r4, [sp, #48]
 1069 000e 0494     		str	r4, [sp, #16]
 1070 0010 0B9C     		ldr	r4, [sp, #44]
 1071 0012 0394     		str	r4, [sp, #12]
 1072 0014 0A9C     		ldr	r4, [sp, #40]
 1073 0016 0294     		str	r4, [sp, #8]
 1074 0018 099C     		ldr	r4, [sp, #36]
 1075 001a 0194     		str	r4, [sp, #4]
 1076 001c 089C     		ldr	r4, [sp, #32]
 1077 001e 0094     		str	r4, [sp]
ARM GAS  C:\Users\Phuong\AppData\Local\Temp\ccOlY5Ml.s 			page 27


 1078 0020 FFF7FEFF 		bl	mbedtls_ccm_star_auth_decrypt
 1079              	.LVL167:
 1080 0024 01E0     		b	.L70
 1081              	.LVL168:
 1082              	.L71:
 371:Source\mbedtls_open\library/ccm.c ****         return( MBEDTLS_ERR_CCM_BAD_INPUT );
 1083              		.loc 1 371 0
 1084 0026 0D20     		movs	r0, #13
 1085              	.LVL169:
 1086 0028 4042     		rsbs	r0, r0, #0
 1087              	.LVL170:
 1088              	.L70:
 374:Source\mbedtls_open\library/ccm.c ****                 add_len, input, output, tag, tag_len ) );
 375:Source\mbedtls_open\library/ccm.c **** }
 1089              		.loc 1 375 0
 1090 002a 06B0     		add	sp, sp, #24
 1091              		@ sp needed
 1092 002c 10BD     		pop	{r4, pc}
 1093              		.cfi_endproc
 1094              	.LFE15:
 1095              		.size	mbedtls_ccm_auth_decrypt, .-mbedtls_ccm_auth_decrypt
 1096 002e C046     		.section	.text.mbedtls_ccm_self_test,"ax",%progbits
 1097              		.align	2
 1098              		.global	mbedtls_ccm_self_test
 1099              		.code	16
 1100              		.thumb_func
 1101              		.type	mbedtls_ccm_self_test, %function
 1102              	mbedtls_ccm_self_test:
 1103              	.LFB16:
 376:Source\mbedtls_open\library/ccm.c **** #endif /* !MBEDTLS_CCM_ALT */
 377:Source\mbedtls_open\library/ccm.c **** 
 378:Source\mbedtls_open\library/ccm.c **** #if defined(MBEDTLS_SELF_TEST) && defined(MBEDTLS_AES_C)
 379:Source\mbedtls_open\library/ccm.c **** /*
 380:Source\mbedtls_open\library/ccm.c ****  * Examples 1 to 3 from SP800-38C Appendix C
 381:Source\mbedtls_open\library/ccm.c ****  */
 382:Source\mbedtls_open\library/ccm.c **** 
 383:Source\mbedtls_open\library/ccm.c **** #define NB_TESTS 3
 384:Source\mbedtls_open\library/ccm.c **** #define CCM_SELFTEST_PT_MAX_LEN 24
 385:Source\mbedtls_open\library/ccm.c **** #define CCM_SELFTEST_CT_MAX_LEN 32
 386:Source\mbedtls_open\library/ccm.c **** /*
 387:Source\mbedtls_open\library/ccm.c ****  * The data is the same for all tests, only the used length changes
 388:Source\mbedtls_open\library/ccm.c ****  */
 389:Source\mbedtls_open\library/ccm.c **** static const unsigned char key[] = {
 390:Source\mbedtls_open\library/ccm.c ****     0x40, 0x41, 0x42, 0x43, 0x44, 0x45, 0x46, 0x47,
 391:Source\mbedtls_open\library/ccm.c ****     0x48, 0x49, 0x4a, 0x4b, 0x4c, 0x4d, 0x4e, 0x4f
 392:Source\mbedtls_open\library/ccm.c **** };
 393:Source\mbedtls_open\library/ccm.c **** 
 394:Source\mbedtls_open\library/ccm.c **** static const unsigned char iv[] = {
 395:Source\mbedtls_open\library/ccm.c ****     0x10, 0x11, 0x12, 0x13, 0x14, 0x15, 0x16, 0x17,
 396:Source\mbedtls_open\library/ccm.c ****     0x18, 0x19, 0x1a, 0x1b
 397:Source\mbedtls_open\library/ccm.c **** };
 398:Source\mbedtls_open\library/ccm.c **** 
 399:Source\mbedtls_open\library/ccm.c **** static const unsigned char ad[] = {
 400:Source\mbedtls_open\library/ccm.c ****     0x00, 0x01, 0x02, 0x03, 0x04, 0x05, 0x06, 0x07,
 401:Source\mbedtls_open\library/ccm.c ****     0x08, 0x09, 0x0a, 0x0b, 0x0c, 0x0d, 0x0e, 0x0f,
 402:Source\mbedtls_open\library/ccm.c ****     0x10, 0x11, 0x12, 0x13
 403:Source\mbedtls_open\library/ccm.c **** };
ARM GAS  C:\Users\Phuong\AppData\Local\Temp\ccOlY5Ml.s 			page 28


 404:Source\mbedtls_open\library/ccm.c **** 
 405:Source\mbedtls_open\library/ccm.c **** static const unsigned char msg[CCM_SELFTEST_PT_MAX_LEN] = {
 406:Source\mbedtls_open\library/ccm.c ****     0x20, 0x21, 0x22, 0x23, 0x24, 0x25, 0x26, 0x27,
 407:Source\mbedtls_open\library/ccm.c ****     0x28, 0x29, 0x2a, 0x2b, 0x2c, 0x2d, 0x2e, 0x2f,
 408:Source\mbedtls_open\library/ccm.c ****     0x30, 0x31, 0x32, 0x33, 0x34, 0x35, 0x36, 0x37,
 409:Source\mbedtls_open\library/ccm.c **** };
 410:Source\mbedtls_open\library/ccm.c **** 
 411:Source\mbedtls_open\library/ccm.c **** static const size_t iv_len [NB_TESTS] = { 7, 8,  12 };
 412:Source\mbedtls_open\library/ccm.c **** static const size_t add_len[NB_TESTS] = { 8, 16, 20 };
 413:Source\mbedtls_open\library/ccm.c **** static const size_t msg_len[NB_TESTS] = { 4, 16, 24 };
 414:Source\mbedtls_open\library/ccm.c **** static const size_t tag_len[NB_TESTS] = { 4, 6,  8  };
 415:Source\mbedtls_open\library/ccm.c **** 
 416:Source\mbedtls_open\library/ccm.c **** static const unsigned char res[NB_TESTS][CCM_SELFTEST_CT_MAX_LEN] = {
 417:Source\mbedtls_open\library/ccm.c ****     {   0x71, 0x62, 0x01, 0x5b, 0x4d, 0xac, 0x25, 0x5d },
 418:Source\mbedtls_open\library/ccm.c ****     {   0xd2, 0xa1, 0xf0, 0xe0, 0x51, 0xea, 0x5f, 0x62,
 419:Source\mbedtls_open\library/ccm.c ****         0x08, 0x1a, 0x77, 0x92, 0x07, 0x3d, 0x59, 0x3d,
 420:Source\mbedtls_open\library/ccm.c ****         0x1f, 0xc6, 0x4f, 0xbf, 0xac, 0xcd },
 421:Source\mbedtls_open\library/ccm.c ****     {   0xe3, 0xb2, 0x01, 0xa9, 0xf5, 0xb7, 0x1a, 0x7a,
 422:Source\mbedtls_open\library/ccm.c ****         0x9b, 0x1c, 0xea, 0xec, 0xcd, 0x97, 0xe7, 0x0b,
 423:Source\mbedtls_open\library/ccm.c ****         0x61, 0x76, 0xaa, 0xd9, 0xa4, 0x42, 0x8a, 0xa5,
 424:Source\mbedtls_open\library/ccm.c ****         0x48, 0x43, 0x92, 0xfb, 0xc1, 0xb0, 0x99, 0x51 }
 425:Source\mbedtls_open\library/ccm.c **** };
 426:Source\mbedtls_open\library/ccm.c **** 
 427:Source\mbedtls_open\library/ccm.c **** int mbedtls_ccm_self_test( int verbose )
 428:Source\mbedtls_open\library/ccm.c **** {
 1104              		.loc 1 428 0
 1105              		.cfi_startproc
 1106              		@ args = 0, pretend = 0, frame = 128
 1107              		@ frame_needed = 0, uses_anonymous_args = 0
 1108              	.LVL171:
 1109 0000 F0B5     		push	{r4, r5, r6, r7, lr}
 1110              		.cfi_def_cfa_offset 20
 1111              		.cfi_offset 4, -20
 1112              		.cfi_offset 5, -16
 1113              		.cfi_offset 6, -12
 1114              		.cfi_offset 7, -8
 1115              		.cfi_offset 14, -4
 1116 0002 5F46     		mov	r7, fp
 1117 0004 5646     		mov	r6, r10
 1118 0006 4D46     		mov	r5, r9
 1119 0008 4446     		mov	r4, r8
 1120 000a F0B4     		push	{r4, r5, r6, r7}
 1121              		.cfi_def_cfa_offset 36
 1122              		.cfi_offset 8, -36
 1123              		.cfi_offset 9, -32
 1124              		.cfi_offset 10, -28
 1125              		.cfi_offset 11, -24
 1126 000c A7B0     		sub	sp, sp, #156
 1127              		.cfi_def_cfa_offset 192
 1128 000e 8146     		mov	r9, r0
 429:Source\mbedtls_open\library/ccm.c ****     mbedtls_ccm_context ctx;
 430:Source\mbedtls_open\library/ccm.c ****     /*
 431:Source\mbedtls_open\library/ccm.c ****      * Some hardware accelerators require the input and output buffers
 432:Source\mbedtls_open\library/ccm.c ****      * would be in RAM, because the flash is not accessible.
 433:Source\mbedtls_open\library/ccm.c ****      * Use buffers on the stack to hold the test vectors data.
 434:Source\mbedtls_open\library/ccm.c ****      */
 435:Source\mbedtls_open\library/ccm.c ****     unsigned char plaintext[CCM_SELFTEST_PT_MAX_LEN];
ARM GAS  C:\Users\Phuong\AppData\Local\Temp\ccOlY5Ml.s 			page 29


 436:Source\mbedtls_open\library/ccm.c ****     unsigned char ciphertext[CCM_SELFTEST_CT_MAX_LEN];
 437:Source\mbedtls_open\library/ccm.c ****     size_t i;
 438:Source\mbedtls_open\library/ccm.c ****     int ret;
 439:Source\mbedtls_open\library/ccm.c **** 
 440:Source\mbedtls_open\library/ccm.c ****     mbedtls_ccm_init( &ctx );
 1129              		.loc 1 440 0
 1130 0010 16A8     		add	r0, sp, #88
 1131              	.LVL172:
 1132 0012 FFF7FEFF 		bl	mbedtls_ccm_init
 1133              	.LVL173:
 441:Source\mbedtls_open\library/ccm.c **** 
 442:Source\mbedtls_open\library/ccm.c ****     if( mbedtls_ccm_setkey( &ctx, MBEDTLS_CIPHER_ID_AES, key, 8 * sizeof key ) != 0 )
 1134              		.loc 1 442 0
 1135 0016 8023     		movs	r3, #128
 1136 0018 564A     		ldr	r2, .L86
 1137 001a 0221     		movs	r1, #2
 1138 001c 16A8     		add	r0, sp, #88
 1139 001e FFF7FEFF 		bl	mbedtls_ccm_setkey
 1140              	.LVL174:
 1141 0022 0690     		str	r0, [sp, #24]
 1142 0024 0028     		cmp	r0, #0
 1143 0026 00D1     		bne	.LCB1326
 1144 0028 86E0     		b	.L82	@long jump
 1145              	.LCB1326:
 443:Source\mbedtls_open\library/ccm.c ****     {
 444:Source\mbedtls_open\library/ccm.c ****         if( verbose != 0 )
 1146              		.loc 1 444 0
 1147 002a 4B46     		mov	r3, r9
 1148 002c 002B     		cmp	r3, #0
 1149 002e 00D1     		bne	.LCB1329
 1150 0030 90E0     		b	.L83	@long jump
 1151              	.LCB1329:
 445:Source\mbedtls_open\library/ccm.c ****             mbedtls_printf( "  CCM: setup failed" );
 1152              		.loc 1 445 0
 1153 0032 5148     		ldr	r0, .L86+4
 1154 0034 FFF7FEFF 		bl	printf
 1155              	.LVL175:
 446:Source\mbedtls_open\library/ccm.c **** 
 447:Source\mbedtls_open\library/ccm.c ****         return( 1 );
 1156              		.loc 1 447 0
 1157 0038 0123     		movs	r3, #1
 1158 003a 0693     		str	r3, [sp, #24]
 1159 003c 92E0     		b	.L74
 1160              	.LVL176:
 1161              	.L81:
 448:Source\mbedtls_open\library/ccm.c ****     }
 449:Source\mbedtls_open\library/ccm.c **** 
 450:Source\mbedtls_open\library/ccm.c ****     for( i = 0; i < NB_TESTS; i++ )
 451:Source\mbedtls_open\library/ccm.c ****     {
 452:Source\mbedtls_open\library/ccm.c ****         if( verbose != 0 )
 1162              		.loc 1 452 0
 1163 003e 4B46     		mov	r3, r9
 1164 0040 002B     		cmp	r3, #0
 1165 0042 03D0     		beq	.L75
 1166              	.LVL177:
 453:Source\mbedtls_open\library/ccm.c ****             mbedtls_printf( "  CCM-AES #%u: ", (unsigned int) i + 1 );
 1167              		.loc 1 453 0
ARM GAS  C:\Users\Phuong\AppData\Local\Temp\ccOlY5Ml.s 			page 30


 1168 0044 791C     		adds	r1, r7, #1
 1169 0046 4D48     		ldr	r0, .L86+8
 1170 0048 FFF7FEFF 		bl	printf
 1171              	.LVL178:
 1172              	.L75:
 454:Source\mbedtls_open\library/ccm.c **** 
 455:Source\mbedtls_open\library/ccm.c ****         memset( plaintext, 0, CCM_SELFTEST_PT_MAX_LEN );
 1173              		.loc 1 455 0
 1174 004c 1822     		movs	r2, #24
 1175 004e 0021     		movs	r1, #0
 1176 0050 10A8     		add	r0, sp, #64
 1177 0052 FFF7FEFF 		bl	memset
 1178              	.LVL179:
 456:Source\mbedtls_open\library/ccm.c ****         memset( ciphertext, 0, CCM_SELFTEST_CT_MAX_LEN );
 1179              		.loc 1 456 0
 1180 0056 08AB     		add	r3, sp, #32
 1181 0058 9846     		mov	r8, r3
 1182 005a 2022     		movs	r2, #32
 1183 005c 0021     		movs	r1, #0
 1184 005e 1800     		movs	r0, r3
 1185 0060 FFF7FEFF 		bl	memset
 1186              	.LVL180:
 457:Source\mbedtls_open\library/ccm.c ****         memcpy( plaintext, msg, msg_len[i] );
 1187              		.loc 1 457 0
 1188 0064 434C     		ldr	r4, .L86
 1189 0066 BD00     		lsls	r5, r7, #2
 1190 0068 6519     		adds	r5, r4, r5
 1191 006a 2E69     		ldr	r6, [r5, #16]
 1192 006c 2100     		movs	r1, r4
 1193 006e 1C31     		adds	r1, r1, #28
 1194 0070 3200     		movs	r2, r6
 1195 0072 10A8     		add	r0, sp, #64
 1196 0074 FFF7FEFF 		bl	memcpy
 1197              	.LVL181:
 458:Source\mbedtls_open\library/ccm.c **** 
 459:Source\mbedtls_open\library/ccm.c ****         ret = mbedtls_ccm_encrypt_and_tag( &ctx, msg_len[i],
 1198              		.loc 1 459 0
 1199 0078 6B6B     		ldr	r3, [r5, #52]
 1200 007a 0793     		str	r3, [sp, #28]
 1201 007c 2A6C     		ldr	r2, [r5, #64]
 1202 007e 9246     		mov	r10, r2
 1203 0080 B346     		mov	fp, r6
 1204 0082 C344     		add	fp, fp, r8
 1205 0084 ED6C     		ldr	r5, [r5, #76]
 1206 0086 2200     		movs	r2, r4
 1207 0088 5832     		adds	r2, r2, #88
 1208 008a 0595     		str	r5, [sp, #20]
 1209 008c 5946     		mov	r1, fp
 1210 008e 0491     		str	r1, [sp, #16]
 1211 0090 4146     		mov	r1, r8
 1212 0092 0391     		str	r1, [sp, #12]
 1213 0094 10A9     		add	r1, sp, #64
 1214 0096 0291     		str	r1, [sp, #8]
 1215 0098 5146     		mov	r1, r10
 1216 009a 0191     		str	r1, [sp, #4]
 1217 009c 6434     		adds	r4, r4, #100
 1218 009e 0094     		str	r4, [sp]
ARM GAS  C:\Users\Phuong\AppData\Local\Temp\ccOlY5Ml.s 			page 31


 1219 00a0 3100     		movs	r1, r6
 1220 00a2 16A8     		add	r0, sp, #88
 1221 00a4 FFF7FEFF 		bl	mbedtls_ccm_encrypt_and_tag
 1222              	.LVL182:
 460:Source\mbedtls_open\library/ccm.c ****                                            iv, iv_len[i], ad, add_len[i],
 461:Source\mbedtls_open\library/ccm.c ****                                            plaintext, ciphertext,
 462:Source\mbedtls_open\library/ccm.c ****                                            ciphertext + msg_len[i], tag_len[i] );
 463:Source\mbedtls_open\library/ccm.c **** 
 464:Source\mbedtls_open\library/ccm.c ****         if( ret != 0 ||
 1223              		.loc 1 464 0
 1224 00a8 0028     		cmp	r0, #0
 1225 00aa 09D1     		bne	.L76
 465:Source\mbedtls_open\library/ccm.c ****             memcmp( ciphertext, res[i], msg_len[i] + tag_len[i] ) != 0 )
 1226              		.loc 1 465 0 discriminator 1
 1227 00ac 7B01     		lsls	r3, r7, #5
 1228 00ae 3149     		ldr	r1, .L86
 1229 00b0 7831     		adds	r1, r1, #120
 1230 00b2 C918     		adds	r1, r1, r3
 1231 00b4 7219     		adds	r2, r6, r5
 1232 00b6 08A8     		add	r0, sp, #32
 1233              	.LVL183:
 1234 00b8 FFF7FEFF 		bl	memcmp
 1235              	.LVL184:
 464:Source\mbedtls_open\library/ccm.c ****             memcmp( ciphertext, res[i], msg_len[i] + tag_len[i] ) != 0 )
 1236              		.loc 1 464 0 discriminator 1
 1237 00bc 0028     		cmp	r0, #0
 1238 00be 08D0     		beq	.L77
 1239              	.L76:
 466:Source\mbedtls_open\library/ccm.c ****         {
 467:Source\mbedtls_open\library/ccm.c ****             if( verbose != 0 )
 1240              		.loc 1 467 0
 1241 00c0 4B46     		mov	r3, r9
 1242 00c2 002B     		cmp	r3, #0
 1243 00c4 49D0     		beq	.L84
 1244              	.LVL185:
 468:Source\mbedtls_open\library/ccm.c ****                 mbedtls_printf( "failed\n" );
 1245              		.loc 1 468 0
 1246 00c6 2E48     		ldr	r0, .L86+12
 1247 00c8 FFF7FEFF 		bl	puts
 1248              	.LVL186:
 469:Source\mbedtls_open\library/ccm.c **** 
 470:Source\mbedtls_open\library/ccm.c ****             return( 1 );
 1249              		.loc 1 470 0
 1250 00cc 0123     		movs	r3, #1
 1251 00ce 0693     		str	r3, [sp, #24]
 1252 00d0 48E0     		b	.L74
 1253              	.L77:
 471:Source\mbedtls_open\library/ccm.c ****         }
 472:Source\mbedtls_open\library/ccm.c ****         memset( plaintext, 0, CCM_SELFTEST_PT_MAX_LEN );
 1254              		.loc 1 472 0
 1255 00d2 10AC     		add	r4, sp, #64
 1256 00d4 1822     		movs	r2, #24
 1257 00d6 0021     		movs	r1, #0
 1258 00d8 2000     		movs	r0, r4
 1259 00da FFF7FEFF 		bl	memset
 1260              	.LVL187:
 473:Source\mbedtls_open\library/ccm.c **** 
ARM GAS  C:\Users\Phuong\AppData\Local\Temp\ccOlY5Ml.s 			page 32


 474:Source\mbedtls_open\library/ccm.c ****         ret = mbedtls_ccm_auth_decrypt( &ctx, msg_len[i],
 1261              		.loc 1 474 0
 1262 00de 254B     		ldr	r3, .L86
 1263 00e0 1A00     		movs	r2, r3
 1264 00e2 5832     		adds	r2, r2, #88
 1265 00e4 0595     		str	r5, [sp, #20]
 1266 00e6 5946     		mov	r1, fp
 1267 00e8 0491     		str	r1, [sp, #16]
 1268 00ea 0394     		str	r4, [sp, #12]
 1269 00ec 08A9     		add	r1, sp, #32
 1270 00ee 0291     		str	r1, [sp, #8]
 1271 00f0 5146     		mov	r1, r10
 1272 00f2 0191     		str	r1, [sp, #4]
 1273 00f4 6433     		adds	r3, r3, #100
 1274 00f6 0093     		str	r3, [sp]
 1275 00f8 079B     		ldr	r3, [sp, #28]
 1276 00fa 3100     		movs	r1, r6
 1277 00fc 16A8     		add	r0, sp, #88
 1278 00fe FFF7FEFF 		bl	mbedtls_ccm_auth_decrypt
 1279              	.LVL188:
 475:Source\mbedtls_open\library/ccm.c ****                                         iv, iv_len[i], ad, add_len[i],
 476:Source\mbedtls_open\library/ccm.c ****                                         ciphertext, plaintext,
 477:Source\mbedtls_open\library/ccm.c ****                                         ciphertext + msg_len[i], tag_len[i] );
 478:Source\mbedtls_open\library/ccm.c **** 
 479:Source\mbedtls_open\library/ccm.c ****         if( ret != 0 ||
 1280              		.loc 1 479 0
 1281 0102 0028     		cmp	r0, #0
 1282 0104 07D1     		bne	.L78
 480:Source\mbedtls_open\library/ccm.c ****             memcmp( plaintext, msg, msg_len[i] ) != 0 )
 1283              		.loc 1 480 0 discriminator 1
 1284 0106 3200     		movs	r2, r6
 1285 0108 1A49     		ldr	r1, .L86
 1286 010a 1C31     		adds	r1, r1, #28
 1287 010c 10A8     		add	r0, sp, #64
 1288              	.LVL189:
 1289 010e FFF7FEFF 		bl	memcmp
 1290              	.LVL190:
 479:Source\mbedtls_open\library/ccm.c ****             memcmp( plaintext, msg, msg_len[i] ) != 0 )
 1291              		.loc 1 479 0 discriminator 1
 1292 0112 0028     		cmp	r0, #0
 1293 0114 08D0     		beq	.L79
 1294              	.L78:
 481:Source\mbedtls_open\library/ccm.c ****         {
 482:Source\mbedtls_open\library/ccm.c ****             if( verbose != 0 )
 1295              		.loc 1 482 0
 1296 0116 4B46     		mov	r3, r9
 1297 0118 002B     		cmp	r3, #0
 1298 011a 21D0     		beq	.L85
 1299              	.LVL191:
 483:Source\mbedtls_open\library/ccm.c ****                 mbedtls_printf( "failed\n" );
 1300              		.loc 1 483 0
 1301 011c 1848     		ldr	r0, .L86+12
 1302 011e FFF7FEFF 		bl	puts
 1303              	.LVL192:
 484:Source\mbedtls_open\library/ccm.c **** 
 485:Source\mbedtls_open\library/ccm.c ****             return( 1 );
 1304              		.loc 1 485 0
ARM GAS  C:\Users\Phuong\AppData\Local\Temp\ccOlY5Ml.s 			page 33


 1305 0122 0123     		movs	r3, #1
 1306 0124 0693     		str	r3, [sp, #24]
 1307 0126 1DE0     		b	.L74
 1308              	.L79:
 486:Source\mbedtls_open\library/ccm.c ****         }
 487:Source\mbedtls_open\library/ccm.c **** 
 488:Source\mbedtls_open\library/ccm.c ****         if( verbose != 0 )
 1309              		.loc 1 488 0
 1310 0128 4B46     		mov	r3, r9
 1311 012a 002B     		cmp	r3, #0
 1312 012c 02D0     		beq	.L80
 1313              	.LVL193:
 489:Source\mbedtls_open\library/ccm.c ****             mbedtls_printf( "passed\n" );
 1314              		.loc 1 489 0
 1315 012e 1548     		ldr	r0, .L86+16
 1316 0130 FFF7FEFF 		bl	puts
 1317              	.LVL194:
 1318              	.L80:
 450:Source\mbedtls_open\library/ccm.c ****     {
 1319              		.loc 1 450 0 discriminator 2
 1320 0134 0137     		adds	r7, r7, #1
 1321              	.LVL195:
 1322 0136 00E0     		b	.L73
 1323              	.LVL196:
 1324              	.L82:
 1325 0138 0027     		movs	r7, #0
 1326              	.L73:
 1327              	.LVL197:
 450:Source\mbedtls_open\library/ccm.c ****     {
 1328              		.loc 1 450 0 is_stmt 0 discriminator 1
 1329 013a 022F     		cmp	r7, #2
 1330 013c 00D8     		bhi	.LCB1512
 1331 013e 7EE7     		b	.L81	@long jump
 1332              	.LCB1512:
 490:Source\mbedtls_open\library/ccm.c ****     }
 491:Source\mbedtls_open\library/ccm.c **** 
 492:Source\mbedtls_open\library/ccm.c ****     mbedtls_ccm_free( &ctx );
 1333              		.loc 1 492 0 is_stmt 1
 1334 0140 16A8     		add	r0, sp, #88
 1335 0142 FFF7FEFF 		bl	mbedtls_ccm_free
 1336              	.LVL198:
 493:Source\mbedtls_open\library/ccm.c **** 
 494:Source\mbedtls_open\library/ccm.c ****     if( verbose != 0 )
 1337              		.loc 1 494 0
 1338 0146 4B46     		mov	r3, r9
 1339 0148 002B     		cmp	r3, #0
 1340 014a 0BD0     		beq	.L74
 1341              	.LVL199:
 495:Source\mbedtls_open\library/ccm.c ****         mbedtls_printf( "\n" );
 1342              		.loc 1 495 0
 1343 014c 0A20     		movs	r0, #10
 1344 014e FFF7FEFF 		bl	putchar
 1345              	.LVL200:
 1346 0152 07E0     		b	.L74
 1347              	.LVL201:
 1348              	.L83:
 447:Source\mbedtls_open\library/ccm.c ****     }
ARM GAS  C:\Users\Phuong\AppData\Local\Temp\ccOlY5Ml.s 			page 34


 1349              		.loc 1 447 0
 1350 0154 0123     		movs	r3, #1
 1351              	.LVL202:
 1352 0156 0693     		str	r3, [sp, #24]
 1353 0158 04E0     		b	.L74
 1354              	.LVL203:
 1355              	.L84:
 470:Source\mbedtls_open\library/ccm.c ****         }
 1356              		.loc 1 470 0
 1357 015a 0123     		movs	r3, #1
 1358              	.LVL204:
 1359 015c 0693     		str	r3, [sp, #24]
 1360 015e 01E0     		b	.L74
 1361              	.LVL205:
 1362              	.L85:
 485:Source\mbedtls_open\library/ccm.c ****         }
 1363              		.loc 1 485 0
 1364 0160 0123     		movs	r3, #1
 1365              	.LVL206:
 1366 0162 0693     		str	r3, [sp, #24]
 1367              	.LVL207:
 1368              	.L74:
 496:Source\mbedtls_open\library/ccm.c **** 
 497:Source\mbedtls_open\library/ccm.c ****     return( 0 );
 498:Source\mbedtls_open\library/ccm.c **** }
 1369              		.loc 1 498 0
 1370 0164 0698     		ldr	r0, [sp, #24]
 1371 0166 27B0     		add	sp, sp, #156
 1372              		@ sp needed
 1373              	.LVL208:
 1374 0168 3CBC     		pop	{r2, r3, r4, r5}
 1375 016a 9046     		mov	r8, r2
 1376 016c 9946     		mov	r9, r3
 1377 016e A246     		mov	r10, r4
 1378 0170 AB46     		mov	fp, r5
 1379 0172 F0BD     		pop	{r4, r5, r6, r7, pc}
 1380              	.L87:
 1381              		.align	2
 1382              	.L86:
 1383 0174 00000000 		.word	.LANCHOR0
 1384 0178 00000000 		.word	.LC1
 1385 017c 14000000 		.word	.LC3
 1386 0180 24000000 		.word	.LC5
 1387 0184 2C000000 		.word	.LC7
 1388              		.cfi_endproc
 1389              	.LFE16:
 1390              		.size	mbedtls_ccm_self_test, .-mbedtls_ccm_self_test
 1391              		.section	.rodata
 1392              		.align	2
 1393              		.set	.LANCHOR0,. + 0
 1394              		.type	key, %object
 1395              		.size	key, 16
 1396              	key:
 1397 0000 40       		.byte	64
 1398 0001 41       		.byte	65
 1399 0002 42       		.byte	66
 1400 0003 43       		.byte	67
ARM GAS  C:\Users\Phuong\AppData\Local\Temp\ccOlY5Ml.s 			page 35


 1401 0004 44       		.byte	68
 1402 0005 45       		.byte	69
 1403 0006 46       		.byte	70
 1404 0007 47       		.byte	71
 1405 0008 48       		.byte	72
 1406 0009 49       		.byte	73
 1407 000a 4A       		.byte	74
 1408 000b 4B       		.byte	75
 1409 000c 4C       		.byte	76
 1410 000d 4D       		.byte	77
 1411 000e 4E       		.byte	78
 1412 000f 4F       		.byte	79
 1413              		.type	msg_len, %object
 1414              		.size	msg_len, 12
 1415              	msg_len:
 1416 0010 04000000 		.word	4
 1417 0014 10000000 		.word	16
 1418 0018 18000000 		.word	24
 1419              		.type	msg, %object
 1420              		.size	msg, 24
 1421              	msg:
 1422 001c 20       		.byte	32
 1423 001d 21       		.byte	33
 1424 001e 22       		.byte	34
 1425 001f 23       		.byte	35
 1426 0020 24       		.byte	36
 1427 0021 25       		.byte	37
 1428 0022 26       		.byte	38
 1429 0023 27       		.byte	39
 1430 0024 28       		.byte	40
 1431 0025 29       		.byte	41
 1432 0026 2A       		.byte	42
 1433 0027 2B       		.byte	43
 1434 0028 2C       		.byte	44
 1435 0029 2D       		.byte	45
 1436 002a 2E       		.byte	46
 1437 002b 2F       		.byte	47
 1438 002c 30       		.byte	48
 1439 002d 31       		.byte	49
 1440 002e 32       		.byte	50
 1441 002f 33       		.byte	51
 1442 0030 34       		.byte	52
 1443 0031 35       		.byte	53
 1444 0032 36       		.byte	54
 1445 0033 37       		.byte	55
 1446              		.type	iv_len, %object
 1447              		.size	iv_len, 12
 1448              	iv_len:
 1449 0034 07000000 		.word	7
 1450 0038 08000000 		.word	8
 1451 003c 0C000000 		.word	12
 1452              		.type	add_len, %object
 1453              		.size	add_len, 12
 1454              	add_len:
 1455 0040 08000000 		.word	8
 1456 0044 10000000 		.word	16
 1457 0048 14000000 		.word	20
ARM GAS  C:\Users\Phuong\AppData\Local\Temp\ccOlY5Ml.s 			page 36


 1458              		.type	tag_len, %object
 1459              		.size	tag_len, 12
 1460              	tag_len:
 1461 004c 04000000 		.word	4
 1462 0050 06000000 		.word	6
 1463 0054 08000000 		.word	8
 1464              		.type	iv, %object
 1465              		.size	iv, 12
 1466              	iv:
 1467 0058 10       		.byte	16
 1468 0059 11       		.byte	17
 1469 005a 12       		.byte	18
 1470 005b 13       		.byte	19
 1471 005c 14       		.byte	20
 1472 005d 15       		.byte	21
 1473 005e 16       		.byte	22
 1474 005f 17       		.byte	23
 1475 0060 18       		.byte	24
 1476 0061 19       		.byte	25
 1477 0062 1A       		.byte	26
 1478 0063 1B       		.byte	27
 1479              		.type	ad, %object
 1480              		.size	ad, 20
 1481              	ad:
 1482 0064 00       		.byte	0
 1483 0065 01       		.byte	1
 1484 0066 02       		.byte	2
 1485 0067 03       		.byte	3
 1486 0068 04       		.byte	4
 1487 0069 05       		.byte	5
 1488 006a 06       		.byte	6
 1489 006b 07       		.byte	7
 1490 006c 08       		.byte	8
 1491 006d 09       		.byte	9
 1492 006e 0A       		.byte	10
 1493 006f 0B       		.byte	11
 1494 0070 0C       		.byte	12
 1495 0071 0D       		.byte	13
 1496 0072 0E       		.byte	14
 1497 0073 0F       		.byte	15
 1498 0074 10       		.byte	16
 1499 0075 11       		.byte	17
 1500 0076 12       		.byte	18
 1501 0077 13       		.byte	19
 1502              		.type	res, %object
 1503              		.size	res, 96
 1504              	res:
 1505 0078 71       		.byte	113
 1506 0079 62       		.byte	98
 1507 007a 01       		.byte	1
 1508 007b 5B       		.byte	91
 1509 007c 4D       		.byte	77
 1510 007d AC       		.byte	-84
 1511 007e 25       		.byte	37
 1512 007f 5D       		.byte	93
 1513 0080 00000000 		.space	24
 1513      00000000 
ARM GAS  C:\Users\Phuong\AppData\Local\Temp\ccOlY5Ml.s 			page 37


 1513      00000000 
 1513      00000000 
 1513      00000000 
 1514 0098 D2       		.byte	-46
 1515 0099 A1       		.byte	-95
 1516 009a F0       		.byte	-16
 1517 009b E0       		.byte	-32
 1518 009c 51       		.byte	81
 1519 009d EA       		.byte	-22
 1520 009e 5F       		.byte	95
 1521 009f 62       		.byte	98
 1522 00a0 08       		.byte	8
 1523 00a1 1A       		.byte	26
 1524 00a2 77       		.byte	119
 1525 00a3 92       		.byte	-110
 1526 00a4 07       		.byte	7
 1527 00a5 3D       		.byte	61
 1528 00a6 59       		.byte	89
 1529 00a7 3D       		.byte	61
 1530 00a8 1F       		.byte	31
 1531 00a9 C6       		.byte	-58
 1532 00aa 4F       		.byte	79
 1533 00ab BF       		.byte	-65
 1534 00ac AC       		.byte	-84
 1535 00ad CD       		.byte	-51
 1536 00ae 00000000 		.space	10
 1536      00000000 
 1536      0000
 1537 00b8 E3       		.byte	-29
 1538 00b9 B2       		.byte	-78
 1539 00ba 01       		.byte	1
 1540 00bb A9       		.byte	-87
 1541 00bc F5       		.byte	-11
 1542 00bd B7       		.byte	-73
 1543 00be 1A       		.byte	26
 1544 00bf 7A       		.byte	122
 1545 00c0 9B       		.byte	-101
 1546 00c1 1C       		.byte	28
 1547 00c2 EA       		.byte	-22
 1548 00c3 EC       		.byte	-20
 1549 00c4 CD       		.byte	-51
 1550 00c5 97       		.byte	-105
 1551 00c6 E7       		.byte	-25
 1552 00c7 0B       		.byte	11
 1553 00c8 61       		.byte	97
 1554 00c9 76       		.byte	118
 1555 00ca AA       		.byte	-86
 1556 00cb D9       		.byte	-39
 1557 00cc A4       		.byte	-92
 1558 00cd 42       		.byte	66
 1559 00ce 8A       		.byte	-118
 1560 00cf A5       		.byte	-91
 1561 00d0 48       		.byte	72
 1562 00d1 43       		.byte	67
 1563 00d2 92       		.byte	-110
 1564 00d3 FB       		.byte	-5
 1565 00d4 C1       		.byte	-63
ARM GAS  C:\Users\Phuong\AppData\Local\Temp\ccOlY5Ml.s 			page 38


 1566 00d5 B0       		.byte	-80
 1567 00d6 99       		.byte	-103
 1568 00d7 51       		.byte	81
 1569              		.section	.rodata.str1.4,"aMS",%progbits,1
 1570              		.align	2
 1571              	.LC1:
 1572 0000 20204343 		.ascii	"  CCM: setup failed\000"
 1572      4D3A2073 
 1572      65747570 
 1572      20666169 
 1572      6C656400 
 1573              	.LC3:
 1574 0014 20204343 		.ascii	"  CCM-AES #%u: \000"
 1574      4D2D4145 
 1574      53202325 
 1574      753A2000 
 1575              	.LC5:
 1576 0024 6661696C 		.ascii	"failed\000"
 1576      656400
 1577 002b 00       		.space	1
 1578              	.LC7:
 1579 002c 70617373 		.ascii	"passed\000"
 1579      656400
 1580              		.text
 1581              	.Letext0:
 1582              		.file 2 "c:\\program files (x86)\\cypress\\psoc creator\\4.2\\psoc creator\\import\\gnu\\arm\\5.4.
 1583              		.file 3 ".\\Source\\mbedtls_open\\include/mbedtls/cipher.h"
 1584              		.file 4 ".\\Source\\mbedtls_open\\include/mbedtls/ccm.h"
 1585              		.file 5 ".\\Source\\mbedtls_open\\include/mbedtls/platform_util.h"
 1586              		.file 6 "c:\\program files (x86)\\cypress\\psoc creator\\4.2\\psoc creator\\import\\gnu\\arm\\5.4.
 1587              		.file 7 "c:\\program files (x86)\\cypress\\psoc creator\\4.2\\psoc creator\\import\\gnu\\arm\\5.4.
 1588              		.file 8 "<built-in>"