ARM GAS  C:\Users\Phuong\AppData\Local\Temp\ccA2GnFN.s 			page 1


   1              		.syntax unified
   2              		.cpu cortex-m0plus
   3              		.fpu softvfp
   4              		.eabi_attribute 20, 1
   5              		.eabi_attribute 21, 1
   6              		.eabi_attribute 23, 3
   7              		.eabi_attribute 24, 1
   8              		.eabi_attribute 25, 1
   9              		.eabi_attribute 26, 1
  10              		.eabi_attribute 30, 1
  11              		.eabi_attribute 34, 0
  12              		.eabi_attribute 18, 4
  13              		.thumb
  14              		.syntax unified
  15              		.file	"chacha20.c"
  16              		.text
  17              	.Ltext0:
  18              		.cfi_sections	.debug_frame
  19              		.section	.text.chacha20_inner_block,"ax",%progbits
  20              		.align	2
  21              		.code	16
  22              		.thumb_func
  23              		.type	chacha20_inner_block, %function
  24              	chacha20_inner_block:
  25              	.LFB2:
  26              		.file 1 "Source\\mbedtls_open\\library\\chacha20.c"
   1:Source\mbedtls_open\library/chacha20.c **** /**
   2:Source\mbedtls_open\library/chacha20.c ****  * \file chacha20.c
   3:Source\mbedtls_open\library/chacha20.c ****  *
   4:Source\mbedtls_open\library/chacha20.c ****  * \brief ChaCha20 cipher.
   5:Source\mbedtls_open\library/chacha20.c ****  *
   6:Source\mbedtls_open\library/chacha20.c ****  * \author Daniel King <damaki.gh@gmail.com>
   7:Source\mbedtls_open\library/chacha20.c ****  *
   8:Source\mbedtls_open\library/chacha20.c ****  *  Copyright (C) 2006-2016, ARM Limited, All Rights Reserved
   9:Source\mbedtls_open\library/chacha20.c ****  *  SPDX-License-Identifier: Apache-2.0
  10:Source\mbedtls_open\library/chacha20.c ****  *
  11:Source\mbedtls_open\library/chacha20.c ****  *  Licensed under the Apache License, Version 2.0 (the "License"); you may
  12:Source\mbedtls_open\library/chacha20.c ****  *  not use this file except in compliance with the License.
  13:Source\mbedtls_open\library/chacha20.c ****  *  You may obtain a copy of the License at
  14:Source\mbedtls_open\library/chacha20.c ****  *
  15:Source\mbedtls_open\library/chacha20.c ****  *  http://www.apache.org/licenses/LICENSE-2.0
  16:Source\mbedtls_open\library/chacha20.c ****  *
  17:Source\mbedtls_open\library/chacha20.c ****  *  Unless required by applicable law or agreed to in writing, software
  18:Source\mbedtls_open\library/chacha20.c ****  *  distributed under the License is distributed on an "AS IS" BASIS, WITHOUT
  19:Source\mbedtls_open\library/chacha20.c ****  *  WARRANTIES OR CONDITIONS OF ANY KIND, either express or implied.
  20:Source\mbedtls_open\library/chacha20.c ****  *  See the License for the specific language governing permissions and
  21:Source\mbedtls_open\library/chacha20.c ****  *  limitations under the License.
  22:Source\mbedtls_open\library/chacha20.c ****  *
  23:Source\mbedtls_open\library/chacha20.c ****  *  This file is part of mbed TLS (https://tls.mbed.org)
  24:Source\mbedtls_open\library/chacha20.c ****  */
  25:Source\mbedtls_open\library/chacha20.c **** 
  26:Source\mbedtls_open\library/chacha20.c **** #if !defined(MBEDTLS_CONFIG_FILE)
  27:Source\mbedtls_open\library/chacha20.c **** #include "mbedtls/config.h"
  28:Source\mbedtls_open\library/chacha20.c **** #else
  29:Source\mbedtls_open\library/chacha20.c **** #include MBEDTLS_CONFIG_FILE
  30:Source\mbedtls_open\library/chacha20.c **** #endif
  31:Source\mbedtls_open\library/chacha20.c **** 
ARM GAS  C:\Users\Phuong\AppData\Local\Temp\ccA2GnFN.s 			page 2


  32:Source\mbedtls_open\library/chacha20.c **** #if defined(MBEDTLS_CHACHA20_C)
  33:Source\mbedtls_open\library/chacha20.c **** 
  34:Source\mbedtls_open\library/chacha20.c **** #include "mbedtls/chacha20.h"
  35:Source\mbedtls_open\library/chacha20.c **** #include "mbedtls/platform_util.h"
  36:Source\mbedtls_open\library/chacha20.c **** 
  37:Source\mbedtls_open\library/chacha20.c **** #include <stddef.h>
  38:Source\mbedtls_open\library/chacha20.c **** #include <string.h>
  39:Source\mbedtls_open\library/chacha20.c **** 
  40:Source\mbedtls_open\library/chacha20.c **** #if defined(MBEDTLS_SELF_TEST)
  41:Source\mbedtls_open\library/chacha20.c **** #if defined(MBEDTLS_PLATFORM_C)
  42:Source\mbedtls_open\library/chacha20.c **** #include "mbedtls/platform.h"
  43:Source\mbedtls_open\library/chacha20.c **** #else
  44:Source\mbedtls_open\library/chacha20.c **** #include <stdio.h>
  45:Source\mbedtls_open\library/chacha20.c **** #define mbedtls_printf printf
  46:Source\mbedtls_open\library/chacha20.c **** #endif /* MBEDTLS_PLATFORM_C */
  47:Source\mbedtls_open\library/chacha20.c **** #endif /* MBEDTLS_SELF_TEST */
  48:Source\mbedtls_open\library/chacha20.c **** 
  49:Source\mbedtls_open\library/chacha20.c **** #if !defined(MBEDTLS_CHACHA20_ALT)
  50:Source\mbedtls_open\library/chacha20.c **** 
  51:Source\mbedtls_open\library/chacha20.c **** #if ( defined(__ARMCC_VERSION) || defined(_MSC_VER) ) && \
  52:Source\mbedtls_open\library/chacha20.c ****     !defined(inline) && !defined(__cplusplus)
  53:Source\mbedtls_open\library/chacha20.c **** #define inline __inline
  54:Source\mbedtls_open\library/chacha20.c **** #endif
  55:Source\mbedtls_open\library/chacha20.c **** 
  56:Source\mbedtls_open\library/chacha20.c **** #define BYTES_TO_U32_LE( data, offset )                           \
  57:Source\mbedtls_open\library/chacha20.c ****     ( (uint32_t) data[offset]                                     \
  58:Source\mbedtls_open\library/chacha20.c ****           | (uint32_t) ( (uint32_t) data[( offset ) + 1] << 8 )   \
  59:Source\mbedtls_open\library/chacha20.c ****           | (uint32_t) ( (uint32_t) data[( offset ) + 2] << 16 )  \
  60:Source\mbedtls_open\library/chacha20.c ****           | (uint32_t) ( (uint32_t) data[( offset ) + 3] << 24 )  \
  61:Source\mbedtls_open\library/chacha20.c ****     )
  62:Source\mbedtls_open\library/chacha20.c **** 
  63:Source\mbedtls_open\library/chacha20.c **** #define ROTL32( value, amount ) \
  64:Source\mbedtls_open\library/chacha20.c ****         ( (uint32_t) ( value << amount ) | ( value >> ( 32 - amount ) ) )
  65:Source\mbedtls_open\library/chacha20.c **** 
  66:Source\mbedtls_open\library/chacha20.c **** #define CHACHA20_CTR_INDEX ( 12U )
  67:Source\mbedtls_open\library/chacha20.c **** 
  68:Source\mbedtls_open\library/chacha20.c **** #define CHACHA20_BLOCK_SIZE_BYTES ( 4U * 16U )
  69:Source\mbedtls_open\library/chacha20.c **** 
  70:Source\mbedtls_open\library/chacha20.c **** /**
  71:Source\mbedtls_open\library/chacha20.c ****  * \brief           ChaCha20 quarter round operation.
  72:Source\mbedtls_open\library/chacha20.c ****  *
  73:Source\mbedtls_open\library/chacha20.c ****  *                  The quarter round is defined as follows (from RFC 7539):
  74:Source\mbedtls_open\library/chacha20.c ****  *                      1.  a += b; d ^= a; d <<<= 16;
  75:Source\mbedtls_open\library/chacha20.c ****  *                      2.  c += d; b ^= c; b <<<= 12;
  76:Source\mbedtls_open\library/chacha20.c ****  *                      3.  a += b; d ^= a; d <<<= 8;
  77:Source\mbedtls_open\library/chacha20.c ****  *                      4.  c += d; b ^= c; b <<<= 7;
  78:Source\mbedtls_open\library/chacha20.c ****  *
  79:Source\mbedtls_open\library/chacha20.c ****  * \param state     ChaCha20 state to modify.
  80:Source\mbedtls_open\library/chacha20.c ****  * \param a         The index of 'a' in the state.
  81:Source\mbedtls_open\library/chacha20.c ****  * \param b         The index of 'b' in the state.
  82:Source\mbedtls_open\library/chacha20.c ****  * \param c         The index of 'c' in the state.
  83:Source\mbedtls_open\library/chacha20.c ****  * \param d         The index of 'd' in the state.
  84:Source\mbedtls_open\library/chacha20.c ****  */
  85:Source\mbedtls_open\library/chacha20.c **** static inline void chacha20_quarter_round( uint32_t state[16],
  86:Source\mbedtls_open\library/chacha20.c ****                                            size_t a,
  87:Source\mbedtls_open\library/chacha20.c ****                                            size_t b,
  88:Source\mbedtls_open\library/chacha20.c ****                                            size_t c,
ARM GAS  C:\Users\Phuong\AppData\Local\Temp\ccA2GnFN.s 			page 3


  89:Source\mbedtls_open\library/chacha20.c ****                                            size_t d )
  90:Source\mbedtls_open\library/chacha20.c **** {
  91:Source\mbedtls_open\library/chacha20.c ****     /* a += b; d ^= a; d <<<= 16; */
  92:Source\mbedtls_open\library/chacha20.c ****     state[a] += state[b];
  93:Source\mbedtls_open\library/chacha20.c ****     state[d] ^= state[a];
  94:Source\mbedtls_open\library/chacha20.c ****     state[d] = ROTL32( state[d], 16 );
  95:Source\mbedtls_open\library/chacha20.c **** 
  96:Source\mbedtls_open\library/chacha20.c ****     /* c += d; b ^= c; b <<<= 12 */
  97:Source\mbedtls_open\library/chacha20.c ****     state[c] += state[d];
  98:Source\mbedtls_open\library/chacha20.c ****     state[b] ^= state[c];
  99:Source\mbedtls_open\library/chacha20.c ****     state[b] = ROTL32( state[b], 12 );
 100:Source\mbedtls_open\library/chacha20.c **** 
 101:Source\mbedtls_open\library/chacha20.c ****     /* a += b; d ^= a; d <<<= 8; */
 102:Source\mbedtls_open\library/chacha20.c ****     state[a] += state[b];
 103:Source\mbedtls_open\library/chacha20.c ****     state[d] ^= state[a];
 104:Source\mbedtls_open\library/chacha20.c ****     state[d] = ROTL32( state[d], 8 );
 105:Source\mbedtls_open\library/chacha20.c **** 
 106:Source\mbedtls_open\library/chacha20.c ****     /* c += d; b ^= c; b <<<= 7; */
 107:Source\mbedtls_open\library/chacha20.c ****     state[c] += state[d];
 108:Source\mbedtls_open\library/chacha20.c ****     state[b] ^= state[c];
 109:Source\mbedtls_open\library/chacha20.c ****     state[b] = ROTL32( state[b], 7 );
 110:Source\mbedtls_open\library/chacha20.c **** }
 111:Source\mbedtls_open\library/chacha20.c **** 
 112:Source\mbedtls_open\library/chacha20.c **** /**
 113:Source\mbedtls_open\library/chacha20.c ****  * \brief           Perform the ChaCha20 inner block operation.
 114:Source\mbedtls_open\library/chacha20.c ****  *
 115:Source\mbedtls_open\library/chacha20.c ****  *                  This function performs two rounds: the column round and the
 116:Source\mbedtls_open\library/chacha20.c ****  *                  diagonal round.
 117:Source\mbedtls_open\library/chacha20.c ****  *
 118:Source\mbedtls_open\library/chacha20.c ****  * \param state     The ChaCha20 state to update.
 119:Source\mbedtls_open\library/chacha20.c ****  */
 120:Source\mbedtls_open\library/chacha20.c **** static void chacha20_inner_block( uint32_t state[16] )
 121:Source\mbedtls_open\library/chacha20.c **** {
  27              		.loc 1 121 0
  28              		.cfi_startproc
  29              		@ args = 0, pretend = 0, frame = 40
  30              		@ frame_needed = 0, uses_anonymous_args = 0
  31              	.LVL0:
  32 0000 F0B5     		push	{r4, r5, r6, r7, lr}
  33              		.cfi_def_cfa_offset 20
  34              		.cfi_offset 4, -20
  35              		.cfi_offset 5, -16
  36              		.cfi_offset 6, -12
  37              		.cfi_offset 7, -8
  38              		.cfi_offset 14, -4
  39 0002 5F46     		mov	r7, fp
  40 0004 5646     		mov	r6, r10
  41 0006 4D46     		mov	r5, r9
  42 0008 4446     		mov	r4, r8
  43 000a F0B4     		push	{r4, r5, r6, r7}
  44              		.cfi_def_cfa_offset 36
  45              		.cfi_offset 8, -36
  46              		.cfi_offset 9, -32
  47              		.cfi_offset 10, -28
  48              		.cfi_offset 11, -24
  49 000c 8BB0     		sub	sp, sp, #44
  50              		.cfi_def_cfa_offset 80
ARM GAS  C:\Users\Phuong\AppData\Local\Temp\ccA2GnFN.s 			page 4


  51              	.LVL1:
  52              	.LBB18:
  53              	.LBB19:
  92:Source\mbedtls_open\library/chacha20.c ****     state[d] ^= state[a];
  54              		.loc 1 92 0
  55 000e 0369     		ldr	r3, [r0, #16]
  56 0010 0268     		ldr	r2, [r0]
  57 0012 9446     		mov	ip, r2
  58 0014 6344     		add	r3, r3, ip
  93:Source\mbedtls_open\library/chacha20.c ****     state[d] = ROTL32( state[d], 16 );
  59              		.loc 1 93 0
  60 0016 046B     		ldr	r4, [r0, #48]
  61 0018 5C40     		eors	r4, r3
  94:Source\mbedtls_open\library/chacha20.c **** 
  62              		.loc 1 94 0
  63 001a 1022     		movs	r2, #16
  64 001c 9346     		mov	fp, r2
  65 001e D441     		rors	r4, r4, r2
  97:Source\mbedtls_open\library/chacha20.c ****     state[b] ^= state[c];
  66              		.loc 1 97 0
  67 0020 026A     		ldr	r2, [r0, #32]
  68 0022 A218     		adds	r2, r4, r2
  98:Source\mbedtls_open\library/chacha20.c ****     state[b] = ROTL32( state[b], 12 );
  69              		.loc 1 98 0
  70 0024 0169     		ldr	r1, [r0, #16]
  71 0026 5140     		eors	r1, r2
  99:Source\mbedtls_open\library/chacha20.c **** 
  72              		.loc 1 99 0
  73 0028 1425     		movs	r5, #20
  74 002a AA46     		mov	r10, r5
  75 002c E941     		rors	r1, r1, r5
 102:Source\mbedtls_open\library/chacha20.c ****     state[d] ^= state[a];
  76              		.loc 1 102 0
  77 002e 9C46     		mov	ip, r3
  78 0030 8C44     		add	ip, ip, r1
  79 0032 6346     		mov	r3, ip
 103:Source\mbedtls_open\library/chacha20.c ****     state[d] = ROTL32( state[d], 8 );
  80              		.loc 1 103 0
  81 0034 0693     		str	r3, [sp, #24]
  82 0036 5C40     		eors	r4, r3
 104:Source\mbedtls_open\library/chacha20.c **** 
  83              		.loc 1 104 0
  84 0038 1823     		movs	r3, #24
  85 003a 9946     		mov	r9, r3
  86 003c DC41     		rors	r4, r4, r3
 107:Source\mbedtls_open\library/chacha20.c ****     state[b] ^= state[c];
  87              		.loc 1 107 0
  88 003e 0794     		str	r4, [sp, #28]
  89 0040 A046     		mov	r8, r4
  90 0042 4244     		add	r2, r2, r8
 108:Source\mbedtls_open\library/chacha20.c ****     state[b] = ROTL32( state[b], 7 );
  91              		.loc 1 108 0
  92 0044 0892     		str	r2, [sp, #32]
  93 0046 5140     		eors	r1, r2
 109:Source\mbedtls_open\library/chacha20.c **** }
  94              		.loc 1 109 0
  95 0048 0535     		adds	r5, r5, #5
ARM GAS  C:\Users\Phuong\AppData\Local\Temp\ccA2GnFN.s 			page 5


  96 004a A846     		mov	r8, r5
  97 004c E941     		rors	r1, r1, r5
  98 004e 0991     		str	r1, [sp, #36]
  99              	.LVL2:
 100              	.LBE19:
 101              	.LBE18:
 102              	.LBB20:
 103              	.LBB21:
  92:Source\mbedtls_open\library/chacha20.c ****     state[d] ^= state[a];
 104              		.loc 1 92 0
 105 0050 4569     		ldr	r5, [r0, #20]
 106 0052 4668     		ldr	r6, [r0, #4]
 107 0054 B446     		mov	ip, r6
 108 0056 6544     		add	r5, r5, ip
 109 0058 2900     		movs	r1, r5
  93:Source\mbedtls_open\library/chacha20.c ****     state[d] = ROTL32( state[d], 16 );
 110              		.loc 1 93 0
 111 005a 456B     		ldr	r5, [r0, #52]
 112 005c 4D40     		eors	r5, r1
 113 005e 2A00     		movs	r2, r5
  94:Source\mbedtls_open\library/chacha20.c **** 
 114              		.loc 1 94 0
 115 0060 5D46     		mov	r5, fp
 116 0062 EA41     		rors	r2, r2, r5
  97:Source\mbedtls_open\library/chacha20.c ****     state[b] ^= state[c];
 117              		.loc 1 97 0
 118 0064 456A     		ldr	r5, [r0, #36]
 119 0066 5319     		adds	r3, r2, r5
  98:Source\mbedtls_open\library/chacha20.c ****     state[b] = ROTL32( state[b], 12 );
 120              		.loc 1 98 0
 121 0068 4569     		ldr	r5, [r0, #20]
 122 006a 5D40     		eors	r5, r3
 123 006c 2C00     		movs	r4, r5
  99:Source\mbedtls_open\library/chacha20.c **** 
 124              		.loc 1 99 0
 125 006e 5546     		mov	r5, r10
 126 0070 EC41     		rors	r4, r4, r5
 102:Source\mbedtls_open\library/chacha20.c ****     state[d] ^= state[a];
 127              		.loc 1 102 0
 128 0072 6518     		adds	r5, r4, r1
 103:Source\mbedtls_open\library/chacha20.c ****     state[d] = ROTL32( state[d], 8 );
 129              		.loc 1 103 0
 130 0074 0395     		str	r5, [sp, #12]
 131 0076 6A40     		eors	r2, r5
 104:Source\mbedtls_open\library/chacha20.c **** 
 132              		.loc 1 104 0
 133 0078 1500     		movs	r5, r2
 134 007a 4E46     		mov	r6, r9
 135 007c F541     		rors	r5, r5, r6
 107:Source\mbedtls_open\library/chacha20.c ****     state[b] ^= state[c];
 136              		.loc 1 107 0
 137 007e 0495     		str	r5, [sp, #16]
 138 0080 AC46     		mov	ip, r5
 139 0082 6344     		add	r3, r3, ip
 108:Source\mbedtls_open\library/chacha20.c ****     state[b] = ROTL32( state[b], 7 );
 140              		.loc 1 108 0
 141 0084 0593     		str	r3, [sp, #20]
ARM GAS  C:\Users\Phuong\AppData\Local\Temp\ccA2GnFN.s 			page 6


 142 0086 5C40     		eors	r4, r3
 109:Source\mbedtls_open\library/chacha20.c **** }
 143              		.loc 1 109 0
 144 0088 4746     		mov	r7, r8
 145 008a FC41     		rors	r4, r4, r7
 146              	.LVL3:
 147              	.LBE21:
 148              	.LBE20:
 149              	.LBB22:
 150              	.LBB23:
  92:Source\mbedtls_open\library/chacha20.c ****     state[d] ^= state[a];
 151              		.loc 1 92 0
 152 008c 8769     		ldr	r7, [r0, #24]
 153 008e 8168     		ldr	r1, [r0, #8]
 154 0090 8C46     		mov	ip, r1
 155 0092 6744     		add	r7, r7, ip
 156 0094 3A00     		movs	r2, r7
  93:Source\mbedtls_open\library/chacha20.c ****     state[d] = ROTL32( state[d], 16 );
 157              		.loc 1 93 0
 158 0096 876B     		ldr	r7, [r0, #56]
 159 0098 5740     		eors	r7, r2
 160 009a 3B00     		movs	r3, r7
  94:Source\mbedtls_open\library/chacha20.c **** 
 161              		.loc 1 94 0
 162 009c 5F46     		mov	r7, fp
 163 009e FB41     		rors	r3, r3, r7
  97:Source\mbedtls_open\library/chacha20.c ****     state[b] ^= state[c];
 164              		.loc 1 97 0
 165 00a0 876A     		ldr	r7, [r0, #40]
 166 00a2 DF19     		adds	r7, r3, r7
  98:Source\mbedtls_open\library/chacha20.c ****     state[b] = ROTL32( state[b], 12 );
 167              		.loc 1 98 0
 168 00a4 8169     		ldr	r1, [r0, #24]
 169 00a6 7940     		eors	r1, r7
  99:Source\mbedtls_open\library/chacha20.c **** 
 170              		.loc 1 99 0
 171 00a8 5646     		mov	r6, r10
 172 00aa F141     		rors	r1, r1, r6
 102:Source\mbedtls_open\library/chacha20.c ****     state[d] ^= state[a];
 173              		.loc 1 102 0
 174 00ac 8E18     		adds	r6, r1, r2
 103:Source\mbedtls_open\library/chacha20.c ****     state[d] = ROTL32( state[d], 8 );
 175              		.loc 1 103 0
 176 00ae 0096     		str	r6, [sp]
 177 00b0 7340     		eors	r3, r6
 104:Source\mbedtls_open\library/chacha20.c **** 
 178              		.loc 1 104 0
 179 00b2 4D46     		mov	r5, r9
 180 00b4 EB41     		rors	r3, r3, r5
 107:Source\mbedtls_open\library/chacha20.c ****     state[b] ^= state[c];
 181              		.loc 1 107 0
 182 00b6 0193     		str	r3, [sp, #4]
 183 00b8 9C46     		mov	ip, r3
 184 00ba 6744     		add	r7, r7, ip
 108:Source\mbedtls_open\library/chacha20.c ****     state[b] = ROTL32( state[b], 7 );
 185              		.loc 1 108 0
 186 00bc 7940     		eors	r1, r7
ARM GAS  C:\Users\Phuong\AppData\Local\Temp\ccA2GnFN.s 			page 7


 109:Source\mbedtls_open\library/chacha20.c **** }
 187              		.loc 1 109 0
 188 00be 4246     		mov	r2, r8
 189 00c0 D141     		rors	r1, r1, r2
 190 00c2 0291     		str	r1, [sp, #8]
 191              	.LVL4:
 192              	.LBE23:
 193              	.LBE22:
 194              	.LBB24:
 195              	.LBB25:
  92:Source\mbedtls_open\library/chacha20.c ****     state[d] ^= state[a];
 196              		.loc 1 92 0
 197 00c4 C269     		ldr	r2, [r0, #28]
 198 00c6 1100     		movs	r1, r2
 199 00c8 C668     		ldr	r6, [r0, #12]
 200 00ca B446     		mov	ip, r6
 201 00cc 6144     		add	r1, r1, ip
 202 00ce 0D00     		movs	r5, r1
  93:Source\mbedtls_open\library/chacha20.c ****     state[d] = ROTL32( state[d], 16 );
 203              		.loc 1 93 0
 204 00d0 C26B     		ldr	r2, [r0, #60]
 205 00d2 4A40     		eors	r2, r1
 206 00d4 1300     		movs	r3, r2
  94:Source\mbedtls_open\library/chacha20.c **** 
 207              		.loc 1 94 0
 208 00d6 5A46     		mov	r2, fp
 209 00d8 D341     		rors	r3, r3, r2
  97:Source\mbedtls_open\library/chacha20.c ****     state[b] ^= state[c];
 210              		.loc 1 97 0
 211 00da C26A     		ldr	r2, [r0, #44]
 212 00dc 9E18     		adds	r6, r3, r2
  98:Source\mbedtls_open\library/chacha20.c ****     state[b] = ROTL32( state[b], 12 );
 213              		.loc 1 98 0
 214 00de C269     		ldr	r2, [r0, #28]
 215 00e0 7240     		eors	r2, r6
  99:Source\mbedtls_open\library/chacha20.c **** 
 216              		.loc 1 99 0
 217 00e2 5146     		mov	r1, r10
 218 00e4 CA41     		rors	r2, r2, r1
 102:Source\mbedtls_open\library/chacha20.c ****     state[d] ^= state[a];
 219              		.loc 1 102 0
 220 00e6 5519     		adds	r5, r2, r5
 103:Source\mbedtls_open\library/chacha20.c ****     state[d] = ROTL32( state[d], 8 );
 221              		.loc 1 103 0
 222 00e8 6B40     		eors	r3, r5
 104:Source\mbedtls_open\library/chacha20.c **** 
 223              		.loc 1 104 0
 224 00ea 4946     		mov	r1, r9
 225 00ec CB41     		rors	r3, r3, r1
 107:Source\mbedtls_open\library/chacha20.c ****     state[b] ^= state[c];
 226              		.loc 1 107 0
 227 00ee 9E19     		adds	r6, r3, r6
 108:Source\mbedtls_open\library/chacha20.c ****     state[b] = ROTL32( state[b], 7 );
 228              		.loc 1 108 0
 229 00f0 7240     		eors	r2, r6
 109:Source\mbedtls_open\library/chacha20.c **** }
 230              		.loc 1 109 0
ARM GAS  C:\Users\Phuong\AppData\Local\Temp\ccA2GnFN.s 			page 8


 231 00f2 4146     		mov	r1, r8
 232 00f4 CA41     		rors	r2, r2, r1
 233              	.LVL5:
 234              	.LBE25:
 235              	.LBE24:
 236              	.LBB26:
 237              	.LBB27:
  92:Source\mbedtls_open\library/chacha20.c ****     state[d] ^= state[a];
 238              		.loc 1 92 0
 239 00f6 0699     		ldr	r1, [sp, #24]
 240 00f8 8C46     		mov	ip, r1
 241 00fa A444     		add	ip, ip, r4
  93:Source\mbedtls_open\library/chacha20.c ****     state[d] = ROTL32( state[d], 16 );
 242              		.loc 1 93 0
 243 00fc 6146     		mov	r1, ip
 244 00fe 4B40     		eors	r3, r1
  94:Source\mbedtls_open\library/chacha20.c **** 
 245              		.loc 1 94 0
 246 0100 5946     		mov	r1, fp
 247 0102 CB41     		rors	r3, r3, r1
  97:Source\mbedtls_open\library/chacha20.c ****     state[b] ^= state[c];
 248              		.loc 1 97 0
 249 0104 DF19     		adds	r7, r3, r7
  98:Source\mbedtls_open\library/chacha20.c ****     state[b] = ROTL32( state[b], 12 );
 250              		.loc 1 98 0
 251 0106 7C40     		eors	r4, r7
  99:Source\mbedtls_open\library/chacha20.c **** 
 252              		.loc 1 99 0
 253 0108 5146     		mov	r1, r10
 254 010a CC41     		rors	r4, r4, r1
 102:Source\mbedtls_open\library/chacha20.c ****     state[d] ^= state[a];
 255              		.loc 1 102 0
 256 010c A444     		add	ip, ip, r4
 257 010e 6146     		mov	r1, ip
 258 0110 0160     		str	r1, [r0]
 103:Source\mbedtls_open\library/chacha20.c ****     state[d] = ROTL32( state[d], 8 );
 259              		.loc 1 103 0
 260 0112 4B40     		eors	r3, r1
 104:Source\mbedtls_open\library/chacha20.c **** 
 261              		.loc 1 104 0
 262 0114 4946     		mov	r1, r9
 263 0116 CB41     		rors	r3, r3, r1
 264 0118 C363     		str	r3, [r0, #60]
 107:Source\mbedtls_open\library/chacha20.c ****     state[b] ^= state[c];
 265              		.loc 1 107 0
 266 011a DF19     		adds	r7, r3, r7
 267 011c 8762     		str	r7, [r0, #40]
 108:Source\mbedtls_open\library/chacha20.c ****     state[b] = ROTL32( state[b], 7 );
 268              		.loc 1 108 0
 269 011e 6740     		eors	r7, r4
 109:Source\mbedtls_open\library/chacha20.c **** }
 270              		.loc 1 109 0
 271 0120 4146     		mov	r1, r8
 272 0122 CF41     		rors	r7, r7, r1
 273 0124 4761     		str	r7, [r0, #20]
 274              	.LVL6:
 275              	.LBE27:
ARM GAS  C:\Users\Phuong\AppData\Local\Temp\ccA2GnFN.s 			page 9


 276              	.LBE26:
 277              	.LBB28:
 278              	.LBB29:
  92:Source\mbedtls_open\library/chacha20.c ****     state[d] ^= state[a];
 279              		.loc 1 92 0
 280 0126 039F     		ldr	r7, [sp, #12]
 281 0128 0299     		ldr	r1, [sp, #8]
 282 012a CB19     		adds	r3, r1, r7
  93:Source\mbedtls_open\library/chacha20.c ****     state[d] = ROTL32( state[d], 16 );
 283              		.loc 1 93 0
 284 012c 079C     		ldr	r4, [sp, #28]
 285 012e 5C40     		eors	r4, r3
  94:Source\mbedtls_open\library/chacha20.c **** 
 286              		.loc 1 94 0
 287 0130 5F46     		mov	r7, fp
 288 0132 FC41     		rors	r4, r4, r7
  97:Source\mbedtls_open\library/chacha20.c ****     state[b] ^= state[c];
 289              		.loc 1 97 0
 290 0134 A619     		adds	r6, r4, r6
  98:Source\mbedtls_open\library/chacha20.c ****     state[b] = ROTL32( state[b], 12 );
 291              		.loc 1 98 0
 292 0136 7140     		eors	r1, r6
  99:Source\mbedtls_open\library/chacha20.c **** 
 293              		.loc 1 99 0
 294 0138 5746     		mov	r7, r10
 295 013a F941     		rors	r1, r1, r7
 102:Source\mbedtls_open\library/chacha20.c ****     state[d] ^= state[a];
 296              		.loc 1 102 0
 297 013c CB18     		adds	r3, r1, r3
 298 013e 4360     		str	r3, [r0, #4]
 103:Source\mbedtls_open\library/chacha20.c ****     state[d] = ROTL32( state[d], 8 );
 299              		.loc 1 103 0
 300 0140 6340     		eors	r3, r4
 104:Source\mbedtls_open\library/chacha20.c **** 
 301              		.loc 1 104 0
 302 0142 4F46     		mov	r7, r9
 303 0144 FB41     		rors	r3, r3, r7
 304 0146 0363     		str	r3, [r0, #48]
 107:Source\mbedtls_open\library/chacha20.c ****     state[b] ^= state[c];
 305              		.loc 1 107 0
 306 0148 9E19     		adds	r6, r3, r6
 307 014a C662     		str	r6, [r0, #44]
 108:Source\mbedtls_open\library/chacha20.c ****     state[b] = ROTL32( state[b], 7 );
 308              		.loc 1 108 0
 309 014c 4E40     		eors	r6, r1
 109:Source\mbedtls_open\library/chacha20.c **** }
 310              		.loc 1 109 0
 311 014e 4746     		mov	r7, r8
 312 0150 FE41     		rors	r6, r6, r7
 313 0152 8661     		str	r6, [r0, #24]
 314              	.LVL7:
 315              	.LBE29:
 316              	.LBE28:
 317              	.LBB30:
 318              	.LBB31:
  92:Source\mbedtls_open\library/chacha20.c ****     state[d] ^= state[a];
 319              		.loc 1 92 0
ARM GAS  C:\Users\Phuong\AppData\Local\Temp\ccA2GnFN.s 			page 10


 320 0154 009F     		ldr	r7, [sp]
 321 0156 D319     		adds	r3, r2, r7
  93:Source\mbedtls_open\library/chacha20.c ****     state[d] = ROTL32( state[d], 16 );
 322              		.loc 1 93 0
 323 0158 049E     		ldr	r6, [sp, #16]
 324 015a 5E40     		eors	r6, r3
 325 015c 3100     		movs	r1, r6
  94:Source\mbedtls_open\library/chacha20.c **** 
 326              		.loc 1 94 0
 327 015e 5E46     		mov	r6, fp
 328 0160 F141     		rors	r1, r1, r6
  97:Source\mbedtls_open\library/chacha20.c ****     state[b] ^= state[c];
 329              		.loc 1 97 0
 330 0162 089C     		ldr	r4, [sp, #32]
 331 0164 0C19     		adds	r4, r1, r4
  98:Source\mbedtls_open\library/chacha20.c ****     state[b] = ROTL32( state[b], 12 );
 332              		.loc 1 98 0
 333 0166 6240     		eors	r2, r4
  99:Source\mbedtls_open\library/chacha20.c **** 
 334              		.loc 1 99 0
 335 0168 5646     		mov	r6, r10
 336 016a F241     		rors	r2, r2, r6
 102:Source\mbedtls_open\library/chacha20.c ****     state[d] ^= state[a];
 337              		.loc 1 102 0
 338 016c D318     		adds	r3, r2, r3
 339 016e 8360     		str	r3, [r0, #8]
 103:Source\mbedtls_open\library/chacha20.c ****     state[d] = ROTL32( state[d], 8 );
 340              		.loc 1 103 0
 341 0170 5940     		eors	r1, r3
 104:Source\mbedtls_open\library/chacha20.c **** 
 342              		.loc 1 104 0
 343 0172 4E46     		mov	r6, r9
 344 0174 F141     		rors	r1, r1, r6
 345 0176 4163     		str	r1, [r0, #52]
 107:Source\mbedtls_open\library/chacha20.c ****     state[b] ^= state[c];
 346              		.loc 1 107 0
 347 0178 0919     		adds	r1, r1, r4
 348 017a 0162     		str	r1, [r0, #32]
 108:Source\mbedtls_open\library/chacha20.c ****     state[b] = ROTL32( state[b], 7 );
 349              		.loc 1 108 0
 350 017c 4A40     		eors	r2, r1
 109:Source\mbedtls_open\library/chacha20.c **** }
 351              		.loc 1 109 0
 352 017e 4646     		mov	r6, r8
 353 0180 F241     		rors	r2, r2, r6
 354 0182 C261     		str	r2, [r0, #28]
 355              	.LVL8:
 356              	.LBE31:
 357              	.LBE30:
 358              	.LBB32:
 359              	.LBB33:
  92:Source\mbedtls_open\library/chacha20.c ****     state[d] ^= state[a];
 360              		.loc 1 92 0
 361 0184 099A     		ldr	r2, [sp, #36]
 362 0186 5119     		adds	r1, r2, r5
  93:Source\mbedtls_open\library/chacha20.c ****     state[d] = ROTL32( state[d], 16 );
 363              		.loc 1 93 0
ARM GAS  C:\Users\Phuong\AppData\Local\Temp\ccA2GnFN.s 			page 11


 364 0188 019B     		ldr	r3, [sp, #4]
 365 018a 4B40     		eors	r3, r1
  94:Source\mbedtls_open\library/chacha20.c **** 
 366              		.loc 1 94 0
 367 018c 5D46     		mov	r5, fp
 368 018e EB41     		rors	r3, r3, r5
  97:Source\mbedtls_open\library/chacha20.c ****     state[b] ^= state[c];
 369              		.loc 1 97 0
 370 0190 059C     		ldr	r4, [sp, #20]
 371 0192 1C19     		adds	r4, r3, r4
  98:Source\mbedtls_open\library/chacha20.c ****     state[b] = ROTL32( state[b], 12 );
 372              		.loc 1 98 0
 373 0194 6240     		eors	r2, r4
  99:Source\mbedtls_open\library/chacha20.c **** 
 374              		.loc 1 99 0
 375 0196 5546     		mov	r5, r10
 376 0198 EA41     		rors	r2, r2, r5
 102:Source\mbedtls_open\library/chacha20.c ****     state[d] ^= state[a];
 377              		.loc 1 102 0
 378 019a 5518     		adds	r5, r2, r1
 379 019c C560     		str	r5, [r0, #12]
 103:Source\mbedtls_open\library/chacha20.c ****     state[d] = ROTL32( state[d], 8 );
 380              		.loc 1 103 0
 381 019e 6B40     		eors	r3, r5
 104:Source\mbedtls_open\library/chacha20.c **** 
 382              		.loc 1 104 0
 383 01a0 4946     		mov	r1, r9
 384 01a2 CB41     		rors	r3, r3, r1
 385 01a4 8363     		str	r3, [r0, #56]
 107:Source\mbedtls_open\library/chacha20.c ****     state[b] ^= state[c];
 386              		.loc 1 107 0
 387 01a6 1D19     		adds	r5, r3, r4
 388 01a8 4562     		str	r5, [r0, #36]
 108:Source\mbedtls_open\library/chacha20.c ****     state[b] = ROTL32( state[b], 7 );
 389              		.loc 1 108 0
 390 01aa 6A40     		eors	r2, r5
 109:Source\mbedtls_open\library/chacha20.c **** }
 391              		.loc 1 109 0
 392 01ac F241     		rors	r2, r2, r6
 393 01ae 0261     		str	r2, [r0, #16]
 394              	.LVL9:
 395              	.LBE33:
 396              	.LBE32:
 122:Source\mbedtls_open\library/chacha20.c ****     chacha20_quarter_round( state, 0, 4, 8,  12 );
 123:Source\mbedtls_open\library/chacha20.c ****     chacha20_quarter_round( state, 1, 5, 9,  13 );
 124:Source\mbedtls_open\library/chacha20.c ****     chacha20_quarter_round( state, 2, 6, 10, 14 );
 125:Source\mbedtls_open\library/chacha20.c ****     chacha20_quarter_round( state, 3, 7, 11, 15 );
 126:Source\mbedtls_open\library/chacha20.c **** 
 127:Source\mbedtls_open\library/chacha20.c ****     chacha20_quarter_round( state, 0, 5, 10, 15 );
 128:Source\mbedtls_open\library/chacha20.c ****     chacha20_quarter_round( state, 1, 6, 11, 12 );
 129:Source\mbedtls_open\library/chacha20.c ****     chacha20_quarter_round( state, 2, 7, 8,  13 );
 130:Source\mbedtls_open\library/chacha20.c ****     chacha20_quarter_round( state, 3, 4, 9,  14 );
 131:Source\mbedtls_open\library/chacha20.c **** }
 397              		.loc 1 131 0
 398 01b0 0BB0     		add	sp, sp, #44
 399              		@ sp needed
 400 01b2 3CBC     		pop	{r2, r3, r4, r5}
ARM GAS  C:\Users\Phuong\AppData\Local\Temp\ccA2GnFN.s 			page 12


 401 01b4 9046     		mov	r8, r2
 402 01b6 9946     		mov	r9, r3
 403 01b8 A246     		mov	r10, r4
 404 01ba AB46     		mov	fp, r5
 405 01bc F0BD     		pop	{r4, r5, r6, r7, pc}
 406              		.cfi_endproc
 407              	.LFE2:
 408              		.size	chacha20_inner_block, .-chacha20_inner_block
 409 01be C046     		.section	.text.chacha20_block,"ax",%progbits
 410              		.align	2
 411              		.code	16
 412              		.thumb_func
 413              		.type	chacha20_block, %function
 414              	chacha20_block:
 415              	.LFB3:
 132:Source\mbedtls_open\library/chacha20.c **** 
 133:Source\mbedtls_open\library/chacha20.c **** /**
 134:Source\mbedtls_open\library/chacha20.c ****  * \brief               Generates a keystream block.
 135:Source\mbedtls_open\library/chacha20.c ****  *
 136:Source\mbedtls_open\library/chacha20.c ****  * \param initial_state The initial ChaCha20 state (key, nonce, counter).
 137:Source\mbedtls_open\library/chacha20.c ****  * \param keystream     Generated keystream bytes are written to this buffer.
 138:Source\mbedtls_open\library/chacha20.c ****  */
 139:Source\mbedtls_open\library/chacha20.c **** static void chacha20_block( const uint32_t initial_state[16],
 140:Source\mbedtls_open\library/chacha20.c ****                             unsigned char keystream[64] )
 141:Source\mbedtls_open\library/chacha20.c **** {
 416              		.loc 1 141 0
 417              		.cfi_startproc
 418              		@ args = 0, pretend = 0, frame = 72
 419              		@ frame_needed = 0, uses_anonymous_args = 0
 420              	.LVL10:
 421 0000 70B5     		push	{r4, r5, r6, lr}
 422              		.cfi_def_cfa_offset 16
 423              		.cfi_offset 4, -16
 424              		.cfi_offset 5, -12
 425              		.cfi_offset 6, -8
 426              		.cfi_offset 14, -4
 427 0002 92B0     		sub	sp, sp, #72
 428              		.cfi_def_cfa_offset 88
 429 0004 0600     		movs	r6, r0
 430 0006 0C00     		movs	r4, r1
 142:Source\mbedtls_open\library/chacha20.c ****     uint32_t working_state[16];
 143:Source\mbedtls_open\library/chacha20.c ****     size_t i;
 144:Source\mbedtls_open\library/chacha20.c **** 
 145:Source\mbedtls_open\library/chacha20.c ****     memcpy( working_state,
 431              		.loc 1 145 0
 432 0008 4022     		movs	r2, #64
 433 000a 0100     		movs	r1, r0
 434              	.LVL11:
 435 000c 02A8     		add	r0, sp, #8
 436              	.LVL12:
 437 000e FFF7FEFF 		bl	memcpy
 438              	.LVL13:
 146:Source\mbedtls_open\library/chacha20.c ****             initial_state,
 147:Source\mbedtls_open\library/chacha20.c ****             CHACHA20_BLOCK_SIZE_BYTES );
 148:Source\mbedtls_open\library/chacha20.c **** 
 149:Source\mbedtls_open\library/chacha20.c ****     for( i = 0U; i < 10U; i++ )
 439              		.loc 1 149 0
ARM GAS  C:\Users\Phuong\AppData\Local\Temp\ccA2GnFN.s 			page 13


 440 0012 0025     		movs	r5, #0
 441 0014 03E0     		b	.L3
 442              	.LVL14:
 443              	.L4:
 150:Source\mbedtls_open\library/chacha20.c ****         chacha20_inner_block( working_state );
 444              		.loc 1 150 0 discriminator 3
 445 0016 02A8     		add	r0, sp, #8
 446 0018 FFF7FEFF 		bl	chacha20_inner_block
 447              	.LVL15:
 149:Source\mbedtls_open\library/chacha20.c ****         chacha20_inner_block( working_state );
 448              		.loc 1 149 0 discriminator 3
 449 001c 0135     		adds	r5, r5, #1
 450              	.LVL16:
 451              	.L3:
 149:Source\mbedtls_open\library/chacha20.c ****         chacha20_inner_block( working_state );
 452              		.loc 1 149 0 is_stmt 0 discriminator 1
 453 001e 092D     		cmp	r5, #9
 454 0020 F9D9     		bls	.L4
 151:Source\mbedtls_open\library/chacha20.c **** 
 152:Source\mbedtls_open\library/chacha20.c ****     working_state[ 0] += initial_state[ 0];
 455              		.loc 1 152 0 is_stmt 1
 456 0022 029B     		ldr	r3, [sp, #8]
 457 0024 3268     		ldr	r2, [r6]
 458 0026 9446     		mov	ip, r2
 459 0028 6344     		add	r3, r3, ip
 460 002a 0293     		str	r3, [sp, #8]
 153:Source\mbedtls_open\library/chacha20.c ****     working_state[ 1] += initial_state[ 1];
 461              		.loc 1 153 0
 462 002c 039B     		ldr	r3, [sp, #12]
 463 002e 7268     		ldr	r2, [r6, #4]
 464 0030 9446     		mov	ip, r2
 465 0032 6344     		add	r3, r3, ip
 466 0034 0393     		str	r3, [sp, #12]
 154:Source\mbedtls_open\library/chacha20.c ****     working_state[ 2] += initial_state[ 2];
 467              		.loc 1 154 0
 468 0036 049B     		ldr	r3, [sp, #16]
 469 0038 B268     		ldr	r2, [r6, #8]
 470 003a 9446     		mov	ip, r2
 471 003c 6344     		add	r3, r3, ip
 472 003e 0493     		str	r3, [sp, #16]
 155:Source\mbedtls_open\library/chacha20.c ****     working_state[ 3] += initial_state[ 3];
 473              		.loc 1 155 0
 474 0040 059B     		ldr	r3, [sp, #20]
 475 0042 F268     		ldr	r2, [r6, #12]
 476 0044 9446     		mov	ip, r2
 477 0046 6344     		add	r3, r3, ip
 478 0048 0593     		str	r3, [sp, #20]
 156:Source\mbedtls_open\library/chacha20.c ****     working_state[ 4] += initial_state[ 4];
 479              		.loc 1 156 0
 480 004a 069B     		ldr	r3, [sp, #24]
 481 004c 3269     		ldr	r2, [r6, #16]
 482 004e 9446     		mov	ip, r2
 483 0050 6344     		add	r3, r3, ip
 484 0052 0693     		str	r3, [sp, #24]
 157:Source\mbedtls_open\library/chacha20.c ****     working_state[ 5] += initial_state[ 5];
 485              		.loc 1 157 0
 486 0054 079B     		ldr	r3, [sp, #28]
ARM GAS  C:\Users\Phuong\AppData\Local\Temp\ccA2GnFN.s 			page 14


 487 0056 7269     		ldr	r2, [r6, #20]
 488 0058 9446     		mov	ip, r2
 489 005a 6344     		add	r3, r3, ip
 490 005c 0793     		str	r3, [sp, #28]
 158:Source\mbedtls_open\library/chacha20.c ****     working_state[ 6] += initial_state[ 6];
 491              		.loc 1 158 0
 492 005e 089B     		ldr	r3, [sp, #32]
 493 0060 B269     		ldr	r2, [r6, #24]
 494 0062 9446     		mov	ip, r2
 495 0064 6344     		add	r3, r3, ip
 496 0066 0893     		str	r3, [sp, #32]
 159:Source\mbedtls_open\library/chacha20.c ****     working_state[ 7] += initial_state[ 7];
 497              		.loc 1 159 0
 498 0068 099B     		ldr	r3, [sp, #36]
 499 006a F269     		ldr	r2, [r6, #28]
 500 006c 9446     		mov	ip, r2
 501 006e 6344     		add	r3, r3, ip
 502 0070 0993     		str	r3, [sp, #36]
 160:Source\mbedtls_open\library/chacha20.c ****     working_state[ 8] += initial_state[ 8];
 503              		.loc 1 160 0
 504 0072 0A9B     		ldr	r3, [sp, #40]
 505 0074 326A     		ldr	r2, [r6, #32]
 506 0076 9446     		mov	ip, r2
 507 0078 6344     		add	r3, r3, ip
 508 007a 0A93     		str	r3, [sp, #40]
 161:Source\mbedtls_open\library/chacha20.c ****     working_state[ 9] += initial_state[ 9];
 509              		.loc 1 161 0
 510 007c 0B9B     		ldr	r3, [sp, #44]
 511 007e 726A     		ldr	r2, [r6, #36]
 512 0080 9446     		mov	ip, r2
 513 0082 6344     		add	r3, r3, ip
 514 0084 0B93     		str	r3, [sp, #44]
 162:Source\mbedtls_open\library/chacha20.c ****     working_state[10] += initial_state[10];
 515              		.loc 1 162 0
 516 0086 0C9B     		ldr	r3, [sp, #48]
 517 0088 B26A     		ldr	r2, [r6, #40]
 518 008a 9446     		mov	ip, r2
 519 008c 6344     		add	r3, r3, ip
 520 008e 0C93     		str	r3, [sp, #48]
 163:Source\mbedtls_open\library/chacha20.c ****     working_state[11] += initial_state[11];
 521              		.loc 1 163 0
 522 0090 0D9B     		ldr	r3, [sp, #52]
 523 0092 F26A     		ldr	r2, [r6, #44]
 524 0094 9446     		mov	ip, r2
 525 0096 6344     		add	r3, r3, ip
 526 0098 0D93     		str	r3, [sp, #52]
 164:Source\mbedtls_open\library/chacha20.c ****     working_state[12] += initial_state[12];
 527              		.loc 1 164 0
 528 009a 0E9B     		ldr	r3, [sp, #56]
 529 009c 326B     		ldr	r2, [r6, #48]
 530 009e 9446     		mov	ip, r2
 531 00a0 6344     		add	r3, r3, ip
 532 00a2 0E93     		str	r3, [sp, #56]
 165:Source\mbedtls_open\library/chacha20.c ****     working_state[13] += initial_state[13];
 533              		.loc 1 165 0
 534 00a4 0F9B     		ldr	r3, [sp, #60]
 535 00a6 726B     		ldr	r2, [r6, #52]
ARM GAS  C:\Users\Phuong\AppData\Local\Temp\ccA2GnFN.s 			page 15


 536 00a8 9446     		mov	ip, r2
 537 00aa 6344     		add	r3, r3, ip
 538 00ac 0F93     		str	r3, [sp, #60]
 166:Source\mbedtls_open\library/chacha20.c ****     working_state[14] += initial_state[14];
 539              		.loc 1 166 0
 540 00ae 109B     		ldr	r3, [sp, #64]
 541 00b0 B26B     		ldr	r2, [r6, #56]
 542 00b2 9446     		mov	ip, r2
 543 00b4 6344     		add	r3, r3, ip
 544 00b6 1093     		str	r3, [sp, #64]
 167:Source\mbedtls_open\library/chacha20.c ****     working_state[15] += initial_state[15];
 545              		.loc 1 167 0
 546 00b8 F36B     		ldr	r3, [r6, #60]
 547 00ba 119A     		ldr	r2, [sp, #68]
 548 00bc 0192     		str	r2, [sp, #4]
 549 00be 9446     		mov	ip, r2
 550 00c0 6344     		add	r3, r3, ip
 551 00c2 1193     		str	r3, [sp, #68]
 552              	.LVL17:
 168:Source\mbedtls_open\library/chacha20.c **** 
 169:Source\mbedtls_open\library/chacha20.c ****     for( i = 0U; i < 16; i++ )
 553              		.loc 1 169 0
 554 00c4 0021     		movs	r1, #0
 555 00c6 0DE0     		b	.L5
 556              	.LVL18:
 557              	.L6:
 558              	.LBB34:
 170:Source\mbedtls_open\library/chacha20.c ****     {
 171:Source\mbedtls_open\library/chacha20.c ****         size_t offset = i * 4U;
 559              		.loc 1 171 0 discriminator 3
 560 00c8 8B00     		lsls	r3, r1, #2
 561              	.LVL19:
 172:Source\mbedtls_open\library/chacha20.c **** 
 173:Source\mbedtls_open\library/chacha20.c ****         keystream[offset     ] = (unsigned char)( working_state[i]       );
 562              		.loc 1 173 0 discriminator 3
 563 00ca 02AA     		add	r2, sp, #8
 564 00cc 9A58     		ldr	r2, [r3, r2]
 565 00ce E254     		strb	r2, [r4, r3]
 174:Source\mbedtls_open\library/chacha20.c ****         keystream[offset + 1U] = (unsigned char)( working_state[i] >>  8 );
 566              		.loc 1 174 0 discriminator 3
 567 00d0 581C     		adds	r0, r3, #1
 568 00d2 150A     		lsrs	r5, r2, #8
 569 00d4 2554     		strb	r5, [r4, r0]
 175:Source\mbedtls_open\library/chacha20.c ****         keystream[offset + 2U] = (unsigned char)( working_state[i] >> 16 );
 570              		.loc 1 175 0 discriminator 3
 571 00d6 981C     		adds	r0, r3, #2
 572 00d8 150C     		lsrs	r5, r2, #16
 573 00da 2554     		strb	r5, [r4, r0]
 176:Source\mbedtls_open\library/chacha20.c ****         keystream[offset + 3U] = (unsigned char)( working_state[i] >> 24 );
 574              		.loc 1 176 0 discriminator 3
 575 00dc 0333     		adds	r3, r3, #3
 576              	.LVL20:
 577 00de 120E     		lsrs	r2, r2, #24
 578 00e0 E254     		strb	r2, [r4, r3]
 579              	.LBE34:
 169:Source\mbedtls_open\library/chacha20.c ****     {
 580              		.loc 1 169 0 discriminator 3
ARM GAS  C:\Users\Phuong\AppData\Local\Temp\ccA2GnFN.s 			page 16


 581 00e2 0131     		adds	r1, r1, #1
 582              	.LVL21:
 583              	.L5:
 169:Source\mbedtls_open\library/chacha20.c ****     {
 584              		.loc 1 169 0 is_stmt 0 discriminator 1
 585 00e4 0F29     		cmp	r1, #15
 586 00e6 EFD9     		bls	.L6
 177:Source\mbedtls_open\library/chacha20.c ****     }
 178:Source\mbedtls_open\library/chacha20.c **** 
 179:Source\mbedtls_open\library/chacha20.c ****     mbedtls_platform_zeroize( working_state, sizeof( working_state ) );
 587              		.loc 1 179 0 is_stmt 1
 588 00e8 4021     		movs	r1, #64
 589              	.LVL22:
 590 00ea 02A8     		add	r0, sp, #8
 591 00ec FFF7FEFF 		bl	mbedtls_platform_zeroize
 592              	.LVL23:
 180:Source\mbedtls_open\library/chacha20.c **** }
 593              		.loc 1 180 0
 594 00f0 12B0     		add	sp, sp, #72
 595              		@ sp needed
 596              	.LVL24:
 597              	.LVL25:
 598 00f2 70BD     		pop	{r4, r5, r6, pc}
 599              		.cfi_endproc
 600              	.LFE3:
 601              		.size	chacha20_block, .-chacha20_block
 602              		.section	.text.mbedtls_chacha20_init,"ax",%progbits
 603              		.align	2
 604              		.global	mbedtls_chacha20_init
 605              		.code	16
 606              		.thumb_func
 607              		.type	mbedtls_chacha20_init, %function
 608              	mbedtls_chacha20_init:
 609              	.LFB4:
 181:Source\mbedtls_open\library/chacha20.c **** 
 182:Source\mbedtls_open\library/chacha20.c **** void mbedtls_chacha20_init( mbedtls_chacha20_context *ctx )
 183:Source\mbedtls_open\library/chacha20.c **** {
 610              		.loc 1 183 0
 611              		.cfi_startproc
 612              		@ args = 0, pretend = 0, frame = 0
 613              		@ frame_needed = 0, uses_anonymous_args = 0
 614              	.LVL26:
 615 0000 10B5     		push	{r4, lr}
 616              		.cfi_def_cfa_offset 8
 617              		.cfi_offset 4, -8
 618              		.cfi_offset 14, -4
 619 0002 041E     		subs	r4, r0, #0
 184:Source\mbedtls_open\library/chacha20.c ****     if( ctx != NULL )
 620              		.loc 1 184 0
 621 0004 0AD0     		beq	.L7
 185:Source\mbedtls_open\library/chacha20.c ****     {
 186:Source\mbedtls_open\library/chacha20.c ****         mbedtls_platform_zeroize( ctx->state, sizeof( ctx->state ) );
 622              		.loc 1 186 0
 623 0006 4021     		movs	r1, #64
 624 0008 FFF7FEFF 		bl	mbedtls_platform_zeroize
 625              	.LVL27:
 187:Source\mbedtls_open\library/chacha20.c ****         mbedtls_platform_zeroize( ctx->keystream8, sizeof( ctx->keystream8 ) );
ARM GAS  C:\Users\Phuong\AppData\Local\Temp\ccA2GnFN.s 			page 17


 626              		.loc 1 187 0
 627 000c 2000     		movs	r0, r4
 628 000e 4030     		adds	r0, r0, #64
 629 0010 4021     		movs	r1, #64
 630 0012 FFF7FEFF 		bl	mbedtls_platform_zeroize
 631              	.LVL28:
 188:Source\mbedtls_open\library/chacha20.c **** 
 189:Source\mbedtls_open\library/chacha20.c ****         /* Initially, there's no keystream bytes available */
 190:Source\mbedtls_open\library/chacha20.c ****         ctx->keystream_bytes_used = CHACHA20_BLOCK_SIZE_BYTES;
 632              		.loc 1 190 0
 633 0016 4022     		movs	r2, #64
 634 0018 8023     		movs	r3, #128
 635 001a E250     		str	r2, [r4, r3]
 636              	.L7:
 191:Source\mbedtls_open\library/chacha20.c ****     }
 192:Source\mbedtls_open\library/chacha20.c **** }
 637              		.loc 1 192 0
 638              		@ sp needed
 639              	.LVL29:
 640 001c 10BD     		pop	{r4, pc}
 641              		.cfi_endproc
 642              	.LFE4:
 643              		.size	mbedtls_chacha20_init, .-mbedtls_chacha20_init
 644 001e C046     		.section	.text.mbedtls_chacha20_free,"ax",%progbits
 645              		.align	2
 646              		.global	mbedtls_chacha20_free
 647              		.code	16
 648              		.thumb_func
 649              		.type	mbedtls_chacha20_free, %function
 650              	mbedtls_chacha20_free:
 651              	.LFB5:
 193:Source\mbedtls_open\library/chacha20.c **** 
 194:Source\mbedtls_open\library/chacha20.c **** void mbedtls_chacha20_free( mbedtls_chacha20_context *ctx )
 195:Source\mbedtls_open\library/chacha20.c **** {
 652              		.loc 1 195 0
 653              		.cfi_startproc
 654              		@ args = 0, pretend = 0, frame = 0
 655              		@ frame_needed = 0, uses_anonymous_args = 0
 656              	.LVL30:
 657 0000 10B5     		push	{r4, lr}
 658              		.cfi_def_cfa_offset 8
 659              		.cfi_offset 4, -8
 660              		.cfi_offset 14, -4
 196:Source\mbedtls_open\library/chacha20.c ****     if( ctx != NULL )
 661              		.loc 1 196 0
 662 0002 0028     		cmp	r0, #0
 663 0004 02D0     		beq	.L9
 197:Source\mbedtls_open\library/chacha20.c ****     {
 198:Source\mbedtls_open\library/chacha20.c ****         mbedtls_platform_zeroize( ctx, sizeof( mbedtls_chacha20_context ) );
 664              		.loc 1 198 0
 665 0006 8421     		movs	r1, #132
 666 0008 FFF7FEFF 		bl	mbedtls_platform_zeroize
 667              	.LVL31:
 668              	.L9:
 199:Source\mbedtls_open\library/chacha20.c ****     }
 200:Source\mbedtls_open\library/chacha20.c **** }
 669              		.loc 1 200 0
ARM GAS  C:\Users\Phuong\AppData\Local\Temp\ccA2GnFN.s 			page 18


 670              		@ sp needed
 671 000c 10BD     		pop	{r4, pc}
 672              		.cfi_endproc
 673              	.LFE5:
 674              		.size	mbedtls_chacha20_free, .-mbedtls_chacha20_free
 675 000e C046     		.section	.text.mbedtls_chacha20_setkey,"ax",%progbits
 676              		.align	2
 677              		.global	mbedtls_chacha20_setkey
 678              		.code	16
 679              		.thumb_func
 680              		.type	mbedtls_chacha20_setkey, %function
 681              	mbedtls_chacha20_setkey:
 682              	.LFB6:
 201:Source\mbedtls_open\library/chacha20.c **** 
 202:Source\mbedtls_open\library/chacha20.c **** int mbedtls_chacha20_setkey( mbedtls_chacha20_context *ctx,
 203:Source\mbedtls_open\library/chacha20.c ****                             const unsigned char key[32] )
 204:Source\mbedtls_open\library/chacha20.c **** {
 683              		.loc 1 204 0
 684              		.cfi_startproc
 685              		@ args = 0, pretend = 0, frame = 0
 686              		@ frame_needed = 0, uses_anonymous_args = 0
 687              		@ link register save eliminated.
 688              	.LVL32:
 205:Source\mbedtls_open\library/chacha20.c ****     if( ( ctx == NULL ) || ( key == NULL ) )
 689              		.loc 1 205 0
 690 0000 0028     		cmp	r0, #0
 691 0002 63D0     		beq	.L13
 692              		.loc 1 205 0 is_stmt 0 discriminator 1
 693 0004 0029     		cmp	r1, #0
 694 0006 64D0     		beq	.L14
 206:Source\mbedtls_open\library/chacha20.c ****     {
 207:Source\mbedtls_open\library/chacha20.c ****         return( MBEDTLS_ERR_CHACHA20_BAD_INPUT_DATA );
 208:Source\mbedtls_open\library/chacha20.c ****     }
 209:Source\mbedtls_open\library/chacha20.c **** 
 210:Source\mbedtls_open\library/chacha20.c ****     /* ChaCha20 constants - the string "expand 32-byte k" */
 211:Source\mbedtls_open\library/chacha20.c ****     ctx->state[0] = 0x61707865;
 695              		.loc 1 211 0 is_stmt 1
 696 0008 334B     		ldr	r3, .L15
 697 000a 0360     		str	r3, [r0]
 212:Source\mbedtls_open\library/chacha20.c ****     ctx->state[1] = 0x3320646e;
 698              		.loc 1 212 0
 699 000c 334B     		ldr	r3, .L15+4
 700 000e 4360     		str	r3, [r0, #4]
 213:Source\mbedtls_open\library/chacha20.c ****     ctx->state[2] = 0x79622d32;
 701              		.loc 1 213 0
 702 0010 334B     		ldr	r3, .L15+8
 703 0012 8360     		str	r3, [r0, #8]
 214:Source\mbedtls_open\library/chacha20.c ****     ctx->state[3] = 0x6b206574;
 704              		.loc 1 214 0
 705 0014 334B     		ldr	r3, .L15+12
 706 0016 C360     		str	r3, [r0, #12]
 215:Source\mbedtls_open\library/chacha20.c **** 
 216:Source\mbedtls_open\library/chacha20.c ****     /* Set key */
 217:Source\mbedtls_open\library/chacha20.c ****     ctx->state[4]  = BYTES_TO_U32_LE( key, 0 );
 707              		.loc 1 217 0
 708 0018 0A78     		ldrb	r2, [r1]
 709 001a 4B78     		ldrb	r3, [r1, #1]
ARM GAS  C:\Users\Phuong\AppData\Local\Temp\ccA2GnFN.s 			page 19


 710 001c 1B02     		lsls	r3, r3, #8
 711 001e 1343     		orrs	r3, r2
 712 0020 8A78     		ldrb	r2, [r1, #2]
 713 0022 1204     		lsls	r2, r2, #16
 714 0024 1343     		orrs	r3, r2
 715 0026 CA78     		ldrb	r2, [r1, #3]
 716 0028 1206     		lsls	r2, r2, #24
 717 002a 1343     		orrs	r3, r2
 718 002c 0361     		str	r3, [r0, #16]
 218:Source\mbedtls_open\library/chacha20.c ****     ctx->state[5]  = BYTES_TO_U32_LE( key, 4 );
 719              		.loc 1 218 0
 720 002e 0A79     		ldrb	r2, [r1, #4]
 721 0030 4B79     		ldrb	r3, [r1, #5]
 722 0032 1B02     		lsls	r3, r3, #8
 723 0034 1343     		orrs	r3, r2
 724 0036 8A79     		ldrb	r2, [r1, #6]
 725 0038 1204     		lsls	r2, r2, #16
 726 003a 1343     		orrs	r3, r2
 727 003c CA79     		ldrb	r2, [r1, #7]
 728 003e 1206     		lsls	r2, r2, #24
 729 0040 1343     		orrs	r3, r2
 730 0042 4361     		str	r3, [r0, #20]
 219:Source\mbedtls_open\library/chacha20.c ****     ctx->state[6]  = BYTES_TO_U32_LE( key, 8 );
 731              		.loc 1 219 0
 732 0044 0A7A     		ldrb	r2, [r1, #8]
 733 0046 4B7A     		ldrb	r3, [r1, #9]
 734 0048 1B02     		lsls	r3, r3, #8
 735 004a 1343     		orrs	r3, r2
 736 004c 8A7A     		ldrb	r2, [r1, #10]
 737 004e 1204     		lsls	r2, r2, #16
 738 0050 1343     		orrs	r3, r2
 739 0052 CA7A     		ldrb	r2, [r1, #11]
 740 0054 1206     		lsls	r2, r2, #24
 741 0056 1343     		orrs	r3, r2
 742 0058 8361     		str	r3, [r0, #24]
 220:Source\mbedtls_open\library/chacha20.c ****     ctx->state[7]  = BYTES_TO_U32_LE( key, 12 );
 743              		.loc 1 220 0
 744 005a 0A7B     		ldrb	r2, [r1, #12]
 745 005c 4B7B     		ldrb	r3, [r1, #13]
 746 005e 1B02     		lsls	r3, r3, #8
 747 0060 1343     		orrs	r3, r2
 748 0062 8A7B     		ldrb	r2, [r1, #14]
 749 0064 1204     		lsls	r2, r2, #16
 750 0066 1343     		orrs	r3, r2
 751 0068 CA7B     		ldrb	r2, [r1, #15]
 752 006a 1206     		lsls	r2, r2, #24
 753 006c 1343     		orrs	r3, r2
 754 006e C361     		str	r3, [r0, #28]
 221:Source\mbedtls_open\library/chacha20.c ****     ctx->state[8]  = BYTES_TO_U32_LE( key, 16 );
 755              		.loc 1 221 0
 756 0070 0A7C     		ldrb	r2, [r1, #16]
 757 0072 4B7C     		ldrb	r3, [r1, #17]
 758 0074 1B02     		lsls	r3, r3, #8
 759 0076 1343     		orrs	r3, r2
 760 0078 8A7C     		ldrb	r2, [r1, #18]
 761 007a 1204     		lsls	r2, r2, #16
 762 007c 1343     		orrs	r3, r2
ARM GAS  C:\Users\Phuong\AppData\Local\Temp\ccA2GnFN.s 			page 20


 763 007e CA7C     		ldrb	r2, [r1, #19]
 764 0080 1206     		lsls	r2, r2, #24
 765 0082 1343     		orrs	r3, r2
 766 0084 0362     		str	r3, [r0, #32]
 222:Source\mbedtls_open\library/chacha20.c ****     ctx->state[9]  = BYTES_TO_U32_LE( key, 20 );
 767              		.loc 1 222 0
 768 0086 0A7D     		ldrb	r2, [r1, #20]
 769 0088 4B7D     		ldrb	r3, [r1, #21]
 770 008a 1B02     		lsls	r3, r3, #8
 771 008c 1343     		orrs	r3, r2
 772 008e 8A7D     		ldrb	r2, [r1, #22]
 773 0090 1204     		lsls	r2, r2, #16
 774 0092 1343     		orrs	r3, r2
 775 0094 CA7D     		ldrb	r2, [r1, #23]
 776 0096 1206     		lsls	r2, r2, #24
 777 0098 1343     		orrs	r3, r2
 778 009a 4362     		str	r3, [r0, #36]
 223:Source\mbedtls_open\library/chacha20.c ****     ctx->state[10] = BYTES_TO_U32_LE( key, 24 );
 779              		.loc 1 223 0
 780 009c 0A7E     		ldrb	r2, [r1, #24]
 781 009e 4B7E     		ldrb	r3, [r1, #25]
 782 00a0 1B02     		lsls	r3, r3, #8
 783 00a2 1343     		orrs	r3, r2
 784 00a4 8A7E     		ldrb	r2, [r1, #26]
 785 00a6 1204     		lsls	r2, r2, #16
 786 00a8 1343     		orrs	r3, r2
 787 00aa CA7E     		ldrb	r2, [r1, #27]
 788 00ac 1206     		lsls	r2, r2, #24
 789 00ae 1343     		orrs	r3, r2
 790 00b0 8362     		str	r3, [r0, #40]
 224:Source\mbedtls_open\library/chacha20.c ****     ctx->state[11] = BYTES_TO_U32_LE( key, 28 );
 791              		.loc 1 224 0
 792 00b2 0A7F     		ldrb	r2, [r1, #28]
 793 00b4 4B7F     		ldrb	r3, [r1, #29]
 794 00b6 1B02     		lsls	r3, r3, #8
 795 00b8 1343     		orrs	r3, r2
 796 00ba 8A7F     		ldrb	r2, [r1, #30]
 797 00bc 1204     		lsls	r2, r2, #16
 798 00be 1343     		orrs	r3, r2
 799 00c0 CA7F     		ldrb	r2, [r1, #31]
 800 00c2 1206     		lsls	r2, r2, #24
 801 00c4 1343     		orrs	r3, r2
 802 00c6 C362     		str	r3, [r0, #44]
 225:Source\mbedtls_open\library/chacha20.c **** 
 226:Source\mbedtls_open\library/chacha20.c ****     return( 0 );
 803              		.loc 1 226 0
 804 00c8 0020     		movs	r0, #0
 805              	.LVL33:
 806 00ca 04E0     		b	.L12
 807              	.LVL34:
 808              	.L13:
 207:Source\mbedtls_open\library/chacha20.c ****     }
 809              		.loc 1 207 0
 810 00cc 5120     		movs	r0, #81
 811              	.LVL35:
 812 00ce 4042     		rsbs	r0, r0, #0
 813 00d0 01E0     		b	.L12
ARM GAS  C:\Users\Phuong\AppData\Local\Temp\ccA2GnFN.s 			page 21


 814              	.LVL36:
 815              	.L14:
 816 00d2 5120     		movs	r0, #81
 817              	.LVL37:
 818 00d4 4042     		rsbs	r0, r0, #0
 819              	.L12:
 227:Source\mbedtls_open\library/chacha20.c **** }
 820              		.loc 1 227 0
 821              		@ sp needed
 822 00d6 7047     		bx	lr
 823              	.L16:
 824              		.align	2
 825              	.L15:
 826 00d8 65787061 		.word	1634760805
 827 00dc 6E642033 		.word	857760878
 828 00e0 322D6279 		.word	2036477234
 829 00e4 7465206B 		.word	1797285236
 830              		.cfi_endproc
 831              	.LFE6:
 832              		.size	mbedtls_chacha20_setkey, .-mbedtls_chacha20_setkey
 833              		.section	.text.mbedtls_chacha20_starts,"ax",%progbits
 834              		.align	2
 835              		.global	mbedtls_chacha20_starts
 836              		.code	16
 837              		.thumb_func
 838              		.type	mbedtls_chacha20_starts, %function
 839              	mbedtls_chacha20_starts:
 840              	.LFB7:
 228:Source\mbedtls_open\library/chacha20.c **** 
 229:Source\mbedtls_open\library/chacha20.c **** int mbedtls_chacha20_starts( mbedtls_chacha20_context* ctx,
 230:Source\mbedtls_open\library/chacha20.c ****                              const unsigned char nonce[12],
 231:Source\mbedtls_open\library/chacha20.c ****                              uint32_t counter )
 232:Source\mbedtls_open\library/chacha20.c **** {
 841              		.loc 1 232 0
 842              		.cfi_startproc
 843              		@ args = 0, pretend = 0, frame = 0
 844              		@ frame_needed = 0, uses_anonymous_args = 0
 845              	.LVL38:
 846 0000 10B5     		push	{r4, lr}
 847              		.cfi_def_cfa_offset 8
 848              		.cfi_offset 4, -8
 849              		.cfi_offset 14, -4
 850 0002 041E     		subs	r4, r0, #0
 233:Source\mbedtls_open\library/chacha20.c ****     if( ( ctx == NULL ) || ( nonce == NULL ) )
 851              		.loc 1 233 0
 852 0004 2CD0     		beq	.L19
 853              		.loc 1 233 0 is_stmt 0 discriminator 1
 854 0006 0029     		cmp	r1, #0
 855 0008 2DD0     		beq	.L20
 234:Source\mbedtls_open\library/chacha20.c ****     {
 235:Source\mbedtls_open\library/chacha20.c ****         return( MBEDTLS_ERR_CHACHA20_BAD_INPUT_DATA );
 236:Source\mbedtls_open\library/chacha20.c ****     }
 237:Source\mbedtls_open\library/chacha20.c **** 
 238:Source\mbedtls_open\library/chacha20.c ****     /* Counter */
 239:Source\mbedtls_open\library/chacha20.c ****     ctx->state[12] = counter;
 856              		.loc 1 239 0 is_stmt 1
 857 000a 0263     		str	r2, [r0, #48]
ARM GAS  C:\Users\Phuong\AppData\Local\Temp\ccA2GnFN.s 			page 22


 240:Source\mbedtls_open\library/chacha20.c **** 
 241:Source\mbedtls_open\library/chacha20.c ****     /* Nonce */
 242:Source\mbedtls_open\library/chacha20.c ****     ctx->state[13] = BYTES_TO_U32_LE( nonce, 0 );
 858              		.loc 1 242 0
 859 000c 0A78     		ldrb	r2, [r1]
 860              	.LVL39:
 861 000e 4B78     		ldrb	r3, [r1, #1]
 862 0010 1B02     		lsls	r3, r3, #8
 863 0012 1343     		orrs	r3, r2
 864 0014 8A78     		ldrb	r2, [r1, #2]
 865 0016 1204     		lsls	r2, r2, #16
 866 0018 1343     		orrs	r3, r2
 867 001a CA78     		ldrb	r2, [r1, #3]
 868 001c 1206     		lsls	r2, r2, #24
 869 001e 1343     		orrs	r3, r2
 870 0020 4363     		str	r3, [r0, #52]
 243:Source\mbedtls_open\library/chacha20.c ****     ctx->state[14] = BYTES_TO_U32_LE( nonce, 4 );
 871              		.loc 1 243 0
 872 0022 0A79     		ldrb	r2, [r1, #4]
 873 0024 4B79     		ldrb	r3, [r1, #5]
 874 0026 1B02     		lsls	r3, r3, #8
 875 0028 1343     		orrs	r3, r2
 876 002a 8A79     		ldrb	r2, [r1, #6]
 877 002c 1204     		lsls	r2, r2, #16
 878 002e 1343     		orrs	r3, r2
 879 0030 CA79     		ldrb	r2, [r1, #7]
 880 0032 1206     		lsls	r2, r2, #24
 881 0034 1343     		orrs	r3, r2
 882 0036 8363     		str	r3, [r0, #56]
 244:Source\mbedtls_open\library/chacha20.c ****     ctx->state[15] = BYTES_TO_U32_LE( nonce, 8 );
 883              		.loc 1 244 0
 884 0038 0A7A     		ldrb	r2, [r1, #8]
 885 003a 4B7A     		ldrb	r3, [r1, #9]
 886 003c 1B02     		lsls	r3, r3, #8
 887 003e 1343     		orrs	r3, r2
 888 0040 8A7A     		ldrb	r2, [r1, #10]
 889 0042 1204     		lsls	r2, r2, #16
 890 0044 1343     		orrs	r3, r2
 891 0046 CA7A     		ldrb	r2, [r1, #11]
 892 0048 1206     		lsls	r2, r2, #24
 893 004a 1343     		orrs	r3, r2
 894 004c C363     		str	r3, [r0, #60]
 245:Source\mbedtls_open\library/chacha20.c **** 
 246:Source\mbedtls_open\library/chacha20.c ****     mbedtls_platform_zeroize( ctx->keystream8, sizeof( ctx->keystream8 ) );
 895              		.loc 1 246 0
 896 004e 4030     		adds	r0, r0, #64
 897              	.LVL40:
 898 0050 4021     		movs	r1, #64
 899              	.LVL41:
 900 0052 FFF7FEFF 		bl	mbedtls_platform_zeroize
 901              	.LVL42:
 247:Source\mbedtls_open\library/chacha20.c **** 
 248:Source\mbedtls_open\library/chacha20.c ****     /* Initially, there's no keystream bytes available */
 249:Source\mbedtls_open\library/chacha20.c ****     ctx->keystream_bytes_used = CHACHA20_BLOCK_SIZE_BYTES;
 902              		.loc 1 249 0
 903 0056 4022     		movs	r2, #64
 904 0058 8023     		movs	r3, #128
ARM GAS  C:\Users\Phuong\AppData\Local\Temp\ccA2GnFN.s 			page 23


 905 005a E250     		str	r2, [r4, r3]
 250:Source\mbedtls_open\library/chacha20.c **** 
 251:Source\mbedtls_open\library/chacha20.c ****     return( 0 );
 906              		.loc 1 251 0
 907 005c 0020     		movs	r0, #0
 908 005e 04E0     		b	.L18
 909              	.LVL43:
 910              	.L19:
 235:Source\mbedtls_open\library/chacha20.c ****     }
 911              		.loc 1 235 0
 912 0060 5120     		movs	r0, #81
 913              	.LVL44:
 914 0062 4042     		rsbs	r0, r0, #0
 915 0064 01E0     		b	.L18
 916              	.LVL45:
 917              	.L20:
 918 0066 5120     		movs	r0, #81
 919              	.LVL46:
 920 0068 4042     		rsbs	r0, r0, #0
 921              	.LVL47:
 922              	.L18:
 252:Source\mbedtls_open\library/chacha20.c **** }
 923              		.loc 1 252 0
 924              		@ sp needed
 925              	.LVL48:
 926 006a 10BD     		pop	{r4, pc}
 927              		.cfi_endproc
 928              	.LFE7:
 929              		.size	mbedtls_chacha20_starts, .-mbedtls_chacha20_starts
 930              		.section	.text.mbedtls_chacha20_update,"ax",%progbits
 931              		.align	2
 932              		.global	mbedtls_chacha20_update
 933              		.code	16
 934              		.thumb_func
 935              		.type	mbedtls_chacha20_update, %function
 936              	mbedtls_chacha20_update:
 937              	.LFB8:
 253:Source\mbedtls_open\library/chacha20.c **** 
 254:Source\mbedtls_open\library/chacha20.c **** int mbedtls_chacha20_update( mbedtls_chacha20_context *ctx,
 255:Source\mbedtls_open\library/chacha20.c ****                               size_t size,
 256:Source\mbedtls_open\library/chacha20.c ****                               const unsigned char *input,
 257:Source\mbedtls_open\library/chacha20.c ****                               unsigned char *output )
 258:Source\mbedtls_open\library/chacha20.c **** {
 938              		.loc 1 258 0
 939              		.cfi_startproc
 940              		@ args = 0, pretend = 0, frame = 0
 941              		@ frame_needed = 0, uses_anonymous_args = 0
 942              	.LVL49:
 943 0000 F8B5     		push	{r3, r4, r5, r6, r7, lr}
 944              		.cfi_def_cfa_offset 24
 945              		.cfi_offset 3, -24
 946              		.cfi_offset 4, -20
 947              		.cfi_offset 5, -16
 948              		.cfi_offset 6, -12
 949              		.cfi_offset 7, -8
 950              		.cfi_offset 14, -4
 951 0002 4F46     		mov	r7, r9
ARM GAS  C:\Users\Phuong\AppData\Local\Temp\ccA2GnFN.s 			page 24


 952 0004 4646     		mov	r6, r8
 953 0006 C0B4     		push	{r6, r7}
 954              		.cfi_def_cfa_offset 32
 955              		.cfi_offset 8, -32
 956              		.cfi_offset 9, -28
 957 0008 0400     		movs	r4, r0
 958 000a 8846     		mov	r8, r1
 959 000c 1500     		movs	r5, r2
 960 000e 1E00     		movs	r6, r3
 961              	.LVL50:
 259:Source\mbedtls_open\library/chacha20.c ****     size_t offset = 0U;
 260:Source\mbedtls_open\library/chacha20.c ****     size_t i;
 261:Source\mbedtls_open\library/chacha20.c **** 
 262:Source\mbedtls_open\library/chacha20.c ****     if( ctx == NULL )
 962              		.loc 1 262 0
 963 0010 0028     		cmp	r0, #0
 964 0012 00D1     		bne	.LCB1023
 965 0014 A9E0     		b	.L31	@long jump
 966              	.LCB1023:
 263:Source\mbedtls_open\library/chacha20.c ****     {
 264:Source\mbedtls_open\library/chacha20.c ****         return( MBEDTLS_ERR_CHACHA20_BAD_INPUT_DATA );
 265:Source\mbedtls_open\library/chacha20.c ****     }
 266:Source\mbedtls_open\library/chacha20.c ****     else if( ( size > 0U ) && ( ( input == NULL ) || ( output == NULL ) ) )
 967              		.loc 1 266 0
 968 0016 0029     		cmp	r1, #0
 969 0018 1BD0     		beq	.L32
 970              		.loc 1 266 0 is_stmt 0 discriminator 1
 971 001a 002A     		cmp	r2, #0
 972 001c 00D1     		bne	.LCB1027
 973 001e A7E0     		b	.L33	@long jump
 974              	.LCB1027:
 975              		.loc 1 266 0 discriminator 2
 976 0020 002E     		cmp	r6, #0
 977 0022 00D1     		bne	.LCB1029
 978 0024 A7E0     		b	.L34	@long jump
 979              	.LCB1029:
 980 0026 0023     		movs	r3, #0
 981              	.LVL51:
 982 0028 9946     		mov	r9, r3
 983 002a 14E0     		b	.L23
 984              	.LVL52:
 985              	.L25:
 267:Source\mbedtls_open\library/chacha20.c ****     {
 268:Source\mbedtls_open\library/chacha20.c ****         /* input and output pointers are allowed to be NULL only if size == 0 */
 269:Source\mbedtls_open\library/chacha20.c ****         return( MBEDTLS_ERR_CHACHA20_BAD_INPUT_DATA );
 270:Source\mbedtls_open\library/chacha20.c ****     }
 271:Source\mbedtls_open\library/chacha20.c **** 
 272:Source\mbedtls_open\library/chacha20.c ****     /* Use leftover keystream bytes, if available */
 273:Source\mbedtls_open\library/chacha20.c ****     while( size > 0U && ctx->keystream_bytes_used < CHACHA20_BLOCK_SIZE_BYTES )
 274:Source\mbedtls_open\library/chacha20.c ****     {
 275:Source\mbedtls_open\library/chacha20.c ****         output[offset] = input[offset]
 986              		.loc 1 275 0 is_stmt 1
 987 002c 4A46     		mov	r2, r9
 988 002e AA5C     		ldrb	r2, [r5, r2]
 276:Source\mbedtls_open\library/chacha20.c ****                        ^ ctx->keystream8[ctx->keystream_bytes_used];
 989              		.loc 1 276 0
 990 0030 E318     		adds	r3, r4, r3
ARM GAS  C:\Users\Phuong\AppData\Local\Temp\ccA2GnFN.s 			page 25


 991 0032 4033     		adds	r3, r3, #64
 992 0034 1B78     		ldrb	r3, [r3]
 275:Source\mbedtls_open\library/chacha20.c ****                        ^ ctx->keystream8[ctx->keystream_bytes_used];
 993              		.loc 1 275 0
 994 0036 5340     		eors	r3, r2
 995 0038 4A46     		mov	r2, r9
 996 003a B354     		strb	r3, [r6, r2]
 277:Source\mbedtls_open\library/chacha20.c **** 
 278:Source\mbedtls_open\library/chacha20.c ****         ctx->keystream_bytes_used++;
 997              		.loc 1 278 0
 998 003c 8022     		movs	r2, #128
 999 003e A358     		ldr	r3, [r4, r2]
 1000 0040 0133     		adds	r3, r3, #1
 1001 0042 A350     		str	r3, [r4, r2]
 279:Source\mbedtls_open\library/chacha20.c ****         offset++;
 1002              		.loc 1 279 0
 1003 0044 0123     		movs	r3, #1
 1004 0046 9C46     		mov	ip, r3
 1005 0048 E144     		add	r9, r9, ip
 1006              	.LVL53:
 280:Source\mbedtls_open\library/chacha20.c ****         size--;
 1007              		.loc 1 280 0
 1008 004a 023B     		subs	r3, r3, #2
 1009 004c 9C46     		mov	ip, r3
 1010 004e E044     		add	r8, r8, ip
 1011              	.LVL54:
 1012 0050 01E0     		b	.L23
 1013              	.LVL55:
 1014              	.L32:
 1015 0052 0023     		movs	r3, #0
 1016              	.LVL56:
 1017 0054 9946     		mov	r9, r3
 1018              	.LVL57:
 1019              	.L23:
 273:Source\mbedtls_open\library/chacha20.c ****     {
 1020              		.loc 1 273 0
 1021 0056 4346     		mov	r3, r8
 1022 0058 002B     		cmp	r3, #0
 1023 005a 65D0     		beq	.L24
 1024              	.LVL58:
 273:Source\mbedtls_open\library/chacha20.c ****     {
 1025              		.loc 1 273 0 is_stmt 0 discriminator 1
 1026 005c 8023     		movs	r3, #128
 1027              	.LVL59:
 1028 005e E358     		ldr	r3, [r4, r3]
 1029 0060 3F2B     		cmp	r3, #63
 1030 0062 E3D9     		bls	.L25
 1031 0064 60E0     		b	.L24
 1032              	.LVL60:
 1033              	.L28:
 281:Source\mbedtls_open\library/chacha20.c ****     }
 282:Source\mbedtls_open\library/chacha20.c **** 
 283:Source\mbedtls_open\library/chacha20.c ****     /* Process full blocks */
 284:Source\mbedtls_open\library/chacha20.c ****     while( size >= CHACHA20_BLOCK_SIZE_BYTES )
 285:Source\mbedtls_open\library/chacha20.c ****     {
 286:Source\mbedtls_open\library/chacha20.c ****         /* Generate new keystream block and increment counter */
 287:Source\mbedtls_open\library/chacha20.c ****         chacha20_block( ctx->state, ctx->keystream8 );
ARM GAS  C:\Users\Phuong\AppData\Local\Temp\ccA2GnFN.s 			page 26


 1034              		.loc 1 287 0 is_stmt 1
 1035 0066 2100     		movs	r1, r4
 1036 0068 4031     		adds	r1, r1, #64
 1037 006a 2000     		movs	r0, r4
 1038 006c FFF7FEFF 		bl	chacha20_block
 1039              	.LVL61:
 288:Source\mbedtls_open\library/chacha20.c ****         ctx->state[CHACHA20_CTR_INDEX]++;
 1040              		.loc 1 288 0
 1041 0070 236B     		ldr	r3, [r4, #48]
 1042 0072 0133     		adds	r3, r3, #1
 1043 0074 2363     		str	r3, [r4, #48]
 1044              	.LVL62:
 289:Source\mbedtls_open\library/chacha20.c **** 
 290:Source\mbedtls_open\library/chacha20.c ****         for( i = 0U; i < 64U; i += 8U )
 1045              		.loc 1 290 0
 1046 0076 0022     		movs	r2, #0
 1047 0078 4EE0     		b	.L26
 1048              	.LVL63:
 1049              	.L27:
 291:Source\mbedtls_open\library/chacha20.c ****         {
 292:Source\mbedtls_open\library/chacha20.c ****             output[offset + i  ] = input[offset + i  ] ^ ctx->keystream8[i  ];
 1050              		.loc 1 292 0 discriminator 3
 1051 007a 4B46     		mov	r3, r9
 1052 007c 9B18     		adds	r3, r3, r2
 1053 007e E95C     		ldrb	r1, [r5, r3]
 1054 0080 8C46     		mov	ip, r1
 1055 0082 A018     		adds	r0, r4, r2
 1056 0084 4030     		adds	r0, r0, #64
 1057 0086 0178     		ldrb	r1, [r0]
 1058 0088 6046     		mov	r0, ip
 1059 008a 4140     		eors	r1, r0
 1060 008c F154     		strb	r1, [r6, r3]
 293:Source\mbedtls_open\library/chacha20.c ****             output[offset + i+1] = input[offset + i+1] ^ ctx->keystream8[i+1];
 1061              		.loc 1 293 0 discriminator 3
 1062 008e 581C     		adds	r0, r3, #1
 1063 0090 295C     		ldrb	r1, [r5, r0]
 1064 0092 8C46     		mov	ip, r1
 1065 0094 511C     		adds	r1, r2, #1
 1066 0096 6118     		adds	r1, r4, r1
 1067 0098 4031     		adds	r1, r1, #64
 1068 009a 0978     		ldrb	r1, [r1]
 1069 009c 6746     		mov	r7, ip
 1070 009e 7940     		eors	r1, r7
 1071 00a0 3154     		strb	r1, [r6, r0]
 294:Source\mbedtls_open\library/chacha20.c ****             output[offset + i+2] = input[offset + i+2] ^ ctx->keystream8[i+2];
 1072              		.loc 1 294 0 discriminator 3
 1073 00a2 981C     		adds	r0, r3, #2
 1074 00a4 295C     		ldrb	r1, [r5, r0]
 1075 00a6 8C46     		mov	ip, r1
 1076 00a8 911C     		adds	r1, r2, #2
 1077 00aa 6118     		adds	r1, r4, r1
 1078 00ac 4031     		adds	r1, r1, #64
 1079 00ae 0978     		ldrb	r1, [r1]
 1080 00b0 6746     		mov	r7, ip
 1081 00b2 7940     		eors	r1, r7
 1082 00b4 3154     		strb	r1, [r6, r0]
 295:Source\mbedtls_open\library/chacha20.c ****             output[offset + i+3] = input[offset + i+3] ^ ctx->keystream8[i+3];
ARM GAS  C:\Users\Phuong\AppData\Local\Temp\ccA2GnFN.s 			page 27


 1083              		.loc 1 295 0 discriminator 3
 1084 00b6 D81C     		adds	r0, r3, #3
 1085 00b8 295C     		ldrb	r1, [r5, r0]
 1086 00ba 8C46     		mov	ip, r1
 1087 00bc D11C     		adds	r1, r2, #3
 1088 00be 6118     		adds	r1, r4, r1
 1089 00c0 4031     		adds	r1, r1, #64
 1090 00c2 0978     		ldrb	r1, [r1]
 1091 00c4 6746     		mov	r7, ip
 1092 00c6 7940     		eors	r1, r7
 1093 00c8 3154     		strb	r1, [r6, r0]
 296:Source\mbedtls_open\library/chacha20.c ****             output[offset + i+4] = input[offset + i+4] ^ ctx->keystream8[i+4];
 1094              		.loc 1 296 0 discriminator 3
 1095 00ca 181D     		adds	r0, r3, #4
 1096 00cc 295C     		ldrb	r1, [r5, r0]
 1097 00ce 8C46     		mov	ip, r1
 1098 00d0 111D     		adds	r1, r2, #4
 1099 00d2 6118     		adds	r1, r4, r1
 1100 00d4 4031     		adds	r1, r1, #64
 1101 00d6 0978     		ldrb	r1, [r1]
 1102 00d8 6746     		mov	r7, ip
 1103 00da 7940     		eors	r1, r7
 1104 00dc 3154     		strb	r1, [r6, r0]
 297:Source\mbedtls_open\library/chacha20.c ****             output[offset + i+5] = input[offset + i+5] ^ ctx->keystream8[i+5];
 1105              		.loc 1 297 0 discriminator 3
 1106 00de 581D     		adds	r0, r3, #5
 1107 00e0 295C     		ldrb	r1, [r5, r0]
 1108 00e2 8C46     		mov	ip, r1
 1109 00e4 511D     		adds	r1, r2, #5
 1110 00e6 6118     		adds	r1, r4, r1
 1111 00e8 4031     		adds	r1, r1, #64
 1112 00ea 0978     		ldrb	r1, [r1]
 1113 00ec 6746     		mov	r7, ip
 1114 00ee 7940     		eors	r1, r7
 1115 00f0 3154     		strb	r1, [r6, r0]
 298:Source\mbedtls_open\library/chacha20.c ****             output[offset + i+6] = input[offset + i+6] ^ ctx->keystream8[i+6];
 1116              		.loc 1 298 0 discriminator 3
 1117 00f2 981D     		adds	r0, r3, #6
 1118 00f4 295C     		ldrb	r1, [r5, r0]
 1119 00f6 8C46     		mov	ip, r1
 1120 00f8 911D     		adds	r1, r2, #6
 1121 00fa 6118     		adds	r1, r4, r1
 1122 00fc 4031     		adds	r1, r1, #64
 1123 00fe 0978     		ldrb	r1, [r1]
 1124 0100 6746     		mov	r7, ip
 1125 0102 7940     		eors	r1, r7
 1126 0104 3154     		strb	r1, [r6, r0]
 299:Source\mbedtls_open\library/chacha20.c ****             output[offset + i+7] = input[offset + i+7] ^ ctx->keystream8[i+7];
 1127              		.loc 1 299 0 discriminator 3
 1128 0106 0733     		adds	r3, r3, #7
 1129 0108 E85C     		ldrb	r0, [r5, r3]
 1130 010a D11D     		adds	r1, r2, #7
 1131 010c 6118     		adds	r1, r4, r1
 1132 010e 4031     		adds	r1, r1, #64
 1133 0110 0978     		ldrb	r1, [r1]
 1134 0112 4140     		eors	r1, r0
 1135 0114 F154     		strb	r1, [r6, r3]
ARM GAS  C:\Users\Phuong\AppData\Local\Temp\ccA2GnFN.s 			page 28


 290:Source\mbedtls_open\library/chacha20.c ****         {
 1136              		.loc 1 290 0 discriminator 3
 1137 0116 0832     		adds	r2, r2, #8
 1138              	.LVL64:
 1139              	.L26:
 290:Source\mbedtls_open\library/chacha20.c ****         {
 1140              		.loc 1 290 0 is_stmt 0 discriminator 1
 1141 0118 3F2A     		cmp	r2, #63
 1142 011a AED9     		bls	.L27
 300:Source\mbedtls_open\library/chacha20.c ****         }
 301:Source\mbedtls_open\library/chacha20.c **** 
 302:Source\mbedtls_open\library/chacha20.c ****         offset += CHACHA20_BLOCK_SIZE_BYTES;
 1143              		.loc 1 302 0 is_stmt 1
 1144 011c 4023     		movs	r3, #64
 1145 011e 9C46     		mov	ip, r3
 1146 0120 E144     		add	r9, r9, ip
 1147              	.LVL65:
 303:Source\mbedtls_open\library/chacha20.c ****         size   -= CHACHA20_BLOCK_SIZE_BYTES;
 1148              		.loc 1 303 0
 1149 0122 803B     		subs	r3, r3, #128
 1150 0124 9C46     		mov	ip, r3
 1151 0126 E044     		add	r8, r8, ip
 1152              	.LVL66:
 1153              	.L24:
 284:Source\mbedtls_open\library/chacha20.c ****     {
 1154              		.loc 1 284 0
 1155 0128 4346     		mov	r3, r8
 1156 012a 3F2B     		cmp	r3, #63
 1157 012c 9BD8     		bhi	.L28
 1158              	.LVL67:
 304:Source\mbedtls_open\library/chacha20.c ****     }
 305:Source\mbedtls_open\library/chacha20.c **** 
 306:Source\mbedtls_open\library/chacha20.c ****     /* Last (partial) block */
 307:Source\mbedtls_open\library/chacha20.c ****     if( size > 0U )
 1159              		.loc 1 307 0
 1160 012e 002B     		cmp	r3, #0
 1161 0130 24D0     		beq	.L35
 308:Source\mbedtls_open\library/chacha20.c ****     {
 309:Source\mbedtls_open\library/chacha20.c ****         /* Generate new keystream block and increment counter */
 310:Source\mbedtls_open\library/chacha20.c ****         chacha20_block( ctx->state, ctx->keystream8 );
 1162              		.loc 1 310 0
 1163 0132 2100     		movs	r1, r4
 1164 0134 4031     		adds	r1, r1, #64
 1165 0136 2000     		movs	r0, r4
 1166 0138 FFF7FEFF 		bl	chacha20_block
 1167              	.LVL68:
 311:Source\mbedtls_open\library/chacha20.c ****         ctx->state[CHACHA20_CTR_INDEX]++;
 1168              		.loc 1 311 0
 1169 013c 236B     		ldr	r3, [r4, #48]
 1170 013e 0133     		adds	r3, r3, #1
 1171 0140 2363     		str	r3, [r4, #48]
 1172              	.LVL69:
 312:Source\mbedtls_open\library/chacha20.c **** 
 313:Source\mbedtls_open\library/chacha20.c ****         for( i = 0U; i < size; i++)
 1173              		.loc 1 313 0
 1174 0142 0023     		movs	r3, #0
 1175 0144 0AE0     		b	.L29
ARM GAS  C:\Users\Phuong\AppData\Local\Temp\ccA2GnFN.s 			page 29


 1176              	.LVL70:
 1177              	.L30:
 314:Source\mbedtls_open\library/chacha20.c ****         {
 315:Source\mbedtls_open\library/chacha20.c ****             output[offset + i] = input[offset + i] ^ ctx->keystream8[i];
 1178              		.loc 1 315 0 discriminator 3
 1179 0146 4A46     		mov	r2, r9
 1180 0148 D018     		adds	r0, r2, r3
 1181 014a 2A5C     		ldrb	r2, [r5, r0]
 1182 014c 9446     		mov	ip, r2
 1183 014e E118     		adds	r1, r4, r3
 1184 0150 4031     		adds	r1, r1, #64
 1185 0152 0A78     		ldrb	r2, [r1]
 1186 0154 6146     		mov	r1, ip
 1187 0156 4A40     		eors	r2, r1
 1188 0158 3254     		strb	r2, [r6, r0]
 313:Source\mbedtls_open\library/chacha20.c ****         {
 1189              		.loc 1 313 0 discriminator 3
 1190 015a 0133     		adds	r3, r3, #1
 1191              	.LVL71:
 1192              	.L29:
 313:Source\mbedtls_open\library/chacha20.c ****         {
 1193              		.loc 1 313 0 is_stmt 0 discriminator 1
 1194 015c 9845     		cmp	r8, r3
 1195 015e F2D8     		bhi	.L30
 316:Source\mbedtls_open\library/chacha20.c ****         }
 317:Source\mbedtls_open\library/chacha20.c **** 
 318:Source\mbedtls_open\library/chacha20.c ****         ctx->keystream_bytes_used = size;
 1196              		.loc 1 318 0 is_stmt 1
 1197 0160 8023     		movs	r3, #128
 1198              	.LVL72:
 1199 0162 4246     		mov	r2, r8
 1200 0164 E250     		str	r2, [r4, r3]
 319:Source\mbedtls_open\library/chacha20.c **** 
 320:Source\mbedtls_open\library/chacha20.c ****     }
 321:Source\mbedtls_open\library/chacha20.c **** 
 322:Source\mbedtls_open\library/chacha20.c ****     return( 0 );
 1201              		.loc 1 322 0
 1202 0166 0020     		movs	r0, #0
 1203 0168 09E0     		b	.L22
 1204              	.LVL73:
 1205              	.L31:
 264:Source\mbedtls_open\library/chacha20.c ****     }
 1206              		.loc 1 264 0
 1207 016a 5120     		movs	r0, #81
 1208              	.LVL74:
 1209 016c 4042     		rsbs	r0, r0, #0
 1210 016e 06E0     		b	.L22
 1211              	.LVL75:
 1212              	.L33:
 269:Source\mbedtls_open\library/chacha20.c ****     }
 1213              		.loc 1 269 0
 1214 0170 5120     		movs	r0, #81
 1215              	.LVL76:
 1216 0172 4042     		rsbs	r0, r0, #0
 1217 0174 03E0     		b	.L22
 1218              	.LVL77:
 1219              	.L34:
ARM GAS  C:\Users\Phuong\AppData\Local\Temp\ccA2GnFN.s 			page 30


 1220 0176 5120     		movs	r0, #81
 1221              	.LVL78:
 1222 0178 4042     		rsbs	r0, r0, #0
 1223 017a 00E0     		b	.L22
 1224              	.LVL79:
 1225              	.L35:
 1226              		.loc 1 322 0
 1227 017c 0020     		movs	r0, #0
 1228              	.LVL80:
 1229              	.L22:
 323:Source\mbedtls_open\library/chacha20.c **** }
 1230              		.loc 1 323 0
 1231              		@ sp needed
 1232              	.LVL81:
 1233              	.LVL82:
 1234              	.LVL83:
 1235              	.LVL84:
 1236 017e 0CBC     		pop	{r2, r3}
 1237 0180 9046     		mov	r8, r2
 1238 0182 9946     		mov	r9, r3
 1239 0184 F8BD     		pop	{r3, r4, r5, r6, r7, pc}
 1240              		.cfi_endproc
 1241              	.LFE8:
 1242              		.size	mbedtls_chacha20_update, .-mbedtls_chacha20_update
 1243 0186 C046     		.section	.text.mbedtls_chacha20_crypt,"ax",%progbits
 1244              		.align	2
 1245              		.global	mbedtls_chacha20_crypt
 1246              		.code	16
 1247              		.thumb_func
 1248              		.type	mbedtls_chacha20_crypt, %function
 1249              	mbedtls_chacha20_crypt:
 1250              	.LFB9:
 324:Source\mbedtls_open\library/chacha20.c **** 
 325:Source\mbedtls_open\library/chacha20.c **** int mbedtls_chacha20_crypt( const unsigned char key[32],
 326:Source\mbedtls_open\library/chacha20.c ****                             const unsigned char nonce[12],
 327:Source\mbedtls_open\library/chacha20.c ****                             uint32_t counter,
 328:Source\mbedtls_open\library/chacha20.c ****                             size_t data_len,
 329:Source\mbedtls_open\library/chacha20.c ****                             const unsigned char* input,
 330:Source\mbedtls_open\library/chacha20.c ****                             unsigned char* output )
 331:Source\mbedtls_open\library/chacha20.c **** {
 1251              		.loc 1 331 0
 1252              		.cfi_startproc
 1253              		@ args = 8, pretend = 0, frame = 136
 1254              		@ frame_needed = 0, uses_anonymous_args = 0
 1255              	.LVL85:
 1256 0000 F0B5     		push	{r4, r5, r6, r7, lr}
 1257              		.cfi_def_cfa_offset 20
 1258              		.cfi_offset 4, -20
 1259              		.cfi_offset 5, -16
 1260              		.cfi_offset 6, -12
 1261              		.cfi_offset 7, -8
 1262              		.cfi_offset 14, -4
 1263 0002 A3B0     		sub	sp, sp, #140
 1264              		.cfi_def_cfa_offset 160
 1265 0004 0400     		movs	r4, r0
 1266 0006 0D00     		movs	r5, r1
 1267 0008 1600     		movs	r6, r2
ARM GAS  C:\Users\Phuong\AppData\Local\Temp\ccA2GnFN.s 			page 31


 1268 000a 1F00     		movs	r7, r3
 332:Source\mbedtls_open\library/chacha20.c ****     mbedtls_chacha20_context ctx;
 333:Source\mbedtls_open\library/chacha20.c ****     int ret;
 334:Source\mbedtls_open\library/chacha20.c **** 
 335:Source\mbedtls_open\library/chacha20.c ****     mbedtls_chacha20_init( &ctx );
 1269              		.loc 1 335 0
 1270 000c 01A8     		add	r0, sp, #4
 1271              	.LVL86:
 1272 000e FFF7FEFF 		bl	mbedtls_chacha20_init
 1273              	.LVL87:
 336:Source\mbedtls_open\library/chacha20.c **** 
 337:Source\mbedtls_open\library/chacha20.c ****     ret = mbedtls_chacha20_setkey( &ctx, key );
 1274              		.loc 1 337 0
 1275 0012 2100     		movs	r1, r4
 1276 0014 01A8     		add	r0, sp, #4
 1277 0016 FFF7FEFF 		bl	mbedtls_chacha20_setkey
 1278              	.LVL88:
 1279 001a 041E     		subs	r4, r0, #0
 1280              	.LVL89:
 338:Source\mbedtls_open\library/chacha20.c ****     if( ret != 0 )
 1281              		.loc 1 338 0
 1282 001c 0DD1     		bne	.L37
 339:Source\mbedtls_open\library/chacha20.c ****         goto cleanup;
 340:Source\mbedtls_open\library/chacha20.c **** 
 341:Source\mbedtls_open\library/chacha20.c ****     ret = mbedtls_chacha20_starts( &ctx, nonce, counter );
 1283              		.loc 1 341 0
 1284 001e 3200     		movs	r2, r6
 1285 0020 2900     		movs	r1, r5
 1286 0022 01A8     		add	r0, sp, #4
 1287              	.LVL90:
 1288 0024 FFF7FEFF 		bl	mbedtls_chacha20_starts
 1289              	.LVL91:
 1290 0028 041E     		subs	r4, r0, #0
 1291              	.LVL92:
 342:Source\mbedtls_open\library/chacha20.c ****     if( ret != 0 )
 1292              		.loc 1 342 0
 1293 002a 06D1     		bne	.L37
 343:Source\mbedtls_open\library/chacha20.c ****         goto cleanup;
 344:Source\mbedtls_open\library/chacha20.c **** 
 345:Source\mbedtls_open\library/chacha20.c ****     ret = mbedtls_chacha20_update( &ctx, data_len, input, output );
 1294              		.loc 1 345 0
 1295 002c 299B     		ldr	r3, [sp, #164]
 1296 002e 289A     		ldr	r2, [sp, #160]
 1297 0030 3900     		movs	r1, r7
 1298 0032 01A8     		add	r0, sp, #4
 1299              	.LVL93:
 1300 0034 FFF7FEFF 		bl	mbedtls_chacha20_update
 1301              	.LVL94:
 1302 0038 0400     		movs	r4, r0
 1303              	.LVL95:
 1304              	.L37:
 346:Source\mbedtls_open\library/chacha20.c **** 
 347:Source\mbedtls_open\library/chacha20.c **** cleanup:
 348:Source\mbedtls_open\library/chacha20.c ****     mbedtls_chacha20_free( &ctx );
 1305              		.loc 1 348 0
 1306 003a 01A8     		add	r0, sp, #4
 1307              	.LVL96:
ARM GAS  C:\Users\Phuong\AppData\Local\Temp\ccA2GnFN.s 			page 32


 1308 003c FFF7FEFF 		bl	mbedtls_chacha20_free
 1309              	.LVL97:
 349:Source\mbedtls_open\library/chacha20.c ****     return( ret );
 350:Source\mbedtls_open\library/chacha20.c **** }
 1310              		.loc 1 350 0
 1311 0040 2000     		movs	r0, r4
 1312 0042 23B0     		add	sp, sp, #140
 1313              		@ sp needed
 1314              	.LVL98:
 1315              	.LVL99:
 1316              	.LVL100:
 1317              	.LVL101:
 1318 0044 F0BD     		pop	{r4, r5, r6, r7, pc}
 1319              		.cfi_endproc
 1320              	.LFE9:
 1321              		.size	mbedtls_chacha20_crypt, .-mbedtls_chacha20_crypt
 1322 0046 C046     		.section	.text.mbedtls_chacha20_self_test,"ax",%progbits
 1323              		.align	2
 1324              		.global	mbedtls_chacha20_self_test
 1325              		.code	16
 1326              		.thumb_func
 1327              		.type	mbedtls_chacha20_self_test, %function
 1328              	mbedtls_chacha20_self_test:
 1329              	.LFB10:
 351:Source\mbedtls_open\library/chacha20.c **** 
 352:Source\mbedtls_open\library/chacha20.c **** #endif /* !MBEDTLS_CHACHA20_ALT */
 353:Source\mbedtls_open\library/chacha20.c **** 
 354:Source\mbedtls_open\library/chacha20.c **** #if defined(MBEDTLS_SELF_TEST)
 355:Source\mbedtls_open\library/chacha20.c **** 
 356:Source\mbedtls_open\library/chacha20.c **** static const unsigned char test_keys[2][32] =
 357:Source\mbedtls_open\library/chacha20.c **** {
 358:Source\mbedtls_open\library/chacha20.c ****     {
 359:Source\mbedtls_open\library/chacha20.c ****         0x00, 0x00, 0x00, 0x00, 0x00, 0x00, 0x00, 0x00,
 360:Source\mbedtls_open\library/chacha20.c ****         0x00, 0x00, 0x00, 0x00, 0x00, 0x00, 0x00, 0x00,
 361:Source\mbedtls_open\library/chacha20.c ****         0x00, 0x00, 0x00, 0x00, 0x00, 0x00, 0x00, 0x00,
 362:Source\mbedtls_open\library/chacha20.c ****         0x00, 0x00, 0x00, 0x00, 0x00, 0x00, 0x00, 0x00
 363:Source\mbedtls_open\library/chacha20.c ****     },
 364:Source\mbedtls_open\library/chacha20.c ****     {
 365:Source\mbedtls_open\library/chacha20.c ****         0x00, 0x00, 0x00, 0x00, 0x00, 0x00, 0x00, 0x00,
 366:Source\mbedtls_open\library/chacha20.c ****         0x00, 0x00, 0x00, 0x00, 0x00, 0x00, 0x00, 0x00,
 367:Source\mbedtls_open\library/chacha20.c ****         0x00, 0x00, 0x00, 0x00, 0x00, 0x00, 0x00, 0x00,
 368:Source\mbedtls_open\library/chacha20.c ****         0x00, 0x00, 0x00, 0x00, 0x00, 0x00, 0x00, 0x01
 369:Source\mbedtls_open\library/chacha20.c ****     }
 370:Source\mbedtls_open\library/chacha20.c **** };
 371:Source\mbedtls_open\library/chacha20.c **** 
 372:Source\mbedtls_open\library/chacha20.c **** static const unsigned char test_nonces[2][12] =
 373:Source\mbedtls_open\library/chacha20.c **** {
 374:Source\mbedtls_open\library/chacha20.c ****     {
 375:Source\mbedtls_open\library/chacha20.c ****         0x00, 0x00, 0x00, 0x00, 0x00, 0x00, 0x00, 0x00,
 376:Source\mbedtls_open\library/chacha20.c ****         0x00, 0x00, 0x00, 0x00
 377:Source\mbedtls_open\library/chacha20.c ****     },
 378:Source\mbedtls_open\library/chacha20.c ****     {
 379:Source\mbedtls_open\library/chacha20.c ****         0x00, 0x00, 0x00, 0x00, 0x00, 0x00, 0x00, 0x00,
 380:Source\mbedtls_open\library/chacha20.c ****         0x00, 0x00, 0x00, 0x02
 381:Source\mbedtls_open\library/chacha20.c ****     }
 382:Source\mbedtls_open\library/chacha20.c **** };
 383:Source\mbedtls_open\library/chacha20.c **** 
ARM GAS  C:\Users\Phuong\AppData\Local\Temp\ccA2GnFN.s 			page 33


 384:Source\mbedtls_open\library/chacha20.c **** static const uint32_t test_counters[2] =
 385:Source\mbedtls_open\library/chacha20.c **** {
 386:Source\mbedtls_open\library/chacha20.c ****     0U,
 387:Source\mbedtls_open\library/chacha20.c ****     1U
 388:Source\mbedtls_open\library/chacha20.c **** };
 389:Source\mbedtls_open\library/chacha20.c **** 
 390:Source\mbedtls_open\library/chacha20.c **** static const unsigned char test_input[2][375] =
 391:Source\mbedtls_open\library/chacha20.c **** {
 392:Source\mbedtls_open\library/chacha20.c ****     {
 393:Source\mbedtls_open\library/chacha20.c ****         0x00, 0x00, 0x00, 0x00, 0x00, 0x00, 0x00, 0x00,
 394:Source\mbedtls_open\library/chacha20.c ****         0x00, 0x00, 0x00, 0x00, 0x00, 0x00, 0x00, 0x00,
 395:Source\mbedtls_open\library/chacha20.c ****         0x00, 0x00, 0x00, 0x00, 0x00, 0x00, 0x00, 0x00,
 396:Source\mbedtls_open\library/chacha20.c ****         0x00, 0x00, 0x00, 0x00, 0x00, 0x00, 0x00, 0x00,
 397:Source\mbedtls_open\library/chacha20.c ****         0x00, 0x00, 0x00, 0x00, 0x00, 0x00, 0x00, 0x00,
 398:Source\mbedtls_open\library/chacha20.c ****         0x00, 0x00, 0x00, 0x00, 0x00, 0x00, 0x00, 0x00,
 399:Source\mbedtls_open\library/chacha20.c ****         0x00, 0x00, 0x00, 0x00, 0x00, 0x00, 0x00, 0x00,
 400:Source\mbedtls_open\library/chacha20.c ****         0x00, 0x00, 0x00, 0x00, 0x00, 0x00, 0x00, 0x00
 401:Source\mbedtls_open\library/chacha20.c ****     },
 402:Source\mbedtls_open\library/chacha20.c ****     {
 403:Source\mbedtls_open\library/chacha20.c ****         0x41, 0x6e, 0x79, 0x20, 0x73, 0x75, 0x62, 0x6d,
 404:Source\mbedtls_open\library/chacha20.c ****         0x69, 0x73, 0x73, 0x69, 0x6f, 0x6e, 0x20, 0x74,
 405:Source\mbedtls_open\library/chacha20.c ****         0x6f, 0x20, 0x74, 0x68, 0x65, 0x20, 0x49, 0x45,
 406:Source\mbedtls_open\library/chacha20.c ****         0x54, 0x46, 0x20, 0x69, 0x6e, 0x74, 0x65, 0x6e,
 407:Source\mbedtls_open\library/chacha20.c ****         0x64, 0x65, 0x64, 0x20, 0x62, 0x79, 0x20, 0x74,
 408:Source\mbedtls_open\library/chacha20.c ****         0x68, 0x65, 0x20, 0x43, 0x6f, 0x6e, 0x74, 0x72,
 409:Source\mbedtls_open\library/chacha20.c ****         0x69, 0x62, 0x75, 0x74, 0x6f, 0x72, 0x20, 0x66,
 410:Source\mbedtls_open\library/chacha20.c ****         0x6f, 0x72, 0x20, 0x70, 0x75, 0x62, 0x6c, 0x69,
 411:Source\mbedtls_open\library/chacha20.c ****         0x63, 0x61, 0x74, 0x69, 0x6f, 0x6e, 0x20, 0x61,
 412:Source\mbedtls_open\library/chacha20.c ****         0x73, 0x20, 0x61, 0x6c, 0x6c, 0x20, 0x6f, 0x72,
 413:Source\mbedtls_open\library/chacha20.c ****         0x20, 0x70, 0x61, 0x72, 0x74, 0x20, 0x6f, 0x66,
 414:Source\mbedtls_open\library/chacha20.c ****         0x20, 0x61, 0x6e, 0x20, 0x49, 0x45, 0x54, 0x46,
 415:Source\mbedtls_open\library/chacha20.c ****         0x20, 0x49, 0x6e, 0x74, 0x65, 0x72, 0x6e, 0x65,
 416:Source\mbedtls_open\library/chacha20.c ****         0x74, 0x2d, 0x44, 0x72, 0x61, 0x66, 0x74, 0x20,
 417:Source\mbedtls_open\library/chacha20.c ****         0x6f, 0x72, 0x20, 0x52, 0x46, 0x43, 0x20, 0x61,
 418:Source\mbedtls_open\library/chacha20.c ****         0x6e, 0x64, 0x20, 0x61, 0x6e, 0x79, 0x20, 0x73,
 419:Source\mbedtls_open\library/chacha20.c ****         0x74, 0x61, 0x74, 0x65, 0x6d, 0x65, 0x6e, 0x74,
 420:Source\mbedtls_open\library/chacha20.c ****         0x20, 0x6d, 0x61, 0x64, 0x65, 0x20, 0x77, 0x69,
 421:Source\mbedtls_open\library/chacha20.c ****         0x74, 0x68, 0x69, 0x6e, 0x20, 0x74, 0x68, 0x65,
 422:Source\mbedtls_open\library/chacha20.c ****         0x20, 0x63, 0x6f, 0x6e, 0x74, 0x65, 0x78, 0x74,
 423:Source\mbedtls_open\library/chacha20.c ****         0x20, 0x6f, 0x66, 0x20, 0x61, 0x6e, 0x20, 0x49,
 424:Source\mbedtls_open\library/chacha20.c ****         0x45, 0x54, 0x46, 0x20, 0x61, 0x63, 0x74, 0x69,
 425:Source\mbedtls_open\library/chacha20.c ****         0x76, 0x69, 0x74, 0x79, 0x20, 0x69, 0x73, 0x20,
 426:Source\mbedtls_open\library/chacha20.c ****         0x63, 0x6f, 0x6e, 0x73, 0x69, 0x64, 0x65, 0x72,
 427:Source\mbedtls_open\library/chacha20.c ****         0x65, 0x64, 0x20, 0x61, 0x6e, 0x20, 0x22, 0x49,
 428:Source\mbedtls_open\library/chacha20.c ****         0x45, 0x54, 0x46, 0x20, 0x43, 0x6f, 0x6e, 0x74,
 429:Source\mbedtls_open\library/chacha20.c ****         0x72, 0x69, 0x62, 0x75, 0x74, 0x69, 0x6f, 0x6e,
 430:Source\mbedtls_open\library/chacha20.c ****         0x22, 0x2e, 0x20, 0x53, 0x75, 0x63, 0x68, 0x20,
 431:Source\mbedtls_open\library/chacha20.c ****         0x73, 0x74, 0x61, 0x74, 0x65, 0x6d, 0x65, 0x6e,
 432:Source\mbedtls_open\library/chacha20.c ****         0x74, 0x73, 0x20, 0x69, 0x6e, 0x63, 0x6c, 0x75,
 433:Source\mbedtls_open\library/chacha20.c ****         0x64, 0x65, 0x20, 0x6f, 0x72, 0x61, 0x6c, 0x20,
 434:Source\mbedtls_open\library/chacha20.c ****         0x73, 0x74, 0x61, 0x74, 0x65, 0x6d, 0x65, 0x6e,
 435:Source\mbedtls_open\library/chacha20.c ****         0x74, 0x73, 0x20, 0x69, 0x6e, 0x20, 0x49, 0x45,
 436:Source\mbedtls_open\library/chacha20.c ****         0x54, 0x46, 0x20, 0x73, 0x65, 0x73, 0x73, 0x69,
 437:Source\mbedtls_open\library/chacha20.c ****         0x6f, 0x6e, 0x73, 0x2c, 0x20, 0x61, 0x73, 0x20,
 438:Source\mbedtls_open\library/chacha20.c ****         0x77, 0x65, 0x6c, 0x6c, 0x20, 0x61, 0x73, 0x20,
 439:Source\mbedtls_open\library/chacha20.c ****         0x77, 0x72, 0x69, 0x74, 0x74, 0x65, 0x6e, 0x20,
 440:Source\mbedtls_open\library/chacha20.c ****         0x61, 0x6e, 0x64, 0x20, 0x65, 0x6c, 0x65, 0x63,
ARM GAS  C:\Users\Phuong\AppData\Local\Temp\ccA2GnFN.s 			page 34


 441:Source\mbedtls_open\library/chacha20.c ****         0x74, 0x72, 0x6f, 0x6e, 0x69, 0x63, 0x20, 0x63,
 442:Source\mbedtls_open\library/chacha20.c ****         0x6f, 0x6d, 0x6d, 0x75, 0x6e, 0x69, 0x63, 0x61,
 443:Source\mbedtls_open\library/chacha20.c ****         0x74, 0x69, 0x6f, 0x6e, 0x73, 0x20, 0x6d, 0x61,
 444:Source\mbedtls_open\library/chacha20.c ****         0x64, 0x65, 0x20, 0x61, 0x74, 0x20, 0x61, 0x6e,
 445:Source\mbedtls_open\library/chacha20.c ****         0x79, 0x20, 0x74, 0x69, 0x6d, 0x65, 0x20, 0x6f,
 446:Source\mbedtls_open\library/chacha20.c ****         0x72, 0x20, 0x70, 0x6c, 0x61, 0x63, 0x65, 0x2c,
 447:Source\mbedtls_open\library/chacha20.c ****         0x20, 0x77, 0x68, 0x69, 0x63, 0x68, 0x20, 0x61,
 448:Source\mbedtls_open\library/chacha20.c ****         0x72, 0x65, 0x20, 0x61, 0x64, 0x64, 0x72, 0x65,
 449:Source\mbedtls_open\library/chacha20.c ****         0x73, 0x73, 0x65, 0x64, 0x20, 0x74, 0x6f
 450:Source\mbedtls_open\library/chacha20.c ****     }
 451:Source\mbedtls_open\library/chacha20.c **** };
 452:Source\mbedtls_open\library/chacha20.c **** 
 453:Source\mbedtls_open\library/chacha20.c **** static const unsigned char test_output[2][375] =
 454:Source\mbedtls_open\library/chacha20.c **** {
 455:Source\mbedtls_open\library/chacha20.c ****     {
 456:Source\mbedtls_open\library/chacha20.c ****         0x76, 0xb8, 0xe0, 0xad, 0xa0, 0xf1, 0x3d, 0x90,
 457:Source\mbedtls_open\library/chacha20.c ****         0x40, 0x5d, 0x6a, 0xe5, 0x53, 0x86, 0xbd, 0x28,
 458:Source\mbedtls_open\library/chacha20.c ****         0xbd, 0xd2, 0x19, 0xb8, 0xa0, 0x8d, 0xed, 0x1a,
 459:Source\mbedtls_open\library/chacha20.c ****         0xa8, 0x36, 0xef, 0xcc, 0x8b, 0x77, 0x0d, 0xc7,
 460:Source\mbedtls_open\library/chacha20.c ****         0xda, 0x41, 0x59, 0x7c, 0x51, 0x57, 0x48, 0x8d,
 461:Source\mbedtls_open\library/chacha20.c ****         0x77, 0x24, 0xe0, 0x3f, 0xb8, 0xd8, 0x4a, 0x37,
 462:Source\mbedtls_open\library/chacha20.c ****         0x6a, 0x43, 0xb8, 0xf4, 0x15, 0x18, 0xa1, 0x1c,
 463:Source\mbedtls_open\library/chacha20.c ****         0xc3, 0x87, 0xb6, 0x69, 0xb2, 0xee, 0x65, 0x86
 464:Source\mbedtls_open\library/chacha20.c ****     },
 465:Source\mbedtls_open\library/chacha20.c ****     {
 466:Source\mbedtls_open\library/chacha20.c ****         0xa3, 0xfb, 0xf0, 0x7d, 0xf3, 0xfa, 0x2f, 0xde,
 467:Source\mbedtls_open\library/chacha20.c ****         0x4f, 0x37, 0x6c, 0xa2, 0x3e, 0x82, 0x73, 0x70,
 468:Source\mbedtls_open\library/chacha20.c ****         0x41, 0x60, 0x5d, 0x9f, 0x4f, 0x4f, 0x57, 0xbd,
 469:Source\mbedtls_open\library/chacha20.c ****         0x8c, 0xff, 0x2c, 0x1d, 0x4b, 0x79, 0x55, 0xec,
 470:Source\mbedtls_open\library/chacha20.c ****         0x2a, 0x97, 0x94, 0x8b, 0xd3, 0x72, 0x29, 0x15,
 471:Source\mbedtls_open\library/chacha20.c ****         0xc8, 0xf3, 0xd3, 0x37, 0xf7, 0xd3, 0x70, 0x05,
 472:Source\mbedtls_open\library/chacha20.c ****         0x0e, 0x9e, 0x96, 0xd6, 0x47, 0xb7, 0xc3, 0x9f,
 473:Source\mbedtls_open\library/chacha20.c ****         0x56, 0xe0, 0x31, 0xca, 0x5e, 0xb6, 0x25, 0x0d,
 474:Source\mbedtls_open\library/chacha20.c ****         0x40, 0x42, 0xe0, 0x27, 0x85, 0xec, 0xec, 0xfa,
 475:Source\mbedtls_open\library/chacha20.c ****         0x4b, 0x4b, 0xb5, 0xe8, 0xea, 0xd0, 0x44, 0x0e,
 476:Source\mbedtls_open\library/chacha20.c ****         0x20, 0xb6, 0xe8, 0xdb, 0x09, 0xd8, 0x81, 0xa7,
 477:Source\mbedtls_open\library/chacha20.c ****         0xc6, 0x13, 0x2f, 0x42, 0x0e, 0x52, 0x79, 0x50,
 478:Source\mbedtls_open\library/chacha20.c ****         0x42, 0xbd, 0xfa, 0x77, 0x73, 0xd8, 0xa9, 0x05,
 479:Source\mbedtls_open\library/chacha20.c ****         0x14, 0x47, 0xb3, 0x29, 0x1c, 0xe1, 0x41, 0x1c,
 480:Source\mbedtls_open\library/chacha20.c ****         0x68, 0x04, 0x65, 0x55, 0x2a, 0xa6, 0xc4, 0x05,
 481:Source\mbedtls_open\library/chacha20.c ****         0xb7, 0x76, 0x4d, 0x5e, 0x87, 0xbe, 0xa8, 0x5a,
 482:Source\mbedtls_open\library/chacha20.c ****         0xd0, 0x0f, 0x84, 0x49, 0xed, 0x8f, 0x72, 0xd0,
 483:Source\mbedtls_open\library/chacha20.c ****         0xd6, 0x62, 0xab, 0x05, 0x26, 0x91, 0xca, 0x66,
 484:Source\mbedtls_open\library/chacha20.c ****         0x42, 0x4b, 0xc8, 0x6d, 0x2d, 0xf8, 0x0e, 0xa4,
 485:Source\mbedtls_open\library/chacha20.c ****         0x1f, 0x43, 0xab, 0xf9, 0x37, 0xd3, 0x25, 0x9d,
 486:Source\mbedtls_open\library/chacha20.c ****         0xc4, 0xb2, 0xd0, 0xdf, 0xb4, 0x8a, 0x6c, 0x91,
 487:Source\mbedtls_open\library/chacha20.c ****         0x39, 0xdd, 0xd7, 0xf7, 0x69, 0x66, 0xe9, 0x28,
 488:Source\mbedtls_open\library/chacha20.c ****         0xe6, 0x35, 0x55, 0x3b, 0xa7, 0x6c, 0x5c, 0x87,
 489:Source\mbedtls_open\library/chacha20.c ****         0x9d, 0x7b, 0x35, 0xd4, 0x9e, 0xb2, 0xe6, 0x2b,
 490:Source\mbedtls_open\library/chacha20.c ****         0x08, 0x71, 0xcd, 0xac, 0x63, 0x89, 0x39, 0xe2,
 491:Source\mbedtls_open\library/chacha20.c ****         0x5e, 0x8a, 0x1e, 0x0e, 0xf9, 0xd5, 0x28, 0x0f,
 492:Source\mbedtls_open\library/chacha20.c ****         0xa8, 0xca, 0x32, 0x8b, 0x35, 0x1c, 0x3c, 0x76,
 493:Source\mbedtls_open\library/chacha20.c ****         0x59, 0x89, 0xcb, 0xcf, 0x3d, 0xaa, 0x8b, 0x6c,
 494:Source\mbedtls_open\library/chacha20.c ****         0xcc, 0x3a, 0xaf, 0x9f, 0x39, 0x79, 0xc9, 0x2b,
 495:Source\mbedtls_open\library/chacha20.c ****         0x37, 0x20, 0xfc, 0x88, 0xdc, 0x95, 0xed, 0x84,
 496:Source\mbedtls_open\library/chacha20.c ****         0xa1, 0xbe, 0x05, 0x9c, 0x64, 0x99, 0xb9, 0xfd,
 497:Source\mbedtls_open\library/chacha20.c ****         0xa2, 0x36, 0xe7, 0xe8, 0x18, 0xb0, 0x4b, 0x0b,
ARM GAS  C:\Users\Phuong\AppData\Local\Temp\ccA2GnFN.s 			page 35


 498:Source\mbedtls_open\library/chacha20.c ****         0xc3, 0x9c, 0x1e, 0x87, 0x6b, 0x19, 0x3b, 0xfe,
 499:Source\mbedtls_open\library/chacha20.c ****         0x55, 0x69, 0x75, 0x3f, 0x88, 0x12, 0x8c, 0xc0,
 500:Source\mbedtls_open\library/chacha20.c ****         0x8a, 0xaa, 0x9b, 0x63, 0xd1, 0xa1, 0x6f, 0x80,
 501:Source\mbedtls_open\library/chacha20.c ****         0xef, 0x25, 0x54, 0xd7, 0x18, 0x9c, 0x41, 0x1f,
 502:Source\mbedtls_open\library/chacha20.c ****         0x58, 0x69, 0xca, 0x52, 0xc5, 0xb8, 0x3f, 0xa3,
 503:Source\mbedtls_open\library/chacha20.c ****         0x6f, 0xf2, 0x16, 0xb9, 0xc1, 0xd3, 0x00, 0x62,
 504:Source\mbedtls_open\library/chacha20.c ****         0xbe, 0xbc, 0xfd, 0x2d, 0xc5, 0xbc, 0xe0, 0x91,
 505:Source\mbedtls_open\library/chacha20.c ****         0x19, 0x34, 0xfd, 0xa7, 0x9a, 0x86, 0xf6, 0xe6,
 506:Source\mbedtls_open\library/chacha20.c ****         0x98, 0xce, 0xd7, 0x59, 0xc3, 0xff, 0x9b, 0x64,
 507:Source\mbedtls_open\library/chacha20.c ****         0x77, 0x33, 0x8f, 0x3d, 0xa4, 0xf9, 0xcd, 0x85,
 508:Source\mbedtls_open\library/chacha20.c ****         0x14, 0xea, 0x99, 0x82, 0xcc, 0xaf, 0xb3, 0x41,
 509:Source\mbedtls_open\library/chacha20.c ****         0xb2, 0x38, 0x4d, 0xd9, 0x02, 0xf3, 0xd1, 0xab,
 510:Source\mbedtls_open\library/chacha20.c ****         0x7a, 0xc6, 0x1d, 0xd2, 0x9c, 0x6f, 0x21, 0xba,
 511:Source\mbedtls_open\library/chacha20.c ****         0x5b, 0x86, 0x2f, 0x37, 0x30, 0xe3, 0x7c, 0xfd,
 512:Source\mbedtls_open\library/chacha20.c ****         0xc4, 0xfd, 0x80, 0x6c, 0x22, 0xf2, 0x21
 513:Source\mbedtls_open\library/chacha20.c ****     }
 514:Source\mbedtls_open\library/chacha20.c **** };
 515:Source\mbedtls_open\library/chacha20.c **** 
 516:Source\mbedtls_open\library/chacha20.c **** static const size_t test_lengths[2] =
 517:Source\mbedtls_open\library/chacha20.c **** {
 518:Source\mbedtls_open\library/chacha20.c ****     64U,
 519:Source\mbedtls_open\library/chacha20.c ****     375U
 520:Source\mbedtls_open\library/chacha20.c **** };
 521:Source\mbedtls_open\library/chacha20.c **** 
 522:Source\mbedtls_open\library/chacha20.c **** #define ASSERT( cond, args )            \
 523:Source\mbedtls_open\library/chacha20.c ****     do                                  \
 524:Source\mbedtls_open\library/chacha20.c ****     {                                   \
 525:Source\mbedtls_open\library/chacha20.c ****         if( ! ( cond ) )                \
 526:Source\mbedtls_open\library/chacha20.c ****         {                               \
 527:Source\mbedtls_open\library/chacha20.c ****             if( verbose != 0 )          \
 528:Source\mbedtls_open\library/chacha20.c ****                 mbedtls_printf args;    \
 529:Source\mbedtls_open\library/chacha20.c ****                                         \
 530:Source\mbedtls_open\library/chacha20.c ****             return( -1 );               \
 531:Source\mbedtls_open\library/chacha20.c ****         }                               \
 532:Source\mbedtls_open\library/chacha20.c ****     }                                   \
 533:Source\mbedtls_open\library/chacha20.c ****     while( 0 )
 534:Source\mbedtls_open\library/chacha20.c **** 
 535:Source\mbedtls_open\library/chacha20.c **** int mbedtls_chacha20_self_test( int verbose )
 536:Source\mbedtls_open\library/chacha20.c **** {
 1330              		.loc 1 536 0
 1331              		.cfi_startproc
 1332              		@ args = 0, pretend = 0, frame = 384
 1333              		@ frame_needed = 0, uses_anonymous_args = 0
 1334              	.LVL102:
 1335 0000 F0B5     		push	{r4, r5, r6, r7, lr}
 1336              		.cfi_def_cfa_offset 20
 1337              		.cfi_offset 4, -20
 1338              		.cfi_offset 5, -16
 1339              		.cfi_offset 6, -12
 1340              		.cfi_offset 7, -8
 1341              		.cfi_offset 14, -4
 1342 0002 E3B0     		sub	sp, sp, #396
 1343              		.cfi_def_cfa_offset 416
 1344 0004 0700     		movs	r7, r0
 1345              	.LVL103:
 537:Source\mbedtls_open\library/chacha20.c ****     unsigned char output[381];
 538:Source\mbedtls_open\library/chacha20.c ****     unsigned i;
ARM GAS  C:\Users\Phuong\AppData\Local\Temp\ccA2GnFN.s 			page 36


 539:Source\mbedtls_open\library/chacha20.c ****     int ret;
 540:Source\mbedtls_open\library/chacha20.c **** 
 541:Source\mbedtls_open\library/chacha20.c ****     for( i = 0U; i < 2U; i++ )
 1346              		.loc 1 541 0
 1347 0006 0024     		movs	r4, #0
 1348 0008 43E0     		b	.L39
 1349              	.LVL104:
 1350              	.L45:
 542:Source\mbedtls_open\library/chacha20.c ****     {
 543:Source\mbedtls_open\library/chacha20.c ****         if( verbose != 0 )
 1351              		.loc 1 543 0
 1352 000a 002F     		cmp	r7, #0
 1353 000c 03D0     		beq	.L40
 544:Source\mbedtls_open\library/chacha20.c ****             mbedtls_printf( "  ChaCha20 test %u ", i );
 1354              		.loc 1 544 0
 1355 000e 2100     		movs	r1, r4
 1356 0010 2948     		ldr	r0, .L49
 1357 0012 FFF7FEFF 		bl	printf
 1358              	.LVL105:
 1359              	.L40:
 545:Source\mbedtls_open\library/chacha20.c **** 
 546:Source\mbedtls_open\library/chacha20.c ****         ret = mbedtls_chacha20_crypt( test_keys[i],
 1360              		.loc 1 546 0
 1361 0016 294B     		ldr	r3, .L49+4
 1362 0018 6001     		lsls	r0, r4, #5
 1363 001a 1818     		adds	r0, r3, r0
 547:Source\mbedtls_open\library/chacha20.c ****                                       test_nonces[i],
 1364              		.loc 1 547 0
 1365 001c 1D00     		movs	r5, r3
 1366 001e 4035     		adds	r5, r5, #64
 1367 0020 6200     		lsls	r2, r4, #1
 1368 0022 1219     		adds	r2, r2, r4
 1369 0024 9100     		lsls	r1, r2, #2
 1370 0026 6918     		adds	r1, r5, r1
 546:Source\mbedtls_open\library/chacha20.c ****                                       test_nonces[i],
 1371              		.loc 1 546 0
 1372 0028 A500     		lsls	r5, r4, #2
 1373 002a 5D19     		adds	r5, r3, r5
 1374 002c AA6D     		ldr	r2, [r5, #88]
 1375 002e 2D6E     		ldr	r5, [r5, #96]
 548:Source\mbedtls_open\library/chacha20.c ****                                       test_counters[i],
 549:Source\mbedtls_open\library/chacha20.c ****                                       test_lengths[i],
 550:Source\mbedtls_open\library/chacha20.c ****                                       test_input[i],
 1376              		.loc 1 550 0
 1377 0030 6833     		adds	r3, r3, #104
 1378 0032 7826     		movs	r6, #120
 1379 0034 FF36     		adds	r6, r6, #255
 1380 0036 6643     		muls	r6, r4
 1381 0038 9B19     		adds	r3, r3, r6
 546:Source\mbedtls_open\library/chacha20.c ****                                       test_nonces[i],
 1382              		.loc 1 546 0
 1383 003a 02AE     		add	r6, sp, #8
 1384 003c 0196     		str	r6, [sp, #4]
 1385 003e 0093     		str	r3, [sp]
 1386 0040 2B00     		movs	r3, r5
 1387 0042 FFF7FEFF 		bl	mbedtls_chacha20_crypt
 1388              	.LVL106:
ARM GAS  C:\Users\Phuong\AppData\Local\Temp\ccA2GnFN.s 			page 37


 551:Source\mbedtls_open\library/chacha20.c ****                                       output );
 552:Source\mbedtls_open\library/chacha20.c **** 
 553:Source\mbedtls_open\library/chacha20.c ****         ASSERT( 0 == ret, ( "error code: %i\n", ret ) );
 1389              		.loc 1 553 0
 1390 0046 0028     		cmp	r0, #0
 1391 0048 08D0     		beq	.L41
 1392              		.loc 1 553 0 is_stmt 0 discriminator 1
 1393 004a 002F     		cmp	r7, #0
 1394 004c 2AD0     		beq	.L46
 1395              		.loc 1 553 0 discriminator 2
 1396 004e 0100     		movs	r1, r0
 1397 0050 1B48     		ldr	r0, .L49+8
 1398              	.LVL107:
 1399 0052 FFF7FEFF 		bl	printf
 1400              	.LVL108:
 1401 0056 0120     		movs	r0, #1
 1402 0058 4042     		rsbs	r0, r0, #0
 1403 005a 2AE0     		b	.L42
 1404              	.LVL109:
 1405              	.L41:
 554:Source\mbedtls_open\library/chacha20.c **** 
 555:Source\mbedtls_open\library/chacha20.c ****         ASSERT( 0 == memcmp( output, test_output[i], test_lengths[i] ),
 1406              		.loc 1 555 0 is_stmt 1
 1407 005c 7821     		movs	r1, #120
 1408 005e FF31     		adds	r1, r1, #255
 1409 0060 0B00     		movs	r3, r1
 1410 0062 6343     		muls	r3, r4
 1411 0064 1749     		ldr	r1, .L49+12
 1412 0066 5831     		adds	r1, r1, #88
 1413 0068 C918     		adds	r1, r1, r3
 1414 006a 2A00     		movs	r2, r5
 1415 006c 02A8     		add	r0, sp, #8
 1416              	.LVL110:
 1417 006e FFF7FEFF 		bl	memcmp
 1418              	.LVL111:
 1419 0072 0028     		cmp	r0, #0
 1420 0074 07D0     		beq	.L43
 1421              		.loc 1 555 0 is_stmt 0 discriminator 1
 1422 0076 002F     		cmp	r7, #0
 1423 0078 17D0     		beq	.L47
 1424              		.loc 1 555 0 discriminator 2
 1425 007a 1348     		ldr	r0, .L49+16
 1426 007c FFF7FEFF 		bl	puts
 1427              	.LVL112:
 1428 0080 0120     		movs	r0, #1
 1429 0082 4042     		rsbs	r0, r0, #0
 1430 0084 15E0     		b	.L42
 1431              	.L43:
 556:Source\mbedtls_open\library/chacha20.c ****                 ( "failed (output)\n" ) );
 557:Source\mbedtls_open\library/chacha20.c **** 
 558:Source\mbedtls_open\library/chacha20.c ****         if( verbose != 0 )
 1432              		.loc 1 558 0 is_stmt 1
 1433 0086 002F     		cmp	r7, #0
 1434 0088 02D0     		beq	.L44
 559:Source\mbedtls_open\library/chacha20.c ****             mbedtls_printf( "passed\n" );
 1435              		.loc 1 559 0
 1436 008a 1048     		ldr	r0, .L49+20
ARM GAS  C:\Users\Phuong\AppData\Local\Temp\ccA2GnFN.s 			page 38


 1437 008c FFF7FEFF 		bl	puts
 1438              	.LVL113:
 1439              	.L44:
 541:Source\mbedtls_open\library/chacha20.c ****     {
 1440              		.loc 1 541 0 discriminator 2
 1441 0090 0134     		adds	r4, r4, #1
 1442              	.LVL114:
 1443              	.L39:
 541:Source\mbedtls_open\library/chacha20.c ****     {
 1444              		.loc 1 541 0 is_stmt 0 discriminator 1
 1445 0092 012C     		cmp	r4, #1
 1446 0094 B9D9     		bls	.L45
 560:Source\mbedtls_open\library/chacha20.c ****     }
 561:Source\mbedtls_open\library/chacha20.c **** 
 562:Source\mbedtls_open\library/chacha20.c ****     if( verbose != 0 )
 1447              		.loc 1 562 0 is_stmt 1
 1448 0096 002F     		cmp	r7, #0
 1449 0098 0AD0     		beq	.L48
 563:Source\mbedtls_open\library/chacha20.c ****         mbedtls_printf( "\n" );
 1450              		.loc 1 563 0
 1451 009a 0A20     		movs	r0, #10
 1452 009c FFF7FEFF 		bl	putchar
 1453              	.LVL115:
 564:Source\mbedtls_open\library/chacha20.c **** 
 565:Source\mbedtls_open\library/chacha20.c ****     return( 0 );
 1454              		.loc 1 565 0
 1455 00a0 0020     		movs	r0, #0
 1456 00a2 06E0     		b	.L42
 1457              	.LVL116:
 1458              	.L46:
 553:Source\mbedtls_open\library/chacha20.c **** 
 1459              		.loc 1 553 0
 1460 00a4 0120     		movs	r0, #1
 1461              	.LVL117:
 1462 00a6 4042     		rsbs	r0, r0, #0
 1463 00a8 03E0     		b	.L42
 1464              	.L47:
 555:Source\mbedtls_open\library/chacha20.c ****                 ( "failed (output)\n" ) );
 1465              		.loc 1 555 0
 1466 00aa 0120     		movs	r0, #1
 1467 00ac 4042     		rsbs	r0, r0, #0
 1468 00ae 00E0     		b	.L42
 1469              	.L48:
 1470              		.loc 1 565 0
 1471 00b0 0020     		movs	r0, #0
 1472              	.L42:
 566:Source\mbedtls_open\library/chacha20.c **** }
 1473              		.loc 1 566 0
 1474 00b2 63B0     		add	sp, sp, #396
 1475              		@ sp needed
 1476              	.LVL118:
 1477              	.LVL119:
 1478 00b4 F0BD     		pop	{r4, r5, r6, r7, pc}
 1479              	.L50:
 1480 00b6 C046     		.align	2
 1481              	.L49:
 1482 00b8 00000000 		.word	.LC0
ARM GAS  C:\Users\Phuong\AppData\Local\Temp\ccA2GnFN.s 			page 39


 1483 00bc 00000000 		.word	.LANCHOR0
 1484 00c0 14000000 		.word	.LC3
 1485 00c4 00030000 		.word	.LANCHOR1
 1486 00c8 24000000 		.word	.LC6
 1487 00cc 34000000 		.word	.LC8
 1488              		.cfi_endproc
 1489              	.LFE10:
 1490              		.size	mbedtls_chacha20_self_test, .-mbedtls_chacha20_self_test
 1491              		.section	.rodata
 1492              		.align	2
 1493              		.set	.LANCHOR0,. + 0
 1494              		.set	.LANCHOR1,. + 768
 1495              		.type	test_keys, %object
 1496              		.size	test_keys, 64
 1497              	test_keys:
 1498 0000 00       		.byte	0
 1499 0001 00       		.byte	0
 1500 0002 00       		.byte	0
 1501 0003 00       		.byte	0
 1502 0004 00       		.byte	0
 1503 0005 00       		.byte	0
 1504 0006 00       		.byte	0
 1505 0007 00       		.byte	0
 1506 0008 00       		.byte	0
 1507 0009 00       		.byte	0
 1508 000a 00       		.byte	0
 1509 000b 00       		.byte	0
 1510 000c 00       		.byte	0
 1511 000d 00       		.byte	0
 1512 000e 00       		.byte	0
 1513 000f 00       		.byte	0
 1514 0010 00       		.byte	0
 1515 0011 00       		.byte	0
 1516 0012 00       		.byte	0
 1517 0013 00       		.byte	0
 1518 0014 00       		.byte	0
 1519 0015 00       		.byte	0
 1520 0016 00       		.byte	0
 1521 0017 00       		.byte	0
 1522 0018 00       		.byte	0
 1523 0019 00       		.byte	0
 1524 001a 00       		.byte	0
 1525 001b 00       		.byte	0
 1526 001c 00       		.byte	0
 1527 001d 00       		.byte	0
 1528 001e 00       		.byte	0
 1529 001f 00       		.byte	0
 1530 0020 00       		.byte	0
 1531 0021 00       		.byte	0
 1532 0022 00       		.byte	0
 1533 0023 00       		.byte	0
 1534 0024 00       		.byte	0
 1535 0025 00       		.byte	0
 1536 0026 00       		.byte	0
 1537 0027 00       		.byte	0
 1538 0028 00       		.byte	0
 1539 0029 00       		.byte	0
ARM GAS  C:\Users\Phuong\AppData\Local\Temp\ccA2GnFN.s 			page 40


 1540 002a 00       		.byte	0
 1541 002b 00       		.byte	0
 1542 002c 00       		.byte	0
 1543 002d 00       		.byte	0
 1544 002e 00       		.byte	0
 1545 002f 00       		.byte	0
 1546 0030 00       		.byte	0
 1547 0031 00       		.byte	0
 1548 0032 00       		.byte	0
 1549 0033 00       		.byte	0
 1550 0034 00       		.byte	0
 1551 0035 00       		.byte	0
 1552 0036 00       		.byte	0
 1553 0037 00       		.byte	0
 1554 0038 00       		.byte	0
 1555 0039 00       		.byte	0
 1556 003a 00       		.byte	0
 1557 003b 00       		.byte	0
 1558 003c 00       		.byte	0
 1559 003d 00       		.byte	0
 1560 003e 00       		.byte	0
 1561 003f 01       		.byte	1
 1562              		.type	test_nonces, %object
 1563              		.size	test_nonces, 24
 1564              	test_nonces:
 1565 0040 00       		.byte	0
 1566 0041 00       		.byte	0
 1567 0042 00       		.byte	0
 1568 0043 00       		.byte	0
 1569 0044 00       		.byte	0
 1570 0045 00       		.byte	0
 1571 0046 00       		.byte	0
 1572 0047 00       		.byte	0
 1573 0048 00       		.byte	0
 1574 0049 00       		.byte	0
 1575 004a 00       		.byte	0
 1576 004b 00       		.byte	0
 1577 004c 00       		.byte	0
 1578 004d 00       		.byte	0
 1579 004e 00       		.byte	0
 1580 004f 00       		.byte	0
 1581 0050 00       		.byte	0
 1582 0051 00       		.byte	0
 1583 0052 00       		.byte	0
 1584 0053 00       		.byte	0
 1585 0054 00       		.byte	0
 1586 0055 00       		.byte	0
 1587 0056 00       		.byte	0
 1588 0057 02       		.byte	2
 1589              		.type	test_counters, %object
 1590              		.size	test_counters, 8
 1591              	test_counters:
 1592 0058 00000000 		.word	0
 1593 005c 01000000 		.word	1
 1594              		.type	test_lengths, %object
 1595              		.size	test_lengths, 8
 1596              	test_lengths:
ARM GAS  C:\Users\Phuong\AppData\Local\Temp\ccA2GnFN.s 			page 41


 1597 0060 40000000 		.word	64
 1598 0064 77010000 		.word	375
 1599              		.type	test_input, %object
 1600              		.size	test_input, 750
 1601              	test_input:
 1602 0068 00       		.byte	0
 1603 0069 00       		.byte	0
 1604 006a 00       		.byte	0
 1605 006b 00       		.byte	0
 1606 006c 00       		.byte	0
 1607 006d 00       		.byte	0
 1608 006e 00       		.byte	0
 1609 006f 00       		.byte	0
 1610 0070 00       		.byte	0
 1611 0071 00       		.byte	0
 1612 0072 00       		.byte	0
 1613 0073 00       		.byte	0
 1614 0074 00       		.byte	0
 1615 0075 00       		.byte	0
 1616 0076 00       		.byte	0
 1617 0077 00       		.byte	0
 1618 0078 00       		.byte	0
 1619 0079 00       		.byte	0
 1620 007a 00       		.byte	0
 1621 007b 00       		.byte	0
 1622 007c 00       		.byte	0
 1623 007d 00       		.byte	0
 1624 007e 00       		.byte	0
 1625 007f 00       		.byte	0
 1626 0080 00       		.byte	0
 1627 0081 00       		.byte	0
 1628 0082 00       		.byte	0
 1629 0083 00       		.byte	0
 1630 0084 00       		.byte	0
 1631 0085 00       		.byte	0
 1632 0086 00       		.byte	0
 1633 0087 00       		.byte	0
 1634 0088 00       		.byte	0
 1635 0089 00       		.byte	0
 1636 008a 00       		.byte	0
 1637 008b 00       		.byte	0
 1638 008c 00       		.byte	0
 1639 008d 00       		.byte	0
 1640 008e 00       		.byte	0
 1641 008f 00       		.byte	0
 1642 0090 00       		.byte	0
 1643 0091 00       		.byte	0
 1644 0092 00       		.byte	0
 1645 0093 00       		.byte	0
 1646 0094 00       		.byte	0
 1647 0095 00       		.byte	0
 1648 0096 00       		.byte	0
 1649 0097 00       		.byte	0
 1650 0098 00       		.byte	0
 1651 0099 00       		.byte	0
 1652 009a 00       		.byte	0
 1653 009b 00       		.byte	0
ARM GAS  C:\Users\Phuong\AppData\Local\Temp\ccA2GnFN.s 			page 42


 1654 009c 00       		.byte	0
 1655 009d 00       		.byte	0
 1656 009e 00       		.byte	0
 1657 009f 00       		.byte	0
 1658 00a0 00       		.byte	0
 1659 00a1 00       		.byte	0
 1660 00a2 00       		.byte	0
 1661 00a3 00       		.byte	0
 1662 00a4 00       		.byte	0
 1663 00a5 00       		.byte	0
 1664 00a6 00       		.byte	0
 1665 00a7 00       		.byte	0
 1666 00a8 00000000 		.space	311
 1666      00000000 
 1666      00000000 
 1666      00000000 
 1666      00000000 
 1667 01df 41       		.byte	65
 1668 01e0 6E       		.byte	110
 1669 01e1 79       		.byte	121
 1670 01e2 20       		.byte	32
 1671 01e3 73       		.byte	115
 1672 01e4 75       		.byte	117
 1673 01e5 62       		.byte	98
 1674 01e6 6D       		.byte	109
 1675 01e7 69       		.byte	105
 1676 01e8 73       		.byte	115
 1677 01e9 73       		.byte	115
 1678 01ea 69       		.byte	105
 1679 01eb 6F       		.byte	111
 1680 01ec 6E       		.byte	110
 1681 01ed 20       		.byte	32
 1682 01ee 74       		.byte	116
 1683 01ef 6F       		.byte	111
 1684 01f0 20       		.byte	32
 1685 01f1 74       		.byte	116
 1686 01f2 68       		.byte	104
 1687 01f3 65       		.byte	101
 1688 01f4 20       		.byte	32
 1689 01f5 49       		.byte	73
 1690 01f6 45       		.byte	69
 1691 01f7 54       		.byte	84
 1692 01f8 46       		.byte	70
 1693 01f9 20       		.byte	32
 1694 01fa 69       		.byte	105
 1695 01fb 6E       		.byte	110
 1696 01fc 74       		.byte	116
 1697 01fd 65       		.byte	101
 1698 01fe 6E       		.byte	110
 1699 01ff 64       		.byte	100
 1700 0200 65       		.byte	101
 1701 0201 64       		.byte	100
 1702 0202 20       		.byte	32
 1703 0203 62       		.byte	98
 1704 0204 79       		.byte	121
 1705 0205 20       		.byte	32
 1706 0206 74       		.byte	116
ARM GAS  C:\Users\Phuong\AppData\Local\Temp\ccA2GnFN.s 			page 43


 1707 0207 68       		.byte	104
 1708 0208 65       		.byte	101
 1709 0209 20       		.byte	32
 1710 020a 43       		.byte	67
 1711 020b 6F       		.byte	111
 1712 020c 6E       		.byte	110
 1713 020d 74       		.byte	116
 1714 020e 72       		.byte	114
 1715 020f 69       		.byte	105
 1716 0210 62       		.byte	98
 1717 0211 75       		.byte	117
 1718 0212 74       		.byte	116
 1719 0213 6F       		.byte	111
 1720 0214 72       		.byte	114
 1721 0215 20       		.byte	32
 1722 0216 66       		.byte	102
 1723 0217 6F       		.byte	111
 1724 0218 72       		.byte	114
 1725 0219 20       		.byte	32
 1726 021a 70       		.byte	112
 1727 021b 75       		.byte	117
 1728 021c 62       		.byte	98
 1729 021d 6C       		.byte	108
 1730 021e 69       		.byte	105
 1731 021f 63       		.byte	99
 1732 0220 61       		.byte	97
 1733 0221 74       		.byte	116
 1734 0222 69       		.byte	105
 1735 0223 6F       		.byte	111
 1736 0224 6E       		.byte	110
 1737 0225 20       		.byte	32
 1738 0226 61       		.byte	97
 1739 0227 73       		.byte	115
 1740 0228 20       		.byte	32
 1741 0229 61       		.byte	97
 1742 022a 6C       		.byte	108
 1743 022b 6C       		.byte	108
 1744 022c 20       		.byte	32
 1745 022d 6F       		.byte	111
 1746 022e 72       		.byte	114
 1747 022f 20       		.byte	32
 1748 0230 70       		.byte	112
 1749 0231 61       		.byte	97
 1750 0232 72       		.byte	114
 1751 0233 74       		.byte	116
 1752 0234 20       		.byte	32
 1753 0235 6F       		.byte	111
 1754 0236 66       		.byte	102
 1755 0237 20       		.byte	32
 1756 0238 61       		.byte	97
 1757 0239 6E       		.byte	110
 1758 023a 20       		.byte	32
 1759 023b 49       		.byte	73
 1760 023c 45       		.byte	69
 1761 023d 54       		.byte	84
 1762 023e 46       		.byte	70
 1763 023f 20       		.byte	32
ARM GAS  C:\Users\Phuong\AppData\Local\Temp\ccA2GnFN.s 			page 44


 1764 0240 49       		.byte	73
 1765 0241 6E       		.byte	110
 1766 0242 74       		.byte	116
 1767 0243 65       		.byte	101
 1768 0244 72       		.byte	114
 1769 0245 6E       		.byte	110
 1770 0246 65       		.byte	101
 1771 0247 74       		.byte	116
 1772 0248 2D       		.byte	45
 1773 0249 44       		.byte	68
 1774 024a 72       		.byte	114
 1775 024b 61       		.byte	97
 1776 024c 66       		.byte	102
 1777 024d 74       		.byte	116
 1778 024e 20       		.byte	32
 1779 024f 6F       		.byte	111
 1780 0250 72       		.byte	114
 1781 0251 20       		.byte	32
 1782 0252 52       		.byte	82
 1783 0253 46       		.byte	70
 1784 0254 43       		.byte	67
 1785 0255 20       		.byte	32
 1786 0256 61       		.byte	97
 1787 0257 6E       		.byte	110
 1788 0258 64       		.byte	100
 1789 0259 20       		.byte	32
 1790 025a 61       		.byte	97
 1791 025b 6E       		.byte	110
 1792 025c 79       		.byte	121
 1793 025d 20       		.byte	32
 1794 025e 73       		.byte	115
 1795 025f 74       		.byte	116
 1796 0260 61       		.byte	97
 1797 0261 74       		.byte	116
 1798 0262 65       		.byte	101
 1799 0263 6D       		.byte	109
 1800 0264 65       		.byte	101
 1801 0265 6E       		.byte	110
 1802 0266 74       		.byte	116
 1803 0267 20       		.byte	32
 1804 0268 6D       		.byte	109
 1805 0269 61       		.byte	97
 1806 026a 64       		.byte	100
 1807 026b 65       		.byte	101
 1808 026c 20       		.byte	32
 1809 026d 77       		.byte	119
 1810 026e 69       		.byte	105
 1811 026f 74       		.byte	116
 1812 0270 68       		.byte	104
 1813 0271 69       		.byte	105
 1814 0272 6E       		.byte	110
 1815 0273 20       		.byte	32
 1816 0274 74       		.byte	116
 1817 0275 68       		.byte	104
 1818 0276 65       		.byte	101
 1819 0277 20       		.byte	32
 1820 0278 63       		.byte	99
ARM GAS  C:\Users\Phuong\AppData\Local\Temp\ccA2GnFN.s 			page 45


 1821 0279 6F       		.byte	111
 1822 027a 6E       		.byte	110
 1823 027b 74       		.byte	116
 1824 027c 65       		.byte	101
 1825 027d 78       		.byte	120
 1826 027e 74       		.byte	116
 1827 027f 20       		.byte	32
 1828 0280 6F       		.byte	111
 1829 0281 66       		.byte	102
 1830 0282 20       		.byte	32
 1831 0283 61       		.byte	97
 1832 0284 6E       		.byte	110
 1833 0285 20       		.byte	32
 1834 0286 49       		.byte	73
 1835 0287 45       		.byte	69
 1836 0288 54       		.byte	84
 1837 0289 46       		.byte	70
 1838 028a 20       		.byte	32
 1839 028b 61       		.byte	97
 1840 028c 63       		.byte	99
 1841 028d 74       		.byte	116
 1842 028e 69       		.byte	105
 1843 028f 76       		.byte	118
 1844 0290 69       		.byte	105
 1845 0291 74       		.byte	116
 1846 0292 79       		.byte	121
 1847 0293 20       		.byte	32
 1848 0294 69       		.byte	105
 1849 0295 73       		.byte	115
 1850 0296 20       		.byte	32
 1851 0297 63       		.byte	99
 1852 0298 6F       		.byte	111
 1853 0299 6E       		.byte	110
 1854 029a 73       		.byte	115
 1855 029b 69       		.byte	105
 1856 029c 64       		.byte	100
 1857 029d 65       		.byte	101
 1858 029e 72       		.byte	114
 1859 029f 65       		.byte	101
 1860 02a0 64       		.byte	100
 1861 02a1 20       		.byte	32
 1862 02a2 61       		.byte	97
 1863 02a3 6E       		.byte	110
 1864 02a4 20       		.byte	32
 1865 02a5 22       		.byte	34
 1866 02a6 49       		.byte	73
 1867 02a7 45       		.byte	69
 1868 02a8 54       		.byte	84
 1869 02a9 46       		.byte	70
 1870 02aa 20       		.byte	32
 1871 02ab 43       		.byte	67
 1872 02ac 6F       		.byte	111
 1873 02ad 6E       		.byte	110
 1874 02ae 74       		.byte	116
 1875 02af 72       		.byte	114
 1876 02b0 69       		.byte	105
 1877 02b1 62       		.byte	98
ARM GAS  C:\Users\Phuong\AppData\Local\Temp\ccA2GnFN.s 			page 46


 1878 02b2 75       		.byte	117
 1879 02b3 74       		.byte	116
 1880 02b4 69       		.byte	105
 1881 02b5 6F       		.byte	111
 1882 02b6 6E       		.byte	110
 1883 02b7 22       		.byte	34
 1884 02b8 2E       		.byte	46
 1885 02b9 20       		.byte	32
 1886 02ba 53       		.byte	83
 1887 02bb 75       		.byte	117
 1888 02bc 63       		.byte	99
 1889 02bd 68       		.byte	104
 1890 02be 20       		.byte	32
 1891 02bf 73       		.byte	115
 1892 02c0 74       		.byte	116
 1893 02c1 61       		.byte	97
 1894 02c2 74       		.byte	116
 1895 02c3 65       		.byte	101
 1896 02c4 6D       		.byte	109
 1897 02c5 65       		.byte	101
 1898 02c6 6E       		.byte	110
 1899 02c7 74       		.byte	116
 1900 02c8 73       		.byte	115
 1901 02c9 20       		.byte	32
 1902 02ca 69       		.byte	105
 1903 02cb 6E       		.byte	110
 1904 02cc 63       		.byte	99
 1905 02cd 6C       		.byte	108
 1906 02ce 75       		.byte	117
 1907 02cf 64       		.byte	100
 1908 02d0 65       		.byte	101
 1909 02d1 20       		.byte	32
 1910 02d2 6F       		.byte	111
 1911 02d3 72       		.byte	114
 1912 02d4 61       		.byte	97
 1913 02d5 6C       		.byte	108
 1914 02d6 20       		.byte	32
 1915 02d7 73       		.byte	115
 1916 02d8 74       		.byte	116
 1917 02d9 61       		.byte	97
 1918 02da 74       		.byte	116
 1919 02db 65       		.byte	101
 1920 02dc 6D       		.byte	109
 1921 02dd 65       		.byte	101
 1922 02de 6E       		.byte	110
 1923 02df 74       		.byte	116
 1924 02e0 73       		.byte	115
 1925 02e1 20       		.byte	32
 1926 02e2 69       		.byte	105
 1927 02e3 6E       		.byte	110
 1928 02e4 20       		.byte	32
 1929 02e5 49       		.byte	73
 1930 02e6 45       		.byte	69
 1931 02e7 54       		.byte	84
 1932 02e8 46       		.byte	70
 1933 02e9 20       		.byte	32
 1934 02ea 73       		.byte	115
ARM GAS  C:\Users\Phuong\AppData\Local\Temp\ccA2GnFN.s 			page 47


 1935 02eb 65       		.byte	101
 1936 02ec 73       		.byte	115
 1937 02ed 73       		.byte	115
 1938 02ee 69       		.byte	105
 1939 02ef 6F       		.byte	111
 1940 02f0 6E       		.byte	110
 1941 02f1 73       		.byte	115
 1942 02f2 2C       		.byte	44
 1943 02f3 20       		.byte	32
 1944 02f4 61       		.byte	97
 1945 02f5 73       		.byte	115
 1946 02f6 20       		.byte	32
 1947 02f7 77       		.byte	119
 1948 02f8 65       		.byte	101
 1949 02f9 6C       		.byte	108
 1950 02fa 6C       		.byte	108
 1951 02fb 20       		.byte	32
 1952 02fc 61       		.byte	97
 1953 02fd 73       		.byte	115
 1954 02fe 20       		.byte	32
 1955 02ff 77       		.byte	119
 1956 0300 72       		.byte	114
 1957 0301 69       		.byte	105
 1958 0302 74       		.byte	116
 1959 0303 74       		.byte	116
 1960 0304 65       		.byte	101
 1961 0305 6E       		.byte	110
 1962 0306 20       		.byte	32
 1963 0307 61       		.byte	97
 1964 0308 6E       		.byte	110
 1965 0309 64       		.byte	100
 1966 030a 20       		.byte	32
 1967 030b 65       		.byte	101
 1968 030c 6C       		.byte	108
 1969 030d 65       		.byte	101
 1970 030e 63       		.byte	99
 1971 030f 74       		.byte	116
 1972 0310 72       		.byte	114
 1973 0311 6F       		.byte	111
 1974 0312 6E       		.byte	110
 1975 0313 69       		.byte	105
 1976 0314 63       		.byte	99
 1977 0315 20       		.byte	32
 1978 0316 63       		.byte	99
 1979 0317 6F       		.byte	111
 1980 0318 6D       		.byte	109
 1981 0319 6D       		.byte	109
 1982 031a 75       		.byte	117
 1983 031b 6E       		.byte	110
 1984 031c 69       		.byte	105
 1985 031d 63       		.byte	99
 1986 031e 61       		.byte	97
 1987 031f 74       		.byte	116
 1988 0320 69       		.byte	105
 1989 0321 6F       		.byte	111
 1990 0322 6E       		.byte	110
 1991 0323 73       		.byte	115
ARM GAS  C:\Users\Phuong\AppData\Local\Temp\ccA2GnFN.s 			page 48


 1992 0324 20       		.byte	32
 1993 0325 6D       		.byte	109
 1994 0326 61       		.byte	97
 1995 0327 64       		.byte	100
 1996 0328 65       		.byte	101
 1997 0329 20       		.byte	32
 1998 032a 61       		.byte	97
 1999 032b 74       		.byte	116
 2000 032c 20       		.byte	32
 2001 032d 61       		.byte	97
 2002 032e 6E       		.byte	110
 2003 032f 79       		.byte	121
 2004 0330 20       		.byte	32
 2005 0331 74       		.byte	116
 2006 0332 69       		.byte	105
 2007 0333 6D       		.byte	109
 2008 0334 65       		.byte	101
 2009 0335 20       		.byte	32
 2010 0336 6F       		.byte	111
 2011 0337 72       		.byte	114
 2012 0338 20       		.byte	32
 2013 0339 70       		.byte	112
 2014 033a 6C       		.byte	108
 2015 033b 61       		.byte	97
 2016 033c 63       		.byte	99
 2017 033d 65       		.byte	101
 2018 033e 2C       		.byte	44
 2019 033f 20       		.byte	32
 2020 0340 77       		.byte	119
 2021 0341 68       		.byte	104
 2022 0342 69       		.byte	105
 2023 0343 63       		.byte	99
 2024 0344 68       		.byte	104
 2025 0345 20       		.byte	32
 2026 0346 61       		.byte	97
 2027 0347 72       		.byte	114
 2028 0348 65       		.byte	101
 2029 0349 20       		.byte	32
 2030 034a 61       		.byte	97
 2031 034b 64       		.byte	100
 2032 034c 64       		.byte	100
 2033 034d 72       		.byte	114
 2034 034e 65       		.byte	101
 2035 034f 73       		.byte	115
 2036 0350 73       		.byte	115
 2037 0351 65       		.byte	101
 2038 0352 64       		.byte	100
 2039 0353 20       		.byte	32
 2040 0354 74       		.byte	116
 2041 0355 6F       		.byte	111
 2042 0356 0000     		.space	2
 2043              		.type	test_output, %object
 2044              		.size	test_output, 750
 2045              	test_output:
 2046 0358 76       		.byte	118
 2047 0359 B8       		.byte	-72
 2048 035a E0       		.byte	-32
ARM GAS  C:\Users\Phuong\AppData\Local\Temp\ccA2GnFN.s 			page 49


 2049 035b AD       		.byte	-83
 2050 035c A0       		.byte	-96
 2051 035d F1       		.byte	-15
 2052 035e 3D       		.byte	61
 2053 035f 90       		.byte	-112
 2054 0360 40       		.byte	64
 2055 0361 5D       		.byte	93
 2056 0362 6A       		.byte	106
 2057 0363 E5       		.byte	-27
 2058 0364 53       		.byte	83
 2059 0365 86       		.byte	-122
 2060 0366 BD       		.byte	-67
 2061 0367 28       		.byte	40
 2062 0368 BD       		.byte	-67
 2063 0369 D2       		.byte	-46
 2064 036a 19       		.byte	25
 2065 036b B8       		.byte	-72
 2066 036c A0       		.byte	-96
 2067 036d 8D       		.byte	-115
 2068 036e ED       		.byte	-19
 2069 036f 1A       		.byte	26
 2070 0370 A8       		.byte	-88
 2071 0371 36       		.byte	54
 2072 0372 EF       		.byte	-17
 2073 0373 CC       		.byte	-52
 2074 0374 8B       		.byte	-117
 2075 0375 77       		.byte	119
 2076 0376 0D       		.byte	13
 2077 0377 C7       		.byte	-57
 2078 0378 DA       		.byte	-38
 2079 0379 41       		.byte	65
 2080 037a 59       		.byte	89
 2081 037b 7C       		.byte	124
 2082 037c 51       		.byte	81
 2083 037d 57       		.byte	87
 2084 037e 48       		.byte	72
 2085 037f 8D       		.byte	-115
 2086 0380 77       		.byte	119
 2087 0381 24       		.byte	36
 2088 0382 E0       		.byte	-32
 2089 0383 3F       		.byte	63
 2090 0384 B8       		.byte	-72
 2091 0385 D8       		.byte	-40
 2092 0386 4A       		.byte	74
 2093 0387 37       		.byte	55
 2094 0388 6A       		.byte	106
 2095 0389 43       		.byte	67
 2096 038a B8       		.byte	-72
 2097 038b F4       		.byte	-12
 2098 038c 15       		.byte	21
 2099 038d 18       		.byte	24
 2100 038e A1       		.byte	-95
 2101 038f 1C       		.byte	28
 2102 0390 C3       		.byte	-61
 2103 0391 87       		.byte	-121
 2104 0392 B6       		.byte	-74
 2105 0393 69       		.byte	105
ARM GAS  C:\Users\Phuong\AppData\Local\Temp\ccA2GnFN.s 			page 50


 2106 0394 B2       		.byte	-78
 2107 0395 EE       		.byte	-18
 2108 0396 65       		.byte	101
 2109 0397 86       		.byte	-122
 2110 0398 00000000 		.space	311
 2110      00000000 
 2110      00000000 
 2110      00000000 
 2110      00000000 
 2111 04cf A3       		.byte	-93
 2112 04d0 FB       		.byte	-5
 2113 04d1 F0       		.byte	-16
 2114 04d2 7D       		.byte	125
 2115 04d3 F3       		.byte	-13
 2116 04d4 FA       		.byte	-6
 2117 04d5 2F       		.byte	47
 2118 04d6 DE       		.byte	-34
 2119 04d7 4F       		.byte	79
 2120 04d8 37       		.byte	55
 2121 04d9 6C       		.byte	108
 2122 04da A2       		.byte	-94
 2123 04db 3E       		.byte	62
 2124 04dc 82       		.byte	-126
 2125 04dd 73       		.byte	115
 2126 04de 70       		.byte	112
 2127 04df 41       		.byte	65
 2128 04e0 60       		.byte	96
 2129 04e1 5D       		.byte	93
 2130 04e2 9F       		.byte	-97
 2131 04e3 4F       		.byte	79
 2132 04e4 4F       		.byte	79
 2133 04e5 57       		.byte	87
 2134 04e6 BD       		.byte	-67
 2135 04e7 8C       		.byte	-116
 2136 04e8 FF       		.byte	-1
 2137 04e9 2C       		.byte	44
 2138 04ea 1D       		.byte	29
 2139 04eb 4B       		.byte	75
 2140 04ec 79       		.byte	121
 2141 04ed 55       		.byte	85
 2142 04ee EC       		.byte	-20
 2143 04ef 2A       		.byte	42
 2144 04f0 97       		.byte	-105
 2145 04f1 94       		.byte	-108
 2146 04f2 8B       		.byte	-117
 2147 04f3 D3       		.byte	-45
 2148 04f4 72       		.byte	114
 2149 04f5 29       		.byte	41
 2150 04f6 15       		.byte	21
 2151 04f7 C8       		.byte	-56
 2152 04f8 F3       		.byte	-13
 2153 04f9 D3       		.byte	-45
 2154 04fa 37       		.byte	55
 2155 04fb F7       		.byte	-9
 2156 04fc D3       		.byte	-45
 2157 04fd 70       		.byte	112
 2158 04fe 05       		.byte	5
ARM GAS  C:\Users\Phuong\AppData\Local\Temp\ccA2GnFN.s 			page 51


 2159 04ff 0E       		.byte	14
 2160 0500 9E       		.byte	-98
 2161 0501 96       		.byte	-106
 2162 0502 D6       		.byte	-42
 2163 0503 47       		.byte	71
 2164 0504 B7       		.byte	-73
 2165 0505 C3       		.byte	-61
 2166 0506 9F       		.byte	-97
 2167 0507 56       		.byte	86
 2168 0508 E0       		.byte	-32
 2169 0509 31       		.byte	49
 2170 050a CA       		.byte	-54
 2171 050b 5E       		.byte	94
 2172 050c B6       		.byte	-74
 2173 050d 25       		.byte	37
 2174 050e 0D       		.byte	13
 2175 050f 40       		.byte	64
 2176 0510 42       		.byte	66
 2177 0511 E0       		.byte	-32
 2178 0512 27       		.byte	39
 2179 0513 85       		.byte	-123
 2180 0514 EC       		.byte	-20
 2181 0515 EC       		.byte	-20
 2182 0516 FA       		.byte	-6
 2183 0517 4B       		.byte	75
 2184 0518 4B       		.byte	75
 2185 0519 B5       		.byte	-75
 2186 051a E8       		.byte	-24
 2187 051b EA       		.byte	-22
 2188 051c D0       		.byte	-48
 2189 051d 44       		.byte	68
 2190 051e 0E       		.byte	14
 2191 051f 20       		.byte	32
 2192 0520 B6       		.byte	-74
 2193 0521 E8       		.byte	-24
 2194 0522 DB       		.byte	-37
 2195 0523 09       		.byte	9
 2196 0524 D8       		.byte	-40
 2197 0525 81       		.byte	-127
 2198 0526 A7       		.byte	-89
 2199 0527 C6       		.byte	-58
 2200 0528 13       		.byte	19
 2201 0529 2F       		.byte	47
 2202 052a 42       		.byte	66
 2203 052b 0E       		.byte	14
 2204 052c 52       		.byte	82
 2205 052d 79       		.byte	121
 2206 052e 50       		.byte	80
 2207 052f 42       		.byte	66
 2208 0530 BD       		.byte	-67
 2209 0531 FA       		.byte	-6
 2210 0532 77       		.byte	119
 2211 0533 73       		.byte	115
 2212 0534 D8       		.byte	-40
 2213 0535 A9       		.byte	-87
 2214 0536 05       		.byte	5
 2215 0537 14       		.byte	20
ARM GAS  C:\Users\Phuong\AppData\Local\Temp\ccA2GnFN.s 			page 52


 2216 0538 47       		.byte	71
 2217 0539 B3       		.byte	-77
 2218 053a 29       		.byte	41
 2219 053b 1C       		.byte	28
 2220 053c E1       		.byte	-31
 2221 053d 41       		.byte	65
 2222 053e 1C       		.byte	28
 2223 053f 68       		.byte	104
 2224 0540 04       		.byte	4
 2225 0541 65       		.byte	101
 2226 0542 55       		.byte	85
 2227 0543 2A       		.byte	42
 2228 0544 A6       		.byte	-90
 2229 0545 C4       		.byte	-60
 2230 0546 05       		.byte	5
 2231 0547 B7       		.byte	-73
 2232 0548 76       		.byte	118
 2233 0549 4D       		.byte	77
 2234 054a 5E       		.byte	94
 2235 054b 87       		.byte	-121
 2236 054c BE       		.byte	-66
 2237 054d A8       		.byte	-88
 2238 054e 5A       		.byte	90
 2239 054f D0       		.byte	-48
 2240 0550 0F       		.byte	15
 2241 0551 84       		.byte	-124
 2242 0552 49       		.byte	73
 2243 0553 ED       		.byte	-19
 2244 0554 8F       		.byte	-113
 2245 0555 72       		.byte	114
 2246 0556 D0       		.byte	-48
 2247 0557 D6       		.byte	-42
 2248 0558 62       		.byte	98
 2249 0559 AB       		.byte	-85
 2250 055a 05       		.byte	5
 2251 055b 26       		.byte	38
 2252 055c 91       		.byte	-111
 2253 055d CA       		.byte	-54
 2254 055e 66       		.byte	102
 2255 055f 42       		.byte	66
 2256 0560 4B       		.byte	75
 2257 0561 C8       		.byte	-56
 2258 0562 6D       		.byte	109
 2259 0563 2D       		.byte	45
 2260 0564 F8       		.byte	-8
 2261 0565 0E       		.byte	14
 2262 0566 A4       		.byte	-92
 2263 0567 1F       		.byte	31
 2264 0568 43       		.byte	67
 2265 0569 AB       		.byte	-85
 2266 056a F9       		.byte	-7
 2267 056b 37       		.byte	55
 2268 056c D3       		.byte	-45
 2269 056d 25       		.byte	37
 2270 056e 9D       		.byte	-99
 2271 056f C4       		.byte	-60
 2272 0570 B2       		.byte	-78
ARM GAS  C:\Users\Phuong\AppData\Local\Temp\ccA2GnFN.s 			page 53


 2273 0571 D0       		.byte	-48
 2274 0572 DF       		.byte	-33
 2275 0573 B4       		.byte	-76
 2276 0574 8A       		.byte	-118
 2277 0575 6C       		.byte	108
 2278 0576 91       		.byte	-111
 2279 0577 39       		.byte	57
 2280 0578 DD       		.byte	-35
 2281 0579 D7       		.byte	-41
 2282 057a F7       		.byte	-9
 2283 057b 69       		.byte	105
 2284 057c 66       		.byte	102
 2285 057d E9       		.byte	-23
 2286 057e 28       		.byte	40
 2287 057f E6       		.byte	-26
 2288 0580 35       		.byte	53
 2289 0581 55       		.byte	85
 2290 0582 3B       		.byte	59
 2291 0583 A7       		.byte	-89
 2292 0584 6C       		.byte	108
 2293 0585 5C       		.byte	92
 2294 0586 87       		.byte	-121
 2295 0587 9D       		.byte	-99
 2296 0588 7B       		.byte	123
 2297 0589 35       		.byte	53
 2298 058a D4       		.byte	-44
 2299 058b 9E       		.byte	-98
 2300 058c B2       		.byte	-78
 2301 058d E6       		.byte	-26
 2302 058e 2B       		.byte	43
 2303 058f 08       		.byte	8
 2304 0590 71       		.byte	113
 2305 0591 CD       		.byte	-51
 2306 0592 AC       		.byte	-84
 2307 0593 63       		.byte	99
 2308 0594 89       		.byte	-119
 2309 0595 39       		.byte	57
 2310 0596 E2       		.byte	-30
 2311 0597 5E       		.byte	94
 2312 0598 8A       		.byte	-118
 2313 0599 1E       		.byte	30
 2314 059a 0E       		.byte	14
 2315 059b F9       		.byte	-7
 2316 059c D5       		.byte	-43
 2317 059d 28       		.byte	40
 2318 059e 0F       		.byte	15
 2319 059f A8       		.byte	-88
 2320 05a0 CA       		.byte	-54
 2321 05a1 32       		.byte	50
 2322 05a2 8B       		.byte	-117
 2323 05a3 35       		.byte	53
 2324 05a4 1C       		.byte	28
 2325 05a5 3C       		.byte	60
 2326 05a6 76       		.byte	118
 2327 05a7 59       		.byte	89
 2328 05a8 89       		.byte	-119
 2329 05a9 CB       		.byte	-53
ARM GAS  C:\Users\Phuong\AppData\Local\Temp\ccA2GnFN.s 			page 54


 2330 05aa CF       		.byte	-49
 2331 05ab 3D       		.byte	61
 2332 05ac AA       		.byte	-86
 2333 05ad 8B       		.byte	-117
 2334 05ae 6C       		.byte	108
 2335 05af CC       		.byte	-52
 2336 05b0 3A       		.byte	58
 2337 05b1 AF       		.byte	-81
 2338 05b2 9F       		.byte	-97
 2339 05b3 39       		.byte	57
 2340 05b4 79       		.byte	121
 2341 05b5 C9       		.byte	-55
 2342 05b6 2B       		.byte	43
 2343 05b7 37       		.byte	55
 2344 05b8 20       		.byte	32
 2345 05b9 FC       		.byte	-4
 2346 05ba 88       		.byte	-120
 2347 05bb DC       		.byte	-36
 2348 05bc 95       		.byte	-107
 2349 05bd ED       		.byte	-19
 2350 05be 84       		.byte	-124
 2351 05bf A1       		.byte	-95
 2352 05c0 BE       		.byte	-66
 2353 05c1 05       		.byte	5
 2354 05c2 9C       		.byte	-100
 2355 05c3 64       		.byte	100
 2356 05c4 99       		.byte	-103
 2357 05c5 B9       		.byte	-71
 2358 05c6 FD       		.byte	-3
 2359 05c7 A2       		.byte	-94
 2360 05c8 36       		.byte	54
 2361 05c9 E7       		.byte	-25
 2362 05ca E8       		.byte	-24
 2363 05cb 18       		.byte	24
 2364 05cc B0       		.byte	-80
 2365 05cd 4B       		.byte	75
 2366 05ce 0B       		.byte	11
 2367 05cf C3       		.byte	-61
 2368 05d0 9C       		.byte	-100
 2369 05d1 1E       		.byte	30
 2370 05d2 87       		.byte	-121
 2371 05d3 6B       		.byte	107
 2372 05d4 19       		.byte	25
 2373 05d5 3B       		.byte	59
 2374 05d6 FE       		.byte	-2
 2375 05d7 55       		.byte	85
 2376 05d8 69       		.byte	105
 2377 05d9 75       		.byte	117
 2378 05da 3F       		.byte	63
 2379 05db 88       		.byte	-120
 2380 05dc 12       		.byte	18
 2381 05dd 8C       		.byte	-116
 2382 05de C0       		.byte	-64
 2383 05df 8A       		.byte	-118
 2384 05e0 AA       		.byte	-86
 2385 05e1 9B       		.byte	-101
 2386 05e2 63       		.byte	99
ARM GAS  C:\Users\Phuong\AppData\Local\Temp\ccA2GnFN.s 			page 55


 2387 05e3 D1       		.byte	-47
 2388 05e4 A1       		.byte	-95
 2389 05e5 6F       		.byte	111
 2390 05e6 80       		.byte	-128
 2391 05e7 EF       		.byte	-17
 2392 05e8 25       		.byte	37
 2393 05e9 54       		.byte	84
 2394 05ea D7       		.byte	-41
 2395 05eb 18       		.byte	24
 2396 05ec 9C       		.byte	-100
 2397 05ed 41       		.byte	65
 2398 05ee 1F       		.byte	31
 2399 05ef 58       		.byte	88
 2400 05f0 69       		.byte	105
 2401 05f1 CA       		.byte	-54
 2402 05f2 52       		.byte	82
 2403 05f3 C5       		.byte	-59
 2404 05f4 B8       		.byte	-72
 2405 05f5 3F       		.byte	63
 2406 05f6 A3       		.byte	-93
 2407 05f7 6F       		.byte	111
 2408 05f8 F2       		.byte	-14
 2409 05f9 16       		.byte	22
 2410 05fa B9       		.byte	-71
 2411 05fb C1       		.byte	-63
 2412 05fc D3       		.byte	-45
 2413 05fd 00       		.byte	0
 2414 05fe 62       		.byte	98
 2415 05ff BE       		.byte	-66
 2416 0600 BC       		.byte	-68
 2417 0601 FD       		.byte	-3
 2418 0602 2D       		.byte	45
 2419 0603 C5       		.byte	-59
 2420 0604 BC       		.byte	-68
 2421 0605 E0       		.byte	-32
 2422 0606 91       		.byte	-111
 2423 0607 19       		.byte	25
 2424 0608 34       		.byte	52
 2425 0609 FD       		.byte	-3
 2426 060a A7       		.byte	-89
 2427 060b 9A       		.byte	-102
 2428 060c 86       		.byte	-122
 2429 060d F6       		.byte	-10
 2430 060e E6       		.byte	-26
 2431 060f 98       		.byte	-104
 2432 0610 CE       		.byte	-50
 2433 0611 D7       		.byte	-41
 2434 0612 59       		.byte	89
 2435 0613 C3       		.byte	-61
 2436 0614 FF       		.byte	-1
 2437 0615 9B       		.byte	-101
 2438 0616 64       		.byte	100
 2439 0617 77       		.byte	119
 2440 0618 33       		.byte	51
 2441 0619 8F       		.byte	-113
 2442 061a 3D       		.byte	61
 2443 061b A4       		.byte	-92
ARM GAS  C:\Users\Phuong\AppData\Local\Temp\ccA2GnFN.s 			page 56


 2444 061c F9       		.byte	-7
 2445 061d CD       		.byte	-51
 2446 061e 85       		.byte	-123
 2447 061f 14       		.byte	20
 2448 0620 EA       		.byte	-22
 2449 0621 99       		.byte	-103
 2450 0622 82       		.byte	-126
 2451 0623 CC       		.byte	-52
 2452 0624 AF       		.byte	-81
 2453 0625 B3       		.byte	-77
 2454 0626 41       		.byte	65
 2455 0627 B2       		.byte	-78
 2456 0628 38       		.byte	56
 2457 0629 4D       		.byte	77
 2458 062a D9       		.byte	-39
 2459 062b 02       		.byte	2
 2460 062c F3       		.byte	-13
 2461 062d D1       		.byte	-47
 2462 062e AB       		.byte	-85
 2463 062f 7A       		.byte	122
 2464 0630 C6       		.byte	-58
 2465 0631 1D       		.byte	29
 2466 0632 D2       		.byte	-46
 2467 0633 9C       		.byte	-100
 2468 0634 6F       		.byte	111
 2469 0635 21       		.byte	33
 2470 0636 BA       		.byte	-70
 2471 0637 5B       		.byte	91
 2472 0638 86       		.byte	-122
 2473 0639 2F       		.byte	47
 2474 063a 37       		.byte	55
 2475 063b 30       		.byte	48
 2476 063c E3       		.byte	-29
 2477 063d 7C       		.byte	124
 2478 063e FD       		.byte	-3
 2479 063f C4       		.byte	-60
 2480 0640 FD       		.byte	-3
 2481 0641 80       		.byte	-128
 2482 0642 6C       		.byte	108
 2483 0643 22       		.byte	34
 2484 0644 F2       		.byte	-14
 2485 0645 21       		.byte	33
 2486              		.section	.rodata.str1.4,"aMS",%progbits,1
 2487              		.align	2
 2488              	.LC0:
 2489 0000 20204368 		.ascii	"  ChaCha20 test %u \000"
 2489      61436861 
 2489      32302074 
 2489      65737420 
 2489      25752000 
 2490              	.LC3:
 2491 0014 6572726F 		.ascii	"error code: %i\012\000"
 2491      7220636F 
 2491      64653A20 
 2491      25690A00 
 2492              	.LC6:
 2493 0024 6661696C 		.ascii	"failed (output)\000"
ARM GAS  C:\Users\Phuong\AppData\Local\Temp\ccA2GnFN.s 			page 57


 2493      65642028 
 2493      6F757470 
 2493      75742900 
 2494              	.LC8:
 2495 0034 70617373 		.ascii	"passed\000"
 2495      656400
 2496              		.text
 2497              	.Letext0:
 2498              		.file 2 "c:\\program files (x86)\\cypress\\psoc creator\\4.2\\psoc creator\\import\\gnu\\arm\\5.4.
 2499              		.file 3 "c:\\program files (x86)\\cypress\\psoc creator\\4.2\\psoc creator\\import\\gnu\\arm\\5.4.
 2500              		.file 4 "c:\\program files (x86)\\cypress\\psoc creator\\4.2\\psoc creator\\import\\gnu\\arm\\5.4.
 2501              		.file 5 ".\\Source\\mbedtls_open\\include/mbedtls/chacha20.h"
 2502              		.file 6 ".\\Source\\mbedtls_open\\include/mbedtls/platform_util.h"
 2503              		.file 7 "c:\\program files (x86)\\cypress\\psoc creator\\4.2\\psoc creator\\import\\gnu\\arm\\5.4.
 2504              		.file 8 "c:\\program files (x86)\\cypress\\psoc creator\\4.2\\psoc creator\\import\\gnu\\arm\\5.4.
 2505              		.file 9 "<built-in>"