ARM GAS  C:\Users\Phuong\AppData\Local\Temp\ccnzvfGe.s 			page 1


   1              		.syntax unified
   2              		.cpu cortex-m0plus
   3              		.fpu softvfp
   4              		.eabi_attribute 20, 1
   5              		.eabi_attribute 21, 1
   6              		.eabi_attribute 23, 3
   7              		.eabi_attribute 24, 1
   8              		.eabi_attribute 25, 1
   9              		.eabi_attribute 26, 1
  10              		.eabi_attribute 30, 1
  11              		.eabi_attribute 34, 0
  12              		.eabi_attribute 18, 4
  13              		.thumb
  14              		.syntax unified
  15              		.file	"cipher.c"
  16              		.text
  17              	.Ltext0:
  18              		.cfi_sections	.debug_frame
  19              		.section	.text.mbedtls_constant_time_memcmp,"ax",%progbits
  20              		.align	2
  21              		.code	16
  22              		.thumb_func
  23              		.type	mbedtls_constant_time_memcmp, %function
  24              	mbedtls_constant_time_memcmp:
  25              	.LFB8:
  26              		.file 1 "Source\\mbedtls_open\\library\\cipher.c"
   1:Source\mbedtls_open\library/cipher.c **** /**
   2:Source\mbedtls_open\library/cipher.c ****  * \file cipher.c
   3:Source\mbedtls_open\library/cipher.c ****  *
   4:Source\mbedtls_open\library/cipher.c ****  * \brief Generic cipher wrapper for mbed TLS
   5:Source\mbedtls_open\library/cipher.c ****  *
   6:Source\mbedtls_open\library/cipher.c ****  * \author Adriaan de Jong <dejong@fox-it.com>
   7:Source\mbedtls_open\library/cipher.c ****  *
   8:Source\mbedtls_open\library/cipher.c ****  *  Copyright (C) 2006-2015, ARM Limited, All Rights Reserved
   9:Source\mbedtls_open\library/cipher.c ****  *  SPDX-License-Identifier: Apache-2.0
  10:Source\mbedtls_open\library/cipher.c ****  *
  11:Source\mbedtls_open\library/cipher.c ****  *  Licensed under the Apache License, Version 2.0 (the "License"); you may
  12:Source\mbedtls_open\library/cipher.c ****  *  not use this file except in compliance with the License.
  13:Source\mbedtls_open\library/cipher.c ****  *  You may obtain a copy of the License at
  14:Source\mbedtls_open\library/cipher.c ****  *
  15:Source\mbedtls_open\library/cipher.c ****  *  http://www.apache.org/licenses/LICENSE-2.0
  16:Source\mbedtls_open\library/cipher.c ****  *
  17:Source\mbedtls_open\library/cipher.c ****  *  Unless required by applicable law or agreed to in writing, software
  18:Source\mbedtls_open\library/cipher.c ****  *  distributed under the License is distributed on an "AS IS" BASIS, WITHOUT
  19:Source\mbedtls_open\library/cipher.c ****  *  WARRANTIES OR CONDITIONS OF ANY KIND, either express or implied.
  20:Source\mbedtls_open\library/cipher.c ****  *  See the License for the specific language governing permissions and
  21:Source\mbedtls_open\library/cipher.c ****  *  limitations under the License.
  22:Source\mbedtls_open\library/cipher.c ****  *
  23:Source\mbedtls_open\library/cipher.c ****  *  This file is part of mbed TLS (https://tls.mbed.org)
  24:Source\mbedtls_open\library/cipher.c ****  */
  25:Source\mbedtls_open\library/cipher.c **** 
  26:Source\mbedtls_open\library/cipher.c **** #if !defined(MBEDTLS_CONFIG_FILE)
  27:Source\mbedtls_open\library/cipher.c **** #include "mbedtls/config.h"
  28:Source\mbedtls_open\library/cipher.c **** #else
  29:Source\mbedtls_open\library/cipher.c **** #include MBEDTLS_CONFIG_FILE
  30:Source\mbedtls_open\library/cipher.c **** #endif
  31:Source\mbedtls_open\library/cipher.c **** 
ARM GAS  C:\Users\Phuong\AppData\Local\Temp\ccnzvfGe.s 			page 2


  32:Source\mbedtls_open\library/cipher.c **** #if defined(MBEDTLS_CIPHER_C)
  33:Source\mbedtls_open\library/cipher.c **** 
  34:Source\mbedtls_open\library/cipher.c **** #include "mbedtls/cipher.h"
  35:Source\mbedtls_open\library/cipher.c **** #include "mbedtls/cipher_internal.h"
  36:Source\mbedtls_open\library/cipher.c **** #include "mbedtls/platform_util.h"
  37:Source\mbedtls_open\library/cipher.c **** 
  38:Source\mbedtls_open\library/cipher.c **** #include <stdlib.h>
  39:Source\mbedtls_open\library/cipher.c **** #include <string.h>
  40:Source\mbedtls_open\library/cipher.c **** 
  41:Source\mbedtls_open\library/cipher.c **** #if defined(MBEDTLS_CHACHAPOLY_C)
  42:Source\mbedtls_open\library/cipher.c **** #include "mbedtls/chachapoly.h"
  43:Source\mbedtls_open\library/cipher.c **** #endif
  44:Source\mbedtls_open\library/cipher.c **** 
  45:Source\mbedtls_open\library/cipher.c **** #if defined(MBEDTLS_GCM_C)
  46:Source\mbedtls_open\library/cipher.c **** #include "mbedtls/gcm.h"
  47:Source\mbedtls_open\library/cipher.c **** #endif
  48:Source\mbedtls_open\library/cipher.c **** 
  49:Source\mbedtls_open\library/cipher.c **** #if defined(MBEDTLS_CCM_C)
  50:Source\mbedtls_open\library/cipher.c **** #include "mbedtls/ccm.h"
  51:Source\mbedtls_open\library/cipher.c **** #endif
  52:Source\mbedtls_open\library/cipher.c **** 
  53:Source\mbedtls_open\library/cipher.c **** #if defined(MBEDTLS_CHACHA20_C)
  54:Source\mbedtls_open\library/cipher.c **** #include "mbedtls/chacha20.h"
  55:Source\mbedtls_open\library/cipher.c **** #endif
  56:Source\mbedtls_open\library/cipher.c **** 
  57:Source\mbedtls_open\library/cipher.c **** #if defined(MBEDTLS_CMAC_C)
  58:Source\mbedtls_open\library/cipher.c **** #include "mbedtls/cmac.h"
  59:Source\mbedtls_open\library/cipher.c **** #endif
  60:Source\mbedtls_open\library/cipher.c **** 
  61:Source\mbedtls_open\library/cipher.c **** #if defined(MBEDTLS_PLATFORM_C)
  62:Source\mbedtls_open\library/cipher.c **** #include "mbedtls/platform.h"
  63:Source\mbedtls_open\library/cipher.c **** #else
  64:Source\mbedtls_open\library/cipher.c **** #define mbedtls_calloc calloc
  65:Source\mbedtls_open\library/cipher.c **** #define mbedtls_free   free
  66:Source\mbedtls_open\library/cipher.c **** #endif
  67:Source\mbedtls_open\library/cipher.c **** 
  68:Source\mbedtls_open\library/cipher.c **** #if defined(MBEDTLS_GCM_C) || defined(MBEDTLS_CHACHAPOLY_C)
  69:Source\mbedtls_open\library/cipher.c **** /* Compare the contents of two buffers in constant time.
  70:Source\mbedtls_open\library/cipher.c ****  * Returns 0 if the contents are bitwise identical, otherwise returns
  71:Source\mbedtls_open\library/cipher.c ****  * a non-zero value.
  72:Source\mbedtls_open\library/cipher.c ****  * This is currently only used by GCM and ChaCha20+Poly1305.
  73:Source\mbedtls_open\library/cipher.c ****  */
  74:Source\mbedtls_open\library/cipher.c **** static int mbedtls_constant_time_memcmp( const void *v1, const void *v2, size_t len )
  75:Source\mbedtls_open\library/cipher.c **** {
  27              		.loc 1 75 0
  28              		.cfi_startproc
  29              		@ args = 0, pretend = 0, frame = 0
  30              		@ frame_needed = 0, uses_anonymous_args = 0
  31              	.LVL0:
  32 0000 70B5     		push	{r4, r5, r6, lr}
  33              		.cfi_def_cfa_offset 16
  34              		.cfi_offset 4, -16
  35              		.cfi_offset 5, -12
  36              		.cfi_offset 6, -8
  37              		.cfi_offset 14, -4
  38 0002 0600     		movs	r6, r0
  39              	.LVL1:
ARM GAS  C:\Users\Phuong\AppData\Local\Temp\ccnzvfGe.s 			page 3


  76:Source\mbedtls_open\library/cipher.c ****     const unsigned char *p1 = (const unsigned char*) v1;
  77:Source\mbedtls_open\library/cipher.c ****     const unsigned char *p2 = (const unsigned char*) v2;
  78:Source\mbedtls_open\library/cipher.c ****     size_t i;
  79:Source\mbedtls_open\library/cipher.c ****     unsigned char diff;
  80:Source\mbedtls_open\library/cipher.c **** 
  81:Source\mbedtls_open\library/cipher.c ****     for( diff = 0, i = 0; i < len; i++ )
  40              		.loc 1 81 0
  41 0004 0020     		movs	r0, #0
  42              	.LVL2:
  43 0006 0023     		movs	r3, #0
  44 0008 04E0     		b	.L2
  45              	.LVL3:
  46              	.L3:
  82:Source\mbedtls_open\library/cipher.c ****         diff |= p1[i] ^ p2[i];
  47              		.loc 1 82 0 discriminator 3
  48 000a F55C     		ldrb	r5, [r6, r3]
  49 000c CC5C     		ldrb	r4, [r1, r3]
  50 000e 6C40     		eors	r4, r5
  51 0010 2043     		orrs	r0, r4
  52              	.LVL4:
  81:Source\mbedtls_open\library/cipher.c ****         diff |= p1[i] ^ p2[i];
  53              		.loc 1 81 0 discriminator 3
  54 0012 0133     		adds	r3, r3, #1
  55              	.LVL5:
  56              	.L2:
  81:Source\mbedtls_open\library/cipher.c ****         diff |= p1[i] ^ p2[i];
  57              		.loc 1 81 0 is_stmt 0 discriminator 1
  58 0014 9342     		cmp	r3, r2
  59 0016 F8D3     		bcc	.L3
  83:Source\mbedtls_open\library/cipher.c **** 
  84:Source\mbedtls_open\library/cipher.c ****     return (int)diff;
  85:Source\mbedtls_open\library/cipher.c **** }
  60              		.loc 1 85 0 is_stmt 1
  61              		@ sp needed
  62              	.LVL6:
  63 0018 70BD     		pop	{r4, r5, r6, pc}
  64              		.cfi_endproc
  65              	.LFE8:
  66              		.size	mbedtls_constant_time_memcmp, .-mbedtls_constant_time_memcmp
  67 001a C046     		.section	.text.add_pkcs_padding,"ax",%progbits
  68              		.align	2
  69              		.code	16
  70              		.thumb_func
  71              		.type	add_pkcs_padding, %function
  72              	add_pkcs_padding:
  73              	.LFB21:
  86:Source\mbedtls_open\library/cipher.c **** #endif /* MBEDTLS_GCM_C || MBEDTLS_CHACHAPOLY_C */
  87:Source\mbedtls_open\library/cipher.c **** 
  88:Source\mbedtls_open\library/cipher.c **** static int supported_init = 0;
  89:Source\mbedtls_open\library/cipher.c **** 
  90:Source\mbedtls_open\library/cipher.c **** const int *mbedtls_cipher_list( void )
  91:Source\mbedtls_open\library/cipher.c **** {
  92:Source\mbedtls_open\library/cipher.c ****     const mbedtls_cipher_definition_t *def;
  93:Source\mbedtls_open\library/cipher.c ****     int *type;
  94:Source\mbedtls_open\library/cipher.c **** 
  95:Source\mbedtls_open\library/cipher.c ****     if( ! supported_init )
  96:Source\mbedtls_open\library/cipher.c ****     {
ARM GAS  C:\Users\Phuong\AppData\Local\Temp\ccnzvfGe.s 			page 4


  97:Source\mbedtls_open\library/cipher.c ****         def = mbedtls_cipher_definitions;
  98:Source\mbedtls_open\library/cipher.c ****         type = mbedtls_cipher_supported;
  99:Source\mbedtls_open\library/cipher.c **** 
 100:Source\mbedtls_open\library/cipher.c ****         while( def->type != 0 )
 101:Source\mbedtls_open\library/cipher.c ****             *type++ = (*def++).type;
 102:Source\mbedtls_open\library/cipher.c **** 
 103:Source\mbedtls_open\library/cipher.c ****         *type = 0;
 104:Source\mbedtls_open\library/cipher.c **** 
 105:Source\mbedtls_open\library/cipher.c ****         supported_init = 1;
 106:Source\mbedtls_open\library/cipher.c ****     }
 107:Source\mbedtls_open\library/cipher.c **** 
 108:Source\mbedtls_open\library/cipher.c ****     return( mbedtls_cipher_supported );
 109:Source\mbedtls_open\library/cipher.c **** }
 110:Source\mbedtls_open\library/cipher.c **** 
 111:Source\mbedtls_open\library/cipher.c **** const mbedtls_cipher_info_t *mbedtls_cipher_info_from_type( const mbedtls_cipher_type_t cipher_type
 112:Source\mbedtls_open\library/cipher.c **** {
 113:Source\mbedtls_open\library/cipher.c ****     const mbedtls_cipher_definition_t *def;
 114:Source\mbedtls_open\library/cipher.c **** 
 115:Source\mbedtls_open\library/cipher.c ****     for( def = mbedtls_cipher_definitions; def->info != NULL; def++ )
 116:Source\mbedtls_open\library/cipher.c ****         if( def->type == cipher_type )
 117:Source\mbedtls_open\library/cipher.c ****             return( def->info );
 118:Source\mbedtls_open\library/cipher.c **** 
 119:Source\mbedtls_open\library/cipher.c ****     return( NULL );
 120:Source\mbedtls_open\library/cipher.c **** }
 121:Source\mbedtls_open\library/cipher.c **** 
 122:Source\mbedtls_open\library/cipher.c **** const mbedtls_cipher_info_t *mbedtls_cipher_info_from_string( const char *cipher_name )
 123:Source\mbedtls_open\library/cipher.c **** {
 124:Source\mbedtls_open\library/cipher.c ****     const mbedtls_cipher_definition_t *def;
 125:Source\mbedtls_open\library/cipher.c **** 
 126:Source\mbedtls_open\library/cipher.c ****     if( NULL == cipher_name )
 127:Source\mbedtls_open\library/cipher.c ****         return( NULL );
 128:Source\mbedtls_open\library/cipher.c **** 
 129:Source\mbedtls_open\library/cipher.c ****     for( def = mbedtls_cipher_definitions; def->info != NULL; def++ )
 130:Source\mbedtls_open\library/cipher.c ****         if( !  strcmp( def->info->name, cipher_name ) )
 131:Source\mbedtls_open\library/cipher.c ****             return( def->info );
 132:Source\mbedtls_open\library/cipher.c **** 
 133:Source\mbedtls_open\library/cipher.c ****     return( NULL );
 134:Source\mbedtls_open\library/cipher.c **** }
 135:Source\mbedtls_open\library/cipher.c **** 
 136:Source\mbedtls_open\library/cipher.c **** const mbedtls_cipher_info_t *mbedtls_cipher_info_from_values( const mbedtls_cipher_id_t cipher_id,
 137:Source\mbedtls_open\library/cipher.c ****                                               int key_bitlen,
 138:Source\mbedtls_open\library/cipher.c ****                                               const mbedtls_cipher_mode_t mode )
 139:Source\mbedtls_open\library/cipher.c **** {
 140:Source\mbedtls_open\library/cipher.c ****     const mbedtls_cipher_definition_t *def;
 141:Source\mbedtls_open\library/cipher.c **** 
 142:Source\mbedtls_open\library/cipher.c ****     for( def = mbedtls_cipher_definitions; def->info != NULL; def++ )
 143:Source\mbedtls_open\library/cipher.c ****         if( def->info->base->cipher == cipher_id &&
 144:Source\mbedtls_open\library/cipher.c ****             def->info->key_bitlen == (unsigned) key_bitlen &&
 145:Source\mbedtls_open\library/cipher.c ****             def->info->mode == mode )
 146:Source\mbedtls_open\library/cipher.c ****             return( def->info );
 147:Source\mbedtls_open\library/cipher.c **** 
 148:Source\mbedtls_open\library/cipher.c ****     return( NULL );
 149:Source\mbedtls_open\library/cipher.c **** }
 150:Source\mbedtls_open\library/cipher.c **** 
 151:Source\mbedtls_open\library/cipher.c **** void mbedtls_cipher_init( mbedtls_cipher_context_t *ctx )
 152:Source\mbedtls_open\library/cipher.c **** {
 153:Source\mbedtls_open\library/cipher.c ****     memset( ctx, 0, sizeof( mbedtls_cipher_context_t ) );
ARM GAS  C:\Users\Phuong\AppData\Local\Temp\ccnzvfGe.s 			page 5


 154:Source\mbedtls_open\library/cipher.c **** }
 155:Source\mbedtls_open\library/cipher.c **** 
 156:Source\mbedtls_open\library/cipher.c **** void mbedtls_cipher_free( mbedtls_cipher_context_t *ctx )
 157:Source\mbedtls_open\library/cipher.c **** {
 158:Source\mbedtls_open\library/cipher.c ****     if( ctx == NULL )
 159:Source\mbedtls_open\library/cipher.c ****         return;
 160:Source\mbedtls_open\library/cipher.c **** 
 161:Source\mbedtls_open\library/cipher.c **** #if defined(MBEDTLS_CMAC_C)
 162:Source\mbedtls_open\library/cipher.c ****     if( ctx->cmac_ctx )
 163:Source\mbedtls_open\library/cipher.c ****     {
 164:Source\mbedtls_open\library/cipher.c ****        mbedtls_platform_zeroize( ctx->cmac_ctx,
 165:Source\mbedtls_open\library/cipher.c ****                                  sizeof( mbedtls_cmac_context_t ) );
 166:Source\mbedtls_open\library/cipher.c ****        mbedtls_free( ctx->cmac_ctx );
 167:Source\mbedtls_open\library/cipher.c ****     }
 168:Source\mbedtls_open\library/cipher.c **** #endif
 169:Source\mbedtls_open\library/cipher.c **** 
 170:Source\mbedtls_open\library/cipher.c ****     if( ctx->cipher_ctx )
 171:Source\mbedtls_open\library/cipher.c ****         ctx->cipher_info->base->ctx_free_func( ctx->cipher_ctx );
 172:Source\mbedtls_open\library/cipher.c **** 
 173:Source\mbedtls_open\library/cipher.c ****     mbedtls_platform_zeroize( ctx, sizeof(mbedtls_cipher_context_t) );
 174:Source\mbedtls_open\library/cipher.c **** }
 175:Source\mbedtls_open\library/cipher.c **** 
 176:Source\mbedtls_open\library/cipher.c **** int mbedtls_cipher_setup( mbedtls_cipher_context_t *ctx, const mbedtls_cipher_info_t *cipher_info )
 177:Source\mbedtls_open\library/cipher.c **** {
 178:Source\mbedtls_open\library/cipher.c ****     if( NULL == cipher_info || NULL == ctx )
 179:Source\mbedtls_open\library/cipher.c ****         return( MBEDTLS_ERR_CIPHER_BAD_INPUT_DATA );
 180:Source\mbedtls_open\library/cipher.c **** 
 181:Source\mbedtls_open\library/cipher.c ****     memset( ctx, 0, sizeof( mbedtls_cipher_context_t ) );
 182:Source\mbedtls_open\library/cipher.c **** 
 183:Source\mbedtls_open\library/cipher.c ****     if( NULL == ( ctx->cipher_ctx = cipher_info->base->ctx_alloc_func() ) )
 184:Source\mbedtls_open\library/cipher.c ****         return( MBEDTLS_ERR_CIPHER_ALLOC_FAILED );
 185:Source\mbedtls_open\library/cipher.c **** 
 186:Source\mbedtls_open\library/cipher.c ****     ctx->cipher_info = cipher_info;
 187:Source\mbedtls_open\library/cipher.c **** 
 188:Source\mbedtls_open\library/cipher.c **** #if defined(MBEDTLS_CIPHER_MODE_WITH_PADDING)
 189:Source\mbedtls_open\library/cipher.c ****     /*
 190:Source\mbedtls_open\library/cipher.c ****      * Ignore possible errors caused by a cipher mode that doesn't use padding
 191:Source\mbedtls_open\library/cipher.c ****      */
 192:Source\mbedtls_open\library/cipher.c **** #if defined(MBEDTLS_CIPHER_PADDING_PKCS7)
 193:Source\mbedtls_open\library/cipher.c ****     (void) mbedtls_cipher_set_padding_mode( ctx, MBEDTLS_PADDING_PKCS7 );
 194:Source\mbedtls_open\library/cipher.c **** #else
 195:Source\mbedtls_open\library/cipher.c ****     (void) mbedtls_cipher_set_padding_mode( ctx, MBEDTLS_PADDING_NONE );
 196:Source\mbedtls_open\library/cipher.c **** #endif
 197:Source\mbedtls_open\library/cipher.c **** #endif /* MBEDTLS_CIPHER_MODE_WITH_PADDING */
 198:Source\mbedtls_open\library/cipher.c **** 
 199:Source\mbedtls_open\library/cipher.c ****     return( 0 );
 200:Source\mbedtls_open\library/cipher.c **** }
 201:Source\mbedtls_open\library/cipher.c **** 
 202:Source\mbedtls_open\library/cipher.c **** int mbedtls_cipher_setkey( mbedtls_cipher_context_t *ctx, const unsigned char *key,
 203:Source\mbedtls_open\library/cipher.c ****         int key_bitlen, const mbedtls_operation_t operation )
 204:Source\mbedtls_open\library/cipher.c **** {
 205:Source\mbedtls_open\library/cipher.c ****     if( NULL == ctx || NULL == ctx->cipher_info )
 206:Source\mbedtls_open\library/cipher.c ****         return( MBEDTLS_ERR_CIPHER_BAD_INPUT_DATA );
 207:Source\mbedtls_open\library/cipher.c **** 
 208:Source\mbedtls_open\library/cipher.c ****     if( ( ctx->cipher_info->flags & MBEDTLS_CIPHER_VARIABLE_KEY_LEN ) == 0 &&
 209:Source\mbedtls_open\library/cipher.c ****         (int) ctx->cipher_info->key_bitlen != key_bitlen )
 210:Source\mbedtls_open\library/cipher.c ****     {
ARM GAS  C:\Users\Phuong\AppData\Local\Temp\ccnzvfGe.s 			page 6


 211:Source\mbedtls_open\library/cipher.c ****         return( MBEDTLS_ERR_CIPHER_BAD_INPUT_DATA );
 212:Source\mbedtls_open\library/cipher.c ****     }
 213:Source\mbedtls_open\library/cipher.c **** 
 214:Source\mbedtls_open\library/cipher.c ****     ctx->key_bitlen = key_bitlen;
 215:Source\mbedtls_open\library/cipher.c ****     ctx->operation = operation;
 216:Source\mbedtls_open\library/cipher.c **** 
 217:Source\mbedtls_open\library/cipher.c ****     /*
 218:Source\mbedtls_open\library/cipher.c ****      * For OFB, CFB and CTR mode always use the encryption key schedule
 219:Source\mbedtls_open\library/cipher.c ****      */
 220:Source\mbedtls_open\library/cipher.c ****     if( MBEDTLS_ENCRYPT == operation ||
 221:Source\mbedtls_open\library/cipher.c ****         MBEDTLS_MODE_CFB == ctx->cipher_info->mode ||
 222:Source\mbedtls_open\library/cipher.c ****         MBEDTLS_MODE_OFB == ctx->cipher_info->mode ||
 223:Source\mbedtls_open\library/cipher.c ****         MBEDTLS_MODE_CTR == ctx->cipher_info->mode )
 224:Source\mbedtls_open\library/cipher.c ****     {
 225:Source\mbedtls_open\library/cipher.c ****         return ctx->cipher_info->base->setkey_enc_func( ctx->cipher_ctx, key,
 226:Source\mbedtls_open\library/cipher.c ****                 ctx->key_bitlen );
 227:Source\mbedtls_open\library/cipher.c ****     }
 228:Source\mbedtls_open\library/cipher.c **** 
 229:Source\mbedtls_open\library/cipher.c ****     if( MBEDTLS_DECRYPT == operation )
 230:Source\mbedtls_open\library/cipher.c ****         return ctx->cipher_info->base->setkey_dec_func( ctx->cipher_ctx, key,
 231:Source\mbedtls_open\library/cipher.c ****                 ctx->key_bitlen );
 232:Source\mbedtls_open\library/cipher.c **** 
 233:Source\mbedtls_open\library/cipher.c ****     return( MBEDTLS_ERR_CIPHER_BAD_INPUT_DATA );
 234:Source\mbedtls_open\library/cipher.c **** }
 235:Source\mbedtls_open\library/cipher.c **** 
 236:Source\mbedtls_open\library/cipher.c **** int mbedtls_cipher_set_iv( mbedtls_cipher_context_t *ctx,
 237:Source\mbedtls_open\library/cipher.c ****                    const unsigned char *iv, size_t iv_len )
 238:Source\mbedtls_open\library/cipher.c **** {
 239:Source\mbedtls_open\library/cipher.c ****     size_t actual_iv_size;
 240:Source\mbedtls_open\library/cipher.c ****     if( NULL == ctx || NULL == ctx->cipher_info )
 241:Source\mbedtls_open\library/cipher.c ****         return( MBEDTLS_ERR_CIPHER_BAD_INPUT_DATA );
 242:Source\mbedtls_open\library/cipher.c ****     else if( NULL == iv && iv_len != 0  )
 243:Source\mbedtls_open\library/cipher.c ****         return( MBEDTLS_ERR_CIPHER_BAD_INPUT_DATA );
 244:Source\mbedtls_open\library/cipher.c **** 
 245:Source\mbedtls_open\library/cipher.c ****     if( NULL == iv && iv_len == 0 )
 246:Source\mbedtls_open\library/cipher.c ****         ctx->iv_size = 0;
 247:Source\mbedtls_open\library/cipher.c **** 
 248:Source\mbedtls_open\library/cipher.c ****     /* avoid buffer overflow in ctx->iv */
 249:Source\mbedtls_open\library/cipher.c ****     if( iv_len > MBEDTLS_MAX_IV_LENGTH )
 250:Source\mbedtls_open\library/cipher.c ****         return( MBEDTLS_ERR_CIPHER_FEATURE_UNAVAILABLE );
 251:Source\mbedtls_open\library/cipher.c **** 
 252:Source\mbedtls_open\library/cipher.c ****     if( ( ctx->cipher_info->flags & MBEDTLS_CIPHER_VARIABLE_IV_LEN ) != 0 )
 253:Source\mbedtls_open\library/cipher.c ****         actual_iv_size = iv_len;
 254:Source\mbedtls_open\library/cipher.c ****     else
 255:Source\mbedtls_open\library/cipher.c ****     {
 256:Source\mbedtls_open\library/cipher.c ****         actual_iv_size = ctx->cipher_info->iv_size;
 257:Source\mbedtls_open\library/cipher.c **** 
 258:Source\mbedtls_open\library/cipher.c ****         /* avoid reading past the end of input buffer */
 259:Source\mbedtls_open\library/cipher.c ****         if( actual_iv_size > iv_len )
 260:Source\mbedtls_open\library/cipher.c ****             return( MBEDTLS_ERR_CIPHER_BAD_INPUT_DATA );
 261:Source\mbedtls_open\library/cipher.c ****     }
 262:Source\mbedtls_open\library/cipher.c **** 
 263:Source\mbedtls_open\library/cipher.c **** #if defined(MBEDTLS_CHACHA20_C)
 264:Source\mbedtls_open\library/cipher.c ****     if ( ctx->cipher_info->type == MBEDTLS_CIPHER_CHACHA20 )
 265:Source\mbedtls_open\library/cipher.c ****     {
 266:Source\mbedtls_open\library/cipher.c ****         if ( 0 != mbedtls_chacha20_starts( (mbedtls_chacha20_context*)ctx->cipher_ctx,
 267:Source\mbedtls_open\library/cipher.c ****                                            iv,
ARM GAS  C:\Users\Phuong\AppData\Local\Temp\ccnzvfGe.s 			page 7


 268:Source\mbedtls_open\library/cipher.c ****                                            0U ) ) /* Initial counter value */
 269:Source\mbedtls_open\library/cipher.c ****         {
 270:Source\mbedtls_open\library/cipher.c ****             return( MBEDTLS_ERR_CIPHER_BAD_INPUT_DATA );
 271:Source\mbedtls_open\library/cipher.c ****         }
 272:Source\mbedtls_open\library/cipher.c ****     }
 273:Source\mbedtls_open\library/cipher.c **** #endif
 274:Source\mbedtls_open\library/cipher.c **** 
 275:Source\mbedtls_open\library/cipher.c ****     if ( actual_iv_size != 0 )
 276:Source\mbedtls_open\library/cipher.c ****     {
 277:Source\mbedtls_open\library/cipher.c ****         memcpy( ctx->iv, iv, actual_iv_size );
 278:Source\mbedtls_open\library/cipher.c ****         ctx->iv_size = actual_iv_size;
 279:Source\mbedtls_open\library/cipher.c ****     }
 280:Source\mbedtls_open\library/cipher.c **** 
 281:Source\mbedtls_open\library/cipher.c ****     return( 0 );
 282:Source\mbedtls_open\library/cipher.c **** }
 283:Source\mbedtls_open\library/cipher.c **** 
 284:Source\mbedtls_open\library/cipher.c **** int mbedtls_cipher_reset( mbedtls_cipher_context_t *ctx )
 285:Source\mbedtls_open\library/cipher.c **** {
 286:Source\mbedtls_open\library/cipher.c ****     if( NULL == ctx || NULL == ctx->cipher_info )
 287:Source\mbedtls_open\library/cipher.c ****         return( MBEDTLS_ERR_CIPHER_BAD_INPUT_DATA );
 288:Source\mbedtls_open\library/cipher.c **** 
 289:Source\mbedtls_open\library/cipher.c ****     ctx->unprocessed_len = 0;
 290:Source\mbedtls_open\library/cipher.c **** 
 291:Source\mbedtls_open\library/cipher.c ****     return( 0 );
 292:Source\mbedtls_open\library/cipher.c **** }
 293:Source\mbedtls_open\library/cipher.c **** 
 294:Source\mbedtls_open\library/cipher.c **** #if defined(MBEDTLS_GCM_C) || defined(MBEDTLS_CHACHAPOLY_C)
 295:Source\mbedtls_open\library/cipher.c **** int mbedtls_cipher_update_ad( mbedtls_cipher_context_t *ctx,
 296:Source\mbedtls_open\library/cipher.c ****                       const unsigned char *ad, size_t ad_len )
 297:Source\mbedtls_open\library/cipher.c **** {
 298:Source\mbedtls_open\library/cipher.c ****     if( NULL == ctx || NULL == ctx->cipher_info )
 299:Source\mbedtls_open\library/cipher.c ****         return( MBEDTLS_ERR_CIPHER_BAD_INPUT_DATA );
 300:Source\mbedtls_open\library/cipher.c **** 
 301:Source\mbedtls_open\library/cipher.c **** #if defined(MBEDTLS_GCM_C)
 302:Source\mbedtls_open\library/cipher.c ****     if( MBEDTLS_MODE_GCM == ctx->cipher_info->mode )
 303:Source\mbedtls_open\library/cipher.c ****     {
 304:Source\mbedtls_open\library/cipher.c ****         return mbedtls_gcm_starts( (mbedtls_gcm_context *) ctx->cipher_ctx, ctx->operation,
 305:Source\mbedtls_open\library/cipher.c ****                            ctx->iv, ctx->iv_size, ad, ad_len );
 306:Source\mbedtls_open\library/cipher.c ****     }
 307:Source\mbedtls_open\library/cipher.c **** #endif
 308:Source\mbedtls_open\library/cipher.c **** 
 309:Source\mbedtls_open\library/cipher.c **** #if defined(MBEDTLS_CHACHAPOLY_C)
 310:Source\mbedtls_open\library/cipher.c ****     if (MBEDTLS_CIPHER_CHACHA20_POLY1305 == ctx->cipher_info->type )
 311:Source\mbedtls_open\library/cipher.c ****     {
 312:Source\mbedtls_open\library/cipher.c ****         int result;
 313:Source\mbedtls_open\library/cipher.c ****         mbedtls_chachapoly_mode_t mode;
 314:Source\mbedtls_open\library/cipher.c **** 
 315:Source\mbedtls_open\library/cipher.c ****         mode = ( ctx->operation == MBEDTLS_ENCRYPT )
 316:Source\mbedtls_open\library/cipher.c ****                 ? MBEDTLS_CHACHAPOLY_ENCRYPT
 317:Source\mbedtls_open\library/cipher.c ****                 : MBEDTLS_CHACHAPOLY_DECRYPT;
 318:Source\mbedtls_open\library/cipher.c **** 
 319:Source\mbedtls_open\library/cipher.c ****         result = mbedtls_chachapoly_starts( (mbedtls_chachapoly_context*) ctx->cipher_ctx,
 320:Source\mbedtls_open\library/cipher.c ****                                                         ctx->iv,
 321:Source\mbedtls_open\library/cipher.c ****                                                         mode );
 322:Source\mbedtls_open\library/cipher.c ****         if ( result != 0 )
 323:Source\mbedtls_open\library/cipher.c ****             return( result );
 324:Source\mbedtls_open\library/cipher.c **** 
ARM GAS  C:\Users\Phuong\AppData\Local\Temp\ccnzvfGe.s 			page 8


 325:Source\mbedtls_open\library/cipher.c ****         return mbedtls_chachapoly_update_aad( (mbedtls_chachapoly_context*) ctx->cipher_ctx,
 326:Source\mbedtls_open\library/cipher.c ****                                                           ad, ad_len );
 327:Source\mbedtls_open\library/cipher.c ****     }
 328:Source\mbedtls_open\library/cipher.c **** #endif
 329:Source\mbedtls_open\library/cipher.c **** 
 330:Source\mbedtls_open\library/cipher.c ****     return( 0 );
 331:Source\mbedtls_open\library/cipher.c **** }
 332:Source\mbedtls_open\library/cipher.c **** #endif /* MBEDTLS_GCM_C || MBEDTLS_CHACHAPOLY_C */
 333:Source\mbedtls_open\library/cipher.c **** 
 334:Source\mbedtls_open\library/cipher.c **** int mbedtls_cipher_update( mbedtls_cipher_context_t *ctx, const unsigned char *input,
 335:Source\mbedtls_open\library/cipher.c ****                    size_t ilen, unsigned char *output, size_t *olen )
 336:Source\mbedtls_open\library/cipher.c **** {
 337:Source\mbedtls_open\library/cipher.c ****     int ret;
 338:Source\mbedtls_open\library/cipher.c ****     size_t block_size = 0;
 339:Source\mbedtls_open\library/cipher.c **** 
 340:Source\mbedtls_open\library/cipher.c ****     if( NULL == ctx || NULL == ctx->cipher_info || NULL == olen )
 341:Source\mbedtls_open\library/cipher.c ****     {
 342:Source\mbedtls_open\library/cipher.c ****         return( MBEDTLS_ERR_CIPHER_BAD_INPUT_DATA );
 343:Source\mbedtls_open\library/cipher.c ****     }
 344:Source\mbedtls_open\library/cipher.c **** 
 345:Source\mbedtls_open\library/cipher.c ****     *olen = 0;
 346:Source\mbedtls_open\library/cipher.c ****     block_size = mbedtls_cipher_get_block_size( ctx );
 347:Source\mbedtls_open\library/cipher.c **** 
 348:Source\mbedtls_open\library/cipher.c ****     if( ctx->cipher_info->mode == MBEDTLS_MODE_ECB )
 349:Source\mbedtls_open\library/cipher.c ****     {
 350:Source\mbedtls_open\library/cipher.c ****         if( ilen != block_size )
 351:Source\mbedtls_open\library/cipher.c ****             return( MBEDTLS_ERR_CIPHER_FULL_BLOCK_EXPECTED );
 352:Source\mbedtls_open\library/cipher.c **** 
 353:Source\mbedtls_open\library/cipher.c ****         *olen = ilen;
 354:Source\mbedtls_open\library/cipher.c **** 
 355:Source\mbedtls_open\library/cipher.c ****         if( 0 != ( ret = ctx->cipher_info->base->ecb_func( ctx->cipher_ctx,
 356:Source\mbedtls_open\library/cipher.c ****                     ctx->operation, input, output ) ) )
 357:Source\mbedtls_open\library/cipher.c ****         {
 358:Source\mbedtls_open\library/cipher.c ****             return( ret );
 359:Source\mbedtls_open\library/cipher.c ****         }
 360:Source\mbedtls_open\library/cipher.c **** 
 361:Source\mbedtls_open\library/cipher.c ****         return( 0 );
 362:Source\mbedtls_open\library/cipher.c ****     }
 363:Source\mbedtls_open\library/cipher.c **** 
 364:Source\mbedtls_open\library/cipher.c **** #if defined(MBEDTLS_GCM_C)
 365:Source\mbedtls_open\library/cipher.c ****     if( ctx->cipher_info->mode == MBEDTLS_MODE_GCM )
 366:Source\mbedtls_open\library/cipher.c ****     {
 367:Source\mbedtls_open\library/cipher.c ****         *olen = ilen;
 368:Source\mbedtls_open\library/cipher.c ****         return mbedtls_gcm_update( (mbedtls_gcm_context *) ctx->cipher_ctx, ilen, input,
 369:Source\mbedtls_open\library/cipher.c ****                            output );
 370:Source\mbedtls_open\library/cipher.c ****     }
 371:Source\mbedtls_open\library/cipher.c **** #endif
 372:Source\mbedtls_open\library/cipher.c **** 
 373:Source\mbedtls_open\library/cipher.c **** #if defined(MBEDTLS_CHACHAPOLY_C)
 374:Source\mbedtls_open\library/cipher.c ****     if ( ctx->cipher_info->type == MBEDTLS_CIPHER_CHACHA20_POLY1305 )
 375:Source\mbedtls_open\library/cipher.c ****     {
 376:Source\mbedtls_open\library/cipher.c ****         *olen = ilen;
 377:Source\mbedtls_open\library/cipher.c ****         return mbedtls_chachapoly_update( (mbedtls_chachapoly_context*) ctx->cipher_ctx,
 378:Source\mbedtls_open\library/cipher.c ****                                                       ilen, input, output );
 379:Source\mbedtls_open\library/cipher.c ****     }
 380:Source\mbedtls_open\library/cipher.c **** #endif
 381:Source\mbedtls_open\library/cipher.c **** 
ARM GAS  C:\Users\Phuong\AppData\Local\Temp\ccnzvfGe.s 			page 9


 382:Source\mbedtls_open\library/cipher.c ****     if ( 0 == block_size )
 383:Source\mbedtls_open\library/cipher.c ****     {
 384:Source\mbedtls_open\library/cipher.c ****         return MBEDTLS_ERR_CIPHER_INVALID_CONTEXT;
 385:Source\mbedtls_open\library/cipher.c ****     }
 386:Source\mbedtls_open\library/cipher.c **** 
 387:Source\mbedtls_open\library/cipher.c ****     if( input == output &&
 388:Source\mbedtls_open\library/cipher.c ****        ( ctx->unprocessed_len != 0 || ilen % block_size ) )
 389:Source\mbedtls_open\library/cipher.c ****     {
 390:Source\mbedtls_open\library/cipher.c ****         return( MBEDTLS_ERR_CIPHER_BAD_INPUT_DATA );
 391:Source\mbedtls_open\library/cipher.c ****     }
 392:Source\mbedtls_open\library/cipher.c **** 
 393:Source\mbedtls_open\library/cipher.c **** #if defined(MBEDTLS_CIPHER_MODE_CBC)
 394:Source\mbedtls_open\library/cipher.c ****     if( ctx->cipher_info->mode == MBEDTLS_MODE_CBC )
 395:Source\mbedtls_open\library/cipher.c ****     {
 396:Source\mbedtls_open\library/cipher.c ****         size_t copy_len = 0;
 397:Source\mbedtls_open\library/cipher.c **** 
 398:Source\mbedtls_open\library/cipher.c ****         /*
 399:Source\mbedtls_open\library/cipher.c ****          * If there is not enough data for a full block, cache it.
 400:Source\mbedtls_open\library/cipher.c ****          */
 401:Source\mbedtls_open\library/cipher.c ****         if( ( ctx->operation == MBEDTLS_DECRYPT && NULL != ctx->add_padding &&
 402:Source\mbedtls_open\library/cipher.c ****                 ilen <= block_size - ctx->unprocessed_len ) ||
 403:Source\mbedtls_open\library/cipher.c ****             ( ctx->operation == MBEDTLS_DECRYPT && NULL == ctx->add_padding &&
 404:Source\mbedtls_open\library/cipher.c ****                 ilen < block_size - ctx->unprocessed_len ) ||
 405:Source\mbedtls_open\library/cipher.c ****              ( ctx->operation == MBEDTLS_ENCRYPT &&
 406:Source\mbedtls_open\library/cipher.c ****                 ilen < block_size - ctx->unprocessed_len ) )
 407:Source\mbedtls_open\library/cipher.c ****         {
 408:Source\mbedtls_open\library/cipher.c ****             memcpy( &( ctx->unprocessed_data[ctx->unprocessed_len] ), input,
 409:Source\mbedtls_open\library/cipher.c ****                     ilen );
 410:Source\mbedtls_open\library/cipher.c **** 
 411:Source\mbedtls_open\library/cipher.c ****             ctx->unprocessed_len += ilen;
 412:Source\mbedtls_open\library/cipher.c ****             return( 0 );
 413:Source\mbedtls_open\library/cipher.c ****         }
 414:Source\mbedtls_open\library/cipher.c **** 
 415:Source\mbedtls_open\library/cipher.c ****         /*
 416:Source\mbedtls_open\library/cipher.c ****          * Process cached data first
 417:Source\mbedtls_open\library/cipher.c ****          */
 418:Source\mbedtls_open\library/cipher.c ****         if( 0 != ctx->unprocessed_len )
 419:Source\mbedtls_open\library/cipher.c ****         {
 420:Source\mbedtls_open\library/cipher.c ****             copy_len = block_size - ctx->unprocessed_len;
 421:Source\mbedtls_open\library/cipher.c **** 
 422:Source\mbedtls_open\library/cipher.c ****             memcpy( &( ctx->unprocessed_data[ctx->unprocessed_len] ), input,
 423:Source\mbedtls_open\library/cipher.c ****                     copy_len );
 424:Source\mbedtls_open\library/cipher.c **** 
 425:Source\mbedtls_open\library/cipher.c ****             if( 0 != ( ret = ctx->cipher_info->base->cbc_func( ctx->cipher_ctx,
 426:Source\mbedtls_open\library/cipher.c ****                     ctx->operation, block_size, ctx->iv,
 427:Source\mbedtls_open\library/cipher.c ****                     ctx->unprocessed_data, output ) ) )
 428:Source\mbedtls_open\library/cipher.c ****             {
 429:Source\mbedtls_open\library/cipher.c ****                 return( ret );
 430:Source\mbedtls_open\library/cipher.c ****             }
 431:Source\mbedtls_open\library/cipher.c **** 
 432:Source\mbedtls_open\library/cipher.c ****             *olen += block_size;
 433:Source\mbedtls_open\library/cipher.c ****             output += block_size;
 434:Source\mbedtls_open\library/cipher.c ****             ctx->unprocessed_len = 0;
 435:Source\mbedtls_open\library/cipher.c **** 
 436:Source\mbedtls_open\library/cipher.c ****             input += copy_len;
 437:Source\mbedtls_open\library/cipher.c ****             ilen -= copy_len;
 438:Source\mbedtls_open\library/cipher.c ****         }
ARM GAS  C:\Users\Phuong\AppData\Local\Temp\ccnzvfGe.s 			page 10


 439:Source\mbedtls_open\library/cipher.c **** 
 440:Source\mbedtls_open\library/cipher.c ****         /*
 441:Source\mbedtls_open\library/cipher.c ****          * Cache final, incomplete block
 442:Source\mbedtls_open\library/cipher.c ****          */
 443:Source\mbedtls_open\library/cipher.c ****         if( 0 != ilen )
 444:Source\mbedtls_open\library/cipher.c ****         {
 445:Source\mbedtls_open\library/cipher.c ****             if( 0 == block_size )
 446:Source\mbedtls_open\library/cipher.c ****             {
 447:Source\mbedtls_open\library/cipher.c ****                 return MBEDTLS_ERR_CIPHER_INVALID_CONTEXT;
 448:Source\mbedtls_open\library/cipher.c ****             }
 449:Source\mbedtls_open\library/cipher.c **** 
 450:Source\mbedtls_open\library/cipher.c ****             /* Encryption: only cache partial blocks
 451:Source\mbedtls_open\library/cipher.c ****              * Decryption w/ padding: always keep at least one whole block
 452:Source\mbedtls_open\library/cipher.c ****              * Decryption w/o padding: only cache partial blocks
 453:Source\mbedtls_open\library/cipher.c ****              */
 454:Source\mbedtls_open\library/cipher.c ****             copy_len = ilen % block_size;
 455:Source\mbedtls_open\library/cipher.c ****             if( copy_len == 0 &&
 456:Source\mbedtls_open\library/cipher.c ****                 ctx->operation == MBEDTLS_DECRYPT &&
 457:Source\mbedtls_open\library/cipher.c ****                 NULL != ctx->add_padding)
 458:Source\mbedtls_open\library/cipher.c ****             {
 459:Source\mbedtls_open\library/cipher.c ****                 copy_len = block_size;
 460:Source\mbedtls_open\library/cipher.c ****             }
 461:Source\mbedtls_open\library/cipher.c **** 
 462:Source\mbedtls_open\library/cipher.c ****             memcpy( ctx->unprocessed_data, &( input[ilen - copy_len] ),
 463:Source\mbedtls_open\library/cipher.c ****                     copy_len );
 464:Source\mbedtls_open\library/cipher.c **** 
 465:Source\mbedtls_open\library/cipher.c ****             ctx->unprocessed_len += copy_len;
 466:Source\mbedtls_open\library/cipher.c ****             ilen -= copy_len;
 467:Source\mbedtls_open\library/cipher.c ****         }
 468:Source\mbedtls_open\library/cipher.c **** 
 469:Source\mbedtls_open\library/cipher.c ****         /*
 470:Source\mbedtls_open\library/cipher.c ****          * Process remaining full blocks
 471:Source\mbedtls_open\library/cipher.c ****          */
 472:Source\mbedtls_open\library/cipher.c ****         if( ilen )
 473:Source\mbedtls_open\library/cipher.c ****         {
 474:Source\mbedtls_open\library/cipher.c ****             if( 0 != ( ret = ctx->cipher_info->base->cbc_func( ctx->cipher_ctx,
 475:Source\mbedtls_open\library/cipher.c ****                     ctx->operation, ilen, ctx->iv, input, output ) ) )
 476:Source\mbedtls_open\library/cipher.c ****             {
 477:Source\mbedtls_open\library/cipher.c ****                 return( ret );
 478:Source\mbedtls_open\library/cipher.c ****             }
 479:Source\mbedtls_open\library/cipher.c **** 
 480:Source\mbedtls_open\library/cipher.c ****             *olen += ilen;
 481:Source\mbedtls_open\library/cipher.c ****         }
 482:Source\mbedtls_open\library/cipher.c **** 
 483:Source\mbedtls_open\library/cipher.c ****         return( 0 );
 484:Source\mbedtls_open\library/cipher.c ****     }
 485:Source\mbedtls_open\library/cipher.c **** #endif /* MBEDTLS_CIPHER_MODE_CBC */
 486:Source\mbedtls_open\library/cipher.c **** 
 487:Source\mbedtls_open\library/cipher.c **** #if defined(MBEDTLS_CIPHER_MODE_CFB)
 488:Source\mbedtls_open\library/cipher.c ****     if( ctx->cipher_info->mode == MBEDTLS_MODE_CFB )
 489:Source\mbedtls_open\library/cipher.c ****     {
 490:Source\mbedtls_open\library/cipher.c ****         if( 0 != ( ret = ctx->cipher_info->base->cfb_func( ctx->cipher_ctx,
 491:Source\mbedtls_open\library/cipher.c ****                 ctx->operation, ilen, &ctx->unprocessed_len, ctx->iv,
 492:Source\mbedtls_open\library/cipher.c ****                 input, output ) ) )
 493:Source\mbedtls_open\library/cipher.c ****         {
 494:Source\mbedtls_open\library/cipher.c ****             return( ret );
 495:Source\mbedtls_open\library/cipher.c ****         }
ARM GAS  C:\Users\Phuong\AppData\Local\Temp\ccnzvfGe.s 			page 11


 496:Source\mbedtls_open\library/cipher.c **** 
 497:Source\mbedtls_open\library/cipher.c ****         *olen = ilen;
 498:Source\mbedtls_open\library/cipher.c **** 
 499:Source\mbedtls_open\library/cipher.c ****         return( 0 );
 500:Source\mbedtls_open\library/cipher.c ****     }
 501:Source\mbedtls_open\library/cipher.c **** #endif /* MBEDTLS_CIPHER_MODE_CFB */
 502:Source\mbedtls_open\library/cipher.c **** 
 503:Source\mbedtls_open\library/cipher.c **** #if defined(MBEDTLS_CIPHER_MODE_OFB)
 504:Source\mbedtls_open\library/cipher.c ****     if( ctx->cipher_info->mode == MBEDTLS_MODE_OFB )
 505:Source\mbedtls_open\library/cipher.c ****     {
 506:Source\mbedtls_open\library/cipher.c ****         if( 0 != ( ret = ctx->cipher_info->base->ofb_func( ctx->cipher_ctx,
 507:Source\mbedtls_open\library/cipher.c ****                 ilen, &ctx->unprocessed_len, ctx->iv, input, output ) ) )
 508:Source\mbedtls_open\library/cipher.c ****         {
 509:Source\mbedtls_open\library/cipher.c ****             return( ret );
 510:Source\mbedtls_open\library/cipher.c ****         }
 511:Source\mbedtls_open\library/cipher.c **** 
 512:Source\mbedtls_open\library/cipher.c ****         *olen = ilen;
 513:Source\mbedtls_open\library/cipher.c **** 
 514:Source\mbedtls_open\library/cipher.c ****         return( 0 );
 515:Source\mbedtls_open\library/cipher.c ****     }
 516:Source\mbedtls_open\library/cipher.c **** #endif /* MBEDTLS_CIPHER_MODE_OFB */
 517:Source\mbedtls_open\library/cipher.c **** 
 518:Source\mbedtls_open\library/cipher.c **** #if defined(MBEDTLS_CIPHER_MODE_CTR)
 519:Source\mbedtls_open\library/cipher.c ****     if( ctx->cipher_info->mode == MBEDTLS_MODE_CTR )
 520:Source\mbedtls_open\library/cipher.c ****     {
 521:Source\mbedtls_open\library/cipher.c ****         if( 0 != ( ret = ctx->cipher_info->base->ctr_func( ctx->cipher_ctx,
 522:Source\mbedtls_open\library/cipher.c ****                 ilen, &ctx->unprocessed_len, ctx->iv,
 523:Source\mbedtls_open\library/cipher.c ****                 ctx->unprocessed_data, input, output ) ) )
 524:Source\mbedtls_open\library/cipher.c ****         {
 525:Source\mbedtls_open\library/cipher.c ****             return( ret );
 526:Source\mbedtls_open\library/cipher.c ****         }
 527:Source\mbedtls_open\library/cipher.c **** 
 528:Source\mbedtls_open\library/cipher.c ****         *olen = ilen;
 529:Source\mbedtls_open\library/cipher.c **** 
 530:Source\mbedtls_open\library/cipher.c ****         return( 0 );
 531:Source\mbedtls_open\library/cipher.c ****     }
 532:Source\mbedtls_open\library/cipher.c **** #endif /* MBEDTLS_CIPHER_MODE_CTR */
 533:Source\mbedtls_open\library/cipher.c **** 
 534:Source\mbedtls_open\library/cipher.c **** #if defined(MBEDTLS_CIPHER_MODE_XTS)
 535:Source\mbedtls_open\library/cipher.c ****     if( ctx->cipher_info->mode == MBEDTLS_MODE_XTS )
 536:Source\mbedtls_open\library/cipher.c ****     {
 537:Source\mbedtls_open\library/cipher.c ****         if( ctx->unprocessed_len > 0 ) {
 538:Source\mbedtls_open\library/cipher.c ****             /* We can only process an entire data unit at a time. */
 539:Source\mbedtls_open\library/cipher.c ****             return( MBEDTLS_ERR_CIPHER_FEATURE_UNAVAILABLE );
 540:Source\mbedtls_open\library/cipher.c ****         }
 541:Source\mbedtls_open\library/cipher.c **** 
 542:Source\mbedtls_open\library/cipher.c ****         ret = ctx->cipher_info->base->xts_func( ctx->cipher_ctx,
 543:Source\mbedtls_open\library/cipher.c ****                 ctx->operation, ilen, ctx->iv, input, output );
 544:Source\mbedtls_open\library/cipher.c ****         if( ret != 0 )
 545:Source\mbedtls_open\library/cipher.c ****         {
 546:Source\mbedtls_open\library/cipher.c ****             return( ret );
 547:Source\mbedtls_open\library/cipher.c ****         }
 548:Source\mbedtls_open\library/cipher.c **** 
 549:Source\mbedtls_open\library/cipher.c ****         *olen = ilen;
 550:Source\mbedtls_open\library/cipher.c **** 
 551:Source\mbedtls_open\library/cipher.c ****         return( 0 );
 552:Source\mbedtls_open\library/cipher.c ****     }
ARM GAS  C:\Users\Phuong\AppData\Local\Temp\ccnzvfGe.s 			page 12


 553:Source\mbedtls_open\library/cipher.c **** #endif /* MBEDTLS_CIPHER_MODE_XTS */
 554:Source\mbedtls_open\library/cipher.c **** 
 555:Source\mbedtls_open\library/cipher.c **** #if defined(MBEDTLS_CIPHER_MODE_STREAM)
 556:Source\mbedtls_open\library/cipher.c ****     if( ctx->cipher_info->mode == MBEDTLS_MODE_STREAM )
 557:Source\mbedtls_open\library/cipher.c ****     {
 558:Source\mbedtls_open\library/cipher.c ****         if( 0 != ( ret = ctx->cipher_info->base->stream_func( ctx->cipher_ctx,
 559:Source\mbedtls_open\library/cipher.c ****                                                     ilen, input, output ) ) )
 560:Source\mbedtls_open\library/cipher.c ****         {
 561:Source\mbedtls_open\library/cipher.c ****             return( ret );
 562:Source\mbedtls_open\library/cipher.c ****         }
 563:Source\mbedtls_open\library/cipher.c **** 
 564:Source\mbedtls_open\library/cipher.c ****         *olen = ilen;
 565:Source\mbedtls_open\library/cipher.c **** 
 566:Source\mbedtls_open\library/cipher.c ****         return( 0 );
 567:Source\mbedtls_open\library/cipher.c ****     }
 568:Source\mbedtls_open\library/cipher.c **** #endif /* MBEDTLS_CIPHER_MODE_STREAM */
 569:Source\mbedtls_open\library/cipher.c **** 
 570:Source\mbedtls_open\library/cipher.c ****     return( MBEDTLS_ERR_CIPHER_FEATURE_UNAVAILABLE );
 571:Source\mbedtls_open\library/cipher.c **** }
 572:Source\mbedtls_open\library/cipher.c **** 
 573:Source\mbedtls_open\library/cipher.c **** #if defined(MBEDTLS_CIPHER_MODE_WITH_PADDING)
 574:Source\mbedtls_open\library/cipher.c **** #if defined(MBEDTLS_CIPHER_PADDING_PKCS7)
 575:Source\mbedtls_open\library/cipher.c **** /*
 576:Source\mbedtls_open\library/cipher.c ****  * PKCS7 (and PKCS5) padding: fill with ll bytes, with ll = padding_len
 577:Source\mbedtls_open\library/cipher.c ****  */
 578:Source\mbedtls_open\library/cipher.c **** static void add_pkcs_padding( unsigned char *output, size_t output_len,
 579:Source\mbedtls_open\library/cipher.c ****         size_t data_len )
 580:Source\mbedtls_open\library/cipher.c **** {
  74              		.loc 1 580 0
  75              		.cfi_startproc
  76              		@ args = 0, pretend = 0, frame = 0
  77              		@ frame_needed = 0, uses_anonymous_args = 0
  78              	.LVL7:
  79 0000 10B5     		push	{r4, lr}
  80              		.cfi_def_cfa_offset 8
  81              		.cfi_offset 4, -8
  82              		.cfi_offset 14, -4
 581:Source\mbedtls_open\library/cipher.c ****     size_t padding_len = output_len - data_len;
  83              		.loc 1 581 0
  84 0002 891A     		subs	r1, r1, r2
  85              	.LVL8:
 582:Source\mbedtls_open\library/cipher.c ****     unsigned char i;
 583:Source\mbedtls_open\library/cipher.c **** 
 584:Source\mbedtls_open\library/cipher.c ****     for( i = 0; i < padding_len; i++ )
  86              		.loc 1 584 0
  87 0004 0023     		movs	r3, #0
  88 0006 03E0     		b	.L5
  89              	.LVL9:
  90              	.L6:
 585:Source\mbedtls_open\library/cipher.c ****         output[data_len + i] = (unsigned char) padding_len;
  91              		.loc 1 585 0 discriminator 3
  92 0008 D418     		adds	r4, r2, r3
  93 000a 0155     		strb	r1, [r0, r4]
 584:Source\mbedtls_open\library/cipher.c ****         output[data_len + i] = (unsigned char) padding_len;
  94              		.loc 1 584 0 discriminator 3
  95 000c 0133     		adds	r3, r3, #1
  96              	.LVL10:
ARM GAS  C:\Users\Phuong\AppData\Local\Temp\ccnzvfGe.s 			page 13


  97 000e DBB2     		uxtb	r3, r3
  98              	.LVL11:
  99              	.L5:
 584:Source\mbedtls_open\library/cipher.c ****         output[data_len + i] = (unsigned char) padding_len;
 100              		.loc 1 584 0 is_stmt 0 discriminator 1
 101 0010 9942     		cmp	r1, r3
 102 0012 F9D8     		bhi	.L6
 586:Source\mbedtls_open\library/cipher.c **** }
 103              		.loc 1 586 0 is_stmt 1
 104              		@ sp needed
 105 0014 10BD     		pop	{r4, pc}
 106              		.cfi_endproc
 107              	.LFE21:
 108              		.size	add_pkcs_padding, .-add_pkcs_padding
 109 0016 C046     		.section	.text.get_pkcs_padding,"ax",%progbits
 110              		.align	2
 111              		.code	16
 112              		.thumb_func
 113              		.type	get_pkcs_padding, %function
 114              	get_pkcs_padding:
 115              	.LFB22:
 587:Source\mbedtls_open\library/cipher.c **** 
 588:Source\mbedtls_open\library/cipher.c **** static int get_pkcs_padding( unsigned char *input, size_t input_len,
 589:Source\mbedtls_open\library/cipher.c ****         size_t *data_len )
 590:Source\mbedtls_open\library/cipher.c **** {
 116              		.loc 1 590 0
 117              		.cfi_startproc
 118              		@ args = 0, pretend = 0, frame = 0
 119              		@ frame_needed = 0, uses_anonymous_args = 0
 120              	.LVL12:
 121 0000 F0B5     		push	{r4, r5, r6, r7, lr}
 122              		.cfi_def_cfa_offset 20
 123              		.cfi_offset 4, -20
 124              		.cfi_offset 5, -16
 125              		.cfi_offset 6, -12
 126              		.cfi_offset 7, -8
 127              		.cfi_offset 14, -4
 128              	.LVL13:
 591:Source\mbedtls_open\library/cipher.c ****     size_t i, pad_idx;
 592:Source\mbedtls_open\library/cipher.c ****     unsigned char padding_len, bad = 0;
 593:Source\mbedtls_open\library/cipher.c **** 
 594:Source\mbedtls_open\library/cipher.c ****     if( NULL == input || NULL == data_len )
 129              		.loc 1 594 0
 130 0002 0028     		cmp	r0, #0
 131 0004 1DD0     		beq	.L11
 132              		.loc 1 594 0 is_stmt 0 discriminator 1
 133 0006 002A     		cmp	r2, #0
 134 0008 1DD0     		beq	.L12
 595:Source\mbedtls_open\library/cipher.c ****         return( MBEDTLS_ERR_CIPHER_BAD_INPUT_DATA );
 596:Source\mbedtls_open\library/cipher.c **** 
 597:Source\mbedtls_open\library/cipher.c ****     padding_len = input[input_len - 1];
 135              		.loc 1 597 0 is_stmt 1
 136 000a 4B1E     		subs	r3, r1, #1
 137 000c C65C     		ldrb	r6, [r0, r3]
 138              	.LVL14:
 598:Source\mbedtls_open\library/cipher.c ****     *data_len = input_len - padding_len;
 139              		.loc 1 598 0
ARM GAS  C:\Users\Phuong\AppData\Local\Temp\ccnzvfGe.s 			page 14


 140 000e 8F1B     		subs	r7, r1, r6
 141 0010 1760     		str	r7, [r2]
 599:Source\mbedtls_open\library/cipher.c **** 
 600:Source\mbedtls_open\library/cipher.c ****     /* Avoid logical || since it results in a branch */
 601:Source\mbedtls_open\library/cipher.c ****     bad |= padding_len > input_len;
 142              		.loc 1 601 0
 143 0012 B142     		cmp	r1, r6
 144 0014 AD41     		sbcs	r5, r5, r5
 145 0016 6B42     		rsbs	r3, r5, #0
 146              	.LVL15:
 602:Source\mbedtls_open\library/cipher.c ****     bad |= padding_len == 0;
 147              		.loc 1 602 0
 148 0018 7542     		rsbs	r5, r6, #0
 149 001a 7541     		adcs	r5, r5, r6
 150              	.LVL16:
 151 001c 1D43     		orrs	r5, r3
 152              	.LVL17:
 603:Source\mbedtls_open\library/cipher.c **** 
 604:Source\mbedtls_open\library/cipher.c ****     /* The number of bytes checked must be independent of padding_len,
 605:Source\mbedtls_open\library/cipher.c ****      * so pick input_len, which is usually 8 or 16 (one block) */
 606:Source\mbedtls_open\library/cipher.c ****     pad_idx = input_len - padding_len;
 607:Source\mbedtls_open\library/cipher.c ****     for( i = 0; i < input_len; i++ )
 153              		.loc 1 607 0
 154 001e 0024     		movs	r4, #0
 155 0020 09E0     		b	.L9
 156              	.LVL18:
 157              	.L10:
 608:Source\mbedtls_open\library/cipher.c ****         bad |= ( input[i] ^ padding_len ) * ( i >= pad_idx );
 158              		.loc 1 608 0 discriminator 3
 159 0022 025D     		ldrb	r2, [r0, r4]
 160 0024 0023     		movs	r3, #0
 161 0026 BC42     		cmp	r4, r7
 162 0028 5B41     		adcs	r3, r3, r3
 163 002a DBB2     		uxtb	r3, r3
 164 002c 7240     		eors	r2, r6
 165 002e 5343     		muls	r3, r2
 166 0030 2B43     		orrs	r3, r5
 167 0032 DDB2     		uxtb	r5, r3
 168              	.LVL19:
 607:Source\mbedtls_open\library/cipher.c ****         bad |= ( input[i] ^ padding_len ) * ( i >= pad_idx );
 169              		.loc 1 607 0 discriminator 3
 170 0034 0134     		adds	r4, r4, #1
 171              	.LVL20:
 172              	.L9:
 607:Source\mbedtls_open\library/cipher.c ****         bad |= ( input[i] ^ padding_len ) * ( i >= pad_idx );
 173              		.loc 1 607 0 is_stmt 0 discriminator 1
 174 0036 8C42     		cmp	r4, r1
 175 0038 F3D3     		bcc	.L10
 609:Source\mbedtls_open\library/cipher.c **** 
 610:Source\mbedtls_open\library/cipher.c ****     return( MBEDTLS_ERR_CIPHER_INVALID_PADDING * ( bad != 0 ) );
 176              		.loc 1 610 0 is_stmt 1
 177 003a 002D     		cmp	r5, #0
 178 003c 05D0     		beq	.L13
 179 003e 0448     		ldr	r0, .L14
 180              	.LVL21:
 181 0040 04E0     		b	.L8
 182              	.LVL22:
ARM GAS  C:\Users\Phuong\AppData\Local\Temp\ccnzvfGe.s 			page 15


 183              	.L11:
 595:Source\mbedtls_open\library/cipher.c **** 
 184              		.loc 1 595 0
 185 0042 0448     		ldr	r0, .L14+4
 186              	.LVL23:
 187 0044 02E0     		b	.L8
 188              	.LVL24:
 189              	.L12:
 190 0046 0348     		ldr	r0, .L14+4
 191              	.LVL25:
 192 0048 00E0     		b	.L8
 193              	.LVL26:
 194              	.L13:
 195              		.loc 1 610 0
 196 004a 0020     		movs	r0, #0
 197              	.LVL27:
 198              	.L8:
 611:Source\mbedtls_open\library/cipher.c **** }
 199              		.loc 1 611 0
 200              		@ sp needed
 201 004c F0BD     		pop	{r4, r5, r6, r7, pc}
 202              	.L15:
 203 004e C046     		.align	2
 204              	.L14:
 205 0050 009EFFFF 		.word	-25088
 206 0054 009FFFFF 		.word	-24832
 207              		.cfi_endproc
 208              	.LFE22:
 209              		.size	get_pkcs_padding, .-get_pkcs_padding
 210              		.section	.text.add_one_and_zeros_padding,"ax",%progbits
 211              		.align	2
 212              		.code	16
 213              		.thumb_func
 214              		.type	add_one_and_zeros_padding, %function
 215              	add_one_and_zeros_padding:
 216              	.LFB23:
 612:Source\mbedtls_open\library/cipher.c **** #endif /* MBEDTLS_CIPHER_PADDING_PKCS7 */
 613:Source\mbedtls_open\library/cipher.c **** 
 614:Source\mbedtls_open\library/cipher.c **** #if defined(MBEDTLS_CIPHER_PADDING_ONE_AND_ZEROS)
 615:Source\mbedtls_open\library/cipher.c **** /*
 616:Source\mbedtls_open\library/cipher.c ****  * One and zeros padding: fill with 80 00 ... 00
 617:Source\mbedtls_open\library/cipher.c ****  */
 618:Source\mbedtls_open\library/cipher.c **** static void add_one_and_zeros_padding( unsigned char *output,
 619:Source\mbedtls_open\library/cipher.c ****                                        size_t output_len, size_t data_len )
 620:Source\mbedtls_open\library/cipher.c **** {
 217              		.loc 1 620 0
 218              		.cfi_startproc
 219              		@ args = 0, pretend = 0, frame = 0
 220              		@ frame_needed = 0, uses_anonymous_args = 0
 221              	.LVL28:
 222 0000 30B5     		push	{r4, r5, lr}
 223              		.cfi_def_cfa_offset 12
 224              		.cfi_offset 4, -12
 225              		.cfi_offset 5, -8
 226              		.cfi_offset 14, -4
 621:Source\mbedtls_open\library/cipher.c ****     size_t padding_len = output_len - data_len;
 227              		.loc 1 621 0
ARM GAS  C:\Users\Phuong\AppData\Local\Temp\ccnzvfGe.s 			page 16


 228 0002 891A     		subs	r1, r1, r2
 229              	.LVL29:
 622:Source\mbedtls_open\library/cipher.c ****     unsigned char i = 0;
 623:Source\mbedtls_open\library/cipher.c **** 
 624:Source\mbedtls_open\library/cipher.c ****     output[data_len] = 0x80;
 230              		.loc 1 624 0
 231 0004 8023     		movs	r3, #128
 232 0006 8354     		strb	r3, [r0, r2]
 233              	.LVL30:
 625:Source\mbedtls_open\library/cipher.c ****     for( i = 1; i < padding_len; i++ )
 234              		.loc 1 625 0
 235 0008 7F3B     		subs	r3, r3, #127
 236 000a 05E0     		b	.L17
 237              	.LVL31:
 238              	.L18:
 626:Source\mbedtls_open\library/cipher.c ****         output[data_len + i] = 0x00;
 239              		.loc 1 626 0 discriminator 3
 240 000c D418     		adds	r4, r2, r3
 241 000e 0419     		adds	r4, r0, r4
 242 0010 0025     		movs	r5, #0
 243 0012 2570     		strb	r5, [r4]
 625:Source\mbedtls_open\library/cipher.c ****     for( i = 1; i < padding_len; i++ )
 244              		.loc 1 625 0 discriminator 3
 245 0014 0133     		adds	r3, r3, #1
 246              	.LVL32:
 247 0016 DBB2     		uxtb	r3, r3
 248              	.LVL33:
 249              	.L17:
 625:Source\mbedtls_open\library/cipher.c ****     for( i = 1; i < padding_len; i++ )
 250              		.loc 1 625 0 is_stmt 0 discriminator 1
 251 0018 9942     		cmp	r1, r3
 252 001a F7D8     		bhi	.L18
 627:Source\mbedtls_open\library/cipher.c **** }
 253              		.loc 1 627 0 is_stmt 1
 254              		@ sp needed
 255 001c 30BD     		pop	{r4, r5, pc}
 256              		.cfi_endproc
 257              	.LFE23:
 258              		.size	add_one_and_zeros_padding, .-add_one_and_zeros_padding
 259 001e C046     		.section	.text.get_one_and_zeros_padding,"ax",%progbits
 260              		.align	2
 261              		.code	16
 262              		.thumb_func
 263              		.type	get_one_and_zeros_padding, %function
 264              	get_one_and_zeros_padding:
 265              	.LFB24:
 628:Source\mbedtls_open\library/cipher.c **** 
 629:Source\mbedtls_open\library/cipher.c **** static int get_one_and_zeros_padding( unsigned char *input, size_t input_len,
 630:Source\mbedtls_open\library/cipher.c ****                                       size_t *data_len )
 631:Source\mbedtls_open\library/cipher.c **** {
 266              		.loc 1 631 0
 267              		.cfi_startproc
 268              		@ args = 0, pretend = 0, frame = 0
 269              		@ frame_needed = 0, uses_anonymous_args = 0
 270              	.LVL34:
 271 0000 F0B5     		push	{r4, r5, r6, r7, lr}
 272              		.cfi_def_cfa_offset 20
ARM GAS  C:\Users\Phuong\AppData\Local\Temp\ccnzvfGe.s 			page 17


 273              		.cfi_offset 4, -20
 274              		.cfi_offset 5, -16
 275              		.cfi_offset 6, -12
 276              		.cfi_offset 7, -8
 277              		.cfi_offset 14, -4
 278 0002 8446     		mov	ip, r0
 279              	.LVL35:
 632:Source\mbedtls_open\library/cipher.c ****     size_t i;
 633:Source\mbedtls_open\library/cipher.c ****     unsigned char done = 0, prev_done, bad;
 634:Source\mbedtls_open\library/cipher.c **** 
 635:Source\mbedtls_open\library/cipher.c ****     if( NULL == input || NULL == data_len )
 280              		.loc 1 635 0
 281 0004 0028     		cmp	r0, #0
 282 0006 20D0     		beq	.L23
 283              		.loc 1 635 0 is_stmt 0 discriminator 1
 284 0008 002A     		cmp	r2, #0
 285 000a 20D0     		beq	.L24
 286              	.LVL36:
 636:Source\mbedtls_open\library/cipher.c ****         return( MBEDTLS_ERR_CIPHER_BAD_INPUT_DATA );
 637:Source\mbedtls_open\library/cipher.c **** 
 638:Source\mbedtls_open\library/cipher.c ****     bad = 0x80;
 639:Source\mbedtls_open\library/cipher.c ****     *data_len = 0;
 287              		.loc 1 639 0 is_stmt 1
 288 000c 0023     		movs	r3, #0
 289 000e 1360     		str	r3, [r2]
 290              	.LVL37:
 638:Source\mbedtls_open\library/cipher.c ****     *data_len = 0;
 291              		.loc 1 638 0
 292 0010 8026     		movs	r6, #128
 640:Source\mbedtls_open\library/cipher.c ****     for( i = input_len; i > 0; i-- )
 293              		.loc 1 640 0
 294 0012 14E0     		b	.L21
 295              	.LVL38:
 296              	.L22:
 641:Source\mbedtls_open\library/cipher.c ****     {
 642:Source\mbedtls_open\library/cipher.c ****         prev_done = done;
 643:Source\mbedtls_open\library/cipher.c ****         done |= ( input[i - 1] != 0 );
 297              		.loc 1 643 0 discriminator 3
 298 0014 0139     		subs	r1, r1, #1
 299              	.LVL39:
 300 0016 6046     		mov	r0, ip
 301 0018 4718     		adds	r7, r0, r1
 302 001a 3C78     		ldrb	r4, [r7]
 303 001c 651E     		subs	r5, r4, #1
 304 001e AC41     		sbcs	r4, r4, r5
 305 0020 1C43     		orrs	r4, r3
 306              	.LVL40:
 644:Source\mbedtls_open\library/cipher.c ****         *data_len |= ( i - 1 ) * ( done != prev_done );
 307              		.loc 1 644 0 discriminator 3
 308 0022 1B1B     		subs	r3, r3, r4
 309              	.LVL41:
 310 0024 5D1E     		subs	r5, r3, #1
 311 0026 AB41     		sbcs	r3, r3, r5
 312 0028 DBB2     		uxtb	r3, r3
 313 002a 1D00     		movs	r5, r3
 314 002c 4D43     		muls	r5, r1
 315 002e 1068     		ldr	r0, [r2]
ARM GAS  C:\Users\Phuong\AppData\Local\Temp\ccnzvfGe.s 			page 18


 316 0030 0543     		orrs	r5, r0
 317 0032 1560     		str	r5, [r2]
 645:Source\mbedtls_open\library/cipher.c ****         bad ^= input[i - 1] * ( done != prev_done );
 318              		.loc 1 645 0 discriminator 3
 319 0034 3D78     		ldrb	r5, [r7]
 320 0036 6B43     		muls	r3, r5
 321 0038 7340     		eors	r3, r6
 322 003a DEB2     		uxtb	r6, r3
 323              	.LVL42:
 643:Source\mbedtls_open\library/cipher.c ****         *data_len |= ( i - 1 ) * ( done != prev_done );
 324              		.loc 1 643 0 discriminator 3
 325 003c 2300     		movs	r3, r4
 326              	.LVL43:
 327              	.L21:
 640:Source\mbedtls_open\library/cipher.c ****     {
 328              		.loc 1 640 0 discriminator 1
 329 003e 0029     		cmp	r1, #0
 330 0040 E8D1     		bne	.L22
 646:Source\mbedtls_open\library/cipher.c ****     }
 647:Source\mbedtls_open\library/cipher.c **** 
 648:Source\mbedtls_open\library/cipher.c ****     return( MBEDTLS_ERR_CIPHER_INVALID_PADDING * ( bad != 0 ) );
 331              		.loc 1 648 0
 332 0042 002E     		cmp	r6, #0
 333 0044 05D0     		beq	.L25
 334 0046 0448     		ldr	r0, .L26
 335 0048 04E0     		b	.L20
 336              	.LVL44:
 337              	.L23:
 636:Source\mbedtls_open\library/cipher.c **** 
 338              		.loc 1 636 0
 339 004a 0448     		ldr	r0, .L26+4
 340              	.LVL45:
 341 004c 02E0     		b	.L20
 342              	.LVL46:
 343              	.L24:
 344 004e 0348     		ldr	r0, .L26+4
 345              	.LVL47:
 346 0050 00E0     		b	.L20
 347              	.LVL48:
 348              	.L25:
 349              		.loc 1 648 0
 350 0052 0020     		movs	r0, #0
 351              	.LVL49:
 352              	.L20:
 649:Source\mbedtls_open\library/cipher.c **** 
 650:Source\mbedtls_open\library/cipher.c **** }
 353              		.loc 1 650 0
 354              		@ sp needed
 355 0054 F0BD     		pop	{r4, r5, r6, r7, pc}
 356              	.L27:
 357 0056 C046     		.align	2
 358              	.L26:
 359 0058 009EFFFF 		.word	-25088
 360 005c 009FFFFF 		.word	-24832
 361              		.cfi_endproc
 362              	.LFE24:
 363              		.size	get_one_and_zeros_padding, .-get_one_and_zeros_padding
ARM GAS  C:\Users\Phuong\AppData\Local\Temp\ccnzvfGe.s 			page 19


 364              		.section	.text.add_zeros_and_len_padding,"ax",%progbits
 365              		.align	2
 366              		.code	16
 367              		.thumb_func
 368              		.type	add_zeros_and_len_padding, %function
 369              	add_zeros_and_len_padding:
 370              	.LFB25:
 651:Source\mbedtls_open\library/cipher.c **** #endif /* MBEDTLS_CIPHER_PADDING_ONE_AND_ZEROS */
 652:Source\mbedtls_open\library/cipher.c **** 
 653:Source\mbedtls_open\library/cipher.c **** #if defined(MBEDTLS_CIPHER_PADDING_ZEROS_AND_LEN)
 654:Source\mbedtls_open\library/cipher.c **** /*
 655:Source\mbedtls_open\library/cipher.c ****  * Zeros and len padding: fill with 00 ... 00 ll, where ll is padding length
 656:Source\mbedtls_open\library/cipher.c ****  */
 657:Source\mbedtls_open\library/cipher.c **** static void add_zeros_and_len_padding( unsigned char *output,
 658:Source\mbedtls_open\library/cipher.c ****                                        size_t output_len, size_t data_len )
 659:Source\mbedtls_open\library/cipher.c **** {
 371              		.loc 1 659 0
 372              		.cfi_startproc
 373              		@ args = 0, pretend = 0, frame = 0
 374              		@ frame_needed = 0, uses_anonymous_args = 0
 375              	.LVL50:
 376 0000 70B5     		push	{r4, r5, r6, lr}
 377              		.cfi_def_cfa_offset 16
 378              		.cfi_offset 4, -16
 379              		.cfi_offset 5, -12
 380              		.cfi_offset 6, -8
 381              		.cfi_offset 14, -4
 660:Source\mbedtls_open\library/cipher.c ****     size_t padding_len = output_len - data_len;
 382              		.loc 1 660 0
 383 0002 8E1A     		subs	r6, r1, r2
 384              	.LVL51:
 661:Source\mbedtls_open\library/cipher.c ****     unsigned char i = 0;
 662:Source\mbedtls_open\library/cipher.c **** 
 663:Source\mbedtls_open\library/cipher.c ****     for( i = 1; i < padding_len; i++ )
 385              		.loc 1 663 0
 386 0004 0123     		movs	r3, #1
 387 0006 06E0     		b	.L29
 388              	.LVL52:
 389              	.L30:
 664:Source\mbedtls_open\library/cipher.c ****         output[data_len + i - 1] = 0x00;
 390              		.loc 1 664 0 discriminator 3
 391 0008 D418     		adds	r4, r2, r3
 392 000a 013C     		subs	r4, r4, #1
 393 000c 0419     		adds	r4, r0, r4
 394 000e 0025     		movs	r5, #0
 395 0010 2570     		strb	r5, [r4]
 663:Source\mbedtls_open\library/cipher.c ****         output[data_len + i - 1] = 0x00;
 396              		.loc 1 663 0 discriminator 3
 397 0012 0133     		adds	r3, r3, #1
 398              	.LVL53:
 399 0014 DBB2     		uxtb	r3, r3
 400              	.LVL54:
 401              	.L29:
 663:Source\mbedtls_open\library/cipher.c ****         output[data_len + i - 1] = 0x00;
 402              		.loc 1 663 0 is_stmt 0 discriminator 1
 403 0016 9E42     		cmp	r6, r3
 404 0018 F6D8     		bhi	.L30
ARM GAS  C:\Users\Phuong\AppData\Local\Temp\ccnzvfGe.s 			page 20


 665:Source\mbedtls_open\library/cipher.c ****     output[output_len - 1] = (unsigned char) padding_len;
 405              		.loc 1 665 0 is_stmt 1
 406 001a 0139     		subs	r1, r1, #1
 407              	.LVL55:
 408 001c 4654     		strb	r6, [r0, r1]
 666:Source\mbedtls_open\library/cipher.c **** }
 409              		.loc 1 666 0
 410              		@ sp needed
 411              	.LVL56:
 412 001e 70BD     		pop	{r4, r5, r6, pc}
 413              		.cfi_endproc
 414              	.LFE25:
 415              		.size	add_zeros_and_len_padding, .-add_zeros_and_len_padding
 416              		.section	.text.get_zeros_and_len_padding,"ax",%progbits
 417              		.align	2
 418              		.code	16
 419              		.thumb_func
 420              		.type	get_zeros_and_len_padding, %function
 421              	get_zeros_and_len_padding:
 422              	.LFB26:
 667:Source\mbedtls_open\library/cipher.c **** 
 668:Source\mbedtls_open\library/cipher.c **** static int get_zeros_and_len_padding( unsigned char *input, size_t input_len,
 669:Source\mbedtls_open\library/cipher.c ****                                       size_t *data_len )
 670:Source\mbedtls_open\library/cipher.c **** {
 423              		.loc 1 670 0
 424              		.cfi_startproc
 425              		@ args = 0, pretend = 0, frame = 0
 426              		@ frame_needed = 0, uses_anonymous_args = 0
 427              	.LVL57:
 428 0000 70B5     		push	{r4, r5, r6, lr}
 429              		.cfi_def_cfa_offset 16
 430              		.cfi_offset 4, -16
 431              		.cfi_offset 5, -12
 432              		.cfi_offset 6, -8
 433              		.cfi_offset 14, -4
 434              	.LVL58:
 671:Source\mbedtls_open\library/cipher.c ****     size_t i, pad_idx;
 672:Source\mbedtls_open\library/cipher.c ****     unsigned char padding_len, bad = 0;
 673:Source\mbedtls_open\library/cipher.c **** 
 674:Source\mbedtls_open\library/cipher.c ****     if( NULL == input || NULL == data_len )
 435              		.loc 1 674 0
 436 0002 0028     		cmp	r0, #0
 437 0004 1CD0     		beq	.L35
 438              		.loc 1 674 0 is_stmt 0 discriminator 1
 439 0006 002A     		cmp	r2, #0
 440 0008 1CD0     		beq	.L36
 675:Source\mbedtls_open\library/cipher.c ****         return( MBEDTLS_ERR_CIPHER_BAD_INPUT_DATA );
 676:Source\mbedtls_open\library/cipher.c **** 
 677:Source\mbedtls_open\library/cipher.c ****     padding_len = input[input_len - 1];
 441              		.loc 1 677 0 is_stmt 1
 442 000a 4C1E     		subs	r4, r1, #1
 443 000c 065D     		ldrb	r6, [r0, r4]
 444              	.LVL59:
 678:Source\mbedtls_open\library/cipher.c ****     *data_len = input_len - padding_len;
 445              		.loc 1 678 0
 446 000e 8D1B     		subs	r5, r1, r6
 447 0010 1560     		str	r5, [r2]
ARM GAS  C:\Users\Phuong\AppData\Local\Temp\ccnzvfGe.s 			page 21


 679:Source\mbedtls_open\library/cipher.c **** 
 680:Source\mbedtls_open\library/cipher.c ****     /* Avoid logical || since it results in a branch */
 681:Source\mbedtls_open\library/cipher.c ****     bad |= padding_len > input_len;
 448              		.loc 1 681 0
 449 0012 B142     		cmp	r1, r6
 450 0014 8941     		sbcs	r1, r1, r1
 451              	.LVL60:
 452 0016 4B42     		rsbs	r3, r1, #0
 453              	.LVL61:
 682:Source\mbedtls_open\library/cipher.c ****     bad |= padding_len == 0;
 454              		.loc 1 682 0
 455 0018 7142     		rsbs	r1, r6, #0
 456 001a 7141     		adcs	r1, r1, r6
 457              	.LVL62:
 458 001c 1943     		orrs	r1, r3
 459              	.LVL63:
 683:Source\mbedtls_open\library/cipher.c **** 
 684:Source\mbedtls_open\library/cipher.c ****     /* The number of bytes checked must be independent of padding_len */
 685:Source\mbedtls_open\library/cipher.c ****     pad_idx = input_len - padding_len;
 686:Source\mbedtls_open\library/cipher.c ****     for( i = 0; i < input_len - 1; i++ )
 460              		.loc 1 686 0
 461 001e 0022     		movs	r2, #0
 462              	.LVL64:
 463 0020 08E0     		b	.L33
 464              	.LVL65:
 465              	.L34:
 687:Source\mbedtls_open\library/cipher.c ****         bad |= input[i] * ( i >= pad_idx );
 466              		.loc 1 687 0 discriminator 3
 467 0022 0023     		movs	r3, #0
 468 0024 AA42     		cmp	r2, r5
 469 0026 5B41     		adcs	r3, r3, r3
 470 0028 DBB2     		uxtb	r3, r3
 471 002a 865C     		ldrb	r6, [r0, r2]
 472 002c 7343     		muls	r3, r6
 473 002e 1943     		orrs	r1, r3
 474              	.LVL66:
 475 0030 C9B2     		uxtb	r1, r1
 476              	.LVL67:
 686:Source\mbedtls_open\library/cipher.c ****         bad |= input[i] * ( i >= pad_idx );
 477              		.loc 1 686 0 discriminator 3
 478 0032 0132     		adds	r2, r2, #1
 479              	.LVL68:
 480              	.L33:
 686:Source\mbedtls_open\library/cipher.c ****         bad |= input[i] * ( i >= pad_idx );
 481              		.loc 1 686 0 is_stmt 0 discriminator 1
 482 0034 A242     		cmp	r2, r4
 483 0036 F4D3     		bcc	.L34
 688:Source\mbedtls_open\library/cipher.c **** 
 689:Source\mbedtls_open\library/cipher.c ****     return( MBEDTLS_ERR_CIPHER_INVALID_PADDING * ( bad != 0 ) );
 484              		.loc 1 689 0 is_stmt 1
 485 0038 0029     		cmp	r1, #0
 486 003a 05D0     		beq	.L37
 487 003c 0348     		ldr	r0, .L38
 488              	.LVL69:
 489 003e 04E0     		b	.L32
 490              	.LVL70:
 491              	.L35:
ARM GAS  C:\Users\Phuong\AppData\Local\Temp\ccnzvfGe.s 			page 22


 675:Source\mbedtls_open\library/cipher.c **** 
 492              		.loc 1 675 0
 493 0040 0348     		ldr	r0, .L38+4
 494              	.LVL71:
 495 0042 02E0     		b	.L32
 496              	.LVL72:
 497              	.L36:
 498 0044 0248     		ldr	r0, .L38+4
 499              	.LVL73:
 500 0046 00E0     		b	.L32
 501              	.LVL74:
 502              	.L37:
 503              		.loc 1 689 0
 504 0048 0020     		movs	r0, #0
 505              	.LVL75:
 506              	.L32:
 690:Source\mbedtls_open\library/cipher.c **** }
 507              		.loc 1 690 0
 508              		@ sp needed
 509 004a 70BD     		pop	{r4, r5, r6, pc}
 510              	.L39:
 511              		.align	2
 512              	.L38:
 513 004c 009EFFFF 		.word	-25088
 514 0050 009FFFFF 		.word	-24832
 515              		.cfi_endproc
 516              	.LFE26:
 517              		.size	get_zeros_and_len_padding, .-get_zeros_and_len_padding
 518              		.section	.text.add_zeros_padding,"ax",%progbits
 519              		.align	2
 520              		.code	16
 521              		.thumb_func
 522              		.type	add_zeros_padding, %function
 523              	add_zeros_padding:
 524              	.LFB27:
 691:Source\mbedtls_open\library/cipher.c **** #endif /* MBEDTLS_CIPHER_PADDING_ZEROS_AND_LEN */
 692:Source\mbedtls_open\library/cipher.c **** 
 693:Source\mbedtls_open\library/cipher.c **** #if defined(MBEDTLS_CIPHER_PADDING_ZEROS)
 694:Source\mbedtls_open\library/cipher.c **** /*
 695:Source\mbedtls_open\library/cipher.c ****  * Zero padding: fill with 00 ... 00
 696:Source\mbedtls_open\library/cipher.c ****  */
 697:Source\mbedtls_open\library/cipher.c **** static void add_zeros_padding( unsigned char *output,
 698:Source\mbedtls_open\library/cipher.c ****                                size_t output_len, size_t data_len )
 699:Source\mbedtls_open\library/cipher.c **** {
 525              		.loc 1 699 0
 526              		.cfi_startproc
 527              		@ args = 0, pretend = 0, frame = 0
 528              		@ frame_needed = 0, uses_anonymous_args = 0
 529              	.LVL76:
 530 0000 10B5     		push	{r4, lr}
 531              		.cfi_def_cfa_offset 8
 532              		.cfi_offset 4, -8
 533              		.cfi_offset 14, -4
 534              	.LVL77:
 700:Source\mbedtls_open\library/cipher.c ****     size_t i;
 701:Source\mbedtls_open\library/cipher.c **** 
 702:Source\mbedtls_open\library/cipher.c ****     for( i = data_len; i < output_len; i++ )
ARM GAS  C:\Users\Phuong\AppData\Local\Temp\ccnzvfGe.s 			page 23


 535              		.loc 1 702 0
 536 0002 03E0     		b	.L41
 537              	.LVL78:
 538              	.L42:
 703:Source\mbedtls_open\library/cipher.c ****         output[i] = 0x00;
 539              		.loc 1 703 0 discriminator 3
 540 0004 8318     		adds	r3, r0, r2
 541 0006 0024     		movs	r4, #0
 542 0008 1C70     		strb	r4, [r3]
 702:Source\mbedtls_open\library/cipher.c ****         output[i] = 0x00;
 543              		.loc 1 702 0 discriminator 3
 544 000a 0132     		adds	r2, r2, #1
 545              	.LVL79:
 546              	.L41:
 702:Source\mbedtls_open\library/cipher.c ****         output[i] = 0x00;
 547              		.loc 1 702 0 is_stmt 0 discriminator 1
 548 000c 8A42     		cmp	r2, r1
 549 000e F9D3     		bcc	.L42
 704:Source\mbedtls_open\library/cipher.c **** }
 550              		.loc 1 704 0 is_stmt 1
 551              		@ sp needed
 552 0010 10BD     		pop	{r4, pc}
 553              		.cfi_endproc
 554              	.LFE27:
 555              		.size	add_zeros_padding, .-add_zeros_padding
 556 0012 C046     		.section	.text.get_zeros_padding,"ax",%progbits
 557              		.align	2
 558              		.code	16
 559              		.thumb_func
 560              		.type	get_zeros_padding, %function
 561              	get_zeros_padding:
 562              	.LFB28:
 705:Source\mbedtls_open\library/cipher.c **** 
 706:Source\mbedtls_open\library/cipher.c **** static int get_zeros_padding( unsigned char *input, size_t input_len,
 707:Source\mbedtls_open\library/cipher.c ****                               size_t *data_len )
 708:Source\mbedtls_open\library/cipher.c **** {
 563              		.loc 1 708 0
 564              		.cfi_startproc
 565              		@ args = 0, pretend = 0, frame = 0
 566              		@ frame_needed = 0, uses_anonymous_args = 0
 567              	.LVL80:
 568 0000 70B5     		push	{r4, r5, r6, lr}
 569              		.cfi_def_cfa_offset 16
 570              		.cfi_offset 4, -16
 571              		.cfi_offset 5, -12
 572              		.cfi_offset 6, -8
 573              		.cfi_offset 14, -4
 574              	.LVL81:
 709:Source\mbedtls_open\library/cipher.c ****     size_t i;
 710:Source\mbedtls_open\library/cipher.c ****     unsigned char done = 0, prev_done;
 711:Source\mbedtls_open\library/cipher.c **** 
 712:Source\mbedtls_open\library/cipher.c ****     if( NULL == input || NULL == data_len )
 575              		.loc 1 712 0
 576 0002 0028     		cmp	r0, #0
 577 0004 16D0     		beq	.L47
 578              		.loc 1 712 0 is_stmt 0 discriminator 1
 579 0006 002A     		cmp	r2, #0
ARM GAS  C:\Users\Phuong\AppData\Local\Temp\ccnzvfGe.s 			page 24


 580 0008 16D0     		beq	.L48
 713:Source\mbedtls_open\library/cipher.c ****         return( MBEDTLS_ERR_CIPHER_BAD_INPUT_DATA );
 714:Source\mbedtls_open\library/cipher.c **** 
 715:Source\mbedtls_open\library/cipher.c ****     *data_len = 0;
 581              		.loc 1 715 0 is_stmt 1
 582 000a 0023     		movs	r3, #0
 583 000c 1360     		str	r3, [r2]
 584              	.LVL82:
 716:Source\mbedtls_open\library/cipher.c ****     for( i = input_len; i > 0; i-- )
 585              		.loc 1 716 0
 586 000e 0DE0     		b	.L45
 587              	.LVL83:
 588              	.L46:
 717:Source\mbedtls_open\library/cipher.c ****     {
 718:Source\mbedtls_open\library/cipher.c ****         prev_done = done;
 719:Source\mbedtls_open\library/cipher.c ****         done |= ( input[i-1] != 0 );
 589              		.loc 1 719 0 discriminator 3
 590 0010 4D1E     		subs	r5, r1, #1
 591 0012 445D     		ldrb	r4, [r0, r5]
 592 0014 661E     		subs	r6, r4, #1
 593 0016 B441     		sbcs	r4, r4, r6
 594 0018 1C43     		orrs	r4, r3
 595              	.LVL84:
 720:Source\mbedtls_open\library/cipher.c ****         *data_len |= i * ( done != prev_done );
 596              		.loc 1 720 0 discriminator 3
 597 001a 1B1B     		subs	r3, r3, r4
 598              	.LVL85:
 599 001c 5E1E     		subs	r6, r3, #1
 600 001e B341     		sbcs	r3, r3, r6
 601 0020 5943     		muls	r1, r3
 602              	.LVL86:
 603 0022 1368     		ldr	r3, [r2]
 604 0024 1943     		orrs	r1, r3
 605 0026 1160     		str	r1, [r2]
 606              	.LVL87:
 719:Source\mbedtls_open\library/cipher.c ****         *data_len |= i * ( done != prev_done );
 607              		.loc 1 719 0 discriminator 3
 608 0028 2300     		movs	r3, r4
 716:Source\mbedtls_open\library/cipher.c ****     {
 609              		.loc 1 716 0 discriminator 3
 610 002a 2900     		movs	r1, r5
 611              	.LVL88:
 612              	.L45:
 716:Source\mbedtls_open\library/cipher.c ****     {
 613              		.loc 1 716 0 is_stmt 0 discriminator 1
 614 002c 0029     		cmp	r1, #0
 615 002e EFD1     		bne	.L46
 721:Source\mbedtls_open\library/cipher.c ****     }
 722:Source\mbedtls_open\library/cipher.c **** 
 723:Source\mbedtls_open\library/cipher.c ****     return( 0 );
 616              		.loc 1 723 0 is_stmt 1
 617 0030 0020     		movs	r0, #0
 618              	.LVL89:
 619 0032 02E0     		b	.L44
 620              	.LVL90:
 621              	.L47:
 713:Source\mbedtls_open\library/cipher.c **** 
ARM GAS  C:\Users\Phuong\AppData\Local\Temp\ccnzvfGe.s 			page 25


 622              		.loc 1 713 0
 623 0034 0148     		ldr	r0, .L49
 624              	.LVL91:
 625 0036 00E0     		b	.L44
 626              	.LVL92:
 627              	.L48:
 628 0038 0048     		ldr	r0, .L49
 629              	.LVL93:
 630              	.L44:
 724:Source\mbedtls_open\library/cipher.c **** }
 631              		.loc 1 724 0
 632              		@ sp needed
 633 003a 70BD     		pop	{r4, r5, r6, pc}
 634              	.L50:
 635              		.align	2
 636              	.L49:
 637 003c 009FFFFF 		.word	-24832
 638              		.cfi_endproc
 639              	.LFE28:
 640              		.size	get_zeros_padding, .-get_zeros_padding
 641              		.section	.text.get_no_padding,"ax",%progbits
 642              		.align	2
 643              		.code	16
 644              		.thumb_func
 645              		.type	get_no_padding, %function
 646              	get_no_padding:
 647              	.LFB29:
 725:Source\mbedtls_open\library/cipher.c **** #endif /* MBEDTLS_CIPHER_PADDING_ZEROS */
 726:Source\mbedtls_open\library/cipher.c **** 
 727:Source\mbedtls_open\library/cipher.c **** /*
 728:Source\mbedtls_open\library/cipher.c ****  * No padding: don't pad :)
 729:Source\mbedtls_open\library/cipher.c ****  *
 730:Source\mbedtls_open\library/cipher.c ****  * There is no add_padding function (check for NULL in mbedtls_cipher_finish)
 731:Source\mbedtls_open\library/cipher.c ****  * but a trivial get_padding function
 732:Source\mbedtls_open\library/cipher.c ****  */
 733:Source\mbedtls_open\library/cipher.c **** static int get_no_padding( unsigned char *input, size_t input_len,
 734:Source\mbedtls_open\library/cipher.c ****                               size_t *data_len )
 735:Source\mbedtls_open\library/cipher.c **** {
 648              		.loc 1 735 0
 649              		.cfi_startproc
 650              		@ args = 0, pretend = 0, frame = 0
 651              		@ frame_needed = 0, uses_anonymous_args = 0
 652              		@ link register save eliminated.
 653              	.LVL94:
 736:Source\mbedtls_open\library/cipher.c ****     if( NULL == input || NULL == data_len )
 654              		.loc 1 736 0
 655 0000 0028     		cmp	r0, #0
 656 0002 04D0     		beq	.L53
 657              		.loc 1 736 0 is_stmt 0 discriminator 1
 658 0004 002A     		cmp	r2, #0
 659 0006 04D0     		beq	.L54
 737:Source\mbedtls_open\library/cipher.c ****         return( MBEDTLS_ERR_CIPHER_BAD_INPUT_DATA );
 738:Source\mbedtls_open\library/cipher.c **** 
 739:Source\mbedtls_open\library/cipher.c ****     *data_len = input_len;
 660              		.loc 1 739 0 is_stmt 1
 661 0008 1160     		str	r1, [r2]
 740:Source\mbedtls_open\library/cipher.c **** 
ARM GAS  C:\Users\Phuong\AppData\Local\Temp\ccnzvfGe.s 			page 26


 741:Source\mbedtls_open\library/cipher.c ****     return( 0 );
 662              		.loc 1 741 0
 663 000a 0020     		movs	r0, #0
 664              	.LVL95:
 665 000c 02E0     		b	.L52
 666              	.LVL96:
 667              	.L53:
 737:Source\mbedtls_open\library/cipher.c ****         return( MBEDTLS_ERR_CIPHER_BAD_INPUT_DATA );
 668              		.loc 1 737 0
 669 000e 0248     		ldr	r0, .L55
 670              	.LVL97:
 671 0010 00E0     		b	.L52
 672              	.LVL98:
 673              	.L54:
 674 0012 0148     		ldr	r0, .L55
 675              	.LVL99:
 676              	.L52:
 742:Source\mbedtls_open\library/cipher.c **** }
 677              		.loc 1 742 0
 678              		@ sp needed
 679 0014 7047     		bx	lr
 680              	.L56:
 681 0016 C046     		.align	2
 682              	.L55:
 683 0018 009FFFFF 		.word	-24832
 684              		.cfi_endproc
 685              	.LFE29:
 686              		.size	get_no_padding, .-get_no_padding
 687              		.section	.text.mbedtls_cipher_list,"ax",%progbits
 688              		.align	2
 689              		.global	mbedtls_cipher_list
 690              		.code	16
 691              		.thumb_func
 692              		.type	mbedtls_cipher_list, %function
 693              	mbedtls_cipher_list:
 694              	.LFB9:
  91:Source\mbedtls_open\library/cipher.c ****     const mbedtls_cipher_definition_t *def;
 695              		.loc 1 91 0
 696              		.cfi_startproc
 697              		@ args = 0, pretend = 0, frame = 0
 698              		@ frame_needed = 0, uses_anonymous_args = 0
 699              		@ link register save eliminated.
  95:Source\mbedtls_open\library/cipher.c ****     {
 700              		.loc 1 95 0
 701 0000 0A4B     		ldr	r3, .L62
 702 0002 1B68     		ldr	r3, [r3]
 703 0004 002B     		cmp	r3, #0
 704 0006 04D0     		beq	.L61
 705 0008 0DE0     		b	.L59
 706              	.LVL100:
 707              	.L60:
 101:Source\mbedtls_open\library/cipher.c **** 
 708              		.loc 1 101 0
 709 000a 0832     		adds	r2, r2, #8
 710              	.LVL101:
 711 000c 1960     		str	r1, [r3]
 712 000e 0433     		adds	r3, r3, #4
ARM GAS  C:\Users\Phuong\AppData\Local\Temp\ccnzvfGe.s 			page 27


 713              	.LVL102:
 714 0010 01E0     		b	.L58
 715              	.LVL103:
 716              	.L61:
 717 0012 074B     		ldr	r3, .L62+4
 718 0014 074A     		ldr	r2, .L62+8
 719              	.L58:
 720              	.LVL104:
 100:Source\mbedtls_open\library/cipher.c ****             *type++ = (*def++).type;
 721              		.loc 1 100 0
 722 0016 1178     		ldrb	r1, [r2]
 723 0018 0029     		cmp	r1, #0
 724 001a F6D1     		bne	.L60
 103:Source\mbedtls_open\library/cipher.c **** 
 725              		.loc 1 103 0
 726 001c 0022     		movs	r2, #0
 727              	.LVL105:
 728 001e 1A60     		str	r2, [r3]
 105:Source\mbedtls_open\library/cipher.c ****     }
 729              		.loc 1 105 0
 730 0020 0132     		adds	r2, r2, #1
 731 0022 024B     		ldr	r3, .L62
 732              	.LVL106:
 733 0024 1A60     		str	r2, [r3]
 734              	.L59:
 109:Source\mbedtls_open\library/cipher.c **** 
 735              		.loc 1 109 0
 736 0026 0248     		ldr	r0, .L62+4
 737              		@ sp needed
 738 0028 7047     		bx	lr
 739              	.L63:
 740 002a C046     		.align	2
 741              	.L62:
 742 002c 00000000 		.word	.LANCHOR0
 743 0030 00000000 		.word	mbedtls_cipher_supported
 744 0034 00000000 		.word	mbedtls_cipher_definitions
 745              		.cfi_endproc
 746              	.LFE9:
 747              		.size	mbedtls_cipher_list, .-mbedtls_cipher_list
 748              		.section	.text.mbedtls_cipher_info_from_type,"ax",%progbits
 749              		.align	2
 750              		.global	mbedtls_cipher_info_from_type
 751              		.code	16
 752              		.thumb_func
 753              		.type	mbedtls_cipher_info_from_type, %function
 754              	mbedtls_cipher_info_from_type:
 755              	.LFB10:
 112:Source\mbedtls_open\library/cipher.c ****     const mbedtls_cipher_definition_t *def;
 756              		.loc 1 112 0
 757              		.cfi_startproc
 758              		@ args = 0, pretend = 0, frame = 0
 759              		@ frame_needed = 0, uses_anonymous_args = 0
 760              		@ link register save eliminated.
 761              	.LVL107:
 115:Source\mbedtls_open\library/cipher.c ****         if( def->type == cipher_type )
 762              		.loc 1 115 0
 763 0000 054B     		ldr	r3, .L68
ARM GAS  C:\Users\Phuong\AppData\Local\Temp\ccnzvfGe.s 			page 28


 764 0002 03E0     		b	.L65
 765              	.LVL108:
 766              	.L67:
 116:Source\mbedtls_open\library/cipher.c ****             return( def->info );
 767              		.loc 1 116 0
 768 0004 1978     		ldrb	r1, [r3]
 769 0006 8142     		cmp	r1, r0
 770 0008 03D0     		beq	.L66
 115:Source\mbedtls_open\library/cipher.c ****         if( def->type == cipher_type )
 771              		.loc 1 115 0 discriminator 2
 772 000a 0833     		adds	r3, r3, #8
 773              	.LVL109:
 774              	.L65:
 115:Source\mbedtls_open\library/cipher.c ****         if( def->type == cipher_type )
 775              		.loc 1 115 0 is_stmt 0 discriminator 1
 776 000c 5A68     		ldr	r2, [r3, #4]
 777 000e 002A     		cmp	r2, #0
 778 0010 F8D1     		bne	.L67
 779              	.L66:
 120:Source\mbedtls_open\library/cipher.c **** 
 780              		.loc 1 120 0 is_stmt 1
 781 0012 1000     		movs	r0, r2
 782              	.LVL110:
 783              		@ sp needed
 784 0014 7047     		bx	lr
 785              	.L69:
 786 0016 C046     		.align	2
 787              	.L68:
 788 0018 00000000 		.word	mbedtls_cipher_definitions
 789              		.cfi_endproc
 790              	.LFE10:
 791              		.size	mbedtls_cipher_info_from_type, .-mbedtls_cipher_info_from_type
 792              		.section	.text.mbedtls_cipher_info_from_string,"ax",%progbits
 793              		.align	2
 794              		.global	mbedtls_cipher_info_from_string
 795              		.code	16
 796              		.thumb_func
 797              		.type	mbedtls_cipher_info_from_string, %function
 798              	mbedtls_cipher_info_from_string:
 799              	.LFB11:
 123:Source\mbedtls_open\library/cipher.c ****     const mbedtls_cipher_definition_t *def;
 800              		.loc 1 123 0
 801              		.cfi_startproc
 802              		@ args = 0, pretend = 0, frame = 0
 803              		@ frame_needed = 0, uses_anonymous_args = 0
 804              	.LVL111:
 805 0000 70B5     		push	{r4, r5, r6, lr}
 806              		.cfi_def_cfa_offset 16
 807              		.cfi_offset 4, -16
 808              		.cfi_offset 5, -12
 809              		.cfi_offset 6, -8
 810              		.cfi_offset 14, -4
 811 0002 061E     		subs	r6, r0, #0
 126:Source\mbedtls_open\library/cipher.c ****         return( NULL );
 812              		.loc 1 126 0
 813 0004 0CD0     		beq	.L74
 814 0006 084D     		ldr	r5, .L75
ARM GAS  C:\Users\Phuong\AppData\Local\Temp\ccnzvfGe.s 			page 29


 815 0008 06E0     		b	.L72
 816              	.LVL112:
 817              	.L73:
 130:Source\mbedtls_open\library/cipher.c ****             return( def->info );
 818              		.loc 1 130 0
 819 000a 3100     		movs	r1, r6
 820 000c A068     		ldr	r0, [r4, #8]
 821 000e FFF7FEFF 		bl	strcmp
 822              	.LVL113:
 823 0012 0028     		cmp	r0, #0
 824 0014 05D0     		beq	.L71
 129:Source\mbedtls_open\library/cipher.c ****         if( !  strcmp( def->info->name, cipher_name ) )
 825              		.loc 1 129 0 discriminator 2
 826 0016 0835     		adds	r5, r5, #8
 827              	.LVL114:
 828              	.L72:
 129:Source\mbedtls_open\library/cipher.c ****         if( !  strcmp( def->info->name, cipher_name ) )
 829              		.loc 1 129 0 is_stmt 0 discriminator 1
 830 0018 6C68     		ldr	r4, [r5, #4]
 831 001a 002C     		cmp	r4, #0
 832 001c F5D1     		bne	.L73
 833 001e 00E0     		b	.L71
 834              	.LVL115:
 835              	.L74:
 127:Source\mbedtls_open\library/cipher.c **** 
 836              		.loc 1 127 0 is_stmt 1
 837 0020 0024     		movs	r4, #0
 838              	.LVL116:
 839              	.L71:
 134:Source\mbedtls_open\library/cipher.c **** 
 840              		.loc 1 134 0
 841 0022 2000     		movs	r0, r4
 842              		@ sp needed
 843              	.LVL117:
 844 0024 70BD     		pop	{r4, r5, r6, pc}
 845              	.L76:
 846 0026 C046     		.align	2
 847              	.L75:
 848 0028 00000000 		.word	mbedtls_cipher_definitions
 849              		.cfi_endproc
 850              	.LFE11:
 851              		.size	mbedtls_cipher_info_from_string, .-mbedtls_cipher_info_from_string
 852              		.section	.text.mbedtls_cipher_info_from_values,"ax",%progbits
 853              		.align	2
 854              		.global	mbedtls_cipher_info_from_values
 855              		.code	16
 856              		.thumb_func
 857              		.type	mbedtls_cipher_info_from_values, %function
 858              	mbedtls_cipher_info_from_values:
 859              	.LFB12:
 139:Source\mbedtls_open\library/cipher.c ****     const mbedtls_cipher_definition_t *def;
 860              		.loc 1 139 0
 861              		.cfi_startproc
 862              		@ args = 0, pretend = 0, frame = 0
 863              		@ frame_needed = 0, uses_anonymous_args = 0
 864              	.LVL118:
 865 0000 30B5     		push	{r4, r5, lr}
ARM GAS  C:\Users\Phuong\AppData\Local\Temp\ccnzvfGe.s 			page 30


 866              		.cfi_def_cfa_offset 12
 867              		.cfi_offset 4, -12
 868              		.cfi_offset 5, -8
 869              		.cfi_offset 14, -4
 870              	.LVL119:
 142:Source\mbedtls_open\library/cipher.c ****         if( def->info->base->cipher == cipher_id &&
 871              		.loc 1 142 0
 872 0002 094C     		ldr	r4, .L82
 873 0004 0AE0     		b	.L78
 874              	.LVL120:
 875              	.L81:
 143:Source\mbedtls_open\library/cipher.c ****             def->info->key_bitlen == (unsigned) key_bitlen &&
 876              		.loc 1 143 0
 877 0006 9D69     		ldr	r5, [r3, #24]
 878 0008 2D78     		ldrb	r5, [r5]
 879 000a 8542     		cmp	r5, r0
 880 000c 05D1     		bne	.L79
 143:Source\mbedtls_open\library/cipher.c ****             def->info->key_bitlen == (unsigned) key_bitlen &&
 881              		.loc 1 143 0 is_stmt 0 discriminator 1
 882 000e 5D68     		ldr	r5, [r3, #4]
 883 0010 8D42     		cmp	r5, r1
 884 0012 02D1     		bne	.L79
 145:Source\mbedtls_open\library/cipher.c ****             return( def->info );
 885              		.loc 1 145 0 is_stmt 1
 886 0014 5D78     		ldrb	r5, [r3, #1]
 144:Source\mbedtls_open\library/cipher.c ****             def->info->mode == mode )
 887              		.loc 1 144 0
 888 0016 9542     		cmp	r5, r2
 889 0018 03D0     		beq	.L80
 890              	.L79:
 142:Source\mbedtls_open\library/cipher.c ****         if( def->info->base->cipher == cipher_id &&
 891              		.loc 1 142 0 discriminator 2
 892 001a 0834     		adds	r4, r4, #8
 893              	.LVL121:
 894              	.L78:
 142:Source\mbedtls_open\library/cipher.c ****         if( def->info->base->cipher == cipher_id &&
 895              		.loc 1 142 0 is_stmt 0 discriminator 1
 896 001c 6368     		ldr	r3, [r4, #4]
 897 001e 002B     		cmp	r3, #0
 898 0020 F1D1     		bne	.L81
 899              	.L80:
 149:Source\mbedtls_open\library/cipher.c **** 
 900              		.loc 1 149 0 is_stmt 1
 901 0022 1800     		movs	r0, r3
 902              	.LVL122:
 903              		@ sp needed
 904              	.LVL123:
 905 0024 30BD     		pop	{r4, r5, pc}
 906              	.L83:
 907 0026 C046     		.align	2
 908              	.L82:
 909 0028 00000000 		.word	mbedtls_cipher_definitions
 910              		.cfi_endproc
 911              	.LFE12:
 912              		.size	mbedtls_cipher_info_from_values, .-mbedtls_cipher_info_from_values
 913              		.section	.text.mbedtls_cipher_init,"ax",%progbits
 914              		.align	2
ARM GAS  C:\Users\Phuong\AppData\Local\Temp\ccnzvfGe.s 			page 31


 915              		.global	mbedtls_cipher_init
 916              		.code	16
 917              		.thumb_func
 918              		.type	mbedtls_cipher_init, %function
 919              	mbedtls_cipher_init:
 920              	.LFB13:
 152:Source\mbedtls_open\library/cipher.c ****     memset( ctx, 0, sizeof( mbedtls_cipher_context_t ) );
 921              		.loc 1 152 0
 922              		.cfi_startproc
 923              		@ args = 0, pretend = 0, frame = 0
 924              		@ frame_needed = 0, uses_anonymous_args = 0
 925              	.LVL124:
 926 0000 10B5     		push	{r4, lr}
 927              		.cfi_def_cfa_offset 8
 928              		.cfi_offset 4, -8
 929              		.cfi_offset 14, -4
 153:Source\mbedtls_open\library/cipher.c **** }
 930              		.loc 1 153 0
 931 0002 4022     		movs	r2, #64
 932 0004 0021     		movs	r1, #0
 933 0006 FFF7FEFF 		bl	memset
 934              	.LVL125:
 154:Source\mbedtls_open\library/cipher.c **** 
 935              		.loc 1 154 0
 936              		@ sp needed
 937 000a 10BD     		pop	{r4, pc}
 938              		.cfi_endproc
 939              	.LFE13:
 940              		.size	mbedtls_cipher_init, .-mbedtls_cipher_init
 941              		.section	.text.mbedtls_cipher_free,"ax",%progbits
 942              		.align	2
 943              		.global	mbedtls_cipher_free
 944              		.code	16
 945              		.thumb_func
 946              		.type	mbedtls_cipher_free, %function
 947              	mbedtls_cipher_free:
 948              	.LFB14:
 157:Source\mbedtls_open\library/cipher.c ****     if( ctx == NULL )
 949              		.loc 1 157 0
 950              		.cfi_startproc
 951              		@ args = 0, pretend = 0, frame = 0
 952              		@ frame_needed = 0, uses_anonymous_args = 0
 953              	.LVL126:
 954 0000 10B5     		push	{r4, lr}
 955              		.cfi_def_cfa_offset 8
 956              		.cfi_offset 4, -8
 957              		.cfi_offset 14, -4
 958 0002 041E     		subs	r4, r0, #0
 158:Source\mbedtls_open\library/cipher.c ****         return;
 959              		.loc 1 158 0
 960 0004 0AD0     		beq	.L85
 170:Source\mbedtls_open\library/cipher.c ****         ctx->cipher_info->base->ctx_free_func( ctx->cipher_ctx );
 961              		.loc 1 170 0
 962 0006 C06B     		ldr	r0, [r0, #60]
 963              	.LVL127:
 964 0008 0028     		cmp	r0, #0
 965 000a 03D0     		beq	.L87
ARM GAS  C:\Users\Phuong\AppData\Local\Temp\ccnzvfGe.s 			page 32


 171:Source\mbedtls_open\library/cipher.c **** 
 966              		.loc 1 171 0
 967 000c 2368     		ldr	r3, [r4]
 968 000e 9B69     		ldr	r3, [r3, #24]
 969 0010 9B6A     		ldr	r3, [r3, #40]
 970 0012 9847     		blx	r3
 971              	.LVL128:
 972              	.L87:
 173:Source\mbedtls_open\library/cipher.c **** }
 973              		.loc 1 173 0
 974 0014 4021     		movs	r1, #64
 975 0016 2000     		movs	r0, r4
 976 0018 FFF7FEFF 		bl	mbedtls_platform_zeroize
 977              	.LVL129:
 978              	.L85:
 174:Source\mbedtls_open\library/cipher.c **** 
 979              		.loc 1 174 0
 980              		@ sp needed
 981              	.LVL130:
 982 001c 10BD     		pop	{r4, pc}
 983              		.cfi_endproc
 984              	.LFE14:
 985              		.size	mbedtls_cipher_free, .-mbedtls_cipher_free
 986 001e C046     		.section	.text.mbedtls_cipher_setkey,"ax",%progbits
 987              		.align	2
 988              		.global	mbedtls_cipher_setkey
 989              		.code	16
 990              		.thumb_func
 991              		.type	mbedtls_cipher_setkey, %function
 992              	mbedtls_cipher_setkey:
 993              	.LFB16:
 204:Source\mbedtls_open\library/cipher.c ****     if( NULL == ctx || NULL == ctx->cipher_info )
 994              		.loc 1 204 0
 995              		.cfi_startproc
 996              		@ args = 0, pretend = 0, frame = 0
 997              		@ frame_needed = 0, uses_anonymous_args = 0
 998              	.LVL131:
 999 0000 70B5     		push	{r4, r5, r6, lr}
 1000              		.cfi_def_cfa_offset 16
 1001              		.cfi_offset 4, -16
 1002              		.cfi_offset 5, -12
 1003              		.cfi_offset 6, -8
 1004              		.cfi_offset 14, -4
 205:Source\mbedtls_open\library/cipher.c ****         return( MBEDTLS_ERR_CIPHER_BAD_INPUT_DATA );
 1005              		.loc 1 205 0
 1006 0002 0028     		cmp	r0, #0
 1007 0004 1FD0     		beq	.L93
 205:Source\mbedtls_open\library/cipher.c ****         return( MBEDTLS_ERR_CIPHER_BAD_INPUT_DATA );
 1008              		.loc 1 205 0 is_stmt 0 discriminator 1
 1009 0006 0468     		ldr	r4, [r0]
 1010 0008 002C     		cmp	r4, #0
 1011 000a 1ED0     		beq	.L94
 208:Source\mbedtls_open\library/cipher.c ****         (int) ctx->cipher_info->key_bitlen != key_bitlen )
 1012              		.loc 1 208 0 is_stmt 1
 1013 000c 2569     		ldr	r5, [r4, #16]
 1014 000e AD07     		lsls	r5, r5, #30
 1015 0010 02D4     		bmi	.L90
ARM GAS  C:\Users\Phuong\AppData\Local\Temp\ccnzvfGe.s 			page 33


 208:Source\mbedtls_open\library/cipher.c ****         (int) ctx->cipher_info->key_bitlen != key_bitlen )
 1016              		.loc 1 208 0 is_stmt 0 discriminator 1
 1017 0012 6568     		ldr	r5, [r4, #4]
 1018 0014 9542     		cmp	r5, r2
 1019 0016 1AD1     		bne	.L95
 1020              	.L90:
 214:Source\mbedtls_open\library/cipher.c ****     ctx->operation = operation;
 1021              		.loc 1 214 0 is_stmt 1
 1022 0018 4260     		str	r2, [r0, #4]
 215:Source\mbedtls_open\library/cipher.c **** 
 1023              		.loc 1 215 0
 1024 001a 0372     		strb	r3, [r0, #8]
 220:Source\mbedtls_open\library/cipher.c ****         MBEDTLS_MODE_CFB == ctx->cipher_info->mode ||
 1025              		.loc 1 220 0
 1026 001c 012B     		cmp	r3, #1
 1027 001e 06D0     		beq	.L91
 221:Source\mbedtls_open\library/cipher.c ****         MBEDTLS_MODE_OFB == ctx->cipher_info->mode ||
 1028              		.loc 1 221 0 discriminator 1
 1029 0020 6578     		ldrb	r5, [r4, #1]
 220:Source\mbedtls_open\library/cipher.c ****         MBEDTLS_MODE_CFB == ctx->cipher_info->mode ||
 1030              		.loc 1 220 0 discriminator 1
 1031 0022 032D     		cmp	r5, #3
 1032 0024 03D0     		beq	.L91
 221:Source\mbedtls_open\library/cipher.c ****         MBEDTLS_MODE_OFB == ctx->cipher_info->mode ||
 1033              		.loc 1 221 0
 1034 0026 042D     		cmp	r5, #4
 1035 0028 01D0     		beq	.L91
 222:Source\mbedtls_open\library/cipher.c ****         MBEDTLS_MODE_CTR == ctx->cipher_info->mode )
 1036              		.loc 1 222 0
 1037 002a 052D     		cmp	r5, #5
 1038 002c 04D1     		bne	.L92
 1039              	.L91:
 225:Source\mbedtls_open\library/cipher.c ****                 ctx->key_bitlen );
 1040              		.loc 1 225 0
 1041 002e A369     		ldr	r3, [r4, #24]
 1042              	.LVL132:
 1043 0030 DB69     		ldr	r3, [r3, #28]
 1044 0032 C06B     		ldr	r0, [r0, #60]
 1045              	.LVL133:
 1046 0034 9847     		blx	r3
 1047              	.LVL134:
 1048 0036 0DE0     		b	.L89
 1049              	.LVL135:
 1050              	.L92:
 229:Source\mbedtls_open\library/cipher.c ****         return ctx->cipher_info->base->setkey_dec_func( ctx->cipher_ctx, key,
 1051              		.loc 1 229 0
 1052 0038 002B     		cmp	r3, #0
 1053 003a 0AD1     		bne	.L96
 230:Source\mbedtls_open\library/cipher.c ****                 ctx->key_bitlen );
 1054              		.loc 1 230 0
 1055 003c A369     		ldr	r3, [r4, #24]
 1056              	.LVL136:
 1057 003e 1B6A     		ldr	r3, [r3, #32]
 1058 0040 C06B     		ldr	r0, [r0, #60]
 1059              	.LVL137:
 1060 0042 9847     		blx	r3
 1061              	.LVL138:
ARM GAS  C:\Users\Phuong\AppData\Local\Temp\ccnzvfGe.s 			page 34


 1062 0044 06E0     		b	.L89
 1063              	.LVL139:
 1064              	.L93:
 206:Source\mbedtls_open\library/cipher.c **** 
 1065              		.loc 1 206 0
 1066 0046 0448     		ldr	r0, .L97
 1067              	.LVL140:
 1068 0048 04E0     		b	.L89
 1069              	.LVL141:
 1070              	.L94:
 1071 004a 0348     		ldr	r0, .L97
 1072              	.LVL142:
 1073 004c 02E0     		b	.L89
 1074              	.LVL143:
 1075              	.L95:
 211:Source\mbedtls_open\library/cipher.c ****     }
 1076              		.loc 1 211 0
 1077 004e 0248     		ldr	r0, .L97
 1078              	.LVL144:
 1079 0050 00E0     		b	.L89
 1080              	.LVL145:
 1081              	.L96:
 233:Source\mbedtls_open\library/cipher.c **** }
 1082              		.loc 1 233 0
 1083 0052 0148     		ldr	r0, .L97
 1084              	.LVL146:
 1085              	.L89:
 234:Source\mbedtls_open\library/cipher.c **** 
 1086              		.loc 1 234 0
 1087              		@ sp needed
 1088 0054 70BD     		pop	{r4, r5, r6, pc}
 1089              	.L98:
 1090 0056 C046     		.align	2
 1091              	.L97:
 1092 0058 009FFFFF 		.word	-24832
 1093              		.cfi_endproc
 1094              	.LFE16:
 1095              		.size	mbedtls_cipher_setkey, .-mbedtls_cipher_setkey
 1096              		.section	.text.mbedtls_cipher_set_iv,"ax",%progbits
 1097              		.align	2
 1098              		.global	mbedtls_cipher_set_iv
 1099              		.code	16
 1100              		.thumb_func
 1101              		.type	mbedtls_cipher_set_iv, %function
 1102              	mbedtls_cipher_set_iv:
 1103              	.LFB17:
 238:Source\mbedtls_open\library/cipher.c ****     size_t actual_iv_size;
 1104              		.loc 1 238 0
 1105              		.cfi_startproc
 1106              		@ args = 0, pretend = 0, frame = 0
 1107              		@ frame_needed = 0, uses_anonymous_args = 0
 1108              	.LVL147:
 1109 0000 70B5     		push	{r4, r5, r6, lr}
 1110              		.cfi_def_cfa_offset 16
 1111              		.cfi_offset 4, -16
 1112              		.cfi_offset 5, -12
 1113              		.cfi_offset 6, -8
ARM GAS  C:\Users\Phuong\AppData\Local\Temp\ccnzvfGe.s 			page 35


 1114              		.cfi_offset 14, -4
 1115 0002 0500     		movs	r5, r0
 1116 0004 0E00     		movs	r6, r1
 1117 0006 1400     		movs	r4, r2
 240:Source\mbedtls_open\library/cipher.c ****         return( MBEDTLS_ERR_CIPHER_BAD_INPUT_DATA );
 1118              		.loc 1 240 0
 1119 0008 0028     		cmp	r0, #0
 1120 000a 2AD0     		beq	.L105
 240:Source\mbedtls_open\library/cipher.c ****         return( MBEDTLS_ERR_CIPHER_BAD_INPUT_DATA );
 1121              		.loc 1 240 0 is_stmt 0 discriminator 1
 1122 000c 0368     		ldr	r3, [r0]
 1123 000e 002B     		cmp	r3, #0
 1124 0010 29D0     		beq	.L106
 242:Source\mbedtls_open\library/cipher.c ****         return( MBEDTLS_ERR_CIPHER_BAD_INPUT_DATA );
 1125              		.loc 1 242 0 is_stmt 1
 1126 0012 0029     		cmp	r1, #0
 1127 0014 01D1     		bne	.L101
 242:Source\mbedtls_open\library/cipher.c ****         return( MBEDTLS_ERR_CIPHER_BAD_INPUT_DATA );
 1128              		.loc 1 242 0 is_stmt 0 discriminator 1
 1129 0016 002A     		cmp	r2, #0
 1130 0018 27D1     		bne	.L107
 1131              	.L101:
 245:Source\mbedtls_open\library/cipher.c ****         ctx->iv_size = 0;
 1132              		.loc 1 245 0 is_stmt 1
 1133 001a 002E     		cmp	r6, #0
 1134 001c 03D1     		bne	.L102
 245:Source\mbedtls_open\library/cipher.c ****         ctx->iv_size = 0;
 1135              		.loc 1 245 0 is_stmt 0 discriminator 1
 1136 001e 002C     		cmp	r4, #0
 1137 0020 01D1     		bne	.L102
 246:Source\mbedtls_open\library/cipher.c **** 
 1138              		.loc 1 246 0 is_stmt 1
 1139 0022 0022     		movs	r2, #0
 1140              	.LVL148:
 1141 0024 AA63     		str	r2, [r5, #56]
 1142              	.L102:
 249:Source\mbedtls_open\library/cipher.c ****         return( MBEDTLS_ERR_CIPHER_FEATURE_UNAVAILABLE );
 1143              		.loc 1 249 0
 1144 0026 102C     		cmp	r4, #16
 1145 0028 21D8     		bhi	.L108
 252:Source\mbedtls_open\library/cipher.c ****         actual_iv_size = iv_len;
 1146              		.loc 1 252 0
 1147 002a 1A69     		ldr	r2, [r3, #16]
 1148 002c D207     		lsls	r2, r2, #31
 1149 002e 03D4     		bmi	.L103
 256:Source\mbedtls_open\library/cipher.c **** 
 1150              		.loc 1 256 0
 1151 0030 DA68     		ldr	r2, [r3, #12]
 1152              	.LVL149:
 259:Source\mbedtls_open\library/cipher.c ****             return( MBEDTLS_ERR_CIPHER_BAD_INPUT_DATA );
 1153              		.loc 1 259 0
 1154 0032 9442     		cmp	r4, r2
 1155 0034 1DD3     		bcc	.L109
 256:Source\mbedtls_open\library/cipher.c **** 
 1156              		.loc 1 256 0
 1157 0036 1400     		movs	r4, r2
 1158              	.LVL150:
ARM GAS  C:\Users\Phuong\AppData\Local\Temp\ccnzvfGe.s 			page 36


 1159              	.L103:
 264:Source\mbedtls_open\library/cipher.c ****     {
 1160              		.loc 1 264 0
 1161 0038 1B78     		ldrb	r3, [r3]
 1162 003a 482B     		cmp	r3, #72
 1163 003c 06D1     		bne	.L104
 266:Source\mbedtls_open\library/cipher.c ****                                            iv,
 1164              		.loc 1 266 0
 1165 003e 0022     		movs	r2, #0
 1166 0040 3100     		movs	r1, r6
 1167              	.LVL151:
 1168 0042 E86B     		ldr	r0, [r5, #60]
 1169              	.LVL152:
 1170 0044 FFF7FEFF 		bl	mbedtls_chacha20_starts
 1171              	.LVL153:
 1172 0048 0028     		cmp	r0, #0
 1173 004a 14D1     		bne	.L110
 1174              	.L104:
 275:Source\mbedtls_open\library/cipher.c ****     {
 1175              		.loc 1 275 0
 1176 004c 002C     		cmp	r4, #0
 1177 004e 14D0     		beq	.L111
 277:Source\mbedtls_open\library/cipher.c ****         ctx->iv_size = actual_iv_size;
 1178              		.loc 1 277 0
 1179 0050 2800     		movs	r0, r5
 1180 0052 2830     		adds	r0, r0, #40
 1181 0054 2200     		movs	r2, r4
 1182 0056 3100     		movs	r1, r6
 1183 0058 FFF7FEFF 		bl	memcpy
 1184              	.LVL154:
 278:Source\mbedtls_open\library/cipher.c ****     }
 1185              		.loc 1 278 0
 1186 005c AC63     		str	r4, [r5, #56]
 281:Source\mbedtls_open\library/cipher.c **** }
 1187              		.loc 1 281 0
 1188 005e 0020     		movs	r0, #0
 1189 0060 0CE0     		b	.L100
 1190              	.LVL155:
 1191              	.L105:
 241:Source\mbedtls_open\library/cipher.c ****     else if( NULL == iv && iv_len != 0  )
 1192              		.loc 1 241 0
 1193 0062 0748     		ldr	r0, .L112
 1194              	.LVL156:
 1195 0064 0AE0     		b	.L100
 1196              	.LVL157:
 1197              	.L106:
 1198 0066 0648     		ldr	r0, .L112
 1199              	.LVL158:
 1200 0068 08E0     		b	.L100
 1201              	.LVL159:
 1202              	.L107:
 243:Source\mbedtls_open\library/cipher.c **** 
 1203              		.loc 1 243 0
 1204 006a 0548     		ldr	r0, .L112
 1205              	.LVL160:
 1206 006c 06E0     		b	.L100
 1207              	.LVL161:
ARM GAS  C:\Users\Phuong\AppData\Local\Temp\ccnzvfGe.s 			page 37


 1208              	.L108:
 250:Source\mbedtls_open\library/cipher.c **** 
 1209              		.loc 1 250 0
 1210 006e 0548     		ldr	r0, .L112+4
 1211              	.LVL162:
 1212 0070 04E0     		b	.L100
 1213              	.LVL163:
 1214              	.L109:
 260:Source\mbedtls_open\library/cipher.c ****     }
 1215              		.loc 1 260 0
 1216 0072 0348     		ldr	r0, .L112
 1217              	.LVL164:
 1218 0074 02E0     		b	.L100
 1219              	.LVL165:
 1220              	.L110:
 270:Source\mbedtls_open\library/cipher.c ****         }
 1221              		.loc 1 270 0
 1222 0076 0248     		ldr	r0, .L112
 1223 0078 00E0     		b	.L100
 1224              	.L111:
 281:Source\mbedtls_open\library/cipher.c **** }
 1225              		.loc 1 281 0
 1226 007a 0020     		movs	r0, #0
 1227              	.LVL166:
 1228              	.L100:
 282:Source\mbedtls_open\library/cipher.c **** 
 1229              		.loc 1 282 0
 1230              		@ sp needed
 1231              	.LVL167:
 1232              	.LVL168:
 1233 007c 70BD     		pop	{r4, r5, r6, pc}
 1234              	.L113:
 1235 007e C046     		.align	2
 1236              	.L112:
 1237 0080 009FFFFF 		.word	-24832
 1238 0084 809FFFFF 		.word	-24704
 1239              		.cfi_endproc
 1240              	.LFE17:
 1241              		.size	mbedtls_cipher_set_iv, .-mbedtls_cipher_set_iv
 1242              		.section	.text.mbedtls_cipher_reset,"ax",%progbits
 1243              		.align	2
 1244              		.global	mbedtls_cipher_reset
 1245              		.code	16
 1246              		.thumb_func
 1247              		.type	mbedtls_cipher_reset, %function
 1248              	mbedtls_cipher_reset:
 1249              	.LFB18:
 285:Source\mbedtls_open\library/cipher.c ****     if( NULL == ctx || NULL == ctx->cipher_info )
 1250              		.loc 1 285 0
 1251              		.cfi_startproc
 1252              		@ args = 0, pretend = 0, frame = 0
 1253              		@ frame_needed = 0, uses_anonymous_args = 0
 1254              		@ link register save eliminated.
 1255              	.LVL169:
 286:Source\mbedtls_open\library/cipher.c ****         return( MBEDTLS_ERR_CIPHER_BAD_INPUT_DATA );
 1256              		.loc 1 286 0
 1257 0000 0028     		cmp	r0, #0
ARM GAS  C:\Users\Phuong\AppData\Local\Temp\ccnzvfGe.s 			page 38


 1258 0002 06D0     		beq	.L116
 286:Source\mbedtls_open\library/cipher.c ****         return( MBEDTLS_ERR_CIPHER_BAD_INPUT_DATA );
 1259              		.loc 1 286 0 is_stmt 0 discriminator 1
 1260 0004 0368     		ldr	r3, [r0]
 1261 0006 002B     		cmp	r3, #0
 1262 0008 05D0     		beq	.L117
 289:Source\mbedtls_open\library/cipher.c **** 
 1263              		.loc 1 289 0 is_stmt 1
 1264 000a 0023     		movs	r3, #0
 1265 000c 4362     		str	r3, [r0, #36]
 291:Source\mbedtls_open\library/cipher.c **** }
 1266              		.loc 1 291 0
 1267 000e 0020     		movs	r0, #0
 1268              	.LVL170:
 1269 0010 02E0     		b	.L115
 1270              	.LVL171:
 1271              	.L116:
 287:Source\mbedtls_open\library/cipher.c **** 
 1272              		.loc 1 287 0
 1273 0012 0248     		ldr	r0, .L118
 1274              	.LVL172:
 1275 0014 00E0     		b	.L115
 1276              	.LVL173:
 1277              	.L117:
 1278 0016 0148     		ldr	r0, .L118
 1279              	.LVL174:
 1280              	.L115:
 292:Source\mbedtls_open\library/cipher.c **** 
 1281              		.loc 1 292 0
 1282              		@ sp needed
 1283 0018 7047     		bx	lr
 1284              	.L119:
 1285 001a C046     		.align	2
 1286              	.L118:
 1287 001c 009FFFFF 		.word	-24832
 1288              		.cfi_endproc
 1289              	.LFE18:
 1290              		.size	mbedtls_cipher_reset, .-mbedtls_cipher_reset
 1291              		.section	.text.mbedtls_cipher_update_ad,"ax",%progbits
 1292              		.align	2
 1293              		.global	mbedtls_cipher_update_ad
 1294              		.code	16
 1295              		.thumb_func
 1296              		.type	mbedtls_cipher_update_ad, %function
 1297              	mbedtls_cipher_update_ad:
 1298              	.LFB19:
 297:Source\mbedtls_open\library/cipher.c ****     if( NULL == ctx || NULL == ctx->cipher_info )
 1299              		.loc 1 297 0
 1300              		.cfi_startproc
 1301              		@ args = 0, pretend = 0, frame = 0
 1302              		@ frame_needed = 0, uses_anonymous_args = 0
 1303              	.LVL175:
 1304 0000 70B5     		push	{r4, r5, r6, lr}
 1305              		.cfi_def_cfa_offset 16
 1306              		.cfi_offset 4, -16
 1307              		.cfi_offset 5, -12
 1308              		.cfi_offset 6, -8
ARM GAS  C:\Users\Phuong\AppData\Local\Temp\ccnzvfGe.s 			page 39


 1309              		.cfi_offset 14, -4
 1310 0002 82B0     		sub	sp, sp, #8
 1311              		.cfi_def_cfa_offset 24
 1312 0004 0400     		movs	r4, r0
 1313 0006 0D00     		movs	r5, r1
 1314 0008 1600     		movs	r6, r2
 298:Source\mbedtls_open\library/cipher.c ****         return( MBEDTLS_ERR_CIPHER_BAD_INPUT_DATA );
 1315              		.loc 1 298 0
 1316 000a 0028     		cmp	r0, #0
 1317 000c 26D0     		beq	.L123
 298:Source\mbedtls_open\library/cipher.c ****         return( MBEDTLS_ERR_CIPHER_BAD_INPUT_DATA );
 1318              		.loc 1 298 0 is_stmt 0 discriminator 1
 1319 000e 0368     		ldr	r3, [r0]
 1320 0010 002B     		cmp	r3, #0
 1321 0012 25D0     		beq	.L124
 302:Source\mbedtls_open\library/cipher.c ****     {
 1322              		.loc 1 302 0 is_stmt 1
 1323 0014 5A78     		ldrb	r2, [r3, #1]
 1324              	.LVL176:
 1325 0016 062A     		cmp	r2, #6
 1326 0018 0AD1     		bne	.L122
 304:Source\mbedtls_open\library/cipher.c ****                            ctx->iv, ctx->iv_size, ad, ad_len );
 1327              		.loc 1 304 0
 1328 001a C06B     		ldr	r0, [r0, #60]
 1329              	.LVL177:
 1330 001c 0821     		movs	r1, #8
 1331              	.LVL178:
 1332 001e 6156     		ldrsb	r1, [r4, r1]
 305:Source\mbedtls_open\library/cipher.c ****     }
 1333              		.loc 1 305 0
 1334 0020 2200     		movs	r2, r4
 1335 0022 2832     		adds	r2, r2, #40
 304:Source\mbedtls_open\library/cipher.c ****                            ctx->iv, ctx->iv_size, ad, ad_len );
 1336              		.loc 1 304 0
 1337 0024 A36B     		ldr	r3, [r4, #56]
 1338 0026 0196     		str	r6, [sp, #4]
 1339 0028 0095     		str	r5, [sp]
 1340 002a FFF7FEFF 		bl	mbedtls_gcm_starts
 1341              	.LVL179:
 1342 002e 1AE0     		b	.L121
 1343              	.LVL180:
 1344              	.L122:
 310:Source\mbedtls_open\library/cipher.c ****     {
 1345              		.loc 1 310 0
 1346 0030 1B78     		ldrb	r3, [r3]
 1347 0032 492B     		cmp	r3, #73
 1348 0034 16D1     		bne	.L125
 1349              	.LBB16:
 315:Source\mbedtls_open\library/cipher.c ****                 ? MBEDTLS_CHACHAPOLY_ENCRYPT
 1350              		.loc 1 315 0
 1351 0036 0822     		movs	r2, #8
 1352 0038 8256     		ldrsb	r2, [r0, r2]
 317:Source\mbedtls_open\library/cipher.c **** 
 1353              		.loc 1 317 0
 1354 003a 013A     		subs	r2, r2, #1
 1355 003c 531E     		subs	r3, r2, #1
 1356 003e 9A41     		sbcs	r2, r2, r3
ARM GAS  C:\Users\Phuong\AppData\Local\Temp\ccnzvfGe.s 			page 40


 1357 0040 D2B2     		uxtb	r2, r2
 1358              	.LVL181:
 320:Source\mbedtls_open\library/cipher.c ****                                                         mode );
 1359              		.loc 1 320 0
 1360 0042 0100     		movs	r1, r0
 1361              	.LVL182:
 1362 0044 2831     		adds	r1, r1, #40
 319:Source\mbedtls_open\library/cipher.c ****                                                         ctx->iv,
 1363              		.loc 1 319 0
 1364 0046 C06B     		ldr	r0, [r0, #60]
 1365              	.LVL183:
 1366 0048 FFF7FEFF 		bl	mbedtls_chachapoly_starts
 1367              	.LVL184:
 322:Source\mbedtls_open\library/cipher.c ****             return( result );
 1368              		.loc 1 322 0
 1369 004c 0028     		cmp	r0, #0
 1370 004e 0AD1     		bne	.L121
 325:Source\mbedtls_open\library/cipher.c ****                                                           ad, ad_len );
 1371              		.loc 1 325 0
 1372 0050 E06B     		ldr	r0, [r4, #60]
 1373              	.LVL185:
 1374 0052 3200     		movs	r2, r6
 1375 0054 2900     		movs	r1, r5
 1376 0056 FFF7FEFF 		bl	mbedtls_chachapoly_update_aad
 1377              	.LVL186:
 1378 005a 04E0     		b	.L121
 1379              	.LVL187:
 1380              	.L123:
 1381              	.LBE16:
 299:Source\mbedtls_open\library/cipher.c **** 
 1382              		.loc 1 299 0
 1383 005c 0348     		ldr	r0, .L127
 1384              	.LVL188:
 1385 005e 02E0     		b	.L121
 1386              	.LVL189:
 1387              	.L124:
 1388 0060 0248     		ldr	r0, .L127
 1389              	.LVL190:
 1390 0062 00E0     		b	.L121
 1391              	.LVL191:
 1392              	.L125:
 330:Source\mbedtls_open\library/cipher.c **** }
 1393              		.loc 1 330 0
 1394 0064 0020     		movs	r0, #0
 1395              	.LVL192:
 1396              	.L121:
 331:Source\mbedtls_open\library/cipher.c **** #endif /* MBEDTLS_GCM_C || MBEDTLS_CHACHAPOLY_C */
 1397              		.loc 1 331 0
 1398 0066 02B0     		add	sp, sp, #8
 1399              		@ sp needed
 1400              	.LVL193:
 1401              	.LVL194:
 1402              	.LVL195:
 1403 0068 70BD     		pop	{r4, r5, r6, pc}
 1404              	.L128:
 1405 006a C046     		.align	2
 1406              	.L127:
ARM GAS  C:\Users\Phuong\AppData\Local\Temp\ccnzvfGe.s 			page 41


 1407 006c 009FFFFF 		.word	-24832
 1408              		.cfi_endproc
 1409              	.LFE19:
 1410              		.size	mbedtls_cipher_update_ad, .-mbedtls_cipher_update_ad
 1411              		.global	__aeabi_uidivmod
 1412              		.section	.text.mbedtls_cipher_update,"ax",%progbits
 1413              		.align	2
 1414              		.global	mbedtls_cipher_update
 1415              		.code	16
 1416              		.thumb_func
 1417              		.type	mbedtls_cipher_update, %function
 1418              	mbedtls_cipher_update:
 1419              	.LFB20:
 336:Source\mbedtls_open\library/cipher.c ****     int ret;
 1420              		.loc 1 336 0
 1421              		.cfi_startproc
 1422              		@ args = 4, pretend = 0, frame = 8
 1423              		@ frame_needed = 0, uses_anonymous_args = 0
 1424              	.LVL196:
 1425 0000 F0B5     		push	{r4, r5, r6, r7, lr}
 1426              		.cfi_def_cfa_offset 20
 1427              		.cfi_offset 4, -20
 1428              		.cfi_offset 5, -16
 1429              		.cfi_offset 6, -12
 1430              		.cfi_offset 7, -8
 1431              		.cfi_offset 14, -4
 1432 0002 5F46     		mov	r7, fp
 1433 0004 5646     		mov	r6, r10
 1434 0006 C0B4     		push	{r6, r7}
 1435              		.cfi_def_cfa_offset 28
 1436              		.cfi_offset 10, -28
 1437              		.cfi_offset 11, -24
 1438 0008 87B0     		sub	sp, sp, #28
 1439              		.cfi_def_cfa_offset 56
 1440 000a 0400     		movs	r4, r0
 1441 000c 0491     		str	r1, [sp, #16]
 1442 000e 1600     		movs	r6, r2
 1443 0010 0593     		str	r3, [sp, #20]
 1444 0012 0E9F     		ldr	r7, [sp, #56]
 1445              	.LVL197:
 340:Source\mbedtls_open\library/cipher.c ****     {
 1446              		.loc 1 340 0
 1447 0014 0028     		cmp	r0, #0
 1448 0016 00D1     		bne	.LCB1556
 1449 0018 2EE1     		b	.L147	@long jump
 1450              	.LCB1556:
 340:Source\mbedtls_open\library/cipher.c ****     {
 1451              		.loc 1 340 0 is_stmt 0 discriminator 1
 1452 001a 0368     		ldr	r3, [r0]
 1453              	.LVL198:
 1454 001c 002B     		cmp	r3, #0
 1455 001e 00D1     		bne	.LCB1561
 1456 0020 2CE1     		b	.L148	@long jump
 1457              	.LCB1561:
 340:Source\mbedtls_open\library/cipher.c ****     {
 1458              		.loc 1 340 0 discriminator 2
 1459 0022 002F     		cmp	r7, #0
ARM GAS  C:\Users\Phuong\AppData\Local\Temp\ccnzvfGe.s 			page 42


 1460 0024 00D1     		bne	.LCB1563
 1461 0026 2BE1     		b	.L149	@long jump
 1462              	.LCB1563:
 345:Source\mbedtls_open\library/cipher.c ****     block_size = mbedtls_cipher_get_block_size( ctx );
 1463              		.loc 1 345 0 is_stmt 1
 1464 0028 0023     		movs	r3, #0
 1465 002a 3B60     		str	r3, [r7]
 1466              	.LVL199:
 1467              	.LBB17:
 1468              	.LBB18:
 1469              		.file 2 ".\\Source\\mbedtls_open\\include/mbedtls/cipher.h"
   1:.\Source\mbedtls_open\include/mbedtls/cipher.h **** /**
   2:.\Source\mbedtls_open\include/mbedtls/cipher.h ****  * \file cipher.h
   3:.\Source\mbedtls_open\include/mbedtls/cipher.h ****  *
   4:.\Source\mbedtls_open\include/mbedtls/cipher.h ****  * \brief This file contains an abstraction interface for use with the cipher
   5:.\Source\mbedtls_open\include/mbedtls/cipher.h ****  * primitives provided by the library. It provides a common interface to all of
   6:.\Source\mbedtls_open\include/mbedtls/cipher.h ****  * the available cipher operations.
   7:.\Source\mbedtls_open\include/mbedtls/cipher.h ****  *
   8:.\Source\mbedtls_open\include/mbedtls/cipher.h ****  * \author Adriaan de Jong <dejong@fox-it.com>
   9:.\Source\mbedtls_open\include/mbedtls/cipher.h ****  */
  10:.\Source\mbedtls_open\include/mbedtls/cipher.h **** /*
  11:.\Source\mbedtls_open\include/mbedtls/cipher.h ****  *  Copyright (C) 2006-2018, Arm Limited (or its affiliates), All Rights Reserved
  12:.\Source\mbedtls_open\include/mbedtls/cipher.h ****  *  SPDX-License-Identifier: Apache-2.0
  13:.\Source\mbedtls_open\include/mbedtls/cipher.h ****  *
  14:.\Source\mbedtls_open\include/mbedtls/cipher.h ****  *  Licensed under the Apache License, Version 2.0 (the "License"); you may
  15:.\Source\mbedtls_open\include/mbedtls/cipher.h ****  *  not use this file except in compliance with the License.
  16:.\Source\mbedtls_open\include/mbedtls/cipher.h ****  *  You may obtain a copy of the License at
  17:.\Source\mbedtls_open\include/mbedtls/cipher.h ****  *
  18:.\Source\mbedtls_open\include/mbedtls/cipher.h ****  *  http://www.apache.org/licenses/LICENSE-2.0
  19:.\Source\mbedtls_open\include/mbedtls/cipher.h ****  *
  20:.\Source\mbedtls_open\include/mbedtls/cipher.h ****  *  Unless required by applicable law or agreed to in writing, software
  21:.\Source\mbedtls_open\include/mbedtls/cipher.h ****  *  distributed under the License is distributed on an "AS IS" BASIS, WITHOUT
  22:.\Source\mbedtls_open\include/mbedtls/cipher.h ****  *  WARRANTIES OR CONDITIONS OF ANY KIND, either express or implied.
  23:.\Source\mbedtls_open\include/mbedtls/cipher.h ****  *  See the License for the specific language governing permissions and
  24:.\Source\mbedtls_open\include/mbedtls/cipher.h ****  *  limitations under the License.
  25:.\Source\mbedtls_open\include/mbedtls/cipher.h ****  *
  26:.\Source\mbedtls_open\include/mbedtls/cipher.h ****  *  This file is part of Mbed TLS (https://tls.mbed.org)
  27:.\Source\mbedtls_open\include/mbedtls/cipher.h ****  */
  28:.\Source\mbedtls_open\include/mbedtls/cipher.h **** 
  29:.\Source\mbedtls_open\include/mbedtls/cipher.h **** #ifndef MBEDTLS_CIPHER_H
  30:.\Source\mbedtls_open\include/mbedtls/cipher.h **** #define MBEDTLS_CIPHER_H
  31:.\Source\mbedtls_open\include/mbedtls/cipher.h **** 
  32:.\Source\mbedtls_open\include/mbedtls/cipher.h **** #if !defined(MBEDTLS_CONFIG_FILE)
  33:.\Source\mbedtls_open\include/mbedtls/cipher.h **** #include "config.h"
  34:.\Source\mbedtls_open\include/mbedtls/cipher.h **** #else
  35:.\Source\mbedtls_open\include/mbedtls/cipher.h **** #include MBEDTLS_CONFIG_FILE
  36:.\Source\mbedtls_open\include/mbedtls/cipher.h **** #endif
  37:.\Source\mbedtls_open\include/mbedtls/cipher.h **** 
  38:.\Source\mbedtls_open\include/mbedtls/cipher.h **** #include <stddef.h>
  39:.\Source\mbedtls_open\include/mbedtls/cipher.h **** 
  40:.\Source\mbedtls_open\include/mbedtls/cipher.h **** #if defined(MBEDTLS_GCM_C) || defined(MBEDTLS_CCM_C) || defined(MBEDTLS_CHACHAPOLY_C)
  41:.\Source\mbedtls_open\include/mbedtls/cipher.h **** #define MBEDTLS_CIPHER_MODE_AEAD
  42:.\Source\mbedtls_open\include/mbedtls/cipher.h **** #endif
  43:.\Source\mbedtls_open\include/mbedtls/cipher.h **** 
  44:.\Source\mbedtls_open\include/mbedtls/cipher.h **** #if defined(MBEDTLS_CIPHER_MODE_CBC)
  45:.\Source\mbedtls_open\include/mbedtls/cipher.h **** #define MBEDTLS_CIPHER_MODE_WITH_PADDING
  46:.\Source\mbedtls_open\include/mbedtls/cipher.h **** #endif
ARM GAS  C:\Users\Phuong\AppData\Local\Temp\ccnzvfGe.s 			page 43


  47:.\Source\mbedtls_open\include/mbedtls/cipher.h **** 
  48:.\Source\mbedtls_open\include/mbedtls/cipher.h **** #if defined(MBEDTLS_ARC4_C) || defined(MBEDTLS_CIPHER_NULL_CIPHER) || \
  49:.\Source\mbedtls_open\include/mbedtls/cipher.h ****     defined(MBEDTLS_CHACHA20_C)
  50:.\Source\mbedtls_open\include/mbedtls/cipher.h **** #define MBEDTLS_CIPHER_MODE_STREAM
  51:.\Source\mbedtls_open\include/mbedtls/cipher.h **** #endif
  52:.\Source\mbedtls_open\include/mbedtls/cipher.h **** 
  53:.\Source\mbedtls_open\include/mbedtls/cipher.h **** #if ( defined(__ARMCC_VERSION) || defined(_MSC_VER) ) && \
  54:.\Source\mbedtls_open\include/mbedtls/cipher.h ****     !defined(inline) && !defined(__cplusplus)
  55:.\Source\mbedtls_open\include/mbedtls/cipher.h **** #define inline __inline
  56:.\Source\mbedtls_open\include/mbedtls/cipher.h **** #endif
  57:.\Source\mbedtls_open\include/mbedtls/cipher.h **** 
  58:.\Source\mbedtls_open\include/mbedtls/cipher.h **** #define MBEDTLS_ERR_CIPHER_FEATURE_UNAVAILABLE  -0x6080  /**< The selected feature is not available
  59:.\Source\mbedtls_open\include/mbedtls/cipher.h **** #define MBEDTLS_ERR_CIPHER_BAD_INPUT_DATA       -0x6100  /**< Bad input parameters. */
  60:.\Source\mbedtls_open\include/mbedtls/cipher.h **** #define MBEDTLS_ERR_CIPHER_ALLOC_FAILED         -0x6180  /**< Failed to allocate memory. */
  61:.\Source\mbedtls_open\include/mbedtls/cipher.h **** #define MBEDTLS_ERR_CIPHER_INVALID_PADDING      -0x6200  /**< Input data contains invalid padding a
  62:.\Source\mbedtls_open\include/mbedtls/cipher.h **** #define MBEDTLS_ERR_CIPHER_FULL_BLOCK_EXPECTED  -0x6280  /**< Decryption of block requires a full b
  63:.\Source\mbedtls_open\include/mbedtls/cipher.h **** #define MBEDTLS_ERR_CIPHER_AUTH_FAILED          -0x6300  /**< Authentication failed (for AEAD modes
  64:.\Source\mbedtls_open\include/mbedtls/cipher.h **** #define MBEDTLS_ERR_CIPHER_INVALID_CONTEXT      -0x6380  /**< The context is invalid. For example, 
  65:.\Source\mbedtls_open\include/mbedtls/cipher.h **** #define MBEDTLS_ERR_CIPHER_HW_ACCEL_FAILED      -0x6400  /**< Cipher hardware accelerator failed. *
  66:.\Source\mbedtls_open\include/mbedtls/cipher.h **** 
  67:.\Source\mbedtls_open\include/mbedtls/cipher.h **** #define MBEDTLS_CIPHER_VARIABLE_IV_LEN     0x01    /**< Cipher accepts IVs of variable length. */
  68:.\Source\mbedtls_open\include/mbedtls/cipher.h **** #define MBEDTLS_CIPHER_VARIABLE_KEY_LEN    0x02    /**< Cipher accepts keys of variable length. */
  69:.\Source\mbedtls_open\include/mbedtls/cipher.h **** 
  70:.\Source\mbedtls_open\include/mbedtls/cipher.h **** #ifdef __cplusplus
  71:.\Source\mbedtls_open\include/mbedtls/cipher.h **** extern "C" {
  72:.\Source\mbedtls_open\include/mbedtls/cipher.h **** #endif
  73:.\Source\mbedtls_open\include/mbedtls/cipher.h **** 
  74:.\Source\mbedtls_open\include/mbedtls/cipher.h **** /**
  75:.\Source\mbedtls_open\include/mbedtls/cipher.h ****  * \brief     Supported cipher types.
  76:.\Source\mbedtls_open\include/mbedtls/cipher.h ****  *
  77:.\Source\mbedtls_open\include/mbedtls/cipher.h ****  * \warning   RC4 and DES are considered weak ciphers and their use
  78:.\Source\mbedtls_open\include/mbedtls/cipher.h ****  *            constitutes a security risk. Arm recommends considering stronger
  79:.\Source\mbedtls_open\include/mbedtls/cipher.h ****  *            ciphers instead.
  80:.\Source\mbedtls_open\include/mbedtls/cipher.h ****  */
  81:.\Source\mbedtls_open\include/mbedtls/cipher.h **** typedef enum {
  82:.\Source\mbedtls_open\include/mbedtls/cipher.h ****     MBEDTLS_CIPHER_ID_NONE = 0,  /**< Placeholder to mark the end of cipher ID lists. */
  83:.\Source\mbedtls_open\include/mbedtls/cipher.h ****     MBEDTLS_CIPHER_ID_NULL,      /**< The identity cipher, treated as a stream cipher. */
  84:.\Source\mbedtls_open\include/mbedtls/cipher.h ****     MBEDTLS_CIPHER_ID_AES,       /**< The AES cipher. */
  85:.\Source\mbedtls_open\include/mbedtls/cipher.h ****     MBEDTLS_CIPHER_ID_DES,       /**< The DES cipher. */
  86:.\Source\mbedtls_open\include/mbedtls/cipher.h ****     MBEDTLS_CIPHER_ID_3DES,      /**< The Triple DES cipher. */
  87:.\Source\mbedtls_open\include/mbedtls/cipher.h ****     MBEDTLS_CIPHER_ID_CAMELLIA,  /**< The Camellia cipher. */
  88:.\Source\mbedtls_open\include/mbedtls/cipher.h ****     MBEDTLS_CIPHER_ID_BLOWFISH,  /**< The Blowfish cipher. */
  89:.\Source\mbedtls_open\include/mbedtls/cipher.h ****     MBEDTLS_CIPHER_ID_ARC4,      /**< The RC4 cipher. */
  90:.\Source\mbedtls_open\include/mbedtls/cipher.h ****     MBEDTLS_CIPHER_ID_ARIA,      /**< The Aria cipher. */
  91:.\Source\mbedtls_open\include/mbedtls/cipher.h ****     MBEDTLS_CIPHER_ID_CHACHA20,  /**< The ChaCha20 cipher. */
  92:.\Source\mbedtls_open\include/mbedtls/cipher.h **** } mbedtls_cipher_id_t;
  93:.\Source\mbedtls_open\include/mbedtls/cipher.h **** 
  94:.\Source\mbedtls_open\include/mbedtls/cipher.h **** /**
  95:.\Source\mbedtls_open\include/mbedtls/cipher.h ****  * \brief     Supported {cipher type, cipher mode} pairs.
  96:.\Source\mbedtls_open\include/mbedtls/cipher.h ****  *
  97:.\Source\mbedtls_open\include/mbedtls/cipher.h ****  * \warning   RC4 and DES are considered weak ciphers and their use
  98:.\Source\mbedtls_open\include/mbedtls/cipher.h ****  *            constitutes a security risk. Arm recommends considering stronger
  99:.\Source\mbedtls_open\include/mbedtls/cipher.h ****  *            ciphers instead.
 100:.\Source\mbedtls_open\include/mbedtls/cipher.h ****  */
 101:.\Source\mbedtls_open\include/mbedtls/cipher.h **** typedef enum {
 102:.\Source\mbedtls_open\include/mbedtls/cipher.h ****     MBEDTLS_CIPHER_NONE = 0,             /**< Placeholder to mark the end of cipher-pair lists. */
 103:.\Source\mbedtls_open\include/mbedtls/cipher.h ****     MBEDTLS_CIPHER_NULL,                 /**< The identity stream cipher. */
ARM GAS  C:\Users\Phuong\AppData\Local\Temp\ccnzvfGe.s 			page 44


 104:.\Source\mbedtls_open\include/mbedtls/cipher.h ****     MBEDTLS_CIPHER_AES_128_ECB,          /**< AES cipher with 128-bit ECB mode. */
 105:.\Source\mbedtls_open\include/mbedtls/cipher.h ****     MBEDTLS_CIPHER_AES_192_ECB,          /**< AES cipher with 192-bit ECB mode. */
 106:.\Source\mbedtls_open\include/mbedtls/cipher.h ****     MBEDTLS_CIPHER_AES_256_ECB,          /**< AES cipher with 256-bit ECB mode. */
 107:.\Source\mbedtls_open\include/mbedtls/cipher.h ****     MBEDTLS_CIPHER_AES_128_CBC,          /**< AES cipher with 128-bit CBC mode. */
 108:.\Source\mbedtls_open\include/mbedtls/cipher.h ****     MBEDTLS_CIPHER_AES_192_CBC,          /**< AES cipher with 192-bit CBC mode. */
 109:.\Source\mbedtls_open\include/mbedtls/cipher.h ****     MBEDTLS_CIPHER_AES_256_CBC,          /**< AES cipher with 256-bit CBC mode. */
 110:.\Source\mbedtls_open\include/mbedtls/cipher.h ****     MBEDTLS_CIPHER_AES_128_CFB128,       /**< AES cipher with 128-bit CFB128 mode. */
 111:.\Source\mbedtls_open\include/mbedtls/cipher.h ****     MBEDTLS_CIPHER_AES_192_CFB128,       /**< AES cipher with 192-bit CFB128 mode. */
 112:.\Source\mbedtls_open\include/mbedtls/cipher.h ****     MBEDTLS_CIPHER_AES_256_CFB128,       /**< AES cipher with 256-bit CFB128 mode. */
 113:.\Source\mbedtls_open\include/mbedtls/cipher.h ****     MBEDTLS_CIPHER_AES_128_CTR,          /**< AES cipher with 128-bit CTR mode. */
 114:.\Source\mbedtls_open\include/mbedtls/cipher.h ****     MBEDTLS_CIPHER_AES_192_CTR,          /**< AES cipher with 192-bit CTR mode. */
 115:.\Source\mbedtls_open\include/mbedtls/cipher.h ****     MBEDTLS_CIPHER_AES_256_CTR,          /**< AES cipher with 256-bit CTR mode. */
 116:.\Source\mbedtls_open\include/mbedtls/cipher.h ****     MBEDTLS_CIPHER_AES_128_GCM,          /**< AES cipher with 128-bit GCM mode. */
 117:.\Source\mbedtls_open\include/mbedtls/cipher.h ****     MBEDTLS_CIPHER_AES_192_GCM,          /**< AES cipher with 192-bit GCM mode. */
 118:.\Source\mbedtls_open\include/mbedtls/cipher.h ****     MBEDTLS_CIPHER_AES_256_GCM,          /**< AES cipher with 256-bit GCM mode. */
 119:.\Source\mbedtls_open\include/mbedtls/cipher.h ****     MBEDTLS_CIPHER_CAMELLIA_128_ECB,     /**< Camellia cipher with 128-bit ECB mode. */
 120:.\Source\mbedtls_open\include/mbedtls/cipher.h ****     MBEDTLS_CIPHER_CAMELLIA_192_ECB,     /**< Camellia cipher with 192-bit ECB mode. */
 121:.\Source\mbedtls_open\include/mbedtls/cipher.h ****     MBEDTLS_CIPHER_CAMELLIA_256_ECB,     /**< Camellia cipher with 256-bit ECB mode. */
 122:.\Source\mbedtls_open\include/mbedtls/cipher.h ****     MBEDTLS_CIPHER_CAMELLIA_128_CBC,     /**< Camellia cipher with 128-bit CBC mode. */
 123:.\Source\mbedtls_open\include/mbedtls/cipher.h ****     MBEDTLS_CIPHER_CAMELLIA_192_CBC,     /**< Camellia cipher with 192-bit CBC mode. */
 124:.\Source\mbedtls_open\include/mbedtls/cipher.h ****     MBEDTLS_CIPHER_CAMELLIA_256_CBC,     /**< Camellia cipher with 256-bit CBC mode. */
 125:.\Source\mbedtls_open\include/mbedtls/cipher.h ****     MBEDTLS_CIPHER_CAMELLIA_128_CFB128,  /**< Camellia cipher with 128-bit CFB128 mode. */
 126:.\Source\mbedtls_open\include/mbedtls/cipher.h ****     MBEDTLS_CIPHER_CAMELLIA_192_CFB128,  /**< Camellia cipher with 192-bit CFB128 mode. */
 127:.\Source\mbedtls_open\include/mbedtls/cipher.h ****     MBEDTLS_CIPHER_CAMELLIA_256_CFB128,  /**< Camellia cipher with 256-bit CFB128 mode. */
 128:.\Source\mbedtls_open\include/mbedtls/cipher.h ****     MBEDTLS_CIPHER_CAMELLIA_128_CTR,     /**< Camellia cipher with 128-bit CTR mode. */
 129:.\Source\mbedtls_open\include/mbedtls/cipher.h ****     MBEDTLS_CIPHER_CAMELLIA_192_CTR,     /**< Camellia cipher with 192-bit CTR mode. */
 130:.\Source\mbedtls_open\include/mbedtls/cipher.h ****     MBEDTLS_CIPHER_CAMELLIA_256_CTR,     /**< Camellia cipher with 256-bit CTR mode. */
 131:.\Source\mbedtls_open\include/mbedtls/cipher.h ****     MBEDTLS_CIPHER_CAMELLIA_128_GCM,     /**< Camellia cipher with 128-bit GCM mode. */
 132:.\Source\mbedtls_open\include/mbedtls/cipher.h ****     MBEDTLS_CIPHER_CAMELLIA_192_GCM,     /**< Camellia cipher with 192-bit GCM mode. */
 133:.\Source\mbedtls_open\include/mbedtls/cipher.h ****     MBEDTLS_CIPHER_CAMELLIA_256_GCM,     /**< Camellia cipher with 256-bit GCM mode. */
 134:.\Source\mbedtls_open\include/mbedtls/cipher.h ****     MBEDTLS_CIPHER_DES_ECB,              /**< DES cipher with ECB mode. */
 135:.\Source\mbedtls_open\include/mbedtls/cipher.h ****     MBEDTLS_CIPHER_DES_CBC,              /**< DES cipher with CBC mode. */
 136:.\Source\mbedtls_open\include/mbedtls/cipher.h ****     MBEDTLS_CIPHER_DES_EDE_ECB,          /**< DES cipher with EDE ECB mode. */
 137:.\Source\mbedtls_open\include/mbedtls/cipher.h ****     MBEDTLS_CIPHER_DES_EDE_CBC,          /**< DES cipher with EDE CBC mode. */
 138:.\Source\mbedtls_open\include/mbedtls/cipher.h ****     MBEDTLS_CIPHER_DES_EDE3_ECB,         /**< DES cipher with EDE3 ECB mode. */
 139:.\Source\mbedtls_open\include/mbedtls/cipher.h ****     MBEDTLS_CIPHER_DES_EDE3_CBC,         /**< DES cipher with EDE3 CBC mode. */
 140:.\Source\mbedtls_open\include/mbedtls/cipher.h ****     MBEDTLS_CIPHER_BLOWFISH_ECB,         /**< Blowfish cipher with ECB mode. */
 141:.\Source\mbedtls_open\include/mbedtls/cipher.h ****     MBEDTLS_CIPHER_BLOWFISH_CBC,         /**< Blowfish cipher with CBC mode. */
 142:.\Source\mbedtls_open\include/mbedtls/cipher.h ****     MBEDTLS_CIPHER_BLOWFISH_CFB64,       /**< Blowfish cipher with CFB64 mode. */
 143:.\Source\mbedtls_open\include/mbedtls/cipher.h ****     MBEDTLS_CIPHER_BLOWFISH_CTR,         /**< Blowfish cipher with CTR mode. */
 144:.\Source\mbedtls_open\include/mbedtls/cipher.h ****     MBEDTLS_CIPHER_ARC4_128,             /**< RC4 cipher with 128-bit mode. */
 145:.\Source\mbedtls_open\include/mbedtls/cipher.h ****     MBEDTLS_CIPHER_AES_128_CCM,          /**< AES cipher with 128-bit CCM mode. */
 146:.\Source\mbedtls_open\include/mbedtls/cipher.h ****     MBEDTLS_CIPHER_AES_192_CCM,          /**< AES cipher with 192-bit CCM mode. */
 147:.\Source\mbedtls_open\include/mbedtls/cipher.h ****     MBEDTLS_CIPHER_AES_256_CCM,          /**< AES cipher with 256-bit CCM mode. */
 148:.\Source\mbedtls_open\include/mbedtls/cipher.h ****     MBEDTLS_CIPHER_CAMELLIA_128_CCM,     /**< Camellia cipher with 128-bit CCM mode. */
 149:.\Source\mbedtls_open\include/mbedtls/cipher.h ****     MBEDTLS_CIPHER_CAMELLIA_192_CCM,     /**< Camellia cipher with 192-bit CCM mode. */
 150:.\Source\mbedtls_open\include/mbedtls/cipher.h ****     MBEDTLS_CIPHER_CAMELLIA_256_CCM,     /**< Camellia cipher with 256-bit CCM mode. */
 151:.\Source\mbedtls_open\include/mbedtls/cipher.h ****     MBEDTLS_CIPHER_ARIA_128_ECB,         /**< Aria cipher with 128-bit key and ECB mode. */
 152:.\Source\mbedtls_open\include/mbedtls/cipher.h ****     MBEDTLS_CIPHER_ARIA_192_ECB,         /**< Aria cipher with 192-bit key and ECB mode. */
 153:.\Source\mbedtls_open\include/mbedtls/cipher.h ****     MBEDTLS_CIPHER_ARIA_256_ECB,         /**< Aria cipher with 256-bit key and ECB mode. */
 154:.\Source\mbedtls_open\include/mbedtls/cipher.h ****     MBEDTLS_CIPHER_ARIA_128_CBC,         /**< Aria cipher with 128-bit key and CBC mode. */
 155:.\Source\mbedtls_open\include/mbedtls/cipher.h ****     MBEDTLS_CIPHER_ARIA_192_CBC,         /**< Aria cipher with 192-bit key and CBC mode. */
 156:.\Source\mbedtls_open\include/mbedtls/cipher.h ****     MBEDTLS_CIPHER_ARIA_256_CBC,         /**< Aria cipher with 256-bit key and CBC mode. */
 157:.\Source\mbedtls_open\include/mbedtls/cipher.h ****     MBEDTLS_CIPHER_ARIA_128_CFB128,      /**< Aria cipher with 128-bit key and CFB-128 mode. */
 158:.\Source\mbedtls_open\include/mbedtls/cipher.h ****     MBEDTLS_CIPHER_ARIA_192_CFB128,      /**< Aria cipher with 192-bit key and CFB-128 mode. */
 159:.\Source\mbedtls_open\include/mbedtls/cipher.h ****     MBEDTLS_CIPHER_ARIA_256_CFB128,      /**< Aria cipher with 256-bit key and CFB-128 mode. */
 160:.\Source\mbedtls_open\include/mbedtls/cipher.h ****     MBEDTLS_CIPHER_ARIA_128_CTR,         /**< Aria cipher with 128-bit key and CTR mode. */
ARM GAS  C:\Users\Phuong\AppData\Local\Temp\ccnzvfGe.s 			page 45


 161:.\Source\mbedtls_open\include/mbedtls/cipher.h ****     MBEDTLS_CIPHER_ARIA_192_CTR,         /**< Aria cipher with 192-bit key and CTR mode. */
 162:.\Source\mbedtls_open\include/mbedtls/cipher.h ****     MBEDTLS_CIPHER_ARIA_256_CTR,         /**< Aria cipher with 256-bit key and CTR mode. */
 163:.\Source\mbedtls_open\include/mbedtls/cipher.h ****     MBEDTLS_CIPHER_ARIA_128_GCM,         /**< Aria cipher with 128-bit key and GCM mode. */
 164:.\Source\mbedtls_open\include/mbedtls/cipher.h ****     MBEDTLS_CIPHER_ARIA_192_GCM,         /**< Aria cipher with 192-bit key and GCM mode. */
 165:.\Source\mbedtls_open\include/mbedtls/cipher.h ****     MBEDTLS_CIPHER_ARIA_256_GCM,         /**< Aria cipher with 256-bit key and GCM mode. */
 166:.\Source\mbedtls_open\include/mbedtls/cipher.h ****     MBEDTLS_CIPHER_ARIA_128_CCM,         /**< Aria cipher with 128-bit key and CCM mode. */
 167:.\Source\mbedtls_open\include/mbedtls/cipher.h ****     MBEDTLS_CIPHER_ARIA_192_CCM,         /**< Aria cipher with 192-bit key and CCM mode. */
 168:.\Source\mbedtls_open\include/mbedtls/cipher.h ****     MBEDTLS_CIPHER_ARIA_256_CCM,         /**< Aria cipher with 256-bit key and CCM mode. */
 169:.\Source\mbedtls_open\include/mbedtls/cipher.h ****     MBEDTLS_CIPHER_AES_128_OFB,          /**< AES 128-bit cipher in OFB mode. */
 170:.\Source\mbedtls_open\include/mbedtls/cipher.h ****     MBEDTLS_CIPHER_AES_192_OFB,          /**< AES 192-bit cipher in OFB mode. */
 171:.\Source\mbedtls_open\include/mbedtls/cipher.h ****     MBEDTLS_CIPHER_AES_256_OFB,          /**< AES 256-bit cipher in OFB mode. */
 172:.\Source\mbedtls_open\include/mbedtls/cipher.h ****     MBEDTLS_CIPHER_AES_128_XTS,          /**< AES 128-bit cipher in XTS block mode. */
 173:.\Source\mbedtls_open\include/mbedtls/cipher.h ****     MBEDTLS_CIPHER_AES_256_XTS,          /**< AES 256-bit cipher in XTS block mode. */
 174:.\Source\mbedtls_open\include/mbedtls/cipher.h ****     MBEDTLS_CIPHER_CHACHA20,             /**< ChaCha20 stream cipher. */
 175:.\Source\mbedtls_open\include/mbedtls/cipher.h ****     MBEDTLS_CIPHER_CHACHA20_POLY1305,    /**< ChaCha20-Poly1305 AEAD cipher. */
 176:.\Source\mbedtls_open\include/mbedtls/cipher.h **** } mbedtls_cipher_type_t;
 177:.\Source\mbedtls_open\include/mbedtls/cipher.h **** 
 178:.\Source\mbedtls_open\include/mbedtls/cipher.h **** /** Supported cipher modes. */
 179:.\Source\mbedtls_open\include/mbedtls/cipher.h **** typedef enum {
 180:.\Source\mbedtls_open\include/mbedtls/cipher.h ****     MBEDTLS_MODE_NONE = 0,               /**< None. */
 181:.\Source\mbedtls_open\include/mbedtls/cipher.h ****     MBEDTLS_MODE_ECB,                    /**< The ECB cipher mode. */
 182:.\Source\mbedtls_open\include/mbedtls/cipher.h ****     MBEDTLS_MODE_CBC,                    /**< The CBC cipher mode. */
 183:.\Source\mbedtls_open\include/mbedtls/cipher.h ****     MBEDTLS_MODE_CFB,                    /**< The CFB cipher mode. */
 184:.\Source\mbedtls_open\include/mbedtls/cipher.h ****     MBEDTLS_MODE_OFB,                    /**< The OFB cipher mode. */
 185:.\Source\mbedtls_open\include/mbedtls/cipher.h ****     MBEDTLS_MODE_CTR,                    /**< The CTR cipher mode. */
 186:.\Source\mbedtls_open\include/mbedtls/cipher.h ****     MBEDTLS_MODE_GCM,                    /**< The GCM cipher mode. */
 187:.\Source\mbedtls_open\include/mbedtls/cipher.h ****     MBEDTLS_MODE_STREAM,                 /**< The stream cipher mode. */
 188:.\Source\mbedtls_open\include/mbedtls/cipher.h ****     MBEDTLS_MODE_CCM,                    /**< The CCM cipher mode. */
 189:.\Source\mbedtls_open\include/mbedtls/cipher.h ****     MBEDTLS_MODE_XTS,                    /**< The XTS cipher mode. */
 190:.\Source\mbedtls_open\include/mbedtls/cipher.h ****     MBEDTLS_MODE_CHACHAPOLY,             /**< The ChaCha-Poly cipher mode. */
 191:.\Source\mbedtls_open\include/mbedtls/cipher.h **** } mbedtls_cipher_mode_t;
 192:.\Source\mbedtls_open\include/mbedtls/cipher.h **** 
 193:.\Source\mbedtls_open\include/mbedtls/cipher.h **** /** Supported cipher padding types. */
 194:.\Source\mbedtls_open\include/mbedtls/cipher.h **** typedef enum {
 195:.\Source\mbedtls_open\include/mbedtls/cipher.h ****     MBEDTLS_PADDING_PKCS7 = 0,     /**< PKCS7 padding (default).        */
 196:.\Source\mbedtls_open\include/mbedtls/cipher.h ****     MBEDTLS_PADDING_ONE_AND_ZEROS, /**< ISO/IEC 7816-4 padding.         */
 197:.\Source\mbedtls_open\include/mbedtls/cipher.h ****     MBEDTLS_PADDING_ZEROS_AND_LEN, /**< ANSI X.923 padding.             */
 198:.\Source\mbedtls_open\include/mbedtls/cipher.h ****     MBEDTLS_PADDING_ZEROS,         /**< Zero padding (not reversible). */
 199:.\Source\mbedtls_open\include/mbedtls/cipher.h ****     MBEDTLS_PADDING_NONE,          /**< Never pad (full blocks only).   */
 200:.\Source\mbedtls_open\include/mbedtls/cipher.h **** } mbedtls_cipher_padding_t;
 201:.\Source\mbedtls_open\include/mbedtls/cipher.h **** 
 202:.\Source\mbedtls_open\include/mbedtls/cipher.h **** /** Type of operation. */
 203:.\Source\mbedtls_open\include/mbedtls/cipher.h **** typedef enum {
 204:.\Source\mbedtls_open\include/mbedtls/cipher.h ****     MBEDTLS_OPERATION_NONE = -1,
 205:.\Source\mbedtls_open\include/mbedtls/cipher.h ****     MBEDTLS_DECRYPT = 0,
 206:.\Source\mbedtls_open\include/mbedtls/cipher.h ****     MBEDTLS_ENCRYPT,
 207:.\Source\mbedtls_open\include/mbedtls/cipher.h **** } mbedtls_operation_t;
 208:.\Source\mbedtls_open\include/mbedtls/cipher.h **** 
 209:.\Source\mbedtls_open\include/mbedtls/cipher.h **** enum {
 210:.\Source\mbedtls_open\include/mbedtls/cipher.h ****     /** Undefined key length. */
 211:.\Source\mbedtls_open\include/mbedtls/cipher.h ****     MBEDTLS_KEY_LENGTH_NONE = 0,
 212:.\Source\mbedtls_open\include/mbedtls/cipher.h ****     /** Key length, in bits (including parity), for DES keys. */
 213:.\Source\mbedtls_open\include/mbedtls/cipher.h ****     MBEDTLS_KEY_LENGTH_DES  = 64,
 214:.\Source\mbedtls_open\include/mbedtls/cipher.h ****     /** Key length in bits, including parity, for DES in two-key EDE. */
 215:.\Source\mbedtls_open\include/mbedtls/cipher.h ****     MBEDTLS_KEY_LENGTH_DES_EDE = 128,
 216:.\Source\mbedtls_open\include/mbedtls/cipher.h ****     /** Key length in bits, including parity, for DES in three-key EDE. */
 217:.\Source\mbedtls_open\include/mbedtls/cipher.h ****     MBEDTLS_KEY_LENGTH_DES_EDE3 = 192,
ARM GAS  C:\Users\Phuong\AppData\Local\Temp\ccnzvfGe.s 			page 46


 218:.\Source\mbedtls_open\include/mbedtls/cipher.h **** };
 219:.\Source\mbedtls_open\include/mbedtls/cipher.h **** 
 220:.\Source\mbedtls_open\include/mbedtls/cipher.h **** /** Maximum length of any IV, in Bytes. */
 221:.\Source\mbedtls_open\include/mbedtls/cipher.h **** #define MBEDTLS_MAX_IV_LENGTH      16
 222:.\Source\mbedtls_open\include/mbedtls/cipher.h **** /** Maximum block size of any cipher, in Bytes. */
 223:.\Source\mbedtls_open\include/mbedtls/cipher.h **** #define MBEDTLS_MAX_BLOCK_LENGTH   16
 224:.\Source\mbedtls_open\include/mbedtls/cipher.h **** 
 225:.\Source\mbedtls_open\include/mbedtls/cipher.h **** /**
 226:.\Source\mbedtls_open\include/mbedtls/cipher.h ****  * Base cipher information (opaque struct).
 227:.\Source\mbedtls_open\include/mbedtls/cipher.h ****  */
 228:.\Source\mbedtls_open\include/mbedtls/cipher.h **** typedef struct mbedtls_cipher_base_t mbedtls_cipher_base_t;
 229:.\Source\mbedtls_open\include/mbedtls/cipher.h **** 
 230:.\Source\mbedtls_open\include/mbedtls/cipher.h **** /**
 231:.\Source\mbedtls_open\include/mbedtls/cipher.h ****  * CMAC context (opaque struct).
 232:.\Source\mbedtls_open\include/mbedtls/cipher.h ****  */
 233:.\Source\mbedtls_open\include/mbedtls/cipher.h **** typedef struct mbedtls_cmac_context_t mbedtls_cmac_context_t;
 234:.\Source\mbedtls_open\include/mbedtls/cipher.h **** 
 235:.\Source\mbedtls_open\include/mbedtls/cipher.h **** /**
 236:.\Source\mbedtls_open\include/mbedtls/cipher.h ****  * Cipher information. Allows calling cipher functions
 237:.\Source\mbedtls_open\include/mbedtls/cipher.h ****  * in a generic way.
 238:.\Source\mbedtls_open\include/mbedtls/cipher.h ****  */
 239:.\Source\mbedtls_open\include/mbedtls/cipher.h **** typedef struct mbedtls_cipher_info_t
 240:.\Source\mbedtls_open\include/mbedtls/cipher.h **** {
 241:.\Source\mbedtls_open\include/mbedtls/cipher.h ****     /** Full cipher identifier. For example,
 242:.\Source\mbedtls_open\include/mbedtls/cipher.h ****      * MBEDTLS_CIPHER_AES_256_CBC.
 243:.\Source\mbedtls_open\include/mbedtls/cipher.h ****      */
 244:.\Source\mbedtls_open\include/mbedtls/cipher.h ****     mbedtls_cipher_type_t type;
 245:.\Source\mbedtls_open\include/mbedtls/cipher.h **** 
 246:.\Source\mbedtls_open\include/mbedtls/cipher.h ****     /** The cipher mode. For example, MBEDTLS_MODE_CBC. */
 247:.\Source\mbedtls_open\include/mbedtls/cipher.h ****     mbedtls_cipher_mode_t mode;
 248:.\Source\mbedtls_open\include/mbedtls/cipher.h **** 
 249:.\Source\mbedtls_open\include/mbedtls/cipher.h ****     /** The cipher key length, in bits. This is the
 250:.\Source\mbedtls_open\include/mbedtls/cipher.h ****      * default length for variable sized ciphers.
 251:.\Source\mbedtls_open\include/mbedtls/cipher.h ****      * Includes parity bits for ciphers like DES.
 252:.\Source\mbedtls_open\include/mbedtls/cipher.h ****      */
 253:.\Source\mbedtls_open\include/mbedtls/cipher.h ****     unsigned int key_bitlen;
 254:.\Source\mbedtls_open\include/mbedtls/cipher.h **** 
 255:.\Source\mbedtls_open\include/mbedtls/cipher.h ****     /** Name of the cipher. */
 256:.\Source\mbedtls_open\include/mbedtls/cipher.h ****     const char * name;
 257:.\Source\mbedtls_open\include/mbedtls/cipher.h **** 
 258:.\Source\mbedtls_open\include/mbedtls/cipher.h ****     /** IV or nonce size, in Bytes.
 259:.\Source\mbedtls_open\include/mbedtls/cipher.h ****      * For ciphers that accept variable IV sizes,
 260:.\Source\mbedtls_open\include/mbedtls/cipher.h ****      * this is the recommended size.
 261:.\Source\mbedtls_open\include/mbedtls/cipher.h ****      */
 262:.\Source\mbedtls_open\include/mbedtls/cipher.h ****     unsigned int iv_size;
 263:.\Source\mbedtls_open\include/mbedtls/cipher.h **** 
 264:.\Source\mbedtls_open\include/mbedtls/cipher.h ****     /** Bitflag comprised of MBEDTLS_CIPHER_VARIABLE_IV_LEN and
 265:.\Source\mbedtls_open\include/mbedtls/cipher.h ****      *  MBEDTLS_CIPHER_VARIABLE_KEY_LEN indicating whether the
 266:.\Source\mbedtls_open\include/mbedtls/cipher.h ****      *  cipher supports variable IV or variable key sizes, respectively.
 267:.\Source\mbedtls_open\include/mbedtls/cipher.h ****      */
 268:.\Source\mbedtls_open\include/mbedtls/cipher.h ****     int flags;
 269:.\Source\mbedtls_open\include/mbedtls/cipher.h **** 
 270:.\Source\mbedtls_open\include/mbedtls/cipher.h ****     /** The block size, in Bytes. */
 271:.\Source\mbedtls_open\include/mbedtls/cipher.h ****     unsigned int block_size;
 272:.\Source\mbedtls_open\include/mbedtls/cipher.h **** 
 273:.\Source\mbedtls_open\include/mbedtls/cipher.h ****     /** Struct for base cipher information and functions. */
 274:.\Source\mbedtls_open\include/mbedtls/cipher.h ****     const mbedtls_cipher_base_t *base;
ARM GAS  C:\Users\Phuong\AppData\Local\Temp\ccnzvfGe.s 			page 47


 275:.\Source\mbedtls_open\include/mbedtls/cipher.h **** 
 276:.\Source\mbedtls_open\include/mbedtls/cipher.h **** } mbedtls_cipher_info_t;
 277:.\Source\mbedtls_open\include/mbedtls/cipher.h **** 
 278:.\Source\mbedtls_open\include/mbedtls/cipher.h **** /**
 279:.\Source\mbedtls_open\include/mbedtls/cipher.h ****  * Generic cipher context.
 280:.\Source\mbedtls_open\include/mbedtls/cipher.h ****  */
 281:.\Source\mbedtls_open\include/mbedtls/cipher.h **** typedef struct mbedtls_cipher_context_t
 282:.\Source\mbedtls_open\include/mbedtls/cipher.h **** {
 283:.\Source\mbedtls_open\include/mbedtls/cipher.h ****     /** Information about the associated cipher. */
 284:.\Source\mbedtls_open\include/mbedtls/cipher.h ****     const mbedtls_cipher_info_t *cipher_info;
 285:.\Source\mbedtls_open\include/mbedtls/cipher.h **** 
 286:.\Source\mbedtls_open\include/mbedtls/cipher.h ****     /** Key length to use. */
 287:.\Source\mbedtls_open\include/mbedtls/cipher.h ****     int key_bitlen;
 288:.\Source\mbedtls_open\include/mbedtls/cipher.h **** 
 289:.\Source\mbedtls_open\include/mbedtls/cipher.h ****     /** Operation that the key of the context has been
 290:.\Source\mbedtls_open\include/mbedtls/cipher.h ****      * initialized for.
 291:.\Source\mbedtls_open\include/mbedtls/cipher.h ****      */
 292:.\Source\mbedtls_open\include/mbedtls/cipher.h ****     mbedtls_operation_t operation;
 293:.\Source\mbedtls_open\include/mbedtls/cipher.h **** 
 294:.\Source\mbedtls_open\include/mbedtls/cipher.h **** #if defined(MBEDTLS_CIPHER_MODE_WITH_PADDING)
 295:.\Source\mbedtls_open\include/mbedtls/cipher.h ****     /** Padding functions to use, if relevant for
 296:.\Source\mbedtls_open\include/mbedtls/cipher.h ****      * the specific cipher mode.
 297:.\Source\mbedtls_open\include/mbedtls/cipher.h ****      */
 298:.\Source\mbedtls_open\include/mbedtls/cipher.h ****     void (*add_padding)( unsigned char *output, size_t olen, size_t data_len );
 299:.\Source\mbedtls_open\include/mbedtls/cipher.h ****     int (*get_padding)( unsigned char *input, size_t ilen, size_t *data_len );
 300:.\Source\mbedtls_open\include/mbedtls/cipher.h **** #endif
 301:.\Source\mbedtls_open\include/mbedtls/cipher.h **** 
 302:.\Source\mbedtls_open\include/mbedtls/cipher.h ****     /** Buffer for input that has not been processed yet. */
 303:.\Source\mbedtls_open\include/mbedtls/cipher.h ****     unsigned char unprocessed_data[MBEDTLS_MAX_BLOCK_LENGTH];
 304:.\Source\mbedtls_open\include/mbedtls/cipher.h **** 
 305:.\Source\mbedtls_open\include/mbedtls/cipher.h ****     /** Number of Bytes that have not been processed yet. */
 306:.\Source\mbedtls_open\include/mbedtls/cipher.h ****     size_t unprocessed_len;
 307:.\Source\mbedtls_open\include/mbedtls/cipher.h **** 
 308:.\Source\mbedtls_open\include/mbedtls/cipher.h ****     /** Current IV or NONCE_COUNTER for CTR-mode, data unit (or sector) number
 309:.\Source\mbedtls_open\include/mbedtls/cipher.h ****      * for XTS-mode. */
 310:.\Source\mbedtls_open\include/mbedtls/cipher.h ****     unsigned char iv[MBEDTLS_MAX_IV_LENGTH];
 311:.\Source\mbedtls_open\include/mbedtls/cipher.h **** 
 312:.\Source\mbedtls_open\include/mbedtls/cipher.h ****     /** IV size in Bytes, for ciphers with variable-length IVs. */
 313:.\Source\mbedtls_open\include/mbedtls/cipher.h ****     size_t iv_size;
 314:.\Source\mbedtls_open\include/mbedtls/cipher.h **** 
 315:.\Source\mbedtls_open\include/mbedtls/cipher.h ****     /** The cipher-specific context. */
 316:.\Source\mbedtls_open\include/mbedtls/cipher.h ****     void *cipher_ctx;
 317:.\Source\mbedtls_open\include/mbedtls/cipher.h **** 
 318:.\Source\mbedtls_open\include/mbedtls/cipher.h **** #if defined(MBEDTLS_CMAC_C)
 319:.\Source\mbedtls_open\include/mbedtls/cipher.h ****     /** CMAC-specific context. */
 320:.\Source\mbedtls_open\include/mbedtls/cipher.h ****     mbedtls_cmac_context_t *cmac_ctx;
 321:.\Source\mbedtls_open\include/mbedtls/cipher.h **** #endif
 322:.\Source\mbedtls_open\include/mbedtls/cipher.h **** } mbedtls_cipher_context_t;
 323:.\Source\mbedtls_open\include/mbedtls/cipher.h **** 
 324:.\Source\mbedtls_open\include/mbedtls/cipher.h **** /**
 325:.\Source\mbedtls_open\include/mbedtls/cipher.h ****  * \brief This function retrieves the list of ciphers supported by the generic
 326:.\Source\mbedtls_open\include/mbedtls/cipher.h ****  * cipher module.
 327:.\Source\mbedtls_open\include/mbedtls/cipher.h ****  *
 328:.\Source\mbedtls_open\include/mbedtls/cipher.h ****  * \return      A statically-allocated array of ciphers. The last entry
 329:.\Source\mbedtls_open\include/mbedtls/cipher.h ****  *              is zero.
 330:.\Source\mbedtls_open\include/mbedtls/cipher.h ****  */
 331:.\Source\mbedtls_open\include/mbedtls/cipher.h **** const int *mbedtls_cipher_list( void );
ARM GAS  C:\Users\Phuong\AppData\Local\Temp\ccnzvfGe.s 			page 48


 332:.\Source\mbedtls_open\include/mbedtls/cipher.h **** 
 333:.\Source\mbedtls_open\include/mbedtls/cipher.h **** /**
 334:.\Source\mbedtls_open\include/mbedtls/cipher.h ****  * \brief               This function retrieves the cipher-information
 335:.\Source\mbedtls_open\include/mbedtls/cipher.h ****  *                      structure associated with the given cipher name.
 336:.\Source\mbedtls_open\include/mbedtls/cipher.h ****  *
 337:.\Source\mbedtls_open\include/mbedtls/cipher.h ****  * \param cipher_name   Name of the cipher to search for.
 338:.\Source\mbedtls_open\include/mbedtls/cipher.h ****  *
 339:.\Source\mbedtls_open\include/mbedtls/cipher.h ****  * \return              The cipher information structure associated with the
 340:.\Source\mbedtls_open\include/mbedtls/cipher.h ****  *                      given \p cipher_name.
 341:.\Source\mbedtls_open\include/mbedtls/cipher.h ****  * \return              NULL if the associated cipher information is not found.
 342:.\Source\mbedtls_open\include/mbedtls/cipher.h ****  */
 343:.\Source\mbedtls_open\include/mbedtls/cipher.h **** const mbedtls_cipher_info_t *mbedtls_cipher_info_from_string( const char *cipher_name );
 344:.\Source\mbedtls_open\include/mbedtls/cipher.h **** 
 345:.\Source\mbedtls_open\include/mbedtls/cipher.h **** /**
 346:.\Source\mbedtls_open\include/mbedtls/cipher.h ****  * \brief               This function retrieves the cipher-information
 347:.\Source\mbedtls_open\include/mbedtls/cipher.h ****  *                      structure associated with the given cipher type.
 348:.\Source\mbedtls_open\include/mbedtls/cipher.h ****  *
 349:.\Source\mbedtls_open\include/mbedtls/cipher.h ****  * \param cipher_type   Type of the cipher to search for.
 350:.\Source\mbedtls_open\include/mbedtls/cipher.h ****  *
 351:.\Source\mbedtls_open\include/mbedtls/cipher.h ****  * \return              The cipher information structure associated with the
 352:.\Source\mbedtls_open\include/mbedtls/cipher.h ****  *                      given \p cipher_type.
 353:.\Source\mbedtls_open\include/mbedtls/cipher.h ****  * \return              NULL if the associated cipher information is not found.
 354:.\Source\mbedtls_open\include/mbedtls/cipher.h ****  */
 355:.\Source\mbedtls_open\include/mbedtls/cipher.h **** const mbedtls_cipher_info_t *mbedtls_cipher_info_from_type( const mbedtls_cipher_type_t cipher_type
 356:.\Source\mbedtls_open\include/mbedtls/cipher.h **** 
 357:.\Source\mbedtls_open\include/mbedtls/cipher.h **** /**
 358:.\Source\mbedtls_open\include/mbedtls/cipher.h ****  * \brief               This function retrieves the cipher-information
 359:.\Source\mbedtls_open\include/mbedtls/cipher.h ****  *                      structure associated with the given cipher ID,
 360:.\Source\mbedtls_open\include/mbedtls/cipher.h ****  *                      key size and mode.
 361:.\Source\mbedtls_open\include/mbedtls/cipher.h ****  *
 362:.\Source\mbedtls_open\include/mbedtls/cipher.h ****  * \param cipher_id     The ID of the cipher to search for. For example,
 363:.\Source\mbedtls_open\include/mbedtls/cipher.h ****  *                      #MBEDTLS_CIPHER_ID_AES.
 364:.\Source\mbedtls_open\include/mbedtls/cipher.h ****  * \param key_bitlen    The length of the key in bits.
 365:.\Source\mbedtls_open\include/mbedtls/cipher.h ****  * \param mode          The cipher mode. For example, #MBEDTLS_MODE_CBC.
 366:.\Source\mbedtls_open\include/mbedtls/cipher.h ****  *
 367:.\Source\mbedtls_open\include/mbedtls/cipher.h ****  * \return              The cipher information structure associated with the
 368:.\Source\mbedtls_open\include/mbedtls/cipher.h ****  *                      given \p cipher_id.
 369:.\Source\mbedtls_open\include/mbedtls/cipher.h ****  * \return              NULL if the associated cipher information is not found.
 370:.\Source\mbedtls_open\include/mbedtls/cipher.h ****  */
 371:.\Source\mbedtls_open\include/mbedtls/cipher.h **** const mbedtls_cipher_info_t *mbedtls_cipher_info_from_values( const mbedtls_cipher_id_t cipher_id,
 372:.\Source\mbedtls_open\include/mbedtls/cipher.h ****                                               int key_bitlen,
 373:.\Source\mbedtls_open\include/mbedtls/cipher.h ****                                               const mbedtls_cipher_mode_t mode );
 374:.\Source\mbedtls_open\include/mbedtls/cipher.h **** 
 375:.\Source\mbedtls_open\include/mbedtls/cipher.h **** /**
 376:.\Source\mbedtls_open\include/mbedtls/cipher.h ****  * \brief               This function initializes a \p cipher_context as NONE.
 377:.\Source\mbedtls_open\include/mbedtls/cipher.h ****  */
 378:.\Source\mbedtls_open\include/mbedtls/cipher.h **** void mbedtls_cipher_init( mbedtls_cipher_context_t *ctx );
 379:.\Source\mbedtls_open\include/mbedtls/cipher.h **** 
 380:.\Source\mbedtls_open\include/mbedtls/cipher.h **** /**
 381:.\Source\mbedtls_open\include/mbedtls/cipher.h ****  * \brief               This function frees and clears the cipher-specific
 382:.\Source\mbedtls_open\include/mbedtls/cipher.h ****  *                      context of \p ctx. Freeing \p ctx itself remains the
 383:.\Source\mbedtls_open\include/mbedtls/cipher.h ****  *                      responsibility of the caller.
 384:.\Source\mbedtls_open\include/mbedtls/cipher.h ****  */
 385:.\Source\mbedtls_open\include/mbedtls/cipher.h **** void mbedtls_cipher_free( mbedtls_cipher_context_t *ctx );
 386:.\Source\mbedtls_open\include/mbedtls/cipher.h **** 
 387:.\Source\mbedtls_open\include/mbedtls/cipher.h **** 
 388:.\Source\mbedtls_open\include/mbedtls/cipher.h **** /**
ARM GAS  C:\Users\Phuong\AppData\Local\Temp\ccnzvfGe.s 			page 49


 389:.\Source\mbedtls_open\include/mbedtls/cipher.h ****  * \brief               This function initializes and fills the cipher-context
 390:.\Source\mbedtls_open\include/mbedtls/cipher.h ****  *                      structure with the appropriate values. It also clears
 391:.\Source\mbedtls_open\include/mbedtls/cipher.h ****  *                      the structure.
 392:.\Source\mbedtls_open\include/mbedtls/cipher.h ****  *
 393:.\Source\mbedtls_open\include/mbedtls/cipher.h ****  * \param ctx           The context to initialize. May not be NULL.
 394:.\Source\mbedtls_open\include/mbedtls/cipher.h ****  * \param cipher_info   The cipher to use.
 395:.\Source\mbedtls_open\include/mbedtls/cipher.h ****  *
 396:.\Source\mbedtls_open\include/mbedtls/cipher.h ****  * \return              \c 0 on success.
 397:.\Source\mbedtls_open\include/mbedtls/cipher.h ****  * \return              #MBEDTLS_ERR_CIPHER_BAD_INPUT_DATA on
 398:.\Source\mbedtls_open\include/mbedtls/cipher.h ****  *                      parameter-verification failure.
 399:.\Source\mbedtls_open\include/mbedtls/cipher.h ****  * \return              #MBEDTLS_ERR_CIPHER_ALLOC_FAILED if allocation of the
 400:.\Source\mbedtls_open\include/mbedtls/cipher.h ****  *                      cipher-specific context fails.
 401:.\Source\mbedtls_open\include/mbedtls/cipher.h ****  *
 402:.\Source\mbedtls_open\include/mbedtls/cipher.h ****  * \internal Currently, the function also clears the structure.
 403:.\Source\mbedtls_open\include/mbedtls/cipher.h ****  * In future versions, the caller will be required to call
 404:.\Source\mbedtls_open\include/mbedtls/cipher.h ****  * mbedtls_cipher_init() on the structure first.
 405:.\Source\mbedtls_open\include/mbedtls/cipher.h ****  */
 406:.\Source\mbedtls_open\include/mbedtls/cipher.h **** int mbedtls_cipher_setup( mbedtls_cipher_context_t *ctx, const mbedtls_cipher_info_t *cipher_info )
 407:.\Source\mbedtls_open\include/mbedtls/cipher.h **** 
 408:.\Source\mbedtls_open\include/mbedtls/cipher.h **** /**
 409:.\Source\mbedtls_open\include/mbedtls/cipher.h ****  * \brief        This function returns the block size of the given cipher.
 410:.\Source\mbedtls_open\include/mbedtls/cipher.h ****  *
 411:.\Source\mbedtls_open\include/mbedtls/cipher.h ****  * \param ctx    The context of the cipher. Must be initialized.
 412:.\Source\mbedtls_open\include/mbedtls/cipher.h ****  *
 413:.\Source\mbedtls_open\include/mbedtls/cipher.h ****  * \return       The size of the blocks of the cipher.
 414:.\Source\mbedtls_open\include/mbedtls/cipher.h ****  * \return       0 if \p ctx has not been initialized.
 415:.\Source\mbedtls_open\include/mbedtls/cipher.h ****  */
 416:.\Source\mbedtls_open\include/mbedtls/cipher.h **** static inline unsigned int mbedtls_cipher_get_block_size( const mbedtls_cipher_context_t *ctx )
 417:.\Source\mbedtls_open\include/mbedtls/cipher.h **** {
 418:.\Source\mbedtls_open\include/mbedtls/cipher.h ****     if( NULL == ctx || NULL == ctx->cipher_info )
 1470              		.loc 2 418 0
 1471 002c 0028     		cmp	r0, #0
 1472 002e 05D0     		beq	.L150
 1473 0030 0368     		ldr	r3, [r0]
 1474 0032 002B     		cmp	r3, #0
 1475 0034 05D0     		beq	.L151
 419:.\Source\mbedtls_open\include/mbedtls/cipher.h ****         return 0;
 420:.\Source\mbedtls_open\include/mbedtls/cipher.h **** 
 421:.\Source\mbedtls_open\include/mbedtls/cipher.h ****     return ctx->cipher_info->block_size;
 1476              		.loc 2 421 0
 1477 0036 5B69     		ldr	r3, [r3, #20]
 1478 0038 9A46     		mov	r10, r3
 1479 003a 04E0     		b	.L131
 1480              	.L150:
 419:.\Source\mbedtls_open\include/mbedtls/cipher.h ****         return 0;
 1481              		.loc 2 419 0
 1482 003c 0023     		movs	r3, #0
 1483 003e 9A46     		mov	r10, r3
 1484 0040 01E0     		b	.L131
 1485              	.L151:
 1486 0042 0023     		movs	r3, #0
 1487 0044 9A46     		mov	r10, r3
 1488              	.L131:
 1489              	.LVL200:
 1490              	.LBE18:
 1491              	.LBE17:
 348:Source\mbedtls_open\library/cipher.c ****     {
ARM GAS  C:\Users\Phuong\AppData\Local\Temp\ccnzvfGe.s 			page 50


 1492              		.loc 1 348 0
 1493 0046 2368     		ldr	r3, [r4]
 1494 0048 9B46     		mov	fp, r3
 1495 004a 5D78     		ldrb	r5, [r3, #1]
 1496 004c 012D     		cmp	r5, #1
 1497 004e 0DD1     		bne	.L132
 350:Source\mbedtls_open\library/cipher.c ****             return( MBEDTLS_ERR_CIPHER_FULL_BLOCK_EXPECTED );
 1498              		.loc 1 350 0
 1499 0050 5645     		cmp	r6, r10
 1500 0052 00D0     		beq	.LCB1600
 1501 0054 16E1     		b	.L152	@long jump
 1502              	.LCB1600:
 353:Source\mbedtls_open\library/cipher.c **** 
 1503              		.loc 1 353 0
 1504 0056 3E60     		str	r6, [r7]
 355:Source\mbedtls_open\library/cipher.c ****                     ctx->operation, input, output ) ) )
 1505              		.loc 1 355 0
 1506 0058 2368     		ldr	r3, [r4]
 1507 005a 9B69     		ldr	r3, [r3, #24]
 1508 005c 5D68     		ldr	r5, [r3, #4]
 1509 005e E06B     		ldr	r0, [r4, #60]
 1510              	.LVL201:
 1511 0060 0821     		movs	r1, #8
 1512              	.LVL202:
 1513 0062 6156     		ldrsb	r1, [r4, r1]
 1514 0064 059B     		ldr	r3, [sp, #20]
 1515 0066 049A     		ldr	r2, [sp, #16]
 1516              	.LVL203:
 1517 0068 A847     		blx	r5
 1518              	.LVL204:
 1519 006a 18E1     		b	.L130
 1520              	.LVL205:
 1521              	.L132:
 365:Source\mbedtls_open\library/cipher.c ****     {
 1522              		.loc 1 365 0
 1523 006c 062D     		cmp	r5, #6
 1524 006e 07D1     		bne	.L133
 367:Source\mbedtls_open\library/cipher.c ****         return mbedtls_gcm_update( (mbedtls_gcm_context *) ctx->cipher_ctx, ilen, input,
 1525              		.loc 1 367 0
 1526 0070 3E60     		str	r6, [r7]
 368:Source\mbedtls_open\library/cipher.c ****                            output );
 1527              		.loc 1 368 0
 1528 0072 E06B     		ldr	r0, [r4, #60]
 1529              	.LVL206:
 1530 0074 059B     		ldr	r3, [sp, #20]
 1531 0076 049A     		ldr	r2, [sp, #16]
 1532              	.LVL207:
 1533 0078 3100     		movs	r1, r6
 1534              	.LVL208:
 1535 007a FFF7FEFF 		bl	mbedtls_gcm_update
 1536              	.LVL209:
 1537 007e 0EE1     		b	.L130
 1538              	.LVL210:
 1539              	.L133:
 374:Source\mbedtls_open\library/cipher.c ****     {
 1540              		.loc 1 374 0
 1541 0080 1B78     		ldrb	r3, [r3]
ARM GAS  C:\Users\Phuong\AppData\Local\Temp\ccnzvfGe.s 			page 51


 1542 0082 492B     		cmp	r3, #73
 1543 0084 07D1     		bne	.L134
 376:Source\mbedtls_open\library/cipher.c ****         return mbedtls_chachapoly_update( (mbedtls_chachapoly_context*) ctx->cipher_ctx,
 1544              		.loc 1 376 0
 1545 0086 3E60     		str	r6, [r7]
 377:Source\mbedtls_open\library/cipher.c ****                                                       ilen, input, output );
 1546              		.loc 1 377 0
 1547 0088 E06B     		ldr	r0, [r4, #60]
 1548              	.LVL211:
 1549 008a 059B     		ldr	r3, [sp, #20]
 1550 008c 049A     		ldr	r2, [sp, #16]
 1551              	.LVL212:
 1552 008e 3100     		movs	r1, r6
 1553              	.LVL213:
 1554 0090 FFF7FEFF 		bl	mbedtls_chachapoly_update
 1555              	.LVL214:
 1556 0094 03E1     		b	.L130
 1557              	.LVL215:
 1558              	.L134:
 382:Source\mbedtls_open\library/cipher.c ****     {
 1559              		.loc 1 382 0
 1560 0096 5346     		mov	r3, r10
 1561 0098 002B     		cmp	r3, #0
 1562 009a 00D1     		bne	.LCB1668
 1563 009c F4E0     		b	.L154	@long jump
 1564              	.LCB1668:
 387:Source\mbedtls_open\library/cipher.c ****        ( ctx->unprocessed_len != 0 || ilen % block_size ) )
 1565              		.loc 1 387 0
 1566 009e 049B     		ldr	r3, [sp, #16]
 1567 00a0 059A     		ldr	r2, [sp, #20]
 1568              	.LVL216:
 1569 00a2 9342     		cmp	r3, r2
 1570 00a4 0AD1     		bne	.L135
 387:Source\mbedtls_open\library/cipher.c ****        ( ctx->unprocessed_len != 0 || ilen % block_size ) )
 1571              		.loc 1 387 0 is_stmt 0 discriminator 1
 1572 00a6 636A     		ldr	r3, [r4, #36]
 1573 00a8 002B     		cmp	r3, #0
 1574 00aa 00D0     		beq	.LCB1677
 1575 00ac EEE0     		b	.L155	@long jump
 1576              	.LCB1677:
 388:Source\mbedtls_open\library/cipher.c ****     {
 1577              		.loc 1 388 0 is_stmt 1
 1578 00ae 5146     		mov	r1, r10
 1579              	.LVL217:
 1580 00b0 3000     		movs	r0, r6
 1581              	.LVL218:
 1582 00b2 FFF7FEFF 		bl	__aeabi_uidivmod
 1583              	.LVL219:
 1584 00b6 0029     		cmp	r1, #0
 1585 00b8 00D0     		beq	.LCB1685
 1586 00ba E9E0     		b	.L156	@long jump
 1587              	.LCB1685:
 1588              	.L135:
 394:Source\mbedtls_open\library/cipher.c ****     {
 1589              		.loc 1 394 0
 1590 00bc 022D     		cmp	r5, #2
 1591 00be 00D0     		beq	.LCB1690
ARM GAS  C:\Users\Phuong\AppData\Local\Temp\ccnzvfGe.s 			page 52


 1592 00c0 8CE0     		b	.L136	@long jump
 1593              	.LCB1690:
 1594              	.LVL220:
 1595              	.LBB19:
 401:Source\mbedtls_open\library/cipher.c ****                 ilen <= block_size - ctx->unprocessed_len ) ||
 1596              		.loc 1 401 0
 1597 00c2 0823     		movs	r3, #8
 1598 00c4 E356     		ldrsb	r3, [r4, r3]
 1599 00c6 002B     		cmp	r3, #0
 1600 00c8 07D1     		bne	.L137
 401:Source\mbedtls_open\library/cipher.c ****                 ilen <= block_size - ctx->unprocessed_len ) ||
 1601              		.loc 1 401 0 is_stmt 0 discriminator 1
 1602 00ca E268     		ldr	r2, [r4, #12]
 1603 00cc 002A     		cmp	r2, #0
 1604 00ce 04D0     		beq	.L137
 402:Source\mbedtls_open\library/cipher.c ****             ( ctx->operation == MBEDTLS_DECRYPT && NULL == ctx->add_padding &&
 1605              		.loc 1 402 0 is_stmt 1 discriminator 2
 1606 00d0 5246     		mov	r2, r10
 1607 00d2 616A     		ldr	r1, [r4, #36]
 1608 00d4 521A     		subs	r2, r2, r1
 401:Source\mbedtls_open\library/cipher.c ****                 ilen <= block_size - ctx->unprocessed_len ) ||
 1609              		.loc 1 401 0 discriminator 2
 1610 00d6 9642     		cmp	r6, r2
 1611 00d8 10D9     		bls	.L138
 1612              	.L137:
 402:Source\mbedtls_open\library/cipher.c ****             ( ctx->operation == MBEDTLS_DECRYPT && NULL == ctx->add_padding &&
 1613              		.loc 1 402 0
 1614 00da 002B     		cmp	r3, #0
 1615 00dc 07D1     		bne	.L139
 403:Source\mbedtls_open\library/cipher.c ****                 ilen < block_size - ctx->unprocessed_len ) ||
 1616              		.loc 1 403 0
 1617 00de E268     		ldr	r2, [r4, #12]
 1618 00e0 002A     		cmp	r2, #0
 1619 00e2 04D1     		bne	.L139
 404:Source\mbedtls_open\library/cipher.c ****              ( ctx->operation == MBEDTLS_ENCRYPT &&
 1620              		.loc 1 404 0 discriminator 1
 1621 00e4 5246     		mov	r2, r10
 1622 00e6 616A     		ldr	r1, [r4, #36]
 1623 00e8 521A     		subs	r2, r2, r1
 403:Source\mbedtls_open\library/cipher.c ****                 ilen < block_size - ctx->unprocessed_len ) ||
 1624              		.loc 1 403 0 discriminator 1
 1625 00ea 9642     		cmp	r6, r2
 1626 00ec 06D3     		bcc	.L138
 1627              	.L139:
 404:Source\mbedtls_open\library/cipher.c ****              ( ctx->operation == MBEDTLS_ENCRYPT &&
 1628              		.loc 1 404 0
 1629 00ee 012B     		cmp	r3, #1
 1630 00f0 11D1     		bne	.L140
 406:Source\mbedtls_open\library/cipher.c ****         {
 1631              		.loc 1 406 0
 1632 00f2 5346     		mov	r3, r10
 1633 00f4 626A     		ldr	r2, [r4, #36]
 1634 00f6 9B1A     		subs	r3, r3, r2
 405:Source\mbedtls_open\library/cipher.c ****                 ilen < block_size - ctx->unprocessed_len ) )
 1635              		.loc 1 405 0
 1636 00f8 9E42     		cmp	r6, r3
 1637 00fa 0CD2     		bcs	.L140
ARM GAS  C:\Users\Phuong\AppData\Local\Temp\ccnzvfGe.s 			page 53


 1638              	.L138:
 408:Source\mbedtls_open\library/cipher.c ****                     ilen );
 1639              		.loc 1 408 0
 1640 00fc 606A     		ldr	r0, [r4, #36]
 1641 00fe 1030     		adds	r0, r0, #16
 1642 0100 2018     		adds	r0, r4, r0
 1643 0102 0430     		adds	r0, r0, #4
 1644 0104 3200     		movs	r2, r6
 1645 0106 0499     		ldr	r1, [sp, #16]
 1646 0108 FFF7FEFF 		bl	memcpy
 1647              	.LVL221:
 411:Source\mbedtls_open\library/cipher.c ****             return( 0 );
 1648              		.loc 1 411 0
 1649 010c 636A     		ldr	r3, [r4, #36]
 1650 010e 9B19     		adds	r3, r3, r6
 1651 0110 6362     		str	r3, [r4, #36]
 412:Source\mbedtls_open\library/cipher.c ****         }
 1652              		.loc 1 412 0
 1653 0112 0020     		movs	r0, #0
 1654 0114 C3E0     		b	.L130
 1655              	.L140:
 418:Source\mbedtls_open\library/cipher.c ****         {
 1656              		.loc 1 418 0
 1657 0116 636A     		ldr	r3, [r4, #36]
 1658 0118 002B     		cmp	r3, #0
 1659 011a 29D0     		beq	.L141
 420:Source\mbedtls_open\library/cipher.c **** 
 1660              		.loc 1 420 0
 1661 011c 5246     		mov	r2, r10
 1662 011e D51A     		subs	r5, r2, r3
 1663              	.LVL222:
 422:Source\mbedtls_open\library/cipher.c ****                     copy_len );
 1664              		.loc 1 422 0
 1665 0120 1033     		adds	r3, r3, #16
 1666 0122 E318     		adds	r3, r4, r3
 1667 0124 181D     		adds	r0, r3, #4
 1668 0126 2A00     		movs	r2, r5
 1669 0128 0499     		ldr	r1, [sp, #16]
 1670 012a FFF7FEFF 		bl	memcpy
 1671              	.LVL223:
 425:Source\mbedtls_open\library/cipher.c ****                     ctx->operation, block_size, ctx->iv,
 1672              		.loc 1 425 0
 1673 012e 2368     		ldr	r3, [r4]
 1674 0130 9B69     		ldr	r3, [r3, #24]
 1675 0132 9A68     		ldr	r2, [r3, #8]
 1676 0134 9346     		mov	fp, r2
 1677 0136 0821     		movs	r1, #8
 1678 0138 6156     		ldrsb	r1, [r4, r1]
 426:Source\mbedtls_open\library/cipher.c ****                     ctx->unprocessed_data, output ) ) )
 1679              		.loc 1 426 0
 1680 013a 2300     		movs	r3, r4
 1681 013c 2833     		adds	r3, r3, #40
 427:Source\mbedtls_open\library/cipher.c ****             {
 1682              		.loc 1 427 0
 1683 013e 2200     		movs	r2, r4
 1684 0140 1432     		adds	r2, r2, #20
 425:Source\mbedtls_open\library/cipher.c ****                     ctx->operation, block_size, ctx->iv,
ARM GAS  C:\Users\Phuong\AppData\Local\Temp\ccnzvfGe.s 			page 54


 1685              		.loc 1 425 0
 1686 0142 0598     		ldr	r0, [sp, #20]
 1687 0144 0190     		str	r0, [sp, #4]
 1688 0146 0092     		str	r2, [sp]
 1689 0148 5246     		mov	r2, r10
 1690 014a E06B     		ldr	r0, [r4, #60]
 1691 014c D847     		blx	fp
 1692              	.LVL224:
 1693 014e 0028     		cmp	r0, #0
 1694 0150 00D0     		beq	.LCB1787
 1695 0152 A4E0     		b	.L130	@long jump
 1696              	.LCB1787:
 432:Source\mbedtls_open\library/cipher.c ****             output += block_size;
 1697              		.loc 1 432 0
 1698 0154 3A68     		ldr	r2, [r7]
 1699 0156 5244     		add	r2, r2, r10
 1700 0158 3A60     		str	r2, [r7]
 433:Source\mbedtls_open\library/cipher.c ****             ctx->unprocessed_len = 0;
 1701              		.loc 1 433 0
 1702 015a 0598     		ldr	r0, [sp, #20]
 1703              	.LVL225:
 1704 015c 5044     		add	r0, r0, r10
 1705 015e 0590     		str	r0, [sp, #20]
 1706              	.LVL226:
 434:Source\mbedtls_open\library/cipher.c **** 
 1707              		.loc 1 434 0
 1708 0160 0023     		movs	r3, #0
 1709 0162 6362     		str	r3, [r4, #36]
 436:Source\mbedtls_open\library/cipher.c ****             ilen -= copy_len;
 1710              		.loc 1 436 0
 1711 0164 049B     		ldr	r3, [sp, #16]
 1712 0166 9C46     		mov	ip, r3
 1713 0168 AC44     		add	ip, ip, r5
 1714 016a 6346     		mov	r3, ip
 1715 016c 0493     		str	r3, [sp, #16]
 1716              	.LVL227:
 437:Source\mbedtls_open\library/cipher.c ****         }
 1717              		.loc 1 437 0
 1718 016e 761B     		subs	r6, r6, r5
 1719              	.LVL228:
 1720              	.L141:
 443:Source\mbedtls_open\library/cipher.c ****         {
 1721              		.loc 1 443 0
 1722 0170 002E     		cmp	r6, #0
 1723 0172 1DD0     		beq	.L142
 445:Source\mbedtls_open\library/cipher.c ****             {
 1724              		.loc 1 445 0
 1725 0174 5346     		mov	r3, r10
 1726 0176 002B     		cmp	r3, #0
 1727 0178 00D1     		bne	.LCB1825
 1728 017a 8BE0     		b	.L158	@long jump
 1729              	.LCB1825:
 454:Source\mbedtls_open\library/cipher.c ****             if( copy_len == 0 &&
 1730              		.loc 1 454 0
 1731 017c 5146     		mov	r1, r10
 1732 017e 3000     		movs	r0, r6
 1733 0180 FFF7FEFF 		bl	__aeabi_uidivmod
ARM GAS  C:\Users\Phuong\AppData\Local\Temp\ccnzvfGe.s 			page 55


 1734              	.LVL229:
 1735 0184 0D1E     		subs	r5, r1, #0
 1736              	.LVL230:
 455:Source\mbedtls_open\library/cipher.c ****                 ctx->operation == MBEDTLS_DECRYPT &&
 1737              		.loc 1 455 0
 1738 0186 07D1     		bne	.L143
 456:Source\mbedtls_open\library/cipher.c ****                 NULL != ctx->add_padding)
 1739              		.loc 1 456 0 discriminator 1
 1740 0188 0823     		movs	r3, #8
 1741 018a E356     		ldrsb	r3, [r4, r3]
 455:Source\mbedtls_open\library/cipher.c ****                 ctx->operation == MBEDTLS_DECRYPT &&
 1742              		.loc 1 455 0 discriminator 1
 1743 018c 002B     		cmp	r3, #0
 1744 018e 03D1     		bne	.L143
 456:Source\mbedtls_open\library/cipher.c ****                 NULL != ctx->add_padding)
 1745              		.loc 1 456 0
 1746 0190 E368     		ldr	r3, [r4, #12]
 1747 0192 002B     		cmp	r3, #0
 1748 0194 00D0     		beq	.L143
 459:Source\mbedtls_open\library/cipher.c ****             }
 1749              		.loc 1 459 0
 1750 0196 5546     		mov	r5, r10
 1751              	.L143:
 1752              	.LVL231:
 462:Source\mbedtls_open\library/cipher.c ****                     copy_len );
 1753              		.loc 1 462 0
 1754 0198 2000     		movs	r0, r4
 1755 019a 1430     		adds	r0, r0, #20
 1756 019c 761B     		subs	r6, r6, r5
 1757              	.LVL232:
 1758 019e 049B     		ldr	r3, [sp, #16]
 1759 01a0 9919     		adds	r1, r3, r6
 1760 01a2 2A00     		movs	r2, r5
 1761 01a4 FFF7FEFF 		bl	memcpy
 1762              	.LVL233:
 465:Source\mbedtls_open\library/cipher.c ****             ilen -= copy_len;
 1763              		.loc 1 465 0
 1764 01a8 636A     		ldr	r3, [r4, #36]
 1765 01aa 9C46     		mov	ip, r3
 1766 01ac 6544     		add	r5, r5, ip
 1767              	.LVL234:
 1768 01ae 6562     		str	r5, [r4, #36]
 1769              	.LVL235:
 1770              	.L142:
 472:Source\mbedtls_open\library/cipher.c ****         {
 1771              		.loc 1 472 0
 1772 01b0 002E     		cmp	r6, #0
 1773 01b2 71D0     		beq	.L160
 474:Source\mbedtls_open\library/cipher.c ****                     ctx->operation, ilen, ctx->iv, input, output ) ) )
 1774              		.loc 1 474 0
 1775 01b4 2368     		ldr	r3, [r4]
 1776 01b6 9B69     		ldr	r3, [r3, #24]
 1777 01b8 9D68     		ldr	r5, [r3, #8]
 1778 01ba E06B     		ldr	r0, [r4, #60]
 1779 01bc 0821     		movs	r1, #8
 1780 01be 6156     		ldrsb	r1, [r4, r1]
 475:Source\mbedtls_open\library/cipher.c ****             {
ARM GAS  C:\Users\Phuong\AppData\Local\Temp\ccnzvfGe.s 			page 56


 1781              		.loc 1 475 0
 1782 01c0 2300     		movs	r3, r4
 1783 01c2 2833     		adds	r3, r3, #40
 474:Source\mbedtls_open\library/cipher.c ****                     ctx->operation, ilen, ctx->iv, input, output ) ) )
 1784              		.loc 1 474 0
 1785 01c4 059A     		ldr	r2, [sp, #20]
 1786 01c6 0192     		str	r2, [sp, #4]
 1787 01c8 049A     		ldr	r2, [sp, #16]
 1788 01ca 0092     		str	r2, [sp]
 1789 01cc 3200     		movs	r2, r6
 1790 01ce A847     		blx	r5
 1791              	.LVL236:
 1792 01d0 0028     		cmp	r0, #0
 1793 01d2 64D1     		bne	.L130
 480:Source\mbedtls_open\library/cipher.c ****         }
 1794              		.loc 1 480 0
 1795 01d4 3B68     		ldr	r3, [r7]
 1796 01d6 9B19     		adds	r3, r3, r6
 1797 01d8 3B60     		str	r3, [r7]
 1798 01da 60E0     		b	.L130
 1799              	.LVL237:
 1800              	.L136:
 1801              	.LBE19:
 488:Source\mbedtls_open\library/cipher.c ****     {
 1802              		.loc 1 488 0
 1803 01dc 032D     		cmp	r5, #3
 1804 01de 13D1     		bne	.L144
 490:Source\mbedtls_open\library/cipher.c ****                 ctx->operation, ilen, &ctx->unprocessed_len, ctx->iv,
 1805              		.loc 1 490 0
 1806 01e0 5B46     		mov	r3, fp
 1807 01e2 9B69     		ldr	r3, [r3, #24]
 1808 01e4 DD68     		ldr	r5, [r3, #12]
 1809 01e6 E06B     		ldr	r0, [r4, #60]
 1810 01e8 0821     		movs	r1, #8
 1811 01ea 6156     		ldrsb	r1, [r4, r1]
 1812 01ec 2300     		movs	r3, r4
 1813 01ee 2433     		adds	r3, r3, #36
 491:Source\mbedtls_open\library/cipher.c ****                 input, output ) ) )
 1814              		.loc 1 491 0
 1815 01f0 2834     		adds	r4, r4, #40
 1816              	.LVL238:
 490:Source\mbedtls_open\library/cipher.c ****                 ctx->operation, ilen, &ctx->unprocessed_len, ctx->iv,
 1817              		.loc 1 490 0
 1818 01f2 059A     		ldr	r2, [sp, #20]
 1819 01f4 0292     		str	r2, [sp, #8]
 1820 01f6 049A     		ldr	r2, [sp, #16]
 1821 01f8 0192     		str	r2, [sp, #4]
 1822 01fa 0094     		str	r4, [sp]
 1823 01fc 3200     		movs	r2, r6
 1824 01fe A847     		blx	r5
 1825              	.LVL239:
 1826 0200 0028     		cmp	r0, #0
 1827 0202 4CD1     		bne	.L130
 497:Source\mbedtls_open\library/cipher.c **** 
 1828              		.loc 1 497 0
 1829 0204 3E60     		str	r6, [r7]
 499:Source\mbedtls_open\library/cipher.c ****     }
ARM GAS  C:\Users\Phuong\AppData\Local\Temp\ccnzvfGe.s 			page 57


 1830              		.loc 1 499 0
 1831 0206 4AE0     		b	.L130
 1832              	.LVL240:
 1833              	.L144:
 504:Source\mbedtls_open\library/cipher.c ****     {
 1834              		.loc 1 504 0
 1835 0208 042D     		cmp	r5, #4
 1836 020a 11D1     		bne	.L145
 506:Source\mbedtls_open\library/cipher.c ****                 ilen, &ctx->unprocessed_len, ctx->iv, input, output ) ) )
 1837              		.loc 1 506 0
 1838 020c 5B46     		mov	r3, fp
 1839 020e 9B69     		ldr	r3, [r3, #24]
 1840 0210 1D69     		ldr	r5, [r3, #16]
 1841 0212 E06B     		ldr	r0, [r4, #60]
 1842 0214 2200     		movs	r2, r4
 1843 0216 2432     		adds	r2, r2, #36
 507:Source\mbedtls_open\library/cipher.c ****         {
 1844              		.loc 1 507 0
 1845 0218 2300     		movs	r3, r4
 1846 021a 2833     		adds	r3, r3, #40
 506:Source\mbedtls_open\library/cipher.c ****                 ilen, &ctx->unprocessed_len, ctx->iv, input, output ) ) )
 1847              		.loc 1 506 0
 1848 021c 0599     		ldr	r1, [sp, #20]
 1849 021e 0191     		str	r1, [sp, #4]
 1850 0220 0499     		ldr	r1, [sp, #16]
 1851 0222 0091     		str	r1, [sp]
 1852 0224 3100     		movs	r1, r6
 1853 0226 A847     		blx	r5
 1854              	.LVL241:
 1855 0228 0028     		cmp	r0, #0
 1856 022a 38D1     		bne	.L130
 512:Source\mbedtls_open\library/cipher.c **** 
 1857              		.loc 1 512 0
 1858 022c 3E60     		str	r6, [r7]
 514:Source\mbedtls_open\library/cipher.c ****     }
 1859              		.loc 1 514 0
 1860 022e 36E0     		b	.L130
 1861              	.LVL242:
 1862              	.L145:
 519:Source\mbedtls_open\library/cipher.c ****     {
 1863              		.loc 1 519 0
 1864 0230 052D     		cmp	r5, #5
 1865 0232 13D1     		bne	.L146
 521:Source\mbedtls_open\library/cipher.c ****                 ilen, &ctx->unprocessed_len, ctx->iv,
 1866              		.loc 1 521 0
 1867 0234 5B46     		mov	r3, fp
 1868 0236 9B69     		ldr	r3, [r3, #24]
 1869 0238 5D69     		ldr	r5, [r3, #20]
 1870 023a E06B     		ldr	r0, [r4, #60]
 1871 023c 2200     		movs	r2, r4
 1872 023e 2432     		adds	r2, r2, #36
 522:Source\mbedtls_open\library/cipher.c ****                 ctx->unprocessed_data, input, output ) ) )
 1873              		.loc 1 522 0
 1874 0240 2300     		movs	r3, r4
 1875 0242 2833     		adds	r3, r3, #40
 523:Source\mbedtls_open\library/cipher.c ****         {
 1876              		.loc 1 523 0
ARM GAS  C:\Users\Phuong\AppData\Local\Temp\ccnzvfGe.s 			page 58


 1877 0244 1434     		adds	r4, r4, #20
 1878              	.LVL243:
 521:Source\mbedtls_open\library/cipher.c ****                 ilen, &ctx->unprocessed_len, ctx->iv,
 1879              		.loc 1 521 0
 1880 0246 0599     		ldr	r1, [sp, #20]
 1881 0248 0291     		str	r1, [sp, #8]
 1882 024a 0499     		ldr	r1, [sp, #16]
 1883 024c 0191     		str	r1, [sp, #4]
 1884 024e 0094     		str	r4, [sp]
 1885 0250 3100     		movs	r1, r6
 1886 0252 A847     		blx	r5
 1887              	.LVL244:
 1888 0254 0028     		cmp	r0, #0
 1889 0256 22D1     		bne	.L130
 528:Source\mbedtls_open\library/cipher.c **** 
 1890              		.loc 1 528 0
 1891 0258 3E60     		str	r6, [r7]
 530:Source\mbedtls_open\library/cipher.c ****     }
 1892              		.loc 1 530 0
 1893 025a 20E0     		b	.L130
 1894              	.LVL245:
 1895              	.L146:
 556:Source\mbedtls_open\library/cipher.c ****     {
 1896              		.loc 1 556 0
 1897 025c 072D     		cmp	r5, #7
 1898 025e 1DD1     		bne	.L165
 558:Source\mbedtls_open\library/cipher.c ****                                                     ilen, input, output ) ) )
 1899              		.loc 1 558 0
 1900 0260 5B46     		mov	r3, fp
 1901 0262 9B69     		ldr	r3, [r3, #24]
 1902 0264 9D69     		ldr	r5, [r3, #24]
 1903 0266 E06B     		ldr	r0, [r4, #60]
 1904 0268 059B     		ldr	r3, [sp, #20]
 1905 026a 049A     		ldr	r2, [sp, #16]
 1906 026c 3100     		movs	r1, r6
 1907 026e A847     		blx	r5
 1908              	.LVL246:
 1909 0270 0028     		cmp	r0, #0
 1910 0272 14D1     		bne	.L130
 564:Source\mbedtls_open\library/cipher.c **** 
 1911              		.loc 1 564 0
 1912 0274 3E60     		str	r6, [r7]
 566:Source\mbedtls_open\library/cipher.c ****     }
 1913              		.loc 1 566 0
 1914 0276 12E0     		b	.L130
 1915              	.LVL247:
 1916              	.L147:
 342:Source\mbedtls_open\library/cipher.c ****     }
 1917              		.loc 1 342 0
 1918 0278 0B48     		ldr	r0, .L167
 1919              	.LVL248:
 1920 027a 10E0     		b	.L130
 1921              	.LVL249:
 1922              	.L148:
 1923 027c 0A48     		ldr	r0, .L167
 1924              	.LVL250:
 1925 027e 0EE0     		b	.L130
ARM GAS  C:\Users\Phuong\AppData\Local\Temp\ccnzvfGe.s 			page 59


 1926              	.LVL251:
 1927              	.L149:
 1928 0280 0948     		ldr	r0, .L167
 1929              	.LVL252:
 1930 0282 0CE0     		b	.L130
 1931              	.LVL253:
 1932              	.L152:
 351:Source\mbedtls_open\library/cipher.c **** 
 1933              		.loc 1 351 0
 1934 0284 0948     		ldr	r0, .L167+4
 1935              	.LVL254:
 1936 0286 0AE0     		b	.L130
 1937              	.LVL255:
 1938              	.L154:
 384:Source\mbedtls_open\library/cipher.c ****     }
 1939              		.loc 1 384 0
 1940 0288 0948     		ldr	r0, .L167+8
 1941              	.LVL256:
 1942 028a 08E0     		b	.L130
 1943              	.LVL257:
 1944              	.L155:
 390:Source\mbedtls_open\library/cipher.c ****     }
 1945              		.loc 1 390 0
 1946 028c 0648     		ldr	r0, .L167
 1947              	.LVL258:
 1948 028e 06E0     		b	.L130
 1949              	.LVL259:
 1950              	.L156:
 1951 0290 0548     		ldr	r0, .L167
 1952 0292 04E0     		b	.L130
 1953              	.L158:
 1954              	.LBB20:
 447:Source\mbedtls_open\library/cipher.c ****             }
 1955              		.loc 1 447 0
 1956 0294 0648     		ldr	r0, .L167+8
 1957 0296 02E0     		b	.L130
 1958              	.L160:
 483:Source\mbedtls_open\library/cipher.c ****     }
 1959              		.loc 1 483 0
 1960 0298 0020     		movs	r0, #0
 1961 029a 00E0     		b	.L130
 1962              	.L165:
 1963              	.LBE20:
 570:Source\mbedtls_open\library/cipher.c **** }
 1964              		.loc 1 570 0
 1965 029c 0548     		ldr	r0, .L167+12
 1966              	.LVL260:
 1967              	.L130:
 571:Source\mbedtls_open\library/cipher.c **** 
 1968              		.loc 1 571 0
 1969 029e 07B0     		add	sp, sp, #28
 1970              		@ sp needed
 1971              	.LVL261:
 1972 02a0 0CBC     		pop	{r2, r3}
 1973 02a2 9246     		mov	r10, r2
 1974 02a4 9B46     		mov	fp, r3
 1975 02a6 F0BD     		pop	{r4, r5, r6, r7, pc}
ARM GAS  C:\Users\Phuong\AppData\Local\Temp\ccnzvfGe.s 			page 60


 1976              	.L168:
 1977              		.align	2
 1978              	.L167:
 1979 02a8 009FFFFF 		.word	-24832
 1980 02ac 809DFFFF 		.word	-25216
 1981 02b0 809CFFFF 		.word	-25472
 1982 02b4 809FFFFF 		.word	-24704
 1983              		.cfi_endproc
 1984              	.LFE20:
 1985              		.size	mbedtls_cipher_update, .-mbedtls_cipher_update
 1986              		.section	.text.mbedtls_cipher_finish,"ax",%progbits
 1987              		.align	2
 1988              		.global	mbedtls_cipher_finish
 1989              		.code	16
 1990              		.thumb_func
 1991              		.type	mbedtls_cipher_finish, %function
 1992              	mbedtls_cipher_finish:
 1993              	.LFB30:
 743:Source\mbedtls_open\library/cipher.c **** #endif /* MBEDTLS_CIPHER_MODE_WITH_PADDING */
 744:Source\mbedtls_open\library/cipher.c **** 
 745:Source\mbedtls_open\library/cipher.c **** int mbedtls_cipher_finish( mbedtls_cipher_context_t *ctx,
 746:Source\mbedtls_open\library/cipher.c ****                    unsigned char *output, size_t *olen )
 747:Source\mbedtls_open\library/cipher.c **** {
 1994              		.loc 1 747 0
 1995              		.cfi_startproc
 1996              		@ args = 0, pretend = 0, frame = 0
 1997              		@ frame_needed = 0, uses_anonymous_args = 0
 1998              	.LVL262:
 1999 0000 F0B5     		push	{r4, r5, r6, r7, lr}
 2000              		.cfi_def_cfa_offset 20
 2001              		.cfi_offset 4, -20
 2002              		.cfi_offset 5, -16
 2003              		.cfi_offset 6, -12
 2004              		.cfi_offset 7, -8
 2005              		.cfi_offset 14, -4
 2006 0002 83B0     		sub	sp, sp, #12
 2007              		.cfi_def_cfa_offset 32
 2008 0004 0400     		movs	r4, r0
 2009 0006 0D00     		movs	r5, r1
 2010 0008 1600     		movs	r6, r2
 748:Source\mbedtls_open\library/cipher.c ****     if( NULL == ctx || NULL == ctx->cipher_info || NULL == olen )
 2011              		.loc 1 748 0
 2012 000a 0028     		cmp	r0, #0
 2013 000c 00D1     		bne	.LCB2144
 2014 000e 8FE0     		b	.L182	@long jump
 2015              	.LCB2144:
 2016              		.loc 1 748 0 is_stmt 0 discriminator 1
 2017 0010 0368     		ldr	r3, [r0]
 2018 0012 002B     		cmp	r3, #0
 2019 0014 00D1     		bne	.LCB2148
 2020 0016 8DE0     		b	.L183	@long jump
 2021              	.LCB2148:
 2022              		.loc 1 748 0 discriminator 2
 2023 0018 002A     		cmp	r2, #0
 2024 001a 00D1     		bne	.LCB2150
 2025 001c 8CE0     		b	.L184	@long jump
 2026              	.LCB2150:
ARM GAS  C:\Users\Phuong\AppData\Local\Temp\ccnzvfGe.s 			page 61


 749:Source\mbedtls_open\library/cipher.c ****         return( MBEDTLS_ERR_CIPHER_BAD_INPUT_DATA );
 750:Source\mbedtls_open\library/cipher.c **** 
 751:Source\mbedtls_open\library/cipher.c ****     *olen = 0;
 2027              		.loc 1 751 0 is_stmt 1
 2028 001e 0023     		movs	r3, #0
 2029 0020 1360     		str	r3, [r2]
 752:Source\mbedtls_open\library/cipher.c **** 
 753:Source\mbedtls_open\library/cipher.c ****     if( MBEDTLS_MODE_CFB == ctx->cipher_info->mode ||
 2030              		.loc 1 753 0
 2031 0022 0768     		ldr	r7, [r0]
 2032 0024 7A78     		ldrb	r2, [r7, #1]
 2033              	.LVL263:
 754:Source\mbedtls_open\library/cipher.c ****         MBEDTLS_MODE_OFB == ctx->cipher_info->mode ||
 755:Source\mbedtls_open\library/cipher.c ****         MBEDTLS_MODE_CTR == ctx->cipher_info->mode ||
 2034              		.loc 1 755 0
 2035 0026 D31E     		subs	r3, r2, #3
 2036 0028 DBB2     		uxtb	r3, r3
 753:Source\mbedtls_open\library/cipher.c ****         MBEDTLS_MODE_OFB == ctx->cipher_info->mode ||
 2037              		.loc 1 753 0
 2038 002a 032B     		cmp	r3, #3
 2039 002c 00D8     		bhi	.LCB2159
 2040 002e 85E0     		b	.L185	@long jump
 2041              	.LCB2159:
 756:Source\mbedtls_open\library/cipher.c ****         MBEDTLS_MODE_GCM == ctx->cipher_info->mode ||
 2042              		.loc 1 756 0
 2043 0030 092A     		cmp	r2, #9
 2044 0032 00D1     		bne	.LCB2161
 2045 0034 84E0     		b	.L186	@long jump
 2046              	.LCB2161:
 757:Source\mbedtls_open\library/cipher.c ****         MBEDTLS_MODE_XTS == ctx->cipher_info->mode ||
 2047              		.loc 1 757 0
 2048 0036 072A     		cmp	r2, #7
 2049 0038 00D1     		bne	.LCB2163
 2050 003a 83E0     		b	.L187	@long jump
 2051              	.LCB2163:
 758:Source\mbedtls_open\library/cipher.c ****         MBEDTLS_MODE_STREAM == ctx->cipher_info->mode )
 759:Source\mbedtls_open\library/cipher.c ****     {
 760:Source\mbedtls_open\library/cipher.c ****         return( 0 );
 761:Source\mbedtls_open\library/cipher.c ****     }
 762:Source\mbedtls_open\library/cipher.c **** 
 763:Source\mbedtls_open\library/cipher.c ****     if ( ( MBEDTLS_CIPHER_CHACHA20          == ctx->cipher_info->type ) ||
 2052              		.loc 1 763 0
 2053 003c 3B78     		ldrb	r3, [r7]
 2054 003e 483B     		subs	r3, r3, #72
 2055 0040 DBB2     		uxtb	r3, r3
 2056 0042 012B     		cmp	r3, #1
 2057 0044 00D8     		bhi	.LCB2168
 2058 0046 7FE0     		b	.L188	@long jump
 2059              	.LCB2168:
 764:Source\mbedtls_open\library/cipher.c ****          ( MBEDTLS_CIPHER_CHACHA20_POLY1305 == ctx->cipher_info->type ) )
 765:Source\mbedtls_open\library/cipher.c ****     {
 766:Source\mbedtls_open\library/cipher.c ****         return( 0 );
 767:Source\mbedtls_open\library/cipher.c ****     }
 768:Source\mbedtls_open\library/cipher.c **** 
 769:Source\mbedtls_open\library/cipher.c ****     if( MBEDTLS_MODE_ECB == ctx->cipher_info->mode )
 2060              		.loc 1 769 0
 2061 0048 012A     		cmp	r2, #1
ARM GAS  C:\Users\Phuong\AppData\Local\Temp\ccnzvfGe.s 			page 62


 2062 004a 04D1     		bne	.L171
 770:Source\mbedtls_open\library/cipher.c ****     {
 771:Source\mbedtls_open\library/cipher.c ****         if( ctx->unprocessed_len != 0 )
 2063              		.loc 1 771 0
 2064 004c 436A     		ldr	r3, [r0, #36]
 2065 004e 002B     		cmp	r3, #0
 2066 0050 7CD0     		beq	.L189
 772:Source\mbedtls_open\library/cipher.c ****             return( MBEDTLS_ERR_CIPHER_FULL_BLOCK_EXPECTED );
 2067              		.loc 1 772 0
 2068 0052 4448     		ldr	r0, .L205
 2069              	.LVL264:
 2070 0054 83E0     		b	.L170
 2071              	.LVL265:
 2072              	.L171:
 773:Source\mbedtls_open\library/cipher.c **** 
 774:Source\mbedtls_open\library/cipher.c ****         return( 0 );
 775:Source\mbedtls_open\library/cipher.c ****     }
 776:Source\mbedtls_open\library/cipher.c **** 
 777:Source\mbedtls_open\library/cipher.c **** #if defined(MBEDTLS_CIPHER_MODE_CBC)
 778:Source\mbedtls_open\library/cipher.c ****     if( MBEDTLS_MODE_CBC == ctx->cipher_info->mode )
 2073              		.loc 1 778 0
 2074 0056 022A     		cmp	r2, #2
 2075 0058 7AD1     		bne	.L190
 2076              	.LVL266:
 2077              	.LBB21:
 779:Source\mbedtls_open\library/cipher.c ****     {
 780:Source\mbedtls_open\library/cipher.c ****         int ret = 0;
 781:Source\mbedtls_open\library/cipher.c **** 
 782:Source\mbedtls_open\library/cipher.c ****         if( MBEDTLS_ENCRYPT == ctx->operation )
 2078              		.loc 1 782 0
 2079 005a 0823     		movs	r3, #8
 2080 005c C356     		ldrsb	r3, [r0, r3]
 2081 005e 012B     		cmp	r3, #1
 2082 0060 17D1     		bne	.L172
 783:Source\mbedtls_open\library/cipher.c ****         {
 784:Source\mbedtls_open\library/cipher.c ****             /* check for 'no padding' mode */
 785:Source\mbedtls_open\library/cipher.c ****             if( NULL == ctx->add_padding )
 2083              		.loc 1 785 0
 2084 0062 C368     		ldr	r3, [r0, #12]
 2085 0064 002B     		cmp	r3, #0
 2086 0066 04D1     		bne	.L173
 786:Source\mbedtls_open\library/cipher.c ****             {
 787:Source\mbedtls_open\library/cipher.c ****                 if( 0 != ctx->unprocessed_len )
 2087              		.loc 1 787 0
 2088 0068 436A     		ldr	r3, [r0, #36]
 2089 006a 002B     		cmp	r3, #0
 2090 006c 72D0     		beq	.L191
 788:Source\mbedtls_open\library/cipher.c ****                     return( MBEDTLS_ERR_CIPHER_FULL_BLOCK_EXPECTED );
 2091              		.loc 1 788 0
 2092 006e 3D48     		ldr	r0, .L205
 2093              	.LVL267:
 2094 0070 75E0     		b	.L170
 2095              	.LVL268:
 2096              	.L173:
 789:Source\mbedtls_open\library/cipher.c **** 
 790:Source\mbedtls_open\library/cipher.c ****                 return( 0 );
 791:Source\mbedtls_open\library/cipher.c ****             }
ARM GAS  C:\Users\Phuong\AppData\Local\Temp\ccnzvfGe.s 			page 63


 792:Source\mbedtls_open\library/cipher.c **** 
 793:Source\mbedtls_open\library/cipher.c ****             ctx->add_padding( ctx->unprocessed_data, mbedtls_cipher_get_iv_size( ctx ),
 2097              		.loc 1 793 0
 2098 0072 1430     		adds	r0, r0, #20
 2099              	.LVL269:
 2100              	.LBB22:
 2101              	.LBB23:
 422:.\Source\mbedtls_open\include/mbedtls/cipher.h **** }
 423:.\Source\mbedtls_open\include/mbedtls/cipher.h **** 
 424:.\Source\mbedtls_open\include/mbedtls/cipher.h **** /**
 425:.\Source\mbedtls_open\include/mbedtls/cipher.h ****  * \brief        This function returns the mode of operation for
 426:.\Source\mbedtls_open\include/mbedtls/cipher.h ****  *               the cipher. For example, MBEDTLS_MODE_CBC.
 427:.\Source\mbedtls_open\include/mbedtls/cipher.h ****  *
 428:.\Source\mbedtls_open\include/mbedtls/cipher.h ****  * \param ctx    The context of the cipher. Must be initialized.
 429:.\Source\mbedtls_open\include/mbedtls/cipher.h ****  *
 430:.\Source\mbedtls_open\include/mbedtls/cipher.h ****  * \return       The mode of operation.
 431:.\Source\mbedtls_open\include/mbedtls/cipher.h ****  * \return       #MBEDTLS_MODE_NONE if \p ctx has not been initialized.
 432:.\Source\mbedtls_open\include/mbedtls/cipher.h ****  */
 433:.\Source\mbedtls_open\include/mbedtls/cipher.h **** static inline mbedtls_cipher_mode_t mbedtls_cipher_get_cipher_mode( const mbedtls_cipher_context_t 
 434:.\Source\mbedtls_open\include/mbedtls/cipher.h **** {
 435:.\Source\mbedtls_open\include/mbedtls/cipher.h ****     if( NULL == ctx || NULL == ctx->cipher_info )
 436:.\Source\mbedtls_open\include/mbedtls/cipher.h ****         return MBEDTLS_MODE_NONE;
 437:.\Source\mbedtls_open\include/mbedtls/cipher.h **** 
 438:.\Source\mbedtls_open\include/mbedtls/cipher.h ****     return ctx->cipher_info->mode;
 439:.\Source\mbedtls_open\include/mbedtls/cipher.h **** }
 440:.\Source\mbedtls_open\include/mbedtls/cipher.h **** 
 441:.\Source\mbedtls_open\include/mbedtls/cipher.h **** /**
 442:.\Source\mbedtls_open\include/mbedtls/cipher.h ****  * \brief       This function returns the size of the IV or nonce
 443:.\Source\mbedtls_open\include/mbedtls/cipher.h ****  *              of the cipher, in Bytes.
 444:.\Source\mbedtls_open\include/mbedtls/cipher.h ****  *
 445:.\Source\mbedtls_open\include/mbedtls/cipher.h ****  * \param ctx   The context of the cipher. Must be initialized.
 446:.\Source\mbedtls_open\include/mbedtls/cipher.h ****  *
 447:.\Source\mbedtls_open\include/mbedtls/cipher.h ****  * \return      The recommended IV size if no IV has been set.
 448:.\Source\mbedtls_open\include/mbedtls/cipher.h ****  * \return      \c 0 for ciphers not using an IV or a nonce.
 449:.\Source\mbedtls_open\include/mbedtls/cipher.h ****  * \return      The actual size if an IV has been set.
 450:.\Source\mbedtls_open\include/mbedtls/cipher.h ****  */
 451:.\Source\mbedtls_open\include/mbedtls/cipher.h **** static inline int mbedtls_cipher_get_iv_size( const mbedtls_cipher_context_t *ctx )
 452:.\Source\mbedtls_open\include/mbedtls/cipher.h **** {
 453:.\Source\mbedtls_open\include/mbedtls/cipher.h ****     if( NULL == ctx || NULL == ctx->cipher_info )
 2102              		.loc 2 453 0
 2103 0074 002C     		cmp	r4, #0
 2104 0076 06D0     		beq	.L192
 2105 0078 002F     		cmp	r7, #0
 2106 007a 06D0     		beq	.L193
 454:.\Source\mbedtls_open\include/mbedtls/cipher.h ****         return 0;
 455:.\Source\mbedtls_open\include/mbedtls/cipher.h **** 
 456:.\Source\mbedtls_open\include/mbedtls/cipher.h ****     if( ctx->iv_size != 0 )
 2107              		.loc 2 456 0
 2108 007c A16B     		ldr	r1, [r4, #56]
 2109              	.LVL270:
 2110 007e 0029     		cmp	r1, #0
 2111 0080 04D1     		bne	.L174
 457:.\Source\mbedtls_open\include/mbedtls/cipher.h ****         return (int) ctx->iv_size;
 458:.\Source\mbedtls_open\include/mbedtls/cipher.h **** 
 459:.\Source\mbedtls_open\include/mbedtls/cipher.h ****     return (int) ctx->cipher_info->iv_size;
 2112              		.loc 2 459 0
 2113 0082 F968     		ldr	r1, [r7, #12]
ARM GAS  C:\Users\Phuong\AppData\Local\Temp\ccnzvfGe.s 			page 64


 2114 0084 02E0     		b	.L174
 2115              	.LVL271:
 2116              	.L192:
 454:.\Source\mbedtls_open\include/mbedtls/cipher.h ****         return 0;
 2117              		.loc 2 454 0
 2118 0086 0021     		movs	r1, #0
 2119              	.LVL272:
 2120 0088 00E0     		b	.L174
 2121              	.LVL273:
 2122              	.L193:
 2123 008a 0021     		movs	r1, #0
 2124              	.LVL274:
 2125              	.L174:
 2126              	.LBE23:
 2127              	.LBE22:
 2128              		.loc 1 793 0
 2129 008c 626A     		ldr	r2, [r4, #36]
 2130 008e 9847     		blx	r3
 2131              	.LVL275:
 2132 0090 12E0     		b	.L176
 2133              	.LVL276:
 2134              	.L172:
 2135              	.LBB24:
 2136              	.LBB25:
 418:.\Source\mbedtls_open\include/mbedtls/cipher.h ****         return 0;
 2137              		.loc 2 418 0
 2138 0092 0028     		cmp	r0, #0
 2139 0094 03D0     		beq	.L194
 2140 0096 002F     		cmp	r7, #0
 2141 0098 03D0     		beq	.L195
 421:.\Source\mbedtls_open\include/mbedtls/cipher.h **** }
 2142              		.loc 2 421 0
 2143 009a 7A69     		ldr	r2, [r7, #20]
 2144 009c 02E0     		b	.L177
 2145              	.L194:
 419:.\Source\mbedtls_open\include/mbedtls/cipher.h **** 
 2146              		.loc 2 419 0
 2147 009e 0022     		movs	r2, #0
 2148 00a0 00E0     		b	.L177
 2149              	.L195:
 2150 00a2 0022     		movs	r2, #0
 2151              	.L177:
 2152              	.LVL277:
 2153              	.LBE25:
 2154              	.LBE24:
 794:Source\mbedtls_open\library/cipher.c ****                     ctx->unprocessed_len );
 795:Source\mbedtls_open\library/cipher.c ****         }
 796:Source\mbedtls_open\library/cipher.c ****         else if( mbedtls_cipher_get_block_size( ctx ) != ctx->unprocessed_len )
 2155              		.loc 1 796 0
 2156 00a4 636A     		ldr	r3, [r4, #36]
 2157 00a6 9342     		cmp	r3, r2
 2158 00a8 06D0     		beq	.L176
 797:Source\mbedtls_open\library/cipher.c ****         {
 798:Source\mbedtls_open\library/cipher.c ****             /*
 799:Source\mbedtls_open\library/cipher.c ****              * For decrypt operations, expect a full block,
 800:Source\mbedtls_open\library/cipher.c ****              * or an empty block if no padding
 801:Source\mbedtls_open\library/cipher.c ****              */
ARM GAS  C:\Users\Phuong\AppData\Local\Temp\ccnzvfGe.s 			page 65


 802:Source\mbedtls_open\library/cipher.c ****             if( NULL == ctx->add_padding && 0 == ctx->unprocessed_len )
 2159              		.loc 1 802 0
 2160 00aa E268     		ldr	r2, [r4, #12]
 2161 00ac 002A     		cmp	r2, #0
 2162 00ae 53D1     		bne	.L196
 2163              		.loc 1 802 0 is_stmt 0 discriminator 1
 2164 00b0 002B     		cmp	r3, #0
 2165 00b2 53D0     		beq	.L197
 803:Source\mbedtls_open\library/cipher.c ****                 return( 0 );
 804:Source\mbedtls_open\library/cipher.c **** 
 805:Source\mbedtls_open\library/cipher.c ****             return( MBEDTLS_ERR_CIPHER_FULL_BLOCK_EXPECTED );
 2166              		.loc 1 805 0 is_stmt 1
 2167 00b4 2B48     		ldr	r0, .L205
 2168              	.LVL278:
 2169 00b6 52E0     		b	.L170
 2170              	.LVL279:
 2171              	.L176:
 806:Source\mbedtls_open\library/cipher.c ****         }
 807:Source\mbedtls_open\library/cipher.c **** 
 808:Source\mbedtls_open\library/cipher.c ****         /* cipher block */
 809:Source\mbedtls_open\library/cipher.c ****         if( 0 != ( ret = ctx->cipher_info->base->cbc_func( ctx->cipher_ctx,
 2172              		.loc 1 809 0
 2173 00b8 2368     		ldr	r3, [r4]
 2174 00ba 9A69     		ldr	r2, [r3, #24]
 2175 00bc 9768     		ldr	r7, [r2, #8]
 2176 00be E06B     		ldr	r0, [r4, #60]
 2177 00c0 0821     		movs	r1, #8
 2178 00c2 6156     		ldrsb	r1, [r4, r1]
 2179              	.LVL280:
 2180              	.LBB26:
 2181              	.LBB27:
 418:.\Source\mbedtls_open\include/mbedtls/cipher.h ****         return 0;
 2182              		.loc 2 418 0
 2183 00c4 002C     		cmp	r4, #0
 2184 00c6 04D0     		beq	.L198
 2185 00c8 002B     		cmp	r3, #0
 2186 00ca 05D0     		beq	.L199
 421:.\Source\mbedtls_open\include/mbedtls/cipher.h **** }
 2187              		.loc 2 421 0
 2188 00cc 5B69     		ldr	r3, [r3, #20]
 2189 00ce 9C46     		mov	ip, r3
 2190 00d0 04E0     		b	.L178
 2191              	.L198:
 419:.\Source\mbedtls_open\include/mbedtls/cipher.h **** 
 2192              		.loc 2 419 0
 2193 00d2 0023     		movs	r3, #0
 2194 00d4 9C46     		mov	ip, r3
 2195 00d6 01E0     		b	.L178
 2196              	.L199:
 2197 00d8 0023     		movs	r3, #0
 2198 00da 9C46     		mov	ip, r3
 2199              	.L178:
 2200              	.LVL281:
 2201              	.LBE27:
 2202              	.LBE26:
 810:Source\mbedtls_open\library/cipher.c ****                 ctx->operation, mbedtls_cipher_get_block_size( ctx ), ctx->iv,
 2203              		.loc 1 810 0
ARM GAS  C:\Users\Phuong\AppData\Local\Temp\ccnzvfGe.s 			page 66


 2204 00dc 2300     		movs	r3, r4
 2205 00de 2833     		adds	r3, r3, #40
 811:Source\mbedtls_open\library/cipher.c ****                 ctx->unprocessed_data, output ) ) )
 2206              		.loc 1 811 0
 2207 00e0 2200     		movs	r2, r4
 2208 00e2 1432     		adds	r2, r2, #20
 809:Source\mbedtls_open\library/cipher.c ****                 ctx->operation, mbedtls_cipher_get_block_size( ctx ), ctx->iv,
 2209              		.loc 1 809 0
 2210 00e4 0195     		str	r5, [sp, #4]
 2211 00e6 0092     		str	r2, [sp]
 2212 00e8 6246     		mov	r2, ip
 2213 00ea B847     		blx	r7
 2214              	.LVL282:
 2215 00ec 0028     		cmp	r0, #0
 2216 00ee 36D1     		bne	.L170
 812:Source\mbedtls_open\library/cipher.c ****         {
 813:Source\mbedtls_open\library/cipher.c ****             return( ret );
 814:Source\mbedtls_open\library/cipher.c ****         }
 815:Source\mbedtls_open\library/cipher.c **** 
 816:Source\mbedtls_open\library/cipher.c ****         /* Set output size for decryption */
 817:Source\mbedtls_open\library/cipher.c ****         if( MBEDTLS_DECRYPT == ctx->operation )
 2217              		.loc 1 817 0
 2218 00f0 0823     		movs	r3, #8
 2219 00f2 E356     		ldrsb	r3, [r4, r3]
 2220 00f4 002B     		cmp	r3, #0
 2221 00f6 0ED1     		bne	.L179
 818:Source\mbedtls_open\library/cipher.c ****             return ctx->get_padding( output, mbedtls_cipher_get_block_size( ctx ),
 2222              		.loc 1 818 0
 2223 00f8 2769     		ldr	r7, [r4, #16]
 2224              	.LVL283:
 2225              	.LBB28:
 2226              	.LBB29:
 418:.\Source\mbedtls_open\include/mbedtls/cipher.h ****         return 0;
 2227              		.loc 2 418 0
 2228 00fa 002C     		cmp	r4, #0
 2229 00fc 04D0     		beq	.L201
 2230 00fe 2368     		ldr	r3, [r4]
 2231 0100 002B     		cmp	r3, #0
 2232 0102 03D0     		beq	.L202
 421:.\Source\mbedtls_open\include/mbedtls/cipher.h **** }
 2233              		.loc 2 421 0
 2234 0104 5969     		ldr	r1, [r3, #20]
 2235 0106 02E0     		b	.L180
 2236              	.L201:
 419:.\Source\mbedtls_open\include/mbedtls/cipher.h **** 
 2237              		.loc 2 419 0
 2238 0108 0021     		movs	r1, #0
 2239 010a 00E0     		b	.L180
 2240              	.L202:
 2241 010c 0021     		movs	r1, #0
 2242              	.L180:
 2243              	.LVL284:
 2244              	.LBE29:
 2245              	.LBE28:
 2246              		.loc 1 818 0
 2247 010e 3200     		movs	r2, r6
 2248 0110 2800     		movs	r0, r5
ARM GAS  C:\Users\Phuong\AppData\Local\Temp\ccnzvfGe.s 			page 67


 2249              	.LVL285:
 2250 0112 B847     		blx	r7
 2251              	.LVL286:
 2252 0114 23E0     		b	.L170
 2253              	.LVL287:
 2254              	.L179:
 2255              	.LBB30:
 2256              	.LBB31:
 418:.\Source\mbedtls_open\include/mbedtls/cipher.h ****         return 0;
 2257              		.loc 2 418 0
 2258 0116 002C     		cmp	r4, #0
 2259 0118 04D0     		beq	.L203
 2260 011a 2368     		ldr	r3, [r4]
 2261 011c 002B     		cmp	r3, #0
 2262 011e 03D0     		beq	.L204
 421:.\Source\mbedtls_open\include/mbedtls/cipher.h **** }
 2263              		.loc 2 421 0
 2264 0120 5B69     		ldr	r3, [r3, #20]
 2265 0122 02E0     		b	.L181
 2266              	.L203:
 419:.\Source\mbedtls_open\include/mbedtls/cipher.h **** 
 2267              		.loc 2 419 0
 2268 0124 0023     		movs	r3, #0
 2269 0126 00E0     		b	.L181
 2270              	.L204:
 2271 0128 0023     		movs	r3, #0
 2272              	.L181:
 2273              	.LVL288:
 2274              	.LBE31:
 2275              	.LBE30:
 819:Source\mbedtls_open\library/cipher.c ****                                      olen );
 820:Source\mbedtls_open\library/cipher.c **** 
 821:Source\mbedtls_open\library/cipher.c ****         /* Set output size for encryption */
 822:Source\mbedtls_open\library/cipher.c ****         *olen = mbedtls_cipher_get_block_size( ctx );
 2276              		.loc 1 822 0
 2277 012a 3360     		str	r3, [r6]
 823:Source\mbedtls_open\library/cipher.c ****         return( 0 );
 2278              		.loc 1 823 0
 2279 012c 0020     		movs	r0, #0
 2280              	.LVL289:
 2281 012e 16E0     		b	.L170
 2282              	.LVL290:
 2283              	.L182:
 2284              	.LBE21:
 749:Source\mbedtls_open\library/cipher.c **** 
 2285              		.loc 1 749 0
 2286 0130 0D48     		ldr	r0, .L205+4
 2287              	.LVL291:
 2288 0132 14E0     		b	.L170
 2289              	.LVL292:
 2290              	.L183:
 2291 0134 0C48     		ldr	r0, .L205+4
 2292              	.LVL293:
 2293 0136 12E0     		b	.L170
 2294              	.LVL294:
 2295              	.L184:
 2296 0138 0B48     		ldr	r0, .L205+4
ARM GAS  C:\Users\Phuong\AppData\Local\Temp\ccnzvfGe.s 			page 68


 2297              	.LVL295:
 2298 013a 10E0     		b	.L170
 2299              	.LVL296:
 2300              	.L185:
 760:Source\mbedtls_open\library/cipher.c ****     }
 2301              		.loc 1 760 0
 2302 013c 0020     		movs	r0, #0
 2303              	.LVL297:
 2304 013e 0EE0     		b	.L170
 2305              	.LVL298:
 2306              	.L186:
 2307 0140 0020     		movs	r0, #0
 2308              	.LVL299:
 2309 0142 0CE0     		b	.L170
 2310              	.LVL300:
 2311              	.L187:
 2312 0144 0020     		movs	r0, #0
 2313              	.LVL301:
 2314 0146 0AE0     		b	.L170
 2315              	.LVL302:
 2316              	.L188:
 766:Source\mbedtls_open\library/cipher.c ****     }
 2317              		.loc 1 766 0
 2318 0148 0020     		movs	r0, #0
 2319              	.LVL303:
 2320 014a 08E0     		b	.L170
 2321              	.LVL304:
 2322              	.L189:
 774:Source\mbedtls_open\library/cipher.c ****     }
 2323              		.loc 1 774 0
 2324 014c 0020     		movs	r0, #0
 2325              	.LVL305:
 2326 014e 06E0     		b	.L170
 2327              	.LVL306:
 2328              	.L190:
 824:Source\mbedtls_open\library/cipher.c ****     }
 825:Source\mbedtls_open\library/cipher.c **** #else
 826:Source\mbedtls_open\library/cipher.c ****     ((void) output);
 827:Source\mbedtls_open\library/cipher.c **** #endif /* MBEDTLS_CIPHER_MODE_CBC */
 828:Source\mbedtls_open\library/cipher.c **** 
 829:Source\mbedtls_open\library/cipher.c ****     return( MBEDTLS_ERR_CIPHER_FEATURE_UNAVAILABLE );
 2329              		.loc 1 829 0
 2330 0150 0648     		ldr	r0, .L205+8
 2331              	.LVL307:
 2332 0152 04E0     		b	.L170
 2333              	.LVL308:
 2334              	.L191:
 2335              	.LBB32:
 790:Source\mbedtls_open\library/cipher.c ****             }
 2336              		.loc 1 790 0
 2337 0154 0020     		movs	r0, #0
 2338              	.LVL309:
 2339 0156 02E0     		b	.L170
 2340              	.LVL310:
 2341              	.L196:
 805:Source\mbedtls_open\library/cipher.c ****         }
 2342              		.loc 1 805 0
ARM GAS  C:\Users\Phuong\AppData\Local\Temp\ccnzvfGe.s 			page 69


 2343 0158 0248     		ldr	r0, .L205
 2344              	.LVL311:
 2345 015a 00E0     		b	.L170
 2346              	.LVL312:
 2347              	.L197:
 803:Source\mbedtls_open\library/cipher.c **** 
 2348              		.loc 1 803 0
 2349 015c 0020     		movs	r0, #0
 2350              	.LVL313:
 2351              	.L170:
 2352              	.LBE32:
 830:Source\mbedtls_open\library/cipher.c **** }
 2353              		.loc 1 830 0
 2354 015e 03B0     		add	sp, sp, #12
 2355              		@ sp needed
 2356              	.LVL314:
 2357              	.LVL315:
 2358              	.LVL316:
 2359 0160 F0BD     		pop	{r4, r5, r6, r7, pc}
 2360              	.L206:
 2361 0162 C046     		.align	2
 2362              	.L205:
 2363 0164 809DFFFF 		.word	-25216
 2364 0168 009FFFFF 		.word	-24832
 2365 016c 809FFFFF 		.word	-24704
 2366              		.cfi_endproc
 2367              	.LFE30:
 2368              		.size	mbedtls_cipher_finish, .-mbedtls_cipher_finish
 2369              		.section	.text.mbedtls_cipher_set_padding_mode,"ax",%progbits
 2370              		.align	2
 2371              		.global	mbedtls_cipher_set_padding_mode
 2372              		.code	16
 2373              		.thumb_func
 2374              		.type	mbedtls_cipher_set_padding_mode, %function
 2375              	mbedtls_cipher_set_padding_mode:
 2376              	.LFB31:
 831:Source\mbedtls_open\library/cipher.c **** 
 832:Source\mbedtls_open\library/cipher.c **** #if defined(MBEDTLS_CIPHER_MODE_WITH_PADDING)
 833:Source\mbedtls_open\library/cipher.c **** int mbedtls_cipher_set_padding_mode( mbedtls_cipher_context_t *ctx, mbedtls_cipher_padding_t mode )
 834:Source\mbedtls_open\library/cipher.c **** {
 2377              		.loc 1 834 0
 2378              		.cfi_startproc
 2379              		@ args = 0, pretend = 0, frame = 0
 2380              		@ frame_needed = 0, uses_anonymous_args = 0
 2381              		@ link register save eliminated.
 2382              	.LVL317:
 835:Source\mbedtls_open\library/cipher.c ****     if( NULL == ctx ||
 2383              		.loc 1 835 0
 2384 0000 0028     		cmp	r0, #0
 2385 0002 27D0     		beq	.L215
 836:Source\mbedtls_open\library/cipher.c ****         MBEDTLS_MODE_CBC != ctx->cipher_info->mode )
 2386              		.loc 1 836 0 discriminator 1
 2387 0004 0368     		ldr	r3, [r0]
 2388 0006 5B78     		ldrb	r3, [r3, #1]
 835:Source\mbedtls_open\library/cipher.c ****     if( NULL == ctx ||
 2389              		.loc 1 835 0 discriminator 1
 2390 0008 022B     		cmp	r3, #2
ARM GAS  C:\Users\Phuong\AppData\Local\Temp\ccnzvfGe.s 			page 70


 2391 000a 25D1     		bne	.L216
 837:Source\mbedtls_open\library/cipher.c ****     {
 838:Source\mbedtls_open\library/cipher.c ****         return( MBEDTLS_ERR_CIPHER_BAD_INPUT_DATA );
 839:Source\mbedtls_open\library/cipher.c ****     }
 840:Source\mbedtls_open\library/cipher.c **** 
 841:Source\mbedtls_open\library/cipher.c ****     switch( mode )
 2392              		.loc 1 841 0
 2393 000c 0429     		cmp	r1, #4
 2394 000e 25D8     		bhi	.L217
 2395 0010 8900     		lsls	r1, r1, #2
 2396              	.LVL318:
 2397 0012 134B     		ldr	r3, .L218
 2398 0014 5B58     		ldr	r3, [r3, r1]
 2399 0016 9F46     		mov	pc, r3
 2400              		.section	.rodata
 2401              		.align	2
 2402              	.L210:
 2403 0000 18000000 		.word	.L209
 2404 0004 24000000 		.word	.L211
 2405 0008 30000000 		.word	.L212
 2406 000c 3C000000 		.word	.L213
 2407 0010 48000000 		.word	.L214
 2408              		.section	.text.mbedtls_cipher_set_padding_mode
 2409              	.L209:
 842:Source\mbedtls_open\library/cipher.c ****     {
 843:Source\mbedtls_open\library/cipher.c **** #if defined(MBEDTLS_CIPHER_PADDING_PKCS7)
 844:Source\mbedtls_open\library/cipher.c ****     case MBEDTLS_PADDING_PKCS7:
 845:Source\mbedtls_open\library/cipher.c ****         ctx->add_padding = add_pkcs_padding;
 2410              		.loc 1 845 0
 2411 0018 124B     		ldr	r3, .L218+4
 2412 001a C360     		str	r3, [r0, #12]
 846:Source\mbedtls_open\library/cipher.c ****         ctx->get_padding = get_pkcs_padding;
 2413              		.loc 1 846 0
 2414 001c 124B     		ldr	r3, .L218+8
 2415 001e 0361     		str	r3, [r0, #16]
 847:Source\mbedtls_open\library/cipher.c ****         break;
 848:Source\mbedtls_open\library/cipher.c **** #endif
 849:Source\mbedtls_open\library/cipher.c **** #if defined(MBEDTLS_CIPHER_PADDING_ONE_AND_ZEROS)
 850:Source\mbedtls_open\library/cipher.c ****     case MBEDTLS_PADDING_ONE_AND_ZEROS:
 851:Source\mbedtls_open\library/cipher.c ****         ctx->add_padding = add_one_and_zeros_padding;
 852:Source\mbedtls_open\library/cipher.c ****         ctx->get_padding = get_one_and_zeros_padding;
 853:Source\mbedtls_open\library/cipher.c ****         break;
 854:Source\mbedtls_open\library/cipher.c **** #endif
 855:Source\mbedtls_open\library/cipher.c **** #if defined(MBEDTLS_CIPHER_PADDING_ZEROS_AND_LEN)
 856:Source\mbedtls_open\library/cipher.c ****     case MBEDTLS_PADDING_ZEROS_AND_LEN:
 857:Source\mbedtls_open\library/cipher.c ****         ctx->add_padding = add_zeros_and_len_padding;
 858:Source\mbedtls_open\library/cipher.c ****         ctx->get_padding = get_zeros_and_len_padding;
 859:Source\mbedtls_open\library/cipher.c ****         break;
 860:Source\mbedtls_open\library/cipher.c **** #endif
 861:Source\mbedtls_open\library/cipher.c **** #if defined(MBEDTLS_CIPHER_PADDING_ZEROS)
 862:Source\mbedtls_open\library/cipher.c ****     case MBEDTLS_PADDING_ZEROS:
 863:Source\mbedtls_open\library/cipher.c ****         ctx->add_padding = add_zeros_padding;
 864:Source\mbedtls_open\library/cipher.c ****         ctx->get_padding = get_zeros_padding;
 865:Source\mbedtls_open\library/cipher.c ****         break;
 866:Source\mbedtls_open\library/cipher.c **** #endif
 867:Source\mbedtls_open\library/cipher.c ****     case MBEDTLS_PADDING_NONE:
 868:Source\mbedtls_open\library/cipher.c ****         ctx->add_padding = NULL;
ARM GAS  C:\Users\Phuong\AppData\Local\Temp\ccnzvfGe.s 			page 71


 869:Source\mbedtls_open\library/cipher.c ****         ctx->get_padding = get_no_padding;
 870:Source\mbedtls_open\library/cipher.c ****         break;
 871:Source\mbedtls_open\library/cipher.c **** 
 872:Source\mbedtls_open\library/cipher.c ****     default:
 873:Source\mbedtls_open\library/cipher.c ****         return( MBEDTLS_ERR_CIPHER_FEATURE_UNAVAILABLE );
 874:Source\mbedtls_open\library/cipher.c ****     }
 875:Source\mbedtls_open\library/cipher.c **** 
 876:Source\mbedtls_open\library/cipher.c ****     return( 0 );
 2416              		.loc 1 876 0
 2417 0020 0020     		movs	r0, #0
 2418              	.LVL319:
 847:Source\mbedtls_open\library/cipher.c ****         break;
 2419              		.loc 1 847 0
 2420 0022 1CE0     		b	.L208
 2421              	.LVL320:
 2422              	.L211:
 851:Source\mbedtls_open\library/cipher.c ****         ctx->get_padding = get_one_and_zeros_padding;
 2423              		.loc 1 851 0
 2424 0024 114B     		ldr	r3, .L218+12
 2425 0026 C360     		str	r3, [r0, #12]
 852:Source\mbedtls_open\library/cipher.c ****         break;
 2426              		.loc 1 852 0
 2427 0028 114B     		ldr	r3, .L218+16
 2428 002a 0361     		str	r3, [r0, #16]
 2429              		.loc 1 876 0
 2430 002c 0020     		movs	r0, #0
 2431              	.LVL321:
 853:Source\mbedtls_open\library/cipher.c **** #endif
 2432              		.loc 1 853 0
 2433 002e 16E0     		b	.L208
 2434              	.LVL322:
 2435              	.L212:
 857:Source\mbedtls_open\library/cipher.c ****         ctx->get_padding = get_zeros_and_len_padding;
 2436              		.loc 1 857 0
 2437 0030 104B     		ldr	r3, .L218+20
 2438 0032 C360     		str	r3, [r0, #12]
 858:Source\mbedtls_open\library/cipher.c ****         break;
 2439              		.loc 1 858 0
 2440 0034 104B     		ldr	r3, .L218+24
 2441 0036 0361     		str	r3, [r0, #16]
 2442              		.loc 1 876 0
 2443 0038 0020     		movs	r0, #0
 2444              	.LVL323:
 859:Source\mbedtls_open\library/cipher.c **** #endif
 2445              		.loc 1 859 0
 2446 003a 10E0     		b	.L208
 2447              	.LVL324:
 2448              	.L213:
 863:Source\mbedtls_open\library/cipher.c ****         ctx->get_padding = get_zeros_padding;
 2449              		.loc 1 863 0
 2450 003c 0F4B     		ldr	r3, .L218+28
 2451 003e C360     		str	r3, [r0, #12]
 864:Source\mbedtls_open\library/cipher.c ****         break;
 2452              		.loc 1 864 0
 2453 0040 0F4B     		ldr	r3, .L218+32
 2454 0042 0361     		str	r3, [r0, #16]
 2455              		.loc 1 876 0
ARM GAS  C:\Users\Phuong\AppData\Local\Temp\ccnzvfGe.s 			page 72


 2456 0044 0020     		movs	r0, #0
 2457              	.LVL325:
 865:Source\mbedtls_open\library/cipher.c **** #endif
 2458              		.loc 1 865 0
 2459 0046 0AE0     		b	.L208
 2460              	.LVL326:
 2461              	.L214:
 868:Source\mbedtls_open\library/cipher.c ****         ctx->get_padding = get_no_padding;
 2462              		.loc 1 868 0
 2463 0048 0023     		movs	r3, #0
 2464 004a C360     		str	r3, [r0, #12]
 869:Source\mbedtls_open\library/cipher.c ****         break;
 2465              		.loc 1 869 0
 2466 004c 0D4B     		ldr	r3, .L218+36
 2467 004e 0361     		str	r3, [r0, #16]
 2468              		.loc 1 876 0
 2469 0050 0020     		movs	r0, #0
 2470              	.LVL327:
 870:Source\mbedtls_open\library/cipher.c **** 
 2471              		.loc 1 870 0
 2472 0052 04E0     		b	.L208
 2473              	.LVL328:
 2474              	.L215:
 838:Source\mbedtls_open\library/cipher.c ****     }
 2475              		.loc 1 838 0
 2476 0054 0C48     		ldr	r0, .L218+40
 2477              	.LVL329:
 2478 0056 02E0     		b	.L208
 2479              	.LVL330:
 2480              	.L216:
 2481 0058 0B48     		ldr	r0, .L218+40
 2482              	.LVL331:
 2483 005a 00E0     		b	.L208
 2484              	.LVL332:
 2485              	.L217:
 873:Source\mbedtls_open\library/cipher.c ****     }
 2486              		.loc 1 873 0
 2487 005c 0B48     		ldr	r0, .L218+44
 2488              	.LVL333:
 2489              	.L208:
 877:Source\mbedtls_open\library/cipher.c **** }
 2490              		.loc 1 877 0
 2491              		@ sp needed
 2492 005e 7047     		bx	lr
 2493              	.L219:
 2494              		.align	2
 2495              	.L218:
 2496 0060 00000000 		.word	.L210
 2497 0064 00000000 		.word	add_pkcs_padding
 2498 0068 00000000 		.word	get_pkcs_padding
 2499 006c 00000000 		.word	add_one_and_zeros_padding
 2500 0070 00000000 		.word	get_one_and_zeros_padding
 2501 0074 00000000 		.word	add_zeros_and_len_padding
 2502 0078 00000000 		.word	get_zeros_and_len_padding
 2503 007c 00000000 		.word	add_zeros_padding
 2504 0080 00000000 		.word	get_zeros_padding
 2505 0084 00000000 		.word	get_no_padding
ARM GAS  C:\Users\Phuong\AppData\Local\Temp\ccnzvfGe.s 			page 73


 2506 0088 009FFFFF 		.word	-24832
 2507 008c 809FFFFF 		.word	-24704
 2508              		.cfi_endproc
 2509              	.LFE31:
 2510              		.size	mbedtls_cipher_set_padding_mode, .-mbedtls_cipher_set_padding_mode
 2511              		.section	.text.mbedtls_cipher_setup,"ax",%progbits
 2512              		.align	2
 2513              		.global	mbedtls_cipher_setup
 2514              		.code	16
 2515              		.thumb_func
 2516              		.type	mbedtls_cipher_setup, %function
 2517              	mbedtls_cipher_setup:
 2518              	.LFB15:
 177:Source\mbedtls_open\library/cipher.c ****     if( NULL == cipher_info || NULL == ctx )
 2519              		.loc 1 177 0
 2520              		.cfi_startproc
 2521              		@ args = 0, pretend = 0, frame = 0
 2522              		@ frame_needed = 0, uses_anonymous_args = 0
 2523              	.LVL334:
 2524 0000 70B5     		push	{r4, r5, r6, lr}
 2525              		.cfi_def_cfa_offset 16
 2526              		.cfi_offset 4, -16
 2527              		.cfi_offset 5, -12
 2528              		.cfi_offset 6, -8
 2529              		.cfi_offset 14, -4
 2530 0002 0400     		movs	r4, r0
 2531 0004 0D1E     		subs	r5, r1, #0
 178:Source\mbedtls_open\library/cipher.c ****         return( MBEDTLS_ERR_CIPHER_BAD_INPUT_DATA );
 2532              		.loc 1 178 0
 2533 0006 12D0     		beq	.L222
 178:Source\mbedtls_open\library/cipher.c ****         return( MBEDTLS_ERR_CIPHER_BAD_INPUT_DATA );
 2534              		.loc 1 178 0 is_stmt 0 discriminator 1
 2535 0008 0028     		cmp	r0, #0
 2536 000a 12D0     		beq	.L223
 181:Source\mbedtls_open\library/cipher.c **** 
 2537              		.loc 1 181 0 is_stmt 1
 2538 000c 4022     		movs	r2, #64
 2539 000e 0021     		movs	r1, #0
 2540              	.LVL335:
 2541 0010 FFF7FEFF 		bl	memset
 2542              	.LVL336:
 183:Source\mbedtls_open\library/cipher.c ****         return( MBEDTLS_ERR_CIPHER_ALLOC_FAILED );
 2543              		.loc 1 183 0
 2544 0014 AB69     		ldr	r3, [r5, #24]
 2545 0016 5B6A     		ldr	r3, [r3, #36]
 2546 0018 9847     		blx	r3
 2547              	.LVL337:
 2548 001a E063     		str	r0, [r4, #60]
 2549 001c 0028     		cmp	r0, #0
 2550 001e 0AD0     		beq	.L224
 186:Source\mbedtls_open\library/cipher.c **** 
 2551              		.loc 1 186 0
 2552 0020 2560     		str	r5, [r4]
 193:Source\mbedtls_open\library/cipher.c **** #else
 2553              		.loc 1 193 0
 2554 0022 0021     		movs	r1, #0
 2555 0024 2000     		movs	r0, r4
ARM GAS  C:\Users\Phuong\AppData\Local\Temp\ccnzvfGe.s 			page 74


 2556 0026 FFF7FEFF 		bl	mbedtls_cipher_set_padding_mode
 2557              	.LVL338:
 199:Source\mbedtls_open\library/cipher.c **** }
 2558              		.loc 1 199 0
 2559 002a 0020     		movs	r0, #0
 2560 002c 04E0     		b	.L221
 2561              	.LVL339:
 2562              	.L222:
 179:Source\mbedtls_open\library/cipher.c **** 
 2563              		.loc 1 179 0
 2564 002e 0348     		ldr	r0, .L225
 2565              	.LVL340:
 2566 0030 02E0     		b	.L221
 2567              	.LVL341:
 2568              	.L223:
 2569 0032 0248     		ldr	r0, .L225
 2570              	.LVL342:
 2571 0034 00E0     		b	.L221
 2572              	.LVL343:
 2573              	.L224:
 184:Source\mbedtls_open\library/cipher.c **** 
 2574              		.loc 1 184 0
 2575 0036 0248     		ldr	r0, .L225+4
 2576              	.L221:
 200:Source\mbedtls_open\library/cipher.c **** 
 2577              		.loc 1 200 0
 2578              		@ sp needed
 2579              	.LVL344:
 2580              	.LVL345:
 2581 0038 70BD     		pop	{r4, r5, r6, pc}
 2582              	.L226:
 2583 003a C046     		.align	2
 2584              	.L225:
 2585 003c 009FFFFF 		.word	-24832
 2586 0040 809EFFFF 		.word	-24960
 2587              		.cfi_endproc
 2588              	.LFE15:
 2589              		.size	mbedtls_cipher_setup, .-mbedtls_cipher_setup
 2590              		.section	.text.mbedtls_cipher_write_tag,"ax",%progbits
 2591              		.align	2
 2592              		.global	mbedtls_cipher_write_tag
 2593              		.code	16
 2594              		.thumb_func
 2595              		.type	mbedtls_cipher_write_tag, %function
 2596              	mbedtls_cipher_write_tag:
 2597              	.LFB32:
 878:Source\mbedtls_open\library/cipher.c **** #endif /* MBEDTLS_CIPHER_MODE_WITH_PADDING */
 879:Source\mbedtls_open\library/cipher.c **** 
 880:Source\mbedtls_open\library/cipher.c **** #if defined(MBEDTLS_GCM_C) || defined(MBEDTLS_CHACHAPOLY_C)
 881:Source\mbedtls_open\library/cipher.c **** int mbedtls_cipher_write_tag( mbedtls_cipher_context_t *ctx,
 882:Source\mbedtls_open\library/cipher.c ****                       unsigned char *tag, size_t tag_len )
 883:Source\mbedtls_open\library/cipher.c **** {
 2598              		.loc 1 883 0
 2599              		.cfi_startproc
 2600              		@ args = 0, pretend = 0, frame = 0
 2601              		@ frame_needed = 0, uses_anonymous_args = 0
 2602              	.LVL346:
ARM GAS  C:\Users\Phuong\AppData\Local\Temp\ccnzvfGe.s 			page 75


 2603 0000 10B5     		push	{r4, lr}
 2604              		.cfi_def_cfa_offset 8
 2605              		.cfi_offset 4, -8
 2606              		.cfi_offset 14, -4
 884:Source\mbedtls_open\library/cipher.c ****     if( NULL == ctx || NULL == ctx->cipher_info || NULL == tag )
 2607              		.loc 1 884 0
 2608 0002 0028     		cmp	r0, #0
 2609 0004 18D0     		beq	.L230
 2610              		.loc 1 884 0 is_stmt 0 discriminator 1
 2611 0006 0368     		ldr	r3, [r0]
 2612 0008 002B     		cmp	r3, #0
 2613 000a 17D0     		beq	.L231
 2614              		.loc 1 884 0 discriminator 2
 2615 000c 0029     		cmp	r1, #0
 2616 000e 17D0     		beq	.L232
 885:Source\mbedtls_open\library/cipher.c ****         return( MBEDTLS_ERR_CIPHER_BAD_INPUT_DATA );
 886:Source\mbedtls_open\library/cipher.c **** 
 887:Source\mbedtls_open\library/cipher.c ****     if( MBEDTLS_ENCRYPT != ctx->operation )
 2617              		.loc 1 887 0 is_stmt 1
 2618 0010 0824     		movs	r4, #8
 2619 0012 0457     		ldrsb	r4, [r0, r4]
 2620 0014 012C     		cmp	r4, #1
 2621 0016 15D1     		bne	.L233
 888:Source\mbedtls_open\library/cipher.c ****         return( MBEDTLS_ERR_CIPHER_BAD_INPUT_DATA );
 889:Source\mbedtls_open\library/cipher.c **** 
 890:Source\mbedtls_open\library/cipher.c **** #if defined(MBEDTLS_GCM_C)
 891:Source\mbedtls_open\library/cipher.c ****     if( MBEDTLS_MODE_GCM == ctx->cipher_info->mode )
 2622              		.loc 1 891 0
 2623 0018 5C78     		ldrb	r4, [r3, #1]
 2624 001a 062C     		cmp	r4, #6
 2625 001c 03D1     		bne	.L229
 892:Source\mbedtls_open\library/cipher.c ****         return mbedtls_gcm_finish( (mbedtls_gcm_context *) ctx->cipher_ctx, tag, tag_len );
 2626              		.loc 1 892 0
 2627 001e C06B     		ldr	r0, [r0, #60]
 2628              	.LVL347:
 2629 0020 FFF7FEFF 		bl	mbedtls_gcm_finish
 2630              	.LVL348:
 2631 0024 13E0     		b	.L228
 2632              	.LVL349:
 2633              	.L229:
 893:Source\mbedtls_open\library/cipher.c **** #endif
 894:Source\mbedtls_open\library/cipher.c **** 
 895:Source\mbedtls_open\library/cipher.c **** #if defined(MBEDTLS_CHACHAPOLY_C)
 896:Source\mbedtls_open\library/cipher.c ****     if ( MBEDTLS_CIPHER_CHACHA20_POLY1305 == ctx->cipher_info->type )
 2634              		.loc 1 896 0
 2635 0026 1B78     		ldrb	r3, [r3]
 2636 0028 492B     		cmp	r3, #73
 2637 002a 0DD1     		bne	.L234
 897:Source\mbedtls_open\library/cipher.c ****     {
 898:Source\mbedtls_open\library/cipher.c ****         /* Don't allow truncated MAC for Poly1305 */
 899:Source\mbedtls_open\library/cipher.c ****         if ( tag_len != 16U )
 2638              		.loc 1 899 0
 2639 002c 102A     		cmp	r2, #16
 2640 002e 0DD1     		bne	.L235
 900:Source\mbedtls_open\library/cipher.c ****             return( MBEDTLS_ERR_CIPHER_BAD_INPUT_DATA );
 901:Source\mbedtls_open\library/cipher.c **** 
 902:Source\mbedtls_open\library/cipher.c ****         return mbedtls_chachapoly_finish( (mbedtls_chachapoly_context*) ctx->cipher_ctx,
ARM GAS  C:\Users\Phuong\AppData\Local\Temp\ccnzvfGe.s 			page 76


 2641              		.loc 1 902 0
 2642 0030 C06B     		ldr	r0, [r0, #60]
 2643              	.LVL350:
 2644 0032 FFF7FEFF 		bl	mbedtls_chachapoly_finish
 2645              	.LVL351:
 2646 0036 0AE0     		b	.L228
 2647              	.LVL352:
 2648              	.L230:
 885:Source\mbedtls_open\library/cipher.c **** 
 2649              		.loc 1 885 0
 2650 0038 0548     		ldr	r0, .L236
 2651              	.LVL353:
 2652 003a 08E0     		b	.L228
 2653              	.LVL354:
 2654              	.L231:
 2655 003c 0448     		ldr	r0, .L236
 2656              	.LVL355:
 2657 003e 06E0     		b	.L228
 2658              	.LVL356:
 2659              	.L232:
 2660 0040 0348     		ldr	r0, .L236
 2661              	.LVL357:
 2662 0042 04E0     		b	.L228
 2663              	.LVL358:
 2664              	.L233:
 888:Source\mbedtls_open\library/cipher.c **** 
 2665              		.loc 1 888 0
 2666 0044 0248     		ldr	r0, .L236
 2667              	.LVL359:
 2668 0046 02E0     		b	.L228
 2669              	.LVL360:
 2670              	.L234:
 903:Source\mbedtls_open\library/cipher.c ****                                                       tag );
 904:Source\mbedtls_open\library/cipher.c ****     }
 905:Source\mbedtls_open\library/cipher.c **** #endif
 906:Source\mbedtls_open\library/cipher.c **** 
 907:Source\mbedtls_open\library/cipher.c ****     return( 0 );
 2671              		.loc 1 907 0
 2672 0048 0020     		movs	r0, #0
 2673              	.LVL361:
 2674 004a 00E0     		b	.L228
 2675              	.LVL362:
 2676              	.L235:
 900:Source\mbedtls_open\library/cipher.c **** 
 2677              		.loc 1 900 0
 2678 004c 0048     		ldr	r0, .L236
 2679              	.LVL363:
 2680              	.L228:
 908:Source\mbedtls_open\library/cipher.c **** }
 2681              		.loc 1 908 0
 2682              		@ sp needed
 2683 004e 10BD     		pop	{r4, pc}
 2684              	.L237:
 2685              		.align	2
 2686              	.L236:
 2687 0050 009FFFFF 		.word	-24832
 2688              		.cfi_endproc
ARM GAS  C:\Users\Phuong\AppData\Local\Temp\ccnzvfGe.s 			page 77


 2689              	.LFE32:
 2690              		.size	mbedtls_cipher_write_tag, .-mbedtls_cipher_write_tag
 2691              		.section	.text.mbedtls_cipher_check_tag,"ax",%progbits
 2692              		.align	2
 2693              		.global	mbedtls_cipher_check_tag
 2694              		.code	16
 2695              		.thumb_func
 2696              		.type	mbedtls_cipher_check_tag, %function
 2697              	mbedtls_cipher_check_tag:
 2698              	.LFB33:
 909:Source\mbedtls_open\library/cipher.c **** 
 910:Source\mbedtls_open\library/cipher.c **** int mbedtls_cipher_check_tag( mbedtls_cipher_context_t *ctx,
 911:Source\mbedtls_open\library/cipher.c ****                       const unsigned char *tag, size_t tag_len )
 912:Source\mbedtls_open\library/cipher.c **** {
 2699              		.loc 1 912 0
 2700              		.cfi_startproc
 2701              		@ args = 0, pretend = 0, frame = 16
 2702              		@ frame_needed = 0, uses_anonymous_args = 0
 2703              	.LVL364:
 2704 0000 30B5     		push	{r4, r5, lr}
 2705              		.cfi_def_cfa_offset 12
 2706              		.cfi_offset 4, -12
 2707              		.cfi_offset 5, -8
 2708              		.cfi_offset 14, -4
 2709 0002 85B0     		sub	sp, sp, #20
 2710              		.cfi_def_cfa_offset 32
 2711 0004 0D00     		movs	r5, r1
 2712 0006 1400     		movs	r4, r2
 913:Source\mbedtls_open\library/cipher.c ****     unsigned char check_tag[16];
 914:Source\mbedtls_open\library/cipher.c ****     int ret;
 915:Source\mbedtls_open\library/cipher.c **** 
 916:Source\mbedtls_open\library/cipher.c ****     if( NULL == ctx || NULL == ctx->cipher_info ||
 2713              		.loc 1 916 0
 2714 0008 0028     		cmp	r0, #0
 2715 000a 2FD0     		beq	.L241
 2716              		.loc 1 916 0 is_stmt 0 discriminator 1
 2717 000c 0368     		ldr	r3, [r0]
 2718 000e 002B     		cmp	r3, #0
 2719 0010 2ED0     		beq	.L242
 917:Source\mbedtls_open\library/cipher.c ****         MBEDTLS_DECRYPT != ctx->operation )
 2720              		.loc 1 917 0 is_stmt 1 discriminator 2
 2721 0012 0822     		movs	r2, #8
 2722              	.LVL365:
 2723 0014 8256     		ldrsb	r2, [r0, r2]
 916:Source\mbedtls_open\library/cipher.c ****         MBEDTLS_DECRYPT != ctx->operation )
 2724              		.loc 1 916 0 discriminator 2
 2725 0016 002A     		cmp	r2, #0
 2726 0018 2CD1     		bne	.L243
 918:Source\mbedtls_open\library/cipher.c ****     {
 919:Source\mbedtls_open\library/cipher.c ****         return( MBEDTLS_ERR_CIPHER_BAD_INPUT_DATA );
 920:Source\mbedtls_open\library/cipher.c ****     }
 921:Source\mbedtls_open\library/cipher.c **** 
 922:Source\mbedtls_open\library/cipher.c **** #if defined(MBEDTLS_GCM_C)
 923:Source\mbedtls_open\library/cipher.c ****     if( MBEDTLS_MODE_GCM == ctx->cipher_info->mode )
 2727              		.loc 1 923 0
 2728 001a 5A78     		ldrb	r2, [r3, #1]
 2729 001c 062A     		cmp	r2, #6
ARM GAS  C:\Users\Phuong\AppData\Local\Temp\ccnzvfGe.s 			page 78


 2730 001e 11D1     		bne	.L240
 924:Source\mbedtls_open\library/cipher.c ****     {
 925:Source\mbedtls_open\library/cipher.c ****         if( tag_len > sizeof( check_tag ) )
 2731              		.loc 1 925 0
 2732 0020 102C     		cmp	r4, #16
 2733 0022 29D8     		bhi	.L244
 926:Source\mbedtls_open\library/cipher.c ****             return( MBEDTLS_ERR_CIPHER_BAD_INPUT_DATA );
 927:Source\mbedtls_open\library/cipher.c **** 
 928:Source\mbedtls_open\library/cipher.c ****         if( 0 != ( ret = mbedtls_gcm_finish( (mbedtls_gcm_context *) ctx->cipher_ctx,
 2734              		.loc 1 928 0
 2735 0024 C06B     		ldr	r0, [r0, #60]
 2736              	.LVL366:
 2737 0026 2200     		movs	r2, r4
 2738 0028 6946     		mov	r1, sp
 2739              	.LVL367:
 2740 002a FFF7FEFF 		bl	mbedtls_gcm_finish
 2741              	.LVL368:
 2742 002e 0028     		cmp	r0, #0
 2743 0030 27D1     		bne	.L239
 929:Source\mbedtls_open\library/cipher.c ****                                      check_tag, tag_len ) ) )
 930:Source\mbedtls_open\library/cipher.c ****         {
 931:Source\mbedtls_open\library/cipher.c ****             return( ret );
 932:Source\mbedtls_open\library/cipher.c ****         }
 933:Source\mbedtls_open\library/cipher.c **** 
 934:Source\mbedtls_open\library/cipher.c ****         /* Check the tag in "constant-time" */
 935:Source\mbedtls_open\library/cipher.c ****         if( mbedtls_constant_time_memcmp( tag, check_tag, tag_len ) != 0 )
 2744              		.loc 1 935 0
 2745 0032 2200     		movs	r2, r4
 2746 0034 6946     		mov	r1, sp
 2747 0036 2800     		movs	r0, r5
 2748              	.LVL369:
 2749 0038 FFF7FEFF 		bl	mbedtls_constant_time_memcmp
 2750              	.LVL370:
 2751 003c 0028     		cmp	r0, #0
 2752 003e 20D0     		beq	.L239
 936:Source\mbedtls_open\library/cipher.c ****             return( MBEDTLS_ERR_CIPHER_AUTH_FAILED );
 2753              		.loc 1 936 0
 2754 0040 1148     		ldr	r0, .L249
 2755 0042 1EE0     		b	.L239
 2756              	.LVL371:
 2757              	.L240:
 937:Source\mbedtls_open\library/cipher.c **** 
 938:Source\mbedtls_open\library/cipher.c ****         return( 0 );
 939:Source\mbedtls_open\library/cipher.c ****     }
 940:Source\mbedtls_open\library/cipher.c **** #endif /* MBEDTLS_GCM_C */
 941:Source\mbedtls_open\library/cipher.c **** 
 942:Source\mbedtls_open\library/cipher.c **** #if defined(MBEDTLS_CHACHAPOLY_C)
 943:Source\mbedtls_open\library/cipher.c ****     if ( MBEDTLS_CIPHER_CHACHA20_POLY1305 == ctx->cipher_info->type )
 2758              		.loc 1 943 0
 2759 0044 1B78     		ldrb	r3, [r3]
 2760 0046 492B     		cmp	r3, #73
 2761 0048 18D1     		bne	.L246
 944:Source\mbedtls_open\library/cipher.c ****     {
 945:Source\mbedtls_open\library/cipher.c ****         /* Don't allow truncated MAC for Poly1305 */
 946:Source\mbedtls_open\library/cipher.c ****         if ( tag_len != sizeof( check_tag ) )
 2762              		.loc 1 946 0
 2763 004a 102C     		cmp	r4, #16
ARM GAS  C:\Users\Phuong\AppData\Local\Temp\ccnzvfGe.s 			page 79


 2764 004c 18D1     		bne	.L247
 947:Source\mbedtls_open\library/cipher.c ****             return( MBEDTLS_ERR_CIPHER_BAD_INPUT_DATA );
 948:Source\mbedtls_open\library/cipher.c **** 
 949:Source\mbedtls_open\library/cipher.c ****         ret = mbedtls_chachapoly_finish( (mbedtls_chachapoly_context*) ctx->cipher_ctx,
 2765              		.loc 1 949 0
 2766 004e C06B     		ldr	r0, [r0, #60]
 2767              	.LVL372:
 2768 0050 6946     		mov	r1, sp
 2769              	.LVL373:
 2770 0052 FFF7FEFF 		bl	mbedtls_chachapoly_finish
 2771              	.LVL374:
 950:Source\mbedtls_open\library/cipher.c ****                                                      check_tag );
 951:Source\mbedtls_open\library/cipher.c ****         if ( ret != 0 )
 2772              		.loc 1 951 0
 2773 0056 0028     		cmp	r0, #0
 2774 0058 13D1     		bne	.L239
 952:Source\mbedtls_open\library/cipher.c ****         {
 953:Source\mbedtls_open\library/cipher.c ****             return( ret );
 954:Source\mbedtls_open\library/cipher.c ****         }
 955:Source\mbedtls_open\library/cipher.c **** 
 956:Source\mbedtls_open\library/cipher.c ****         /* Check the tag in "constant-time" */
 957:Source\mbedtls_open\library/cipher.c ****         if( mbedtls_constant_time_memcmp( tag, check_tag, tag_len ) != 0 )
 2775              		.loc 1 957 0
 2776 005a 2200     		movs	r2, r4
 2777 005c 6946     		mov	r1, sp
 2778 005e 2800     		movs	r0, r5
 2779              	.LVL375:
 2780 0060 FFF7FEFF 		bl	mbedtls_constant_time_memcmp
 2781              	.LVL376:
 2782 0064 0028     		cmp	r0, #0
 2783 0066 0CD0     		beq	.L239
 958:Source\mbedtls_open\library/cipher.c ****             return( MBEDTLS_ERR_CIPHER_AUTH_FAILED );
 2784              		.loc 1 958 0
 2785 0068 0748     		ldr	r0, .L249
 2786 006a 0AE0     		b	.L239
 2787              	.LVL377:
 2788              	.L241:
 919:Source\mbedtls_open\library/cipher.c ****     }
 2789              		.loc 1 919 0
 2790 006c 0748     		ldr	r0, .L249+4
 2791              	.LVL378:
 2792 006e 08E0     		b	.L239
 2793              	.LVL379:
 2794              	.L242:
 2795 0070 0648     		ldr	r0, .L249+4
 2796              	.LVL380:
 2797 0072 06E0     		b	.L239
 2798              	.LVL381:
 2799              	.L243:
 2800 0074 0548     		ldr	r0, .L249+4
 2801              	.LVL382:
 2802 0076 04E0     		b	.L239
 2803              	.LVL383:
 2804              	.L244:
 926:Source\mbedtls_open\library/cipher.c **** 
 2805              		.loc 1 926 0
 2806 0078 0448     		ldr	r0, .L249+4
ARM GAS  C:\Users\Phuong\AppData\Local\Temp\ccnzvfGe.s 			page 80


 2807              	.LVL384:
 2808 007a 02E0     		b	.L239
 2809              	.LVL385:
 2810              	.L246:
 959:Source\mbedtls_open\library/cipher.c **** 
