ARM GAS  C:\Users\Phuong\AppData\Local\Temp\ccnzvfGe.s 			page 1


   1              		.syntax unified
   2              		.cpu cortex-m0plus
   3              		.fpu softvfp
   4              		.eabi_attribute 20, 1
   5              		.eabi_attribute 21, 1
   6              		.eabi_attribute 23, 3
   7              		.eabi_attribute 24, 1
   8              		.eabi_attribute 25, 1
   9              		.eabi_attribute 26, 1
  10              		.eabi_attribute 30, 1
  11              		.eabi_attribute 34, 0
  12              		.eabi_attribute 18, 4
  13              		.thumb
  14              		.syntax unified
  15              		.file	"cipher.c"
  16              		.text
  17              	.Ltext0:
  18              		.cfi_sections	.debug_frame
  19              		.section	.text.mbedtls_constant_time_memcmp,"ax",%progbits
  20              		.align	2
  21              		.code	16
  22              		.thumb_func
  23              		.type	mbedtls_constant_time_memcmp, %function
  24              	mbedtls_constant_time_memcmp:
  25              	.LFB8:
  26              		.file 1 "Source\\mbedtls_open\\library\\cipher.c"
   1:Source\mbedtls_open\library/cipher.c **** /**
   2:Source\mbedtls_open\library/cipher.c ****  * \file cipher.c
   3:Source\mbedtls_open\library/cipher.c ****  *
   4:Source\mbedtls_open\library/cipher.c ****  * \brief Generic cipher wrapper for mbed TLS
   5:Source\mbedtls_open\library/cipher.c ****  *
   6:Source\mbedtls_open\library/cipher.c ****  * \author Adriaan de Jong <dejong@fox-it.com>
   7:Source\mbedtls_open\library/cipher.c ****  *
   8:Source\mbedtls_open\library/cipher.c ****  *  Copyright (C) 2006-2015, ARM Limited, All Rights Reserved
   9:Source\mbedtls_open\library/cipher.c ****  *  SPDX-License-Identifier: Apache-2.0
  10:Source\mbedtls_open\library/cipher.c ****  *
  11:Source\mbedtls_open\library/cipher.c ****  *  Licensed under the Apache License, Version 2.0 (the "License"); you may
  12:Source\mbedtls_open\library/cipher.c ****  *  not use this file except in compliance with the License.
  13:Source\mbedtls_open\library/cipher.c ****  *  You may obtain a copy of the License at
  14:Source\mbedtls_open\library/cipher.c ****  *
  15:Source\mbedtls_open\library/cipher.c ****  *  http://www.apache.org/licenses/LICENSE-2.0
  16:Source\mbedtls_open\library/cipher.c ****  *
  17:Source\mbedtls_open\library/cipher.c ****  *  Unless required by applicable law or agreed to in writing, software
  18:Source\mbedtls_open\library/cipher.c ****  *  distributed under the License is distributed on an "AS IS" BASIS, WITHOUT
  19:Source\mbedtls_open\library/cipher.c ****  *  WARRANTIES OR CONDITIONS OF ANY KIND, either express or implied.
  20:Source\mbedtls_open\library/cipher.c ****  *  See the License for the specific language governing permissions and
  21:Source\mbedtls_open\library/cipher.c ****  *  limitations under the License.
  22:Source\mbedtls_open\library/cipher.c ****  *
  23:Source\mbedtls_open\library/cipher.c ****  *  This file is part of mbed TLS (https://tls.mbed.org)
  24:Source\mbedtls_open\library/cipher.c ****  */
  25:Source\mbedtls_open\library/cipher.c **** 
  26:Source\mbedtls_open\library/cipher.c **** #if !defined(MBEDTLS_CONFIG_FILE)
  27:Source\mbedtls_open\library/cipher.c **** #include "mbedtls/config.h"
  28:Source\mbedtls_open\library/cipher.c **** #else
  29:Source\mbedtls_open\library/cipher.c **** #include MBEDTLS_CONFIG_FILE
  30:Source\mbedtls_open\library/cipher.c **** #endif
  31:Source\mbedtls_open\library/cipher.c **** 
ARM GAS  C:\Users\Phuong\AppData\Local\Temp\ccnzvfGe.s 			page 2


  32:Source\mbedtls_open\library/cipher.c **** #if defined(MBEDTLS_CIPHER_C)
  33:Source\mbedtls_open\library/cipher.c **** 
  34:Source\mbedtls_open\library/cipher.c **** #include "mbedtls/cipher.h"
  35:Source\mbedtls_open\library/cipher.c **** #include "mbedtls/cipher_internal.h"
  36:Source\mbedtls_open\library/cipher.c **** #include "mbedtls/platform_util.h"
  37:Source\mbedtls_open\library/cipher.c **** 
  38:Source\mbedtls_open\library/cipher.c **** #include <stdlib.h>
  39:Source\mbedtls_open\library/cipher.c **** #include <string.h>
  40:Source\mbedtls_open\library/cipher.c **** 
  41:Source\mbedtls_open\library/cipher.c **** #if defined(MBEDTLS_CHACHAPOLY_C)
  42:Source\mbedtls_open\library/cipher.c **** #include "mbedtls/chachapoly.h"
  43:Source\mbedtls_open\library/cipher.c **** #endif
  44:Source\mbedtls_open\library/cipher.c **** 
  45:Source\mbedtls_open\library/cipher.c **** #if defined(MBEDTLS_GCM_C)
  46:Source\mbedtls_open\library/cipher.c **** #include "mbedtls/gcm.h"
  47:Source\mbedtls_open\library/cipher.c **** #endif
  48:Source\mbedtls_open\library/cipher.c **** 
  49:Source\mbedtls_open\library/cipher.c **** #if defined(MBEDTLS_CCM_C)
  50:Source\mbedtls_open\library/cipher.c **** #include "mbedtls/ccm.h"
  51:Source\mbedtls_open\library/cipher.c **** #endif
  52:Source\mbedtls_open\library/cipher.c **** 
  53:Source\mbedtls_open\library/cipher.c **** #if defined(MBEDTLS_CHACHA20_C)
  54:Source\mbedtls_open\library/cipher.c **** #include "mbedtls/chacha20.h"
  55:Source\mbedtls_open\library/cipher.c **** #endif
  56:Source\mbedtls_open\library/cipher.c **** 
  57:Source\mbedtls_open\library/cipher.c **** #if defined(MBEDTLS_CMAC_C)
  58:Source\mbedtls_open\library/cipher.c **** #include "mbedtls/cmac.h"
  59:Source\mbedtls_open\library/cipher.c **** #endif
  60:Source\mbedtls_open\library/cipher.c **** 
  61:Source\mbedtls_open\library/cipher.c **** #if defined(MBEDTLS_PLATFORM_C)
  62:Source\mbedtls_open\library/cipher.c **** #include "mbedtls/platform.h"
  63:Source\mbedtls_open\library/cipher.c **** #else
  64:Source\mbedtls_open\library/cipher.c **** #define mbedtls_calloc calloc
  65:Source\mbedtls_open\library/cipher.c **** #define mbedtls_free   free
  66:Source\mbedtls_open\library/cipher.c **** #endif
  67:Source\mbedtls_open\library/cipher.c **** 
  68:Source\mbedtls_open\library/cipher.c **** #if defined(MBEDTLS_GCM_C) || defined(MBEDTLS_CHACHAPOLY_C)
  69:Source\mbedtls_open\library/cipher.c **** /* Compare the contents of two buffers in constant time.
  70:Source\mbedtls_open\library/cipher.c ****  * Returns 0 if the contents are bitwise identical, otherwise returns
  71:Source\mbedtls_open\library/cipher.c ****  * a non-zero value.
  72:Source\mbedtls_open\library/cipher.c ****  * This is currently only used by GCM and ChaCha20+Poly1305.
  73:Source\mbedtls_open\library/cipher.c ****  */
  74:Source\mbedtls_open\library/cipher.c **** static int mbedtls_constant_time_memcmp( const void *v1, const void *v2, size_t len )
  75:Source\mbedtls_open\library/cipher.c **** {
  27              		.loc 1 75 0
  28              		.cfi_startproc
  29              		@ args = 0, pretend = 0, frame = 0
  30              		@ frame_needed = 0, uses_anonymous_args = 0
  31              	.LVL0:
  32 0000 70B5     		push	{r4, r5, r6, lr}
  33              		.cfi_def_cfa_offset 16
  34              		.cfi_offset 4, -16
  35              		.cfi_offset 5, -12
  36              		.cfi_offset 6, -8
  37              		.cfi_offset 14, -4
  38 0002 0600     		movs	r6, r0
  39              	.LVL1:
ARM GAS  C:\Users\Phuong\AppData\Local\Temp\ccnzvfGe.s 			page 3


  76:Source\mbedtls_open\library/cipher.c ****     const unsigned char *p1 = (const unsigned char*) v1;
  77:Source\mbedtls_open\library/cipher.c ****     const unsigned char *p2 = (const unsigned char*) v2;
  78:Source\mbedtls_open\library/cipher.c ****     size_t i;
  79:Source\mbedtls_open\library/cipher.c ****     unsigned char diff;
  80:Source\mbedtls_open\library/cipher.c **** 
  81:Source\mbedtls_open\library/cipher.c ****     for( diff = 0, i = 0; i < len; i++ )
  40              		.loc 1 81 0
  41 0004 0020     		movs	r0, #0
  42              	.LVL2:
  43 0006 0023     		movs	r3, #0
  44 0008 04E0     		b	.L2
  45              	.LVL3:
  46              	.L3:
  82:Source\mbedtls_open\library/cipher.c ****         diff |= p1[i] ^ p2[i];
  47              		.loc 1 82 0 discriminator 3
  48 000a F55C     		ldrb	r5, [r6, r3]
  49 000c CC5C     		ldrb	r4, [r1, r3]
  50 000e 6C40     		eors	r4, r5
  51 0010 2043     		orrs	r0, r4
  52              	.LVL4:
  81:Source\mbedtls_open\library/cipher.c ****         diff |= p1[i] ^ p2[i];
  53              		.loc 1 81 0 discriminator 3
  54 0012 0133     		adds	r3, r3, #1
  55              	.LVL5:
  56              	.L2:
  81:Source\mbedtls_open\library/cipher.c ****         diff |= p1[i] ^ p2[i];
  57              		.loc 1 81 0 is_stmt 0 discriminator 1
  58 0014 9342     		cmp	r3, r2
  59 0016 F8D3     		bcc	.L3
  83:Source\mbedtls_open\library/cipher.c **** 
  84:Source\mbedtls_open\library/cipher.c ****     return (int)diff;
  85:Source\mbedtls_open\library/cipher.c **** }
  60              		.loc 1 85 0 is_stmt 1
  61              		@ sp needed
  62              	.LVL6:
  63 0018 70BD     		pop	{r4, r5, r6, pc}
  64              		.cfi_endproc
  65              	.LFE8:
  66              		.size	mbedtls_constant_time_memcmp, .-mbedtls_constant_time_memcmp
  67 001a C046     		.section	.text.add_pkcs_padding,"ax",%progbits
  68              		.align	2
  69              		.code	16
  70              		.thumb_func
  71              		.type	add_pkcs_padding, %function
  72              	add_pkcs_padding:
  73              	.LFB21:
  86:Source\mbedtls_open\library/cipher.c **** #endif /* MBEDTLS_GCM_C || MBEDTLS_CHACHAPOLY_C */
  87:Source\mbedtls_open\library/cipher.c **** 
  88:Source\mbedtls_open\library/cipher.c **** static int supported_init = 0;
  89:Source\mbedtls_open\library/cipher.c **** 
  90:Source\mbedtls_open\library/cipher.c **** const int *mbedtls_cipher_list( void )
  91:Source\mbedtls_open\library/cipher.c **** {
  92:Source\mbedtls_open\library/cipher.c ****     const mbedtls_cipher_definition_t *def;
  93:Source\mbedtls_open\library/cipher.c ****     int *type;
  94:Source\mbedtls_open\library/cipher.c **** 
  95:Source\mbedtls_open\library/cipher.c ****     if( ! supported_init )
  96:Source\mbedtls_open\library/cipher.c ****     {
ARM GAS  C:\Users\Phuong\AppData\Local\Temp\ccnzvfGe.s 			page 4


  97:Source\mbedtls_open\library/cipher.c ****         def = mbedtls_cipher_definitions;
  98:Source\mbedtls_open\library/cipher.c ****         type = mbedtls_cipher_supported;
  99:Source\mbedtls_open\library/cipher.c **** 
 100:Source\mbedtls_open\library/cipher.c ****         while( def->type != 0 )
 101:Source\mbedtls_open\library/cipher.c ****             *type++ = (*def++).type;
 102:Source\mbedtls_open\library/cipher.c **** 
 103:Source\mbedtls_open\library/cipher.c ****         *type = 0;
 104:Source\mbedtls_open\library/cipher.c **** 
 105:Source\mbedtls_open\library/cipher.c ****         supported_init = 1;
 106:Source\mbedtls_open\library/cipher.c ****     }
 107:Source\mbedtls_open\library/cipher.c **** 
 108:Source\mbedtls_open\library/cipher.c ****     return( mbedtls_cipher_supported );
 109:Source\mbedtls_open\library/cipher.c **** }
 110:Source\mbedtls_open\library/cipher.c **** 
 111:Source\mbedtls_open\library/cipher.c **** const mbedtls_cipher_info_t *mbedtls_cipher_info_from_type( const mbedtls_cipher_type_t cipher_type
 112:Source\mbedtls_open\library/cipher.c **** {
 113:Source\mbedtls_open\library/cipher.c ****     const mbedtls_cipher_definition_t *def;
 114:Source\mbedtls_open\library/cipher.c **** 
 115:Source\mbedtls_open\library/cipher.c ****     for( def = mbedtls_cipher_definitions; def->info != NULL; def++ )
 116:Source\mbedtls_open\library/cipher.c ****         if( def->type == cipher_type )
 117:Source\mbedtls_open\library/cipher.c ****             return( def->info );
 118:Source\mbedtls_open\library/cipher.c **** 
 119:Source\mbedtls_open\library/cipher.c ****     return( NULL );
 120:Source\mbedtls_open\library/cipher.c **** }
 121:Source\mbedtls_open\library/cipher.c **** 
 122:Source\mbedtls_open\library/cipher.c **** const mbedtls_cipher_info_t *mbedtls_cipher_info_from_string( const char *cipher_name )
 123:Source\mbedtls_open\library/cipher.c **** {
 124:Source\mbedtls_open\library/cipher.c ****     const mbedtls_cipher_definition_t *def;
 125:Source\mbedtls_open\library/cipher.c **** 
 126:Source\mbedtls_open\library/cipher.c ****     if( NULL == cipher_name )
 127:Source\mbedtls_open\library/cipher.c ****         return( NULL );
 128:Source\mbedtls_open\library/cipher.c **** 
 129:Source\mbedtls_open\library/cipher.c ****     for( def = mbedtls_cipher_definitions; def->info != NULL; def++ )
 130:Source\mbedtls_open\library/cipher.c ****         if( !  strcmp( def->info->name, cipher_name ) )
 131:Source\mbedtls_open\library/cipher.c ****             return( def->info );
 132:Source\mbedtls_open\library/cipher.c **** 
 133:Source\mbedtls_open\library/cipher.c ****     return( NULL );
 134:Source\mbedtls_open\library/cipher.c **** }
 135:Source\mbedtls_open\library/cipher.c **** 
 136:Source\mbedtls_open\library/cipher.c **** const mbedtls_cipher_info_t *mbedtls_cipher_info_from_values( const mbedtls_cipher_id_t cipher_id,
 137:Source\mbedtls_open\library/cipher.c ****                                               int key_bitlen,
 138:Source\mbedtls_open\library/cipher.c ****                                               const mbedtls_cipher_mode_t mode )
 139:Source\mbedtls_open\library/cipher.c **** {
 140:Source\mbedtls_open\library/cipher.c ****     const mbedtls_cipher_definition_t *def;
 141:Source\mbedtls_open\library/cipher.c **** 
 142:Source\mbedtls_open\library/cipher.c ****     for( def = mbedtls_cipher_definitions; def->info != NULL; def++ )
 143:Source\mbedtls_open\library/cipher.c ****         if( def->info->base->cipher == cipher_id &&
 144:Source\mbedtls_open\library/cipher.c ****             def->info->key_bitlen == (unsigned) key_bitlen &&
 145:Source\mbedtls_open\library/cipher.c ****             def->info->mode == mode )
 146:Source\mbedtls_open\library/cipher.c ****             return( def->info );
 147:Source\mbedtls_open\library/cipher.c **** 
 148:Source\mbedtls_open\library/cipher.c ****     return( NULL );
 149:Source\mbedtls_open\library/cipher.c **** }
 150:Source\mbedtls_open\library/cipher.c **** 
 151:Source\mbedtls_open\library/cipher.c **** void mbedtls_cipher_init( mbedtls_cipher_context_t *ctx )
 152:Source\mbedtls_open\library/cipher.c **** {
 153:Source\mbedtls_open\library/cipher.c ****     memset( ctx, 0, sizeof( mbedtls_cipher_context_t ) );
ARM GAS  C:\Users\Phuong\AppData\Local\Temp\ccnzvfGe.s 			page 5


 154:Source\mbedtls_open\library/cipher.c **** }
 155:Source\mbedtls_open\library/cipher.c **** 
 156:Source\mbedtls_open\library/cipher.c **** void mbedtls_cipher_free( mbedtls_cipher_context_t *ctx )
 157:Source\mbedtls_open\library/cipher.c **** {
 158:Source\mbedtls_open\library/cipher.c ****     if( ctx == NULL )
 159:Source\mbedtls_open\library/cipher.c ****         return;
 160:Source\mbedtls_open\library/cipher.c **** 
 161:Source\mbedtls_open\library/cipher.c **** #if defined(MBEDTLS_CMAC_C)
 162:Source\mbedtls_open\library/cipher.c ****     if( ctx->cmac_ctx )
 163:Source\mbedtls_open\library/cipher.c ****     {
 164:Source\mbedtls_open\library/cipher.c ****        mbedtls_platform_zeroize( ctx->cmac_ctx,
 165:Source\mbedtls_open\library/cipher.c ****                                  sizeof( mbedtls_cmac_context_t ) );
 166:Source\mbedtls_open\library/cipher.c ****        mbedtls_free( ctx->cmac_ctx );
 167:Source\mbedtls_open\library/cipher.c ****     }
 168:Source\mbedtls_open\library/cipher.c **** #endif
 169:Source\mbedtls_open\library/cipher.c **** 
 170:Source\mbedtls_open\library/cipher.c ****     if( ctx->cipher_ctx )
 171:Source\mbedtls_open\library/cipher.c ****         ctx->cipher_info->base->ctx_free_func( ctx->cipher_ctx );
 172:Source\mbedtls_open\library/cipher.c **** 
 173:Source\mbedtls_open\library/cipher.c ****     mbedtls_platform_zeroize( ctx, sizeof(mbedtls_cipher_context_t) );
 174:Source\mbedtls_open\library/cipher.c **** }
 175:Source\mbedtls_open\library/cipher.c **** 
 176:Source\mbedtls_open\library/cipher.c **** int mbedtls_cipher_setup( mbedtls_cipher_context_t *ctx, const mbedtls_cipher_info_t *cipher_info )
 177:Source\mbedtls_open\library/cipher.c **** {
 178:Source\mbedtls_open\library/cipher.c ****     if( NULL == cipher_info || NULL == ctx )
 179:Source\mbedtls_open\library/cipher.c ****         return( MBEDTLS_ERR_CIPHER_BAD_INPUT_DATA );
 180:Source\mbedtls_open\library/cipher.c **** 
 181:Source\mbedtls_open\library/cipher.c ****     memset( ctx, 0, sizeof( mbedtls_cipher_context_t ) );
 182:Source\mbedtls_open\library/cipher.c **** 
 183:Source\mbedtls_open\library/cipher.c ****     if( NULL == ( ctx->cipher_ctx = cipher_info->base->ctx_alloc_func() ) )
 184:Source\mbedtls_open\library/cipher.c ****         return( MBEDTLS_ERR_CIPHER_ALLOC_FAILED );
 185:Source\mbedtls_open\library/cipher.c **** 
 186:Source\mbedtls_open\library/cipher.c ****     ctx->cipher_info = cipher_info;
 187:Source\mbedtls_open\library/cipher.c **** 
 188:Source\mbedtls_open\library/cipher.c **** #if defined(MBEDTLS_CIPHER_MODE_WITH_PADDING)
 189:Source\mbedtls_open\library/cipher.c ****     /*
 190:Source\mbedtls_open\library/cipher.c ****      * Ignore possible errors caused by a cipher mode that doesn't use padding
 191:Source\mbedtls_open\library/cipher.c ****      */
 192:Source\mbedtls_open\library/cipher.c **** #if defined(MBEDTLS_CIPHER_PADDING_PKCS7)
 193:Source\mbedtls_open\library/cipher.c ****     (void) mbedtls_cipher_set_padding_mode( ctx, MBEDTLS_PADDING_PKCS7 );
 194:Source\mbedtls_open\library/cipher.c **** #else
 195:Source\mbedtls_open\library/cipher.c ****     (void) mbedtls_cipher_set_padding_mode( ctx, MBEDTLS_PADDING_NONE );
 196:Source\mbedtls_open\library/cipher.c **** #endif
 197:Source\mbedtls_open\library/cipher.c **** #endif /* MBEDTLS_CIPHER_MODE_WITH_PADDING */
 198:Source\mbedtls_open\library/cipher.c **** 
 199:Source\mbedtls_open\library/cipher.c ****     return( 0 );
 200:Source\mbedtls_open\library/cipher.c **** }
 201:Source\mbedtls_open\library/cipher.c **** 
 202:Source\mbedtls_open\library/cipher.c **** int mbedtls_cipher_setkey( mbedtls_cipher_context_t *ctx, const unsigned char *key,
 203:Source\mbedtls_open\library/cipher.c ****         int key_bitlen, const mbedtls_operation_t operation )
 204:Source\mbedtls_open\library/cipher.c **** {
 205:Source\mbedtls_open\library/cipher.c ****     if( NULL == ctx || NULL == ctx->cipher_info )
 206:Source\mbedtls_open\library/cipher.c ****         return( MBEDTLS_ERR_CIPHER_BAD_INPUT_DATA );
 207:Source\mbedtls_open\library/cipher.c **** 
 208:Source\mbedtls_open\library/cipher.c ****     if( ( ctx->cipher_info->flags & MBEDTLS_CIPHER_VARIABLE_KEY_LEN ) == 0 &&
 209:Source\mbedtls_open\library/cipher.c ****         (int) ctx->cipher_info->key_bitlen != key_bitlen )
 210:Source\mbedtls_open\library/cipher.c ****     {
ARM GAS  C:\Users\Phuong\AppData\Local\Temp\ccnzvfGe.s 			page 6


 211:Source\mbedtls_open\library/cipher.c ****         return( MBEDTLS_ERR_CIPHER_BAD_INPUT_DATA );
 212:Source\mbedtls_open\library/cipher.c ****     }
 213:Source\mbedtls_open\library/cipher.c **** 
 214:Source\mbedtls_open\library/cipher.c ****     ctx->key_bitlen = key_bitlen;
 215:Source\mbedtls_open\library/cipher.c ****     ctx->operation = operation;
 216:Source\mbedtls_open\library/cipher.c **** 
 217:Source\mbedtls_open\library/cipher.c ****     /*
 218:Source\mbedtls_open\library/cipher.c ****      * For OFB, CFB and CTR mode always use the encryption key schedule
 219:Source\mbedtls_open\library/cipher.c ****      */
 220:Source\mbedtls_open\library/cipher.c ****     if( MBEDTLS_ENCRYPT == operation ||
 221:Source\mbedtls_open\library/cipher.c ****         MBEDTLS_MODE_CFB == ctx->cipher_info->mode ||
 222:Source\mbedtls_open\library/cipher.c ****         MBEDTLS_MODE_OFB == ctx->cipher_info->mode ||
 223:Source\mbedtls_open\library/cipher.c ****         MBEDTLS_MODE_CTR == ctx->cipher_info->mode )
 224:Source\mbedtls_open\library/cipher.c ****     {
 225:Source\mbedtls_open\library/cipher.c ****         return ctx->cipher_info->base->setkey_enc_func( ctx->cipher_ctx, key,
 226:Source\mbedtls_open\library/cipher.c ****                 ctx->key_bitlen );
 227:Source\mbedtls_open\library/cipher.c ****     }
 228:Source\mbedtls_open\library/cipher.c **** 
 229:Source\mbedtls_open\library/cipher.c ****     if( MBEDTLS_DECRYPT == operation )
 230:Source\mbedtls_open\library/cipher.c ****         return ctx->cipher_info->base->setkey_dec_func( ctx->cipher_ctx, key,
 231:Source\mbedtls_open\library/cipher.c ****                 ctx->key_bitlen );
 232:Source\mbedtls_open\library/cipher.c **** 
 233:Source\mbedtls_open\library/cipher.c ****     return( MBEDTLS_ERR_CIPHER_BAD_INPUT_DATA );
 234:Source\mbedtls_open\library/cipher.c **** }
 235:Source\mbedtls_open\library/cipher.c **** 
 236:Source\mbedtls_open\library/cipher.c **** int mbedtls_cipher_set_iv( mbedtls_cipher_context_t *ctx,
 237:Source\mbedtls_open\library/cipher.c ****                    const unsigned char *iv, size_t iv_len )
 238:Source\mbedtls_open\library/cipher.c **** {
 239:Source\mbedtls_open\library/cipher.c ****     size_t actual_iv_size;
 240:Source\mbedtls_open\library/cipher.c ****     if( NULL == ctx || NULL == ctx->cipher_info )
 241:Source\mbedtls_open\library/cipher.c ****         return( MBEDTLS_ERR_CIPHER_BAD_INPUT_DATA );
 242:Source\mbedtls_open\library/cipher.c ****     else if( NULL == iv && iv_len != 0  )
 243:Source\mbedtls_open\library/cipher.c ****         return( MBEDTLS_ERR_CIPHER_BAD_INPUT_DATA );
 244:Source\mbedtls_open\library/cipher.c **** 
 245:Source\mbedtls_open\library/cipher.c ****     if( NULL == iv && iv_len == 0 )
 246:Source\mbedtls_open\library/cipher.c ****         ctx->iv_size = 0;
 247:Source\mbedtls_open\library/cipher.c **** 
 248:Source\mbedtls_open\library/cipher.c ****     /* avoid buffer overflow in ctx->iv */
 249:Source\mbedtls_open\library/cipher.c ****     if( iv_len > MBEDTLS_MAX_IV_LENGTH )
 250:Source\mbedtls_open\library/cipher.c ****         return( MBEDTLS_ERR_CIPHER_FEATURE_UNAVAILABLE );
 251:Source\mbedtls_open\library/cipher.c **** 
 252:Source\mbedtls_open\library/cipher.c ****     if( ( ctx->cipher_info->flags & MBEDTLS_CIPHER_VARIABLE_IV_LEN ) != 0 )
 253:Source\mbedtls_open\library/cipher.c ****         actual_iv_size = iv_len;
 254:Source\mbedtls_open\library/cipher.c ****     else
 255:Source\mbedtls_open\library/cipher.c ****     {
 256:Source\mbedtls_open\library/cipher.c ****         actual_iv_size = ctx->cipher_info->iv_size;
 257:Source\mbedtls_open\library/cipher.c **** 
 258:Source\mbedtls_open\library/cipher.c ****         /* avoid reading past the end of input buffer */
 259:Source\mbedtls_open\library/cipher.c ****         if( actual_iv_size > iv_len )
 260:Source\mbedtls_open\library/cipher.c ****             return( MBEDTLS_ERR_CIPHER_BAD_INPUT_DATA );
 261:Source\mbedtls_open\library/cipher.c ****     }
 262:Source\mbedtls_open\library/cipher.c **** 
 263:Source\mbedtls_open\library/cipher.c **** #if defined(MBEDTLS_CHACHA20_C)
 264:Source\mbedtls_open\library/cipher.c ****     if ( ctx->cipher_info->type == MBEDTLS_CIPHER_CHACHA20 )
 265:Source\mbedtls_open\library/cipher.c ****     {
 266:Source\mbedtls_open\library/cipher.c ****         if ( 0 != mbedtls_chacha20_starts( (mbedtls_chacha20_context*)ctx->cipher_ctx,
 267:Source\mbedtls_open\library/cipher.c ****                                            iv,
ARM GAS  C:\Users\Phuong\AppData\Local\Temp\ccnzvfGe.s 			page 7


 268:Source\mbedtls_open\library/cipher.c ****                                            0U ) ) /* Initial counter value */
 269:Source\mbedtls_open\library/cipher.c ****         {
 270:Source\mbedtls_open\library/cipher.c ****             return( MBEDTLS_ERR_CIPHER_BAD_INPUT_DATA );
 271:Source\mbedtls_open\library/cipher.c ****         }
 272:Source\mbedtls_open\library/cipher.c ****     }
 273:Source\mbedtls_open\library/cipher.c **** #endif
 274:Source\mbedtls_open\library/cipher.c **** 
 275:Source\mbedtls_open\library/cipher.c ****     if ( actual_iv_size != 0 )
 276:Source\mbedtls_open\library/cipher.c ****     {
 277:Source\mbedtls_open\library/cipher.c ****         memcpy( ctx->iv, iv, actual_iv_size );
 278:Source\mbedtls_open\library/cipher.c ****         ctx->iv_size = actual_iv_size;
 279:Source\mbedtls_open\library/cipher.c ****     }
 280:Source\mbedtls_open\library/cipher.c **** 
 281:Source\mbedtls_open\library/cipher.c ****     return( 0 );
 282:Source\mbedtls_open\library/cipher.c **** }
 283:Source\mbedtls_open\library/cipher.c **** 
 284:Source\mbedtls_open\library/cipher.c **** int mbedtls_cipher_reset( mbedtls_cipher_context_t *ctx )
 285:Source\mbedtls_open\library/cipher.c **** {
 286:Source\mbedtls_open\library/cipher.c ****     if( NULL == ctx || NULL == ctx->cipher_info )
 287:Source\mbedtls_open\library/cipher.c ****         return( MBEDTLS_ERR_CIPHER_BAD_INPUT_DATA );
 288:Source\mbedtls_open\library/cipher.c **** 
 289:Source\mbedtls_open\library/cipher.c ****     ctx->unprocessed_len = 0;
 290:Source\mbedtls_open\library/cipher.c **** 
 291:Source\mbedtls_open\library/cipher.c ****     return( 0 );
 292:Source\mbedtls_open\library/cipher.c **** }
 293:Source\mbedtls_open\library/cipher.c **** 
 294:Source\mbedtls_open\library/cipher.c **** #if defined(MBEDTLS_GCM_C) || defined(MBEDTLS_CHACHAPOLY_C)
 295:Source\mbedtls_open\library/cipher.c **** int mbedtls_cipher_update_ad( mbedtls_cipher_context_t *ctx,
 296:Source\mbedtls_open\library/cipher.c ****                       const unsigned char *ad, size_t ad_len )
 297:Source\mbedtls_open\library/cipher.c **** {
 298:Source\mbedtls_open\library/cipher.c ****     if( NULL == ctx || NULL == ctx->cipher_info )
 299:Source\mbedtls_open\library/cipher.c ****         return( MBEDTLS_ERR_CIPHER_BAD_INPUT_DATA );
 300:Source\mbedtls_open\library/cipher.c **** 
 301:Source\mbedtls_open\library/cipher.c **** #if defined(MBEDTLS_GCM_C)
 302:Source\mbedtls_open\library/cipher.c ****     if( MBEDTLS_MODE_GCM == ctx->cipher_info->mode )
 303:Source\mbedtls_open\library/cipher.c ****     {
 304:Source\mbedtls_open\library/cipher.c ****         return mbedtls_gcm_starts( (mbedtls_gcm_context *) ctx->cipher_ctx, ctx->operation,
 305:Source\mbedtls_open\library/cipher.c ****                            ctx->iv, ctx->iv_size, ad, ad_len );
 306:Source\mbedtls_open\library/cipher.c ****     }
 307:Source\mbedtls_open\library/cipher.c **** #endif
 308:Source\mbedtls_open\library/cipher.c **** 
 309:Source\mbedtls_open\library/cipher.c **** #if defined(MBEDTLS_CHACHAPOLY_C)
 310:Source\mbedtls_open\library/cipher.c ****     if (MBEDTLS_CIPHER_CHACHA20_POLY1305 == ctx->cipher_info->type )
 311:Source\mbedtls_open\library/cipher.c ****     {
 312:Source\mbedtls_open\library/cipher.c ****         int result;
 313:Source\mbedtls_open\library/cipher.c ****         mbedtls_chachapoly_mode_t mode;
 314:Source\mbedtls_open\library/cipher.c **** 
 315:Source\mbedtls_open\library/cipher.c ****         mode = ( ctx->operation == MBEDTLS_ENCRYPT )
 316:Source\mbedtls_open\library/cipher.c ****                 ? MBEDTLS_CHACHAPOLY_ENCRYPT
 317:Source\mbedtls_open\library/cipher.c ****                 : MBEDTLS_CHACHAPOLY_DECRYPT;
 318:Source\mbedtls_open\library/cipher.c **** 
 319:Source\mbedtls_open\library/cipher.c ****         result = mbedtls_chachapoly_starts( (mbedtls_chachapoly_context*) ctx->cipher_ctx,
 320:Source\mbedtls_open\library/cipher.c ****                                                         ctx->iv,
 321:Source\mbedtls_open\library/cipher.c ****                                                         mode );
 322:Source\mbedtls_open\library/cipher.c ****         if ( result != 0 )
 323:Source\mbedtls_open\library/cipher.c ****             return( result );
 324:Source\mbedtls_open\library/cipher.c **** 
ARM GAS  C:\Users\Phuong\AppData\Local\Temp\ccnzvfGe.s 			page 8


 325:Source\mbedtls_open\library/cipher.c ****         return mbedtls_chachapoly_update_aad( (mbedtls_chachapoly_context*) ctx->cipher_ctx,
 326:Source\mbedtls_open\library/cipher.c ****                                                           ad, ad_len );
 327:Source\mbedtls_open\library/cipher.c ****     }
 328:Source\mbedtls_open\library/cipher.c **** #endif
 329:Source\mbedtls_open\library/cipher.c **** 
 330:Source\mbedtls_open\library/cipher.c ****     return( 0 );
 331:Source\mbedtls_open\library/cipher.c **** }
 332:Source\mbedtls_open\library/cipher.c **** #endif /* MBEDTLS_GCM_C || MBEDTLS_CHACHAPOLY_C */
 333:Source\mbedtls_open\library/cipher.c **** 
 334:Source\mbedtls_open\library/cipher.c **** int mbedtls_cipher_update( mbedtls_cipher_context_t *ctx, const unsigned char *input,
 335:Source\mbedtls_open\library/cipher.c ****                    size_t ilen, unsigned char *output, size_t *olen )
 336:Source\mbedtls_open\library/cipher.c **** {
 337:Source\mbedtls_open\library/cipher.c ****     int ret;
 338:Source\mbedtls_open\library/cipher.c ****     size_t block_size = 0;
 339:Source\mbedtls_open\library/cipher.c **** 
 340:Source\mbedtls_open\library/cipher.c ****     if( NULL == ctx || NULL == ctx->cipher_info || NULL == olen )
 341:Source\mbedtls_open\library/cipher.c ****     {
 342:Source\mbedtls_open\library/cipher.c ****         return( MBEDTLS_ERR_CIPHER_BAD_INPUT_DATA );
 343:Source\mbedtls_open\library/cipher.c ****     }
 344:Source\mbedtls_open\library/cipher.c **** 
 345:Source\mbedtls_open\library/cipher.c ****     *olen = 0;
 346:Source\mbedtls_open\library/cipher.c ****     block_size = mbedtls_cipher_get_block_size( ctx );
 347:Source\mbedtls_open\library/cipher.c **** 
 348:Source\mbedtls_open\library/cipher.c ****     if( ctx->cipher_info->mode == MBEDTLS_MODE_ECB )
 349:Source\mbedtls_open\library/cipher.c ****     {
 350:Source\mbedtls_open\library/cipher.c ****         if( ilen != block_size )
 351:Source\mbedtls_open\library/cipher.c ****             return( MBEDTLS_ERR_CIPHER_FULL_BLOCK_EXPECTED );
 352:Source\mbedtls_open\library/cipher.c **** 
 353:Source\mbedtls_open\library/cipher.c ****         *olen = ilen;
 354:Source\mbedtls_open\library/cipher.c **** 
 355:Source\mbedtls_open\library/cipher.c ****         if( 0 != ( ret = ctx->cipher_info->base->ecb_func( ctx->cipher_ctx,
 356:Source\mbedtls_open\library/cipher.c ****                     ctx->operation, input, output ) ) )
 357:Source\mbedtls_open\library/cipher.c ****         {
 358:Source\mbedtls_open\library/cipher.c ****             return( ret );
 359:Source\mbedtls_open\library/cipher.c ****         }
 360:Source\mbedtls_open\library/cipher.c **** 
 361:Source\mbedtls_open\library/cipher.c ****         return( 0 );
 362:Source\mbedtls_open\library/cipher.c ****     }
 363:Source\mbedtls_open\library/cipher.c **** 
 364:Source\mbedtls_open\library/cipher.c **** #if defined(MBEDTLS_GCM_C)
 365:Source\mbedtls_open\library/cipher.c ****     if( ctx->cipher_info->mode == MBEDTLS_MODE_GCM )
 366:Source\mbedtls_open\library/cipher.c ****     {
 367:Source\mbedtls_open\library/cipher.c ****         *olen = ilen;
 368:Source\mbedtls_open\library/cipher.c ****         return mbedtls_gcm_update( (mbedtls_gcm_context *) ctx->cipher_ctx, ilen, input,
 369:Source\mbedtls_open\library/cipher.c ****                            output );
 370:Source\mbedtls_open\library/cipher.c ****     }
 371:Source\mbedtls_open\library/cipher.c **** #endif
 372:Source\mbedtls_open\library/cipher.c **** 
 373:Source\mbedtls_open\library/cipher.c **** #if defined(MBEDTLS_CHACHAPOLY_C)
 374:Source\mbedtls_open\library/cipher.c ****     if ( ctx->cipher_info->type == MBEDTLS_CIPHER_CHACHA20_POLY1305 )
 375:Source\mbedtls_open\library/cipher.c ****     {
 376:Source\mbedtls_open\library/cipher.c ****         *olen = ilen;
 377:Source\mbedtls_open\library/cipher.c ****         return mbedtls_chachapoly_update( (mbedtls_chachapoly_context*) ctx->cipher_ctx,
 378:Source\mbedtls_open\library/cipher.c ****                                                       ilen, input, output );
 379:Source\mbedtls_open\library/cipher.c ****     }
 380:Source\mbedtls_open\library/cipher.c **** #endif
 381:Source\mbedtls_open\library/cipher.c **** 
ARM GAS  C:\Users\Phuong\AppData\Local\Temp\ccnzvfGe.s 			page 9


 382:Source\mbedtls_open\library/cipher.c ****     if ( 0 == block_size )
 383:Source\mbedtls_open\library/cipher.c ****     {
 384:Source\mbedtls_open\library/cipher.c ****         return MBEDTLS_ERR_CIPHER_INVALID_CONTEXT;
 385:Source\mbedtls_open\library/cipher.c ****     }
 386:Source\mbedtls_open\library/cipher.c **** 
 387:Source\mbedtls_open\library/cipher.c ****     if( input == output &&
 388:Source\mbedtls_open\library/cipher.c ****        ( ctx->unprocessed_len != 0 || ilen % block_size ) )
 389:Source\mbedtls_open\library/cipher.c ****     {
 390:Source\mbedtls_open\library/cipher.c ****         return( MBEDTLS_ERR_CIPHER_BAD_INPUT_DATA );
 391:Source\mbedtls_open\library/cipher.c ****     }
 392:Source\mbedtls_open\library/cipher.c **** 
 393:Source\mbedtls_open\library/cipher.c **** #if defined(MBEDTLS_CIPHER_MODE_CBC)
 394:Source\mbedtls_open\library/cipher.c ****     if( ctx->cipher_info->mode == MBEDTLS_MODE_CBC )
 395:Source\mbedtls_open\library/cipher.c ****     {
 396:Source\mbedtls_open\library/cipher.c ****         size_t copy_len = 0;
 397:Source\mbedtls_open\library/cipher.c **** 
 398:Source\mbedtls_open\library/cipher.c ****         /*
 399:Source\mbedtls_open\library/cipher.c ****          * If there is not enough data for a full block, cache it.
 400:Source\mbedtls_open\library/cipher.c ****          */
 401:Source\mbedtls_open\library/cipher.c ****         if( ( ctx->operation == MBEDTLS_DECRYPT && NULL != ctx->add_padding &&
 402:Source\mbedtls_open\library/cipher.c ****                 ilen <= block_size - ctx->unprocessed_len ) ||
 403:Source\mbedtls_open\library/cipher.c ****             ( ctx->operation == MBEDTLS_DECRYPT && NULL == ctx->add_padding &&
 404:Source\mbedtls_open\library/cipher.c ****                 ilen < block_size - ctx->unprocessed_len ) ||
 405:Source\mbedtls_open\library/cipher.c ****              ( ctx->operation == MBEDTLS_ENCRYPT &&
 406:Source\mbedtls_open\library/cipher.c ****                 ilen < block_size - ctx->unprocessed_len ) )
 407:Source\mbedtls_open\library/cipher.c ****         {
 408:Source\mbedtls_open\library/cipher.c ****             memcpy( &( ctx->unprocessed_data[ctx->unprocessed_len] ), input,
 409:Source\mbedtls_open\library/cipher.c ****                     ilen );
 410:Source\mbedtls_open\library/cipher.c **** 
 411:Source\mbedtls_open\library/cipher.c ****             ctx->unprocessed_len += ilen;
 412:Source\mbedtls_open\library/cipher.c ****             return( 0 );
 413:Source\mbedtls_open\library/cipher.c ****         }
 414:Source\mbedtls_open\library/cipher.c **** 
 415:Source\mbedtls_open\library/cipher.c ****         /*
 416:Source\mbedtls_open\library/cipher.c ****          * Process cached data first
 417:Source\mbedtls_open\library/cipher.c ****          */
 418:Source\mbedtls_open\library/cipher.c ****         if( 0 != ctx->unprocessed_len )
 419:Source\mbedtls_open\library/cipher.c ****         {
 420:Source\mbedtls_open\library/cipher.c ****             copy_len = block_size - ctx->unprocessed_len;
 421:Source\mbedtls_open\library/cipher.c **** 
 422:Source\mbedtls_open\library/cipher.c ****             memcpy( &( ctx->unprocessed_data[ctx->unprocessed_len] ), input,
 423:Source\mbedtls_open\library/cipher.c ****                     copy_len );
 424:Source\mbedtls_open\library/cipher.c **** 
 425:Source\mbedtls_open\library/cipher.c ****             if( 0 != ( ret = ctx->cipher_info->base->cbc_func( ctx->cipher_ctx,
 426:Source\mbedtls_open\library/cipher.c ****                     ctx->operation, block_size, ctx->iv,
 427:Source\mbedtls_open\library/cipher.c ****                     ctx->unprocessed_data, output ) ) )
 428:Source\mbedtls_open\library/cipher.c ****             {
 429:Source\mbedtls_open\library/cipher.c ****                 return( ret );
 430:Source\mbedtls_open\library/cipher.c ****             }
 431:Source\mbedtls_open\library/cipher.c **** 
 432:Source\mbedtls_open\library/cipher.c ****             *olen += block_size;
 433:Source\mbedtls_open\library/cipher.c ****             output += block_size;
 434:Source\mbedtls_open\library/cipher.c ****             ctx->unprocessed_len = 0;
 435:Source\mbedtls_open\library/cipher.c **** 
 436:Source\mbedtls_open\library/cipher.c ****             input += copy_len;
 437:Source\mbedtls_open\library/cipher.c ****             ilen -= copy_len;
 438:Source\mbedtls_open\library/cipher.c ****         }
ARM GAS  C:\Users\Phuong\AppData\Local\Temp\ccnzvfGe.s 			page 10


 439:Source\mbedtls_open\library/cipher.c **** 
 440:Source\mbedtls_open\library/cipher.c ****         /*
 441:Source\mbedtls_open\library/cipher.c ****          * Cache final, incomplete block
 442:Source\mbedtls_open\library/cipher.c ****          */
 443:Source\mbedtls_open\library/cipher.c ****         if( 0 != ilen )
 444:Source\mbedtls_open\library/cipher.c ****         {
 445:Source\mbedtls_open\library/cipher.c ****             if( 0 == block_size )
 446:Source\mbedtls_open\library/cipher.c ****             {
 447:Source\mbedtls_open\library/cipher.c ****                 return MBEDTLS_ERR_CIPHER_INVALID_CONTEXT;
 448:Source\mbedtls_open\library/cipher.c ****             }
 449:Source\mbedtls_open\library/cipher.c **** 
 450:Source\mbedtls_open\library/cipher.c ****             /* Encryption: only cache partial blocks
 451:Source\mbedtls_open\library/cipher.c ****              * Decryption w/ padding: always keep at least one whole block
 452:Source\mbedtls_open\library/cipher.c ****              * Decryption w/o padding: only cache partial blocks
 453:Source\mbedtls_open\library/cipher.c ****              */
 454:Source\mbedtls_open\library/cipher.c ****             copy_len = ilen % block_size;
 455:Source\mbedtls_open\library/cipher.c ****             if( copy_len == 0 &&
 456:Source\mbedtls_open\library/cipher.c ****                 ctx->operation == MBEDTLS_DECRYPT &&
 457:Source\mbedtls_open\library/cipher.c ****                 NULL != ctx->add_padding)
 458:Source\mbedtls_open\library/cipher.c ****             {
 459:Source\mbedtls_open\library/cipher.c ****                 copy_len = block_size;
 460:Source\mbedtls_open\library/cipher.c ****             }
 461:Source\mbedtls_open\library/cipher.c **** 
 462:Source\mbedtls_open\library/cipher.c ****             memcpy( ctx->unprocessed_data, &( input[ilen - copy_len] ),
 463:Source\mbedtls_open\library/cipher.c ****                     copy_len );
 464:Source\mbedtls_open\library/cipher.c **** 
 465:Source\mbedtls_open\library/cipher.c ****             ctx->unprocessed_len += copy_len;
 466:Source\mbedtls_open\library/cipher.c ****             ilen -= copy_len;
 467:Source\mbedtls_open\library/cipher.c ****         }
 468:Source\mbedtls_open\library/cipher.c **** 
 469:Source\mbedtls_open\library/cipher.c ****         /*
 470:Source\mbedtls_open\library/cipher.c ****          * Process remaining full blocks
 471:Source\mbedtls_open\library/cipher.c ****          */
 472:Source\mbedtls_open\library/cipher.c ****         if( ilen )
 473:Source\mbedtls_open\library/cipher.c ****         {
 474:Source\mbedtls_open\library/cipher.c ****             if( 0 != ( ret = ctx->cipher_info->base->cbc_func( ctx->cipher_ctx,
 475:Source\mbedtls_open\library/cipher.c ****                     ctx->operation, ilen, ctx->iv, input, output ) ) )
 476:Source\mbedtls_open\library/cipher.c ****             {
 477:Source\mbedtls_open\library/cipher.c ****                 return( ret );
 478:Source\mbedtls_open\library/cipher.c ****             }
 479:Source\mbedtls_open\library/cipher.c **** 
 480:Source\mbedtls_open\library/cipher.c ****             *olen += ilen;
 481:Source\mbedtls_open\library/cipher.c ****         }
 482:Source\mbedtls_open\library/cipher.c **** 
 483:Source\mbedtls_open\library/cipher.c ****         return( 0 );
 484:Source\mbedtls_open\library/cipher.c ****     }
 485:Source\mbedtls_open\library/cipher.c **** #endif /* MBEDTLS_CIPHER_MODE_CBC */
 486:Source\mbedtls_open\library/cipher.c **** 
 487:Source\mbedtls_open\library/cipher.c **** #if defined(MBEDTLS_CIPHER_MODE_CFB)
 488:Source\mbedtls_open\library/cipher.c ****     if( ctx->cipher_info->mode == MBEDTLS_MODE_CFB )
 489:Source\mbedtls_open\library/cipher.c ****     {
 490:Source\mbedtls_open\library/cipher.c ****         if( 0 != ( ret = ctx->cipher_info->base->cfb_func( ctx->cipher_ctx,
 491:Source\mbedtls_open\library/cipher.c ****                 ctx->operation, ilen, &ctx->unprocessed_len, ctx->iv,
 492:Source\mbedtls_open\library/cipher.c ****                 input, output ) ) )
 493:Source\mbedtls_open\library/cipher.c ****         {
 494:Source\mbedtls_open\library/cipher.c ****             return( ret );
 495:Source\mbedtls_open\library/cipher.c ****         }
ARM GAS  C:\Users\Phuong\AppData\Local\Temp\ccnzvfGe.s 			page 11


 496:Source\mbedtls_open\library/cipher.c **** 
 497:Source\mbedtls_open\library/cipher.c ****         *olen = ilen;
 498:Source\mbedtls_open\library/cipher.c **** 
 499:Source\mbedtls_open\library/cipher.c ****         return( 0 );
 500:Source\mbedtls_open\library/cipher.c ****     }
 501:Source\mbedtls_open\library/cipher.c **** #endif /* MBEDTLS_CIPHER_MODE_CFB */
 502:Source\mbedtls_open\library/cipher.c **** 
 503:Source\mbedtls_open\library/cipher.c **** #if defined(MBEDTLS_CIPHER_MODE_OFB)
 504:Source\mbedtls_open\library/cipher.c ****     if( ctx->cipher_info->mode == MBEDTLS_MODE_OFB )
 505:Source\mbedtls_open\library/cipher.c ****     {
 506:Source\mbedtls_open\library/cipher.c ****         if( 0 != ( ret = ctx->cipher_info->base->ofb_func( ctx->cipher_ctx,
 507:Source\mbedtls_open\library/cipher.c ****                 ilen, &ctx->unprocessed_len, ctx->iv, input, output ) ) )
 508:Source\mbedtls_open\library/cipher.c ****         {
 509:Source\mbedtls_open\library/cipher.c ****             return( ret );
 510:Source\mbedtls_open\library/cipher.c ****         }
 511:Source\mbedtls_open\library/cipher.c **** 
 512:Source\mbedtls_open\library/cipher.c ****         *olen = ilen;
 513:Source\mbedtls_open\library/cipher.c **** 
 514:Source\mbedtls_open\library/cipher.c ****         return( 0 );
 515:Source\mbedtls_open\library/cipher.c ****     }
 516:Source\mbedtls_open\library/cipher.c **** #endif /* MBEDTLS_CIPHER_MODE_OFB */
 517:Source\mbedtls_open\library/cipher.c **** 
 518:Source\mbedtls_open\library/cipher.c **** #if defined(MBEDTLS_CIPHER_MODE_CTR)
 519:Source\mbedtls_open\library/cipher.c ****     if( ctx->cipher_info->mode == MBEDTLS_MODE_CTR )
 520:Source\mbedtls_open\library/cipher.c ****     {
 521:Source\mbedtls_open\library/cipher.c ****         if( 0 != ( ret = ctx->cipher_info->base->ctr_func( ctx->cipher_ctx,
 522:Source\mbedtls_open\library/cipher.c ****                 ilen, &ctx->unprocessed_len, ctx->iv,
 523:Source\mbedtls_open\library/cipher.c ****                 ctx->unprocessed_data, input, output ) ) )
 524:Source\mbedtls_open\library/cipher.c ****         {
 525:Source\mbedtls_open\library/cipher.c ****             return( ret );
 526:Source\mbedtls_open\library/cipher.c ****         }
 527:Source\mbedtls_open\library/cipher.c **** 
 528:Source\mbedtls_open\library/cipher.c ****         *olen = ilen;
 529:Source\mbedtls_open\library/cipher.c **** 
 530:Source\mbedtls_open\library/cipher.c ****         return( 0 );
 531:Source\mbedtls_open\library/cipher.c ****     }
 532:Source\mbedtls_open\library/cipher.c **** #endif /* MBEDTLS_CIPHER_MODE_CTR */
 533:Source\mbedtls_open\library/cipher.c **** 
 534:Source\mbedtls_open\library/cipher.c **** #if defined(MBEDTLS_CIPHER_MODE_XTS)
 535:Source\mbedtls_open\library/cipher.c ****     if( ctx->cipher_info->mode == MBEDTLS_MODE_XTS )
 536:Source\mbedtls_open\library/cipher.c ****     {
 537:Source\mbedtls_open\library/cipher.c ****         if( ctx->unprocessed_len > 0 ) {
 538:Source\mbedtls_open\library/cipher.c ****             /* We can only process an entire data unit at a time. */
 539:Source\mbedtls_open\library/cipher.c ****             return( MBEDTLS_ERR_CIPHER_FEATURE_UNAVAILABLE );
 540:Source\mbedtls_open\library/cipher.c ****         }
 541:Source\mbedtls_open\library/cipher.c **** 
 542:Source\mbedtls_open\library/cipher.c ****         ret = ctx->cipher_info->base->xts_func( ctx->cipher_ctx,
 543:Source\mbedtls_open\library/cipher.c ****                 ctx->operation, ilen, ctx->iv, input, output );
 544:Source\mbedtls_open\library/cipher.c ****         if( ret != 0 )
 545:Source\mbedtls_open\library/cipher.c ****         {
 546:Source\mbedtls_open\library/cipher.c ****             return( ret );
 547:Source\mbedtls_open\library/cipher.c ****         }
 548:Source\mbedtls_open\library/cipher.c **** 
 549:Source\mbedtls_open\library/cipher.c ****         *olen = ilen;
 550:Source\mbedtls_open\library/cipher.c **** 
 551:Source\mbedtls_open\library/cipher.c ****         return( 0 );
 552:Source\mbedtls_open\library/cipher.c ****     }
ARM GAS  C:\Users\Phuong\AppData\Local\Temp\ccnzvfGe.s 			page 12


 553:Source\mbedtls_open\library/cipher.c **** #endif /* MBEDTLS_CIPHER_MODE_XTS */
 554:Source\mbedtls_open\library/cipher.c **** 
 555:Source\mbedtls_open\library/cipher.c **** #if defined(MBEDTLS_CIPHER_MODE_STREAM)
 556:Source\mbedtls_open\library/cipher.c ****     if( ctx->cipher_info->mode == MBEDTLS_MODE_STREAM )
 557:Source\mbedtls_open\library/cipher.c ****     {
 558:Source\mbedtls_open\library/cipher.c ****         if( 0 != ( ret = ctx->cipher_info->base->stream_func( ctx->cipher_ctx,
 559:Source\mbedtls_open\library/cipher.c ****                                                     ilen, input, output ) ) )
 560:Source\mbedtls_open\library/cipher.c ****         {
 561:Source\mbedtls_open\library/cipher.c ****             return( ret );
 562:Source\mbedtls_open\library/cipher.c ****         }
 563:Source\mbedtls_open\library/cipher.c **** 
 564:Source\mbedtls_open\library/cipher.c ****         *olen = ilen;
 565:Source\mbedtls_open\library/cipher.c **** 
 566:Source\mbedtls_open\library/cipher.c ****         return( 0 );
 567:Source\mbedtls_open\library/cipher.c ****     }
 568:Source\mbedtls_open\library/cipher.c **** #endif /* MBEDTLS_CIPHER_MODE_STREAM */
 569:Source\mbedtls_open\library/cipher.c **** 
 570:Source\mbedtls_open\library/cipher.c ****     return( MBEDTLS_ERR_CIPHER_FEATURE_UNAVAILABLE );
 571:Source\mbedtls_open\library/cipher.c **** }
 572:Source\mbedtls_open\library/cipher.c **** 
 573:Source\mbedtls_open\library/cipher.c **** #if defined(MBEDTLS_CIPHER_MODE_WITH_PADDING)
 574:Source\mbedtls_open\library/cipher.c **** #if defined(MBEDTLS_CIPHER_PADDING_PKCS7)
 575:Source\mbedtls_open\library/cipher.c **** /*
 576:Source\mbedtls_open\library/cipher.c ****  * PKCS7 (and PKCS5) padding: fill with ll bytes, with ll = padding_len
 577:Source\mbedtls_open\library/cipher.c ****  */
 578:Source\mbedtls_open\library/cipher.c **** static void add_pkcs_padding( unsigned char *output, size_t output_len,
 579:Source\mbedtls_open\library/cipher.c ****         size_t data_len )
 580:Source\mbedtls_open\library/cipher.c **** {
  74              		.loc 1 580 0
  75              		.cfi_startproc
  76              		@ args = 0, pretend = 0, frame = 0
  77              		@ frame_needed = 0, uses_anonymous_args = 0
  78              	.LVL7:
  79 0000 10B5     		push	{r4, lr}
  80              		.cfi_def_cfa_offset 8
  81              		.cfi_offset 4, -8
  82              		.cfi_offset 14, -4
 581:Source\mbedtls_open\library/cipher.c ****     size_t padding_len = output_len - data_len;
  83              		.loc 1 581 0
  84 0002 891A     		subs	r1, r1, r2
  85              	.LVL8:
 582:Source\mbedtls_open\library/cipher.c ****     unsigned char i;
 583:Source\mbedtls_open\library/cipher.c **** 
 584:Source\mbedtls_open\library/cipher.c ****     for( i = 0; i < padding_len; i++ )
  86              		.loc 1 584 0
  87 0004 0023     		movs	r3, #0
  88 0006 03E0     		b	.L5
  89              	.LVL9:
  90              	.L6:
 585:Source\mbedtls_open\library/cipher.c ****         output[data_len + i] = (unsigned char) padding_len;
  91              		.loc 1 585 0 discriminator 3
  92 0008 D418     		adds	r4, r2, r3
  93 000a 0155     		strb	r1, [r0, r4]
 584:Source\mbedtls_open\library/cipher.c ****         output[data_len + i] = (unsigned char) padding_len;
  94              		.loc 1 584 0 discriminator 3
  95 000c 0133     		adds	r3, r3, #1
  96              	.LVL10:
ARM GAS  C:\Users\Phuong\AppData\Local\Temp\ccnzvfGe.s 			page 13


  97 000e DBB2     		uxtb	r3, r3
  98              	.LVL11:
  99              	.L5:
 584:Source\mbedtls_open\library/cipher.c ****         output[data_len + i] = (unsigned char) padding_len;
 100              		.loc 1 584 0 is_stmt 0 discriminator 1
 101 0010 9942     		cmp	r1, r3
 102 0012 F9D8     		bhi	.L6
 586:Source\mbedtls_open\library/cipher.c **** }
 103              		.loc 1 586 0 is_stmt 1
 104              		@ sp needed
 105 0014 10BD     		pop	{r4, pc}
 106              		.cfi_endproc
 107              	.LFE21:
 108              		.size	add_pkcs_padding, .-add_pkcs_padding
 109 0016 C046     		.section	.text.get_pkcs_padding,"ax",%progbits
 110              		.align	2
 111              		.code	16
 112              		.thumb_func
 113              		.type	get_pkcs_padding, %function
 114              	get_pkcs_padding:
 115              	.LFB22:
 587:Source\mbedtls_open\library/cipher.c **** 
 588:Source\mbedtls_open\library/cipher.c **** static int get_pkcs_padding( unsigned char *input, size_t input_len,
 589:Source\mbedtls_open\library/cipher.c ****         size_t *data_len )
 590:Source\mbedtls_open\library/cipher.c **** {
 116              		.loc 1 590 0
 117              		.cfi_startproc
 118              		@ args = 0, pretend = 0, frame = 0
 119              		@ frame_needed = 0, uses_anonymous_args = 0
 120              	.LVL12:
 121 0000 F0B5     		push	{r4, r5, r6, r7, lr}
 122              		.cfi_def_cfa_offset 20
 123              		.cfi_offset 4, -20
 124              		.cfi_offset 5, -16
 125              		.cfi_offset 6, -12
 126              		.cfi_offset 7, -8
 127              		.cfi_offset 14, -4
 128              	.LVL13:
 591:Source\mbedtls_open\library/cipher.c ****     size_t i, pad_idx;
 592:Source\mbedtls_open\library/cipher.c ****     unsigned char padding_len, bad = 0;
 593:Source\mbedtls_open\library/cipher.c **** 
 594:Source\mbedtls_open\library/cipher.c ****     if( NULL == input || NULL == data_len )
 129              		.loc 1 594 0
 130 0002 0028     		cmp	r0, #0
 131 0004 1DD0     		beq	.L11
 132              		.loc 1 594 0 is_stmt 0 discriminator 1
 133 0006 002A     		cmp	r2, #0
 134 0008 1DD0     		beq	.L12
 595:Source\mbedtls_open\library/cipher.c ****         return( MBEDTLS_ERR_CIPHER_BAD_INPUT_DATA );
 596:Source\mbedtls_open\library/cipher.c **** 
 597:Source\mbedtls_open\library/cipher.c ****     padding_len = input[input_len - 1];
 135              		.loc 1 597 0 is_stmt 1
 136 000a 4B1E     		subs	r3, r1, #1
 137 000c C65C     		ldrb	r6, [r0, r3]
 138              	.LVL14:
 598:Source\mbedtls_open\library/cipher.c ****     *data_len = input_len - padding_len;
 139              		.loc 1 598 0
ARM GAS  C:\Users\Phuong\AppData\Local\Temp\ccnzvfGe.s 			page 14


 140 000e 8F1B     		subs	r7, r1, r6
 141 0010 1760     		str	r7, [r2]
 599:Source\mbedtls_open\library/cipher.c **** 
 600:Source\mbedtls_open\library/cipher.c ****     /* Avoid logical || since it results in a branch */
 601:Source\mbedtls_open\library/cipher.c ****     bad |= padding_len > input_len;
 142              		.loc 1 601 0
 143 0012 B142     		cmp	r1, r6
 144 0014 AD41     		sbcs	r5, r5, r5
 145 0016 6B42     		rsbs	r3, r5, #0
 146              	.LVL15:
 602:Source\mbedtls_open\library/cipher.c ****     bad |= padding_len == 0;
 147              		.loc 1 602 0
 148 0018 7542     		rsbs	r5, r6, #0
 149 001a 7541     		adcs	r5, r5, r6
 150              	.LVL16:
 151 001c 1D43     		orrs	r5, r3
 152              	.LVL17:
 603:Source\mbedtls_open\library/cipher.c **** 
 604:Source\mbedtls_open\library/cipher.c ****     /* The number of bytes checked must be independent of padding_len,
 605:Source\mbedtls_open\library/cipher.c ****      * so pick input_len, which is usually 8 or 16 (one block) */
 606:Source\mbedtls_open\library/cipher.c ****     pad_idx = input_len - padding_len;
 607:Source\mbedtls_open\library/cipher.c ****     for( i = 0; i < input_len; i++ )
 153              		.loc 1 607 0
 154 001e 0024     		movs	r4, #0
 155 0020 09E0     		b	.L9
 156              	.LVL18:
 157              	.L10:
 608:Source\mbedtls_open\library/cipher.c ****         bad |= ( input[i] ^ padding_len ) * ( i >= pad_idx );
 158              		.loc 1 608 0 discriminator 3
 159 0022 025D     		ldrb	r2, [r0, r4]
 160 0024 0023     		movs	r3, #0
 161 0026 BC42     		cmp	r4, r7
 162 0028 5B41     		adcs	r3, r3, r3
 163 002a DBB2     		uxtb	r3, r3
 164 002c 7240     		eors	r2, r6
 165 002e 5343     		muls	r3, r2
 166 0030 2B43     		orrs	r3, r5
 167 0032 DDB2     		uxtb	r5, r3
 168              	.LVL19:
 607:Source\mbedtls_open\library/cipher.c ****         bad |= ( input[i] ^ padding_len ) * ( i >= pad_idx );
 169              		.loc 1 607 0 discriminator 3
 170 0034 0134     		adds	r4, r4, #1
 171              	.LVL20:
 172              	.L9:
 607:Source\mbedtls_open\library/cipher.c ****         bad |= ( input[i] ^ padding_len ) * ( i >= pad_idx );
 173              		.loc 1 607 0 is_stmt 0 discriminator 1
 174 0036 8C42     		cmp	r4, r1
 175 0038 F3D3     		bcc	.L10
 609:Source\mbedtls_open\library/cipher.c **** 
 610:Source\mbedtls_open\library/cipher.c ****     return( MBEDTLS_ERR_CIPHER_INVALID_PADDING * ( bad != 0 ) );
 176              		.loc 1 610 0 is_stmt 1
 177 003a 002D     		cmp	r5, #0
 178 003c 05D0     		beq	.L13
 179 003e 0448     		ldr	r0, .L14
 180              	.LVL21:
 181 0040 04E0     		b	.L8
 182              	.LVL22:
ARM GAS  C:\Users\Phuong\AppData\Local\Temp\ccnzvfGe.s 			page 15


 183              	.L11:
 595:Source\mbedtls_open\library/cipher.c **** 
 184              		.loc 1 595 0
 185 0042 0448     		ldr	r0, .L14+4
 186              	.LVL23:
 187 0044 02E0     		b	.L8
 188              	.LVL24:
 189              	.L12:
 190 0046 0348     		ldr	r0, .L14+4
 191              	.LVL25:
 192 0048 00E0     		b	.L8
 193              	.LVL26:
 194              	.L13:
 195              		.loc 1 610 0
 196 004a 0020     		movs	r0, #0
 197              	.LVL27:
 198              	.L8:
 611:Source\mbedtls_open\library/cipher.c **** }
 199              		.loc 1 611 0
 200              		@ sp needed
 201 004c F0BD     		pop	{r4, r5, r6, r7, pc}
 202              	.L15:
 203 004e C046     		.align	2
 204              	.L14:
 205 0050 009EFFFF 		.word	-25088
 206 0054 009FFFFF 		.word	-24832
 207              		.cfi_endproc
 208              	.LFE22:
 209              		.size	get_pkcs_padding, .-get_pkcs_padding
 210              		.section	.text.add_one_and_zeros_padding,"ax",%progbits
 211              		.align	2
 212              		.code	16
 213              		.thumb_func
 214              		.type	add_one_and_zeros_padding, %function
 215              	add_one_and_zeros_padding:
 216              	.LFB23:
 612:Source\mbedtls_open\library/cipher.c **** #endif /* MBEDTLS_CIPHER_PADDING_PKCS7 */
 613:Source\mbedtls_open\library/cipher.c **** 
 614:Source\mbedtls_open\library/cipher.c **** #if defined(MBEDTLS_CIPHER_PADDING_ONE_AND_ZEROS)
 615:Source\mbedtls_open\library/cipher.c **** /*
 616:Source\mbedtls_open\library/cipher.c ****  * One and zeros padding: fill with 80 00 ... 00
 617:Source\mbedtls_open\library/cipher.c ****  */
 618:Source\mbedtls_open\library/cipher.c **** static void add_one_and_zeros_padding( unsigned char *output,
 619:Source\mbedtls_open\library/cipher.c ****                                        size_t output_len, size_t data_len )
 620:Source\mbedtls_open\library/cipher.c **** {
 217              		.loc 1 620 0
 218              		.cfi_startproc
 219              		@ args = 0, pretend = 0, frame = 0
 220              		@ frame_needed = 0, uses_anonymous_args = 0
 221              	.LVL28:
 222 0000 30B5     		push	{r4, r5, lr}
 223              		.cfi_def_cfa_offset 12
 224              		.cfi_offset 4, -12
 225              		.cfi_offset 5, -8
 226              		.cfi_offset 14, -4
 621:Source\mbedtls_open\library/cipher.c ****     size_t padding_len = output_len - data_len;
 227              		.loc 1 621 0
ARM GAS  C:\Users\Phuong\AppData\Local\Temp\ccnzvfGe.s 			page 16


 228 0002 891A     		subs	r1, r1, r2
 229              	.LVL29:
 622:Source\mbedtls_open\library/cipher.c ****     unsigned char i = 0;
 623:Source\mbedtls_open\library/cipher.c **** 
 624:Source\mbedtls_open\library/cipher.c ****     output[data_len] = 0x80;
 230              		.loc 1 624 0
 231 0004 8023     		movs	r3, #128
 232 0006 8354     		strb	r3, [r0, r2]
 233              	.LVL30:
 625:Source\mbedtls_open\library/cipher.c ****     for( i = 1; i < padding_len; i++ )
 234              		.loc 1 625 0
 235 0008 7F3B     		subs	r3, r3, #127
 236 000a 05E0     		b	.L17
 237              	.LVL31:
 238              	.L18:
 626:Source\mbedtls_open\library/cipher.c ****         output[data_len + i] = 0x00;
 239              		.loc 1 626 0 discriminator 3
 240 000c D418     		adds	r4, r2, r3
 241 000e 0419     		adds	r4, r0, r4
 242 0010 0025     		movs	r5, #0
 243 0012 2570     		strb	r5, [r4]
 625:Source\mbedtls_open\library/cipher.c ****     for( i = 1; i < padding_len; i++ )
 244              		.loc 1 625 0 discriminator 3
 245 0014 0133     		adds	r3, r3, #1
 246              	.LVL32:
 247 0016 DBB2     		uxtb	r3, r3
 248              	.LVL33:
 249              	.L17:
 625:Source\mbedtls_open\library/cipher.c ****     for( i = 1; i < padding_len; i++ )
 250              		.loc 1 625 0 is_stmt 0 discriminator 1
 251 0018 9942     		cmp	r1, r3
 252 001a F7D8     		bhi	.L18
 627:Source\mbedtls_open\library/cipher.c **** }
 253              		.loc 1 627 0 is_stmt 1
 254              		@ sp needed
 255 001c 30BD     		pop	{r4, r5, pc}
 256              		.cfi_endproc
 257              	.LFE23:
 258              		.size	add_one_and_zeros_padding, .-add_one_and_zeros_padding
 259 001e C046     		.section	.text.get_one_and_zeros_padding,"ax",%progbits
 260              		.align	2
 261              		.code	16
 262              		.thumb_func
 263              		.type	get_one_and_zeros_padding, %function
 264              	get_one_and_zeros_padding:
 265              	.LFB24:
 628:Source\mbedtls_open\library/cipher.c **** 
 629:Source\mbedtls_open\library/cipher.c **** static int get_one_and_zeros_padding( unsigned char *input, size_t input_len,
 630:Source\mbedtls_open\library/cipher.c ****                                       size_t *data_len )
 631:Source\mbedtls_open\library/cipher.c **** {
 266              		.loc 1 631 0
 267              		.cfi_startproc
 268              		@ args = 0, pretend = 0, frame = 0
 269              		@ frame_needed = 0, uses_anonymous_args = 0
 270              	.LVL34:
 271 0000 F0B5     		push	{r4, r5, r6, r7, lr}
 272              		.cfi_def_cfa_offset 20
ARM GAS  C:\Users\Phuong\AppData\Local\Temp\ccnzvfGe.s 			page 17


 273              		.cfi_offset 4, -20
 274              		.cfi_offset 5, -16
 275              		.cfi_offset 6, -12
 276              		.cfi_offset 7, -8
 277              		.cfi_offset 14, -4
 278 0002 8446     		mov	ip, r0
 279              	.LVL35:
 632:Source\mbedtls_open\library/cipher.c ****     size_t i;
 633:Source\mbedtls_open\library/cipher.c ****     unsigned char done = 0, prev_done, bad;
 634:Source\mbedtls_open\library/cipher.c **** 
 635:Source\mbedtls_open\library/cipher.c ****     if( NULL == input || NULL == data_len )
 280              		.loc 1 635 0
 281 0004 0028     		cmp	r0, #0
 282 0006 20D0     		beq	.L23
 283              		.loc 1 635 0 is_stmt 0 discriminator 1
 284 0008 002A     		cmp	r2, #0
 285 000a 20D0     		beq	.L24
 286              	.LVL36:
 636:Source\mbedtls_open\library/cipher.c ****         return( MBEDTLS_ERR_CIPHER_BAD_INPUT_DATA );
 637:Source\mbedtls_open\library/cipher.c **** 
 638:Source\mbedtls_open\library/cipher.c ****     bad = 0x80;
 639:Source\mbedtls_open\library/cipher.c ****     *data_len = 0;
 287              		.loc 1 639 0 is_stmt 1
 288 000c 0023     		movs	r3, #0
 289 000e 1360     		str	r3, [r2]
 290              	.LVL37:
 638:Source\mbedtls_open\library/cipher.c ****     *data_len = 0;
 291              		.loc 1 638 0
 292 0010 8026     		movs	r6, #128
 640:Source\mbedtls_open\library/cipher.c ****     for( i = input_len; i > 0; i-- )
 293              		.loc 1 640 0
 294 0012 14E0     		b	.L21
 295              	.LVL38:
 296              	.L22:
 641:Source\mbedtls_open\library/cipher.c ****     {
 642:Source\mbedtls_open\library/cipher.c ****         prev_done = done;
 643:Source\mbedtls_open\library/cipher.c ****         done |= ( input[i - 1] != 0 );
 297              		.loc 1 643 0 discriminator 3
 298 0014 0139     		subs	r1, r1, #1
 299              	.LVL39:
 300 0016 6046     		mov	r0, ip
 301 0018 4718     		adds	r7, r0, r1
 302 001a 3C78     		ldrb	r4, [r7]
 303 001c 651E     		subs	r5, r4, #1
 304 001e AC41     		sbcs	r4, r4, r5
 305 0020 1C43     		orrs	r4, r3
 306              	.LVL40:
 644:Source\mbedtls_open\library/cipher.c ****         *data_len |= ( i - 1 ) * ( done != prev_done );
 307              		.loc 1 644 0 discriminator 3
 308 0022 1B1B     		subs	r3, r3, r4
 309              	.LVL41:
 310 0024 5D1E     		subs	r5, r3, #1
 311 0026 AB41     		sbcs	r3, r3, r5
 312 0028 DBB2     		uxtb	r3, r3
 313 002a 1D00     		movs	r5, r3
 314 002c 4D43     		muls	r5, r1
 315 002e 1068     		ldr	r0, [r2]
ARM GAS  C:\Users\Phuong\AppData\Local\Temp\ccnzvfGe.s 			page 18


 316 0030 0543     		orrs	r5, r0
 317 0032 1560     		str	r5, [r2]
 645:Source\mbedtls_open\library/cipher.c ****         bad ^= input[i - 1] * ( done != prev_done );
 318              		.loc 1 645 0 discriminator 3
 319 0034 3D78     		ldrb	r5, [r7]
 320 0036 6B43     		muls	r3, r5
 321 0038 7340     		eors	r3, r6
 322 003a DEB2     		uxtb	r6, r3
 323              	.LVL42:
 643:Source\mbedtls_open\library/cipher.c ****         *data_len |= ( i - 1 ) * ( done != prev_done );
 324              		.loc 1 643 0 discriminator 3
 325 003c 2300     		movs	r3, r4
 326              	.LVL43:
 327              	.L21:
 640:Source\mbedtls_open\library/cipher.c ****     {
 328              		.loc 1 640 0 discriminator 1
 329 003e 0029     		cmp	r1, #0
 330 0040 E8D1     		bne	.L22
 646:Source\mbedtls_open\library/cipher.c ****     }
 647:Source\mbedtls_open\library/cipher.c **** 
 648:Source\mbedtls_open\library/cipher.c ****     return( MBEDTLS_ERR_CIPHER_INVALID_PADDING * ( bad != 0 ) );
 331              		.loc 1 648 0
 332 0042 002E     		cmp	r6, #0
 333 0044 05D0     		beq	.L25
 334 0046 0448     		ldr	r0, .L26
 335 0048 04E0     		b	.L20
 336              	.LVL44:
 337              	.L23:
 636:Source\mbedtls_open\library/cipher.c **** 
 338              		.loc 1 636 0
 339 004a 0448     		ldr	r0, .L26+4
 340              	.LVL45:
 341 004c 02E0     		b	.L20
 342              	.LVL46:
 343              	.L24:
 344 004e 0348     		ldr	r0, .L26+4
 345              	.LVL47:
 346 0050 00E0     		b	.L20
 347              	.LVL48:
 348              	.L25:
 349              		.loc 1 648 0
 350 0052 0020     		movs	r0, #0
 351              	.LVL49:
 352              	.L20:
 649:Source\mbedtls_open\library/cipher.c **** 
 650:Source\mbedtls_open\library/cipher.c **** }
 353              		.loc 1 650 0
 354              		@ sp needed
 355 0054 F0BD     		pop	{r4, r5, r6, r7, pc}
 356              	.L27:
 357 0056 C046     		.align	2
 358              	.L26:
 359 0058 009EFFFF 		.word	-25088
 360 005c 009FFFFF 		.word	-24832
 361              		.cfi_endproc
 362              	.LFE24:
 363              		.size	get_one_and_zeros_padding, .-get_one_and_zeros_padding
ARM GAS  C:\Users\Phuong\AppData\Local\Temp\ccnzvfGe.s 			page 19


 364              		.section	.text.add_zeros_and_len_padding,"ax",%progbits
 365              		.align	2
 366              		.code	16
 367              		.thumb_func
 368              		.type	add_zeros_and_len_padding, %function
 369              	add_zeros_and_len_padding:
 370              	.LFB25:
 651:Source\mbedtls_open\library/cipher.c **** #endif /* MBEDTLS_CIPHER_PADDING_ONE_AND_ZEROS */
 652:Source\mbedtls_open\library/cipher.c **** 
 653:Source\mbedtls_open\library/cipher.c **** #if defined(MBEDTLS_CIPHER_PADDING_ZEROS_AND_LEN)
 654:Source\mbedtls_open\library/cipher.c **** /*
 655:Source\mbedtls_open\library/cipher.c ****  * Zeros and len padding: fill with 00 ... 00 ll, where ll is padding length
 656:Source\mbedtls_open\library/cipher.c ****  */
 657:Source\mbedtls_open\library/cipher.c **** static void add_zeros_and_len_padding( unsigned char *output,
 658:Source\mbedtls_open\library/cipher.c ****                                        size_t output_len, size_t data_len )
 659:Source\mbedtls_open\library/cipher.c **** {
 371              		.loc 1 659 0
 372              		.cfi_startproc
 373              		@ args = 0, pretend = 0, frame = 0
 374              		@ frame_needed = 0, uses_anonymous_args = 0
 375              	.LVL50:
 376 0000 70B5     		push	{r4, r5, r6, lr}
 377              		.cfi_def_cfa_offset 16
 378              		.cfi_offset 4, -16
 379              		.cfi_offset 5, -12
 380              		.cfi_offset 6, -8
 381              		.cfi_offset 14, -4
 660:Source\mbedtls_open\library/cipher.c ****     size_t padding_len = output_len - data_len;
 382              		.loc 1 660 0
 383 0002 8E1A     		subs	r6, r1, r2
 384              	.LVL51:
 661:Source\mbedtls_open\library/cipher.c ****     unsigned char i = 0;
 662:Source\mbedtls_open\library/cipher.c **** 
 663:Source\mbedtls_open\library/cipher.c ****     for( i = 1; i < padding_len; i++ )
 385              		.loc 1 663 0
 386 0004 0123     		movs	r3, #1
 387 0006 06E0     		b	.L29
 388              	.LVL52:
 389              	.L30:
 664:Source\mbedtls_open\library/cipher.c ****         output[data_len + i - 1] = 0x00;
 390              		.loc 1 664 0 discriminator 3
 391 0008 D418     		adds	r4, r2, r3
 392 000a 013C     		subs	r4, r4, #1
 393 000c 0419     		adds	r4, r0, r4
 394 000e 0025     		movs	r5, #0
 395 0010 2570     		strb	r5, [r4]
 663:Source\mbedtls_open\library/cipher.c ****         output[data_len + i - 1] = 0x00;
 396              		.loc 1 663 0 discriminator 3
 397 0012 0133     		adds	r3, r3, #1
 398              	.LVL53:
 399 0014 DBB2     		uxtb	r3, r3
 400              	.LVL54:
 401              	.L29:
 663:Source\mbedtls_open\library/cipher.c ****         output[data_len + i - 1] = 0x00;
 402              		.loc 1 663 0 is_stmt 0 discriminator 1
 403 0016 9E42     		cmp	r6, r3
 404 0018 F6D8     		bhi	.L30
ARM GAS  C:\Users\Phuong\AppData\Local\Temp\ccnzvfGe.s 			page 20


 665:Source\mbedtls_open\library/cipher.c ****     output[output_len - 1] = (unsigned char) padding_len;
 405              		.loc 1 665 0 is_stmt 1
 406 001a 0139     		subs	r1, r1, #1
 407              	.LVL55:
 408 001c 4654     		strb	r6, [r0, r1]
 666:Source\mbedtls_open\library/cipher.c **** }
 409              		.loc 1 666 0
 410              		@ sp needed
 411              	.LVL56:
 412 001e 70BD     		pop	{r4, r5, r6, pc}
 413              		.cfi_endproc
 414              	.LFE25:
 415              		.size	add_zeros_and_len_padding, .-add_zeros_and_len_padding
 416              		.section	.text.get_zeros_and_len_padding,"ax",%progbits
 417              		.align	2
 418              		.code	16
 419              		.thumb_func
 420              		.type	get_zeros_and_len_padding, %function
 421              	get_zeros_and_len_padding:
 422              	.LFB26:
 667:Source\mbedtls_open\library/cipher.c **** 
 668:Source\mbedtls_open\library/cipher.c **** static int get_zeros_and_len_padding( unsigned char *input, size_t input_len,
 669:Source\mbedtls_open\library/cipher.c ****                                       size_t *data_len )
 670:Source\mbedtls_open\library/cipher.c **** {
 423              		.loc 1 670 0
 424              		.cfi_startproc
 425              		@ args = 0, pretend = 0, frame = 0
 426              		@ frame_needed = 0, uses_anonymous_args = 0
 427              	.LVL57:
 428 0000 70B5     		push	{r4, r5, r6, lr}
 429              		.cfi_def_cfa_offset 16
 430              		.cfi_offset 4, -16
 431              		.cfi_offset 5, -12
 432              		.cfi_offset 6, -8
 433              		.cfi_offset 14, -4
 434              	.LVL58:
 671:Source\mbedtls_open\library/cipher.c ****     size_t i, pad_idx;
 672:Source\mbedtls_open\library/cipher.c ****     unsigned char padding_len, bad = 0;
 673:Source\mbedtls_open\library/cipher.c **** 
 674:Source\mbedtls_open\library/cipher.c ****     if( NULL == input || NULL == data_len )
 435              		.loc 1 674 0
 436 0002 0028     		cmp	r0, #0
 437 0004 1CD0     		beq	.L35
 438              		.loc 1 674 0 is_stmt 0 discriminator 1
 439 0006 002A     		cmp	r2, #0
 440 0008 1CD0     		beq	.L36
 675:Source\mbedtls_open\library/cipher.c ****         return( MBEDTLS_ERR_CIPHER_BAD_INPUT_DATA );
 676:Source\mbedtls_open\library/cipher.c **** 
 677:Source\mbedtls_open\library/cipher.c ****     padding_len = input[input_len - 1];
 441              		.loc 1 677 0 is_stmt 1
 442 000a 4C1E     		subs	r4, r1, #1
 443 000c 065D     		ldrb	r6, [r0, r4]
 444              	.LVL59:
 678:Source\mbedtls_open\library/cipher.c ****     *data_len = input_len - padding_len;
 445              		.loc 1 678 0
 446 000e 8D1B     		subs	r5, r1, r6
 447 0010 1560     		str	r5, [r2]
ARM GAS  C:\Users\Phuong\AppData\Local\Temp\ccnzvfGe.s 			page 21


 679:Source\mbedtls_open\library/cipher.c **** 
 680:Source\mbedtls_open\library/cipher.c ****     /* Avoid logical || since it results in a branch */
 681:Source\mbedtls_open\library/cipher.c ****     bad |= padding_len > input_len;
 448              		.loc 1 681 0
 449 0012 B142     		cmp	r1, r6
 450 0014 8941     		sbcs	r1, r1, r1
 451              	.LVL60:
 452 0016 4B42     		rsbs	r3, r1, #0
 453              	.LVL61:
 682:Source\mbedtls_open\library/cipher.c ****     bad |= padding_len == 0;
 454              		.loc 1 682 0
 455 0018 7142     		rsbs	r1, r6, #0
 456 001a 7141     		adcs	r1, r1, r6
 457              	.LVL62:
 458 001c 1943     		orrs	r1, r3
 459              	.LVL63:
 683:Source\mbedtls_open\library/cipher.c **** 
 684:Source\mbedtls_open\library/cipher.c ****     /* The number of bytes checked must be independent of padding_len */
 685:Source\mbedtls_open\library/cipher.c ****     pad_idx = input_len - padding_len;
 686:Source\mbedtls_open\library/cipher.c ****     for( i = 0; i < input_len - 1; i++ )
 460              		.loc 1 686 0
 461 001e 0022     		movs	r2, #0
 462              	.LVL64:
 463 0020 08E0     		b	.L33
 464              	.LVL65:
 465              	.L34:
 687:Source\mbedtls_open\library/cipher.c ****         bad |= input[i] * ( i >= pad_idx );
 466              		.loc 1 687 0 discriminator 3
 467 0022 0023     		movs	r3, #0
 468 0024 AA42     		cmp	r2, r5
 469 0026 5B41     		adcs	r3, r3, r3
 470 0028 DBB2     		uxtb	r3, r3
 471 002a 865C     		ldrb	r6, [r0, r2]
 472 002c 7343     		muls	r3, r6
 473 002e 1943     		orrs	r1, r3
 474              	.LVL66:
 475 0030 C9B2     		uxtb	r1, r1
 476              	.LVL67:
 686:Source\mbedtls_open\library/cipher.c ****         bad |= input[i] * ( i >= pad_idx );
 477              		.loc 1 686 0 discriminator 3
 478 0032 0132     		adds	r2, r2, #1
 479              	.LVL68:
 480              	.L33:
 686:Source\mbedtls_open\library/cipher.c ****         bad |= input[i] * ( i >= pad_idx );
 481              		.loc 1 686 0 is_stmt 0 discriminator 1
 482 0034 A242     		cmp	r2, r4
 483 0036 F4D3     		bcc	.L34
 688:Source\mbedtls_open\library/cipher.c **** 
 689:Source\mbedtls_open\library/cipher.c ****     return( MBEDTLS_ERR_CIPHER_INVALID_PADDING * ( bad != 0 ) );
 484              		.loc 1 689 0 is_stmt 1
 485 0038 0029     		cmp	r1, #0
 486 003a 05D0     		beq	.L37
 487 003c 0348     		ldr	r0, .L38
 488              	.LVL69:
 489 003e 04E0     		b	.L32
 490              	.LVL70:
 491              	.L35:
ARM GAS  C:\Users\Phuong\AppData\Local\Temp\ccnzvfGe.s 			page 22


 675:Source\mbedtls_open\library/cipher.c **** 
 492              		.loc 1 675 0
 493 0040 0348     		ldr	r0, .L38+4
 494              	.LVL71:
 495 0042 02E0     		b	.L32
 496              	.LVL72:
 497              	.L36:
 498 0044 0248     		ldr	r0, .L38+4
 499              	.LVL73:
 500 0046 00E0     		b	.L32
 501              	.LVL74:
 502              	.L37:
 503              		.loc 1 689 0
 504 0048 0020     		movs	r0, #0
 505              	.LVL75:
 506              	.L32:
 690:Source\mbedtls_open\library/cipher.c **** }
 507              		.loc 1 690 0
 508              		@ sp needed
 509 004a 70BD     		pop	{r4, r5, r6, pc}
 510              	.L39:
 511              		.align	2
 512              	.L38:
 513 004c 009EFFFF 		.word	-25088
 514 0050 009FFFFF 		.word	-24832
 515              		.cfi_endproc
 516              	.LFE26:
 517              		.size	get_zeros_and_len_padding, .-get_zeros_and_len_padding
 518              		.section	.text.add_zeros_padding,"ax",%progbits
 519              		.align	2
 520              		.code	16
 521              		.thumb_func
 522              		.type	add_zeros_padding, %function
 523              	add_zeros_padding:
 524              	.LFB27:
 691:Source\mbedtls_open\library/cipher.c **** #endif /* MBEDTLS_CIPHER_PADDING_ZEROS_AND_LEN */
 692:Source\mbedtls_open\library/cipher.c **** 
 693:Source\mbedtls_open\library/cipher.c **** #if defined(MBEDTLS_CIPHER_PADDING_ZEROS)
 694:Source\mbedtls_open\library/cipher.c **** /*
 695:Source\mbedtls_open\library/cipher.c ****  * Zero padding: fill with 00 ... 00
 696:Source\mbedtls_open\library/cipher.c ****  */
 697:Source\mbedtls_open\library/cipher.c **** static void add_zeros_padding( unsigned char *output,
 698:Source\mbedtls_open\library/cipher.c ****                                size_t output_len, size_t data_len )
 699:Source\mbedtls_open\library/cipher.c **** {
 525              		.loc 1 699 0
 526              		.cfi_startproc
 527              		@ args = 0, pretend = 0, frame = 0
 528              		@ frame_needed = 0, uses_anonymous_args = 0
 529              	.LVL76:
 530 0000 10B5     		push	{r4, lr}
 531              		.cfi_def_cfa_offset 8
 532              		.cfi_offset 4, -8
 533              		.cfi_offset 14, -4
 534              	.LVL77:
 700:Source\mbedtls_open\library/cipher.c ****     size_t i;
 701:Source\mbedtls_open\library/cipher.c **** 
 702:Source\mbedtls_open\library/cipher.c ****     for( i = data_len; i < output_len; i++ )
ARM GAS  C:\Users\Phuong\AppData\Local\Temp\ccnzvfGe.s 			page 23


 535              		.loc 1 702 0
 536 0002 03E0     		b	.L41
 537              	.LVL78:
 538              	.L42:
 703:Source\mbedtls_open\library/cipher.c ****         output[i] = 0x00;
 539              		.loc 1 703 0 discriminator 3
 540 0004 8318     		adds	r3, r0, r2
 541 0006 0024     		movs	r4, #0
 542 0008 1C70     		strb	r4, [r3]
 702:Source\mbedtls_open\library/cipher.c ****         output[i] = 0x00;
 543              		.loc 1 702 0 discriminator 3
 544 000a 0132     		adds	r2, r2, #1
 545              	.LVL79:
 546              	.L41:
 702:Source\mbedtls_open\library/cipher.c ****         output[i] = 0x00;
 547              		.loc 1 702 0 is_stmt 0 discriminator 1
 548 000c 8A42     		cmp	r2, r1
 549 000e F9D3     		bcc	.L42
 704:Source\mbedtls_open\library/cipher.c **** }
 550              		.loc 1 704 0 is_stmt 1
 551              		@ sp needed
 552 0010 10BD     		pop	{r4, pc}
 553              		.cfi_endproc
 554              	.LFE27:
 555              		.size	add_zeros_padding, .-add_zeros_padding
 556 0012 C046     		.section	.text.get_zeros_padding,"ax",%progbits
 557              		.align	2
 558              		.code	16
 559              		.thumb_func
 560              		.type	get_zeros_padding, %function
 561              	get_zeros_padding:
 562              	.LFB28:
 705:Source\mbedtls_open\library/cipher.c **** 
 706:Source\mbedtls_open\library/cipher.c **** static int get_zeros_padding( unsigned char *input, size_t input_len,
 707:Source\mbedtls_open\library/cipher.c ****                               size_t *data_len )
 708:Source\mbedtls_open\library/cipher.c **** {
 563              		.loc 1 708 0
 564              		.cfi_startproc
 565              		@ args = 0, pretend = 0, frame = 0
 566              		@ frame_needed = 0, uses_anonymous_args = 0
 567              	.LVL80:
 568 0000 70B5     		push	{r4, r5, r6, lr}
 569              		.cfi_def_cfa_offset 16
 570              		.cfi_offset 4, -16
 571              		.cfi_offset 5, -12
 572              		.cfi_offset 6, -8
 573              		.cfi_offset 14, -4
 574              	.LVL81:
 709:Source\mbedtls_open\library/cipher.c ****     size_t i;
 710:Source\mbedtls_open\library/cipher.c ****     unsigned char done = 0, prev_done;
 711:Source\mbedtls_open\library/cipher.c **** 
 712:Source\mbedtls_open\library/cipher.c ****     if( NULL == input || NULL == data_len )
 575              		.loc 1 712 0
 576 0002 0028     		cmp	r0, #0
 577 0004 16D0     		beq	.L47
 578              		.loc 1 712 0 is_stmt 0 discriminator 1
 579 0006 002A     		cmp	r2, #0
ARM GAS  C:\Users\Phuong\AppData\Local\Temp\ccnzvfGe.s 			page 24


 580 0008 16D0     		beq	.L48
 713:Source\mbedtls_open\library/cipher.c ****         return( MBEDTLS_ERR_CIPHER_BAD_INPUT_DATA );
 714:Source\mbedtls_open\library/cipher.c **** 
 715:Source\mbedtls_open\library/cipher.c ****     *data_len = 0;
 581              		.loc 1 715 0 is_stmt 1
 582 000a 0023     		movs	r3, #0
 583 000c 1360     		str	r3, [r2]
 584              	.LVL82:
 716:Source\mbedtls_open\library/cipher.c ****     for( i = input_len; i > 0; i-- )
 585              		.loc 1 716 0
 586 000e 0DE0     		b	.L45
 587              	.LVL83:
 588              	.L46:
 717:Source\mbedtls_open\library/cipher.c ****     {
 718:Source\mbedtls_open\library/cipher.c ****         prev_done = done;
 719:Source\mbedtls_open\library/cipher.c ****         done |= ( input[i-1] != 0 );
 589              		.loc 1 719 0 discriminator 3
 590 0010 4D1E     		subs	r5, r1, #1
 591 0012 445D     		ldrb	r4, [r0, r5]
 592 0014 661E     		subs	r6, r4, #1
 593 0016 B441     		sbcs	r4, r4, r6
 594 0018 1C43     		orrs	r4, r3
 595              	.LVL84:
 720:Source\mbedtls_open\library/cipher.c ****         *data_len |= i * ( done != prev_done );
 596              		.loc 1 720 0 discriminator 3
 597 001a 1B1B     		subs	r3, r3, r4
 598              	.LVL85:
 599 001c 5E1E     		subs	r6, r3, #1
 600 001e B341     		sbcs	r3, r3, r6
 601 0020 5943     		muls	r1, r3
 602              	.LVL86:
 603 0022 1368     		ldr	r3, [r2]
 604 0024 1943     		orrs	r1, r3
 605 0026 1160     		str	r1, [r2]
 606              	.LVL87:
 719:Source\mbedtls_open\library/cipher.c ****         *data_len |= i * ( done != prev_done );
 607              		.loc 1 719 0 discriminator 3
 608 0028 2300     		movs	r3, r4
 716:Source\mbedtls_open\library/cipher.c ****     {
 609              		.loc 1 716 0 discriminator 3
 610 002a 2900     		movs	r1, r5
 611              	.LVL88:
 612              	.L45:
 716:Source\mbedtls_open\library/cipher.c ****     {
 613              		.loc 1 716 0 is_stmt 0 discriminator 1
 614 002c 0029     		cmp	r1, #0
 615 002e EFD1     		bne	.L46
 721:Source\mbedtls_open\library/cipher.c ****     }
 722:Source\mbedtls_open\library/cipher.c **** 
 723:Source\mbedtls_open\library/cipher.c ****     return( 0 );
 616              		.loc 1 723 0 is_stmt 1
 617 0030 0020     		movs	r0, #0
 618              	.LVL89:
 619 0032 02E0     		b	.L44
 620              	.LVL90:
 621              	.L47:
 713:Source\mbedtls_open\library/cipher.c **** 
ARM GAS  C:\Users\Phuong\AppData\Local\Temp\ccnzvfGe.s 			page 25


 622              		.loc 1 713 0
 623 0034 0148     		ldr	r0, .L49
 624              	.LVL91:
 625 0036 00E0     		b	.L44
 626              	.LVL92:
 627              	.L48:
 628 0038 0048     		ldr	r0, .L49
 629              	.LVL93:
 630              	.L44:
 724:Source\mbedtls_open\library/cipher.c **** }
 631              		.loc 1 724 0
 632              		@ sp needed
 633 003a 70BD     		pop	{r4, r5, r6, pc}
 634              	.L50:
 635              		.align	2
 636              	.L49:
 637 003c 009FFFFF 		.word	-24832
 638              		.cfi_endproc
 639              	.LFE28:
 640              		.size	get_zeros_padding, .-get_zeros_padding
 641              		.section	.text.get_no_padding,"ax",%progbits
 642              		.align	2
 643              		.code	16
 644              		.thumb_func
 645              		.type	get_no_padding, %function
 646              	get_no_padding:
 647              	.LFB29:
 725:Source\mbedtls_open\library/cipher.c **** #endif /* MBEDTLS_CIPHER_PADDING_ZEROS */
 726:Source\mbedtls_open\library/cipher.c **** 
 727:Source\mbedtls_open\library/cipher.c **** /*
 728:Source\mbedtls_open\library/cipher.c ****  * No padding: don't pad :)
 729:Source\mbedtls_open\library/cipher.c ****  *
 730:Source\mbedtls_open\library/cipher.c ****  * There is no add_padding function (check for NULL in mbedtls_cipher_finish)
 731:Source\mbedtls_open\library/cipher.c ****  * but a trivial get_padding function
 732:Source\mbedtls_open\library/cipher.c ****  */
 733:Source\mbedtls_open\library/cipher.c **** static int get_no_padding( unsigned char *input, size_t input_len,
 734:Source\mbedtls_open\library/cipher.c ****                               size_t *data_len )
 735:Source\mbedtls_open\library/cipher.c **** {
 648              		.loc 1 735 0
 649              		.cfi_startproc
 650              		@ args = 0, pretend = 0, frame = 0
 651              		@ frame_needed = 0, uses_anonymous_args = 0
 652              		@ link register save eliminated.
 653              	.LVL94:
 736:Source\mbedtls_open\library/cipher.c ****     if( NULL == input || NULL == data_len )
 654              		.loc 1 736 0
 655 0000 0028     		cmp	r0, #0
 656 0002 04D0     		beq	.L53
 657              		.loc 1 736 0 is_stmt 0 discriminator 1
 658 0004 002A     		cmp	r2, #0
 659 0006 04D0     		beq	.L54
 737:Source\mbedtls_open\library/cipher.c ****         return( MBEDTLS_ERR_CIPHER_BAD_INPUT_DATA );
 738:Source\mbedtls_open\library/cipher.c **** 
 739:Source\mbedtls_open\library/cipher.c ****     *data_len = input_len;
 660              		.loc 1 739 0 is_stmt 1
 661 0008 1160     		str	r1, [r2]
 740:Source\mbedtls_open\library/cipher.c **** 
ARM GAS  C:\Users\Phuong\AppData\Local\Temp\ccnzvfGe.s 			page 26


 741:Source\mbedtls_open\library/cipher.c ****     return( 0 );
 662              		.loc 1 741 0
 663 000a 0020     		movs	r0, #0
 664              	.LVL95:
 665 000c 02E0     		b	.L52
 666              	.LVL96:
 667              	.L53:
 737:Source\mbedtls_open\library/cipher.c ****         return( MBEDTLS_ERR_CIPHER_BAD_INPUT_DATA );
 668              		.loc 1 737 0
 669 000e 0248     		ldr	r0, .L55
 670              	.LVL97:
 671 0010 00E0     		b	.L52
 672              	.LVL98:
 673              	.L54:
 674 0012 0148     		ldr	r0, .L55
 675              	.LVL99:
 676              	.L52:
 742:Source\mbedtls_open\library/cipher.c **** }
 677              		.loc 1 742 0
 678              		@ sp needed
 679 0014 7047     		bx	lr
 680              	.L56:
 681 0016 C046     		.align	2
 682              	.L55:
 683 0018 009FFFFF 		.word	-24832
 684              		.cfi_endproc
 685              	.LFE29:
 686              		.size	get_no_padding, .-get_no_padding
 687              		.section	.text.mbedtls_cipher_list,"ax",%progbits
 688              		.align	2
 689              		.global	mbedtls_cipher_list
 690              		.code	16
 691              		.thumb_func
 692              		.type	mbedtls_cipher_list, %function
 693              	mbedtls_cipher_list:
 694              	.LFB9:
  91:Source\mbedtls_open\library/cipher.c ****     const mbedtls_cipher_definition_t *def;
 695              		.loc 1 91 0
 696              		.cfi_startproc
 697              		@ args = 0, pretend = 0, frame = 0
 698              		@ frame_needed = 0, uses_anonymous_args = 0
 699              		@ link register save eliminated.
  95:Source\mbedtls_open\library/cipher.c ****     {
 700              		.loc 1 95 0
 701 0000 0A4B     		ldr	r3, .L62
 702 0002 1B68     		ldr	r3, [r3]
 703 0004 002B     		cmp	r3, #0
 704 0006 04D0     		beq	.L61
 705 0008 0DE0     		b	.L59
 706              	.LVL100:
 707              	.L60:
 101:Source\mbedtls_open\library/cipher.c **** 
 708              		.loc 1 101 0
 709 000a 0832     		adds	r2, r2, #8
 710              	.LVL101:
 711 000c 1960     		str	r1, [r3]
 712 000e 0433     		adds	r3, r3, #4
ARM GAS  C:\Users\Phuong\AppData\Local\Temp\ccnzvfGe.s 			page 27


 713              	.LVL102:
 714 0010 01E0     		b	.L58
 715              	.LVL103:
 716              	.L61:
 717 0012 074B     		ldr	r3, .L62+4
 718 0014 074A     		ldr	r2, .L62+8
 719              	.L58:
 720              	.LVL104:
 100:Source\mbedtls_open\library/cipher.c ****             *type++ = (*def++).type;
 721              		.loc 1 100 0
 722 0016 1178     		ldrb	r1, [r2]
 723 0018 0029     		cmp	r1, #0
 724 001a F6D1     		bne	.L60
 103:Source\mbedtls_open\library/cipher.c **** 
 725              		.loc 1 103 0
 726 001c 0022     		movs	r2, #0
 727              	.LVL105:
 728 001e 1A60     		str	r2, [r3]
 105:Source\mbedtls_open\library/cipher.c ****     }
 729              		.loc 1 105 0
 730 0020 0132     		adds	r2, r2, #1
 731 0022 024B     		ldr	r3, .L62
 732              	.LVL106:
 733 0024 1A60     		str	r2, [r3]
 734              	.L59:
 109:Source\mbedtls_open\library/cipher.c **** 
 735              		.loc 1 109 0
 736 0026 0248     		ldr	r0, .L62+4
 737              		@ sp needed
 738 0028 7047     		bx	lr
 739              	.L63:
 740 002a C046     		.align	2
 741              	.L62:
 742 002c 00000000 		.word	.LANCHOR0
 743 0030 00000000 		.word	mbedtls_cipher_supported
 744 0034 00000000 		.word	mbedtls_cipher_definitions
 745              		.cfi_endproc
 746              	.LFE9:
 747              		.size	mbedtls_cipher_list, .-mbedtls_cipher_list
 748              		.section	.text.mbedtls_cipher_info_from_type,"ax",%progbits
 749              		.align	2
 750              		.global	mbedtls_cipher_info_from_type
 751              		.code	16
 752              		.thumb_func
 753              		.type	mbedtls_cipher_info_from_type, %function
 754              	mbedtls_cipher_info_from_type:
 755              	.LFB10:
 112:Source\mbedtls_open\library/cipher.c ****     const mbedtls_cipher_definition_t *def;
 756              		.loc 1 112 0
 757              		.cfi_startproc
 758              		@ args = 0, pretend = 0, frame = 0
 759              		@ frame_needed = 0, uses_anonymous_args = 0
 760              		@ link register save eliminated.
 761              	.LVL107:
 115:Source\mbedtls_open\library/cipher.c ****         if( def->type == cipher_type )
 762              		.loc 1 115 0
 763 0000 054B     		ldr	r3, .L68
ARM GAS  C:\Users\Phuong\AppData\Local\Temp\ccnzvfGe.s 			page 28


 764 0002 03E0     		b	.L65
 765              	.LVL108:
 766              	.L67:
 116:Source\mbedtls_open\library/cipher.c ****             return( def->info );
 767              		.loc 1 116 0
 768 0004 1978     		ldrb	r1, [r3]
 769 0006 8142     		cmp	r1, r0
 770 0008 03D0     		beq	.L66
 115:Source\mbedtls_open\library/cipher.c ****         if( def->type == cipher_type )
 771              		.loc 1 115 0 discriminator 2
 772 000a 0833     		adds	r3, r3, #8
 773              	.LVL109:
 774              	.L65:
 115:Source\mbedtls_open\library/cipher.c ****         if( def->type == cipher_type )
 775              		.loc 1 115 0 is_stmt 0 discriminator 1
 776 000c 5A68     		ldr	r2, [r3, #4]
 777 000e 002A     		cmp	r2, #0
 778 0010 F8D1     		bne	.L67
 779              	.L66:
 120:Source\mbedtls_open\library/cipher.c **** 
 780              		.loc 1 120 0 is_stmt 1
 781 0012 1000     		movs	r0, r2
 782              	.LVL110:
 783              		@ sp needed
 784 0014 7047     		bx	lr
 785              	.L69:
 786 0016 C046     		.align	2
 787              	.L68:
 788 0018 00000000 		.word	mbedtls_cipher_definitions
 789              		.cfi_endproc
 790              	.LFE10:
 791              		.size	mbedtls_cipher_info_from_type, .-mbedtls_cipher_info_from_type
 792              		.section	.text.mbedtls_cipher_info_from_string,"ax",%progbits
 793              		.align	2
 794              		.global	mbedtls_cipher_info_from_string
 795              		.code	16
 796              		.thumb_func
 797              		.type	mbedtls_cipher_info_from_string, %function
 798              	mbedtls_cipher_info_from_string:
 799              	.LFB11:
 123:Source\mbedtls_open\library/cipher.c ****     const mbedtls_cipher_definition_t *def;
 800              		.loc 1 123 0
 801              		.cfi_startproc
 802              		@ args = 0, pretend = 0, frame = 0
 803              		@ frame_needed = 0, uses_anonymous_args = 0
 804              	.LVL111:
 805 0000 70B5     		push	{r4, r5, r6, lr}
 806              		.cfi_def_cfa_offset 16
 807              		.cfi_offset 4, -16
 808              		.cfi_offset 5, -12
 809              		.cfi_offset 6, -8
 810              		.cfi_offset 14, -4
 811 0002 061E     		subs	r6, r0, #0
 126:Source\mbedtls_open\library/cipher.c ****         return( NULL );
 812              		.loc 1 126 0
 813 0004 0CD0     		beq	.L74
 814 0006 084D     		ldr	r5, .L75
ARM GAS  C:\Users\Phuong\AppData\Local\Temp\ccnzvfGe.s 			page 29


 815 0008 06E0     		b	.L72
 816              	.LVL112:
 817              	.L73:
 130:Source\mbedtls_open\library/cipher.c ****             return( def->info );
 818              		.loc 1 130 0
 819 000a 3100     		movs	r1, r6
 820 000c A068     		ldr	r0, [r4, #8]
 821 000e FFF7FEFF 		bl	strcmp
 822              	.LVL113:
 823 0012 0028     		cmp	r0, #0
 824 0014 05D0     		beq	.L71
 129:Source\mbedtls_open\library/cipher.c ****         if( !  strcmp( def->info->name, cipher_name ) )
 825              		.loc 1 129 0 discriminator 2
 826 0016 0835     		adds	r5, r5, #8
 827              	.LVL114:
 828              	.L72:
 129:Source\mbedtls_open\library/cipher.c ****         if( !  strcmp( def->info->name, cipher_name ) )
 829              		.loc 1 129 0 is_stmt 0 discriminator 1
 830 0018 6C68     		ldr	r4, [r5, #4]
 831 001a 002C     		cmp	r4, #0
 832 001c F5D1     		bne	.L73
 833 001e 00E0     		b	.L71
 834              	.LVL115:
 835              	.L74:
 127:Source\mbedtls_open\library/cipher.c **** 
 836              		.loc 1 127 0 is_stmt 1
 837 0020 0024     		movs	r4, #0
 838              	.LVL116:
 839              	.L71:
 134:Source\mbedtls_open\library/cipher.c **** 
 840              		.loc 1 134 0
 841 0022 2000     		movs	r0, r4
 842              		@ sp needed
 843              	.LVL117:
 844 0024 70BD     		pop	{r4, r5, r6, pc}
 845              	.L76:
 846 0026 C046     		.align	2
 847              	.L75:
 848 0028 00000000 		.word	mbedtls_cipher_definitions
 849              		.cfi_endproc
 850              	.LFE11:
 851              		.size	mbedtls_cipher_info_from_string, .-mbedtls_cipher_info_from_string
 852              		.section	.text.mbedtls_cipher_info_from_values,"ax",%progbits
 853              		.align	2
 854              		.global	mbedtls_cipher_info_from_values
 855              		.code	16
 856              		.thumb_func
 857              		.type	mbedtls_cipher_info_from_values, %function
 858              	mbedtls_cipher_info_from_values:
 859              	.LFB12:
 139:Source\mbedtls_open\library/cipher.c ****     const mbedtls_cipher_definition_t *def;
 860              		.loc 1 139 0
 861              		.cfi_startproc
 862              		@ args = 0, pretend = 0, frame = 0
 863              		@ frame_needed = 0, uses_anonymous_args = 0
 864              	.LVL118:
 865 0000 30B5     		push	{r4, r5, lr}
ARM GAS  C:\Users\Phuong\AppData\Local\Temp\ccnzvfGe.s 			page 30


 866              		.cfi_def_cfa_offset 12
 867              		.cfi_offset 4, -12
 868              		.cfi_offset 5, -8
 869              		.cfi_offset 14, -4
 870              	.LVL119:
 142:Source\mbedtls_open\library/cipher.c ****         if( def->info->base->cipher == cipher_id &&
 871              		.loc 1 142 0
 872 0002 094C     		ldr	r4, .L82
 873 0004 0AE0     		b	.L78
 874              	.LVL120:
 875              	.L81:
 143:Source\mbedtls_open\library/cipher.c ****             def->info->key_bitlen == (unsigned) key_bitlen &&
 876              		.loc 1 143 0
 877 0006 9D69     		ldr	r5, [r3, #24]
 878 0008 2D78     		ldrb	r5, [r5]
 879 000a 8542     		cmp	r5, r0
 880 000c 05D1     		bne	.L79
 143:Source\mbedtls_open\library/cipher.c ****             def->info->key_bitlen == (unsigned) key_bitlen &&
 881              		.loc 1 143 0 is_stmt 0 discriminator 1
 882 000e 5D68     		ldr	r5, [r3, #4]
 883 0010 8D42     		cmp	r5, r1
 884 0012 02D1     		bne	.L79
 145:Source\mbedtls_open\library/cipher.c ****             return( def->info );
 885              		.loc 1 145 0 is_stmt 1
 886 0014 5D78     		ldrb	r5, [r3, #1]
 144:Source\mbedtls_open\library/cipher.c ****             def->info->mode == mode )
 887              		.loc 1 144 0
 888 0016 9542     		cmp	r5, r2
 889 0018 03D0     		beq	.L80
 890              	.L79:
 142:Source\mbedtls_open\library/cipher.c ****         if( def->info->base->cipher == cipher_id &&
 891              		.loc 1 142 0 discriminator 2
 892 001a 0834     		adds	r4, r4, #8
 893              	.LVL121:
 894              	.L78:
 142:Source\mbedtls_open\library/cipher.c ****         if( def->info->base->cipher == cipher_id &&
 895              		.loc 1 142 0 is_stmt 0 discriminator 1
 896 001c 6368     		ldr	r3, [r4, #4]
 897 001e 002B     		cmp	r3, #0
 898 0020 F1D1     		bne	.L81
 899              	.L80:
 149:Source\mbedtls_open\library/cipher.c **** 
 900              		.loc 1 149 0 is_stmt 1
 901 0022 1800     		movs	r0, r3
 902              	.LVL122:
 903              		@ sp needed
 904              	.LVL123:
 905 0024 30BD     		pop	{r4, r5, pc}
 906              	.L83:
 907 0026 C046     		.align	2
 908              	.L82:
 909 0028 00000000 		.word	mbedtls_cipher_definitions
 910              		.cfi_endproc
 911              	.LFE12:
 912              		.size	mbedtls_cipher_info_from_values, .-mbedtls_cipher_info_from_values
 913              		.section	.text.mbedtls_cipher_init,"ax",%progbits
 914              		.align	2
ARM GAS  C:\Users\Phuong\AppData\Local\Temp\ccnzvfGe.s 			page 31


 915              		.global	mbedtls_cipher_init
 916              		.code	16
 917              		.thumb_func
 918              		.type	mbedtls_cipher_init, %function
 919              	mbedtls_cipher_init:
 920              	.LFB13:
 152:Source\mbedtls_open\library/cipher.c ****     memset( ctx, 0, sizeof( mbedtls_cipher_context_t ) );
 921              		.loc 1 152 0
 922              		.cfi_startproc
 923              		@ args = 0, pretend = 0, frame = 0
 924              		@ frame_needed = 0, uses_anonymous_args = 0
 925              	.LVL124:
 926 0000 10B5     		push	{r4, lr}
 927              		.cfi_def_cfa_offset 8
 928              		.cfi_offset 4, -8
 929              		.cfi_offset 14, -4
 153:Source\mbedtls_open\library/cipher.c **** }
 930              		.loc 1 153 0
 931 0002 4022     		movs	r2, #64
 932 0004 0021     		movs	r1, #0
 933 0006 FFF7FEFF 		bl	memset
 934              	.LVL125:
 154:Source\mbedtls_open\library/cipher.c **** 
 935              		.loc 1 154 0
 936              		@ sp needed
 937 000a 10BD     		pop	{r4, pc}
 938              		.cfi_endproc
 939              	.LFE13:
 940              		.size	mbedtls_cipher_init, .-mbedtls_cipher_init
 941              		.section	.text.mbedtls_cipher_free,"ax",%progbits
 942              		.align	2
 943              		.global	mbedtls_cipher_free
 944              		.code	16
 945              		.thumb_func
 946              		.type	mbedtls_cipher_free, %function
 947              	mbedtls_cipher_free:
 948              	.LFB14:
 157:Source\mbedtls_open\library/cipher.c ****     if( ctx == NULL )
 949              		.loc 1 157 0
 950              		.cfi_startproc
 951              		@ args = 0, pretend = 0, frame = 0
 952              		@ frame_needed = 0, uses_anonymous_args = 0
 953              	.LVL126:
 954 0000 10B5     		push	{r4, lr}
 955              		.cfi_def_cfa_offset 8
 956              		.cfi_offset 4, -8
 957              		.cfi_offset 14, -4
 958 0002 041E     		subs	r4, r0, #0
 158:Source\mbedtls_open\library/cipher.c ****         return;
 959              		.loc 1 158 0
 960 0004 0AD0     		beq	.L85
 170:Source\mbedtls_open\library/cipher.c ****         ctx->cipher_info->base->ctx_free_func( ctx->cipher_ctx );
 961              		.loc 1 170 0
 962 0006 C06B     		ldr	r0, [r0, #60]
 963              	.LVL127:
 964 0008 0028     		cmp	r0, #0
 965 000a 03D0     		beq	.L87
ARM GAS  C:\Users\Phuong\AppData\Local\Temp\ccnzvfGe.s 			page 32


 171:Source\mbedtls_open\library/cipher.c **** 
 966              		.loc 1 171 0
 967 000c 2368     		ldr	r3, [r4]
 968 000e 9B69     		ldr	r3, [r3, #24]
 969 0010 9B6A     		ldr	r3, [r3, #40]
 970 0012 9847     		blx	r3
 971              	.LVL128:
 972              	.L87:
 173:Source\mbedtls_open\library/cipher.c **** }
 973              		.loc 1 173 0
 974 0014 4021     		movs	r1, #64
 975 0016 2000     		movs	r0, r4
 976 0018 FFF7FEFF 		bl	mbedtls_platform_zeroize
 977              	.LVL129:
 978              	.L85:
 174:Source\mbedtls_open\library/cipher.c **** 
 979              		.loc 1 174 0
 980              		@ sp needed
 981              	.LVL130:
 982 001c 10BD     		pop	{r4, pc}
 983              		.cfi_endproc
 984              	.LFE14:
 985              		.size	mbedtls_cipher_free, .-mbedtls_cipher_free
 986 001e C046     		.section	.text.mbedtls_cipher_setkey,"ax",%progbits
 987              		.align	2
 988              		.global	mbedtls_cipher_setkey
 989              		.code	16
 990              		.thumb_func
 991              		.type	mbedtls_cipher_setkey, %function
 992              	mbedtls_cipher_setkey:
 993              	.LFB16:
 204:Source\mbedtls_open\library/cipher.c ****     if( NULL == ctx || NULL == ctx->cipher_info )
 994              		.loc 1 204 0
 995              		.cfi_startproc
 996              		@ args = 0, pretend = 0, frame = 0
 997              		@ frame_needed = 0, uses_anonymous_args = 0
 998              	.LVL131:
 999 0000 70B5     		push	{r4, r5, r6, lr}
 1000              		.cfi_def_cfa_offset 16
 1001              		.cfi_offset 4, -16
 1002              		.cfi_offset 5, -12
 1003              		.cfi_offset 6, -8
 1004              		.cfi_offset 14, -4
 205:Source\mbedtls_open\library/cipher.c ****         return( MBEDTLS_ERR_CIPHER_BAD_INPUT_DATA );
 1005              		.loc 1 205 0
 1006 0002 0028     		cmp	r0, #0
 1007 0004 1FD0     		beq	.L93
 205:Source\mbedtls_open\library/cipher.c ****         return( MBEDTLS_ERR_CIPHER_BAD_INPUT_DATA );
 1008              		.loc 1 205 0 is_stmt 0 discriminator 1
 1009 0006 0468     		ldr	r4, [r0]
 1010 0008 002C     		cmp	r4, #0
 1011 000a 1ED0     		beq	.L94
 208:Source\mbedtls_open\library/cipher.c ****         (int) ctx->cipher_info->key_bitlen != key_bitlen )
 1012              		.loc 1 208 0 is_stmt 1
 1013 000c 2569     		ldr	r5, [r4, #16]
 1014 000e AD07     		lsls	r5, r5, #30
 1015 0010 02D4     		bmi	.L90
ARM GAS  C:\Users\Phuong\AppData\Local\Temp\ccnzvfGe.s 			page 33


 208:Source\mbedtls_open\library/cipher.c ****         (int) ctx->cipher_info->key_bitlen != key_bitlen )
 1016              		.loc 1 208 0 is_stmt 0 discriminator 1
 1017 0012 6568     		ldr	r5, [r4, #4]
 1018 0014 9542     		cmp	r5, r2
 1019 0016 1AD1     		bne	.L95
 1020              	.L90:
 214:Source\mbedtls_open\library/cipher.c ****     ctx->operation = operation;
 1021              		.loc 1 214 0 is_stmt 1
 1022 0018 4260     		str	r2, [r0, #4]
 215:Source\mbedtls_open\library/cipher.c **** 
 1023              		.loc 1 215 0
 1024 001a 0372     		strb	r3, [r0, #8]
 220:Source\mbedtls_open\library/cipher.c ****         MBEDTLS_MODE_CFB == ctx->cipher_info->mode ||
 1025              		.loc 1 220 0
 1026 001c 012B     		cmp	r3, #1
 1027 001e 06D0     		beq	.L91
 221:Source\mbedtls_open\library/cipher.c ****         MBEDTLS_MODE_OFB == ctx->cipher_info->mode ||
 1028              		.loc 1 221 0 discriminator 1
 1029 0020 6578     		ldrb	r5, [r4, #1]
 220:Source\mbedtls_open\library/cipher.c ****         MBEDTLS_MODE_CFB == ctx->cipher_info->mode ||
 1030              		.loc 1 220 0 discriminator 1
 1031 0022 032D     		cmp	r5, #3
 1032 0024 03D0     		beq	.L91
 221:Source\mbedtls_open\library/cipher.c ****         MBEDTLS_MODE_OFB == ctx->cipher_info->mode ||
 1033              		.loc 1 221 0
 1034 0026 042D     		cmp	r5, #4
 1035 0028 01D0     		beq	.L91
 222:Source\mbedtls_open\library/cipher.c ****         MBEDTLS_MODE_CTR == ctx->cipher_info->mode )
 1036              		.loc 1 222 0
 1037 002a 052D     		cmp	r5, #5
 1038 002c 04D1     		bne	.L92
 1039              	.L91:
 225:Source\mbedtls_open\library/cipher.c ****                 ctx->key_bitlen );
 1040              		.loc 1 225 0
 1041 002e A369     		ldr	r3, [r4, #24]
 1042              	.LVL132:
 1043 0030 DB69     		ldr	r3, [r3, #28]
 1044 0032 C06B     		ldr	r0, [r0, #60]
 1045              	.LVL133:
 1046 0034 9847     		blx	r3
 1047              	.LVL134:
 1048 0036 0DE0     		b	.L89
 1049              	.LVL135:
 1050              	.L92:
 229:Source\mbedtls_open\library/cipher.c ****         return ctx->cipher_info->base->setkey_dec_func( ctx->cipher_ctx, key,
 1051              		.loc 1 229 0
 1052 0038 002B     		cmp	r3, #0
 1053 003a 0AD1     		bne	.L96
 230:Source\mbedtls_open\library/cipher.c ****                 ctx->key_bitlen );
 1054              		.loc 1 230 0
 1055 003c A369     		ldr	r3, [r4, #24]
 1056              	.LVL136:
 1057 003e 1B6A     		ldr	r3, [r3, #32]
 1058 0040 C06B     		ldr	r0, [r0, #60]
 1059              	.LVL137:
 1060 0042 9847     		blx	r3
 1061              	.LVL138:
ARM GAS  C:\Users\Phuong\AppData\Local\Temp\ccnzvfGe.s 			page 34


 1062 0044 06E0     		b	.L89
 1063              	.LVL139:
 1064              	.L93:
 206:Source\mbedtls_open\library/cipher.c **** 
 1065              		.loc 1 206 0
 1066 0046 0448     		ldr	r0, .L97
 1067              	.LVL140:
 1068 0048 04E0     		b	.L89
 1069              	.LVL141:
 1070              	.L94:
 1071 004a 0348     		ldr	r0, .L97
 1072              	.LVL142:
 1073 004c 02E0     		b	.L89
 1074              	.LVL143:
 1075              	.L95:
 211:Source\mbedtls_open\library/cipher.c ****     }
 1076              		.loc 1 211 0
 1077 004e 0248     		ldr	r0, .L97
 1078              	.LVL144:
 1079 0050 00E0     		b	.L89
 1080              	.LVL145:
 1081              	.L96:
 233:Source\mbedtls_open\library/cipher.c **** }
 1082              		.loc 1 233 0
 1083 0052 0148     		ldr	r0, .L97
 1084              	.LVL146:
 1085              	.L89:
 234:Source\mbedtls_open\library/cipher.c **** 
 1086              		.loc 1 234 0
 1087              		@ sp needed
 1088 0054 70BD     		pop	{r4, r5, r6, pc}
 1089              	.L98:
 1090 0056 C046     		.align	2
 1091              	.L97:
 1092 0058 009FFFFF 		.word	-24832
 1093              		.cfi_endproc
 1094              	.LFE16:
 1095              		.size	mbedtls_cipher_setkey, .-mbedtls_cipher_setkey
 1096              		.section	.text.mbedtls_cipher_set_iv,"ax",%progbits
 1097              		.align	2
 1098              		.global	mbedtls_cipher_set_iv
 1099              		.code	16
 1100              		.thumb_func
 1101              		.type	mbedtls_cipher_set_iv, %function
 1102              	mbedtls_cipher_set_iv:
 1103              	.LFB17:
 238:Source\mbedtls_open\library/cipher.c ****     size_t actual_iv_size;
 1104              		.loc 1 238 0
 1105              		.cfi_startproc
 1106              		@ args = 0, pretend = 0, frame = 0
 1107              		@ frame_needed = 0, uses_anonymous_args = 0
 1108              	.LVL147:
 1109 0000 70B5     		push	{r4, r5, r6, lr}
 1110              		.cfi_def_cfa_offset 16
 1111              		.cfi_offset 4, -16
 1112              		.cfi_offset 5, -12
 1113              		.cfi_offset 6, -8
ARM GAS  C:\Users\Phuong\AppData\Local\Temp\ccnzvfGe.s 			page 35


 1114              		.cfi_offset 14, -4
 1115 0002 0500     		movs	r5, r0
 1116 0004 0E00     		movs	r6, r1
 1117 0006 1400     		movs	r4, r2
 240:Source\mbedtls_open\library/cipher.c ****         return( MBEDTLS_ERR_CIPHER_BAD_INPUT_DATA );
 1118              		.loc 1 240 0
 1119 0008 0028     		cmp	r0, #0
 1120 000a 2AD0     		beq	.L105
 240:Source\mbedtls_open\library/cipher.c ****         return( MBEDTLS_ERR_CIPHER_BAD_INPUT_DATA );
 1121              		.loc 1 240 0 is_stmt 0 discriminator 1
 1122 000c 0368     		ldr	r3, [r0]
 1123 000e 002B     		cmp	r3, #0
 1124 0010 29D0     		beq	.L106
 242:Source\mbedtls_open\library/cipher.c ****         return( MBEDTLS_ERR_CIPHER_BAD_INPUT_DATA );
 1125              		.loc 1 242 0 is_stmt 1
 1126 0012 0029     		cmp	r1, #0
 1127 0014 01D1     		bne	.L101
 242:Source\mbedtls_open\library/cipher.c ****         return( MBEDTLS_ERR_CIPHER_BAD_INPUT_DATA );
 1128              		.loc 1 242 0 is_stmt 0 discriminator 1
 1129 0016 002A     		cmp	r2, #0
 1130 0018 27D1     		bne	.L107
 1131              	.L101:
 245:Source\mbedtls_open\library/cipher.c ****         ctx->iv_size = 0;
 1132              		.loc 1 245 0 is_stmt 1
 1133 001a 002E     		cmp	r6, #0
 1134 001c 03D1     		bne	.L102
 245:Source\mbedtls_open\library/cipher.c ****         ctx->iv_size = 0;
 1135              		.loc 1 245 0 is_stmt 0 discriminator 1
 1136 001e 002C     		cmp	r4, #0
 1137 0020 01D1     		bne	.L102
 246:Source\mbedtls_open\library/cipher.c **** 
 1138              		.loc 1 246 0 is_stmt 1
 1139 0022 0022     		movs	r2, #0
 1140              	.LVL148:
 1141 0024 AA63     		str	r2, [r5, #56]
 1142              	.L102:
 249:Source\mbedtls_open\library/cipher.c ****         return( MBEDTLS_ERR_CIPHER_FEATURE_UNAVAILABLE );
 1143              		.loc 1 249 0
 1144 0026 102C     		cmp	r4, #16
 1145 0028 21D8     		bhi	.L108
 252:Source\mbedtls_open\library/cipher.c ****         actual_iv_size = iv_len;
 1146              		.loc 1 252 0
 1147 002a 1A69     		ldr	r2, [r3, #16]
 1148 002c D207     		lsls	r2, r2, #31
 1149 002e 03D4     		bmi	.L103
 256:Source\mbedtls_open\library/cipher.c **** 
 1150              		.loc 1 256 0
 1151 0030 DA68     		ldr	r2, [r3, #12]
 1152              	.LVL149:
 259:Source\mbedtls_open\library/cipher.c ****             return( MBEDTLS_ERR_CIPHER_BAD_INPUT_DATA );
 1153              		.loc 1 259 0
 1154 0032 9442     		cmp	r4, r2
 1155 0034 1DD3     		bcc	.L109
 256:Source\mbedtls_open\library/cipher.c **** 
 1156              		.loc 1 256 0
 1157 0036 1400     		movs	r4, r2
 1158              	.LVL150:
ARM GAS  C:\Users\Phuong\AppData\Local\Temp\ccnzvfGe.s 			page 36


 1159              	.L103:
 264:Source\mbedtls_open\library/cipher.c ****     {
 1160              		.loc 1 264 0
 1161 0038 1B78     		ldrb	r3, [r3]
 1162 003a 482B     		cmp	r3, #72
 1163 003c 06D1     		bne	.L104
 266:Source\mbedtls_open\library/cipher.c ****                                            iv,
 1164              		.loc 1 266 0
 1165 003e 0022     		movs	r2, #0
 1166 0040 3100     		movs	r1, r6
 1167              	.LVL151:
 1168 0042 E86B     		ldr	r0, [r5, #60]
 1169              	.LVL152:
 1170 0044 FFF7FEFF 		bl	mbedtls_chacha20_starts
 1171              	.LVL153:
 1172 0048 0028     		cmp	r0, #0
 1173 004a 14D1     		bne	.L110
 1174              	.L104:
 275:Source\mbedtls_open\library/cipher.c ****     {
 1175              		.loc 1 275 0
 1176 004c 002C     		cmp	r4, #0
 1177 004e 14D0     		beq	.L111
 277:Source\mbedtls_open\library/cipher.c ****         ctx->iv_size = actual_iv_size;
 1178              		.loc 1 277 0
 1179 0050 2800     		movs	r0, r5
 1180 0052 2830     		adds	r0, r0, #40
 1181 0054 2200     		movs	r2, r4
 1182 0056 3100     		movs	r1, r6
 1183 0058 FFF7FEFF 		bl	memcpy
 1184              	.LVL154:
 278:Source\mbedtls_open\library/cipher.c ****     }
 1185              		.loc 1 278 0
 1186 005c AC63     		str	r4, [r5, #56]
 281:Source\mbedtls_open\library/cipher.c **** }
 1187              		.loc 1 281 0
 1188 005e 0020     		movs	r0, #0
 1189 0060 0CE0     		b	.L100
 1190              	.LVL155:
 1191              	.L105:
 241:Source\mbedtls_open\library/cipher.c ****     else if( NULL == iv && iv_len != 0  )
 1192              		.loc 1 241 0
 1193 0062 0748     		ldr	r0, .L112
 1194              	.LVL156:
 1195 0064 0AE0     		b	.L100
 1196              	.LVL157:
 1197              	.L106:
 1198 0066 0648     		ldr	r0, .L112
 1199              	.LVL158:
 1200 0068 08E0     		b	.L100
 1201              	.LVL159:
 1202              	.L107:
 243:Source\mbedtls_open\library/cipher.c **** 
 1203              		.loc 1 243 0
 1204 006a 0548     		ldr	r0, .L112
 1205              	.LVL160:
 1206 006c 06E0     		b	.L100
 1207              	.LVL161:
ARM GAS  C:\Users\Phuong\AppData\Local\Temp\ccnzvfGe.s 			page 37


 1208              	.L108:
 250:Source\mbedtls_open\library/cipher.c **** 
 1209              		.loc 1 250 0
 1210 006e 0548     		ldr	r0, .L112+4
 1211              	.LVL162:
 1212 0070 04E0     		b	.L100
 1213              	.LVL163:
 1214              	.L109:
 260:Source\mbedtls_open\library/cipher.c ****     }
 1215              		.loc 1 260 0
 1216 0072 0348     		ldr	r0, .L112
 1217              	.LVL164:
 1218 0074 02E0     		b	.L100
 1219              	.LVL165:
 1220              	.L110:
 270:Source\mbedtls_open\library/cipher.c ****         }
 1221              		.loc 1 270 0
 1222 0076 0248     		ldr	r0, .L112
 1223 0078 00E0     		b	.L100
 1224              	.L111:
 281:Source\mbedtls_open\library/cipher.c **** }
 1225              		.loc 1 281 0
 1226 007a 0020     		movs	r0, #0
 1227              	.LVL166:
 1228              	.L100:
 282:Source\mbedtls_open\library/cipher.c **** 
 1229              		.loc 1 282 0
 1230              		@ sp needed
 1231              	.LVL167:
 1232              	.LVL168:
 1233 007c 70BD     		pop	{r4, r5, r6, pc}
 1234              	.L113:
 1235 007e C046     		.align	2
 1236              	.L112:
 1237 0080 009FFFFF 		.word	-24832
 1238 0084 809FFFFF 		.word	-24704
 1239              		.cfi_endproc
 1240              	.LFE17:
 1241              		.size	mbedtls_cipher_set_iv, .-mbedtls_cipher_set_iv
 1242              		.section	.text.mbedtls_cipher_reset,"ax",%progbits
 1243              		.align	2
 1244              		.global	mbedtls_cipher_reset
 1245              		.code	16
 1246              		.thumb_func
 1247              		.type	mbedtls_cipher_reset, %function
 1248              	mbedtls_cipher_reset:
 1249              	.LFB18:
 285:Source\mbedtls_open\library/cipher.c ****     if( NULL == ctx || NULL == ctx->cipher_info )
 1250              		.loc 1 285 0
 1251              		.cfi_startproc
 1252              		@ args = 0, pretend = 0, frame = 0
 1253              		@ frame_needed = 0, uses_anonymous_args = 0
 1254              		@ link register save eliminated.
 1255              	.LVL169:
 286:Source\mbedtls_open\library/cipher.c ****         return( MBEDTLS_ERR_CIPHER_BAD_INPUT_DATA );
 1256              		.loc 1 286 0
 1257 0000 0028     		cmp	r0, #0
ARM GAS  C:\Users\Phuong\AppData\Local\Temp\ccnzvfGe.s 			page 38


 1258 0002 06D0     		beq	.L116
 286:Source\mbedtls_open\library/cipher.c ****         return( MBEDTLS_ERR_CIPHER_BAD_INPUT_DATA );
 1259              		.loc 1 286 0 is_stmt 0 discriminator 1
 1260 0004 0368     		ldr	r3, [r0]
 1261 0006 002B     		cmp	r3, #0
 1262 0008 05D0     		beq	.L117
 289:Source\mbedtls_open\library/cipher.c **** 
 1263              		.loc 1 289 0 is_stmt 1
 1264 000a 0023     		movs	r3, #0
 1265 000c 4362     		str	r3, [r0, #36]
 291:Source\mbedtls_open\library/cipher.c **** }
 1266              		.loc 1 291 0
 1267 000e 0020     		movs	r0, #0
 1268              	.LVL170:
 1269 0010 02E0     		b	.L115
 1270              	.LVL171:
 1271              	.L116:
 287:Source\mbedtls_open\library/cipher.c **** 
 1272              		.loc 1 287 0
 1273 0012 0248     		ldr	r0, .L118
 1274              	.LVL172:
 1275 0014 00E0     		b	.L115
 1276              	.LVL173:
 1277              	.L117:
 1278 0016 0148     		ldr	r0, .L118
 1279              	.LVL174:
 1280              	.L115:
 292:Source\mbedtls_open\library/cipher.c **** 
 1281              		.loc 1 292 0
 1282              		@ sp needed
 1283 0018 7047     		bx	lr
 1284              	.L119:
 1285 001a C046     		.align	2
 1286              	.L118:
 1287 001c 009FFFFF 		.word	-24832
 1288              		.cfi_endproc
 1289              	.LFE18:
 1290              		.size	mbedtls_cipher_reset, .-mbedtls_cipher_reset
 1291              		.section	.text.mbedtls_cipher_update_ad,"ax",%progbits
 1292              		.align	2
 1293              		.global	mbedtls_cipher_update_ad
 1294              		.code	16
 1295              		.thumb_func
 1296              		.type	mbedtls_cipher_update_ad, %function
 1297              	mbedtls_cipher_update_ad:
 1298              	.LFB19:
 297:Source\mbedtls_open\library/cipher.c ****     if( NULL == ctx || NULL == ctx->cipher_info )
 1299              		.loc 1 297 0
 1300              		.cfi_startproc
 1301              		@ args = 0, pretend = 0, frame = 0
 1302              		@ frame_needed = 0, uses_anonymous_args = 0
 1303              	.LVL175:
 1304 0000 70B5     		push	{r4, r5, r6, lr}
 1305              		.cfi_def_cfa_offset 16
 1306              		.cfi_offset 4, -16
 1307              		.cfi_offset 5, -12
 1308              		.cfi_offset 6, -8
ARM GAS  C:\Users\Phuong\AppData\Local\Temp\ccnzvfGe.s 			page 39


 1309              		.cfi_offset 14, -4
 1310 0002 82B0     		sub	sp, sp, #8
 1311              		.cfi_def_cfa_offset 24
 1312 0004 0400     		movs	r4, r0
 1313 0006 0D00     		movs	r5, r1
 1314 0008 1600     		movs	r6, r2
 298:Source\mbedtls_open\library/cipher.c ****         return( MBEDTLS_ERR_CIPHER_BAD_INPUT_DATA );
 1315              		.loc 1 298 0
 1316 000a 0028     		cmp	r0, #0
 1317 000c 26D0     		beq	.L123
 298:Source\mbedtls_open\library/cipher.c ****         return( MBEDTLS_ERR_CIPHER_BAD_INPUT_DATA );
 1318              		.loc 1 298 0 is_stmt 0 discriminator 1
 1319 000e 0368     		ldr	r3, [r0]
 1320 0010 002B     		cmp	r3, #0
 1321 0012 25D0     		beq	.L124
 302:Source\mbedtls_open\library/cipher.c ****     {
 1322              		.loc 1 302 0 is_stmt 1
 1323 0014 5A78     		ldrb	r2, [r3, #1]
 1324              	.LVL176:
 1325 0016 062A     		cmp	r2, #6
 1326 0018 0AD1     		bne	.L122
 304:Source\mbedtls_open\library/cipher.c ****                            ctx->iv, ctx->iv_size, ad, ad_len );
 1327              		.loc 1 304 0
 1328 001a C06B     		ldr	r0, [r0, #60]
 1329              	.LVL177:
 1330 001c 0821     		movs	r1, #8
 1331              	.LVL178:
 1332 001e 6156     		ldrsb	r1, [r4, r1]
 305:Source\mbedtls_open\library/cipher.c ****     }
 1333              		.loc 1 305 0
 1334 0020 2200     		movs	r2, r4
 1335 0022 2832     		adds	r2, r2, #40
 304:Source\mbedtls_open\library/cipher.c ****                            ctx->iv, ctx->iv_size, ad, ad_len );
 1336              		.loc 1 304 0
 1337 0024 A36B     		ldr	r3, [r4, #56]
 1338 0026 0196     		str	r6, [sp, #4]
 1339 0028 0095     		str	r5, [sp]
 1340 002a FFF7FEFF 		bl	mbedtls_gcm_starts
 1341              	.LVL179:
 1342 002e 1AE0     		b	.L121
 1343              	.LVL180:
 1344              	.L122:
 310:Source\mbedtls_open\library/cipher.c ****     {
 1345              		.loc 1 310 0
 1346 0030 1B78     		ldrb	r3, [r3]
 1347 0032 492B     		cmp	r3, #73
 1348 0034 16D1     		bne	.L125
 1349              	.LBB16:
 315:Source\mbedtls_open\library/cipher.c ****                 ? MBEDTLS_CHACHAPOLY_ENCRYPT
 1350              		.loc 1 315 0
 1351 0036 0822     		movs	r2, #8
 1352 0038 8256     		ldrsb	r2, [r0, r2]
 317:Source\mbedtls_open\library/cipher.c **** 
 1353              		.loc 1 317 0
 1354 003a 013A     		subs	r2, r2, #1
 1355 003c 531E     		subs	r3, r2, #1
 1356 003e 9A41     		sbcs	r2, r2, r3
ARM GAS  C:\Users\Phuong\AppData\Local\Temp\ccnzvfGe.s 			page 40


 1357 0040 D2B2     		uxtb	r2, r2
 1358              	.LVL181:
 320:Source\mbedtls_open\library/cipher.c ****                                                         mode );
 1359              		.loc 1 320 0
 1360 0042 0100     		movs	r1, r0
 1361              	.LVL182:
 1362 0044 2831     		adds	r1, r1, #40
 319:Source\mbedtls_open\library/cipher.c ****                                                         ctx->iv,
 1363              		.loc 1 319 0
 1364 0046 C06B     		ldr	r0, [r0, #60]
 1365              	.LVL183:
 1366 0048 FFF7FEFF 		bl	mbedtls_chachapoly_starts
 1367              	.LVL184:
 322:Source\mbedtls_open\library/cipher.c ****             return( result );
 1368              		.loc 1 322 0
 1369 004c 0028     		cmp	r0, #0
 1370 004e 0AD1     		bne	.L121
 325:Source\mbedtls_open\library/cipher.c ****                                                           ad, ad_len );
 1371              		.loc 1 325 0
 1372 0050 E06B     		ldr	r0, [r4, #60]
 1373              	.LVL185:
 1374 0052 3200     		movs	r2, r6
 1375 0054 2900     		movs	r1, r5
 1376 0056 FFF7FEFF 		bl	mbedtls_chachapoly_update_aad
 1377              	.LVL186:
 1378 005a 04E0     		b	.L121
 1379              	.LVL187:
 1380              	.L123:
 1381              	.LBE16:
 299:Source\mbedtls_open\library/cipher.c **** 
 1382              		.loc 1 299 0
 1383 005c 0348     		ldr	r0, .L127
 1384              	.LVL188:
 1385 005e 02E0     		b	.L121
 1386              	.LVL189:
 1387              	.L124:
 1388 0060 0248     		ldr	r0, .L127
 1389              	.LVL190:
 1390 0062 00E0     		b	.L121
 1391              	.LVL191:
 1392              	.L125:
 330:Source\mbedtls_open\library/cipher.c **** }
 1393              		.loc 1 330 0
 1394 0064 0020     		movs	r0, #0
 1395              	.LVL192:
 1396              	.L121:
 331:Source\mbedtls_open\library/cipher.c **** #endif /* MBEDTLS_GCM_C || MBEDTLS_CHACHAPOLY_C */
 1397              		.loc 1 331 0
 1398 0066 02B0     		add	sp, sp, #8
 1399              		@ sp needed
 1400              	.LVL193:
 1401              	.LVL194:
 1402              	.LVL195:
 1403 0068 70BD     		pop	{r4, r5, r6, pc}
 1404              	.L128:
 1405 006a C046     		.align	2
 1406              	.L127:
ARM GAS  C:\Users\Phuong\AppData\Local\Temp\ccnzvfGe.s 			page 41


 1407 006c 009FFFFF 		.word	-24832
 1408              		.cfi_endproc
 1409              	.LFE19:
 1410              		.size	mbedtls_cipher_update_ad, .-mbedtls_cipher_update_ad
 1411              		.global	__aeabi_uidivmod
 1412              		.section	.text.mbedtls_cipher_update,"ax",%progbits
 1413              		.align	2
 1414              		.global	mbedtls_cipher_update
 1415              		.code	16
 1416              		.thumb_func
 1417              		.type	mbedtls_cipher_update, %function
 1418              	mbedtls_cipher_update:
 1419              	.LFB20:
 336:Source\mbedtls_open\library/cipher.c ****     int ret;
 1420              		.loc 1 336 0
 1421              		.cfi_startproc
 1422              		@ args = 4, pretend = 0, frame = 8
 1423              		@ frame_needed = 0, uses_anonymous_args = 0
 1424              	.LVL196:
 1425 0000 F0B5     		push	{r4, r5, r6, r7, lr}
 1426              		.cfi_def_cfa_offset 20
 1427              		.cfi_offset 4, -20
 1428              		.cfi_offset 5, -16
 1429              		.cfi_offset 6, -12
 1430              		.cfi_offset 7, -8
 1431              		.cfi_offset 14, -4
 1432 0002 5F46     		mov	r7, fp
 1433 0004 5646     		mov	r6, r10
 1434 0006 C0B4     		push	{r6, r7}
 1435              		.cfi_def_cfa_offset 28
 1436              		.cfi_offset 10, -28
 1437              		.cfi_offset 11, -24
 1438 0008 87B0     		sub	sp, sp, #28
 1439              		.cfi_def_cfa_offset 56
 1440 000a 0400     		movs	r4, r0
 1441 000c 0491     		str	r1, [sp, #16]
 1442 000e 1600     		movs	r6, r2
 1443 0010 0593     		str	r3, [sp, #20]
 1444 0012 0E9F     		ldr	r7, [sp, #56]
 1445              	.LVL197:
 340:Source\mbedtls_open\library/cipher.c ****     {
 1446              		.loc 1 340 0
 1447 0014 0028     		cmp	r0, #0
 1448 0016 00D1     		bne	.LCB1556
 1449 0018 2EE1     		b	.L147	@long jump
 1450              	.LCB1556:
 340:Source\mbedtls_open\library/cipher.c ****     {
 1451              		.loc 1 340 0 is_stmt 0 discriminator 1
 1452 001a 0368     		ldr	r3, [r0]
 1453              	.LVL198:
 1454 001c 002B     		cmp	r3, #0
 1455 001e 00D1     		bne	.LCB1561
 1456 0020 2CE1     		b	.L148	@long jump
 1457              	.LCB1561:
 340:Source\mbedtls_open\library/cipher.c ****     {
 1458              		.loc 1 340 0 discriminator 2
 1459 0022 002F     		cmp	r7, #0
ARM GAS  C:\Users\Phuong\AppData\Local\Temp\ccnzvfGe.s 			page 42


 1460 0024 00D1     		bne	.LCB1563
 1461 0026 2BE1     		b	.L149	@long jump
 1462              	.LCB1563:
 345:Source\mbedtls_open\library/cipher.c ****     block_size = mbedtls_cipher_get_block_size( ctx );
 1463              		.loc 1 345 0 is_stmt 1
 1464 0028 0023     		movs	r3, #0
 1465 002a 3B60     		str	r3, [r7]
 1466              	.LVL199:
 1467              	.LBB17:
 1468              	.LBB18:
 1469              		.file 2 ".\\Source\\mbedtls_open\\include/mbedtls/cipher.h"
   1:.\Source\mbedtls_open\include/mbedtls/cipher.h **** /**
   2:.\Source\mbedtls_open\include/mbedtls/cipher.h ****  * \file cipher.h
   3:.\Source\mbedtls_open\include/mbedtls/cipher.h ****  *
   4:.\Source\mbedtls_open\include/mbedtls/cipher.h ****  * \brief This file contains an abstraction interface for use with the cipher
   5:.\Source\mbedtls_open\include/mbedtls/cipher.h ****  * primitives provided by the library. It provides a common interface to all of
   6:.\Source\mbedtls_open\include/mbedtls/cipher.h ****  * the available cipher operations.
   7:.\Source\mbedtls_open\include/mbedtls/cipher.h ****  *
   8:.\Source\mbedtls_open\include/mbedtls/cipher.h ****  * \author Adriaan de Jong <dejong@fox-it.com>
   9:.\Source\mbedtls_open\include/mbedtls/cipher.h ****  */
  10:.\Source\mbedtls_open\include/mbedtls/cipher.h **** /*
  11:.\Source\mbedtls_open\include/mbedtls/cipher.h ****  *  Copyright (C) 2006-2018, Arm Limited (or its affiliates), All Rights Reserved
  12:.\Source\mbedtls_open\include/mbedtls/cipher.h ****  *  SPDX-License-Identifier: Apache-2.0
  13:.\Source\mbedtls_open\include/mbedtls/cipher.h ****  *
  14:.\Source\mbedtls_open\include/mbedtls/cipher.h ****  *  Licensed under the Apache License, Version 2.0 (the "License"); you may
  15:.\Source\mbedtls_open\include/mbedtls/cipher.h ****  *  not use this file except in compliance with the License.
  16:.\Source\mbedtls_open\include/mbedtls/cipher.h ****  *  You may obtain a copy of the License at
  17:.\Source\mbedtls_open\include/mbedtls/cipher.h ****  *
  18:.\Source\mbedtls_open\include/mbedtls/cipher.h ****  *  http://www.apache.org/licenses/LICENSE-2.0
  19:.\Source\mbedtls_open\include/mbedtls/cipher.h ****  *
  20:.\Source\mbedtls_open\include/mbedtls/cipher.h ****  *  Unless required by applicable law or agreed to in writing, software
  21:.\Source\mbedtls_open\include/mbedtls/cipher.h ****  *  distributed under the License is distributed on an "AS IS" BASIS, WITHOUT
  22:.\Source\mbedtls_open\include/mbedtls/cipher.h ****  *  WARRANTIES OR CONDITIONS OF ANY KIND, either express or implied.
  23:.\Source\mbedtls_open\include/mbedtls/cipher.h ****  *  See the License for the specific language governing permissions and
  24:.\Source\mbedtls_open\include/mbedtls/cipher.h ****  *  limitations under the License.
  25:.\Source\mbedtls_open\include/mbedtls/cipher.h ****  *
  26:.\Source\mbedtls_open\include/mbedtls/cipher.h ****  *  This file is part of Mbed TLS (https://tls.mbed.org)
  27:.\Source\mbedtls_open\include/mbedtls/cipher.h ****  */
  28:.\Source\mbedtls_open\include/mbedtls/cipher.h **** 
  29:.\Source\mbedtls_open\include/mbedtls/cipher.h **** #ifndef MBEDTLS_CIPHER_H
  30:.\Source\mbedtls_open\include/mbedtls/cipher.h **** #define MBEDTLS_CIPHER_H
  31:.\Source\mbedtls_open\include/mbedtls/cipher.h **** 
  32:.\Source\mbedtls_open\include/mbedtls/cipher.h **** #if !defined(MBEDTLS_CONFIG_FILE)
  33:.\Source\mbedtls_open\include/mbedtls/cipher.h **** #include "config.h"
  34:.\Source\mbedtls_open\include/mbedtls/cipher.h **** #else
  35:.\Source\mbedtls_open\include/mbedtls/cipher.h **** #include MBEDTLS_CONFIG_FILE
  36:.\Source\mbedtls_open\include/mbedtls/cipher.h **** #endif
  37:.\Source\mbedtls_open\include/mbedtls/cipher.h **** 
  38:.\Source\mbedtls_open\include/mbedtls/cipher.h **** #include <stddef.h>
  39:.\Source\mbedtls_open\include/mbedtls/cipher.h **** 
  40:.\Source\mbedtls_open\include/mbedtls/cipher.h **** #if defined(MBEDTLS_GCM_C) || defined(MBEDTLS_CCM_C) || defined(MBEDTLS_CHACHAPOLY_C)
  41:.\Source\mbedtls_open\include/mbedtls/cipher.h **** #define MBEDTLS_CIPHER_MODE_AEAD
  42:.\Source\mbedtls_open\include/mbedtls/cipher.h **** #endif
  43:.\Source\mbedtls_open\include/mbedtls/cipher.h **** 
  44:.\Source\mbedtls_open\include/mbedtls/cipher.h **** #if defined(MBEDTLS_CIPHER_MODE_CBC)
  45:.\Source\mbedtls_open\include/mbedtls/cipher.h **** #define MBEDTLS_CIPHER_MODE_WITH_PADDING
  46:.\Source\mbedtls_open\include/mbedtls/cipher.h **** #endif
ARM GAS  C:\Users\Phuong\AppData\Local\Temp\ccnzvfGe.s 			page 43


  47:.\Source\mbedtls_open\include/mbedtls/cipher.h **** 
  48:.\Source\mbedtls_open\include/mbedtls/cipher.h **** #if defined(MBEDTLS_ARC4_C) || defined(MBEDTLS_CIPHER_NULL_CIPHER) || \
  49:.\Source\mbedtls_open\include/mbedtls/cipher.h ****     defined(MBEDTLS_CHACHA20_C)
  50:.\Source\mbedtls_open\include/mbedtls/cipher.h **** #define MBEDTLS_CIPHER_MODE_STREAM
  51:.\Source\mbedtls_open\include/mbedtls/cipher.h **** #endif
  52:.\Source\mbedtls_open\include/mbedtls/cipher.h **** 
  53:.\Source\mbedtls_open\include/mbedtls/cipher.h **** #if ( defined(__ARMCC_VERSION) || defined(_MSC_VER) ) && \
  54:.\Source\mbedtls_open\include/mbedtls/cipher.h ****     !defined(inline) && !defined(__cplusplus)
  55:.\Source\mbedtls_open\include/mbedtls/cipher.h **** #define inline __inline
  56:.\Source\mbedtls_open\include/mbedtls/cipher.h **** #endif
  57:.\Source\mbedtls_open\include/mbedtls/cipher.h **** 
  58:.\Source\mbedtls_open\include/mbedtls/cipher.h **** #define MBEDTLS_ERR_CIPHER_FEATURE_UNAVAILABLE  -0x6080  /**< The selected feature is not available
  59:.\Source\mbedtls_open\include/mbedtls/cipher.h **** #define MBEDTLS_ERR_CIPHER_BAD_INPUT_DATA       -0x6100  /**< Bad input parameters. */
  60:.\Source\mbedtls_open\include/mbedtls/cipher.h **** #define MBEDTLS_ERR_CIPHER_ALLOC_FAILED         -0x6180  /**< Failed to allocate memory. */
  61:.\Source\mbedtls_open\include/mbedtls/cipher.h **** #define MBEDTLS_ERR_CIPHER_INVALID_PADDING      -0x6200  /**< Input data contains invalid padding a
  62:.\Source\mbedtls_open\include/mbedtls/cipher.h **** #define MBEDTLS_ERR_CIPHER_FULL_BLOCK_EXPECTED  -0x6280  /**< Decryption of block requires a full b
  63:.\Source\mbedtls_open\include/mbedtls/cipher.h **** #define MBEDTLS_ERR_CIPHER_AUTH_FAILED          -0x6300  /**< Authentication failed (for AEAD modes
  64:.\Source\mbedtls_open\include/mbedtls/cipher.h **** #define MBEDTLS_ERR_CIPHER_INVALID_CONTEXT      -0x6380  /**< The context is invalid. For example, 
  65:.\Source\mbedtls_open\include/mbedtls/cipher.h **** #define MBEDTLS_ERR_CIPHER_HW_ACCEL_FAILED      -0x6400  /**< Cipher hardware accelerator failed. *
  66:.\Source\mbedtls_open\include/mbedtls/cipher.h **** 
  67:.\Source\mbedtls_open\include/mbedtls/cipher.h **** #define MBEDTLS_CIPHER_VARIABLE_IV_LEN     0x01    /**< Cipher accepts IVs of variable length. */
  68:.\Source\mbedtls_open\include/mbedtls/cipher.h **** #define MBEDTLS_CIPHER_VARIABLE_KEY_LEN    0x02    /**< Cipher accepts keys of variable length. */
  69:.\Source\mbedtls_open\include/mbedtls/cipher.h **** 
  70:.\Source\mbedtls_open\include/mbedtls/cipher.h **** #ifdef __cplusplus
  71:.\Source\mbedtls_open\include/mbedtls/cipher.h **** extern "C" {
  72:.\Source\mbedtls_open\include/mbedtls/cipher.h **** #endif
  73:.\Source\mbedtls_open\include/mbedtls/cipher.h **** 
  74:.\Source\mbedtls_open\include/mbedtls/cipher.h **** /**
  75:.\Source\mbedtls_open\include/mbedtls/cipher.h ****  * \brief     Supported cipher types.
  76:.\Source\mbedtls_open\include/mbedtls/cipher.h ****  *
  77:.\Source\mbedtls_open\include/mbedtls/cipher.h ****  * \warning   RC4 and DES are considered weak ciphers and their use
  78:.\Source\mbedtls_open\include/mbedtls/cipher.h ****  *            constitutes a security risk. Arm recommends considering stronger
  79:.\Source\mbedtls_open\include/mbedtls/cipher.h ****  *            ciphers instead.
  80:.\Source\mbedtls_open\include/mbedtls/cipher.h ****  */
  81:.\Source\mbedtls_open\include/mbedtls/cipher.h **** typedef enum {
  82:.\Source\mbedtls_open\include/mbedtls/cipher.h ****     MBEDTLS_CIPHER_ID_NONE = 0,  /**< Placeholder to mark the end of cipher ID lists. */
  83:.\Source\mbedtls_open\include/mbedtls/cipher.h ****     MBEDTLS_CIPHER_ID_NULL,      /**< The identity cipher, treated as a stream cipher. */
  84:.\Source\mbedtls_open\include/mbedtls/cipher.h ****     MBEDTLS_CIPHER_ID_AES,       /**< The AES cipher. */
  85:.\Source\mbedtls_open\include/mbedtls/cipher.h ****     MBEDTLS_CIPHER_ID_DES,       /**< The DES cipher. */
  86:.\Source\mbedtls_open\include/mbedtls/cipher.h ****     MBEDTLS_CIPHER_ID_3DES,      /**< The Triple DES cipher. */
  87:.\Source\mbedtls_open\include/mbedtls/cipher.h ****     MBEDTLS_CIPHER_ID_CAMELLIA,  /**< The Camellia cipher. */
  88:.\Source\mbedtls_open\include/mbedtls/cipher.h ****     MBEDTLS_CIPHER_ID_BLOWFISH,  /**< The Blowfish cipher. */
  89:.\Source\mbedtls_open\include/mbedtls/cipher.h ****     MBEDTLS_CIPHER_ID_ARC4,      /**< The RC4 cipher. */
  90:.\Source\mbedtls_open\include/mbedtls/cipher.h ****     MBEDTLS_CIPHER_ID_ARIA,      /**< The Aria cipher. */
  91:.\Source\mbedtls_open\include/mbedtls/cipher.h ****     MBEDTLS_CIPHER_ID_CHACHA20,  /**< The ChaCha20 cipher. */
  92:.\Source\mbedtls_open\include/mbedtls/cipher.h **** } mbedtls_cipher_id_t;
  93:.\Source\mbedtls_open\include/mbedtls/cipher.h **** 
  94:.\Source\mbedtls_open\include/mbedtls/cipher.h **** /**
  95:.\Source\mbedtls_open\include/mbedtls/cipher.h ****  * \brief     Supported {cipher type, cipher mode} pairs.
  96:.\Source\mbedtls_open\include/mbedtls/cipher.h ****  *
  97:.\Source\mbedtls_open\include/mbedtls/cipher.h ****  * \warning   RC4 and DES are considered weak ciphers and their use
  98:.\Source\mbedtls_open\include/mbedtls/cipher.h ****  *            constitutes a security risk. Arm recommends considering stronger
  99:.\Source\mbedtls_open\include/mbedtls/cipher.h ****  *            ciphers instead.
 100:.\Source\mbedtls_open\include/mbedtls/cipher.h ****  */
 101:.\Source\mbedtls_open\include/mbedtls/cipher.h **** typedef enum {
 102:.\Source\mbedtls_open\include/mbedtls/cipher.h ****     MBEDTLS_CIPHER_NONE = 0,             /**< Placeholder to mark the end of cipher-pair lists. */
 103:.\Source\mbedtls_open\include/mbedtls/cipher.h ****     MBEDTLS_CIPHER_NULL,                 /**< The identity stream cipher. */
ARM GAS  C:\Users\Phuong\AppData\Local\Temp\ccnzvfGe.s 			page 44


 104:.\Source\mbedtls_open\include/mbedtls/cipher.h ****     MBEDTLS_CIPHER_AES_128_ECB,          /**< AES cipher with 128-bit ECB mode. */
 105:.\Source\mbedtls_open\include/mbedtls/cipher.h ****     MBEDTLS_CIPHER_AES_192_ECB,          /**< AES cipher with 192-bit ECB mode. */
 106:.\Source\mbedtls_open\include/mbedtls/cipher.h ****     MBEDTLS_CIPHER_AES_256_ECB,          /**< AES cipher with 256-bit ECB mode. */
 107:.\Source\mbedtls_open\include/mbedtls/cipher.h ****     MBEDTLS_CIPHER_AES_128_CBC,          /**< AES cipher with 128-bit CBC mode. */
 108:.\Source\mbedtls_open\include/mbedtls/cipher.h ****     MBEDTLS_CIPHER_AES_192_CBC,          /**< AES cipher with 192-bit CBC mode. */
 109:.\Source\mbedtls_open\include/mbedtls/cipher.h ****     MBEDTLS_CIPHER_AES_256_CBC,          /**< AES cipher with 256-bit CBC mode. */
 110:.\Source\mbedtls_open\include/mbedtls/cipher.h ****     MBEDTLS_CIPHER_AES_128_CFB128,       /**< AES cipher with 128-bit CFB128 mode. */
 111:.\Source\mbedtls_open\include/mbedtls/cipher.h ****     MBEDTLS_CIPHER_AES_192_CFB128,       /**< AES cipher with 192-bit CFB128 mode. */
 112:.\Source\mbedtls_open\include/mbedtls/cipher.h ****     MBEDTLS_CIPHER_AES_256_CFB128,       /**< AES cipher with 256-bit CFB128 mode. */
 113:.\Source\mbedtls_open\include/mbedtls/cipher.h ****     MBEDTLS_CIPHER_AES_128_CTR,          /**< AES cipher with 128-bit CTR mode. */
 114:.\Source\mbedtls_open\include/mbedtls/cipher.h ****     MBEDTLS_CIPHER_AES_192_CTR,          /**< AES cipher with 192-bit CTR mode. */
 115:.\Source\mbedtls_open\include/mbedtls/cipher.h ****     MBEDTLS_CIPHER_AES_256_CTR,          /**< AES cipher with 256-bit CTR mode. */
 116:.\Source\mbedtls_open\include/mbedtls/cipher.h ****     MBEDTLS_CIPHER_AES_128_GCM,          /**< AES cipher with 128-bit GCM mode. */
 117:.\Source\mbedtls_open\include/mbedtls/cipher.h ****     MBEDTLS_CIPHER_AES_192_GCM,          /**< AES cipher with 192-bit GCM mode. */
 118:.\Source\mbedtls_open\include/mbedtls/cipher.h ****     MBEDTLS_CIPHER_AES_256_GCM,          /**< AES cipher with 256-bit GCM mode. */
 119:.\Source\mbedtls_open\include/mbedtls/cipher.h ****     MBEDTLS_CIPHER_CAMELLIA_128_ECB,     /**< Camellia cipher with 128-bit ECB mode. */
 120:.\Source\mbedtls_open\include/mbedtls/cipher.h ****     MBEDTLS_CIPHER_CAMELLIA_192_ECB,     /**< Camellia cipher with 192-bit ECB mode. */
 121:.\Source\mbedtls_open\include/mbedtls/cipher.h ****     MBEDTLS_CIPHER_CAMELLIA_256_ECB,     /**< Camellia cipher with 256-bit ECB mode. */
 122:.\Source\mbedtls_open\include/mbedtls/cipher.h ****     MBEDTLS_CIPHER_CAMELLIA_128_CBC,     /**< Camellia cipher with 128-bit CBC mode. */
 123:.\Source\mbedtls_open\include/mbedtls/cipher.h ****     MBEDTLS_CIPHER_CAMELLIA_192_CBC,     /**< Camellia cipher with 192-bit CBC mode. */
 124:.\Source\mbedtls_open\include/mbedtls/cipher.h ****     MBEDTLS_CIPHER_CAMELLIA_256_CBC,     /**< Camellia cipher with 256-bit CBC mode. */
 125:.\Source\mbedtls_open\include/mbedtls/cipher.h ****     MBEDTLS_CIPHER_CAMELLIA_128_CFB128,  /**< Camellia cipher with 128-bit CFB128 mode. */
 126:.\Source\mbedtls_open\include/mbedtls/cipher.h ****     MBEDTLS_CIPHER_CAMELLIA_192_CFB128,  /**< Camellia cipher with 192-bit CFB128 mode. */
 127:.\Source\mbedtls_open\include/mbedtls/cipher.h ****     MBEDTLS_CIPHER_CAMELLIA_256_CFB128,  /**< Camellia cipher with 256-bit CFB128 mode. */
 128:.\Source\mbedtls_open\include/mbedtls/cipher.h ****     MBEDTLS_CIPHER_CAMELLIA_128_CTR,     /**< Camellia cipher with 128-bit CTR mode. */
 129:.\Source\mbedtls_open\include/mbedtls/cipher.h ****     MBEDTLS_CIPHER_CAMELLIA_192_CTR,     /**< Camellia cipher with 192-bit CTR mode. */
 130:.\Source\mbedtls_open\include/mbedtls/cipher.h ****     MBEDTLS_CIPHER_CAMELLIA_256_CTR,     /**< Camellia cipher with 256-bit CTR mode. */
 131:.\Source\mbedtls_open\include/mbedtls/cipher.h ****     MBEDTLS_CIPHER_CAMELLIA_128_GCM,     /**< Camellia cipher with 128-bit GCM mode. */
 132:.\Source\mbedtls_open\include/mbedtls/cipher.h ****     MBEDTLS_CIPHER_CAMELLIA_192_GCM,     /**< Camellia cipher with 192-bit GCM mode. */
 133:.\Source\mbedtls_open\include/mbedtls/cipher.h ****     MBEDTLS_CIPHER_CAMELLIA_256_GCM,     /**< Camellia cipher with 256-bit GCM mode. */
 134:.\Source\mbedtls_open\include/mbedtls/cipher.h ****     MBEDTLS_CIPHER_DES_ECB,              /**< DES cipher with ECB mode. */
 135:.\Source\mbedtls_open\include/mbedtls/cipher.h ****     MBEDTLS_CIPHER_DES_CBC,              /**< DES cipher with CBC mode. */
 136:.\Source\mbedtls_open\include/mbedtls/cipher.h ****     MBEDTLS_CIPHER_DES_EDE_ECB,          /**< DES cipher with EDE ECB mode. */
 137:.\Source\mbedtls_open\include/mbedtls/cipher.h ****     MBEDTLS_CIPHER_DES_EDE_CBC,          /**< DES cipher with EDE CBC mode. */
 138:.\Source\mbedtls_open\include/mbedtls/cipher.h ****     MBEDTLS_CIPHER_DES_EDE3_ECB,         /**< DES cipher with EDE3 ECB mode. */
 139:.\Source\mbedtls_open\include/mbedtls/cipher.h ****     MBEDTLS_CIPHER_DES_EDE3_CBC,         /**< DES cipher with EDE3 CBC mode. */
 140:.\Source\mbedtls_open\include/mbedtls/cipher.h ****     MBEDTLS_CIPHER_BLOWFISH_ECB,         /**< Blowfish cipher with ECB mode. */
 141:.\Source\mbedtls_open\include/mbedtls/cipher.h ****     MBEDTLS_CIPHER_BLOWFISH_CBC,         /**< Blowfish cipher with CBC mode. */
 142:.\Source\mbedtls_open\include/mbedtls/cipher.h ****     MBEDTLS_CIPHER_BLOWFISH_CFB64,       /**< Blowfish cipher with CFB64 mode. */
 143:.\Source\mbedtls_open\include/mbedtls/cipher.h ****     MBEDTLS_CIPHER_BLOWFISH_CTR,         /**< Blowfish cipher with CTR mode. */
 144:.\Source\mbedtls_open\include/mbedtls/cipher.h ****     MBEDTLS_CIPHER_ARC4_128,             /**< RC4 cipher with 128-bit mode. */
 145:.\Source\mbedtls_open\include/mbedtls/cipher.h ****     MBEDTLS_CIPHER_AES_128_CCM,          /**< AES cipher with 128-bit CCM mode. */
 146:.\Source\mbedtls_open\include/mbedtls/cipher.h ****     MBEDTLS_CIPHER_AES_192_CCM,          /**< AES cipher with 192-bit CCM mode. */
 147:.\Source\mbedtls_open\include/mbedtls/cipher.h ****     MBEDTLS_CIPHER_AES_256_CCM,          /**< AES cipher with 256-bit CCM mode. */
 148:.\Source\mbedtls_open\include/mbedtls/cipher.h ****     MBEDTLS_CIPHER_CAMELLIA_128_CCM,     /**< Camellia cipher with 128-bit CCM mode. */
 149:.\Source\mbedtls_open\include/mbedtls/cipher.h ****     MBEDTLS_CIPHER_CAMELLIA_192_CCM,     /**< Camellia cipher with 192-bit CCM mode. */
 150:.\Source\mbedtls_open\include/mbedtls/cipher.h ****     MBEDTLS_CIPHER_CAMELLIA_256_CCM,     /**< Camellia cipher with 256-bit CCM mode. */
 151:.\Source\mbedtls_open\include/mbedtls/cipher.h ****     MBEDTLS_CIPHER_ARIA_128_ECB,         /**< Aria cipher with 128-bit key and ECB mode. */
 152:.\Source\mbedtls_open\include/mbedtls/cipher.h ****     MBEDTLS_CIPHER_ARIA_192_ECB,         /**< Aria cipher with 192-bit key and ECB mode. */
 153:.\Source\mbedtls_open\include/mbedtls/cipher.h ****     MBEDTLS_CIPHER_ARIA_256_ECB,         /**< Aria cipher with 256-bit key and ECB mode. */
 154:.\Source\mbedtls_open\include/mbedtls/cipher.h ****     MBEDTLS_CIPHER_ARIA_128_CBC,         /**< Aria cipher with 128-bit key and CBC mode. */
 155:.\Source\mbedtls_open\include/mbedtls/cipher.h ****     MBEDTLS_CIPHER_ARIA_192_CBC,         /**< Aria cipher with 192-bit key and CBC mode. */
 156:.\Source\mbedtls_open\include/mbedtls/cipher.h ****     MBEDTLS_CIPHER_ARIA_256_CBC,         /**< Aria cipher with 256-bit key and CBC mode. */
 157:.\Source\mbedtls_open\include/mbedtls/cipher.h ****     MBEDTLS_CIPHER_ARIA_128_CFB128,      /**< Aria cipher with 128-bit key and CFB-128 mode. */
 158:.\Source\mbedtls_open\include/mbedtls/cipher.h ****     MBEDTLS_CIPHER_ARIA_192_CFB128,      /**< Aria cipher with 192-bit key and CFB-128 mode. */
 159:.\Source\mbedtls_open\include/mbedtls/cipher.h ****     MBEDTLS_CIPHER_ARIA_256_CFB128,      /**< Aria cipher with 256-bit key and CFB-128 mode. */
 160:.\Source\mbedtls_open\include/mbedtls/cipher.h ****     MBEDTLS_CIPHER_ARIA_128_CTR,         /**< Aria cipher with 128-bit key and CTR mode. */
ARM GAS  C:\Users\Phuong\AppData\Local\Temp\ccnzvfGe.s 			page 45


 161:.\Source\mbedtls_open\include/mbedtls/cipher.h ****     MBEDTLS_CIPHER_ARIA_192_CTR,         /**< Aria cipher with 192-bit key and CTR mode. */
 162:.\Source\mbedtls_open\include/mbedtls/cipher.h ****     MBEDTLS_CIPHER_ARIA_256_CTR,         /**< Aria cipher with 256-bit key and CTR mode. */
 163:.\Source\mbedtls_open\include/mbedtls/cipher.h ****     MBEDTLS_CIPHER_ARIA_128_GCM,         /**< Aria cipher with 128-bit key and GCM mode. */
 164:.\Source\mbedtls_open\include/mbedtls/cipher.h ****     MBEDTLS_CIPHER_ARIA_192_GCM,         /**< Aria cipher with 192-bit key and GCM mode. */
 165:.\Source\mbedtls_open\include/mbedtls/cipher.h ****     MBEDTLS_CIPHER_ARIA_256_GCM,         /**< Aria cipher with 256-bit key and GCM mode. */
 166:.\Source\mbedtls_open\include/mbedtls/cipher.h ****     MBEDTLS_CIPHER_ARIA_128_CCM,         /**< Aria cipher with 128-bit key and CCM mode. */
 167:.\Source\mbedtls_open\include/mbedtls/cipher.h ****     MBEDTLS_CIPHER_ARIA_192_CCM,         /**< Aria cipher with 192-bit key and CCM mode. */
 168:.\Source\mbedtls_open\include/mbedtls/cipher.h ****     MBEDTLS_CIPHER_ARIA_256_CCM,         /**< Aria cipher with 256-bit key and CCM mode. */
 169:.\Source\mbedtls_open\include/mbedtls/cipher.h ****     MBEDTLS_CIPHER_AES_128_OFB,          /**< AES 128-bit cipher in OFB mode. */
 170:.\Source\mbedtls_open\include/mbedtls/cipher.h ****     MBEDTLS_CIPHER_AES_192_OFB,          /**< AES 192-bit cipher in OFB mode. */
 171:.\Source\mbedtls_open\include/mbedtls/cipher.h ****     MBEDTLS_CIPHER_AES_256_OFB,          /**< AES 256-bit cipher in OFB mode. */
 172:.\Source\mbedtls_open\include/mbedtls/cipher.h ****     MBEDTLS_CIPHER_AES_128_XTS,          /**< AES 128-bit cipher in XTS block mode. */
 173:.\Source\mbedtls_open\include/mbedtls/cipher.h ****     MBEDTLS_CIPHER_AES_256_XTS,          /**< AES 256-bit cipher in XTS block mode. */
 174:.\Source\mbedtls_open\include/mbedtls/cipher.h ****     MBEDTLS_CIPHER_CHACHA20,             /**< ChaCha20 stream cipher. */
 175:.\Source\mbedtls_open\include/mbedtls/cipher.h ****     MBEDTLS_CIPHER_CHACHA20_POLY1305,    /**< ChaCha20-Poly1305 AEAD cipher. */
 176:.\Source\mbedtls_open\include/mbedtls/cipher.h **** } mbedtls_cipher_type_t;
 177:.\Source\mbedtls_open\include/mbedtls/cipher.h **** 
 178:.\Source\mbedtls_open\include/mbedtls/cipher.h **** /** Supported cipher modes. */
 179:.\Source\mbedtls_open\include/mbedtls/cipher.h **** typedef enum {
 180:.\Source\mbedtls_open\include/mbedtls/cipher.h ****     MBEDTLS_MODE_NONE = 0,               /**< None. */
 181:.\Source\mbedtls_open\include/mbedtls/cipher.h ****     MBEDTLS_MODE_ECB,                    /**< The ECB cipher mode. */
 182:.\Source\mbedtls_open\include/mbedtls/cipher.h ****     MBEDTLS_MODE_CBC,                    /**< The CBC cipher mode. */
 183:.\Source\mbedtls_open\include/mbedtls/cipher.h ****     MBEDTLS_MODE_CFB,                    /**< The CFB cipher mode. */
 184:.\Source\mbedtls_open\include/mbedtls/cipher.h ****     MBEDTLS_MODE_OFB,                    /**< The OFB cipher mode. */
 185:.\Source\mbedtls_open\include/mbedtls/cipher.h ****     MBEDTLS_MODE_CTR,                    /**< The CTR cipher mode. */
 186:.\Source\mbedtls_open\include/mbedtls/cipher.h ****     MBEDTLS_MODE_GCM,                    /**< The GCM cipher mode. */
 187:.\Source\mbedtls_open\include/mbedtls/cipher.h ****     MBEDTLS_MODE_STREAM,                 /**< The stream cipher mode. */
 188:.\Source\mbedtls_open\include/mbedtls/cipher.h ****     MBEDTLS_MODE_CCM,                    /**< The CCM cipher mode. */
 189:.\Source\mbedtls_open\include/mbedtls/cipher.h ****     MBEDTLS_MODE_XTS,                    /**< The XTS cipher mode. */
 190:.\Source\mbedtls_open\include/mbedtls/cipher.h ****     MBEDTLS_MODE_CHACHAPOLY,             /**< The ChaCha-Poly cipher mode. */
 191:.\Source\mbedtls_open\include/mbedtls/cipher.h **** } mbedtls_cipher_mode_t;
 192:.\Source\mbedtls_open\include/mbedtls/cipher.h **** 
 193:.\Source\mbedtls_open\include/mbedtls/cipher.h **** /** Supported cipher padding types. */
 194:.\Source\mbedtls_open\include/mbedtls/cipher.h **** typedef enum {
 195:.\Source\mbedtls_open\include/mbedtls/cipher.h ****     MBEDTLS_PADDING_PKCS7 = 0,     /**< PKCS7 padding (default).        */
 196:.\Source\mbedtls_open\include/mbedtls/cipher.h ****     MBEDTLS_PADDING_ONE_AND_ZEROS, /**< ISO/IEC 7816-4 padding.         */
 197:.\Source\mbedtls_open\include/mbedtls/cipher.h ****     MBEDTLS_PADDING_ZEROS_AND_LEN, /**< ANSI X.923 padding.             */
 198:.\Source\mbedtls_open\include/mbedtls/cipher.h ****     MBEDTLS_PADDING_ZEROS,         /**< Zero padding (not reversible). */
 199:.\Source\mbedtls_open\include/mbedtls/cipher.h ****     MBEDTLS_PADDING_NONE,          /**< Never pad (full blocks only).   */
 200:.\Source\mbedtls_open\include/mbedtls/cipher.h **** } mbedtls_cipher_padding_t;
 201:.\Source\mbedtls_open\include/mbedtls/cipher.h **** 
 202:.\Source\mbedtls_open\include/mbedtls/cipher.h **** /** Type of operation. */
 203:.\Source\mbedtls_open\include/mbedtls/cipher.h **** typedef enum {
 204:.\Source\mbedtls_open\include/mbedtls/cipher.h ****     MBEDTLS_OPERATION_NONE = -1,
 205:.\Source\mbedtls_open\include/mbedtls/cipher.h ****     MBEDTLS_DECRYPT = 0,
 206:.\Source\mbedtls_open\include/mbedtls/cipher.h ****     MBEDTLS_ENCRYPT,
 207:.\Source\mbedtls_open\include/mbedtls/cipher.h **** } mbedtls_operation_t;
 208:.\Source\mbedtls_open\include/mbedtls/cipher.h **** 
 209:.\Source\mbedtls_open\include/mbedtls/cipher.h **** enum {
 210:.\Source\mbedtls_open\include/mbedtls/cipher.h ****     /** Undefined key length. */
 211:.\Source\mbedtls_open\include/mbedtls/cipher.h ****     MBEDTLS_KEY_LENGTH_NONE = 0,
 212:.\Source\mbedtls_open\include/mbedtls/cipher.h ****     /** Key length, in bits (including parity), for DES keys. */
 213:.\Source\mbedtls_open\include/mbedtls/cipher.h ****     MBEDTLS_KEY_LENGTH_DES  = 64,
 214:.\Source\mbedtls_open\include/mbedtls/cipher.h ****     /** Key length in bits, including parity, for DES in two-key EDE. */
 215:.\Source\mbedtls_open\include/mbedtls/cipher.h ****     MBEDTLS_KEY_LENGTH_DES_EDE = 128,
 216:.\Source\mbedtls_open\include/mbedtls/cipher.h ****     /** Key length in bits, including parity, for DES in three-key EDE. */
 217:.\Source\mbedtls_open\include/mbedtls/cipher.h ****     MBEDTLS_KEY_LENGTH_DES_EDE3 = 192,
ARM GAS  C:\Users\Phuong\AppData\Local\Temp\ccnzvfGe.s 			page 46


 218:.\Source\mbedtls_open\include/mbedtls/cipher.h **** };
 219:.\Source\mbedtls_open\include/mbedtls/cipher.h **** 
 220:.\Source\mbedtls_open\include/mbedtls/cipher.h **** /** Maximum length of any IV, in Bytes. */
 221:.\Source\mbedtls_open\include/mbedtls/cipher.h **** #define MBEDTLS_MAX_IV_LENGTH      16
 222:.\Source\mbedtls_open\include/mbedtls/cipher.h **** /** Maximum block size of any cipher, in Bytes. */
 223:.\Source\mbedtls_open\include/mbedtls/cipher.h **** #define MBEDTLS_MAX_BLOCK_LENGTH   16
 224:.\Source\mbedtls_open\include/mbedtls/cipher.h **** 
 225:.\Source\mbedtls_open\include/mbedtls/cipher.h **** /**
 226:.\Source\mbedtls_open\include/mbedtls/cipher.h ****  * Base cipher information (opaque struct).
 227:.\Source\mbedtls_open\include/mbedtls/cipher.h ****  */
 228:.\Source\mbedtls_open\include/mbedtls/cipher.h **** typedef struct mbedtls_cipher_base_t mbedtls_cipher_base_t;
 229:.\Source\mbedtls_open\include/mbedtls/cipher.h **** 
 230:.\Source\mbedtls_open\include/mbedtls/cipher.h **** /**
 231:.\Source\mbedtls_open\include/mbedtls/cipher.h ****  * CMAC context (opaque struct).
 232:.\Source\mbedtls_open\include/mbedtls/cipher.h ****  */
 233:.\Source\mbedtls_open\include/mbedtls/cipher.h **** typedef struct mbedtls_cmac_context_t mbedtls_cmac_context_t;
 234:.\Source\mbedtls_open\include/mbedtls/cipher.h **** 
 235:.\Source\mbedtls_open\include/mbedtls/cipher.h **** /**
 236:.\Source\mbedtls_open\include/mbedtls/cipher.h ****  * Cipher information. Allows calling cipher functions
 237:.\Source\mbedtls_open\include/mbedtls/cipher.h ****  * in a generic way.
 238:.\Source\mbedtls_open\include/mbedtls/cipher.h ****  */
 239:.\Source\mbedtls_open\include/mbedtls/cipher.h **** typedef struct mbedtls_cipher_info_t
 240:.\Source\mbedtls_open\include/mbedtls/cipher.h **** {
 241:.\Source\mbedtls_open\include/mbedtls/cipher.h ****     /** Full cipher identifier. For example,
 242:.\Source\mbedtls_open\include/mbedtls/cipher.h ****      * MBEDTLS_CIPHER_AES_256_CBC.
 243:.\Source\mbedtls_open\include/mbedtls/cipher.h ****      */
 244:.\Source\mbedtls_open\include/mbedtls/cipher.h ****     mbedtls_cipher_type_t type;
 245:.\Source\mbedtls_open\include/mbedtls/cipher.h **** 
 246:.\Source\mbedtls_open\include/mbedtls/cipher.h ****     /** The cipher mode. For example, MBEDTLS_MODE_CBC. */
 247:.\Source\mbedtls_open\include/mbedtls/cipher.h ****     mbedtls_cipher_mode_t mode;
 248:.\Source\mbedtls_open\include/mbedtls/cipher.h **** 
 249:.\Source\mbedtls_open\include/mbedtls/cipher.h ****     /** The cipher key length, in bits. This is the
 250:.\Source\mbedtls_open\include/mbedtls/cipher.h ****      * default length for variable sized ciphers.
 251:.\Source\mbedtls_open\include/mbedtls/cipher.h ****      * Includes parity bits for ciphers like DES.
 252:.\Source\mbedtls_open\include/mbedtls/cipher.h ****      */
 253:.\Source\mbedtls_open\include/mbedtls/cipher.h ****     unsigned int key_bitlen;
 254:.\Source\mbedtls_open\include/mbedtls/cipher.h **** 
 255:.\Source\mbedtls_open\include/mbedtls/cipher.h ****     /** Name of the cipher. */
 256:.\Source\mbedtls_open\include/mbedtls/cipher.h ****     const char * name;
 257:.\Source\mbedtls_open\include/mbedtls/cipher.h **** 
 258:.\Source\mbedtls_open\include/mbedtls/cipher.h ****     /** IV or nonce size, in Bytes.
 259:.\Source\mbedtls_open\include/mbedtls/cipher.h ****      * For ciphers that accept variable IV sizes,
 260:.\Source\mbedtls_open\include/mbedtls/cipher.h ****      * this is the recommended size.
 261:.\Source\mbedtls_open\include/mbedtls/cipher.h ****      */
 262:.\Source\mbedtls_open\include/mbedtls/cipher.h ****     unsigned int iv_size;
 263:.\Source\mbedtls_open\include/mbedtls/cipher.h **** 
 264:.\Source\mbedtls_open\include/mbedtls/cipher.h ****     /** Bitflag comprised of MBEDTLS_CIPHER_VARIABLE_IV_LEN and
 265:.\Source\mbedtls_open\include/mbedtls/cipher.h ****      *  MBEDTLS_CIPHER_VARIABLE_KEY_LEN indicating whether the
 266:.\Source\mbedtls_open\include/mbedtls/cipher.h ****      *  cipher supports variable IV or variable key sizes, respectively.
 267:.\Source\mbedtls_open\include/mbedtls/cipher.h ****      */
 268:.\Source\mbedtls_open\include/mbedtls/cipher.h ****     int flags;
 269:.\Source\mbedtls_open\include/mbedtls/cipher.h **** 
 270:.\Source\mbedtls_open\include/mbedtls/cipher.h ****     /** The block size, in Bytes. */
 271:.\Source\mbedtls_open\include/mbedtls/cipher.h ****     unsigned int block_size;
 272:.\Source\mbedtls_open\include/mbedtls/cipher.h **** 
 273:.\Source\mbedtls_open\include/mbedtls/cipher.h ****     /** Struct for base cipher information and functions. */
 274:.\Source\mbedtls_open\include/mbedtls/cipher.h ****     const mbedtls_cipher_base_t *base;
ARM GAS  C:\Users\Phuong\AppData\Local\Temp\ccnzvfGe.s 			page 47


 275:.\Source\mbedtls_open\include/mbedtls/cipher.h **** 
 276:.\Source\mbedtls_open\include/mbedtls/cipher.h **** } mbedtls_cipher_info_t;
 277:.\Source\mbedtls_open\include/mbedtls/cipher.h **** 
 278:.\Source\mbedtls_open\include/mbedtls/cipher.h **** /**
 279:.\Source\mbedtls_open\include/mbedtls/cipher.h ****  * Generic cipher context.
 280:.\Source\mbedtls_open\include/mbedtls/cipher.h ****  */
 281:.\Source\mbedtls_open\include/mbedtls/cipher.h **** typedef struct mbedtls_cipher_context_t
 282:.\Source\mbedtls_open\include/mbedtls/cipher.h **** {
 283:.\Source\mbedtls_open\include/mbedtls/cipher.h ****     /** Information about the associated cipher. */
 284:.\Source\mbedtls_open\include/mbedtls/cipher.h ****     const mbedtls_cipher_info_t *cipher_info;
 285:.\Source\mbedtls_open\include/mbedtls/cipher.h **** 
 286:.\Source\mbedtls_open\include/mbedtls/cipher.h ****     /** Key length to use. */
 287:.\Source\mbedtls_open\include/mbedtls/cipher.h ****     int key_bitlen;
 288:.\Source\mbedtls_open\include/mbedtls/cipher.h **** 
 289:.\Source\mbedtls_open\include/mbedtls/cipher.h ****     /** Operation that the key of the context has been
 290:.\Source\mbedtls_open\include/mbedtls/cipher.h ****      * initialized for.
 291:.\Source\mbedtls_open\include/mbedtls/cipher.h ****      */
 292:.\Source\mbedtls_open\include/mbedtls/cipher.h ****     mbedtls_operation_t operation;
 293:.\Source\mbedtls_open\include/mbedtls/cipher.h **** 
 294:.\Source\mbedtls_open\include/mbedtls/cipher.h **** #if defined(MBEDTLS_CIPHER_MODE_WITH_PADDING)
 295:.\Source\mbedtls_open\include/mbedtls/cipher.h ****     /** Padding functions to use, if relevant for
 296:.\Source\mbedtls_open\include/mbedtls/cipher.h ****      * the specific cipher mode.
 297:.\Source\mbedtls_open\include/mbedtls/cipher.h ****      */
 298:.\Source\mbedtls_open\include/mbedtls/cipher.h ****     void (*add_padding)( unsigned char *output, size_t olen, size_t data_len );
 299:.\Source\mbedtls_open\include/mbedtls/cipher.h ****     int (*get_padding)( unsigned char *input, size_t ilen, size_t *data_len );
 300:.\Source\mbedtls_open\include/mbedtls/cipher.h **** #endif
 301:.\Source\mbedtls_open\include/mbedtls/cipher.h **** 
 302:.\Source\mbedtls_open\include/mbedtls/cipher.h ****     /** Buffer for input that has not been processed yet. */
 303:.\Source\mbedtls_open\include/mbedtls/cipher.h ****     unsigned char unprocessed_data[MBEDTLS_MAX_BLOCK_LENGTH];
 304:.\Source\mbedtls_open\include/mbedtls/cipher.h **** 
 305:.\Source\mbedtls_open\include/mbedtls/cipher.h ****     /** Number of Bytes that have not been processed yet. */
 306:.\Source\mbedtls_open\include/mbedtls/cipher.h ****     size_t unprocessed_len;
 307:.\Source\mbedtls_open\include/mbedtls/cipher.h **** 
 308:.\Source\mbedtls_open\include/mbedtls/cipher.h ****     /** Current IV or NONCE_COUNTER for CTR-mode, data unit (or sector) number
 309:.\Source\mbedtls_open\include/mbedtls/cipher.h ****      * for XTS-mode. */
 310:.\Source\mbedtls_open\include/mbedtls/cipher.h ****     unsigned char iv[MBEDTLS_MAX_IV_LENGTH];
 311:.\Source\mbedtls_open\include/mbedtls/cipher.h **** 
 312:.\Source\mbedtls_open\include/mbedtls/cipher.h ****     /** IV size in Bytes, for ciphers with variable-length IVs. */
 313:.\Source\mbedtls_open\include/mbedtls/cipher.h ****     size_t iv_size;
 314:.\Source\mbedtls_open\include/mbedtls/cipher.h **** 
 315:.\Source\mbedtls_open\include/mbedtls/cipher.h ****     /** The cipher-specific context. */
 316:.\Source\mbedtls_open\include/mbedtls/cipher.h ****     void *cipher_ctx;
 317:.\Source\mbedtls_open\include/mbedtls/cipher.h **** 
 318:.\Source\mbedtls_open\include/mbedtls/cipher.h **** #if defined(MBEDTLS_CMAC_C)
 319:.\Source\mbedtls_open\include/mbedtls/cipher.h ****     /** CMAC-specific context. */
 320:.\Source\mbedtls_open\include/mbedtls/cipher.h ****     mbedtls_cmac_context_t *cmac_ctx;
 321:.\Source\mbedtls_open\include/mbedtls/cipher.h **** #endif
 322:.\Source\mbedtls_open\include/mbedtls/cipher.h **** } mbedtls_cipher_context_t;
 323:.\Source\mbedtls_open\include/mbedtls/cipher.h **** 
 324:.\Source\mbedtls_open\include/mbedtls/cipher.h **** /**
 325:.\Source\mbedtls_open\include/mbedtls/cipher.h ****  * \brief This function retrieves the list of ciphers supported by the generic
 326:.\Source\mbedtls_open\include/mbedtls/cipher.h ****  * cipher module.
 327:.\Source\mbedtls_open\include/mbedtls/cipher.h ****  *
 328:.\Source\mbedtls_open\include/mbedtls/cipher.h ****  * \return      A statically-allocated array of ciphers. The last entry
 329:.\Source\mbedtls_open\include/mbedtls/cipher.h ****  *              is zero.
 330:.\Source\mbedtls_open\include/mbedtls/cipher.h ****  */
 331:.\Source\mbedtls_open\include/mbedtls/cipher.h **** const int *mbedtls_cipher_list( void );
ARM GAS  C:\Users\Phuong\AppData\Local\Temp\ccnzvfGe.s 			page 48


 332:.\Source\mbedtls_open\include/mbedtls/cipher.h **** 
 333:.\Source\mbedtls_open\include/mbedtls/cipher.h **** /**
 334:.\Source\mbedtls_open\include/mbedtls/cipher.h ****  * \brief               This function retrieves the cipher-information
 335:.\Source\mbedtls_open\include/mbedtls/cipher.h ****  *                      structure associated with the given cipher name.
 336:.\Source\mbedtls_open\include/mbedtls/cipher.h ****  *
 337:.\Source\mbedtls_open\include/mbedtls/cipher.h ****  * \param cipher_name   Name of the cipher to search for.
 338:.\Source\mbedtls_open\include/mbedtls/cipher.h ****  *
 339:.\Source\mbedtls_open\include/mbedtls/cipher.h ****  * \return              The cipher information structure associated with the
 340:.\Source\mbedtls_open\include/mbedtls/cipher.h ****  *                      given \p cipher_name.
 341:.\Source\mbedtls_open\include/mbedtls/cipher.h ****  * \return              NULL if the associated cipher information is not found.
 342:.\Source\mbedtls_open\include/mbedtls/cipher.h ****  */
 343:.\Source\mbedtls_open\include/mbedtls/cipher.h **** const mbedtls_cipher_info_t *mbedtls_cipher_info_from_string( const char *cipher_name );
 344:.\Source\mbedtls_open\include/mbedtls/cipher.h **** 
 345:.\Source\mbedtls_open\include/mbedtls/cipher.h **** /**
 346:.\Source\mbedtls_open\include/mbedtls/cipher.h ****  * \brief               This function retrieves the cipher-information
 347:.\Source\mbedtls_open\include/mbedtls/cipher.h ****  *                      structure associated with the given cipher type.
 348:.\Source\mbedtls_open\include/mbedtls/cipher.h ****  *
 349:.\Source\mbedtls_open\include/mbedtls/cipher.h ****  * \param cipher_type   Type of the cipher to search for.
 350:.\Source\mbedtls_open\include/mbedtls/cipher.h ****  *
 351:.\Source\mbedtls_open\include/mbedtls/cipher.h ****  * \return              The cipher information structure associated with the
 352:.\Source\mbedtls_open\include/mbedtls/cipher.h ****  *                      given \p cipher_type.
 353:.\Source\mbedtls_open\include/mbedtls/cipher.h ****  * \return              NULL if the associated cipher information is not found.
 354:.\Source\mbedtls_open\include/mbedtls/cipher.h ****  */
 355:.\Source\mbedtls_open\include/mbedtls/cipher.h **** const mbedtls_cipher_info_t *mbedtls_cipher_info_from_type( const mbedtls_cipher_type_t cipher_type
 356:.\Source\mbedtls_open\include/mbedtls/cipher.h **** 
 357:.\Source\mbedtls_open\include/mbedtls/cipher.h **** /**
 358:.\Source\mbedtls_open\include/mbedtls/cipher.h ****  * \brief               This function retrieves the cipher-information
 359:.\Source\mbedtls_open\include/mbedtls/cipher.h ****  *                      structure associated with the given cipher ID,
 360:.\Source\mbedtls_open\include/mbedtls/cipher.h ****  *                      key size and mode.
 361:.\Source\mbedtls_open\include/mbedtls/cipher.h ****  *
 362:.\Source\mbedtls_open\include/mbedtls/cipher.h ****  * \param cipher_id     The ID of the cipher to search for. For example,
 363:.\Source\mbedtls_open\include/mbedtls/cipher.h ****  *                      #MBEDTLS_CIPHER_ID_AES.
 364:.\Source\mbedtls_open\include/mbedtls/cipher.h ****  * \param key_bitlen    The length of the key in bits.
 365:.\Source\mbedtls_open\include/mbedtls/cipher.h ****  * \param mode          The cipher mode. For example, #MBEDTLS_MODE_CBC.
 366:.\Source\mbedtls_open\include/mbedtls/cipher.h ****  *
 367:.\Source\mbedtls_open\include/mbedtls/cipher.h ****  * \return              The cipher information structure associated with the
 368:.\Source\mbedtls_open\include/mbedtls/cipher.h ****  *                      given \p cipher_id.
 369:.\Source\mbedtls_open\include/mbedtls/cipher.h ****  * \return              NULL if the associated cipher information is not found.
 370:.\Source\mbedtls_open\include/mbedtls/cipher.h ****  */
 371:.\Source\mbedtls_open\include/mbedtls/cipher.h **** const mbedtls_cipher_info_t *mbedtls_cipher_info_from_values( const mbedtls_cipher_id_t cipher_id,
 372:.\Source\mbedtls_open\include/mbedtls/cipher.h ****                                               int key_bitlen,
 373:.\Source\mbedtls_open\include/mbedtls/cipher.h ****                                               const mbedtls_cipher_mode_t mode );
 374:.\Source\mbedtls_open\include/mbedtls/cipher.h **** 
 375:.\Source\mbedtls_open\include/mbedtls/cipher.h **** /**
 376:.\Source\mbedtls_open\include/mbedtls/cipher.h ****  * \brief               This function initializes a \p cipher_context as NONE.
 377:.\Source\mbedtls_open\include/mbedtls/cipher.h ****  */
 378:.\Source\mbedtls_open\include/mbedtls/cipher.h **** void mbedtls_cipher_init( mbedtls_cipher_context_t *ctx );
 379:.\Source\mbedtls_open\include/mbedtls/cipher.h **** 
 380:.\Source\mbedtls_open\include/mbedtls/cipher.h **** /**
 381:.\Source\mbedtls_open\include/mbedtls/cipher.h ****  * \brief               This function frees and clears the cipher-specific
 382:.\Source\mbedtls_open\include/mbedtls/cipher.h ****  *                      context of \p ctx. Freeing \p ctx itself remains the
 383:.\Source\mbedtls_open\include/mbedtls/cipher.h ****  *                      responsibility of the caller.
 384:.\Source\mbedtls_open\include/mbedtls/cipher.h ****  */
 385:.\Source\mbedtls_open\include/mbedtls/cipher.h **** void mbedtls_cipher_free( mbedtls_cipher_context_t *ctx );
 386:.\Source\mbedtls_open\include/mbedtls/cipher.h **** 
 387:.\Source\mbedtls_open\include/mbedtls/cipher.h **** 
 388:.\Source\mbedtls_open\include/mbedtls/cipher.h **** /**
ARM GAS  C:\Users\Phuong\AppData\Local\Temp\ccnzvfGe.s 			page 49


 389:.\Source\mbedtls_open\include/mbedtls/cipher.h ****  * \brief               This function initializes and fills the cipher-context
 390:.\Source\mbedtls_open\include/mbedtls/cipher.h ****  *                      structure with the appropriate values. It also clears
 391:.\Source\mbedtls_open\include/mbedtls/cipher.h ****  *                      the structure.
 392:.\Source\mbedtls_open\include/mbedtls/cipher.h ****  *
 393:.\Source\mbedtls_open\include/mbedtls/cipher.h ****  * \param ctx           The context to initialize. May not be NULL.
 394:.\Source\mbedtls_open\include/mbedtls/cipher.h ****  * \param cipher_info   The cipher to use.
 395:.\Source\mbedtls_open\include/mbedtls/cipher.h ****  *
 396:.\Source\mbedtls_open\include/mbedtls/cipher.h ****  * \return              \c 0 on success.
 397:.\Source\mbedtls_open\include/mbedtls/cipher.h ****  * \return              #MBEDTLS_ERR_CIPHER_BAD_INPUT_DATA on
 398:.\Source\mbedtls_open\include/mbedtls/cipher.h ****  *                      parameter-verification failure.
 399:.\Source\mbedtls_open\include/mbedtls/cipher.h ****  * \return              #MBEDTLS_ERR_CIPHER_ALLOC_FAILED if allocation of the
 400:.\Source\mbedtls_open\include/mbedtls/cipher.h ****  *                      cipher-specific context fails.
 401:.\Source\mbedtls_open\include/mbedtls/cipher.h ****  *
 402:.\Source\mbedtls_open\include/mbedtls/cipher.h ****  * \internal Currently, the function also clears the structure.
 403:.\Source\mbedtls_open\include/mbedtls/cipher.h ****  * In future versions, the caller will be required to call
 404:.\Source\mbedtls_open\include/mbedtls/cipher.h ****  * mbedtls_cipher_init() on the structure first.
 405:.\Source\mbedtls_open\include/mbedtls/cipher.h ****  */
 406:.\Source\mbedtls_open\include/mbedtls/cipher.h **** int mbedtls_cipher_setup( mbedtls_cipher_context_t *ctx, const mbedtls_cipher_info_t *cipher_info )
 407:.\Source\mbedtls_open\include/mbedtls/cipher.h **** 
 408:.\Source\mbedtls_open\include/mbedtls/cipher.h **** /**
 409:.\Source\mbedtls_open\include/mbedtls/cipher.h ****  * \brief        This function returns the block size of the given cipher.
 410:.\Source\mbedtls_open\include/mbedtls/cipher.h ****  *
 411:.\Source\mbedtls_open\include/mbedtls/cipher.h ****  * \param ctx    The context of the cipher. Must be initialized.
 412:.\Source\mbedtls_open\include/mbedtls/cipher.h ****  *
 413:.\Source\mbedtls_open\include/mbedtls/cipher.h ****  * \return       The size of the blocks of the cipher.
 414:.\Source\mbedtls_open\include/mbedtls/cipher.h ****  * \return       0 if \p ctx has not been initialized.
 415:.\Source\mbedtls_open\include/mbedtls/cipher.h ****  */
 416:.\Source\mbedtls_open\include/mbedtls/cipher.h **** static inline unsigned int mbedtls_cipher_get_block_size( const mbedtls_cipher_context_t *ctx )
 417:.\Source\mbedtls_open\include/mbedtls/cipher.h **** {
 418:.\Source\mbedtls_open\include/mbedtls/cipher.h ****     if( NULL == ctx || NULL == ctx->cipher_info )
 1470              		.loc 2 418 0
 1471 002c 0028     		cmp	r0, #0
 1472 002e 05D0     		beq	.L150
 1473 0030 0368     		ldr	r3, [r0]
 1474 0032 002B     		cmp	r3, #0
 1475 0034 05D0     		beq	.L151
 419:.\Source\mbedtls_open\include/mbedtls/cipher.h ****         return 0;
 420:.\Source\mbedtls_open\include/mbedtls/cipher.h **** 
 421:.\Source\mbedtls_open\include/mbedtls/cipher.h ****     return ctx->cipher_info->block_size;
 1476              		.loc 2 421 0
 1477 0036 5B69     		ldr	r3, [r3, #20]
 1478 0038 9A46     		mov	r10, r3
 1479 003a 04E0     		b	.L131
 1480              	.L150:
 419:.\Source\mbedtls_open\include/mbedtls/cipher.h ****         return 0;
 1481              		.loc 2 419 0
 1482 003c 0023     		movs	r3, #0
 1483 003e 9A46     		mov	r10, r3
 1484 0040 01E0     		b	.L131
 1485              	.L151:
 1486 0042 0023     		movs	r3, #0
 1487 0044 9A46     		mov	r10, r3
 1488              	.L131:
 1489              	.LVL200:
 1490              	.LBE18:
 1491              	.LBE17:
 348:Source\mbedtls_open\library/cipher.c ****     {
ARM GAS  C:\Users\Phuong\AppData\Local\Temp\ccnzvfGe.s 			page 50


 1492              		.loc 1 348 0
 1493 0046 2368     		ldr	r3, [r4]
 1494 0048 9B46     		mov	fp, r3
 1495 004a 5D78     		ldrb	r5, [r3, #1]
 1496 004c 012D     		cmp	r5, #1
 1497 004e 0DD1     		bne	.L132
 350:Source\mbedtls_open\library/cipher.c ****             return( MBEDTLS_ERR_CIPHER_FULL_BLOCK_EXPECTED );
 1498              		.loc 1 350 0
 1499 0050 5645     		cmp	r6, r10
 1500 0052 00D0     		beq	.LCB1600
 1501 0054 16E1     		b	.L152	@long jump
 1502              	.LCB1600:
 353:Source\mbedtls_open\library/cipher.c **** 
 1503              		.loc 1 353 0
 1504 0056 3E60     		str	r6, [r7]
 355:Source\mbedtls_open\library/cipher.c ****                     ctx->operation, input, output ) ) )
 1505              		.loc 1 355 0
 1506 0058 2368     		ldr	r3, [r4]
 1507 005a 9B69     		ldr	r3, [r3, #24]
 1508 005c 5D68     		ldr	r5, [r3, #4]
 1509 005e E06B     		ldr	r0, [r4, #60]
 1510              	.LVL201:
 1511 0060 0821     		movs	r1, #8
 1512              	.LVL202:
 1513 0062 6156     		ldrsb	r1, [r4, r1]
 1514 0064 059B     		ldr	r3, [sp, #20]
 1515 0066 049A     		ldr	r2, [sp, #16]
 1516              	.LVL203:
 1517 0068 A847     		blx	r5
 1518              	.LVL204:
 1519 006a 18E1     		b	.L130
 1520              	.LVL205:
 1521              	.L132:
 365:Source\mbedtls_open\library/cipher.c ****     {
 1522              		.loc 1 365 0
 1523 006c 062D     		cmp	r5, #6
 1524 006e 07D1     		bne	.L133
 367:Source\mbedtls_open\library/cipher.c ****         return mbedtls_gcm_update( (mbedtls_gcm_context *) ctx->cipher_ctx, ilen, input,
 1525              		.loc 1 367 0
 1526 0070 3E60     		str	r6, [r7]
 368:Source\mbedtls_open\library/cipher.c ****                            output );
 1527              		.loc 1 368 0
 1528 0072 E06B     		ldr	r0, [r4, #60]
 1529              	.LVL206:
 1530 0074 059B     		ldr	r3, [sp, #20]
 1531 0076 049A     		ldr	r2, [sp, #16]
 1532              	.LVL207:
 1533 0078 3100     		movs	r1, r6
 1534              	.LVL208:
 1535 007a FFF7FEFF 		bl	mbedtls_gcm_update
 1536              	.LVL209:
 1537 007e 0EE1     		b	.L130
 1538              	.LVL210:
 1539              	.L133:
 374:Source\mbedtls_open\library/cipher.c ****     {
 1540              		.loc 1 374 0
 1541 0080 1B78     		ldrb	r3, [r3]
ARM GAS  C:\Users\Phuong\AppData\Local\Temp\ccnzvfGe.s 			page 51


 1542 0082 492B     		cmp	r3, #73
 1543 0084 07D1     		bne	.L134
 376:Source\mbedtls_open\library/cipher.c ****         return mbedtls_chachapoly_update( (mbedtls_chachapoly_context*) ctx->cipher_ctx,
 1544              		.loc 1 376 0
 1545 0086 3E60     		str	r6, [r7]
 377:Source\mbedtls_open\library/cipher.c ****                                                       ilen, input, output );
 1546              		.loc 1 377 0
 1547 0088 E06B     		ldr	r0, [r4, #60]
 1548              	.LVL211:
 1549 008a 059B     		ldr	r3, [sp, #20]
 1550 008c 049A     		ldr	r2, [sp, #16]
 1551              	.LVL212:
 1552 008e 3100     		movs	r1, r6
 1553              	.LVL213:
 1554 0090 FFF7FEFF 		bl	mbedtls_chachapoly_update
 1555              	.LVL214:
 1556 0094 03E1     		b	.L130
 1557              	.LVL215:
 1558              	.L134:
 382:Source\mbedtls_open\library/cipher.c ****     {
 1559              		.loc 1 382 0
 1560 0096 5346     		mov	r3, r10
 1561 0098 002B     		cmp	r3, #0
 1562 009a 00D1     		bne	.LCB1668
 1563 009c F4E0     		b	.L154	@long jump
 1564              	.LCB1668:
 387:Source\mbedtls_open\library/cipher.c ****        ( ctx->unprocessed_len != 0 || ilen % block_size ) )
 1565              		.loc 1 387 0
 1566 009e 049B     		ldr	r3, [sp, #16]
 1567 00a0 059A     		ldr	r2, [sp, #20]
 1568              	.LVL216:
 1569 00a2 9342     		cmp	r3, r2
 1570 00a4 0AD1     		bne	.L135
 387:Source\mbedtls_open\library/cipher.c ****        ( ctx->unprocessed_len != 0 || ilen % block_size ) )
 1571              		.loc 1 387 0 is_stmt 0 discriminator 1
 1572 00a6 636A     		ldr	r3, [r4, #36]
 1573 00a8 002B     		cmp	r3, #0
 1574 00aa 00D0     		beq	.LCB1677
 1575 00ac EEE0     		b	.L155	@long jump
 1576              	.LCB1677:
 388:Source\mbedtls_open\library/cipher.c ****     {
 1577              		.loc 1 388 0 is_stmt 1
 1578 00ae 5146     		mov	r1, r10
 1579              	.LVL217:
 1580 00b0 3000     		movs	r0, r6
 1581              	.LVL218:
 1582 00b2 FFF7FEFF 		bl	__aeabi_uidivmod
 1583              	.LVL219:
 1584 00b6 0029     		cmp	r1, #0
 1585 00b8 00D0     		beq	.LCB1685
 1586 00ba E9E0     		b	.L156	@long jump
 1587              	.LCB1685:
 1588              	.L135:
 394:Source\mbedtls_open\library/cipher.c ****     {
 1589              		.loc 1 394 0
 1590 00bc 022D     		cmp	r5, #2
 1591 00be 00D0     		beq	.LCB1690
ARM GAS  C:\Users\Phuong\AppData\Local\Temp\ccnzvfGe.s 			page 52


 1592 00c0 8CE0     		b	.L136	@long jump
 1593              	.LCB1690:
 1594              	.LVL220:
 1595              	.LBB19:
 401:Source\mbedtls_open\library/cipher.c ****                 ilen <= block_size - ctx->unprocessed_len ) ||
 1596              		.loc 1 401 0
 1597 00c2 0823     		movs	r3, #8
 1598 00c4 E356     		ldrsb	r3, [r4, r3]
 1599 00c6 002B     		cmp	r3, #0
 1600 00c8 07D1     		bne	.L137
 401:Source\mbedtls_open\library/cipher.c ****                 ilen <= block_size - ctx->unprocessed_len ) ||
 1601              		.loc 1 401 0 is_stmt 0 discriminator 1
 1602 00ca E268     		ldr	r2, [r4, #12]
 1603 00cc 002A     		cmp	r2, #0
 1604 00ce 04D0     		beq	.L137
 402:Source\mbedtls_open\library/cipher.c ****             ( ctx->operation == MBEDTLS_DECRYPT && NULL == ctx->add_padding &&
 1605              		.loc 1 402 0 is_stmt 1 discriminator 2
 1606 00d0 5246     		mov	r2, r10
 1607 00d2 616A     		ldr	r1, [r4, #36]
 1608 00d4 521A     		subs	r2, r2, r1
 401:Source\mbedtls_open\library/cipher.c ****                 ilen <= block_size - ctx->unprocessed_len ) ||
 1609              		.loc 1 401 0 discriminator 2
 1610 00d6 9642     		cmp	r6, r2
 1611 00d8 10D9     		bls	.L138
 1612              	.L137:
 402:Source\mbedtls_open\library/cipher.c ****             ( ctx->operation == MBEDTLS_DECRYPT && NULL == ctx->add_padding &&
 1613              		.loc 1 402 0
 1614 00da 002B     		cmp	r3, #0
 1615 00dc 07D1     		bne	.L139
 403:Source\mbedtls_open\library/cipher.c ****                 ilen < block_size - ctx->unprocessed_len ) ||
 1616              		.loc 1 403 0
 1617 00de E268     		ldr	r2, [r4, #12]
 1618 00e0 002A     		cmp	r2, #0
 1619 00e2 04D1     		bne	.L139
 404:Source\mbedtls_open\library/cipher.c ****              ( ctx->operation == MBEDTLS_ENCRYPT &&
 1620              		.loc 1 404 0 discriminator 1
 1621 00e4 5246     		mov	r2, r10
 1622 00e6 616A     		ldr	r1, [r4, #36]
 1623 00e8 521A     		subs	r2, r2, r1
 403:Source\mbedtls_open\library/cipher.c ****                 ilen < block_size - ctx->unprocessed_len ) ||
 1624              		.loc 1 403 0 discriminator 1
 1625 00ea 9642     		cmp	r6, r2
 1626 00ec 06D3     		bcc	.L138
 1627              	.L139:
 404:Source\mbedtls_open\library/cipher.c ****              ( ctx->operation == MBEDTLS_ENCRYPT &&
 1628              		.loc 1 404 0
 1629 00ee 012B     		cmp	r3, #1
 1630 00f0 11D1     		bne	.L140
 406:Source\mbedtls_open\library/cipher.c ****         {
 1631              		.loc 1 406 0
 1632 00f2 5346     		mov	r3, r10
 1633 00f4 626A     		ldr	r2, [r4, #36]
 1634 00f6 9B1A     		subs	r3, r3, r2
 405:Source\mbedtls_open\library/cipher.c ****                 ilen < block_size - ctx->unprocessed_len ) )
 1635              		.loc 1 405 0
 1636 00f8 9E42     		cmp	r6, r3
 1637 00fa 0CD2     		bcs	.L140
ARM GAS  C:\Users\Phuong\AppData\Local\Temp\ccnzvfGe.s 			page 53


 1638              	.L138:
 408:Source\mbedtls_open\library/cipher.c ****                     ilen );
 1639              		.loc 1 408 0
 1640 00fc 606A     		ldr	r0, [r4, #36]
 1641 00fe 1030     		adds	r0, r0, #16
 1642 0100 2018     		adds	r0, r4, r0
 1643 0102 0430     		adds	r0, r0, #4
 1644 0104 3200     		movs	r2, r6
 1645 0106 0499     		ldr	r1, [sp, #16]
 1646 0108 FFF7FEFF 		bl	memcpy
 1647              	.LVL221:
 411:Source\mbedtls_open\library/cipher.c ****             return( 0 );
 1648              		.loc 1 411 0
 1649 010c 636A     		ldr	r3, [r4, #36]
 1650 010e 9B19     		adds	r3, r3, r6
 1651 0110 6362     		str	r3, [r4, #36]
 412:Source\mbedtls_open\library/cipher.c ****         }
 1652              		.loc 1 412 0
 1653 0112 0020     		movs	r0, #0
 1654 0114 C3E0     		b	.L130
 1655              	.L140:
 418:Source\mbedtls_open\library/cipher.c ****         {
 1656              		.loc 1 418 0
 1657 0116 636A     		ldr	r3, [r4, #36]
 1658 0118 002B     		cmp	r3, #0
 1659 011a 29D0     		beq	.L141
 420:Source\mbedtls_open\library/cipher.c **** 
 1660              		.loc 1 420 0
 1661 011c 5246     		mov	r2, r10
 1662 011e D51A     		subs	r5, r2, r3
 1663              	.LVL222:
 422:Source\mbedtls_open\library/cipher.c ****                     copy_len );
 1664              		.loc 1 422 0
 1665 0120 1033     		adds	r3, r3, #16
 1666 0122 E318     		adds	r3, r4, r3
 1667 0124 181D     		adds	r0, r3, #4
 1668 0126 2A00     		movs	r2, r5
 1669 0128 0499     		ldr	r1, [sp, #16]
 1670 012a FFF7FEFF 		bl	memcpy
 1671              	.LVL223:
 425:Source\mbedtls_open\library/cipher.c ****                     ctx->operation, block_size, ctx->iv,
 1672              		.loc 1 425 0
 1673 012e 2368     		ldr	r3, [r4]
 1674 0130 9B69     		ldr	r3, [r3, #24]
 1675 0132 9A68     		ldr	r2, [r3, #8]
 1676 0134 9346     		mov	fp, r2
 1677 0136 0821     		movs	r1, #8
 1678 0138 6156     		ldrsb	r1, [r4, r1]
 426:Source\mbedtls_open\library/cipher.c ****                     ctx->unprocessed_data, output ) ) )
 1679              		.loc 1 426 0
 1680 013a 2300     		movs	r3, r4
 1681 013c 2833     		adds	r3, r3, #40
 427:Source\mbedtls_open\library/cipher.c ****             {
 1682              		.loc 1 427 0
 1683 013e 2200     		movs	r2, r4
 1684 0140 1432     		adds	r2, r2, #20
 425:Source\mbedtls_open\library/cipher.c ****                     ctx->operation, block_size, ctx->iv,
ARM GAS  C:\Users\Phuong\AppData\Local\Temp\ccnzvfGe.s 			page 54


 1685              		.loc 1 425 0
 1686 0142 0598     		ldr	r0, [sp, #20]
 1687 0144 0190     		str	r0, [sp, #4]
 1688 0146 0092     		str	r2, [sp]
 1689 0148 5246     		mov	r2, r10
 1690 014a E06B     		ldr	r0, [r4, #60]
 1691 014c D847     		blx	fp
 1692              	.LVL224:
 1693 014e 0028     		cmp	r0, #0
 1694 0150 00D0     		beq	.LCB1787
 1695 0152 A4E0     		b	.L130	@long jump
 1696              	.LCB1787:
 432:Source\mbedtls_open\library/cipher.c ****             output += block_size;
 1697              		.loc 1 432 0
 1698 0154 3A68     		ldr	r2, [r7]
 1699 0156 5244     		add	r2, r2, r10
 1700 0158 3A60     		str	r2, [r7]
 433:Source\mbedtls_open\library/cipher.c ****             ctx->unprocessed_len = 0;
 1701              		.loc 1 433 0
 1702 015a 0598     		ldr	r0, [sp, #20]
 1703              	.LVL225:
 1704 015c 5044     		add	r0, r0, r10
 1705 015e 0590     		str	r0, [sp, #20]
 1706              	.LVL226:
 434:Source\mbedtls_open\library/cipher.c **** 
 1707              		.loc 1 434 0
 1708 0160 0023     		movs	r3, #0
 1709 0162 6362     		str	r3, [r4, #36]
 436:Source\mbedtls_open\library/cipher.c ****             ilen -= copy_len;
 1710              		.loc 1 436 0
 1711 0164 049B     		ldr	r3, [sp, #16]
 1712 0166 9C46     		mov	ip, r3
 1713 0168 AC44     		add	ip, ip, r5
 1714 016a 6346     		mov	r3, ip
 1715 016c 0493     		str	r3, [sp, #16]
 1716              	.LVL227:
 437:Source\mbedtls_open\library/cipher.c ****         }
 1717              		.loc 1 437 0
 1718 016e 761B     		subs	r6, r6, r5
 1719              	.LVL228:
 1720              	.L141:
 443:Source\mbedtls_open\library/cipher.c ****         {
 1721              		.loc 1 443 0
 1722 0170 002E     		cmp	r6, #0
 1723 0172 1DD0     		beq	.L142
 445:Source\mbedtls_open\library/cipher.c ****             {
 1724              		.loc 1 445 0
 1725 0174 5346     		mov	r3, r10
 1726 0176 002B     		cmp	r3, #0
 1727 0178 00D1     		bne	.LCB1825
 1728 017a 8BE0     		b	.L158	@long jump
 1729              	.LCB1825:
 454:Source\mbedtls_open\library/cipher.c ****             if( copy_len == 0 &&
 1730              		.loc 1 454 0
 1731 017c 5146     		mov	r1, r10
 1732 017e 3000     		movs	r0, r6
 1733 0180 FFF7FEFF 		bl	__aeabi_uidivmod
ARM GAS  C:\Users\Phuong\AppData\Local\Temp\ccnzvfGe.s 			page 55


 1734              	.LVL229:
 1735 0184 0D1E     		subs	r5, r1, #0
 1736              	.LVL230:
 455:Source\mbedtls_open\library/cipher.c ****                 ctx->operation == MBEDTLS_DECRYPT &&
 1737              		.loc 1 455 0
 1738 0186 07D1     		bne	.L143
 456:Source\mbedtls_open\library/cipher.c ****                 NULL != ctx->add_padding)
 1739              		.loc 1 456 0 discriminator 1
 1740 0188 0823     		movs	r3, #8
 1741 018a E356     		ldrsb	r3, [r4, r3]
 455:Source\mbedtls_open\library/cipher.c ****                 ctx->operation == MBEDTLS_DECRYPT &&
 1742              		.loc 1 455 0 discriminator 1
 1743 018c 002B     		cmp	r3, #0
 1744 018e 03D1     		bne	.L143
 456:Source\mbedtls_open\library/cipher.c ****                 NULL != ctx->add_padding)
 1745              		.loc 1 456 0
 1746 0190 E368     		ldr	r3, [r4, #12]
 1747 0192 002B     		cmp	r3, #0
 1748 0194 00D0     		beq	.L143
 459:Source\mbedtls_open\library/cipher.c ****             }
 1749              		.loc 1 459 0
 1750 0196 5546     		mov	r5, r10
 1751              	.L143:
 1752              	.LVL231:
 462:Source\mbedtls_open\library/cipher.c ****                     copy_len );
 1753              		.loc 1 462 0
 1754 0198 2000     		movs	r0, r4
 1755 019a 1430     		adds	r0, r0, #20
 1756 019c 761B     		subs	r6, r6, r5
 1757              	.LVL232:
 1758 019e 049B     		ldr	r3, [sp, #16]
 1759 01a0 9919     		adds	r1, r3, r6
 1760 01a2 2A00     		movs	r2, r5
 1761 01a4 FFF7FEFF 		bl	memcpy
 1762              	.LVL233:
 465:Source\mbedtls_open\library/cipher.c ****             ilen -= copy_len;
 1763              		.loc 1 465 0
 1764 01a8 636A     		ldr	r3, [r4, #36]
 1765 01aa 9C46     		mov	ip, r3
 1766 01ac 6544     		add	r5, r5, ip
 1767              	.LVL234:
 1768 01ae 6562     		str	r5, [r4, #36]
 1769              	.LVL235:
 1770              	.L142:
 472:Source\mbedtls_open\library/cipher.c ****         {
 1771              		.loc 1 472 0
 1772 01b0 002E     		cmp	r6, #0
 1773 01b2 71D0     		beq	.L160
 474:Source\mbedtls_open\library/cipher.c ****                     ctx->operation, ilen, ctx->iv, input, output ) ) )
 1774              		.loc 1 474 0
 1775 01b4 2368     		ldr	r3, [r4]
 1776 01b6 9B69     		ldr	r3, [r3, #24]
 1777 01b8 9D68     		ldr	r5, [r3, #8]
 1778 01ba E06B     		ldr	r0, [r4, #60]
 1779 01bc 0821     		movs	r1, #8
 1780 01be 6156     		ldrsb	r1, [r4, r1]
 475:Source\mbedtls_open\library/cipher.c ****             {
ARM GAS  C:\Users\Phuong\AppData\Local\Temp\ccnzvfGe.s 			page 56


 1781              		.loc 1 475 0
 1782 01c0 2300     		movs	r3, r4
 1783 01c2 2833     		adds	r3, r3, #40
 474:Source\mbedtls_open\library/cipher.c ****                     ctx->operation, ilen, ctx->iv, input, output ) ) )
 1784              		.loc 1 474 0
 1785 01c4 059A     		ldr	r2, [sp, #20]
 1786 01c6 0192     		str	r2, [sp, #4]
 1787 01c8 049A     		ldr	r2, [sp, #16]
 1788 01ca 0092     		str	r2, [sp]
 1789 01cc 3200     		movs	r2, r6
 1790 01ce A847     		blx	r5
 1791              	.LVL236:
 1792 01d0 0028     		cmp	r0, #0
 1793 01d2 64D1     		bne	.L130
 480:Source\mbedtls_open\library/cipher.c ****         }
 1794              		.loc 1 480 0
 1795 01d4 3B68     		ldr	r3, [r7]
 1796 01d6 9B19     		adds	r3, r3, r6
 1797 01d8 3B60     		str	r3, [r7]
 1798 01da 60E0     		b	.L130
 1799              	.LVL237:
 1800              	.L136:
 1801              	.LBE19:
 488:Source\mbedtls_open\library/cipher.c ****     {
 1802              		.loc 1 488 0
 1803 01dc 032D     		cmp	r5, #3
 1804 01de 13D1     		bne	.L144
 490:Source\mbedtls_open\library/cipher.c ****                 ctx->operation, ilen, &ctx->unprocessed_len, ctx->iv,
 1805              		.loc 1 490 0
 1806 01e0 5B46     		mov	r3, fp
 1807 01e2 9B69     		ldr	r3, [r3, #24]
 1808 01e4 DD68     		ldr	r5, [r3, #12]
 1809 01e6 E06B     		ldr	r0, [r4, #60]
 1810 01e8 0821     		movs	r1, #8
 1811 01ea 6156     		ldrsb	r1, [r4, r1]
 1812 01ec 2300     		movs	r3, r4
 1813 01ee 2433     		adds	r3, r3, #36
 491:Source\mbedtls_open\library/cipher.c ****                 input, output ) ) )
 1814              		.loc 1 491 0
 1815 01f0 2834     		adds	r4, r4, #40
 1816              	.LVL238:
 490:Source\mbedtls_open\library/cipher.c ****                 ctx->operation, ilen, &ctx->unprocessed_len, ctx->iv,
 1817              		.loc 1 490 0
 1818 01f2 059A     		ldr	r2, [sp, #20]
 1819 01f4 0292     		str	r2, [sp, #8]
 1820 01f6 049A     		ldr	r2, [sp, #16]
 1821 01f8 0192     		str	r2, [sp, #4]
 1822 01fa 0094     		str	r4, [sp]
 1823 01fc 3200     		movs	r2, r6
 1824 01fe A847     		blx	r5
 1825              	.LVL239:
 1826 0200 0028     		cmp	r0, #0
 1827 0202 4CD1     		bne	.L130
 497:Source\mbedtls_open\library/cipher.c **** 
 1828              		.loc 1 497 0
 1829 0204 3E60     		str	r6, [r7]
 499:Source\mbedtls_open\library/cipher.c ****     }
ARM GAS  C:\Users\Phuong\AppData\Local\Temp\ccnzvfGe.s 			page 57


 1830              		.loc 1 499 0
 1831 0206 4AE0     		b	.L130
 1832              	.LVL240:
 1833              	.L144:
 504:Source\mbedtls_open\library/cipher.c ****     {
 1834              		.loc 1 504 0
 1835 0208 042D     		cmp	r5, #4
 1836 020a 11D1     		bne	.L145
 506:Source\mbedtls_open\library/cipher.c ****                 ilen, &ctx->unprocessed_len, ctx->iv, input, output ) ) )
 1837              		.loc 1 506 0
 1838 020c 5B46     		mov	r3, fp
 1839 020e 9B69     		ldr	r3, [r3, #24]
 1840 0210 1D69     		ldr	r5, [r3, #16]
 1841 0212 E06B     		ldr	r0, [r4, #60]
 1842 0214 2200     		movs	r2, r4
 1843 0216 2432     		adds	r2, r2, #36
 507:Source\mbedtls_open\library/cipher.c ****         {
 1844              		.loc 1 507 0
 1845 0218 2300     		movs	r3, r4
 1846 021a 2833     		adds	r3, r3, #40
 506:Source\mbedtls_open\library/cipher.c ****                 ilen, &ctx->unprocessed_len, ctx->iv, input, output ) ) )
 1847              		.loc 1 506 0
 1848 021c 0599     		ldr	r1, [sp, #20]
 1849 021e 0191     		str	r1, [sp, #4]
 1850 0220 0499     		ldr	r1, [sp, #16]
 1851 0222 0091     		str	r1, [sp]
 1852 0224 3100     		movs	r1, r6
 1853 0226 A847     		blx	r5
 1854              	.LVL241:
 1855 0228 0028     		cmp	r0, #0
 1856 022a 38D1     		bne	.L130
 512:Source\mbedtls_open\library/cipher.c **** 
 1857              		.loc 1 512 0
 1858 022c 3E60     		str	r6, [r7]
 514:Source\mbedtls_open\library/cipher.c ****     }
 1859              		.loc 1 514 0
 1860 022e 36E0     		b	.L130
 1861              	.LVL242:
 1862              	.L145:
 519:Source\mbedtls_open\library/cipher.c ****     {
 1863              		.loc 1 519 0
 1864 0230 052D     		cmp	r5, #5
 1865 0232 13D1     		bne	.L146
 521:Source\mbedtls_open\library/cipher.c ****                 ilen, &ctx->unprocessed_len, ctx->iv,
 1866              		.loc 1 521 0
 1867 0234 5B46     		mov	r3, fp
 1868 0236 9B69     		ldr	r3, [r3, #24]
 1869 0238 5D69     		ldr	r5, [r3, #20]
 1870 023a E06B     		ldr	r0, [r4, #60]
 1871 023c 2200     		movs	r2, r4
 1872 023e 2432     		adds	r2, r2, #36
 522:Source\mbedtls_open\library/cipher.c ****                 ctx->unprocessed_data, input, output ) ) )
 1873              		.loc 1 522 0
 1874 0240 2300     		movs	r3, r4
 1875 0242 2833     		adds	r3, r3, #40
 523:Source\mbedtls_open\library/cipher.c ****         {
 1876              		.loc 1 523 0
ARM GAS  C:\Users\Phuong\AppData\Local\Temp\ccnzvfGe.s 			page 58


 1877 0244 1434     		adds	r4, r4, #20
 1878              	.LVL243:
 521:Source\mbedtls_open\library/cipher.c ****                 ilen, &ctx->unprocessed_len, ctx->iv,
 1879              		.loc 1 521 0
 1880 0246 0599     		ldr	r1, [sp, #20]
 1881 0248 0291     		str	r1, [sp, #8]
 1882 024a 0499     		ldr	r1, [sp, #16]
 1883 024c 0191     		str	r1, [sp, #4]
 1884 024e 0094     		str	r4, [sp]
 1885 0250 3100     		movs	r1, r6
 1886 0252 A847     		blx	r5
 1887              	.LVL244:
 1888 0254 0028     		cmp	r0, #0
 1889 0256 22D1     		bne	.L130
 528:Source\mbedtls_open\library/cipher.c **** 
 1890              		.loc 1 528 0
 1891 0258 3E60     		str	r6, [r7]
 530:Source\mbedtls_open\library/cipher.c ****     }
 1892              		.loc 1 530 0
 1893 025a 20E0     		b	.L130
 1894              	.LVL245:
 1895              	.L146:
 556:Source\mbedtls_open\library/cipher.c ****     {
 1896              		.loc 1 556 0
 1897 025c 072D     		cmp	r5, #7
 1898 025e 1DD1     		bne	.L165
 558:Source\mbedtls_open\library/cipher.c ****                                                     ilen, input, output ) ) )
 1899              		.loc 1 558 0
 1900 0260 5B46     		mov	r3, fp
 1901 0262 9B69     		ldr	r3, [r3, #24]
 1902 0264 9D69     		ldr	r5, [r3, #24]
 1903 0266 E06B     		ldr	r0, [r4, #60]
 1904 0268 059B     		ldr	r3, [sp, #20]
 1905 026a 049A     		ldr	r2, [sp, #16]
 1906 026c 3100     		movs	r1, r6
 1907 026e A847     		blx	r5
 1908              	.LVL246:
 1909 0270 0028     		cmp	r0, #0
 1910 0272 14D1     		bne	.L130
 564:Source\mbedtls_open\library/cipher.c **** 
 1911              		.loc 1 564 0
 1912 0274 3E60     		str	r6, [r7]
 566:Source\mbedtls_open\library/cipher.c ****     }
 1913              		.loc 1 566 0
 1914 0276 12E0     		b	.L130
 1915              	.LVL247:
 1916              	.L147:
 342:Source\mbedtls_open\library/cipher.c ****     }
 1917              		.loc 1 342 0
 1918 0278 0B48     		ldr	r0, .L167
 1919              	.LVL248:
 1920 027a 10E0     		b	.L130
 1921              	.LVL249:
 1922              	.L148:
 1923 027c 0A48     		ldr	r0, .L167
 1924              	.LVL250:
 1925 027e 0EE0     		b	.L130
ARM GAS  C:\Users\Phuong\AppData\Local\Temp\ccnzvfGe.s 			page 59


 1926              	.LVL251:
 1927              	.L149:
 1928 0280 0948     		ldr	r0, .L167
 1929              	.LVL252:
 1930 0282 0CE0     		b	.L130
 1931              	.LVL253:
 1932              	.L152:
 351:Source\mbedtls_open\library/cipher.c **** 
 1933              		.loc 1 351 0
 1934 0284 0948     		ldr	r0, .L167+4
 1935              	.LVL254:
 1936 0286 0AE0     		b	.L130
 1937              	.LVL255:
 1938              	.L154:
 384:Source\mbedtls_open\library/cipher.c ****     }
 1939              		.loc 1 384 0
 1940 0288 0948     		ldr	r0, .L167+8
 1941              	.LVL256:
 1942 028a 08E0     		b	.L130
 1943              	.LVL257:
 1944              	.L155:
 390:Source\mbedtls_open\library/cipher.c ****     }
 1945              		.loc 1 390 0
 1946 028c 0648     		ldr	r0, .L167
 1947              	.LVL258:
 1948 028e 06E0     		b	.L130
 1949              	.LVL259:
 1950              	.L156:
 1951 0290 0548     		ldr	r0, .L167
 1952 0292 04E0     		b	.L130
 1953              	.L158:
 1954              	.LBB20:
 447:Source\mbedtls_open\library/cipher.c ****             }
 1955              		.loc 1 447 0
 1956 0294 0648     		ldr	r0, .L167+8
 1957 0296 02E0     		b	.L130
 1958              	.L160:
 483:Source\mbedtls_open\library/cipher.c ****     }
 1959              		.loc 1 483 0
 1960 0298 0020     		movs	r0, #0
 1961 029a 00E0     		b	.L130
 1962              	.L165:
 1963              	.LBE20:
 570:Source\mbedtls_open\library/cipher.c **** }
 1964              		.loc 1 570 0
 1965 029c 0548     		ldr	r0, .L167+12
 1966              	.LVL260:
 1967              	.L130:
 571:Source\mbedtls_open\library/cipher.c **** 
 1968              		.loc 1 571 0
 1969 029e 07B0     		add	sp, sp, #28
 1970              		@ sp needed
 1971              	.LVL261:
 1972 02a0 0CBC     		pop	{r2, r3}
 1973 02a2 9246     		mov	r10, r2
 1974 02a4 9B46     		mov	fp, r3
 1975 02a6 F0BD     		pop	{r4, r5, r6, r7, pc}
ARM GAS  C:\Users\Phuong\AppData\Local\Temp\ccnzvfGe.s 			page 60


 1976              	.L168:
 1977              		.align	2
 1978              	.L167:
 1979 02a8 009FFFFF 		.word	-24832
 1980 02ac 809DFFFF 		.word	-25216
 1981 02b0 809CFFFF 		.word	-25472
 1982 02b4 809FFFFF 		.word	-24704
 1983              		.cfi_endproc
 1984              	.LFE20:
 1985              		.size	mbedtls_cipher_update, .-mbedtls_cipher_update
 1986              		.section	.text.mbedtls_cipher_finish,"ax",%progbits
 1987              		.align	2
 1988              		.global	mbedtls_cipher_finish
 1989              		.code	16
 1990              		.thumb_func
 1991              		.type	mbedtls_cipher_finish, %function
 1992              	mbedtls_cipher_finish:
 1993              	.LFB30:
 743:Source\mbedtls_open\library/cipher.c **** #endif /* MBEDTLS_CIPHER_MODE_WITH_PADDING */
 744:Source\mbedtls_open\library/cipher.c **** 
 745:Source\mbedtls_open\library/cipher.c **** int mbedtls_cipher_finish( mbedtls_cipher_context_t *ctx,
 746:Source\mbedtls_open\library/cipher.c ****                    unsigned char *output, size_t *olen )
 747:Source\mbedtls_open\library/cipher.c **** {
 1994              		.loc 1 747 0
 1995              		.cfi_startproc
 1996              		@ args = 0, pretend = 0, frame = 0
 1997              		@ frame_needed = 0, uses_anonymous_args = 0
 1998              	.LVL262:
 1999 0000 F0B5     		push	{r4, r5, r6, r7, lr}
 2000              		.cfi_def_cfa_offset 20
 2001              		.cfi_offset 4, -20
 2002              		.cfi_offset 5, -16
 2003              		.cfi_offset 6, -12
 2004              		.cfi_offset 7, -8
 2005              		.cfi_offset 14, -4
 2006 0002 83B0     		sub	sp, sp, #12
 2007              		.cfi_def_cfa_offset 32
 2008 0004 0400     		movs	r4, r0
 2009 0006 0D00     		movs	r5, r1
 2010 0008 1600     		movs	r6, r2
 748:Source\mbedtls_open\library/cipher.c ****     if( NULL == ctx || NULL == ctx->cipher_info || NULL == olen )
 2011              		.loc 1 748 0
 2012 000a 0028     		cmp	r0, #0
 2013 000c 00D1     		bne	.LCB2144
 2014 000e 8FE0     		b	.L182	@long jump
 2015              	.LCB2144:
 2016              		.loc 1 748 0 is_stmt 0 discriminator 1
 2017 0010 0368     		ldr	r3, [r0]
 2018 0012 002B     		cmp	r3, #0
 2019 0014 00D1     		bne	.LCB2148
 2020 0016 8DE0     		b	.L183	@long jump
 2021              	.LCB2148:
 2022              		.loc 1 748 0 discriminator 2
 2023 0018 002A     		cmp	r2, #0
 2024 001a 00D1     		bne	.LCB2150
 2025 001c 8CE0     		b	.L184	@long jump
 2026              	.LCB2150:
ARM GAS  C:\Users\Phuong\AppData\Local\Temp\ccnzvfGe.s 			page 61


 749:Source\mbedtls_open\library/cipher.c ****         return( MBEDTLS_ERR_CIPHER_BAD_INPUT_DATA );
 750:Source\mbedtls_open\library/cipher.c **** 
 751:Source\mbedtls_open\library/cipher.c ****     *olen = 0;
 2027              		.loc 1 751 0 is_stmt 1
 2028 001e 0023     		movs	r3, #0
 2029 0020 1360     		str	r3, [r2]
 752:Source\mbedtls_open\library/cipher.c **** 
 753:Source\mbedtls_open\library/cipher.c ****     if( MBEDTLS_MODE_CFB == ctx->cipher_info->mode ||
 2030              		.loc 1 753 0
 2031 0022 0768     		ldr	r7, [r0]
 2032 0024 7A78     		ldrb	r2, [r7, #1]
 2033              	.LVL263:
 754:Source\mbedtls_open\library/cipher.c ****         MBEDTLS_MODE_OFB == ctx->cipher_info->mode ||
 755:Source\mbedtls_open\library/cipher.c ****         MBEDTLS_MODE_CTR == ctx->cipher_info->mode ||
 2034              		.loc 1 755 0
 2035 0026 D31E     		subs	r3, r2, #3
 2036 0028 DBB2     		uxtb	r3, r3
 753:Source\mbedtls_open\library/cipher.c ****         MBEDTLS_MODE_OFB == ctx->cipher_info->mode ||
 2037              		.loc 1 753 0
 2038 002a 032B     		cmp	r3, #3
 2039 002c 00D8     		bhi	.LCB2159
 2040 002e 85E0     		b	.L185	@long jump
 2041              	.LCB2159:
 756:Source\mbedtls_open\library/cipher.c ****         MBEDTLS_MODE_GCM == ctx->cipher_info->mode ||
 2042              		.loc 1 756 0
 2043 0030 092A     		cmp	r2, #9
 2044 0032 00D1     		bne	.LCB2161
 2045 0034 84E0     		b	.L186	@long jump
 2046              	.LCB2161:
 757:Source\mbedtls_open\library/cipher.c ****         MBEDTLS_MODE_XTS == ctx->cipher_info->mode ||
 2047              		.loc 1 757 0
 2048 0036 072A     		cmp	r2, #7
 2049 0038 00D1     		bne	.LCB2163
 2050 003a 83E0     		b	.L187	@long jump
 2051              	.LCB2163:
 758:Source\mbedtls_open\library/cipher.c ****         MBEDTLS_MODE_STREAM == ctx->cipher_info->mode )
 759:Source\mbedtls_open\library/cipher.c ****     {
 760:Source\mbedtls_open\library/cipher.c ****         return( 0 );
 761:Source\mbedtls_open\library/cipher.c ****     }
 762:Source\mbedtls_open\library/cipher.c **** 
 763:Source\mbedtls_open\library/cipher.c ****     if ( ( MBEDTLS_CIPHER_CHACHA20          == ctx->cipher_info->type ) ||
 2052              		.loc 1 763 0
 2053 003c 3B78     		ldrb	r3, [r7]
 2054 003e 483B     		subs	r3, r3, #72
 2055 0040 DBB2     		uxtb	r3, r3
 2056 0042 012B     		cmp	r3, #1
 2057 0044 00D8     		bhi	.LCB2168
 2058 0046 7FE0     		b	.L188	@long jump
 2059              	.LCB2168:
 764:Source\mbedtls_open\library/cipher.c ****          ( MBEDTLS_CIPHER_CHACHA20_POLY1305 == ctx->cipher_info->type ) )
 765:Source\mbedtls_open\library/cipher.c ****     {
 766:Source\mbedtls_open\library/cipher.c ****         return( 0 );
 767:Source\mbedtls_open\library/cipher.c ****     }
 768:Source\mbedtls_open\library/cipher.c **** 
 769:Source\mbedtls_open\library/cipher.c ****     if( MBEDTLS_MODE_ECB == ctx->cipher_info->mode )
 2060              		.loc 1 769 0
 2061 0048 012A     		cmp	r2, #1
ARM GAS  C:\Users\Phuong\AppData\Local\Temp\ccnzvfGe.s 			page 62


 2062 004a 04D1     		bne	.L171
 770:Source\mbedtls_open\library/cipher.c ****     {
 771:Source\mbedtls_open\library/cipher.c ****         if( ctx->unprocessed_len != 0 )
 2063              		.loc 1 771 0
 2064 004c 436A     		ldr	r3, [r0, #36]
 2065 004e 002B     		cmp	r3, #0
 2066 0050 7CD0     		beq	.L189
 772:Source\mbedtls_open\library/cipher.c ****             return( MBEDTLS_ERR_CIPHER_FULL_BLOCK_EXPECTED );
 2067              		.loc 1 772 0
 2068 0052 4448     		ldr	r0, .L205
 2069              	.LVL264:
 2070 0054 83E0     		b	.L170
 2071              	.LVL265:
 2072              	.L171:
 773:Source\mbedtls_open\library/cipher.c **** 
 774:Source\mbedtls_open\library/cipher.c ****         return( 0 );
 775:Source\mbedtls_open\library/cipher.c ****     }
 776:Source\mbedtls_open\library/cipher.c **** 
 777:Source\mbedtls_open\library/cipher.c **** #if defined(MBEDTLS_CIPHER_MODE_CBC)
 778:Source\mbedtls_open\library/cipher.c ****     if( MBEDTLS_MODE_CBC == ctx->cipher_info->mode )
 2073              		.loc 1 778 0
 2074 0056 022A     		cmp	r2, #2
 2075 0058 7AD1     		bne	.L190
 2076              	.LVL266:
 2077              	.LBB21:
 779:Source\mbedtls_open\library/cipher.c ****     {
 780:Source\mbedtls_open\library/cipher.c ****         int ret = 0;
 781:Source\mbedtls_open\library/cipher.c **** 
 782:Source\mbedtls_open\library/cipher.c ****         if( MBEDTLS_ENCRYPT == ctx->operation )
 2078              		.loc 1 782 0
 2079 005a 0823     		movs	r3, #8
 2080 005c C356     		ldrsb	r3, [r0, r3]
 2081 005e 012B     		cmp	r3, #1
 2082 0060 17D1     		bne	.L172
 783:Source\mbedtls_open\library/cipher.c ****         {
 784:Source\mbedtls_open\library/cipher.c ****             /* check for 'no padding' mode */
 785:Source\mbedtls_open\library/cipher.c ****             if( NULL == ctx->add_padding )
 2083              		.loc 1 785 0
 2084 0062 C368     		ldr	r3, [r0, #12]
 2085 0064 002B     		cmp	r3, #0
 2086 0066 04D1     		bne	.L173
 786:Source\mbedtls_open\library/cipher.c ****             {
 787:Source\mbedtls_open\library/cipher.c ****                 if( 0 != ctx->unprocessed_len )
 2087              		.loc 1 787 0
 2088 0068 436A     		ldr	r3, [r0, #36]
 2089 006a 002B     		cmp	r3, #0
 2090 006c 72D0     		beq	.L191
 788:Source\mbedtls_open\library/cipher.c ****                     return( MBEDTLS_ERR_CIPHER_FULL_BLOCK_EXPECTED );
 2091              		.loc 1 788 0
 2092 006e 3D48     		ldr	r0, .L205
 2093              	.LVL267:
 2094 0070 75E0     		b	.L170
 2095              	.LVL268:
 2096              	.L173:
 789:Source\mbedtls_open\library/cipher.c **** 
 790:Source\mbedtls_open\library/cipher.c ****                 return( 0 );
 791:Source\mbedtls_open\library/cipher.c ****             }
ARM GAS  C:\Users\Phuong\AppData\Local\Temp\ccnzvfGe.s 			page 63


 792:Source\mbedtls_open\library/cipher.c **** 
 793:Source\mbedtls_open\library/cipher.c ****             ctx->add_padding( ctx->unprocessed_data, mbedtls_cipher_get_iv_size( ctx ),
 2097              		.loc 1 793 0
 2098 0072 1430     		adds	r0, r0, #20
 2099              	.LVL269:
 2100              	.LBB22:
 2101              	.LBB23:
 422:.\Source\mbedtls_open\include/mbedtls/cipher.h **** }
 423:.\Source\mbedtls_open\include/mbedtls/cipher.h **** 
 424:.\Source\mbedtls_open\include/mbedtls/cipher.h **** /**
 425:.\Source\mbedtls_open\include/mbedtls/cipher.h ****  * \brief        This function returns the mode of operation for
 426:.\Source\mbedtls_open\include/mbedtls/cipher.h ****  *               the cipher. For example, MBEDTLS_MODE_CBC.
 427:.\Source\mbedtls_open\include/mbedtls/cipher.h ****  *
 428:.\Source\mbedtls_open\include/mbedtls/cipher.h ****  * \param ctx    The context of the cipher. Must be initialized.
 429:.\Source\mbedtls_open\include/mbedtls/cipher.h ****  *
 430:.\Source\mbedtls_open\include/mbedtls/cipher.h ****  * \return       The mode of operation.
 431:.\Source\mbedtls_open\include/mbedtls/cipher.h ****  * \return       #MBEDTLS_MODE_NONE if \p ctx has not been initialized.
 432:.\Source\mbedtls_open\include/mbedtls/cipher.h ****  */
 433:.\Source\mbedtls_open\include/mbedtls/cipher.h **** static inline mbedtls_cipher_mode_t mbedtls_cipher_get_cipher_mode( const mbedtls_cipher_context_t 
 434:.\Source\mbedtls_open\include/mbedtls/cipher.h **** {
 435:.\Source\mbedtls_open\include/mbedtls/cipher.h ****     if( NULL == ctx || NULL == ctx->cipher_info )
 436:.\Source\mbedtls_open\include/mbedtls/cipher.h ****         return MBEDTLS_MODE_NONE;
 437:.\Source\mbedtls_open\include/mbedtls/cipher.h **** 
 438:.\Source\mbedtls_open\include/mbedtls/cipher.h ****     return ctx->cipher_info->mode;
 439:.\Source\mbedtls_open\include/mbedtls/cipher.h **** }
 440:.\Source\mbedtls_open\include/mbedtls/cipher.h **** 
 441:.\Source\mbedtls_open\include/mbedtls/cipher.h **** /**
 442:.\Source\mbedtls_open\include/mbedtls/cipher.h ****  * \brief       This function returns the size of the IV or nonce
 443:.\Source\mbedtls_open\include/mbedtls/cipher.h ****  *              of the cipher, in Bytes.
 444:.\Source\mbedtls_open\include/mbedtls/cipher.h ****  *
 445:.\Source\mbedtls_open\include/mbedtls/cipher.h ****  * \param ctx   The context of the cipher. Must be initialized.
 446:.\Source\mbedtls_open\include/mbedtls/cipher.h ****  *
 447:.\Source\mbedtls_open\include/mbedtls/cipher.h ****  * \return      The recommended IV size if no IV has been set.
 448:.\Source\mbedtls_open\include/mbedtls/cipher.h ****  * \return      \c 0 for ciphers not using an IV or a nonce.
 449:.\Source\mbedtls_open\include/mbedtls/cipher.h ****  * \return      The actual size if an IV has been set.
 450:.\Source\mbedtls_open\include/mbedtls/cipher.h ****  */
 451:.\Source\mbedtls_open\include/mbedtls/cipher.h **** static inline int mbedtls_cipher_get_iv_size( const mbedtls_cipher_context_t *ctx )
 452:.\Source\mbedtls_open\include/mbedtls/cipher.h **** {
 453:.\Source\mbedtls_open\include/mbedtls/cipher.h ****     if( NULL == ctx || NULL == ctx->cipher_info )
 2102              		.loc 2 453 0
 2103 0074 002C     		cmp	r4, #0
 2104 0076 06D0     		beq	.L192
 2105 0078 002F     		cmp	r7, #0
 2106 007a 06D0     		beq	.L193
 454:.\Source\mbedtls_open\include/mbedtls/cipher.h ****         return 0;
 455:.\Source\mbedtls_open\include/mbedtls/cipher.h **** 
 456:.\Source\mbedtls_open\include/mbedtls/cipher.h ****     if( ctx->iv_size != 0 )
 2107              		.loc 2 456 0
 2108 007c A16B     		ldr	r1, [r4, #56]
 2109              	.LVL270:
 2110 007e 0029     		cmp	r1, #0
 2111 0080 04D1     		bne	.L174
 457:.\Source\mbedtls_open\include/mbedtls/cipher.h ****         return (int) ctx->iv_size;
 458:.\Source\mbedtls_open\include/mbedtls/cipher.h **** 
 459:.\Source\mbedtls_open\include/mbedtls/cipher.h ****     return (int) ctx->cipher_info->iv_size;
 2112              		.loc 2 459 0
 2113 0082 F968     		ldr	r1, [r7, #12]
ARM GAS  C:\Users\Phuong\AppData\Local\Temp\ccnzvfGe.s 			page 64


 2114 0084 02E0     		b	.L174
 2115              	.LVL271:
 2116              	.L192:
 454:.\Source\mbedtls_open\include/mbedtls/cipher.h ****         return 0;
 2117              		.loc 2 454 0
 2118 0086 0021     		movs	r1, #0
 2119              	.LVL272:
 2120 0088 00E0     		b	.L174
 2121              	.LVL273:
 2122              	.L193:
 2123 008a 0021     		movs	r1, #0
 2124              	.LVL274:
 2125              	.L174:
 2126              	.LBE23:
 2127              	.LBE22:
 2128              		.loc 1 793 0
 2129 008c 626A     		ldr	r2, [r4, #36]
 2130 008e 9847     		blx	r3
 2131              	.LVL275:
 2132 0090 12E0     		b	.L176
 2133              	.LVL276:
 2134              	.L172:
 2135              	.LBB24:
 2136              	.LBB25:
 418:.\Source\mbedtls_open\include/mbedtls/cipher.h ****         return 0;
 2137              		.loc 2 418 0
 2138 0092 0028     		cmp	r0, #0
 2139 0094 03D0     		beq	.L194
 2140 0096 002F     		cmp	r7, #0
 2141 0098 03D0     		beq	.L195
 421:.\Source\mbedtls_open\include/mbedtls/cipher.h **** }
 2142              		.loc 2 421 0
 2143 009a 7A69     		ldr	r2, [r7, #20]
 2144 009c 02E0     		b	.L177
 2145              	.L194:
 419:.\Source\mbedtls_open\include/mbedtls/cipher.h **** 
 2146              		.loc 2 419 0
 2147 009e 0022     		movs	r2, #0
 2148 00a0 00E0     		b	.L177
 2149              	.L195:
 2150 00a2 0022     		movs	r2, #0
 2151              	.L177:
 2152              	.LVL277:
 2153              	.LBE25:
 2154              	.LBE24:
 794:Source\mbedtls_open\library/cipher.c ****                     ctx->unprocessed_len );
 795:Source\mbedtls_open\library/cipher.c ****         }
 796:Source\mbedtls_open\library/cipher.c ****         else if( mbedtls_cipher_get_block_size( ctx ) != ctx->unprocessed_len )
 2155              		.loc 1 796 0
 2156 00a4 636A     		ldr	r3, [r4, #36]
 2157 00a6 9342     		cmp	r3, r2
 2158 00a8 06D0     		beq	.L176
 797:Source\mbedtls_open\library/cipher.c ****         {
 798:Source\mbedtls_open\library/cipher.c ****             /*
 799:Source\mbedtls_open\library/cipher.c ****              * For decrypt operations, expect a full block,
 800:Source\mbedtls_open\library/cipher.c ****              * or an empty block if no padding
 801:Source\mbedtls_open\library/cipher.c ****              */
ARM GAS  C:\Users\Phuong\AppData\Local\Temp\ccnzvfGe.s 			page 65


 802:Source\mbedtls_open\library/cipher.c ****             if( NULL == ctx->add_padding && 0 == ctx->unprocessed_len )
 2159              		.loc 1 802 0
 2160 00aa E268     		ldr	r2, [r4, #12]
 2161 00ac 002A     		cmp	r2, #0
 2162 00ae 53D1     		bne	.L196
 2163              		.loc 1 802 0 is_stmt 0 discriminator 1
 2164 00b0 002B     		cmp	r3, #0
 2165 00b2 53D0     		beq	.L197
 803:Source\mbedtls_open\library/cipher.c ****                 return( 0 );
 804:Source\mbedtls_open\library/cipher.c **** 
 805:Source\mbedtls_open\library/cipher.c ****             return( MBEDTLS_ERR_CIPHER_FULL_BLOCK_EXPECTED );
 2166              		.loc 1 805 0 is_stmt 1
 2167 00b4 2B48     		ldr	r0, .L205
 2168              	.LVL278:
 2169 00b6 52E0     		b	.L170
 2170              	.LVL279:
 2171              	.L176:
 806:Source\mbedtls_open\library/cipher.c ****         }
 807:Source\mbedtls_open\library/cipher.c **** 
 808:Source\mbedtls_open\library/cipher.c ****         /* cipher block */
 809:Source\mbedtls_open\library/cipher.c ****         if( 0 != ( ret = ctx->cipher_info->base->cbc_func( ctx->cipher_ctx,
 2172              		.loc 1 809 0
 2173 00b8 2368     		ldr	r3, [r4]
 2174 00ba 9A69     		ldr	r2, [r3, #24]
 2175 00bc 9768     		ldr	r7, [r2, #8]
 2176 00be E06B     		ldr	r0, [r4, #60]
 2177 00c0 0821     		movs	r1, #8
 2178 00c2 6156     		ldrsb	r1, [r4, r1]
 2179              	.LVL280:
 2180              	.LBB26:
 2181              	.LBB27:
 418:.\Source\mbedtls_open\include/mbedtls/cipher.h ****         return 0;
 2182              		.loc 2 418 0
 2183 00c4 002C     		cmp	r4, #0
 2184 00c6 04D0     		beq	.L198
 2185 00c8 002B     		cmp	r3, #0
 2186 00ca 05D0     		beq	.L199
 421:.\Source\mbedtls_open\include/mbedtls/cipher.h **** }
 2187              		.loc 2 421 0
 2188 00cc 5B69     		ldr	r3, [r3, #20]
 2189 00ce 9C46     		mov	ip, r3
 2190 00d0 04E0     		b	.L178
 2191              	.L198:
 419:.\Source\mbedtls_open\include/mbedtls/cipher.h **** 
 2192              		.loc 2 419 0
 2193 00d2 0023     		movs	r3, #0
 2194 00d4 9C46     		mov	ip, r3
 2195 00d6 01E0     		b	.L178
 2196              	.L199:
 2197 00d8 0023     		movs	r3, #0
 2198 00da 9C46     		mov	ip, r3
 2199              	.L178:
 2200              	.LVL281:
 2201              	.LBE27:
 2202              	.LBE26:
 810:Source\mbedtls_open\library/cipher.c ****                 ctx->operation, mbedtls_cipher_get_block_size( ctx ), ctx->iv,
 2203              		.loc 1 810 0
ARM GAS  C:\Users\Phuong\AppData\Local\Temp\ccnzvfGe.s 			page 66


 2204 00dc 2300     		movs	r3, r4
 2205 00de 2833     		adds	r3, r3, #40
 811:Source\mbedtls_open\library/cipher.c ****                 ctx->unprocessed_data, output ) ) )
 2206              		.loc 1 811 0
 2207 00e0 2200     		movs	r2, r4
 2208 00e2 1432     		adds	r2, r2, #20
 809:Source\mbedtls_open\library/cipher.c ****                 ctx->operation, mbedtls_cipher_get_block_size( ctx ), ctx->iv,
 2209              		.loc 1 809 0
 2210 00e4 0195     		str	r5, [sp, #4]
 2211 00e6 0092     		str	r2, [sp]
 2212 00e8 6246     		mov	r2, ip
 2213 00ea B847     		blx	r7
 2214              	.LVL282:
 2215 00ec 0028     		cmp	r0, #0
 2216 00ee 36D1     		bne	.L170
 812:Source\mbedtls_open\library/cipher.c ****         {
 813:Source\mbedtls_open\library/cipher.c ****             return( ret );
 814:Source\mbedtls_open\library/cipher.c ****         }
 815:Source\mbedtls_open\library/cipher.c **** 
 816:Source\mbedtls_open\library/cipher.c ****         /* Set output size for decryption */
 817:Source\mbedtls_open\library/cipher.c ****         if( MBEDTLS_DECRYPT == ctx->operation )
 2217              		.loc 1 817 0
 2218 00f0 0823     		movs	r3, #8
 2219 00f2 E356     		ldrsb	r3, [r4, r3]
 2220 00f4 002B     		cmp	r3, #0
 2221 00f6 0ED1     		bne	.L179
 818:Source\mbedtls_open\library/cipher.c ****             return ctx->get_padding( output, mbedtls_cipher_get_block_size( ctx ),
 2222              		.loc 1 818 0
 2223 00f8 2769     		ldr	r7, [r4, #16]
 2224              	.LVL283:
 2225              	.LBB28:
 2226              	.LBB29:
 418:.\Source\mbedtls_open\include/mbedtls/cipher.h ****         return 0;
 2227              		.loc 2 418 0
 2228 00fa 002C     		cmp	r4, #0
 2229 00fc 04D0     		beq	.L201
 2230 00fe 2368     		ldr	r3, [r4]
 2231 0100 002B     		cmp	r3, #0
 2232 0102 03D0     		beq	.L202
 421:.\Source\mbedtls_open\include/mbedtls/cipher.h **** }
 2233              		.loc 2 421 0
 2234 0104 5969     		ldr	r1, [r3, #20]
 2235 0106 02E0     		b	.L180
 2236              	.L201:
 419:.\Source\mbedtls_open\include/mbedtls/cipher.h **** 
 2237              		.loc 2 419 0
 2238 0108 0021     		movs	r1, #0
 2239 010a 00E0     		b	.L180
 2240              	.L202:
 2241 010c 0021     		movs	r1, #0
 2242              	.L180:
 2243              	.LVL284:
 2244              	.LBE29:
 2245              	.LBE28:
 2246              		.loc 1 818 0
 2247 010e 3200     		movs	r2, r6
 2248 0110 2800     		movs	r0, r5
ARM GAS  C:\Users\Phuong\AppData\Local\Temp\ccnzvfGe.s 			page 67


 2249              	.LVL285:
 2250 0112 B847     		blx	r7
 2251              	.LVL286:
 2252 0114 23E0     		b	.L170
 2253              	.LVL287:
 2254              	.L179:
 2255              	.LBB30:
 2256              	.LBB31:
 418:.\Source\mbedtls_open\include/mbedtls/cipher.h ****         return 0;
 2257              		.loc 2 418 0
 2258 0116 002C     		cmp	r4, #0
 2259 0118 04D0     		beq	.L203
 2260 011a 2368     		ldr	r3, [r4]
 2261 011c 002B     		cmp	r3, #0
 2262 011e 03D0     		beq	.L204
 421:.\Source\mbedtls_open\include/mbedtls/cipher.h **** }
 2263              		.loc 2 421 0
 2264 0120 5B69     		ldr	r3, [r3, #20]
 2265 0122 02E0     		b	.L181
 2266              	.L203:
 419:.\Source\mbedtls_open\include/mbedtls/cipher.h **** 
 2267              		.loc 2 419 0
 2268 0124 0023     		movs	r3, #0
 2269 0126 00E0     		b	.L181
 2270              	.L204:
 2271 0128 0023     		movs	r3, #0
 2272              	.L181:
 2273              	.LVL288:
 2274              	.LBE31:
 2275              	.LBE30:
 819:Source\mbedtls_open\library/cipher.c ****                                      olen );
 820:Source\mbedtls_open\library/cipher.c **** 
 821:Source\mbedtls_open\library/cipher.c ****         /* Set output size for encryption */
 822:Source\mbedtls_open\library/cipher.c ****         *olen = mbedtls_cipher_get_block_size( ctx );
 2276              		.loc 1 822 0
 2277 012a 3360     		str	r3, [r6]
 823:Source\mbedtls_open\library/cipher.c ****         return( 0 );
 2278              		.loc 1 823 0
 2279 012c 0020     		movs	r0, #0
 2280              	.LVL289:
 2281 012e 16E0     		b	.L170
 2282              	.LVL290:
 2283              	.L182:
 2284              	.LBE21:
 749:Source\mbedtls_open\library/cipher.c **** 
 2285              		.loc 1 749 0
 2286 0130 0D48     		ldr	r0, .L205+4
 2287              	.LVL291:
 2288 0132 14E0     		b	.L170
 2289              	.LVL292:
 2290              	.L183:
 2291 0134 0C48     		ldr	r0, .L205+4
 2292              	.LVL293:
 2293 0136 12E0     		b	.L170
 2294              	.LVL294:
 2295              	.L184:
 2296 0138 0B48     		ldr	r0, .L205+4
ARM GAS  C:\Users\Phuong\AppData\Local\Temp\ccnzvfGe.s 			page 68


 2297              	.LVL295:
 2298 013a 10E0     		b	.L170
 2299              	.LVL296:
 2300              	.L185:
 760:Source\mbedtls_open\library/cipher.c ****     }
 2301              		.loc 1 760 0
 2302 013c 0020     		movs	r0, #0
 2303              	.LVL297:
 2304 013e 0EE0     		b	.L170
 2305              	.LVL298:
 2306              	.L186:
 2307 0140 0020     		movs	r0, #0
 2308              	.LVL299:
 2309 0142 0CE0     		b	.L170
 2310              	.LVL300:
 2311              	.L187:
 2312 0144 0020     		movs	r0, #0
 2313              	.LVL301:
 2314 0146 0AE0     		b	.L170
 2315              	.LVL302:
 2316              	.L188:
 766:Source\mbedtls_open\library/cipher.c ****     }
 2317              		.loc 1 766 0
 2318 0148 0020     		movs	r0, #0
 2319              	.LVL303:
 2320 014a 08E0     		b	.L170
 2321              	.LVL304:
 2322              	.L189:
 774:Source\mbedtls_open\library/cipher.c ****     }
 2323              		.loc 1 774 0
 2324 014c 0020     		movs	r0, #0
 2325              	.LVL305:
 2326 014e 06E0     		b	.L170
 2327              	.LVL306:
 2328              	.L190:
 824:Source\mbedtls_open\library/cipher.c ****     }
 825:Source\mbedtls_open\library/cipher.c **** #else
 826:Source\mbedtls_open\library/cipher.c ****     ((void) output);
 827:Source\mbedtls_open\library/cipher.c **** #endif /* MBEDTLS_CIPHER_MODE_CBC */
 828:Source\mbedtls_open\library/cipher.c **** 
 829:Source\mbedtls_open\library/cipher.c ****     return( MBEDTLS_ERR_CIPHER_FEATURE_UNAVAILABLE );
 2329              		.loc 1 829 0
 2330 0150 0648     		ldr	r0, .L205+8
 2331              	.LVL307:
 2332 0152 04E0     		b	.L170
 2333              	.LVL308:
 2334              	.L191:
 2335              	.LBB32:
 790:Source\mbedtls_open\library/cipher.c ****             }
 2336              		.loc 1 790 0
 2337 0154 0020     		movs	r0, #0
 2338              	.LVL309:
 2339 0156 02E0     		b	.L170
 2340              	.LVL310:
 2341              	.L196:
 805:Source\mbedtls_open\library/cipher.c ****         }
 2342              		.loc 1 805 0
ARM GAS  C:\Users\Phuong\AppData\Local\Temp\ccnzvfGe.s 			page 69


 2343 0158 0248     		ldr	r0, .L205
 2344              	.LVL311:
 2345 015a 00E0     		b	.L170
 2346              	.LVL312:
 2347              	.L197:
 803:Source\mbedtls_open\library/cipher.c **** 
 2348              		.loc 1 803 0
 2349 015c 0020     		movs	r0, #0
 2350              	.LVL313:
 2351              	.L170:
 2352              	.LBE32:
 830:Source\mbedtls_open\library/cipher.c **** }
 2353              		.loc 1 830 0
 2354 015e 03B0     		add	sp, sp, #12
 2355              		@ sp needed
 2356              	.LVL314:
 2357              	.LVL315:
 2358              	.LVL316:
 2359 0160 F0BD     		pop	{r4, r5, r6, r7, pc}
 2360              	.L206:
 2361 0162 C046     		.align	2
 2362              	.L205:
 2363 0164 809DFFFF 		.word	-25216
 2364 0168 009FFFFF 		.word	-24832
 2365 016c 809FFFFF 		.word	-24704
 2366              		.cfi_endproc
 2367              	.LFE30:
 2368              		.size	mbedtls_cipher_finish, .-mbedtls_cipher_finish
 2369              		.section	.text.mbedtls_cipher_set_padding_mode,"ax",%progbits
 2370              		.align	2
 2371              		.global	mbedtls_cipher_set_padding_mode
 2372              		.code	16
 2373              		.thumb_func
 2374              		.type	mbedtls_cipher_set_padding_mode, %function
 2375              	mbedtls_cipher_set_padding_mode:
 2376              	.LFB31:
 831:Source\mbedtls_open\library/cipher.c **** 
 832:Source\mbedtls_open\library/cipher.c **** #if defined(MBEDTLS_CIPHER_MODE_WITH_PADDING)
 833:Source\mbedtls_open\library/cipher.c **** int mbedtls_cipher_set_padding_mode( mbedtls_cipher_context_t *ctx, mbedtls_cipher_padding_t mode )
 834:Source\mbedtls_open\library/cipher.c **** {
 2377              		.loc 1 834 0
 2378              		.cfi_startproc
 2379              		@ args = 0, pretend = 0, frame = 0
 2380              		@ frame_needed = 0, uses_anonymous_args = 0
 2381              		@ link register save eliminated.
 2382              	.LVL317:
 835:Source\mbedtls_open\library/cipher.c ****     if( NULL == ctx ||
 2383              		.loc 1 835 0
 2384 0000 0028     		cmp	r0, #0
 2385 0002 27D0     		beq	.L215
 836:Source\mbedtls_open\library/cipher.c ****         MBEDTLS_MODE_CBC != ctx->cipher_info->mode )
 2386              		.loc 1 836 0 discriminator 1
 2387 0004 0368     		ldr	r3, [r0]
 2388 0006 5B78     		ldrb	r3, [r3, #1]
 835:Source\mbedtls_open\library/cipher.c ****     if( NULL == ctx ||
 2389              		.loc 1 835 0 discriminator 1
 2390 0008 022B     		cmp	r3, #2
ARM GAS  C:\Users\Phuong\AppData\Local\Temp\ccnzvfGe.s 			page 70


 2391 000a 25D1     		bne	.L216
 837:Source\mbedtls_open\library/cipher.c ****     {
 838:Source\mbedtls_open\library/cipher.c ****         return( MBEDTLS_ERR_CIPHER_BAD_INPUT_DATA );
 839:Source\mbedtls_open\library/cipher.c ****     }
 840:Source\mbedtls_open\library/cipher.c **** 
 841:Source\mbedtls_open\library/cipher.c ****     switch( mode )
 2392              		.loc 1 841 0
 2393 000c 0429     		cmp	r1, #4
 2394 000e 25D8     		bhi	.L217
 2395 0010 8900     		lsls	r1, r1, #2
 2396              	.LVL318:
 2397 0012 134B     		ldr	r3, .L218
 2398 0014 5B58     		ldr	r3, [r3, r1]
 2399 0016 9F46     		mov	pc, r3
 2400              		.section	.rodata
 2401              		.align	2
 2402              	.L210:
 2403 0000 18000000 		.word	.L209
 2404 0004 24000000 		.word	.L211
 2405 0008 30000000 		.word	.L212
 2406 000c 3C000000 		.word	.L213
 2407 0010 48000000 		.word	.L214
 2408              		.section	.text.mbedtls_cipher_set_padding_mode
 2409              	.L209:
 842:Source\mbedtls_open\library/cipher.c ****     {
 843:Source\mbedtls_open\library/cipher.c **** #if defined(MBEDTLS_CIPHER_PADDING_PKCS7)
 844:Source\mbedtls_open\library/cipher.c ****     case MBEDTLS_PADDING_PKCS7:
 845:Source\mbedtls_open\library/cipher.c ****         ctx->add_padding = add_pkcs_padding;
 2410              		.loc 1 845 0
 2411 0018 124B     		ldr	r3, .L218+4
 2412 001a C360     		str	r3, [r0, #12]
 846:Source\mbedtls_open\library/cipher.c ****         ctx->get_padding = get_pkcs_padding;
 2413              		.loc 1 846 0
 2414 001c 124B     		ldr	r3, .L218+8
 2415 001e 0361     		str	r3, [r0, #16]
 847:Source\mbedtls_open\library/cipher.c ****         break;
 848:Source\mbedtls_open\library/cipher.c **** #endif
 849:Source\mbedtls_open\library/cipher.c **** #if defined(MBEDTLS_CIPHER_PADDING_ONE_AND_ZEROS)
 850:Source\mbedtls_open\library/cipher.c ****     case MBEDTLS_PADDING_ONE_AND_ZEROS:
 851:Source\mbedtls_open\library/cipher.c ****         ctx->add_padding = add_one_and_zeros_padding;
 852:Source\mbedtls_open\library/cipher.c ****         ctx->get_padding = get_one_and_zeros_padding;
 853:Source\mbedtls_open\library/cipher.c ****         break;
 854:Source\mbedtls_open\library/cipher.c **** #endif
 855:Source\mbedtls_open\library/cipher.c **** #if defined(MBEDTLS_CIPHER_PADDING_ZEROS_AND_LEN)
 856:Source\mbedtls_open\library/cipher.c ****     case MBEDTLS_PADDING_ZEROS_AND_LEN:
 857:Source\mbedtls_open\library/cipher.c ****         ctx->add_padding = add_zeros_and_len_padding;
 858:Source\mbedtls_open\library/cipher.c ****         ctx->get_padding = get_zeros_and_len_padding;
 859:Source\mbedtls_open\library/cipher.c ****         break;
 860:Source\mbedtls_open\library/cipher.c **** #endif
 861:Source\mbedtls_open\library/cipher.c **** #if defined(MBEDTLS_CIPHER_PADDING_ZEROS)
 862:Source\mbedtls_open\library/cipher.c ****     case MBEDTLS_PADDING_ZEROS:
 863:Source\mbedtls_open\library/cipher.c ****         ctx->add_padding = add_zeros_padding;
 864:Source\mbedtls_open\library/cipher.c ****         ctx->get_padding = get_zeros_padding;
 865:Source\mbedtls_open\library/cipher.c ****         break;
 866:Source\mbedtls_open\library/cipher.c **** #endif
 867:Source\mbedtls_open\library/cipher.c ****     case MBEDTLS_PADDING_NONE:
 868:Source\mbedtls_open\library/cipher.c ****         ctx->add_padding = NULL;
ARM GAS  C:\Users\Phuong\AppData\Local\Temp\ccnzvfGe.s 			page 71


 869:Source\mbedtls_open\library/cipher.c ****         ctx->get_padding = get_no_padding;
 870:Source\mbedtls_open\library/cipher.c ****         break;
 871:Source\mbedtls_open\library/cipher.c **** 
 872:Source\mbedtls_open\library/cipher.c ****     default:
 873:Source\mbedtls_open\library/cipher.c ****         return( MBEDTLS_ERR_CIPHER_FEATURE_UNAVAILABLE );
 874:Source\mbedtls_open\library/cipher.c ****     }
 875:Source\mbedtls_open\library/cipher.c **** 
 876:Source\mbedtls_open\library/cipher.c ****     return( 0 );
 2416              		.loc 1 876 0
 2417 0020 0020     		movs	r0, #0
 2418              	.LVL319:
 847:Source\mbedtls_open\library/cipher.c ****         break;
 2419              		.loc 1 847 0
 2420 0022 1CE0     		b	.L208
 2421              	.LVL320:
 2422              	.L211:
 851:Source\mbedtls_open\library/cipher.c ****         ctx->get_padding = get_one_and_zeros_padding;
 2423              		.loc 1 851 0
 2424 0024 114B     		ldr	r3, .L218+12
 2425 0026 C360     		str	r3, [r0, #12]
 852:Source\mbedtls_open\library/cipher.c ****         break;
 2426              		.loc 1 852 0
 2427 0028 114B     		ldr	r3, .L218+16
 2428 002a 0361     		str	r3, [r0, #16]
 2429              		.loc 1 876 0
 2430 002c 0020     		movs	r0, #0
 2431              	.LVL321:
 853:Source\mbedtls_open\library/cipher.c **** #endif
 2432              		.loc 1 853 0
 2433 002e 16E0     		b	.L208
 2434              	.LVL322:
 2435              	.L212:
 857:Source\mbedtls_open\library/cipher.c ****         ctx->get_padding = get_zeros_and_len_padding;
 2436              		.loc 1 857 0
 2437 0030 104B     		ldr	r3, .L218+20
 2438 0032 C360     		str	r3, [r0, #12]
 858:Source\mbedtls_open\library/cipher.c ****         break;
 2439              		.loc 1 858 0
 2440 0034 104B     		ldr	r3, .L218+24
 2441 0036 0361     		str	r3, [r0, #16]
 2442              		.loc 1 876 0
 2443 0038 0020     		movs	r0, #0
 2444              	.LVL323:
 859:Source\mbedtls_open\library/cipher.c **** #endif
 2445              		.loc 1 859 0
 2446 003a 10E0     		b	.L208
 2447              	.LVL324:
 2448              	.L213:
 863:Source\mbedtls_open\library/cipher.c ****         ctx->get_padding = get_zeros_padding;
 2449              		.loc 1 863 0
 2450 003c 0F4B     		ldr	r3, .L218+28
 2451 003e C360     		str	r3, [r0, #12]
 864:Source\mbedtls_open\library/cipher.c ****         break;
 2452              		.loc 1 864 0
 2453 0040 0F4B     		ldr	r3, .L218+32
 2454 0042 0361     		str	r3, [r0, #16]
 2455              		.loc 1 876 0
ARM GAS  C:\Users\Phuong\AppData\Local\Temp\ccnzvfGe.s 			page 72


 2456 0044 0020     		movs	r0, #0
 2457              	.LVL325:
 865:Source\mbedtls_open\library/cipher.c **** #endif
 2458              		.loc 1 865 0
 2459 0046 0AE0     		b	.L208
 2460              	.LVL326:
 2461              	.L214:
 868:Source\mbedtls_open\library/cipher.c ****         ctx->get_padding = get_no_padding;
 2462              		.loc 1 868 0
 2463 0048 0023     		movs	r3, #0
 2464 004a C360     		str	r3, [r0, #12]
 869:Source\mbedtls_open\library/cipher.c ****         break;
 2465              		.loc 1 869 0
 2466 004c 0D4B     		ldr	r3, .L218+36
 2467 004e 0361     		str	r3, [r0, #16]
 2468              		.loc 1 876 0
 2469 0050 0020     		movs	r0, #0
 2470              	.LVL327:
 870:Source\mbedtls_open\library/cipher.c **** 
 2471              		.loc 1 870 0
 2472 0052 04E0     		b	.L208
 2473              	.LVL328:
 2474              	.L215:
 838:Source\mbedtls_open\library/cipher.c ****     }
 2475              		.loc 1 838 0
 2476 0054 0C48     		ldr	r0, .L218+40
 2477              	.LVL329:
 2478 0056 02E0     		b	.L208
 2479              	.LVL330:
 2480              	.L216:
 2481 0058 0B48     		ldr	r0, .L218+40
 2482              	.LVL331:
 2483 005a 00E0     		b	.L208
 2484              	.LVL332:
 2485              	.L217:
 873:Source\mbedtls_open\library/cipher.c ****     }
 2486              		.loc 1 873 0
 2487 005c 0B48     		ldr	r0, .L218+44
 2488              	.LVL333:
 2489              	.L208:
 877:Source\mbedtls_open\library/cipher.c **** }
 2490              		.loc 1 877 0
 2491              		@ sp needed
 2492 005e 7047     		bx	lr
 2493              	.L219:
 2494              		.align	2
 2495              	.L218:
 2496 0060 00000000 		.word	.L210
 2497 0064 00000000 		.word	add_pkcs_padding
 2498 0068 00000000 		.word	get_pkcs_padding
 2499 006c 00000000 		.word	add_one_and_zeros_padding
 2500 0070 00000000 		.word	get_one_and_zeros_padding
 2501 0074 00000000 		.word	add_zeros_and_len_padding
 2502 0078 00000000 		.word	get_zeros_and_len_padding
 2503 007c 00000000 		.word	add_zeros_padding
 2504 0080 00000000 		.word	get_zeros_padding
 2505 0084 00000000 		.word	get_no_padding
ARM GAS  C:\Users\Phuong\AppData\Local\Temp\ccnzvfGe.s 			page 73


 2506 0088 009FFFFF 		.word	-24832
 2507 008c 809FFFFF 		.word	-24704
 2508              		.cfi_endproc
 2509              	.LFE31:
 2510              		.size	mbedtls_cipher_set_padding_mode, .-mbedtls_cipher_set_padding_mode
 2511              		.section	.text.mbedtls_cipher_setup,"ax",%progbits
 2512              		.align	2
 2513              		.global	mbedtls_cipher_setup
 2514              		.code	16
 2515              		.thumb_func
 2516              		.type	mbedtls_cipher_setup, %function
 2517              	mbedtls_cipher_setup:
 2518              	.LFB15:
 177:Source\mbedtls_open\library/cipher.c ****     if( NULL == cipher_info || NULL == ctx )
 2519              		.loc 1 177 0
 2520              		.cfi_startproc
 2521              		@ args = 0, pretend = 0, frame = 0
 2522              		@ frame_needed = 0, uses_anonymous_args = 0
 2523              	.LVL334:
 2524 0000 70B5     		push	{r4, r5, r6, lr}
 2525              		.cfi_def_cfa_offset 16
 2526              		.cfi_offset 4, -16
 2527              		.cfi_offset 5, -12
 2528              		.cfi_offset 6, -8
 2529              		.cfi_offset 14, -4
 2530 0002 0400     		movs	r4, r0
 2531 0004 0D1E     		subs	r5, r1, #0
 178:Source\mbedtls_open\library/cipher.c ****         return( MBEDTLS_ERR_CIPHER_BAD_INPUT_DATA );
 2532              		.loc 1 178 0
 2533 0006 12D0     		beq	.L222
 178:Source\mbedtls_open\library/cipher.c ****         return( MBEDTLS_ERR_CIPHER_BAD_INPUT_DATA );
 2534              		.loc 1 178 0 is_stmt 0 discriminator 1
 2535 0008 0028     		cmp	r0, #0
 2536 000a 12D0     		beq	.L223
 181:Source\mbedtls_open\library/cipher.c **** 
 2537              		.loc 1 181 0 is_stmt 1
 2538 000c 4022     		movs	r2, #64
 2539 000e 0021     		movs	r1, #0
 2540              	.LVL335:
 2541 0010 FFF7FEFF 		bl	memset
 2542              	.LVL336:
 183:Source\mbedtls_open\library/cipher.c ****         return( MBEDTLS_ERR_CIPHER_ALLOC_FAILED );
 2543              		.loc 1 183 0
 2544 0014 AB69     		ldr	r3, [r5, #24]
 2545 0016 5B6A     		ldr	r3, [r3, #36]
 2546 0018 9847     		blx	r3
 2547              	.LVL337:
 2548 001a E063     		str	r0, [r4, #60]
 2549 001c 0028     		cmp	r0, #0
 2550 001e 0AD0     		beq	.L224
 186:Source\mbedtls_open\library/cipher.c **** 
 2551              		.loc 1 186 0
 2552 0020 2560     		str	r5, [r4]
 193:Source\mbedtls_open\library/cipher.c **** #else
 2553              		.loc 1 193 0
 2554 0022 0021     		movs	r1, #0
 2555 0024 2000     		movs	r0, r4
ARM GAS  C:\Users\Phuong\AppData\Local\Temp\ccnzvfGe.s 			page 74


 2556 0026 FFF7FEFF 		bl	mbedtls_cipher_set_padding_mode
 2557              	.LVL338:
 199:Source\mbedtls_open\library/cipher.c **** }
 2558              		.loc 1 199 0
 2559 002a 0020     		movs	r0, #0
 2560 002c 04E0     		b	.L221
 2561              	.LVL339:
 2562              	.L222:
 179:Source\mbedtls_open\library/cipher.c **** 
 2563              		.loc 1 179 0
 2564 002e 0348     		ldr	r0, .L225
 2565              	.LVL340:
 2566 0030 02E0     		b	.L221
 2567              	.LVL341:
 2568              	.L223:
 2569 0032 0248     		ldr	r0, .L225
 2570              	.LVL342:
 2571 0034 00E0     		b	.L221
 2572              	.LVL343:
 2573              	.L224:
 184:Source\mbedtls_open\library/cipher.c **** 
 2574              		.loc 1 184 0
 2575 0036 0248     		ldr	r0, .L225+4
 2576              	.L221:
 200:Source\mbedtls_open\library/cipher.c **** 
 2577              		.loc 1 200 0
 2578              		@ sp needed
 2579              	.LVL344:
 2580              	.LVL345:
 2581 0038 70BD     		pop	{r4, r5, r6, pc}
 2582              	.L226:
 2583 003a C046     		.align	2
 2584              	.L225:
 2585 003c 009FFFFF 		.word	-24832
 2586 0040 809EFFFF 		.word	-24960
 2587              		.cfi_endproc
 2588              	.LFE15:
 2589              		.size	mbedtls_cipher_setup, .-mbedtls_cipher_setup
 2590              		.section	.text.mbedtls_cipher_write_tag,"ax",%progbits
 2591              		.align	2
 2592              		.global	mbedtls_cipher_write_tag
 2593              		.code	16
 2594              		.thumb_func
 2595              		.type	mbedtls_cipher_write_tag, %function
 2596              	mbedtls_cipher_write_tag:
 2597              	.LFB32:
 878:Source\mbedtls_open\library/cipher.c **** #endif /* MBEDTLS_CIPHER_MODE_WITH_PADDING */
 879:Source\mbedtls_open\library/cipher.c **** 
 880:Source\mbedtls_open\library/cipher.c **** #if defined(MBEDTLS_GCM_C) || defined(MBEDTLS_CHACHAPOLY_C)
 881:Source\mbedtls_open\library/cipher.c **** int mbedtls_cipher_write_tag( mbedtls_cipher_context_t *ctx,
 882:Source\mbedtls_open\library/cipher.c ****                       unsigned char *tag, size_t tag_len )
 883:Source\mbedtls_open\library/cipher.c **** {
 2598              		.loc 1 883 0
 2599              		.cfi_startproc
 2600              		@ args = 0, pretend = 0, frame = 0
 2601              		@ frame_needed = 0, uses_anonymous_args = 0
 2602              	.LVL346:
ARM GAS  C:\Users\Phuong\AppData\Local\Temp\ccnzvfGe.s 			page 75


 2603 0000 10B5     		push	{r4, lr}
 2604              		.cfi_def_cfa_offset 8
 2605              		.cfi_offset 4, -8
 2606              		.cfi_offset 14, -4
 884:Source\mbedtls_open\library/cipher.c ****     if( NULL == ctx || NULL == ctx->cipher_info || NULL == tag )
 2607              		.loc 1 884 0
 2608 0002 0028     		cmp	r0, #0
 2609 0004 18D0     		beq	.L230
 2610              		.loc 1 884 0 is_stmt 0 discriminator 1
 2611 0006 0368     		ldr	r3, [r0]
 2612 0008 002B     		cmp	r3, #0
 2613 000a 17D0     		beq	.L231
 2614              		.loc 1 884 0 discriminator 2
 2615 000c 0029     		cmp	r1, #0
 2616 000e 17D0     		beq	.L232
 885:Source\mbedtls_open\library/cipher.c ****         return( MBEDTLS_ERR_CIPHER_BAD_INPUT_DATA );
 886:Source\mbedtls_open\library/cipher.c **** 
 887:Source\mbedtls_open\library/cipher.c ****     if( MBEDTLS_ENCRYPT != ctx->operation )
 2617              		.loc 1 887 0 is_stmt 1
 2618 0010 0824     		movs	r4, #8
 2619 0012 0457     		ldrsb	r4, [r0, r4]
 2620 0014 012C     		cmp	r4, #1
 2621 0016 15D1     		bne	.L233
 888:Source\mbedtls_open\library/cipher.c ****         return( MBEDTLS_ERR_CIPHER_BAD_INPUT_DATA );
 889:Source\mbedtls_open\library/cipher.c **** 
 890:Source\mbedtls_open\library/cipher.c **** #if defined(MBEDTLS_GCM_C)
 891:Source\mbedtls_open\library/cipher.c ****     if( MBEDTLS_MODE_GCM == ctx->cipher_info->mode )
 2622              		.loc 1 891 0
 2623 0018 5C78     		ldrb	r4, [r3, #1]
 2624 001a 062C     		cmp	r4, #6
 2625 001c 03D1     		bne	.L229
 892:Source\mbedtls_open\library/cipher.c ****         return mbedtls_gcm_finish( (mbedtls_gcm_context *) ctx->cipher_ctx, tag, tag_len );
 2626              		.loc 1 892 0
 2627 001e C06B     		ldr	r0, [r0, #60]
 2628              	.LVL347:
 2629 0020 FFF7FEFF 		bl	mbedtls_gcm_finish
 2630              	.LVL348:
 2631 0024 13E0     		b	.L228
 2632              	.LVL349:
 2633              	.L229:
 893:Source\mbedtls_open\library/cipher.c **** #endif
 894:Source\mbedtls_open\library/cipher.c **** 
 895:Source\mbedtls_open\library/cipher.c **** #if defined(MBEDTLS_CHACHAPOLY_C)
 896:Source\mbedtls_open\library/cipher.c ****     if ( MBEDTLS_CIPHER_CHACHA20_POLY1305 == ctx->cipher_info->type )
 2634              		.loc 1 896 0
 2635 0026 1B78     		ldrb	r3, [r3]
 2636 0028 492B     		cmp	r3, #73
 2637 002a 0DD1     		bne	.L234
 897:Source\mbedtls_open\library/cipher.c ****     {
 898:Source\mbedtls_open\library/cipher.c ****         /* Don't allow truncated MAC for Poly1305 */
 899:Source\mbedtls_open\library/cipher.c ****         if ( tag_len != 16U )
 2638              		.loc 1 899 0
 2639 002c 102A     		cmp	r2, #16
 2640 002e 0DD1     		bne	.L235
 900:Source\mbedtls_open\library/cipher.c ****             return( MBEDTLS_ERR_CIPHER_BAD_INPUT_DATA );
 901:Source\mbedtls_open\library/cipher.c **** 
 902:Source\mbedtls_open\library/cipher.c ****         return mbedtls_chachapoly_finish( (mbedtls_chachapoly_context*) ctx->cipher_ctx,
ARM GAS  C:\Users\Phuong\AppData\Local\Temp\ccnzvfGe.s 			page 76


 2641              		.loc 1 902 0
 2642 0030 C06B     		ldr	r0, [r0, #60]
 2643              	.LVL350:
 2644 0032 FFF7FEFF 		bl	mbedtls_chachapoly_finish
 2645              	.LVL351:
 2646 0036 0AE0     		b	.L228
 2647              	.LVL352:
 2648              	.L230:
 885:Source\mbedtls_open\library/cipher.c **** 
 2649              		.loc 1 885 0
 2650 0038 0548     		ldr	r0, .L236
 2651              	.LVL353:
 2652 003a 08E0     		b	.L228
 2653              	.LVL354:
 2654              	.L231:
 2655 003c 0448     		ldr	r0, .L236
 2656              	.LVL355:
 2657 003e 06E0     		b	.L228
 2658              	.LVL356:
 2659              	.L232:
 2660 0040 0348     		ldr	r0, .L236
 2661              	.LVL357:
 2662 0042 04E0     		b	.L228
 2663              	.LVL358:
 2664              	.L233:
 888:Source\mbedtls_open\library/cipher.c **** 
 2665              		.loc 1 888 0
 2666 0044 0248     		ldr	r0, .L236
 2667              	.LVL359:
 2668 0046 02E0     		b	.L228
 2669              	.LVL360:
 2670              	.L234:
 903:Source\mbedtls_open\library/cipher.c ****                                                       tag );
 904:Source\mbedtls_open\library/cipher.c ****     }
 905:Source\mbedtls_open\library/cipher.c **** #endif
 906:Source\mbedtls_open\library/cipher.c **** 
 907:Source\mbedtls_open\library/cipher.c ****     return( 0 );
 2671              		.loc 1 907 0
 2672 0048 0020     		movs	r0, #0
 2673              	.LVL361:
 2674 004a 00E0     		b	.L228
 2675              	.LVL362:
 2676              	.L235:
 900:Source\mbedtls_open\library/cipher.c **** 
 2677              		.loc 1 900 0
 2678 004c 0048     		ldr	r0, .L236
 2679              	.LVL363:
 2680              	.L228:
 908:Source\mbedtls_open\library/cipher.c **** }
 2681              		.loc 1 908 0
 2682              		@ sp needed
 2683 004e 10BD     		pop	{r4, pc}
 2684              	.L237:
 2685              		.align	2
 2686              	.L236:
 2687 0050 009FFFFF 		.word	-24832
 2688              		.cfi_endproc
ARM GAS  C:\Users\Phuong\AppData\Local\Temp\ccnzvfGe.s 			page 77


 2689              	.LFE32:
 2690              		.size	mbedtls_cipher_write_tag, .-mbedtls_cipher_write_tag
 2691              		.section	.text.mbedtls_cipher_check_tag,"ax",%progbits
 2692              		.align	2
 2693              		.global	mbedtls_cipher_check_tag
 2694              		.code	16
 2695              		.thumb_func
 2696              		.type	mbedtls_cipher_check_tag, %function
 2697              	mbedtls_cipher_check_tag:
 2698              	.LFB33:
 909:Source\mbedtls_open\library/cipher.c **** 
 910:Source\mbedtls_open\library/cipher.c **** int mbedtls_cipher_check_tag( mbedtls_cipher_context_t *ctx,
 911:Source\mbedtls_open\library/cipher.c ****                       const unsigned char *tag, size_t tag_len )
 912:Source\mbedtls_open\library/cipher.c **** {
 2699              		.loc 1 912 0
 2700              		.cfi_startproc
 2701              		@ args = 0, pretend = 0, frame = 16
 2702              		@ frame_needed = 0, uses_anonymous_args = 0
 2703              	.LVL364:
 2704 0000 30B5     		push	{r4, r5, lr}
 2705              		.cfi_def_cfa_offset 12
 2706              		.cfi_offset 4, -12
 2707              		.cfi_offset 5, -8
 2708              		.cfi_offset 14, -4
 2709 0002 85B0     		sub	sp, sp, #20
 2710              		.cfi_def_cfa_offset 32
 2711 0004 0D00     		movs	r5, r1
 2712 0006 1400     		movs	r4, r2
 913:Source\mbedtls_open\library/cipher.c ****     unsigned char check_tag[16];
 914:Source\mbedtls_open\library/cipher.c ****     int ret;
 915:Source\mbedtls_open\library/cipher.c **** 
 916:Source\mbedtls_open\library/cipher.c ****     if( NULL == ctx || NULL == ctx->cipher_info ||
 2713              		.loc 1 916 0
 2714 0008 0028     		cmp	r0, #0
 2715 000a 2FD0     		beq	.L241
 2716              		.loc 1 916 0 is_stmt 0 discriminator 1
 2717 000c 0368     		ldr	r3, [r0]
 2718 000e 002B     		cmp	r3, #0
 2719 0010 2ED0     		beq	.L242
 917:Source\mbedtls_open\library/cipher.c ****         MBEDTLS_DECRYPT != ctx->operation )
 2720              		.loc 1 917 0 is_stmt 1 discriminator 2
 2721 0012 0822     		movs	r2, #8
 2722              	.LVL365:
 2723 0014 8256     		ldrsb	r2, [r0, r2]
 916:Source\mbedtls_open\library/cipher.c ****         MBEDTLS_DECRYPT != ctx->operation )
 2724              		.loc 1 916 0 discriminator 2
 2725 0016 002A     		cmp	r2, #0
 2726 0018 2CD1     		bne	.L243
 918:Source\mbedtls_open\library/cipher.c ****     {
 919:Source\mbedtls_open\library/cipher.c ****         return( MBEDTLS_ERR_CIPHER_BAD_INPUT_DATA );
 920:Source\mbedtls_open\library/cipher.c ****     }
 921:Source\mbedtls_open\library/cipher.c **** 
 922:Source\mbedtls_open\library/cipher.c **** #if defined(MBEDTLS_GCM_C)
 923:Source\mbedtls_open\library/cipher.c ****     if( MBEDTLS_MODE_GCM == ctx->cipher_info->mode )
 2727              		.loc 1 923 0
 2728 001a 5A78     		ldrb	r2, [r3, #1]
 2729 001c 062A     		cmp	r2, #6
ARM GAS  C:\Users\Phuong\AppData\Local\Temp\ccnzvfGe.s 			page 78


 2730 001e 11D1     		bne	.L240
 924:Source\mbedtls_open\library/cipher.c ****     {
 925:Source\mbedtls_open\library/cipher.c ****         if( tag_len > sizeof( check_tag ) )
 2731              		.loc 1 925 0
 2732 0020 102C     		cmp	r4, #16
 2733 0022 29D8     		bhi	.L244
 926:Source\mbedtls_open\library/cipher.c ****             return( MBEDTLS_ERR_CIPHER_BAD_INPUT_DATA );
 927:Source\mbedtls_open\library/cipher.c **** 
 928:Source\mbedtls_open\library/cipher.c ****         if( 0 != ( ret = mbedtls_gcm_finish( (mbedtls_gcm_context *) ctx->cipher_ctx,
 2734              		.loc 1 928 0
 2735 0024 C06B     		ldr	r0, [r0, #60]
 2736              	.LVL366:
 2737 0026 2200     		movs	r2, r4
 2738 0028 6946     		mov	r1, sp
 2739              	.LVL367:
 2740 002a FFF7FEFF 		bl	mbedtls_gcm_finish
 2741              	.LVL368:
 2742 002e 0028     		cmp	r0, #0
 2743 0030 27D1     		bne	.L239
 929:Source\mbedtls_open\library/cipher.c ****                                      check_tag, tag_len ) ) )
 930:Source\mbedtls_open\library/cipher.c ****         {
 931:Source\mbedtls_open\library/cipher.c ****             return( ret );
 932:Source\mbedtls_open\library/cipher.c ****         }
 933:Source\mbedtls_open\library/cipher.c **** 
 934:Source\mbedtls_open\library/cipher.c ****         /* Check the tag in "constant-time" */
 935:Source\mbedtls_open\library/cipher.c ****         if( mbedtls_constant_time_memcmp( tag, check_tag, tag_len ) != 0 )
 2744              		.loc 1 935 0
 2745 0032 2200     		movs	r2, r4
 2746 0034 6946     		mov	r1, sp
 2747 0036 2800     		movs	r0, r5
 2748              	.LVL369:
 2749 0038 FFF7FEFF 		bl	mbedtls_constant_time_memcmp
 2750              	.LVL370:
 2751 003c 0028     		cmp	r0, #0
 2752 003e 20D0     		beq	.L239
 936:Source\mbedtls_open\library/cipher.c ****             return( MBEDTLS_ERR_CIPHER_AUTH_FAILED );
 2753              		.loc 1 936 0
 2754 0040 1148     		ldr	r0, .L249
 2755 0042 1EE0     		b	.L239
 2756              	.LVL371:
 2757              	.L240:
 937:Source\mbedtls_open\library/cipher.c **** 
 938:Source\mbedtls_open\library/cipher.c ****         return( 0 );
 939:Source\mbedtls_open\library/cipher.c ****     }
 940:Source\mbedtls_open\library/cipher.c **** #endif /* MBEDTLS_GCM_C */
 941:Source\mbedtls_open\library/cipher.c **** 
 942:Source\mbedtls_open\library/cipher.c **** #if defined(MBEDTLS_CHACHAPOLY_C)
 943:Source\mbedtls_open\library/cipher.c ****     if ( MBEDTLS_CIPHER_CHACHA20_POLY1305 == ctx->cipher_info->type )
 2758              		.loc 1 943 0
 2759 0044 1B78     		ldrb	r3, [r3]
 2760 0046 492B     		cmp	r3, #73
 2761 0048 18D1     		bne	.L246
 944:Source\mbedtls_open\library/cipher.c ****     {
 945:Source\mbedtls_open\library/cipher.c ****         /* Don't allow truncated MAC for Poly1305 */
 946:Source\mbedtls_open\library/cipher.c ****         if ( tag_len != sizeof( check_tag ) )
 2762              		.loc 1 946 0
 2763 004a 102C     		cmp	r4, #16
ARM GAS  C:\Users\Phuong\AppData\Local\Temp\ccnzvfGe.s 			page 79


 2764 004c 18D1     		bne	.L247
 947:Source\mbedtls_open\library/cipher.c ****             return( MBEDTLS_ERR_CIPHER_BAD_INPUT_DATA );
 948:Source\mbedtls_open\library/cipher.c **** 
 949:Source\mbedtls_open\library/cipher.c ****         ret = mbedtls_chachapoly_finish( (mbedtls_chachapoly_context*) ctx->cipher_ctx,
 2765              		.loc 1 949 0
 2766 004e C06B     		ldr	r0, [r0, #60]
 2767              	.LVL372:
 2768 0050 6946     		mov	r1, sp
 2769              	.LVL373:
 2770 0052 FFF7FEFF 		bl	mbedtls_chachapoly_finish
 2771              	.LVL374:
 950:Source\mbedtls_open\library/cipher.c ****                                                      check_tag );
 951:Source\mbedtls_open\library/cipher.c ****         if ( ret != 0 )
 2772              		.loc 1 951 0
 2773 0056 0028     		cmp	r0, #0
 2774 0058 13D1     		bne	.L239
 952:Source\mbedtls_open\library/cipher.c ****         {
 953:Source\mbedtls_open\library/cipher.c ****             return( ret );
 954:Source\mbedtls_open\library/cipher.c ****         }
 955:Source\mbedtls_open\library/cipher.c **** 
 956:Source\mbedtls_open\library/cipher.c ****         /* Check the tag in "constant-time" */
 957:Source\mbedtls_open\library/cipher.c ****         if( mbedtls_constant_time_memcmp( tag, check_tag, tag_len ) != 0 )
 2775              		.loc 1 957 0
 2776 005a 2200     		movs	r2, r4
 2777 005c 6946     		mov	r1, sp
 2778 005e 2800     		movs	r0, r5
 2779              	.LVL375:
 2780 0060 FFF7FEFF 		bl	mbedtls_constant_time_memcmp
 2781              	.LVL376:
 2782 0064 0028     		cmp	r0, #0
 2783 0066 0CD0     		beq	.L239
 958:Source\mbedtls_open\library/cipher.c ****             return( MBEDTLS_ERR_CIPHER_AUTH_FAILED );
 2784              		.loc 1 958 0
 2785 0068 0748     		ldr	r0, .L249
 2786 006a 0AE0     		b	.L239
 2787              	.LVL377:
 2788              	.L241:
 919:Source\mbedtls_open\library/cipher.c ****     }
 2789              		.loc 1 919 0
 2790 006c 0748     		ldr	r0, .L249+4
 2791              	.LVL378:
 2792 006e 08E0     		b	.L239
 2793              	.LVL379:
 2794              	.L242:
 2795 0070 0648     		ldr	r0, .L249+4
 2796              	.LVL380:
 2797 0072 06E0     		b	.L239
 2798              	.LVL381:
 2799              	.L243:
 2800 0074 0548     		ldr	r0, .L249+4
 2801              	.LVL382:
 2802 0076 04E0     		b	.L239
 2803              	.LVL383:
 2804              	.L244:
 926:Source\mbedtls_open\library/cipher.c **** 
 2805              		.loc 1 926 0
 2806 0078 0448     		ldr	r0, .L249+4
ARM GAS  C:\Users\Phuong\AppData\Local\Temp\ccnzvfGe.s 			page 80


 2807              	.LVL384:
 2808 007a 02E0     		b	.L239
 2809              	.LVL385:
 2810              	.L246:
 959:Source\mbedtls_open\library/cipher.c **** 
 960:Source\mbedtls_open\library/cipher.c ****         return( 0 );
 961:Source\mbedtls_open\library/cipher.c ****     }
 962:Source\mbedtls_open\library/cipher.c **** #endif /* MBEDTLS_CHACHAPOLY_C */
 963:Source\mbedtls_open\library/cipher.c **** 
 964:Source\mbedtls_open\library/cipher.c ****     return( 0 );
 2811              		.loc 1 964 0
 2812 007c 0020     		movs	r0, #0
 2813              	.LVL386:
 2814 007e 00E0     		b	.L239
 2815              	.LVL387:
 2816              	.L247:
 947:Source\mbedtls_open\library/cipher.c **** 
 2817              		.loc 1 947 0
 2818 0080 0248     		ldr	r0, .L249+4
 2819              	.LVL388:
 2820              	.L239:
 965:Source\mbedtls_open\library/cipher.c **** }
 2821              		.loc 1 965 0
 2822 0082 05B0     		add	sp, sp, #20
 2823              		@ sp needed
 2824              	.LVL389:
 2825              	.LVL390:
 2826 0084 30BD     		pop	{r4, r5, pc}
 2827              	.L250:
 2828 0086 C046     		.align	2
 2829              	.L249:
 2830 0088 009DFFFF 		.word	-25344
 2831 008c 009FFFFF 		.word	-24832
 2832              		.cfi_endproc
 2833              	.LFE33:
 2834              		.size	mbedtls_cipher_check_tag, .-mbedtls_cipher_check_tag
 2835              		.section	.text.mbedtls_cipher_crypt,"ax",%progbits
 2836              		.align	2
 2837              		.global	mbedtls_cipher_crypt
 2838              		.code	16
 2839              		.thumb_func
 2840              		.type	mbedtls_cipher_crypt, %function
 2841              	mbedtls_cipher_crypt:
 2842              	.LFB34:
 966:Source\mbedtls_open\library/cipher.c **** #endif /* MBEDTLS_GCM_C || MBEDTLS_CHACHAPOLY_C */
 967:Source\mbedtls_open\library/cipher.c **** 
 968:Source\mbedtls_open\library/cipher.c **** /*
 969:Source\mbedtls_open\library/cipher.c ****  * Packet-oriented wrapper for non-AEAD modes
 970:Source\mbedtls_open\library/cipher.c ****  */
 971:Source\mbedtls_open\library/cipher.c **** int mbedtls_cipher_crypt( mbedtls_cipher_context_t *ctx,
 972:Source\mbedtls_open\library/cipher.c ****                   const unsigned char *iv, size_t iv_len,
 973:Source\mbedtls_open\library/cipher.c ****                   const unsigned char *input, size_t ilen,
 974:Source\mbedtls_open\library/cipher.c ****                   unsigned char *output, size_t *olen )
 975:Source\mbedtls_open\library/cipher.c **** {
 2843              		.loc 1 975 0
 2844              		.cfi_startproc
 2845              		@ args = 12, pretend = 0, frame = 16
ARM GAS  C:\Users\Phuong\AppData\Local\Temp\ccnzvfGe.s 			page 81


 2846              		@ frame_needed = 0, uses_anonymous_args = 0
 2847              	.LVL391:
 2848 0000 30B5     		push	{r4, r5, lr}
 2849              		.cfi_def_cfa_offset 12
 2850              		.cfi_offset 4, -12
 2851              		.cfi_offset 5, -8
 2852              		.cfi_offset 14, -4
 2853 0002 87B0     		sub	sp, sp, #28
 2854              		.cfi_def_cfa_offset 40
 2855 0004 0400     		movs	r4, r0
 2856 0006 1D00     		movs	r5, r3
 976:Source\mbedtls_open\library/cipher.c ****     int ret;
 977:Source\mbedtls_open\library/cipher.c ****     size_t finish_olen;
 978:Source\mbedtls_open\library/cipher.c **** 
 979:Source\mbedtls_open\library/cipher.c ****     if( ( ret = mbedtls_cipher_set_iv( ctx, iv, iv_len ) ) != 0 )
 2857              		.loc 1 979 0
 2858 0008 FFF7FEFF 		bl	mbedtls_cipher_set_iv
 2859              	.LVL392:
 2860 000c 0028     		cmp	r0, #0
 2861 000e 23D1     		bne	.L252
 980:Source\mbedtls_open\library/cipher.c ****         return( ret );
 981:Source\mbedtls_open\library/cipher.c **** 
 982:Source\mbedtls_open\library/cipher.c ****     if( ( ret = mbedtls_cipher_reset( ctx ) ) != 0 )
 2862              		.loc 1 982 0
 2863 0010 2000     		movs	r0, r4
 2864              	.LVL393:
 2865 0012 FFF7FEFF 		bl	mbedtls_cipher_reset
 2866              	.LVL394:
 2867 0016 0028     		cmp	r0, #0
 2868 0018 1ED1     		bne	.L252
 983:Source\mbedtls_open\library/cipher.c ****         return( ret );
 984:Source\mbedtls_open\library/cipher.c **** 
 985:Source\mbedtls_open\library/cipher.c ****     if( ( ret = mbedtls_cipher_update( ctx, input, ilen, output, olen ) ) != 0 )
 2869              		.loc 1 985 0
 2870 001a 0C9B     		ldr	r3, [sp, #48]
 2871 001c 0093     		str	r3, [sp]
 2872 001e 0B9B     		ldr	r3, [sp, #44]
 2873 0020 0A9A     		ldr	r2, [sp, #40]
 2874 0022 2900     		movs	r1, r5
 2875 0024 2000     		movs	r0, r4
 2876              	.LVL395:
 2877 0026 FFF7FEFF 		bl	mbedtls_cipher_update
 2878              	.LVL396:
 2879 002a 0028     		cmp	r0, #0
 2880 002c 14D1     		bne	.L252
 986:Source\mbedtls_open\library/cipher.c ****         return( ret );
 987:Source\mbedtls_open\library/cipher.c **** 
 988:Source\mbedtls_open\library/cipher.c ****     if( ( ret = mbedtls_cipher_finish( ctx, output + *olen, &finish_olen ) ) != 0 )
 2881              		.loc 1 988 0
 2882 002e 0C9B     		ldr	r3, [sp, #48]
 2883 0030 1B68     		ldr	r3, [r3]
 2884 0032 0393     		str	r3, [sp, #12]
 2885 0034 0B9A     		ldr	r2, [sp, #44]
 2886 0036 9446     		mov	ip, r2
 2887 0038 6344     		add	r3, r3, ip
 2888 003a 1900     		movs	r1, r3
 2889 003c 05AA     		add	r2, sp, #20
ARM GAS  C:\Users\Phuong\AppData\Local\Temp\ccnzvfGe.s 			page 82


 2890 003e 2000     		movs	r0, r4
 2891              	.LVL397:
 2892 0040 FFF7FEFF 		bl	mbedtls_cipher_finish
 2893              	.LVL398:
 2894 0044 0028     		cmp	r0, #0
 2895 0046 07D1     		bne	.L252
 989:Source\mbedtls_open\library/cipher.c ****         return( ret );
 990:Source\mbedtls_open\library/cipher.c **** 
 991:Source\mbedtls_open\library/cipher.c ****     *olen += finish_olen;
 2896              		.loc 1 991 0
 2897 0048 0C9B     		ldr	r3, [sp, #48]
 2898 004a 1B68     		ldr	r3, [r3]
 2899 004c 0393     		str	r3, [sp, #12]
 2900 004e 059A     		ldr	r2, [sp, #20]
 2901 0050 9446     		mov	ip, r2
 2902 0052 6344     		add	r3, r3, ip
 2903 0054 0C9A     		ldr	r2, [sp, #48]
 2904 0056 1360     		str	r3, [r2]
 2905              	.L252:
 992:Source\mbedtls_open\library/cipher.c **** 
 993:Source\mbedtls_open\library/cipher.c ****     return( 0 );
 994:Source\mbedtls_open\library/cipher.c **** }
 2906              		.loc 1 994 0
 2907 0058 07B0     		add	sp, sp, #28
 2908              		@ sp needed
 2909              	.LVL399:
 2910              	.LVL400:
 2911 005a 30BD     		pop	{r4, r5, pc}
 2912              		.cfi_endproc
 2913              	.LFE34:
 2914              		.size	mbedtls_cipher_crypt, .-mbedtls_cipher_crypt
 2915              		.section	.text.mbedtls_cipher_auth_encrypt,"ax",%progbits
 2916              		.align	2
 2917              		.global	mbedtls_cipher_auth_encrypt
 2918              		.code	16
 2919              		.thumb_func
 2920              		.type	mbedtls_cipher_auth_encrypt, %function
 2921              	mbedtls_cipher_auth_encrypt:
 2922              	.LFB35:
 995:Source\mbedtls_open\library/cipher.c **** 
 996:Source\mbedtls_open\library/cipher.c **** #if defined(MBEDTLS_CIPHER_MODE_AEAD)
 997:Source\mbedtls_open\library/cipher.c **** /*
 998:Source\mbedtls_open\library/cipher.c ****  * Packet-oriented encryption for AEAD modes
 999:Source\mbedtls_open\library/cipher.c ****  */
1000:Source\mbedtls_open\library/cipher.c **** int mbedtls_cipher_auth_encrypt( mbedtls_cipher_context_t *ctx,
1001:Source\mbedtls_open\library/cipher.c ****                          const unsigned char *iv, size_t iv_len,
1002:Source\mbedtls_open\library/cipher.c ****                          const unsigned char *ad, size_t ad_len,
1003:Source\mbedtls_open\library/cipher.c ****                          const unsigned char *input, size_t ilen,
1004:Source\mbedtls_open\library/cipher.c ****                          unsigned char *output, size_t *olen,
1005:Source\mbedtls_open\library/cipher.c ****                          unsigned char *tag, size_t tag_len )
1006:Source\mbedtls_open\library/cipher.c **** {
 2923              		.loc 1 1006 0
 2924              		.cfi_startproc
 2925              		@ args = 28, pretend = 0, frame = 0
 2926              		@ frame_needed = 0, uses_anonymous_args = 0
 2927              	.LVL401:
 2928 0000 30B5     		push	{r4, r5, lr}
ARM GAS  C:\Users\Phuong\AppData\Local\Temp\ccnzvfGe.s 			page 83


 2929              		.cfi_def_cfa_offset 12
 2930              		.cfi_offset 4, -12
 2931              		.cfi_offset 5, -8
 2932              		.cfi_offset 14, -4
 2933 0002 89B0     		sub	sp, sp, #36
 2934              		.cfi_def_cfa_offset 48
1007:Source\mbedtls_open\library/cipher.c **** #if defined(MBEDTLS_GCM_C)
1008:Source\mbedtls_open\library/cipher.c ****     if( MBEDTLS_MODE_GCM == ctx->cipher_info->mode )
 2935              		.loc 1 1008 0
 2936 0004 0468     		ldr	r4, [r0]
 2937 0006 6578     		ldrb	r5, [r4, #1]
 2938 0008 062D     		cmp	r5, #6
 2939 000a 15D1     		bne	.L258
1009:Source\mbedtls_open\library/cipher.c ****     {
1010:Source\mbedtls_open\library/cipher.c ****         *olen = ilen;
 2940              		.loc 1 1010 0
 2941 000c 109C     		ldr	r4, [sp, #64]
 2942 000e 0E9D     		ldr	r5, [sp, #56]
 2943 0010 2560     		str	r5, [r4]
1011:Source\mbedtls_open\library/cipher.c ****         return( mbedtls_gcm_crypt_and_tag( ctx->cipher_ctx, MBEDTLS_GCM_ENCRYPT, ilen,
 2944              		.loc 1 1011 0
 2945 0012 C06B     		ldr	r0, [r0, #60]
 2946              	.LVL402:
 2947 0014 119C     		ldr	r4, [sp, #68]
 2948 0016 0694     		str	r4, [sp, #24]
 2949 0018 129C     		ldr	r4, [sp, #72]
 2950 001a 0594     		str	r4, [sp, #20]
 2951 001c 0F9C     		ldr	r4, [sp, #60]
 2952 001e 0494     		str	r4, [sp, #16]
 2953 0020 0D9C     		ldr	r4, [sp, #52]
 2954 0022 0394     		str	r4, [sp, #12]
 2955 0024 0C9C     		ldr	r4, [sp, #48]
 2956 0026 0294     		str	r4, [sp, #8]
 2957 0028 0193     		str	r3, [sp, #4]
 2958 002a 0092     		str	r2, [sp]
 2959 002c 0B00     		movs	r3, r1
 2960              	.LVL403:
 2961 002e 2A00     		movs	r2, r5
 2962              	.LVL404:
 2963 0030 0121     		movs	r1, #1
 2964              	.LVL405:
 2965 0032 FFF7FEFF 		bl	mbedtls_gcm_crypt_and_tag
 2966              	.LVL406:
 2967 0036 35E0     		b	.L259
 2968              	.LVL407:
 2969              	.L258:
1012:Source\mbedtls_open\library/cipher.c ****                                    iv, iv_len, ad, ad_len, input, output,
1013:Source\mbedtls_open\library/cipher.c ****                                    tag_len, tag ) );
1014:Source\mbedtls_open\library/cipher.c ****     }
1015:Source\mbedtls_open\library/cipher.c **** #endif /* MBEDTLS_GCM_C */
1016:Source\mbedtls_open\library/cipher.c **** #if defined(MBEDTLS_CCM_C)
1017:Source\mbedtls_open\library/cipher.c ****     if( MBEDTLS_MODE_CCM == ctx->cipher_info->mode )
 2970              		.loc 1 1017 0
 2971 0038 082D     		cmp	r5, #8
 2972 003a 14D1     		bne	.L260
1018:Source\mbedtls_open\library/cipher.c ****     {
1019:Source\mbedtls_open\library/cipher.c ****         *olen = ilen;
ARM GAS  C:\Users\Phuong\AppData\Local\Temp\ccnzvfGe.s 			page 84


 2973              		.loc 1 1019 0
 2974 003c 109C     		ldr	r4, [sp, #64]
 2975 003e 0E9D     		ldr	r5, [sp, #56]
 2976 0040 2560     		str	r5, [r4]
1020:Source\mbedtls_open\library/cipher.c ****         return( mbedtls_ccm_encrypt_and_tag( ctx->cipher_ctx, ilen,
 2977              		.loc 1 1020 0
 2978 0042 C06B     		ldr	r0, [r0, #60]
 2979              	.LVL408:
 2980 0044 129C     		ldr	r4, [sp, #72]
 2981 0046 0594     		str	r4, [sp, #20]
 2982 0048 119C     		ldr	r4, [sp, #68]
 2983 004a 0494     		str	r4, [sp, #16]
 2984 004c 0F9C     		ldr	r4, [sp, #60]
 2985 004e 0394     		str	r4, [sp, #12]
 2986 0050 0D9C     		ldr	r4, [sp, #52]
 2987 0052 0294     		str	r4, [sp, #8]
 2988 0054 0C9C     		ldr	r4, [sp, #48]
 2989 0056 0194     		str	r4, [sp, #4]
 2990 0058 0093     		str	r3, [sp]
 2991 005a 1300     		movs	r3, r2
 2992              	.LVL409:
 2993 005c 0A00     		movs	r2, r1
 2994              	.LVL410:
 2995 005e 2900     		movs	r1, r5
 2996              	.LVL411:
 2997 0060 FFF7FEFF 		bl	mbedtls_ccm_encrypt_and_tag
 2998              	.LVL412:
 2999 0064 1EE0     		b	.L259
 3000              	.LVL413:
 3001              	.L260:
1021:Source\mbedtls_open\library/cipher.c ****                                      iv, iv_len, ad, ad_len, input, output,
1022:Source\mbedtls_open\library/cipher.c ****                                      tag, tag_len ) );
1023:Source\mbedtls_open\library/cipher.c ****     }
1024:Source\mbedtls_open\library/cipher.c **** #endif /* MBEDTLS_CCM_C */
1025:Source\mbedtls_open\library/cipher.c **** #if defined(MBEDTLS_CHACHAPOLY_C)
1026:Source\mbedtls_open\library/cipher.c ****     if ( MBEDTLS_CIPHER_CHACHA20_POLY1305 == ctx->cipher_info->type )
 3002              		.loc 1 1026 0
 3003 0066 2578     		ldrb	r5, [r4]
 3004 0068 492D     		cmp	r5, #73
 3005 006a 16D1     		bne	.L261
1027:Source\mbedtls_open\library/cipher.c ****     {
1028:Source\mbedtls_open\library/cipher.c ****         /* ChachaPoly has fixed length nonce and MAC (tag) */
1029:Source\mbedtls_open\library/cipher.c ****         if ( ( iv_len != ctx->cipher_info->iv_size ) ||
 3006              		.loc 1 1029 0
 3007 006c E468     		ldr	r4, [r4, #12]
 3008 006e A242     		cmp	r2, r4
 3009 0070 15D1     		bne	.L262
 3010              		.loc 1 1029 0 is_stmt 0 discriminator 1
 3011 0072 129A     		ldr	r2, [sp, #72]
 3012              	.LVL414:
 3013 0074 102A     		cmp	r2, #16
 3014 0076 14D1     		bne	.L263
1030:Source\mbedtls_open\library/cipher.c ****              ( tag_len != 16U ) )
1031:Source\mbedtls_open\library/cipher.c ****         {
1032:Source\mbedtls_open\library/cipher.c ****             return( MBEDTLS_ERR_CIPHER_BAD_INPUT_DATA );
1033:Source\mbedtls_open\library/cipher.c ****         }
1034:Source\mbedtls_open\library/cipher.c **** 
ARM GAS  C:\Users\Phuong\AppData\Local\Temp\ccnzvfGe.s 			page 85


1035:Source\mbedtls_open\library/cipher.c ****         *olen = ilen;
 3015              		.loc 1 1035 0 is_stmt 1
 3016 0078 109A     		ldr	r2, [sp, #64]
 3017 007a 0E9C     		ldr	r4, [sp, #56]
 3018 007c 1460     		str	r4, [r2]
1036:Source\mbedtls_open\library/cipher.c ****         return( mbedtls_chachapoly_encrypt_and_tag( ctx->cipher_ctx,
 3019              		.loc 1 1036 0
 3020 007e C06B     		ldr	r0, [r0, #60]
 3021              	.LVL415:
 3022 0080 119A     		ldr	r2, [sp, #68]
 3023 0082 0392     		str	r2, [sp, #12]
 3024 0084 0F9A     		ldr	r2, [sp, #60]
 3025 0086 0292     		str	r2, [sp, #8]
 3026 0088 0D9A     		ldr	r2, [sp, #52]
 3027 008a 0192     		str	r2, [sp, #4]
 3028 008c 0C9A     		ldr	r2, [sp, #48]
 3029 008e 0092     		str	r2, [sp]
 3030 0090 0A00     		movs	r2, r1
 3031 0092 2100     		movs	r1, r4
 3032              	.LVL416:
 3033 0094 FFF7FEFF 		bl	mbedtls_chachapoly_encrypt_and_tag
 3034              	.LVL417:
 3035 0098 04E0     		b	.L259
 3036              	.LVL418:
 3037              	.L261:
1037:Source\mbedtls_open\library/cipher.c ****                                 ilen, iv, ad, ad_len, input, output, tag ) );
1038:Source\mbedtls_open\library/cipher.c ****     }
1039:Source\mbedtls_open\library/cipher.c **** #endif /* MBEDTLS_CHACHAPOLY_C */
1040:Source\mbedtls_open\library/cipher.c **** 
1041:Source\mbedtls_open\library/cipher.c ****     return( MBEDTLS_ERR_CIPHER_FEATURE_UNAVAILABLE );
 3038              		.loc 1 1041 0
 3039 009a 0348     		ldr	r0, .L264
 3040              	.LVL419:
 3041 009c 02E0     		b	.L259
 3042              	.LVL420:
 3043              	.L262:
1032:Source\mbedtls_open\library/cipher.c ****         }
 3044              		.loc 1 1032 0
 3045 009e 0348     		ldr	r0, .L264+4
 3046              	.LVL421:
 3047 00a0 00E0     		b	.L259
 3048              	.LVL422:
 3049              	.L263:
 3050 00a2 0248     		ldr	r0, .L264+4
 3051              	.LVL423:
 3052              	.L259:
1042:Source\mbedtls_open\library/cipher.c **** }
 3053              		.loc 1 1042 0
 3054 00a4 09B0     		add	sp, sp, #36
 3055              		@ sp needed
 3056 00a6 30BD     		pop	{r4, r5, pc}
 3057              	.L265:
 3058              		.align	2
 3059              	.L264:
 3060 00a8 809FFFFF 		.word	-24704
 3061 00ac 009FFFFF 		.word	-24832
 3062              		.cfi_endproc
ARM GAS  C:\Users\Phuong\AppData\Local\Temp\ccnzvfGe.s 			page 86


 3063              	.LFE35:
 3064              		.size	mbedtls_cipher_auth_encrypt, .-mbedtls_cipher_auth_encrypt
 3065              		.section	.text.mbedtls_cipher_auth_decrypt,"ax",%progbits
 3066              		.align	2
 3067              		.global	mbedtls_cipher_auth_decrypt
 3068              		.code	16
 3069              		.thumb_func
 3070              		.type	mbedtls_cipher_auth_decrypt, %function
 3071              	mbedtls_cipher_auth_decrypt:
 3072              	.LFB36:
1043:Source\mbedtls_open\library/cipher.c **** 
1044:Source\mbedtls_open\library/cipher.c **** /*
1045:Source\mbedtls_open\library/cipher.c ****  * Packet-oriented decryption for AEAD modes
1046:Source\mbedtls_open\library/cipher.c ****  */
1047:Source\mbedtls_open\library/cipher.c **** int mbedtls_cipher_auth_decrypt( mbedtls_cipher_context_t *ctx,
1048:Source\mbedtls_open\library/cipher.c ****                          const unsigned char *iv, size_t iv_len,
1049:Source\mbedtls_open\library/cipher.c ****                          const unsigned char *ad, size_t ad_len,
1050:Source\mbedtls_open\library/cipher.c ****                          const unsigned char *input, size_t ilen,
1051:Source\mbedtls_open\library/cipher.c ****                          unsigned char *output, size_t *olen,
1052:Source\mbedtls_open\library/cipher.c ****                          const unsigned char *tag, size_t tag_len )
1053:Source\mbedtls_open\library/cipher.c **** {
 3073              		.loc 1 1053 0
 3074              		.cfi_startproc
 3075              		@ args = 28, pretend = 0, frame = 0
 3076              		@ frame_needed = 0, uses_anonymous_args = 0
 3077              	.LVL424:
 3078 0000 30B5     		push	{r4, r5, lr}
 3079              		.cfi_def_cfa_offset 12
 3080              		.cfi_offset 4, -12
 3081              		.cfi_offset 5, -8
 3082              		.cfi_offset 14, -4
 3083 0002 87B0     		sub	sp, sp, #28
 3084              		.cfi_def_cfa_offset 40
1054:Source\mbedtls_open\library/cipher.c **** #if defined(MBEDTLS_GCM_C)
1055:Source\mbedtls_open\library/cipher.c ****     if( MBEDTLS_MODE_GCM == ctx->cipher_info->mode )
 3085              		.loc 1 1055 0
 3086 0004 0468     		ldr	r4, [r0]
 3087 0006 6578     		ldrb	r5, [r4, #1]
 3088 0008 062D     		cmp	r5, #6
 3089 000a 17D1     		bne	.L267
 3090              	.LBB33:
1056:Source\mbedtls_open\library/cipher.c ****     {
1057:Source\mbedtls_open\library/cipher.c ****         int ret;
1058:Source\mbedtls_open\library/cipher.c **** 
1059:Source\mbedtls_open\library/cipher.c ****         *olen = ilen;
 3091              		.loc 1 1059 0
 3092 000c 0E9C     		ldr	r4, [sp, #56]
 3093 000e 0C9D     		ldr	r5, [sp, #48]
 3094 0010 2560     		str	r5, [r4]
1060:Source\mbedtls_open\library/cipher.c ****         ret = mbedtls_gcm_auth_decrypt( ctx->cipher_ctx, ilen,
 3095              		.loc 1 1060 0
 3096 0012 C06B     		ldr	r0, [r0, #60]
 3097              	.LVL425:
 3098 0014 0D9C     		ldr	r4, [sp, #52]
 3099 0016 0594     		str	r4, [sp, #20]
 3100 0018 0B9C     		ldr	r4, [sp, #44]
 3101 001a 0494     		str	r4, [sp, #16]
ARM GAS  C:\Users\Phuong\AppData\Local\Temp\ccnzvfGe.s 			page 87


 3102 001c 109C     		ldr	r4, [sp, #64]
 3103 001e 0394     		str	r4, [sp, #12]
 3104 0020 0F9C     		ldr	r4, [sp, #60]
 3105 0022 0294     		str	r4, [sp, #8]
 3106 0024 0A9C     		ldr	r4, [sp, #40]
 3107 0026 0194     		str	r4, [sp, #4]
 3108 0028 0093     		str	r3, [sp]
 3109 002a 1300     		movs	r3, r2
 3110              	.LVL426:
 3111 002c 0A00     		movs	r2, r1
 3112              	.LVL427:
 3113 002e 2900     		movs	r1, r5
 3114              	.LVL428:
 3115 0030 FFF7FEFF 		bl	mbedtls_gcm_auth_decrypt
 3116              	.LVL429:
1061:Source\mbedtls_open\library/cipher.c ****                                 iv, iv_len, ad, ad_len,
1062:Source\mbedtls_open\library/cipher.c ****                                 tag, tag_len, input, output );
1063:Source\mbedtls_open\library/cipher.c **** 
1064:Source\mbedtls_open\library/cipher.c ****         if( ret == MBEDTLS_ERR_GCM_AUTH_FAILED )
 3117              		.loc 1 1064 0
 3118 0034 0300     		movs	r3, r0
 3119 0036 1233     		adds	r3, r3, #18
 3120 0038 37D0     		beq	.L270
 3121 003a 41E0     		b	.L268
 3122              	.LVL430:
 3123              	.L267:
 3124              	.LBE33:
1065:Source\mbedtls_open\library/cipher.c ****             ret = MBEDTLS_ERR_CIPHER_AUTH_FAILED;
1066:Source\mbedtls_open\library/cipher.c **** 
1067:Source\mbedtls_open\library/cipher.c ****         return( ret );
1068:Source\mbedtls_open\library/cipher.c ****     }
1069:Source\mbedtls_open\library/cipher.c **** #endif /* MBEDTLS_GCM_C */
1070:Source\mbedtls_open\library/cipher.c **** #if defined(MBEDTLS_CCM_C)
1071:Source\mbedtls_open\library/cipher.c ****     if( MBEDTLS_MODE_CCM == ctx->cipher_info->mode )
 3125              		.loc 1 1071 0
 3126 003c 082D     		cmp	r5, #8
 3127 003e 17D1     		bne	.L269
 3128              	.LBB34:
1072:Source\mbedtls_open\library/cipher.c ****     {
1073:Source\mbedtls_open\library/cipher.c ****         int ret;
1074:Source\mbedtls_open\library/cipher.c **** 
1075:Source\mbedtls_open\library/cipher.c ****         *olen = ilen;
 3129              		.loc 1 1075 0
 3130 0040 0E9C     		ldr	r4, [sp, #56]
 3131 0042 0C9D     		ldr	r5, [sp, #48]
 3132 0044 2560     		str	r5, [r4]
1076:Source\mbedtls_open\library/cipher.c ****         ret = mbedtls_ccm_auth_decrypt( ctx->cipher_ctx, ilen,
 3133              		.loc 1 1076 0
 3134 0046 C06B     		ldr	r0, [r0, #60]
 3135              	.LVL431:
 3136 0048 109C     		ldr	r4, [sp, #64]
 3137 004a 0594     		str	r4, [sp, #20]
 3138 004c 0F9C     		ldr	r4, [sp, #60]
 3139 004e 0494     		str	r4, [sp, #16]
 3140 0050 0D9C     		ldr	r4, [sp, #52]
 3141 0052 0394     		str	r4, [sp, #12]
 3142 0054 0B9C     		ldr	r4, [sp, #44]
ARM GAS  C:\Users\Phuong\AppData\Local\Temp\ccnzvfGe.s 			page 88


 3143 0056 0294     		str	r4, [sp, #8]
 3144 0058 0A9C     		ldr	r4, [sp, #40]
 3145 005a 0194     		str	r4, [sp, #4]
 3146 005c 0093     		str	r3, [sp]
 3147 005e 1300     		movs	r3, r2
 3148              	.LVL432:
 3149 0060 0A00     		movs	r2, r1
 3150              	.LVL433:
 3151 0062 2900     		movs	r1, r5
 3152              	.LVL434:
 3153 0064 FFF7FEFF 		bl	mbedtls_ccm_auth_decrypt
 3154              	.LVL435:
1077:Source\mbedtls_open\library/cipher.c ****                                 iv, iv_len, ad, ad_len,
1078:Source\mbedtls_open\library/cipher.c ****                                 input, output, tag, tag_len );
1079:Source\mbedtls_open\library/cipher.c **** 
1080:Source\mbedtls_open\library/cipher.c ****         if( ret == MBEDTLS_ERR_CCM_AUTH_FAILED )
 3155              		.loc 1 1080 0
 3156 0068 0300     		movs	r3, r0
 3157 006a 0F33     		adds	r3, r3, #15
 3158 006c 1FD0     		beq	.L271
 3159 006e 27E0     		b	.L268
 3160              	.LVL436:
 3161              	.L269:
 3162              	.LBE34:
1081:Source\mbedtls_open\library/cipher.c ****             ret = MBEDTLS_ERR_CIPHER_AUTH_FAILED;
1082:Source\mbedtls_open\library/cipher.c **** 
1083:Source\mbedtls_open\library/cipher.c ****         return( ret );
1084:Source\mbedtls_open\library/cipher.c ****     }
1085:Source\mbedtls_open\library/cipher.c **** #endif /* MBEDTLS_CCM_C */
1086:Source\mbedtls_open\library/cipher.c **** #if defined(MBEDTLS_CHACHAPOLY_C)
1087:Source\mbedtls_open\library/cipher.c ****     if ( MBEDTLS_CIPHER_CHACHA20_POLY1305 == ctx->cipher_info->type )
 3163              		.loc 1 1087 0
 3164 0070 2578     		ldrb	r5, [r4]
 3165 0072 492D     		cmp	r5, #73
 3166 0074 1DD1     		bne	.L272
 3167              	.LBB35:
1088:Source\mbedtls_open\library/cipher.c ****     {
1089:Source\mbedtls_open\library/cipher.c ****         int ret;
1090:Source\mbedtls_open\library/cipher.c **** 
1091:Source\mbedtls_open\library/cipher.c ****         /* ChachaPoly has fixed length nonce and MAC (tag) */
1092:Source\mbedtls_open\library/cipher.c ****         if ( ( iv_len != ctx->cipher_info->iv_size ) ||
 3168              		.loc 1 1092 0
 3169 0076 E468     		ldr	r4, [r4, #12]
 3170 0078 A242     		cmp	r2, r4
 3171 007a 1CD1     		bne	.L273
 3172              		.loc 1 1092 0 is_stmt 0 discriminator 1
 3173 007c 109A     		ldr	r2, [sp, #64]
 3174              	.LVL437:
 3175 007e 102A     		cmp	r2, #16
 3176 0080 1BD1     		bne	.L274
1093:Source\mbedtls_open\library/cipher.c ****              ( tag_len != 16U ) )
1094:Source\mbedtls_open\library/cipher.c ****         {
1095:Source\mbedtls_open\library/cipher.c ****             return( MBEDTLS_ERR_CIPHER_BAD_INPUT_DATA );
1096:Source\mbedtls_open\library/cipher.c ****         }
1097:Source\mbedtls_open\library/cipher.c **** 
1098:Source\mbedtls_open\library/cipher.c ****         *olen = ilen;
 3177              		.loc 1 1098 0 is_stmt 1
ARM GAS  C:\Users\Phuong\AppData\Local\Temp\ccnzvfGe.s 			page 89


 3178 0082 0E9A     		ldr	r2, [sp, #56]
 3179 0084 0C9C     		ldr	r4, [sp, #48]
 3180 0086 1460     		str	r4, [r2]
1099:Source\mbedtls_open\library/cipher.c ****         ret = mbedtls_chachapoly_auth_decrypt( ctx->cipher_ctx, ilen,
 3181              		.loc 1 1099 0
 3182 0088 C06B     		ldr	r0, [r0, #60]
 3183              	.LVL438:
 3184 008a 0D9A     		ldr	r2, [sp, #52]
 3185 008c 0392     		str	r2, [sp, #12]
 3186 008e 0B9A     		ldr	r2, [sp, #44]
 3187 0090 0292     		str	r2, [sp, #8]
 3188 0092 0F9A     		ldr	r2, [sp, #60]
 3189 0094 0192     		str	r2, [sp, #4]
 3190 0096 0A9A     		ldr	r2, [sp, #40]
 3191 0098 0092     		str	r2, [sp]
 3192 009a 0A00     		movs	r2, r1
 3193 009c 2100     		movs	r1, r4
 3194              	.LVL439:
 3195 009e FFF7FEFF 		bl	mbedtls_chachapoly_auth_decrypt
 3196              	.LVL440:
1100:Source\mbedtls_open\library/cipher.c ****                                 iv, ad, ad_len, tag, input, output );
1101:Source\mbedtls_open\library/cipher.c **** 
1102:Source\mbedtls_open\library/cipher.c ****         if( ret == MBEDTLS_ERR_CHACHAPOLY_AUTH_FAILED )
 3197              		.loc 1 1102 0
 3198 00a2 0300     		movs	r3, r0
 3199 00a4 5633     		adds	r3, r3, #86
 3200 00a6 0AD0     		beq	.L275
 3201 00a8 0AE0     		b	.L268
 3202              	.LVL441:
 3203              	.L270:
 3204              	.LBE35:
 3205              	.LBB36:
1065:Source\mbedtls_open\library/cipher.c **** 
 3206              		.loc 1 1065 0
 3207 00aa 0648     		ldr	r0, .L276
 3208              	.LVL442:
 3209 00ac 08E0     		b	.L268
 3210              	.LVL443:
 3211              	.L271:
 3212              	.LBE36:
 3213              	.LBB37:
1081:Source\mbedtls_open\library/cipher.c **** 
 3214              		.loc 1 1081 0
 3215 00ae 0548     		ldr	r0, .L276
 3216              	.LVL444:
 3217 00b0 06E0     		b	.L268
 3218              	.LVL445:
 3219              	.L272:
 3220              	.LBE37:
1103:Source\mbedtls_open\library/cipher.c ****             ret = MBEDTLS_ERR_CIPHER_AUTH_FAILED;
1104:Source\mbedtls_open\library/cipher.c **** 
1105:Source\mbedtls_open\library/cipher.c ****         return( ret );
1106:Source\mbedtls_open\library/cipher.c ****     }
1107:Source\mbedtls_open\library/cipher.c **** #endif /* MBEDTLS_CHACHAPOLY_C */
1108:Source\mbedtls_open\library/cipher.c **** 
1109:Source\mbedtls_open\library/cipher.c ****     return( MBEDTLS_ERR_CIPHER_FEATURE_UNAVAILABLE );
 3221              		.loc 1 1109 0
ARM GAS  C:\Users\Phuong\AppData\Local\Temp\ccnzvfGe.s 			page 90


 3222 00b2 0548     		ldr	r0, .L276+4
 3223              	.LVL446:
 3224 00b4 04E0     		b	.L268
 3225              	.LVL447:
 3226              	.L273:
 3227              	.LBB38:
1095:Source\mbedtls_open\library/cipher.c ****         }
 3228              		.loc 1 1095 0
 3229 00b6 0548     		ldr	r0, .L276+8
 3230              	.LVL448:
 3231 00b8 02E0     		b	.L268
 3232              	.LVL449:
 3233              	.L274:
 3234 00ba 0448     		ldr	r0, .L276+8
 3235              	.LVL450:
 3236 00bc 00E0     		b	.L268
 3237              	.LVL451:
 3238              	.L275:
1103:Source\mbedtls_open\library/cipher.c ****             ret = MBEDTLS_ERR_CIPHER_AUTH_FAILED;
 3239              		.loc 1 1103 0
 3240 00be 0148     		ldr	r0, .L276
 3241              	.LVL452:
 3242              	.L268:
 3243              	.LBE38:
1110:Source\mbedtls_open\library/cipher.c **** }
 3244              		.loc 1 1110 0
 3245 00c0 07B0     		add	sp, sp, #28
 3246              		@ sp needed
 3247 00c2 30BD     		pop	{r4, r5, pc}
 3248              	.L277:
 3249              		.align	2
 3250              	.L276:
 3251 00c4 009DFFFF 		.word	-25344
 3252 00c8 809FFFFF 		.word	-24704
 3253 00cc 009FFFFF 		.word	-24832
 3254              		.cfi_endproc
 3255              	.LFE36:
 3256              		.size	mbedtls_cipher_auth_decrypt, .-mbedtls_cipher_auth_decrypt
 3257              		.bss
 3258              		.align	2
 3259              		.set	.LANCHOR0,. + 0
 3260              		.type	supported_init, %object
 3261              		.size	supported_init, 4
 3262              	supported_init:
 3263 0000 00000000 		.space	4
 3264              		.text
 3265              	.Letext0:
 3266              		.file 3 "c:\\program files (x86)\\cypress\\psoc creator\\4.2\\psoc creator\\import\\gnu\\arm\\5.4.
 3267              		.file 4 "c:\\program files (x86)\\cypress\\psoc creator\\4.2\\psoc creator\\import\\gnu\\arm\\5.4.
 3268              		.file 5 ".\\Source\\mbedtls_open\\include/mbedtls/cipher_internal.h"
 3269              		.file 6 "c:\\program files (x86)\\cypress\\psoc creator\\4.2\\psoc creator\\import\\gnu\\arm\\5.4.
 3270              		.file 7 ".\\Source\\mbedtls_open\\include/mbedtls/poly1305.h"
 3271              		.file 8 ".\\Source\\mbedtls_open\\include/mbedtls/chachapoly.h"
 3272              		.file 9 ".\\Source\\mbedtls_open\\include/mbedtls/chacha20.h"
 3273              		.file 10 ".\\Source\\mbedtls_open\\include/mbedtls/gcm.h"
 3274              		.file 11 "c:\\program files (x86)\\cypress\\psoc creator\\4.2\\psoc creator\\import\\gnu\\arm\\5.4
 3275              		.file 12 ".\\Source\\mbedtls_open\\include/mbedtls/platform_util.h"
ARM GAS  C:\Users\Phuong\AppData\Local\Temp\ccnzvfGe.s 			page 91


 3276              		.file 13 ".\\Source\\mbedtls_open\\include/mbedtls/ccm.h"
 3277              		.section	.debug_info,"",%progbits
 3278              	.Ldebug_info0:
 3279 0000 9B1C0000 		.4byte	0x1c9b
 3280 0004 0400     		.2byte	0x4
 3281 0006 00000000 		.4byte	.Ldebug_abbrev0
 3282 000a 04       		.byte	0x4
 3283 000b 01       		.uleb128 0x1
 3284 000c DE030000 		.4byte	.LASF251
 3285 0010 0C       		.byte	0xc
 3286 0011 E2120000 		.4byte	.LASF252
 3287 0015 29060000 		.4byte	.LASF253
 3288 0019 78000000 		.4byte	.Ldebug_ranges0+0x78
 3289 001d 00000000 		.4byte	0
 3290 0021 00000000 		.4byte	.Ldebug_line0
 3291 0025 02       		.uleb128 0x2
 3292 0026 01       		.byte	0x1
 3293 0027 06       		.byte	0x6
 3294 0028 70130000 		.4byte	.LASF0
 3295 002c 03       		.uleb128 0x3
 3296 002d BA100000 		.4byte	.LASF5
 3297 0031 03       		.byte	0x3
 3298 0032 1D       		.byte	0x1d
 3299 0033 37000000 		.4byte	0x37
 3300 0037 02       		.uleb128 0x2
 3301 0038 01       		.byte	0x1
 3302 0039 08       		.byte	0x8
 3303 003a F7110000 		.4byte	.LASF1
 3304 003e 02       		.uleb128 0x2
 3305 003f 02       		.byte	0x2
 3306 0040 05       		.byte	0x5
 3307 0041 180F0000 		.4byte	.LASF2
 3308 0045 02       		.uleb128 0x2
 3309 0046 02       		.byte	0x2
 3310 0047 07       		.byte	0x7
 3311 0048 9A130000 		.4byte	.LASF3
 3312 004c 02       		.uleb128 0x2
 3313 004d 04       		.byte	0x4
 3314 004e 05       		.byte	0x5
 3315 004f 410F0000 		.4byte	.LASF4
 3316 0053 03       		.uleb128 0x3
 3317 0054 05120000 		.4byte	.LASF6
 3318 0058 03       		.byte	0x3
 3319 0059 41       		.byte	0x41
 3320 005a 5E000000 		.4byte	0x5e
 3321 005e 02       		.uleb128 0x2
 3322 005f 04       		.byte	0x4
 3323 0060 07       		.byte	0x7
 3324 0061 68110000 		.4byte	.LASF7
 3325 0065 02       		.uleb128 0x2
 3326 0066 08       		.byte	0x8
 3327 0067 05       		.byte	0x5
 3328 0068 C00B0000 		.4byte	.LASF8
 3329 006c 03       		.uleb128 0x3
 3330 006d 70080000 		.4byte	.LASF9
 3331 0071 03       		.byte	0x3
 3332 0072 5B       		.byte	0x5b
ARM GAS  C:\Users\Phuong\AppData\Local\Temp\ccnzvfGe.s 			page 92


 3333 0073 77000000 		.4byte	0x77
 3334 0077 02       		.uleb128 0x2
 3335 0078 08       		.byte	0x8
 3336 0079 07       		.byte	0x7
 3337 007a F4040000 		.4byte	.LASF10
 3338 007e 04       		.uleb128 0x4
 3339 007f 04       		.byte	0x4
 3340 0080 05       		.byte	0x5
 3341 0081 696E7400 		.ascii	"int\000"
 3342 0085 02       		.uleb128 0x2
 3343 0086 04       		.byte	0x4
 3344 0087 07       		.byte	0x7
 3345 0088 F7000000 		.4byte	.LASF11
 3346 008c 03       		.uleb128 0x3
 3347 008d 72070000 		.4byte	.LASF12
 3348 0091 04       		.byte	0x4
 3349 0092 D8       		.byte	0xd8
 3350 0093 85000000 		.4byte	0x85
 3351 0097 02       		.uleb128 0x2
 3352 0098 08       		.byte	0x8
 3353 0099 04       		.byte	0x4
 3354 009a 250E0000 		.4byte	.LASF13
 3355 009e 05       		.uleb128 0x5
 3356 009f 01       		.byte	0x1
 3357 00a0 37000000 		.4byte	0x37
 3358 00a4 02       		.byte	0x2
 3359 00a5 51       		.byte	0x51
 3360 00a6 E7000000 		.4byte	0xe7
 3361 00aa 06       		.uleb128 0x6
 3362 00ab FB090000 		.4byte	.LASF14
 3363 00af 00       		.byte	0
 3364 00b0 06       		.uleb128 0x6
 3365 00b1 220F0000 		.4byte	.LASF15
 3366 00b5 01       		.byte	0x1
 3367 00b6 06       		.uleb128 0x6
 3368 00b7 4D0E0000 		.4byte	.LASF16
 3369 00bb 02       		.byte	0x2
 3370 00bc 06       		.uleb128 0x6
 3371 00bd AB110000 		.4byte	.LASF17
 3372 00c1 03       		.byte	0x3
 3373 00c2 06       		.uleb128 0x6
 3374 00c3 59130000 		.4byte	.LASF18
 3375 00c7 04       		.byte	0x4
 3376 00c8 06       		.uleb128 0x6
 3377 00c9 4D110000 		.4byte	.LASF19
 3378 00cd 05       		.byte	0x5
 3379 00ce 06       		.uleb128 0x6
 3380 00cf D8090000 		.4byte	.LASF20
 3381 00d3 06       		.byte	0x6
 3382 00d4 06       		.uleb128 0x6
 3383 00d5 BF080000 		.4byte	.LASF21
 3384 00d9 07       		.byte	0x7
 3385 00da 06       		.uleb128 0x6
 3386 00db 2D110000 		.4byte	.LASF22
 3387 00df 08       		.byte	0x8
 3388 00e0 06       		.uleb128 0x6
 3389 00e1 07130000 		.4byte	.LASF23
ARM GAS  C:\Users\Phuong\AppData\Local\Temp\ccnzvfGe.s 			page 93


 3390 00e5 09       		.byte	0x9
 3391 00e6 00       		.byte	0
 3392 00e7 03       		.uleb128 0x3
 3393 00e8 8A040000 		.4byte	.LASF24
 3394 00ec 02       		.byte	0x2
 3395 00ed 5C       		.byte	0x5c
 3396 00ee 9E000000 		.4byte	0x9e
 3397 00f2 05       		.uleb128 0x5
 3398 00f3 01       		.byte	0x1
 3399 00f4 37000000 		.4byte	0x37
 3400 00f8 02       		.byte	0x2
 3401 00f9 65       		.byte	0x65
 3402 00fa BB020000 		.4byte	0x2bb
 3403 00fe 06       		.uleb128 0x6
 3404 00ff E30C0000 		.4byte	.LASF25
 3405 0103 00       		.byte	0
 3406 0104 06       		.uleb128 0x6
 3407 0105 14010000 		.4byte	.LASF26
 3408 0109 01       		.byte	0x1
 3409 010a 06       		.uleb128 0x6
 3410 010b 59010000 		.4byte	.LASF27
 3411 010f 02       		.byte	0x2
 3412 0110 06       		.uleb128 0x6
 3413 0111 990A0000 		.4byte	.LASF28
 3414 0115 03       		.byte	0x3
 3415 0116 06       		.uleb128 0x6
 3416 0117 8A020000 		.4byte	.LASF29
 3417 011b 04       		.byte	0x4
 3418 011c 06       		.uleb128 0x6
 3419 011d 0B050000 		.4byte	.LASF30
 3420 0121 05       		.byte	0x5
 3421 0122 06       		.uleb128 0x6
 3422 0123 AD0D0000 		.4byte	.LASF31
 3423 0127 06       		.byte	0x6
 3424 0128 06       		.uleb128 0x6
 3425 0129 3C070000 		.4byte	.LASF32
 3426 012d 07       		.byte	0x7
 3427 012e 06       		.uleb128 0x6
 3428 012f 8C010000 		.4byte	.LASF33
 3429 0133 08       		.byte	0x8
 3430 0134 06       		.uleb128 0x6
 3431 0135 2F150000 		.4byte	.LASF34
 3432 0139 09       		.byte	0x9
 3433 013a 06       		.uleb128 0x6
 3434 013b 0C0D0000 		.4byte	.LASF35
 3435 013f 0A       		.byte	0xa
 3436 0140 06       		.uleb128 0x6
 3437 0141 6F0A0000 		.4byte	.LASF36
 3438 0145 0B       		.byte	0xb
 3439 0146 06       		.uleb128 0x6
 3440 0147 84110000 		.4byte	.LASF37
 3441 014b 0C       		.byte	0xc
 3442 014c 06       		.uleb128 0x6
 3443 014d 2E0C0000 		.4byte	.LASF38
 3444 0151 0D       		.byte	0xd
 3445 0152 06       		.uleb128 0x6
 3446 0153 4F0F0000 		.4byte	.LASF39
ARM GAS  C:\Users\Phuong\AppData\Local\Temp\ccnzvfGe.s 			page 94


 3447 0157 0E       		.byte	0xe
 3448 0158 06       		.uleb128 0x6
 3449 0159 26050000 		.4byte	.LASF40
 3450 015d 0F       		.byte	0xf
 3451 015e 06       		.uleb128 0x6
 3452 015f FB140000 		.4byte	.LASF41
 3453 0163 10       		.byte	0x10
 3454 0164 06       		.uleb128 0x6
 3455 0165 61020000 		.4byte	.LASF42
 3456 0169 11       		.byte	0x11
 3457 016a 06       		.uleb128 0x6
 3458 016b 510C0000 		.4byte	.LASF43
 3459 016f 12       		.byte	0x12
 3460 0170 06       		.uleb128 0x6
 3461 0171 B8040000 		.4byte	.LASF44
 3462 0175 13       		.byte	0x13
 3463 0176 06       		.uleb128 0x6
 3464 0177 12070000 		.4byte	.LASF45
 3465 017b 14       		.byte	0x14
 3466 017c 06       		.uleb128 0x6
 3467 017d AF0E0000 		.4byte	.LASF46
 3468 0181 15       		.byte	0x15
 3469 0182 06       		.uleb128 0x6
 3470 0183 D6080000 		.4byte	.LASF47
 3471 0187 16       		.byte	0x16
 3472 0188 06       		.uleb128 0x6
 3473 0189 6A0F0000 		.4byte	.LASF48
 3474 018d 17       		.byte	0x17
 3475 018e 06       		.uleb128 0x6
 3476 018f 2A0D0000 		.4byte	.LASF49
 3477 0193 18       		.byte	0x18
 3478 0194 06       		.uleb128 0x6
 3479 0195 0C020000 		.4byte	.LASF50
 3480 0199 19       		.byte	0x19
 3481 019a 06       		.uleb128 0x6
 3482 019b E20B0000 		.4byte	.LASF51
 3483 019f 1A       		.byte	0x1a
 3484 01a0 06       		.uleb128 0x6
 3485 01a1 44120000 		.4byte	.LASF52
 3486 01a5 1B       		.byte	0x1b
 3487 01a6 06       		.uleb128 0x6
 3488 01a7 650D0000 		.4byte	.LASF53
 3489 01ab 1C       		.byte	0x1c
 3490 01ac 06       		.uleb128 0x6
 3491 01ad A2140000 		.4byte	.LASF54
 3492 01b1 1D       		.byte	0x1d
 3493 01b2 06       		.uleb128 0x6
 3494 01b3 79070000 		.4byte	.LASF55
 3495 01b7 1E       		.byte	0x1e
 3496 01b8 06       		.uleb128 0x6
 3497 01b9 73000000 		.4byte	.LASF56
 3498 01bd 1F       		.byte	0x1f
 3499 01be 06       		.uleb128 0x6
 3500 01bf 8F0C0000 		.4byte	.LASF57
 3501 01c3 20       		.byte	0x20
 3502 01c4 06       		.uleb128 0x6
 3503 01c5 6F100000 		.4byte	.LASF58
ARM GAS  C:\Users\Phuong\AppData\Local\Temp\ccnzvfGe.s 			page 95


 3504 01c9 21       		.byte	0x21
 3505 01ca 06       		.uleb128 0x6
 3506 01cb E8020000 		.4byte	.LASF59
 3507 01cf 22       		.byte	0x22
 3508 01d0 06       		.uleb128 0x6
 3509 01d1 A7070000 		.4byte	.LASF60
 3510 01d5 23       		.byte	0x23
 3511 01d6 06       		.uleb128 0x6
 3512 01d7 A3080000 		.4byte	.LASF61
 3513 01db 24       		.byte	0x24
 3514 01dc 06       		.uleb128 0x6
 3515 01dd D2130000 		.4byte	.LASF62
 3516 01e1 25       		.byte	0x25
 3517 01e2 06       		.uleb128 0x6
 3518 01e3 3D130000 		.4byte	.LASF63
 3519 01e7 26       		.byte	0x26
 3520 01e8 06       		.uleb128 0x6
 3521 01e9 93000000 		.4byte	.LASF64
 3522 01ed 27       		.byte	0x27
 3523 01ee 06       		.uleb128 0x6
 3524 01ef BA090000 		.4byte	.LASF65
 3525 01f3 28       		.byte	0x28
 3526 01f4 06       		.uleb128 0x6
 3527 01f5 D8040000 		.4byte	.LASF66
 3528 01f9 29       		.byte	0x29
 3529 01fa 06       		.uleb128 0x6
 3530 01fb E10F0000 		.4byte	.LASF67
 3531 01ff 2A       		.byte	0x2a
 3532 0200 06       		.uleb128 0x6
 3533 0201 A50B0000 		.4byte	.LASF68
 3534 0205 2B       		.byte	0x2b
 3535 0206 06       		.uleb128 0x6
 3536 0207 FD0E0000 		.4byte	.LASF69
 3537 020b 2C       		.byte	0x2c
 3538 020c 06       		.uleb128 0x6
 3539 020d 3D090000 		.4byte	.LASF70
 3540 0211 2D       		.byte	0x2d
 3541 0212 06       		.uleb128 0x6
 3542 0213 0C090000 		.4byte	.LASF71
 3543 0217 2E       		.byte	0x2e
 3544 0218 06       		.uleb128 0x6
 3545 0219 3F100000 		.4byte	.LASF72
 3546 021d 2F       		.byte	0x2f
 3547 021e 06       		.uleb128 0x6
 3548 021f B40A0000 		.4byte	.LASF73
 3549 0223 30       		.byte	0x30
 3550 0224 06       		.uleb128 0x6
 3551 0225 EB010000 		.4byte	.LASF74
 3552 0229 31       		.byte	0x31
 3553 022a 06       		.uleb128 0x6
 3554 022b 890B0000 		.4byte	.LASF75
 3555 022f 32       		.byte	0x32
 3556 0230 06       		.uleb128 0x6
 3557 0231 83030000 		.4byte	.LASF76
 3558 0235 33       		.byte	0x33
 3559 0236 06       		.uleb128 0x6
 3560 0237 B7050000 		.4byte	.LASF77
ARM GAS  C:\Users\Phuong\AppData\Local\Temp\ccnzvfGe.s 			page 96


 3561 023b 34       		.byte	0x34
 3562 023c 06       		.uleb128 0x6
 3563 023d 310E0000 		.4byte	.LASF78
 3564 0241 35       		.byte	0x35
 3565 0242 06       		.uleb128 0x6
 3566 0243 2F080000 		.4byte	.LASF79
 3567 0247 36       		.byte	0x36
 3568 0248 06       		.uleb128 0x6
 3569 0249 BB010000 		.4byte	.LASF80
 3570 024d 37       		.byte	0x37
 3571 024e 06       		.uleb128 0x6
 3572 024f 5C150000 		.4byte	.LASF81
 3573 0253 38       		.byte	0x38
 3574 0254 06       		.uleb128 0x6
 3575 0255 0E0B0000 		.4byte	.LASF82
 3576 0259 39       		.byte	0x39
 3577 025a 06       		.uleb128 0x6
 3578 025b 2D0B0000 		.4byte	.LASF83
 3579 025f 3A       		.byte	0x3a
 3580 0260 06       		.uleb128 0x6
 3581 0261 D6110000 		.4byte	.LASF84
 3582 0265 3B       		.byte	0x3b
 3583 0266 06       		.uleb128 0x6
 3584 0267 AD0C0000 		.4byte	.LASF85
 3585 026b 3C       		.byte	0x3c
 3586 026c 06       		.uleb128 0x6
 3587 026d 19140000 		.4byte	.LASF86
 3588 0271 3D       		.byte	0x3d
 3589 0272 06       		.uleb128 0x6
 3590 0273 0D060000 		.4byte	.LASF87
 3591 0277 3E       		.byte	0x3e
 3592 0278 06       		.uleb128 0x6
 3593 0279 2D000000 		.4byte	.LASF88
 3594 027d 3F       		.byte	0x3f
 3595 027e 06       		.uleb128 0x6
 3596 027f 54080000 		.4byte	.LASF89
 3597 0283 40       		.byte	0x40
 3598 0284 06       		.uleb128 0x6
 3599 0285 8D0F0000 		.4byte	.LASF90
 3600 0289 41       		.byte	0x41
 3601 028a 06       		.uleb128 0x6
 3602 028b 120A0000 		.4byte	.LASF91
 3603 028f 42       		.byte	0x42
 3604 0290 06       		.uleb128 0x6
 3605 0291 6B050000 		.4byte	.LASF92
 3606 0295 43       		.byte	0x43
 3607 0296 06       		.uleb128 0x6
 3608 0297 0A0E0000 		.4byte	.LASF93
 3609 029b 44       		.byte	0x44
 3610 029c 06       		.uleb128 0x6
 3611 029d F6070000 		.4byte	.LASF94
 3612 02a1 45       		.byte	0x45
 3613 02a2 06       		.uleb128 0x6
 3614 02a3 12110000 		.4byte	.LASF95
 3615 02a7 46       		.byte	0x46
 3616 02a8 06       		.uleb128 0x6
 3617 02a9 29120000 		.4byte	.LASF96
ARM GAS  C:\Users\Phuong\AppData\Local\Temp\ccnzvfGe.s 			page 97


 3618 02ad 47       		.byte	0x47
 3619 02ae 06       		.uleb128 0x6
 3620 02af C6030000 		.4byte	.LASF97
 3621 02b3 48       		.byte	0x48
 3622 02b4 06       		.uleb128 0x6
 3623 02b5 F1100000 		.4byte	.LASF98
 3624 02b9 49       		.byte	0x49
 3625 02ba 00       		.byte	0
 3626 02bb 03       		.uleb128 0x3
 3627 02bc E1000000 		.4byte	.LASF99
 3628 02c0 02       		.byte	0x2
 3629 02c1 B0       		.byte	0xb0
 3630 02c2 F2000000 		.4byte	0xf2
 3631 02c6 05       		.uleb128 0x5
 3632 02c7 01       		.byte	0x1
 3633 02c8 37000000 		.4byte	0x37
 3634 02cc 02       		.byte	0x2
 3635 02cd B3       		.byte	0xb3
 3636 02ce 15030000 		.4byte	0x315
 3637 02d2 06       		.uleb128 0x6
 3638 02d3 1D080000 		.4byte	.LASF100
 3639 02d7 00       		.byte	0
 3640 02d8 06       		.uleb128 0x6
 3641 02d9 F90F0000 		.4byte	.LASF101
 3642 02dd 01       		.byte	0x1
 3643 02de 06       		.uleb128 0x6
 3644 02df 78120000 		.4byte	.LASF102
 3645 02e3 02       		.byte	0x2
 3646 02e4 06       		.uleb128 0x6
 3647 02e5 AA010000 		.4byte	.LASF103
 3648 02e9 03       		.byte	0x3
 3649 02ea 06       		.uleb128 0x6
 3650 02eb A2120000 		.4byte	.LASF104
 3651 02ef 04       		.byte	0x4
 3652 02f0 06       		.uleb128 0x6
 3653 02f1 CA000000 		.4byte	.LASF105
 3654 02f5 05       		.byte	0x5
 3655 02f6 06       		.uleb128 0x6
 3656 02f7 710C0000 		.4byte	.LASF106
 3657 02fb 06       		.byte	0x6
 3658 02fc 06       		.uleb128 0x6
 3659 02fd 470A0000 		.4byte	.LASF107
 3660 0301 07       		.byte	0x7
 3661 0302 06       		.uleb128 0x6
 3662 0303 08140000 		.4byte	.LASF108
 3663 0307 08       		.byte	0x8
 3664 0308 06       		.uleb128 0x6
 3665 0309 2C090000 		.4byte	.LASF109
 3666 030d 09       		.byte	0x9
 3667 030e 06       		.uleb128 0x6
 3668 030f 4D0D0000 		.4byte	.LASF110
 3669 0313 0A       		.byte	0xa
 3670 0314 00       		.byte	0
 3671 0315 03       		.uleb128 0x3
 3672 0316 55050000 		.4byte	.LASF111
 3673 031a 02       		.byte	0x2
 3674 031b BF       		.byte	0xbf
ARM GAS  C:\Users\Phuong\AppData\Local\Temp\ccnzvfGe.s 			page 98


 3675 031c C6020000 		.4byte	0x2c6
 3676 0320 05       		.uleb128 0x5
 3677 0321 01       		.byte	0x1
 3678 0322 37000000 		.4byte	0x37
 3679 0326 02       		.byte	0x2
 3680 0327 C2       		.byte	0xc2
 3681 0328 4B030000 		.4byte	0x34b
 3682 032c 06       		.uleb128 0x6
 3683 032d 35140000 		.4byte	.LASF112
 3684 0331 00       		.byte	0
 3685 0332 06       		.uleb128 0x6
 3686 0333 630E0000 		.4byte	.LASF113
 3687 0337 01       		.byte	0x1
 3688 0338 06       		.uleb128 0x6
 3689 0339 7C130000 		.4byte	.LASF114
 3690 033d 02       		.byte	0x2
 3691 033e 06       		.uleb128 0x6
 3692 033f 86100000 		.4byte	.LASF115
 3693 0343 03       		.byte	0x3
 3694 0344 06       		.uleb128 0x6
 3695 0345 57030000 		.4byte	.LASF116
 3696 0349 04       		.byte	0x4
 3697 034a 00       		.byte	0
 3698 034b 03       		.uleb128 0x3
 3699 034c 24030000 		.4byte	.LASF117
 3700 0350 02       		.byte	0x2
 3701 0351 C8       		.byte	0xc8
 3702 0352 20030000 		.4byte	0x320
 3703 0356 05       		.uleb128 0x5
 3704 0357 01       		.byte	0x1
 3705 0358 25000000 		.4byte	0x25
 3706 035c 02       		.byte	0x2
 3707 035d CB       		.byte	0xcb
 3708 035e 75030000 		.4byte	0x375
 3709 0362 07       		.uleb128 0x7
 3710 0363 6C030000 		.4byte	.LASF118
 3711 0367 7F       		.sleb128 -1
 3712 0368 06       		.uleb128 0x6
 3713 0369 A7050000 		.4byte	.LASF119
 3714 036d 00       		.byte	0
 3715 036e 06       		.uleb128 0x6
 3716 036f 97050000 		.4byte	.LASF120
 3717 0373 01       		.byte	0x1
 3718 0374 00       		.byte	0
 3719 0375 03       		.uleb128 0x3
 3720 0376 4D020000 		.4byte	.LASF121
 3721 037a 02       		.byte	0x2
 3722 037b CF       		.byte	0xcf
 3723 037c 56030000 		.4byte	0x356
 3724 0380 03       		.uleb128 0x3
 3725 0381 28010000 		.4byte	.LASF122
 3726 0385 02       		.byte	0x2
 3727 0386 E4       		.byte	0xe4
 3728 0387 8B030000 		.4byte	0x38b
 3729 038b 08       		.uleb128 0x8
 3730 038c 28010000 		.4byte	.LASF122
 3731 0390 2C       		.byte	0x2c
ARM GAS  C:\Users\Phuong\AppData\Local\Temp\ccnzvfGe.s 			page 99


 3732 0391 05       		.byte	0x5
 3733 0392 2C       		.byte	0x2c
 3734 0393 1C040000 		.4byte	0x41c
 3735 0397 09       		.uleb128 0x9
 3736 0398 8A0A0000 		.4byte	.LASF123
 3737 039c 05       		.byte	0x5
 3738 039d 2F       		.byte	0x2f
 3739 039e E7000000 		.4byte	0xe7
 3740 03a2 00       		.byte	0
 3741 03a3 09       		.uleb128 0x9
 3742 03a4 81020000 		.4byte	.LASF124
 3743 03a8 05       		.byte	0x5
 3744 03a9 32       		.byte	0x32
 3745 03aa E5050000 		.4byte	0x5e5
 3746 03ae 04       		.byte	0x4
 3747 03af 09       		.uleb128 0x9
 3748 03b0 CE0B0000 		.4byte	.LASF125
 3749 03b4 05       		.byte	0x5
 3750 03b5 37       		.byte	0x37
 3751 03b6 13060000 		.4byte	0x613
 3752 03ba 08       		.byte	0x8
 3753 03bb 09       		.uleb128 0x9
 3754 03bc 83010000 		.4byte	.LASF126
 3755 03c0 05       		.byte	0x5
 3756 03c1 3E       		.byte	0x3e
 3757 03c2 46060000 		.4byte	0x646
 3758 03c6 0C       		.byte	0xc
 3759 03c7 09       		.uleb128 0x9
 3760 03c8 91090000 		.4byte	.LASF127
 3761 03cc 05       		.byte	0x5
 3762 03cd 45       		.byte	0x45
 3763 03ce 74060000 		.4byte	0x674
 3764 03d2 10       		.byte	0x10
 3765 03d3 09       		.uleb128 0x9
 3766 03d4 C80D0000 		.4byte	.LASF128
 3767 03d8 05       		.byte	0x5
 3768 03d9 4D       		.byte	0x4d
 3769 03da A7060000 		.4byte	0x6a7
 3770 03de 14       		.byte	0x14
 3771 03df 09       		.uleb128 0x9
 3772 03e0 CA070000 		.4byte	.LASF129
 3773 03e4 05       		.byte	0x5
 3774 03e5 5B       		.byte	0x5b
 3775 03e6 CB060000 		.4byte	0x6cb
 3776 03ea 18       		.byte	0x18
 3777 03eb 09       		.uleb128 0x9
 3778 03ec 04010000 		.4byte	.LASF130
 3779 03f0 05       		.byte	0x5
 3780 03f1 60       		.byte	0x60
 3781 03f2 EA060000 		.4byte	0x6ea
 3782 03f6 1C       		.byte	0x1c
 3783 03f7 09       		.uleb128 0x9
 3784 03f8 5F100000 		.4byte	.LASF131
 3785 03fc 05       		.byte	0x5
 3786 03fd 64       		.byte	0x64
 3787 03fe EA060000 		.4byte	0x6ea
 3788 0402 20       		.byte	0x20
ARM GAS  C:\Users\Phuong\AppData\Local\Temp\ccnzvfGe.s 			page 100


 3789 0403 09       		.uleb128 0x9
 3790 0404 4D150000 		.4byte	.LASF132
 3791 0408 05       		.byte	0x5
 3792 0409 68       		.byte	0x68
 3793 040a F5060000 		.4byte	0x6f5
 3794 040e 24       		.byte	0x24
 3795 040f 09       		.uleb128 0x9
 3796 0410 99070000 		.4byte	.LASF133
 3797 0414 05       		.byte	0x5
 3798 0415 6B       		.byte	0x6b
 3799 0416 06070000 		.4byte	0x706
 3800 041a 28       		.byte	0x28
 3801 041b 00       		.byte	0
 3802 041c 08       		.uleb128 0x8
 3803 041d F7050000 		.4byte	.LASF134
 3804 0421 1C       		.byte	0x1c
 3805 0422 02       		.byte	0x2
 3806 0423 EF       		.byte	0xef
 3807 0424 8E040000 		.4byte	0x48e
 3808 0428 09       		.uleb128 0x9
 3809 0429 F2110000 		.4byte	.LASF135
 3810 042d 02       		.byte	0x2
 3811 042e F4       		.byte	0xf4
 3812 042f BB020000 		.4byte	0x2bb
 3813 0433 00       		.byte	0
 3814 0434 09       		.uleb128 0x9
 3815 0435 07020000 		.4byte	.LASF136
 3816 0439 02       		.byte	0x2
 3817 043a F7       		.byte	0xf7
 3818 043b 15030000 		.4byte	0x315
 3819 043f 01       		.byte	0x1
 3820 0440 09       		.uleb128 0x9
 3821 0441 A40E0000 		.4byte	.LASF137
 3822 0445 02       		.byte	0x2
 3823 0446 FD       		.byte	0xfd
 3824 0447 85000000 		.4byte	0x85
 3825 044b 04       		.byte	0x4
 3826 044c 0A       		.uleb128 0xa
 3827 044d CF100000 		.4byte	.LASF138
 3828 0451 02       		.byte	0x2
 3829 0452 0001     		.2byte	0x100
 3830 0454 8E040000 		.4byte	0x48e
 3831 0458 08       		.byte	0x8
 3832 0459 0A       		.uleb128 0xa
 3833 045a 490C0000 		.4byte	.LASF139
 3834 045e 02       		.byte	0x2
 3835 045f 0601     		.2byte	0x106
 3836 0461 85000000 		.4byte	0x85
 3837 0465 0C       		.byte	0xc
 3838 0466 0A       		.uleb128 0xa
 3839 0467 DB000000 		.4byte	.LASF140
 3840 046b 02       		.byte	0x2
 3841 046c 0C01     		.2byte	0x10c
 3842 046e 7E000000 		.4byte	0x7e
 3843 0472 10       		.byte	0x10
 3844 0473 0A       		.uleb128 0xa
 3845 0474 1F100000 		.4byte	.LASF141
ARM GAS  C:\Users\Phuong\AppData\Local\Temp\ccnzvfGe.s 			page 101


 3846 0478 02       		.byte	0x2
 3847 0479 0F01     		.2byte	0x10f
 3848 047b 85000000 		.4byte	0x85
 3849 047f 14       		.byte	0x14
 3850 0480 0A       		.uleb128 0xa
 3851 0481 85040000 		.4byte	.LASF142
 3852 0485 02       		.byte	0x2
 3853 0486 1201     		.2byte	0x112
 3854 0488 A0040000 		.4byte	0x4a0
 3855 048c 18       		.byte	0x18
 3856 048d 00       		.byte	0
 3857 048e 0B       		.uleb128 0xb
 3858 048f 04       		.byte	0x4
 3859 0490 9B040000 		.4byte	0x49b
 3860 0494 02       		.uleb128 0x2
 3861 0495 01       		.byte	0x1
 3862 0496 08       		.byte	0x8
 3863 0497 B5090000 		.4byte	.LASF143
 3864 049b 0C       		.uleb128 0xc
 3865 049c 94040000 		.4byte	0x494
 3866 04a0 0B       		.uleb128 0xb
 3867 04a1 04       		.byte	0x4
 3868 04a2 A6040000 		.4byte	0x4a6
 3869 04a6 0C       		.uleb128 0xc
 3870 04a7 80030000 		.4byte	0x380
 3871 04ab 0D       		.uleb128 0xd
 3872 04ac F7050000 		.4byte	.LASF134
 3873 04b0 02       		.byte	0x2
 3874 04b1 1401     		.2byte	0x114
 3875 04b3 1C040000 		.4byte	0x41c
 3876 04b7 0E       		.uleb128 0xe
 3877 04b8 C9120000 		.4byte	.LASF144
 3878 04bc 40       		.byte	0x40
 3879 04bd 02       		.byte	0x2
 3880 04be 1901     		.2byte	0x119
 3881 04c0 46050000 		.4byte	0x546
 3882 04c4 0A       		.uleb128 0xa
 3883 04c5 AE100000 		.4byte	.LASF145
 3884 04c9 02       		.byte	0x2
 3885 04ca 1C01     		.2byte	0x11c
 3886 04cc 46050000 		.4byte	0x546
 3887 04d0 00       		.byte	0
 3888 04d1 0A       		.uleb128 0xa
 3889 04d2 A40E0000 		.4byte	.LASF137
 3890 04d6 02       		.byte	0x2
 3891 04d7 1F01     		.2byte	0x11f
 3892 04d9 7E000000 		.4byte	0x7e
 3893 04dd 04       		.byte	0x4
 3894 04de 0A       		.uleb128 0xa
 3895 04df 62000000 		.4byte	.LASF146
 3896 04e3 02       		.byte	0x2
 3897 04e4 2401     		.2byte	0x124
 3898 04e6 75030000 		.4byte	0x375
 3899 04ea 08       		.byte	0x8
 3900 04eb 0A       		.uleb128 0xa
 3901 04ec 67140000 		.4byte	.LASF147
 3902 04f0 02       		.byte	0x2
ARM GAS  C:\Users\Phuong\AppData\Local\Temp\ccnzvfGe.s 			page 102


 3903 04f1 2A01     		.2byte	0x12a
 3904 04f3 6C050000 		.4byte	0x56c
 3905 04f7 0C       		.byte	0xc
 3906 04f8 0A       		.uleb128 0xa
 3907 04f9 13100000 		.4byte	.LASF148
 3908 04fd 02       		.byte	0x2
 3909 04fe 2B01     		.2byte	0x12b
 3910 0500 91050000 		.4byte	0x591
 3911 0504 10       		.byte	0x10
 3912 0505 0A       		.uleb128 0xa
 3913 0506 73140000 		.4byte	.LASF149
 3914 050a 02       		.byte	0x2
 3915 050b 2F01     		.2byte	0x12f
 3916 050d 97050000 		.4byte	0x597
 3917 0511 14       		.byte	0x14
 3918 0512 0A       		.uleb128 0xa
 3919 0513 62070000 		.4byte	.LASF150
 3920 0517 02       		.byte	0x2
 3921 0518 3201     		.2byte	0x132
 3922 051a 8C000000 		.4byte	0x8c
 3923 051e 24       		.byte	0x24
 3924 051f 0F       		.uleb128 0xf
 3925 0520 697600   		.ascii	"iv\000"
 3926 0523 02       		.byte	0x2
 3927 0524 3601     		.2byte	0x136
 3928 0526 97050000 		.4byte	0x597
 3929 052a 28       		.byte	0x28
 3930 052b 0A       		.uleb128 0xa
 3931 052c 490C0000 		.4byte	.LASF139
 3932 0530 02       		.byte	0x2
 3933 0531 3901     		.2byte	0x139
 3934 0533 8C000000 		.4byte	0x8c
 3935 0537 38       		.byte	0x38
 3936 0538 0A       		.uleb128 0xa
 3937 0539 C4100000 		.4byte	.LASF151
 3938 053d 02       		.byte	0x2
 3939 053e 3C01     		.2byte	0x13c
 3940 0540 AE050000 		.4byte	0x5ae
 3941 0544 3C       		.byte	0x3c
 3942 0545 00       		.byte	0
 3943 0546 0B       		.uleb128 0xb
 3944 0547 04       		.byte	0x4
 3945 0548 4C050000 		.4byte	0x54c
 3946 054c 0C       		.uleb128 0xc
 3947 054d AB040000 		.4byte	0x4ab
 3948 0551 10       		.uleb128 0x10
 3949 0552 66050000 		.4byte	0x566
 3950 0556 11       		.uleb128 0x11
 3951 0557 66050000 		.4byte	0x566
 3952 055b 11       		.uleb128 0x11
 3953 055c 8C000000 		.4byte	0x8c
 3954 0560 11       		.uleb128 0x11
 3955 0561 8C000000 		.4byte	0x8c
 3956 0565 00       		.byte	0
 3957 0566 0B       		.uleb128 0xb
 3958 0567 04       		.byte	0x4
 3959 0568 37000000 		.4byte	0x37
ARM GAS  C:\Users\Phuong\AppData\Local\Temp\ccnzvfGe.s 			page 103


 3960 056c 0B       		.uleb128 0xb
 3961 056d 04       		.byte	0x4
 3962 056e 51050000 		.4byte	0x551
 3963 0572 12       		.uleb128 0x12
 3964 0573 7E000000 		.4byte	0x7e
 3965 0577 8B050000 		.4byte	0x58b
 3966 057b 11       		.uleb128 0x11
 3967 057c 66050000 		.4byte	0x566
 3968 0580 11       		.uleb128 0x11
 3969 0581 8C000000 		.4byte	0x8c
 3970 0585 11       		.uleb128 0x11
 3971 0586 8B050000 		.4byte	0x58b
 3972 058a 00       		.byte	0
 3973 058b 0B       		.uleb128 0xb
 3974 058c 04       		.byte	0x4
 3975 058d 8C000000 		.4byte	0x8c
 3976 0591 0B       		.uleb128 0xb
 3977 0592 04       		.byte	0x4
 3978 0593 72050000 		.4byte	0x572
 3979 0597 13       		.uleb128 0x13
 3980 0598 37000000 		.4byte	0x37
 3981 059c A7050000 		.4byte	0x5a7
 3982 05a0 14       		.uleb128 0x14
 3983 05a1 A7050000 		.4byte	0x5a7
 3984 05a5 0F       		.byte	0xf
 3985 05a6 00       		.byte	0
 3986 05a7 02       		.uleb128 0x2
 3987 05a8 04       		.byte	0x4
 3988 05a9 07       		.byte	0x7
 3989 05aa 44110000 		.4byte	.LASF152
 3990 05ae 15       		.uleb128 0x15
 3991 05af 04       		.byte	0x4
 3992 05b0 0D       		.uleb128 0xd
 3993 05b1 C9120000 		.4byte	.LASF144
 3994 05b5 02       		.byte	0x2
 3995 05b6 4201     		.2byte	0x142
 3996 05b8 B7040000 		.4byte	0x4b7
 3997 05bc 12       		.uleb128 0x12
 3998 05bd 7E000000 		.4byte	0x7e
 3999 05c1 DA050000 		.4byte	0x5da
 4000 05c5 11       		.uleb128 0x11
 4001 05c6 AE050000 		.4byte	0x5ae
 4002 05ca 11       		.uleb128 0x11
 4003 05cb 75030000 		.4byte	0x375
 4004 05cf 11       		.uleb128 0x11
 4005 05d0 DA050000 		.4byte	0x5da
 4006 05d4 11       		.uleb128 0x11
 4007 05d5 66050000 		.4byte	0x566
 4008 05d9 00       		.byte	0
 4009 05da 0B       		.uleb128 0xb
 4010 05db 04       		.byte	0x4
 4011 05dc E0050000 		.4byte	0x5e0
 4012 05e0 0C       		.uleb128 0xc
 4013 05e1 37000000 		.4byte	0x37
 4014 05e5 0B       		.uleb128 0xb
 4015 05e6 04       		.byte	0x4
 4016 05e7 BC050000 		.4byte	0x5bc
ARM GAS  C:\Users\Phuong\AppData\Local\Temp\ccnzvfGe.s 			page 104


 4017 05eb 12       		.uleb128 0x12
 4018 05ec 7E000000 		.4byte	0x7e
 4019 05f0 13060000 		.4byte	0x613
 4020 05f4 11       		.uleb128 0x11
 4021 05f5 AE050000 		.4byte	0x5ae
 4022 05f9 11       		.uleb128 0x11
 4023 05fa 75030000 		.4byte	0x375
 4024 05fe 11       		.uleb128 0x11
 4025 05ff 8C000000 		.4byte	0x8c
 4026 0603 11       		.uleb128 0x11
 4027 0604 66050000 		.4byte	0x566
 4028 0608 11       		.uleb128 0x11
 4029 0609 DA050000 		.4byte	0x5da
 4030 060d 11       		.uleb128 0x11
 4031 060e 66050000 		.4byte	0x566
 4032 0612 00       		.byte	0
 4033 0613 0B       		.uleb128 0xb
 4034 0614 04       		.byte	0x4
 4035 0615 EB050000 		.4byte	0x5eb
 4036 0619 12       		.uleb128 0x12
 4037 061a 7E000000 		.4byte	0x7e
 4038 061e 46060000 		.4byte	0x646
 4039 0622 11       		.uleb128 0x11
 4040 0623 AE050000 		.4byte	0x5ae
 4041 0627 11       		.uleb128 0x11
 4042 0628 75030000 		.4byte	0x375
 4043 062c 11       		.uleb128 0x11
 4044 062d 8C000000 		.4byte	0x8c
 4045 0631 11       		.uleb128 0x11
 4046 0632 8B050000 		.4byte	0x58b
 4047 0636 11       		.uleb128 0x11
 4048 0637 66050000 		.4byte	0x566
 4049 063b 11       		.uleb128 0x11
 4050 063c DA050000 		.4byte	0x5da
 4051 0640 11       		.uleb128 0x11
 4052 0641 66050000 		.4byte	0x566
 4053 0645 00       		.byte	0
 4054 0646 0B       		.uleb128 0xb
 4055 0647 04       		.byte	0x4
 4056 0648 19060000 		.4byte	0x619
 4057 064c 12       		.uleb128 0x12
 4058 064d 7E000000 		.4byte	0x7e
 4059 0651 74060000 		.4byte	0x674
 4060 0655 11       		.uleb128 0x11
 4061 0656 AE050000 		.4byte	0x5ae
 4062 065a 11       		.uleb128 0x11
 4063 065b 8C000000 		.4byte	0x8c
 4064 065f 11       		.uleb128 0x11
 4065 0660 8B050000 		.4byte	0x58b
 4066 0664 11       		.uleb128 0x11
 4067 0665 66050000 		.4byte	0x566
 4068 0669 11       		.uleb128 0x11
 4069 066a DA050000 		.4byte	0x5da
 4070 066e 11       		.uleb128 0x11
 4071 066f 66050000 		.4byte	0x566
 4072 0673 00       		.byte	0
 4073 0674 0B       		.uleb128 0xb
ARM GAS  C:\Users\Phuong\AppData\Local\Temp\ccnzvfGe.s 			page 105


 4074 0675 04       		.byte	0x4
 4075 0676 4C060000 		.4byte	0x64c
 4076 067a 12       		.uleb128 0x12
 4077 067b 7E000000 		.4byte	0x7e
 4078 067f A7060000 		.4byte	0x6a7
 4079 0683 11       		.uleb128 0x11
 4080 0684 AE050000 		.4byte	0x5ae
 4081 0688 11       		.uleb128 0x11
 4082 0689 8C000000 		.4byte	0x8c
 4083 068d 11       		.uleb128 0x11
 4084 068e 8B050000 		.4byte	0x58b
 4085 0692 11       		.uleb128 0x11
 4086 0693 66050000 		.4byte	0x566
 4087 0697 11       		.uleb128 0x11
 4088 0698 66050000 		.4byte	0x566
 4089 069c 11       		.uleb128 0x11
 4090 069d DA050000 		.4byte	0x5da
 4091 06a1 11       		.uleb128 0x11
 4092 06a2 66050000 		.4byte	0x566
 4093 06a6 00       		.byte	0
 4094 06a7 0B       		.uleb128 0xb
 4095 06a8 04       		.byte	0x4
 4096 06a9 7A060000 		.4byte	0x67a
 4097 06ad 12       		.uleb128 0x12
 4098 06ae 7E000000 		.4byte	0x7e
 4099 06b2 CB060000 		.4byte	0x6cb
 4100 06b6 11       		.uleb128 0x11
 4101 06b7 AE050000 		.4byte	0x5ae
 4102 06bb 11       		.uleb128 0x11
 4103 06bc 8C000000 		.4byte	0x8c
 4104 06c0 11       		.uleb128 0x11
 4105 06c1 DA050000 		.4byte	0x5da
 4106 06c5 11       		.uleb128 0x11
 4107 06c6 66050000 		.4byte	0x566
 4108 06ca 00       		.byte	0
 4109 06cb 0B       		.uleb128 0xb
 4110 06cc 04       		.byte	0x4
 4111 06cd AD060000 		.4byte	0x6ad
 4112 06d1 12       		.uleb128 0x12
 4113 06d2 7E000000 		.4byte	0x7e
 4114 06d6 EA060000 		.4byte	0x6ea
 4115 06da 11       		.uleb128 0x11
 4116 06db AE050000 		.4byte	0x5ae
 4117 06df 11       		.uleb128 0x11
 4118 06e0 DA050000 		.4byte	0x5da
 4119 06e4 11       		.uleb128 0x11
 4120 06e5 85000000 		.4byte	0x85
 4121 06e9 00       		.byte	0
 4122 06ea 0B       		.uleb128 0xb
 4123 06eb 04       		.byte	0x4
 4124 06ec D1060000 		.4byte	0x6d1
 4125 06f0 16       		.uleb128 0x16
 4126 06f1 AE050000 		.4byte	0x5ae
 4127 06f5 0B       		.uleb128 0xb
 4128 06f6 04       		.byte	0x4
 4129 06f7 F0060000 		.4byte	0x6f0
 4130 06fb 10       		.uleb128 0x10
ARM GAS  C:\Users\Phuong\AppData\Local\Temp\ccnzvfGe.s 			page 106


 4131 06fc 06070000 		.4byte	0x706
 4132 0700 11       		.uleb128 0x11
 4133 0701 AE050000 		.4byte	0x5ae
 4134 0705 00       		.byte	0
 4135 0706 0B       		.uleb128 0xb
 4136 0707 04       		.byte	0x4
 4137 0708 FB060000 		.4byte	0x6fb
 4138 070c 17       		.uleb128 0x17
 4139 070d 08       		.byte	0x8
 4140 070e 05       		.byte	0x5
 4141 070f 6F       		.byte	0x6f
 4142 0710 2D070000 		.4byte	0x72d
 4143 0714 09       		.uleb128 0x9
 4144 0715 F2110000 		.4byte	.LASF135
 4145 0719 05       		.byte	0x5
 4146 071a 71       		.byte	0x71
 4147 071b BB020000 		.4byte	0x2bb
 4148 071f 00       		.byte	0
 4149 0720 09       		.uleb128 0x9
 4150 0721 850D0000 		.4byte	.LASF153
 4151 0725 05       		.byte	0x5
 4152 0726 72       		.byte	0x72
 4153 0727 46050000 		.4byte	0x546
 4154 072b 04       		.byte	0x4
 4155 072c 00       		.byte	0
 4156 072d 03       		.uleb128 0x3
 4157 072e A90F0000 		.4byte	.LASF154
 4158 0732 05       		.byte	0x5
 4159 0733 73       		.byte	0x73
 4160 0734 0C070000 		.4byte	0x70c
 4161 0738 0B       		.uleb128 0xb
 4162 0739 04       		.byte	0x4
 4163 073a 3E070000 		.4byte	0x73e
 4164 073e 18       		.uleb128 0x18
 4165 073f 03       		.uleb128 0x3
 4166 0740 910A0000 		.4byte	.LASF155
 4167 0744 06       		.byte	0x6
 4168 0745 18       		.byte	0x18
 4169 0746 2C000000 		.4byte	0x2c
 4170 074a 03       		.uleb128 0x3
 4171 074b 1B030000 		.4byte	.LASF156
 4172 074f 06       		.byte	0x6
 4173 0750 30       		.byte	0x30
 4174 0751 53000000 		.4byte	0x53
 4175 0755 03       		.uleb128 0x3
 4176 0756 0A100000 		.4byte	.LASF157
 4177 075a 06       		.byte	0x6
 4178 075b 3C       		.byte	0x3c
 4179 075c 6C000000 		.4byte	0x6c
 4180 0760 08       		.uleb128 0x8
 4181 0761 49000000 		.4byte	.LASF158
 4182 0765 48       		.byte	0x48
 4183 0766 07       		.byte	0x7
 4184 0767 37       		.byte	0x37
 4185 0768 A5070000 		.4byte	0x7a5
 4186 076c 19       		.uleb128 0x19
 4187 076d 7200     		.ascii	"r\000"
ARM GAS  C:\Users\Phuong\AppData\Local\Temp\ccnzvfGe.s 			page 107


 4188 076f 07       		.byte	0x7
 4189 0770 39       		.byte	0x39
 4190 0771 A5070000 		.4byte	0x7a5
 4191 0775 00       		.byte	0
 4192 0776 19       		.uleb128 0x19
 4193 0777 7300     		.ascii	"s\000"
 4194 0779 07       		.byte	0x7
 4195 077a 3A       		.byte	0x3a
 4196 077b A5070000 		.4byte	0x7a5
 4197 077f 10       		.byte	0x10
 4198 0780 19       		.uleb128 0x19
 4199 0781 61636300 		.ascii	"acc\000"
 4200 0785 07       		.byte	0x7
 4201 0786 3B       		.byte	0x3b
 4202 0787 B5070000 		.4byte	0x7b5
 4203 078b 20       		.byte	0x20
 4204 078c 09       		.uleb128 0x9
 4205 078d 9F110000 		.4byte	.LASF159
 4206 0791 07       		.byte	0x7
 4207 0792 3C       		.byte	0x3c
 4208 0793 C5070000 		.4byte	0x7c5
 4209 0797 34       		.byte	0x34
 4210 0798 09       		.uleb128 0x9
 4211 0799 32070000 		.4byte	.LASF160
 4212 079d 07       		.byte	0x7
 4213 079e 3D       		.byte	0x3d
 4214 079f 8C000000 		.4byte	0x8c
 4215 07a3 44       		.byte	0x44
 4216 07a4 00       		.byte	0
 4217 07a5 13       		.uleb128 0x13
 4218 07a6 4A070000 		.4byte	0x74a
 4219 07aa B5070000 		.4byte	0x7b5
 4220 07ae 14       		.uleb128 0x14
 4221 07af A7050000 		.4byte	0x5a7
 4222 07b3 03       		.byte	0x3
 4223 07b4 00       		.byte	0
 4224 07b5 13       		.uleb128 0x13
 4225 07b6 4A070000 		.4byte	0x74a
 4226 07ba C5070000 		.4byte	0x7c5
 4227 07be 14       		.uleb128 0x14
 4228 07bf A7050000 		.4byte	0x5a7
 4229 07c3 04       		.byte	0x4
 4230 07c4 00       		.byte	0
 4231 07c5 13       		.uleb128 0x13
 4232 07c6 3F070000 		.4byte	0x73f
 4233 07ca D5070000 		.4byte	0x7d5
 4234 07ce 14       		.uleb128 0x14
 4235 07cf A7050000 		.4byte	0x5a7
 4236 07d3 0F       		.byte	0xf
 4237 07d4 00       		.byte	0
 4238 07d5 03       		.uleb128 0x3
 4239 07d6 49000000 		.4byte	.LASF158
 4240 07da 07       		.byte	0x7
 4241 07db 3F       		.byte	0x3f
 4242 07dc 60070000 		.4byte	0x760
 4243 07e0 05       		.uleb128 0x5
 4244 07e1 01       		.byte	0x1
ARM GAS  C:\Users\Phuong\AppData\Local\Temp\ccnzvfGe.s 			page 108


 4245 07e2 37000000 		.4byte	0x37
 4246 07e6 08       		.byte	0x8
 4247 07e7 35       		.byte	0x35
 4248 07e8 F9070000 		.4byte	0x7f9
 4249 07ec 06       		.uleb128 0x6
 4250 07ed 67090000 		.4byte	.LASF161
 4251 07f1 00       		.byte	0
 4252 07f2 06       		.uleb128 0x6
 4253 07f3 9A090000 		.4byte	.LASF162
 4254 07f7 01       		.byte	0x1
 4255 07f8 00       		.byte	0
 4256 07f9 03       		.uleb128 0x3
 4257 07fa D60D0000 		.4byte	.LASF163
 4258 07fe 08       		.byte	0x8
 4259 07ff 39       		.byte	0x39
 4260 0800 E0070000 		.4byte	0x7e0
 4261 0804 08       		.uleb128 0x8
 4262 0805 E2140000 		.4byte	.LASF164
 4263 0809 84       		.byte	0x84
 4264 080a 09       		.byte	0x9
 4265 080b 37       		.byte	0x37
 4266 080c 35080000 		.4byte	0x835
 4267 0810 09       		.uleb128 0x9
 4268 0811 9C120000 		.4byte	.LASF165
 4269 0815 09       		.byte	0x9
 4270 0816 39       		.byte	0x39
 4271 0817 35080000 		.4byte	0x835
 4272 081b 00       		.byte	0
 4273 081c 09       		.uleb128 0x9
 4274 081d 57070000 		.4byte	.LASF166
 4275 0821 09       		.byte	0x9
 4276 0822 3A       		.byte	0x3a
 4277 0823 45080000 		.4byte	0x845
 4278 0827 40       		.byte	0x40
 4279 0828 09       		.uleb128 0x9
 4280 0829 70040000 		.4byte	.LASF167
 4281 082d 09       		.byte	0x9
 4282 082e 3B       		.byte	0x3b
 4283 082f 8C000000 		.4byte	0x8c
 4284 0833 80       		.byte	0x80
 4285 0834 00       		.byte	0
 4286 0835 13       		.uleb128 0x13
 4287 0836 4A070000 		.4byte	0x74a
 4288 083a 45080000 		.4byte	0x845
 4289 083e 14       		.uleb128 0x14
 4290 083f A7050000 		.4byte	0x5a7
 4291 0843 0F       		.byte	0xf
 4292 0844 00       		.byte	0
 4293 0845 13       		.uleb128 0x13
 4294 0846 3F070000 		.4byte	0x73f
 4295 084a 55080000 		.4byte	0x855
 4296 084e 14       		.uleb128 0x14
 4297 084f A7050000 		.4byte	0x5a7
 4298 0853 3F       		.byte	0x3f
 4299 0854 00       		.byte	0
 4300 0855 03       		.uleb128 0x3
 4301 0856 E2140000 		.4byte	.LASF164
ARM GAS  C:\Users\Phuong\AppData\Local\Temp\ccnzvfGe.s 			page 109


 4302 085a 09       		.byte	0x9
 4303 085b 3D       		.byte	0x3d
 4304 085c 04080000 		.4byte	0x804
 4305 0860 08       		.uleb128 0x8
 4306 0861 CF0E0000 		.4byte	.LASF168
 4307 0865 E8       		.byte	0xe8
 4308 0866 08       		.byte	0x8
 4309 0867 3F       		.byte	0x3f
 4310 0868 B5080000 		.4byte	0x8b5
 4311 086c 09       		.uleb128 0x9
 4312 086d 820C0000 		.4byte	.LASF169
 4313 0871 08       		.byte	0x8
 4314 0872 41       		.byte	0x41
 4315 0873 55080000 		.4byte	0x855
 4316 0877 00       		.byte	0
 4317 0878 09       		.uleb128 0x9
 4318 0879 CE060000 		.4byte	.LASF170
 4319 087d 08       		.byte	0x8
 4320 087e 42       		.byte	0x42
 4321 087f D5070000 		.4byte	0x7d5
 4322 0883 84       		.byte	0x84
 4323 0884 09       		.uleb128 0x9
 4324 0885 19000000 		.4byte	.LASF171
 4325 0889 08       		.byte	0x8
 4326 088a 43       		.byte	0x43
 4327 088b 55070000 		.4byte	0x755
 4328 088f D0       		.byte	0xd0
 4329 0890 09       		.uleb128 0x9
 4330 0891 82090000 		.4byte	.LASF172
 4331 0895 08       		.byte	0x8
 4332 0896 44       		.byte	0x44
 4333 0897 55070000 		.4byte	0x755
 4334 089b D8       		.byte	0xd8
 4335 089c 09       		.uleb128 0x9
 4336 089d 9C120000 		.4byte	.LASF165
 4337 08a1 08       		.byte	0x8
 4338 08a2 45       		.byte	0x45
 4339 08a3 7E000000 		.4byte	0x7e
 4340 08a7 E0       		.byte	0xe0
 4341 08a8 09       		.uleb128 0x9
 4342 08a9 07020000 		.4byte	.LASF136
 4343 08ad 08       		.byte	0x8
 4344 08ae 46       		.byte	0x46
 4345 08af F9070000 		.4byte	0x7f9
 4346 08b3 E4       		.byte	0xe4
 4347 08b4 00       		.byte	0
 4348 08b5 03       		.uleb128 0x3
 4349 08b6 CF0E0000 		.4byte	.LASF168
 4350 08ba 08       		.byte	0x8
 4351 08bb 48       		.byte	0x48
 4352 08bc 60080000 		.4byte	0x860
 4353 08c0 1A       		.uleb128 0x1a
 4354 08c1 AF020000 		.4byte	.LASF173
 4355 08c5 8801     		.2byte	0x188
 4356 08c7 0A       		.byte	0xa
 4357 08c8 38       		.byte	0x38
 4358 08c9 3C090000 		.4byte	0x93c
ARM GAS  C:\Users\Phuong\AppData\Local\Temp\ccnzvfGe.s 			page 110


 4359 08cd 09       		.uleb128 0x9
 4360 08ce C4100000 		.4byte	.LASF151
 4361 08d2 0A       		.byte	0xa
 4362 08d3 3A       		.byte	0x3a
 4363 08d4 B0050000 		.4byte	0x5b0
 4364 08d8 00       		.byte	0
 4365 08d9 19       		.uleb128 0x19
 4366 08da 484C00   		.ascii	"HL\000"
 4367 08dd 0A       		.byte	0xa
 4368 08de 3B       		.byte	0x3b
 4369 08df 3C090000 		.4byte	0x93c
 4370 08e3 40       		.byte	0x40
 4371 08e4 19       		.uleb128 0x19
 4372 08e5 484800   		.ascii	"HH\000"
 4373 08e8 0A       		.byte	0xa
 4374 08e9 3C       		.byte	0x3c
 4375 08ea 3C090000 		.4byte	0x93c
 4376 08ee C0       		.byte	0xc0
 4377 08ef 1B       		.uleb128 0x1b
 4378 08f0 6C656E00 		.ascii	"len\000"
 4379 08f4 0A       		.byte	0xa
 4380 08f5 3D       		.byte	0x3d
 4381 08f6 55070000 		.4byte	0x755
 4382 08fa 4001     		.2byte	0x140
 4383 08fc 1C       		.uleb128 0x1c
 4384 08fd 390F0000 		.4byte	.LASF174
 4385 0901 0A       		.byte	0xa
 4386 0902 3E       		.byte	0x3e
 4387 0903 55070000 		.4byte	0x755
 4388 0907 4801     		.2byte	0x148
 4389 0909 1C       		.uleb128 0x1c
 4390 090a 7A110000 		.4byte	.LASF175
 4391 090e 0A       		.byte	0xa
 4392 090f 3F       		.byte	0x3f
 4393 0910 97050000 		.4byte	0x597
 4394 0914 5001     		.2byte	0x150
 4395 0916 1B       		.uleb128 0x1b
 4396 0917 7900     		.ascii	"y\000"
 4397 0919 0A       		.byte	0xa
 4398 091a 40       		.byte	0x40
 4399 091b 97050000 		.4byte	0x597
 4400 091f 6001     		.2byte	0x160
 4401 0921 1B       		.uleb128 0x1b
 4402 0922 62756600 		.ascii	"buf\000"
 4403 0926 0A       		.byte	0xa
 4404 0927 41       		.byte	0x41
 4405 0928 97050000 		.4byte	0x597
 4406 092c 7001     		.2byte	0x170
 4407 092e 1C       		.uleb128 0x1c
 4408 092f 07020000 		.4byte	.LASF136
 4409 0933 0A       		.byte	0xa
 4410 0934 42       		.byte	0x42
 4411 0935 7E000000 		.4byte	0x7e
 4412 0939 8001     		.2byte	0x180
 4413 093b 00       		.byte	0
 4414 093c 13       		.uleb128 0x13
 4415 093d 55070000 		.4byte	0x755
ARM GAS  C:\Users\Phuong\AppData\Local\Temp\ccnzvfGe.s 			page 111


 4416 0941 4C090000 		.4byte	0x94c
 4417 0945 14       		.uleb128 0x14
 4418 0946 A7050000 		.4byte	0x5a7
 4419 094a 0F       		.byte	0xf
 4420 094b 00       		.byte	0
 4421 094c 03       		.uleb128 0x3
 4422 094d AF020000 		.4byte	.LASF173
 4423 0951 0A       		.byte	0xa
 4424 0952 46       		.byte	0x46
 4425 0953 C0080000 		.4byte	0x8c0
 4426 0957 1D       		.uleb128 0x1d
 4427 0958 85080000 		.4byte	.LASF176
 4428 095c 02       		.byte	0x2
 4429 095d A001     		.2byte	0x1a0
 4430 095f 85000000 		.4byte	0x85
 4431 0963 03       		.byte	0x3
 4432 0964 75090000 		.4byte	0x975
 4433 0968 1E       		.uleb128 0x1e
 4434 0969 63747800 		.ascii	"ctx\000"
 4435 096d 02       		.byte	0x2
 4436 096e A001     		.2byte	0x1a0
 4437 0970 75090000 		.4byte	0x975
 4438 0974 00       		.byte	0
 4439 0975 0B       		.uleb128 0xb
 4440 0976 04       		.byte	0x4
 4441 0977 7B090000 		.4byte	0x97b
 4442 097b 0C       		.uleb128 0xc
 4443 097c B0050000 		.4byte	0x5b0
 4444 0980 1D       		.uleb128 0x1d
 4445 0981 22130000 		.4byte	.LASF177
 4446 0985 02       		.byte	0x2
 4447 0986 C301     		.2byte	0x1c3
 4448 0988 7E000000 		.4byte	0x7e
 4449 098c 03       		.byte	0x3
 4450 098d 9E090000 		.4byte	0x99e
 4451 0991 1E       		.uleb128 0x1e
 4452 0992 63747800 		.ascii	"ctx\000"
 4453 0996 02       		.byte	0x2
 4454 0997 C301     		.2byte	0x1c3
 4455 0999 75090000 		.4byte	0x975
 4456 099d 00       		.byte	0
 4457 099e 1F       		.uleb128 0x1f
 4458 099f D4100000 		.4byte	.LASF183
 4459 09a3 01       		.byte	0x1
 4460 09a4 4A       		.byte	0x4a
 4461 09a5 7E000000 		.4byte	0x7e
 4462 09a9 00000000 		.4byte	.LFB8
 4463 09ad 1A000000 		.4byte	.LFE8-.LFB8
 4464 09b1 01       		.uleb128 0x1
 4465 09b2 9C       		.byte	0x9c
 4466 09b3 150A0000 		.4byte	0xa15
 4467 09b7 20       		.uleb128 0x20
 4468 09b8 763100   		.ascii	"v1\000"
 4469 09bb 01       		.byte	0x1
 4470 09bc 4A       		.byte	0x4a
 4471 09bd 38070000 		.4byte	0x738
 4472 09c1 00000000 		.4byte	.LLST0
ARM GAS  C:\Users\Phuong\AppData\Local\Temp\ccnzvfGe.s 			page 112


 4473 09c5 21       		.uleb128 0x21
 4474 09c6 763200   		.ascii	"v2\000"
 4475 09c9 01       		.byte	0x1
 4476 09ca 4A       		.byte	0x4a
 4477 09cb 38070000 		.4byte	0x738
 4478 09cf 01       		.uleb128 0x1
 4479 09d0 51       		.byte	0x51
 4480 09d1 21       		.uleb128 0x21
 4481 09d2 6C656E00 		.ascii	"len\000"
 4482 09d6 01       		.byte	0x1
 4483 09d7 4A       		.byte	0x4a
 4484 09d8 8C000000 		.4byte	0x8c
 4485 09dc 01       		.uleb128 0x1
 4486 09dd 52       		.byte	0x52
 4487 09de 22       		.uleb128 0x22
 4488 09df 703100   		.ascii	"p1\000"
 4489 09e2 01       		.byte	0x1
 4490 09e3 4C       		.byte	0x4c
 4491 09e4 DA050000 		.4byte	0x5da
 4492 09e8 2C000000 		.4byte	.LLST1
 4493 09ec 23       		.uleb128 0x23
 4494 09ed 703200   		.ascii	"p2\000"
 4495 09f0 01       		.byte	0x1
 4496 09f1 4D       		.byte	0x4d
 4497 09f2 DA050000 		.4byte	0x5da
 4498 09f6 01       		.uleb128 0x1
 4499 09f7 51       		.byte	0x51
 4500 09f8 22       		.uleb128 0x22
 4501 09f9 6900     		.ascii	"i\000"
 4502 09fb 01       		.byte	0x1
 4503 09fc 4E       		.byte	0x4e
 4504 09fd 8C000000 		.4byte	0x8c
 4505 0a01 58000000 		.4byte	.LLST2
 4506 0a05 24       		.uleb128 0x24
 4507 0a06 4A0F0000 		.4byte	.LASF178
 4508 0a0a 01       		.byte	0x1
 4509 0a0b 4F       		.byte	0x4f
 4510 0a0c 37000000 		.4byte	0x37
 4511 0a10 77000000 		.4byte	.LLST3
 4512 0a14 00       		.byte	0
 4513 0a15 25       		.uleb128 0x25
 4514 0a16 DA010000 		.4byte	.LASF188
 4515 0a1a 01       		.byte	0x1
 4516 0a1b 4202     		.2byte	0x242
 4517 0a1d 00000000 		.4byte	.LFB21
 4518 0a21 16000000 		.4byte	.LFE21-.LFB21
 4519 0a25 01       		.uleb128 0x1
 4520 0a26 9C       		.byte	0x9c
 4521 0a27 740A0000 		.4byte	0xa74
 4522 0a2b 26       		.uleb128 0x26
 4523 0a2c 6C000000 		.4byte	.LASF179
 4524 0a30 01       		.byte	0x1
 4525 0a31 4202     		.2byte	0x242
 4526 0a33 66050000 		.4byte	0x566
 4527 0a37 01       		.uleb128 0x1
 4528 0a38 50       		.byte	0x50
 4529 0a39 27       		.uleb128 0x27
ARM GAS  C:\Users\Phuong\AppData\Local\Temp\ccnzvfGe.s 			page 113


 4530 0a3a D70B0000 		.4byte	.LASF180
 4531 0a3e 01       		.byte	0x1
 4532 0a3f 4202     		.2byte	0x242
 4533 0a41 8C000000 		.4byte	0x8c
 4534 0a45 96000000 		.4byte	.LLST4
 4535 0a49 26       		.uleb128 0x26
 4536 0a4a 9B0E0000 		.4byte	.LASF181
 4537 0a4e 01       		.byte	0x1
 4538 0a4f 4302     		.2byte	0x243
 4539 0a51 8C000000 		.4byte	0x8c
 4540 0a55 01       		.uleb128 0x1
 4541 0a56 52       		.byte	0x52
 4542 0a57 28       		.uleb128 0x28
 4543 0a58 21000000 		.4byte	.LASF182
 4544 0a5c 01       		.byte	0x1
 4545 0a5d 4502     		.2byte	0x245
 4546 0a5f 8C000000 		.4byte	0x8c
 4547 0a63 01       		.uleb128 0x1
 4548 0a64 51       		.byte	0x51
 4549 0a65 29       		.uleb128 0x29
 4550 0a66 6900     		.ascii	"i\000"
 4551 0a68 01       		.byte	0x1
 4552 0a69 4602     		.2byte	0x246
 4553 0a6b 37000000 		.4byte	0x37
 4554 0a6f B7000000 		.4byte	.LLST5
 4555 0a73 00       		.byte	0
 4556 0a74 2A       		.uleb128 0x2a
 4557 0a75 86050000 		.4byte	.LASF184
 4558 0a79 01       		.byte	0x1
 4559 0a7a 4C02     		.2byte	0x24c
 4560 0a7c 7E000000 		.4byte	0x7e
 4561 0a80 00000000 		.4byte	.LFB22
 4562 0a84 58000000 		.4byte	.LFE22-.LFB22
 4563 0a88 01       		.uleb128 0x1
 4564 0a89 9C       		.byte	0x9c
 4565 0a8a FB0A0000 		.4byte	0xafb
 4566 0a8e 27       		.uleb128 0x27
 4567 0a8f A5110000 		.4byte	.LASF185
 4568 0a93 01       		.byte	0x1
 4569 0a94 4C02     		.2byte	0x24c
 4570 0a96 66050000 		.4byte	0x566
 4571 0a9a E1000000 		.4byte	.LLST6
 4572 0a9e 26       		.uleb128 0x26
 4573 0a9f 7B080000 		.4byte	.LASF186
 4574 0aa3 01       		.byte	0x1
 4575 0aa4 4C02     		.2byte	0x24c
 4576 0aa6 8C000000 		.4byte	0x8c
 4577 0aaa 01       		.uleb128 0x1
 4578 0aab 51       		.byte	0x51
 4579 0aac 27       		.uleb128 0x27
 4580 0aad 9B0E0000 		.4byte	.LASF181
 4581 0ab1 01       		.byte	0x1
 4582 0ab2 4D02     		.2byte	0x24d
 4583 0ab4 8B050000 		.4byte	0x58b
 4584 0ab8 4D010000 		.4byte	.LLST7
 4585 0abc 29       		.uleb128 0x29
 4586 0abd 6900     		.ascii	"i\000"
ARM GAS  C:\Users\Phuong\AppData\Local\Temp\ccnzvfGe.s 			page 114


 4587 0abf 01       		.byte	0x1
 4588 0ac0 4F02     		.2byte	0x24f
 4589 0ac2 8C000000 		.4byte	0x8c
 4590 0ac6 87010000 		.4byte	.LLST8
 4591 0aca 2B       		.uleb128 0x2b
 4592 0acb F3090000 		.4byte	.LASF187
 4593 0acf 01       		.byte	0x1
 4594 0ad0 4F02     		.2byte	0x24f
 4595 0ad2 8C000000 		.4byte	0x8c
 4596 0ad6 B1010000 		.4byte	.LLST9
 4597 0ada 2B       		.uleb128 0x2b
 4598 0adb 21000000 		.4byte	.LASF182
 4599 0adf 01       		.byte	0x1
 4600 0ae0 5002     		.2byte	0x250
 4601 0ae2 37000000 		.4byte	0x37
 4602 0ae6 CF010000 		.4byte	.LLST10
 4603 0aea 29       		.uleb128 0x29
 4604 0aeb 62616400 		.ascii	"bad\000"
 4605 0aef 01       		.byte	0x1
 4606 0af0 5002     		.2byte	0x250
 4607 0af2 37000000 		.4byte	0x37
 4608 0af6 ED010000 		.4byte	.LLST11
 4609 0afa 00       		.byte	0
 4610 0afb 25       		.uleb128 0x25
 4611 0afc C90C0000 		.4byte	.LASF189
 4612 0b00 01       		.byte	0x1
 4613 0b01 6A02     		.2byte	0x26a
 4614 0b03 00000000 		.4byte	.LFB23
 4615 0b07 1E000000 		.4byte	.LFE23-.LFB23
 4616 0b0b 01       		.uleb128 0x1
 4617 0b0c 9C       		.byte	0x9c
 4618 0b0d 5A0B0000 		.4byte	0xb5a
 4619 0b11 26       		.uleb128 0x26
 4620 0b12 6C000000 		.4byte	.LASF179
 4621 0b16 01       		.byte	0x1
 4622 0b17 6A02     		.2byte	0x26a
 4623 0b19 66050000 		.4byte	0x566
 4624 0b1d 01       		.uleb128 0x1
 4625 0b1e 50       		.byte	0x50
 4626 0b1f 27       		.uleb128 0x27
 4627 0b20 D70B0000 		.4byte	.LASF180
 4628 0b24 01       		.byte	0x1
 4629 0b25 6B02     		.2byte	0x26b
 4630 0b27 8C000000 		.4byte	0x8c
 4631 0b2b 2E020000 		.4byte	.LLST12
 4632 0b2f 26       		.uleb128 0x26
 4633 0b30 9B0E0000 		.4byte	.LASF181
 4634 0b34 01       		.byte	0x1
 4635 0b35 6B02     		.2byte	0x26b
 4636 0b37 8C000000 		.4byte	0x8c
 4637 0b3b 01       		.uleb128 0x1
 4638 0b3c 52       		.byte	0x52
 4639 0b3d 28       		.uleb128 0x28
 4640 0b3e 21000000 		.4byte	.LASF182
 4641 0b42 01       		.byte	0x1
 4642 0b43 6D02     		.2byte	0x26d
 4643 0b45 8C000000 		.4byte	0x8c
ARM GAS  C:\Users\Phuong\AppData\Local\Temp\ccnzvfGe.s 			page 115


 4644 0b49 01       		.uleb128 0x1
 4645 0b4a 51       		.byte	0x51
 4646 0b4b 29       		.uleb128 0x29
 4647 0b4c 6900     		.ascii	"i\000"
 4648 0b4e 01       		.byte	0x1
 4649 0b4f 6E02     		.2byte	0x26e
 4650 0b51 37000000 		.4byte	0x37
 4651 0b55 4F020000 		.4byte	.LLST13
 4652 0b59 00       		.byte	0
 4653 0b5a 2A       		.uleb128 0x2a
 4654 0b5b 9E040000 		.4byte	.LASF190
 4655 0b5f 01       		.byte	0x1
 4656 0b60 7502     		.2byte	0x275
 4657 0b62 7E000000 		.4byte	0x7e
 4658 0b66 00000000 		.4byte	.LFB24
 4659 0b6a 60000000 		.4byte	.LFE24-.LFB24
 4660 0b6e 01       		.uleb128 0x1
 4661 0b6f 9C       		.byte	0x9c
 4662 0b70 E10B0000 		.4byte	0xbe1
 4663 0b74 27       		.uleb128 0x27
 4664 0b75 A5110000 		.4byte	.LASF185
 4665 0b79 01       		.byte	0x1
 4666 0b7a 7502     		.2byte	0x275
 4667 0b7c 66050000 		.4byte	0x566
 4668 0b80 85020000 		.4byte	.LLST14
 4669 0b84 27       		.uleb128 0x27
 4670 0b85 7B080000 		.4byte	.LASF186
 4671 0b89 01       		.byte	0x1
 4672 0b8a 7502     		.2byte	0x275
 4673 0b8c 8C000000 		.4byte	0x8c
 4674 0b90 CF020000 		.4byte	.LLST15
 4675 0b94 26       		.uleb128 0x26
 4676 0b95 9B0E0000 		.4byte	.LASF181
 4677 0b99 01       		.byte	0x1
 4678 0b9a 7602     		.2byte	0x276
 4679 0b9c 8B050000 		.4byte	0x58b
 4680 0ba0 01       		.uleb128 0x1
 4681 0ba1 52       		.byte	0x52
 4682 0ba2 29       		.uleb128 0x29
 4683 0ba3 6900     		.ascii	"i\000"
 4684 0ba5 01       		.byte	0x1
 4685 0ba6 7802     		.2byte	0x278
 4686 0ba8 8C000000 		.4byte	0x8c
 4687 0bac 09030000 		.4byte	.LLST16
 4688 0bb0 2B       		.uleb128 0x2b
 4689 0bb1 D10D0000 		.4byte	.LASF191
 4690 0bb5 01       		.byte	0x1
 4691 0bb6 7902     		.2byte	0x279
 4692 0bb8 37000000 		.4byte	0x37
 4693 0bbc 3F030000 		.4byte	.LLST17
 4694 0bc0 2B       		.uleb128 0x2b
 4695 0bc1 ED050000 		.4byte	.LASF192
 4696 0bc5 01       		.byte	0x1
 4697 0bc6 7902     		.2byte	0x279
 4698 0bc8 37000000 		.4byte	0x37
 4699 0bcc 8B030000 		.4byte	.LLST18
 4700 0bd0 29       		.uleb128 0x29
ARM GAS  C:\Users\Phuong\AppData\Local\Temp\ccnzvfGe.s 			page 116


 4701 0bd1 62616400 		.ascii	"bad\000"
 4702 0bd5 01       		.byte	0x1
 4703 0bd6 7902     		.2byte	0x279
 4704 0bd8 37000000 		.4byte	0x37
 4705 0bdc 9E030000 		.4byte	.LLST19
 4706 0be0 00       		.byte	0
 4707 0be1 25       		.uleb128 0x25
 4708 0be2 F00D0000 		.4byte	.LASF193
 4709 0be6 01       		.byte	0x1
 4710 0be7 9102     		.2byte	0x291
 4711 0be9 00000000 		.4byte	.LFB25
 4712 0bed 20000000 		.4byte	.LFE25-.LFB25
 4713 0bf1 01       		.uleb128 0x1
 4714 0bf2 9C       		.byte	0x9c
 4715 0bf3 420C0000 		.4byte	0xc42
 4716 0bf7 26       		.uleb128 0x26
 4717 0bf8 6C000000 		.4byte	.LASF179
 4718 0bfc 01       		.byte	0x1
 4719 0bfd 9102     		.2byte	0x291
 4720 0bff 66050000 		.4byte	0x566
 4721 0c03 01       		.uleb128 0x1
 4722 0c04 50       		.byte	0x50
 4723 0c05 27       		.uleb128 0x27
 4724 0c06 D70B0000 		.4byte	.LASF180
 4725 0c0a 01       		.byte	0x1
 4726 0c0b 9202     		.2byte	0x292
 4727 0c0d 8C000000 		.4byte	0x8c
 4728 0c11 C9030000 		.4byte	.LLST20
 4729 0c15 26       		.uleb128 0x26
 4730 0c16 9B0E0000 		.4byte	.LASF181
 4731 0c1a 01       		.byte	0x1
 4732 0c1b 9202     		.2byte	0x292
 4733 0c1d 8C000000 		.4byte	0x8c
 4734 0c21 01       		.uleb128 0x1
 4735 0c22 52       		.byte	0x52
 4736 0c23 2B       		.uleb128 0x2b
 4737 0c24 21000000 		.4byte	.LASF182
 4738 0c28 01       		.byte	0x1
 4739 0c29 9402     		.2byte	0x294
 4740 0c2b 8C000000 		.4byte	0x8c
 4741 0c2f E9030000 		.4byte	.LLST21
 4742 0c33 29       		.uleb128 0x29
 4743 0c34 6900     		.ascii	"i\000"
 4744 0c36 01       		.byte	0x1
 4745 0c37 9502     		.2byte	0x295
 4746 0c39 37000000 		.4byte	0x37
 4747 0c3d 0E040000 		.4byte	.LLST22
 4748 0c41 00       		.byte	0
 4749 0c42 2A       		.uleb128 0x2a
 4750 0c43 F1060000 		.4byte	.LASF194
 4751 0c47 01       		.byte	0x1
 4752 0c48 9C02     		.2byte	0x29c
 4753 0c4a 7E000000 		.4byte	0x7e
 4754 0c4e 00000000 		.4byte	.LFB26
 4755 0c52 54000000 		.4byte	.LFE26-.LFB26
 4756 0c56 01       		.uleb128 0x1
 4757 0c57 9C       		.byte	0x9c
ARM GAS  C:\Users\Phuong\AppData\Local\Temp\ccnzvfGe.s 			page 117


 4758 0c58 CB0C0000 		.4byte	0xccb
 4759 0c5c 27       		.uleb128 0x27
 4760 0c5d A5110000 		.4byte	.LASF185
 4761 0c61 01       		.byte	0x1
 4762 0c62 9C02     		.2byte	0x29c
 4763 0c64 66050000 		.4byte	0x566
 4764 0c68 38040000 		.4byte	.LLST23
 4765 0c6c 27       		.uleb128 0x27
 4766 0c6d 7B080000 		.4byte	.LASF186
 4767 0c71 01       		.byte	0x1
 4768 0c72 9C02     		.2byte	0x29c
 4769 0c74 8C000000 		.4byte	0x8c
 4770 0c78 A4040000 		.4byte	.LLST24
 4771 0c7c 27       		.uleb128 0x27
 4772 0c7d 9B0E0000 		.4byte	.LASF181
 4773 0c81 01       		.byte	0x1
 4774 0c82 9D02     		.2byte	0x29d
 4775 0c84 8B050000 		.4byte	0x58b
 4776 0c88 EA040000 		.4byte	.LLST25
 4777 0c8c 29       		.uleb128 0x29
 4778 0c8d 6900     		.ascii	"i\000"
 4779 0c8f 01       		.byte	0x1
 4780 0c90 9F02     		.2byte	0x29f
 4781 0c92 8C000000 		.4byte	0x8c
 4782 0c96 24050000 		.4byte	.LLST26
 4783 0c9a 2B       		.uleb128 0x2b
 4784 0c9b F3090000 		.4byte	.LASF187
 4785 0c9f 01       		.byte	0x1
 4786 0ca0 9F02     		.2byte	0x29f
 4787 0ca2 8C000000 		.4byte	0x8c
 4788 0ca6 4E050000 		.4byte	.LLST27
 4789 0caa 2B       		.uleb128 0x2b
 4790 0cab 21000000 		.4byte	.LASF182
 4791 0caf 01       		.byte	0x1
 4792 0cb0 A002     		.2byte	0x2a0
 4793 0cb2 37000000 		.4byte	0x37
 4794 0cb6 6C050000 		.4byte	.LLST28
 4795 0cba 29       		.uleb128 0x29
 4796 0cbb 62616400 		.ascii	"bad\000"
 4797 0cbf 01       		.byte	0x1
 4798 0cc0 A002     		.2byte	0x2a0
 4799 0cc2 37000000 		.4byte	0x37
 4800 0cc6 7F050000 		.4byte	.LLST29
 4801 0cca 00       		.byte	0
 4802 0ccb 25       		.uleb128 0x25
 4803 0ccc AD130000 		.4byte	.LASF195
 4804 0cd0 01       		.byte	0x1
 4805 0cd1 B902     		.2byte	0x2b9
 4806 0cd3 00000000 		.4byte	.LFB27
 4807 0cd7 12000000 		.4byte	.LFE27-.LFB27
 4808 0cdb 01       		.uleb128 0x1
 4809 0cdc 9C       		.byte	0x9c
 4810 0cdd 1A0D0000 		.4byte	0xd1a
 4811 0ce1 26       		.uleb128 0x26
 4812 0ce2 6C000000 		.4byte	.LASF179
 4813 0ce6 01       		.byte	0x1
 4814 0ce7 B902     		.2byte	0x2b9
ARM GAS  C:\Users\Phuong\AppData\Local\Temp\ccnzvfGe.s 			page 118


 4815 0ce9 66050000 		.4byte	0x566
 4816 0ced 01       		.uleb128 0x1
 4817 0cee 50       		.byte	0x50
 4818 0cef 26       		.uleb128 0x26
 4819 0cf0 D70B0000 		.4byte	.LASF180
 4820 0cf4 01       		.byte	0x1
 4821 0cf5 BA02     		.2byte	0x2ba
 4822 0cf7 8C000000 		.4byte	0x8c
 4823 0cfb 01       		.uleb128 0x1
 4824 0cfc 51       		.byte	0x51
 4825 0cfd 27       		.uleb128 0x27
 4826 0cfe 9B0E0000 		.4byte	.LASF181
 4827 0d02 01       		.byte	0x1
 4828 0d03 BA02     		.2byte	0x2ba
 4829 0d05 8C000000 		.4byte	0x8c
 4830 0d09 CB050000 		.4byte	.LLST30
 4831 0d0d 2C       		.uleb128 0x2c
 4832 0d0e 6900     		.ascii	"i\000"
 4833 0d10 01       		.byte	0x1
 4834 0d11 BC02     		.2byte	0x2bc
 4835 0d13 8C000000 		.4byte	0x8c
 4836 0d17 01       		.uleb128 0x1
 4837 0d18 52       		.byte	0x52
 4838 0d19 00       		.byte	0
 4839 0d1a 2A       		.uleb128 0x2a
 4840 0d1b 9C100000 		.4byte	.LASF196
 4841 0d1f 01       		.byte	0x1
 4842 0d20 C202     		.2byte	0x2c2
 4843 0d22 7E000000 		.4byte	0x7e
 4844 0d26 00000000 		.4byte	.LFB28
 4845 0d2a 40000000 		.4byte	.LFE28-.LFB28
 4846 0d2e 01       		.uleb128 0x1
 4847 0d2f 9C       		.byte	0x9c
 4848 0d30 910D0000 		.4byte	0xd91
 4849 0d34 27       		.uleb128 0x27
 4850 0d35 A5110000 		.4byte	.LASF185
 4851 0d39 01       		.byte	0x1
 4852 0d3a C202     		.2byte	0x2c2
 4853 0d3c 66050000 		.4byte	0x566
 4854 0d40 EC050000 		.4byte	.LLST31
 4855 0d44 27       		.uleb128 0x27
 4856 0d45 7B080000 		.4byte	.LASF186
 4857 0d49 01       		.byte	0x1
 4858 0d4a C202     		.2byte	0x2c2
 4859 0d4c 8C000000 		.4byte	0x8c
 4860 0d50 3F060000 		.4byte	.LLST32
 4861 0d54 26       		.uleb128 0x26
 4862 0d55 9B0E0000 		.4byte	.LASF181
 4863 0d59 01       		.byte	0x1
 4864 0d5a C302     		.2byte	0x2c3
 4865 0d5c 8B050000 		.4byte	0x58b
 4866 0d60 01       		.uleb128 0x1
 4867 0d61 52       		.byte	0x52
 4868 0d62 29       		.uleb128 0x29
 4869 0d63 6900     		.ascii	"i\000"
 4870 0d65 01       		.byte	0x1
 4871 0d66 C502     		.2byte	0x2c5
ARM GAS  C:\Users\Phuong\AppData\Local\Temp\ccnzvfGe.s 			page 119


 4872 0d68 8C000000 		.4byte	0x8c
 4873 0d6c 79060000 		.4byte	.LLST33
 4874 0d70 2B       		.uleb128 0x2b
 4875 0d71 D10D0000 		.4byte	.LASF191
 4876 0d75 01       		.byte	0x1
 4877 0d76 C602     		.2byte	0x2c6
 4878 0d78 37000000 		.4byte	0x37
 4879 0d7c AF060000 		.4byte	.LLST34
 4880 0d80 2B       		.uleb128 0x2b
 4881 0d81 ED050000 		.4byte	.LASF192
 4882 0d85 01       		.byte	0x1
 4883 0d86 C602     		.2byte	0x2c6
 4884 0d88 37000000 		.4byte	0x37
 4885 0d8c F0060000 		.4byte	.LLST35
 4886 0d90 00       		.byte	0
 4887 0d91 2A       		.uleb128 0x2a
 4888 0d92 3E010000 		.4byte	.LASF197
 4889 0d96 01       		.byte	0x1
 4890 0d97 DD02     		.2byte	0x2dd
 4891 0d99 7E000000 		.4byte	0x7e
 4892 0d9d 00000000 		.4byte	.LFB29
 4893 0da1 1C000000 		.4byte	.LFE29-.LFB29
 4894 0da5 01       		.uleb128 0x1
 4895 0da6 9C       		.byte	0x9c
 4896 0da7 D80D0000 		.4byte	0xdd8
 4897 0dab 27       		.uleb128 0x27
 4898 0dac A5110000 		.4byte	.LASF185
 4899 0db0 01       		.byte	0x1
 4900 0db1 DD02     		.2byte	0x2dd
 4901 0db3 66050000 		.4byte	0x566
 4902 0db7 03070000 		.4byte	.LLST36
 4903 0dbb 26       		.uleb128 0x26
 4904 0dbc 7B080000 		.4byte	.LASF186
 4905 0dc0 01       		.byte	0x1
 4906 0dc1 DD02     		.2byte	0x2dd
 4907 0dc3 8C000000 		.4byte	0x8c
 4908 0dc7 01       		.uleb128 0x1
 4909 0dc8 51       		.byte	0x51
 4910 0dc9 26       		.uleb128 0x26
 4911 0dca 9B0E0000 		.4byte	.LASF181
 4912 0dce 01       		.byte	0x1
 4913 0dcf DE02     		.2byte	0x2de
 4914 0dd1 8B050000 		.4byte	0x58b
 4915 0dd5 01       		.uleb128 0x1
 4916 0dd6 52       		.byte	0x52
 4917 0dd7 00       		.byte	0
 4918 0dd8 2D       		.uleb128 0x2d
 4919 0dd9 41050000 		.4byte	.LASF198
 4920 0ddd 01       		.byte	0x1
 4921 0dde 5A       		.byte	0x5a
 4922 0ddf 100E0000 		.4byte	0xe10
 4923 0de3 00000000 		.4byte	.LFB9
 4924 0de7 38000000 		.4byte	.LFE9-.LFB9
 4925 0deb 01       		.uleb128 0x1
 4926 0dec 9C       		.byte	0x9c
 4927 0ded 100E0000 		.4byte	0xe10
 4928 0df1 22       		.uleb128 0x22
ARM GAS  C:\Users\Phuong\AppData\Local\Temp\ccnzvfGe.s 			page 120


 4929 0df2 64656600 		.ascii	"def\000"
 4930 0df6 01       		.byte	0x1
 4931 0df7 5C       		.byte	0x5c
 4932 0df8 1B0E0000 		.4byte	0xe1b
 4933 0dfc 56070000 		.4byte	.LLST37
 4934 0e00 24       		.uleb128 0x24
 4935 0e01 F2110000 		.4byte	.LASF135
 4936 0e05 01       		.byte	0x1
 4937 0e06 5D       		.byte	0x5d
 4938 0e07 260E0000 		.4byte	0xe26
 4939 0e0b 74070000 		.4byte	.LLST38
 4940 0e0f 00       		.byte	0
 4941 0e10 0B       		.uleb128 0xb
 4942 0e11 04       		.byte	0x4
 4943 0e12 160E0000 		.4byte	0xe16
 4944 0e16 0C       		.uleb128 0xc
 4945 0e17 7E000000 		.4byte	0x7e
 4946 0e1b 0B       		.uleb128 0xb
 4947 0e1c 04       		.byte	0x4
 4948 0e1d 210E0000 		.4byte	0xe21
 4949 0e21 0C       		.uleb128 0xc
 4950 0e22 2D070000 		.4byte	0x72d
 4951 0e26 0B       		.uleb128 0xb
 4952 0e27 04       		.byte	0x4
 4953 0e28 7E000000 		.4byte	0x7e
 4954 0e2c 2D       		.uleb128 0x2d
 4955 0e2d 84140000 		.4byte	.LASF199
 4956 0e31 01       		.byte	0x1
 4957 0e32 6F       		.byte	0x6f
 4958 0e33 46050000 		.4byte	0x546
 4959 0e37 00000000 		.4byte	.LFB10
 4960 0e3b 1C000000 		.4byte	.LFE10-.LFB10
 4961 0e3f 01       		.uleb128 0x1
 4962 0e40 9C       		.byte	0x9c
 4963 0e41 640E0000 		.4byte	0xe64
 4964 0e45 2E       		.uleb128 0x2e
 4965 0e46 4D010000 		.4byte	.LASF200
 4966 0e4a 01       		.byte	0x1
 4967 0e4b 6F       		.byte	0x6f
 4968 0e4c 640E0000 		.4byte	0xe64
 4969 0e50 9F070000 		.4byte	.LLST39
 4970 0e54 22       		.uleb128 0x22
 4971 0e55 64656600 		.ascii	"def\000"
 4972 0e59 01       		.byte	0x1
 4973 0e5a 71       		.byte	0x71
 4974 0e5b 1B0E0000 		.4byte	0xe1b
 4975 0e5f C0070000 		.4byte	.LLST40
 4976 0e63 00       		.byte	0
 4977 0e64 0C       		.uleb128 0xc
 4978 0e65 BB020000 		.4byte	0x2bb
 4979 0e69 2D       		.uleb128 0x2d
 4980 0e6a C8020000 		.4byte	.LASF201
 4981 0e6e 01       		.byte	0x1
 4982 0e6f 7A       		.byte	0x7a
 4983 0e70 46050000 		.4byte	0x546
 4984 0e74 00000000 		.4byte	.LFB11
 4985 0e78 2C000000 		.4byte	.LFE11-.LFB11
ARM GAS  C:\Users\Phuong\AppData\Local\Temp\ccnzvfGe.s 			page 121


 4986 0e7c 01       		.uleb128 0x1
 4987 0e7d 9C       		.byte	0x9c
 4988 0e7e B10E0000 		.4byte	0xeb1
 4989 0e82 2E       		.uleb128 0x2e
 4990 0e83 BF130000 		.4byte	.LASF202
 4991 0e87 01       		.byte	0x1
 4992 0e88 7A       		.byte	0x7a
 4993 0e89 8E040000 		.4byte	0x48e
 4994 0e8d D3070000 		.4byte	.LLST41
 4995 0e91 22       		.uleb128 0x22
 4996 0e92 64656600 		.ascii	"def\000"
 4997 0e96 01       		.byte	0x1
 4998 0e97 7C       		.byte	0x7c
 4999 0e98 1B0E0000 		.4byte	0xe1b
 5000 0e9c 15080000 		.4byte	.LLST42
 5001 0ea0 2F       		.uleb128 0x2f
 5002 0ea1 12000000 		.4byte	.LVL113
 5003 0ea5 D81B0000 		.4byte	0x1bd8
 5004 0ea9 30       		.uleb128 0x30
 5005 0eaa 01       		.uleb128 0x1
 5006 0eab 51       		.byte	0x51
 5007 0eac 02       		.uleb128 0x2
 5008 0ead 76       		.byte	0x76
 5009 0eae 00       		.sleb128 0
 5010 0eaf 00       		.byte	0
 5011 0eb0 00       		.byte	0
 5012 0eb1 2D       		.uleb128 0x2d
 5013 0eb2 D6070000 		.4byte	.LASF203
 5014 0eb6 01       		.byte	0x1
 5015 0eb7 88       		.byte	0x88
 5016 0eb8 46050000 		.4byte	0x546
 5017 0ebc 00000000 		.4byte	.LFB12
 5018 0ec0 2C000000 		.4byte	.LFE12-.LFB12
 5019 0ec4 01       		.uleb128 0x1
 5020 0ec5 9C       		.byte	0x9c
 5021 0ec6 030F0000 		.4byte	0xf03
 5022 0eca 2E       		.uleb128 0x2e
 5023 0ecb A5020000 		.4byte	.LASF204
 5024 0ecf 01       		.byte	0x1
 5025 0ed0 88       		.byte	0x88
 5026 0ed1 030F0000 		.4byte	0xf03
 5027 0ed5 28080000 		.4byte	.LLST43
 5028 0ed9 31       		.uleb128 0x31
 5029 0eda A40E0000 		.4byte	.LASF137
 5030 0ede 01       		.byte	0x1
 5031 0edf 89       		.byte	0x89
 5032 0ee0 7E000000 		.4byte	0x7e
 5033 0ee4 01       		.uleb128 0x1
 5034 0ee5 51       		.byte	0x51
 5035 0ee6 31       		.uleb128 0x31
 5036 0ee7 07020000 		.4byte	.LASF136
 5037 0eeb 01       		.byte	0x1
 5038 0eec 8A       		.byte	0x8a
 5039 0eed 080F0000 		.4byte	0xf08
 5040 0ef1 01       		.uleb128 0x1
 5041 0ef2 52       		.byte	0x52
 5042 0ef3 22       		.uleb128 0x22
ARM GAS  C:\Users\Phuong\AppData\Local\Temp\ccnzvfGe.s 			page 122


 5043 0ef4 64656600 		.ascii	"def\000"
 5044 0ef8 01       		.byte	0x1
 5045 0ef9 8C       		.byte	0x8c
 5046 0efa 1B0E0000 		.4byte	0xe1b
 5047 0efe 49080000 		.4byte	.LLST44
 5048 0f02 00       		.byte	0
 5049 0f03 0C       		.uleb128 0xc
 5050 0f04 E7000000 		.4byte	0xe7
 5051 0f08 0C       		.uleb128 0xc
 5052 0f09 15030000 		.4byte	0x315
 5053 0f0d 32       		.uleb128 0x32
 5054 0f0e 64120000 		.4byte	.LASF205
 5055 0f12 01       		.byte	0x1
 5056 0f13 97       		.byte	0x97
 5057 0f14 00000000 		.4byte	.LFB13
 5058 0f18 0C000000 		.4byte	.LFE13-.LFB13
 5059 0f1c 01       		.uleb128 0x1
 5060 0f1d 9C       		.byte	0x9c
 5061 0f1e 4E0F0000 		.4byte	0xf4e
 5062 0f22 20       		.uleb128 0x20
 5063 0f23 63747800 		.ascii	"ctx\000"
 5064 0f27 01       		.byte	0x1
 5065 0f28 97       		.byte	0x97
 5066 0f29 4E0F0000 		.4byte	0xf4e
 5067 0f2d 5C080000 		.4byte	.LLST45
 5068 0f31 2F       		.uleb128 0x2f
 5069 0f32 0A000000 		.4byte	.LVL125
 5070 0f36 E31B0000 		.4byte	0x1be3
 5071 0f3a 30       		.uleb128 0x30
 5072 0f3b 01       		.uleb128 0x1
 5073 0f3c 50       		.byte	0x50
 5074 0f3d 03       		.uleb128 0x3
 5075 0f3e F3       		.byte	0xf3
 5076 0f3f 01       		.uleb128 0x1
 5077 0f40 50       		.byte	0x50
 5078 0f41 30       		.uleb128 0x30
 5079 0f42 01       		.uleb128 0x1
 5080 0f43 51       		.byte	0x51
 5081 0f44 01       		.uleb128 0x1
 5082 0f45 30       		.byte	0x30
 5083 0f46 30       		.uleb128 0x30
 5084 0f47 01       		.uleb128 0x1
 5085 0f48 52       		.byte	0x52
 5086 0f49 02       		.uleb128 0x2
 5087 0f4a 08       		.byte	0x8
 5088 0f4b 40       		.byte	0x40
 5089 0f4c 00       		.byte	0
 5090 0f4d 00       		.byte	0
 5091 0f4e 0B       		.uleb128 0xb
 5092 0f4f 04       		.byte	0x4
 5093 0f50 B0050000 		.4byte	0x5b0
 5094 0f54 33       		.uleb128 0x33
 5095 0f55 5B0A0000 		.4byte	.LASF206
 5096 0f59 01       		.byte	0x1
 5097 0f5a 9C       		.byte	0x9c
 5098 0f5b 00000000 		.4byte	.LFB14
 5099 0f5f 1E000000 		.4byte	.LFE14-.LFB14
ARM GAS  C:\Users\Phuong\AppData\Local\Temp\ccnzvfGe.s 			page 123


 5100 0f63 01       		.uleb128 0x1
 5101 0f64 9C       		.byte	0x9c
 5102 0f65 8F0F0000 		.4byte	0xf8f
 5103 0f69 20       		.uleb128 0x20
 5104 0f6a 63747800 		.ascii	"ctx\000"
 5105 0f6e 01       		.byte	0x1
 5106 0f6f 9C       		.byte	0x9c
 5107 0f70 4E0F0000 		.4byte	0xf4e
 5108 0f74 7D080000 		.4byte	.LLST46
 5109 0f78 2F       		.uleb128 0x2f
 5110 0f79 1C000000 		.4byte	.LVL129
 5111 0f7d EC1B0000 		.4byte	0x1bec
 5112 0f81 30       		.uleb128 0x30
 5113 0f82 01       		.uleb128 0x1
 5114 0f83 50       		.byte	0x50
 5115 0f84 02       		.uleb128 0x2
 5116 0f85 74       		.byte	0x74
 5117 0f86 00       		.sleb128 0
 5118 0f87 30       		.uleb128 0x30
 5119 0f88 01       		.uleb128 0x1
 5120 0f89 51       		.byte	0x51
 5121 0f8a 02       		.uleb128 0x2
 5122 0f8b 08       		.byte	0x8
 5123 0f8c 40       		.byte	0x40
 5124 0f8d 00       		.byte	0
 5125 0f8e 00       		.byte	0
 5126 0f8f 34       		.uleb128 0x34
 5127 0f90 F6080000 		.4byte	.LASF207
 5128 0f94 01       		.byte	0x1
 5129 0f95 CA       		.byte	0xca
 5130 0f96 7E000000 		.4byte	0x7e
 5131 0f9a 00000000 		.4byte	.LFB16
 5132 0f9e 5C000000 		.4byte	.LFE16-.LFB16
 5133 0fa2 01       		.uleb128 0x1
 5134 0fa3 9C       		.byte	0x9c
 5135 0fa4 E50F0000 		.4byte	0xfe5
 5136 0fa8 20       		.uleb128 0x20
 5137 0fa9 63747800 		.ascii	"ctx\000"
 5138 0fad 01       		.byte	0x1
 5139 0fae CA       		.byte	0xca
 5140 0faf 4E0F0000 		.4byte	0xf4e
 5141 0fb3 A9080000 		.4byte	.LLST47
 5142 0fb7 20       		.uleb128 0x20
 5143 0fb8 6B657900 		.ascii	"key\000"
 5144 0fbc 01       		.byte	0x1
 5145 0fbd CA       		.byte	0xca
 5146 0fbe DA050000 		.4byte	0x5da
 5147 0fc2 47090000 		.4byte	.LLST48
 5148 0fc6 2E       		.uleb128 0x2e
 5149 0fc7 A40E0000 		.4byte	.LASF137
 5150 0fcb 01       		.byte	0x1
 5151 0fcc CB       		.byte	0xcb
 5152 0fcd 7E000000 		.4byte	0x7e
 5153 0fd1 9A090000 		.4byte	.LLST49
 5154 0fd5 2E       		.uleb128 0x2e
 5155 0fd6 62000000 		.4byte	.LASF146
 5156 0fda 01       		.byte	0x1
ARM GAS  C:\Users\Phuong\AppData\Local\Temp\ccnzvfGe.s 			page 124


 5157 0fdb CB       		.byte	0xcb
 5158 0fdc E50F0000 		.4byte	0xfe5
 5159 0fe0 ED090000 		.4byte	.LLST50
 5160 0fe4 00       		.byte	0
 5161 0fe5 0C       		.uleb128 0xc
 5162 0fe6 75030000 		.4byte	0x375
 5163 0fea 2D       		.uleb128 0x2d
 5164 0feb B3120000 		.4byte	.LASF208
 5165 0fef 01       		.byte	0x1
 5166 0ff0 EC       		.byte	0xec
 5167 0ff1 7E000000 		.4byte	0x7e
 5168 0ff5 00000000 		.4byte	.LFB17
 5169 0ff9 88000000 		.4byte	.LFE17-.LFB17
 5170 0ffd 01       		.uleb128 0x1
 5171 0ffe 9C       		.byte	0x9c
 5172 0fff 74100000 		.4byte	0x1074
 5173 1003 20       		.uleb128 0x20
 5174 1004 63747800 		.ascii	"ctx\000"
 5175 1008 01       		.byte	0x1
 5176 1009 EC       		.byte	0xec
 5177 100a 4E0F0000 		.4byte	0xf4e
 5178 100e 760A0000 		.4byte	.LLST51
 5179 1012 20       		.uleb128 0x20
 5180 1013 697600   		.ascii	"iv\000"
 5181 1016 01       		.byte	0x1
 5182 1017 ED       		.byte	0xed
 5183 1018 DA050000 		.4byte	0x5da
 5184 101c 100B0000 		.4byte	.LLST52
 5185 1020 2E       		.uleb128 0x2e
 5186 1021 0B070000 		.4byte	.LASF209
 5187 1025 01       		.byte	0x1
 5188 1026 ED       		.byte	0xed
 5189 1027 8C000000 		.4byte	0x8c
 5190 102b 520B0000 		.4byte	.LLST53
 5191 102f 24       		.uleb128 0x24
 5192 1030 58090000 		.4byte	.LASF210
 5193 1034 01       		.byte	0x1
 5194 1035 EF       		.byte	0xef
 5195 1036 8C000000 		.4byte	0x8c
 5196 103a A20B0000 		.4byte	.LLST54
 5197 103e 35       		.uleb128 0x35
 5198 103f 48000000 		.4byte	.LVL153
 5199 1043 F71B0000 		.4byte	0x1bf7
 5200 1047 57100000 		.4byte	0x1057
 5201 104b 30       		.uleb128 0x30
 5202 104c 01       		.uleb128 0x1
 5203 104d 51       		.byte	0x51
 5204 104e 02       		.uleb128 0x2
 5205 104f 76       		.byte	0x76
 5206 1050 00       		.sleb128 0
 5207 1051 30       		.uleb128 0x30
 5208 1052 01       		.uleb128 0x1
 5209 1053 52       		.byte	0x52
 5210 1054 01       		.uleb128 0x1
 5211 1055 30       		.byte	0x30
 5212 1056 00       		.byte	0
 5213 1057 2F       		.uleb128 0x2f
ARM GAS  C:\Users\Phuong\AppData\Local\Temp\ccnzvfGe.s 			page 125


 5214 1058 5C000000 		.4byte	.LVL154
 5215 105c 021C0000 		.4byte	0x1c02
 5216 1060 30       		.uleb128 0x30
 5217 1061 01       		.uleb128 0x1
 5218 1062 50       		.byte	0x50
 5219 1063 02       		.uleb128 0x2
 5220 1064 75       		.byte	0x75
 5221 1065 28       		.sleb128 40
 5222 1066 30       		.uleb128 0x30
 5223 1067 01       		.uleb128 0x1
 5224 1068 51       		.byte	0x51
 5225 1069 02       		.uleb128 0x2
 5226 106a 76       		.byte	0x76
 5227 106b 00       		.sleb128 0
 5228 106c 30       		.uleb128 0x30
 5229 106d 01       		.uleb128 0x1
 5230 106e 52       		.byte	0x52
 5231 106f 02       		.uleb128 0x2
 5232 1070 74       		.byte	0x74
 5233 1071 00       		.sleb128 0
 5234 1072 00       		.byte	0
 5235 1073 00       		.byte	0
 5236 1074 36       		.uleb128 0x36
 5237 1075 2A100000 		.4byte	.LASF211
 5238 1079 01       		.byte	0x1
 5239 107a 1C01     		.2byte	0x11c
 5240 107c 7E000000 		.4byte	0x7e
 5241 1080 00000000 		.4byte	.LFB18
 5242 1084 20000000 		.4byte	.LFE18-.LFB18
 5243 1088 01       		.uleb128 0x1
 5244 1089 9C       		.byte	0x9c
 5245 108a 9F100000 		.4byte	0x109f
 5246 108e 37       		.uleb128 0x37
 5247 108f 63747800 		.ascii	"ctx\000"
 5248 1093 01       		.byte	0x1
 5249 1094 1C01     		.2byte	0x11c
 5250 1096 4E0F0000 		.4byte	0xf4e
 5251 109a D60B0000 		.4byte	.LLST55
 5252 109e 00       		.byte	0
 5253 109f 36       		.uleb128 0x36
 5254 10a0 34020000 		.4byte	.LASF212
 5255 10a4 01       		.byte	0x1
 5256 10a5 2701     		.2byte	0x127
 5257 10a7 7E000000 		.4byte	0x7e
 5258 10ab 00000000 		.4byte	.LFB19
 5259 10af 70000000 		.4byte	.LFE19-.LFB19
 5260 10b3 01       		.uleb128 0x1
 5261 10b4 9C       		.byte	0x9c
 5262 10b5 5F110000 		.4byte	0x115f
 5263 10b9 37       		.uleb128 0x37
 5264 10ba 63747800 		.ascii	"ctx\000"
 5265 10be 01       		.byte	0x1
 5266 10bf 2701     		.2byte	0x127
 5267 10c1 4E0F0000 		.4byte	0xf4e
 5268 10c5 290C0000 		.4byte	.LLST56
 5269 10c9 37       		.uleb128 0x37
 5270 10ca 616400   		.ascii	"ad\000"
ARM GAS  C:\Users\Phuong\AppData\Local\Temp\ccnzvfGe.s 			page 126


 5271 10cd 01       		.byte	0x1
 5272 10ce 2801     		.2byte	0x128
 5273 10d0 DA050000 		.4byte	0x5da
 5274 10d4 AD0C0000 		.4byte	.LLST57
 5275 10d8 27       		.uleb128 0x27
 5276 10d9 530B0000 		.4byte	.LASF213
 5277 10dd 01       		.byte	0x1
 5278 10de 2801     		.2byte	0x128
 5279 10e0 8C000000 		.4byte	0x8c
 5280 10e4 050D0000 		.4byte	.LLST58
 5281 10e8 38       		.uleb128 0x38
 5282 10e9 36000000 		.4byte	.LBB16
 5283 10ed 26000000 		.4byte	.LBE16-.LBB16
 5284 10f1 40110000 		.4byte	0x1140
 5285 10f5 2B       		.uleb128 0x2b
 5286 10f6 BF030000 		.4byte	.LASF214
 5287 10fa 01       		.byte	0x1
 5288 10fb 3801     		.2byte	0x138
 5289 10fd 7E000000 		.4byte	0x7e
 5290 1101 470D0000 		.4byte	.LLST59
 5291 1105 2B       		.uleb128 0x2b
 5292 1106 07020000 		.4byte	.LASF136
 5293 110a 01       		.byte	0x1
 5294 110b 3901     		.2byte	0x139
 5295 110d F9070000 		.4byte	0x7f9
 5296 1111 5A0D0000 		.4byte	.LLST60
 5297 1115 35       		.uleb128 0x35
 5298 1116 4C000000 		.4byte	.LVL184
 5299 111a 0B1C0000 		.4byte	0x1c0b
 5300 111e 29110000 		.4byte	0x1129
 5301 1122 30       		.uleb128 0x30
 5302 1123 01       		.uleb128 0x1
 5303 1124 51       		.byte	0x51
 5304 1125 02       		.uleb128 0x2
 5305 1126 74       		.byte	0x74
 5306 1127 28       		.sleb128 40
 5307 1128 00       		.byte	0
 5308 1129 2F       		.uleb128 0x2f
 5309 112a 5A000000 		.4byte	.LVL186
 5310 112e 161C0000 		.4byte	0x1c16
 5311 1132 30       		.uleb128 0x30
 5312 1133 01       		.uleb128 0x1
 5313 1134 51       		.byte	0x51
 5314 1135 02       		.uleb128 0x2
 5315 1136 75       		.byte	0x75
 5316 1137 00       		.sleb128 0
 5317 1138 30       		.uleb128 0x30
 5318 1139 01       		.uleb128 0x1
 5319 113a 52       		.byte	0x52
 5320 113b 02       		.uleb128 0x2
 5321 113c 76       		.byte	0x76
 5322 113d 00       		.sleb128 0
 5323 113e 00       		.byte	0
 5324 113f 00       		.byte	0
 5325 1140 2F       		.uleb128 0x2f
 5326 1141 2E000000 		.4byte	.LVL179
 5327 1145 211C0000 		.4byte	0x1c21
ARM GAS  C:\Users\Phuong\AppData\Local\Temp\ccnzvfGe.s 			page 127


 5328 1149 30       		.uleb128 0x30
 5329 114a 01       		.uleb128 0x1
 5330 114b 52       		.byte	0x52
 5331 114c 02       		.uleb128 0x2
 5332 114d 74       		.byte	0x74
 5333 114e 28       		.sleb128 40
 5334 114f 30       		.uleb128 0x30
 5335 1150 02       		.uleb128 0x2
 5336 1151 7D       		.byte	0x7d
 5337 1152 00       		.sleb128 0
 5338 1153 02       		.uleb128 0x2
 5339 1154 75       		.byte	0x75
 5340 1155 00       		.sleb128 0
 5341 1156 30       		.uleb128 0x30
 5342 1157 02       		.uleb128 0x2
 5343 1158 7D       		.byte	0x7d
 5344 1159 04       		.sleb128 4
 5345 115a 02       		.uleb128 0x2
 5346 115b 76       		.byte	0x76
 5347 115c 00       		.sleb128 0
 5348 115d 00       		.byte	0
 5349 115e 00       		.byte	0
 5350 115f 39       		.uleb128 0x39
 5351 1160 730B0000 		.4byte	.LASF215
 5352 1164 01       		.byte	0x1
 5353 1165 4E01     		.2byte	0x14e
 5354 1167 7E000000 		.4byte	0x7e
 5355 116b 00000000 		.4byte	.LFB20
 5356 116f B8020000 		.4byte	.LFE20-.LFB20
 5357 1173 01       		.uleb128 0x1
 5358 1174 9C       		.byte	0x9c
 5359 1175 D9130000 		.4byte	0x13d9
 5360 1179 37       		.uleb128 0x37
 5361 117a 63747800 		.ascii	"ctx\000"
 5362 117e 01       		.byte	0x1
 5363 117f 4E01     		.2byte	0x14e
 5364 1181 4E0F0000 		.4byte	0xf4e
 5365 1185 6D0D0000 		.4byte	.LLST61
 5366 1189 27       		.uleb128 0x27
 5367 118a A5110000 		.4byte	.LASF185
 5368 118e 01       		.byte	0x1
 5369 118f 4E01     		.2byte	0x14e
 5370 1191 DA050000 		.4byte	0x5da
 5371 1195 8F0E0000 		.4byte	.LLST62
 5372 1199 27       		.uleb128 0x27
 5373 119a 2F020000 		.4byte	.LASF216
 5374 119e 01       		.byte	0x1
 5375 119f 4F01     		.2byte	0x14f
 5376 11a1 8C000000 		.4byte	0x8c
 5377 11a5 210F0000 		.4byte	.LLST63
 5378 11a9 27       		.uleb128 0x27
 5379 11aa 6C000000 		.4byte	.LASF179
 5380 11ae 01       		.byte	0x1
 5381 11af 4F01     		.2byte	0x14f
 5382 11b1 66050000 		.4byte	0x566
 5383 11b5 A20F0000 		.4byte	.LLST64
 5384 11b9 26       		.uleb128 0x26
ARM GAS  C:\Users\Phuong\AppData\Local\Temp\ccnzvfGe.s 			page 128


 5385 11ba C3020000 		.4byte	.LASF217
 5386 11be 01       		.byte	0x1
 5387 11bf 4F01     		.2byte	0x14f
 5388 11c1 8B050000 		.4byte	0x58b
 5389 11c5 02       		.uleb128 0x2
 5390 11c6 91       		.byte	0x91
 5391 11c7 00       		.sleb128 0
 5392 11c8 29       		.uleb128 0x29
 5393 11c9 72657400 		.ascii	"ret\000"
 5394 11cd 01       		.byte	0x1
 5395 11ce 5101     		.2byte	0x151
 5396 11d0 7E000000 		.4byte	0x7e
 5397 11d4 EF0F0000 		.4byte	.LLST65
 5398 11d8 2B       		.uleb128 0x2b
 5399 11d9 1F100000 		.4byte	.LASF141
 5400 11dd 01       		.byte	0x1
 5401 11de 5201     		.2byte	0x152
 5402 11e0 8C000000 		.4byte	0x8c
 5403 11e4 44100000 		.4byte	.LLST66
 5404 11e8 3A       		.uleb128 0x3a
 5405 11e9 57090000 		.4byte	0x957
 5406 11ed 2C000000 		.4byte	.LBB17
 5407 11f1 1A000000 		.4byte	.LBE17-.LBB17
 5408 11f5 01       		.byte	0x1
 5409 11f6 5A01     		.2byte	0x15a
 5410 11f8 06120000 		.4byte	0x1206
 5411 11fc 3B       		.uleb128 0x3b
 5412 11fd 68090000 		.4byte	0x968
 5413 1201 64100000 		.4byte	.LLST67
 5414 1205 00       		.byte	0
 5415 1206 3C       		.uleb128 0x3c
 5416 1207 00000000 		.4byte	.Ldebug_ranges0+0
 5417 120b C7120000 		.4byte	0x12c7
 5418 120f 2B       		.uleb128 0x2b
 5419 1210 4B080000 		.4byte	.LASF218
 5420 1214 01       		.byte	0x1
 5421 1215 8C01     		.2byte	0x18c
 5422 1217 8C000000 		.4byte	0x8c
 5423 121b 77100000 		.4byte	.LLST68
 5424 121f 35       		.uleb128 0x35
 5425 1220 0C010000 		.4byte	.LVL221
 5426 1224 021C0000 		.4byte	0x1c02
 5427 1228 3A120000 		.4byte	0x123a
 5428 122c 30       		.uleb128 0x30
 5429 122d 01       		.uleb128 0x1
 5430 122e 51       		.byte	0x51
 5431 122f 03       		.uleb128 0x3
 5432 1230 91       		.byte	0x91
 5433 1231 58       		.sleb128 -40
 5434 1232 06       		.byte	0x6
 5435 1233 30       		.uleb128 0x30
 5436 1234 01       		.uleb128 0x1
 5437 1235 52       		.byte	0x52
 5438 1236 02       		.uleb128 0x2
 5439 1237 76       		.byte	0x76
 5440 1238 00       		.sleb128 0
 5441 1239 00       		.byte	0
ARM GAS  C:\Users\Phuong\AppData\Local\Temp\ccnzvfGe.s 			page 129


 5442 123a 35       		.uleb128 0x35
 5443 123b 2E010000 		.4byte	.LVL223
 5444 123f 021C0000 		.4byte	0x1c02
 5445 1243 55120000 		.4byte	0x1255
 5446 1247 30       		.uleb128 0x30
 5447 1248 01       		.uleb128 0x1
 5448 1249 51       		.byte	0x51
 5449 124a 03       		.uleb128 0x3
 5450 124b 91       		.byte	0x91
 5451 124c 58       		.sleb128 -40
 5452 124d 06       		.byte	0x6
 5453 124e 30       		.uleb128 0x30
 5454 124f 01       		.uleb128 0x1
 5455 1250 52       		.byte	0x52
 5456 1251 02       		.uleb128 0x2
 5457 1252 75       		.byte	0x75
 5458 1253 00       		.sleb128 0
 5459 1254 00       		.byte	0
 5460 1255 3D       		.uleb128 0x3d
 5461 1256 4E010000 		.4byte	.LVL224
 5462 125a 02       		.uleb128 0x2
 5463 125b 7B       		.byte	0x7b
 5464 125c 00       		.sleb128 0
 5465 125d 7D120000 		.4byte	0x127d
 5466 1261 30       		.uleb128 0x30
 5467 1262 01       		.uleb128 0x1
 5468 1263 52       		.byte	0x52
 5469 1264 02       		.uleb128 0x2
 5470 1265 7A       		.byte	0x7a
 5471 1266 00       		.sleb128 0
 5472 1267 30       		.uleb128 0x30
 5473 1268 01       		.uleb128 0x1
 5474 1269 53       		.byte	0x53
 5475 126a 02       		.uleb128 0x2
 5476 126b 74       		.byte	0x74
 5477 126c 28       		.sleb128 40
 5478 126d 30       		.uleb128 0x30
 5479 126e 02       		.uleb128 0x2
 5480 126f 7D       		.byte	0x7d
 5481 1270 00       		.sleb128 0
 5482 1271 02       		.uleb128 0x2
 5483 1272 74       		.byte	0x74
 5484 1273 14       		.sleb128 20
 5485 1274 30       		.uleb128 0x30
 5486 1275 02       		.uleb128 0x2
 5487 1276 7D       		.byte	0x7d
 5488 1277 04       		.sleb128 4
 5489 1278 03       		.uleb128 0x3
 5490 1279 91       		.byte	0x91
 5491 127a 5C       		.sleb128 -36
 5492 127b 06       		.byte	0x6
 5493 127c 00       		.byte	0
 5494 127d 35       		.uleb128 0x35
 5495 127e A8010000 		.4byte	.LVL233
 5496 1282 021C0000 		.4byte	0x1c02
 5497 1286 A1120000 		.4byte	0x12a1
 5498 128a 30       		.uleb128 0x30
ARM GAS  C:\Users\Phuong\AppData\Local\Temp\ccnzvfGe.s 			page 130


 5499 128b 01       		.uleb128 0x1
 5500 128c 50       		.byte	0x50
 5501 128d 02       		.uleb128 0x2
 5502 128e 74       		.byte	0x74
 5503 128f 14       		.sleb128 20
 5504 1290 30       		.uleb128 0x30
 5505 1291 01       		.uleb128 0x1
 5506 1292 51       		.byte	0x51
 5507 1293 06       		.uleb128 0x6
 5508 1294 91       		.byte	0x91
 5509 1295 58       		.sleb128 -40
 5510 1296 06       		.byte	0x6
 5511 1297 76       		.byte	0x76
 5512 1298 00       		.sleb128 0
 5513 1299 22       		.byte	0x22
 5514 129a 30       		.uleb128 0x30
 5515 129b 01       		.uleb128 0x1
 5516 129c 52       		.byte	0x52
 5517 129d 02       		.uleb128 0x2
 5518 129e 75       		.byte	0x75
 5519 129f 00       		.sleb128 0
 5520 12a0 00       		.byte	0
 5521 12a1 3E       		.uleb128 0x3e
 5522 12a2 D0010000 		.4byte	.LVL236
 5523 12a6 02       		.uleb128 0x2
 5524 12a7 75       		.byte	0x75
 5525 12a8 00       		.sleb128 0
 5526 12a9 30       		.uleb128 0x30
 5527 12aa 01       		.uleb128 0x1
 5528 12ab 52       		.byte	0x52
 5529 12ac 02       		.uleb128 0x2
 5530 12ad 76       		.byte	0x76
 5531 12ae 00       		.sleb128 0
 5532 12af 30       		.uleb128 0x30
 5533 12b0 01       		.uleb128 0x1
 5534 12b1 53       		.byte	0x53
 5535 12b2 02       		.uleb128 0x2
 5536 12b3 74       		.byte	0x74
 5537 12b4 28       		.sleb128 40
 5538 12b5 30       		.uleb128 0x30
 5539 12b6 02       		.uleb128 0x2
 5540 12b7 7D       		.byte	0x7d
 5541 12b8 00       		.sleb128 0
 5542 12b9 03       		.uleb128 0x3
 5543 12ba 91       		.byte	0x91
 5544 12bb 58       		.sleb128 -40
 5545 12bc 06       		.byte	0x6
 5546 12bd 30       		.uleb128 0x30
 5547 12be 02       		.uleb128 0x2
 5548 12bf 7D       		.byte	0x7d
 5549 12c0 04       		.sleb128 4
 5550 12c1 03       		.uleb128 0x3
 5551 12c2 91       		.byte	0x91
 5552 12c3 5C       		.sleb128 -36
 5553 12c4 06       		.byte	0x6
 5554 12c5 00       		.byte	0
 5555 12c6 00       		.byte	0
ARM GAS  C:\Users\Phuong\AppData\Local\Temp\ccnzvfGe.s 			page 131


 5556 12c7 3D       		.uleb128 0x3d
 5557 12c8 6A000000 		.4byte	.LVL204
 5558 12cc 02       		.uleb128 0x2
 5559 12cd 75       		.byte	0x75
 5560 12ce 00       		.sleb128 0
 5561 12cf E2120000 		.4byte	0x12e2
 5562 12d3 30       		.uleb128 0x30
 5563 12d4 01       		.uleb128 0x1
 5564 12d5 52       		.byte	0x52
 5565 12d6 03       		.uleb128 0x3
 5566 12d7 91       		.byte	0x91
 5567 12d8 58       		.sleb128 -40
 5568 12d9 06       		.byte	0x6
 5569 12da 30       		.uleb128 0x30
 5570 12db 01       		.uleb128 0x1
 5571 12dc 53       		.byte	0x53
 5572 12dd 03       		.uleb128 0x3
 5573 12de 91       		.byte	0x91
 5574 12df 5C       		.sleb128 -36
 5575 12e0 06       		.byte	0x6
 5576 12e1 00       		.byte	0
 5577 12e2 35       		.uleb128 0x35
 5578 12e3 7E000000 		.4byte	.LVL209
 5579 12e7 2C1C0000 		.4byte	0x1c2c
 5580 12eb 04130000 		.4byte	0x1304
 5581 12ef 30       		.uleb128 0x30
 5582 12f0 01       		.uleb128 0x1
 5583 12f1 51       		.byte	0x51
 5584 12f2 02       		.uleb128 0x2
 5585 12f3 76       		.byte	0x76
 5586 12f4 00       		.sleb128 0
 5587 12f5 30       		.uleb128 0x30
 5588 12f6 01       		.uleb128 0x1
 5589 12f7 52       		.byte	0x52
 5590 12f8 03       		.uleb128 0x3
 5591 12f9 91       		.byte	0x91
 5592 12fa 58       		.sleb128 -40
 5593 12fb 06       		.byte	0x6
 5594 12fc 30       		.uleb128 0x30
 5595 12fd 01       		.uleb128 0x1
 5596 12fe 53       		.byte	0x53
 5597 12ff 03       		.uleb128 0x3
 5598 1300 91       		.byte	0x91
 5599 1301 5C       		.sleb128 -36
 5600 1302 06       		.byte	0x6
 5601 1303 00       		.byte	0
 5602 1304 35       		.uleb128 0x35
 5603 1305 94000000 		.4byte	.LVL214
 5604 1309 371C0000 		.4byte	0x1c37
 5605 130d 26130000 		.4byte	0x1326
 5606 1311 30       		.uleb128 0x30
 5607 1312 01       		.uleb128 0x1
 5608 1313 51       		.byte	0x51
 5609 1314 02       		.uleb128 0x2
 5610 1315 76       		.byte	0x76
 5611 1316 00       		.sleb128 0
 5612 1317 30       		.uleb128 0x30
ARM GAS  C:\Users\Phuong\AppData\Local\Temp\ccnzvfGe.s 			page 132


 5613 1318 01       		.uleb128 0x1
 5614 1319 52       		.byte	0x52
 5615 131a 03       		.uleb128 0x3
 5616 131b 91       		.byte	0x91
 5617 131c 58       		.sleb128 -40
 5618 131d 06       		.byte	0x6
 5619 131e 30       		.uleb128 0x30
 5620 131f 01       		.uleb128 0x1
 5621 1320 53       		.byte	0x53
 5622 1321 03       		.uleb128 0x3
 5623 1322 91       		.byte	0x91
 5624 1323 5C       		.sleb128 -36
 5625 1324 06       		.byte	0x6
 5626 1325 00       		.byte	0
 5627 1326 3D       		.uleb128 0x3d
 5628 1327 00020000 		.4byte	.LVL239
 5629 132b 02       		.uleb128 0x2
 5630 132c 75       		.byte	0x75
 5631 132d 00       		.sleb128 0
 5632 132e 56130000 		.4byte	0x1356
 5633 1332 30       		.uleb128 0x30
 5634 1333 01       		.uleb128 0x1
 5635 1334 52       		.byte	0x52
 5636 1335 02       		.uleb128 0x2
 5637 1336 76       		.byte	0x76
 5638 1337 00       		.sleb128 0
 5639 1338 30       		.uleb128 0x30
 5640 1339 01       		.uleb128 0x1
 5641 133a 53       		.byte	0x53
 5642 133b 02       		.uleb128 0x2
 5643 133c 74       		.byte	0x74
 5644 133d 7C       		.sleb128 -4
 5645 133e 30       		.uleb128 0x30
 5646 133f 02       		.uleb128 0x2
 5647 1340 7D       		.byte	0x7d
 5648 1341 00       		.sleb128 0
 5649 1342 02       		.uleb128 0x2
 5650 1343 74       		.byte	0x74
 5651 1344 00       		.sleb128 0
 5652 1345 30       		.uleb128 0x30
 5653 1346 02       		.uleb128 0x2
 5654 1347 7D       		.byte	0x7d
 5655 1348 04       		.sleb128 4
 5656 1349 03       		.uleb128 0x3
 5657 134a 91       		.byte	0x91
 5658 134b 58       		.sleb128 -40
 5659 134c 06       		.byte	0x6
 5660 134d 30       		.uleb128 0x30
 5661 134e 02       		.uleb128 0x2
 5662 134f 7D       		.byte	0x7d
 5663 1350 08       		.sleb128 8
 5664 1351 03       		.uleb128 0x3
 5665 1352 91       		.byte	0x91
 5666 1353 5C       		.sleb128 -36
 5667 1354 06       		.byte	0x6
 5668 1355 00       		.byte	0
 5669 1356 3D       		.uleb128 0x3d
ARM GAS  C:\Users\Phuong\AppData\Local\Temp\ccnzvfGe.s 			page 133


 5670 1357 28020000 		.4byte	.LVL241
 5671 135b 02       		.uleb128 0x2
 5672 135c 75       		.byte	0x75
 5673 135d 00       		.sleb128 0
 5674 135e 85130000 		.4byte	0x1385
 5675 1362 30       		.uleb128 0x30
 5676 1363 01       		.uleb128 0x1
 5677 1364 51       		.byte	0x51
 5678 1365 02       		.uleb128 0x2
 5679 1366 76       		.byte	0x76
 5680 1367 00       		.sleb128 0
 5681 1368 30       		.uleb128 0x30
 5682 1369 01       		.uleb128 0x1
 5683 136a 52       		.byte	0x52
 5684 136b 02       		.uleb128 0x2
 5685 136c 74       		.byte	0x74
 5686 136d 24       		.sleb128 36
 5687 136e 30       		.uleb128 0x30
 5688 136f 01       		.uleb128 0x1
 5689 1370 53       		.byte	0x53
 5690 1371 02       		.uleb128 0x2
 5691 1372 74       		.byte	0x74
 5692 1373 28       		.sleb128 40
 5693 1374 30       		.uleb128 0x30
 5694 1375 02       		.uleb128 0x2
 5695 1376 7D       		.byte	0x7d
 5696 1377 00       		.sleb128 0
 5697 1378 03       		.uleb128 0x3
 5698 1379 91       		.byte	0x91
 5699 137a 58       		.sleb128 -40
 5700 137b 06       		.byte	0x6
 5701 137c 30       		.uleb128 0x30
 5702 137d 02       		.uleb128 0x2
 5703 137e 7D       		.byte	0x7d
 5704 137f 04       		.sleb128 4
 5705 1380 03       		.uleb128 0x3
 5706 1381 91       		.byte	0x91
 5707 1382 5C       		.sleb128 -36
 5708 1383 06       		.byte	0x6
 5709 1384 00       		.byte	0
 5710 1385 3D       		.uleb128 0x3d
 5711 1386 54020000 		.4byte	.LVL244
 5712 138a 02       		.uleb128 0x2
 5713 138b 75       		.byte	0x75
 5714 138c 00       		.sleb128 0
 5715 138d BB130000 		.4byte	0x13bb
 5716 1391 30       		.uleb128 0x30
 5717 1392 01       		.uleb128 0x1
 5718 1393 51       		.byte	0x51
 5719 1394 02       		.uleb128 0x2
 5720 1395 76       		.byte	0x76
 5721 1396 00       		.sleb128 0
 5722 1397 30       		.uleb128 0x30
 5723 1398 01       		.uleb128 0x1
 5724 1399 52       		.byte	0x52
 5725 139a 02       		.uleb128 0x2
 5726 139b 74       		.byte	0x74
ARM GAS  C:\Users\Phuong\AppData\Local\Temp\ccnzvfGe.s 			page 134


 5727 139c 10       		.sleb128 16
 5728 139d 30       		.uleb128 0x30
 5729 139e 01       		.uleb128 0x1
 5730 139f 53       		.byte	0x53
 5731 13a0 02       		.uleb128 0x2
 5732 13a1 74       		.byte	0x74
 5733 13a2 14       		.sleb128 20
 5734 13a3 30       		.uleb128 0x30
 5735 13a4 02       		.uleb128 0x2
 5736 13a5 7D       		.byte	0x7d
 5737 13a6 00       		.sleb128 0
 5738 13a7 02       		.uleb128 0x2
 5739 13a8 74       		.byte	0x74
 5740 13a9 00       		.sleb128 0
 5741 13aa 30       		.uleb128 0x30
 5742 13ab 02       		.uleb128 0x2
 5743 13ac 7D       		.byte	0x7d
 5744 13ad 04       		.sleb128 4
 5745 13ae 03       		.uleb128 0x3
 5746 13af 91       		.byte	0x91
 5747 13b0 58       		.sleb128 -40
 5748 13b1 06       		.byte	0x6
 5749 13b2 30       		.uleb128 0x30
 5750 13b3 02       		.uleb128 0x2
 5751 13b4 7D       		.byte	0x7d
 5752 13b5 08       		.sleb128 8
 5753 13b6 03       		.uleb128 0x3
 5754 13b7 91       		.byte	0x91
 5755 13b8 5C       		.sleb128 -36
 5756 13b9 06       		.byte	0x6
 5757 13ba 00       		.byte	0
 5758 13bb 3E       		.uleb128 0x3e
 5759 13bc 70020000 		.4byte	.LVL246
 5760 13c0 02       		.uleb128 0x2
 5761 13c1 75       		.byte	0x75
 5762 13c2 00       		.sleb128 0
 5763 13c3 30       		.uleb128 0x30
 5764 13c4 01       		.uleb128 0x1
 5765 13c5 51       		.byte	0x51
 5766 13c6 02       		.uleb128 0x2
 5767 13c7 76       		.byte	0x76
 5768 13c8 00       		.sleb128 0
 5769 13c9 30       		.uleb128 0x30
 5770 13ca 01       		.uleb128 0x1
 5771 13cb 52       		.byte	0x52
 5772 13cc 03       		.uleb128 0x3
 5773 13cd 91       		.byte	0x91
 5774 13ce 58       		.sleb128 -40
 5775 13cf 06       		.byte	0x6
 5776 13d0 30       		.uleb128 0x30
 5777 13d1 01       		.uleb128 0x1
 5778 13d2 53       		.byte	0x53
 5779 13d3 03       		.uleb128 0x3
 5780 13d4 91       		.byte	0x91
 5781 13d5 5C       		.sleb128 -36
 5782 13d6 06       		.byte	0x6
 5783 13d7 00       		.byte	0
ARM GAS  C:\Users\Phuong\AppData\Local\Temp\ccnzvfGe.s 			page 135


 5784 13d8 00       		.byte	0
 5785 13d9 39       		.uleb128 0x39
 5786 13da DB060000 		.4byte	.LASF219
 5787 13de 01       		.byte	0x1
 5788 13df E902     		.2byte	0x2e9
 5789 13e1 7E000000 		.4byte	0x7e
 5790 13e5 00000000 		.4byte	.LFB30
 5791 13e9 70010000 		.4byte	.LFE30-.LFB30
 5792 13ed 01       		.uleb128 0x1
 5793 13ee 9C       		.byte	0x9c
 5794 13ef 00150000 		.4byte	0x1500
 5795 13f3 37       		.uleb128 0x37
 5796 13f4 63747800 		.ascii	"ctx\000"
 5797 13f8 01       		.byte	0x1
 5798 13f9 E902     		.2byte	0x2e9
 5799 13fb 4E0F0000 		.4byte	0xf4e
 5800 13ff AC100000 		.4byte	.LLST69
 5801 1403 27       		.uleb128 0x27
 5802 1404 6C000000 		.4byte	.LASF179
 5803 1408 01       		.byte	0x1
 5804 1409 EA02     		.2byte	0x2ea
 5805 140b 66050000 		.4byte	0x566
 5806 140f 22120000 		.4byte	.LLST70
 5807 1413 27       		.uleb128 0x27
 5808 1414 C3020000 		.4byte	.LASF217
 5809 1418 01       		.byte	0x1
 5810 1419 EA02     		.2byte	0x2ea
 5811 141b 8B050000 		.4byte	0x58b
 5812 141f A6120000 		.4byte	.LLST71
 5813 1423 3F       		.uleb128 0x3f
 5814 1424 18000000 		.4byte	.Ldebug_ranges0+0x18
 5815 1428 29       		.uleb128 0x29
 5816 1429 72657400 		.ascii	"ret\000"
 5817 142d 01       		.byte	0x1
 5818 142e 0C03     		.2byte	0x30c
 5819 1430 7E000000 		.4byte	0x7e
 5820 1434 E8120000 		.4byte	.LLST72
 5821 1438 3A       		.uleb128 0x3a
 5822 1439 80090000 		.4byte	0x980
 5823 143d 74000000 		.4byte	.LBB22
 5824 1441 18000000 		.4byte	.LBE22-.LBB22
 5825 1445 01       		.byte	0x1
 5826 1446 1903     		.2byte	0x319
 5827 1448 56140000 		.4byte	0x1456
 5828 144c 3B       		.uleb128 0x3b
 5829 144d 91090000 		.4byte	0x991
 5830 1451 1E130000 		.4byte	.LLST73
 5831 1455 00       		.byte	0
 5832 1456 3A       		.uleb128 0x3a
 5833 1457 57090000 		.4byte	0x957
 5834 145b 92000000 		.4byte	.LBB24
 5835 145f 12000000 		.4byte	.LBE24-.LBB24
 5836 1463 01       		.byte	0x1
 5837 1464 1C03     		.2byte	0x31c
 5838 1466 74140000 		.4byte	0x1474
 5839 146a 3B       		.uleb128 0x3b
 5840 146b 68090000 		.4byte	0x968
ARM GAS  C:\Users\Phuong\AppData\Local\Temp\ccnzvfGe.s 			page 136


 5841 146f 31130000 		.4byte	.LLST74
 5842 1473 00       		.byte	0
 5843 1474 3A       		.uleb128 0x3a
 5844 1475 57090000 		.4byte	0x957
 5845 1479 C4000000 		.4byte	.LBB26
 5846 147d 18000000 		.4byte	.LBE26-.LBB26
 5847 1481 01       		.byte	0x1
 5848 1482 2903     		.2byte	0x329
 5849 1484 92140000 		.4byte	0x1492
 5850 1488 3B       		.uleb128 0x3b
 5851 1489 68090000 		.4byte	0x968
 5852 148d 44130000 		.4byte	.LLST75
 5853 1491 00       		.byte	0
 5854 1492 3A       		.uleb128 0x3a
 5855 1493 57090000 		.4byte	0x957
 5856 1497 FA000000 		.4byte	.LBB28
 5857 149b 14000000 		.4byte	.LBE28-.LBB28
 5858 149f 01       		.byte	0x1
 5859 14a0 3203     		.2byte	0x332
 5860 14a2 B0140000 		.4byte	0x14b0
 5861 14a6 3B       		.uleb128 0x3b
 5862 14a7 68090000 		.4byte	0x968
 5863 14ab 57130000 		.4byte	.LLST76
 5864 14af 00       		.byte	0
 5865 14b0 3A       		.uleb128 0x3a
 5866 14b1 57090000 		.4byte	0x957
 5867 14b5 16010000 		.4byte	.LBB30
 5868 14b9 14000000 		.4byte	.LBE30-.LBB30
 5869 14bd 01       		.byte	0x1
 5870 14be 3603     		.2byte	0x336
 5871 14c0 CE140000 		.4byte	0x14ce
 5872 14c4 3B       		.uleb128 0x3b
 5873 14c5 68090000 		.4byte	0x968
 5874 14c9 6A130000 		.4byte	.LLST77
 5875 14cd 00       		.byte	0
 5876 14ce 40       		.uleb128 0x40
 5877 14cf EC000000 		.4byte	.LVL282
 5878 14d3 EC140000 		.4byte	0x14ec
 5879 14d7 30       		.uleb128 0x30
 5880 14d8 01       		.uleb128 0x1
 5881 14d9 53       		.byte	0x53
 5882 14da 02       		.uleb128 0x2
 5883 14db 74       		.byte	0x74
 5884 14dc 28       		.sleb128 40
 5885 14dd 30       		.uleb128 0x30
 5886 14de 02       		.uleb128 0x2
 5887 14df 7D       		.byte	0x7d
 5888 14e0 00       		.sleb128 0
 5889 14e1 02       		.uleb128 0x2
 5890 14e2 74       		.byte	0x74
 5891 14e3 14       		.sleb128 20
 5892 14e4 30       		.uleb128 0x30
 5893 14e5 02       		.uleb128 0x2
 5894 14e6 7D       		.byte	0x7d
 5895 14e7 04       		.sleb128 4
 5896 14e8 02       		.uleb128 0x2
 5897 14e9 75       		.byte	0x75
ARM GAS  C:\Users\Phuong\AppData\Local\Temp\ccnzvfGe.s 			page 137


 5898 14ea 00       		.sleb128 0
 5899 14eb 00       		.byte	0
 5900 14ec 41       		.uleb128 0x41
 5901 14ed 14010000 		.4byte	.LVL286
 5902 14f1 30       		.uleb128 0x30
 5903 14f2 01       		.uleb128 0x1
 5904 14f3 50       		.byte	0x50
 5905 14f4 02       		.uleb128 0x2
 5906 14f5 75       		.byte	0x75
 5907 14f6 00       		.sleb128 0
 5908 14f7 30       		.uleb128 0x30
 5909 14f8 01       		.uleb128 0x1
 5910 14f9 52       		.byte	0x52
 5911 14fa 02       		.uleb128 0x2
 5912 14fb 76       		.byte	0x76
 5913 14fc 00       		.sleb128 0
 5914 14fd 00       		.byte	0
 5915 14fe 00       		.byte	0
 5916 14ff 00       		.byte	0
 5917 1500 36       		.uleb128 0x36
 5918 1501 9F030000 		.4byte	.LASF220
 5919 1505 01       		.byte	0x1
 5920 1506 4103     		.2byte	0x341
 5921 1508 7E000000 		.4byte	0x7e
 5922 150c 00000000 		.4byte	.LFB31
 5923 1510 90000000 		.4byte	.LFE31-.LFB31
 5924 1514 01       		.uleb128 0x1
 5925 1515 9C       		.byte	0x9c
 5926 1516 3B150000 		.4byte	0x153b
 5927 151a 37       		.uleb128 0x37
 5928 151b 63747800 		.ascii	"ctx\000"
 5929 151f 01       		.byte	0x1
 5930 1520 4103     		.2byte	0x341
 5931 1522 4E0F0000 		.4byte	0xf4e
 5932 1526 7D130000 		.4byte	.LLST78
 5933 152a 27       		.uleb128 0x27
 5934 152b 07020000 		.4byte	.LASF136
 5935 152f 01       		.byte	0x1
 5936 1530 4103     		.2byte	0x341
 5937 1532 4B030000 		.4byte	0x34b
 5938 1536 4D140000 		.4byte	.LLST79
 5939 153a 00       		.byte	0
 5940 153b 34       		.uleb128 0x34
 5941 153c C1110000 		.4byte	.LASF221
 5942 1540 01       		.byte	0x1
 5943 1541 B0       		.byte	0xb0
 5944 1542 7E000000 		.4byte	0x7e
 5945 1546 00000000 		.4byte	.LFB15
 5946 154a 44000000 		.4byte	.LFE15-.LFB15
 5947 154e 01       		.uleb128 0x1
 5948 154f 9C       		.byte	0x9c
 5949 1550 A7150000 		.4byte	0x15a7
 5950 1554 20       		.uleb128 0x20
 5951 1555 63747800 		.ascii	"ctx\000"
 5952 1559 01       		.byte	0x1
 5953 155a B0       		.byte	0xb0
 5954 155b 4E0F0000 		.4byte	0xf4e
ARM GAS  C:\Users\Phuong\AppData\Local\Temp\ccnzvfGe.s 			page 138


 5955 155f 87140000 		.4byte	.LLST80
 5956 1563 2E       		.uleb128 0x2e
 5957 1564 AE100000 		.4byte	.LASF145
 5958 1568 01       		.byte	0x1
 5959 1569 B0       		.byte	0xb0
 5960 156a 46050000 		.4byte	0x546
 5961 156e DF140000 		.4byte	.LLST81
 5962 1572 35       		.uleb128 0x35
 5963 1573 14000000 		.4byte	.LVL336
 5964 1577 E31B0000 		.4byte	0x1be3
 5965 157b 91150000 		.4byte	0x1591
 5966 157f 30       		.uleb128 0x30
 5967 1580 01       		.uleb128 0x1
 5968 1581 50       		.byte	0x50
 5969 1582 02       		.uleb128 0x2
 5970 1583 74       		.byte	0x74
 5971 1584 00       		.sleb128 0
 5972 1585 30       		.uleb128 0x30
 5973 1586 01       		.uleb128 0x1
 5974 1587 51       		.byte	0x51
 5975 1588 01       		.uleb128 0x1
 5976 1589 30       		.byte	0x30
 5977 158a 30       		.uleb128 0x30
 5978 158b 01       		.uleb128 0x1
 5979 158c 52       		.byte	0x52
 5980 158d 02       		.uleb128 0x2
 5981 158e 08       		.byte	0x8
 5982 158f 40       		.byte	0x40
 5983 1590 00       		.byte	0
 5984 1591 2F       		.uleb128 0x2f
 5985 1592 2A000000 		.4byte	.LVL338
 5986 1596 00150000 		.4byte	0x1500
 5987 159a 30       		.uleb128 0x30
 5988 159b 01       		.uleb128 0x1
 5989 159c 50       		.byte	0x50
 5990 159d 02       		.uleb128 0x2
 5991 159e 74       		.byte	0x74
 5992 159f 00       		.sleb128 0
 5993 15a0 30       		.uleb128 0x30
 5994 15a1 01       		.uleb128 0x1
 5995 15a2 51       		.byte	0x51
 5996 15a3 01       		.uleb128 0x1
 5997 15a4 30       		.byte	0x30
 5998 15a5 00       		.byte	0
 5999 15a6 00       		.byte	0
 6000 15a7 36       		.uleb128 0x36
 6001 15a8 150C0000 		.4byte	.LASF222
 6002 15ac 01       		.byte	0x1
 6003 15ad 7103     		.2byte	0x371
 6004 15af 7E000000 		.4byte	0x7e
 6005 15b3 00000000 		.4byte	.LFB32
 6006 15b7 54000000 		.4byte	.LFE32-.LFB32
 6007 15bb 01       		.uleb128 0x1
 6008 15bc 9C       		.byte	0x9c
 6009 15bd 17160000 		.4byte	0x1617
 6010 15c1 37       		.uleb128 0x37
 6011 15c2 63747800 		.ascii	"ctx\000"
ARM GAS  C:\Users\Phuong\AppData\Local\Temp\ccnzvfGe.s 			page 139


 6012 15c6 01       		.byte	0x1
 6013 15c7 7103     		.2byte	0x371
 6014 15c9 4E0F0000 		.4byte	0xf4e
 6015 15cd 21150000 		.4byte	.LLST82
 6016 15d1 37       		.uleb128 0x37
 6017 15d2 74616700 		.ascii	"tag\000"
 6018 15d6 01       		.byte	0x1
 6019 15d7 7203     		.2byte	0x372
 6020 15d9 66050000 		.4byte	0x566
 6021 15dd F1150000 		.4byte	.LLST83
 6022 15e1 27       		.uleb128 0x27
 6023 15e2 C2070000 		.4byte	.LASF223
 6024 15e6 01       		.byte	0x1
 6025 15e7 7203     		.2byte	0x372
 6026 15e9 8C000000 		.4byte	0x8c
 6027 15ed 44160000 		.4byte	.LLST84
 6028 15f1 35       		.uleb128 0x35
 6029 15f2 24000000 		.4byte	.LVL348
 6030 15f6 421C0000 		.4byte	0x1c42
 6031 15fa 0D160000 		.4byte	0x160d
 6032 15fe 30       		.uleb128 0x30
 6033 15ff 01       		.uleb128 0x1
 6034 1600 51       		.byte	0x51
 6035 1601 03       		.uleb128 0x3
 6036 1602 F3       		.byte	0xf3
 6037 1603 01       		.uleb128 0x1
 6038 1604 51       		.byte	0x51
 6039 1605 30       		.uleb128 0x30
 6040 1606 01       		.uleb128 0x1
 6041 1607 52       		.byte	0x52
 6042 1608 03       		.uleb128 0x3
 6043 1609 F3       		.byte	0xf3
 6044 160a 01       		.uleb128 0x1
 6045 160b 52       		.byte	0x52
 6046 160c 00       		.byte	0
 6047 160d 42       		.uleb128 0x42
 6048 160e 36000000 		.4byte	.LVL351
 6049 1612 4E1C0000 		.4byte	0x1c4e
 6050 1616 00       		.byte	0
 6051 1617 36       		.uleb128 0x36
 6052 1618 10120000 		.4byte	.LASF224
 6053 161c 01       		.byte	0x1
 6054 161d 8E03     		.2byte	0x38e
 6055 161f 7E000000 		.4byte	0x7e
 6056 1623 00000000 		.4byte	.LFB33
 6057 1627 90000000 		.4byte	.LFE33-.LFB33
 6058 162b 01       		.uleb128 0x1
 6059 162c 9C       		.byte	0x9c
 6060 162d EB160000 		.4byte	0x16eb
 6061 1631 37       		.uleb128 0x37
 6062 1632 63747800 		.ascii	"ctx\000"
 6063 1636 01       		.byte	0x1
 6064 1637 8E03     		.2byte	0x38e
 6065 1639 4E0F0000 		.4byte	0xf4e
 6066 163d 97160000 		.4byte	.LLST85
 6067 1641 37       		.uleb128 0x37
 6068 1642 74616700 		.ascii	"tag\000"
ARM GAS  C:\Users\Phuong\AppData\Local\Temp\ccnzvfGe.s 			page 140


 6069 1646 01       		.byte	0x1
 6070 1647 8F03     		.2byte	0x38f
 6071 1649 DA050000 		.4byte	0x5da
 6072 164d 67170000 		.4byte	.LLST86
 6073 1651 27       		.uleb128 0x27
 6074 1652 C2070000 		.4byte	.LASF223
 6075 1656 01       		.byte	0x1
 6076 1657 8F03     		.2byte	0x38f
 6077 1659 8C000000 		.4byte	0x8c
 6078 165d BF170000 		.4byte	.LLST87
 6079 1661 28       		.uleb128 0x28
 6080 1662 490B0000 		.4byte	.LASF225
 6081 1666 01       		.byte	0x1
 6082 1667 9103     		.2byte	0x391
 6083 1669 97050000 		.4byte	0x597
 6084 166d 02       		.uleb128 0x2
 6085 166e 91       		.byte	0x91
 6086 166f 60       		.sleb128 -32
 6087 1670 29       		.uleb128 0x29
 6088 1671 72657400 		.ascii	"ret\000"
 6089 1675 01       		.byte	0x1
 6090 1676 9203     		.2byte	0x392
 6091 1678 7E000000 		.4byte	0x7e
 6092 167c 01180000 		.4byte	.LLST88
 6093 1680 35       		.uleb128 0x35
 6094 1681 2E000000 		.4byte	.LVL368
 6095 1685 421C0000 		.4byte	0x1c42
 6096 1689 9A160000 		.4byte	0x169a
 6097 168d 30       		.uleb128 0x30
 6098 168e 01       		.uleb128 0x1
 6099 168f 51       		.byte	0x51
 6100 1690 02       		.uleb128 0x2
 6101 1691 7D       		.byte	0x7d
 6102 1692 00       		.sleb128 0
 6103 1693 30       		.uleb128 0x30
 6104 1694 01       		.uleb128 0x1
 6105 1695 52       		.byte	0x52
 6106 1696 02       		.uleb128 0x2
 6107 1697 74       		.byte	0x74
 6108 1698 00       		.sleb128 0
 6109 1699 00       		.byte	0
 6110 169a 35       		.uleb128 0x35
 6111 169b 3C000000 		.4byte	.LVL370
 6112 169f 9E090000 		.4byte	0x99e
 6113 16a3 BA160000 		.4byte	0x16ba
 6114 16a7 30       		.uleb128 0x30
 6115 16a8 01       		.uleb128 0x1
 6116 16a9 50       		.byte	0x50
 6117 16aa 02       		.uleb128 0x2
 6118 16ab 75       		.byte	0x75
 6119 16ac 00       		.sleb128 0
 6120 16ad 30       		.uleb128 0x30
 6121 16ae 01       		.uleb128 0x1
 6122 16af 51       		.byte	0x51
 6123 16b0 02       		.uleb128 0x2
 6124 16b1 7D       		.byte	0x7d
 6125 16b2 00       		.sleb128 0
ARM GAS  C:\Users\Phuong\AppData\Local\Temp\ccnzvfGe.s 			page 141


 6126 16b3 30       		.uleb128 0x30
 6127 16b4 01       		.uleb128 0x1
 6128 16b5 52       		.byte	0x52
 6129 16b6 02       		.uleb128 0x2
 6130 16b7 74       		.byte	0x74
 6131 16b8 00       		.sleb128 0
 6132 16b9 00       		.byte	0
 6133 16ba 35       		.uleb128 0x35
 6134 16bb 56000000 		.4byte	.LVL374
 6135 16bf 4E1C0000 		.4byte	0x1c4e
 6136 16c3 CE160000 		.4byte	0x16ce
 6137 16c7 30       		.uleb128 0x30
 6138 16c8 01       		.uleb128 0x1
 6139 16c9 51       		.byte	0x51
 6140 16ca 02       		.uleb128 0x2
 6141 16cb 7D       		.byte	0x7d
 6142 16cc 00       		.sleb128 0
 6143 16cd 00       		.byte	0
 6144 16ce 2F       		.uleb128 0x2f
 6145 16cf 64000000 		.4byte	.LVL376
 6146 16d3 9E090000 		.4byte	0x99e
 6147 16d7 30       		.uleb128 0x30
 6148 16d8 01       		.uleb128 0x1
 6149 16d9 50       		.byte	0x50
 6150 16da 02       		.uleb128 0x2
 6151 16db 75       		.byte	0x75
 6152 16dc 00       		.sleb128 0
 6153 16dd 30       		.uleb128 0x30
 6154 16de 01       		.uleb128 0x1
 6155 16df 51       		.byte	0x51
 6156 16e0 02       		.uleb128 0x2
 6157 16e1 7D       		.byte	0x7d
 6158 16e2 00       		.sleb128 0
 6159 16e3 30       		.uleb128 0x30
 6160 16e4 01       		.uleb128 0x1
 6161 16e5 52       		.byte	0x52
 6162 16e6 02       		.uleb128 0x2
 6163 16e7 74       		.byte	0x74
 6164 16e8 00       		.sleb128 0
 6165 16e9 00       		.byte	0
 6166 16ea 00       		.byte	0
 6167 16eb 36       		.uleb128 0x36
 6168 16ec F70C0000 		.4byte	.LASF226
 6169 16f0 01       		.byte	0x1
 6170 16f1 CB03     		.2byte	0x3cb
 6171 16f3 7E000000 		.4byte	0x7e
 6172 16f7 00000000 		.4byte	.LFB34
 6173 16fb 5C000000 		.4byte	.LFE34-.LFB34
 6174 16ff 01       		.uleb128 0x1
 6175 1700 9C       		.byte	0x9c
 6176 1701 18180000 		.4byte	0x1818
 6177 1705 37       		.uleb128 0x37
 6178 1706 63747800 		.ascii	"ctx\000"
 6179 170a 01       		.byte	0x1
 6180 170b CB03     		.2byte	0x3cb
 6181 170d 4E0F0000 		.4byte	0xf4e
 6182 1711 1F180000 		.4byte	.LLST89
ARM GAS  C:\Users\Phuong\AppData\Local\Temp\ccnzvfGe.s 			page 142


 6183 1715 37       		.uleb128 0x37
 6184 1716 697600   		.ascii	"iv\000"
 6185 1719 01       		.byte	0x1
 6186 171a CC03     		.2byte	0x3cc
 6187 171c DA050000 		.4byte	0x5da
 6188 1720 4B180000 		.4byte	.LLST90
 6189 1724 27       		.uleb128 0x27
 6190 1725 0B070000 		.4byte	.LASF209
 6191 1729 01       		.byte	0x1
 6192 172a CC03     		.2byte	0x3cc
 6193 172c 8C000000 		.4byte	0x8c
 6194 1730 6C180000 		.4byte	.LLST91
 6195 1734 27       		.uleb128 0x27
 6196 1735 A5110000 		.4byte	.LASF185
 6197 1739 01       		.byte	0x1
 6198 173a CD03     		.2byte	0x3cd
 6199 173c DA050000 		.4byte	0x5da
 6200 1740 8D180000 		.4byte	.LLST92
 6201 1744 26       		.uleb128 0x26
 6202 1745 2F020000 		.4byte	.LASF216
 6203 1749 01       		.byte	0x1
 6204 174a CD03     		.2byte	0x3cd
 6205 174c 8C000000 		.4byte	0x8c
 6206 1750 02       		.uleb128 0x2
 6207 1751 91       		.byte	0x91
 6208 1752 00       		.sleb128 0
 6209 1753 26       		.uleb128 0x26
 6210 1754 6C000000 		.4byte	.LASF179
 6211 1758 01       		.byte	0x1
 6212 1759 CE03     		.2byte	0x3ce
 6213 175b 66050000 		.4byte	0x566
 6214 175f 02       		.uleb128 0x2
 6215 1760 91       		.byte	0x91
 6216 1761 04       		.sleb128 4
 6217 1762 26       		.uleb128 0x26
 6218 1763 C3020000 		.4byte	.LASF217
 6219 1767 01       		.byte	0x1
 6220 1768 CE03     		.2byte	0x3ce
 6221 176a 8B050000 		.4byte	0x58b
 6222 176e 02       		.uleb128 0x2
 6223 176f 91       		.byte	0x91
 6224 1770 08       		.sleb128 8
 6225 1771 29       		.uleb128 0x29
 6226 1772 72657400 		.ascii	"ret\000"
 6227 1776 01       		.byte	0x1
 6228 1777 D003     		.2byte	0x3d0
 6229 1779 7E000000 		.4byte	0x7e
 6230 177d B9180000 		.4byte	.LLST93
 6231 1781 28       		.uleb128 0x28
 6232 1782 11080000 		.4byte	.LASF227
 6233 1786 01       		.byte	0x1
 6234 1787 D103     		.2byte	0x3d1
 6235 1789 8C000000 		.4byte	0x8c
 6236 178d 02       		.uleb128 0x2
 6237 178e 91       		.byte	0x91
 6238 178f 6C       		.sleb128 -20
 6239 1790 35       		.uleb128 0x35
ARM GAS  C:\Users\Phuong\AppData\Local\Temp\ccnzvfGe.s 			page 143


 6240 1791 0C000000 		.4byte	.LVL392
 6241 1795 EA0F0000 		.4byte	0xfea
 6242 1799 B2170000 		.4byte	0x17b2
 6243 179d 30       		.uleb128 0x30
 6244 179e 01       		.uleb128 0x1
 6245 179f 50       		.byte	0x50
 6246 17a0 02       		.uleb128 0x2
 6247 17a1 74       		.byte	0x74
 6248 17a2 00       		.sleb128 0
 6249 17a3 30       		.uleb128 0x30
 6250 17a4 01       		.uleb128 0x1
 6251 17a5 51       		.byte	0x51
 6252 17a6 03       		.uleb128 0x3
 6253 17a7 F3       		.byte	0xf3
 6254 17a8 01       		.uleb128 0x1
 6255 17a9 51       		.byte	0x51
 6256 17aa 30       		.uleb128 0x30
 6257 17ab 01       		.uleb128 0x1
 6258 17ac 52       		.byte	0x52
 6259 17ad 03       		.uleb128 0x3
 6260 17ae F3       		.byte	0xf3
 6261 17af 01       		.uleb128 0x1
 6262 17b0 52       		.byte	0x52
 6263 17b1 00       		.byte	0
 6264 17b2 35       		.uleb128 0x35
 6265 17b3 16000000 		.4byte	.LVL394
 6266 17b7 74100000 		.4byte	0x1074
 6267 17bb C6170000 		.4byte	0x17c6
 6268 17bf 30       		.uleb128 0x30
 6269 17c0 01       		.uleb128 0x1
 6270 17c1 50       		.byte	0x50
 6271 17c2 02       		.uleb128 0x2
 6272 17c3 74       		.byte	0x74
 6273 17c4 00       		.sleb128 0
 6274 17c5 00       		.byte	0
 6275 17c6 35       		.uleb128 0x35
 6276 17c7 2A000000 		.4byte	.LVL396
 6277 17cb 5F110000 		.4byte	0x115f
 6278 17cf F6170000 		.4byte	0x17f6
 6279 17d3 30       		.uleb128 0x30
 6280 17d4 01       		.uleb128 0x1
 6281 17d5 50       		.byte	0x50
 6282 17d6 02       		.uleb128 0x2
 6283 17d7 74       		.byte	0x74
 6284 17d8 00       		.sleb128 0
 6285 17d9 30       		.uleb128 0x30
 6286 17da 01       		.uleb128 0x1
 6287 17db 51       		.byte	0x51
 6288 17dc 02       		.uleb128 0x2
 6289 17dd 75       		.byte	0x75
 6290 17de 00       		.sleb128 0
 6291 17df 30       		.uleb128 0x30
 6292 17e0 01       		.uleb128 0x1
 6293 17e1 52       		.byte	0x52
 6294 17e2 03       		.uleb128 0x3
 6295 17e3 91       		.byte	0x91
 6296 17e4 00       		.sleb128 0
ARM GAS  C:\Users\Phuong\AppData\Local\Temp\ccnzvfGe.s 			page 144


 6297 17e5 06       		.byte	0x6
 6298 17e6 30       		.uleb128 0x30
 6299 17e7 01       		.uleb128 0x1
 6300 17e8 53       		.byte	0x53
 6301 17e9 03       		.uleb128 0x3
 6302 17ea 91       		.byte	0x91
 6303 17eb 04       		.sleb128 4
 6304 17ec 06       		.byte	0x6
 6305 17ed 30       		.uleb128 0x30
 6306 17ee 02       		.uleb128 0x2
 6307 17ef 7D       		.byte	0x7d
 6308 17f0 00       		.sleb128 0
 6309 17f1 03       		.uleb128 0x3
 6310 17f2 91       		.byte	0x91
 6311 17f3 08       		.sleb128 8
 6312 17f4 06       		.byte	0x6
 6313 17f5 00       		.byte	0
 6314 17f6 2F       		.uleb128 0x2f
 6315 17f7 44000000 		.4byte	.LVL398
 6316 17fb D9130000 		.4byte	0x13d9
 6317 17ff 30       		.uleb128 0x30
 6318 1800 01       		.uleb128 0x1
 6319 1801 50       		.byte	0x50
 6320 1802 02       		.uleb128 0x2
 6321 1803 74       		.byte	0x74
 6322 1804 00       		.sleb128 0
 6323 1805 30       		.uleb128 0x30
 6324 1806 01       		.uleb128 0x1
 6325 1807 51       		.byte	0x51
 6326 1808 07       		.uleb128 0x7
 6327 1809 91       		.byte	0x91
 6328 180a 04       		.sleb128 4
 6329 180b 06       		.byte	0x6
 6330 180c 91       		.byte	0x91
 6331 180d 64       		.sleb128 -28
 6332 180e 06       		.byte	0x6
 6333 180f 22       		.byte	0x22
 6334 1810 30       		.uleb128 0x30
 6335 1811 01       		.uleb128 0x1
 6336 1812 52       		.byte	0x52
 6337 1813 02       		.uleb128 0x2
 6338 1814 91       		.byte	0x91
 6339 1815 6C       		.sleb128 -20
 6340 1816 00       		.byte	0
 6341 1817 00       		.byte	0
 6342 1818 36       		.uleb128 0x36
 6343 1819 4B140000 		.4byte	.LASF228
 6344 181d 01       		.byte	0x1
 6345 181e E803     		.2byte	0x3e8
 6346 1820 7E000000 		.4byte	0x7e
 6347 1824 00000000 		.4byte	.LFB35
 6348 1828 B0000000 		.4byte	.LFE35-.LFB35
 6349 182c 01       		.uleb128 0x1
 6350 182d 9C       		.byte	0x9c
 6351 182e B9190000 		.4byte	0x19b9
 6352 1832 37       		.uleb128 0x37
 6353 1833 63747800 		.ascii	"ctx\000"
ARM GAS  C:\Users\Phuong\AppData\Local\Temp\ccnzvfGe.s 			page 145


 6354 1837 01       		.byte	0x1
 6355 1838 E803     		.2byte	0x3e8
 6356 183a 4E0F0000 		.4byte	0xf4e
 6357 183e ED180000 		.4byte	.LLST94
 6358 1842 37       		.uleb128 0x37
 6359 1843 697600   		.ascii	"iv\000"
 6360 1846 01       		.byte	0x1
 6361 1847 E903     		.2byte	0x3e9
 6362 1849 DA050000 		.4byte	0x5da
 6363 184d 8B190000 		.4byte	.LLST95
 6364 1851 27       		.uleb128 0x27
 6365 1852 0B070000 		.4byte	.LASF209
 6366 1856 01       		.byte	0x1
 6367 1857 E903     		.2byte	0x3e9
 6368 1859 8C000000 		.4byte	0x8c
 6369 185d 181A0000 		.4byte	.LLST96
 6370 1861 37       		.uleb128 0x37
 6371 1862 616400   		.ascii	"ad\000"
 6372 1865 01       		.byte	0x1
 6373 1866 EA03     		.2byte	0x3ea
 6374 1868 DA050000 		.4byte	0x5da
 6375 186c 9B1A0000 		.4byte	.LLST97
 6376 1870 26       		.uleb128 0x26
 6377 1871 530B0000 		.4byte	.LASF213
 6378 1875 01       		.byte	0x1
 6379 1876 EA03     		.2byte	0x3ea
 6380 1878 8C000000 		.4byte	0x8c
 6381 187c 02       		.uleb128 0x2
 6382 187d 91       		.byte	0x91
 6383 187e 00       		.sleb128 0
 6384 187f 26       		.uleb128 0x26
 6385 1880 A5110000 		.4byte	.LASF185
 6386 1884 01       		.byte	0x1
 6387 1885 EB03     		.2byte	0x3eb
 6388 1887 DA050000 		.4byte	0x5da
 6389 188b 02       		.uleb128 0x2
 6390 188c 91       		.byte	0x91
 6391 188d 04       		.sleb128 4
 6392 188e 26       		.uleb128 0x26
 6393 188f 2F020000 		.4byte	.LASF216
 6394 1893 01       		.byte	0x1
 6395 1894 EB03     		.2byte	0x3eb
 6396 1896 8C000000 		.4byte	0x8c
 6397 189a 02       		.uleb128 0x2
 6398 189b 91       		.byte	0x91
 6399 189c 08       		.sleb128 8
 6400 189d 26       		.uleb128 0x26
 6401 189e 6C000000 		.4byte	.LASF179
 6402 18a2 01       		.byte	0x1
 6403 18a3 EC03     		.2byte	0x3ec
 6404 18a5 66050000 		.4byte	0x566
 6405 18a9 02       		.uleb128 0x2
 6406 18aa 91       		.byte	0x91
 6407 18ab 0C       		.sleb128 12
 6408 18ac 26       		.uleb128 0x26
 6409 18ad C3020000 		.4byte	.LASF217
 6410 18b1 01       		.byte	0x1
ARM GAS  C:\Users\Phuong\AppData\Local\Temp\ccnzvfGe.s 			page 146


 6411 18b2 EC03     		.2byte	0x3ec
 6412 18b4 8B050000 		.4byte	0x58b
 6413 18b8 02       		.uleb128 0x2
 6414 18b9 91       		.byte	0x91
 6415 18ba 10       		.sleb128 16
 6416 18bb 43       		.uleb128 0x43
 6417 18bc 74616700 		.ascii	"tag\000"
 6418 18c0 01       		.byte	0x1
 6419 18c1 ED03     		.2byte	0x3ed
 6420 18c3 66050000 		.4byte	0x566
 6421 18c7 02       		.uleb128 0x2
 6422 18c8 91       		.byte	0x91
 6423 18c9 14       		.sleb128 20
 6424 18ca 26       		.uleb128 0x26
 6425 18cb C2070000 		.4byte	.LASF223
 6426 18cf 01       		.byte	0x1
 6427 18d0 ED03     		.2byte	0x3ed
 6428 18d2 8C000000 		.4byte	0x8c
 6429 18d6 02       		.uleb128 0x2
 6430 18d7 91       		.byte	0x91
 6431 18d8 18       		.sleb128 24
 6432 18d9 35       		.uleb128 0x35
 6433 18da 36000000 		.4byte	.LVL406
 6434 18de 5A1C0000 		.4byte	0x1c5a
 6435 18e2 30190000 		.4byte	0x1930
 6436 18e6 30       		.uleb128 0x30
 6437 18e7 01       		.uleb128 0x1
 6438 18e8 51       		.byte	0x51
 6439 18e9 01       		.uleb128 0x1
 6440 18ea 31       		.byte	0x31
 6441 18eb 30       		.uleb128 0x30
 6442 18ec 01       		.uleb128 0x1
 6443 18ed 52       		.byte	0x52
 6444 18ee 02       		.uleb128 0x2
 6445 18ef 75       		.byte	0x75
 6446 18f0 00       		.sleb128 0
 6447 18f1 30       		.uleb128 0x30
 6448 18f2 01       		.uleb128 0x1
 6449 18f3 53       		.byte	0x53
 6450 18f4 03       		.uleb128 0x3
 6451 18f5 F3       		.byte	0xf3
 6452 18f6 01       		.uleb128 0x1
 6453 18f7 51       		.byte	0x51
 6454 18f8 30       		.uleb128 0x30
 6455 18f9 02       		.uleb128 0x2
 6456 18fa 7D       		.byte	0x7d
 6457 18fb 00       		.sleb128 0
 6458 18fc 03       		.uleb128 0x3
 6459 18fd F3       		.byte	0xf3
 6460 18fe 01       		.uleb128 0x1
 6461 18ff 52       		.byte	0x52
 6462 1900 30       		.uleb128 0x30
 6463 1901 02       		.uleb128 0x2
 6464 1902 7D       		.byte	0x7d
 6465 1903 04       		.sleb128 4
 6466 1904 03       		.uleb128 0x3
 6467 1905 F3       		.byte	0xf3
ARM GAS  C:\Users\Phuong\AppData\Local\Temp\ccnzvfGe.s 			page 147


 6468 1906 01       		.uleb128 0x1
 6469 1907 53       		.byte	0x53
 6470 1908 30       		.uleb128 0x30
 6471 1909 02       		.uleb128 0x2
 6472 190a 7D       		.byte	0x7d
 6473 190b 08       		.sleb128 8
 6474 190c 02       		.uleb128 0x2
 6475 190d 74       		.byte	0x74
 6476 190e 00       		.sleb128 0
 6477 190f 30       		.uleb128 0x30
 6478 1910 02       		.uleb128 0x2
 6479 1911 7D       		.byte	0x7d
 6480 1912 0C       		.sleb128 12
 6481 1913 03       		.uleb128 0x3
 6482 1914 91       		.byte	0x91
 6483 1915 04       		.sleb128 4
 6484 1916 06       		.byte	0x6
 6485 1917 30       		.uleb128 0x30
 6486 1918 02       		.uleb128 0x2
 6487 1919 7D       		.byte	0x7d
 6488 191a 10       		.sleb128 16
 6489 191b 03       		.uleb128 0x3
 6490 191c 91       		.byte	0x91
 6491 191d 0C       		.sleb128 12
 6492 191e 06       		.byte	0x6
 6493 191f 30       		.uleb128 0x30
 6494 1920 02       		.uleb128 0x2
 6495 1921 7D       		.byte	0x7d
 6496 1922 14       		.sleb128 20
 6497 1923 03       		.uleb128 0x3
 6498 1924 91       		.byte	0x91
 6499 1925 18       		.sleb128 24
 6500 1926 06       		.byte	0x6
 6501 1927 30       		.uleb128 0x30
 6502 1928 02       		.uleb128 0x2
 6503 1929 7D       		.byte	0x7d
 6504 192a 18       		.sleb128 24
 6505 192b 03       		.uleb128 0x3
 6506 192c 91       		.byte	0x91
 6507 192d 14       		.sleb128 20
 6508 192e 06       		.byte	0x6
 6509 192f 00       		.byte	0
 6510 1930 35       		.uleb128 0x35
 6511 1931 64000000 		.4byte	.LVL412
 6512 1935 651C0000 		.4byte	0x1c65
 6513 1939 81190000 		.4byte	0x1981
 6514 193d 30       		.uleb128 0x30
 6515 193e 01       		.uleb128 0x1
 6516 193f 51       		.byte	0x51
 6517 1940 02       		.uleb128 0x2
 6518 1941 75       		.byte	0x75
 6519 1942 00       		.sleb128 0
 6520 1943 30       		.uleb128 0x30
 6521 1944 01       		.uleb128 0x1
 6522 1945 52       		.byte	0x52
 6523 1946 03       		.uleb128 0x3
 6524 1947 F3       		.byte	0xf3
ARM GAS  C:\Users\Phuong\AppData\Local\Temp\ccnzvfGe.s 			page 148


 6525 1948 01       		.uleb128 0x1
 6526 1949 51       		.byte	0x51
 6527 194a 30       		.uleb128 0x30
 6528 194b 01       		.uleb128 0x1
 6529 194c 53       		.byte	0x53
 6530 194d 03       		.uleb128 0x3
 6531 194e F3       		.byte	0xf3
 6532 194f 01       		.uleb128 0x1
 6533 1950 52       		.byte	0x52
 6534 1951 30       		.uleb128 0x30
 6535 1952 02       		.uleb128 0x2
 6536 1953 7D       		.byte	0x7d
 6537 1954 00       		.sleb128 0
 6538 1955 03       		.uleb128 0x3
 6539 1956 F3       		.byte	0xf3
 6540 1957 01       		.uleb128 0x1
 6541 1958 53       		.byte	0x53
 6542 1959 30       		.uleb128 0x30
 6543 195a 02       		.uleb128 0x2
 6544 195b 7D       		.byte	0x7d
 6545 195c 04       		.sleb128 4
 6546 195d 02       		.uleb128 0x2
 6547 195e 74       		.byte	0x74
 6548 195f 00       		.sleb128 0
 6549 1960 30       		.uleb128 0x30
 6550 1961 02       		.uleb128 0x2
 6551 1962 7D       		.byte	0x7d
 6552 1963 08       		.sleb128 8
 6553 1964 03       		.uleb128 0x3
 6554 1965 91       		.byte	0x91
 6555 1966 04       		.sleb128 4
 6556 1967 06       		.byte	0x6
 6557 1968 30       		.uleb128 0x30
 6558 1969 02       		.uleb128 0x2
 6559 196a 7D       		.byte	0x7d
 6560 196b 0C       		.sleb128 12
 6561 196c 03       		.uleb128 0x3
 6562 196d 91       		.byte	0x91
 6563 196e 0C       		.sleb128 12
 6564 196f 06       		.byte	0x6
 6565 1970 30       		.uleb128 0x30
 6566 1971 02       		.uleb128 0x2
 6567 1972 7D       		.byte	0x7d
 6568 1973 10       		.sleb128 16
 6569 1974 03       		.uleb128 0x3
 6570 1975 91       		.byte	0x91
 6571 1976 14       		.sleb128 20
 6572 1977 06       		.byte	0x6
 6573 1978 30       		.uleb128 0x30
 6574 1979 02       		.uleb128 0x2
 6575 197a 7D       		.byte	0x7d
 6576 197b 14       		.sleb128 20
 6577 197c 03       		.uleb128 0x3
 6578 197d 91       		.byte	0x91
 6579 197e 18       		.sleb128 24
 6580 197f 06       		.byte	0x6
 6581 1980 00       		.byte	0
ARM GAS  C:\Users\Phuong\AppData\Local\Temp\ccnzvfGe.s 			page 149


 6582 1981 2F       		.uleb128 0x2f
 6583 1982 98000000 		.4byte	.LVL417
 6584 1986 701C0000 		.4byte	0x1c70
 6585 198a 30       		.uleb128 0x30
 6586 198b 01       		.uleb128 0x1
 6587 198c 51       		.byte	0x51
 6588 198d 02       		.uleb128 0x2
 6589 198e 74       		.byte	0x74
 6590 198f 00       		.sleb128 0
 6591 1990 30       		.uleb128 0x30
 6592 1991 01       		.uleb128 0x1
 6593 1992 52       		.byte	0x52
 6594 1993 03       		.uleb128 0x3
 6595 1994 F3       		.byte	0xf3
 6596 1995 01       		.uleb128 0x1
 6597 1996 51       		.byte	0x51
 6598 1997 30       		.uleb128 0x30
 6599 1998 02       		.uleb128 0x2
 6600 1999 7D       		.byte	0x7d
 6601 199a 00       		.sleb128 0
 6602 199b 03       		.uleb128 0x3
 6603 199c 91       		.byte	0x91
 6604 199d 00       		.sleb128 0
 6605 199e 06       		.byte	0x6
 6606 199f 30       		.uleb128 0x30
 6607 19a0 02       		.uleb128 0x2
 6608 19a1 7D       		.byte	0x7d
 6609 19a2 04       		.sleb128 4
 6610 19a3 03       		.uleb128 0x3
 6611 19a4 91       		.byte	0x91
 6612 19a5 04       		.sleb128 4
 6613 19a6 06       		.byte	0x6
 6614 19a7 30       		.uleb128 0x30
 6615 19a8 02       		.uleb128 0x2
 6616 19a9 7D       		.byte	0x7d
 6617 19aa 08       		.sleb128 8
 6618 19ab 03       		.uleb128 0x3
 6619 19ac 91       		.byte	0x91
 6620 19ad 0C       		.sleb128 12
 6621 19ae 06       		.byte	0x6
 6622 19af 30       		.uleb128 0x30
 6623 19b0 02       		.uleb128 0x2
 6624 19b1 7D       		.byte	0x7d
 6625 19b2 0C       		.sleb128 12
 6626 19b3 03       		.uleb128 0x3
 6627 19b4 91       		.byte	0x91
 6628 19b5 14       		.sleb128 20
 6629 19b6 06       		.byte	0x6
 6630 19b7 00       		.byte	0
 6631 19b8 00       		.byte	0
 6632 19b9 36       		.uleb128 0x36
 6633 19ba C50F0000 		.4byte	.LASF229
 6634 19be 01       		.byte	0x1
 6635 19bf 1704     		.2byte	0x417
 6636 19c1 7E000000 		.4byte	0x7e
 6637 19c5 00000000 		.4byte	.LFB36
 6638 19c9 D0000000 		.4byte	.LFE36-.LFB36
ARM GAS  C:\Users\Phuong\AppData\Local\Temp\ccnzvfGe.s 			page 150


 6639 19cd 01       		.uleb128 0x1
 6640 19ce 9C       		.byte	0x9c
 6641 19cf 961B0000 		.4byte	0x1b96
 6642 19d3 37       		.uleb128 0x37
 6643 19d4 63747800 		.ascii	"ctx\000"
 6644 19d8 01       		.byte	0x1
 6645 19d9 1704     		.2byte	0x417
 6646 19db 4E0F0000 		.4byte	0xf4e
 6647 19df 1F1B0000 		.4byte	.LLST98
 6648 19e3 37       		.uleb128 0x37
 6649 19e4 697600   		.ascii	"iv\000"
 6650 19e7 01       		.byte	0x1
 6651 19e8 1804     		.2byte	0x418
 6652 19ea DA050000 		.4byte	0x5da
 6653 19ee BD1B0000 		.4byte	.LLST99
 6654 19f2 27       		.uleb128 0x27
 6655 19f3 0B070000 		.4byte	.LASF209
 6656 19f7 01       		.byte	0x1
 6657 19f8 1804     		.2byte	0x418
 6658 19fa 8C000000 		.4byte	0x8c
 6659 19fe 4A1C0000 		.4byte	.LLST100
 6660 1a02 37       		.uleb128 0x37
 6661 1a03 616400   		.ascii	"ad\000"
 6662 1a06 01       		.byte	0x1
 6663 1a07 1904     		.2byte	0x419
 6664 1a09 DA050000 		.4byte	0x5da
 6665 1a0d CC1C0000 		.4byte	.LLST101
 6666 1a11 26       		.uleb128 0x26
 6667 1a12 530B0000 		.4byte	.LASF213
 6668 1a16 01       		.byte	0x1
 6669 1a17 1904     		.2byte	0x419
 6670 1a19 8C000000 		.4byte	0x8c
 6671 1a1d 02       		.uleb128 0x2
 6672 1a1e 91       		.byte	0x91
 6673 1a1f 00       		.sleb128 0
 6674 1a20 26       		.uleb128 0x26
 6675 1a21 A5110000 		.4byte	.LASF185
 6676 1a25 01       		.byte	0x1
 6677 1a26 1A04     		.2byte	0x41a
 6678 1a28 DA050000 		.4byte	0x5da
 6679 1a2c 02       		.uleb128 0x2
 6680 1a2d 91       		.byte	0x91
 6681 1a2e 04       		.sleb128 4
 6682 1a2f 26       		.uleb128 0x26
 6683 1a30 2F020000 		.4byte	.LASF216
 6684 1a34 01       		.byte	0x1
 6685 1a35 1A04     		.2byte	0x41a
 6686 1a37 8C000000 		.4byte	0x8c
 6687 1a3b 02       		.uleb128 0x2
 6688 1a3c 91       		.byte	0x91
 6689 1a3d 08       		.sleb128 8
 6690 1a3e 26       		.uleb128 0x26
 6691 1a3f 6C000000 		.4byte	.LASF179
 6692 1a43 01       		.byte	0x1
 6693 1a44 1B04     		.2byte	0x41b
 6694 1a46 66050000 		.4byte	0x566
 6695 1a4a 02       		.uleb128 0x2
ARM GAS  C:\Users\Phuong\AppData\Local\Temp\ccnzvfGe.s 			page 151


 6696 1a4b 91       		.byte	0x91
 6697 1a4c 0C       		.sleb128 12
 6698 1a4d 26       		.uleb128 0x26
 6699 1a4e C3020000 		.4byte	.LASF217
 6700 1a52 01       		.byte	0x1
 6701 1a53 1B04     		.2byte	0x41b
 6702 1a55 8B050000 		.4byte	0x58b
 6703 1a59 02       		.uleb128 0x2
 6704 1a5a 91       		.byte	0x91
 6705 1a5b 10       		.sleb128 16
 6706 1a5c 43       		.uleb128 0x43
 6707 1a5d 74616700 		.ascii	"tag\000"
 6708 1a61 01       		.byte	0x1
 6709 1a62 1C04     		.2byte	0x41c
 6710 1a64 DA050000 		.4byte	0x5da
 6711 1a68 02       		.uleb128 0x2
 6712 1a69 91       		.byte	0x91
 6713 1a6a 14       		.sleb128 20
 6714 1a6b 26       		.uleb128 0x26
 6715 1a6c C2070000 		.4byte	.LASF223
 6716 1a70 01       		.byte	0x1
 6717 1a71 1C04     		.2byte	0x41c
 6718 1a73 8C000000 		.4byte	0x8c
 6719 1a77 02       		.uleb128 0x2
 6720 1a78 91       		.byte	0x91
 6721 1a79 18       		.sleb128 24
 6722 1a7a 3C       		.uleb128 0x3c
 6723 1a7b 30000000 		.4byte	.Ldebug_ranges0+0x30
 6724 1a7f E11A0000 		.4byte	0x1ae1
 6725 1a83 29       		.uleb128 0x29
 6726 1a84 72657400 		.ascii	"ret\000"
 6727 1a88 01       		.byte	0x1
 6728 1a89 2104     		.2byte	0x421
 6729 1a8b 7E000000 		.4byte	0x7e
 6730 1a8f 501D0000 		.4byte	.LLST102
 6731 1a93 2F       		.uleb128 0x2f
 6732 1a94 34000000 		.4byte	.LVL429
 6733 1a98 7C1C0000 		.4byte	0x1c7c
 6734 1a9c 30       		.uleb128 0x30
 6735 1a9d 01       		.uleb128 0x1
 6736 1a9e 51       		.byte	0x51
 6737 1a9f 02       		.uleb128 0x2
 6738 1aa0 75       		.byte	0x75
 6739 1aa1 00       		.sleb128 0
 6740 1aa2 30       		.uleb128 0x30
 6741 1aa3 01       		.uleb128 0x1
 6742 1aa4 52       		.byte	0x52
 6743 1aa5 03       		.uleb128 0x3
 6744 1aa6 F3       		.byte	0xf3
 6745 1aa7 01       		.uleb128 0x1
 6746 1aa8 51       		.byte	0x51
 6747 1aa9 30       		.uleb128 0x30
 6748 1aaa 01       		.uleb128 0x1
 6749 1aab 53       		.byte	0x53
 6750 1aac 03       		.uleb128 0x3
 6751 1aad F3       		.byte	0xf3
 6752 1aae 01       		.uleb128 0x1
ARM GAS  C:\Users\Phuong\AppData\Local\Temp\ccnzvfGe.s 			page 152


 6753 1aaf 52       		.byte	0x52
 6754 1ab0 30       		.uleb128 0x30
 6755 1ab1 02       		.uleb128 0x2
 6756 1ab2 7D       		.byte	0x7d
 6757 1ab3 00       		.sleb128 0
 6758 1ab4 03       		.uleb128 0x3
 6759 1ab5 F3       		.byte	0xf3
 6760 1ab6 01       		.uleb128 0x1
 6761 1ab7 53       		.byte	0x53
 6762 1ab8 30       		.uleb128 0x30
 6763 1ab9 02       		.uleb128 0x2
 6764 1aba 7D       		.byte	0x7d
 6765 1abb 04       		.sleb128 4
 6766 1abc 02       		.uleb128 0x2
 6767 1abd 74       		.byte	0x74
 6768 1abe 00       		.sleb128 0
 6769 1abf 30       		.uleb128 0x30
 6770 1ac0 02       		.uleb128 0x2
 6771 1ac1 7D       		.byte	0x7d
 6772 1ac2 08       		.sleb128 8
 6773 1ac3 03       		.uleb128 0x3
 6774 1ac4 91       		.byte	0x91
 6775 1ac5 14       		.sleb128 20
 6776 1ac6 06       		.byte	0x6
 6777 1ac7 30       		.uleb128 0x30
 6778 1ac8 02       		.uleb128 0x2
 6779 1ac9 7D       		.byte	0x7d
 6780 1aca 0C       		.sleb128 12
 6781 1acb 03       		.uleb128 0x3
 6782 1acc 91       		.byte	0x91
 6783 1acd 18       		.sleb128 24
 6784 1ace 06       		.byte	0x6
 6785 1acf 30       		.uleb128 0x30
 6786 1ad0 02       		.uleb128 0x2
 6787 1ad1 7D       		.byte	0x7d
 6788 1ad2 10       		.sleb128 16
 6789 1ad3 03       		.uleb128 0x3
 6790 1ad4 91       		.byte	0x91
 6791 1ad5 04       		.sleb128 4
 6792 1ad6 06       		.byte	0x6
 6793 1ad7 30       		.uleb128 0x30
 6794 1ad8 02       		.uleb128 0x2
 6795 1ad9 7D       		.byte	0x7d
 6796 1ada 14       		.sleb128 20
 6797 1adb 03       		.uleb128 0x3
 6798 1adc 91       		.byte	0x91
 6799 1add 0C       		.sleb128 12
 6800 1ade 06       		.byte	0x6
 6801 1adf 00       		.byte	0
 6802 1ae0 00       		.byte	0
 6803 1ae1 3C       		.uleb128 0x3c
 6804 1ae2 48000000 		.4byte	.Ldebug_ranges0+0x48
 6805 1ae6 481B0000 		.4byte	0x1b48
 6806 1aea 29       		.uleb128 0x29
 6807 1aeb 72657400 		.ascii	"ret\000"
 6808 1aef 01       		.byte	0x1
 6809 1af0 3104     		.2byte	0x431
ARM GAS  C:\Users\Phuong\AppData\Local\Temp\ccnzvfGe.s 			page 153


 6810 1af2 7E000000 		.4byte	0x7e
 6811 1af6 6E1D0000 		.4byte	.LLST103
 6812 1afa 2F       		.uleb128 0x2f
 6813 1afb 68000000 		.4byte	.LVL435
 6814 1aff 871C0000 		.4byte	0x1c87
 6815 1b03 30       		.uleb128 0x30
 6816 1b04 01       		.uleb128 0x1
 6817 1b05 51       		.byte	0x51
 6818 1b06 02       		.uleb128 0x2
 6819 1b07 75       		.byte	0x75
 6820 1b08 00       		.sleb128 0
 6821 1b09 30       		.uleb128 0x30
 6822 1b0a 01       		.uleb128 0x1
 6823 1b0b 52       		.byte	0x52
 6824 1b0c 03       		.uleb128 0x3
 6825 1b0d F3       		.byte	0xf3
 6826 1b0e 01       		.uleb128 0x1
 6827 1b0f 51       		.byte	0x51
 6828 1b10 30       		.uleb128 0x30
 6829 1b11 01       		.uleb128 0x1
 6830 1b12 53       		.byte	0x53
 6831 1b13 03       		.uleb128 0x3
 6832 1b14 F3       		.byte	0xf3
 6833 1b15 01       		.uleb128 0x1
 6834 1b16 52       		.byte	0x52
 6835 1b17 30       		.uleb128 0x30
 6836 1b18 02       		.uleb128 0x2
 6837 1b19 7D       		.byte	0x7d
 6838 1b1a 00       		.sleb128 0
 6839 1b1b 03       		.uleb128 0x3
 6840 1b1c F3       		.byte	0xf3
 6841 1b1d 01       		.uleb128 0x1
 6842 1b1e 53       		.byte	0x53
 6843 1b1f 30       		.uleb128 0x30
 6844 1b20 02       		.uleb128 0x2
 6845 1b21 7D       		.byte	0x7d
 6846 1b22 04       		.sleb128 4
 6847 1b23 02       		.uleb128 0x2
 6848 1b24 74       		.byte	0x74
 6849 1b25 00       		.sleb128 0
 6850 1b26 30       		.uleb128 0x30
 6851 1b27 02       		.uleb128 0x2
 6852 1b28 7D       		.byte	0x7d
 6853 1b29 08       		.sleb128 8
 6854 1b2a 03       		.uleb128 0x3
 6855 1b2b 91       		.byte	0x91
 6856 1b2c 04       		.sleb128 4
 6857 1b2d 06       		.byte	0x6
 6858 1b2e 30       		.uleb128 0x30
 6859 1b2f 02       		.uleb128 0x2
 6860 1b30 7D       		.byte	0x7d
 6861 1b31 0C       		.sleb128 12
 6862 1b32 03       		.uleb128 0x3
 6863 1b33 91       		.byte	0x91
 6864 1b34 0C       		.sleb128 12
 6865 1b35 06       		.byte	0x6
 6866 1b36 30       		.uleb128 0x30
ARM GAS  C:\Users\Phuong\AppData\Local\Temp\ccnzvfGe.s 			page 154


 6867 1b37 02       		.uleb128 0x2
 6868 1b38 7D       		.byte	0x7d
 6869 1b39 10       		.sleb128 16
 6870 1b3a 03       		.uleb128 0x3
 6871 1b3b 91       		.byte	0x91
 6872 1b3c 14       		.sleb128 20
 6873 1b3d 06       		.byte	0x6
 6874 1b3e 30       		.uleb128 0x30
 6875 1b3f 02       		.uleb128 0x2
 6876 1b40 7D       		.byte	0x7d
 6877 1b41 14       		.sleb128 20
 6878 1b42 03       		.uleb128 0x3
 6879 1b43 91       		.byte	0x91
 6880 1b44 18       		.sleb128 24
 6881 1b45 06       		.byte	0x6
 6882 1b46 00       		.byte	0
 6883 1b47 00       		.byte	0
 6884 1b48 3F       		.uleb128 0x3f
 6885 1b49 60000000 		.4byte	.Ldebug_ranges0+0x60
 6886 1b4d 29       		.uleb128 0x29
 6887 1b4e 72657400 		.ascii	"ret\000"
 6888 1b52 01       		.byte	0x1
 6889 1b53 4104     		.2byte	0x441
 6890 1b55 7E000000 		.4byte	0x7e
 6891 1b59 8C1D0000 		.4byte	.LLST104
 6892 1b5d 2F       		.uleb128 0x2f
 6893 1b5e A2000000 		.4byte	.LVL440
 6894 1b62 921C0000 		.4byte	0x1c92
 6895 1b66 30       		.uleb128 0x30
 6896 1b67 01       		.uleb128 0x1
 6897 1b68 51       		.byte	0x51
 6898 1b69 02       		.uleb128 0x2
 6899 1b6a 74       		.byte	0x74
 6900 1b6b 00       		.sleb128 0
 6901 1b6c 30       		.uleb128 0x30
 6902 1b6d 01       		.uleb128 0x1
 6903 1b6e 52       		.byte	0x52
 6904 1b6f 03       		.uleb128 0x3
 6905 1b70 F3       		.byte	0xf3
 6906 1b71 01       		.uleb128 0x1
 6907 1b72 51       		.byte	0x51
 6908 1b73 30       		.uleb128 0x30
 6909 1b74 02       		.uleb128 0x2
 6910 1b75 7D       		.byte	0x7d
 6911 1b76 00       		.sleb128 0
 6912 1b77 03       		.uleb128 0x3
 6913 1b78 91       		.byte	0x91
 6914 1b79 00       		.sleb128 0
 6915 1b7a 06       		.byte	0x6
 6916 1b7b 30       		.uleb128 0x30
 6917 1b7c 02       		.uleb128 0x2
 6918 1b7d 7D       		.byte	0x7d
 6919 1b7e 04       		.sleb128 4
 6920 1b7f 03       		.uleb128 0x3
 6921 1b80 91       		.byte	0x91
 6922 1b81 14       		.sleb128 20
 6923 1b82 06       		.byte	0x6
ARM GAS  C:\Users\Phuong\AppData\Local\Temp\ccnzvfGe.s 			page 155


 6924 1b83 30       		.uleb128 0x30
 6925 1b84 02       		.uleb128 0x2
 6926 1b85 7D       		.byte	0x7d
 6927 1b86 08       		.sleb128 8
 6928 1b87 03       		.uleb128 0x3
 6929 1b88 91       		.byte	0x91
 6930 1b89 04       		.sleb128 4
 6931 1b8a 06       		.byte	0x6
 6932 1b8b 30       		.uleb128 0x30
 6933 1b8c 02       		.uleb128 0x2
 6934 1b8d 7D       		.byte	0x7d
 6935 1b8e 0C       		.sleb128 12
 6936 1b8f 03       		.uleb128 0x3
 6937 1b90 91       		.byte	0x91
 6938 1b91 0C       		.sleb128 12
 6939 1b92 06       		.byte	0x6
 6940 1b93 00       		.byte	0
 6941 1b94 00       		.byte	0
 6942 1b95 00       		.byte	0
 6943 1b96 44       		.uleb128 0x44
 6944 1b97 74010000 		.4byte	.LASF230
 6945 1b9b 01       		.byte	0x1
 6946 1b9c 58       		.byte	0x58
 6947 1b9d 7E000000 		.4byte	0x7e
 6948 1ba1 05       		.uleb128 0x5
 6949 1ba2 03       		.byte	0x3
 6950 1ba3 00000000 		.4byte	supported_init
 6951 1ba7 13       		.uleb128 0x13
 6952 1ba8 210E0000 		.4byte	0xe21
 6953 1bac B21B0000 		.4byte	0x1bb2
 6954 1bb0 45       		.uleb128 0x45
 6955 1bb1 00       		.byte	0
 6956 1bb2 46       		.uleb128 0x46
 6957 1bb3 AF000000 		.4byte	.LASF231
 6958 1bb7 05       		.byte	0x5
 6959 1bb8 75       		.byte	0x75
 6960 1bb9 BD1B0000 		.4byte	0x1bbd
 6961 1bbd 0C       		.uleb128 0xc
 6962 1bbe A71B0000 		.4byte	0x1ba7
 6963 1bc2 13       		.uleb128 0x13
 6964 1bc3 7E000000 		.4byte	0x7e
 6965 1bc7 CD1B0000 		.4byte	0x1bcd
 6966 1bcb 45       		.uleb128 0x45
 6967 1bcc 00       		.byte	0
 6968 1bcd 46       		.uleb128 0x46
 6969 1bce 00000000 		.4byte	.LASF232
 6970 1bd2 05       		.byte	0x5
 6971 1bd3 77       		.byte	0x77
 6972 1bd4 C21B0000 		.4byte	0x1bc2
 6973 1bd8 47       		.uleb128 0x47
 6974 1bd9 7B150000 		.4byte	.LASF233
 6975 1bdd 7B150000 		.4byte	.LASF233
 6976 1be1 0B       		.byte	0xb
 6977 1be2 1C       		.byte	0x1c
 6978 1be3 48       		.uleb128 0x48
 6979 1be4 A60C0000 		.4byte	.LASF236
 6980 1be8 A60C0000 		.4byte	.LASF236
ARM GAS  C:\Users\Phuong\AppData\Local\Temp\ccnzvfGe.s 			page 156


 6981 1bec 47       		.uleb128 0x47
 6982 1bed 16150000 		.4byte	.LASF234
 6983 1bf1 16150000 		.4byte	.LASF234
 6984 1bf5 0C       		.byte	0xc
 6985 1bf6 42       		.byte	0x42
 6986 1bf7 47       		.uleb128 0x47
 6987 1bf8 03030000 		.4byte	.LASF235
 6988 1bfc 03030000 		.4byte	.LASF235
 6989 1c00 09       		.byte	0x9
 6990 1c01 7D       		.byte	0x7d
 6991 1c02 48       		.uleb128 0x48
 6992 1c03 CB130000 		.4byte	.LASF237
 6993 1c07 CB130000 		.4byte	.LASF237
 6994 1c0b 47       		.uleb128 0x47
 6995 1c0c D3050000 		.4byte	.LASF238
 6996 1c10 D3050000 		.4byte	.LASF238
 6997 1c14 08       		.byte	0x8
 6998 1c15 A7       		.byte	0xa7
 6999 1c16 47       		.uleb128 0x47
 7000 1c17 D40A0000 		.4byte	.LASF239
 7001 1c1b D40A0000 		.4byte	.LASF239
 7002 1c1f 08       		.byte	0x8
 7003 1c20 D1       		.byte	0xd1
 7004 1c21 47       		.uleb128 0x47
 7005 1c22 89120000 		.4byte	.LASF240
 7006 1c26 89120000 		.4byte	.LASF240
 7007 1c2a 0A       		.byte	0xa
 7008 1c2b DB       		.byte	0xdb
 7009 1c2c 47       		.uleb128 0x47
 7010 1c2d 020C0000 		.4byte	.LASF241
 7011 1c31 020C0000 		.4byte	.LASF241
 7012 1c35 0A       		.byte	0xa
 7013 1c36 F7       		.byte	0xf7
 7014 1c37 47       		.uleb128 0x47
 7015 1c38 EE130000 		.4byte	.LASF242
 7016 1c3c EE130000 		.4byte	.LASF242
 7017 1c40 08       		.byte	0x8
 7018 1c41 F5       		.byte	0xf5
 7019 1c42 49       		.uleb128 0x49
 7020 1c43 EA0E0000 		.4byte	.LASF243
 7021 1c47 EA0E0000 		.4byte	.LASF243
 7022 1c4b 0A       		.byte	0xa
 7023 1c4c 0A01     		.2byte	0x10a
 7024 1c4e 49       		.uleb128 0x49
 7025 1c4f 3D030000 		.4byte	.LASF244
 7026 1c53 3D030000 		.4byte	.LASF244
 7027 1c57 08       		.byte	0x8
 7028 1c58 0B01     		.2byte	0x10b
 7029 1c5a 47       		.uleb128 0x47
 7030 1c5b 810E0000 		.4byte	.LASF245
 7031 1c5f 810E0000 		.4byte	.LASF245
 7032 1c63 0A       		.byte	0xa
 7033 1c64 99       		.byte	0x99
 7034 1c65 47       		.uleb128 0x47
 7035 1c66 F20A0000 		.4byte	.LASF246
 7036 1c6a F20A0000 		.4byte	.LASF246
 7037 1c6e 0D       		.byte	0xd
ARM GAS  C:\Users\Phuong\AppData\Local\Temp\ccnzvfGe.s 			page 157


 7038 1c6f 8F       		.byte	0x8f
 7039 1c70 49       		.uleb128 0x49
 7040 1c71 8A0D0000 		.4byte	.LASF247
 7041 1c75 8A0D0000 		.4byte	.LASF247
 7042 1c79 08       		.byte	0x8
 7043 1c7a 2A01     		.2byte	0x12a
 7044 1c7c 47       		.uleb128 0x47
 7045 1c7d 5A0B0000 		.4byte	.LASF248
 7046 1c81 5A0B0000 		.4byte	.LASF248
 7047 1c85 0A       		.byte	0xa
 7048 1c86 C0       		.byte	0xc0
 7049 1c87 47       		.uleb128 0x47
 7050 1c88 2E0A0000 		.4byte	.LASF249
 7051 1c8c 2E0A0000 		.4byte	.LASF249
 7052 1c90 0D       		.byte	0xd
 7053 1c91 D6       		.byte	0xd6
 7054 1c92 49       		.uleb128 0x49
 7055 1c93 C2140000 		.4byte	.LASF250
 7056 1c97 C2140000 		.4byte	.LASF250
 7057 1c9b 08       		.byte	0x8
 7058 1c9c 4C01     		.2byte	0x14c
 7059 1c9e 00       		.byte	0
 7060              		.section	.debug_abbrev,"",%progbits
 7061              	.Ldebug_abbrev0:
 7062 0000 01       		.uleb128 0x1
 7063 0001 11       		.uleb128 0x11
 7064 0002 01       		.byte	0x1
 7065 0003 25       		.uleb128 0x25
 7066 0004 0E       		.uleb128 0xe
 7067 0005 13       		.uleb128 0x13
 7068 0006 0B       		.uleb128 0xb
 7069 0007 03       		.uleb128 0x3
 7070 0008 0E       		.uleb128 0xe
 7071 0009 1B       		.uleb128 0x1b
 7072 000a 0E       		.uleb128 0xe
 7073 000b 55       		.uleb128 0x55
 7074 000c 17       		.uleb128 0x17
 7075 000d 11       		.uleb128 0x11
 7076 000e 01       		.uleb128 0x1
 7077 000f 10       		.uleb128 0x10
 7078 0010 17       		.uleb128 0x17
 7079 0011 00       		.byte	0
 7080 0012 00       		.byte	0
 7081 0013 02       		.uleb128 0x2
 7082 0014 24       		.uleb128 0x24
 7083 0015 00       		.byte	0
 7084 0016 0B       		.uleb128 0xb
 7085 0017 0B       		.uleb128 0xb
 7086 0018 3E       		.uleb128 0x3e
 7087 0019 0B       		.uleb128 0xb
 7088 001a 03       		.uleb128 0x3
 7089 001b 0E       		.uleb128 0xe
 7090 001c 00       		.byte	0
 7091 001d 00       		.byte	0
 7092 001e 03       		.uleb128 0x3
 7093 001f 16       		.uleb128 0x16
 7094 0020 00       		.byte	0
ARM GAS  C:\Users\Phuong\AppData\Local\Temp\ccnzvfGe.s 			page 158


 7095 0021 03       		.uleb128 0x3
 7096 0022 0E       		.uleb128 0xe
 7097 0023 3A       		.uleb128 0x3a
 7098 0024 0B       		.uleb128 0xb
 7099 0025 3B       		.uleb128 0x3b
 7100 0026 0B       		.uleb128 0xb
 7101 0027 49       		.uleb128 0x49
 7102 0028 13       		.uleb128 0x13
 7103 0029 00       		.byte	0
 7104 002a 00       		.byte	0
 7105 002b 04       		.uleb128 0x4
 7106 002c 24       		.uleb128 0x24
 7107 002d 00       		.byte	0
 7108 002e 0B       		.uleb128 0xb
 7109 002f 0B       		.uleb128 0xb
 7110 0030 3E       		.uleb128 0x3e
 7111 0031 0B       		.uleb128 0xb
 7112 0032 03       		.uleb128 0x3
 7113 0033 08       		.uleb128 0x8
 7114 0034 00       		.byte	0
 7115 0035 00       		.byte	0
 7116 0036 05       		.uleb128 0x5
 7117 0037 04       		.uleb128 0x4
 7118 0038 01       		.byte	0x1
 7119 0039 0B       		.uleb128 0xb
 7120 003a 0B       		.uleb128 0xb
 7121 003b 49       		.uleb128 0x49
 7122 003c 13       		.uleb128 0x13
 7123 003d 3A       		.uleb128 0x3a
 7124 003e 0B       		.uleb128 0xb
 7125 003f 3B       		.uleb128 0x3b
 7126 0040 0B       		.uleb128 0xb
 7127 0041 01       		.uleb128 0x1
 7128 0042 13       		.uleb128 0x13
 7129 0043 00       		.byte	0
 7130 0044 00       		.byte	0
 7131 0045 06       		.uleb128 0x6
 7132 0046 28       		.uleb128 0x28
 7133 0047 00       		.byte	0
 7134 0048 03       		.uleb128 0x3
 7135 0049 0E       		.uleb128 0xe
 7136 004a 1C       		.uleb128 0x1c
 7137 004b 0B       		.uleb128 0xb
 7138 004c 00       		.byte	0
 7139 004d 00       		.byte	0
 7140 004e 07       		.uleb128 0x7
 7141 004f 28       		.uleb128 0x28
 7142 0050 00       		.byte	0
 7143 0051 03       		.uleb128 0x3
 7144 0052 0E       		.uleb128 0xe
 7145 0053 1C       		.uleb128 0x1c
 7146 0054 0D       		.uleb128 0xd
 7147 0055 00       		.byte	0
 7148 0056 00       		.byte	0
 7149 0057 08       		.uleb128 0x8
 7150 0058 13       		.uleb128 0x13
 7151 0059 01       		.byte	0x1
ARM GAS  C:\Users\Phuong\AppData\Local\Temp\ccnzvfGe.s 			page 159


 7152 005a 03       		.uleb128 0x3
 7153 005b 0E       		.uleb128 0xe
 7154 005c 0B       		.uleb128 0xb
 7155 005d 0B       		.uleb128 0xb
 7156 005e 3A       		.uleb128 0x3a
 7157 005f 0B       		.uleb128 0xb
 7158 0060 3B       		.uleb128 0x3b
 7159 0061 0B       		.uleb128 0xb
 7160 0062 01       		.uleb128 0x1
 7161 0063 13       		.uleb128 0x13
 7162 0064 00       		.byte	0
 7163 0065 00       		.byte	0
 7164 0066 09       		.uleb128 0x9
 7165 0067 0D       		.uleb128 0xd
 7166 0068 00       		.byte	0
 7167 0069 03       		.uleb128 0x3
 7168 006a 0E       		.uleb128 0xe
 7169 006b 3A       		.uleb128 0x3a
 7170 006c 0B       		.uleb128 0xb
 7171 006d 3B       		.uleb128 0x3b
 7172 006e 0B       		.uleb128 0xb
 7173 006f 49       		.uleb128 0x49
 7174 0070 13       		.uleb128 0x13
 7175 0071 38       		.uleb128 0x38
 7176 0072 0B       		.uleb128 0xb
 7177 0073 00       		.byte	0
 7178 0074 00       		.byte	0
 7179 0075 0A       		.uleb128 0xa
 7180 0076 0D       		.uleb128 0xd
 7181 0077 00       		.byte	0
 7182 0078 03       		.uleb128 0x3
 7183 0079 0E       		.uleb128 0xe
 7184 007a 3A       		.uleb128 0x3a
 7185 007b 0B       		.uleb128 0xb
 7186 007c 3B       		.uleb128 0x3b
 7187 007d 05       		.uleb128 0x5
 7188 007e 49       		.uleb128 0x49
 7189 007f 13       		.uleb128 0x13
 7190 0080 38       		.uleb128 0x38
 7191 0081 0B       		.uleb128 0xb
 7192 0082 00       		.byte	0
 7193 0083 00       		.byte	0
 7194 0084 0B       		.uleb128 0xb
 7195 0085 0F       		.uleb128 0xf
 7196 0086 00       		.byte	0
 7197 0087 0B       		.uleb128 0xb
 7198 0088 0B       		.uleb128 0xb
 7199 0089 49       		.uleb128 0x49
 7200 008a 13       		.uleb128 0x13
 7201 008b 00       		.byte	0
 7202 008c 00       		.byte	0
 7203 008d 0C       		.uleb128 0xc
 7204 008e 26       		.uleb128 0x26
 7205 008f 00       		.byte	0
 7206 0090 49       		.uleb128 0x49
 7207 0091 13       		.uleb128 0x13
 7208 0092 00       		.byte	0
ARM GAS  C:\Users\Phuong\AppData\Local\Temp\ccnzvfGe.s 			page 160


 7209 0093 00       		.byte	0
 7210 0094 0D       		.uleb128 0xd
 7211 0095 16       		.uleb128 0x16
 7212 0096 00       		.byte	0
 7213 0097 03       		.uleb128 0x3
 7214 0098 0E       		.uleb128 0xe
 7215 0099 3A       		.uleb128 0x3a
 7216 009a 0B       		.uleb128 0xb
 7217 009b 3B       		.uleb128 0x3b
 7218 009c 05       		.uleb128 0x5
 7219 009d 49       		.uleb128 0x49
 7220 009e 13       		.uleb128 0x13
 7221 009f 00       		.byte	0
 7222 00a0 00       		.byte	0
 7223 00a1 0E       		.uleb128 0xe
 7224 00a2 13       		.uleb128 0x13
 7225 00a3 01       		.byte	0x1
 7226 00a4 03       		.uleb128 0x3
 7227 00a5 0E       		.uleb128 0xe
 7228 00a6 0B       		.uleb128 0xb
 7229 00a7 0B       		.uleb128 0xb
 7230 00a8 3A       		.uleb128 0x3a
 7231 00a9 0B       		.uleb128 0xb
 7232 00aa 3B       		.uleb128 0x3b
 7233 00ab 05       		.uleb128 0x5
 7234 00ac 01       		.uleb128 0x1
 7235 00ad 13       		.uleb128 0x13
 7236 00ae 00       		.byte	0
 7237 00af 00       		.byte	0
 7238 00b0 0F       		.uleb128 0xf
 7239 00b1 0D       		.uleb128 0xd
 7240 00b2 00       		.byte	0
 7241 00b3 03       		.uleb128 0x3
 7242 00b4 08       		.uleb128 0x8
 7243 00b5 3A       		.uleb128 0x3a
 7244 00b6 0B       		.uleb128 0xb
 7245 00b7 3B       		.uleb128 0x3b
 7246 00b8 05       		.uleb128 0x5
 7247 00b9 49       		.uleb128 0x49
 7248 00ba 13       		.uleb128 0x13
 7249 00bb 38       		.uleb128 0x38
 7250 00bc 0B       		.uleb128 0xb
 7251 00bd 00       		.byte	0
 7252 00be 00       		.byte	0
 7253 00bf 10       		.uleb128 0x10
 7254 00c0 15       		.uleb128 0x15
 7255 00c1 01       		.byte	0x1
 7256 00c2 27       		.uleb128 0x27
 7257 00c3 19       		.uleb128 0x19
 7258 00c4 01       		.uleb128 0x1
 7259 00c5 13       		.uleb128 0x13
 7260 00c6 00       		.byte	0
 7261 00c7 00       		.byte	0
 7262 00c8 11       		.uleb128 0x11
 7263 00c9 05       		.uleb128 0x5
 7264 00ca 00       		.byte	0
 7265 00cb 49       		.uleb128 0x49
ARM GAS  C:\Users\Phuong\AppData\Local\Temp\ccnzvfGe.s 			page 161


 7266 00cc 13       		.uleb128 0x13
 7267 00cd 00       		.byte	0
 7268 00ce 00       		.byte	0
 7269 00cf 12       		.uleb128 0x12
 7270 00d0 15       		.uleb128 0x15
 7271 00d1 01       		.byte	0x1
 7272 00d2 27       		.uleb128 0x27
 7273 00d3 19       		.uleb128 0x19
 7274 00d4 49       		.uleb128 0x49
 7275 00d5 13       		.uleb128 0x13
 7276 00d6 01       		.uleb128 0x1
 7277 00d7 13       		.uleb128 0x13
 7278 00d8 00       		.byte	0
 7279 00d9 00       		.byte	0
 7280 00da 13       		.uleb128 0x13
 7281 00db 01       		.uleb128 0x1
 7282 00dc 01       		.byte	0x1
 7283 00dd 49       		.uleb128 0x49
 7284 00de 13       		.uleb128 0x13
 7285 00df 01       		.uleb128 0x1
 7286 00e0 13       		.uleb128 0x13
 7287 00e1 00       		.byte	0
 7288 00e2 00       		.byte	0
 7289 00e3 14       		.uleb128 0x14
 7290 00e4 21       		.uleb128 0x21
 7291 00e5 00       		.byte	0
 7292 00e6 49       		.uleb128 0x49
 7293 00e7 13       		.uleb128 0x13
 7294 00e8 2F       		.uleb128 0x2f
 7295 00e9 0B       		.uleb128 0xb
 7296 00ea 00       		.byte	0
 7297 00eb 00       		.byte	0
 7298 00ec 15       		.uleb128 0x15
 7299 00ed 0F       		.uleb128 0xf
 7300 00ee 00       		.byte	0
 7301 00ef 0B       		.uleb128 0xb
 7302 00f0 0B       		.uleb128 0xb
 7303 00f1 00       		.byte	0
 7304 00f2 00       		.byte	0
 7305 00f3 16       		.uleb128 0x16
 7306 00f4 15       		.uleb128 0x15
 7307 00f5 00       		.byte	0
 7308 00f6 27       		.uleb128 0x27
 7309 00f7 19       		.uleb128 0x19
 7310 00f8 49       		.uleb128 0x49
 7311 00f9 13       		.uleb128 0x13
 7312 00fa 00       		.byte	0
 7313 00fb 00       		.byte	0
 7314 00fc 17       		.uleb128 0x17
 7315 00fd 13       		.uleb128 0x13
 7316 00fe 01       		.byte	0x1
 7317 00ff 0B       		.uleb128 0xb
 7318 0100 0B       		.uleb128 0xb
 7319 0101 3A       		.uleb128 0x3a
 7320 0102 0B       		.uleb128 0xb
 7321 0103 3B       		.uleb128 0x3b
 7322 0104 0B       		.uleb128 0xb
ARM GAS  C:\Users\Phuong\AppData\Local\Temp\ccnzvfGe.s 			page 162


 7323 0105 01       		.uleb128 0x1
 7324 0106 13       		.uleb128 0x13
 7325 0107 00       		.byte	0
 7326 0108 00       		.byte	0
 7327 0109 18       		.uleb128 0x18
 7328 010a 26       		.uleb128 0x26
 7329 010b 00       		.byte	0
 7330 010c 00       		.byte	0
 7331 010d 00       		.byte	0
 7332 010e 19       		.uleb128 0x19
 7333 010f 0D       		.uleb128 0xd
 7334 0110 00       		.byte	0
 7335 0111 03       		.uleb128 0x3
 7336 0112 08       		.uleb128 0x8
 7337 0113 3A       		.uleb128 0x3a
 7338 0114 0B       		.uleb128 0xb
 7339 0115 3B       		.uleb128 0x3b
 7340 0116 0B       		.uleb128 0xb
 7341 0117 49       		.uleb128 0x49
 7342 0118 13       		.uleb128 0x13
 7343 0119 38       		.uleb128 0x38
 7344 011a 0B       		.uleb128 0xb
 7345 011b 00       		.byte	0
 7346 011c 00       		.byte	0
 7347 011d 1A       		.uleb128 0x1a
 7348 011e 13       		.uleb128 0x13
 7349 011f 01       		.byte	0x1
 7350 0120 03       		.uleb128 0x3
 7351 0121 0E       		.uleb128 0xe
 7352 0122 0B       		.uleb128 0xb
 7353 0123 05       		.uleb128 0x5
 7354 0124 3A       		.uleb128 0x3a
 7355 0125 0B       		.uleb128 0xb
 7356 0126 3B       		.uleb128 0x3b
 7357 0127 0B       		.uleb128 0xb
 7358 0128 01       		.uleb128 0x1
 7359 0129 13       		.uleb128 0x13
 7360 012a 00       		.byte	0
 7361 012b 00       		.byte	0
 7362 012c 1B       		.uleb128 0x1b
 7363 012d 0D       		.uleb128 0xd
 7364 012e 00       		.byte	0
 7365 012f 03       		.uleb128 0x3
 7366 0130 08       		.uleb128 0x8
 7367 0131 3A       		.uleb128 0x3a
 7368 0132 0B       		.uleb128 0xb
 7369 0133 3B       		.uleb128 0x3b
 7370 0134 0B       		.uleb128 0xb
 7371 0135 49       		.uleb128 0x49
 7372 0136 13       		.uleb128 0x13
 7373 0137 38       		.uleb128 0x38
 7374 0138 05       		.uleb128 0x5
 7375 0139 00       		.byte	0
 7376 013a 00       		.byte	0
 7377 013b 1C       		.uleb128 0x1c
 7378 013c 0D       		.uleb128 0xd
 7379 013d 00       		.byte	0
ARM GAS  C:\Users\Phuong\AppData\Local\Temp\ccnzvfGe.s 			page 163


 7380 013e 03       		.uleb128 0x3
 7381 013f 0E       		.uleb128 0xe
 7382 0140 3A       		.uleb128 0x3a
 7383 0141 0B       		.uleb128 0xb
 7384 0142 3B       		.uleb128 0x3b
 7385 0143 0B       		.uleb128 0xb
 7386 0144 49       		.uleb128 0x49
 7387 0145 13       		.uleb128 0x13
 7388 0146 38       		.uleb128 0x38
 7389 0147 05       		.uleb128 0x5
 7390 0148 00       		.byte	0
 7391 0149 00       		.byte	0
 7392 014a 1D       		.uleb128 0x1d
 7393 014b 2E       		.uleb128 0x2e
 7394 014c 01       		.byte	0x1
 7395 014d 03       		.uleb128 0x3
 7396 014e 0E       		.uleb128 0xe
 7397 014f 3A       		.uleb128 0x3a
 7398 0150 0B       		.uleb128 0xb
 7399 0151 3B       		.uleb128 0x3b
 7400 0152 05       		.uleb128 0x5
 7401 0153 27       		.uleb128 0x27
 7402 0154 19       		.uleb128 0x19
 7403 0155 49       		.uleb128 0x49
 7404 0156 13       		.uleb128 0x13
 7405 0157 20       		.uleb128 0x20
 7406 0158 0B       		.uleb128 0xb
 7407 0159 01       		.uleb128 0x1
 7408 015a 13       		.uleb128 0x13
 7409 015b 00       		.byte	0
 7410 015c 00       		.byte	0
 7411 015d 1E       		.uleb128 0x1e
 7412 015e 05       		.uleb128 0x5
 7413 015f 00       		.byte	0
 7414 0160 03       		.uleb128 0x3
 7415 0161 08       		.uleb128 0x8
 7416 0162 3A       		.uleb128 0x3a
 7417 0163 0B       		.uleb128 0xb
 7418 0164 3B       		.uleb128 0x3b
 7419 0165 05       		.uleb128 0x5
 7420 0166 49       		.uleb128 0x49
 7421 0167 13       		.uleb128 0x13
 7422 0168 00       		.byte	0
 7423 0169 00       		.byte	0
 7424 016a 1F       		.uleb128 0x1f
 7425 016b 2E       		.uleb128 0x2e
 7426 016c 01       		.byte	0x1
 7427 016d 03       		.uleb128 0x3
 7428 016e 0E       		.uleb128 0xe
 7429 016f 3A       		.uleb128 0x3a
 7430 0170 0B       		.uleb128 0xb
 7431 0171 3B       		.uleb128 0x3b
 7432 0172 0B       		.uleb128 0xb
 7433 0173 27       		.uleb128 0x27
 7434 0174 19       		.uleb128 0x19
 7435 0175 49       		.uleb128 0x49
 7436 0176 13       		.uleb128 0x13
ARM GAS  C:\Users\Phuong\AppData\Local\Temp\ccnzvfGe.s 			page 164


 7437 0177 11       		.uleb128 0x11
 7438 0178 01       		.uleb128 0x1
 7439 0179 12       		.uleb128 0x12
 7440 017a 06       		.uleb128 0x6
 7441 017b 40       		.uleb128 0x40
 7442 017c 18       		.uleb128 0x18
 7443 017d 9742     		.uleb128 0x2117
 7444 017f 19       		.uleb128 0x19
 7445 0180 01       		.uleb128 0x1
 7446 0181 13       		.uleb128 0x13
 7447 0182 00       		.byte	0
 7448 0183 00       		.byte	0
 7449 0184 20       		.uleb128 0x20
 7450 0185 05       		.uleb128 0x5
 7451 0186 00       		.byte	0
 7452 0187 03       		.uleb128 0x3
 7453 0188 08       		.uleb128 0x8
 7454 0189 3A       		.uleb128 0x3a
 7455 018a 0B       		.uleb128 0xb
 7456 018b 3B       		.uleb128 0x3b
 7457 018c 0B       		.uleb128 0xb
 7458 018d 49       		.uleb128 0x49
 7459 018e 13       		.uleb128 0x13
 7460 018f 02       		.uleb128 0x2
 7461 0190 17       		.uleb128 0x17
 7462 0191 00       		.byte	0
 7463 0192 00       		.byte	0
 7464 0193 21       		.uleb128 0x21
 7465 0194 05       		.uleb128 0x5
 7466 0195 00       		.byte	0
 7467 0196 03       		.uleb128 0x3
 7468 0197 08       		.uleb128 0x8
 7469 0198 3A       		.uleb128 0x3a
 7470 0199 0B       		.uleb128 0xb
 7471 019a 3B       		.uleb128 0x3b
 7472 019b 0B       		.uleb128 0xb
 7473 019c 49       		.uleb128 0x49
 7474 019d 13       		.uleb128 0x13
 7475 019e 02       		.uleb128 0x2
 7476 019f 18       		.uleb128 0x18
 7477 01a0 00       		.byte	0
 7478 01a1 00       		.byte	0
 7479 01a2 22       		.uleb128 0x22
 7480 01a3 34       		.uleb128 0x34
 7481 01a4 00       		.byte	0
 7482 01a5 03       		.uleb128 0x3
 7483 01a6 08       		.uleb128 0x8
 7484 01a7 3A       		.uleb128 0x3a
 7485 01a8 0B       		.uleb128 0xb
 7486 01a9 3B       		.uleb128 0x3b
 7487 01aa 0B       		.uleb128 0xb
 7488 01ab 49       		.uleb128 0x49
 7489 01ac 13       		.uleb128 0x13
 7490 01ad 02       		.uleb128 0x2
 7491 01ae 17       		.uleb128 0x17
 7492 01af 00       		.byte	0
 7493 01b0 00       		.byte	0
ARM GAS  C:\Users\Phuong\AppData\Local\Temp\ccnzvfGe.s 			page 165


 7494 01b1 23       		.uleb128 0x23
 7495 01b2 34       		.uleb128 0x34
 7496 01b3 00       		.byte	0
 7497 01b4 03       		.uleb128 0x3
 7498 01b5 08       		.uleb128 0x8
 7499 01b6 3A       		.uleb128 0x3a
 7500 01b7 0B       		.uleb128 0xb
 7501 01b8 3B       		.uleb128 0x3b
 7502 01b9 0B       		.uleb128 0xb
 7503 01ba 49       		.uleb128 0x49
 7504 01bb 13       		.uleb128 0x13
 7505 01bc 02       		.uleb128 0x2
 7506 01bd 18       		.uleb128 0x18
 7507 01be 00       		.byte	0
 7508 01bf 00       		.byte	0
 7509 01c0 24       		.uleb128 0x24
 7510 01c1 34       		.uleb128 0x34
 7511 01c2 00       		.byte	0
 7512 01c3 03       		.uleb128 0x3
 7513 01c4 0E       		.uleb128 0xe
 7514 01c5 3A       		.uleb128 0x3a
 7515 01c6 0B       		.uleb128 0xb
 7516 01c7 3B       		.uleb128 0x3b
 7517 01c8 0B       		.uleb128 0xb
 7518 01c9 49       		.uleb128 0x49
 7519 01ca 13       		.uleb128 0x13
 7520 01cb 02       		.uleb128 0x2
 7521 01cc 17       		.uleb128 0x17
 7522 01cd 00       		.byte	0
 7523 01ce 00       		.byte	0
 7524 01cf 25       		.uleb128 0x25
 7525 01d0 2E       		.uleb128 0x2e
 7526 01d1 01       		.byte	0x1
 7527 01d2 03       		.uleb128 0x3
 7528 01d3 0E       		.uleb128 0xe
 7529 01d4 3A       		.uleb128 0x3a
 7530 01d5 0B       		.uleb128 0xb
 7531 01d6 3B       		.uleb128 0x3b
 7532 01d7 05       		.uleb128 0x5
 7533 01d8 27       		.uleb128 0x27
 7534 01d9 19       		.uleb128 0x19
 7535 01da 11       		.uleb128 0x11
 7536 01db 01       		.uleb128 0x1
 7537 01dc 12       		.uleb128 0x12
 7538 01dd 06       		.uleb128 0x6
 7539 01de 40       		.uleb128 0x40
 7540 01df 18       		.uleb128 0x18
 7541 01e0 9742     		.uleb128 0x2117
 7542 01e2 19       		.uleb128 0x19
 7543 01e3 01       		.uleb128 0x1
 7544 01e4 13       		.uleb128 0x13
 7545 01e5 00       		.byte	0
 7546 01e6 00       		.byte	0
 7547 01e7 26       		.uleb128 0x26
 7548 01e8 05       		.uleb128 0x5
 7549 01e9 00       		.byte	0
 7550 01ea 03       		.uleb128 0x3
ARM GAS  C:\Users\Phuong\AppData\Local\Temp\ccnzvfGe.s 			page 166


 7551 01eb 0E       		.uleb128 0xe
 7552 01ec 3A       		.uleb128 0x3a
 7553 01ed 0B       		.uleb128 0xb
 7554 01ee 3B       		.uleb128 0x3b
 7555 01ef 05       		.uleb128 0x5
 7556 01f0 49       		.uleb128 0x49
 7557 01f1 13       		.uleb128 0x13
 7558 01f2 02       		.uleb128 0x2
 7559 01f3 18       		.uleb128 0x18
 7560 01f4 00       		.byte	0
 7561 01f5 00       		.byte	0
 7562 01f6 27       		.uleb128 0x27
 7563 01f7 05       		.uleb128 0x5
 7564 01f8 00       		.byte	0
 7565 01f9 03       		.uleb128 0x3
 7566 01fa 0E       		.uleb128 0xe
 7567 01fb 3A       		.uleb128 0x3a
 7568 01fc 0B       		.uleb128 0xb
 7569 01fd 3B       		.uleb128 0x3b
 7570 01fe 05       		.uleb128 0x5
 7571 01ff 49       		.uleb128 0x49
 7572 0200 13       		.uleb128 0x13
 7573 0201 02       		.uleb128 0x2
 7574 0202 17       		.uleb128 0x17
 7575 0203 00       		.byte	0
 7576 0204 00       		.byte	0
 7577 0205 28       		.uleb128 0x28
 7578 0206 34       		.uleb128 0x34
 7579 0207 00       		.byte	0
 7580 0208 03       		.uleb128 0x3
 7581 0209 0E       		.uleb128 0xe
 7582 020a 3A       		.uleb128 0x3a
 7583 020b 0B       		.uleb128 0xb
 7584 020c 3B       		.uleb128 0x3b
 7585 020d 05       		.uleb128 0x5
 7586 020e 49       		.uleb128 0x49
 7587 020f 13       		.uleb128 0x13
 7588 0210 02       		.uleb128 0x2
 7589 0211 18       		.uleb128 0x18
 7590 0212 00       		.byte	0
 7591 0213 00       		.byte	0
 7592 0214 29       		.uleb128 0x29
 7593 0215 34       		.uleb128 0x34
 7594 0216 00       		.byte	0
 7595 0217 03       		.uleb128 0x3
 7596 0218 08       		.uleb128 0x8
 7597 0219 3A       		.uleb128 0x3a
 7598 021a 0B       		.uleb128 0xb
 7599 021b 3B       		.uleb128 0x3b
 7600 021c 05       		.uleb128 0x5
 7601 021d 49       		.uleb128 0x49
 7602 021e 13       		.uleb128 0x13
 7603 021f 02       		.uleb128 0x2
 7604 0220 17       		.uleb128 0x17
 7605 0221 00       		.byte	0
 7606 0222 00       		.byte	0
 7607 0223 2A       		.uleb128 0x2a
ARM GAS  C:\Users\Phuong\AppData\Local\Temp\ccnzvfGe.s 			page 167


 7608 0224 2E       		.uleb128 0x2e
 7609 0225 01       		.byte	0x1
 7610 0226 03       		.uleb128 0x3
 7611 0227 0E       		.uleb128 0xe
 7612 0228 3A       		.uleb128 0x3a
 7613 0229 0B       		.uleb128 0xb
 7614 022a 3B       		.uleb128 0x3b
 7615 022b 05       		.uleb128 0x5
 7616 022c 27       		.uleb128 0x27
 7617 022d 19       		.uleb128 0x19
 7618 022e 49       		.uleb128 0x49
 7619 022f 13       		.uleb128 0x13
 7620 0230 11       		.uleb128 0x11
 7621 0231 01       		.uleb128 0x1
 7622 0232 12       		.uleb128 0x12
 7623 0233 06       		.uleb128 0x6
 7624 0234 40       		.uleb128 0x40
 7625 0235 18       		.uleb128 0x18
 7626 0236 9742     		.uleb128 0x2117
 7627 0238 19       		.uleb128 0x19
 7628 0239 01       		.uleb128 0x1
 7629 023a 13       		.uleb128 0x13
 7630 023b 00       		.byte	0
 7631 023c 00       		.byte	0
 7632 023d 2B       		.uleb128 0x2b
 7633 023e 34       		.uleb128 0x34
 7634 023f 00       		.byte	0
 7635 0240 03       		.uleb128 0x3
 7636 0241 0E       		.uleb128 0xe
 7637 0242 3A       		.uleb128 0x3a
 7638 0243 0B       		.uleb128 0xb
 7639 0244 3B       		.uleb128 0x3b
 7640 0245 05       		.uleb128 0x5
 7641 0246 49       		.uleb128 0x49
 7642 0247 13       		.uleb128 0x13
 7643 0248 02       		.uleb128 0x2
 7644 0249 17       		.uleb128 0x17
 7645 024a 00       		.byte	0
 7646 024b 00       		.byte	0
 7647 024c 2C       		.uleb128 0x2c
 7648 024d 34       		.uleb128 0x34
 7649 024e 00       		.byte	0
 7650 024f 03       		.uleb128 0x3
 7651 0250 08       		.uleb128 0x8
 7652 0251 3A       		.uleb128 0x3a
 7653 0252 0B       		.uleb128 0xb
 7654 0253 3B       		.uleb128 0x3b
 7655 0254 05       		.uleb128 0x5
 7656 0255 49       		.uleb128 0x49
 7657 0256 13       		.uleb128 0x13
 7658 0257 02       		.uleb128 0x2
 7659 0258 18       		.uleb128 0x18
 7660 0259 00       		.byte	0
 7661 025a 00       		.byte	0
 7662 025b 2D       		.uleb128 0x2d
 7663 025c 2E       		.uleb128 0x2e
 7664 025d 01       		.byte	0x1
ARM GAS  C:\Users\Phuong\AppData\Local\Temp\ccnzvfGe.s 			page 168


 7665 025e 3F       		.uleb128 0x3f
 7666 025f 19       		.uleb128 0x19
 7667 0260 03       		.uleb128 0x3
 7668 0261 0E       		.uleb128 0xe
 7669 0262 3A       		.uleb128 0x3a
 7670 0263 0B       		.uleb128 0xb
 7671 0264 3B       		.uleb128 0x3b
 7672 0265 0B       		.uleb128 0xb
 7673 0266 27       		.uleb128 0x27
 7674 0267 19       		.uleb128 0x19
 7675 0268 49       		.uleb128 0x49
 7676 0269 13       		.uleb128 0x13
 7677 026a 11       		.uleb128 0x11
 7678 026b 01       		.uleb128 0x1
 7679 026c 12       		.uleb128 0x12
 7680 026d 06       		.uleb128 0x6
 7681 026e 40       		.uleb128 0x40
 7682 026f 18       		.uleb128 0x18
 7683 0270 9742     		.uleb128 0x2117
 7684 0272 19       		.uleb128 0x19
 7685 0273 01       		.uleb128 0x1
 7686 0274 13       		.uleb128 0x13
 7687 0275 00       		.byte	0
 7688 0276 00       		.byte	0
 7689 0277 2E       		.uleb128 0x2e
 7690 0278 05       		.uleb128 0x5
 7691 0279 00       		.byte	0
 7692 027a 03       		.uleb128 0x3
 7693 027b 0E       		.uleb128 0xe
 7694 027c 3A       		.uleb128 0x3a
 7695 027d 0B       		.uleb128 0xb
 7696 027e 3B       		.uleb128 0x3b
 7697 027f 0B       		.uleb128 0xb
 7698 0280 49       		.uleb128 0x49
 7699 0281 13       		.uleb128 0x13
 7700 0282 02       		.uleb128 0x2
 7701 0283 17       		.uleb128 0x17
 7702 0284 00       		.byte	0
 7703 0285 00       		.byte	0
 7704 0286 2F       		.uleb128 0x2f
 7705 0287 898201   		.uleb128 0x4109
 7706 028a 01       		.byte	0x1
 7707 028b 11       		.uleb128 0x11
 7708 028c 01       		.uleb128 0x1
 7709 028d 31       		.uleb128 0x31
 7710 028e 13       		.uleb128 0x13
 7711 028f 00       		.byte	0
 7712 0290 00       		.byte	0
 7713 0291 30       		.uleb128 0x30
 7714 0292 8A8201   		.uleb128 0x410a
 7715 0295 00       		.byte	0
 7716 0296 02       		.uleb128 0x2
 7717 0297 18       		.uleb128 0x18
 7718 0298 9142     		.uleb128 0x2111
 7719 029a 18       		.uleb128 0x18
 7720 029b 00       		.byte	0
 7721 029c 00       		.byte	0
ARM GAS  C:\Users\Phuong\AppData\Local\Temp\ccnzvfGe.s 			page 169


 7722 029d 31       		.uleb128 0x31
 7723 029e 05       		.uleb128 0x5
 7724 029f 00       		.byte	0
 7725 02a0 03       		.uleb128 0x3
 7726 02a1 0E       		.uleb128 0xe
 7727 02a2 3A       		.uleb128 0x3a
 7728 02a3 0B       		.uleb128 0xb
 7729 02a4 3B       		.uleb128 0x3b
 7730 02a5 0B       		.uleb128 0xb
 7731 02a6 49       		.uleb128 0x49
 7732 02a7 13       		.uleb128 0x13
 7733 02a8 02       		.uleb128 0x2
 7734 02a9 18       		.uleb128 0x18
 7735 02aa 00       		.byte	0
 7736 02ab 00       		.byte	0
 7737 02ac 32       		.uleb128 0x32
 7738 02ad 2E       		.uleb128 0x2e
 7739 02ae 01       		.byte	0x1
 7740 02af 3F       		.uleb128 0x3f
 7741 02b0 19       		.uleb128 0x19
 7742 02b1 03       		.uleb128 0x3
 7743 02b2 0E       		.uleb128 0xe
 7744 02b3 3A       		.uleb128 0x3a
 7745 02b4 0B       		.uleb128 0xb
 7746 02b5 3B       		.uleb128 0x3b
 7747 02b6 0B       		.uleb128 0xb
 7748 02b7 27       		.uleb128 0x27
 7749 02b8 19       		.uleb128 0x19
 7750 02b9 11       		.uleb128 0x11
 7751 02ba 01       		.uleb128 0x1
 7752 02bb 12       		.uleb128 0x12
 7753 02bc 06       		.uleb128 0x6
 7754 02bd 40       		.uleb128 0x40
 7755 02be 18       		.uleb128 0x18
 7756 02bf 9742     		.uleb128 0x2117
 7757 02c1 19       		.uleb128 0x19
 7758 02c2 01       		.uleb128 0x1
 7759 02c3 13       		.uleb128 0x13
 7760 02c4 00       		.byte	0
 7761 02c5 00       		.byte	0
 7762 02c6 33       		.uleb128 0x33
 7763 02c7 2E       		.uleb128 0x2e
 7764 02c8 01       		.byte	0x1
 7765 02c9 3F       		.uleb128 0x3f
 7766 02ca 19       		.uleb128 0x19
 7767 02cb 03       		.uleb128 0x3
 7768 02cc 0E       		.uleb128 0xe
 7769 02cd 3A       		.uleb128 0x3a
 7770 02ce 0B       		.uleb128 0xb
 7771 02cf 3B       		.uleb128 0x3b
 7772 02d0 0B       		.uleb128 0xb
 7773 02d1 27       		.uleb128 0x27
 7774 02d2 19       		.uleb128 0x19
 7775 02d3 11       		.uleb128 0x11
 7776 02d4 01       		.uleb128 0x1
 7777 02d5 12       		.uleb128 0x12
 7778 02d6 06       		.uleb128 0x6
ARM GAS  C:\Users\Phuong\AppData\Local\Temp\ccnzvfGe.s 			page 170


 7779 02d7 40       		.uleb128 0x40
 7780 02d8 18       		.uleb128 0x18
 7781 02d9 9642     		.uleb128 0x2116
 7782 02db 19       		.uleb128 0x19
 7783 02dc 01       		.uleb128 0x1
 7784 02dd 13       		.uleb128 0x13
 7785 02de 00       		.byte	0
 7786 02df 00       		.byte	0
 7787 02e0 34       		.uleb128 0x34
 7788 02e1 2E       		.uleb128 0x2e
 7789 02e2 01       		.byte	0x1
 7790 02e3 3F       		.uleb128 0x3f
 7791 02e4 19       		.uleb128 0x19
 7792 02e5 03       		.uleb128 0x3
 7793 02e6 0E       		.uleb128 0xe
 7794 02e7 3A       		.uleb128 0x3a
 7795 02e8 0B       		.uleb128 0xb
 7796 02e9 3B       		.uleb128 0x3b
 7797 02ea 0B       		.uleb128 0xb
 7798 02eb 27       		.uleb128 0x27
 7799 02ec 19       		.uleb128 0x19
 7800 02ed 49       		.uleb128 0x49
 7801 02ee 13       		.uleb128 0x13
 7802 02ef 11       		.uleb128 0x11
 7803 02f0 01       		.uleb128 0x1
 7804 02f1 12       		.uleb128 0x12
 7805 02f2 06       		.uleb128 0x6
 7806 02f3 40       		.uleb128 0x40
 7807 02f4 18       		.uleb128 0x18
 7808 02f5 9642     		.uleb128 0x2116
 7809 02f7 19       		.uleb128 0x19
 7810 02f8 01       		.uleb128 0x1
 7811 02f9 13       		.uleb128 0x13
 7812 02fa 00       		.byte	0
 7813 02fb 00       		.byte	0
 7814 02fc 35       		.uleb128 0x35
 7815 02fd 898201   		.uleb128 0x4109
 7816 0300 01       		.byte	0x1
 7817 0301 11       		.uleb128 0x11
 7818 0302 01       		.uleb128 0x1
 7819 0303 31       		.uleb128 0x31
 7820 0304 13       		.uleb128 0x13
 7821 0305 01       		.uleb128 0x1
 7822 0306 13       		.uleb128 0x13
 7823 0307 00       		.byte	0
 7824 0308 00       		.byte	0
 7825 0309 36       		.uleb128 0x36
 7826 030a 2E       		.uleb128 0x2e
 7827 030b 01       		.byte	0x1
 7828 030c 3F       		.uleb128 0x3f
 7829 030d 19       		.uleb128 0x19
 7830 030e 03       		.uleb128 0x3
 7831 030f 0E       		.uleb128 0xe
 7832 0310 3A       		.uleb128 0x3a
 7833 0311 0B       		.uleb128 0xb
 7834 0312 3B       		.uleb128 0x3b
 7835 0313 05       		.uleb128 0x5
ARM GAS  C:\Users\Phuong\AppData\Local\Temp\ccnzvfGe.s 			page 171


 7836 0314 27       		.uleb128 0x27
 7837 0315 19       		.uleb128 0x19
 7838 0316 49       		.uleb128 0x49
 7839 0317 13       		.uleb128 0x13
 7840 0318 11       		.uleb128 0x11
 7841 0319 01       		.uleb128 0x1
 7842 031a 12       		.uleb128 0x12
 7843 031b 06       		.uleb128 0x6
 7844 031c 40       		.uleb128 0x40
 7845 031d 18       		.uleb128 0x18
 7846 031e 9742     		.uleb128 0x2117
 7847 0320 19       		.uleb128 0x19
 7848 0321 01       		.uleb128 0x1
 7849 0322 13       		.uleb128 0x13
 7850 0323 00       		.byte	0
 7851 0324 00       		.byte	0
 7852 0325 37       		.uleb128 0x37
 7853 0326 05       		.uleb128 0x5
 7854 0327 00       		.byte	0
 7855 0328 03       		.uleb128 0x3
 7856 0329 08       		.uleb128 0x8
 7857 032a 3A       		.uleb128 0x3a
 7858 032b 0B       		.uleb128 0xb
 7859 032c 3B       		.uleb128 0x3b
 7860 032d 05       		.uleb128 0x5
 7861 032e 49       		.uleb128 0x49
 7862 032f 13       		.uleb128 0x13
 7863 0330 02       		.uleb128 0x2
 7864 0331 17       		.uleb128 0x17
 7865 0332 00       		.byte	0
 7866 0333 00       		.byte	0
 7867 0334 38       		.uleb128 0x38
 7868 0335 0B       		.uleb128 0xb
 7869 0336 01       		.byte	0x1
 7870 0337 11       		.uleb128 0x11
 7871 0338 01       		.uleb128 0x1
 7872 0339 12       		.uleb128 0x12
 7873 033a 06       		.uleb128 0x6
 7874 033b 01       		.uleb128 0x1
 7875 033c 13       		.uleb128 0x13
 7876 033d 00       		.byte	0
 7877 033e 00       		.byte	0
 7878 033f 39       		.uleb128 0x39
 7879 0340 2E       		.uleb128 0x2e
 7880 0341 01       		.byte	0x1
 7881 0342 3F       		.uleb128 0x3f
 7882 0343 19       		.uleb128 0x19
 7883 0344 03       		.uleb128 0x3
 7884 0345 0E       		.uleb128 0xe
 7885 0346 3A       		.uleb128 0x3a
 7886 0347 0B       		.uleb128 0xb
 7887 0348 3B       		.uleb128 0x3b
 7888 0349 05       		.uleb128 0x5
 7889 034a 27       		.uleb128 0x27
 7890 034b 19       		.uleb128 0x19
 7891 034c 49       		.uleb128 0x49
 7892 034d 13       		.uleb128 0x13
ARM GAS  C:\Users\Phuong\AppData\Local\Temp\ccnzvfGe.s 			page 172


 7893 034e 11       		.uleb128 0x11
 7894 034f 01       		.uleb128 0x1
 7895 0350 12       		.uleb128 0x12
 7896 0351 06       		.uleb128 0x6
 7897 0352 40       		.uleb128 0x40
 7898 0353 18       		.uleb128 0x18
 7899 0354 9642     		.uleb128 0x2116
 7900 0356 19       		.uleb128 0x19
 7901 0357 01       		.uleb128 0x1
 7902 0358 13       		.uleb128 0x13
 7903 0359 00       		.byte	0
 7904 035a 00       		.byte	0
 7905 035b 3A       		.uleb128 0x3a
 7906 035c 1D       		.uleb128 0x1d
 7907 035d 01       		.byte	0x1
 7908 035e 31       		.uleb128 0x31
 7909 035f 13       		.uleb128 0x13
 7910 0360 11       		.uleb128 0x11
 7911 0361 01       		.uleb128 0x1
 7912 0362 12       		.uleb128 0x12
 7913 0363 06       		.uleb128 0x6
 7914 0364 58       		.uleb128 0x58
 7915 0365 0B       		.uleb128 0xb
 7916 0366 59       		.uleb128 0x59
 7917 0367 05       		.uleb128 0x5
 7918 0368 01       		.uleb128 0x1
 7919 0369 13       		.uleb128 0x13
 7920 036a 00       		.byte	0
 7921 036b 00       		.byte	0
 7922 036c 3B       		.uleb128 0x3b
 7923 036d 05       		.uleb128 0x5
 7924 036e 00       		.byte	0
 7925 036f 31       		.uleb128 0x31
 7926 0370 13       		.uleb128 0x13
 7927 0371 02       		.uleb128 0x2
 7928 0372 17       		.uleb128 0x17
 7929 0373 00       		.byte	0
 7930 0374 00       		.byte	0
 7931 0375 3C       		.uleb128 0x3c
 7932 0376 0B       		.uleb128 0xb
 7933 0377 01       		.byte	0x1
 7934 0378 55       		.uleb128 0x55
 7935 0379 17       		.uleb128 0x17
 7936 037a 01       		.uleb128 0x1
 7937 037b 13       		.uleb128 0x13
 7938 037c 00       		.byte	0
 7939 037d 00       		.byte	0
 7940 037e 3D       		.uleb128 0x3d
 7941 037f 898201   		.uleb128 0x4109
 7942 0382 01       		.byte	0x1
 7943 0383 11       		.uleb128 0x11
 7944 0384 01       		.uleb128 0x1
 7945 0385 9342     		.uleb128 0x2113
 7946 0387 18       		.uleb128 0x18
 7947 0388 01       		.uleb128 0x1
 7948 0389 13       		.uleb128 0x13
 7949 038a 00       		.byte	0
ARM GAS  C:\Users\Phuong\AppData\Local\Temp\ccnzvfGe.s 			page 173


 7950 038b 00       		.byte	0
 7951 038c 3E       		.uleb128 0x3e
 7952 038d 898201   		.uleb128 0x4109
 7953 0390 01       		.byte	0x1
 7954 0391 11       		.uleb128 0x11
 7955 0392 01       		.uleb128 0x1
 7956 0393 9342     		.uleb128 0x2113
 7957 0395 18       		.uleb128 0x18
 7958 0396 00       		.byte	0
 7959 0397 00       		.byte	0
 7960 0398 3F       		.uleb128 0x3f
 7961 0399 0B       		.uleb128 0xb
 7962 039a 01       		.byte	0x1
 7963 039b 55       		.uleb128 0x55
 7964 039c 17       		.uleb128 0x17
 7965 039d 00       		.byte	0
 7966 039e 00       		.byte	0
 7967 039f 40       		.uleb128 0x40
 7968 03a0 898201   		.uleb128 0x4109
 7969 03a3 01       		.byte	0x1
 7970 03a4 11       		.uleb128 0x11
 7971 03a5 01       		.uleb128 0x1
 7972 03a6 01       		.uleb128 0x1
 7973 03a7 13       		.uleb128 0x13
 7974 03a8 00       		.byte	0
 7975 03a9 00       		.byte	0
 7976 03aa 41       		.uleb128 0x41
 7977 03ab 898201   		.uleb128 0x4109
 7978 03ae 01       		.byte	0x1
 7979 03af 11       		.uleb128 0x11
 7980 03b0 01       		.uleb128 0x1
 7981 03b1 00       		.byte	0
 7982 03b2 00       		.byte	0
 7983 03b3 42       		.uleb128 0x42
 7984 03b4 898201   		.uleb128 0x4109
 7985 03b7 00       		.byte	0
 7986 03b8 11       		.uleb128 0x11
 7987 03b9 01       		.uleb128 0x1
 7988 03ba 31       		.uleb128 0x31
 7989 03bb 13       		.uleb128 0x13
 7990 03bc 00       		.byte	0
 7991 03bd 00       		.byte	0
 7992 03be 43       		.uleb128 0x43
 7993 03bf 05       		.uleb128 0x5
 7994 03c0 00       		.byte	0
 7995 03c1 03       		.uleb128 0x3
 7996 03c2 08       		.uleb128 0x8
 7997 03c3 3A       		.uleb128 0x3a
 7998 03c4 0B       		.uleb128 0xb
 7999 03c5 3B       		.uleb128 0x3b
 8000 03c6 05       		.uleb128 0x5
 8001 03c7 49       		.uleb128 0x49
 8002 03c8 13       		.uleb128 0x13
 8003 03c9 02       		.uleb128 0x2
 8004 03ca 18       		.uleb128 0x18
 8005 03cb 00       		.byte	0
 8006 03cc 00       		.byte	0
ARM GAS  C:\Users\Phuong\AppData\Local\Temp\ccnzvfGe.s 			page 174


 8007 03cd 44       		.uleb128 0x44
 8008 03ce 34       		.uleb128 0x34
 8009 03cf 00       		.byte	0
 8010 03d0 03       		.uleb128 0x3
 8011 03d1 0E       		.uleb128 0xe
 8012 03d2 3A       		.uleb128 0x3a
 8013 03d3 0B       		.uleb128 0xb
 8014 03d4 3B       		.uleb128 0x3b
 8015 03d5 0B       		.uleb128 0xb
 8016 03d6 49       		.uleb128 0x49
 8017 03d7 13       		.uleb128 0x13
 8018 03d8 02       		.uleb128 0x2
 8019 03d9 18       		.uleb128 0x18
 8020 03da 00       		.byte	0
 8021 03db 00       		.byte	0
 8022 03dc 45       		.uleb128 0x45
 8023 03dd 21       		.uleb128 0x21
 8024 03de 00       		.byte	0
 8025 03df 00       		.byte	0
 8026 03e0 00       		.byte	0
 8027 03e1 46       		.uleb128 0x46
 8028 03e2 34       		.uleb128 0x34
 8029 03e3 00       		.byte	0
 8030 03e4 03       		.uleb128 0x3
 8031 03e5 0E       		.uleb128 0xe
 8032 03e6 3A       		.uleb128 0x3a
 8033 03e7 0B       		.uleb128 0xb
 8034 03e8 3B       		.uleb128 0x3b
 8035 03e9 0B       		.uleb128 0xb
 8036 03ea 49       		.uleb128 0x49
 8037 03eb 13       		.uleb128 0x13
 8038 03ec 3F       		.uleb128 0x3f
 8039 03ed 19       		.uleb128 0x19
 8040 03ee 3C       		.uleb128 0x3c
 8041 03ef 19       		.uleb128 0x19
 8042 03f0 00       		.byte	0
 8043 03f1 00       		.byte	0
 8044 03f2 47       		.uleb128 0x47
 8045 03f3 2E       		.uleb128 0x2e
 8046 03f4 00       		.byte	0
 8047 03f5 3F       		.uleb128 0x3f
 8048 03f6 19       		.uleb128 0x19
 8049 03f7 3C       		.uleb128 0x3c
 8050 03f8 19       		.uleb128 0x19
 8051 03f9 6E       		.uleb128 0x6e
 8052 03fa 0E       		.uleb128 0xe
 8053 03fb 03       		.uleb128 0x3
 8054 03fc 0E       		.uleb128 0xe
 8055 03fd 3A       		.uleb128 0x3a
 8056 03fe 0B       		.uleb128 0xb
 8057 03ff 3B       		.uleb128 0x3b
 8058 0400 0B       		.uleb128 0xb
 8059 0401 00       		.byte	0
 8060 0402 00       		.byte	0
 8061 0403 48       		.uleb128 0x48
 8062 0404 2E       		.uleb128 0x2e
 8063 0405 00       		.byte	0
ARM GAS  C:\Users\Phuong\AppData\Local\Temp\ccnzvfGe.s 			page 175


 8064 0406 3F       		.uleb128 0x3f
 8065 0407 19       		.uleb128 0x19
 8066 0408 3C       		.uleb128 0x3c
 8067 0409 19       		.uleb128 0x19
 8068 040a 6E       		.uleb128 0x6e
 8069 040b 0E       		.uleb128 0xe
 8070 040c 03       		.uleb128 0x3
 8071 040d 0E       		.uleb128 0xe
 8072 040e 00       		.byte	0
 8073 040f 00       		.byte	0
 8074 0410 49       		.uleb128 0x49
 8075 0411 2E       		.uleb128 0x2e
 8076 0412 00       		.byte	0
 8077 0413 3F       		.uleb128 0x3f
 8078 0414 19       		.uleb128 0x19
 8079 0415 3C       		.uleb128 0x3c
 8080 0416 19       		.uleb128 0x19
 8081 0417 6E       		.uleb128 0x6e
 8082 0418 0E       		.uleb128 0xe
 8083 0419 03       		.uleb128 0x3
 8084 041a 0E       		.uleb128 0xe
 8085 041b 3A       		.uleb128 0x3a
 8086 041c 0B       		.uleb128 0xb
 8087 041d 3B       		.uleb128 0x3b
 8088 041e 05       		.uleb128 0x5
 8089 041f 00       		.byte	0
 8090 0420 00       		.byte	0
 8091 0421 00       		.byte	0
 8092              		.section	.debug_loc,"",%progbits
 8093              	.Ldebug_loc0:
 8094              	.LLST0:
 8095 0000 00000000 		.4byte	.LVL0
 8096 0004 06000000 		.4byte	.LVL2
 8097 0008 0100     		.2byte	0x1
 8098 000a 50       		.byte	0x50
 8099 000b 06000000 		.4byte	.LVL2
 8100 000f 18000000 		.4byte	.LVL6
 8101 0013 0100     		.2byte	0x1
 8102 0015 56       		.byte	0x56
 8103 0016 18000000 		.4byte	.LVL6
 8104 001a 1A000000 		.4byte	.LFE8
 8105 001e 0400     		.2byte	0x4
 8106 0020 F3       		.byte	0xf3
 8107 0021 01       		.uleb128 0x1
 8108 0022 50       		.byte	0x50
 8109 0023 9F       		.byte	0x9f
 8110 0024 00000000 		.4byte	0
 8111 0028 00000000 		.4byte	0
 8112              	.LLST1:
 8113 002c 04000000 		.4byte	.LVL1
 8114 0030 06000000 		.4byte	.LVL2
 8115 0034 0100     		.2byte	0x1
 8116 0036 50       		.byte	0x50
 8117 0037 06000000 		.4byte	.LVL2
 8118 003b 18000000 		.4byte	.LVL6
 8119 003f 0100     		.2byte	0x1
 8120 0041 56       		.byte	0x56
ARM GAS  C:\Users\Phuong\AppData\Local\Temp\ccnzvfGe.s 			page 176


 8121 0042 18000000 		.4byte	.LVL6
 8122 0046 1A000000 		.4byte	.LFE8
 8123 004a 0400     		.2byte	0x4
 8124 004c F3       		.byte	0xf3
 8125 004d 01       		.uleb128 0x1
 8126 004e 50       		.byte	0x50
 8127 004f 9F       		.byte	0x9f
 8128 0050 00000000 		.4byte	0
 8129 0054 00000000 		.4byte	0
 8130              	.LLST2:
 8131 0058 04000000 		.4byte	.LVL1
 8132 005c 0A000000 		.4byte	.LVL3
 8133 0060 0200     		.2byte	0x2
 8134 0062 30       		.byte	0x30
 8135 0063 9F       		.byte	0x9f
 8136 0064 0A000000 		.4byte	.LVL3
 8137 0068 1A000000 		.4byte	.LFE8
 8138 006c 0100     		.2byte	0x1
 8139 006e 53       		.byte	0x53
 8140 006f 00000000 		.4byte	0
 8141 0073 00000000 		.4byte	0
 8142              	.LLST3:
 8143 0077 04000000 		.4byte	.LVL1
 8144 007b 0A000000 		.4byte	.LVL3
 8145 007f 0200     		.2byte	0x2
 8146 0081 30       		.byte	0x30
 8147 0082 9F       		.byte	0x9f
 8148 0083 0A000000 		.4byte	.LVL3
 8149 0087 1A000000 		.4byte	.LFE8
 8150 008b 0100     		.2byte	0x1
 8151 008d 50       		.byte	0x50
 8152 008e 00000000 		.4byte	0
 8153 0092 00000000 		.4byte	0
 8154              	.LLST4:
 8155 0096 00000000 		.4byte	.LVL7
 8156 009a 04000000 		.4byte	.LVL8
 8157 009e 0100     		.2byte	0x1
 8158 00a0 51       		.byte	0x51
 8159 00a1 04000000 		.4byte	.LVL8
 8160 00a5 16000000 		.4byte	.LFE21
 8161 00a9 0400     		.2byte	0x4
 8162 00ab F3       		.byte	0xf3
 8163 00ac 01       		.uleb128 0x1
 8164 00ad 51       		.byte	0x51
 8165 00ae 9F       		.byte	0x9f
 8166 00af 00000000 		.4byte	0
 8167 00b3 00000000 		.4byte	0
 8168              	.LLST5:
 8169 00b7 04000000 		.4byte	.LVL8
 8170 00bb 08000000 		.4byte	.LVL9
 8171 00bf 0200     		.2byte	0x2
 8172 00c1 30       		.byte	0x30
 8173 00c2 9F       		.byte	0x9f
 8174 00c3 08000000 		.4byte	.LVL9
 8175 00c7 0E000000 		.4byte	.LVL10
 8176 00cb 0100     		.2byte	0x1
 8177 00cd 53       		.byte	0x53
ARM GAS  C:\Users\Phuong\AppData\Local\Temp\ccnzvfGe.s 			page 177


 8178 00ce 10000000 		.4byte	.LVL11
 8179 00d2 16000000 		.4byte	.LFE21
 8180 00d6 0100     		.2byte	0x1
 8181 00d8 53       		.byte	0x53
 8182 00d9 00000000 		.4byte	0
 8183 00dd 00000000 		.4byte	0
 8184              	.LLST6:
 8185 00e1 00000000 		.4byte	.LVL12
 8186 00e5 40000000 		.4byte	.LVL21
 8187 00e9 0100     		.2byte	0x1
 8188 00eb 50       		.byte	0x50
 8189 00ec 40000000 		.4byte	.LVL21
 8190 00f0 42000000 		.4byte	.LVL22
 8191 00f4 0400     		.2byte	0x4
 8192 00f6 F3       		.byte	0xf3
 8193 00f7 01       		.uleb128 0x1
 8194 00f8 50       		.byte	0x50
 8195 00f9 9F       		.byte	0x9f
 8196 00fa 42000000 		.4byte	.LVL22
 8197 00fe 44000000 		.4byte	.LVL23
 8198 0102 0100     		.2byte	0x1
 8199 0104 50       		.byte	0x50
 8200 0105 44000000 		.4byte	.LVL23
 8201 0109 46000000 		.4byte	.LVL24
 8202 010d 0400     		.2byte	0x4
 8203 010f F3       		.byte	0xf3
 8204 0110 01       		.uleb128 0x1
 8205 0111 50       		.byte	0x50
 8206 0112 9F       		.byte	0x9f
 8207 0113 46000000 		.4byte	.LVL24
 8208 0117 48000000 		.4byte	.LVL25
 8209 011b 0100     		.2byte	0x1
 8210 011d 50       		.byte	0x50
 8211 011e 48000000 		.4byte	.LVL25
 8212 0122 4A000000 		.4byte	.LVL26
 8213 0126 0400     		.2byte	0x4
 8214 0128 F3       		.byte	0xf3
 8215 0129 01       		.uleb128 0x1
 8216 012a 50       		.byte	0x50
 8217 012b 9F       		.byte	0x9f
 8218 012c 4A000000 		.4byte	.LVL26
 8219 0130 4C000000 		.4byte	.LVL27
 8220 0134 0100     		.2byte	0x1
 8221 0136 50       		.byte	0x50
 8222 0137 4C000000 		.4byte	.LVL27
 8223 013b 58000000 		.4byte	.LFE22
 8224 013f 0400     		.2byte	0x4
 8225 0141 F3       		.byte	0xf3
 8226 0142 01       		.uleb128 0x1
 8227 0143 50       		.byte	0x50
 8228 0144 9F       		.byte	0x9f
 8229 0145 00000000 		.4byte	0
 8230 0149 00000000 		.4byte	0
 8231              	.LLST7:
 8232 014d 00000000 		.4byte	.LVL12
 8233 0151 1C000000 		.4byte	.LVL16
 8234 0155 0100     		.2byte	0x1
ARM GAS  C:\Users\Phuong\AppData\Local\Temp\ccnzvfGe.s 			page 178


 8235 0157 52       		.byte	0x52
 8236 0158 1C000000 		.4byte	.LVL16
 8237 015c 42000000 		.4byte	.LVL22
 8238 0160 0400     		.2byte	0x4
 8239 0162 F3       		.byte	0xf3
 8240 0163 01       		.uleb128 0x1
 8241 0164 52       		.byte	0x52
 8242 0165 9F       		.byte	0x9f
 8243 0166 42000000 		.4byte	.LVL22
 8244 016a 4A000000 		.4byte	.LVL26
 8245 016e 0100     		.2byte	0x1
 8246 0170 52       		.byte	0x52
 8247 0171 4A000000 		.4byte	.LVL26
 8248 0175 58000000 		.4byte	.LFE22
 8249 0179 0400     		.2byte	0x4
 8250 017b F3       		.byte	0xf3
 8251 017c 01       		.uleb128 0x1
 8252 017d 52       		.byte	0x52
 8253 017e 9F       		.byte	0x9f
 8254 017f 00000000 		.4byte	0
 8255 0183 00000000 		.4byte	0
 8256              	.LLST8:
 8257 0187 1E000000 		.4byte	.LVL17
 8258 018b 22000000 		.4byte	.LVL18
 8259 018f 0200     		.2byte	0x2
 8260 0191 30       		.byte	0x30
 8261 0192 9F       		.byte	0x9f
 8262 0193 22000000 		.4byte	.LVL18
 8263 0197 42000000 		.4byte	.LVL22
 8264 019b 0100     		.2byte	0x1
 8265 019d 54       		.byte	0x54
 8266 019e 4A000000 		.4byte	.LVL26
 8267 01a2 4C000000 		.4byte	.LVL27
 8268 01a6 0100     		.2byte	0x1
 8269 01a8 54       		.byte	0x54
 8270 01a9 00000000 		.4byte	0
 8271 01ad 00000000 		.4byte	0
 8272              	.LLST9:
 8273 01b1 1E000000 		.4byte	.LVL17
 8274 01b5 42000000 		.4byte	.LVL22
 8275 01b9 0100     		.2byte	0x1
 8276 01bb 57       		.byte	0x57
 8277 01bc 4A000000 		.4byte	.LVL26
 8278 01c0 4C000000 		.4byte	.LVL27
 8279 01c4 0100     		.2byte	0x1
 8280 01c6 57       		.byte	0x57
 8281 01c7 00000000 		.4byte	0
 8282 01cb 00000000 		.4byte	0
 8283              	.LLST10:
 8284 01cf 0E000000 		.4byte	.LVL14
 8285 01d3 42000000 		.4byte	.LVL22
 8286 01d7 0100     		.2byte	0x1
 8287 01d9 56       		.byte	0x56
 8288 01da 4A000000 		.4byte	.LVL26
 8289 01de 4C000000 		.4byte	.LVL27
 8290 01e2 0100     		.2byte	0x1
 8291 01e4 56       		.byte	0x56
ARM GAS  C:\Users\Phuong\AppData\Local\Temp\ccnzvfGe.s 			page 179


 8292 01e5 00000000 		.4byte	0
 8293 01e9 00000000 		.4byte	0
 8294              	.LLST11:
 8295 01ed 02000000 		.4byte	.LVL13
 8296 01f1 18000000 		.4byte	.LVL15
 8297 01f5 0200     		.2byte	0x2
 8298 01f7 30       		.byte	0x30
 8299 01f8 9F       		.byte	0x9f
 8300 01f9 18000000 		.4byte	.LVL15
 8301 01fd 1E000000 		.4byte	.LVL17
 8302 0201 0100     		.2byte	0x1
 8303 0203 53       		.byte	0x53
 8304 0204 1E000000 		.4byte	.LVL17
 8305 0208 42000000 		.4byte	.LVL22
 8306 020c 0100     		.2byte	0x1
 8307 020e 55       		.byte	0x55
 8308 020f 42000000 		.4byte	.LVL22
 8309 0213 4A000000 		.4byte	.LVL26
 8310 0217 0200     		.2byte	0x2
 8311 0219 30       		.byte	0x30
 8312 021a 9F       		.byte	0x9f
 8313 021b 4A000000 		.4byte	.LVL26
 8314 021f 4C000000 		.4byte	.LVL27
 8315 0223 0100     		.2byte	0x1
 8316 0225 55       		.byte	0x55
 8317 0226 00000000 		.4byte	0
 8318 022a 00000000 		.4byte	0
 8319              	.LLST12:
 8320 022e 00000000 		.4byte	.LVL28
 8321 0232 04000000 		.4byte	.LVL29
 8322 0236 0100     		.2byte	0x1
 8323 0238 51       		.byte	0x51
 8324 0239 04000000 		.4byte	.LVL29
 8325 023d 1E000000 		.4byte	.LFE23
 8326 0241 0400     		.2byte	0x4
 8327 0243 F3       		.byte	0xf3
 8328 0244 01       		.uleb128 0x1
 8329 0245 51       		.byte	0x51
 8330 0246 9F       		.byte	0x9f
 8331 0247 00000000 		.4byte	0
 8332 024b 00000000 		.4byte	0
 8333              	.LLST13:
 8334 024f 04000000 		.4byte	.LVL29
 8335 0253 08000000 		.4byte	.LVL30
 8336 0257 0200     		.2byte	0x2
 8337 0259 30       		.byte	0x30
 8338 025a 9F       		.byte	0x9f
 8339 025b 08000000 		.4byte	.LVL30
 8340 025f 0C000000 		.4byte	.LVL31
 8341 0263 0200     		.2byte	0x2
 8342 0265 31       		.byte	0x31
 8343 0266 9F       		.byte	0x9f
 8344 0267 0C000000 		.4byte	.LVL31
 8345 026b 16000000 		.4byte	.LVL32
 8346 026f 0100     		.2byte	0x1
 8347 0271 53       		.byte	0x53
 8348 0272 18000000 		.4byte	.LVL33
ARM GAS  C:\Users\Phuong\AppData\Local\Temp\ccnzvfGe.s 			page 180


 8349 0276 1E000000 		.4byte	.LFE23
 8350 027a 0100     		.2byte	0x1
 8351 027c 53       		.byte	0x53
 8352 027d 00000000 		.4byte	0
 8353 0281 00000000 		.4byte	0
 8354              	.LLST14:
 8355 0285 00000000 		.4byte	.LVL34
 8356 0289 14000000 		.4byte	.LVL38
 8357 028d 0100     		.2byte	0x1
 8358 028f 50       		.byte	0x50
 8359 0290 14000000 		.4byte	.LVL38
 8360 0294 4A000000 		.4byte	.LVL44
 8361 0298 0100     		.2byte	0x1
 8362 029a 5C       		.byte	0x5c
 8363 029b 4A000000 		.4byte	.LVL44
 8364 029f 4C000000 		.4byte	.LVL45
 8365 02a3 0100     		.2byte	0x1
 8366 02a5 50       		.byte	0x50
 8367 02a6 4C000000 		.4byte	.LVL45
 8368 02aa 4E000000 		.4byte	.LVL46
 8369 02ae 0100     		.2byte	0x1
 8370 02b0 5C       		.byte	0x5c
 8371 02b1 4E000000 		.4byte	.LVL46
 8372 02b5 50000000 		.4byte	.LVL47
 8373 02b9 0100     		.2byte	0x1
 8374 02bb 50       		.byte	0x50
 8375 02bc 50000000 		.4byte	.LVL47
 8376 02c0 60000000 		.4byte	.LFE24
 8377 02c4 0100     		.2byte	0x1
 8378 02c6 5C       		.byte	0x5c
 8379 02c7 00000000 		.4byte	0
 8380 02cb 00000000 		.4byte	0
 8381              	.LLST15:
 8382 02cf 00000000 		.4byte	.LVL34
 8383 02d3 14000000 		.4byte	.LVL38
 8384 02d7 0100     		.2byte	0x1
 8385 02d9 51       		.byte	0x51
 8386 02da 14000000 		.4byte	.LVL38
 8387 02de 4A000000 		.4byte	.LVL44
 8388 02e2 0400     		.2byte	0x4
 8389 02e4 F3       		.byte	0xf3
 8390 02e5 01       		.uleb128 0x1
 8391 02e6 51       		.byte	0x51
 8392 02e7 9F       		.byte	0x9f
 8393 02e8 4A000000 		.4byte	.LVL44
 8394 02ec 52000000 		.4byte	.LVL48
 8395 02f0 0100     		.2byte	0x1
 8396 02f2 51       		.byte	0x51
 8397 02f3 52000000 		.4byte	.LVL48
 8398 02f7 60000000 		.4byte	.LFE24
 8399 02fb 0400     		.2byte	0x4
 8400 02fd F3       		.byte	0xf3
 8401 02fe 01       		.uleb128 0x1
 8402 02ff 51       		.byte	0x51
 8403 0300 9F       		.byte	0x9f
 8404 0301 00000000 		.4byte	0
 8405 0305 00000000 		.4byte	0
ARM GAS  C:\Users\Phuong\AppData\Local\Temp\ccnzvfGe.s 			page 181


 8406              	.LLST16:
 8407 0309 10000000 		.4byte	.LVL37
 8408 030d 16000000 		.4byte	.LVL39
 8409 0311 0100     		.2byte	0x1
 8410 0313 51       		.byte	0x51
 8411 0314 16000000 		.4byte	.LVL39
 8412 0318 3C000000 		.4byte	.LVL42
 8413 031c 0300     		.2byte	0x3
 8414 031e 71       		.byte	0x71
 8415 031f 01       		.sleb128 1
 8416 0320 9F       		.byte	0x9f
 8417 0321 3C000000 		.4byte	.LVL42
 8418 0325 4A000000 		.4byte	.LVL44
 8419 0329 0100     		.2byte	0x1
 8420 032b 51       		.byte	0x51
 8421 032c 52000000 		.4byte	.LVL48
 8422 0330 54000000 		.4byte	.LVL49
 8423 0334 0100     		.2byte	0x1
 8424 0336 51       		.byte	0x51
 8425 0337 00000000 		.4byte	0
 8426 033b 00000000 		.4byte	0
 8427              	.LLST17:
 8428 033f 04000000 		.4byte	.LVL35
 8429 0343 14000000 		.4byte	.LVL38
 8430 0347 0200     		.2byte	0x2
 8431 0349 30       		.byte	0x30
 8432 034a 9F       		.byte	0x9f
 8433 034b 14000000 		.4byte	.LVL38
 8434 034f 22000000 		.4byte	.LVL40
 8435 0353 0100     		.2byte	0x1
 8436 0355 53       		.byte	0x53
 8437 0356 22000000 		.4byte	.LVL40
 8438 035a 3E000000 		.4byte	.LVL43
 8439 035e 0100     		.2byte	0x1
 8440 0360 54       		.byte	0x54
 8441 0361 3E000000 		.4byte	.LVL43
 8442 0365 4A000000 		.4byte	.LVL44
 8443 0369 0100     		.2byte	0x1
 8444 036b 53       		.byte	0x53
 8445 036c 4A000000 		.4byte	.LVL44
 8446 0370 52000000 		.4byte	.LVL48
 8447 0374 0200     		.2byte	0x2
 8448 0376 30       		.byte	0x30
 8449 0377 9F       		.byte	0x9f
 8450 0378 52000000 		.4byte	.LVL48
 8451 037c 54000000 		.4byte	.LVL49
 8452 0380 0100     		.2byte	0x1
 8453 0382 53       		.byte	0x53
 8454 0383 00000000 		.4byte	0
 8455 0387 00000000 		.4byte	0
 8456              	.LLST18:
 8457 038b 14000000 		.4byte	.LVL38
 8458 038f 24000000 		.4byte	.LVL41
 8459 0393 0100     		.2byte	0x1
 8460 0395 53       		.byte	0x53
 8461 0396 00000000 		.4byte	0
 8462 039a 00000000 		.4byte	0
ARM GAS  C:\Users\Phuong\AppData\Local\Temp\ccnzvfGe.s 			page 182


 8463              	.LLST19:
 8464 039e 0C000000 		.4byte	.LVL36
 8465 03a2 14000000 		.4byte	.LVL38
 8466 03a6 0300     		.2byte	0x3
 8467 03a8 09       		.byte	0x9
 8468 03a9 80       		.byte	0x80
 8469 03aa 9F       		.byte	0x9f
 8470 03ab 14000000 		.4byte	.LVL38
 8471 03af 4A000000 		.4byte	.LVL44
 8472 03b3 0100     		.2byte	0x1
 8473 03b5 56       		.byte	0x56
 8474 03b6 52000000 		.4byte	.LVL48
 8475 03ba 54000000 		.4byte	.LVL49
 8476 03be 0100     		.2byte	0x1
 8477 03c0 56       		.byte	0x56
 8478 03c1 00000000 		.4byte	0
 8479 03c5 00000000 		.4byte	0
 8480              	.LLST20:
 8481 03c9 00000000 		.4byte	.LVL50
 8482 03cd 1C000000 		.4byte	.LVL55
 8483 03d1 0100     		.2byte	0x1
 8484 03d3 51       		.byte	0x51
 8485 03d4 1C000000 		.4byte	.LVL55
 8486 03d8 20000000 		.4byte	.LFE25
 8487 03dc 0300     		.2byte	0x3
 8488 03de 71       		.byte	0x71
 8489 03df 01       		.sleb128 1
 8490 03e0 9F       		.byte	0x9f
 8491 03e1 00000000 		.4byte	0
 8492 03e5 00000000 		.4byte	0
 8493              	.LLST21:
 8494 03e9 04000000 		.4byte	.LVL51
 8495 03ed 1E000000 		.4byte	.LVL56
 8496 03f1 0100     		.2byte	0x1
 8497 03f3 56       		.byte	0x56
 8498 03f4 1E000000 		.4byte	.LVL56
 8499 03f8 20000000 		.4byte	.LFE25
 8500 03fc 0800     		.2byte	0x8
 8501 03fe 71       		.byte	0x71
 8502 03ff 00       		.sleb128 0
 8503 0400 72       		.byte	0x72
 8504 0401 00       		.sleb128 0
 8505 0402 1C       		.byte	0x1c
 8506 0403 23       		.byte	0x23
 8507 0404 01       		.uleb128 0x1
 8508 0405 9F       		.byte	0x9f
 8509 0406 00000000 		.4byte	0
 8510 040a 00000000 		.4byte	0
 8511              	.LLST22:
 8512 040e 04000000 		.4byte	.LVL51
 8513 0412 08000000 		.4byte	.LVL52
 8514 0416 0200     		.2byte	0x2
 8515 0418 31       		.byte	0x31
 8516 0419 9F       		.byte	0x9f
 8517 041a 08000000 		.4byte	.LVL52
 8518 041e 14000000 		.4byte	.LVL53
 8519 0422 0100     		.2byte	0x1
ARM GAS  C:\Users\Phuong\AppData\Local\Temp\ccnzvfGe.s 			page 183


 8520 0424 53       		.byte	0x53
 8521 0425 16000000 		.4byte	.LVL54
 8522 0429 20000000 		.4byte	.LFE25
 8523 042d 0100     		.2byte	0x1
 8524 042f 53       		.byte	0x53
 8525 0430 00000000 		.4byte	0
 8526 0434 00000000 		.4byte	0
 8527              	.LLST23:
 8528 0438 00000000 		.4byte	.LVL57
 8529 043c 3E000000 		.4byte	.LVL69
 8530 0440 0100     		.2byte	0x1
 8531 0442 50       		.byte	0x50
 8532 0443 3E000000 		.4byte	.LVL69
 8533 0447 40000000 		.4byte	.LVL70
 8534 044b 0400     		.2byte	0x4
 8535 044d F3       		.byte	0xf3
 8536 044e 01       		.uleb128 0x1
 8537 044f 50       		.byte	0x50
 8538 0450 9F       		.byte	0x9f
 8539 0451 40000000 		.4byte	.LVL70
 8540 0455 42000000 		.4byte	.LVL71
 8541 0459 0100     		.2byte	0x1
 8542 045b 50       		.byte	0x50
 8543 045c 42000000 		.4byte	.LVL71
 8544 0460 44000000 		.4byte	.LVL72
 8545 0464 0400     		.2byte	0x4
 8546 0466 F3       		.byte	0xf3
 8547 0467 01       		.uleb128 0x1
 8548 0468 50       		.byte	0x50
 8549 0469 9F       		.byte	0x9f
 8550 046a 44000000 		.4byte	.LVL72
 8551 046e 46000000 		.4byte	.LVL73
 8552 0472 0100     		.2byte	0x1
 8553 0474 50       		.byte	0x50
 8554 0475 46000000 		.4byte	.LVL73
 8555 0479 48000000 		.4byte	.LVL74
 8556 047d 0400     		.2byte	0x4
 8557 047f F3       		.byte	0xf3
 8558 0480 01       		.uleb128 0x1
 8559 0481 50       		.byte	0x50
 8560 0482 9F       		.byte	0x9f
 8561 0483 48000000 		.4byte	.LVL74
 8562 0487 4A000000 		.4byte	.LVL75
 8563 048b 0100     		.2byte	0x1
 8564 048d 50       		.byte	0x50
 8565 048e 4A000000 		.4byte	.LVL75
 8566 0492 54000000 		.4byte	.LFE26
 8567 0496 0400     		.2byte	0x4
 8568 0498 F3       		.byte	0xf3
 8569 0499 01       		.uleb128 0x1
 8570 049a 50       		.byte	0x50
 8571 049b 9F       		.byte	0x9f
 8572 049c 00000000 		.4byte	0
 8573 04a0 00000000 		.4byte	0
 8574              	.LLST24:
 8575 04a4 00000000 		.4byte	.LVL57
 8576 04a8 16000000 		.4byte	.LVL60
ARM GAS  C:\Users\Phuong\AppData\Local\Temp\ccnzvfGe.s 			page 184


 8577 04ac 0100     		.2byte	0x1
 8578 04ae 51       		.byte	0x51
 8579 04af 16000000 		.4byte	.LVL60
 8580 04b3 40000000 		.4byte	.LVL70
 8581 04b7 0300     		.2byte	0x3
 8582 04b9 74       		.byte	0x74
 8583 04ba 01       		.sleb128 1
 8584 04bb 9F       		.byte	0x9f
 8585 04bc 40000000 		.4byte	.LVL70
 8586 04c0 48000000 		.4byte	.LVL74
 8587 04c4 0100     		.2byte	0x1
 8588 04c6 51       		.byte	0x51
 8589 04c7 48000000 		.4byte	.LVL74
 8590 04cb 4A000000 		.4byte	.LVL75
 8591 04cf 0300     		.2byte	0x3
 8592 04d1 74       		.byte	0x74
 8593 04d2 01       		.sleb128 1
 8594 04d3 9F       		.byte	0x9f
 8595 04d4 4A000000 		.4byte	.LVL75
 8596 04d8 54000000 		.4byte	.LFE26
 8597 04dc 0400     		.2byte	0x4
 8598 04de F3       		.byte	0xf3
 8599 04df 01       		.uleb128 0x1
 8600 04e0 51       		.byte	0x51
 8601 04e1 9F       		.byte	0x9f
 8602 04e2 00000000 		.4byte	0
 8603 04e6 00000000 		.4byte	0
 8604              	.LLST25:
 8605 04ea 00000000 		.4byte	.LVL57
 8606 04ee 20000000 		.4byte	.LVL64
 8607 04f2 0100     		.2byte	0x1
 8608 04f4 52       		.byte	0x52
 8609 04f5 20000000 		.4byte	.LVL64
 8610 04f9 40000000 		.4byte	.LVL70
 8611 04fd 0400     		.2byte	0x4
 8612 04ff F3       		.byte	0xf3
 8613 0500 01       		.uleb128 0x1
 8614 0501 52       		.byte	0x52
 8615 0502 9F       		.byte	0x9f
 8616 0503 40000000 		.4byte	.LVL70
 8617 0507 48000000 		.4byte	.LVL74
 8618 050b 0100     		.2byte	0x1
 8619 050d 52       		.byte	0x52
 8620 050e 48000000 		.4byte	.LVL74
 8621 0512 54000000 		.4byte	.LFE26
 8622 0516 0400     		.2byte	0x4
 8623 0518 F3       		.byte	0xf3
 8624 0519 01       		.uleb128 0x1
 8625 051a 52       		.byte	0x52
 8626 051b 9F       		.byte	0x9f
 8627 051c 00000000 		.4byte	0
 8628 0520 00000000 		.4byte	0
 8629              	.LLST26:
 8630 0524 1E000000 		.4byte	.LVL63
 8631 0528 22000000 		.4byte	.LVL65
 8632 052c 0200     		.2byte	0x2
 8633 052e 30       		.byte	0x30
ARM GAS  C:\Users\Phuong\AppData\Local\Temp\ccnzvfGe.s 			page 185


 8634 052f 9F       		.byte	0x9f
 8635 0530 22000000 		.4byte	.LVL65
 8636 0534 40000000 		.4byte	.LVL70
 8637 0538 0100     		.2byte	0x1
 8638 053a 52       		.byte	0x52
 8639 053b 48000000 		.4byte	.LVL74
 8640 053f 4A000000 		.4byte	.LVL75
 8641 0543 0100     		.2byte	0x1
 8642 0545 52       		.byte	0x52
 8643 0546 00000000 		.4byte	0
 8644 054a 00000000 		.4byte	0
 8645              	.LLST27:
 8646 054e 1E000000 		.4byte	.LVL63
 8647 0552 40000000 		.4byte	.LVL70
 8648 0556 0100     		.2byte	0x1
 8649 0558 55       		.byte	0x55
 8650 0559 48000000 		.4byte	.LVL74
 8651 055d 4A000000 		.4byte	.LVL75
 8652 0561 0100     		.2byte	0x1
 8653 0563 55       		.byte	0x55
 8654 0564 00000000 		.4byte	0
 8655 0568 00000000 		.4byte	0
 8656              	.LLST28:
 8657 056c 0E000000 		.4byte	.LVL59
 8658 0570 1C000000 		.4byte	.LVL62
 8659 0574 0100     		.2byte	0x1
 8660 0576 56       		.byte	0x56
 8661 0577 00000000 		.4byte	0
 8662 057b 00000000 		.4byte	0
 8663              	.LLST29:
 8664 057f 02000000 		.4byte	.LVL58
 8665 0583 18000000 		.4byte	.LVL61
 8666 0587 0200     		.2byte	0x2
 8667 0589 30       		.byte	0x30
 8668 058a 9F       		.byte	0x9f
 8669 058b 18000000 		.4byte	.LVL61
 8670 058f 1E000000 		.4byte	.LVL63
 8671 0593 0100     		.2byte	0x1
 8672 0595 53       		.byte	0x53
 8673 0596 1E000000 		.4byte	.LVL63
 8674 059a 30000000 		.4byte	.LVL66
 8675 059e 0100     		.2byte	0x1
 8676 05a0 51       		.byte	0x51
 8677 05a1 32000000 		.4byte	.LVL67
 8678 05a5 40000000 		.4byte	.LVL70
 8679 05a9 0100     		.2byte	0x1
 8680 05ab 51       		.byte	0x51
 8681 05ac 40000000 		.4byte	.LVL70
 8682 05b0 48000000 		.4byte	.LVL74
 8683 05b4 0200     		.2byte	0x2
 8684 05b6 30       		.byte	0x30
 8685 05b7 9F       		.byte	0x9f
 8686 05b8 48000000 		.4byte	.LVL74
 8687 05bc 4A000000 		.4byte	.LVL75
 8688 05c0 0100     		.2byte	0x1
 8689 05c2 51       		.byte	0x51
 8690 05c3 00000000 		.4byte	0
ARM GAS  C:\Users\Phuong\AppData\Local\Temp\ccnzvfGe.s 			page 186


 8691 05c7 00000000 		.4byte	0
 8692              	.LLST30:
 8693 05cb 00000000 		.4byte	.LVL76
 8694 05cf 04000000 		.4byte	.LVL78
 8695 05d3 0100     		.2byte	0x1
 8696 05d5 52       		.byte	0x52
 8697 05d6 04000000 		.4byte	.LVL78
 8698 05da 12000000 		.4byte	.LFE27
 8699 05de 0400     		.2byte	0x4
 8700 05e0 F3       		.byte	0xf3
 8701 05e1 01       		.uleb128 0x1
 8702 05e2 52       		.byte	0x52
 8703 05e3 9F       		.byte	0x9f
 8704 05e4 00000000 		.4byte	0
 8705 05e8 00000000 		.4byte	0
 8706              	.LLST31:
 8707 05ec 00000000 		.4byte	.LVL80
 8708 05f0 32000000 		.4byte	.LVL89
 8709 05f4 0100     		.2byte	0x1
 8710 05f6 50       		.byte	0x50
 8711 05f7 32000000 		.4byte	.LVL89
 8712 05fb 34000000 		.4byte	.LVL90
 8713 05ff 0400     		.2byte	0x4
 8714 0601 F3       		.byte	0xf3
 8715 0602 01       		.uleb128 0x1
 8716 0603 50       		.byte	0x50
 8717 0604 9F       		.byte	0x9f
 8718 0605 34000000 		.4byte	.LVL90
 8719 0609 36000000 		.4byte	.LVL91
 8720 060d 0100     		.2byte	0x1
 8721 060f 50       		.byte	0x50
 8722 0610 36000000 		.4byte	.LVL91
 8723 0614 38000000 		.4byte	.LVL92
 8724 0618 0400     		.2byte	0x4
 8725 061a F3       		.byte	0xf3
 8726 061b 01       		.uleb128 0x1
 8727 061c 50       		.byte	0x50
 8728 061d 9F       		.byte	0x9f
 8729 061e 38000000 		.4byte	.LVL92
 8730 0622 3A000000 		.4byte	.LVL93
 8731 0626 0100     		.2byte	0x1
 8732 0628 50       		.byte	0x50
 8733 0629 3A000000 		.4byte	.LVL93
 8734 062d 40000000 		.4byte	.LFE28
 8735 0631 0400     		.2byte	0x4
 8736 0633 F3       		.byte	0xf3
 8737 0634 01       		.uleb128 0x1
 8738 0635 50       		.byte	0x50
 8739 0636 9F       		.byte	0x9f
 8740 0637 00000000 		.4byte	0
 8741 063b 00000000 		.4byte	0
 8742              	.LLST32:
 8743 063f 00000000 		.4byte	.LVL80
 8744 0643 10000000 		.4byte	.LVL83
 8745 0647 0100     		.2byte	0x1
 8746 0649 51       		.byte	0x51
 8747 064a 10000000 		.4byte	.LVL83
ARM GAS  C:\Users\Phuong\AppData\Local\Temp\ccnzvfGe.s 			page 187


 8748 064e 34000000 		.4byte	.LVL90
 8749 0652 0400     		.2byte	0x4
 8750 0654 F3       		.byte	0xf3
 8751 0655 01       		.uleb128 0x1
 8752 0656 51       		.byte	0x51
 8753 0657 9F       		.byte	0x9f
 8754 0658 34000000 		.4byte	.LVL90
 8755 065c 3A000000 		.4byte	.LVL93
 8756 0660 0100     		.2byte	0x1
 8757 0662 51       		.byte	0x51
 8758 0663 3A000000 		.4byte	.LVL93
 8759 0667 40000000 		.4byte	.LFE28
 8760 066b 0400     		.2byte	0x4
 8761 066d F3       		.byte	0xf3
 8762 066e 01       		.uleb128 0x1
 8763 066f 51       		.byte	0x51
 8764 0670 9F       		.byte	0x9f
 8765 0671 00000000 		.4byte	0
 8766 0675 00000000 		.4byte	0
 8767              	.LLST33:
 8768 0679 0E000000 		.4byte	.LVL82
 8769 067d 22000000 		.4byte	.LVL86
 8770 0681 0100     		.2byte	0x1
 8771 0683 51       		.byte	0x51
 8772 0684 22000000 		.4byte	.LVL86
 8773 0688 28000000 		.4byte	.LVL87
 8774 068c 0300     		.2byte	0x3
 8775 068e 75       		.byte	0x75
 8776 068f 01       		.sleb128 1
 8777 0690 9F       		.byte	0x9f
 8778 0691 28000000 		.4byte	.LVL87
 8779 0695 2C000000 		.4byte	.LVL88
 8780 0699 0100     		.2byte	0x1
 8781 069b 55       		.byte	0x55
 8782 069c 2C000000 		.4byte	.LVL88
 8783 06a0 34000000 		.4byte	.LVL90
 8784 06a4 0100     		.2byte	0x1
 8785 06a6 51       		.byte	0x51
 8786 06a7 00000000 		.4byte	0
 8787 06ab 00000000 		.4byte	0
 8788              	.LLST34:
 8789 06af 02000000 		.4byte	.LVL81
 8790 06b3 10000000 		.4byte	.LVL83
 8791 06b7 0200     		.2byte	0x2
 8792 06b9 30       		.byte	0x30
 8793 06ba 9F       		.byte	0x9f
 8794 06bb 10000000 		.4byte	.LVL83
 8795 06bf 1A000000 		.4byte	.LVL84
 8796 06c3 0100     		.2byte	0x1
 8797 06c5 53       		.byte	0x53
 8798 06c6 1A000000 		.4byte	.LVL84
 8799 06ca 2C000000 		.4byte	.LVL88
 8800 06ce 0100     		.2byte	0x1
 8801 06d0 54       		.byte	0x54
 8802 06d1 2C000000 		.4byte	.LVL88
 8803 06d5 34000000 		.4byte	.LVL90
 8804 06d9 0100     		.2byte	0x1
ARM GAS  C:\Users\Phuong\AppData\Local\Temp\ccnzvfGe.s 			page 188


 8805 06db 53       		.byte	0x53
 8806 06dc 34000000 		.4byte	.LVL90
 8807 06e0 3A000000 		.4byte	.LVL93
 8808 06e4 0200     		.2byte	0x2
 8809 06e6 30       		.byte	0x30
 8810 06e7 9F       		.byte	0x9f
 8811 06e8 00000000 		.4byte	0
 8812 06ec 00000000 		.4byte	0
 8813              	.LLST35:
 8814 06f0 10000000 		.4byte	.LVL83
 8815 06f4 1C000000 		.4byte	.LVL85
 8816 06f8 0100     		.2byte	0x1
 8817 06fa 53       		.byte	0x53
 8818 06fb 00000000 		.4byte	0
 8819 06ff 00000000 		.4byte	0
 8820              	.LLST36:
 8821 0703 00000000 		.4byte	.LVL94
 8822 0707 0C000000 		.4byte	.LVL95
 8823 070b 0100     		.2byte	0x1
 8824 070d 50       		.byte	0x50
 8825 070e 0C000000 		.4byte	.LVL95
 8826 0712 0E000000 		.4byte	.LVL96
 8827 0716 0400     		.2byte	0x4
 8828 0718 F3       		.byte	0xf3
 8829 0719 01       		.uleb128 0x1
 8830 071a 50       		.byte	0x50
 8831 071b 9F       		.byte	0x9f
 8832 071c 0E000000 		.4byte	.LVL96
 8833 0720 10000000 		.4byte	.LVL97
 8834 0724 0100     		.2byte	0x1
 8835 0726 50       		.byte	0x50
 8836 0727 10000000 		.4byte	.LVL97
 8837 072b 12000000 		.4byte	.LVL98
 8838 072f 0400     		.2byte	0x4
 8839 0731 F3       		.byte	0xf3
 8840 0732 01       		.uleb128 0x1
 8841 0733 50       		.byte	0x50
 8842 0734 9F       		.byte	0x9f
 8843 0735 12000000 		.4byte	.LVL98
 8844 0739 14000000 		.4byte	.LVL99
 8845 073d 0100     		.2byte	0x1
 8846 073f 50       		.byte	0x50
 8847 0740 14000000 		.4byte	.LVL99
 8848 0744 1C000000 		.4byte	.LFE29
 8849 0748 0400     		.2byte	0x4
 8850 074a F3       		.byte	0xf3
 8851 074b 01       		.uleb128 0x1
 8852 074c 50       		.byte	0x50
 8853 074d 9F       		.byte	0x9f
 8854 074e 00000000 		.4byte	0
 8855 0752 00000000 		.4byte	0
 8856              	.LLST37:
 8857 0756 0A000000 		.4byte	.LVL100
 8858 075a 12000000 		.4byte	.LVL103
 8859 075e 0100     		.2byte	0x1
 8860 0760 52       		.byte	0x52
 8861 0761 16000000 		.4byte	.LVL104
ARM GAS  C:\Users\Phuong\AppData\Local\Temp\ccnzvfGe.s 			page 189


 8862 0765 1E000000 		.4byte	.LVL105
 8863 0769 0100     		.2byte	0x1
 8864 076b 52       		.byte	0x52
 8865 076c 00000000 		.4byte	0
 8866 0770 00000000 		.4byte	0
 8867              	.LLST38:
 8868 0774 0A000000 		.4byte	.LVL100
 8869 0778 10000000 		.4byte	.LVL102
 8870 077c 0300     		.2byte	0x3
 8871 077e 73       		.byte	0x73
 8872 077f 04       		.sleb128 4
 8873 0780 9F       		.byte	0x9f
 8874 0781 10000000 		.4byte	.LVL102
 8875 0785 12000000 		.4byte	.LVL103
 8876 0789 0100     		.2byte	0x1
 8877 078b 53       		.byte	0x53
 8878 078c 16000000 		.4byte	.LVL104
 8879 0790 24000000 		.4byte	.LVL106
 8880 0794 0100     		.2byte	0x1
 8881 0796 53       		.byte	0x53
 8882 0797 00000000 		.4byte	0
 8883 079b 00000000 		.4byte	0
 8884              	.LLST39:
 8885 079f 00000000 		.4byte	.LVL107
 8886 07a3 14000000 		.4byte	.LVL110
 8887 07a7 0100     		.2byte	0x1
 8888 07a9 50       		.byte	0x50
 8889 07aa 14000000 		.4byte	.LVL110
 8890 07ae 1C000000 		.4byte	.LFE10
 8891 07b2 0400     		.2byte	0x4
 8892 07b4 F3       		.byte	0xf3
 8893 07b5 01       		.uleb128 0x1
 8894 07b6 50       		.byte	0x50
 8895 07b7 9F       		.byte	0x9f
 8896 07b8 00000000 		.4byte	0
 8897 07bc 00000000 		.4byte	0
 8898              	.LLST40:
 8899 07c0 04000000 		.4byte	.LVL108
 8900 07c4 1C000000 		.4byte	.LFE10
 8901 07c8 0100     		.2byte	0x1
 8902 07ca 53       		.byte	0x53
 8903 07cb 00000000 		.4byte	0
 8904 07cf 00000000 		.4byte	0
 8905              	.LLST41:
 8906 07d3 00000000 		.4byte	.LVL111
 8907 07d7 0A000000 		.4byte	.LVL112
 8908 07db 0100     		.2byte	0x1
 8909 07dd 50       		.byte	0x50
 8910 07de 0A000000 		.4byte	.LVL112
 8911 07e2 20000000 		.4byte	.LVL115
 8912 07e6 0100     		.2byte	0x1
 8913 07e8 56       		.byte	0x56
 8914 07e9 20000000 		.4byte	.LVL115
 8915 07ed 22000000 		.4byte	.LVL116
 8916 07f1 0100     		.2byte	0x1
 8917 07f3 50       		.byte	0x50
 8918 07f4 22000000 		.4byte	.LVL116
ARM GAS  C:\Users\Phuong\AppData\Local\Temp\ccnzvfGe.s 			page 190


 8919 07f8 24000000 		.4byte	.LVL117
 8920 07fc 0100     		.2byte	0x1
 8921 07fe 56       		.byte	0x56
 8922 07ff 24000000 		.4byte	.LVL117
 8923 0803 2C000000 		.4byte	.LFE11
 8924 0807 0400     		.2byte	0x4
 8925 0809 F3       		.byte	0xf3
 8926 080a 01       		.uleb128 0x1
 8927 080b 50       		.byte	0x50
 8928 080c 9F       		.byte	0x9f
 8929 080d 00000000 		.4byte	0
 8930 0811 00000000 		.4byte	0
 8931              	.LLST42:
 8932 0815 0A000000 		.4byte	.LVL112
 8933 0819 20000000 		.4byte	.LVL115
 8934 081d 0100     		.2byte	0x1
 8935 081f 55       		.byte	0x55
 8936 0820 00000000 		.4byte	0
 8937 0824 00000000 		.4byte	0
 8938              	.LLST43:
 8939 0828 00000000 		.4byte	.LVL118
 8940 082c 24000000 		.4byte	.LVL122
 8941 0830 0100     		.2byte	0x1
 8942 0832 50       		.byte	0x50
 8943 0833 24000000 		.4byte	.LVL122
 8944 0837 2C000000 		.4byte	.LFE12
 8945 083b 0400     		.2byte	0x4
 8946 083d F3       		.byte	0xf3
 8947 083e 01       		.uleb128 0x1
 8948 083f 50       		.byte	0x50
 8949 0840 9F       		.byte	0x9f
 8950 0841 00000000 		.4byte	0
 8951 0845 00000000 		.4byte	0
 8952              	.LLST44:
 8953 0849 06000000 		.4byte	.LVL120
 8954 084d 24000000 		.4byte	.LVL123
 8955 0851 0100     		.2byte	0x1
 8956 0853 54       		.byte	0x54
 8957 0854 00000000 		.4byte	0
 8958 0858 00000000 		.4byte	0
 8959              	.LLST45:
 8960 085c 00000000 		.4byte	.LVL124
 8961 0860 09000000 		.4byte	.LVL125-1
 8962 0864 0100     		.2byte	0x1
 8963 0866 50       		.byte	0x50
 8964 0867 09000000 		.4byte	.LVL125-1
 8965 086b 0C000000 		.4byte	.LFE13
 8966 086f 0400     		.2byte	0x4
 8967 0871 F3       		.byte	0xf3
 8968 0872 01       		.uleb128 0x1
 8969 0873 50       		.byte	0x50
 8970 0874 9F       		.byte	0x9f
 8971 0875 00000000 		.4byte	0
 8972 0879 00000000 		.4byte	0
 8973              	.LLST46:
 8974 087d 00000000 		.4byte	.LVL126
 8975 0881 08000000 		.4byte	.LVL127
ARM GAS  C:\Users\Phuong\AppData\Local\Temp\ccnzvfGe.s 			page 191


 8976 0885 0100     		.2byte	0x1
 8977 0887 50       		.byte	0x50
 8978 0888 08000000 		.4byte	.LVL127
 8979 088c 1C000000 		.4byte	.LVL130
 8980 0890 0100     		.2byte	0x1
 8981 0892 54       		.byte	0x54
 8982 0893 1C000000 		.4byte	.LVL130
 8983 0897 1E000000 		.4byte	.LFE14
 8984 089b 0400     		.2byte	0x4
 8985 089d F3       		.byte	0xf3
 8986 089e 01       		.uleb128 0x1
 8987 089f 50       		.byte	0x50
 8988 08a0 9F       		.byte	0x9f
 8989 08a1 00000000 		.4byte	0
 8990 08a5 00000000 		.4byte	0
 8991              	.LLST47:
 8992 08a9 00000000 		.4byte	.LVL131
 8993 08ad 34000000 		.4byte	.LVL133
 8994 08b1 0100     		.2byte	0x1
 8995 08b3 50       		.byte	0x50
 8996 08b4 34000000 		.4byte	.LVL133
 8997 08b8 38000000 		.4byte	.LVL135
 8998 08bc 0400     		.2byte	0x4
 8999 08be F3       		.byte	0xf3
 9000 08bf 01       		.uleb128 0x1
 9001 08c0 50       		.byte	0x50
 9002 08c1 9F       		.byte	0x9f
 9003 08c2 38000000 		.4byte	.LVL135
 9004 08c6 42000000 		.4byte	.LVL137
 9005 08ca 0100     		.2byte	0x1
 9006 08cc 50       		.byte	0x50
 9007 08cd 42000000 		.4byte	.LVL137
 9008 08d1 46000000 		.4byte	.LVL139
 9009 08d5 0400     		.2byte	0x4
 9010 08d7 F3       		.byte	0xf3
 9011 08d8 01       		.uleb128 0x1
 9012 08d9 50       		.byte	0x50
 9013 08da 9F       		.byte	0x9f
 9014 08db 46000000 		.4byte	.LVL139
 9015 08df 48000000 		.4byte	.LVL140
 9016 08e3 0100     		.2byte	0x1
 9017 08e5 50       		.byte	0x50
 9018 08e6 48000000 		.4byte	.LVL140
 9019 08ea 4A000000 		.4byte	.LVL141
 9020 08ee 0400     		.2byte	0x4
 9021 08f0 F3       		.byte	0xf3
 9022 08f1 01       		.uleb128 0x1
 9023 08f2 50       		.byte	0x50
 9024 08f3 9F       		.byte	0x9f
 9025 08f4 4A000000 		.4byte	.LVL141
 9026 08f8 4C000000 		.4byte	.LVL142
 9027 08fc 0100     		.2byte	0x1
 9028 08fe 50       		.byte	0x50
 9029 08ff 4C000000 		.4byte	.LVL142
 9030 0903 4E000000 		.4byte	.LVL143
 9031 0907 0400     		.2byte	0x4
 9032 0909 F3       		.byte	0xf3
ARM GAS  C:\Users\Phuong\AppData\Local\Temp\ccnzvfGe.s 			page 192


 9033 090a 01       		.uleb128 0x1
 9034 090b 50       		.byte	0x50
 9035 090c 9F       		.byte	0x9f
 9036 090d 4E000000 		.4byte	.LVL143
 9037 0911 50000000 		.4byte	.LVL144
 9038 0915 0100     		.2byte	0x1
 9039 0917 50       		.byte	0x50
 9040 0918 50000000 		.4byte	.LVL144
 9041 091c 52000000 		.4byte	.LVL145
 9042 0920 0400     		.2byte	0x4
 9043 0922 F3       		.byte	0xf3
 9044 0923 01       		.uleb128 0x1
 9045 0924 50       		.byte	0x50
 9046 0925 9F       		.byte	0x9f
 9047 0926 52000000 		.4byte	.LVL145
 9048 092a 54000000 		.4byte	.LVL146
 9049 092e 0100     		.2byte	0x1
 9050 0930 50       		.byte	0x50
 9051 0931 54000000 		.4byte	.LVL146
 9052 0935 5C000000 		.4byte	.LFE16
 9053 0939 0400     		.2byte	0x4
 9054 093b F3       		.byte	0xf3
 9055 093c 01       		.uleb128 0x1
 9056 093d 50       		.byte	0x50
 9057 093e 9F       		.byte	0x9f
 9058 093f 00000000 		.4byte	0
 9059 0943 00000000 		.4byte	0
 9060              	.LLST48:
 9061 0947 00000000 		.4byte	.LVL131
 9062 094b 35000000 		.4byte	.LVL134-1
 9063 094f 0100     		.2byte	0x1
 9064 0951 51       		.byte	0x51
 9065 0952 35000000 		.4byte	.LVL134-1
 9066 0956 38000000 		.4byte	.LVL135
 9067 095a 0400     		.2byte	0x4
 9068 095c F3       		.byte	0xf3
 9069 095d 01       		.uleb128 0x1
 9070 095e 51       		.byte	0x51
 9071 095f 9F       		.byte	0x9f
 9072 0960 38000000 		.4byte	.LVL135
 9073 0964 43000000 		.4byte	.LVL138-1
 9074 0968 0100     		.2byte	0x1
 9075 096a 51       		.byte	0x51
 9076 096b 43000000 		.4byte	.LVL138-1
 9077 096f 46000000 		.4byte	.LVL139
 9078 0973 0400     		.2byte	0x4
 9079 0975 F3       		.byte	0xf3
 9080 0976 01       		.uleb128 0x1
 9081 0977 51       		.byte	0x51
 9082 0978 9F       		.byte	0x9f
 9083 0979 46000000 		.4byte	.LVL139
 9084 097d 54000000 		.4byte	.LVL146
 9085 0981 0100     		.2byte	0x1
 9086 0983 51       		.byte	0x51
 9087 0984 54000000 		.4byte	.LVL146
 9088 0988 5C000000 		.4byte	.LFE16
 9089 098c 0400     		.2byte	0x4
ARM GAS  C:\Users\Phuong\AppData\Local\Temp\ccnzvfGe.s 			page 193


 9090 098e F3       		.byte	0xf3
 9091 098f 01       		.uleb128 0x1
 9092 0990 51       		.byte	0x51
 9093 0991 9F       		.byte	0x9f
 9094 0992 00000000 		.4byte	0
 9095 0996 00000000 		.4byte	0
 9096              	.LLST49:
 9097 099a 00000000 		.4byte	.LVL131
 9098 099e 35000000 		.4byte	.LVL134-1
 9099 09a2 0100     		.2byte	0x1
 9100 09a4 52       		.byte	0x52
 9101 09a5 35000000 		.4byte	.LVL134-1
 9102 09a9 38000000 		.4byte	.LVL135
 9103 09ad 0400     		.2byte	0x4
 9104 09af F3       		.byte	0xf3
 9105 09b0 01       		.uleb128 0x1
 9106 09b1 52       		.byte	0x52
 9107 09b2 9F       		.byte	0x9f
 9108 09b3 38000000 		.4byte	.LVL135
 9109 09b7 43000000 		.4byte	.LVL138-1
 9110 09bb 0100     		.2byte	0x1
 9111 09bd 52       		.byte	0x52
 9112 09be 43000000 		.4byte	.LVL138-1
 9113 09c2 46000000 		.4byte	.LVL139
 9114 09c6 0400     		.2byte	0x4
 9115 09c8 F3       		.byte	0xf3
 9116 09c9 01       		.uleb128 0x1
 9117 09ca 52       		.byte	0x52
 9118 09cb 9F       		.byte	0x9f
 9119 09cc 46000000 		.4byte	.LVL139
 9120 09d0 54000000 		.4byte	.LVL146
 9121 09d4 0100     		.2byte	0x1
 9122 09d6 52       		.byte	0x52
 9123 09d7 54000000 		.4byte	.LVL146
 9124 09db 5C000000 		.4byte	.LFE16
 9125 09df 0400     		.2byte	0x4
 9126 09e1 F3       		.byte	0xf3
 9127 09e2 01       		.uleb128 0x1
 9128 09e3 52       		.byte	0x52
 9129 09e4 9F       		.byte	0x9f
 9130 09e5 00000000 		.4byte	0
 9131 09e9 00000000 		.4byte	0
 9132              	.LLST50:
 9133 09ed 00000000 		.4byte	.LVL131
 9134 09f1 30000000 		.4byte	.LVL132
 9135 09f5 0100     		.2byte	0x1
 9136 09f7 53       		.byte	0x53
 9137 09f8 30000000 		.4byte	.LVL132
 9138 09fc 34000000 		.4byte	.LVL133
 9139 0a00 0200     		.2byte	0x2
 9140 0a02 70       		.byte	0x70
 9141 0a03 08       		.sleb128 8
 9142 0a04 34000000 		.4byte	.LVL133
 9143 0a08 35000000 		.4byte	.LVL134-1
 9144 0a0c 0500     		.2byte	0x5
 9145 0a0e F3       		.byte	0xf3
 9146 0a0f 01       		.uleb128 0x1
ARM GAS  C:\Users\Phuong\AppData\Local\Temp\ccnzvfGe.s 			page 194


 9147 0a10 50       		.byte	0x50
 9148 0a11 23       		.byte	0x23
 9149 0a12 08       		.uleb128 0x8
 9150 0a13 35000000 		.4byte	.LVL134-1
 9151 0a17 38000000 		.4byte	.LVL135
 9152 0a1b 0400     		.2byte	0x4
 9153 0a1d F3       		.byte	0xf3
 9154 0a1e 01       		.uleb128 0x1
 9155 0a1f 53       		.byte	0x53
 9156 0a20 9F       		.byte	0x9f
 9157 0a21 38000000 		.4byte	.LVL135
 9158 0a25 3E000000 		.4byte	.LVL136
 9159 0a29 0100     		.2byte	0x1
 9160 0a2b 53       		.byte	0x53
 9161 0a2c 3E000000 		.4byte	.LVL136
 9162 0a30 42000000 		.4byte	.LVL137
 9163 0a34 0200     		.2byte	0x2
 9164 0a36 70       		.byte	0x70
 9165 0a37 08       		.sleb128 8
 9166 0a38 42000000 		.4byte	.LVL137
 9167 0a3c 43000000 		.4byte	.LVL138-1
 9168 0a40 0500     		.2byte	0x5
 9169 0a42 F3       		.byte	0xf3
 9170 0a43 01       		.uleb128 0x1
 9171 0a44 50       		.byte	0x50
 9172 0a45 23       		.byte	0x23
 9173 0a46 08       		.uleb128 0x8
 9174 0a47 43000000 		.4byte	.LVL138-1
 9175 0a4b 46000000 		.4byte	.LVL139
 9176 0a4f 0400     		.2byte	0x4
 9177 0a51 F3       		.byte	0xf3
 9178 0a52 01       		.uleb128 0x1
 9179 0a53 53       		.byte	0x53
 9180 0a54 9F       		.byte	0x9f
 9181 0a55 46000000 		.4byte	.LVL139
 9182 0a59 54000000 		.4byte	.LVL146
 9183 0a5d 0100     		.2byte	0x1
 9184 0a5f 53       		.byte	0x53
 9185 0a60 54000000 		.4byte	.LVL146
 9186 0a64 5C000000 		.4byte	.LFE16
 9187 0a68 0400     		.2byte	0x4
 9188 0a6a F3       		.byte	0xf3
 9189 0a6b 01       		.uleb128 0x1
 9190 0a6c 53       		.byte	0x53
 9191 0a6d 9F       		.byte	0x9f
 9192 0a6e 00000000 		.4byte	0
 9193 0a72 00000000 		.4byte	0
 9194              	.LLST51:
 9195 0a76 00000000 		.4byte	.LVL147
 9196 0a7a 44000000 		.4byte	.LVL152
 9197 0a7e 0100     		.2byte	0x1
 9198 0a80 50       		.byte	0x50
 9199 0a81 44000000 		.4byte	.LVL152
 9200 0a85 62000000 		.4byte	.LVL155
 9201 0a89 0100     		.2byte	0x1
 9202 0a8b 55       		.byte	0x55
 9203 0a8c 62000000 		.4byte	.LVL155
ARM GAS  C:\Users\Phuong\AppData\Local\Temp\ccnzvfGe.s 			page 195


 9204 0a90 64000000 		.4byte	.LVL156
 9205 0a94 0100     		.2byte	0x1
 9206 0a96 50       		.byte	0x50
 9207 0a97 64000000 		.4byte	.LVL156
 9208 0a9b 66000000 		.4byte	.LVL157
 9209 0a9f 0100     		.2byte	0x1
 9210 0aa1 55       		.byte	0x55
 9211 0aa2 66000000 		.4byte	.LVL157
 9212 0aa6 68000000 		.4byte	.LVL158
 9213 0aaa 0100     		.2byte	0x1
 9214 0aac 50       		.byte	0x50
 9215 0aad 68000000 		.4byte	.LVL158
 9216 0ab1 6A000000 		.4byte	.LVL159
 9217 0ab5 0100     		.2byte	0x1
 9218 0ab7 55       		.byte	0x55
 9219 0ab8 6A000000 		.4byte	.LVL159
 9220 0abc 6C000000 		.4byte	.LVL160
 9221 0ac0 0100     		.2byte	0x1
 9222 0ac2 50       		.byte	0x50
 9223 0ac3 6C000000 		.4byte	.LVL160
 9224 0ac7 6E000000 		.4byte	.LVL161
 9225 0acb 0100     		.2byte	0x1
 9226 0acd 55       		.byte	0x55
 9227 0ace 6E000000 		.4byte	.LVL161
 9228 0ad2 70000000 		.4byte	.LVL162
 9229 0ad6 0100     		.2byte	0x1
 9230 0ad8 50       		.byte	0x50
 9231 0ad9 70000000 		.4byte	.LVL162
 9232 0add 72000000 		.4byte	.LVL163
 9233 0ae1 0100     		.2byte	0x1
 9234 0ae3 55       		.byte	0x55
 9235 0ae4 72000000 		.4byte	.LVL163
 9236 0ae8 74000000 		.4byte	.LVL164
 9237 0aec 0100     		.2byte	0x1
 9238 0aee 50       		.byte	0x50
 9239 0aef 74000000 		.4byte	.LVL164
 9240 0af3 7C000000 		.4byte	.LVL167
 9241 0af7 0100     		.2byte	0x1
 9242 0af9 55       		.byte	0x55
 9243 0afa 7C000000 		.4byte	.LVL167
 9244 0afe 88000000 		.4byte	.LFE17
 9245 0b02 0400     		.2byte	0x4
 9246 0b04 F3       		.byte	0xf3
 9247 0b05 01       		.uleb128 0x1
 9248 0b06 50       		.byte	0x50
 9249 0b07 9F       		.byte	0x9f
 9250 0b08 00000000 		.4byte	0
 9251 0b0c 00000000 		.4byte	0
 9252              	.LLST52:
 9253 0b10 00000000 		.4byte	.LVL147
 9254 0b14 42000000 		.4byte	.LVL151
 9255 0b18 0100     		.2byte	0x1
 9256 0b1a 51       		.byte	0x51
 9257 0b1b 42000000 		.4byte	.LVL151
 9258 0b1f 62000000 		.4byte	.LVL155
 9259 0b23 0100     		.2byte	0x1
 9260 0b25 56       		.byte	0x56
ARM GAS  C:\Users\Phuong\AppData\Local\Temp\ccnzvfGe.s 			page 196


 9261 0b26 62000000 		.4byte	.LVL155
 9262 0b2a 76000000 		.4byte	.LVL165
 9263 0b2e 0100     		.2byte	0x1
 9264 0b30 51       		.byte	0x51
 9265 0b31 76000000 		.4byte	.LVL165
 9266 0b35 7C000000 		.4byte	.LVL168
 9267 0b39 0100     		.2byte	0x1
 9268 0b3b 56       		.byte	0x56
 9269 0b3c 7C000000 		.4byte	.LVL168
 9270 0b40 88000000 		.4byte	.LFE17
 9271 0b44 0400     		.2byte	0x4
 9272 0b46 F3       		.byte	0xf3
 9273 0b47 01       		.uleb128 0x1
 9274 0b48 51       		.byte	0x51
 9275 0b49 9F       		.byte	0x9f
 9276 0b4a 00000000 		.4byte	0
 9277 0b4e 00000000 		.4byte	0
 9278              	.LLST53:
 9279 0b52 00000000 		.4byte	.LVL147
 9280 0b56 24000000 		.4byte	.LVL148
 9281 0b5a 0100     		.2byte	0x1
 9282 0b5c 52       		.byte	0x52
 9283 0b5d 24000000 		.4byte	.LVL148
 9284 0b61 38000000 		.4byte	.LVL150
 9285 0b65 0100     		.2byte	0x1
 9286 0b67 54       		.byte	0x54
 9287 0b68 38000000 		.4byte	.LVL150
 9288 0b6c 62000000 		.4byte	.LVL155
 9289 0b70 0400     		.2byte	0x4
 9290 0b72 F3       		.byte	0xf3
 9291 0b73 01       		.uleb128 0x1
 9292 0b74 52       		.byte	0x52
 9293 0b75 9F       		.byte	0x9f
 9294 0b76 62000000 		.4byte	.LVL155
 9295 0b7a 6E000000 		.4byte	.LVL161
 9296 0b7e 0100     		.2byte	0x1
 9297 0b80 52       		.byte	0x52
 9298 0b81 6E000000 		.4byte	.LVL161
 9299 0b85 76000000 		.4byte	.LVL165
 9300 0b89 0100     		.2byte	0x1
 9301 0b8b 54       		.byte	0x54
 9302 0b8c 76000000 		.4byte	.LVL165
 9303 0b90 88000000 		.4byte	.LFE17
 9304 0b94 0400     		.2byte	0x4
 9305 0b96 F3       		.byte	0xf3
 9306 0b97 01       		.uleb128 0x1
 9307 0b98 52       		.byte	0x52
 9308 0b99 9F       		.byte	0x9f
 9309 0b9a 00000000 		.4byte	0
 9310 0b9e 00000000 		.4byte	0
 9311              	.LLST54:
 9312 0ba2 32000000 		.4byte	.LVL149
 9313 0ba6 38000000 		.4byte	.LVL150
 9314 0baa 0100     		.2byte	0x1
 9315 0bac 52       		.byte	0x52
 9316 0bad 38000000 		.4byte	.LVL150
 9317 0bb1 62000000 		.4byte	.LVL155
ARM GAS  C:\Users\Phuong\AppData\Local\Temp\ccnzvfGe.s 			page 197


 9318 0bb5 0100     		.2byte	0x1
 9319 0bb7 54       		.byte	0x54
 9320 0bb8 72000000 		.4byte	.LVL163
 9321 0bbc 76000000 		.4byte	.LVL165
 9322 0bc0 0100     		.2byte	0x1
 9323 0bc2 52       		.byte	0x52
 9324 0bc3 76000000 		.4byte	.LVL165
 9325 0bc7 7C000000 		.4byte	.LVL166
 9326 0bcb 0100     		.2byte	0x1
 9327 0bcd 54       		.byte	0x54
 9328 0bce 00000000 		.4byte	0
 9329 0bd2 00000000 		.4byte	0
 9330              	.LLST55:
 9331 0bd6 00000000 		.4byte	.LVL169
 9332 0bda 10000000 		.4byte	.LVL170
 9333 0bde 0100     		.2byte	0x1
 9334 0be0 50       		.byte	0x50
 9335 0be1 10000000 		.4byte	.LVL170
 9336 0be5 12000000 		.4byte	.LVL171
 9337 0be9 0400     		.2byte	0x4
 9338 0beb F3       		.byte	0xf3
 9339 0bec 01       		.uleb128 0x1
 9340 0bed 50       		.byte	0x50
 9341 0bee 9F       		.byte	0x9f
 9342 0bef 12000000 		.4byte	.LVL171
 9343 0bf3 14000000 		.4byte	.LVL172
 9344 0bf7 0100     		.2byte	0x1
 9345 0bf9 50       		.byte	0x50
 9346 0bfa 14000000 		.4byte	.LVL172
 9347 0bfe 16000000 		.4byte	.LVL173
 9348 0c02 0400     		.2byte	0x4
 9349 0c04 F3       		.byte	0xf3
 9350 0c05 01       		.uleb128 0x1
 9351 0c06 50       		.byte	0x50
 9352 0c07 9F       		.byte	0x9f
 9353 0c08 16000000 		.4byte	.LVL173
 9354 0c0c 18000000 		.4byte	.LVL174
 9355 0c10 0100     		.2byte	0x1
 9356 0c12 50       		.byte	0x50
 9357 0c13 18000000 		.4byte	.LVL174
 9358 0c17 20000000 		.4byte	.LFE18
 9359 0c1b 0400     		.2byte	0x4
 9360 0c1d F3       		.byte	0xf3
 9361 0c1e 01       		.uleb128 0x1
 9362 0c1f 50       		.byte	0x50
 9363 0c20 9F       		.byte	0x9f
 9364 0c21 00000000 		.4byte	0
 9365 0c25 00000000 		.4byte	0
 9366              	.LLST56:
 9367 0c29 00000000 		.4byte	.LVL175
 9368 0c2d 1C000000 		.4byte	.LVL177
 9369 0c31 0100     		.2byte	0x1
 9370 0c33 50       		.byte	0x50
 9371 0c34 1C000000 		.4byte	.LVL177
 9372 0c38 30000000 		.4byte	.LVL180
 9373 0c3c 0100     		.2byte	0x1
 9374 0c3e 54       		.byte	0x54
ARM GAS  C:\Users\Phuong\AppData\Local\Temp\ccnzvfGe.s 			page 198


 9375 0c3f 30000000 		.4byte	.LVL180
 9376 0c43 48000000 		.4byte	.LVL183
 9377 0c47 0100     		.2byte	0x1
 9378 0c49 50       		.byte	0x50
 9379 0c4a 48000000 		.4byte	.LVL183
 9380 0c4e 5C000000 		.4byte	.LVL187
 9381 0c52 0100     		.2byte	0x1
 9382 0c54 54       		.byte	0x54
 9383 0c55 5C000000 		.4byte	.LVL187
 9384 0c59 5E000000 		.4byte	.LVL188
 9385 0c5d 0100     		.2byte	0x1
 9386 0c5f 50       		.byte	0x50
 9387 0c60 5E000000 		.4byte	.LVL188
 9388 0c64 60000000 		.4byte	.LVL189
 9389 0c68 0100     		.2byte	0x1
 9390 0c6a 54       		.byte	0x54
 9391 0c6b 60000000 		.4byte	.LVL189
 9392 0c6f 62000000 		.4byte	.LVL190
 9393 0c73 0100     		.2byte	0x1
 9394 0c75 50       		.byte	0x50
 9395 0c76 62000000 		.4byte	.LVL190
 9396 0c7a 64000000 		.4byte	.LVL191
 9397 0c7e 0100     		.2byte	0x1
 9398 0c80 54       		.byte	0x54
 9399 0c81 64000000 		.4byte	.LVL191
 9400 0c85 66000000 		.4byte	.LVL192
 9401 0c89 0100     		.2byte	0x1
 9402 0c8b 50       		.byte	0x50
 9403 0c8c 66000000 		.4byte	.LVL192
 9404 0c90 68000000 		.4byte	.LVL193
 9405 0c94 0100     		.2byte	0x1
 9406 0c96 54       		.byte	0x54
 9407 0c97 68000000 		.4byte	.LVL193
 9408 0c9b 70000000 		.4byte	.LFE19
 9409 0c9f 0400     		.2byte	0x4
 9410 0ca1 F3       		.byte	0xf3
 9411 0ca2 01       		.uleb128 0x1
 9412 0ca3 50       		.byte	0x50
 9413 0ca4 9F       		.byte	0x9f
 9414 0ca5 00000000 		.4byte	0
 9415 0ca9 00000000 		.4byte	0
 9416              	.LLST57:
 9417 0cad 00000000 		.4byte	.LVL175
 9418 0cb1 1E000000 		.4byte	.LVL178
 9419 0cb5 0100     		.2byte	0x1
 9420 0cb7 51       		.byte	0x51
 9421 0cb8 1E000000 		.4byte	.LVL178
 9422 0cbc 30000000 		.4byte	.LVL180
 9423 0cc0 0100     		.2byte	0x1
 9424 0cc2 55       		.byte	0x55
 9425 0cc3 30000000 		.4byte	.LVL180
 9426 0cc7 44000000 		.4byte	.LVL182
 9427 0ccb 0100     		.2byte	0x1
 9428 0ccd 51       		.byte	0x51
 9429 0cce 44000000 		.4byte	.LVL182
 9430 0cd2 5C000000 		.4byte	.LVL187
 9431 0cd6 0100     		.2byte	0x1
ARM GAS  C:\Users\Phuong\AppData\Local\Temp\ccnzvfGe.s 			page 199


 9432 0cd8 55       		.byte	0x55
 9433 0cd9 5C000000 		.4byte	.LVL187
 9434 0cdd 66000000 		.4byte	.LVL192
 9435 0ce1 0100     		.2byte	0x1
 9436 0ce3 51       		.byte	0x51
 9437 0ce4 66000000 		.4byte	.LVL192
 9438 0ce8 68000000 		.4byte	.LVL194
 9439 0cec 0100     		.2byte	0x1
 9440 0cee 55       		.byte	0x55
 9441 0cef 68000000 		.4byte	.LVL194
 9442 0cf3 70000000 		.4byte	.LFE19
 9443 0cf7 0400     		.2byte	0x4
 9444 0cf9 F3       		.byte	0xf3
 9445 0cfa 01       		.uleb128 0x1
 9446 0cfb 51       		.byte	0x51
 9447 0cfc 9F       		.byte	0x9f
 9448 0cfd 00000000 		.4byte	0
 9449 0d01 00000000 		.4byte	0
 9450              	.LLST58:
 9451 0d05 00000000 		.4byte	.LVL175
 9452 0d09 16000000 		.4byte	.LVL176
 9453 0d0d 0100     		.2byte	0x1
 9454 0d0f 52       		.byte	0x52
 9455 0d10 16000000 		.4byte	.LVL176
 9456 0d14 5C000000 		.4byte	.LVL187
 9457 0d18 0100     		.2byte	0x1
 9458 0d1a 56       		.byte	0x56
 9459 0d1b 5C000000 		.4byte	.LVL187
 9460 0d1f 64000000 		.4byte	.LVL191
 9461 0d23 0100     		.2byte	0x1
 9462 0d25 52       		.byte	0x52
 9463 0d26 64000000 		.4byte	.LVL191
 9464 0d2a 68000000 		.4byte	.LVL195
 9465 0d2e 0100     		.2byte	0x1
 9466 0d30 56       		.byte	0x56
 9467 0d31 68000000 		.4byte	.LVL195
 9468 0d35 70000000 		.4byte	.LFE19
 9469 0d39 0400     		.2byte	0x4
 9470 0d3b F3       		.byte	0xf3
 9471 0d3c 01       		.uleb128 0x1
 9472 0d3d 52       		.byte	0x52
 9473 0d3e 9F       		.byte	0x9f
 9474 0d3f 00000000 		.4byte	0
 9475 0d43 00000000 		.4byte	0
 9476              	.LLST59:
 9477 0d47 4C000000 		.4byte	.LVL184
 9478 0d4b 52000000 		.4byte	.LVL185
 9479 0d4f 0100     		.2byte	0x1
 9480 0d51 50       		.byte	0x50
 9481 0d52 00000000 		.4byte	0
 9482 0d56 00000000 		.4byte	0
 9483              	.LLST60:
 9484 0d5a 42000000 		.4byte	.LVL181
 9485 0d5e 4B000000 		.4byte	.LVL184-1
 9486 0d62 0100     		.2byte	0x1
 9487 0d64 52       		.byte	0x52
 9488 0d65 00000000 		.4byte	0
ARM GAS  C:\Users\Phuong\AppData\Local\Temp\ccnzvfGe.s 			page 200


 9489 0d69 00000000 		.4byte	0
 9490              	.LLST61:
 9491 0d6d 00000000 		.4byte	.LVL196
 9492 0d71 60000000 		.4byte	.LVL201
 9493 0d75 0100     		.2byte	0x1
 9494 0d77 50       		.byte	0x50
 9495 0d78 60000000 		.4byte	.LVL201
 9496 0d7c 6C000000 		.4byte	.LVL205
 9497 0d80 0100     		.2byte	0x1
 9498 0d82 54       		.byte	0x54
 9499 0d83 6C000000 		.4byte	.LVL205
 9500 0d87 74000000 		.4byte	.LVL206
 9501 0d8b 0100     		.2byte	0x1
 9502 0d8d 50       		.byte	0x50
 9503 0d8e 74000000 		.4byte	.LVL206
 9504 0d92 80000000 		.4byte	.LVL210
 9505 0d96 0100     		.2byte	0x1
 9506 0d98 54       		.byte	0x54
 9507 0d99 80000000 		.4byte	.LVL210
 9508 0d9d 8A000000 		.4byte	.LVL211
 9509 0da1 0100     		.2byte	0x1
 9510 0da3 50       		.byte	0x50
 9511 0da4 8A000000 		.4byte	.LVL211
 9512 0da8 96000000 		.4byte	.LVL215
 9513 0dac 0100     		.2byte	0x1
 9514 0dae 54       		.byte	0x54
 9515 0daf 96000000 		.4byte	.LVL215
 9516 0db3 B2000000 		.4byte	.LVL218
 9517 0db7 0100     		.2byte	0x1
 9518 0db9 50       		.byte	0x50
 9519 0dba B2000000 		.4byte	.LVL218
 9520 0dbe F2010000 		.4byte	.LVL238
 9521 0dc2 0100     		.2byte	0x1
 9522 0dc4 54       		.byte	0x54
 9523 0dc5 F2010000 		.4byte	.LVL238
 9524 0dc9 08020000 		.4byte	.LVL240
 9525 0dcd 0300     		.2byte	0x3
 9526 0dcf 74       		.byte	0x74
 9527 0dd0 58       		.sleb128 -40
 9528 0dd1 9F       		.byte	0x9f
 9529 0dd2 08020000 		.4byte	.LVL240
 9530 0dd6 46020000 		.4byte	.LVL243
 9531 0dda 0100     		.2byte	0x1
 9532 0ddc 54       		.byte	0x54
 9533 0ddd 46020000 		.4byte	.LVL243
 9534 0de1 5C020000 		.4byte	.LVL245
 9535 0de5 0300     		.2byte	0x3
 9536 0de7 74       		.byte	0x74
 9537 0de8 6C       		.sleb128 -20
 9538 0de9 9F       		.byte	0x9f
 9539 0dea 5C020000 		.4byte	.LVL245
 9540 0dee 78020000 		.4byte	.LVL247
 9541 0df2 0100     		.2byte	0x1
 9542 0df4 54       		.byte	0x54
 9543 0df5 78020000 		.4byte	.LVL247
 9544 0df9 7A020000 		.4byte	.LVL248
 9545 0dfd 0100     		.2byte	0x1
ARM GAS  C:\Users\Phuong\AppData\Local\Temp\ccnzvfGe.s 			page 201


 9546 0dff 50       		.byte	0x50
 9547 0e00 7A020000 		.4byte	.LVL248
 9548 0e04 7C020000 		.4byte	.LVL249
 9549 0e08 0100     		.2byte	0x1
 9550 0e0a 54       		.byte	0x54
 9551 0e0b 7C020000 		.4byte	.LVL249
 9552 0e0f 7E020000 		.4byte	.LVL250
 9553 0e13 0100     		.2byte	0x1
 9554 0e15 50       		.byte	0x50
 9555 0e16 7E020000 		.4byte	.LVL250
 9556 0e1a 80020000 		.4byte	.LVL251
 9557 0e1e 0100     		.2byte	0x1
 9558 0e20 54       		.byte	0x54
 9559 0e21 80020000 		.4byte	.LVL251
 9560 0e25 82020000 		.4byte	.LVL252
 9561 0e29 0100     		.2byte	0x1
 9562 0e2b 50       		.byte	0x50
 9563 0e2c 82020000 		.4byte	.LVL252
 9564 0e30 84020000 		.4byte	.LVL253
 9565 0e34 0100     		.2byte	0x1
 9566 0e36 54       		.byte	0x54
 9567 0e37 84020000 		.4byte	.LVL253
 9568 0e3b 86020000 		.4byte	.LVL254
 9569 0e3f 0100     		.2byte	0x1
 9570 0e41 50       		.byte	0x50
 9571 0e42 86020000 		.4byte	.LVL254
 9572 0e46 88020000 		.4byte	.LVL255
 9573 0e4a 0100     		.2byte	0x1
 9574 0e4c 54       		.byte	0x54
 9575 0e4d 88020000 		.4byte	.LVL255
 9576 0e51 8A020000 		.4byte	.LVL256
 9577 0e55 0100     		.2byte	0x1
 9578 0e57 50       		.byte	0x50
 9579 0e58 8A020000 		.4byte	.LVL256
 9580 0e5c 8C020000 		.4byte	.LVL257
 9581 0e60 0100     		.2byte	0x1
 9582 0e62 54       		.byte	0x54
 9583 0e63 8C020000 		.4byte	.LVL257
 9584 0e67 8E020000 		.4byte	.LVL258
 9585 0e6b 0100     		.2byte	0x1
 9586 0e6d 50       		.byte	0x50
 9587 0e6e 8E020000 		.4byte	.LVL258
 9588 0e72 9E020000 		.4byte	.LVL260
 9589 0e76 0100     		.2byte	0x1
 9590 0e78 54       		.byte	0x54
 9591 0e79 9E020000 		.4byte	.LVL260
 9592 0e7d B8020000 		.4byte	.LFE20
 9593 0e81 0400     		.2byte	0x4
 9594 0e83 F3       		.byte	0xf3
 9595 0e84 01       		.uleb128 0x1
 9596 0e85 50       		.byte	0x50
 9597 0e86 9F       		.byte	0x9f
 9598 0e87 00000000 		.4byte	0
 9599 0e8b 00000000 		.4byte	0
 9600              	.LLST62:
 9601 0e8f 00000000 		.4byte	.LVL196
 9602 0e93 62000000 		.4byte	.LVL202
ARM GAS  C:\Users\Phuong\AppData\Local\Temp\ccnzvfGe.s 			page 202


 9603 0e97 0100     		.2byte	0x1
 9604 0e99 51       		.byte	0x51
 9605 0e9a 62000000 		.4byte	.LVL202
 9606 0e9e 6C000000 		.4byte	.LVL205
 9607 0ea2 0200     		.2byte	0x2
 9608 0ea4 91       		.byte	0x91
 9609 0ea5 58       		.sleb128 -40
 9610 0ea6 6C000000 		.4byte	.LVL205
 9611 0eaa 7A000000 		.4byte	.LVL208
 9612 0eae 0100     		.2byte	0x1
 9613 0eb0 51       		.byte	0x51
 9614 0eb1 7A000000 		.4byte	.LVL208
 9615 0eb5 80000000 		.4byte	.LVL210
 9616 0eb9 0200     		.2byte	0x2
 9617 0ebb 91       		.byte	0x91
 9618 0ebc 58       		.sleb128 -40
 9619 0ebd 80000000 		.4byte	.LVL210
 9620 0ec1 90000000 		.4byte	.LVL213
 9621 0ec5 0100     		.2byte	0x1
 9622 0ec7 51       		.byte	0x51
 9623 0ec8 90000000 		.4byte	.LVL213
 9624 0ecc 96000000 		.4byte	.LVL215
 9625 0ed0 0200     		.2byte	0x2
 9626 0ed2 91       		.byte	0x91
 9627 0ed3 58       		.sleb128 -40
 9628 0ed4 96000000 		.4byte	.LVL215
 9629 0ed8 B0000000 		.4byte	.LVL217
 9630 0edc 0100     		.2byte	0x1
 9631 0ede 51       		.byte	0x51
 9632 0edf B0000000 		.4byte	.LVL217
 9633 0ee3 6E010000 		.4byte	.LVL227
 9634 0ee7 0200     		.2byte	0x2
 9635 0ee9 91       		.byte	0x91
 9636 0eea 58       		.sleb128 -40
 9637 0eeb 6E010000 		.4byte	.LVL227
 9638 0eef 70010000 		.4byte	.LVL228
 9639 0ef3 0100     		.2byte	0x1
 9640 0ef5 53       		.byte	0x53
 9641 0ef6 70010000 		.4byte	.LVL228
 9642 0efa 78020000 		.4byte	.LVL247
 9643 0efe 0200     		.2byte	0x2
 9644 0f00 91       		.byte	0x91
 9645 0f01 58       		.sleb128 -40
 9646 0f02 78020000 		.4byte	.LVL247
 9647 0f06 90020000 		.4byte	.LVL259
 9648 0f0a 0100     		.2byte	0x1
 9649 0f0c 51       		.byte	0x51
 9650 0f0d 90020000 		.4byte	.LVL259
 9651 0f11 B8020000 		.4byte	.LFE20
 9652 0f15 0200     		.2byte	0x2
 9653 0f17 91       		.byte	0x91
 9654 0f18 58       		.sleb128 -40
 9655 0f19 00000000 		.4byte	0
 9656 0f1d 00000000 		.4byte	0
 9657              	.LLST63:
 9658 0f21 00000000 		.4byte	.LVL196
 9659 0f25 68000000 		.4byte	.LVL203
ARM GAS  C:\Users\Phuong\AppData\Local\Temp\ccnzvfGe.s 			page 203


 9660 0f29 0100     		.2byte	0x1
 9661 0f2b 52       		.byte	0x52
 9662 0f2c 68000000 		.4byte	.LVL203
 9663 0f30 6C000000 		.4byte	.LVL205
 9664 0f34 0100     		.2byte	0x1
 9665 0f36 56       		.byte	0x56
 9666 0f37 6C000000 		.4byte	.LVL205
 9667 0f3b 78000000 		.4byte	.LVL207
 9668 0f3f 0100     		.2byte	0x1
 9669 0f41 52       		.byte	0x52
 9670 0f42 78000000 		.4byte	.LVL207
 9671 0f46 80000000 		.4byte	.LVL210
 9672 0f4a 0100     		.2byte	0x1
 9673 0f4c 56       		.byte	0x56
 9674 0f4d 80000000 		.4byte	.LVL210
 9675 0f51 8E000000 		.4byte	.LVL212
 9676 0f55 0100     		.2byte	0x1
 9677 0f57 52       		.byte	0x52
 9678 0f58 8E000000 		.4byte	.LVL212
 9679 0f5c 96000000 		.4byte	.LVL215
 9680 0f60 0100     		.2byte	0x1
 9681 0f62 56       		.byte	0x56
 9682 0f63 96000000 		.4byte	.LVL215
 9683 0f67 A2000000 		.4byte	.LVL216
 9684 0f6b 0100     		.2byte	0x1
 9685 0f6d 52       		.byte	0x52
 9686 0f6e A2000000 		.4byte	.LVL216
 9687 0f72 9E010000 		.4byte	.LVL232
 9688 0f76 0100     		.2byte	0x1
 9689 0f78 56       		.byte	0x56
 9690 0f79 B0010000 		.4byte	.LVL235
 9691 0f7d 78020000 		.4byte	.LVL247
 9692 0f81 0100     		.2byte	0x1
 9693 0f83 56       		.byte	0x56
 9694 0f84 78020000 		.4byte	.LVL247
 9695 0f88 8C020000 		.4byte	.LVL257
 9696 0f8c 0100     		.2byte	0x1
 9697 0f8e 52       		.byte	0x52
 9698 0f8f 8C020000 		.4byte	.LVL257
 9699 0f93 A0020000 		.4byte	.LVL261
 9700 0f97 0100     		.2byte	0x1
 9701 0f99 56       		.byte	0x56
 9702 0f9a 00000000 		.4byte	0
 9703 0f9e 00000000 		.4byte	0
 9704              	.LLST64:
 9705 0fa2 00000000 		.4byte	.LVL196
 9706 0fa6 1C000000 		.4byte	.LVL198
 9707 0faa 0100     		.2byte	0x1
 9708 0fac 53       		.byte	0x53
 9709 0fad 1C000000 		.4byte	.LVL198
 9710 0fb1 60010000 		.4byte	.LVL226
 9711 0fb5 0200     		.2byte	0x2
 9712 0fb7 91       		.byte	0x91
 9713 0fb8 5C       		.sleb128 -36
 9714 0fb9 60010000 		.4byte	.LVL226
 9715 0fbd 70010000 		.4byte	.LVL228
 9716 0fc1 0100     		.2byte	0x1
ARM GAS  C:\Users\Phuong\AppData\Local\Temp\ccnzvfGe.s 			page 204


 9717 0fc3 50       		.byte	0x50
 9718 0fc4 70010000 		.4byte	.LVL228
 9719 0fc8 78020000 		.4byte	.LVL247
 9720 0fcc 0200     		.2byte	0x2
 9721 0fce 91       		.byte	0x91
 9722 0fcf 5C       		.sleb128 -36
 9723 0fd0 78020000 		.4byte	.LVL247
 9724 0fd4 7C020000 		.4byte	.LVL249
 9725 0fd8 0100     		.2byte	0x1
 9726 0fda 53       		.byte	0x53
 9727 0fdb 7C020000 		.4byte	.LVL249
 9728 0fdf B8020000 		.4byte	.LFE20
 9729 0fe3 0200     		.2byte	0x2
 9730 0fe5 91       		.byte	0x91
 9731 0fe6 5C       		.sleb128 -36
 9732 0fe7 00000000 		.4byte	0
 9733 0feb 00000000 		.4byte	0
 9734              	.LLST65:
 9735 0fef 6A000000 		.4byte	.LVL204
 9736 0ff3 6C000000 		.4byte	.LVL205
 9737 0ff7 0100     		.2byte	0x1
 9738 0ff9 50       		.byte	0x50
 9739 0ffa 4E010000 		.4byte	.LVL224
 9740 0ffe 5C010000 		.4byte	.LVL225
 9741 1002 0100     		.2byte	0x1
 9742 1004 50       		.byte	0x50
 9743 1005 D0010000 		.4byte	.LVL236
 9744 1009 DC010000 		.4byte	.LVL237
 9745 100d 0100     		.2byte	0x1
 9746 100f 50       		.byte	0x50
 9747 1010 00020000 		.4byte	.LVL239
 9748 1014 08020000 		.4byte	.LVL240
 9749 1018 0100     		.2byte	0x1
 9750 101a 50       		.byte	0x50
 9751 101b 28020000 		.4byte	.LVL241
 9752 101f 30020000 		.4byte	.LVL242
 9753 1023 0100     		.2byte	0x1
 9754 1025 50       		.byte	0x50
 9755 1026 54020000 		.4byte	.LVL244
 9756 102a 5C020000 		.4byte	.LVL245
 9757 102e 0100     		.2byte	0x1
 9758 1030 50       		.byte	0x50
 9759 1031 70020000 		.4byte	.LVL246
 9760 1035 78020000 		.4byte	.LVL247
 9761 1039 0100     		.2byte	0x1
 9762 103b 50       		.byte	0x50
 9763 103c 00000000 		.4byte	0
 9764 1040 00000000 		.4byte	0
 9765              	.LLST66:
 9766 1044 14000000 		.4byte	.LVL197
 9767 1048 46000000 		.4byte	.LVL200
 9768 104c 0200     		.2byte	0x2
 9769 104e 30       		.byte	0x30
 9770 104f 9F       		.byte	0x9f
 9771 1050 78020000 		.4byte	.LVL247
 9772 1054 84020000 		.4byte	.LVL253
 9773 1058 0200     		.2byte	0x2
ARM GAS  C:\Users\Phuong\AppData\Local\Temp\ccnzvfGe.s 			page 205


 9774 105a 30       		.byte	0x30
 9775 105b 9F       		.byte	0x9f
 9776 105c 00000000 		.4byte	0
 9777 1060 00000000 		.4byte	0
 9778              	.LLST67:
 9779 1064 2C000000 		.4byte	.LVL199
 9780 1068 46000000 		.4byte	.LVL200
 9781 106c 0100     		.2byte	0x1
 9782 106e 50       		.byte	0x50
 9783 106f 00000000 		.4byte	0
 9784 1073 00000000 		.4byte	0
 9785              	.LLST68:
 9786 1077 C2000000 		.4byte	.LVL220
 9787 107b 20010000 		.4byte	.LVL222
 9788 107f 0200     		.2byte	0x2
 9789 1081 30       		.byte	0x30
 9790 1082 9F       		.byte	0x9f
 9791 1083 20010000 		.4byte	.LVL222
 9792 1087 70010000 		.4byte	.LVL228
 9793 108b 0100     		.2byte	0x1
 9794 108d 55       		.byte	0x55
 9795 108e 86010000 		.4byte	.LVL230
 9796 1092 98010000 		.4byte	.LVL231
 9797 1096 0100     		.2byte	0x1
 9798 1098 51       		.byte	0x51
 9799 1099 98010000 		.4byte	.LVL231
 9800 109d AE010000 		.4byte	.LVL234
 9801 10a1 0100     		.2byte	0x1
 9802 10a3 55       		.byte	0x55
 9803 10a4 00000000 		.4byte	0
 9804 10a8 00000000 		.4byte	0
 9805              	.LLST69:
 9806 10ac 00000000 		.4byte	.LVL262
 9807 10b0 54000000 		.4byte	.LVL264
 9808 10b4 0100     		.2byte	0x1
 9809 10b6 50       		.byte	0x50
 9810 10b7 54000000 		.4byte	.LVL264
 9811 10bb 56000000 		.4byte	.LVL265
 9812 10bf 0100     		.2byte	0x1
 9813 10c1 54       		.byte	0x54
 9814 10c2 56000000 		.4byte	.LVL265
 9815 10c6 70000000 		.4byte	.LVL267
 9816 10ca 0100     		.2byte	0x1
 9817 10cc 50       		.byte	0x50
 9818 10cd 70000000 		.4byte	.LVL267
 9819 10d1 72000000 		.4byte	.LVL268
 9820 10d5 0100     		.2byte	0x1
 9821 10d7 54       		.byte	0x54
 9822 10d8 72000000 		.4byte	.LVL268
 9823 10dc 74000000 		.4byte	.LVL269
 9824 10e0 0100     		.2byte	0x1
 9825 10e2 50       		.byte	0x50
 9826 10e3 74000000 		.4byte	.LVL269
 9827 10e7 92000000 		.4byte	.LVL276
 9828 10eb 0100     		.2byte	0x1
 9829 10ed 54       		.byte	0x54
 9830 10ee 92000000 		.4byte	.LVL276
ARM GAS  C:\Users\Phuong\AppData\Local\Temp\ccnzvfGe.s 			page 206


 9831 10f2 B6000000 		.4byte	.LVL278
 9832 10f6 0100     		.2byte	0x1
 9833 10f8 50       		.byte	0x50
 9834 10f9 B6000000 		.4byte	.LVL278
 9835 10fd 30010000 		.4byte	.LVL290
 9836 1101 0100     		.2byte	0x1
 9837 1103 54       		.byte	0x54
 9838 1104 30010000 		.4byte	.LVL290
 9839 1108 32010000 		.4byte	.LVL291
 9840 110c 0100     		.2byte	0x1
 9841 110e 50       		.byte	0x50
 9842 110f 32010000 		.4byte	.LVL291
 9843 1113 34010000 		.4byte	.LVL292
 9844 1117 0100     		.2byte	0x1
 9845 1119 54       		.byte	0x54
 9846 111a 34010000 		.4byte	.LVL292
 9847 111e 36010000 		.4byte	.LVL293
 9848 1122 0100     		.2byte	0x1
 9849 1124 50       		.byte	0x50
 9850 1125 36010000 		.4byte	.LVL293
 9851 1129 38010000 		.4byte	.LVL294
 9852 112d 0100     		.2byte	0x1
 9853 112f 54       		.byte	0x54
 9854 1130 38010000 		.4byte	.LVL294
 9855 1134 3A010000 		.4byte	.LVL295
 9856 1138 0100     		.2byte	0x1
 9857 113a 50       		.byte	0x50
 9858 113b 3A010000 		.4byte	.LVL295
 9859 113f 3C010000 		.4byte	.LVL296
 9860 1143 0100     		.2byte	0x1
 9861 1145 54       		.byte	0x54
 9862 1146 3C010000 		.4byte	.LVL296
 9863 114a 3E010000 		.4byte	.LVL297
 9864 114e 0100     		.2byte	0x1
 9865 1150 50       		.byte	0x50
 9866 1151 3E010000 		.4byte	.LVL297
 9867 1155 40010000 		.4byte	.LVL298
 9868 1159 0100     		.2byte	0x1
 9869 115b 54       		.byte	0x54
 9870 115c 40010000 		.4byte	.LVL298
 9871 1160 42010000 		.4byte	.LVL299
 9872 1164 0100     		.2byte	0x1
 9873 1166 50       		.byte	0x50
 9874 1167 42010000 		.4byte	.LVL299
 9875 116b 44010000 		.4byte	.LVL300
 9876 116f 0100     		.2byte	0x1
 9877 1171 54       		.byte	0x54
 9878 1172 44010000 		.4byte	.LVL300
 9879 1176 46010000 		.4byte	.LVL301
 9880 117a 0100     		.2byte	0x1
 9881 117c 50       		.byte	0x50
 9882 117d 46010000 		.4byte	.LVL301
 9883 1181 48010000 		.4byte	.LVL302
 9884 1185 0100     		.2byte	0x1
 9885 1187 54       		.byte	0x54
 9886 1188 48010000 		.4byte	.LVL302
 9887 118c 4A010000 		.4byte	.LVL303
ARM GAS  C:\Users\Phuong\AppData\Local\Temp\ccnzvfGe.s 			page 207


 9888 1190 0100     		.2byte	0x1
 9889 1192 50       		.byte	0x50
 9890 1193 4A010000 		.4byte	.LVL303
 9891 1197 4C010000 		.4byte	.LVL304
 9892 119b 0100     		.2byte	0x1
 9893 119d 54       		.byte	0x54
 9894 119e 4C010000 		.4byte	.LVL304
 9895 11a2 4E010000 		.4byte	.LVL305
 9896 11a6 0100     		.2byte	0x1
 9897 11a8 50       		.byte	0x50
 9898 11a9 4E010000 		.4byte	.LVL305
 9899 11ad 50010000 		.4byte	.LVL306
 9900 11b1 0100     		.2byte	0x1
 9901 11b3 54       		.byte	0x54
 9902 11b4 50010000 		.4byte	.LVL306
 9903 11b8 52010000 		.4byte	.LVL307
 9904 11bc 0100     		.2byte	0x1
 9905 11be 50       		.byte	0x50
 9906 11bf 52010000 		.4byte	.LVL307
 9907 11c3 54010000 		.4byte	.LVL308
 9908 11c7 0100     		.2byte	0x1
 9909 11c9 54       		.byte	0x54
 9910 11ca 54010000 		.4byte	.LVL308
 9911 11ce 56010000 		.4byte	.LVL309
 9912 11d2 0100     		.2byte	0x1
 9913 11d4 50       		.byte	0x50
 9914 11d5 56010000 		.4byte	.LVL309
 9915 11d9 58010000 		.4byte	.LVL310
 9916 11dd 0100     		.2byte	0x1
 9917 11df 54       		.byte	0x54
 9918 11e0 58010000 		.4byte	.LVL310
 9919 11e4 5A010000 		.4byte	.LVL311
 9920 11e8 0100     		.2byte	0x1
 9921 11ea 50       		.byte	0x50
 9922 11eb 5A010000 		.4byte	.LVL311
 9923 11ef 5C010000 		.4byte	.LVL312
 9924 11f3 0100     		.2byte	0x1
 9925 11f5 54       		.byte	0x54
 9926 11f6 5C010000 		.4byte	.LVL312
 9927 11fa 5E010000 		.4byte	.LVL313
 9928 11fe 0100     		.2byte	0x1
 9929 1200 50       		.byte	0x50
 9930 1201 5E010000 		.4byte	.LVL313
 9931 1205 60010000 		.4byte	.LVL314
 9932 1209 0100     		.2byte	0x1
 9933 120b 54       		.byte	0x54
 9934 120c 60010000 		.4byte	.LVL314
 9935 1210 70010000 		.4byte	.LFE30
 9936 1214 0400     		.2byte	0x4
 9937 1216 F3       		.byte	0xf3
 9938 1217 01       		.uleb128 0x1
 9939 1218 50       		.byte	0x50
 9940 1219 9F       		.byte	0x9f
 9941 121a 00000000 		.4byte	0
 9942 121e 00000000 		.4byte	0
 9943              	.LLST70:
 9944 1222 00000000 		.4byte	.LVL262
ARM GAS  C:\Users\Phuong\AppData\Local\Temp\ccnzvfGe.s 			page 208


 9945 1226 7E000000 		.4byte	.LVL270
 9946 122a 0100     		.2byte	0x1
 9947 122c 51       		.byte	0x51
 9948 122d 7E000000 		.4byte	.LVL270
 9949 1231 86000000 		.4byte	.LVL271
 9950 1235 0100     		.2byte	0x1
 9951 1237 55       		.byte	0x55
 9952 1238 86000000 		.4byte	.LVL271
 9953 123c 88000000 		.4byte	.LVL272
 9954 1240 0100     		.2byte	0x1
 9955 1242 51       		.byte	0x51
 9956 1243 88000000 		.4byte	.LVL272
 9957 1247 8A000000 		.4byte	.LVL273
 9958 124b 0100     		.2byte	0x1
 9959 124d 55       		.byte	0x55
 9960 124e 8A000000 		.4byte	.LVL273
 9961 1252 8C000000 		.4byte	.LVL274
 9962 1256 0100     		.2byte	0x1
 9963 1258 51       		.byte	0x51
 9964 1259 8C000000 		.4byte	.LVL274
 9965 125d 92000000 		.4byte	.LVL276
 9966 1261 0100     		.2byte	0x1
 9967 1263 55       		.byte	0x55
 9968 1264 92000000 		.4byte	.LVL276
 9969 1268 B8000000 		.4byte	.LVL279
 9970 126c 0100     		.2byte	0x1
 9971 126e 51       		.byte	0x51
 9972 126f B8000000 		.4byte	.LVL279
 9973 1273 30010000 		.4byte	.LVL290
 9974 1277 0100     		.2byte	0x1
 9975 1279 55       		.byte	0x55
 9976 127a 30010000 		.4byte	.LVL290
 9977 127e 5E010000 		.4byte	.LVL313
 9978 1282 0100     		.2byte	0x1
 9979 1284 51       		.byte	0x51
 9980 1285 5E010000 		.4byte	.LVL313
 9981 1289 60010000 		.4byte	.LVL315
 9982 128d 0100     		.2byte	0x1
 9983 128f 55       		.byte	0x55
 9984 1290 60010000 		.4byte	.LVL315
 9985 1294 70010000 		.4byte	.LFE30
 9986 1298 0400     		.2byte	0x4
 9987 129a F3       		.byte	0xf3
 9988 129b 01       		.uleb128 0x1
 9989 129c 51       		.byte	0x51
 9990 129d 9F       		.byte	0x9f
 9991 129e 00000000 		.4byte	0
 9992 12a2 00000000 		.4byte	0
 9993              	.LLST71:
 9994 12a6 00000000 		.4byte	.LVL262
 9995 12aa 26000000 		.4byte	.LVL263
 9996 12ae 0100     		.2byte	0x1
 9997 12b0 52       		.byte	0x52
 9998 12b1 26000000 		.4byte	.LVL263
 9999 12b5 30010000 		.4byte	.LVL290
 10000 12b9 0100     		.2byte	0x1
 10001 12bb 56       		.byte	0x56
ARM GAS  C:\Users\Phuong\AppData\Local\Temp\ccnzvfGe.s 			page 209


 10002 12bc 30010000 		.4byte	.LVL290
 10003 12c0 3C010000 		.4byte	.LVL296
 10004 12c4 0100     		.2byte	0x1
 10005 12c6 52       		.byte	0x52
 10006 12c7 3C010000 		.4byte	.LVL296
 10007 12cb 60010000 		.4byte	.LVL316
 10008 12cf 0100     		.2byte	0x1
 10009 12d1 56       		.byte	0x56
 10010 12d2 60010000 		.4byte	.LVL316
 10011 12d6 70010000 		.4byte	.LFE30
 10012 12da 0400     		.2byte	0x4
 10013 12dc F3       		.byte	0xf3
 10014 12dd 01       		.uleb128 0x1
 10015 12de 52       		.byte	0x52
 10016 12df 9F       		.byte	0x9f
 10017 12e0 00000000 		.4byte	0
 10018 12e4 00000000 		.4byte	0
 10019              	.LLST72:
 10020 12e8 5A000000 		.4byte	.LVL266
 10021 12ec EC000000 		.4byte	.LVL282
 10022 12f0 0200     		.2byte	0x2
 10023 12f2 30       		.byte	0x30
 10024 12f3 9F       		.byte	0x9f
 10025 12f4 EC000000 		.4byte	.LVL282
 10026 12f8 12010000 		.4byte	.LVL285
 10027 12fc 0100     		.2byte	0x1
 10028 12fe 50       		.byte	0x50
 10029 12ff 16010000 		.4byte	.LVL287
 10030 1303 2E010000 		.4byte	.LVL289
 10031 1307 0100     		.2byte	0x1
 10032 1309 50       		.byte	0x50
 10033 130a 54010000 		.4byte	.LVL308
 10034 130e 5E010000 		.4byte	.LVL313
 10035 1312 0200     		.2byte	0x2
 10036 1314 30       		.byte	0x30
 10037 1315 9F       		.byte	0x9f
 10038 1316 00000000 		.4byte	0
 10039 131a 00000000 		.4byte	0
 10040              	.LLST73:
 10041 131e 74000000 		.4byte	.LVL269
 10042 1322 8C000000 		.4byte	.LVL274
 10043 1326 0100     		.2byte	0x1
 10044 1328 54       		.byte	0x54
 10045 1329 00000000 		.4byte	0
 10046 132d 00000000 		.4byte	0
 10047              	.LLST74:
 10048 1331 92000000 		.4byte	.LVL276
 10049 1335 A4000000 		.4byte	.LVL277
 10050 1339 0100     		.2byte	0x1
 10051 133b 50       		.byte	0x50
 10052 133c 00000000 		.4byte	0
 10053 1340 00000000 		.4byte	0
 10054              	.LLST75:
 10055 1344 C4000000 		.4byte	.LVL280
 10056 1348 DC000000 		.4byte	.LVL281
 10057 134c 0100     		.2byte	0x1
 10058 134e 54       		.byte	0x54
ARM GAS  C:\Users\Phuong\AppData\Local\Temp\ccnzvfGe.s 			page 210


 10059 134f 00000000 		.4byte	0
 10060 1353 00000000 		.4byte	0
 10061              	.LLST76:
 10062 1357 FA000000 		.4byte	.LVL283
 10063 135b 0E010000 		.4byte	.LVL284
 10064 135f 0100     		.2byte	0x1
 10065 1361 54       		.byte	0x54
 10066 1362 00000000 		.4byte	0
 10067 1366 00000000 		.4byte	0
 10068              	.LLST77:
 10069 136a 16010000 		.4byte	.LVL287
 10070 136e 2A010000 		.4byte	.LVL288
 10071 1372 0100     		.2byte	0x1
 10072 1374 54       		.byte	0x54
 10073 1375 00000000 		.4byte	0
 10074 1379 00000000 		.4byte	0
 10075              	.LLST78:
 10076 137d 00000000 		.4byte	.LVL317
 10077 1381 22000000 		.4byte	.LVL319
 10078 1385 0100     		.2byte	0x1
 10079 1387 50       		.byte	0x50
 10080 1388 22000000 		.4byte	.LVL319
 10081 138c 24000000 		.4byte	.LVL320
 10082 1390 0400     		.2byte	0x4
 10083 1392 F3       		.byte	0xf3
 10084 1393 01       		.uleb128 0x1
 10085 1394 50       		.byte	0x50
 10086 1395 9F       		.byte	0x9f
 10087 1396 24000000 		.4byte	.LVL320
 10088 139a 2E000000 		.4byte	.LVL321
 10089 139e 0100     		.2byte	0x1
 10090 13a0 50       		.byte	0x50
 10091 13a1 2E000000 		.4byte	.LVL321
 10092 13a5 30000000 		.4byte	.LVL322
 10093 13a9 0400     		.2byte	0x4
 10094 13ab F3       		.byte	0xf3
 10095 13ac 01       		.uleb128 0x1
 10096 13ad 50       		.byte	0x50
 10097 13ae 9F       		.byte	0x9f
 10098 13af 30000000 		.4byte	.LVL322
 10099 13b3 3A000000 		.4byte	.LVL323
 10100 13b7 0100     		.2byte	0x1
 10101 13b9 50       		.byte	0x50
 10102 13ba 3A000000 		.4byte	.LVL323
 10103 13be 3C000000 		.4byte	.LVL324
 10104 13c2 0400     		.2byte	0x4
 10105 13c4 F3       		.byte	0xf3
 10106 13c5 01       		.uleb128 0x1
 10107 13c6 50       		.byte	0x50
 10108 13c7 9F       		.byte	0x9f
 10109 13c8 3C000000 		.4byte	.LVL324
 10110 13cc 46000000 		.4byte	.LVL325
 10111 13d0 0100     		.2byte	0x1
 10112 13d2 50       		.byte	0x50
 10113 13d3 46000000 		.4byte	.LVL325
 10114 13d7 48000000 		.4byte	.LVL326
 10115 13db 0400     		.2byte	0x4
ARM GAS  C:\Users\Phuong\AppData\Local\Temp\ccnzvfGe.s 			page 211


 10116 13dd F3       		.byte	0xf3
 10117 13de 01       		.uleb128 0x1
 10118 13df 50       		.byte	0x50
 10119 13e0 9F       		.byte	0x9f
 10120 13e1 48000000 		.4byte	.LVL326
 10121 13e5 52000000 		.4byte	.LVL327
 10122 13e9 0100     		.2byte	0x1
 10123 13eb 50       		.byte	0x50
 10124 13ec 52000000 		.4byte	.LVL327
 10125 13f0 54000000 		.4byte	.LVL328
 10126 13f4 0400     		.2byte	0x4
 10127 13f6 F3       		.byte	0xf3
 10128 13f7 01       		.uleb128 0x1
 10129 13f8 50       		.byte	0x50
 10130 13f9 9F       		.byte	0x9f
 10131 13fa 54000000 		.4byte	.LVL328
 10132 13fe 56000000 		.4byte	.LVL329
 10133 1402 0100     		.2byte	0x1
 10134 1404 50       		.byte	0x50
 10135 1405 56000000 		.4byte	.LVL329
 10136 1409 58000000 		.4byte	.LVL330
 10137 140d 0400     		.2byte	0x4
 10138 140f F3       		.byte	0xf3
 10139 1410 01       		.uleb128 0x1
 10140 1411 50       		.byte	0x50
 10141 1412 9F       		.byte	0x9f
 10142 1413 58000000 		.4byte	.LVL330
 10143 1417 5A000000 		.4byte	.LVL331
 10144 141b 0100     		.2byte	0x1
 10145 141d 50       		.byte	0x50
 10146 141e 5A000000 		.4byte	.LVL331
 10147 1422 5C000000 		.4byte	.LVL332
 10148 1426 0400     		.2byte	0x4
 10149 1428 F3       		.byte	0xf3
 10150 1429 01       		.uleb128 0x1
 10151 142a 50       		.byte	0x50
 10152 142b 9F       		.byte	0x9f
 10153 142c 5C000000 		.4byte	.LVL332
 10154 1430 5E000000 		.4byte	.LVL333
 10155 1434 0100     		.2byte	0x1
 10156 1436 50       		.byte	0x50
 10157 1437 5E000000 		.4byte	.LVL333
 10158 143b 90000000 		.4byte	.LFE31
 10159 143f 0400     		.2byte	0x4
 10160 1441 F3       		.byte	0xf3
 10161 1442 01       		.uleb128 0x1
 10162 1443 50       		.byte	0x50
 10163 1444 9F       		.byte	0x9f
 10164 1445 00000000 		.4byte	0
 10165 1449 00000000 		.4byte	0
 10166              	.LLST79:
 10167 144d 00000000 		.4byte	.LVL317
 10168 1451 12000000 		.4byte	.LVL318
 10169 1455 0100     		.2byte	0x1
 10170 1457 51       		.byte	0x51
 10171 1458 12000000 		.4byte	.LVL318
 10172 145c 54000000 		.4byte	.LVL328
ARM GAS  C:\Users\Phuong\AppData\Local\Temp\ccnzvfGe.s 			page 212


 10173 1460 0400     		.2byte	0x4
 10174 1462 F3       		.byte	0xf3
 10175 1463 01       		.uleb128 0x1
 10176 1464 51       		.byte	0x51
 10177 1465 9F       		.byte	0x9f
 10178 1466 54000000 		.4byte	.LVL328
 10179 146a 5E000000 		.4byte	.LVL333
 10180 146e 0100     		.2byte	0x1
 10181 1470 51       		.byte	0x51
 10182 1471 5E000000 		.4byte	.LVL333
 10183 1475 90000000 		.4byte	.LFE31
 10184 1479 0400     		.2byte	0x4
 10185 147b F3       		.byte	0xf3
 10186 147c 01       		.uleb128 0x1
 10187 147d 51       		.byte	0x51
 10188 147e 9F       		.byte	0x9f
 10189 147f 00000000 		.4byte	0
 10190 1483 00000000 		.4byte	0
 10191              	.LLST80:
 10192 1487 00000000 		.4byte	.LVL334
 10193 148b 13000000 		.4byte	.LVL336-1
 10194 148f 0100     		.2byte	0x1
 10195 1491 50       		.byte	0x50
 10196 1492 13000000 		.4byte	.LVL336-1
 10197 1496 2E000000 		.4byte	.LVL339
 10198 149a 0100     		.2byte	0x1
 10199 149c 54       		.byte	0x54
 10200 149d 2E000000 		.4byte	.LVL339
 10201 14a1 30000000 		.4byte	.LVL340
 10202 14a5 0100     		.2byte	0x1
 10203 14a7 50       		.byte	0x50
 10204 14a8 30000000 		.4byte	.LVL340
 10205 14ac 32000000 		.4byte	.LVL341
 10206 14b0 0100     		.2byte	0x1
 10207 14b2 54       		.byte	0x54
 10208 14b3 32000000 		.4byte	.LVL341
 10209 14b7 34000000 		.4byte	.LVL342
 10210 14bb 0100     		.2byte	0x1
 10211 14bd 50       		.byte	0x50
 10212 14be 34000000 		.4byte	.LVL342
 10213 14c2 38000000 		.4byte	.LVL344
 10214 14c6 0100     		.2byte	0x1
 10215 14c8 54       		.byte	0x54
 10216 14c9 38000000 		.4byte	.LVL344
 10217 14cd 44000000 		.4byte	.LFE15
 10218 14d1 0400     		.2byte	0x4
 10219 14d3 F3       		.byte	0xf3
 10220 14d4 01       		.uleb128 0x1
 10221 14d5 50       		.byte	0x50
 10222 14d6 9F       		.byte	0x9f
 10223 14d7 00000000 		.4byte	0
 10224 14db 00000000 		.4byte	0
 10225              	.LLST81:
 10226 14df 00000000 		.4byte	.LVL334
 10227 14e3 10000000 		.4byte	.LVL335
 10228 14e7 0100     		.2byte	0x1
 10229 14e9 51       		.byte	0x51
ARM GAS  C:\Users\Phuong\AppData\Local\Temp\ccnzvfGe.s 			page 213


 10230 14ea 10000000 		.4byte	.LVL335
 10231 14ee 2E000000 		.4byte	.LVL339
 10232 14f2 0100     		.2byte	0x1
 10233 14f4 55       		.byte	0x55
 10234 14f5 2E000000 		.4byte	.LVL339
 10235 14f9 36000000 		.4byte	.LVL343
 10236 14fd 0100     		.2byte	0x1
 10237 14ff 51       		.byte	0x51
 10238 1500 36000000 		.4byte	.LVL343
 10239 1504 38000000 		.4byte	.LVL345
 10240 1508 0100     		.2byte	0x1
 10241 150a 55       		.byte	0x55
 10242 150b 38000000 		.4byte	.LVL345
 10243 150f 44000000 		.4byte	.LFE15
 10244 1513 0400     		.2byte	0x4
 10245 1515 F3       		.byte	0xf3
 10246 1516 01       		.uleb128 0x1
 10247 1517 51       		.byte	0x51
 10248 1518 9F       		.byte	0x9f
 10249 1519 00000000 		.4byte	0
 10250 151d 00000000 		.4byte	0
 10251              	.LLST82:
 10252 1521 00000000 		.4byte	.LVL346
 10253 1525 20000000 		.4byte	.LVL347
 10254 1529 0100     		.2byte	0x1
 10255 152b 50       		.byte	0x50
 10256 152c 20000000 		.4byte	.LVL347
 10257 1530 26000000 		.4byte	.LVL349
 10258 1534 0400     		.2byte	0x4
 10259 1536 F3       		.byte	0xf3
 10260 1537 01       		.uleb128 0x1
 10261 1538 50       		.byte	0x50
 10262 1539 9F       		.byte	0x9f
 10263 153a 26000000 		.4byte	.LVL349
 10264 153e 32000000 		.4byte	.LVL350
 10265 1542 0100     		.2byte	0x1
 10266 1544 50       		.byte	0x50
 10267 1545 32000000 		.4byte	.LVL350
 10268 1549 38000000 		.4byte	.LVL352
 10269 154d 0400     		.2byte	0x4
 10270 154f F3       		.byte	0xf3
 10271 1550 01       		.uleb128 0x1
 10272 1551 50       		.byte	0x50
 10273 1552 9F       		.byte	0x9f
 10274 1553 38000000 		.4byte	.LVL352
 10275 1557 3A000000 		.4byte	.LVL353
 10276 155b 0100     		.2byte	0x1
 10277 155d 50       		.byte	0x50
 10278 155e 3A000000 		.4byte	.LVL353
 10279 1562 3C000000 		.4byte	.LVL354
 10280 1566 0400     		.2byte	0x4
 10281 1568 F3       		.byte	0xf3
 10282 1569 01       		.uleb128 0x1
 10283 156a 50       		.byte	0x50
 10284 156b 9F       		.byte	0x9f
 10285 156c 3C000000 		.4byte	.LVL354
 10286 1570 3E000000 		.4byte	.LVL355
ARM GAS  C:\Users\Phuong\AppData\Local\Temp\ccnzvfGe.s 			page 214


 10287 1574 0100     		.2byte	0x1
 10288 1576 50       		.byte	0x50
 10289 1577 3E000000 		.4byte	.LVL355
 10290 157b 40000000 		.4byte	.LVL356
 10291 157f 0400     		.2byte	0x4
 10292 1581 F3       		.byte	0xf3
 10293 1582 01       		.uleb128 0x1
 10294 1583 50       		.byte	0x50
 10295 1584 9F       		.byte	0x9f
 10296 1585 40000000 		.4byte	.LVL356
 10297 1589 42000000 		.4byte	.LVL357
 10298 158d 0100     		.2byte	0x1
 10299 158f 50       		.byte	0x50
 10300 1590 42000000 		.4byte	.LVL357
 10301 1594 44000000 		.4byte	.LVL358
 10302 1598 0400     		.2byte	0x4
 10303 159a F3       		.byte	0xf3
 10304 159b 01       		.uleb128 0x1
 10305 159c 50       		.byte	0x50
 10306 159d 9F       		.byte	0x9f
 10307 159e 44000000 		.4byte	.LVL358
 10308 15a2 46000000 		.4byte	.LVL359
 10309 15a6 0100     		.2byte	0x1
 10310 15a8 50       		.byte	0x50
 10311 15a9 46000000 		.4byte	.LVL359
 10312 15ad 48000000 		.4byte	.LVL360
 10313 15b1 0400     		.2byte	0x4
 10314 15b3 F3       		.byte	0xf3
 10315 15b4 01       		.uleb128 0x1
 10316 15b5 50       		.byte	0x50
 10317 15b6 9F       		.byte	0x9f
 10318 15b7 48000000 		.4byte	.LVL360
 10319 15bb 4A000000 		.4byte	.LVL361
 10320 15bf 0100     		.2byte	0x1
 10321 15c1 50       		.byte	0x50
 10322 15c2 4A000000 		.4byte	.LVL361
 10323 15c6 4C000000 		.4byte	.LVL362
 10324 15ca 0400     		.2byte	0x4
 10325 15cc F3       		.byte	0xf3
 10326 15cd 01       		.uleb128 0x1
 10327 15ce 50       		.byte	0x50
 10328 15cf 9F       		.byte	0x9f
 10329 15d0 4C000000 		.4byte	.LVL362
 10330 15d4 4E000000 		.4byte	.LVL363
 10331 15d8 0100     		.2byte	0x1
 10332 15da 50       		.byte	0x50
 10333 15db 4E000000 		.4byte	.LVL363
 10334 15df 54000000 		.4byte	.LFE32
 10335 15e3 0400     		.2byte	0x4
 10336 15e5 F3       		.byte	0xf3
 10337 15e6 01       		.uleb128 0x1
 10338 15e7 50       		.byte	0x50
 10339 15e8 9F       		.byte	0x9f
 10340 15e9 00000000 		.4byte	0
 10341 15ed 00000000 		.4byte	0
 10342              	.LLST83:
 10343 15f1 00000000 		.4byte	.LVL346
ARM GAS  C:\Users\Phuong\AppData\Local\Temp\ccnzvfGe.s 			page 215


 10344 15f5 23000000 		.4byte	.LVL348-1
 10345 15f9 0100     		.2byte	0x1
 10346 15fb 51       		.byte	0x51
 10347 15fc 23000000 		.4byte	.LVL348-1
 10348 1600 26000000 		.4byte	.LVL349
 10349 1604 0400     		.2byte	0x4
 10350 1606 F3       		.byte	0xf3
 10351 1607 01       		.uleb128 0x1
 10352 1608 51       		.byte	0x51
 10353 1609 9F       		.byte	0x9f
 10354 160a 26000000 		.4byte	.LVL349
 10355 160e 35000000 		.4byte	.LVL351-1
 10356 1612 0100     		.2byte	0x1
 10357 1614 51       		.byte	0x51
 10358 1615 35000000 		.4byte	.LVL351-1
 10359 1619 38000000 		.4byte	.LVL352
 10360 161d 0400     		.2byte	0x4
 10361 161f F3       		.byte	0xf3
 10362 1620 01       		.uleb128 0x1
 10363 1621 51       		.byte	0x51
 10364 1622 9F       		.byte	0x9f
 10365 1623 38000000 		.4byte	.LVL352
 10366 1627 4E000000 		.4byte	.LVL363
 10367 162b 0100     		.2byte	0x1
 10368 162d 51       		.byte	0x51
 10369 162e 4E000000 		.4byte	.LVL363
 10370 1632 54000000 		.4byte	.LFE32
 10371 1636 0400     		.2byte	0x4
 10372 1638 F3       		.byte	0xf3
 10373 1639 01       		.uleb128 0x1
 10374 163a 51       		.byte	0x51
 10375 163b 9F       		.byte	0x9f
 10376 163c 00000000 		.4byte	0
 10377 1640 00000000 		.4byte	0
 10378              	.LLST84:
 10379 1644 00000000 		.4byte	.LVL346
 10380 1648 23000000 		.4byte	.LVL348-1
 10381 164c 0100     		.2byte	0x1
 10382 164e 52       		.byte	0x52
 10383 164f 23000000 		.4byte	.LVL348-1
 10384 1653 26000000 		.4byte	.LVL349
 10385 1657 0400     		.2byte	0x4
 10386 1659 F3       		.byte	0xf3
 10387 165a 01       		.uleb128 0x1
 10388 165b 52       		.byte	0x52
 10389 165c 9F       		.byte	0x9f
 10390 165d 26000000 		.4byte	.LVL349
 10391 1661 35000000 		.4byte	.LVL351-1
 10392 1665 0100     		.2byte	0x1
 10393 1667 52       		.byte	0x52
 10394 1668 35000000 		.4byte	.LVL351-1
 10395 166c 38000000 		.4byte	.LVL352
 10396 1670 0400     		.2byte	0x4
 10397 1672 F3       		.byte	0xf3
 10398 1673 01       		.uleb128 0x1
 10399 1674 52       		.byte	0x52
 10400 1675 9F       		.byte	0x9f
ARM GAS  C:\Users\Phuong\AppData\Local\Temp\ccnzvfGe.s 			page 216


 10401 1676 38000000 		.4byte	.LVL352
 10402 167a 4E000000 		.4byte	.LVL363
 10403 167e 0100     		.2byte	0x1
 10404 1680 52       		.byte	0x52
 10405 1681 4E000000 		.4byte	.LVL363
 10406 1685 54000000 		.4byte	.LFE32
 10407 1689 0400     		.2byte	0x4
 10408 168b F3       		.byte	0xf3
 10409 168c 01       		.uleb128 0x1
 10410 168d 52       		.byte	0x52
 10411 168e 9F       		.byte	0x9f
 10412 168f 00000000 		.4byte	0
 10413 1693 00000000 		.4byte	0
 10414              	.LLST85:
 10415 1697 00000000 		.4byte	.LVL364
 10416 169b 26000000 		.4byte	.LVL366
 10417 169f 0100     		.2byte	0x1
 10418 16a1 50       		.byte	0x50
 10419 16a2 26000000 		.4byte	.LVL366
 10420 16a6 44000000 		.4byte	.LVL371
 10421 16aa 0400     		.2byte	0x4
 10422 16ac F3       		.byte	0xf3
 10423 16ad 01       		.uleb128 0x1
 10424 16ae 50       		.byte	0x50
 10425 16af 9F       		.byte	0x9f
 10426 16b0 44000000 		.4byte	.LVL371
 10427 16b4 50000000 		.4byte	.LVL372
 10428 16b8 0100     		.2byte	0x1
 10429 16ba 50       		.byte	0x50
 10430 16bb 50000000 		.4byte	.LVL372
 10431 16bf 6C000000 		.4byte	.LVL377
 10432 16c3 0400     		.2byte	0x4
 10433 16c5 F3       		.byte	0xf3
 10434 16c6 01       		.uleb128 0x1
 10435 16c7 50       		.byte	0x50
 10436 16c8 9F       		.byte	0x9f
 10437 16c9 6C000000 		.4byte	.LVL377
 10438 16cd 6E000000 		.4byte	.LVL378
 10439 16d1 0100     		.2byte	0x1
 10440 16d3 50       		.byte	0x50
 10441 16d4 6E000000 		.4byte	.LVL378
 10442 16d8 70000000 		.4byte	.LVL379
 10443 16dc 0400     		.2byte	0x4
 10444 16de F3       		.byte	0xf3
 10445 16df 01       		.uleb128 0x1
 10446 16e0 50       		.byte	0x50
 10447 16e1 9F       		.byte	0x9f
 10448 16e2 70000000 		.4byte	.LVL379
 10449 16e6 72000000 		.4byte	.LVL380
 10450 16ea 0100     		.2byte	0x1
 10451 16ec 50       		.byte	0x50
 10452 16ed 72000000 		.4byte	.LVL380
 10453 16f1 74000000 		.4byte	.LVL381
 10454 16f5 0400     		.2byte	0x4
 10455 16f7 F3       		.byte	0xf3
 10456 16f8 01       		.uleb128 0x1
 10457 16f9 50       		.byte	0x50
ARM GAS  C:\Users\Phuong\AppData\Local\Temp\ccnzvfGe.s 			page 217


 10458 16fa 9F       		.byte	0x9f
 10459 16fb 74000000 		.4byte	.LVL381
 10460 16ff 76000000 		.4byte	.LVL382
 10461 1703 0100     		.2byte	0x1
 10462 1705 50       		.byte	0x50
 10463 1706 76000000 		.4byte	.LVL382
 10464 170a 78000000 		.4byte	.LVL383
 10465 170e 0400     		.2byte	0x4
 10466 1710 F3       		.byte	0xf3
 10467 1711 01       		.uleb128 0x1
 10468 1712 50       		.byte	0x50
 10469 1713 9F       		.byte	0x9f
 10470 1714 78000000 		.4byte	.LVL383
 10471 1718 7A000000 		.4byte	.LVL384
 10472 171c 0100     		.2byte	0x1
 10473 171e 50       		.byte	0x50
 10474 171f 7A000000 		.4byte	.LVL384
 10475 1723 7C000000 		.4byte	.LVL385
 10476 1727 0400     		.2byte	0x4
 10477 1729 F3       		.byte	0xf3
 10478 172a 01       		.uleb128 0x1
 10479 172b 50       		.byte	0x50
 10480 172c 9F       		.byte	0x9f
 10481 172d 7C000000 		.4byte	.LVL385
 10482 1731 7E000000 		.4byte	.LVL386
 10483 1735 0100     		.2byte	0x1
 10484 1737 50       		.byte	0x50
 10485 1738 7E000000 		.4byte	.LVL386
 10486 173c 80000000 		.4byte	.LVL387
 10487 1740 0400     		.2byte	0x4
 10488 1742 F3       		.byte	0xf3
 10489 1743 01       		.uleb128 0x1
 10490 1744 50       		.byte	0x50
 10491 1745 9F       		.byte	0x9f
 10492 1746 80000000 		.4byte	.LVL387
 10493 174a 82000000 		.4byte	.LVL388
 10494 174e 0100     		.2byte	0x1
 10495 1750 50       		.byte	0x50
 10496 1751 82000000 		.4byte	.LVL388
 10497 1755 90000000 		.4byte	.LFE33
 10498 1759 0400     		.2byte	0x4
 10499 175b F3       		.byte	0xf3
 10500 175c 01       		.uleb128 0x1
 10501 175d 50       		.byte	0x50
 10502 175e 9F       		.byte	0x9f
 10503 175f 00000000 		.4byte	0
 10504 1763 00000000 		.4byte	0
 10505              	.LLST86:
 10506 1767 00000000 		.4byte	.LVL364
 10507 176b 2A000000 		.4byte	.LVL367
 10508 176f 0100     		.2byte	0x1
 10509 1771 51       		.byte	0x51
 10510 1772 2A000000 		.4byte	.LVL367
 10511 1776 44000000 		.4byte	.LVL371
 10512 177a 0100     		.2byte	0x1
 10513 177c 55       		.byte	0x55
 10514 177d 44000000 		.4byte	.LVL371
ARM GAS  C:\Users\Phuong\AppData\Local\Temp\ccnzvfGe.s 			page 218


 10515 1781 52000000 		.4byte	.LVL373
 10516 1785 0100     		.2byte	0x1
 10517 1787 51       		.byte	0x51
 10518 1788 52000000 		.4byte	.LVL373
 10519 178c 6C000000 		.4byte	.LVL377
 10520 1790 0100     		.2byte	0x1
 10521 1792 55       		.byte	0x55
 10522 1793 6C000000 		.4byte	.LVL377
 10523 1797 82000000 		.4byte	.LVL388
 10524 179b 0100     		.2byte	0x1
 10525 179d 51       		.byte	0x51
 10526 179e 82000000 		.4byte	.LVL388
 10527 17a2 84000000 		.4byte	.LVL390
 10528 17a6 0100     		.2byte	0x1
 10529 17a8 55       		.byte	0x55
 10530 17a9 84000000 		.4byte	.LVL390
 10531 17ad 90000000 		.4byte	.LFE33
 10532 17b1 0400     		.2byte	0x4
 10533 17b3 F3       		.byte	0xf3
 10534 17b4 01       		.uleb128 0x1
 10535 17b5 51       		.byte	0x51
 10536 17b6 9F       		.byte	0x9f
 10537 17b7 00000000 		.4byte	0
 10538 17bb 00000000 		.4byte	0
 10539              	.LLST87:
 10540 17bf 00000000 		.4byte	.LVL364
 10541 17c3 14000000 		.4byte	.LVL365
 10542 17c7 0100     		.2byte	0x1
 10543 17c9 52       		.byte	0x52
 10544 17ca 14000000 		.4byte	.LVL365
 10545 17ce 6C000000 		.4byte	.LVL377
 10546 17d2 0100     		.2byte	0x1
 10547 17d4 54       		.byte	0x54
 10548 17d5 6C000000 		.4byte	.LVL377
 10549 17d9 74000000 		.4byte	.LVL381
 10550 17dd 0100     		.2byte	0x1
 10551 17df 52       		.byte	0x52
 10552 17e0 74000000 		.4byte	.LVL381
 10553 17e4 84000000 		.4byte	.LVL389
 10554 17e8 0100     		.2byte	0x1
 10555 17ea 54       		.byte	0x54
 10556 17eb 84000000 		.4byte	.LVL389
 10557 17ef 90000000 		.4byte	.LFE33
 10558 17f3 0400     		.2byte	0x4
 10559 17f5 F3       		.byte	0xf3
 10560 17f6 01       		.uleb128 0x1
 10561 17f7 52       		.byte	0x52
 10562 17f8 9F       		.byte	0x9f
 10563 17f9 00000000 		.4byte	0
 10564 17fd 00000000 		.4byte	0
 10565              	.LLST88:
 10566 1801 2E000000 		.4byte	.LVL368
 10567 1805 38000000 		.4byte	.LVL369
 10568 1809 0100     		.2byte	0x1
 10569 180b 50       		.byte	0x50
 10570 180c 56000000 		.4byte	.LVL374
 10571 1810 60000000 		.4byte	.LVL375
ARM GAS  C:\Users\Phuong\AppData\Local\Temp\ccnzvfGe.s 			page 219


 10572 1814 0100     		.2byte	0x1
 10573 1816 50       		.byte	0x50
 10574 1817 00000000 		.4byte	0
 10575 181b 00000000 		.4byte	0
 10576              	.LLST89:
 10577 181f 00000000 		.4byte	.LVL391
 10578 1823 0B000000 		.4byte	.LVL392-1
 10579 1827 0100     		.2byte	0x1
 10580 1829 50       		.byte	0x50
 10581 182a 0B000000 		.4byte	.LVL392-1
 10582 182e 5A000000 		.4byte	.LVL399
 10583 1832 0100     		.2byte	0x1
 10584 1834 54       		.byte	0x54
 10585 1835 5A000000 		.4byte	.LVL399
 10586 1839 5C000000 		.4byte	.LFE34
 10587 183d 0400     		.2byte	0x4
 10588 183f F3       		.byte	0xf3
 10589 1840 01       		.uleb128 0x1
 10590 1841 50       		.byte	0x50
 10591 1842 9F       		.byte	0x9f
 10592 1843 00000000 		.4byte	0
 10593 1847 00000000 		.4byte	0
 10594              	.LLST90:
 10595 184b 00000000 		.4byte	.LVL391
 10596 184f 0B000000 		.4byte	.LVL392-1
 10597 1853 0100     		.2byte	0x1
 10598 1855 51       		.byte	0x51
 10599 1856 0B000000 		.4byte	.LVL392-1
 10600 185a 5C000000 		.4byte	.LFE34
 10601 185e 0400     		.2byte	0x4
 10602 1860 F3       		.byte	0xf3
 10603 1861 01       		.uleb128 0x1
 10604 1862 51       		.byte	0x51
 10605 1863 9F       		.byte	0x9f
 10606 1864 00000000 		.4byte	0
 10607 1868 00000000 		.4byte	0
 10608              	.LLST91:
 10609 186c 00000000 		.4byte	.LVL391
 10610 1870 0B000000 		.4byte	.LVL392-1
 10611 1874 0100     		.2byte	0x1
 10612 1876 52       		.byte	0x52
 10613 1877 0B000000 		.4byte	.LVL392-1
 10614 187b 5C000000 		.4byte	.LFE34
 10615 187f 0400     		.2byte	0x4
 10616 1881 F3       		.byte	0xf3
 10617 1882 01       		.uleb128 0x1
 10618 1883 52       		.byte	0x52
 10619 1884 9F       		.byte	0x9f
 10620 1885 00000000 		.4byte	0
 10621 1889 00000000 		.4byte	0
 10622              	.LLST92:
 10623 188d 00000000 		.4byte	.LVL391
 10624 1891 0B000000 		.4byte	.LVL392-1
 10625 1895 0100     		.2byte	0x1
 10626 1897 53       		.byte	0x53
 10627 1898 0B000000 		.4byte	.LVL392-1
 10628 189c 5A000000 		.4byte	.LVL400
ARM GAS  C:\Users\Phuong\AppData\Local\Temp\ccnzvfGe.s 			page 220


 10629 18a0 0100     		.2byte	0x1
 10630 18a2 55       		.byte	0x55
 10631 18a3 5A000000 		.4byte	.LVL400
 10632 18a7 5C000000 		.4byte	.LFE34
 10633 18ab 0400     		.2byte	0x4
 10634 18ad F3       		.byte	0xf3
 10635 18ae 01       		.uleb128 0x1
 10636 18af 53       		.byte	0x53
 10637 18b0 9F       		.byte	0x9f
 10638 18b1 00000000 		.4byte	0
 10639 18b5 00000000 		.4byte	0
 10640              	.LLST93:
 10641 18b9 0C000000 		.4byte	.LVL392
 10642 18bd 12000000 		.4byte	.LVL393
 10643 18c1 0100     		.2byte	0x1
 10644 18c3 50       		.byte	0x50
 10645 18c4 16000000 		.4byte	.LVL394
 10646 18c8 26000000 		.4byte	.LVL395
 10647 18cc 0100     		.2byte	0x1
 10648 18ce 50       		.byte	0x50
 10649 18cf 2A000000 		.4byte	.LVL396
 10650 18d3 40000000 		.4byte	.LVL397
 10651 18d7 0100     		.2byte	0x1
 10652 18d9 50       		.byte	0x50
 10653 18da 44000000 		.4byte	.LVL398
 10654 18de 5C000000 		.4byte	.LFE34
 10655 18e2 0100     		.2byte	0x1
 10656 18e4 50       		.byte	0x50
 10657 18e5 00000000 		.4byte	0
 10658 18e9 00000000 		.4byte	0
 10659              	.LLST94:
 10660 18ed 00000000 		.4byte	.LVL401
 10661 18f1 14000000 		.4byte	.LVL402
 10662 18f5 0100     		.2byte	0x1
 10663 18f7 50       		.byte	0x50
 10664 18f8 14000000 		.4byte	.LVL402
 10665 18fc 38000000 		.4byte	.LVL407
 10666 1900 0400     		.2byte	0x4
 10667 1902 F3       		.byte	0xf3
 10668 1903 01       		.uleb128 0x1
 10669 1904 50       		.byte	0x50
 10670 1905 9F       		.byte	0x9f
 10671 1906 38000000 		.4byte	.LVL407
 10672 190a 44000000 		.4byte	.LVL408
 10673 190e 0100     		.2byte	0x1
 10674 1910 50       		.byte	0x50
 10675 1911 44000000 		.4byte	.LVL408
 10676 1915 66000000 		.4byte	.LVL413
 10677 1919 0400     		.2byte	0x4
 10678 191b F3       		.byte	0xf3
 10679 191c 01       		.uleb128 0x1
 10680 191d 50       		.byte	0x50
 10681 191e 9F       		.byte	0x9f
 10682 191f 66000000 		.4byte	.LVL413
 10683 1923 80000000 		.4byte	.LVL415
 10684 1927 0100     		.2byte	0x1
 10685 1929 50       		.byte	0x50
ARM GAS  C:\Users\Phuong\AppData\Local\Temp\ccnzvfGe.s 			page 221


 10686 192a 80000000 		.4byte	.LVL415
 10687 192e 9A000000 		.4byte	.LVL418
 10688 1932 0400     		.2byte	0x4
 10689 1934 F3       		.byte	0xf3
 10690 1935 01       		.uleb128 0x1
 10691 1936 50       		.byte	0x50
 10692 1937 9F       		.byte	0x9f
 10693 1938 9A000000 		.4byte	.LVL418
 10694 193c 9C000000 		.4byte	.LVL419
 10695 1940 0100     		.2byte	0x1
 10696 1942 50       		.byte	0x50
 10697 1943 9C000000 		.4byte	.LVL419
 10698 1947 9E000000 		.4byte	.LVL420
 10699 194b 0400     		.2byte	0x4
 10700 194d F3       		.byte	0xf3
 10701 194e 01       		.uleb128 0x1
 10702 194f 50       		.byte	0x50
 10703 1950 9F       		.byte	0x9f
 10704 1951 9E000000 		.4byte	.LVL420
 10705 1955 A0000000 		.4byte	.LVL421
 10706 1959 0100     		.2byte	0x1
 10707 195b 50       		.byte	0x50
 10708 195c A0000000 		.4byte	.LVL421
 10709 1960 A2000000 		.4byte	.LVL422
 10710 1964 0400     		.2byte	0x4
 10711 1966 F3       		.byte	0xf3
 10712 1967 01       		.uleb128 0x1
 10713 1968 50       		.byte	0x50
 10714 1969 9F       		.byte	0x9f
 10715 196a A2000000 		.4byte	.LVL422
 10716 196e A4000000 		.4byte	.LVL423
 10717 1972 0100     		.2byte	0x1
 10718 1974 50       		.byte	0x50
 10719 1975 A4000000 		.4byte	.LVL423
 10720 1979 B0000000 		.4byte	.LFE35
 10721 197d 0400     		.2byte	0x4
 10722 197f F3       		.byte	0xf3
 10723 1980 01       		.uleb128 0x1
 10724 1981 50       		.byte	0x50
 10725 1982 9F       		.byte	0x9f
 10726 1983 00000000 		.4byte	0
 10727 1987 00000000 		.4byte	0
 10728              	.LLST95:
 10729 198b 00000000 		.4byte	.LVL401
 10730 198f 32000000 		.4byte	.LVL405
 10731 1993 0100     		.2byte	0x1
 10732 1995 51       		.byte	0x51
 10733 1996 32000000 		.4byte	.LVL405
 10734 199a 35000000 		.4byte	.LVL406-1
 10735 199e 0100     		.2byte	0x1
 10736 19a0 53       		.byte	0x53
 10737 19a1 35000000 		.4byte	.LVL406-1
 10738 19a5 38000000 		.4byte	.LVL407
 10739 19a9 0400     		.2byte	0x4
 10740 19ab F3       		.byte	0xf3
 10741 19ac 01       		.uleb128 0x1
 10742 19ad 51       		.byte	0x51
ARM GAS  C:\Users\Phuong\AppData\Local\Temp\ccnzvfGe.s 			page 222


 10743 19ae 9F       		.byte	0x9f
 10744 19af 38000000 		.4byte	.LVL407
 10745 19b3 60000000 		.4byte	.LVL411
 10746 19b7 0100     		.2byte	0x1
 10747 19b9 51       		.byte	0x51
 10748 19ba 60000000 		.4byte	.LVL411
 10749 19be 63000000 		.4byte	.LVL412-1
 10750 19c2 0100     		.2byte	0x1
 10751 19c4 52       		.byte	0x52
 10752 19c5 63000000 		.4byte	.LVL412-1
 10753 19c9 66000000 		.4byte	.LVL413
 10754 19cd 0400     		.2byte	0x4
 10755 19cf F3       		.byte	0xf3
 10756 19d0 01       		.uleb128 0x1
 10757 19d1 51       		.byte	0x51
 10758 19d2 9F       		.byte	0x9f
 10759 19d3 66000000 		.4byte	.LVL413
 10760 19d7 94000000 		.4byte	.LVL416
 10761 19db 0100     		.2byte	0x1
 10762 19dd 51       		.byte	0x51
 10763 19de 94000000 		.4byte	.LVL416
 10764 19e2 97000000 		.4byte	.LVL417-1
 10765 19e6 0100     		.2byte	0x1
 10766 19e8 52       		.byte	0x52
 10767 19e9 97000000 		.4byte	.LVL417-1
 10768 19ed 9A000000 		.4byte	.LVL418
 10769 19f1 0400     		.2byte	0x4
 10770 19f3 F3       		.byte	0xf3
 10771 19f4 01       		.uleb128 0x1
 10772 19f5 51       		.byte	0x51
 10773 19f6 9F       		.byte	0x9f
 10774 19f7 9A000000 		.4byte	.LVL418
 10775 19fb A4000000 		.4byte	.LVL423
 10776 19ff 0100     		.2byte	0x1
 10777 1a01 51       		.byte	0x51
 10778 1a02 A4000000 		.4byte	.LVL423
 10779 1a06 B0000000 		.4byte	.LFE35
 10780 1a0a 0400     		.2byte	0x4
 10781 1a0c F3       		.byte	0xf3
 10782 1a0d 01       		.uleb128 0x1
 10783 1a0e 51       		.byte	0x51
 10784 1a0f 9F       		.byte	0x9f
 10785 1a10 00000000 		.4byte	0
 10786 1a14 00000000 		.4byte	0
 10787              	.LLST96:
 10788 1a18 00000000 		.4byte	.LVL401
 10789 1a1c 30000000 		.4byte	.LVL404
 10790 1a20 0100     		.2byte	0x1
 10791 1a22 52       		.byte	0x52
 10792 1a23 30000000 		.4byte	.LVL404
 10793 1a27 35000000 		.4byte	.LVL406-1
 10794 1a2b 0200     		.2byte	0x2
 10795 1a2d 7D       		.byte	0x7d
 10796 1a2e 00       		.sleb128 0
 10797 1a2f 35000000 		.4byte	.LVL406-1
 10798 1a33 38000000 		.4byte	.LVL407
 10799 1a37 0400     		.2byte	0x4
ARM GAS  C:\Users\Phuong\AppData\Local\Temp\ccnzvfGe.s 			page 223


 10800 1a39 F3       		.byte	0xf3
 10801 1a3a 01       		.uleb128 0x1
 10802 1a3b 52       		.byte	0x52
 10803 1a3c 9F       		.byte	0x9f
 10804 1a3d 38000000 		.4byte	.LVL407
 10805 1a41 5E000000 		.4byte	.LVL410
 10806 1a45 0100     		.2byte	0x1
 10807 1a47 52       		.byte	0x52
 10808 1a48 5E000000 		.4byte	.LVL410
 10809 1a4c 63000000 		.4byte	.LVL412-1
 10810 1a50 0100     		.2byte	0x1
 10811 1a52 53       		.byte	0x53
 10812 1a53 63000000 		.4byte	.LVL412-1
 10813 1a57 66000000 		.4byte	.LVL413
 10814 1a5b 0400     		.2byte	0x4
 10815 1a5d F3       		.byte	0xf3
 10816 1a5e 01       		.uleb128 0x1
 10817 1a5f 52       		.byte	0x52
 10818 1a60 9F       		.byte	0x9f
 10819 1a61 66000000 		.4byte	.LVL413
 10820 1a65 74000000 		.4byte	.LVL414
 10821 1a69 0100     		.2byte	0x1
 10822 1a6b 52       		.byte	0x52
 10823 1a6c 74000000 		.4byte	.LVL414
 10824 1a70 9A000000 		.4byte	.LVL418
 10825 1a74 0400     		.2byte	0x4
 10826 1a76 F3       		.byte	0xf3
 10827 1a77 01       		.uleb128 0x1
 10828 1a78 52       		.byte	0x52
 10829 1a79 9F       		.byte	0x9f
 10830 1a7a 9A000000 		.4byte	.LVL418
 10831 1a7e A2000000 		.4byte	.LVL422
 10832 1a82 0100     		.2byte	0x1
 10833 1a84 52       		.byte	0x52
 10834 1a85 A2000000 		.4byte	.LVL422
 10835 1a89 B0000000 		.4byte	.LFE35
 10836 1a8d 0400     		.2byte	0x4
 10837 1a8f F3       		.byte	0xf3
 10838 1a90 01       		.uleb128 0x1
 10839 1a91 52       		.byte	0x52
 10840 1a92 9F       		.byte	0x9f
 10841 1a93 00000000 		.4byte	0
 10842 1a97 00000000 		.4byte	0
 10843              	.LLST97:
 10844 1a9b 00000000 		.4byte	.LVL401
 10845 1a9f 2E000000 		.4byte	.LVL403
 10846 1aa3 0100     		.2byte	0x1
 10847 1aa5 53       		.byte	0x53
 10848 1aa6 2E000000 		.4byte	.LVL403
 10849 1aaa 35000000 		.4byte	.LVL406-1
 10850 1aae 0200     		.2byte	0x2
 10851 1ab0 91       		.byte	0x91
 10852 1ab1 54       		.sleb128 -44
 10853 1ab2 35000000 		.4byte	.LVL406-1
 10854 1ab6 38000000 		.4byte	.LVL407
 10855 1aba 0400     		.2byte	0x4
 10856 1abc F3       		.byte	0xf3
ARM GAS  C:\Users\Phuong\AppData\Local\Temp\ccnzvfGe.s 			page 224


 10857 1abd 01       		.uleb128 0x1
 10858 1abe 53       		.byte	0x53
 10859 1abf 9F       		.byte	0x9f
 10860 1ac0 38000000 		.4byte	.LVL407
 10861 1ac4 5C000000 		.4byte	.LVL409
 10862 1ac8 0100     		.2byte	0x1
 10863 1aca 53       		.byte	0x53
 10864 1acb 5C000000 		.4byte	.LVL409
 10865 1acf 63000000 		.4byte	.LVL412-1
 10866 1ad3 0200     		.2byte	0x2
 10867 1ad5 7D       		.byte	0x7d
 10868 1ad6 00       		.sleb128 0
 10869 1ad7 63000000 		.4byte	.LVL412-1
 10870 1adb 66000000 		.4byte	.LVL413
 10871 1adf 0400     		.2byte	0x4
 10872 1ae1 F3       		.byte	0xf3
 10873 1ae2 01       		.uleb128 0x1
 10874 1ae3 53       		.byte	0x53
 10875 1ae4 9F       		.byte	0x9f
 10876 1ae5 66000000 		.4byte	.LVL413
 10877 1ae9 97000000 		.4byte	.LVL417-1
 10878 1aed 0100     		.2byte	0x1
 10879 1aef 53       		.byte	0x53
 10880 1af0 97000000 		.4byte	.LVL417-1
 10881 1af4 9A000000 		.4byte	.LVL418
 10882 1af8 0400     		.2byte	0x4
 10883 1afa F3       		.byte	0xf3
 10884 1afb 01       		.uleb128 0x1
 10885 1afc 53       		.byte	0x53
 10886 1afd 9F       		.byte	0x9f
 10887 1afe 9A000000 		.4byte	.LVL418
 10888 1b02 A4000000 		.4byte	.LVL423
 10889 1b06 0100     		.2byte	0x1
 10890 1b08 53       		.byte	0x53
 10891 1b09 A4000000 		.4byte	.LVL423
 10892 1b0d B0000000 		.4byte	.LFE35
 10893 1b11 0400     		.2byte	0x4
 10894 1b13 F3       		.byte	0xf3
 10895 1b14 01       		.uleb128 0x1
 10896 1b15 53       		.byte	0x53
 10897 1b16 9F       		.byte	0x9f
 10898 1b17 00000000 		.4byte	0
 10899 1b1b 00000000 		.4byte	0
 10900              	.LLST98:
 10901 1b1f 00000000 		.4byte	.LVL424
 10902 1b23 14000000 		.4byte	.LVL425
 10903 1b27 0100     		.2byte	0x1
 10904 1b29 50       		.byte	0x50
 10905 1b2a 14000000 		.4byte	.LVL425
 10906 1b2e 3C000000 		.4byte	.LVL430
 10907 1b32 0400     		.2byte	0x4
 10908 1b34 F3       		.byte	0xf3
 10909 1b35 01       		.uleb128 0x1
 10910 1b36 50       		.byte	0x50
 10911 1b37 9F       		.byte	0x9f
 10912 1b38 3C000000 		.4byte	.LVL430
 10913 1b3c 48000000 		.4byte	.LVL431
ARM GAS  C:\Users\Phuong\AppData\Local\Temp\ccnzvfGe.s 			page 225


 10914 1b40 0100     		.2byte	0x1
 10915 1b42 50       		.byte	0x50
 10916 1b43 48000000 		.4byte	.LVL431
 10917 1b47 70000000 		.4byte	.LVL436
 10918 1b4b 0400     		.2byte	0x4
 10919 1b4d F3       		.byte	0xf3
 10920 1b4e 01       		.uleb128 0x1
 10921 1b4f 50       		.byte	0x50
 10922 1b50 9F       		.byte	0x9f
 10923 1b51 70000000 		.4byte	.LVL436
 10924 1b55 8A000000 		.4byte	.LVL438
 10925 1b59 0100     		.2byte	0x1
 10926 1b5b 50       		.byte	0x50
 10927 1b5c 8A000000 		.4byte	.LVL438
 10928 1b60 B2000000 		.4byte	.LVL445
 10929 1b64 0400     		.2byte	0x4
 10930 1b66 F3       		.byte	0xf3
 10931 1b67 01       		.uleb128 0x1
 10932 1b68 50       		.byte	0x50
 10933 1b69 9F       		.byte	0x9f
 10934 1b6a B2000000 		.4byte	.LVL445
 10935 1b6e B4000000 		.4byte	.LVL446
 10936 1b72 0100     		.2byte	0x1
 10937 1b74 50       		.byte	0x50
 10938 1b75 B4000000 		.4byte	.LVL446
 10939 1b79 B6000000 		.4byte	.LVL447
 10940 1b7d 0400     		.2byte	0x4
 10941 1b7f F3       		.byte	0xf3
 10942 1b80 01       		.uleb128 0x1
 10943 1b81 50       		.byte	0x50
 10944 1b82 9F       		.byte	0x9f
 10945 1b83 B6000000 		.4byte	.LVL447
 10946 1b87 B8000000 		.4byte	.LVL448
 10947 1b8b 0100     		.2byte	0x1
 10948 1b8d 50       		.byte	0x50
 10949 1b8e B8000000 		.4byte	.LVL448
 10950 1b92 BA000000 		.4byte	.LVL449
 10951 1b96 0400     		.2byte	0x4
 10952 1b98 F3       		.byte	0xf3
 10953 1b99 01       		.uleb128 0x1
 10954 1b9a 50       		.byte	0x50
 10955 1b9b 9F       		.byte	0x9f
 10956 1b9c BA000000 		.4byte	.LVL449
 10957 1ba0 BC000000 		.4byte	.LVL450
 10958 1ba4 0100     		.2byte	0x1
 10959 1ba6 50       		.byte	0x50
 10960 1ba7 BC000000 		.4byte	.LVL450
 10961 1bab D0000000 		.4byte	.LFE36
 10962 1baf 0400     		.2byte	0x4
 10963 1bb1 F3       		.byte	0xf3
 10964 1bb2 01       		.uleb128 0x1
 10965 1bb3 50       		.byte	0x50
 10966 1bb4 9F       		.byte	0x9f
 10967 1bb5 00000000 		.4byte	0
 10968 1bb9 00000000 		.4byte	0
 10969              	.LLST99:
 10970 1bbd 00000000 		.4byte	.LVL424
ARM GAS  C:\Users\Phuong\AppData\Local\Temp\ccnzvfGe.s 			page 226


 10971 1bc1 30000000 		.4byte	.LVL428
 10972 1bc5 0100     		.2byte	0x1
 10973 1bc7 51       		.byte	0x51
 10974 1bc8 30000000 		.4byte	.LVL428
 10975 1bcc 33000000 		.4byte	.LVL429-1
 10976 1bd0 0100     		.2byte	0x1
 10977 1bd2 52       		.byte	0x52
 10978 1bd3 33000000 		.4byte	.LVL429-1
 10979 1bd7 3C000000 		.4byte	.LVL430
 10980 1bdb 0400     		.2byte	0x4
 10981 1bdd F3       		.byte	0xf3
 10982 1bde 01       		.uleb128 0x1
 10983 1bdf 51       		.byte	0x51
 10984 1be0 9F       		.byte	0x9f
 10985 1be1 3C000000 		.4byte	.LVL430
 10986 1be5 64000000 		.4byte	.LVL434
 10987 1be9 0100     		.2byte	0x1
 10988 1beb 51       		.byte	0x51
 10989 1bec 64000000 		.4byte	.LVL434
 10990 1bf0 67000000 		.4byte	.LVL435-1
 10991 1bf4 0100     		.2byte	0x1
 10992 1bf6 52       		.byte	0x52
 10993 1bf7 67000000 		.4byte	.LVL435-1
 10994 1bfb 70000000 		.4byte	.LVL436
 10995 1bff 0400     		.2byte	0x4
 10996 1c01 F3       		.byte	0xf3
 10997 1c02 01       		.uleb128 0x1
 10998 1c03 51       		.byte	0x51
 10999 1c04 9F       		.byte	0x9f
 11000 1c05 70000000 		.4byte	.LVL436
 11001 1c09 9E000000 		.4byte	.LVL439
 11002 1c0d 0100     		.2byte	0x1
 11003 1c0f 51       		.byte	0x51
 11004 1c10 9E000000 		.4byte	.LVL439
 11005 1c14 A1000000 		.4byte	.LVL440-1
 11006 1c18 0100     		.2byte	0x1
 11007 1c1a 52       		.byte	0x52
 11008 1c1b A1000000 		.4byte	.LVL440-1
 11009 1c1f B2000000 		.4byte	.LVL445
 11010 1c23 0400     		.2byte	0x4
 11011 1c25 F3       		.byte	0xf3
 11012 1c26 01       		.uleb128 0x1
 11013 1c27 51       		.byte	0x51
 11014 1c28 9F       		.byte	0x9f
 11015 1c29 B2000000 		.4byte	.LVL445
 11016 1c2d BE000000 		.4byte	.LVL451
 11017 1c31 0100     		.2byte	0x1
 11018 1c33 51       		.byte	0x51
 11019 1c34 BE000000 		.4byte	.LVL451
 11020 1c38 D0000000 		.4byte	.LFE36
 11021 1c3c 0400     		.2byte	0x4
 11022 1c3e F3       		.byte	0xf3
 11023 1c3f 01       		.uleb128 0x1
 11024 1c40 51       		.byte	0x51
 11025 1c41 9F       		.byte	0x9f
 11026 1c42 00000000 		.4byte	0
 11027 1c46 00000000 		.4byte	0
ARM GAS  C:\Users\Phuong\AppData\Local\Temp\ccnzvfGe.s 			page 227


 11028              	.LLST100:
 11029 1c4a 00000000 		.4byte	.LVL424
 11030 1c4e 2E000000 		.4byte	.LVL427
 11031 1c52 0100     		.2byte	0x1
 11032 1c54 52       		.byte	0x52
 11033 1c55 2E000000 		.4byte	.LVL427
 11034 1c59 33000000 		.4byte	.LVL429-1
 11035 1c5d 0100     		.2byte	0x1
 11036 1c5f 53       		.byte	0x53
 11037 1c60 33000000 		.4byte	.LVL429-1
 11038 1c64 3C000000 		.4byte	.LVL430
 11039 1c68 0400     		.2byte	0x4
 11040 1c6a F3       		.byte	0xf3
 11041 1c6b 01       		.uleb128 0x1
 11042 1c6c 52       		.byte	0x52
 11043 1c6d 9F       		.byte	0x9f
 11044 1c6e 3C000000 		.4byte	.LVL430
 11045 1c72 62000000 		.4byte	.LVL433
 11046 1c76 0100     		.2byte	0x1
 11047 1c78 52       		.byte	0x52
 11048 1c79 62000000 		.4byte	.LVL433
 11049 1c7d 67000000 		.4byte	.LVL435-1
 11050 1c81 0100     		.2byte	0x1
 11051 1c83 53       		.byte	0x53
 11052 1c84 67000000 		.4byte	.LVL435-1
 11053 1c88 70000000 		.4byte	.LVL436
 11054 1c8c 0400     		.2byte	0x4
 11055 1c8e F3       		.byte	0xf3
 11056 1c8f 01       		.uleb128 0x1
 11057 1c90 52       		.byte	0x52
 11058 1c91 9F       		.byte	0x9f
 11059 1c92 70000000 		.4byte	.LVL436
 11060 1c96 7E000000 		.4byte	.LVL437
 11061 1c9a 0100     		.2byte	0x1
 11062 1c9c 52       		.byte	0x52
 11063 1c9d 7E000000 		.4byte	.LVL437
 11064 1ca1 B2000000 		.4byte	.LVL445
 11065 1ca5 0400     		.2byte	0x4
 11066 1ca7 F3       		.byte	0xf3
 11067 1ca8 01       		.uleb128 0x1
 11068 1ca9 52       		.byte	0x52
 11069 1caa 9F       		.byte	0x9f
 11070 1cab B2000000 		.4byte	.LVL445
 11071 1caf BA000000 		.4byte	.LVL449
 11072 1cb3 0100     		.2byte	0x1
 11073 1cb5 52       		.byte	0x52
 11074 1cb6 BA000000 		.4byte	.LVL449
 11075 1cba D0000000 		.4byte	.LFE36
 11076 1cbe 0400     		.2byte	0x4
 11077 1cc0 F3       		.byte	0xf3
 11078 1cc1 01       		.uleb128 0x1
 11079 1cc2 52       		.byte	0x52
 11080 1cc3 9F       		.byte	0x9f
 11081 1cc4 00000000 		.4byte	0
 11082 1cc8 00000000 		.4byte	0
 11083              	.LLST101:
 11084 1ccc 00000000 		.4byte	.LVL424
ARM GAS  C:\Users\Phuong\AppData\Local\Temp\ccnzvfGe.s 			page 228


 11085 1cd0 2C000000 		.4byte	.LVL426
 11086 1cd4 0100     		.2byte	0x1
 11087 1cd6 53       		.byte	0x53
 11088 1cd7 2C000000 		.4byte	.LVL426
 11089 1cdb 33000000 		.4byte	.LVL429-1
 11090 1cdf 0200     		.2byte	0x2
 11091 1ce1 7D       		.byte	0x7d
 11092 1ce2 00       		.sleb128 0
 11093 1ce3 33000000 		.4byte	.LVL429-1
 11094 1ce7 3C000000 		.4byte	.LVL430
 11095 1ceb 0400     		.2byte	0x4
 11096 1ced F3       		.byte	0xf3
 11097 1cee 01       		.uleb128 0x1
 11098 1cef 53       		.byte	0x53
 11099 1cf0 9F       		.byte	0x9f
 11100 1cf1 3C000000 		.4byte	.LVL430
 11101 1cf5 60000000 		.4byte	.LVL432
 11102 1cf9 0100     		.2byte	0x1
 11103 1cfb 53       		.byte	0x53
 11104 1cfc 60000000 		.4byte	.LVL432
 11105 1d00 67000000 		.4byte	.LVL435-1
 11106 1d04 0200     		.2byte	0x2
 11107 1d06 7D       		.byte	0x7d
 11108 1d07 00       		.sleb128 0
 11109 1d08 67000000 		.4byte	.LVL435-1
 11110 1d0c 70000000 		.4byte	.LVL436
 11111 1d10 0400     		.2byte	0x4
 11112 1d12 F3       		.byte	0xf3
 11113 1d13 01       		.uleb128 0x1
 11114 1d14 53       		.byte	0x53
 11115 1d15 9F       		.byte	0x9f
 11116 1d16 70000000 		.4byte	.LVL436
 11117 1d1a A1000000 		.4byte	.LVL440-1
 11118 1d1e 0100     		.2byte	0x1
 11119 1d20 53       		.byte	0x53
 11120 1d21 A1000000 		.4byte	.LVL440-1
 11121 1d25 B2000000 		.4byte	.LVL445
 11122 1d29 0400     		.2byte	0x4
 11123 1d2b F3       		.byte	0xf3
 11124 1d2c 01       		.uleb128 0x1
 11125 1d2d 53       		.byte	0x53
 11126 1d2e 9F       		.byte	0x9f
 11127 1d2f B2000000 		.4byte	.LVL445
 11128 1d33 BE000000 		.4byte	.LVL451
 11129 1d37 0100     		.2byte	0x1
 11130 1d39 53       		.byte	0x53
 11131 1d3a BE000000 		.4byte	.LVL451
 11132 1d3e D0000000 		.4byte	.LFE36
 11133 1d42 0400     		.2byte	0x4
 11134 1d44 F3       		.byte	0xf3
 11135 1d45 01       		.uleb128 0x1
 11136 1d46 53       		.byte	0x53
 11137 1d47 9F       		.byte	0x9f
 11138 1d48 00000000 		.4byte	0
 11139 1d4c 00000000 		.4byte	0
 11140              	.LLST102:
 11141 1d50 34000000 		.4byte	.LVL429
ARM GAS  C:\Users\Phuong\AppData\Local\Temp\ccnzvfGe.s 			page 229


 11142 1d54 3C000000 		.4byte	.LVL430
 11143 1d58 0100     		.2byte	0x1
 11144 1d5a 50       		.byte	0x50
 11145 1d5b AA000000 		.4byte	.LVL441
 11146 1d5f AC000000 		.4byte	.LVL442
 11147 1d63 0100     		.2byte	0x1
 11148 1d65 50       		.byte	0x50
 11149 1d66 00000000 		.4byte	0
 11150 1d6a 00000000 		.4byte	0
 11151              	.LLST103:
 11152 1d6e 68000000 		.4byte	.LVL435
 11153 1d72 70000000 		.4byte	.LVL436
 11154 1d76 0100     		.2byte	0x1
 11155 1d78 50       		.byte	0x50
 11156 1d79 AE000000 		.4byte	.LVL443
 11157 1d7d B0000000 		.4byte	.LVL444
 11158 1d81 0100     		.2byte	0x1
 11159 1d83 50       		.byte	0x50
 11160 1d84 00000000 		.4byte	0
 11161 1d88 00000000 		.4byte	0
 11162              	.LLST104:
 11163 1d8c A2000000 		.4byte	.LVL440
 11164 1d90 AA000000 		.4byte	.LVL441
 11165 1d94 0100     		.2byte	0x1
 11166 1d96 50       		.byte	0x50
 11167 1d97 BE000000 		.4byte	.LVL451
 11168 1d9b C0000000 		.4byte	.LVL452
 11169 1d9f 0100     		.2byte	0x1
 11170 1da1 50       		.byte	0x50
 11171 1da2 00000000 		.4byte	0
 11172 1da6 00000000 		.4byte	0
 11173              		.section	.debug_aranges,"",%progbits
 11174 0000 FC000000 		.4byte	0xfc
 11175 0004 0200     		.2byte	0x2
 11176 0006 00000000 		.4byte	.Ldebug_info0
 11177 000a 04       		.byte	0x4
 11178 000b 00       		.byte	0
 11179 000c 0000     		.2byte	0
 11180 000e 0000     		.2byte	0
 11181 0010 00000000 		.4byte	.LFB8
 11182 0014 1A000000 		.4byte	.LFE8-.LFB8
 11183 0018 00000000 		.4byte	.LFB21
 11184 001c 16000000 		.4byte	.LFE21-.LFB21
 11185 0020 00000000 		.4byte	.LFB22
 11186 0024 58000000 		.4byte	.LFE22-.LFB22
 11187 0028 00000000 		.4byte	.LFB23
 11188 002c 1E000000 		.4byte	.LFE23-.LFB23
 11189 0030 00000000 		.4byte	.LFB24
 11190 0034 60000000 		.4byte	.LFE24-.LFB24
 11191 0038 00000000 		.4byte	.LFB25
 11192 003c 20000000 		.4byte	.LFE25-.LFB25
 11193 0040 00000000 		.4byte	.LFB26
 11194 0044 54000000 		.4byte	.LFE26-.LFB26
 11195 0048 00000000 		.4byte	.LFB27
 11196 004c 12000000 		.4byte	.LFE27-.LFB27
 11197 0050 00000000 		.4byte	.LFB28
 11198 0054 40000000 		.4byte	.LFE28-.LFB28
ARM GAS  C:\Users\Phuong\AppData\Local\Temp\ccnzvfGe.s 			page 230


 11199 0058 00000000 		.4byte	.LFB29
 11200 005c 1C000000 		.4byte	.LFE29-.LFB29
 11201 0060 00000000 		.4byte	.LFB9
 11202 0064 38000000 		.4byte	.LFE9-.LFB9
 11203 0068 00000000 		.4byte	.LFB10
 11204 006c 1C000000 		.4byte	.LFE10-.LFB10
 11205 0070 00000000 		.4byte	.LFB11
 11206 0074 2C000000 		.4byte	.LFE11-.LFB11
 11207 0078 00000000 		.4byte	.LFB12
 11208 007c 2C000000 		.4byte	.LFE12-.LFB12
 11209 0080 00000000 		.4byte	.LFB13
 11210 0084 0C000000 		.4byte	.LFE13-.LFB13
 11211 0088 00000000 		.4byte	.LFB14
 11212 008c 1E000000 		.4byte	.LFE14-.LFB14
 11213 0090 00000000 		.4byte	.LFB16
 11214 0094 5C000000 		.4byte	.LFE16-.LFB16
 11215 0098 00000000 		.4byte	.LFB17
 11216 009c 88000000 		.4byte	.LFE17-.LFB17
 11217 00a0 00000000 		.4byte	.LFB18
 11218 00a4 20000000 		.4byte	.LFE18-.LFB18
 11219 00a8 00000000 		.4byte	.LFB19
 11220 00ac 70000000 		.4byte	.LFE19-.LFB19
 11221 00b0 00000000 		.4byte	.LFB20
 11222 00b4 B8020000 		.4byte	.LFE20-.LFB20
 11223 00b8 00000000 		.4byte	.LFB30
 11224 00bc 70010000 		.4byte	.LFE30-.LFB30
 11225 00c0 00000000 		.4byte	.LFB31
 11226 00c4 90000000 		.4byte	.LFE31-.LFB31
 11227 00c8 00000000 		.4byte	.LFB15
 11228 00cc 44000000 		.4byte	.LFE15-.LFB15
 11229 00d0 00000000 		.4byte	.LFB32
 11230 00d4 54000000 		.4byte	.LFE32-.LFB32
 11231 00d8 00000000 		.4byte	.LFB33
 11232 00dc 90000000 		.4byte	.LFE33-.LFB33
 11233 00e0 00000000 		.4byte	.LFB34
 11234 00e4 5C000000 		.4byte	.LFE34-.LFB34
 11235 00e8 00000000 		.4byte	.LFB35
 11236 00ec B0000000 		.4byte	.LFE35-.LFB35
 11237 00f0 00000000 		.4byte	.LFB36
 11238 00f4 D0000000 		.4byte	.LFE36-.LFB36
 11239 00f8 00000000 		.4byte	0
 11240 00fc 00000000 		.4byte	0
 11241              		.section	.debug_ranges,"",%progbits
 11242              	.Ldebug_ranges0:
 11243 0000 C2000000 		.4byte	.LBB19
 11244 0004 DC010000 		.4byte	.LBE19
 11245 0008 94020000 		.4byte	.LBB20
 11246 000c 9C020000 		.4byte	.LBE20
 11247 0010 00000000 		.4byte	0
 11248 0014 00000000 		.4byte	0
 11249 0018 5A000000 		.4byte	.LBB21
 11250 001c 30010000 		.4byte	.LBE21
 11251 0020 54010000 		.4byte	.LBB32
 11252 0024 5E010000 		.4byte	.LBE32
 11253 0028 00000000 		.4byte	0
 11254 002c 00000000 		.4byte	0
 11255 0030 0C000000 		.4byte	.LBB33
ARM GAS  C:\Users\Phuong\AppData\Local\Temp\ccnzvfGe.s 			page 231


 11256 0034 3C000000 		.4byte	.LBE33
 11257 0038 AA000000 		.4byte	.LBB36
 11258 003c AE000000 		.4byte	.LBE36
 11259 0040 00000000 		.4byte	0
 11260 0044 00000000 		.4byte	0
 11261 0048 40000000 		.4byte	.LBB34
 11262 004c 70000000 		.4byte	.LBE34
 11263 0050 AE000000 		.4byte	.LBB37
 11264 0054 B2000000 		.4byte	.LBE37
 11265 0058 00000000 		.4byte	0
 11266 005c 00000000 		.4byte	0
 11267 0060 76000000 		.4byte	.LBB35
 11268 0064 AA000000 		.4byte	.LBE35
 11269 0068 B6000000 		.4byte	.LBB38
 11270 006c C0000000 		.4byte	.LBE38
 11271 0070 00000000 		.4byte	0
 11272 0074 00000000 		.4byte	0
 11273 0078 00000000 		.4byte	.LFB8
 11274 007c 1A000000 		.4byte	.LFE8
 11275 0080 00000000 		.4byte	.LFB21
 11276 0084 16000000 		.4byte	.LFE21
 11277 0088 00000000 		.4byte	.LFB22
 11278 008c 58000000 		.4byte	.LFE22
 11279 0090 00000000 		.4byte	.LFB23
 11280 0094 1E000000 		.4byte	.LFE23
 11281 0098 00000000 		.4byte	.LFB24
 11282 009c 60000000 		.4byte	.LFE24
 11283 00a0 00000000 		.4byte	.LFB25
 11284 00a4 20000000 		.4byte	.LFE25
 11285 00a8 00000000 		.4byte	.LFB26
 11286 00ac 54000000 		.4byte	.LFE26
 11287 00b0 00000000 		.4byte	.LFB27
 11288 00b4 12000000 		.4byte	.LFE27
 11289 00b8 00000000 		.4byte	.LFB28
 11290 00bc 40000000 		.4byte	.LFE28
 11291 00c0 00000000 		.4byte	.LFB29
 11292 00c4 1C000000 		.4byte	.LFE29
 11293 00c8 00000000 		.4byte	.LFB9
 11294 00cc 38000000 		.4byte	.LFE9
 11295 00d0 00000000 		.4byte	.LFB10
 11296 00d4 1C000000 		.4byte	.LFE10
 11297 00d8 00000000 		.4byte	.LFB11
 11298 00dc 2C000000 		.4byte	.LFE11
 11299 00e0 00000000 		.4byte	.LFB12
 11300 00e4 2C000000 		.4byte	.LFE12
 11301 00e8 00000000 		.4byte	.LFB13
 11302 00ec 0C000000 		.4byte	.LFE13
 11303 00f0 00000000 		.4byte	.LFB14
 11304 00f4 1E000000 		.4byte	.LFE14
 11305 00f8 00000000 		.4byte	.LFB16
 11306 00fc 5C000000 		.4byte	.LFE16
 11307 0100 00000000 		.4byte	.LFB17
 11308 0104 88000000 		.4byte	.LFE17
 11309 0108 00000000 		.4byte	.LFB18
 11310 010c 20000000 		.4byte	.LFE18
 11311 0110 00000000 		.4byte	.LFB19
 11312 0114 70000000 		.4byte	.LFE19
ARM GAS  C:\Users\Phuong\AppData\Local\Temp\ccnzvfGe.s 			page 232


 11313 0118 00000000 		.4byte	.LFB20
 11314 011c B8020000 		.4byte	.LFE20
 11315 0120 00000000 		.4byte	.LFB30
 11316 0124 70010000 		.4byte	.LFE30
 11317 0128 00000000 		.4byte	.LFB31
 11318 012c 90000000 		.4byte	.LFE31
 11319 0130 00000000 		.4byte	.LFB15
 11320 0134 44000000 		.4byte	.LFE15
 11321 0138 00000000 		.4byte	.LFB32
 11322 013c 54000000 		.4byte	.LFE32
 11323 0140 00000000 		.4byte	.LFB33
 11324 0144 90000000 		.4byte	.LFE33
 11325 0148 00000000 		.4byte	.LFB34
 11326 014c 5C000000 		.4byte	.LFE34
 11327 0150 00000000 		.4byte	.LFB35
 11328 0154 B0000000 		.4byte	.LFE35
 11329 0158 00000000 		.4byte	.LFB36
 11330 015c D0000000 		.4byte	.LFE36
 11331 0160 00000000 		.4byte	0
 11332 0164 00000000 		.4byte	0
 11333              		.section	.debug_line,"",%progbits
 11334              	.Ldebug_line0:
 11335 0000 87080000 		.section	.debug_str,"MS",%progbits,1
 11335      0200C602 
 11335      00000201 
 11335      FB0E0D00 
 11335      01010101 
 11336              	.LASF232:
 11337 0000 6D626564 		.ascii	"mbedtls_cipher_supported\000"
 11337      746C735F 
 11337      63697068 
 11337      65725F73 
 11337      7570706F 
 11338              	.LASF171:
 11339 0019 6161645F 		.ascii	"aad_len\000"
 11339      6C656E00 
 11340              	.LASF182:
 11341 0021 70616464 		.ascii	"padding_len\000"
 11341      696E675F 
 11341      6C656E00 
 11342              	.LASF88:
 11343 002d 4D424544 		.ascii	"MBEDTLS_CIPHER_ARIA_256_GCM\000"
 11343      544C535F 
 11343      43495048 
 11343      45525F41 
 11343      5249415F 
 11344              	.LASF158:
 11345 0049 6D626564 		.ascii	"mbedtls_poly1305_context\000"
 11345      746C735F 
 11345      706F6C79 
 11345      31333035 
 11345      5F636F6E 
 11346              	.LASF146:
 11347 0062 6F706572 		.ascii	"operation\000"
 11347      6174696F 
 11347      6E00
 11348              	.LASF179:
ARM GAS  C:\Users\Phuong\AppData\Local\Temp\ccnzvfGe.s 			page 233


 11349 006c 6F757470 		.ascii	"output\000"
 11349      757400
 11350              	.LASF56:
 11351 0073 4D424544 		.ascii	"MBEDTLS_CIPHER_CAMELLIA_256_GCM\000"
 11351      544C535F 
 11351      43495048 
 11351      45525F43 
 11351      414D454C 
 11352              	.LASF64:
 11353 0093 4D424544 		.ascii	"MBEDTLS_CIPHER_BLOWFISH_CBC\000"
 11353      544C535F 
 11353      43495048 
 11353      45525F42 
 11353      4C4F5746 
 11354              	.LASF231:
 11355 00af 6D626564 		.ascii	"mbedtls_cipher_definitions\000"
 11355      746C735F 
 11355      63697068 
 11355      65725F64 
 11355      6566696E 
 11356              	.LASF105:
 11357 00ca 4D424544 		.ascii	"MBEDTLS_MODE_CTR\000"
 11357      544C535F 
 11357      4D4F4445 
 11357      5F435452 
 11357      00
 11358              	.LASF140:
 11359 00db 666C6167 		.ascii	"flags\000"
 11359      7300
 11360              	.LASF99:
 11361 00e1 6D626564 		.ascii	"mbedtls_cipher_type_t\000"
 11361      746C735F 
 11361      63697068 
 11361      65725F74 
 11361      7970655F 
 11362              	.LASF11:
 11363 00f7 756E7369 		.ascii	"unsigned int\000"
 11363      676E6564 
 11363      20696E74 
 11363      00
 11364              	.LASF130:
 11365 0104 7365746B 		.ascii	"setkey_enc_func\000"
 11365      65795F65 
 11365      6E635F66 
 11365      756E6300 
 11366              	.LASF26:
 11367 0114 4D424544 		.ascii	"MBEDTLS_CIPHER_NULL\000"
 11367      544C535F 
 11367      43495048 
 11367      45525F4E 
 11367      554C4C00 
 11368              	.LASF122:
 11369 0128 6D626564 		.ascii	"mbedtls_cipher_base_t\000"
 11369      746C735F 
 11369      63697068 
 11369      65725F62 
 11369      6173655F 
ARM GAS  C:\Users\Phuong\AppData\Local\Temp\ccnzvfGe.s 			page 234


 11370              	.LASF197:
 11371 013e 6765745F 		.ascii	"get_no_padding\000"
 11371      6E6F5F70 
 11371      61646469 
 11371      6E6700
 11372              	.LASF200:
 11373 014d 63697068 		.ascii	"cipher_type\000"
 11373      65725F74 
 11373      79706500 
 11374              	.LASF27:
 11375 0159 4D424544 		.ascii	"MBEDTLS_CIPHER_AES_128_ECB\000"
 11375      544C535F 
 11375      43495048 
 11375      45525F41 
 11375      45535F31 
 11376              	.LASF230:
 11377 0174 73757070 		.ascii	"supported_init\000"
 11377      6F727465 
 11377      645F696E 
 11377      697400
 11378              	.LASF126:
 11379 0183 6366625F 		.ascii	"cfb_func\000"
 11379      66756E63 
 11379      00
 11380              	.LASF33:
 11381 018c 4D424544 		.ascii	"MBEDTLS_CIPHER_AES_128_CFB128\000"
 11381      544C535F 
 11381      43495048 
 11381      45525F41 
 11381      45535F31 
 11382              	.LASF103:
 11383 01aa 4D424544 		.ascii	"MBEDTLS_MODE_CFB\000"
 11383      544C535F 
 11383      4D4F4445 
 11383      5F434642 
 11383      00
 11384              	.LASF80:
 11385 01bb 4D424544 		.ascii	"MBEDTLS_CIPHER_ARIA_128_CFB128\000"
 11385      544C535F 
 11385      43495048 
 11385      45525F41 
 11385      5249415F 
 11386              	.LASF188:
 11387 01da 6164645F 		.ascii	"add_pkcs_padding\000"
 11387      706B6373 
 11387      5F706164 
 11387      64696E67 
 11387      00
 11388              	.LASF74:
 11389 01eb 4D424544 		.ascii	"MBEDTLS_CIPHER_ARIA_128_ECB\000"
 11389      544C535F 
 11389      43495048 
 11389      45525F41 
 11389      5249415F 
 11390              	.LASF136:
 11391 0207 6D6F6465 		.ascii	"mode\000"
 11391      00
ARM GAS  C:\Users\Phuong\AppData\Local\Temp\ccnzvfGe.s 			page 235


 11392              	.LASF50:
 11393 020c 4D424544 		.ascii	"MBEDTLS_CIPHER_CAMELLIA_256_CFB128\000"
 11393      544C535F 
 11393      43495048 
 11393      45525F43 
 11393      414D454C 
 11394              	.LASF216:
 11395 022f 696C656E 		.ascii	"ilen\000"
 11395      00
 11396              	.LASF212:
 11397 0234 6D626564 		.ascii	"mbedtls_cipher_update_ad\000"
 11397      746C735F 
 11397      63697068 
 11397      65725F75 
 11397      70646174 
 11398              	.LASF121:
 11399 024d 6D626564 		.ascii	"mbedtls_operation_t\000"
 11399      746C735F 
 11399      6F706572 
 11399      6174696F 
 11399      6E5F7400 
 11400              	.LASF42:
 11401 0261 4D424544 		.ascii	"MBEDTLS_CIPHER_CAMELLIA_128_ECB\000"
 11401      544C535F 
 11401      43495048 
 11401      45525F43 
 11401      414D454C 
 11402              	.LASF124:
 11403 0281 6563625F 		.ascii	"ecb_func\000"
 11403      66756E63 
 11403      00
 11404              	.LASF29:
 11405 028a 4D424544 		.ascii	"MBEDTLS_CIPHER_AES_256_ECB\000"
 11405      544C535F 
 11405      43495048 
 11405      45525F41 
 11405      45535F32 
 11406              	.LASF204:
 11407 02a5 63697068 		.ascii	"cipher_id\000"
 11407      65725F69 
 11407      6400
 11408              	.LASF173:
 11409 02af 6D626564 		.ascii	"mbedtls_gcm_context\000"
 11409      746C735F 
 11409      67636D5F 
 11409      636F6E74 
 11409      65787400 
 11410              	.LASF217:
 11411 02c3 6F6C656E 		.ascii	"olen\000"
 11411      00
 11412              	.LASF201:
 11413 02c8 6D626564 		.ascii	"mbedtls_cipher_info_from_string\000"
 11413      746C735F 
 11413      63697068 
 11413      65725F69 
 11413      6E666F5F 
 11414              	.LASF59:
ARM GAS  C:\Users\Phuong\AppData\Local\Temp\ccnzvfGe.s 			page 236


 11415 02e8 4D424544 		.ascii	"MBEDTLS_CIPHER_DES_EDE_ECB\000"
 11415      544C535F 
 11415      43495048 
 11415      45525F44 
 11415      45535F45 
 11416              	.LASF235:
 11417 0303 6D626564 		.ascii	"mbedtls_chacha20_starts\000"
 11417      746C735F 
 11417      63686163 
 11417      68613230 
 11417      5F737461 
 11418              	.LASF156:
 11419 031b 75696E74 		.ascii	"uint32_t\000"
 11419      33325F74 
 11419      00
 11420              	.LASF117:
 11421 0324 6D626564 		.ascii	"mbedtls_cipher_padding_t\000"
 11421      746C735F 
 11421      63697068 
 11421      65725F70 
 11421      61646469 
 11422              	.LASF244:
 11423 033d 6D626564 		.ascii	"mbedtls_chachapoly_finish\000"
 11423      746C735F 
 11423      63686163 
 11423      6861706F 
 11423      6C795F66 
 11424              	.LASF116:
 11425 0357 4D424544 		.ascii	"MBEDTLS_PADDING_NONE\000"
 11425      544C535F 
 11425      50414444 
 11425      494E475F 
 11425      4E4F4E45 
 11426              	.LASF118:
 11427 036c 4D424544 		.ascii	"MBEDTLS_OPERATION_NONE\000"
 11427      544C535F 
 11427      4F504552 
 11427      4154494F 
 11427      4E5F4E4F 
 11428              	.LASF76:
 11429 0383 4D424544 		.ascii	"MBEDTLS_CIPHER_ARIA_256_ECB\000"
 11429      544C535F 
 11429      43495048 
 11429      45525F41 
 11429      5249415F 
 11430              	.LASF220:
 11431 039f 6D626564 		.ascii	"mbedtls_cipher_set_padding_mode\000"
 11431      746C735F 
 11431      63697068 
 11431      65725F73 
 11431      65745F70 
 11432              	.LASF214:
 11433 03bf 72657375 		.ascii	"result\000"
 11433      6C7400
 11434              	.LASF97:
 11435 03c6 4D424544 		.ascii	"MBEDTLS_CIPHER_CHACHA20\000"
 11435      544C535F 
ARM GAS  C:\Users\Phuong\AppData\Local\Temp\ccnzvfGe.s 			page 237


 11435      43495048 
 11435      45525F43 
 11435      48414348 
 11436              	.LASF251:
 11437 03de 474E5520 		.ascii	"GNU C11 5.4.1 20160609 (release) [ARM/embedded-5-br"
 11437      43313120 
 11437      352E342E 
 11437      31203230 
 11437      31363036 
 11438 0411 616E6368 		.ascii	"anch revision 237715] -mcpu=cortex-m0plus -mthumb -"
 11438      20726576 
 11438      6973696F 
 11438      6E203233 
 11438      37373135 
 11439 0444 67202D4F 		.ascii	"g -Og -ffunction-sections -ffat-lto-objects\000"
 11439      67202D66 
 11439      66756E63 
 11439      74696F6E 
 11439      2D736563 
 11440              	.LASF167:
 11441 0470 6B657973 		.ascii	"keystream_bytes_used\000"
 11441      74726561 
 11441      6D5F6279 
 11441      7465735F 
 11441      75736564 
 11442              	.LASF142:
 11443 0485 62617365 		.ascii	"base\000"
 11443      00
 11444              	.LASF24:
 11445 048a 6D626564 		.ascii	"mbedtls_cipher_id_t\000"
 11445      746C735F 
 11445      63697068 
 11445      65725F69 
 11445      645F7400 
 11446              	.LASF190:
 11447 049e 6765745F 		.ascii	"get_one_and_zeros_padding\000"
 11447      6F6E655F 
 11447      616E645F 
 11447      7A65726F 
 11447      735F7061 
 11448              	.LASF44:
 11449 04b8 4D424544 		.ascii	"MBEDTLS_CIPHER_CAMELLIA_256_ECB\000"
 11449      544C535F 
 11449      43495048 
 11449      45525F43 
 11449      414D454C 
 11450              	.LASF66:
 11451 04d8 4D424544 		.ascii	"MBEDTLS_CIPHER_BLOWFISH_CTR\000"
 11451      544C535F 
 11451      43495048 
 11451      45525F42 
 11451      4C4F5746 
 11452              	.LASF10:
 11453 04f4 6C6F6E67 		.ascii	"long long unsigned int\000"
 11453      206C6F6E 
 11453      6720756E 
 11453      7369676E 
ARM GAS  C:\Users\Phuong\AppData\Local\Temp\ccnzvfGe.s 			page 238


 11453      65642069 
 11454              	.LASF30:
 11455 050b 4D424544 		.ascii	"MBEDTLS_CIPHER_AES_128_CBC\000"
 11455      544C535F 
 11455      43495048 
 11455      45525F41 
 11455      45535F31 
 11456              	.LASF40:
 11457 0526 4D424544 		.ascii	"MBEDTLS_CIPHER_AES_192_GCM\000"
 11457      544C535F 
 11457      43495048 
 11457      45525F41 
 11457      45535F31 
 11458              	.LASF198:
 11459 0541 6D626564 		.ascii	"mbedtls_cipher_list\000"
 11459      746C735F 
 11459      63697068 
 11459      65725F6C 
 11459      69737400 
 11460              	.LASF111:
 11461 0555 6D626564 		.ascii	"mbedtls_cipher_mode_t\000"
 11461      746C735F 
 11461      63697068 
 11461      65725F6D 
 11461      6F64655F 
 11462              	.LASF92:
 11463 056b 4D424544 		.ascii	"MBEDTLS_CIPHER_AES_128_OFB\000"
 11463      544C535F 
 11463      43495048 
 11463      45525F41 
 11463      45535F31 
 11464              	.LASF184:
 11465 0586 6765745F 		.ascii	"get_pkcs_padding\000"
 11465      706B6373 
 11465      5F706164 
 11465      64696E67 
 11465      00
 11466              	.LASF120:
 11467 0597 4D424544 		.ascii	"MBEDTLS_ENCRYPT\000"
 11467      544C535F 
 11467      454E4352 
 11467      59505400 
 11468              	.LASF119:
 11469 05a7 4D424544 		.ascii	"MBEDTLS_DECRYPT\000"
 11469      544C535F 
 11469      44454352 
 11469      59505400 
 11470              	.LASF77:
 11471 05b7 4D424544 		.ascii	"MBEDTLS_CIPHER_ARIA_128_CBC\000"
 11471      544C535F 
 11471      43495048 
 11471      45525F41 
 11471      5249415F 
 11472              	.LASF238:
 11473 05d3 6D626564 		.ascii	"mbedtls_chachapoly_starts\000"
 11473      746C735F 
 11473      63686163 
ARM GAS  C:\Users\Phuong\AppData\Local\Temp\ccnzvfGe.s 			page 239


 11473      6861706F 
 11473      6C795F73 
 11474              	.LASF192:
 11475 05ed 70726576 		.ascii	"prev_done\000"
 11475      5F646F6E 
 11475      6500
 11476              	.LASF134:
 11477 05f7 6D626564 		.ascii	"mbedtls_cipher_info_t\000"
 11477      746C735F 
 11477      63697068 
 11477      65725F69 
 11477      6E666F5F 
 11478              	.LASF87:
 11479 060d 4D424544 		.ascii	"MBEDTLS_CIPHER_ARIA_192_GCM\000"
 11479      544C535F 
 11479      43495048 
 11479      45525F41 
 11479      5249415F 
 11480              	.LASF253:
 11481 0629 433A5C55 		.ascii	"C:\\Users\\Phuong\\Documents\\PSoC Creator\\Dec0820"
 11481      73657273 
 11481      5C506875 
 11481      6F6E675C 
 11481      446F6375 
 11482 0657 31385C69 		.ascii	"18\\iot-sdk-iot-dev\\PSOC6_FreeRTOS+LwIP+MbedTLS_Az"
 11482      6F742D73 
 11482      646B2D69 
 11482      6F742D64 
 11482      65765C50 
 11483 0688 7572652D 		.ascii	"ure-IOT-Hub-Demo\\PSOC6_FreeRTOS+LwIP+MbedTLS_Azure"
 11483      494F542D 
 11483      4875622D 
 11483      44656D6F 
 11483      5C50534F 
 11484 06ba 2D494F54 		.ascii	"-IOT-Hub-Demo.cydsn\000"
 11484      2D487562 
 11484      2D44656D 
 11484      6F2E6379 
 11484      64736E00 
 11485              	.LASF170:
 11486 06ce 706F6C79 		.ascii	"poly1305_ctx\000"
 11486      31333035 
 11486      5F637478 
 11486      00
 11487              	.LASF219:
 11488 06db 6D626564 		.ascii	"mbedtls_cipher_finish\000"
 11488      746C735F 
 11488      63697068 
 11488      65725F66 
 11488      696E6973 
 11489              	.LASF194:
 11490 06f1 6765745F 		.ascii	"get_zeros_and_len_padding\000"
 11490      7A65726F 
 11490      735F616E 
 11490      645F6C65 
 11490      6E5F7061 
 11491              	.LASF209:
ARM GAS  C:\Users\Phuong\AppData\Local\Temp\ccnzvfGe.s 			page 240


 11492 070b 69765F6C 		.ascii	"iv_len\000"
 11492      656E00
 11493              	.LASF45:
 11494 0712 4D424544 		.ascii	"MBEDTLS_CIPHER_CAMELLIA_128_CBC\000"
 11494      544C535F 
 11494      43495048 
 11494      45525F43 
 11494      414D454C 
 11495              	.LASF160:
 11496 0732 71756575 		.ascii	"queue_len\000"
 11496      655F6C65 
 11496      6E00
 11497              	.LASF32:
 11498 073c 4D424544 		.ascii	"MBEDTLS_CIPHER_AES_256_CBC\000"
 11498      544C535F 
 11498      43495048 
 11498      45525F41 
 11498      45535F32 
 11499              	.LASF166:
 11500 0757 6B657973 		.ascii	"keystream8\000"
 11500      74726561 
 11500      6D3800
 11501              	.LASF150:
 11502 0762 756E7072 		.ascii	"unprocessed_len\000"
 11502      6F636573 
 11502      7365645F 
 11502      6C656E00 
 11503              	.LASF12:
 11504 0772 73697A65 		.ascii	"size_t\000"
 11504      5F7400
 11505              	.LASF55:
 11506 0779 4D424544 		.ascii	"MBEDTLS_CIPHER_CAMELLIA_192_GCM\000"
 11506      544C535F 
 11506      43495048 
 11506      45525F43 
 11506      414D454C 
 11507              	.LASF133:
 11508 0799 6374785F 		.ascii	"ctx_free_func\000"
 11508      66726565 
 11508      5F66756E 
 11508      6300
 11509              	.LASF60:
 11510 07a7 4D424544 		.ascii	"MBEDTLS_CIPHER_DES_EDE_CBC\000"
 11510      544C535F 
 11510      43495048 
 11510      45525F44 
 11510      45535F45 
 11511              	.LASF223:
 11512 07c2 7461675F 		.ascii	"tag_len\000"
 11512      6C656E00 
 11513              	.LASF129:
 11514 07ca 73747265 		.ascii	"stream_func\000"
 11514      616D5F66 
 11514      756E6300 
 11515              	.LASF203:
 11516 07d6 6D626564 		.ascii	"mbedtls_cipher_info_from_values\000"
 11516      746C735F 
ARM GAS  C:\Users\Phuong\AppData\Local\Temp\ccnzvfGe.s 			page 241


 11516      63697068 
 11516      65725F69 
 11516      6E666F5F 
 11517              	.LASF94:
 11518 07f6 4D424544 		.ascii	"MBEDTLS_CIPHER_AES_256_OFB\000"
 11518      544C535F 
 11518      43495048 
 11518      45525F41 
 11518      45535F32 
 11519              	.LASF227:
 11520 0811 66696E69 		.ascii	"finish_olen\000"
 11520      73685F6F 
 11520      6C656E00 
 11521              	.LASF100:
 11522 081d 4D424544 		.ascii	"MBEDTLS_MODE_NONE\000"
 11522      544C535F 
 11522      4D4F4445 
 11522      5F4E4F4E 
 11522      4500
 11523              	.LASF79:
 11524 082f 4D424544 		.ascii	"MBEDTLS_CIPHER_ARIA_256_CBC\000"
 11524      544C535F 
 11524      43495048 
 11524      45525F41 
 11524      5249415F 
 11525              	.LASF218:
 11526 084b 636F7079 		.ascii	"copy_len\000"
 11526      5F6C656E 
 11526      00
 11527              	.LASF89:
 11528 0854 4D424544 		.ascii	"MBEDTLS_CIPHER_ARIA_128_CCM\000"
 11528      544C535F 
 11528      43495048 
 11528      45525F41 
 11528      5249415F 
 11529              	.LASF9:
 11530 0870 5F5F7569 		.ascii	"__uint64_t\000"
 11530      6E743634 
 11530      5F7400
 11531              	.LASF186:
 11532 087b 696E7075 		.ascii	"input_len\000"
 11532      745F6C65 
 11532      6E00
 11533              	.LASF176:
 11534 0885 6D626564 		.ascii	"mbedtls_cipher_get_block_size\000"
 11534      746C735F 
 11534      63697068 
 11534      65725F67 
 11534      65745F62 
 11535              	.LASF61:
 11536 08a3 4D424544 		.ascii	"MBEDTLS_CIPHER_DES_EDE3_ECB\000"
 11536      544C535F 
 11536      43495048 
 11536      45525F44 
 11536      45535F45 
 11537              	.LASF21:
 11538 08bf 4D424544 		.ascii	"MBEDTLS_CIPHER_ID_ARC4\000"
ARM GAS  C:\Users\Phuong\AppData\Local\Temp\ccnzvfGe.s 			page 242


 11538      544C535F 
 11538      43495048 
 11538      45525F49 
 11538      445F4152 
 11539              	.LASF47:
 11540 08d6 4D424544 		.ascii	"MBEDTLS_CIPHER_CAMELLIA_256_CBC\000"
 11540      544C535F 
 11540      43495048 
 11540      45525F43 
 11540      414D454C 
 11541              	.LASF207:
 11542 08f6 6D626564 		.ascii	"mbedtls_cipher_setkey\000"
 11542      746C735F 
 11542      63697068 
 11542      65725F73 
 11542      65746B65 
 11543              	.LASF71:
 11544 090c 4D424544 		.ascii	"MBEDTLS_CIPHER_CAMELLIA_128_CCM\000"
 11544      544C535F 
 11544      43495048 
 11544      45525F43 
 11544      414D454C 
 11545              	.LASF109:
 11546 092c 4D424544 		.ascii	"MBEDTLS_MODE_XTS\000"
 11546      544C535F 
 11546      4D4F4445 
 11546      5F585453 
 11546      00
 11547              	.LASF70:
 11548 093d 4D424544 		.ascii	"MBEDTLS_CIPHER_AES_256_CCM\000"
 11548      544C535F 
 11548      43495048 
 11548      45525F41 
 11548      45535F32 
 11549              	.LASF210:
 11550 0958 61637475 		.ascii	"actual_iv_size\000"
 11550      616C5F69 
 11550      765F7369 
 11550      7A6500
 11551              	.LASF161:
 11552 0967 4D424544 		.ascii	"MBEDTLS_CHACHAPOLY_ENCRYPT\000"
 11552      544C535F 
 11552      43484143 
 11552      4841504F 
 11552      4C595F45 
 11553              	.LASF172:
 11554 0982 63697068 		.ascii	"ciphertext_len\000"
 11554      65727465 
 11554      78745F6C 
 11554      656E00
 11555              	.LASF127:
 11556 0991 6F66625F 		.ascii	"ofb_func\000"
 11556      66756E63 
 11556      00
 11557              	.LASF162:
 11558 099a 4D424544 		.ascii	"MBEDTLS_CHACHAPOLY_DECRYPT\000"
 11558      544C535F 
ARM GAS  C:\Users\Phuong\AppData\Local\Temp\ccnzvfGe.s 			page 243


 11558      43484143 
 11558      4841504F 
 11558      4C595F44 
 11559              	.LASF143:
 11560 09b5 63686172 		.ascii	"char\000"
 11560      00
 11561              	.LASF65:
 11562 09ba 4D424544 		.ascii	"MBEDTLS_CIPHER_BLOWFISH_CFB64\000"
 11562      544C535F 
 11562      43495048 
 11562      45525F42 
 11562      4C4F5746 
 11563              	.LASF20:
 11564 09d8 4D424544 		.ascii	"MBEDTLS_CIPHER_ID_BLOWFISH\000"
 11564      544C535F 
 11564      43495048 
 11564      45525F49 
 11564      445F424C 
 11565              	.LASF187:
 11566 09f3 7061645F 		.ascii	"pad_idx\000"
 11566      69647800 
 11567              	.LASF14:
 11568 09fb 4D424544 		.ascii	"MBEDTLS_CIPHER_ID_NONE\000"
 11568      544C535F 
 11568      43495048 
 11568      45525F49 
 11568      445F4E4F 
 11569              	.LASF91:
 11570 0a12 4D424544 		.ascii	"MBEDTLS_CIPHER_ARIA_256_CCM\000"
 11570      544C535F 
 11570      43495048 
 11570      45525F41 
 11570      5249415F 
 11571              	.LASF249:
 11572 0a2e 6D626564 		.ascii	"mbedtls_ccm_auth_decrypt\000"
 11572      746C735F 
 11572      63636D5F 
 11572      61757468 
 11572      5F646563 
 11573              	.LASF107:
 11574 0a47 4D424544 		.ascii	"MBEDTLS_MODE_STREAM\000"
 11574      544C535F 
 11574      4D4F4445 
 11574      5F535452 
 11574      45414D00 
 11575              	.LASF206:
 11576 0a5b 6D626564 		.ascii	"mbedtls_cipher_free\000"
 11576      746C735F 
 11576      63697068 
 11576      65725F66 
 11576      72656500 
 11577              	.LASF36:
 11578 0a6f 4D424544 		.ascii	"MBEDTLS_CIPHER_AES_128_CTR\000"
 11578      544C535F 
 11578      43495048 
 11578      45525F41 
 11578      45535F31 
ARM GAS  C:\Users\Phuong\AppData\Local\Temp\ccnzvfGe.s 			page 244


 11579              	.LASF123:
 11580 0a8a 63697068 		.ascii	"cipher\000"
 11580      657200
 11581              	.LASF155:
 11582 0a91 75696E74 		.ascii	"uint8_t\000"
 11582      385F7400 
 11583              	.LASF28:
 11584 0a99 4D424544 		.ascii	"MBEDTLS_CIPHER_AES_192_ECB\000"
 11584      544C535F 
 11584      43495048 
 11584      45525F41 
 11584      45535F31 
 11585              	.LASF73:
 11586 0ab4 4D424544 		.ascii	"MBEDTLS_CIPHER_CAMELLIA_256_CCM\000"
 11586      544C535F 
 11586      43495048 
 11586      45525F43 
 11586      414D454C 
 11587              	.LASF239:
 11588 0ad4 6D626564 		.ascii	"mbedtls_chachapoly_update_aad\000"
 11588      746C735F 
 11588      63686163 
 11588      6861706F 
 11588      6C795F75 
 11589              	.LASF246:
 11590 0af2 6D626564 		.ascii	"mbedtls_ccm_encrypt_and_tag\000"
 11590      746C735F 
 11590      63636D5F 
 11590      656E6372 
 11590      7970745F 
 11591              	.LASF82:
 11592 0b0e 4D424544 		.ascii	"MBEDTLS_CIPHER_ARIA_256_CFB128\000"
 11592      544C535F 
 11592      43495048 
 11592      45525F41 
 11592      5249415F 
 11593              	.LASF83:
 11594 0b2d 4D424544 		.ascii	"MBEDTLS_CIPHER_ARIA_128_CTR\000"
 11594      544C535F 
 11594      43495048 
 11594      45525F41 
 11594      5249415F 
 11595              	.LASF225:
 11596 0b49 63686563 		.ascii	"check_tag\000"
 11596      6B5F7461 
 11596      6700
 11597              	.LASF213:
 11598 0b53 61645F6C 		.ascii	"ad_len\000"
 11598      656E00
 11599              	.LASF248:
 11600 0b5a 6D626564 		.ascii	"mbedtls_gcm_auth_decrypt\000"
 11600      746C735F 
 11600      67636D5F 
 11600      61757468 
 11600      5F646563 
 11601              	.LASF215:
 11602 0b73 6D626564 		.ascii	"mbedtls_cipher_update\000"
ARM GAS  C:\Users\Phuong\AppData\Local\Temp\ccnzvfGe.s 			page 245


 11602      746C735F 
 11602      63697068 
 11602      65725F75 
 11602      70646174 
 11603              	.LASF75:
 11604 0b89 4D424544 		.ascii	"MBEDTLS_CIPHER_ARIA_192_ECB\000"
 11604      544C535F 
 11604      43495048 
 11604      45525F41 
 11604      5249415F 
 11605              	.LASF68:
 11606 0ba5 4D424544 		.ascii	"MBEDTLS_CIPHER_AES_128_CCM\000"
 11606      544C535F 
 11606      43495048 
 11606      45525F41 
 11606      45535F31 
 11607              	.LASF8:
 11608 0bc0 6C6F6E67 		.ascii	"long long int\000"
 11608      206C6F6E 
 11608      6720696E 
 11608      7400
 11609              	.LASF125:
 11610 0bce 6362635F 		.ascii	"cbc_func\000"
 11610      66756E63 
 11610      00
 11611              	.LASF180:
 11612 0bd7 6F757470 		.ascii	"output_len\000"
 11612      75745F6C 
 11612      656E00
 11613              	.LASF51:
 11614 0be2 4D424544 		.ascii	"MBEDTLS_CIPHER_CAMELLIA_128_CTR\000"
 11614      544C535F 
 11614      43495048 
 11614      45525F43 
 11614      414D454C 
 11615              	.LASF241:
 11616 0c02 6D626564 		.ascii	"mbedtls_gcm_update\000"
 11616      746C735F 
 11616      67636D5F 
 11616      75706461 
 11616      746500
 11617              	.LASF222:
 11618 0c15 6D626564 		.ascii	"mbedtls_cipher_write_tag\000"
 11618      746C735F 
 11618      63697068 
 11618      65725F77 
 11618      72697465 
 11619              	.LASF38:
 11620 0c2e 4D424544 		.ascii	"MBEDTLS_CIPHER_AES_256_CTR\000"
 11620      544C535F 
 11620      43495048 
 11620      45525F41 
 11620      45535F32 
 11621              	.LASF139:
 11622 0c49 69765F73 		.ascii	"iv_size\000"
 11622      697A6500 
 11623              	.LASF43:
ARM GAS  C:\Users\Phuong\AppData\Local\Temp\ccnzvfGe.s 			page 246


 11624 0c51 4D424544 		.ascii	"MBEDTLS_CIPHER_CAMELLIA_192_ECB\000"
 11624      544C535F 
 11624      43495048 
 11624      45525F43 
 11624      414D454C 
 11625              	.LASF106:
 11626 0c71 4D424544 		.ascii	"MBEDTLS_MODE_GCM\000"
 11626      544C535F 
 11626      4D4F4445 
 11626      5F47434D 
 11626      00
 11627              	.LASF169:
 11628 0c82 63686163 		.ascii	"chacha20_ctx\000"
 11628      68613230 
 11628      5F637478 
 11628      00
 11629              	.LASF57:
 11630 0c8f 4D424544 		.ascii	"MBEDTLS_CIPHER_DES_ECB\000"
 11630      544C535F 
 11630      43495048 
 11630      45525F44 
 11630      45535F45 
 11631              	.LASF236:
 11632 0ca6 6D656D73 		.ascii	"memset\000"
 11632      657400
 11633              	.LASF85:
 11634 0cad 4D424544 		.ascii	"MBEDTLS_CIPHER_ARIA_256_CTR\000"
 11634      544C535F 
 11634      43495048 
 11634      45525F41 
 11634      5249415F 
 11635              	.LASF189:
 11636 0cc9 6164645F 		.ascii	"add_one_and_zeros_padding\000"
 11636      6F6E655F 
 11636      616E645F 
 11636      7A65726F 
 11636      735F7061 
 11637              	.LASF25:
 11638 0ce3 4D424544 		.ascii	"MBEDTLS_CIPHER_NONE\000"
 11638      544C535F 
 11638      43495048 
 11638      45525F4E 
 11638      4F4E4500 
 11639              	.LASF226:
 11640 0cf7 6D626564 		.ascii	"mbedtls_cipher_crypt\000"
 11640      746C735F 
 11640      63697068 
 11640      65725F63 
 11640      72797074 
 11641              	.LASF35:
 11642 0d0c 4D424544 		.ascii	"MBEDTLS_CIPHER_AES_256_CFB128\000"
 11642      544C535F 
 11642      43495048 
 11642      45525F41 
 11642      45535F32 
 11643              	.LASF49:
 11644 0d2a 4D424544 		.ascii	"MBEDTLS_CIPHER_CAMELLIA_192_CFB128\000"
ARM GAS  C:\Users\Phuong\AppData\Local\Temp\ccnzvfGe.s 			page 247


 11644      544C535F 
 11644      43495048 
 11644      45525F43 
 11644      414D454C 
 11645              	.LASF110:
 11646 0d4d 4D424544 		.ascii	"MBEDTLS_MODE_CHACHAPOLY\000"
 11646      544C535F 
 11646      4D4F4445 
 11646      5F434841 
 11646      43484150 
 11647              	.LASF53:
 11648 0d65 4D424544 		.ascii	"MBEDTLS_CIPHER_CAMELLIA_256_CTR\000"
 11648      544C535F 
 11648      43495048 
 11648      45525F43 
 11648      414D454C 
 11649              	.LASF153:
 11650 0d85 696E666F 		.ascii	"info\000"
 11650      00
 11651              	.LASF247:
 11652 0d8a 6D626564 		.ascii	"mbedtls_chachapoly_encrypt_and_tag\000"
 11652      746C735F 
 11652      63686163 
 11652      6861706F 
 11652      6C795F65 
 11653              	.LASF31:
 11654 0dad 4D424544 		.ascii	"MBEDTLS_CIPHER_AES_192_CBC\000"
 11654      544C535F 
 11654      43495048 
 11654      45525F41 
 11654      45535F31 
 11655              	.LASF128:
 11656 0dc8 6374725F 		.ascii	"ctr_func\000"
 11656      66756E63 
 11656      00
 11657              	.LASF191:
 11658 0dd1 646F6E65 		.ascii	"done\000"
 11658      00
 11659              	.LASF163:
 11660 0dd6 6D626564 		.ascii	"mbedtls_chachapoly_mode_t\000"
 11660      746C735F 
 11660      63686163 
 11660      6861706F 
 11660      6C795F6D 
 11661              	.LASF193:
 11662 0df0 6164645F 		.ascii	"add_zeros_and_len_padding\000"
 11662      7A65726F 
 11662      735F616E 
 11662      645F6C65 
 11662      6E5F7061 
 11663              	.LASF93:
 11664 0e0a 4D424544 		.ascii	"MBEDTLS_CIPHER_AES_192_OFB\000"
 11664      544C535F 
 11664      43495048 
 11664      45525F41 
 11664      45535F31 
 11665              	.LASF13:
ARM GAS  C:\Users\Phuong\AppData\Local\Temp\ccnzvfGe.s 			page 248


 11666 0e25 6C6F6E67 		.ascii	"long double\000"
 11666      20646F75 
 11666      626C6500 
 11667              	.LASF78:
 11668 0e31 4D424544 		.ascii	"MBEDTLS_CIPHER_ARIA_192_CBC\000"
 11668      544C535F 
 11668      43495048 
 11668      45525F41 
 11668      5249415F 
 11669              	.LASF16:
 11670 0e4d 4D424544 		.ascii	"MBEDTLS_CIPHER_ID_AES\000"
 11670      544C535F 
 11670      43495048 
 11670      45525F49 
 11670      445F4145 
 11671              	.LASF113:
 11672 0e63 4D424544 		.ascii	"MBEDTLS_PADDING_ONE_AND_ZEROS\000"
 11672      544C535F 
 11672      50414444 
 11672      494E475F 
 11672      4F4E455F 
 11673              	.LASF245:
 11674 0e81 6D626564 		.ascii	"mbedtls_gcm_crypt_and_tag\000"
 11674      746C735F 
 11674      67636D5F 
 11674      63727970 
 11674      745F616E 
 11675              	.LASF181:
 11676 0e9b 64617461 		.ascii	"data_len\000"
 11676      5F6C656E 
 11676      00
 11677              	.LASF137:
 11678 0ea4 6B65795F 		.ascii	"key_bitlen\000"
 11678      6269746C 
 11678      656E00
 11679              	.LASF46:
 11680 0eaf 4D424544 		.ascii	"MBEDTLS_CIPHER_CAMELLIA_192_CBC\000"
 11680      544C535F 
 11680      43495048 
 11680      45525F43 
 11680      414D454C 
 11681              	.LASF168:
 11682 0ecf 6D626564 		.ascii	"mbedtls_chachapoly_context\000"
 11682      746C735F 
 11682      63686163 
 11682      6861706F 
 11682      6C795F63 
 11683              	.LASF243:
 11684 0eea 6D626564 		.ascii	"mbedtls_gcm_finish\000"
 11684      746C735F 
 11684      67636D5F 
 11684      66696E69 
 11684      736800
 11685              	.LASF69:
 11686 0efd 4D424544 		.ascii	"MBEDTLS_CIPHER_AES_192_CCM\000"
 11686      544C535F 
 11686      43495048 
ARM GAS  C:\Users\Phuong\AppData\Local\Temp\ccnzvfGe.s 			page 249


 11686      45525F41 
 11686      45535F31 
 11687              	.LASF2:
 11688 0f18 73686F72 		.ascii	"short int\000"
 11688      7420696E 
 11688      7400
 11689              	.LASF15:
 11690 0f22 4D424544 		.ascii	"MBEDTLS_CIPHER_ID_NULL\000"
 11690      544C535F 
 11690      43495048 
 11690      45525F49 
 11690      445F4E55 
 11691              	.LASF174:
 11692 0f39 6164645F 		.ascii	"add_len\000"
 11692      6C656E00 
 11693              	.LASF4:
 11694 0f41 6C6F6E67 		.ascii	"long int\000"
 11694      20696E74 
 11694      00
 11695              	.LASF178:
 11696 0f4a 64696666 		.ascii	"diff\000"
 11696      00
 11697              	.LASF39:
 11698 0f4f 4D424544 		.ascii	"MBEDTLS_CIPHER_AES_128_GCM\000"
 11698      544C535F 
 11698      43495048 
 11698      45525F41 
 11698      45535F31 
 11699              	.LASF48:
 11700 0f6a 4D424544 		.ascii	"MBEDTLS_CIPHER_CAMELLIA_128_CFB128\000"
 11700      544C535F 
 11700      43495048 
 11700      45525F43 
 11700      414D454C 
 11701              	.LASF90:
 11702 0f8d 4D424544 		.ascii	"MBEDTLS_CIPHER_ARIA_192_CCM\000"
 11702      544C535F 
 11702      43495048 
 11702      45525F41 
 11702      5249415F 
 11703              	.LASF154:
 11704 0fa9 6D626564 		.ascii	"mbedtls_cipher_definition_t\000"
 11704      746C735F 
 11704      63697068 
 11704      65725F64 
 11704      6566696E 
 11705              	.LASF229:
 11706 0fc5 6D626564 		.ascii	"mbedtls_cipher_auth_decrypt\000"
 11706      746C735F 
 11706      63697068 
 11706      65725F61 
 11706      7574685F 
 11707              	.LASF67:
 11708 0fe1 4D424544 		.ascii	"MBEDTLS_CIPHER_ARC4_128\000"
 11708      544C535F 
 11708      43495048 
 11708      45525F41 
ARM GAS  C:\Users\Phuong\AppData\Local\Temp\ccnzvfGe.s 			page 250


 11708      5243345F 
 11709              	.LASF101:
 11710 0ff9 4D424544 		.ascii	"MBEDTLS_MODE_ECB\000"
 11710      544C535F 
 11710      4D4F4445 
 11710      5F454342 
 11710      00
 11711              	.LASF157:
 11712 100a 75696E74 		.ascii	"uint64_t\000"
 11712      36345F74 
 11712      00
 11713              	.LASF148:
 11714 1013 6765745F 		.ascii	"get_padding\000"
 11714      70616464 
 11714      696E6700 
 11715              	.LASF141:
 11716 101f 626C6F63 		.ascii	"block_size\000"
 11716      6B5F7369 
 11716      7A6500
 11717              	.LASF211:
 11718 102a 6D626564 		.ascii	"mbedtls_cipher_reset\000"
 11718      746C735F 
 11718      63697068 
 11718      65725F72 
 11718      65736574 
 11719              	.LASF72:
 11720 103f 4D424544 		.ascii	"MBEDTLS_CIPHER_CAMELLIA_192_CCM\000"
 11720      544C535F 
 11720      43495048 
 11720      45525F43 
 11720      414D454C 
 11721              	.LASF131:
 11722 105f 7365746B 		.ascii	"setkey_dec_func\000"
 11722      65795F64 
 11722      65635F66 
 11722      756E6300 
 11723              	.LASF58:
 11724 106f 4D424544 		.ascii	"MBEDTLS_CIPHER_DES_CBC\000"
 11724      544C535F 
 11724      43495048 
 11724      45525F44 
 11724      45535F43 
 11725              	.LASF115:
 11726 1086 4D424544 		.ascii	"MBEDTLS_PADDING_ZEROS\000"
 11726      544C535F 
 11726      50414444 
 11726      494E475F 
 11726      5A45524F 
 11727              	.LASF196:
 11728 109c 6765745F 		.ascii	"get_zeros_padding\000"
 11728      7A65726F 
 11728      735F7061 
 11728      6464696E 
 11728      6700
 11729              	.LASF145:
 11730 10ae 63697068 		.ascii	"cipher_info\000"
 11730      65725F69 
ARM GAS  C:\Users\Phuong\AppData\Local\Temp\ccnzvfGe.s 			page 251


 11730      6E666F00 
 11731              	.LASF5:
 11732 10ba 5F5F7569 		.ascii	"__uint8_t\000"
 11732      6E74385F 
 11732      7400
 11733              	.LASF151:
 11734 10c4 63697068 		.ascii	"cipher_ctx\000"
 11734      65725F63 
 11734      747800
 11735              	.LASF138:
 11736 10cf 6E616D65 		.ascii	"name\000"
 11736      00
 11737              	.LASF183:
 11738 10d4 6D626564 		.ascii	"mbedtls_constant_time_memcmp\000"
 11738      746C735F 
 11738      636F6E73 
 11738      74616E74 
 11738      5F74696D 
 11739              	.LASF98:
 11740 10f1 4D424544 		.ascii	"MBEDTLS_CIPHER_CHACHA20_POLY1305\000"
 11740      544C535F 
 11740      43495048 
 11740      45525F43 
 11740      48414348 
 11741              	.LASF95:
 11742 1112 4D424544 		.ascii	"MBEDTLS_CIPHER_AES_128_XTS\000"
 11742      544C535F 
 11742      43495048 
 11742      45525F41 
 11742      45535F31 
 11743              	.LASF22:
 11744 112d 4D424544 		.ascii	"MBEDTLS_CIPHER_ID_ARIA\000"
 11744      544C535F 
 11744      43495048 
 11744      45525F49 
 11744      445F4152 
 11745              	.LASF152:
 11746 1144 73697A65 		.ascii	"sizetype\000"
 11746      74797065 
 11746      00
 11747              	.LASF19:
 11748 114d 4D424544 		.ascii	"MBEDTLS_CIPHER_ID_CAMELLIA\000"
 11748      544C535F 
 11748      43495048 
 11748      45525F49 
 11748      445F4341 
 11749              	.LASF7:
 11750 1168 6C6F6E67 		.ascii	"long unsigned int\000"
 11750      20756E73 
 11750      69676E65 
 11750      6420696E 
 11750      7400
 11751              	.LASF175:
 11752 117a 62617365 		.ascii	"base_ectr\000"
 11752      5F656374 
 11752      7200
 11753              	.LASF37:
ARM GAS  C:\Users\Phuong\AppData\Local\Temp\ccnzvfGe.s 			page 252


 11754 1184 4D424544 		.ascii	"MBEDTLS_CIPHER_AES_192_CTR\000"
 11754      544C535F 
 11754      43495048 
 11754      45525F41 
 11754      45535F31 
 11755              	.LASF159:
 11756 119f 71756575 		.ascii	"queue\000"
 11756      6500
 11757              	.LASF185:
 11758 11a5 696E7075 		.ascii	"input\000"
 11758      7400
 11759              	.LASF17:
 11760 11ab 4D424544 		.ascii	"MBEDTLS_CIPHER_ID_DES\000"
 11760      544C535F 
 11760      43495048 
 11760      45525F49 
 11760      445F4445 
 11761              	.LASF221:
 11762 11c1 6D626564 		.ascii	"mbedtls_cipher_setup\000"
 11762      746C735F 
 11762      63697068 
 11762      65725F73 
 11762      65747570 
 11763              	.LASF84:
 11764 11d6 4D424544 		.ascii	"MBEDTLS_CIPHER_ARIA_192_CTR\000"
 11764      544C535F 
 11764      43495048 
 11764      45525F41 
 11764      5249415F 
 11765              	.LASF135:
 11766 11f2 74797065 		.ascii	"type\000"
 11766      00
 11767              	.LASF1:
 11768 11f7 756E7369 		.ascii	"unsigned char\000"
 11768      676E6564 
 11768      20636861 
 11768      7200
 11769              	.LASF6:
 11770 1205 5F5F7569 		.ascii	"__uint32_t\000"
 11770      6E743332 
 11770      5F7400
 11771              	.LASF224:
 11772 1210 6D626564 		.ascii	"mbedtls_cipher_check_tag\000"
 11772      746C735F 
 11772      63697068 
 11772      65725F63 
 11772      6865636B 
 11773              	.LASF96:
 11774 1229 4D424544 		.ascii	"MBEDTLS_CIPHER_AES_256_XTS\000"
 11774      544C535F 
 11774      43495048 
 11774      45525F41 
 11774      45535F32 
 11775              	.LASF52:
 11776 1244 4D424544 		.ascii	"MBEDTLS_CIPHER_CAMELLIA_192_CTR\000"
 11776      544C535F 
 11776      43495048 
ARM GAS  C:\Users\Phuong\AppData\Local\Temp\ccnzvfGe.s 			page 253


 11776      45525F43 
 11776      414D454C 
 11777              	.LASF205:
 11778 1264 6D626564 		.ascii	"mbedtls_cipher_init\000"
 11778      746C735F 
 11778      63697068 
 11778      65725F69 
 11778      6E697400 
 11779              	.LASF102:
 11780 1278 4D424544 		.ascii	"MBEDTLS_MODE_CBC\000"
 11780      544C535F 
 11780      4D4F4445 
 11780      5F434243 
 11780      00
 11781              	.LASF240:
 11782 1289 6D626564 		.ascii	"mbedtls_gcm_starts\000"
 11782      746C735F 
 11782      67636D5F 
 11782      73746172 
 11782      747300
 11783              	.LASF165:
 11784 129c 73746174 		.ascii	"state\000"
 11784      6500
 11785              	.LASF104:
 11786 12a2 4D424544 		.ascii	"MBEDTLS_MODE_OFB\000"
 11786      544C535F 
 11786      4D4F4445 
 11786      5F4F4642 
 11786      00
 11787              	.LASF208:
 11788 12b3 6D626564 		.ascii	"mbedtls_cipher_set_iv\000"
 11788      746C735F 
 11788      63697068 
 11788      65725F73 
 11788      65745F69 
 11789              	.LASF144:
 11790 12c9 6D626564 		.ascii	"mbedtls_cipher_context_t\000"
 11790      746C735F 
 11790      63697068 
 11790      65725F63 
 11790      6F6E7465 
 11791              	.LASF252:
 11792 12e2 536F7572 		.ascii	"Source\\mbedtls_open\\library\\cipher.c\000"
 11792      63655C6D 
 11792      62656474 
 11792      6C735F6F 
 11792      70656E5C 
 11793              	.LASF23:
 11794 1307 4D424544 		.ascii	"MBEDTLS_CIPHER_ID_CHACHA20\000"
 11794      544C535F 
 11794      43495048 
 11794      45525F49 
 11794      445F4348 
 11795              	.LASF177:
 11796 1322 6D626564 		.ascii	"mbedtls_cipher_get_iv_size\000"
 11796      746C735F 
 11796      63697068 
ARM GAS  C:\Users\Phuong\AppData\Local\Temp\ccnzvfGe.s 			page 254


 11796      65725F67 
 11796      65745F69 
 11797              	.LASF63:
 11798 133d 4D424544 		.ascii	"MBEDTLS_CIPHER_BLOWFISH_ECB\000"
 11798      544C535F 
 11798      43495048 
 11798      45525F42 
 11798      4C4F5746 
 11799              	.LASF18:
 11800 1359 4D424544 		.ascii	"MBEDTLS_CIPHER_ID_3DES\000"
 11800      544C535F 
 11800      43495048 
 11800      45525F49 
 11800      445F3344 
 11801              	.LASF0:
 11802 1370 7369676E 		.ascii	"signed char\000"
 11802      65642063 
 11802      68617200 
 11803              	.LASF114:
 11804 137c 4D424544 		.ascii	"MBEDTLS_PADDING_ZEROS_AND_LEN\000"
 11804      544C535F 
 11804      50414444 
 11804      494E475F 
 11804      5A45524F 
 11805              	.LASF3:
 11806 139a 73686F72 		.ascii	"short unsigned int\000"
 11806      7420756E 
 11806      7369676E 
 11806      65642069 
 11806      6E7400
 11807              	.LASF195:
 11808 13ad 6164645F 		.ascii	"add_zeros_padding\000"
 11808      7A65726F 
 11808      735F7061 
 11808      6464696E 
 11808      6700
 11809              	.LASF202:
 11810 13bf 63697068 		.ascii	"cipher_name\000"
 11810      65725F6E 
 11810      616D6500 
 11811              	.LASF237:
 11812 13cb 6D656D63 		.ascii	"memcpy\000"
 11812      707900
 11813              	.LASF62:
 11814 13d2 4D424544 		.ascii	"MBEDTLS_CIPHER_DES_EDE3_CBC\000"
 11814      544C535F 
 11814      43495048 
 11814      45525F44 
 11814      45535F45 
 11815              	.LASF242:
 11816 13ee 6D626564 		.ascii	"mbedtls_chachapoly_update\000"
 11816      746C735F 
 11816      63686163 
 11816      6861706F 
 11816      6C795F75 
 11817              	.LASF108:
 11818 1408 4D424544 		.ascii	"MBEDTLS_MODE_CCM\000"
ARM GAS  C:\Users\Phuong\AppData\Local\Temp\ccnzvfGe.s 			page 255


 11818      544C535F 
 11818      4D4F4445 
 11818      5F43434D 
 11818      00
 11819              	.LASF86:
 11820 1419 4D424544 		.ascii	"MBEDTLS_CIPHER_ARIA_128_GCM\000"
 11820      544C535F 
 11820      43495048 
 11820      45525F41 
 11820      5249415F 
 11821              	.LASF112:
 11822 1435 4D424544 		.ascii	"MBEDTLS_PADDING_PKCS7\000"
 11822      544C535F 
 11822      50414444 
 11822      494E475F 
 11822      504B4353 
 11823              	.LASF228:
 11824 144b 6D626564 		.ascii	"mbedtls_cipher_auth_encrypt\000"
 11824      746C735F 
 11824      63697068 
 11824      65725F61 
 11824      7574685F 
 11825              	.LASF147:
 11826 1467 6164645F 		.ascii	"add_padding\000"
 11826      70616464 
 11826      696E6700 
 11827              	.LASF149:
 11828 1473 756E7072 		.ascii	"unprocessed_data\000"
 11828      6F636573 
 11828      7365645F 
 11828      64617461 
 11828      00
 11829              	.LASF199:
 11830 1484 6D626564 		.ascii	"mbedtls_cipher_info_from_type\000"
 11830      746C735F 
 11830      63697068 
 11830      65725F69 
 11830      6E666F5F 
 11831              	.LASF54:
 11832 14a2 4D424544 		.ascii	"MBEDTLS_CIPHER_CAMELLIA_128_GCM\000"
 11832      544C535F 
 11832      43495048 
 11832      45525F43 
 11832      414D454C 
 11833              	.LASF250:
 11834 14c2 6D626564 		.ascii	"mbedtls_chachapoly_auth_decrypt\000"
 11834      746C735F 
 11834      63686163 
 11834      6861706F 
 11834      6C795F61 
 11835              	.LASF164:
 11836 14e2 6D626564 		.ascii	"mbedtls_chacha20_context\000"
 11836      746C735F 
 11836      63686163 
 11836      68613230 
 11836      5F636F6E 
 11837              	.LASF41:
ARM GAS  C:\Users\Phuong\AppData\Local\Temp\ccnzvfGe.s 			page 256


 11838 14fb 4D424544 		.ascii	"MBEDTLS_CIPHER_AES_256_GCM\000"
 11838      544C535F 
 11838      43495048 
 11838      45525F41 
 11838      45535F32 
 11839              	.LASF234:
 11840 1516 6D626564 		.ascii	"mbedtls_platform_zeroize\000"
 11840      746C735F 
 11840      706C6174 
 11840      666F726D 
 11840      5F7A6572 
 11841              	.LASF34:
 11842 152f 4D424544 		.ascii	"MBEDTLS_CIPHER_AES_192_CFB128\000"
 11842      544C535F 
 11842      43495048 
 11842      45525F41 
 11842      45535F31 
 11843              	.LASF132:
 11844 154d 6374785F 		.ascii	"ctx_alloc_func\000"
 11844      616C6C6F 
 11844      635F6675 
 11844      6E6300
 11845              	.LASF81:
 11846 155c 4D424544 		.ascii	"MBEDTLS_CIPHER_ARIA_192_CFB128\000"
 11846      544C535F 
 11846      43495048 
 11846      45525F41 
 11846      5249415F 
 11847              	.LASF233:
 11848 157b 73747263 		.ascii	"strcmp\000"
 11848      6D7000
 11849              		.ident	"GCC: (GNU Tools for ARM Embedded Processors) 5.4.1 20160609 (release) [ARM/embedded-5-bran
