ARM GAS  C:\Users\Phuong\AppData\Local\Temp\cca15Qa6.s 			page 1


   1              		.syntax unified
   2              		.cpu cortex-m0plus
   3              		.fpu softvfp
   4              		.eabi_attribute 20, 1
   5              		.eabi_attribute 21, 1
   6              		.eabi_attribute 23, 3
   7              		.eabi_attribute 24, 1
   8              		.eabi_attribute 25, 1
   9              		.eabi_attribute 26, 1
  10              		.eabi_attribute 30, 1
  11              		.eabi_attribute 34, 0
  12              		.eabi_attribute 18, 4
  13              		.thumb
  14              		.syntax unified
  15              		.file	"consolelogger.c"
  16              		.text
  17              	.Ltext0:
  18              		.cfi_sections	.debug_frame
  19              		.section	.text.consolelogger_log,"ax",%progbits
  20              		.align	2
  21              		.global	consolelogger_log
  22              		.code	16
  23              		.thumb_func
  24              		.type	consolelogger_log, %function
  25              	consolelogger_log:
  26              	.LFB1:
  27              		.file 1 "Source\\azure_iot_sdk\\c-utility\\src\\consolelogger.c"
   1:Source\azure_iot_sdk\c-utility\src/consolelogger.c **** // Copyright (c) Microsoft. All rights reserved.
   2:Source\azure_iot_sdk\c-utility\src/consolelogger.c **** // Licensed under the MIT license. See LICENSE file in the project root for full license informatio
   3:Source\azure_iot_sdk\c-utility\src/consolelogger.c **** 
   4:Source\azure_iot_sdk\c-utility\src/consolelogger.c **** #include <stdarg.h>
   5:Source\azure_iot_sdk\c-utility\src/consolelogger.c **** #include <stdio.h>
   6:Source\azure_iot_sdk\c-utility\src/consolelogger.c **** #include <time.h>
   7:Source\azure_iot_sdk\c-utility\src/consolelogger.c **** #include "azure_c_shared_utility/xlogging.h"
   8:Source\azure_iot_sdk\c-utility\src/consolelogger.c **** #include "azure_c_shared_utility/consolelogger.h"
   9:Source\azure_iot_sdk\c-utility\src/consolelogger.c **** 
  10:Source\azure_iot_sdk\c-utility\src/consolelogger.c **** #if (defined(_MSC_VER)) && (!(defined WINCE))
  11:Source\azure_iot_sdk\c-utility\src/consolelogger.c **** #include "windows.h"
  12:Source\azure_iot_sdk\c-utility\src/consolelogger.c **** 
  13:Source\azure_iot_sdk\c-utility\src/consolelogger.c **** /*returns a string as if printed by vprintf*/
  14:Source\azure_iot_sdk\c-utility\src/consolelogger.c **** static char* vprintf_alloc(const char* format, va_list va)
  15:Source\azure_iot_sdk\c-utility\src/consolelogger.c **** {
  16:Source\azure_iot_sdk\c-utility\src/consolelogger.c ****     char* result;
  17:Source\azure_iot_sdk\c-utility\src/consolelogger.c ****     int neededSize = vsnprintf(NULL, 0, format, va);
  18:Source\azure_iot_sdk\c-utility\src/consolelogger.c ****     if (neededSize < 0)
  19:Source\azure_iot_sdk\c-utility\src/consolelogger.c ****     {
  20:Source\azure_iot_sdk\c-utility\src/consolelogger.c ****         result = NULL;
  21:Source\azure_iot_sdk\c-utility\src/consolelogger.c ****     }
  22:Source\azure_iot_sdk\c-utility\src/consolelogger.c ****     else
  23:Source\azure_iot_sdk\c-utility\src/consolelogger.c ****     {
  24:Source\azure_iot_sdk\c-utility\src/consolelogger.c ****         result = (char*)malloc(neededSize + 1);
  25:Source\azure_iot_sdk\c-utility\src/consolelogger.c ****         if (result == NULL)
  26:Source\azure_iot_sdk\c-utility\src/consolelogger.c ****         {
  27:Source\azure_iot_sdk\c-utility\src/consolelogger.c ****             /*return as is*/
  28:Source\azure_iot_sdk\c-utility\src/consolelogger.c ****         }
  29:Source\azure_iot_sdk\c-utility\src/consolelogger.c ****         else
  30:Source\azure_iot_sdk\c-utility\src/consolelogger.c ****         {
ARM GAS  C:\Users\Phuong\AppData\Local\Temp\cca15Qa6.s 			page 2


  31:Source\azure_iot_sdk\c-utility\src/consolelogger.c ****             if (vsnprintf(result, neededSize + 1, format, va) != neededSize)
  32:Source\azure_iot_sdk\c-utility\src/consolelogger.c ****             {
  33:Source\azure_iot_sdk\c-utility\src/consolelogger.c ****                 free(result);
  34:Source\azure_iot_sdk\c-utility\src/consolelogger.c ****                 result = NULL;
  35:Source\azure_iot_sdk\c-utility\src/consolelogger.c ****             }
  36:Source\azure_iot_sdk\c-utility\src/consolelogger.c ****         }
  37:Source\azure_iot_sdk\c-utility\src/consolelogger.c ****     }
  38:Source\azure_iot_sdk\c-utility\src/consolelogger.c ****     return result;
  39:Source\azure_iot_sdk\c-utility\src/consolelogger.c **** }
  40:Source\azure_iot_sdk\c-utility\src/consolelogger.c **** 
  41:Source\azure_iot_sdk\c-utility\src/consolelogger.c **** /*returns a string as if printed by printf*/
  42:Source\azure_iot_sdk\c-utility\src/consolelogger.c **** static char* printf_alloc(const char* format, ...)
  43:Source\azure_iot_sdk\c-utility\src/consolelogger.c **** {
  44:Source\azure_iot_sdk\c-utility\src/consolelogger.c ****     char* result;
  45:Source\azure_iot_sdk\c-utility\src/consolelogger.c ****     va_list va;
  46:Source\azure_iot_sdk\c-utility\src/consolelogger.c ****     va_start(va, format);
  47:Source\azure_iot_sdk\c-utility\src/consolelogger.c ****     result = vprintf_alloc(format, va);
  48:Source\azure_iot_sdk\c-utility\src/consolelogger.c ****     va_end(va);
  49:Source\azure_iot_sdk\c-utility\src/consolelogger.c ****     return result;
  50:Source\azure_iot_sdk\c-utility\src/consolelogger.c **** }
  51:Source\azure_iot_sdk\c-utility\src/consolelogger.c **** 
  52:Source\azure_iot_sdk\c-utility\src/consolelogger.c **** /*returns NULL if it fails*/
  53:Source\azure_iot_sdk\c-utility\src/consolelogger.c **** static char* lastErrorToString(DWORD lastError)
  54:Source\azure_iot_sdk\c-utility\src/consolelogger.c **** {
  55:Source\azure_iot_sdk\c-utility\src/consolelogger.c ****     char* result;
  56:Source\azure_iot_sdk\c-utility\src/consolelogger.c ****     if (lastError == 0)
  57:Source\azure_iot_sdk\c-utility\src/consolelogger.c ****     {
  58:Source\azure_iot_sdk\c-utility\src/consolelogger.c ****         result = printf_alloc(""); /*no error should appear*/
  59:Source\azure_iot_sdk\c-utility\src/consolelogger.c ****         if (result == NULL)
  60:Source\azure_iot_sdk\c-utility\src/consolelogger.c ****         {
  61:Source\azure_iot_sdk\c-utility\src/consolelogger.c ****             (void)printf("failure in printf_alloc");
  62:Source\azure_iot_sdk\c-utility\src/consolelogger.c ****         }
  63:Source\azure_iot_sdk\c-utility\src/consolelogger.c ****         else
  64:Source\azure_iot_sdk\c-utility\src/consolelogger.c ****         {
  65:Source\azure_iot_sdk\c-utility\src/consolelogger.c ****             /*return as is*/
  66:Source\azure_iot_sdk\c-utility\src/consolelogger.c ****         }
  67:Source\azure_iot_sdk\c-utility\src/consolelogger.c ****     }
  68:Source\azure_iot_sdk\c-utility\src/consolelogger.c ****     else
  69:Source\azure_iot_sdk\c-utility\src/consolelogger.c ****     {
  70:Source\azure_iot_sdk\c-utility\src/consolelogger.c ****         char temp[MESSAGE_BUFFER_SIZE];
  71:Source\azure_iot_sdk\c-utility\src/consolelogger.c ****         if (FormatMessage(FORMAT_MESSAGE_FROM_SYSTEM | FORMAT_MESSAGE_IGNORE_INSERTS, NULL, lastErr
  72:Source\azure_iot_sdk\c-utility\src/consolelogger.c ****         {
  73:Source\azure_iot_sdk\c-utility\src/consolelogger.c ****             result = printf_alloc("GetLastError()=0X%x", lastError);
  74:Source\azure_iot_sdk\c-utility\src/consolelogger.c ****             if (result == NULL)
  75:Source\azure_iot_sdk\c-utility\src/consolelogger.c ****             {
  76:Source\azure_iot_sdk\c-utility\src/consolelogger.c ****                 (void)printf("failure in printf_alloc\n");
  77:Source\azure_iot_sdk\c-utility\src/consolelogger.c ****                 /*return as is*/
  78:Source\azure_iot_sdk\c-utility\src/consolelogger.c ****             }
  79:Source\azure_iot_sdk\c-utility\src/consolelogger.c ****             else
  80:Source\azure_iot_sdk\c-utility\src/consolelogger.c ****             {
  81:Source\azure_iot_sdk\c-utility\src/consolelogger.c ****                 /*return as is*/
  82:Source\azure_iot_sdk\c-utility\src/consolelogger.c ****             }
  83:Source\azure_iot_sdk\c-utility\src/consolelogger.c ****         }
  84:Source\azure_iot_sdk\c-utility\src/consolelogger.c ****         else
  85:Source\azure_iot_sdk\c-utility\src/consolelogger.c ****         {
  86:Source\azure_iot_sdk\c-utility\src/consolelogger.c ****             /*eliminate the \r or \n from the string*/
  87:Source\azure_iot_sdk\c-utility\src/consolelogger.c ****             /*one replace of each is enough*/
ARM GAS  C:\Users\Phuong\AppData\Local\Temp\cca15Qa6.s 			page 3


  88:Source\azure_iot_sdk\c-utility\src/consolelogger.c ****             char* whereAreThey;
  89:Source\azure_iot_sdk\c-utility\src/consolelogger.c ****             if ((whereAreThey = strchr(temp, '\r')) != NULL)
  90:Source\azure_iot_sdk\c-utility\src/consolelogger.c ****             {
  91:Source\azure_iot_sdk\c-utility\src/consolelogger.c ****                 *whereAreThey = '\0';
  92:Source\azure_iot_sdk\c-utility\src/consolelogger.c ****             }
  93:Source\azure_iot_sdk\c-utility\src/consolelogger.c ****             if ((whereAreThey = strchr(temp, '\n')) != NULL)
  94:Source\azure_iot_sdk\c-utility\src/consolelogger.c ****             {
  95:Source\azure_iot_sdk\c-utility\src/consolelogger.c ****                 *whereAreThey = '\0';
  96:Source\azure_iot_sdk\c-utility\src/consolelogger.c ****             }
  97:Source\azure_iot_sdk\c-utility\src/consolelogger.c **** 
  98:Source\azure_iot_sdk\c-utility\src/consolelogger.c ****             result = printf_alloc("GetLastError()==0X%x (%s)", lastError, temp);
  99:Source\azure_iot_sdk\c-utility\src/consolelogger.c **** 
 100:Source\azure_iot_sdk\c-utility\src/consolelogger.c ****             if (result == NULL)
 101:Source\azure_iot_sdk\c-utility\src/consolelogger.c ****             {
 102:Source\azure_iot_sdk\c-utility\src/consolelogger.c ****                 (void)printf("failure in printf_alloc\n");
 103:Source\azure_iot_sdk\c-utility\src/consolelogger.c ****                 /*return as is*/
 104:Source\azure_iot_sdk\c-utility\src/consolelogger.c ****             }
 105:Source\azure_iot_sdk\c-utility\src/consolelogger.c ****             else
 106:Source\azure_iot_sdk\c-utility\src/consolelogger.c ****             {
 107:Source\azure_iot_sdk\c-utility\src/consolelogger.c ****                 /*return as is*/
 108:Source\azure_iot_sdk\c-utility\src/consolelogger.c ****             }
 109:Source\azure_iot_sdk\c-utility\src/consolelogger.c ****         }
 110:Source\azure_iot_sdk\c-utility\src/consolelogger.c ****     }
 111:Source\azure_iot_sdk\c-utility\src/consolelogger.c ****     return result;
 112:Source\azure_iot_sdk\c-utility\src/consolelogger.c **** }
 113:Source\azure_iot_sdk\c-utility\src/consolelogger.c **** /*this function will use 1x printf (in the happy case) .*/
 114:Source\azure_iot_sdk\c-utility\src/consolelogger.c **** /*more than 1x printf / function call can mean intermingled LogErrors in a multithreaded env*/
 115:Source\azure_iot_sdk\c-utility\src/consolelogger.c **** /*the function will also attempt to produce some human readable strings for GetLastError*/
 116:Source\azure_iot_sdk\c-utility\src/consolelogger.c **** void consolelogger_log_with_GetLastError(const char* file, const char* func, int line, const char* 
 117:Source\azure_iot_sdk\c-utility\src/consolelogger.c **** {
 118:Source\azure_iot_sdk\c-utility\src/consolelogger.c ****     DWORD lastError;
 119:Source\azure_iot_sdk\c-utility\src/consolelogger.c ****     char* lastErrorAsString;
 120:Source\azure_iot_sdk\c-utility\src/consolelogger.c ****     int lastErrorAsString_should_be_freed;
 121:Source\azure_iot_sdk\c-utility\src/consolelogger.c ****     time_t t;
 122:Source\azure_iot_sdk\c-utility\src/consolelogger.c ****     int systemMessage_should_be_freed;
 123:Source\azure_iot_sdk\c-utility\src/consolelogger.c ****     char* systemMessage;
 124:Source\azure_iot_sdk\c-utility\src/consolelogger.c ****     int userMessage_should_be_freed;
 125:Source\azure_iot_sdk\c-utility\src/consolelogger.c ****     char* userMessage;
 126:Source\azure_iot_sdk\c-utility\src/consolelogger.c **** 
 127:Source\azure_iot_sdk\c-utility\src/consolelogger.c ****     va_list args;
 128:Source\azure_iot_sdk\c-utility\src/consolelogger.c ****     va_start(args, format);
 129:Source\azure_iot_sdk\c-utility\src/consolelogger.c **** 
 130:Source\azure_iot_sdk\c-utility\src/consolelogger.c ****     /*this is what this case will do:
 131:Source\azure_iot_sdk\c-utility\src/consolelogger.c ****     1. snip the last error
 132:Source\azure_iot_sdk\c-utility\src/consolelogger.c ****     2. create a string with what that last error means
 133:Source\azure_iot_sdk\c-utility\src/consolelogger.c ****     3. printf the system message (__FILE__, __LINE__ etc) + the last error + whatever the user want
 134:Source\azure_iot_sdk\c-utility\src/consolelogger.c ****     */
 135:Source\azure_iot_sdk\c-utility\src/consolelogger.c ****     /*1. snip the last error*/
 136:Source\azure_iot_sdk\c-utility\src/consolelogger.c ****     lastError = GetLastError();
 137:Source\azure_iot_sdk\c-utility\src/consolelogger.c **** 
 138:Source\azure_iot_sdk\c-utility\src/consolelogger.c ****     /*2. create a string with what that last error means*/
 139:Source\azure_iot_sdk\c-utility\src/consolelogger.c ****     lastErrorAsString = lastErrorToString(lastError);
 140:Source\azure_iot_sdk\c-utility\src/consolelogger.c ****     if (lastErrorAsString == NULL)
 141:Source\azure_iot_sdk\c-utility\src/consolelogger.c ****     {
 142:Source\azure_iot_sdk\c-utility\src/consolelogger.c ****         (void)printf("failure in lastErrorToString");
 143:Source\azure_iot_sdk\c-utility\src/consolelogger.c ****         lastErrorAsString = "";
 144:Source\azure_iot_sdk\c-utility\src/consolelogger.c ****         lastErrorAsString_should_be_freed = 0;
ARM GAS  C:\Users\Phuong\AppData\Local\Temp\cca15Qa6.s 			page 4


 145:Source\azure_iot_sdk\c-utility\src/consolelogger.c ****     }
 146:Source\azure_iot_sdk\c-utility\src/consolelogger.c ****     else
 147:Source\azure_iot_sdk\c-utility\src/consolelogger.c ****     {
 148:Source\azure_iot_sdk\c-utility\src/consolelogger.c ****         lastErrorAsString_should_be_freed = 1;
 149:Source\azure_iot_sdk\c-utility\src/consolelogger.c ****     }
 150:Source\azure_iot_sdk\c-utility\src/consolelogger.c **** 
 151:Source\azure_iot_sdk\c-utility\src/consolelogger.c ****     t = time(NULL);
 152:Source\azure_iot_sdk\c-utility\src/consolelogger.c ****     systemMessage = printf_alloc("Error: Time:%.24s File:%s Func:%s Line:%d %s", ctime(&t), file, f
 153:Source\azure_iot_sdk\c-utility\src/consolelogger.c **** 
 154:Source\azure_iot_sdk\c-utility\src/consolelogger.c ****     if (systemMessage == NULL)
 155:Source\azure_iot_sdk\c-utility\src/consolelogger.c ****     {
 156:Source\azure_iot_sdk\c-utility\src/consolelogger.c ****         systemMessage = "";
 157:Source\azure_iot_sdk\c-utility\src/consolelogger.c ****         (void)printf("Error: [FAILED] Time:%.24s File : %s Func : %s Line : %d %s", ctime(&t), file
 158:Source\azure_iot_sdk\c-utility\src/consolelogger.c ****         systemMessage_should_be_freed = 0;
 159:Source\azure_iot_sdk\c-utility\src/consolelogger.c ****     }
 160:Source\azure_iot_sdk\c-utility\src/consolelogger.c ****     else
 161:Source\azure_iot_sdk\c-utility\src/consolelogger.c ****     {
 162:Source\azure_iot_sdk\c-utility\src/consolelogger.c ****         systemMessage_should_be_freed = 1;
 163:Source\azure_iot_sdk\c-utility\src/consolelogger.c ****     }
 164:Source\azure_iot_sdk\c-utility\src/consolelogger.c **** 
 165:Source\azure_iot_sdk\c-utility\src/consolelogger.c ****     userMessage = vprintf_alloc(format, args);
 166:Source\azure_iot_sdk\c-utility\src/consolelogger.c ****     if (userMessage == NULL)
 167:Source\azure_iot_sdk\c-utility\src/consolelogger.c ****     {
 168:Source\azure_iot_sdk\c-utility\src/consolelogger.c ****         (void)printf("[FAILED] ");
 169:Source\azure_iot_sdk\c-utility\src/consolelogger.c ****         (void)vprintf(format, args);
 170:Source\azure_iot_sdk\c-utility\src/consolelogger.c ****         (void)printf("\n");
 171:Source\azure_iot_sdk\c-utility\src/consolelogger.c ****         userMessage_should_be_freed = 0;
 172:Source\azure_iot_sdk\c-utility\src/consolelogger.c ****     }
 173:Source\azure_iot_sdk\c-utility\src/consolelogger.c ****     else
 174:Source\azure_iot_sdk\c-utility\src/consolelogger.c ****     {
 175:Source\azure_iot_sdk\c-utility\src/consolelogger.c ****         /*3. printf the system message(__FILE__, __LINE__ etc) + the last error + whatever the user
 176:Source\azure_iot_sdk\c-utility\src/consolelogger.c ****         (void)printf("%s %s\n", systemMessage, userMessage);
 177:Source\azure_iot_sdk\c-utility\src/consolelogger.c ****         userMessage_should_be_freed = 1;
 178:Source\azure_iot_sdk\c-utility\src/consolelogger.c ****     }
 179:Source\azure_iot_sdk\c-utility\src/consolelogger.c **** 
 180:Source\azure_iot_sdk\c-utility\src/consolelogger.c ****     if (userMessage_should_be_freed == 1)
 181:Source\azure_iot_sdk\c-utility\src/consolelogger.c ****     {
 182:Source\azure_iot_sdk\c-utility\src/consolelogger.c ****         free(userMessage);
 183:Source\azure_iot_sdk\c-utility\src/consolelogger.c ****     }
 184:Source\azure_iot_sdk\c-utility\src/consolelogger.c **** 
 185:Source\azure_iot_sdk\c-utility\src/consolelogger.c ****     if (systemMessage_should_be_freed == 1)
 186:Source\azure_iot_sdk\c-utility\src/consolelogger.c ****     {
 187:Source\azure_iot_sdk\c-utility\src/consolelogger.c ****         free(systemMessage);
 188:Source\azure_iot_sdk\c-utility\src/consolelogger.c ****     }
 189:Source\azure_iot_sdk\c-utility\src/consolelogger.c **** 
 190:Source\azure_iot_sdk\c-utility\src/consolelogger.c ****     if (lastErrorAsString_should_be_freed == 1)
 191:Source\azure_iot_sdk\c-utility\src/consolelogger.c ****     {
 192:Source\azure_iot_sdk\c-utility\src/consolelogger.c ****         free(lastErrorAsString);
 193:Source\azure_iot_sdk\c-utility\src/consolelogger.c ****     }
 194:Source\azure_iot_sdk\c-utility\src/consolelogger.c ****     va_end(args);
 195:Source\azure_iot_sdk\c-utility\src/consolelogger.c **** }
 196:Source\azure_iot_sdk\c-utility\src/consolelogger.c **** #endif
 197:Source\azure_iot_sdk\c-utility\src/consolelogger.c **** 
 198:Source\azure_iot_sdk\c-utility\src/consolelogger.c **** #if defined(__GNUC__)
 199:Source\azure_iot_sdk\c-utility\src/consolelogger.c **** __attribute__ ((format (printf, 6, 7)))
 200:Source\azure_iot_sdk\c-utility\src/consolelogger.c **** #endif
 201:Source\azure_iot_sdk\c-utility\src/consolelogger.c **** void consolelogger_log(LOG_CATEGORY log_category, const char* file, const char* func, int line, uns
ARM GAS  C:\Users\Phuong\AppData\Local\Temp\cca15Qa6.s 			page 5


 202:Source\azure_iot_sdk\c-utility\src/consolelogger.c **** {
  28              		.loc 1 202 0
  29              		.cfi_startproc
  30              		@ args = 8, pretend = 0, frame = 8
  31              		@ frame_needed = 0, uses_anonymous_args = 1
  32              	.LVL0:
  33 0000 F0B5     		push	{r4, r5, r6, r7, lr}
  34              		.cfi_def_cfa_offset 20
  35              		.cfi_offset 4, -20
  36              		.cfi_offset 5, -16
  37              		.cfi_offset 6, -12
  38              		.cfi_offset 7, -8
  39              		.cfi_offset 14, -4
  40 0002 85B0     		sub	sp, sp, #20
  41              		.cfi_def_cfa_offset 40
  42 0004 0400     		movs	r4, r0
  43 0006 0D00     		movs	r5, r1
  44 0008 1600     		movs	r6, r2
  45 000a 1F00     		movs	r7, r3
 203:Source\azure_iot_sdk\c-utility\src/consolelogger.c ****     time_t t;
 204:Source\azure_iot_sdk\c-utility\src/consolelogger.c ****     va_list args;
 205:Source\azure_iot_sdk\c-utility\src/consolelogger.c ****     va_start(args, format);
  46              		.loc 1 205 0
  47 000c 0CAB     		add	r3, sp, #48
  48              	.LVL1:
  49 000e 0293     		str	r3, [sp, #8]
 206:Source\azure_iot_sdk\c-utility\src/consolelogger.c **** 
 207:Source\azure_iot_sdk\c-utility\src/consolelogger.c ****     t = time(NULL);
  50              		.loc 1 207 0
  51 0010 0020     		movs	r0, #0
  52              	.LVL2:
  53 0012 FFF7FEFF 		bl	time
  54              	.LVL3:
  55 0016 0390     		str	r0, [sp, #12]
 208:Source\azure_iot_sdk\c-utility\src/consolelogger.c **** 
 209:Source\azure_iot_sdk\c-utility\src/consolelogger.c ****     switch (log_category)
  56              		.loc 1 209 0
  57 0018 002C     		cmp	r4, #0
  58 001a 05D0     		beq	.L3
  59 001c 012C     		cmp	r4, #1
  60 001e 0DD1     		bne	.L2
 210:Source\azure_iot_sdk\c-utility\src/consolelogger.c ****     {
 211:Source\azure_iot_sdk\c-utility\src/consolelogger.c ****     case AZ_LOG_INFO:
 212:Source\azure_iot_sdk\c-utility\src/consolelogger.c ****         (void)printf("Info: ");
  61              		.loc 1 212 0
  62 0020 0C48     		ldr	r0, .L6
  63 0022 FFF7FEFF 		bl	printf
  64              	.LVL4:
 213:Source\azure_iot_sdk\c-utility\src/consolelogger.c ****         break;
  65              		.loc 1 213 0
  66 0026 09E0     		b	.L2
  67              	.L3:
 214:Source\azure_iot_sdk\c-utility\src/consolelogger.c ****     case AZ_LOG_ERROR:
 215:Source\azure_iot_sdk\c-utility\src/consolelogger.c ****         (void)printf("Error: Time:%.24s File:%s Func:%s Line:%d ", ctime(&t), file, func, line);
  68              		.loc 1 215 0
  69 0028 03A8     		add	r0, sp, #12
  70 002a FFF7FEFF 		bl	ctime
ARM GAS  C:\Users\Phuong\AppData\Local\Temp\cca15Qa6.s 			page 6


  71              	.LVL5:
  72 002e 0100     		movs	r1, r0
  73 0030 0097     		str	r7, [sp]
  74 0032 3300     		movs	r3, r6
  75 0034 2A00     		movs	r2, r5
  76 0036 0848     		ldr	r0, .L6+4
  77 0038 FFF7FEFF 		bl	printf
  78              	.LVL6:
  79              	.L2:
 216:Source\azure_iot_sdk\c-utility\src/consolelogger.c ****         break;
 217:Source\azure_iot_sdk\c-utility\src/consolelogger.c ****     default:
 218:Source\azure_iot_sdk\c-utility\src/consolelogger.c ****         break;
 219:Source\azure_iot_sdk\c-utility\src/consolelogger.c ****     }
 220:Source\azure_iot_sdk\c-utility\src/consolelogger.c **** 
 221:Source\azure_iot_sdk\c-utility\src/consolelogger.c ****     (void)vprintf(format, args);
  80              		.loc 1 221 0
  81 003c 0299     		ldr	r1, [sp, #8]
  82 003e 0B98     		ldr	r0, [sp, #44]
  83 0040 FFF7FEFF 		bl	vprintf
  84              	.LVL7:
 222:Source\azure_iot_sdk\c-utility\src/consolelogger.c ****     va_end(args);
 223:Source\azure_iot_sdk\c-utility\src/consolelogger.c **** 
 224:Source\azure_iot_sdk\c-utility\src/consolelogger.c ****     (void)log_category;
 225:Source\azure_iot_sdk\c-utility\src/consolelogger.c ****     if (options & LOG_LINE)
  85              		.loc 1 225 0
  86 0044 0A9B     		ldr	r3, [sp, #40]
  87 0046 DB07     		lsls	r3, r3, #31
  88 0048 02D5     		bpl	.L1
 226:Source\azure_iot_sdk\c-utility\src/consolelogger.c ****     {
 227:Source\azure_iot_sdk\c-utility\src/consolelogger.c ****         (void)printf("\r\n");
  89              		.loc 1 227 0
  90 004a 0448     		ldr	r0, .L6+8
  91 004c FFF7FEFF 		bl	puts
  92              	.LVL8:
  93              	.L1:
 228:Source\azure_iot_sdk\c-utility\src/consolelogger.c ****     }
 229:Source\azure_iot_sdk\c-utility\src/consolelogger.c **** }
  94              		.loc 1 229 0
  95 0050 05B0     		add	sp, sp, #20
  96              		@ sp needed
  97              	.LVL9:
  98              	.LVL10:
  99              	.LVL11:
 100 0052 F0BD     		pop	{r4, r5, r6, r7, pc}
 101              	.L7:
 102              		.align	2
 103              	.L6:
 104 0054 00000000 		.word	.LC0
 105 0058 08000000 		.word	.LC2
 106 005c 34000000 		.word	.LC4
 107              		.cfi_endproc
 108              	.LFE1:
 109              		.size	consolelogger_log, .-consolelogger_log
 110              		.section	.rodata.str1.4,"aMS",%progbits,1
 111              		.align	2
 112              	.LC0:
 113 0000 496E666F 		.ascii	"Info: \000"
ARM GAS  C:\Users\Phuong\AppData\Local\Temp\cca15Qa6.s 			page 7


 113      3A2000
 114 0007 00       		.space	1
 115              	.LC2:
 116 0008 4572726F 		.ascii	"Error: Time:%.24s File:%s Func:%s Line:%d \000"
 116      723A2054 
 116      696D653A 
 116      252E3234 
 116      73204669 
 117 0033 00       		.space	1
 118              	.LC4:
 119 0034 0D00     		.ascii	"\015\000"
 120              		.text
 121              	.Letext0:
 122              		.file 2 "c:\\program files (x86)\\cypress\\psoc creator\\4.2\\psoc creator\\import\\gnu\\arm\\5.4.
 123              		.file 3 "c:\\program files (x86)\\cypress\\psoc creator\\4.2\\psoc creator\\import\\gnu\\arm\\5.4.
 124              		.file 4 ".\\Source\\azure_iot_sdk\\c-utility\\inc/azure_c_shared_utility/xlogging.h"
 125              		.file 5 "c:\\program files (x86)\\cypress\\psoc creator\\4.2\\psoc creator\\import\\gnu\\arm\\5.4.
 126              		.file 6 "c:\\program files (x86)\\cypress\\psoc creator\\4.2\\psoc creator\\import\\gnu\\arm\\5.4.
 127              		.file 7 "<built-in>"