ARM GAS  C:\Users\Phuong\AppData\Local\Temp\cceqeziA.s 			page 1


   1              		.syntax unified
   2              		.cpu cortex-m0plus
   3              		.fpu softvfp
   4              		.eabi_attribute 20, 1
   5              		.eabi_attribute 21, 1
   6              		.eabi_attribute 23, 3
   7              		.eabi_attribute 24, 1
   8              		.eabi_attribute 25, 1
   9              		.eabi_attribute 26, 1
  10              		.eabi_attribute 30, 1
  11              		.eabi_attribute 34, 0
  12              		.eabi_attribute 18, 4
  13              		.thumb
  14              		.syntax unified
  15              		.file	"crt_abstractions.c"
  16              		.text
  17              	.Ltext0:
  18              		.cfi_sections	.debug_frame
  19              		.section	.text.substricmp,"ax",%progbits
  20              		.align	2
  21              		.code	16
  22              		.thumb_func
  23              		.type	substricmp, %function
  24              	substricmp:
  25              	.LFB6:
  26              		.file 1 "Source\\azure_iot_sdk\\c-utility\\src\\crt_abstractions.c"
   1:Source\azure_iot_sdk\c-utility\src/crt_abstractions.c **** // Copyright (c) Microsoft. All rights reserved.
   2:Source\azure_iot_sdk\c-utility\src/crt_abstractions.c **** // Licensed under the MIT license. See LICENSE file in the project root for full license informatio
   3:Source\azure_iot_sdk\c-utility\src/crt_abstractions.c **** 
   4:Source\azure_iot_sdk\c-utility\src/crt_abstractions.c **** #define __STDC_WANT_LIB_EXT1__ 1
   5:Source\azure_iot_sdk\c-utility\src/crt_abstractions.c **** 
   6:Source\azure_iot_sdk\c-utility\src/crt_abstractions.c **** #include <stdlib.h>
   7:Source\azure_iot_sdk\c-utility\src/crt_abstractions.c **** #include <stddef.h>
   8:Source\azure_iot_sdk\c-utility\src/crt_abstractions.c **** #include <stdarg.h>
   9:Source\azure_iot_sdk\c-utility\src/crt_abstractions.c **** #include <string.h>
  10:Source\azure_iot_sdk\c-utility\src/crt_abstractions.c **** #include <limits.h>
  11:Source\azure_iot_sdk\c-utility\src/crt_abstractions.c **** #include <float.h>
  12:Source\azure_iot_sdk\c-utility\src/crt_abstractions.c **** #include <math.h>
  13:Source\azure_iot_sdk\c-utility\src/crt_abstractions.c **** #include <errno.h>
  14:Source\azure_iot_sdk\c-utility\src/crt_abstractions.c **** #include "azure_c_shared_utility/gballoc.h"
  15:Source\azure_iot_sdk\c-utility\src/crt_abstractions.c **** #include "azure_c_shared_utility/optimize_size.h"
  16:Source\azure_iot_sdk\c-utility\src/crt_abstractions.c **** #include "azure_c_shared_utility/crt_abstractions.h"
  17:Source\azure_iot_sdk\c-utility\src/crt_abstractions.c **** 
  18:Source\azure_iot_sdk\c-utility\src/crt_abstractions.c **** // VS 2008 does not have INFINITY and all the nice goodies...
  19:Source\azure_iot_sdk\c-utility\src/crt_abstractions.c **** #if defined (TIZENRT) || defined (WINCE)
  20:Source\azure_iot_sdk\c-utility\src/crt_abstractions.c **** #define DEFINE_INFINITY 1
  21:Source\azure_iot_sdk\c-utility\src/crt_abstractions.c **** #else
  22:Source\azure_iot_sdk\c-utility\src/crt_abstractions.c **** 
  23:Source\azure_iot_sdk\c-utility\src/crt_abstractions.c **** #if defined _MSC_VER
  24:Source\azure_iot_sdk\c-utility\src/crt_abstractions.c **** #if _MSC_VER <= 1500
  25:Source\azure_iot_sdk\c-utility\src/crt_abstractions.c **** #define DEFINE_INFINITY 1
  26:Source\azure_iot_sdk\c-utility\src/crt_abstractions.c **** #endif
  27:Source\azure_iot_sdk\c-utility\src/crt_abstractions.c **** #endif
  28:Source\azure_iot_sdk\c-utility\src/crt_abstractions.c **** #endif
  29:Source\azure_iot_sdk\c-utility\src/crt_abstractions.c **** 
  30:Source\azure_iot_sdk\c-utility\src/crt_abstractions.c **** #if defined DEFINE_INFINITY
  31:Source\azure_iot_sdk\c-utility\src/crt_abstractions.c **** 
ARM GAS  C:\Users\Phuong\AppData\Local\Temp\cceqeziA.s 			page 2


  32:Source\azure_iot_sdk\c-utility\src/crt_abstractions.c **** #pragma warning(disable:4756 4056) // warning C4756: overflow in constant arithmetic
  33:Source\azure_iot_sdk\c-utility\src/crt_abstractions.c **** 
  34:Source\azure_iot_sdk\c-utility\src/crt_abstractions.c **** // These defines are missing in math.h for WEC2013 SDK
  35:Source\azure_iot_sdk\c-utility\src/crt_abstractions.c **** #ifndef _HUGE_ENUF
  36:Source\azure_iot_sdk\c-utility\src/crt_abstractions.c **** #define _HUGE_ENUF  1e+300  // _HUGE_ENUF*_HUGE_ENUF must overflow
  37:Source\azure_iot_sdk\c-utility\src/crt_abstractions.c **** #endif
  38:Source\azure_iot_sdk\c-utility\src/crt_abstractions.c **** 
  39:Source\azure_iot_sdk\c-utility\src/crt_abstractions.c **** #define INFINITY   ((float)(_HUGE_ENUF * _HUGE_ENUF))
  40:Source\azure_iot_sdk\c-utility\src/crt_abstractions.c **** #define HUGE_VALF  ((float)INFINITY)
  41:Source\azure_iot_sdk\c-utility\src/crt_abstractions.c **** #define HUGE_VALL  ((long double)INFINITY)
  42:Source\azure_iot_sdk\c-utility\src/crt_abstractions.c **** #define NAN        ((float)(INFINITY * 0.0F))
  43:Source\azure_iot_sdk\c-utility\src/crt_abstractions.c **** #endif
  44:Source\azure_iot_sdk\c-utility\src/crt_abstractions.c **** 
  45:Source\azure_iot_sdk\c-utility\src/crt_abstractions.c **** #if defined (_MSC_VER) || defined (MINGW_HAS_SECURE_API)
  46:Source\azure_iot_sdk\c-utility\src/crt_abstractions.c **** #else
  47:Source\azure_iot_sdk\c-utility\src/crt_abstractions.c **** 
  48:Source\azure_iot_sdk\c-utility\src/crt_abstractions.c **** /*Codes_SRS_CRT_ABSTRACTIONS_99_008: [strcat_s shall append the src to dst and terminates the resul
  49:Source\azure_iot_sdk\c-utility\src/crt_abstractions.c **** int strcat_s(char* dst, size_t dstSizeInBytes, const char* src)
  50:Source\azure_iot_sdk\c-utility\src/crt_abstractions.c **** {
  51:Source\azure_iot_sdk\c-utility\src/crt_abstractions.c ****     int result;
  52:Source\azure_iot_sdk\c-utility\src/crt_abstractions.c ****     /*Codes_SRS_CRT_ABSTRACTIONS_99_004: [If dst is NULL or unterminated, the error code returned s
  53:Source\azure_iot_sdk\c-utility\src/crt_abstractions.c ****     if (dst == NULL)
  54:Source\azure_iot_sdk\c-utility\src/crt_abstractions.c ****     {
  55:Source\azure_iot_sdk\c-utility\src/crt_abstractions.c ****         result = EINVAL;
  56:Source\azure_iot_sdk\c-utility\src/crt_abstractions.c ****     }
  57:Source\azure_iot_sdk\c-utility\src/crt_abstractions.c ****     /*Codes_SRS_CRT_ABSTRACTIONS_99_005: [If src is NULL, the error code returned shall be EINVAL a
  58:Source\azure_iot_sdk\c-utility\src/crt_abstractions.c ****     else if (src == NULL)
  59:Source\azure_iot_sdk\c-utility\src/crt_abstractions.c ****     {
  60:Source\azure_iot_sdk\c-utility\src/crt_abstractions.c ****         dst[0] = '\0';
  61:Source\azure_iot_sdk\c-utility\src/crt_abstractions.c ****         result = EINVAL;
  62:Source\azure_iot_sdk\c-utility\src/crt_abstractions.c ****     }
  63:Source\azure_iot_sdk\c-utility\src/crt_abstractions.c ****     else
  64:Source\azure_iot_sdk\c-utility\src/crt_abstractions.c ****     {
  65:Source\azure_iot_sdk\c-utility\src/crt_abstractions.c ****         /*Codes_SRS_CRT_ABSTRACTIONS_99_006: [If the dstSizeInBytes is 0 or smaller than the requir
  66:Source\azure_iot_sdk\c-utility\src/crt_abstractions.c ****         if (dstSizeInBytes == 0)
  67:Source\azure_iot_sdk\c-utility\src/crt_abstractions.c ****         {
  68:Source\azure_iot_sdk\c-utility\src/crt_abstractions.c ****             result = ERANGE;
  69:Source\azure_iot_sdk\c-utility\src/crt_abstractions.c ****             dst[0] = '\0';
  70:Source\azure_iot_sdk\c-utility\src/crt_abstractions.c ****         }
  71:Source\azure_iot_sdk\c-utility\src/crt_abstractions.c ****         else
  72:Source\azure_iot_sdk\c-utility\src/crt_abstractions.c ****         {
  73:Source\azure_iot_sdk\c-utility\src/crt_abstractions.c ****             size_t dstStrLen = 0;
  74:Source\azure_iot_sdk\c-utility\src/crt_abstractions.c ****             size_t src_len = strlen(src);
  75:Source\azure_iot_sdk\c-utility\src/crt_abstractions.c **** #ifdef __STDC_LIB_EXT1__
  76:Source\azure_iot_sdk\c-utility\src/crt_abstractions.c ****             dstStrLen = strnlen_s(dst, dstSizeInBytes);
  77:Source\azure_iot_sdk\c-utility\src/crt_abstractions.c **** #else
  78:Source\azure_iot_sdk\c-utility\src/crt_abstractions.c ****             size_t i;
  79:Source\azure_iot_sdk\c-utility\src/crt_abstractions.c ****             for(i=0; (i < dstSizeInBytes) && (dst[i]!= '\0'); i++)
  80:Source\azure_iot_sdk\c-utility\src/crt_abstractions.c ****             {
  81:Source\azure_iot_sdk\c-utility\src/crt_abstractions.c ****             }
  82:Source\azure_iot_sdk\c-utility\src/crt_abstractions.c ****             dstStrLen = i;
  83:Source\azure_iot_sdk\c-utility\src/crt_abstractions.c **** #endif
  84:Source\azure_iot_sdk\c-utility\src/crt_abstractions.c ****             /*Codes_SRS_CRT_ABSTRACTIONS_99_004: [If dst is NULL or unterminated, the error code re
  85:Source\azure_iot_sdk\c-utility\src/crt_abstractions.c ****             if (dstSizeInBytes == dstStrLen) /* this means the dst string is not terminated*/
  86:Source\azure_iot_sdk\c-utility\src/crt_abstractions.c ****             {
  87:Source\azure_iot_sdk\c-utility\src/crt_abstractions.c ****                 result = EINVAL;
  88:Source\azure_iot_sdk\c-utility\src/crt_abstractions.c ****             }
ARM GAS  C:\Users\Phuong\AppData\Local\Temp\cceqeziA.s 			page 3


  89:Source\azure_iot_sdk\c-utility\src/crt_abstractions.c ****             // If we are instructed to write too much data to the buffer
  90:Source\azure_iot_sdk\c-utility\src/crt_abstractions.c ****             // return ERANGE
  91:Source\azure_iot_sdk\c-utility\src/crt_abstractions.c ****             else if ((src_len + dstStrLen) >= dstSizeInBytes)
  92:Source\azure_iot_sdk\c-utility\src/crt_abstractions.c ****             {
  93:Source\azure_iot_sdk\c-utility\src/crt_abstractions.c ****                 dst[0] = '\0';
  94:Source\azure_iot_sdk\c-utility\src/crt_abstractions.c ****                 result = ERANGE;
  95:Source\azure_iot_sdk\c-utility\src/crt_abstractions.c ****             }
  96:Source\azure_iot_sdk\c-utility\src/crt_abstractions.c ****             else
  97:Source\azure_iot_sdk\c-utility\src/crt_abstractions.c ****             {
  98:Source\azure_iot_sdk\c-utility\src/crt_abstractions.c ****                 // memcpy should at most copy the result of strlen(src) or there may be
  99:Source\azure_iot_sdk\c-utility\src/crt_abstractions.c ****                 // some issues with copying unwanted memory
 100:Source\azure_iot_sdk\c-utility\src/crt_abstractions.c ****                 size_t bytes_to_cpy = dstSizeInBytes - dstStrLen;
 101:Source\azure_iot_sdk\c-utility\src/crt_abstractions.c ****                 if (bytes_to_cpy > src_len)
 102:Source\azure_iot_sdk\c-utility\src/crt_abstractions.c ****                 {
 103:Source\azure_iot_sdk\c-utility\src/crt_abstractions.c ****                     bytes_to_cpy = src_len;
 104:Source\azure_iot_sdk\c-utility\src/crt_abstractions.c ****                 }
 105:Source\azure_iot_sdk\c-utility\src/crt_abstractions.c **** 
 106:Source\azure_iot_sdk\c-utility\src/crt_abstractions.c ****                 /*Codes_SRS_CRT_ABSTRACTIONS_99_009: [The initial character of src shall overwrite 
 107:Source\azure_iot_sdk\c-utility\src/crt_abstractions.c ****                 if (memcpy(&dst[dstStrLen], src, bytes_to_cpy) == NULL)
 108:Source\azure_iot_sdk\c-utility\src/crt_abstractions.c ****                 /*Codes_SRS_CRT_ABSTRACTIONS_99_006: [If the dstSizeInBytes is 0 or smaller than th
 109:Source\azure_iot_sdk\c-utility\src/crt_abstractions.c ****                 {
 110:Source\azure_iot_sdk\c-utility\src/crt_abstractions.c ****                     dst[0] = '\0';
 111:Source\azure_iot_sdk\c-utility\src/crt_abstractions.c ****                     result = ERANGE;
 112:Source\azure_iot_sdk\c-utility\src/crt_abstractions.c ****                 }
 113:Source\azure_iot_sdk\c-utility\src/crt_abstractions.c ****                 else
 114:Source\azure_iot_sdk\c-utility\src/crt_abstractions.c ****                 {
 115:Source\azure_iot_sdk\c-utility\src/crt_abstractions.c ****                     /*Codes_SRS_CRT_ABSTRACTIONS_99_003: [strcat_s shall return Zero upon success.]
 116:Source\azure_iot_sdk\c-utility\src/crt_abstractions.c ****                     dst[dstStrLen+bytes_to_cpy] = '\0';
 117:Source\azure_iot_sdk\c-utility\src/crt_abstractions.c ****                     result = 0;
 118:Source\azure_iot_sdk\c-utility\src/crt_abstractions.c ****                 }
 119:Source\azure_iot_sdk\c-utility\src/crt_abstractions.c ****             }
 120:Source\azure_iot_sdk\c-utility\src/crt_abstractions.c ****         }
 121:Source\azure_iot_sdk\c-utility\src/crt_abstractions.c ****     }
 122:Source\azure_iot_sdk\c-utility\src/crt_abstractions.c ****     return result;
 123:Source\azure_iot_sdk\c-utility\src/crt_abstractions.c **** }
 124:Source\azure_iot_sdk\c-utility\src/crt_abstractions.c **** 
 125:Source\azure_iot_sdk\c-utility\src/crt_abstractions.c **** /*Codes_SRS_CRT_ABSTRACTIONS_99_025: [strncpy_s shall copy the first N characters of src to dst, wh
 126:Source\azure_iot_sdk\c-utility\src/crt_abstractions.c **** int strncpy_s(char* dst, size_t dstSizeInBytes, const char* src, size_t maxCount)
 127:Source\azure_iot_sdk\c-utility\src/crt_abstractions.c **** {
 128:Source\azure_iot_sdk\c-utility\src/crt_abstractions.c ****     int result;
 129:Source\azure_iot_sdk\c-utility\src/crt_abstractions.c ****     int truncationFlag = 0;
 130:Source\azure_iot_sdk\c-utility\src/crt_abstractions.c ****     /*Codes_SRS_CRT_ABSTRACTIONS_99_020: [If dst is NULL, the error code returned shall be EINVAL a
 131:Source\azure_iot_sdk\c-utility\src/crt_abstractions.c ****     if (dst == NULL)
 132:Source\azure_iot_sdk\c-utility\src/crt_abstractions.c ****     {
 133:Source\azure_iot_sdk\c-utility\src/crt_abstractions.c ****         result = EINVAL;
 134:Source\azure_iot_sdk\c-utility\src/crt_abstractions.c ****     }
 135:Source\azure_iot_sdk\c-utility\src/crt_abstractions.c ****     /*Codes_SRS_CRT_ABSTRACTIONS_99_021: [If src is NULL, the error code returned shall be EINVAL a
 136:Source\azure_iot_sdk\c-utility\src/crt_abstractions.c ****     else if (src == NULL)
 137:Source\azure_iot_sdk\c-utility\src/crt_abstractions.c ****     {
 138:Source\azure_iot_sdk\c-utility\src/crt_abstractions.c ****         dst[0] = '\0';
 139:Source\azure_iot_sdk\c-utility\src/crt_abstractions.c ****         result = EINVAL;
 140:Source\azure_iot_sdk\c-utility\src/crt_abstractions.c ****     }
 141:Source\azure_iot_sdk\c-utility\src/crt_abstractions.c ****     /*Codes_SRS_CRT_ABSTRACTIONS_99_022: [If the dstSizeInBytes is 0, the error code returned shall
 142:Source\azure_iot_sdk\c-utility\src/crt_abstractions.c ****     else if (dstSizeInBytes == 0)
 143:Source\azure_iot_sdk\c-utility\src/crt_abstractions.c ****     {
 144:Source\azure_iot_sdk\c-utility\src/crt_abstractions.c ****         result = EINVAL;
 145:Source\azure_iot_sdk\c-utility\src/crt_abstractions.c ****     }
ARM GAS  C:\Users\Phuong\AppData\Local\Temp\cceqeziA.s 			page 4


 146:Source\azure_iot_sdk\c-utility\src/crt_abstractions.c ****     else
 147:Source\azure_iot_sdk\c-utility\src/crt_abstractions.c ****     {
 148:Source\azure_iot_sdk\c-utility\src/crt_abstractions.c ****         size_t srcLength = strlen(src);
 149:Source\azure_iot_sdk\c-utility\src/crt_abstractions.c ****         if (maxCount != _TRUNCATE)
 150:Source\azure_iot_sdk\c-utility\src/crt_abstractions.c ****         {
 151:Source\azure_iot_sdk\c-utility\src/crt_abstractions.c ****             /*Codes_SRS_CRT_ABSTRACTIONS_99_041: [If those N characters will fit within dst (whose 
 152:Source\azure_iot_sdk\c-utility\src/crt_abstractions.c ****             if (srcLength > maxCount)
 153:Source\azure_iot_sdk\c-utility\src/crt_abstractions.c ****             {
 154:Source\azure_iot_sdk\c-utility\src/crt_abstractions.c ****                 srcLength = maxCount;
 155:Source\azure_iot_sdk\c-utility\src/crt_abstractions.c ****             }
 156:Source\azure_iot_sdk\c-utility\src/crt_abstractions.c **** 
 157:Source\azure_iot_sdk\c-utility\src/crt_abstractions.c ****             /*Codes_SRS_CRT_ABSTRACTIONS_99_023: [If dst is not NULL & dstSizeInBytes is smaller th
 158:Source\azure_iot_sdk\c-utility\src/crt_abstractions.c ****             if (srcLength + 1 > dstSizeInBytes)
 159:Source\azure_iot_sdk\c-utility\src/crt_abstractions.c ****             {
 160:Source\azure_iot_sdk\c-utility\src/crt_abstractions.c ****                 dst[0] = '\0';
 161:Source\azure_iot_sdk\c-utility\src/crt_abstractions.c ****                 result = ERANGE;
 162:Source\azure_iot_sdk\c-utility\src/crt_abstractions.c ****             }
 163:Source\azure_iot_sdk\c-utility\src/crt_abstractions.c ****             else
 164:Source\azure_iot_sdk\c-utility\src/crt_abstractions.c ****             {
 165:Source\azure_iot_sdk\c-utility\src/crt_abstractions.c ****                 (void)memcpy(dst, src, srcLength);
 166:Source\azure_iot_sdk\c-utility\src/crt_abstractions.c ****                 dst[srcLength] = '\0';
 167:Source\azure_iot_sdk\c-utility\src/crt_abstractions.c ****                 /*Codes_SRS_CRT_ABSTRACTIONS_99_018: [strncpy_s shall return Zero upon success]*/
 168:Source\azure_iot_sdk\c-utility\src/crt_abstractions.c ****                 result = 0;
 169:Source\azure_iot_sdk\c-utility\src/crt_abstractions.c ****             }
 170:Source\azure_iot_sdk\c-utility\src/crt_abstractions.c ****         }
 171:Source\azure_iot_sdk\c-utility\src/crt_abstractions.c ****         /*Codes_SRS_CRT_ABSTRACTIONS_99_026: [If MaxCount is _TRUNCATE (defined as -1), then as muc
 172:Source\azure_iot_sdk\c-utility\src/crt_abstractions.c ****         else
 173:Source\azure_iot_sdk\c-utility\src/crt_abstractions.c ****         {
 174:Source\azure_iot_sdk\c-utility\src/crt_abstractions.c ****             if (srcLength + 1 > dstSizeInBytes )
 175:Source\azure_iot_sdk\c-utility\src/crt_abstractions.c ****             {
 176:Source\azure_iot_sdk\c-utility\src/crt_abstractions.c ****                 srcLength = dstSizeInBytes - 1;
 177:Source\azure_iot_sdk\c-utility\src/crt_abstractions.c ****                 truncationFlag = 1;
 178:Source\azure_iot_sdk\c-utility\src/crt_abstractions.c ****             }
 179:Source\azure_iot_sdk\c-utility\src/crt_abstractions.c ****             (void)memcpy(dst, src, srcLength);
 180:Source\azure_iot_sdk\c-utility\src/crt_abstractions.c ****             dst[srcLength] = '\0';
 181:Source\azure_iot_sdk\c-utility\src/crt_abstractions.c ****             result = 0;
 182:Source\azure_iot_sdk\c-utility\src/crt_abstractions.c ****         }
 183:Source\azure_iot_sdk\c-utility\src/crt_abstractions.c ****     }
 184:Source\azure_iot_sdk\c-utility\src/crt_abstractions.c **** 
 185:Source\azure_iot_sdk\c-utility\src/crt_abstractions.c ****     /*Codes_SRS_CRT_ABSTRACTIONS_99_019: [If truncation occurred as a result of the copy, the error
 186:Source\azure_iot_sdk\c-utility\src/crt_abstractions.c ****     if (truncationFlag == 1)
 187:Source\azure_iot_sdk\c-utility\src/crt_abstractions.c ****     {
 188:Source\azure_iot_sdk\c-utility\src/crt_abstractions.c ****         result = STRUNCATE;
 189:Source\azure_iot_sdk\c-utility\src/crt_abstractions.c ****     }
 190:Source\azure_iot_sdk\c-utility\src/crt_abstractions.c **** 
 191:Source\azure_iot_sdk\c-utility\src/crt_abstractions.c ****     return result;
 192:Source\azure_iot_sdk\c-utility\src/crt_abstractions.c **** }
 193:Source\azure_iot_sdk\c-utility\src/crt_abstractions.c **** 
 194:Source\azure_iot_sdk\c-utility\src/crt_abstractions.c **** /* Codes_SRS_CRT_ABSTRACTIONS_99_016: [strcpy_s shall copy the contents in the address of src, incl
 195:Source\azure_iot_sdk\c-utility\src/crt_abstractions.c **** int strcpy_s(char* dst, size_t dstSizeInBytes, const char* src)
 196:Source\azure_iot_sdk\c-utility\src/crt_abstractions.c **** {
 197:Source\azure_iot_sdk\c-utility\src/crt_abstractions.c ****     int result;
 198:Source\azure_iot_sdk\c-utility\src/crt_abstractions.c **** 
 199:Source\azure_iot_sdk\c-utility\src/crt_abstractions.c ****     /* Codes_SRS_CRT_ABSTRACTIONS_99_012: [If dst is NULL, the error code returned shall be EINVAL 
 200:Source\azure_iot_sdk\c-utility\src/crt_abstractions.c ****     if (dst == NULL)
 201:Source\azure_iot_sdk\c-utility\src/crt_abstractions.c ****     {
 202:Source\azure_iot_sdk\c-utility\src/crt_abstractions.c ****         result = EINVAL;
ARM GAS  C:\Users\Phuong\AppData\Local\Temp\cceqeziA.s 			page 5


 203:Source\azure_iot_sdk\c-utility\src/crt_abstractions.c ****     }
 204:Source\azure_iot_sdk\c-utility\src/crt_abstractions.c ****     /* Codes_SRS_CRT_ABSTRACTIONS_99_013: [If src is NULL, the error code returned shall be EINVAL 
 205:Source\azure_iot_sdk\c-utility\src/crt_abstractions.c ****     else if (src == NULL)
 206:Source\azure_iot_sdk\c-utility\src/crt_abstractions.c ****     {
 207:Source\azure_iot_sdk\c-utility\src/crt_abstractions.c ****         dst[0] = '\0';
 208:Source\azure_iot_sdk\c-utility\src/crt_abstractions.c ****         result = EINVAL;
 209:Source\azure_iot_sdk\c-utility\src/crt_abstractions.c ****     }
 210:Source\azure_iot_sdk\c-utility\src/crt_abstractions.c ****     /* Codes_SRS_CRT_ABSTRACTIONS_99_014: [If the dstSizeInBytes is 0 or smaller than the required 
 211:Source\azure_iot_sdk\c-utility\src/crt_abstractions.c ****     else if (dstSizeInBytes == 0)
 212:Source\azure_iot_sdk\c-utility\src/crt_abstractions.c ****     {
 213:Source\azure_iot_sdk\c-utility\src/crt_abstractions.c ****         dst[0] = '\0';
 214:Source\azure_iot_sdk\c-utility\src/crt_abstractions.c ****         result = ERANGE;
 215:Source\azure_iot_sdk\c-utility\src/crt_abstractions.c ****     }
 216:Source\azure_iot_sdk\c-utility\src/crt_abstractions.c ****     else
 217:Source\azure_iot_sdk\c-utility\src/crt_abstractions.c ****     {
 218:Source\azure_iot_sdk\c-utility\src/crt_abstractions.c ****         size_t neededBuffer = strlen(src);
 219:Source\azure_iot_sdk\c-utility\src/crt_abstractions.c ****         /* Codes_SRS_CRT_ABSTRACTIONS_99_014: [If the dstSizeInBytes is 0 or smaller than the requi
 220:Source\azure_iot_sdk\c-utility\src/crt_abstractions.c ****         if (neededBuffer + 1 > dstSizeInBytes)
 221:Source\azure_iot_sdk\c-utility\src/crt_abstractions.c ****         {
 222:Source\azure_iot_sdk\c-utility\src/crt_abstractions.c ****             dst[0] = '\0';
 223:Source\azure_iot_sdk\c-utility\src/crt_abstractions.c ****             result = ERANGE;
 224:Source\azure_iot_sdk\c-utility\src/crt_abstractions.c ****         }
 225:Source\azure_iot_sdk\c-utility\src/crt_abstractions.c ****         else
 226:Source\azure_iot_sdk\c-utility\src/crt_abstractions.c ****         {
 227:Source\azure_iot_sdk\c-utility\src/crt_abstractions.c ****             (void)memcpy(dst, src, neededBuffer + 1);
 228:Source\azure_iot_sdk\c-utility\src/crt_abstractions.c ****             /*Codes_SRS_CRT_ABSTRACTIONS_99_011: [strcpy_s shall return Zero upon success]*/
 229:Source\azure_iot_sdk\c-utility\src/crt_abstractions.c ****             result = 0;
 230:Source\azure_iot_sdk\c-utility\src/crt_abstractions.c ****         }
 231:Source\azure_iot_sdk\c-utility\src/crt_abstractions.c ****     }
 232:Source\azure_iot_sdk\c-utility\src/crt_abstractions.c **** 
 233:Source\azure_iot_sdk\c-utility\src/crt_abstractions.c ****     return result;
 234:Source\azure_iot_sdk\c-utility\src/crt_abstractions.c **** }
 235:Source\azure_iot_sdk\c-utility\src/crt_abstractions.c **** 
 236:Source\azure_iot_sdk\c-utility\src/crt_abstractions.c **** /*Codes_SRS_CRT_ABSTRACTIONS_99_029: [The sprintf_s function shall format and store series of chara
 237:Source\azure_iot_sdk\c-utility\src/crt_abstractions.c **** /*Codes_SRS_CRT_ABSTRACTIONS_99_031: [A null character is appended after the last character written
 238:Source\azure_iot_sdk\c-utility\src/crt_abstractions.c **** int sprintf_s(char* dst, size_t dstSizeInBytes, const char* format, ...)
 239:Source\azure_iot_sdk\c-utility\src/crt_abstractions.c **** {
 240:Source\azure_iot_sdk\c-utility\src/crt_abstractions.c ****     int result;
 241:Source\azure_iot_sdk\c-utility\src/crt_abstractions.c ****     /*Codes_SRS_CRT_ABSTRACTIONS_99_028: [If dst or format is a null pointer, sprintf_s shall retur
 242:Source\azure_iot_sdk\c-utility\src/crt_abstractions.c ****     if ((dst == NULL) ||
 243:Source\azure_iot_sdk\c-utility\src/crt_abstractions.c ****         (format == NULL))
 244:Source\azure_iot_sdk\c-utility\src/crt_abstractions.c ****     {
 245:Source\azure_iot_sdk\c-utility\src/crt_abstractions.c ****         errno = EINVAL;
 246:Source\azure_iot_sdk\c-utility\src/crt_abstractions.c ****         result = -1;
 247:Source\azure_iot_sdk\c-utility\src/crt_abstractions.c ****     }
 248:Source\azure_iot_sdk\c-utility\src/crt_abstractions.c ****     else
 249:Source\azure_iot_sdk\c-utility\src/crt_abstractions.c ****     {
 250:Source\azure_iot_sdk\c-utility\src/crt_abstractions.c ****         /*Codes_SRS_CRT_ABSTRACTIONS_99_033: [sprintf_s shall check the format string for valid for
 251:Source\azure_iot_sdk\c-utility\src/crt_abstractions.c **** 
 252:Source\azure_iot_sdk\c-utility\src/crt_abstractions.c **** #if defined _MSC_VER
 253:Source\azure_iot_sdk\c-utility\src/crt_abstractions.c **** #error crt_abstractions is not provided for Microsoft Compilers
 254:Source\azure_iot_sdk\c-utility\src/crt_abstractions.c **** #else
 255:Source\azure_iot_sdk\c-utility\src/crt_abstractions.c ****         /*not Microsoft compiler... */
 256:Source\azure_iot_sdk\c-utility\src/crt_abstractions.c **** #if defined (__STDC_VERSION__) || (__cplusplus)
 257:Source\azure_iot_sdk\c-utility\src/crt_abstractions.c **** #if ( \
 258:Source\azure_iot_sdk\c-utility\src/crt_abstractions.c ****         ((__STDC_VERSION__  == 199901L) || (__STDC_VERSION__ == 201000L) || (__STDC_VERSION__ == 20
 259:Source\azure_iot_sdk\c-utility\src/crt_abstractions.c ****         (defined __cplusplus) \
ARM GAS  C:\Users\Phuong\AppData\Local\Temp\cceqeziA.s 			page 6


 260:Source\azure_iot_sdk\c-utility\src/crt_abstractions.c ****     )
 261:Source\azure_iot_sdk\c-utility\src/crt_abstractions.c ****         /*C99 compiler*/
 262:Source\azure_iot_sdk\c-utility\src/crt_abstractions.c ****         va_list args;
 263:Source\azure_iot_sdk\c-utility\src/crt_abstractions.c ****         va_start(args, format);
 264:Source\azure_iot_sdk\c-utility\src/crt_abstractions.c ****         /*Codes_SRS_CRT_ABSTRACTIONS_99_027: [sprintf_s shall return the number of characters store
 265:Source\azure_iot_sdk\c-utility\src/crt_abstractions.c ****         result = vsnprintf(dst, dstSizeInBytes, format, args);
 266:Source\azure_iot_sdk\c-utility\src/crt_abstractions.c ****         va_end(args);
 267:Source\azure_iot_sdk\c-utility\src/crt_abstractions.c **** 
 268:Source\azure_iot_sdk\c-utility\src/crt_abstractions.c ****         /*C99: Thus, the null-terminated output has been completely written if and only if the retu
 269:Source\azure_iot_sdk\c-utility\src/crt_abstractions.c ****         if (result < 0)
 270:Source\azure_iot_sdk\c-utility\src/crt_abstractions.c ****         {
 271:Source\azure_iot_sdk\c-utility\src/crt_abstractions.c ****             result = -1;
 272:Source\azure_iot_sdk\c-utility\src/crt_abstractions.c ****         }
 273:Source\azure_iot_sdk\c-utility\src/crt_abstractions.c ****         else if ((size_t)result >= dstSizeInBytes)
 274:Source\azure_iot_sdk\c-utility\src/crt_abstractions.c ****         {
 275:Source\azure_iot_sdk\c-utility\src/crt_abstractions.c ****             /*Codes_SRS_CRT_ABSTRACTIONS_99_034: [If the dst buffer is too small for the text being
 276:Source\azure_iot_sdk\c-utility\src/crt_abstractions.c ****             dst[0] = '\0';
 277:Source\azure_iot_sdk\c-utility\src/crt_abstractions.c ****             result = -1;
 278:Source\azure_iot_sdk\c-utility\src/crt_abstractions.c ****         }
 279:Source\azure_iot_sdk\c-utility\src/crt_abstractions.c ****         else
 280:Source\azure_iot_sdk\c-utility\src/crt_abstractions.c ****         {
 281:Source\azure_iot_sdk\c-utility\src/crt_abstractions.c ****             /*do nothing, all is fine*/
 282:Source\azure_iot_sdk\c-utility\src/crt_abstractions.c ****         }
 283:Source\azure_iot_sdk\c-utility\src/crt_abstractions.c **** #else
 284:Source\azure_iot_sdk\c-utility\src/crt_abstractions.c **** #error STDC_VERSION defined, but of unknown value; unable to sprinf_s, or provide own implementatio
 285:Source\azure_iot_sdk\c-utility\src/crt_abstractions.c **** #endif
 286:Source\azure_iot_sdk\c-utility\src/crt_abstractions.c **** #else
 287:Source\azure_iot_sdk\c-utility\src/crt_abstractions.c **** #error for STDC_VERSION undefined (assumed C89), provide own implementation of sprintf_s
 288:Source\azure_iot_sdk\c-utility\src/crt_abstractions.c **** #endif
 289:Source\azure_iot_sdk\c-utility\src/crt_abstractions.c **** #endif
 290:Source\azure_iot_sdk\c-utility\src/crt_abstractions.c ****     }
 291:Source\azure_iot_sdk\c-utility\src/crt_abstractions.c ****     return result;
 292:Source\azure_iot_sdk\c-utility\src/crt_abstractions.c **** }
 293:Source\azure_iot_sdk\c-utility\src/crt_abstractions.c **** #endif /* _MSC_VER || MINGW_HAS_SECURE_API */
 294:Source\azure_iot_sdk\c-utility\src/crt_abstractions.c **** 
 295:Source\azure_iot_sdk\c-utility\src/crt_abstractions.c **** /*Codes_SRS_CRT_ABSTRACTIONS_21_006: [The strtoull_s must use the letters from a(or A) through z(or
 296:Source\azure_iot_sdk\c-utility\src/crt_abstractions.c **** /* returns the integer value that correspond to the character 'c'. If the character is invalid, it 
 297:Source\azure_iot_sdk\c-utility\src/crt_abstractions.c **** #define DIGIT_VAL(c)         (((c>='0') && (c<='9')) ? (c-'0') : ((c>='a') && (c<='z')) ? (c-'a'+10
 298:Source\azure_iot_sdk\c-utility\src/crt_abstractions.c **** #define IN_BASE_RANGE(d, b)  ((d >= 0) && (d < b))
 299:Source\azure_iot_sdk\c-utility\src/crt_abstractions.c **** 
 300:Source\azure_iot_sdk\c-utility\src/crt_abstractions.c **** /*Codes_SRS_CRT_ABSTRACTIONS_21_010: [The white-space must be one of the characters ' ', '\f', '\n'
 301:Source\azure_iot_sdk\c-utility\src/crt_abstractions.c **** #define IS_SPACE(c)           (c == ' ' || c == '\f' || c == '\n' || c == '\r' || c == '\t' || c ==
 302:Source\azure_iot_sdk\c-utility\src/crt_abstractions.c **** 
 303:Source\azure_iot_sdk\c-utility\src/crt_abstractions.c **** /*Codes_SRS_CRT_ABSTRACTIONS_21_001: [The strtoull_s must convert the initial portion of the string
 304:Source\azure_iot_sdk\c-utility\src/crt_abstractions.c **** /*Codes_SRS_CRT_ABSTRACTIONS_21_002: [The strtoull_s must resembling an integer represented in some
 305:Source\azure_iot_sdk\c-utility\src/crt_abstractions.c **** /*Codes_SRS_CRT_ABSTRACTIONS_21_003: [The strtoull_s must return the integer that represents the va
 306:Source\azure_iot_sdk\c-utility\src/crt_abstractions.c **** unsigned long long strtoull_s(const char* nptr, char** endptr, int base)
 307:Source\azure_iot_sdk\c-utility\src/crt_abstractions.c **** {
 308:Source\azure_iot_sdk\c-utility\src/crt_abstractions.c ****     unsigned long long result = 0ULL;
 309:Source\azure_iot_sdk\c-utility\src/crt_abstractions.c ****     bool validStr = true;
 310:Source\azure_iot_sdk\c-utility\src/crt_abstractions.c ****     char* runner = (char*)nptr;
 311:Source\azure_iot_sdk\c-utility\src/crt_abstractions.c ****     bool isNegative = false;
 312:Source\azure_iot_sdk\c-utility\src/crt_abstractions.c ****     int digitVal;
 313:Source\azure_iot_sdk\c-utility\src/crt_abstractions.c **** 
 314:Source\azure_iot_sdk\c-utility\src/crt_abstractions.c ****     /*Codes_SRS_CRT_ABSTRACTIONS_21_005: [The strtoull_s must convert number using base 2 to 36.]*/
 315:Source\azure_iot_sdk\c-utility\src/crt_abstractions.c ****     /*Codes_SRS_CRT_ABSTRACTIONS_21_012: [If the subject sequence is empty or does not have the exp
 316:Source\azure_iot_sdk\c-utility\src/crt_abstractions.c ****     /*Codes_SRS_CRT_ABSTRACTIONS_21_013: [If no conversion could be performed, the strtoull_s retur
ARM GAS  C:\Users\Phuong\AppData\Local\Temp\cceqeziA.s 			page 7


 317:Source\azure_iot_sdk\c-utility\src/crt_abstractions.c ****     /*Codes_SRS_CRT_ABSTRACTIONS_21_035: [If the nptr is NULL, the strtoull_s must **not** perform 
 318:Source\azure_iot_sdk\c-utility\src/crt_abstractions.c ****         if (((base >= 2) || (base == 0)) && (base <= 36) && (runner != NULL))
 319:Source\azure_iot_sdk\c-utility\src/crt_abstractions.c ****     {
 320:Source\azure_iot_sdk\c-utility\src/crt_abstractions.c ****         /*Codes_SRS_CRT_ABSTRACTIONS_21_011: [The valid sequence starts after the first non-white-s
 321:Source\azure_iot_sdk\c-utility\src/crt_abstractions.c ****         /*Codes_SRS_CRT_ABSTRACTIONS_21_010: [The white-space must be one of the characters ' ', '\
 322:Source\azure_iot_sdk\c-utility\src/crt_abstractions.c ****         while (IS_SPACE(*runner))
 323:Source\azure_iot_sdk\c-utility\src/crt_abstractions.c ****         {
 324:Source\azure_iot_sdk\c-utility\src/crt_abstractions.c ****             runner++;
 325:Source\azure_iot_sdk\c-utility\src/crt_abstractions.c ****         }
 326:Source\azure_iot_sdk\c-utility\src/crt_abstractions.c ****         if ((*runner) == '+')
 327:Source\azure_iot_sdk\c-utility\src/crt_abstractions.c ****         {
 328:Source\azure_iot_sdk\c-utility\src/crt_abstractions.c ****             runner++;
 329:Source\azure_iot_sdk\c-utility\src/crt_abstractions.c ****         }
 330:Source\azure_iot_sdk\c-utility\src/crt_abstractions.c ****         else if ((*runner) == '-')
 331:Source\azure_iot_sdk\c-utility\src/crt_abstractions.c ****         {
 332:Source\azure_iot_sdk\c-utility\src/crt_abstractions.c ****             /*Codes_SRS_CRT_ABSTRACTIONS_21_038: [If the subject sequence starts with a negative si
 333:Source\azure_iot_sdk\c-utility\src/crt_abstractions.c ****             isNegative = true;
 334:Source\azure_iot_sdk\c-utility\src/crt_abstractions.c ****             runner++;
 335:Source\azure_iot_sdk\c-utility\src/crt_abstractions.c ****         }
 336:Source\azure_iot_sdk\c-utility\src/crt_abstractions.c **** 
 337:Source\azure_iot_sdk\c-utility\src/crt_abstractions.c ****         if ((*runner) == '0')
 338:Source\azure_iot_sdk\c-utility\src/crt_abstractions.c ****         {
 339:Source\azure_iot_sdk\c-utility\src/crt_abstractions.c ****             if ((*(runner+1) == 'x') || (*(runner+1) == 'X'))
 340:Source\azure_iot_sdk\c-utility\src/crt_abstractions.c ****             {
 341:Source\azure_iot_sdk\c-utility\src/crt_abstractions.c ****                 /*Codes_SRS_CRT_ABSTRACTIONS_21_008: [If the base is 0 and '0x' or '0X' precedes th
 342:Source\azure_iot_sdk\c-utility\src/crt_abstractions.c ****                 /* hexadecimal... */
 343:Source\azure_iot_sdk\c-utility\src/crt_abstractions.c ****                 if ((base == 0) || (base == 16))
 344:Source\azure_iot_sdk\c-utility\src/crt_abstractions.c ****                 {
 345:Source\azure_iot_sdk\c-utility\src/crt_abstractions.c ****                     base = 16;
 346:Source\azure_iot_sdk\c-utility\src/crt_abstractions.c ****                     runner += 2;
 347:Source\azure_iot_sdk\c-utility\src/crt_abstractions.c ****                 }
 348:Source\azure_iot_sdk\c-utility\src/crt_abstractions.c ****             }
 349:Source\azure_iot_sdk\c-utility\src/crt_abstractions.c ****             else if((base == 0) || (base == 8))
 350:Source\azure_iot_sdk\c-utility\src/crt_abstractions.c ****             {
 351:Source\azure_iot_sdk\c-utility\src/crt_abstractions.c ****                 /*Codes_SRS_CRT_ABSTRACTIONS_21_009: [If the base is 0 and '0' precedes the number,
 352:Source\azure_iot_sdk\c-utility\src/crt_abstractions.c ****                 /* octal... */
 353:Source\azure_iot_sdk\c-utility\src/crt_abstractions.c ****                 base = 8;
 354:Source\azure_iot_sdk\c-utility\src/crt_abstractions.c ****                 runner++;
 355:Source\azure_iot_sdk\c-utility\src/crt_abstractions.c ****             }
 356:Source\azure_iot_sdk\c-utility\src/crt_abstractions.c ****         }
 357:Source\azure_iot_sdk\c-utility\src/crt_abstractions.c **** 
 358:Source\azure_iot_sdk\c-utility\src/crt_abstractions.c ****         if(base == 0)
 359:Source\azure_iot_sdk\c-utility\src/crt_abstractions.c ****         {
 360:Source\azure_iot_sdk\c-utility\src/crt_abstractions.c ****             /*Codes_SRS_CRT_ABSTRACTIONS_21_007: [If the base is 0 and no special chars precedes th
 361:Source\azure_iot_sdk\c-utility\src/crt_abstractions.c ****             /* decimal... */
 362:Source\azure_iot_sdk\c-utility\src/crt_abstractions.c ****             base = 10;
 363:Source\azure_iot_sdk\c-utility\src/crt_abstractions.c ****         }
 364:Source\azure_iot_sdk\c-utility\src/crt_abstractions.c **** 
 365:Source\azure_iot_sdk\c-utility\src/crt_abstractions.c ****         digitVal = DIGIT_VAL(*runner);
 366:Source\azure_iot_sdk\c-utility\src/crt_abstractions.c ****         if (validStr && IN_BASE_RANGE(digitVal, base))
 367:Source\azure_iot_sdk\c-utility\src/crt_abstractions.c ****         {
 368:Source\azure_iot_sdk\c-utility\src/crt_abstractions.c ****             errno = 0;
 369:Source\azure_iot_sdk\c-utility\src/crt_abstractions.c ****             do
 370:Source\azure_iot_sdk\c-utility\src/crt_abstractions.c ****             {
 371:Source\azure_iot_sdk\c-utility\src/crt_abstractions.c ****                 if (((ULLONG_MAX - digitVal) / base) < result)
 372:Source\azure_iot_sdk\c-utility\src/crt_abstractions.c ****                 {
 373:Source\azure_iot_sdk\c-utility\src/crt_abstractions.c ****                     /*Codes_SRS_CRT_ABSTRACTIONS_21_014: [If the correct value is outside the range
ARM GAS  C:\Users\Phuong\AppData\Local\Temp\cceqeziA.s 			page 8


 374:Source\azure_iot_sdk\c-utility\src/crt_abstractions.c ****                     /* overflow... */
 375:Source\azure_iot_sdk\c-utility\src/crt_abstractions.c ****                     result = ULLONG_MAX;
 376:Source\azure_iot_sdk\c-utility\src/crt_abstractions.c ****                     errno = ERANGE;
 377:Source\azure_iot_sdk\c-utility\src/crt_abstractions.c ****                 }
 378:Source\azure_iot_sdk\c-utility\src/crt_abstractions.c ****                 else
 379:Source\azure_iot_sdk\c-utility\src/crt_abstractions.c ****                 {
 380:Source\azure_iot_sdk\c-utility\src/crt_abstractions.c ****                     result = result * base + digitVal;
 381:Source\azure_iot_sdk\c-utility\src/crt_abstractions.c ****                 }
 382:Source\azure_iot_sdk\c-utility\src/crt_abstractions.c ****                 runner++;
 383:Source\azure_iot_sdk\c-utility\src/crt_abstractions.c ****                 digitVal = DIGIT_VAL(*runner);
 384:Source\azure_iot_sdk\c-utility\src/crt_abstractions.c ****             } while (IN_BASE_RANGE(digitVal, base));
 385:Source\azure_iot_sdk\c-utility\src/crt_abstractions.c ****         }
 386:Source\azure_iot_sdk\c-utility\src/crt_abstractions.c ****         else
 387:Source\azure_iot_sdk\c-utility\src/crt_abstractions.c ****         {
 388:Source\azure_iot_sdk\c-utility\src/crt_abstractions.c ****             runner = (char*)nptr;
 389:Source\azure_iot_sdk\c-utility\src/crt_abstractions.c ****         }
 390:Source\azure_iot_sdk\c-utility\src/crt_abstractions.c ****     }
 391:Source\azure_iot_sdk\c-utility\src/crt_abstractions.c **** 
 392:Source\azure_iot_sdk\c-utility\src/crt_abstractions.c ****     /*Codes_SRS_CRT_ABSTRACTIONS_21_004: [The strtoull_s must return in endptr a final string of on
 393:Source\azure_iot_sdk\c-utility\src/crt_abstractions.c ****     if (endptr != NULL)
 394:Source\azure_iot_sdk\c-utility\src/crt_abstractions.c ****     {
 395:Source\azure_iot_sdk\c-utility\src/crt_abstractions.c ****         (*endptr) = (char*)runner;
 396:Source\azure_iot_sdk\c-utility\src/crt_abstractions.c ****     }
 397:Source\azure_iot_sdk\c-utility\src/crt_abstractions.c **** 
 398:Source\azure_iot_sdk\c-utility\src/crt_abstractions.c ****     /*Codes_SRS_CRT_ABSTRACTIONS_21_038: [If the subject sequence starts with a negative sign, the 
 399:Source\azure_iot_sdk\c-utility\src/crt_abstractions.c ****     if (isNegative)
 400:Source\azure_iot_sdk\c-utility\src/crt_abstractions.c ****     {
 401:Source\azure_iot_sdk\c-utility\src/crt_abstractions.c ****         result = ULLONG_MAX - result + 1;
 402:Source\azure_iot_sdk\c-utility\src/crt_abstractions.c ****     }
 403:Source\azure_iot_sdk\c-utility\src/crt_abstractions.c **** 
 404:Source\azure_iot_sdk\c-utility\src/crt_abstractions.c ****     return result;
 405:Source\azure_iot_sdk\c-utility\src/crt_abstractions.c **** }
 406:Source\azure_iot_sdk\c-utility\src/crt_abstractions.c **** 
 407:Source\azure_iot_sdk\c-utility\src/crt_abstractions.c **** /*Codes_SRS_CRT_ABSTRACTIONS_21_023: [If the string is 'INF' of 'INFINITY' (ignoring case), the str
 408:Source\azure_iot_sdk\c-utility\src/crt_abstractions.c **** /*Codes_SRS_CRT_ABSTRACTIONS_21_024: [If the string is 'NAN' or 'NAN(...)' (ignoring case), the str
 409:Source\azure_iot_sdk\c-utility\src/crt_abstractions.c **** /*Codes_SRS_CRT_ABSTRACTIONS_21_033: [If the string is 'INF' of 'INFINITY' (ignoring case), the str
 410:Source\azure_iot_sdk\c-utility\src/crt_abstractions.c **** /*Codes_SRS_CRT_ABSTRACTIONS_21_034: [If the string is 'NAN' or 'NAN(...)' (ignoring case), the str
 411:Source\azure_iot_sdk\c-utility\src/crt_abstractions.c **** static int substricmp(const char* nptr, const char* subsrt)
 412:Source\azure_iot_sdk\c-utility\src/crt_abstractions.c **** {
  27              		.loc 1 412 0
  28              		.cfi_startproc
  29              		@ args = 0, pretend = 0, frame = 0
  30              		@ frame_needed = 0, uses_anonymous_args = 0
  31              	.LVL0:
  32 0000 10B5     		push	{r4, lr}
  33              		.cfi_def_cfa_offset 8
  34              		.cfi_offset 4, -8
  35              		.cfi_offset 14, -4
  36              	.LVL1:
 413:Source\azure_iot_sdk\c-utility\src/crt_abstractions.c ****     int result = 0;
  37              		.loc 1 413 0
  38 0002 0023     		movs	r3, #0
 414:Source\azure_iot_sdk\c-utility\src/crt_abstractions.c ****     while (((*subsrt) != '\0') && (result == 0))
  39              		.loc 1 414 0
  40 0004 0FE0     		b	.L2
  41              	.LVL2:
  42              	.L8:
ARM GAS  C:\Users\Phuong\AppData\Local\Temp\cceqeziA.s 			page 9


 415:Source\azure_iot_sdk\c-utility\src/crt_abstractions.c ****     {
 416:Source\azure_iot_sdk\c-utility\src/crt_abstractions.c ****         result = TOUPPER(*nptr) - TOUPPER(*subsrt);
  43              		.loc 1 416 0
  44 0006 0378     		ldrb	r3, [r0]
  45              	.LVL3:
  46 0008 1C00     		movs	r4, r3
  47 000a 613C     		subs	r4, r4, #97
  48 000c E4B2     		uxtb	r4, r4
  49 000e 192C     		cmp	r4, #25
  50 0010 00D8     		bhi	.L4
  51              		.loc 1 416 0 is_stmt 0 discriminator 1
  52 0012 203B     		subs	r3, r3, #32
  53              	.L4:
  54              		.loc 1 416 0 discriminator 4
  55 0014 1400     		movs	r4, r2
  56 0016 613C     		subs	r4, r4, #97
  57 0018 E4B2     		uxtb	r4, r4
  58 001a 192C     		cmp	r4, #25
  59 001c 00D8     		bhi	.L6
  60              		.loc 1 416 0 discriminator 5
  61 001e 203A     		subs	r2, r2, #32
  62              	.L6:
  63              		.loc 1 416 0 discriminator 8
  64 0020 9B1A     		subs	r3, r3, r2
  65              	.LVL4:
 417:Source\azure_iot_sdk\c-utility\src/crt_abstractions.c ****         nptr++;
  66              		.loc 1 417 0 is_stmt 1 discriminator 8
  67 0022 0130     		adds	r0, r0, #1
  68              	.LVL5:
 418:Source\azure_iot_sdk\c-utility\src/crt_abstractions.c ****         subsrt++;
  69              		.loc 1 418 0 discriminator 8
  70 0024 0131     		adds	r1, r1, #1
  71              	.LVL6:
  72              	.L2:
 414:Source\azure_iot_sdk\c-utility\src/crt_abstractions.c ****     {
  73              		.loc 1 414 0
  74 0026 0A78     		ldrb	r2, [r1]
  75 0028 002A     		cmp	r2, #0
  76 002a 01D0     		beq	.L7
 414:Source\azure_iot_sdk\c-utility\src/crt_abstractions.c ****     {
  77              		.loc 1 414 0 is_stmt 0 discriminator 1
  78 002c 002B     		cmp	r3, #0
  79 002e EAD0     		beq	.L8
  80              	.L7:
 419:Source\azure_iot_sdk\c-utility\src/crt_abstractions.c ****     }
 420:Source\azure_iot_sdk\c-utility\src/crt_abstractions.c ****     return result;
 421:Source\azure_iot_sdk\c-utility\src/crt_abstractions.c **** }
  81              		.loc 1 421 0 is_stmt 1
  82 0030 1800     		movs	r0, r3
  83              	.LVL7:
  84              		@ sp needed
  85 0032 10BD     		pop	{r4, pc}
  86              		.cfi_endproc
  87              	.LFE6:
  88              		.size	substricmp, .-substricmp
  89              		.section	.text.isInfinity,"ax",%progbits
  90              		.align	2
ARM GAS  C:\Users\Phuong\AppData\Local\Temp\cceqeziA.s 			page 10


  91              		.code	16
  92              		.thumb_func
  93              		.type	isInfinity, %function
  94              	isInfinity:
  95              	.LFB7:
 422:Source\azure_iot_sdk\c-utility\src/crt_abstractions.c **** 
 423:Source\azure_iot_sdk\c-utility\src/crt_abstractions.c **** /*Codes_SRS_CRT_ABSTRACTIONS_21_023: [If the string is 'INF' of 'INFINITY' (ignoring case), the str
 424:Source\azure_iot_sdk\c-utility\src/crt_abstractions.c **** /*Codes_SRS_CRT_ABSTRACTIONS_21_033: [If the string is 'INF' of 'INFINITY' (ignoring case), the str
 425:Source\azure_iot_sdk\c-utility\src/crt_abstractions.c **** static bool isInfinity(const char** endptr)
 426:Source\azure_iot_sdk\c-utility\src/crt_abstractions.c **** {
  96              		.loc 1 426 0
  97              		.cfi_startproc
  98              		@ args = 0, pretend = 0, frame = 0
  99              		@ frame_needed = 0, uses_anonymous_args = 0
 100              	.LVL8:
 101 0000 70B5     		push	{r4, r5, r6, lr}
 102              		.cfi_def_cfa_offset 16
 103              		.cfi_offset 4, -16
 104              		.cfi_offset 5, -12
 105              		.cfi_offset 6, -8
 106              		.cfi_offset 14, -4
 107 0002 0500     		movs	r5, r0
 108              	.LVL9:
 427:Source\azure_iot_sdk\c-utility\src/crt_abstractions.c ****     bool result = false;
 428:Source\azure_iot_sdk\c-utility\src/crt_abstractions.c ****     if (substricmp((*endptr), "INF") == 0)
 109              		.loc 1 428 0
 110 0004 0468     		ldr	r4, [r0]
 111 0006 0B49     		ldr	r1, .L13
 112 0008 2000     		movs	r0, r4
 113              	.LVL10:
 114 000a FFF7FEFF 		bl	substricmp
 115              	.LVL11:
 116 000e 0028     		cmp	r0, #0
 117 0010 0BD1     		bne	.L11
 429:Source\azure_iot_sdk\c-utility\src/crt_abstractions.c ****     {
 430:Source\azure_iot_sdk\c-utility\src/crt_abstractions.c ****         (*endptr) += 3;
 118              		.loc 1 430 0
 119 0012 0334     		adds	r4, r4, #3
 120 0014 2C60     		str	r4, [r5]
 121              	.LVL12:
 431:Source\azure_iot_sdk\c-utility\src/crt_abstractions.c ****         result = true;
 432:Source\azure_iot_sdk\c-utility\src/crt_abstractions.c ****         if (substricmp((*endptr), "INITY") == 0)
 122              		.loc 1 432 0
 123 0016 0849     		ldr	r1, .L13+4
 124 0018 2000     		movs	r0, r4
 125 001a FFF7FEFF 		bl	substricmp
 126              	.LVL13:
 127 001e 0028     		cmp	r0, #0
 128 0020 05D1     		bne	.L12
 433:Source\azure_iot_sdk\c-utility\src/crt_abstractions.c ****         {
 434:Source\azure_iot_sdk\c-utility\src/crt_abstractions.c ****             (*endptr) += 5;
 129              		.loc 1 434 0
 130 0022 0534     		adds	r4, r4, #5
 131 0024 2C60     		str	r4, [r5]
 431:Source\azure_iot_sdk\c-utility\src/crt_abstractions.c ****         result = true;
 132              		.loc 1 431 0
 133 0026 0130     		adds	r0, r0, #1
ARM GAS  C:\Users\Phuong\AppData\Local\Temp\cceqeziA.s 			page 11


 134 0028 02E0     		b	.L10
 135              	.LVL14:
 136              	.L11:
 427:Source\azure_iot_sdk\c-utility\src/crt_abstractions.c ****     if (substricmp((*endptr), "INF") == 0)
 137              		.loc 1 427 0
 138 002a 0020     		movs	r0, #0
 139 002c 00E0     		b	.L10
 140              	.LVL15:
 141              	.L12:
 431:Source\azure_iot_sdk\c-utility\src/crt_abstractions.c ****         result = true;
 142              		.loc 1 431 0
 143 002e 0120     		movs	r0, #1
 144              	.LVL16:
 145              	.L10:
 435:Source\azure_iot_sdk\c-utility\src/crt_abstractions.c ****         }
 436:Source\azure_iot_sdk\c-utility\src/crt_abstractions.c ****     }
 437:Source\azure_iot_sdk\c-utility\src/crt_abstractions.c ****     return result;
 438:Source\azure_iot_sdk\c-utility\src/crt_abstractions.c **** }
 146              		.loc 1 438 0
 147              		@ sp needed
 148              	.LVL17:
 149 0030 70BD     		pop	{r4, r5, r6, pc}
 150              	.L14:
 151 0032 C046     		.align	2
 152              	.L13:
 153 0034 00000000 		.word	.LC0
 154 0038 04000000 		.word	.LC2
 155              		.cfi_endproc
 156              	.LFE7:
 157              		.size	isInfinity, .-isInfinity
 158              		.section	.text.isNaN,"ax",%progbits
 159              		.align	2
 160              		.code	16
 161              		.thumb_func
 162              		.type	isNaN, %function
 163              	isNaN:
 164              	.LFB8:
 439:Source\azure_iot_sdk\c-utility\src/crt_abstractions.c **** 
 440:Source\azure_iot_sdk\c-utility\src/crt_abstractions.c **** /*Codes_SRS_CRT_ABSTRACTIONS_21_024: [If the string is 'NAN' or 'NAN(...)' (ignoring case), the str
 441:Source\azure_iot_sdk\c-utility\src/crt_abstractions.c **** /*Codes_SRS_CRT_ABSTRACTIONS_21_034: [If the string is 'NAN' or 'NAN(...)' (ignoring case), the str
 442:Source\azure_iot_sdk\c-utility\src/crt_abstractions.c **** static bool isNaN(const char** endptr)
 443:Source\azure_iot_sdk\c-utility\src/crt_abstractions.c **** {
 165              		.loc 1 443 0
 166              		.cfi_startproc
 167              		@ args = 0, pretend = 0, frame = 0
 168              		@ frame_needed = 0, uses_anonymous_args = 0
 169              	.LVL18:
 170 0000 70B5     		push	{r4, r5, r6, lr}
 171              		.cfi_def_cfa_offset 16
 172              		.cfi_offset 4, -16
 173              		.cfi_offset 5, -12
 174              		.cfi_offset 6, -8
 175              		.cfi_offset 14, -4
 176 0002 0500     		movs	r5, r0
 444:Source\azure_iot_sdk\c-utility\src/crt_abstractions.c ****     const char* runner = (*endptr);
 177              		.loc 1 444 0
 178 0004 0468     		ldr	r4, [r0]
ARM GAS  C:\Users\Phuong\AppData\Local\Temp\cceqeziA.s 			page 12


 179              	.LVL19:
 445:Source\azure_iot_sdk\c-utility\src/crt_abstractions.c ****     bool result = false;
 446:Source\azure_iot_sdk\c-utility\src/crt_abstractions.c ****     if (substricmp(runner, "NAN") == 0)
 180              		.loc 1 446 0
 181 0006 1049     		ldr	r1, .L23
 182 0008 2000     		movs	r0, r4
 183              	.LVL20:
 184 000a FFF7FEFF 		bl	substricmp
 185              	.LVL21:
 186 000e 0028     		cmp	r0, #0
 187 0010 0ED1     		bne	.L20
 447:Source\azure_iot_sdk\c-utility\src/crt_abstractions.c ****     {
 448:Source\azure_iot_sdk\c-utility\src/crt_abstractions.c ****         runner += 3;
 188              		.loc 1 448 0
 189 0012 E31C     		adds	r3, r4, #3
 190              	.LVL22:
 449:Source\azure_iot_sdk\c-utility\src/crt_abstractions.c ****         result = true;
 450:Source\azure_iot_sdk\c-utility\src/crt_abstractions.c ****         if ((*runner) == '(')
 191              		.loc 1 450 0
 192 0014 E278     		ldrb	r2, [r4, #3]
 193 0016 282A     		cmp	r2, #40
 194 0018 0CD1     		bne	.L21
 195              	.L18:
 451:Source\azure_iot_sdk\c-utility\src/crt_abstractions.c ****         {
 452:Source\azure_iot_sdk\c-utility\src/crt_abstractions.c ****             do
 453:Source\azure_iot_sdk\c-utility\src/crt_abstractions.c ****             {
 454:Source\azure_iot_sdk\c-utility\src/crt_abstractions.c ****                 runner++;
 196              		.loc 1 454 0 discriminator 2
 197 001a 0133     		adds	r3, r3, #1
 198              	.LVL23:
 455:Source\azure_iot_sdk\c-utility\src/crt_abstractions.c ****             } while (((*runner) != '\0') && ((*runner) != ')'));
 199              		.loc 1 455 0 discriminator 2
 200 001c 1A78     		ldrb	r2, [r3]
 201 001e 002A     		cmp	r2, #0
 202 0020 01D0     		beq	.L17
 203              		.loc 1 455 0 is_stmt 0 discriminator 1
 204 0022 292A     		cmp	r2, #41
 205 0024 F9D1     		bne	.L18
 206              	.L17:
 456:Source\azure_iot_sdk\c-utility\src/crt_abstractions.c ****             if ((*runner) == ')')
 207              		.loc 1 456 0 is_stmt 1
 208 0026 292A     		cmp	r2, #41
 209 0028 07D1     		bne	.L22
 457:Source\azure_iot_sdk\c-utility\src/crt_abstractions.c ****                 runner++;
 210              		.loc 1 457 0
 211 002a 5C1C     		adds	r4, r3, #1
 212              	.LVL24:
 449:Source\azure_iot_sdk\c-utility\src/crt_abstractions.c ****         if ((*runner) == '(')
 213              		.loc 1 449 0
 214 002c 0120     		movs	r0, #1
 215 002e 06E0     		b	.L16
 216              	.LVL25:
 217              	.L20:
 445:Source\azure_iot_sdk\c-utility\src/crt_abstractions.c ****     if (substricmp(runner, "NAN") == 0)
 218              		.loc 1 445 0
 219 0030 0020     		movs	r0, #0
 220 0032 04E0     		b	.L16
ARM GAS  C:\Users\Phuong\AppData\Local\Temp\cceqeziA.s 			page 13


 221              	.LVL26:
 222              	.L21:
 448:Source\azure_iot_sdk\c-utility\src/crt_abstractions.c ****         result = true;
 223              		.loc 1 448 0
 224 0034 1C00     		movs	r4, r3
 449:Source\azure_iot_sdk\c-utility\src/crt_abstractions.c ****         if ((*runner) == '(')
 225              		.loc 1 449 0
 226 0036 0120     		movs	r0, #1
 227 0038 01E0     		b	.L16
 228              	.L22:
 454:Source\azure_iot_sdk\c-utility\src/crt_abstractions.c ****             } while (((*runner) != '\0') && ((*runner) != ')'));
 229              		.loc 1 454 0
 230 003a 1C00     		movs	r4, r3
 458:Source\azure_iot_sdk\c-utility\src/crt_abstractions.c ****             else
 459:Source\azure_iot_sdk\c-utility\src/crt_abstractions.c ****                 result = false;
 231              		.loc 1 459 0
 232 003c 0020     		movs	r0, #0
 233              	.LVL27:
 234              	.L16:
 460:Source\azure_iot_sdk\c-utility\src/crt_abstractions.c ****         }
 461:Source\azure_iot_sdk\c-utility\src/crt_abstractions.c ****     }
 462:Source\azure_iot_sdk\c-utility\src/crt_abstractions.c ****     if (result)
 235              		.loc 1 462 0
 236 003e 0028     		cmp	r0, #0
 237 0040 00D0     		beq	.L19
 463:Source\azure_iot_sdk\c-utility\src/crt_abstractions.c ****         (*endptr) = runner;
 238              		.loc 1 463 0
 239 0042 2C60     		str	r4, [r5]
 240              	.L19:
 464:Source\azure_iot_sdk\c-utility\src/crt_abstractions.c ****     return result;
 465:Source\azure_iot_sdk\c-utility\src/crt_abstractions.c **** }
 241              		.loc 1 465 0
 242              		@ sp needed
 243              	.LVL28:
 244              	.LVL29:
 245 0044 70BD     		pop	{r4, r5, r6, pc}
 246              	.L24:
 247 0046 C046     		.align	2
 248              	.L23:
 249 0048 0C000000 		.word	.LC4
 250              		.cfi_endproc
 251              	.LFE8:
 252              		.size	isNaN, .-isNaN
 253              		.section	.text.strcat_s,"ax",%progbits
 254              		.align	2
 255              		.global	strcat_s
 256              		.code	16
 257              		.thumb_func
 258              		.type	strcat_s, %function
 259              	strcat_s:
 260              	.LFB1:
  50:Source\azure_iot_sdk\c-utility\src/crt_abstractions.c ****     int result;
 261              		.loc 1 50 0
 262              		.cfi_startproc
 263              		@ args = 0, pretend = 0, frame = 8
 264              		@ frame_needed = 0, uses_anonymous_args = 0
 265              	.LVL30:
ARM GAS  C:\Users\Phuong\AppData\Local\Temp\cceqeziA.s 			page 14


 266 0000 F0B5     		push	{r4, r5, r6, r7, lr}
 267              		.cfi_def_cfa_offset 20
 268              		.cfi_offset 4, -20
 269              		.cfi_offset 5, -16
 270              		.cfi_offset 6, -12
 271              		.cfi_offset 7, -8
 272              		.cfi_offset 14, -4
 273 0002 83B0     		sub	sp, sp, #12
 274              		.cfi_def_cfa_offset 32
 275 0004 0500     		movs	r5, r0
 276 0006 0F00     		movs	r7, r1
 277 0008 1600     		movs	r6, r2
  53:Source\azure_iot_sdk\c-utility\src/crt_abstractions.c ****     {
 278              		.loc 1 53 0
 279 000a 0028     		cmp	r0, #0
 280 000c 38D0     		beq	.L35
  58:Source\azure_iot_sdk\c-utility\src/crt_abstractions.c ****     {
 281              		.loc 1 58 0
 282 000e 002A     		cmp	r2, #0
 283 0010 03D1     		bne	.L27
  60:Source\azure_iot_sdk\c-utility\src/crt_abstractions.c ****         result = EINVAL;
 284              		.loc 1 60 0
 285 0012 0023     		movs	r3, #0
 286 0014 0370     		strb	r3, [r0]
 287              	.LVL31:
  61:Source\azure_iot_sdk\c-utility\src/crt_abstractions.c ****     }
 288              		.loc 1 61 0
 289 0016 1620     		movs	r0, #22
 290              	.LVL32:
 291 0018 35E0     		b	.L26
 292              	.LVL33:
 293              	.L27:
  66:Source\azure_iot_sdk\c-utility\src/crt_abstractions.c ****         {
 294              		.loc 1 66 0
 295 001a 0029     		cmp	r1, #0
 296 001c 03D1     		bne	.L28
 297              	.LVL34:
  69:Source\azure_iot_sdk\c-utility\src/crt_abstractions.c ****         }
 298              		.loc 1 69 0
 299 001e 0023     		movs	r3, #0
 300 0020 0370     		strb	r3, [r0]
  68:Source\azure_iot_sdk\c-utility\src/crt_abstractions.c ****             dst[0] = '\0';
 301              		.loc 1 68 0
 302 0022 2220     		movs	r0, #34
 303              	.LVL35:
 304 0024 2FE0     		b	.L26
 305              	.LVL36:
 306              	.L28:
 307              	.LBB2:
  74:Source\azure_iot_sdk\c-utility\src/crt_abstractions.c **** #ifdef __STDC_LIB_EXT1__
 308              		.loc 1 74 0
 309 0026 1000     		movs	r0, r2
 310              	.LVL37:
 311 0028 FFF7FEFF 		bl	strlen
 312              	.LVL38:
 313 002c 0190     		str	r0, [sp, #4]
 314              	.LVL39:
ARM GAS  C:\Users\Phuong\AppData\Local\Temp\cceqeziA.s 			page 15


  79:Source\azure_iot_sdk\c-utility\src/crt_abstractions.c ****             {
 315              		.loc 1 79 0
 316 002e 0024     		movs	r4, #0
 317 0030 00E0     		b	.L29
 318              	.LVL40:
 319              	.L31:
  79:Source\azure_iot_sdk\c-utility\src/crt_abstractions.c ****             {
 320              		.loc 1 79 0 is_stmt 0 discriminator 4
 321 0032 0134     		adds	r4, r4, #1
 322              	.LVL41:
 323              	.L29:
  79:Source\azure_iot_sdk\c-utility\src/crt_abstractions.c ****             {
 324              		.loc 1 79 0 discriminator 1
 325 0034 BC42     		cmp	r4, r7
 326 0036 02D2     		bcs	.L30
  79:Source\azure_iot_sdk\c-utility\src/crt_abstractions.c ****             {
 327              		.loc 1 79 0 discriminator 3
 328 0038 2B5D     		ldrb	r3, [r5, r4]
 329 003a 002B     		cmp	r3, #0
 330 003c F9D1     		bne	.L31
 331              	.L30:
 332              	.LVL42:
  85:Source\azure_iot_sdk\c-utility\src/crt_abstractions.c ****             {
 333              		.loc 1 85 0 is_stmt 1
 334 003e BC42     		cmp	r4, r7
 335 0040 20D0     		beq	.L36
  91:Source\azure_iot_sdk\c-utility\src/crt_abstractions.c ****             {
 336              		.loc 1 91 0
 337 0042 2018     		adds	r0, r4, r0
 338              	.LVL43:
 339 0044 8742     		cmp	r7, r0
 340 0046 03D8     		bhi	.L32
  93:Source\azure_iot_sdk\c-utility\src/crt_abstractions.c ****                 result = ERANGE;
 341              		.loc 1 93 0
 342 0048 0023     		movs	r3, #0
 343 004a 2B70     		strb	r3, [r5]
 344              	.LVL44:
  94:Source\azure_iot_sdk\c-utility\src/crt_abstractions.c ****             }
 345              		.loc 1 94 0
 346 004c 2220     		movs	r0, #34
 347 004e 1AE0     		b	.L26
 348              	.LVL45:
 349              	.L32:
 350              	.LBB3:
 100:Source\azure_iot_sdk\c-utility\src/crt_abstractions.c ****                 if (bytes_to_cpy > src_len)
 351              		.loc 1 100 0
 352 0050 3B1B     		subs	r3, r7, r4
 353              	.LVL46:
 101:Source\azure_iot_sdk\c-utility\src/crt_abstractions.c ****                 {
 354              		.loc 1 101 0
 355 0052 019A     		ldr	r2, [sp, #4]
 356 0054 9A42     		cmp	r2, r3
 357 0056 00D3     		bcc	.L33
 100:Source\azure_iot_sdk\c-utility\src/crt_abstractions.c ****                 if (bytes_to_cpy > src_len)
 358              		.loc 1 100 0
 359 0058 0193     		str	r3, [sp, #4]
 360              	.LVL47:
ARM GAS  C:\Users\Phuong\AppData\Local\Temp\cceqeziA.s 			page 16


 361              	.L33:
 107:Source\azure_iot_sdk\c-utility\src/crt_abstractions.c ****                 /*Codes_SRS_CRT_ABSTRACTIONS_99_006: [If the dstSizeInBytes is 0 or smaller than th
 362              		.loc 1 107 0
 363 005a 2819     		adds	r0, r5, r4
 364 005c 019A     		ldr	r2, [sp, #4]
 365 005e 3100     		movs	r1, r6
 366 0060 FFF7FEFF 		bl	memcpy
 367              	.LVL48:
 368 0064 0028     		cmp	r0, #0
 369 0066 03D1     		bne	.L34
 110:Source\azure_iot_sdk\c-utility\src/crt_abstractions.c ****                     result = ERANGE;
 370              		.loc 1 110 0
 371 0068 0023     		movs	r3, #0
 372 006a 2B70     		strb	r3, [r5]
 373              	.LVL49:
 111:Source\azure_iot_sdk\c-utility\src/crt_abstractions.c ****                 }
 374              		.loc 1 111 0
 375 006c 2230     		adds	r0, r0, #34
 376 006e 0AE0     		b	.L26
 377              	.LVL50:
 378              	.L34:
 116:Source\azure_iot_sdk\c-utility\src/crt_abstractions.c ****                     result = 0;
 379              		.loc 1 116 0
 380 0070 019B     		ldr	r3, [sp, #4]
 381 0072 9C46     		mov	ip, r3
 382 0074 6444     		add	r4, r4, ip
 383              	.LVL51:
 384 0076 2D19     		adds	r5, r5, r4
 385              	.LVL52:
 386 0078 0023     		movs	r3, #0
 387 007a 2B70     		strb	r3, [r5]
 388              	.LVL53:
 117:Source\azure_iot_sdk\c-utility\src/crt_abstractions.c ****                 }
 389              		.loc 1 117 0
 390 007c 0020     		movs	r0, #0
 391 007e 02E0     		b	.L26
 392              	.LVL54:
 393              	.L35:
 394              	.LBE3:
 395              	.LBE2:
  55:Source\azure_iot_sdk\c-utility\src/crt_abstractions.c ****     }
 396              		.loc 1 55 0
 397 0080 1620     		movs	r0, #22
 398              	.LVL55:
 399 0082 00E0     		b	.L26
 400              	.LVL56:
 401              	.L36:
 402              	.LBB4:
  87:Source\azure_iot_sdk\c-utility\src/crt_abstractions.c ****             }
 403              		.loc 1 87 0
 404 0084 1620     		movs	r0, #22
 405              	.LVL57:
 406              	.L26:
 407              	.LBE4:
 123:Source\azure_iot_sdk\c-utility\src/crt_abstractions.c **** 
 408              		.loc 1 123 0
 409 0086 03B0     		add	sp, sp, #12
ARM GAS  C:\Users\Phuong\AppData\Local\Temp\cceqeziA.s 			page 17


 410              		@ sp needed
 411              	.LVL58:
 412              	.LVL59:
 413 0088 F0BD     		pop	{r4, r5, r6, r7, pc}
 414              		.cfi_endproc
 415              	.LFE1:
 416              		.size	strcat_s, .-strcat_s
 417 008a C046     		.section	.text.strncpy_s,"ax",%progbits
 418              		.align	2
 419              		.global	strncpy_s
 420              		.code	16
 421              		.thumb_func
 422              		.type	strncpy_s, %function
 423              	strncpy_s:
 424              	.LFB2:
 127:Source\azure_iot_sdk\c-utility\src/crt_abstractions.c ****     int result;
 425              		.loc 1 127 0
 426              		.cfi_startproc
 427              		@ args = 0, pretend = 0, frame = 0
 428              		@ frame_needed = 0, uses_anonymous_args = 0
 429              	.LVL60:
 430 0000 F0B5     		push	{r4, r5, r6, r7, lr}
 431              		.cfi_def_cfa_offset 20
 432              		.cfi_offset 4, -20
 433              		.cfi_offset 5, -16
 434              		.cfi_offset 6, -12
 435              		.cfi_offset 7, -8
 436              		.cfi_offset 14, -4
 437 0002 4746     		mov	r7, r8
 438 0004 80B4     		push	{r7}
 439              		.cfi_def_cfa_offset 24
 440              		.cfi_offset 8, -24
 441 0006 0400     		movs	r4, r0
 442 0008 0F00     		movs	r7, r1
 443 000a 1500     		movs	r5, r2
 444 000c 1E00     		movs	r6, r3
 445              	.LVL61:
 131:Source\azure_iot_sdk\c-utility\src/crt_abstractions.c ****     {
 446              		.loc 1 131 0
 447 000e 0028     		cmp	r0, #0
 448 0010 36D0     		beq	.L45
 136:Source\azure_iot_sdk\c-utility\src/crt_abstractions.c ****     {
 449              		.loc 1 136 0
 450 0012 002A     		cmp	r2, #0
 451 0014 04D1     		bne	.L39
 138:Source\azure_iot_sdk\c-utility\src/crt_abstractions.c ****         result = EINVAL;
 452              		.loc 1 138 0
 453 0016 0023     		movs	r3, #0
 454              	.LVL62:
 455 0018 0370     		strb	r3, [r0]
 456              	.LVL63:
 129:Source\azure_iot_sdk\c-utility\src/crt_abstractions.c ****     /*Codes_SRS_CRT_ABSTRACTIONS_99_020: [If dst is NULL, the error code returned shall be EINVAL a
 457              		.loc 1 129 0
 458 001a 0026     		movs	r6, #0
 459              	.LVL64:
 139:Source\azure_iot_sdk\c-utility\src/crt_abstractions.c ****     }
 460              		.loc 1 139 0
ARM GAS  C:\Users\Phuong\AppData\Local\Temp\cceqeziA.s 			page 18


 461 001c 1620     		movs	r0, #22
 462              	.LVL65:
 463 001e 34E0     		b	.L38
 464              	.LVL66:
 465              	.L39:
 142:Source\azure_iot_sdk\c-utility\src/crt_abstractions.c ****     {
 466              		.loc 1 142 0
 467 0020 0029     		cmp	r1, #0
 468 0022 30D0     		beq	.L46
 469              	.LBB5:
 148:Source\azure_iot_sdk\c-utility\src/crt_abstractions.c ****         if (maxCount != _TRUNCATE)
 470              		.loc 1 148 0
 471 0024 1000     		movs	r0, r2
 472              	.LVL67:
 473 0026 FFF7FEFF 		bl	strlen
 474              	.LVL68:
 475 002a 8046     		mov	r8, r0
 476              	.LVL69:
 149:Source\azure_iot_sdk\c-utility\src/crt_abstractions.c ****         {
 477              		.loc 1 149 0
 478 002c 731C     		adds	r3, r6, #1
 479 002e 15D0     		beq	.L40
 152:Source\azure_iot_sdk\c-utility\src/crt_abstractions.c ****             {
 480              		.loc 1 152 0
 481 0030 B042     		cmp	r0, r6
 482 0032 00D8     		bhi	.L41
 148:Source\azure_iot_sdk\c-utility\src/crt_abstractions.c ****         if (maxCount != _TRUNCATE)
 483              		.loc 1 148 0
 484 0034 0600     		movs	r6, r0
 485              	.LVL70:
 486              	.L41:
 158:Source\azure_iot_sdk\c-utility\src/crt_abstractions.c ****             {
 487              		.loc 1 158 0
 488 0036 731C     		adds	r3, r6, #1
 489 0038 9F42     		cmp	r7, r3
 490 003a 04D2     		bcs	.L42
 160:Source\azure_iot_sdk\c-utility\src/crt_abstractions.c ****                 result = ERANGE;
 491              		.loc 1 160 0
 492 003c 0023     		movs	r3, #0
 493 003e 2370     		strb	r3, [r4]
 494              	.LVL71:
 495              	.LBE5:
 129:Source\azure_iot_sdk\c-utility\src/crt_abstractions.c ****     /*Codes_SRS_CRT_ABSTRACTIONS_99_020: [If dst is NULL, the error code returned shall be EINVAL a
 496              		.loc 1 129 0
 497 0040 0026     		movs	r6, #0
 498              	.LVL72:
 499              	.LBB6:
 161:Source\azure_iot_sdk\c-utility\src/crt_abstractions.c ****             }
 500              		.loc 1 161 0
 501 0042 2220     		movs	r0, #34
 502 0044 21E0     		b	.L38
 503              	.LVL73:
 504              	.L42:
 165:Source\azure_iot_sdk\c-utility\src/crt_abstractions.c ****                 dst[srcLength] = '\0';
 505              		.loc 1 165 0
 506 0046 3200     		movs	r2, r6
 507 0048 2900     		movs	r1, r5
ARM GAS  C:\Users\Phuong\AppData\Local\Temp\cceqeziA.s 			page 19


 508 004a 2000     		movs	r0, r4
 509 004c FFF7FEFF 		bl	memcpy
 510              	.LVL74:
 166:Source\azure_iot_sdk\c-utility\src/crt_abstractions.c ****                 /*Codes_SRS_CRT_ABSTRACTIONS_99_018: [strncpy_s shall return Zero upon success]*/
 511              		.loc 1 166 0
 512 0050 A419     		adds	r4, r4, r6
 513              	.LVL75:
 514 0052 0023     		movs	r3, #0
 515 0054 2370     		strb	r3, [r4]
 516              	.LVL76:
 517              	.LBE6:
 129:Source\azure_iot_sdk\c-utility\src/crt_abstractions.c ****     /*Codes_SRS_CRT_ABSTRACTIONS_99_020: [If dst is NULL, the error code returned shall be EINVAL a
 518              		.loc 1 129 0
 519 0056 0026     		movs	r6, #0
 520              	.LVL77:
 521              	.LBB7:
 168:Source\azure_iot_sdk\c-utility\src/crt_abstractions.c ****             }
 522              		.loc 1 168 0
 523 0058 0020     		movs	r0, #0
 524 005a 16E0     		b	.L38
 525              	.LVL78:
 526              	.L40:
 174:Source\azure_iot_sdk\c-utility\src/crt_abstractions.c ****             {
 527              		.loc 1 174 0
 528 005c 0130     		adds	r0, r0, #1
 529              	.LVL79:
 530 005e 8742     		cmp	r7, r0
 531 0060 03D2     		bcs	.L47
 176:Source\azure_iot_sdk\c-utility\src/crt_abstractions.c ****                 truncationFlag = 1;
 532              		.loc 1 176 0
 533 0062 7B1E     		subs	r3, r7, #1
 534 0064 9846     		mov	r8, r3
 535              	.LVL80:
 177:Source\azure_iot_sdk\c-utility\src/crt_abstractions.c ****             }
 536              		.loc 1 177 0
 537 0066 0126     		movs	r6, #1
 538              	.LVL81:
 539 0068 00E0     		b	.L43
 540              	.LVL82:
 541              	.L47:
 542              	.LBE7:
 129:Source\azure_iot_sdk\c-utility\src/crt_abstractions.c ****     /*Codes_SRS_CRT_ABSTRACTIONS_99_020: [If dst is NULL, the error code returned shall be EINVAL a
 543              		.loc 1 129 0
 544 006a 0026     		movs	r6, #0
 545              	.LVL83:
 546              	.L43:
 547              	.LBB8:
 179:Source\azure_iot_sdk\c-utility\src/crt_abstractions.c ****             dst[srcLength] = '\0';
 548              		.loc 1 179 0
 549 006c 4246     		mov	r2, r8
 550 006e 2900     		movs	r1, r5
 551 0070 2000     		movs	r0, r4
 552 0072 FFF7FEFF 		bl	memcpy
 553              	.LVL84:
 180:Source\azure_iot_sdk\c-utility\src/crt_abstractions.c ****             result = 0;
 554              		.loc 1 180 0
 555 0076 4444     		add	r4, r4, r8
ARM GAS  C:\Users\Phuong\AppData\Local\Temp\cceqeziA.s 			page 20


 556              	.LVL85:
 557 0078 0023     		movs	r3, #0
 558 007a 2370     		strb	r3, [r4]
 559              	.LVL86:
 181:Source\azure_iot_sdk\c-utility\src/crt_abstractions.c ****         }
 560              		.loc 1 181 0
 561 007c 0020     		movs	r0, #0
 562 007e 04E0     		b	.L38
 563              	.LVL87:
 564              	.L45:
 565              	.LBE8:
 129:Source\azure_iot_sdk\c-utility\src/crt_abstractions.c ****     /*Codes_SRS_CRT_ABSTRACTIONS_99_020: [If dst is NULL, the error code returned shall be EINVAL a
 566              		.loc 1 129 0
 567 0080 0026     		movs	r6, #0
 133:Source\azure_iot_sdk\c-utility\src/crt_abstractions.c ****     }
 568              		.loc 1 133 0
 569 0082 1620     		movs	r0, #22
 570              	.LVL88:
 571 0084 01E0     		b	.L38
 572              	.LVL89:
 573              	.L46:
 129:Source\azure_iot_sdk\c-utility\src/crt_abstractions.c ****     /*Codes_SRS_CRT_ABSTRACTIONS_99_020: [If dst is NULL, the error code returned shall be EINVAL a
 574              		.loc 1 129 0
 575 0086 0026     		movs	r6, #0
 144:Source\azure_iot_sdk\c-utility\src/crt_abstractions.c ****     }
 576              		.loc 1 144 0
 577 0088 1620     		movs	r0, #22
 578              	.LVL90:
 579              	.L38:
 186:Source\azure_iot_sdk\c-utility\src/crt_abstractions.c ****     {
 580              		.loc 1 186 0
 581 008a 012E     		cmp	r6, #1
 582 008c 00D1     		bne	.L44
 188:Source\azure_iot_sdk\c-utility\src/crt_abstractions.c ****     }
 583              		.loc 1 188 0
 584 008e 5020     		movs	r0, #80
 585              	.LVL91:
 586              	.L44:
 192:Source\azure_iot_sdk\c-utility\src/crt_abstractions.c **** 
 587              		.loc 1 192 0
 588              		@ sp needed
 589              	.LVL92:
 590              	.LVL93:
 591              	.LVL94:
 592 0090 04BC     		pop	{r2}
 593 0092 9046     		mov	r8, r2
 594 0094 F0BD     		pop	{r4, r5, r6, r7, pc}
 595              		.cfi_endproc
 596              	.LFE2:
 597              		.size	strncpy_s, .-strncpy_s
 598 0096 C046     		.section	.text.strcpy_s,"ax",%progbits
 599              		.align	2
 600              		.global	strcpy_s
 601              		.code	16
 602              		.thumb_func
 603              		.type	strcpy_s, %function
 604              	strcpy_s:
ARM GAS  C:\Users\Phuong\AppData\Local\Temp\cceqeziA.s 			page 21


 605              	.LFB3:
 196:Source\azure_iot_sdk\c-utility\src/crt_abstractions.c ****     int result;
 606              		.loc 1 196 0
 607              		.cfi_startproc
 608              		@ args = 0, pretend = 0, frame = 0
 609              		@ frame_needed = 0, uses_anonymous_args = 0
 610              	.LVL95:
 611 0000 70B5     		push	{r4, r5, r6, lr}
 612              		.cfi_def_cfa_offset 16
 613              		.cfi_offset 4, -16
 614              		.cfi_offset 5, -12
 615              		.cfi_offset 6, -8
 616              		.cfi_offset 14, -4
 617 0002 0400     		movs	r4, r0
 618 0004 0E00     		movs	r6, r1
 619 0006 1500     		movs	r5, r2
 200:Source\azure_iot_sdk\c-utility\src/crt_abstractions.c ****     {
 620              		.loc 1 200 0
 621 0008 0028     		cmp	r0, #0
 622 000a 1BD0     		beq	.L54
 205:Source\azure_iot_sdk\c-utility\src/crt_abstractions.c ****     {
 623              		.loc 1 205 0
 624 000c 002A     		cmp	r2, #0
 625 000e 03D1     		bne	.L51
 207:Source\azure_iot_sdk\c-utility\src/crt_abstractions.c ****         result = EINVAL;
 626              		.loc 1 207 0
 627 0010 0023     		movs	r3, #0
 628 0012 0370     		strb	r3, [r0]
 629              	.LVL96:
 208:Source\azure_iot_sdk\c-utility\src/crt_abstractions.c ****     }
 630              		.loc 1 208 0
 631 0014 1620     		movs	r0, #22
 632              	.LVL97:
 633 0016 16E0     		b	.L50
 634              	.LVL98:
 635              	.L51:
 211:Source\azure_iot_sdk\c-utility\src/crt_abstractions.c ****     {
 636              		.loc 1 211 0
 637 0018 0029     		cmp	r1, #0
 638 001a 03D1     		bne	.L52
 213:Source\azure_iot_sdk\c-utility\src/crt_abstractions.c ****         result = ERANGE;
 639              		.loc 1 213 0
 640 001c 0023     		movs	r3, #0
 641 001e 0370     		strb	r3, [r0]
 642              	.LVL99:
 214:Source\azure_iot_sdk\c-utility\src/crt_abstractions.c ****     }
 643              		.loc 1 214 0
 644 0020 2220     		movs	r0, #34
 645              	.LVL100:
 646 0022 10E0     		b	.L50
 647              	.LVL101:
 648              	.L52:
 649              	.LBB9:
 218:Source\azure_iot_sdk\c-utility\src/crt_abstractions.c ****         /* Codes_SRS_CRT_ABSTRACTIONS_99_014: [If the dstSizeInBytes is 0 or smaller than the requi
 650              		.loc 1 218 0
 651 0024 1000     		movs	r0, r2
 652              	.LVL102:
ARM GAS  C:\Users\Phuong\AppData\Local\Temp\cceqeziA.s 			page 22


 653 0026 FFF7FEFF 		bl	strlen
 654              	.LVL103:
 220:Source\azure_iot_sdk\c-utility\src/crt_abstractions.c ****         {
 655              		.loc 1 220 0
 656 002a 421C     		adds	r2, r0, #1
 657 002c 9642     		cmp	r6, r2
 658 002e 03D2     		bcs	.L53
 222:Source\azure_iot_sdk\c-utility\src/crt_abstractions.c ****             result = ERANGE;
 659              		.loc 1 222 0
 660 0030 0023     		movs	r3, #0
 661 0032 2370     		strb	r3, [r4]
 662              	.LVL104:
 223:Source\azure_iot_sdk\c-utility\src/crt_abstractions.c ****         }
 663              		.loc 1 223 0
 664 0034 2220     		movs	r0, #34
 665              	.LVL105:
 666 0036 06E0     		b	.L50
 667              	.LVL106:
 668              	.L53:
 227:Source\azure_iot_sdk\c-utility\src/crt_abstractions.c ****             /*Codes_SRS_CRT_ABSTRACTIONS_99_011: [strcpy_s shall return Zero upon success]*/
 669              		.loc 1 227 0
 670 0038 2900     		movs	r1, r5
 671 003a 2000     		movs	r0, r4
 672              	.LVL107:
 673 003c FFF7FEFF 		bl	memcpy
 674              	.LVL108:
 229:Source\azure_iot_sdk\c-utility\src/crt_abstractions.c ****         }
 675              		.loc 1 229 0
 676 0040 0020     		movs	r0, #0
 677 0042 00E0     		b	.L50
 678              	.LVL109:
 679              	.L54:
 680              	.LBE9:
 202:Source\azure_iot_sdk\c-utility\src/crt_abstractions.c ****     }
 681              		.loc 1 202 0
 682 0044 1620     		movs	r0, #22
 683              	.LVL110:
 684              	.L50:
 234:Source\azure_iot_sdk\c-utility\src/crt_abstractions.c **** 
 685              		.loc 1 234 0
 686              		@ sp needed
 687              	.LVL111:
 688              	.LVL112:
 689              	.LVL113:
 690 0046 70BD     		pop	{r4, r5, r6, pc}
 691              		.cfi_endproc
 692              	.LFE3:
 693              		.size	strcpy_s, .-strcpy_s
 694              		.section	.text.sprintf_s,"ax",%progbits
 695              		.align	2
 696              		.global	sprintf_s
 697              		.code	16
 698              		.thumb_func
 699              		.type	sprintf_s, %function
 700              	sprintf_s:
 701              	.LFB4:
 239:Source\azure_iot_sdk\c-utility\src/crt_abstractions.c ****     int result;
ARM GAS  C:\Users\Phuong\AppData\Local\Temp\cceqeziA.s 			page 23


 702              		.loc 1 239 0
 703              		.cfi_startproc
 704              		@ args = 4, pretend = 8, frame = 8
 705              		@ frame_needed = 0, uses_anonymous_args = 1
 706              	.LVL114:
 707 0000 0CB4     		push	{r2, r3}
 708              		.cfi_def_cfa_offset 8
 709 0002 30B5     		push	{r4, r5, lr}
 710              		.cfi_def_cfa_offset 20
 711              		.cfi_offset 4, -20
 712              		.cfi_offset 5, -16
 713              		.cfi_offset 14, -12
 714 0004 83B0     		sub	sp, sp, #12
 715              		.cfi_def_cfa_offset 32
 716 0006 0400     		movs	r4, r0
 717 0008 0D00     		movs	r5, r1
 242:Source\azure_iot_sdk\c-utility\src/crt_abstractions.c ****         (format == NULL))
 718              		.loc 1 242 0
 719 000a 0028     		cmp	r0, #0
 720 000c 02D0     		beq	.L56
 242:Source\azure_iot_sdk\c-utility\src/crt_abstractions.c ****         (format == NULL))
 721              		.loc 1 242 0 is_stmt 0 discriminator 1
 722 000e 069B     		ldr	r3, [sp, #24]
 723 0010 002B     		cmp	r3, #0
 724 0012 06D1     		bne	.L57
 725              	.L56:
 245:Source\azure_iot_sdk\c-utility\src/crt_abstractions.c ****         result = -1;
 726              		.loc 1 245 0 is_stmt 1
 727 0014 FFF7FEFF 		bl	__errno
 728              	.LVL115:
 729 0018 1623     		movs	r3, #22
 730 001a 0360     		str	r3, [r0]
 731              	.LVL116:
 246:Source\azure_iot_sdk\c-utility\src/crt_abstractions.c ****     }
 732              		.loc 1 246 0
 733 001c 0120     		movs	r0, #1
 734 001e 4042     		rsbs	r0, r0, #0
 735 0020 0FE0     		b	.L58
 736              	.LVL117:
 737              	.L57:
 738              	.LBB10:
 263:Source\azure_iot_sdk\c-utility\src/crt_abstractions.c ****         /*Codes_SRS_CRT_ABSTRACTIONS_99_027: [sprintf_s shall return the number of characters store
 739              		.loc 1 263 0
 740 0022 07AB     		add	r3, sp, #28
 741 0024 0193     		str	r3, [sp, #4]
 265:Source\azure_iot_sdk\c-utility\src/crt_abstractions.c ****         va_end(args);
 742              		.loc 1 265 0
 743 0026 069A     		ldr	r2, [sp, #24]
 744 0028 FFF7FEFF 		bl	vsnprintf
 745              	.LVL118:
 269:Source\azure_iot_sdk\c-utility\src/crt_abstractions.c ****         {
 746              		.loc 1 269 0
 747 002c 0028     		cmp	r0, #0
 748 002e 06DB     		blt	.L60
 273:Source\azure_iot_sdk\c-utility\src/crt_abstractions.c ****         {
 749              		.loc 1 273 0
 750 0030 8542     		cmp	r5, r0
ARM GAS  C:\Users\Phuong\AppData\Local\Temp\cceqeziA.s 			page 24


 751 0032 06D8     		bhi	.L58
 276:Source\azure_iot_sdk\c-utility\src/crt_abstractions.c ****             result = -1;
 752              		.loc 1 276 0
 753 0034 0023     		movs	r3, #0
 754 0036 2370     		strb	r3, [r4]
 755              	.LVL119:
 277:Source\azure_iot_sdk\c-utility\src/crt_abstractions.c ****         }
 756              		.loc 1 277 0
 757 0038 0120     		movs	r0, #1
 758 003a 4042     		rsbs	r0, r0, #0
 759 003c 01E0     		b	.L58
 760              	.LVL120:
 761              	.L60:
 271:Source\azure_iot_sdk\c-utility\src/crt_abstractions.c ****         }
 762              		.loc 1 271 0
 763 003e 0120     		movs	r0, #1
 764              	.LVL121:
 765 0040 4042     		rsbs	r0, r0, #0
 766              	.LVL122:
 767              	.L58:
 768              	.LBE10:
 292:Source\azure_iot_sdk\c-utility\src/crt_abstractions.c **** #endif /* _MSC_VER || MINGW_HAS_SECURE_API */
 769              		.loc 1 292 0
 770 0042 03B0     		add	sp, sp, #12
 771              		@ sp needed
 772              	.LVL123:
 773              	.LVL124:
 774 0044 30BC     		pop	{r4, r5}
 775 0046 08BC     		pop	{r3}
 776 0048 02B0     		add	sp, sp, #8
 777 004a 1847     		bx	r3
 778              		.cfi_endproc
 779              	.LFE4:
 780              		.size	sprintf_s, .-sprintf_s
 781              		.global	__aeabi_uldivmod
 782              		.global	__aeabi_lmul
 783              		.section	.text.strtoull_s,"ax",%progbits
 784              		.align	2
 785              		.global	strtoull_s
 786              		.code	16
 787              		.thumb_func
 788              		.type	strtoull_s, %function
 789              	strtoull_s:
 790              	.LFB5:
 307:Source\azure_iot_sdk\c-utility\src/crt_abstractions.c ****     unsigned long long result = 0ULL;
 791              		.loc 1 307 0
 792              		.cfi_startproc
 793              		@ args = 0, pretend = 0, frame = 16
 794              		@ frame_needed = 0, uses_anonymous_args = 0
 795              	.LVL125:
 796 0000 F0B5     		push	{r4, r5, r6, r7, lr}
 797              		.cfi_def_cfa_offset 20
 798              		.cfi_offset 4, -20
 799              		.cfi_offset 5, -16
 800              		.cfi_offset 6, -12
 801              		.cfi_offset 7, -8
 802              		.cfi_offset 14, -4
ARM GAS  C:\Users\Phuong\AppData\Local\Temp\cceqeziA.s 			page 25


 803 0002 5F46     		mov	r7, fp
 804 0004 5646     		mov	r6, r10
 805 0006 4D46     		mov	r5, r9
 806 0008 4446     		mov	r4, r8
 807 000a F0B4     		push	{r4, r5, r6, r7}
 808              		.cfi_def_cfa_offset 36
 809              		.cfi_offset 8, -36
 810              		.cfi_offset 9, -32
 811              		.cfi_offset 10, -28
 812              		.cfi_offset 11, -24
 813 000c 85B0     		sub	sp, sp, #20
 814              		.cfi_def_cfa_offset 56
 815 000e 0700     		movs	r7, r0
 816 0010 8A46     		mov	r10, r1
 817 0012 9046     		mov	r8, r2
 818              	.LVL126:
 318:Source\azure_iot_sdk\c-utility\src/crt_abstractions.c ****     {
 819              		.loc 1 318 0
 820 0014 012A     		cmp	r2, #1
 821 0016 02DC     		bgt	.L62
 318:Source\azure_iot_sdk\c-utility\src/crt_abstractions.c ****     {
 822              		.loc 1 318 0 is_stmt 0 discriminator 2
 823 0018 002A     		cmp	r2, #0
 824 001a 00D0     		beq	.LCB852
 825 001c AFE0     		b	.L86	@long jump
 826              	.LCB852:
 827              	.L62:
 318:Source\azure_iot_sdk\c-utility\src/crt_abstractions.c ****     {
 828              		.loc 1 318 0 discriminator 3
 829 001e 4346     		mov	r3, r8
 830 0020 242B     		cmp	r3, #36
 831 0022 00DD     		ble	.LCB856
 832 0024 B0E0     		b	.L87	@long jump
 833              	.LCB856:
 318:Source\azure_iot_sdk\c-utility\src/crt_abstractions.c ****     {
 834              		.loc 1 318 0 discriminator 4
 835 0026 002F     		cmp	r7, #0
 836 0028 06D1     		bne	.L88
 311:Source\azure_iot_sdk\c-utility\src/crt_abstractions.c ****     int digitVal;
 837              		.loc 1 311 0 is_stmt 1
 838 002a 0023     		movs	r3, #0
 839 002c 9946     		mov	r9, r3
 308:Source\azure_iot_sdk\c-utility\src/crt_abstractions.c ****     bool validStr = true;
 840              		.loc 1 308 0
 841 002e 0024     		movs	r4, #0
 842 0030 0025     		movs	r5, #0
 843 0032 B5E0     		b	.L63
 844              	.LVL127:
 845              	.L65:
 324:Source\azure_iot_sdk\c-utility\src/crt_abstractions.c ****         }
 846              		.loc 1 324 0
 847 0034 0134     		adds	r4, r4, #1
 848              	.LVL128:
 849 0036 00E0     		b	.L64
 850              	.LVL129:
 851              	.L88:
 852 0038 3C00     		movs	r4, r7
ARM GAS  C:\Users\Phuong\AppData\Local\Temp\cceqeziA.s 			page 26


 853              	.LVL130:
 854              	.L64:
 322:Source\azure_iot_sdk\c-utility\src/crt_abstractions.c ****         {
 855              		.loc 1 322 0
 856 003a 2378     		ldrb	r3, [r4]
 857 003c 202B     		cmp	r3, #32
 858 003e F9D0     		beq	.L65
 322:Source\azure_iot_sdk\c-utility\src/crt_abstractions.c ****         {
 859              		.loc 1 322 0 is_stmt 0 discriminator 1
 860 0040 0C2B     		cmp	r3, #12
 861 0042 F7D0     		beq	.L65
 322:Source\azure_iot_sdk\c-utility\src/crt_abstractions.c ****         {
 862              		.loc 1 322 0 discriminator 2
 863 0044 0A2B     		cmp	r3, #10
 864 0046 F5D0     		beq	.L65
 322:Source\azure_iot_sdk\c-utility\src/crt_abstractions.c ****         {
 865              		.loc 1 322 0 discriminator 3
 866 0048 0D2B     		cmp	r3, #13
 867 004a F3D0     		beq	.L65
 322:Source\azure_iot_sdk\c-utility\src/crt_abstractions.c ****         {
 868              		.loc 1 322 0 discriminator 4
 869 004c 092B     		cmp	r3, #9
 870 004e F1D0     		beq	.L65
 322:Source\azure_iot_sdk\c-utility\src/crt_abstractions.c ****         {
 871              		.loc 1 322 0 discriminator 5
 872 0050 0B2B     		cmp	r3, #11
 873 0052 EFD0     		beq	.L65
 326:Source\azure_iot_sdk\c-utility\src/crt_abstractions.c ****         {
 874              		.loc 1 326 0 is_stmt 1
 875 0054 2B2B     		cmp	r3, #43
 876 0056 03D1     		bne	.L66
 328:Source\azure_iot_sdk\c-utility\src/crt_abstractions.c ****         }
 877              		.loc 1 328 0
 878 0058 0134     		adds	r4, r4, #1
 879              	.LVL131:
 311:Source\azure_iot_sdk\c-utility\src/crt_abstractions.c ****     int digitVal;
 880              		.loc 1 311 0
 881 005a 0023     		movs	r3, #0
 882 005c 9946     		mov	r9, r3
 883 005e 07E0     		b	.L67
 884              	.L66:
 330:Source\azure_iot_sdk\c-utility\src/crt_abstractions.c ****         {
 885              		.loc 1 330 0
 886 0060 2D2B     		cmp	r3, #45
 887 0062 03D1     		bne	.L89
 888              	.LVL132:
 334:Source\azure_iot_sdk\c-utility\src/crt_abstractions.c ****         }
 889              		.loc 1 334 0
 890 0064 0134     		adds	r4, r4, #1
 891              	.LVL133:
 333:Source\azure_iot_sdk\c-utility\src/crt_abstractions.c ****             runner++;
 892              		.loc 1 333 0
 893 0066 2C3B     		subs	r3, r3, #44
 894 0068 9946     		mov	r9, r3
 895 006a 01E0     		b	.L67
 896              	.LVL134:
 897              	.L89:
ARM GAS  C:\Users\Phuong\AppData\Local\Temp\cceqeziA.s 			page 27


 311:Source\azure_iot_sdk\c-utility\src/crt_abstractions.c ****     int digitVal;
 898              		.loc 1 311 0
 899 006c 0023     		movs	r3, #0
 900 006e 9946     		mov	r9, r3
 901              	.LVL135:
 902              	.L67:
 337:Source\azure_iot_sdk\c-utility\src/crt_abstractions.c ****         {
 903              		.loc 1 337 0
 904 0070 2378     		ldrb	r3, [r4]
 905 0072 302B     		cmp	r3, #48
 906 0074 15D1     		bne	.L68
 339:Source\azure_iot_sdk\c-utility\src/crt_abstractions.c ****             {
 907              		.loc 1 339 0
 908 0076 6378     		ldrb	r3, [r4, #1]
 909 0078 782B     		cmp	r3, #120
 910 007a 01D0     		beq	.L69
 339:Source\azure_iot_sdk\c-utility\src/crt_abstractions.c ****             {
 911              		.loc 1 339 0 is_stmt 0 discriminator 1
 912 007c 582B     		cmp	r3, #88
 913 007e 08D1     		bne	.L70
 914              	.L69:
 343:Source\azure_iot_sdk\c-utility\src/crt_abstractions.c ****                 {
 915              		.loc 1 343 0 is_stmt 1
 916 0080 4346     		mov	r3, r8
 917 0082 002B     		cmp	r3, #0
 918 0084 01D0     		beq	.L71
 343:Source\azure_iot_sdk\c-utility\src/crt_abstractions.c ****                 {
 919              		.loc 1 343 0 is_stmt 0 discriminator 1
 920 0086 102B     		cmp	r3, #16
 921 0088 0BD1     		bne	.L68
 922              	.L71:
 923              	.LVL136:
 346:Source\azure_iot_sdk\c-utility\src/crt_abstractions.c ****                 }
 924              		.loc 1 346 0 is_stmt 1
 925 008a 0234     		adds	r4, r4, #2
 926              	.LVL137:
 345:Source\azure_iot_sdk\c-utility\src/crt_abstractions.c ****                     runner += 2;
 927              		.loc 1 345 0
 928 008c 1023     		movs	r3, #16
 929 008e 9846     		mov	r8, r3
 930 0090 07E0     		b	.L68
 931              	.LVL138:
 932              	.L70:
 349:Source\azure_iot_sdk\c-utility\src/crt_abstractions.c ****             {
 933              		.loc 1 349 0
 934 0092 4346     		mov	r3, r8
 935 0094 002B     		cmp	r3, #0
 936 0096 01D0     		beq	.L72
 349:Source\azure_iot_sdk\c-utility\src/crt_abstractions.c ****             {
 937              		.loc 1 349 0 is_stmt 0 discriminator 1
 938 0098 082B     		cmp	r3, #8
 939 009a 02D1     		bne	.L68
 940              	.L72:
 941              	.LVL139:
 354:Source\azure_iot_sdk\c-utility\src/crt_abstractions.c ****             }
 942              		.loc 1 354 0 is_stmt 1
 943 009c 0134     		adds	r4, r4, #1
ARM GAS  C:\Users\Phuong\AppData\Local\Temp\cceqeziA.s 			page 28


 944              	.LVL140:
 353:Source\azure_iot_sdk\c-utility\src/crt_abstractions.c ****                 runner++;
 945              		.loc 1 353 0
 946 009e 0823     		movs	r3, #8
 947 00a0 9846     		mov	r8, r3
 948              	.LVL141:
 949              	.L68:
 358:Source\azure_iot_sdk\c-utility\src/crt_abstractions.c ****         {
 950              		.loc 1 358 0
 951 00a2 4346     		mov	r3, r8
 952 00a4 002B     		cmp	r3, #0
 953 00a6 01D1     		bne	.L73
 362:Source\azure_iot_sdk\c-utility\src/crt_abstractions.c ****         }
 954              		.loc 1 362 0
 955 00a8 0A33     		adds	r3, r3, #10
 956 00aa 9846     		mov	r8, r3
 957              	.LVL142:
 958              	.L73:
 365:Source\azure_iot_sdk\c-utility\src/crt_abstractions.c ****         if (validStr && IN_BASE_RANGE(digitVal, base))
 959              		.loc 1 365 0
 960 00ac 2678     		ldrb	r6, [r4]
 961 00ae 3300     		movs	r3, r6
 962 00b0 303B     		subs	r3, r3, #48
 963 00b2 DBB2     		uxtb	r3, r3
 964 00b4 092B     		cmp	r3, #9
 965 00b6 01D8     		bhi	.L74
 365:Source\azure_iot_sdk\c-utility\src/crt_abstractions.c ****         if (validStr && IN_BASE_RANGE(digitVal, base))
 966              		.loc 1 365 0 is_stmt 0 discriminator 1
 967 00b8 303E     		subs	r6, r6, #48
 968 00ba 0FE0     		b	.L75
 969              	.L74:
 365:Source\azure_iot_sdk\c-utility\src/crt_abstractions.c ****         if (validStr && IN_BASE_RANGE(digitVal, base))
 970              		.loc 1 365 0 discriminator 2
 971 00bc 3300     		movs	r3, r6
 972 00be 613B     		subs	r3, r3, #97
 973 00c0 DBB2     		uxtb	r3, r3
 974 00c2 192B     		cmp	r3, #25
 975 00c4 01D8     		bhi	.L76
 365:Source\azure_iot_sdk\c-utility\src/crt_abstractions.c ****         if (validStr && IN_BASE_RANGE(digitVal, base))
 976              		.loc 1 365 0 discriminator 4
 977 00c6 573E     		subs	r6, r6, #87
 978 00c8 08E0     		b	.L75
 979              	.L76:
 365:Source\azure_iot_sdk\c-utility\src/crt_abstractions.c ****         if (validStr && IN_BASE_RANGE(digitVal, base))
 980              		.loc 1 365 0 discriminator 5
 981 00ca 3300     		movs	r3, r6
 982 00cc 413B     		subs	r3, r3, #65
 983 00ce DBB2     		uxtb	r3, r3
 984 00d0 192B     		cmp	r3, #25
 985 00d2 01D8     		bhi	.L91
 365:Source\azure_iot_sdk\c-utility\src/crt_abstractions.c ****         if (validStr && IN_BASE_RANGE(digitVal, base))
 986              		.loc 1 365 0 discriminator 7
 987 00d4 373E     		subs	r6, r6, #55
 988 00d6 01E0     		b	.L75
 989              	.L91:
 365:Source\azure_iot_sdk\c-utility\src/crt_abstractions.c ****         if (validStr && IN_BASE_RANGE(digitVal, base))
 990              		.loc 1 365 0
ARM GAS  C:\Users\Phuong\AppData\Local\Temp\cceqeziA.s 			page 29


 991 00d8 0126     		movs	r6, #1
 992 00da 7642     		rsbs	r6, r6, #0
 993              	.L75:
 994              	.LVL143:
 366:Source\azure_iot_sdk\c-utility\src/crt_abstractions.c ****         {
 995              		.loc 1 366 0 is_stmt 1 discriminator 12
 996 00dc 002E     		cmp	r6, #0
 997 00de 58DB     		blt	.L92
 366:Source\azure_iot_sdk\c-utility\src/crt_abstractions.c ****         {
 998              		.loc 1 366 0 is_stmt 0 discriminator 2
 999 00e0 B045     		cmp	r8, r6
 1000 00e2 59DD     		ble	.L93
 368:Source\azure_iot_sdk\c-utility\src/crt_abstractions.c ****             do
 1001              		.loc 1 368 0 is_stmt 1
 1002 00e4 FFF7FEFF 		bl	__errno
 1003              	.LVL144:
 1004 00e8 0023     		movs	r3, #0
 1005 00ea 0360     		str	r3, [r0]
 1006 00ec 2700     		movs	r7, r4
 1007              	.LVL145:
 308:Source\azure_iot_sdk\c-utility\src/crt_abstractions.c ****     bool validStr = true;
 1008              		.loc 1 308 0
 1009 00ee 0024     		movs	r4, #0
 1010              	.LVL146:
 1011 00f0 0025     		movs	r5, #0
 1012 00f2 3300     		movs	r3, r6
 1013 00f4 BB46     		mov	fp, r7
 1014              	.LVL147:
 1015              	.L83:
 371:Source\azure_iot_sdk\c-utility\src/crt_abstractions.c ****                 {
 1016              		.loc 1 371 0
 1017 00f6 1E00     		movs	r6, r3
 1018 00f8 DF17     		asrs	r7, r3, #31
 1019 00fa D843     		mvns	r0, r3
 1020 00fc F943     		mvns	r1, r7
 1021 00fe 4346     		mov	r3, r8
 1022              	.LVL148:
 1023 0100 0093     		str	r3, [sp]
 1024 0102 DB17     		asrs	r3, r3, #31
 1025 0104 0393     		str	r3, [sp, #12]
 1026 0106 4246     		mov	r2, r8
 1027 0108 FFF7FEFF 		bl	__aeabi_uldivmod
 1028              	.LVL149:
 1029 010c 8D42     		cmp	r5, r1
 1030 010e 02D8     		bhi	.L95
 1031 0110 09D1     		bne	.L77
 1032 0112 8442     		cmp	r4, r0
 1033 0114 07D9     		bls	.L77
 1034              	.L95:
 1035              	.LVL150:
 376:Source\azure_iot_sdk\c-utility\src/crt_abstractions.c ****                 }
 1036              		.loc 1 376 0
 1037 0116 FFF7FEFF 		bl	__errno
 1038              	.LVL151:
 1039 011a 2223     		movs	r3, #34
 1040 011c 0360     		str	r3, [r0]
 375:Source\azure_iot_sdk\c-utility\src/crt_abstractions.c ****                     errno = ERANGE;
ARM GAS  C:\Users\Phuong\AppData\Local\Temp\cceqeziA.s 			page 30


 1041              		.loc 1 375 0
 1042 011e 0124     		movs	r4, #1
 1043 0120 6442     		rsbs	r4, r4, #0
 1044 0122 E517     		asrs	r5, r4, #31
 1045 0124 09E0     		b	.L79
 1046              	.LVL152:
 1047              	.L77:
 380:Source\azure_iot_sdk\c-utility\src/crt_abstractions.c ****                 }
 1048              		.loc 1 380 0
 1049 0126 009A     		ldr	r2, [sp]
 1050 0128 039B     		ldr	r3, [sp, #12]
 1051 012a 2000     		movs	r0, r4
 1052 012c 2900     		movs	r1, r5
 1053 012e FFF7FEFF 		bl	__aeabi_lmul
 1054              	.LVL153:
 1055 0132 8019     		adds	r0, r0, r6
 1056 0134 7941     		adcs	r1, r1, r7
 1057 0136 0400     		movs	r4, r0
 1058              	.LVL154:
 1059 0138 0D00     		movs	r5, r1
 1060              	.LVL155:
 1061              	.L79:
 382:Source\azure_iot_sdk\c-utility\src/crt_abstractions.c ****                 digitVal = DIGIT_VAL(*runner);
 1062              		.loc 1 382 0
 1063 013a 0123     		movs	r3, #1
 1064 013c 9C46     		mov	ip, r3
 1065 013e E344     		add	fp, fp, ip
 1066              	.LVL156:
 383:Source\azure_iot_sdk\c-utility\src/crt_abstractions.c ****             } while (IN_BASE_RANGE(digitVal, base));
 1067              		.loc 1 383 0
 1068 0140 5B46     		mov	r3, fp
 1069 0142 1B78     		ldrb	r3, [r3]
 1070 0144 1A00     		movs	r2, r3
 1071 0146 303A     		subs	r2, r2, #48
 1072 0148 D2B2     		uxtb	r2, r2
 1073 014a 092A     		cmp	r2, #9
 1074 014c 01D8     		bhi	.L80
 383:Source\azure_iot_sdk\c-utility\src/crt_abstractions.c ****             } while (IN_BASE_RANGE(digitVal, base));
 1075              		.loc 1 383 0 is_stmt 0 discriminator 1
 1076 014e 303B     		subs	r3, r3, #48
 1077 0150 0FE0     		b	.L81
 1078              	.L80:
 383:Source\azure_iot_sdk\c-utility\src/crt_abstractions.c ****             } while (IN_BASE_RANGE(digitVal, base));
 1079              		.loc 1 383 0 discriminator 2
 1080 0152 1A00     		movs	r2, r3
 1081 0154 613A     		subs	r2, r2, #97
 1082 0156 D2B2     		uxtb	r2, r2
 1083 0158 192A     		cmp	r2, #25
 1084 015a 01D8     		bhi	.L82
 383:Source\azure_iot_sdk\c-utility\src/crt_abstractions.c ****             } while (IN_BASE_RANGE(digitVal, base));
 1085              		.loc 1 383 0 discriminator 4
 1086 015c 573B     		subs	r3, r3, #87
 1087 015e 08E0     		b	.L81
 1088              	.L82:
 383:Source\azure_iot_sdk\c-utility\src/crt_abstractions.c ****             } while (IN_BASE_RANGE(digitVal, base));
 1089              		.loc 1 383 0 discriminator 5
 1090 0160 1A00     		movs	r2, r3
ARM GAS  C:\Users\Phuong\AppData\Local\Temp\cceqeziA.s 			page 31


 1091 0162 413A     		subs	r2, r2, #65
 1092 0164 D2B2     		uxtb	r2, r2
 1093 0166 192A     		cmp	r2, #25
 1094 0168 01D8     		bhi	.L94
 383:Source\azure_iot_sdk\c-utility\src/crt_abstractions.c ****             } while (IN_BASE_RANGE(digitVal, base));
 1095              		.loc 1 383 0 discriminator 7
 1096 016a 373B     		subs	r3, r3, #55
 1097 016c 01E0     		b	.L81
 1098              	.L94:
 383:Source\azure_iot_sdk\c-utility\src/crt_abstractions.c ****             } while (IN_BASE_RANGE(digitVal, base));
 1099              		.loc 1 383 0
 1100 016e 0123     		movs	r3, #1
 1101 0170 5B42     		rsbs	r3, r3, #0
 1102              	.L81:
 1103              	.LVL157:
 384:Source\azure_iot_sdk\c-utility\src/crt_abstractions.c ****         }
 1104              		.loc 1 384 0 is_stmt 1 discriminator 12
 1105 0172 002B     		cmp	r3, #0
 1106 0174 13DB     		blt	.L96
 384:Source\azure_iot_sdk\c-utility\src/crt_abstractions.c ****         }
 1107              		.loc 1 384 0 is_stmt 0 discriminator 1
 1108 0176 9845     		cmp	r8, r3
 1109 0178 BDDC     		bgt	.L83
 1110 017a 5F46     		mov	r7, fp
 1111 017c 10E0     		b	.L63
 1112              	.LVL158:
 1113              	.L86:
 311:Source\azure_iot_sdk\c-utility\src/crt_abstractions.c ****     int digitVal;
 1114              		.loc 1 311 0 is_stmt 1
 1115 017e 0023     		movs	r3, #0
 1116 0180 9946     		mov	r9, r3
 308:Source\azure_iot_sdk\c-utility\src/crt_abstractions.c ****     bool validStr = true;
 1117              		.loc 1 308 0
 1118 0182 0024     		movs	r4, #0
 1119 0184 0025     		movs	r5, #0
 1120 0186 0BE0     		b	.L63
 1121              	.L87:
 311:Source\azure_iot_sdk\c-utility\src/crt_abstractions.c ****     int digitVal;
 1122              		.loc 1 311 0
 1123 0188 0023     		movs	r3, #0
 1124 018a 9946     		mov	r9, r3
 308:Source\azure_iot_sdk\c-utility\src/crt_abstractions.c ****     bool validStr = true;
 1125              		.loc 1 308 0
 1126 018c 0024     		movs	r4, #0
 1127 018e 0025     		movs	r5, #0
 1128 0190 06E0     		b	.L63
 1129              	.LVL159:
 1130              	.L92:
 1131 0192 0024     		movs	r4, #0
 1132              	.LVL160:
 1133 0194 0025     		movs	r5, #0
 1134 0196 03E0     		b	.L63
 1135              	.LVL161:
 1136              	.L93:
 1137 0198 0024     		movs	r4, #0
 1138              	.LVL162:
 1139 019a 0025     		movs	r5, #0
ARM GAS  C:\Users\Phuong\AppData\Local\Temp\cceqeziA.s 			page 32


 1140 019c 00E0     		b	.L63
 1141              	.LVL163:
 1142              	.L96:
 1143 019e 5F46     		mov	r7, fp
 1144              	.LVL164:
 1145              	.L63:
 393:Source\azure_iot_sdk\c-utility\src/crt_abstractions.c ****     {
 1146              		.loc 1 393 0
 1147 01a0 5346     		mov	r3, r10
 1148 01a2 002B     		cmp	r3, #0
 1149 01a4 00D0     		beq	.L84
 1150              	.LVL165:
 395:Source\azure_iot_sdk\c-utility\src/crt_abstractions.c ****     }
 1151              		.loc 1 395 0
 1152 01a6 1F60     		str	r7, [r3]
 1153              	.L84:
 399:Source\azure_iot_sdk\c-utility\src/crt_abstractions.c ****     {
 1154              		.loc 1 399 0
 1155 01a8 4B46     		mov	r3, r9
 1156              	.LVL166:
 1157 01aa 002B     		cmp	r3, #0
 1158 01ac 04D0     		beq	.L85
 401:Source\azure_iot_sdk\c-utility\src/crt_abstractions.c ****     }
 1159              		.loc 1 401 0
 1160 01ae 2200     		movs	r2, r4
 1161 01b0 2B00     		movs	r3, r5
 1162 01b2 0025     		movs	r5, #0
 1163 01b4 5442     		rsbs	r4, r2, #0
 1164 01b6 9D41     		sbcs	r5, r3
 1165              	.LVL167:
 1166              	.L85:
 405:Source\azure_iot_sdk\c-utility\src/crt_abstractions.c **** 
 1167              		.loc 1 405 0
 1168 01b8 2000     		movs	r0, r4
 1169 01ba 2900     		movs	r1, r5
 1170 01bc 05B0     		add	sp, sp, #20
 1171              		@ sp needed
 1172              	.LVL168:
 1173              	.LVL169:
 1174              	.LVL170:
 1175              	.LVL171:
 1176              	.LVL172:
 1177 01be 3CBC     		pop	{r2, r3, r4, r5}
 1178 01c0 9046     		mov	r8, r2
 1179 01c2 9946     		mov	r9, r3
 1180 01c4 A246     		mov	r10, r4
 1181 01c6 AB46     		mov	fp, r5
 1182 01c8 F0BD     		pop	{r4, r5, r6, r7, pc}
 1183              		.cfi_endproc
 1184              	.LFE5:
 1185              		.size	strtoull_s, .-strtoull_s
 1186              		.global	__aeabi_i2d
 1187              		.global	__aeabi_d2ulz
 1188              		.global	__aeabi_ul2d
 1189              		.global	__aeabi_ddiv
 1190 01ca C046     		.section	.text.splitFloatString,"ax",%progbits
 1191              		.align	2
ARM GAS  C:\Users\Phuong\AppData\Local\Temp\cceqeziA.s 			page 33


 1192              		.code	16
 1193              		.thumb_func
 1194              		.type	splitFloatString, %function
 1195              	splitFloatString:
 1196              	.LFB9:
 466:Source\azure_iot_sdk\c-utility\src/crt_abstractions.c **** 
 467:Source\azure_iot_sdk\c-utility\src/crt_abstractions.c **** #define FLOAT_STRING_TYPE_VALUES    \
 468:Source\azure_iot_sdk\c-utility\src/crt_abstractions.c ****             FST_INFINITY,           \
 469:Source\azure_iot_sdk\c-utility\src/crt_abstractions.c ****             FST_NAN,                \
 470:Source\azure_iot_sdk\c-utility\src/crt_abstractions.c ****             FST_NUMBER,             \
 471:Source\azure_iot_sdk\c-utility\src/crt_abstractions.c ****             FST_OVERFLOW,           \
 472:Source\azure_iot_sdk\c-utility\src/crt_abstractions.c ****             FST_ERROR
 473:Source\azure_iot_sdk\c-utility\src/crt_abstractions.c **** 
 474:Source\azure_iot_sdk\c-utility\src/crt_abstractions.c **** DEFINE_ENUM(FLOAT_STRING_TYPE, FLOAT_STRING_TYPE_VALUES);
 475:Source\azure_iot_sdk\c-utility\src/crt_abstractions.c **** 
 476:Source\azure_iot_sdk\c-utility\src/crt_abstractions.c **** static FLOAT_STRING_TYPE splitFloatString(const char* nptr, char** endptr, int *signal, double *fra
 477:Source\azure_iot_sdk\c-utility\src/crt_abstractions.c **** {
 1197              		.loc 1 477 0
 1198              		.cfi_startproc
 1199              		@ args = 4, pretend = 0, frame = 16
 1200              		@ frame_needed = 0, uses_anonymous_args = 0
 1201              	.LVL173:
 1202 0000 F0B5     		push	{r4, r5, r6, r7, lr}
 1203              		.cfi_def_cfa_offset 20
 1204              		.cfi_offset 4, -20
 1205              		.cfi_offset 5, -16
 1206              		.cfi_offset 6, -12
 1207              		.cfi_offset 7, -8
 1208              		.cfi_offset 14, -4
 1209 0002 5746     		mov	r7, r10
 1210 0004 4E46     		mov	r6, r9
 1211 0006 4546     		mov	r5, r8
 1212 0008 E0B4     		push	{r5, r6, r7}
 1213              		.cfi_def_cfa_offset 32
 1214              		.cfi_offset 8, -32
 1215              		.cfi_offset 9, -28
 1216              		.cfi_offset 10, -24
 1217 000a 84B0     		sub	sp, sp, #16
 1218              		.cfi_def_cfa_offset 48
 1219 000c 0D00     		movs	r5, r1
 1220 000e 0193     		str	r3, [sp, #4]
 1221              	.LVL174:
 478:Source\azure_iot_sdk\c-utility\src/crt_abstractions.c ****     FLOAT_STRING_TYPE result = FST_ERROR;
 479:Source\azure_iot_sdk\c-utility\src/crt_abstractions.c **** 
 480:Source\azure_iot_sdk\c-utility\src/crt_abstractions.c ****     unsigned long long ullInteger = 0;
 481:Source\azure_iot_sdk\c-utility\src/crt_abstractions.c ****     unsigned long long ullFraction = 0;
 482:Source\azure_iot_sdk\c-utility\src/crt_abstractions.c ****     int integerSize = 0;
 483:Source\azure_iot_sdk\c-utility\src/crt_abstractions.c ****     int fractionSize = 0;
 484:Source\azure_iot_sdk\c-utility\src/crt_abstractions.c ****     char* startptr;
 485:Source\azure_iot_sdk\c-utility\src/crt_abstractions.c **** 
 486:Source\azure_iot_sdk\c-utility\src/crt_abstractions.c ****     (*endptr) = (char*)nptr;
 1222              		.loc 1 486 0
 1223 0010 0860     		str	r0, [r1]
 487:Source\azure_iot_sdk\c-utility\src/crt_abstractions.c **** 
 488:Source\azure_iot_sdk\c-utility\src/crt_abstractions.c ****     /*Codes_SRS_CRT_ABSTRACTIONS_21_018: [The white-space for strtof_s must be one of the character
 489:Source\azure_iot_sdk\c-utility\src/crt_abstractions.c ****     /*Codes_SRS_CRT_ABSTRACTIONS_21_028: [The white-space for strtold_s must be one of the characte
 490:Source\azure_iot_sdk\c-utility\src/crt_abstractions.c ****     while (IS_SPACE(**endptr))
ARM GAS  C:\Users\Phuong\AppData\Local\Temp\cceqeziA.s 			page 34


 1224              		.loc 1 490 0
 1225 0012 01E0     		b	.L98
 1226              	.LVL175:
 1227              	.L99:
 491:Source\azure_iot_sdk\c-utility\src/crt_abstractions.c ****     {
 492:Source\azure_iot_sdk\c-utility\src/crt_abstractions.c ****         (*endptr)++;
 1228              		.loc 1 492 0
 1229 0014 0133     		adds	r3, r3, #1
 1230 0016 2B60     		str	r3, [r5]
 1231              	.L98:
 490:Source\azure_iot_sdk\c-utility\src/crt_abstractions.c ****     {
 1232              		.loc 1 490 0
 1233 0018 2B68     		ldr	r3, [r5]
 1234 001a 1978     		ldrb	r1, [r3]
 1235 001c 2029     		cmp	r1, #32
 1236 001e F9D0     		beq	.L99
 490:Source\azure_iot_sdk\c-utility\src/crt_abstractions.c ****     {
 1237              		.loc 1 490 0 is_stmt 0 discriminator 1
 1238 0020 0C29     		cmp	r1, #12
 1239 0022 F7D0     		beq	.L99
 490:Source\azure_iot_sdk\c-utility\src/crt_abstractions.c ****     {
 1240              		.loc 1 490 0 discriminator 2
 1241 0024 0A29     		cmp	r1, #10
 1242 0026 F5D0     		beq	.L99
 490:Source\azure_iot_sdk\c-utility\src/crt_abstractions.c ****     {
 1243              		.loc 1 490 0 discriminator 3
 1244 0028 0D29     		cmp	r1, #13
 1245 002a F3D0     		beq	.L99
 490:Source\azure_iot_sdk\c-utility\src/crt_abstractions.c ****     {
 1246              		.loc 1 490 0 discriminator 4
 1247 002c 0929     		cmp	r1, #9
 1248 002e F1D0     		beq	.L99
 490:Source\azure_iot_sdk\c-utility\src/crt_abstractions.c ****     {
 1249              		.loc 1 490 0 discriminator 5
 1250 0030 0B29     		cmp	r1, #11
 1251 0032 EFD0     		beq	.L99
 493:Source\azure_iot_sdk\c-utility\src/crt_abstractions.c ****     }
 494:Source\azure_iot_sdk\c-utility\src/crt_abstractions.c **** 
 495:Source\azure_iot_sdk\c-utility\src/crt_abstractions.c ****     /*Codes_SRS_CRT_ABSTRACTIONS_21_019: [The valid sequence for strtof_s starts after the first no
 496:Source\azure_iot_sdk\c-utility\src/crt_abstractions.c ****     /*Codes_SRS_CRT_ABSTRACTIONS_21_029: [The valid sequence for strtold_s starts after the first n
 497:Source\azure_iot_sdk\c-utility\src/crt_abstractions.c ****     (*signal) = +1;
 1252              		.loc 1 497 0 is_stmt 1
 1253 0034 0123     		movs	r3, #1
 1254 0036 1360     		str	r3, [r2]
 498:Source\azure_iot_sdk\c-utility\src/crt_abstractions.c ****     if ((**endptr) == '+')
 1255              		.loc 1 498 0
 1256 0038 2968     		ldr	r1, [r5]
 1257 003a 0B78     		ldrb	r3, [r1]
 1258 003c 2B2B     		cmp	r3, #43
 1259 003e 02D1     		bne	.L100
 499:Source\azure_iot_sdk\c-utility\src/crt_abstractions.c ****     {
 500:Source\azure_iot_sdk\c-utility\src/crt_abstractions.c ****         (*endptr)++;
 1260              		.loc 1 500 0
 1261 0040 0131     		adds	r1, r1, #1
 1262 0042 2960     		str	r1, [r5]
 1263 0044 06E0     		b	.L101
 1264              	.L100:
ARM GAS  C:\Users\Phuong\AppData\Local\Temp\cceqeziA.s 			page 35


 501:Source\azure_iot_sdk\c-utility\src/crt_abstractions.c ****     }
 502:Source\azure_iot_sdk\c-utility\src/crt_abstractions.c ****     else if ((**endptr) == '-')
 1265              		.loc 1 502 0
 1266 0046 2D2B     		cmp	r3, #45
 1267 0048 04D1     		bne	.L101
 503:Source\azure_iot_sdk\c-utility\src/crt_abstractions.c ****     {
 504:Source\azure_iot_sdk\c-utility\src/crt_abstractions.c ****         (*signal) = -1;
 1268              		.loc 1 504 0
 1269 004a 2E3B     		subs	r3, r3, #46
 1270 004c 1360     		str	r3, [r2]
 505:Source\azure_iot_sdk\c-utility\src/crt_abstractions.c ****         (*endptr)++;
 1271              		.loc 1 505 0
 1272 004e 2B68     		ldr	r3, [r5]
 1273 0050 0133     		adds	r3, r3, #1
 1274 0052 2B60     		str	r3, [r5]
 1275              	.L101:
 506:Source\azure_iot_sdk\c-utility\src/crt_abstractions.c ****     }
 507:Source\azure_iot_sdk\c-utility\src/crt_abstractions.c **** 
 508:Source\azure_iot_sdk\c-utility\src/crt_abstractions.c ****     /*Codes_SRS_CRT_ABSTRACTIONS_21_023: [If the string is 'INF' of 'INFINITY' (ignoring case), the
 509:Source\azure_iot_sdk\c-utility\src/crt_abstractions.c ****     /*Codes_SRS_CRT_ABSTRACTIONS_21_033: [If the string is 'INF' of 'INFINITY' (ignoring case), the
 510:Source\azure_iot_sdk\c-utility\src/crt_abstractions.c ****     if (isInfinity((const char**)endptr))
 1276              		.loc 1 510 0
 1277 0054 2800     		movs	r0, r5
 1278              	.LVL176:
 1279 0056 FFF7FEFF 		bl	isInfinity
 1280              	.LVL177:
 1281 005a 0028     		cmp	r0, #0
 1282 005c 00D0     		beq	.LCB1350
 1283 005e DEE0     		b	.L116	@long jump
 1284              	.LCB1350:
 511:Source\azure_iot_sdk\c-utility\src/crt_abstractions.c ****     {
 512:Source\azure_iot_sdk\c-utility\src/crt_abstractions.c ****         result = FST_INFINITY;
 513:Source\azure_iot_sdk\c-utility\src/crt_abstractions.c ****     }
 514:Source\azure_iot_sdk\c-utility\src/crt_abstractions.c ****     /*Codes_SRS_CRT_ABSTRACTIONS_21_034: [If the string is 'NAN' or 'NAN(...)' (ignoring case), the
 515:Source\azure_iot_sdk\c-utility\src/crt_abstractions.c ****     /*Codes_SRS_CRT_ABSTRACTIONS_21_024: [If the string is 'NAN' or 'NAN(...)' (ignoring case), the
 516:Source\azure_iot_sdk\c-utility\src/crt_abstractions.c ****     else if (isNaN((const char**)endptr))
 1285              		.loc 1 516 0
 1286 0060 2800     		movs	r0, r5
 1287 0062 FFF7FEFF 		bl	isNaN
 1288              	.LVL178:
 1289 0066 0028     		cmp	r0, #0
 1290 0068 00D0     		beq	.LCB1355
 1291 006a DAE0     		b	.L117	@long jump
 1292              	.LCB1355:
 517:Source\azure_iot_sdk\c-utility\src/crt_abstractions.c ****     {
 518:Source\azure_iot_sdk\c-utility\src/crt_abstractions.c ****         result = FST_NAN;
 519:Source\azure_iot_sdk\c-utility\src/crt_abstractions.c ****     }
 520:Source\azure_iot_sdk\c-utility\src/crt_abstractions.c ****     else if (IN_BASE_RANGE(DIGIT_VAL(**endptr), 10))
 1293              		.loc 1 520 0
 1294 006c 2C68     		ldr	r4, [r5]
 1295 006e 2378     		ldrb	r3, [r4]
 1296 0070 1900     		movs	r1, r3
 1297 0072 3039     		subs	r1, r1, #48
 1298 0074 C9B2     		uxtb	r1, r1
 1299 0076 0929     		cmp	r1, #9
 1300 0078 04D8     		bhi	.L103
 1301              		.loc 1 520 0 is_stmt 0 discriminator 1
ARM GAS  C:\Users\Phuong\AppData\Local\Temp\cceqeziA.s 			page 36


 1302 007a 1A00     		movs	r2, r3
 1303 007c 303A     		subs	r2, r2, #48
 1304 007e D243     		mvns	r2, r2
 1305 0080 D20F     		lsrs	r2, r2, #31
 1306 0082 15E0     		b	.L104
 1307              	.L103:
 1308              		.loc 1 520 0 discriminator 2
 1309 0084 1A00     		movs	r2, r3
 1310 0086 613A     		subs	r2, r2, #97
 1311 0088 D2B2     		uxtb	r2, r2
 1312 008a 192A     		cmp	r2, #25
 1313 008c 04D8     		bhi	.L105
 1314              		.loc 1 520 0 discriminator 4
 1315 008e 1A00     		movs	r2, r3
 1316 0090 573A     		subs	r2, r2, #87
 1317 0092 D243     		mvns	r2, r2
 1318 0094 D20F     		lsrs	r2, r2, #31
 1319 0096 0BE0     		b	.L104
 1320              	.L105:
 1321              		.loc 1 520 0 discriminator 5
 1322 0098 1A00     		movs	r2, r3
 1323 009a 413A     		subs	r2, r2, #65
 1324 009c D2B2     		uxtb	r2, r2
 1325 009e 192A     		cmp	r2, #25
 1326 00a0 03D8     		bhi	.L118
 1327              		.loc 1 520 0 discriminator 7
 1328 00a2 372B     		cmp	r3, #55
 1329 00a4 03D5     		bpl	.L119
 1330              		.loc 1 520 0
 1331 00a6 0022     		movs	r2, #0
 1332 00a8 02E0     		b	.L104
 1333              	.L118:
 1334 00aa 0022     		movs	r2, #0
 1335 00ac 00E0     		b	.L104
 1336              	.L119:
 1337 00ae 0122     		movs	r2, #1
 1338              	.L104:
 1339              		.loc 1 520 0 discriminator 14
 1340 00b0 002A     		cmp	r2, #0
 1341 00b2 00D1     		bne	.LCB1410
 1342 00b4 B7E0     		b	.L120	@long jump
 1343              	.LCB1410:
 1344              		.loc 1 520 0 discriminator 15
 1345 00b6 0929     		cmp	r1, #9
 1346 00b8 08D8     		bhi	.L107
 1347              		.loc 1 520 0 discriminator 16
 1348 00ba 303B     		subs	r3, r3, #48
 1349 00bc 1900     		movs	r1, r3
 1350 00be DB0F     		lsrs	r3, r3, #31
 1351 00c0 0022     		movs	r2, #0
 1352 00c2 0920     		movs	r0, #9
 1353 00c4 8842     		cmp	r0, r1
 1354 00c6 5341     		adcs	r3, r3, r2
 1355 00c8 DBB2     		uxtb	r3, r3
 1356 00ca 1AE0     		b	.L108
 1357              	.L107:
 1358              		.loc 1 520 0 discriminator 17
ARM GAS  C:\Users\Phuong\AppData\Local\Temp\cceqeziA.s 			page 37


 1359 00cc 1A00     		movs	r2, r3
 1360 00ce 613A     		subs	r2, r2, #97
 1361 00d0 D2B2     		uxtb	r2, r2
 1362 00d2 192A     		cmp	r2, #25
 1363 00d4 08D8     		bhi	.L109
 1364              		.loc 1 520 0 discriminator 19
 1365 00d6 573B     		subs	r3, r3, #87
 1366 00d8 1900     		movs	r1, r3
 1367 00da DB0F     		lsrs	r3, r3, #31
 1368 00dc 0022     		movs	r2, #0
 1369 00de 0920     		movs	r0, #9
 1370 00e0 8842     		cmp	r0, r1
 1371 00e2 5341     		adcs	r3, r3, r2
 1372 00e4 DBB2     		uxtb	r3, r3
 1373 00e6 0CE0     		b	.L108
 1374              	.L109:
 1375              		.loc 1 520 0 discriminator 20
 1376 00e8 1A00     		movs	r2, r3
 1377 00ea 413A     		subs	r2, r2, #65
 1378 00ec D2B2     		uxtb	r2, r2
 1379 00ee 192A     		cmp	r2, #25
 1380 00f0 04D8     		bhi	.L121
 1381              		.loc 1 520 0 discriminator 23
 1382 00f2 373B     		subs	r3, r3, #55
 1383 00f4 092B     		cmp	r3, #9
 1384 00f6 03DC     		bgt	.L122
 1385              		.loc 1 520 0
 1386 00f8 0123     		movs	r3, #1
 1387 00fa 02E0     		b	.L108
 1388              	.L121:
 1389 00fc 0123     		movs	r3, #1
 1390 00fe 00E0     		b	.L108
 1391              	.L122:
 1392 0100 0023     		movs	r3, #0
 1393              	.L108:
 1394              		.loc 1 520 0 discriminator 29
 1395 0102 002B     		cmp	r3, #0
 1396 0104 00D1     		bne	.LCB1464
 1397 0106 90E0     		b	.L123	@long jump
 1398              	.LCB1464:
 1399              	.LVL179:
 521:Source\azure_iot_sdk\c-utility\src/crt_abstractions.c ****     {
 522:Source\azure_iot_sdk\c-utility\src/crt_abstractions.c ****         result = FST_NUMBER;
 523:Source\azure_iot_sdk\c-utility\src/crt_abstractions.c ****         startptr = *endptr;
 524:Source\azure_iot_sdk\c-utility\src/crt_abstractions.c ****         /* integers will go to the fraction and exponential. */
 525:Source\azure_iot_sdk\c-utility\src/crt_abstractions.c ****         ullInteger = strtoull_s(startptr, endptr, 10);
 1400              		.loc 1 525 0 is_stmt 1
 1401 0108 0A22     		movs	r2, #10
 1402 010a 2900     		movs	r1, r5
 1403 010c 2000     		movs	r0, r4
 1404 010e FFF7FEFF 		bl	strtoull_s
 1405              	.LVL180:
 1406 0112 0300     		movs	r3, r0
 1407 0114 0390     		str	r0, [sp, #12]
 1408 0116 0291     		str	r1, [sp, #8]
 1409              	.LVL181:
 526:Source\azure_iot_sdk\c-utility\src/crt_abstractions.c ****         integerSize = (int)((*endptr) - startptr);
ARM GAS  C:\Users\Phuong\AppData\Local\Temp\cceqeziA.s 			page 38


 1410              		.loc 1 526 0
 1411 0118 2A68     		ldr	r2, [r5]
 1412 011a 121B     		subs	r2, r2, r4
 1413 011c 9146     		mov	r9, r2
 1414              	.LVL182:
 527:Source\azure_iot_sdk\c-utility\src/crt_abstractions.c ****         if ((ullInteger == ULLONG_MAX) && (errno != 0))
 1415              		.loc 1 527 0
 1416 011e 0133     		adds	r3, r3, #1
 1417 0120 09D1     		bne	.L124
 1418 0122 0B00     		movs	r3, r1
 1419 0124 0133     		adds	r3, r3, #1
 1420 0126 06D1     		bne	.L124
 1421              		.loc 1 527 0 is_stmt 0 discriminator 1
 1422 0128 FFF7FEFF 		bl	__errno
 1423              	.LVL183:
 1424 012c 0368     		ldr	r3, [r0]
 1425 012e 002B     		cmp	r3, #0
 1426 0130 03D1     		bne	.L125
 522:Source\azure_iot_sdk\c-utility\src/crt_abstractions.c ****         startptr = *endptr;
 1427              		.loc 1 522 0 is_stmt 1
 1428 0132 0224     		movs	r4, #2
 1429              	.LVL184:
 1430 0134 02E0     		b	.L111
 1431              	.LVL185:
 1432              	.L124:
 1433 0136 0224     		movs	r4, #2
 1434              	.LVL186:
 1435 0138 00E0     		b	.L111
 1436              	.LVL187:
 1437              	.L125:
 528:Source\azure_iot_sdk\c-utility\src/crt_abstractions.c ****         {
 529:Source\azure_iot_sdk\c-utility\src/crt_abstractions.c ****             result = FST_OVERFLOW;
 1438              		.loc 1 529 0
 1439 013a 0324     		movs	r4, #3
 1440              	.LVL188:
 1441              	.L111:
 530:Source\azure_iot_sdk\c-utility\src/crt_abstractions.c ****         }
 531:Source\azure_iot_sdk\c-utility\src/crt_abstractions.c **** 
 532:Source\azure_iot_sdk\c-utility\src/crt_abstractions.c ****         /* get the real fraction part, if exist. */
 533:Source\azure_iot_sdk\c-utility\src/crt_abstractions.c ****         if ((**endptr) == '.')
 1442              		.loc 1 533 0
 1443 013c 2868     		ldr	r0, [r5]
 1444 013e 0378     		ldrb	r3, [r0]
 1445 0140 2E2B     		cmp	r3, #46
 1446 0142 16D1     		bne	.L126
 534:Source\azure_iot_sdk\c-utility\src/crt_abstractions.c ****         {
 535:Source\azure_iot_sdk\c-utility\src/crt_abstractions.c ****             startptr = (*endptr) + 1;
 1447              		.loc 1 535 0
 1448 0144 431C     		adds	r3, r0, #1
 1449 0146 9A46     		mov	r10, r3
 1450              	.LVL189:
 536:Source\azure_iot_sdk\c-utility\src/crt_abstractions.c ****             ullFraction = strtoull_s(startptr, endptr, 10);
 1451              		.loc 1 536 0
 1452 0148 0A22     		movs	r2, #10
 1453 014a 2900     		movs	r1, r5
 1454 014c 1800     		movs	r0, r3
 1455 014e FFF7FEFF 		bl	strtoull_s
ARM GAS  C:\Users\Phuong\AppData\Local\Temp\cceqeziA.s 			page 39


 1456              	.LVL190:
 1457 0152 0600     		movs	r6, r0
 1458 0154 0F00     		movs	r7, r1
 1459              	.LVL191:
 537:Source\azure_iot_sdk\c-utility\src/crt_abstractions.c ****             fractionSize = (int)((*endptr) - startptr);
 1460              		.loc 1 537 0
 1461 0156 2B68     		ldr	r3, [r5]
 1462 0158 5246     		mov	r2, r10
 1463 015a 9B1A     		subs	r3, r3, r2
 1464 015c 9846     		mov	r8, r3
 1465              	.LVL192:
 538:Source\azure_iot_sdk\c-utility\src/crt_abstractions.c ****             if ((ullFraction == ULLONG_MAX) && (errno != 0))
 1466              		.loc 1 538 0
 1467 015e 431C     		adds	r3, r0, #1
 1468 0160 0DD1     		bne	.L112
 1469              	.LVL193:
 1470 0162 4B1C     		adds	r3, r1, #1
 1471 0164 0BD1     		bne	.L112
 1472              		.loc 1 538 0 is_stmt 0 discriminator 1
 1473 0166 FFF7FEFF 		bl	__errno
 1474              	.LVL194:
 1475 016a 0368     		ldr	r3, [r0]
 1476 016c 002B     		cmp	r3, #0
 1477 016e 05D1     		bne	.L127
 1478 0170 05E0     		b	.L112
 1479              	.LVL195:
 1480              	.L126:
 483:Source\azure_iot_sdk\c-utility\src/crt_abstractions.c ****     char* startptr;
 1481              		.loc 1 483 0 is_stmt 1
 1482 0172 0023     		movs	r3, #0
 1483 0174 9846     		mov	r8, r3
 481:Source\azure_iot_sdk\c-utility\src/crt_abstractions.c ****     int integerSize = 0;
 1484              		.loc 1 481 0
 1485 0176 0026     		movs	r6, #0
 1486 0178 0027     		movs	r7, #0
 1487 017a 00E0     		b	.L112
 1488              	.LVL196:
 1489              	.L127:
 539:Source\azure_iot_sdk\c-utility\src/crt_abstractions.c ****             {
 540:Source\azure_iot_sdk\c-utility\src/crt_abstractions.c ****                 result = FST_OVERFLOW;
 1490              		.loc 1 540 0
 1491 017c 0324     		movs	r4, #3
 1492              	.LVL197:
 1493              	.L112:
 541:Source\azure_iot_sdk\c-utility\src/crt_abstractions.c ****             }
 542:Source\azure_iot_sdk\c-utility\src/crt_abstractions.c ****         }
 543:Source\azure_iot_sdk\c-utility\src/crt_abstractions.c **** 
 544:Source\azure_iot_sdk\c-utility\src/crt_abstractions.c ****         if (((**endptr) == 'e') || ((**endptr) == 'E'))
 1494              		.loc 1 544 0
 1495 017e 2868     		ldr	r0, [r5]
 1496 0180 0378     		ldrb	r3, [r0]
 1497 0182 652B     		cmp	r3, #101
 1498 0184 01D0     		beq	.L113
 1499              		.loc 1 544 0 is_stmt 0 discriminator 1
 1500 0186 452B     		cmp	r3, #69
 1501 0188 0DD1     		bne	.L114
 1502              	.L113:
ARM GAS  C:\Users\Phuong\AppData\Local\Temp\cceqeziA.s 			page 40


 545:Source\azure_iot_sdk\c-utility\src/crt_abstractions.c ****         {
 546:Source\azure_iot_sdk\c-utility\src/crt_abstractions.c ****             startptr = (*endptr) + 1;
 1503              		.loc 1 546 0 is_stmt 1
 1504 018a 0130     		adds	r0, r0, #1
 1505              	.LVL198:
 547:Source\azure_iot_sdk\c-utility\src/crt_abstractions.c ****             (*exponential) = (int)strtol(startptr, endptr, 10);
 1506              		.loc 1 547 0
 1507 018c 0A22     		movs	r2, #10
 1508 018e 2900     		movs	r1, r5
 1509 0190 FFF7FEFF 		bl	strtol
 1510              	.LVL199:
 1511 0194 0C9B     		ldr	r3, [sp, #48]
 1512 0196 1860     		str	r0, [r3]
 548:Source\azure_iot_sdk\c-utility\src/crt_abstractions.c ****             if (((*exponential) < (DBL_MAX_10_EXP * (-1))) || ((*exponential) > DBL_MAX_10_EXP))
 1513              		.loc 1 548 0
 1514 0198 3530     		adds	r0, r0, #53
 1515 019a FF30     		adds	r0, r0, #255
 1516 019c 9A23     		movs	r3, #154
 1517 019e 9B00     		lsls	r3, r3, #2
 1518 01a0 9842     		cmp	r0, r3
 1519 01a2 04D8     		bhi	.L128
 1520 01a4 04E0     		b	.L115
 1521              	.L114:
 549:Source\azure_iot_sdk\c-utility\src/crt_abstractions.c ****             {
 550:Source\azure_iot_sdk\c-utility\src/crt_abstractions.c ****                 result = FST_OVERFLOW;
 551:Source\azure_iot_sdk\c-utility\src/crt_abstractions.c ****             }
 552:Source\azure_iot_sdk\c-utility\src/crt_abstractions.c ****         }
 553:Source\azure_iot_sdk\c-utility\src/crt_abstractions.c ****         else
 554:Source\azure_iot_sdk\c-utility\src/crt_abstractions.c ****         {
 555:Source\azure_iot_sdk\c-utility\src/crt_abstractions.c ****             (*exponential) = 0;
 1522              		.loc 1 555 0
 1523 01a6 0023     		movs	r3, #0
 1524 01a8 0C9A     		ldr	r2, [sp, #48]
 1525 01aa 1360     		str	r3, [r2]
 1526 01ac 00E0     		b	.L115
 1527              	.L128:
 550:Source\azure_iot_sdk\c-utility\src/crt_abstractions.c ****             }
 1528              		.loc 1 550 0
 1529 01ae 0324     		movs	r4, #3
 1530              	.LVL200:
 1531              	.L115:
 556:Source\azure_iot_sdk\c-utility\src/crt_abstractions.c ****         }
 557:Source\azure_iot_sdk\c-utility\src/crt_abstractions.c **** 
 558:Source\azure_iot_sdk\c-utility\src/crt_abstractions.c ****         if (result == FST_NUMBER)
 1532              		.loc 1 558 0
 1533 01b0 022C     		cmp	r4, #2
 1534 01b2 3BD1     		bne	.L102
 559:Source\azure_iot_sdk\c-utility\src/crt_abstractions.c ****         {
 560:Source\azure_iot_sdk\c-utility\src/crt_abstractions.c ****             /* Add ullInteger to ullFraction. */
 561:Source\azure_iot_sdk\c-utility\src/crt_abstractions.c ****             ullFraction += (ullInteger * (unsigned long long)(pow(10, (double)fractionSize)));
 1535              		.loc 1 561 0
 1536 01b4 4046     		mov	r0, r8
 1537 01b6 FFF7FEFF 		bl	__aeabi_i2d
 1538              	.LVL201:
 1539 01ba 0200     		movs	r2, r0
 1540 01bc 0B00     		movs	r3, r1
 1541 01be 0020     		movs	r0, #0
ARM GAS  C:\Users\Phuong\AppData\Local\Temp\cceqeziA.s 			page 41


 1542 01c0 1E49     		ldr	r1, .L129
 1543 01c2 FFF7FEFF 		bl	pow
 1544              	.LVL202:
 1545 01c6 FFF7FEFF 		bl	__aeabi_d2ulz
 1546              	.LVL203:
 1547 01ca 0200     		movs	r2, r0
 1548 01cc 0B00     		movs	r3, r1
 1549 01ce 0398     		ldr	r0, [sp, #12]
 1550 01d0 0299     		ldr	r1, [sp, #8]
 1551 01d2 FFF7FEFF 		bl	__aeabi_lmul
 1552              	.LVL204:
 1553 01d6 8019     		adds	r0, r0, r6
 1554 01d8 7941     		adcs	r1, r1, r7
 1555              	.LVL205:
 562:Source\azure_iot_sdk\c-utility\src/crt_abstractions.c ****             (*fraction) = ((double)ullFraction / (pow(10.0f, (double)(fractionSize + integerSize - 
 1556              		.loc 1 562 0
 1557 01da FFF7FEFF 		bl	__aeabi_ul2d
 1558              	.LVL206:
 1559 01de 0600     		movs	r6, r0
 1560 01e0 0F00     		movs	r7, r1
 1561 01e2 4046     		mov	r0, r8
 1562 01e4 4844     		add	r0, r0, r9
 1563 01e6 0138     		subs	r0, r0, #1
 1564 01e8 FFF7FEFF 		bl	__aeabi_i2d
 1565              	.LVL207:
 1566 01ec 0200     		movs	r2, r0
 1567 01ee 0B00     		movs	r3, r1
 1568 01f0 0020     		movs	r0, #0
 1569 01f2 1249     		ldr	r1, .L129
 1570 01f4 FFF7FEFF 		bl	pow
 1571              	.LVL208:
 1572 01f8 0200     		movs	r2, r0
 1573 01fa 0B00     		movs	r3, r1
 1574 01fc 3000     		movs	r0, r6
 1575 01fe 3900     		movs	r1, r7
 1576 0200 FFF7FEFF 		bl	__aeabi_ddiv
 1577              	.LVL209:
 1578 0204 019B     		ldr	r3, [sp, #4]
 1579 0206 1860     		str	r0, [r3]
 1580 0208 5960     		str	r1, [r3, #4]
 563:Source\azure_iot_sdk\c-utility\src/crt_abstractions.c **** 
 564:Source\azure_iot_sdk\c-utility\src/crt_abstractions.c ****             /* Unify rest of integerSize and fractionSize in the exponential. */
 565:Source\azure_iot_sdk\c-utility\src/crt_abstractions.c ****             (*exponential) += integerSize - 1;
 1581              		.loc 1 565 0
 1582 020a 4B46     		mov	r3, r9
 1583 020c 013B     		subs	r3, r3, #1
 1584 020e 0C9A     		ldr	r2, [sp, #48]
 1585 0210 1268     		ldr	r2, [r2]
 1586 0212 0192     		str	r2, [sp, #4]
 1587              	.LVL210:
 1588 0214 9446     		mov	ip, r2
 1589 0216 6344     		add	r3, r3, ip
 1590 0218 0C9A     		ldr	r2, [sp, #48]
 1591 021a 1360     		str	r3, [r2]
 1592 021c 06E0     		b	.L102
 1593              	.LVL211:
 1594              	.L116:
ARM GAS  C:\Users\Phuong\AppData\Local\Temp\cceqeziA.s 			page 42


 512:Source\azure_iot_sdk\c-utility\src/crt_abstractions.c ****     }
 1595              		.loc 1 512 0
 1596 021e 0024     		movs	r4, #0
 1597 0220 04E0     		b	.L102
 1598              	.L117:
 518:Source\azure_iot_sdk\c-utility\src/crt_abstractions.c ****     }
 1599              		.loc 1 518 0
 1600 0222 0124     		movs	r4, #1
 1601 0224 02E0     		b	.L102
 1602              	.L120:
 478:Source\azure_iot_sdk\c-utility\src/crt_abstractions.c **** 
 1603              		.loc 1 478 0
 1604 0226 0424     		movs	r4, #4
 1605 0228 00E0     		b	.L102
 1606              	.L123:
 1607 022a 0424     		movs	r4, #4
 1608              	.LVL212:
 1609              	.L102:
 566:Source\azure_iot_sdk\c-utility\src/crt_abstractions.c ****         }
 567:Source\azure_iot_sdk\c-utility\src/crt_abstractions.c ****     }
 568:Source\azure_iot_sdk\c-utility\src/crt_abstractions.c **** 
 569:Source\azure_iot_sdk\c-utility\src/crt_abstractions.c ****     return result;
 570:Source\azure_iot_sdk\c-utility\src/crt_abstractions.c **** }
 1610              		.loc 1 570 0
 1611 022c 2000     		movs	r0, r4
 1612 022e 04B0     		add	sp, sp, #16
 1613              		@ sp needed
 1614              	.LVL213:
 1615              	.LVL214:
 1616 0230 1CBC     		pop	{r2, r3, r4}
 1617 0232 9046     		mov	r8, r2
 1618 0234 9946     		mov	r9, r3
 1619 0236 A246     		mov	r10, r4
 1620 0238 F0BD     		pop	{r4, r5, r6, r7, pc}
 1621              	.L130:
 1622 023a C046     		.align	2
 1623              	.L129:
 1624 023c 00002440 		.word	1076101120
 1625              		.cfi_endproc
 1626              	.LFE9:
 1627              		.size	splitFloatString, .-splitFloatString
 1628              		.global	__aeabi_i2f
 1629              		.global	__aeabi_fmul
 1630              		.global	__aeabi_dmul
 1631              		.global	__aeabi_dcmpge
 1632              		.global	__aeabi_dcmple
 1633              		.global	__aeabi_d2f
 1634              		.section	.text.strtof_s,"ax",%progbits
 1635              		.align	2
 1636              		.global	strtof_s
 1637              		.code	16
 1638              		.thumb_func
 1639              		.type	strtof_s, %function
 1640              	strtof_s:
 1641              	.LFB10:
 571:Source\azure_iot_sdk\c-utility\src/crt_abstractions.c **** 
 572:Source\azure_iot_sdk\c-utility\src/crt_abstractions.c **** /*Codes_SRS_CRT_ABSTRACTIONS_21_015: [The strtof_s must convert the initial portion of the string p
ARM GAS  C:\Users\Phuong\AppData\Local\Temp\cceqeziA.s 			page 43


 573:Source\azure_iot_sdk\c-utility\src/crt_abstractions.c **** /*Codes_SRS_CRT_ABSTRACTIONS_21_016: [The strtof_s must return the float that represents the value 
 574:Source\azure_iot_sdk\c-utility\src/crt_abstractions.c **** float strtof_s(const char* nptr, char** endptr)
 575:Source\azure_iot_sdk\c-utility\src/crt_abstractions.c **** {
 1642              		.loc 1 575 0
 1643              		.cfi_startproc
 1644              		@ args = 0, pretend = 0, frame = 24
 1645              		@ frame_needed = 0, uses_anonymous_args = 0
 1646              	.LVL215:
 1647 0000 F0B5     		push	{r4, r5, r6, r7, lr}
 1648              		.cfi_def_cfa_offset 20
 1649              		.cfi_offset 4, -20
 1650              		.cfi_offset 5, -16
 1651              		.cfi_offset 6, -12
 1652              		.cfi_offset 7, -8
 1653              		.cfi_offset 14, -4
 1654 0002 89B0     		sub	sp, sp, #36
 1655              		.cfi_def_cfa_offset 56
 1656 0004 0400     		movs	r4, r0
 1657 0006 0F00     		movs	r7, r1
 576:Source\azure_iot_sdk\c-utility\src/crt_abstractions.c ****     int signal = 1;
 1658              		.loc 1 576 0
 1659 0008 0123     		movs	r3, #1
 1660 000a 0793     		str	r3, [sp, #28]
 577:Source\azure_iot_sdk\c-utility\src/crt_abstractions.c ****     double fraction;
 578:Source\azure_iot_sdk\c-utility\src/crt_abstractions.c ****     int exponential;
 579:Source\azure_iot_sdk\c-utility\src/crt_abstractions.c ****     char* runner = (char*)nptr;
 1661              		.loc 1 579 0
 1662 000c 0290     		str	r0, [sp, #8]
 1663              	.LVL216:
 580:Source\azure_iot_sdk\c-utility\src/crt_abstractions.c ****     double val;
 581:Source\azure_iot_sdk\c-utility\src/crt_abstractions.c **** 
 582:Source\azure_iot_sdk\c-utility\src/crt_abstractions.c ****     /*Codes_SRS_CRT_ABSTRACTIONS_21_021: [If no conversion could be performed, the strtof_s returns
 583:Source\azure_iot_sdk\c-utility\src/crt_abstractions.c ****     float result = 0.0;
 584:Source\azure_iot_sdk\c-utility\src/crt_abstractions.c **** 
 585:Source\azure_iot_sdk\c-utility\src/crt_abstractions.c ****     /*Codes_SRS_CRT_ABSTRACTIONS_21_036: [**If the nptr is NULL, the strtof_s must not perform any 
 586:Source\azure_iot_sdk\c-utility\src/crt_abstractions.c ****     if (nptr != NULL)
 1664              		.loc 1 586 0
 1665 000e 0028     		cmp	r0, #0
 1666 0010 6AD0     		beq	.L141
 587:Source\azure_iot_sdk\c-utility\src/crt_abstractions.c ****     {
 588:Source\azure_iot_sdk\c-utility\src/crt_abstractions.c ****         switch (splitFloatString(nptr, &runner, &signal, &fraction, &exponential))
 1667              		.loc 1 588 0
 1668 0012 03AB     		add	r3, sp, #12
 1669 0014 0093     		str	r3, [sp]
 1670 0016 04AB     		add	r3, sp, #16
 1671 0018 07AA     		add	r2, sp, #28
 1672 001a 02A9     		add	r1, sp, #8
 1673              	.LVL217:
 1674 001c FFF7FEFF 		bl	splitFloatString
 1675              	.LVL218:
 1676 0020 0128     		cmp	r0, #1
 1677 0022 63D0     		beq	.L142
 1678 0024 0028     		cmp	r0, #0
 1679 0026 04D0     		beq	.L134
 1680 0028 0228     		cmp	r0, #2
 1681 002a 0FD0     		beq	.L135
 1682 002c 0328     		cmp	r0, #3
ARM GAS  C:\Users\Phuong\AppData\Local\Temp\cceqeziA.s 			page 44


 1683 002e 4BD0     		beq	.L136
 1684 0030 57E0     		b	.L145
 1685              	.L134:
 589:Source\azure_iot_sdk\c-utility\src/crt_abstractions.c ****         {
 590:Source\azure_iot_sdk\c-utility\src/crt_abstractions.c ****         case FST_INFINITY:
 591:Source\azure_iot_sdk\c-utility\src/crt_abstractions.c ****             /*Codes_SRS_CRT_ABSTRACTIONS_21_023: [If the string is 'INF' of 'INFINITY' (ignoring ca
 592:Source\azure_iot_sdk\c-utility\src/crt_abstractions.c ****             result = INFINITY * (signal);
 1686              		.loc 1 592 0
 1687 0032 0798     		ldr	r0, [sp, #28]
 1688 0034 FFF7FEFF 		bl	__aeabi_i2f
 1689              	.LVL219:
 1690 0038 FF21     		movs	r1, #255
 1691 003a C905     		lsls	r1, r1, #23
 1692 003c FFF7FEFF 		bl	__aeabi_fmul
 1693              	.LVL220:
 1694 0040 041C     		adds	r4, r0, #0
 1695              	.LVL221:
 593:Source\azure_iot_sdk\c-utility\src/crt_abstractions.c ****             errno = 0;
 1696              		.loc 1 593 0
 1697 0042 FFF7FEFF 		bl	__errno
 1698              	.LVL222:
 1699 0046 0023     		movs	r3, #0
 1700 0048 0360     		str	r3, [r0]
 594:Source\azure_iot_sdk\c-utility\src/crt_abstractions.c ****             break;
 1701              		.loc 1 594 0
 1702 004a 50E0     		b	.L132
 1703              	.LVL223:
 1704              	.L135:
 595:Source\azure_iot_sdk\c-utility\src/crt_abstractions.c ****         case FST_NAN:
 596:Source\azure_iot_sdk\c-utility\src/crt_abstractions.c ****             /*Codes_SRS_CRT_ABSTRACTIONS_21_024: [If the string is 'NAN' or 'NAN(...)' (ignoring ca
 597:Source\azure_iot_sdk\c-utility\src/crt_abstractions.c ****             result = NAN;
 598:Source\azure_iot_sdk\c-utility\src/crt_abstractions.c ****             break;
 599:Source\azure_iot_sdk\c-utility\src/crt_abstractions.c ****         case FST_NUMBER:
 600:Source\azure_iot_sdk\c-utility\src/crt_abstractions.c ****             val = fraction * pow(10.0, (double)exponential) * (double)signal;
 1705              		.loc 1 600 0
 1706 004c 0398     		ldr	r0, [sp, #12]
 1707 004e FFF7FEFF 		bl	__aeabi_i2d
 1708              	.LVL224:
 1709 0052 0200     		movs	r2, r0
 1710 0054 0B00     		movs	r3, r1
 1711 0056 0020     		movs	r0, #0
 1712 0058 2849     		ldr	r1, .L146
 1713 005a FFF7FEFF 		bl	pow
 1714              	.LVL225:
 1715 005e 049A     		ldr	r2, [sp, #16]
 1716 0060 059B     		ldr	r3, [sp, #20]
 1717 0062 FFF7FEFF 		bl	__aeabi_dmul
 1718              	.LVL226:
 1719 0066 0400     		movs	r4, r0
 1720              	.LVL227:
 1721 0068 0D00     		movs	r5, r1
 1722 006a 079E     		ldr	r6, [sp, #28]
 1723 006c 3000     		movs	r0, r6
 1724 006e FFF7FEFF 		bl	__aeabi_i2d
 1725              	.LVL228:
 1726 0072 0200     		movs	r2, r0
 1727 0074 0B00     		movs	r3, r1
ARM GAS  C:\Users\Phuong\AppData\Local\Temp\cceqeziA.s 			page 45


 1728 0076 2000     		movs	r0, r4
 1729 0078 2900     		movs	r1, r5
 1730 007a FFF7FEFF 		bl	__aeabi_dmul
 1731              	.LVL229:
 1732 007e 0400     		movs	r4, r0
 1733 0080 0D00     		movs	r5, r1
 1734              	.LVL230:
 601:Source\azure_iot_sdk\c-utility\src/crt_abstractions.c ****             if ((val >= (FLT_MAX * (-1))) && (val <= FLT_MAX))
 1735              		.loc 1 601 0
 1736 0082 E022     		movs	r2, #224
 1737 0084 1206     		lsls	r2, r2, #24
 1738 0086 1E4B     		ldr	r3, .L146+4
 1739 0088 FFF7FEFF 		bl	__aeabi_dcmpge
 1740              	.LVL231:
 1741 008c 0028     		cmp	r0, #0
 1742 008e 0ED0     		beq	.L137
 1743              		.loc 1 601 0 is_stmt 0 discriminator 1
 1744 0090 E022     		movs	r2, #224
 1745 0092 1206     		lsls	r2, r2, #24
 1746 0094 1B4B     		ldr	r3, .L146+8
 1747 0096 2000     		movs	r0, r4
 1748 0098 2900     		movs	r1, r5
 1749 009a FFF7FEFF 		bl	__aeabi_dcmple
 1750              	.LVL232:
 1751 009e 0028     		cmp	r0, #0
 1752 00a0 05D0     		beq	.L137
 602:Source\azure_iot_sdk\c-utility\src/crt_abstractions.c ****             {
 603:Source\azure_iot_sdk\c-utility\src/crt_abstractions.c ****                 /*Codes_SRS_CRT_ABSTRACTIONS_21_016: [The strtof_s must return the float that repre
 604:Source\azure_iot_sdk\c-utility\src/crt_abstractions.c ****                 result = (float)val;
 1753              		.loc 1 604 0 is_stmt 1
 1754 00a2 2000     		movs	r0, r4
 1755 00a4 2900     		movs	r1, r5
 1756 00a6 FFF7FEFF 		bl	__aeabi_d2f
 1757              	.LVL233:
 1758 00aa 041C     		adds	r4, r0, #0
 1759              	.LVL234:
 1760 00ac 1FE0     		b	.L132
 1761              	.LVL235:
 1762              	.L137:
 605:Source\azure_iot_sdk\c-utility\src/crt_abstractions.c ****             }
 606:Source\azure_iot_sdk\c-utility\src/crt_abstractions.c ****             else
 607:Source\azure_iot_sdk\c-utility\src/crt_abstractions.c ****             {
 608:Source\azure_iot_sdk\c-utility\src/crt_abstractions.c ****                 /*Codes_SRS_CRT_ABSTRACTIONS_21_022: [If the correct value is outside the range, th
 609:Source\azure_iot_sdk\c-utility\src/crt_abstractions.c ****                 result = HUGE_VALF * (signal);
 1763              		.loc 1 609 0
 1764 00ae 3000     		movs	r0, r6
 1765 00b0 FFF7FEFF 		bl	__aeabi_i2f
 1766              	.LVL236:
 1767 00b4 FF21     		movs	r1, #255
 1768 00b6 C905     		lsls	r1, r1, #23
 1769 00b8 FFF7FEFF 		bl	__aeabi_fmul
 1770              	.LVL237:
 1771 00bc 041C     		adds	r4, r0, #0
 1772              	.LVL238:
 610:Source\azure_iot_sdk\c-utility\src/crt_abstractions.c ****                 errno = ERANGE;
 1773              		.loc 1 610 0
 1774 00be FFF7FEFF 		bl	__errno
ARM GAS  C:\Users\Phuong\AppData\Local\Temp\cceqeziA.s 			page 46


 1775              	.LVL239:
 1776 00c2 2223     		movs	r3, #34
 1777 00c4 0360     		str	r3, [r0]
 1778 00c6 12E0     		b	.L132
 1779              	.LVL240:
 1780              	.L136:
 611:Source\azure_iot_sdk\c-utility\src/crt_abstractions.c ****             }
 612:Source\azure_iot_sdk\c-utility\src/crt_abstractions.c ****             break;
 613:Source\azure_iot_sdk\c-utility\src/crt_abstractions.c ****         case FST_OVERFLOW:
 614:Source\azure_iot_sdk\c-utility\src/crt_abstractions.c ****             /*Codes_SRS_CRT_ABSTRACTIONS_21_022: [If the correct value is outside the range, the st
 615:Source\azure_iot_sdk\c-utility\src/crt_abstractions.c ****             result = HUGE_VALF * (signal);
 1781              		.loc 1 615 0
 1782 00c8 0798     		ldr	r0, [sp, #28]
 1783 00ca FFF7FEFF 		bl	__aeabi_i2f
 1784              	.LVL241:
 1785 00ce FF21     		movs	r1, #255
 1786 00d0 C905     		lsls	r1, r1, #23
 1787 00d2 FFF7FEFF 		bl	__aeabi_fmul
 1788              	.LVL242:
 1789 00d6 041C     		adds	r4, r0, #0
 1790              	.LVL243:
 616:Source\azure_iot_sdk\c-utility\src/crt_abstractions.c ****             errno = ERANGE;
 1791              		.loc 1 616 0
 1792 00d8 FFF7FEFF 		bl	__errno
 1793              	.LVL244:
 1794 00dc 2223     		movs	r3, #34
 1795 00de 0360     		str	r3, [r0]
 617:Source\azure_iot_sdk\c-utility\src/crt_abstractions.c ****             break;
 1796              		.loc 1 617 0
 1797 00e0 05E0     		b	.L132
 1798              	.LVL245:
 1799              	.L145:
 618:Source\azure_iot_sdk\c-utility\src/crt_abstractions.c ****         default:
 619:Source\azure_iot_sdk\c-utility\src/crt_abstractions.c ****             /*Codes_SRS_CRT_ABSTRACTIONS_21_020: [If the subject sequence is empty or does not have
 620:Source\azure_iot_sdk\c-utility\src/crt_abstractions.c ****             runner = (char*)nptr;
 1800              		.loc 1 620 0
 1801 00e2 0294     		str	r4, [sp, #8]
 583:Source\azure_iot_sdk\c-utility\src/crt_abstractions.c **** 
 1802              		.loc 1 583 0
 1803 00e4 0024     		movs	r4, #0
 1804              	.LVL246:
 621:Source\azure_iot_sdk\c-utility\src/crt_abstractions.c ****             break;
 1805              		.loc 1 621 0
 1806 00e6 02E0     		b	.L132
 1807              	.LVL247:
 1808              	.L141:
 583:Source\azure_iot_sdk\c-utility\src/crt_abstractions.c **** 
 1809              		.loc 1 583 0
 1810 00e8 0024     		movs	r4, #0
 1811 00ea 00E0     		b	.L132
 1812              	.LVL248:
 1813              	.L142:
 597:Source\azure_iot_sdk\c-utility\src/crt_abstractions.c ****             break;
 1814              		.loc 1 597 0
 1815 00ec 064C     		ldr	r4, .L146+12
 1816              	.LVL249:
 1817              	.L132:
ARM GAS  C:\Users\Phuong\AppData\Local\Temp\cceqeziA.s 			page 47


 622:Source\azure_iot_sdk\c-utility\src/crt_abstractions.c ****         }
 623:Source\azure_iot_sdk\c-utility\src/crt_abstractions.c ****     }
 624:Source\azure_iot_sdk\c-utility\src/crt_abstractions.c **** 
 625:Source\azure_iot_sdk\c-utility\src/crt_abstractions.c ****     /*Codes_SRS_CRT_ABSTRACTIONS_21_017: [The strtof_s must return in endptr a final string of one 
 626:Source\azure_iot_sdk\c-utility\src/crt_abstractions.c ****     if (endptr != NULL)
 1818              		.loc 1 626 0
 1819 00ee 002F     		cmp	r7, #0
 1820 00f0 01D0     		beq	.L140
 627:Source\azure_iot_sdk\c-utility\src/crt_abstractions.c ****     {
 628:Source\azure_iot_sdk\c-utility\src/crt_abstractions.c ****         (*endptr) = runner;
 1821              		.loc 1 628 0
 1822 00f2 029B     		ldr	r3, [sp, #8]
 1823 00f4 3B60     		str	r3, [r7]
 1824              	.L140:
 629:Source\azure_iot_sdk\c-utility\src/crt_abstractions.c ****     }
 630:Source\azure_iot_sdk\c-utility\src/crt_abstractions.c **** 
 631:Source\azure_iot_sdk\c-utility\src/crt_abstractions.c ****     return result;
 632:Source\azure_iot_sdk\c-utility\src/crt_abstractions.c **** }
 1825              		.loc 1 632 0
 1826 00f6 201C     		adds	r0, r4, #0
 1827 00f8 09B0     		add	sp, sp, #36
 1828              		@ sp needed
 1829              	.LVL250:
 1830              	.LVL251:
 1831 00fa F0BD     		pop	{r4, r5, r6, r7, pc}
 1832              	.L147:
 1833              		.align	2
 1834              	.L146:
 1835 00fc 00002440 		.word	1076101120
 1836 0100 FFFFEFC7 		.word	-940572673
 1837 0104 FFFFEF47 		.word	1206910975
 1838 0108 0000C07F 		.word	2143289344
 1839              		.cfi_endproc
 1840              	.LFE10:
 1841              		.size	strtof_s, .-strtof_s
 1842              		.global	__aeabi_f2d
 1843              		.section	.text.strtold_s,"ax",%progbits
 1844              		.align	2
 1845              		.global	strtold_s
 1846              		.code	16
 1847              		.thumb_func
 1848              		.type	strtold_s, %function
 1849              	strtold_s:
 1850              	.LFB11:
 633:Source\azure_iot_sdk\c-utility\src/crt_abstractions.c **** 
 634:Source\azure_iot_sdk\c-utility\src/crt_abstractions.c **** /*Codes_SRS_CRT_ABSTRACTIONS_21_025: [The strtold_s must convert the initial portion of the string 
 635:Source\azure_iot_sdk\c-utility\src/crt_abstractions.c **** /*Codes_SRS_CRT_ABSTRACTIONS_21_026: [The strtold_s must return the long double that represents the
 636:Source\azure_iot_sdk\c-utility\src/crt_abstractions.c **** long double strtold_s(const char* nptr, char** endptr)
 637:Source\azure_iot_sdk\c-utility\src/crt_abstractions.c **** {
 1851              		.loc 1 637 0
 1852              		.cfi_startproc
 1853              		@ args = 0, pretend = 0, frame = 24
 1854              		@ frame_needed = 0, uses_anonymous_args = 0
 1855              	.LVL252:
 1856 0000 F0B5     		push	{r4, r5, r6, r7, lr}
 1857              		.cfi_def_cfa_offset 20
 1858              		.cfi_offset 4, -20
ARM GAS  C:\Users\Phuong\AppData\Local\Temp\cceqeziA.s 			page 48


 1859              		.cfi_offset 5, -16
 1860              		.cfi_offset 6, -12
 1861              		.cfi_offset 7, -8
 1862              		.cfi_offset 14, -4
 1863 0002 89B0     		sub	sp, sp, #36
 1864              		.cfi_def_cfa_offset 56
 1865 0004 0400     		movs	r4, r0
 1866 0006 0D00     		movs	r5, r1
 638:Source\azure_iot_sdk\c-utility\src/crt_abstractions.c ****     int signal = 1;
 1867              		.loc 1 638 0
 1868 0008 0123     		movs	r3, #1
 1869 000a 0793     		str	r3, [sp, #28]
 639:Source\azure_iot_sdk\c-utility\src/crt_abstractions.c ****     double fraction;
 640:Source\azure_iot_sdk\c-utility\src/crt_abstractions.c ****     int exponential;
 641:Source\azure_iot_sdk\c-utility\src/crt_abstractions.c ****     char* runner = (char*)nptr;
 1870              		.loc 1 641 0
 1871 000c 0290     		str	r0, [sp, #8]
 1872              	.LVL253:
 642:Source\azure_iot_sdk\c-utility\src/crt_abstractions.c **** 
 643:Source\azure_iot_sdk\c-utility\src/crt_abstractions.c ****     /*Codes_SRS_CRT_ABSTRACTIONS_21_031: [If no conversion could be performed, the strtold_s return
 644:Source\azure_iot_sdk\c-utility\src/crt_abstractions.c ****     long double result = 0.0;
 645:Source\azure_iot_sdk\c-utility\src/crt_abstractions.c **** 
 646:Source\azure_iot_sdk\c-utility\src/crt_abstractions.c ****     /*Codes_SRS_CRT_ABSTRACTIONS_21_037: [If the nptr is NULL, the strtold_s must not perform any c
 647:Source\azure_iot_sdk\c-utility\src/crt_abstractions.c ****     if (nptr != NULL)
 1873              		.loc 1 647 0
 1874 000e 0028     		cmp	r0, #0
 1875 0010 76D0     		beq	.L160
 648:Source\azure_iot_sdk\c-utility\src/crt_abstractions.c ****     {
 649:Source\azure_iot_sdk\c-utility\src/crt_abstractions.c ****         switch (splitFloatString(nptr, &runner, &signal, &fraction, &exponential))
 1876              		.loc 1 649 0
 1877 0012 03AB     		add	r3, sp, #12
 1878 0014 0093     		str	r3, [sp]
 1879 0016 04AB     		add	r3, sp, #16
 1880 0018 07AA     		add	r2, sp, #28
 1881 001a 02A9     		add	r1, sp, #8
 1882              	.LVL254:
 1883 001c FFF7FEFF 		bl	splitFloatString
 1884              	.LVL255:
 1885 0020 0128     		cmp	r0, #1
 1886 0022 70D0     		beq	.L161
 1887 0024 0028     		cmp	r0, #0
 1888 0026 04D0     		beq	.L151
 1889 0028 0228     		cmp	r0, #2
 1890 002a 12D0     		beq	.L152
 1891 002c 0328     		cmp	r0, #3
 1892 002e 53D0     		beq	.L153
 1893 0030 62E0     		b	.L162
 1894              	.L151:
 650:Source\azure_iot_sdk\c-utility\src/crt_abstractions.c ****         {
 651:Source\azure_iot_sdk\c-utility\src/crt_abstractions.c ****         case FST_INFINITY:
 652:Source\azure_iot_sdk\c-utility\src/crt_abstractions.c ****             /*Codes_SRS_CRT_ABSTRACTIONS_21_033: [If the string is 'INF' of 'INFINITY' (ignoring ca
 653:Source\azure_iot_sdk\c-utility\src/crt_abstractions.c ****             result = INFINITY * (signal);
 1895              		.loc 1 653 0
 1896 0032 0798     		ldr	r0, [sp, #28]
 1897 0034 FFF7FEFF 		bl	__aeabi_i2f
 1898              	.LVL256:
 1899 0038 FF21     		movs	r1, #255
ARM GAS  C:\Users\Phuong\AppData\Local\Temp\cceqeziA.s 			page 49


 1900 003a C905     		lsls	r1, r1, #23
 1901 003c FFF7FEFF 		bl	__aeabi_fmul
 1902              	.LVL257:
 1903 0040 FFF7FEFF 		bl	__aeabi_f2d
 1904              	.LVL258:
 1905 0044 0600     		movs	r6, r0
 1906 0046 0F00     		movs	r7, r1
 1907              	.LVL259:
 654:Source\azure_iot_sdk\c-utility\src/crt_abstractions.c ****             errno = 0;
 1908              		.loc 1 654 0
 1909 0048 FFF7FEFF 		bl	__errno
 1910              	.LVL260:
 1911 004c 0023     		movs	r3, #0
 1912 004e 0360     		str	r3, [r0]
 655:Source\azure_iot_sdk\c-utility\src/crt_abstractions.c ****             break;
 1913              		.loc 1 655 0
 1914 0050 5BE0     		b	.L149
 1915              	.LVL261:
 1916              	.L152:
 656:Source\azure_iot_sdk\c-utility\src/crt_abstractions.c ****         case FST_NAN:
 657:Source\azure_iot_sdk\c-utility\src/crt_abstractions.c ****             /*Codes_SRS_CRT_ABSTRACTIONS_21_034: [If the string is 'NAN' or 'NAN(...)' (ignoring ca
 658:Source\azure_iot_sdk\c-utility\src/crt_abstractions.c ****             result = NAN;
 659:Source\azure_iot_sdk\c-utility\src/crt_abstractions.c ****             break;
 660:Source\azure_iot_sdk\c-utility\src/crt_abstractions.c ****         case FST_NUMBER:
 661:Source\azure_iot_sdk\c-utility\src/crt_abstractions.c ****             if ((exponential != DBL_MAX_10_EXP || (fraction <= 1.7976931348623158)) &&
 1917              		.loc 1 661 0
 1918 0052 039C     		ldr	r4, [sp, #12]
 1919              	.LVL262:
 1920 0054 9A23     		movs	r3, #154
 1921 0056 5B00     		lsls	r3, r3, #1
 1922 0058 9C42     		cmp	r4, r3
 1923 005a 07D1     		bne	.L154
 1924              		.loc 1 661 0 is_stmt 0 discriminator 2
 1925 005c 2F4A     		ldr	r2, .L163
 1926 005e 304B     		ldr	r3, .L163+4
 1927 0060 0498     		ldr	r0, [sp, #16]
 1928 0062 0599     		ldr	r1, [sp, #20]
 1929 0064 FFF7FEFF 		bl	__aeabi_dcmple
 1930              	.LVL263:
 1931 0068 0028     		cmp	r0, #0
 1932 006a 25D0     		beq	.L155
 1933              	.L154:
 1934              		.loc 1 661 0 discriminator 3
 1935 006c 2D4B     		ldr	r3, .L163+8
 1936 006e 9C42     		cmp	r4, r3
 1937 0070 07D1     		bne	.L157
 662:Source\azure_iot_sdk\c-utility\src/crt_abstractions.c ****                 (exponential != (DBL_MAX_10_EXP * (-1)) || (fraction <= 2.2250738585072014)))
 1938              		.loc 1 662 0 is_stmt 1
 1939 0072 2D4A     		ldr	r2, .L163+12
 1940 0074 2D4B     		ldr	r3, .L163+16
 1941 0076 0498     		ldr	r0, [sp, #16]
 1942 0078 0599     		ldr	r1, [sp, #20]
 1943 007a FFF7FEFF 		bl	__aeabi_dcmple
 1944              	.LVL264:
 1945 007e 0028     		cmp	r0, #0
 1946 0080 1AD0     		beq	.L155
 1947              	.L157:
ARM GAS  C:\Users\Phuong\AppData\Local\Temp\cceqeziA.s 			page 50


 663:Source\azure_iot_sdk\c-utility\src/crt_abstractions.c ****             {
 664:Source\azure_iot_sdk\c-utility\src/crt_abstractions.c ****                 /*Codes_SRS_CRT_ABSTRACTIONS_21_026: [The strtold_s must return the long double tha
 665:Source\azure_iot_sdk\c-utility\src/crt_abstractions.c ****                 result = fraction * pow(10.0, (double)exponential) * (double)signal;
 1948              		.loc 1 665 0
 1949 0082 2000     		movs	r0, r4
 1950 0084 FFF7FEFF 		bl	__aeabi_i2d
 1951              	.LVL265:
 1952 0088 0200     		movs	r2, r0
 1953 008a 0B00     		movs	r3, r1
 1954 008c 0020     		movs	r0, #0
 1955 008e 2849     		ldr	r1, .L163+20
 1956 0090 FFF7FEFF 		bl	pow
 1957              	.LVL266:
 1958 0094 049A     		ldr	r2, [sp, #16]
 1959 0096 059B     		ldr	r3, [sp, #20]
 1960 0098 FFF7FEFF 		bl	__aeabi_dmul
 1961              	.LVL267:
 1962 009c 0600     		movs	r6, r0
 1963 009e 0F00     		movs	r7, r1
 1964 00a0 0798     		ldr	r0, [sp, #28]
 1965 00a2 FFF7FEFF 		bl	__aeabi_i2d
 1966              	.LVL268:
 1967 00a6 0200     		movs	r2, r0
 1968 00a8 0B00     		movs	r3, r1
 1969 00aa 3000     		movs	r0, r6
 1970 00ac 3900     		movs	r1, r7
 1971 00ae FFF7FEFF 		bl	__aeabi_dmul
 1972              	.LVL269:
 1973 00b2 0600     		movs	r6, r0
 1974 00b4 0F00     		movs	r7, r1
 1975              	.LVL270:
 1976 00b6 28E0     		b	.L149
 1977              	.LVL271:
 1978              	.L155:
 666:Source\azure_iot_sdk\c-utility\src/crt_abstractions.c ****             }
 667:Source\azure_iot_sdk\c-utility\src/crt_abstractions.c ****             else
 668:Source\azure_iot_sdk\c-utility\src/crt_abstractions.c ****             {
 669:Source\azure_iot_sdk\c-utility\src/crt_abstractions.c ****                 /*Codes_SRS_CRT_ABSTRACTIONS_21_032: [If the correct value is outside the range, th
 670:Source\azure_iot_sdk\c-utility\src/crt_abstractions.c ****                 result = HUGE_VALF * (signal);
 1979              		.loc 1 670 0
 1980 00b8 0798     		ldr	r0, [sp, #28]
 1981 00ba FFF7FEFF 		bl	__aeabi_i2f
 1982              	.LVL272:
 1983 00be FF21     		movs	r1, #255
 1984 00c0 C905     		lsls	r1, r1, #23
 1985 00c2 FFF7FEFF 		bl	__aeabi_fmul
 1986              	.LVL273:
 1987 00c6 FFF7FEFF 		bl	__aeabi_f2d
 1988              	.LVL274:
 1989 00ca 0600     		movs	r6, r0
 1990 00cc 0F00     		movs	r7, r1
 1991              	.LVL275:
 671:Source\azure_iot_sdk\c-utility\src/crt_abstractions.c ****                 errno = ERANGE;
 1992              		.loc 1 671 0
 1993 00ce FFF7FEFF 		bl	__errno
 1994              	.LVL276:
 1995 00d2 2223     		movs	r3, #34
ARM GAS  C:\Users\Phuong\AppData\Local\Temp\cceqeziA.s 			page 51


 1996 00d4 0360     		str	r3, [r0]
 1997 00d6 18E0     		b	.L149
 1998              	.LVL277:
 1999              	.L153:
 672:Source\azure_iot_sdk\c-utility\src/crt_abstractions.c ****             }
 673:Source\azure_iot_sdk\c-utility\src/crt_abstractions.c ****             break;
 674:Source\azure_iot_sdk\c-utility\src/crt_abstractions.c ****         case FST_OVERFLOW:
 675:Source\azure_iot_sdk\c-utility\src/crt_abstractions.c ****             /*Codes_SRS_CRT_ABSTRACTIONS_21_032: [If the correct value is outside the range, the st
 676:Source\azure_iot_sdk\c-utility\src/crt_abstractions.c ****             result = HUGE_VALF * (signal);
 2000              		.loc 1 676 0
 2001 00d8 0798     		ldr	r0, [sp, #28]
 2002 00da FFF7FEFF 		bl	__aeabi_i2f
 2003              	.LVL278:
 2004 00de FF21     		movs	r1, #255
 2005 00e0 C905     		lsls	r1, r1, #23
 2006 00e2 FFF7FEFF 		bl	__aeabi_fmul
 2007              	.LVL279:
 2008 00e6 FFF7FEFF 		bl	__aeabi_f2d
 2009              	.LVL280:
 2010 00ea 0600     		movs	r6, r0
 2011 00ec 0F00     		movs	r7, r1
 2012              	.LVL281:
 677:Source\azure_iot_sdk\c-utility\src/crt_abstractions.c ****             errno = ERANGE;
 2013              		.loc 1 677 0
 2014 00ee FFF7FEFF 		bl	__errno
 2015              	.LVL282:
 2016 00f2 2223     		movs	r3, #34
 2017 00f4 0360     		str	r3, [r0]
 678:Source\azure_iot_sdk\c-utility\src/crt_abstractions.c ****             break;
 2018              		.loc 1 678 0
 2019 00f6 08E0     		b	.L149
 2020              	.LVL283:
 2021              	.L162:
 679:Source\azure_iot_sdk\c-utility\src/crt_abstractions.c ****         default:
 680:Source\azure_iot_sdk\c-utility\src/crt_abstractions.c ****             /*Codes_SRS_CRT_ABSTRACTIONS_21_030: [If the subject sequence is empty or does not have
 681:Source\azure_iot_sdk\c-utility\src/crt_abstractions.c ****             runner = (char*)nptr;
 2022              		.loc 1 681 0
 2023 00f8 0294     		str	r4, [sp, #8]
 644:Source\azure_iot_sdk\c-utility\src/crt_abstractions.c **** 
 2024              		.loc 1 644 0
 2025 00fa 0026     		movs	r6, #0
 2026 00fc 0027     		movs	r7, #0
 682:Source\azure_iot_sdk\c-utility\src/crt_abstractions.c ****             break;
 2027              		.loc 1 682 0
 2028 00fe 04E0     		b	.L149
 2029              	.LVL284:
 2030              	.L160:
 644:Source\azure_iot_sdk\c-utility\src/crt_abstractions.c **** 
 2031              		.loc 1 644 0
 2032 0100 0026     		movs	r6, #0
 2033 0102 0027     		movs	r7, #0
 2034 0104 01E0     		b	.L149
 2035              	.LVL285:
 2036              	.L161:
 658:Source\azure_iot_sdk\c-utility\src/crt_abstractions.c ****             break;
 2037              		.loc 1 658 0
 2038 0106 0026     		movs	r6, #0
ARM GAS  C:\Users\Phuong\AppData\Local\Temp\cceqeziA.s 			page 52


 2039 0108 0A4F     		ldr	r7, .L163+24
 2040              	.LVL286:
 2041              	.L149:
 683:Source\azure_iot_sdk\c-utility\src/crt_abstractions.c ****         }
 684:Source\azure_iot_sdk\c-utility\src/crt_abstractions.c ****     }
 685:Source\azure_iot_sdk\c-utility\src/crt_abstractions.c **** 
 686:Source\azure_iot_sdk\c-utility\src/crt_abstractions.c ****     /*Codes_SRS_CRT_ABSTRACTIONS_21_027: [The strtold_s must return in endptr a final string of one
 687:Source\azure_iot_sdk\c-utility\src/crt_abstractions.c ****     if (endptr != NULL)
 2042              		.loc 1 687 0
 2043 010a 002D     		cmp	r5, #0
 2044 010c 01D0     		beq	.L159
 688:Source\azure_iot_sdk\c-utility\src/crt_abstractions.c ****     {
 689:Source\azure_iot_sdk\c-utility\src/crt_abstractions.c ****         (*endptr) = runner;
 2045              		.loc 1 689 0
 2046 010e 029B     		ldr	r3, [sp, #8]
 2047 0110 2B60     		str	r3, [r5]
 2048              	.L159:
 690:Source\azure_iot_sdk\c-utility\src/crt_abstractions.c ****     }
 691:Source\azure_iot_sdk\c-utility\src/crt_abstractions.c **** 
 692:Source\azure_iot_sdk\c-utility\src/crt_abstractions.c ****     return result;
 693:Source\azure_iot_sdk\c-utility\src/crt_abstractions.c **** }
 2049              		.loc 1 693 0
 2050 0112 3000     		movs	r0, r6
 2051 0114 3900     		movs	r1, r7
 2052 0116 09B0     		add	sp, sp, #36
 2053              		@ sp needed
 2054              	.LVL287:
 2055              	.LVL288:
 2056 0118 F0BD     		pop	{r4, r5, r6, r7, pc}
 2057              	.L164:
 2058 011a C046     		.align	2
 2059              	.L163:
 2060 011c 48A367E0 		.word	-530078904
 2061 0120 59C3FC3F 		.word	1073529689
 2062 0124 CCFEFFFF 		.word	-308
 2063 0128 A0C8EB85 		.word	-2048145248
 2064 012c F3CC0140 		.word	1073859827
 2065 0130 00002440 		.word	1076101120
 2066 0134 0000F87F 		.word	2146959360
 2067              		.cfi_endproc
 2068              	.LFE11:
 2069              		.size	strtold_s, .-strtold_s
 2070              		.section	.text.mallocAndStrcpy_s,"ax",%progbits
 2071              		.align	2
 2072              		.global	mallocAndStrcpy_s
 2073              		.code	16
 2074              		.thumb_func
 2075              		.type	mallocAndStrcpy_s, %function
 2076              	mallocAndStrcpy_s:
 2077              	.LFB12:
 694:Source\azure_iot_sdk\c-utility\src/crt_abstractions.c **** 
 695:Source\azure_iot_sdk\c-utility\src/crt_abstractions.c **** 
 696:Source\azure_iot_sdk\c-utility\src/crt_abstractions.c **** /*Codes_SRS_CRT_ABSTRACTIONS_99_038: [mallocAndstrcpy_s shall allocate memory for destination buffe
 697:Source\azure_iot_sdk\c-utility\src/crt_abstractions.c **** int mallocAndStrcpy_s(char** destination, const char* source)
 698:Source\azure_iot_sdk\c-utility\src/crt_abstractions.c **** {
 2078              		.loc 1 698 0
 2079              		.cfi_startproc
ARM GAS  C:\Users\Phuong\AppData\Local\Temp\cceqeziA.s 			page 53


 2080              		@ args = 0, pretend = 0, frame = 0
 2081              		@ frame_needed = 0, uses_anonymous_args = 0
 2082              	.LVL289:
 2083 0000 70B5     		push	{r4, r5, r6, lr}
 2084              		.cfi_def_cfa_offset 16
 2085              		.cfi_offset 4, -16
 2086              		.cfi_offset 5, -12
 2087              		.cfi_offset 6, -8
 2088              		.cfi_offset 14, -4
 2089 0002 0500     		movs	r5, r0
 2090 0004 0C00     		movs	r4, r1
 699:Source\azure_iot_sdk\c-utility\src/crt_abstractions.c ****     int result;
 700:Source\azure_iot_sdk\c-utility\src/crt_abstractions.c ****     int copied_result;
 701:Source\azure_iot_sdk\c-utility\src/crt_abstractions.c ****     /*Codes_SRS_CRT_ABSTRACTIONS_99_036: [destination parameter or source parameter is NULL, the er
 702:Source\azure_iot_sdk\c-utility\src/crt_abstractions.c ****     if ((destination == NULL) || (source == NULL))
 2091              		.loc 1 702 0
 2092 0006 0028     		cmp	r0, #0
 2093 0008 17D0     		beq	.L167
 2094              		.loc 1 702 0 is_stmt 0 discriminator 1
 2095 000a 0029     		cmp	r1, #0
 2096 000c 17D0     		beq	.L168
 2097              	.LBB11:
 703:Source\azure_iot_sdk\c-utility\src/crt_abstractions.c ****     {
 704:Source\azure_iot_sdk\c-utility\src/crt_abstractions.c ****         /*If strDestination or strSource is a NULL pointer[...]these functions return EINVAL */
 705:Source\azure_iot_sdk\c-utility\src/crt_abstractions.c ****         result = EINVAL;
 706:Source\azure_iot_sdk\c-utility\src/crt_abstractions.c ****     }
 707:Source\azure_iot_sdk\c-utility\src/crt_abstractions.c ****     else
 708:Source\azure_iot_sdk\c-utility\src/crt_abstractions.c ****     {
 709:Source\azure_iot_sdk\c-utility\src/crt_abstractions.c ****         size_t l = strlen(source);
 2098              		.loc 1 709 0 is_stmt 1
 2099 000e 0800     		movs	r0, r1
 2100              	.LVL290:
 2101 0010 FFF7FEFF 		bl	strlen
 2102              	.LVL291:
 710:Source\azure_iot_sdk\c-utility\src/crt_abstractions.c ****         char* temp = (char*)malloc(l + 1);
 2103              		.loc 1 710 0
 2104 0014 461C     		adds	r6, r0, #1
 2105 0016 3000     		movs	r0, r6
 2106              	.LVL292:
 2107 0018 FFF7FEFF 		bl	malloc
 2108              	.LVL293:
 711:Source\azure_iot_sdk\c-utility\src/crt_abstractions.c **** 
 712:Source\azure_iot_sdk\c-utility\src/crt_abstractions.c ****         /*Codes_SRS_CRT_ABSTRACTIONS_99_037: [Upon failure to allocate memory for the destination, 
 713:Source\azure_iot_sdk\c-utility\src/crt_abstractions.c ****         if (temp == NULL)
 2109              		.loc 1 713 0
 2110 001c 0028     		cmp	r0, #0
 2111 001e 10D0     		beq	.L169
 714:Source\azure_iot_sdk\c-utility\src/crt_abstractions.c ****         {
 715:Source\azure_iot_sdk\c-utility\src/crt_abstractions.c ****             result = ENOMEM;
 716:Source\azure_iot_sdk\c-utility\src/crt_abstractions.c ****         }
 717:Source\azure_iot_sdk\c-utility\src/crt_abstractions.c ****         else
 718:Source\azure_iot_sdk\c-utility\src/crt_abstractions.c ****         {
 719:Source\azure_iot_sdk\c-utility\src/crt_abstractions.c ****             *destination = temp;
 2112              		.loc 1 719 0
 2113 0020 2860     		str	r0, [r5]
 720:Source\azure_iot_sdk\c-utility\src/crt_abstractions.c ****             /*Codes_SRS_CRT_ABSTRACTIONS_99_039: [mallocAndstrcpy_s shall copy the contents in the 
 721:Source\azure_iot_sdk\c-utility\src/crt_abstractions.c ****             copied_result = strcpy_s(*destination, l + 1, source);
ARM GAS  C:\Users\Phuong\AppData\Local\Temp\cceqeziA.s 			page 54


 2114              		.loc 1 721 0
 2115 0022 2200     		movs	r2, r4
 2116 0024 3100     		movs	r1, r6
 2117 0026 FFF7FEFF 		bl	strcpy_s
 2118              	.LVL294:
 2119 002a 041E     		subs	r4, r0, #0
 2120              	.LVL295:
 722:Source\azure_iot_sdk\c-utility\src/crt_abstractions.c ****             if (copied_result < 0) /*strcpy_s error*/
 2121              		.loc 1 722 0
 2122 002c 0BDA     		bge	.L170
 723:Source\azure_iot_sdk\c-utility\src/crt_abstractions.c ****             {
 724:Source\azure_iot_sdk\c-utility\src/crt_abstractions.c ****                 free(*destination);
 2123              		.loc 1 724 0
 2124 002e 2868     		ldr	r0, [r5]
 2125              	.LVL296:
 2126 0030 FFF7FEFF 		bl	free
 2127              	.LVL297:
 725:Source\azure_iot_sdk\c-utility\src/crt_abstractions.c ****                 *destination = NULL;
 2128              		.loc 1 725 0
 2129 0034 0023     		movs	r3, #0
 2130 0036 2B60     		str	r3, [r5]
 2131              	.LVL298:
 2132 0038 06E0     		b	.L166
 2133              	.LVL299:
 2134              	.L167:
 2135              	.LBE11:
 705:Source\azure_iot_sdk\c-utility\src/crt_abstractions.c ****     }
 2136              		.loc 1 705 0
 2137 003a 1624     		movs	r4, #22
 2138 003c 04E0     		b	.L166
 2139              	.L168:
 2140 003e 1624     		movs	r4, #22
 2141 0040 02E0     		b	.L166
 2142              	.LVL300:
 2143              	.L169:
 2144              	.LBB12:
 715:Source\azure_iot_sdk\c-utility\src/crt_abstractions.c ****         }
 2145              		.loc 1 715 0
 2146 0042 0C24     		movs	r4, #12
 2147              	.LVL301:
 2148 0044 00E0     		b	.L166
 2149              	.LVL302:
 2150              	.L170:
 726:Source\azure_iot_sdk\c-utility\src/crt_abstractions.c ****                 result = copied_result;
 727:Source\azure_iot_sdk\c-utility\src/crt_abstractions.c ****             }
 728:Source\azure_iot_sdk\c-utility\src/crt_abstractions.c ****             else
 729:Source\azure_iot_sdk\c-utility\src/crt_abstractions.c ****             {
 730:Source\azure_iot_sdk\c-utility\src/crt_abstractions.c ****                 /*Codes_SRS_CRT_ABSTRACTIONS_99_035: [mallocAndstrcpy_s shall return Zero upon succ
 731:Source\azure_iot_sdk\c-utility\src/crt_abstractions.c ****                 result = 0;
 2151              		.loc 1 731 0
 2152 0046 0024     		movs	r4, #0
 2153              	.LVL303:
 2154              	.L166:
 2155              	.LBE12:
 732:Source\azure_iot_sdk\c-utility\src/crt_abstractions.c ****             }
 733:Source\azure_iot_sdk\c-utility\src/crt_abstractions.c ****         }
 734:Source\azure_iot_sdk\c-utility\src/crt_abstractions.c ****     }
ARM GAS  C:\Users\Phuong\AppData\Local\Temp\cceqeziA.s 			page 55


 735:Source\azure_iot_sdk\c-utility\src/crt_abstractions.c ****     return result;
 736:Source\azure_iot_sdk\c-utility\src/crt_abstractions.c **** }
 2156              		.loc 1 736 0
 2157 0048 2000     		movs	r0, r4
 2158              		@ sp needed
 2159              	.LVL304:
 2160              	.LVL305:
 2161 004a 70BD     		pop	{r4, r5, r6, pc}
 2162              		.cfi_endproc
 2163              	.LFE12:
 2164              		.size	mallocAndStrcpy_s, .-mallocAndStrcpy_s
 2165              		.global	__aeabi_uidivmod
 2166              		.global	__aeabi_uidiv
 2167              		.section	.text.unsignedIntToString,"ax",%progbits
 2168              		.align	2
 2169              		.global	unsignedIntToString
 2170              		.code	16
 2171              		.thumb_func
 2172              		.type	unsignedIntToString, %function
 2173              	unsignedIntToString:
 2174              	.LFB13:
 737:Source\azure_iot_sdk\c-utility\src/crt_abstractions.c **** 
 738:Source\azure_iot_sdk\c-utility\src/crt_abstractions.c **** /*takes "value" and transforms it into a decimal string*/
 739:Source\azure_iot_sdk\c-utility\src/crt_abstractions.c **** /*10 => "10"*/
 740:Source\azure_iot_sdk\c-utility\src/crt_abstractions.c **** /*return 0 when everything went ok*/
 741:Source\azure_iot_sdk\c-utility\src/crt_abstractions.c **** /*Codes_SRS_CRT_ABSTRACTIONS_02_001: [unsignedIntToString shall convert the parameter value to its 
 742:Source\azure_iot_sdk\c-utility\src/crt_abstractions.c **** int unsignedIntToString(char* destination, size_t destinationSize, unsigned int value)
 743:Source\azure_iot_sdk\c-utility\src/crt_abstractions.c **** {
 2175              		.loc 1 743 0
 2176              		.cfi_startproc
 2177              		@ args = 0, pretend = 0, frame = 0
 2178              		@ frame_needed = 0, uses_anonymous_args = 0
 2179              	.LVL306:
 2180 0000 F8B5     		push	{r3, r4, r5, r6, r7, lr}
 2181              		.cfi_def_cfa_offset 24
 2182              		.cfi_offset 3, -24
 2183              		.cfi_offset 4, -20
 2184              		.cfi_offset 5, -16
 2185              		.cfi_offset 6, -12
 2186              		.cfi_offset 7, -8
 2187              		.cfi_offset 14, -4
 2188 0002 4F46     		mov	r7, r9
 2189 0004 4646     		mov	r6, r8
 2190 0006 C0B4     		push	{r6, r7}
 2191              		.cfi_def_cfa_offset 32
 2192              		.cfi_offset 8, -32
 2193              		.cfi_offset 9, -28
 2194 0008 8046     		mov	r8, r0
 2195 000a 8946     		mov	r9, r1
 2196 000c 1400     		movs	r4, r2
 744:Source\azure_iot_sdk\c-utility\src/crt_abstractions.c ****     int result;
 745:Source\azure_iot_sdk\c-utility\src/crt_abstractions.c ****     size_t pos;
 746:Source\azure_iot_sdk\c-utility\src/crt_abstractions.c ****     /*the below loop gets the number in reverse order*/
 747:Source\azure_iot_sdk\c-utility\src/crt_abstractions.c ****     /*Codes_SRS_CRT_ABSTRACTIONS_02_003: [If destination is NULL then unsignedIntToString shall fai
 748:Source\azure_iot_sdk\c-utility\src/crt_abstractions.c ****     /*Codes_SRS_CRT_ABSTRACTIONS_02_002: [If the conversion fails for any reason (for example, insu
 749:Source\azure_iot_sdk\c-utility\src/crt_abstractions.c ****     if (
 2197              		.loc 1 749 0
ARM GAS  C:\Users\Phuong\AppData\Local\Temp\cceqeziA.s 			page 56


 2198 000e 0028     		cmp	r0, #0
 2199 0010 2DD0     		beq	.L177
 750:Source\azure_iot_sdk\c-utility\src/crt_abstractions.c ****         (destination == NULL) ||
 2200              		.loc 1 750 0
 2201 0012 0129     		cmp	r1, #1
 2202 0014 2DD9     		bls	.L178
 2203 0016 0026     		movs	r6, #0
 2204 0018 00E0     		b	.L174
 2205              	.LVL307:
 2206              	.L179:
 751:Source\azure_iot_sdk\c-utility\src/crt_abstractions.c ****         (destinationSize < 2) /*because the smallest number is '0\0' which requires 2 characters*/
 752:Source\azure_iot_sdk\c-utility\src/crt_abstractions.c ****         )
 753:Source\azure_iot_sdk\c-utility\src/crt_abstractions.c ****     {
 754:Source\azure_iot_sdk\c-utility\src/crt_abstractions.c ****         result = __FAILURE__;
 755:Source\azure_iot_sdk\c-utility\src/crt_abstractions.c ****     }
 756:Source\azure_iot_sdk\c-utility\src/crt_abstractions.c ****     else
 757:Source\azure_iot_sdk\c-utility\src/crt_abstractions.c ****     {
 758:Source\azure_iot_sdk\c-utility\src/crt_abstractions.c ****         pos = 0;
 759:Source\azure_iot_sdk\c-utility\src/crt_abstractions.c ****         do
 760:Source\azure_iot_sdk\c-utility\src/crt_abstractions.c ****         {
 761:Source\azure_iot_sdk\c-utility\src/crt_abstractions.c ****             destination[pos++] = '0' + (value % 10);
 2207              		.loc 1 761 0
 2208 001a 3E00     		movs	r6, r7
 2209              	.LVL308:
 2210              	.L174:
 2211              		.loc 1 761 0 is_stmt 0 discriminator 2
 2212 001c 771C     		adds	r7, r6, #1
 2213              	.LVL309:
 2214 001e 4346     		mov	r3, r8
 2215 0020 9D19     		adds	r5, r3, r6
 2216 0022 0A21     		movs	r1, #10
 2217 0024 2000     		movs	r0, r4
 2218 0026 FFF7FEFF 		bl	__aeabi_uidivmod
 2219              	.LVL310:
 2220 002a 3031     		adds	r1, r1, #48
 2221 002c 2970     		strb	r1, [r5]
 762:Source\azure_iot_sdk\c-utility\src/crt_abstractions.c ****             value /= 10;
 2222              		.loc 1 762 0 is_stmt 1 discriminator 2
 2223 002e 0A21     		movs	r1, #10
 2224 0030 2000     		movs	r0, r4
 2225 0032 FFF7FEFF 		bl	__aeabi_uidiv
 2226              	.LVL311:
 2227 0036 041E     		subs	r4, r0, #0
 2228              	.LVL312:
 763:Source\azure_iot_sdk\c-utility\src/crt_abstractions.c ****         } while ((value > 0) && (pos < (destinationSize-1)));
 2229              		.loc 1 763 0 discriminator 2
 2230 0038 03D0     		beq	.L173
 2231              		.loc 1 763 0 is_stmt 0 discriminator 1
 2232 003a 4B46     		mov	r3, r9
 2233 003c 013B     		subs	r3, r3, #1
 2234 003e 9F42     		cmp	r7, r3
 2235 0040 EBD3     		bcc	.L179
 2236              	.L173:
 764:Source\azure_iot_sdk\c-utility\src/crt_abstractions.c **** 
 765:Source\azure_iot_sdk\c-utility\src/crt_abstractions.c ****         if (value == 0)
 2237              		.loc 1 765 0 is_stmt 1
 2238 0042 002C     		cmp	r4, #0
ARM GAS  C:\Users\Phuong\AppData\Local\Temp\cceqeziA.s 			page 57


 2239 0044 17D1     		bne	.L180
 2240              	.LBB13:
 766:Source\azure_iot_sdk\c-utility\src/crt_abstractions.c ****         {
 767:Source\azure_iot_sdk\c-utility\src/crt_abstractions.c ****             size_t w;
 768:Source\azure_iot_sdk\c-utility\src/crt_abstractions.c ****             destination[pos] = '\0';
 2241              		.loc 1 768 0
 2242 0046 4346     		mov	r3, r8
 2243 0048 DB19     		adds	r3, r3, r7
 2244 004a 0022     		movs	r2, #0
 2245 004c 1A70     		strb	r2, [r3]
 2246              	.LVL313:
 769:Source\azure_iot_sdk\c-utility\src/crt_abstractions.c ****             /*all converted and they fit*/
 770:Source\azure_iot_sdk\c-utility\src/crt_abstractions.c ****             for (w = 0; w <= (pos-1) >> 1; w++)
 2247              		.loc 1 770 0
 2248 004e 09E0     		b	.L175
 2249              	.LVL314:
 2250              	.L176:
 2251              	.LBB14:
 771:Source\azure_iot_sdk\c-utility\src/crt_abstractions.c ****             {
 772:Source\azure_iot_sdk\c-utility\src/crt_abstractions.c ****                 char temp;
 773:Source\azure_iot_sdk\c-utility\src/crt_abstractions.c ****                 temp = destination[w];
 2252              		.loc 1 773 0 discriminator 3
 2253 0050 4346     		mov	r3, r8
 2254 0052 9918     		adds	r1, r3, r2
 2255 0054 0878     		ldrb	r0, [r1]
 2256              	.LVL315:
 774:Source\azure_iot_sdk\c-utility\src/crt_abstractions.c ****                 destination[w] = destination[pos - 1 - w];
 2257              		.loc 1 774 0 discriminator 3
 2258 0056 BB1A     		subs	r3, r7, r2
 2259 0058 013B     		subs	r3, r3, #1
 2260 005a 4344     		add	r3, r3, r8
 2261 005c 1C78     		ldrb	r4, [r3]
 2262 005e 0C70     		strb	r4, [r1]
 775:Source\azure_iot_sdk\c-utility\src/crt_abstractions.c ****                 destination[pos -1 - w] = temp;
 2263              		.loc 1 775 0 discriminator 3
 2264 0060 1870     		strb	r0, [r3]
 2265              	.LBE14:
 770:Source\azure_iot_sdk\c-utility\src/crt_abstractions.c ****             {
 2266              		.loc 1 770 0 discriminator 3
 2267 0062 0132     		adds	r2, r2, #1
 2268              	.LVL316:
 2269              	.L175:
 770:Source\azure_iot_sdk\c-utility\src/crt_abstractions.c ****             {
 2270              		.loc 1 770 0 is_stmt 0 discriminator 1
 2271 0064 7308     		lsrs	r3, r6, #1
 2272 0066 9A42     		cmp	r2, r3
 2273 0068 F2D9     		bls	.L176
 776:Source\azure_iot_sdk\c-utility\src/crt_abstractions.c ****             }
 777:Source\azure_iot_sdk\c-utility\src/crt_abstractions.c ****             /*Codes_SRS_CRT_ABSTRACTIONS_02_004: [If the conversion has been successfull then unsig
 778:Source\azure_iot_sdk\c-utility\src/crt_abstractions.c ****             result = 0;
 2274              		.loc 1 778 0 is_stmt 1
 2275 006a 0020     		movs	r0, #0
 2276 006c 04E0     		b	.L172
 2277              	.LVL317:
 2278              	.L177:
 2279              	.LBE13:
 754:Source\azure_iot_sdk\c-utility\src/crt_abstractions.c ****     }
ARM GAS  C:\Users\Phuong\AppData\Local\Temp\cceqeziA.s 			page 58


 2280              		.loc 1 754 0
 2281 006e 0448     		ldr	r0, .L181
 2282              	.LVL318:
 2283 0070 02E0     		b	.L172
 2284              	.LVL319:
 2285              	.L178:
 2286 0072 0348     		ldr	r0, .L181
 2287              	.LVL320:
 2288 0074 00E0     		b	.L172
 2289              	.LVL321:
 2290              	.L180:
 779:Source\azure_iot_sdk\c-utility\src/crt_abstractions.c ****         }
 780:Source\azure_iot_sdk\c-utility\src/crt_abstractions.c ****         else
 781:Source\azure_iot_sdk\c-utility\src/crt_abstractions.c ****         {
 782:Source\azure_iot_sdk\c-utility\src/crt_abstractions.c ****             /*Codes_SRS_CRT_ABSTRACTIONS_02_002: [If the conversion fails for any reason (for examp
 783:Source\azure_iot_sdk\c-utility\src/crt_abstractions.c ****             result = __FAILURE__;
 2291              		.loc 1 783 0
 2292 0076 0348     		ldr	r0, .L181+4
 2293              	.LVL322:
 2294              	.L172:
 784:Source\azure_iot_sdk\c-utility\src/crt_abstractions.c ****         }
 785:Source\azure_iot_sdk\c-utility\src/crt_abstractions.c ****     }
 786:Source\azure_iot_sdk\c-utility\src/crt_abstractions.c ****     return result;
 787:Source\azure_iot_sdk\c-utility\src/crt_abstractions.c **** }
 2295              		.loc 1 787 0
 2296              		@ sp needed
 2297              	.LVL323:
 2298              	.LVL324:
 2299 0078 0CBC     		pop	{r2, r3}
 2300 007a 9046     		mov	r8, r2
 2301 007c 9946     		mov	r9, r3
 2302 007e F8BD     		pop	{r3, r4, r5, r6, r7, pc}
 2303              	.L182:
 2304              		.align	2
 2305              	.L181:
 2306 0080 F2020000 		.word	754
 2307 0084 0F030000 		.word	783
 2308              		.cfi_endproc
 2309              	.LFE13:
 2310              		.size	unsignedIntToString, .-unsignedIntToString
 2311              		.section	.text.size_tToString,"ax",%progbits
 2312              		.align	2
 2313              		.global	size_tToString
 2314              		.code	16
 2315              		.thumb_func
 2316              		.type	size_tToString, %function
 2317              	size_tToString:
 2318              	.LFB14:
 788:Source\azure_iot_sdk\c-utility\src/crt_abstractions.c **** 
 789:Source\azure_iot_sdk\c-utility\src/crt_abstractions.c **** /*takes "value" and transforms it into a decimal string*/
 790:Source\azure_iot_sdk\c-utility\src/crt_abstractions.c **** /*10 => "10"*/
 791:Source\azure_iot_sdk\c-utility\src/crt_abstractions.c **** /*return 0 when everything went ok*/
 792:Source\azure_iot_sdk\c-utility\src/crt_abstractions.c **** /*Codes_SRS_CRT_ABSTRACTIONS_02_001: [unsignedIntToString shall convert the parameter value to its 
 793:Source\azure_iot_sdk\c-utility\src/crt_abstractions.c **** int size_tToString(char* destination, size_t destinationSize, size_t value)
 794:Source\azure_iot_sdk\c-utility\src/crt_abstractions.c **** {
 2319              		.loc 1 794 0
 2320              		.cfi_startproc
ARM GAS  C:\Users\Phuong\AppData\Local\Temp\cceqeziA.s 			page 59


 2321              		@ args = 0, pretend = 0, frame = 0
 2322              		@ frame_needed = 0, uses_anonymous_args = 0
 2323              	.LVL325:
 2324 0000 F8B5     		push	{r3, r4, r5, r6, r7, lr}
 2325              		.cfi_def_cfa_offset 24
 2326              		.cfi_offset 3, -24
 2327              		.cfi_offset 4, -20
 2328              		.cfi_offset 5, -16
 2329              		.cfi_offset 6, -12
 2330              		.cfi_offset 7, -8
 2331              		.cfi_offset 14, -4
 2332 0002 4F46     		mov	r7, r9
 2333 0004 4646     		mov	r6, r8
 2334 0006 C0B4     		push	{r6, r7}
 2335              		.cfi_def_cfa_offset 32
 2336              		.cfi_offset 8, -32
 2337              		.cfi_offset 9, -28
 2338 0008 8046     		mov	r8, r0
 2339 000a 8946     		mov	r9, r1
 2340 000c 1400     		movs	r4, r2
 795:Source\azure_iot_sdk\c-utility\src/crt_abstractions.c ****     int result;
 796:Source\azure_iot_sdk\c-utility\src/crt_abstractions.c ****     size_t pos;
 797:Source\azure_iot_sdk\c-utility\src/crt_abstractions.c ****     /*the below loop gets the number in reverse order*/
 798:Source\azure_iot_sdk\c-utility\src/crt_abstractions.c ****     /*Codes_SRS_CRT_ABSTRACTIONS_02_003: [If destination is NULL then unsignedIntToString shall fai
 799:Source\azure_iot_sdk\c-utility\src/crt_abstractions.c ****     /*Codes_SRS_CRT_ABSTRACTIONS_02_002: [If the conversion fails for any reason (for example, insu
 800:Source\azure_iot_sdk\c-utility\src/crt_abstractions.c ****     if (
 2341              		.loc 1 800 0
 2342 000e 0028     		cmp	r0, #0
 2343 0010 2DD0     		beq	.L189
 801:Source\azure_iot_sdk\c-utility\src/crt_abstractions.c ****         (destination == NULL) ||
 2344              		.loc 1 801 0
 2345 0012 0129     		cmp	r1, #1
 2346 0014 2DD9     		bls	.L190
 2347 0016 0026     		movs	r6, #0
 2348 0018 00E0     		b	.L186
 2349              	.LVL326:
 2350              	.L191:
 802:Source\azure_iot_sdk\c-utility\src/crt_abstractions.c ****         (destinationSize < 2) /*because the smallest number is '0\0' which requires 2 characters*/
 803:Source\azure_iot_sdk\c-utility\src/crt_abstractions.c ****         )
 804:Source\azure_iot_sdk\c-utility\src/crt_abstractions.c ****     {
 805:Source\azure_iot_sdk\c-utility\src/crt_abstractions.c ****         result = __FAILURE__;
 806:Source\azure_iot_sdk\c-utility\src/crt_abstractions.c ****     }
 807:Source\azure_iot_sdk\c-utility\src/crt_abstractions.c ****     else
 808:Source\azure_iot_sdk\c-utility\src/crt_abstractions.c ****     {
 809:Source\azure_iot_sdk\c-utility\src/crt_abstractions.c ****         pos = 0;
 810:Source\azure_iot_sdk\c-utility\src/crt_abstractions.c ****         do
 811:Source\azure_iot_sdk\c-utility\src/crt_abstractions.c ****         {
 812:Source\azure_iot_sdk\c-utility\src/crt_abstractions.c ****             destination[pos++] = '0' + (value % 10);
 2351              		.loc 1 812 0
 2352 001a 3E00     		movs	r6, r7
 2353              	.LVL327:
 2354              	.L186:
 2355              		.loc 1 812 0 is_stmt 0 discriminator 2
 2356 001c 771C     		adds	r7, r6, #1
 2357              	.LVL328:
 2358 001e 4346     		mov	r3, r8
 2359 0020 9D19     		adds	r5, r3, r6
ARM GAS  C:\Users\Phuong\AppData\Local\Temp\cceqeziA.s 			page 60


 2360 0022 0A21     		movs	r1, #10
 2361 0024 2000     		movs	r0, r4
 2362 0026 FFF7FEFF 		bl	__aeabi_uidivmod
 2363              	.LVL329:
 2364 002a 3031     		adds	r1, r1, #48
 2365 002c 2970     		strb	r1, [r5]
 813:Source\azure_iot_sdk\c-utility\src/crt_abstractions.c ****             value /= 10;
 2366              		.loc 1 813 0 is_stmt 1 discriminator 2
 2367 002e 0A21     		movs	r1, #10
 2368 0030 2000     		movs	r0, r4
 2369 0032 FFF7FEFF 		bl	__aeabi_uidiv
 2370              	.LVL330:
 2371 0036 041E     		subs	r4, r0, #0
 2372              	.LVL331:
 814:Source\azure_iot_sdk\c-utility\src/crt_abstractions.c ****         } while ((value > 0) && (pos < (destinationSize - 1)));
 2373              		.loc 1 814 0 discriminator 2
 2374 0038 03D0     		beq	.L185
 2375              		.loc 1 814 0 is_stmt 0 discriminator 1
 2376 003a 4B46     		mov	r3, r9
 2377 003c 013B     		subs	r3, r3, #1
 2378 003e 9F42     		cmp	r7, r3
 2379 0040 EBD3     		bcc	.L191
 2380              	.L185:
 815:Source\azure_iot_sdk\c-utility\src/crt_abstractions.c **** 
 816:Source\azure_iot_sdk\c-utility\src/crt_abstractions.c ****         if (value == 0)
 2381              		.loc 1 816 0 is_stmt 1
 2382 0042 002C     		cmp	r4, #0
 2383 0044 17D1     		bne	.L192
 2384              	.LBB15:
 817:Source\azure_iot_sdk\c-utility\src/crt_abstractions.c ****         {
 818:Source\azure_iot_sdk\c-utility\src/crt_abstractions.c ****             size_t w;
 819:Source\azure_iot_sdk\c-utility\src/crt_abstractions.c ****             destination[pos] = '\0';
 2385              		.loc 1 819 0
 2386 0046 4346     		mov	r3, r8
 2387 0048 DB19     		adds	r3, r3, r7
 2388 004a 0022     		movs	r2, #0
 2389 004c 1A70     		strb	r2, [r3]
 2390              	.LVL332:
 820:Source\azure_iot_sdk\c-utility\src/crt_abstractions.c ****             /*all converted and they fit*/
 821:Source\azure_iot_sdk\c-utility\src/crt_abstractions.c ****             for (w = 0; w <= (pos - 1) >> 1; w++)
 2391              		.loc 1 821 0
 2392 004e 09E0     		b	.L187
 2393              	.LVL333:
 2394              	.L188:
 2395              	.LBB16:
 822:Source\azure_iot_sdk\c-utility\src/crt_abstractions.c ****             {
 823:Source\azure_iot_sdk\c-utility\src/crt_abstractions.c ****                 char temp;
 824:Source\azure_iot_sdk\c-utility\src/crt_abstractions.c ****                 temp = destination[w];
 2396              		.loc 1 824 0 discriminator 3
 2397 0050 4346     		mov	r3, r8
 2398 0052 9918     		adds	r1, r3, r2
 2399 0054 0878     		ldrb	r0, [r1]
 2400              	.LVL334:
 825:Source\azure_iot_sdk\c-utility\src/crt_abstractions.c ****                 destination[w] = destination[pos - 1 - w];
 2401              		.loc 1 825 0 discriminator 3
 2402 0056 BB1A     		subs	r3, r7, r2
 2403 0058 013B     		subs	r3, r3, #1
ARM GAS  C:\Users\Phuong\AppData\Local\Temp\cceqeziA.s 			page 61


 2404 005a 4344     		add	r3, r3, r8
 2405 005c 1C78     		ldrb	r4, [r3]
 2406 005e 0C70     		strb	r4, [r1]
 826:Source\azure_iot_sdk\c-utility\src/crt_abstractions.c ****                 destination[pos - 1 - w] = temp;
 2407              		.loc 1 826 0 discriminator 3
 2408 0060 1870     		strb	r0, [r3]
 2409              	.LBE16:
 821:Source\azure_iot_sdk\c-utility\src/crt_abstractions.c ****             {
 2410              		.loc 1 821 0 discriminator 3
 2411 0062 0132     		adds	r2, r2, #1
 2412              	.LVL335:
 2413              	.L187:
 821:Source\azure_iot_sdk\c-utility\src/crt_abstractions.c ****             {
 2414              		.loc 1 821 0 is_stmt 0 discriminator 1
 2415 0064 7308     		lsrs	r3, r6, #1
 2416 0066 9A42     		cmp	r2, r3
 2417 0068 F2D9     		bls	.L188
 827:Source\azure_iot_sdk\c-utility\src/crt_abstractions.c ****             }
 828:Source\azure_iot_sdk\c-utility\src/crt_abstractions.c ****             /*Codes_SRS_CRT_ABSTRACTIONS_02_004: [If the conversion has been successfull then unsig
 829:Source\azure_iot_sdk\c-utility\src/crt_abstractions.c ****             result = 0;
 2418              		.loc 1 829 0 is_stmt 1
 2419 006a 0020     		movs	r0, #0
 2420 006c 04E0     		b	.L184
 2421              	.LVL336:
 2422              	.L189:
 2423              	.LBE15:
 805:Source\azure_iot_sdk\c-utility\src/crt_abstractions.c ****     }
 2424              		.loc 1 805 0
 2425 006e 0448     		ldr	r0, .L193
 2426              	.LVL337:
 2427 0070 02E0     		b	.L184
 2428              	.LVL338:
 2429              	.L190:
 2430 0072 0348     		ldr	r0, .L193
 2431              	.LVL339:
 2432 0074 00E0     		b	.L184
 2433              	.LVL340:
 2434              	.L192:
 830:Source\azure_iot_sdk\c-utility\src/crt_abstractions.c ****         }
 831:Source\azure_iot_sdk\c-utility\src/crt_abstractions.c ****         else
 832:Source\azure_iot_sdk\c-utility\src/crt_abstractions.c ****         {
 833:Source\azure_iot_sdk\c-utility\src/crt_abstractions.c ****             /*Codes_SRS_CRT_ABSTRACTIONS_02_002: [If the conversion fails for any reason (for examp
 834:Source\azure_iot_sdk\c-utility\src/crt_abstractions.c ****             result = __FAILURE__;
 2435              		.loc 1 834 0
 2436 0076 0348     		ldr	r0, .L193+4
 2437              	.LVL341:
 2438              	.L184:
 835:Source\azure_iot_sdk\c-utility\src/crt_abstractions.c ****         }
 836:Source\azure_iot_sdk\c-utility\src/crt_abstractions.c ****     }
 837:Source\azure_iot_sdk\c-utility\src/crt_abstractions.c ****     return result;
 838:Source\azure_iot_sdk\c-utility\src/crt_abstractions.c **** }
 2439              		.loc 1 838 0
 2440              		@ sp needed
 2441              	.LVL342:
 2442              	.LVL343:
 2443 0078 0CBC     		pop	{r2, r3}
 2444 007a 9046     		mov	r8, r2
ARM GAS  C:\Users\Phuong\AppData\Local\Temp\cceqeziA.s 			page 62


 2445 007c 9946     		mov	r9, r3
 2446 007e F8BD     		pop	{r3, r4, r5, r6, r7, pc}
 2447              	.L194:
 2448              		.align	2
 2449              	.L193:
 2450 0080 25030000 		.word	805
 2451 0084 42030000 		.word	834
 2452              		.cfi_endproc
 2453              	.LFE14:
 2454              		.size	size_tToString, .-size_tToString
 2455              		.section	.rodata.str1.4,"aMS",%progbits,1
 2456              		.align	2
 2457              	.LC0:
 2458 0000 494E4600 		.ascii	"INF\000"
 2459              	.LC2:
 2460 0004 494E4954 		.ascii	"INITY\000"
 2460      5900
 2461 000a 0000     		.space	2
 2462              	.LC4:
 2463 000c 4E414E00 		.ascii	"NAN\000"
 2464              		.text
 2465              	.Letext0:
 2466              		.file 2 "c:\\program files (x86)\\cypress\\psoc creator\\4.2\\psoc creator\\import\\gnu\\arm\\5.4.
 2467              		.file 3 "c:\\program files (x86)\\cypress\\psoc creator\\4.2\\psoc creator\\import\\gnu\\arm\\5.4.
 2468              		.file 4 "c:\\program files (x86)\\cypress\\psoc creator\\4.2\\psoc creator\\import\\gnu\\arm\\5.4.
 2469              		.file 5 "c:\\program files (x86)\\cypress\\psoc creator\\4.2\\psoc creator\\import\\gnu\\arm\\5.4.
 2470              		.file 6 "c:\\program files (x86)\\cypress\\psoc creator\\4.2\\psoc creator\\import\\gnu\\arm\\5.4.
 2471              		.file 7 "c:\\program files (x86)\\cypress\\psoc creator\\4.2\\psoc creator\\import\\gnu\\arm\\5.4.
 2472              		.file 8 "<built-in>"
 2473              		.file 9 "c:\\program files (x86)\\cypress\\psoc creator\\4.2\\psoc creator\\import\\gnu\\arm\\5.4.