ARM GAS  C:\Users\Phuong\AppData\Local\Temp\cceqeziA.s 			page 1


   1              		.syntax unified
   2              		.cpu cortex-m0plus
   3              		.fpu softvfp
   4              		.eabi_attribute 20, 1
   5              		.eabi_attribute 21, 1
   6              		.eabi_attribute 23, 3
   7              		.eabi_attribute 24, 1
   8              		.eabi_attribute 25, 1
   9              		.eabi_attribute 26, 1
  10              		.eabi_attribute 30, 1
  11              		.eabi_attribute 34, 0
  12              		.eabi_attribute 18, 4
  13              		.thumb
  14              		.syntax unified
  15              		.file	"crt_abstractions.c"
  16              		.text
  17              	.Ltext0:
  18              		.cfi_sections	.debug_frame
  19              		.section	.text.substricmp,"ax",%progbits
  20              		.align	2
  21              		.code	16
  22              		.thumb_func
  23              		.type	substricmp, %function
  24              	substricmp:
  25              	.LFB6:
  26              		.file 1 "Source\\azure_iot_sdk\\c-utility\\src\\crt_abstractions.c"
   1:Source\azure_iot_sdk\c-utility\src/crt_abstractions.c **** // Copyright (c) Microsoft. All rights reserved.
   2:Source\azure_iot_sdk\c-utility\src/crt_abstractions.c **** // Licensed under the MIT license. See LICENSE file in the project root for full license informatio
   3:Source\azure_iot_sdk\c-utility\src/crt_abstractions.c **** 
   4:Source\azure_iot_sdk\c-utility\src/crt_abstractions.c **** #define __STDC_WANT_LIB_EXT1__ 1
   5:Source\azure_iot_sdk\c-utility\src/crt_abstractions.c **** 
   6:Source\azure_iot_sdk\c-utility\src/crt_abstractions.c **** #include <stdlib.h>
   7:Source\azure_iot_sdk\c-utility\src/crt_abstractions.c **** #include <stddef.h>
   8:Source\azure_iot_sdk\c-utility\src/crt_abstractions.c **** #include <stdarg.h>
   9:Source\azure_iot_sdk\c-utility\src/crt_abstractions.c **** #include <string.h>
  10:Source\azure_iot_sdk\c-utility\src/crt_abstractions.c **** #include <limits.h>
  11:Source\azure_iot_sdk\c-utility\src/crt_abstractions.c **** #include <float.h>
  12:Source\azure_iot_sdk\c-utility\src/crt_abstractions.c **** #include <math.h>
  13:Source\azure_iot_sdk\c-utility\src/crt_abstractions.c **** #include <errno.h>
  14:Source\azure_iot_sdk\c-utility\src/crt_abstractions.c **** #include "azure_c_shared_utility/gballoc.h"
  15:Source\azure_iot_sdk\c-utility\src/crt_abstractions.c **** #include "azure_c_shared_utility/optimize_size.h"
  16:Source\azure_iot_sdk\c-utility\src/crt_abstractions.c **** #include "azure_c_shared_utility/crt_abstractions.h"
  17:Source\azure_iot_sdk\c-utility\src/crt_abstractions.c **** 
  18:Source\azure_iot_sdk\c-utility\src/crt_abstractions.c **** // VS 2008 does not have INFINITY and all the nice goodies...
  19:Source\azure_iot_sdk\c-utility\src/crt_abstractions.c **** #if defined (TIZENRT) || defined (WINCE)
  20:Source\azure_iot_sdk\c-utility\src/crt_abstractions.c **** #define DEFINE_INFINITY 1
  21:Source\azure_iot_sdk\c-utility\src/crt_abstractions.c **** #else
  22:Source\azure_iot_sdk\c-utility\src/crt_abstractions.c **** 
  23:Source\azure_iot_sdk\c-utility\src/crt_abstractions.c **** #if defined _MSC_VER
  24:Source\azure_iot_sdk\c-utility\src/crt_abstractions.c **** #if _MSC_VER <= 1500
  25:Source\azure_iot_sdk\c-utility\src/crt_abstractions.c **** #define DEFINE_INFINITY 1
  26:Source\azure_iot_sdk\c-utility\src/crt_abstractions.c **** #endif
  27:Source\azure_iot_sdk\c-utility\src/crt_abstractions.c **** #endif
  28:Source\azure_iot_sdk\c-utility\src/crt_abstractions.c **** #endif
  29:Source\azure_iot_sdk\c-utility\src/crt_abstractions.c **** 
  30:Source\azure_iot_sdk\c-utility\src/crt_abstractions.c **** #if defined DEFINE_INFINITY
  31:Source\azure_iot_sdk\c-utility\src/crt_abstractions.c **** 
ARM GAS  C:\Users\Phuong\AppData\Local\Temp\cceqeziA.s 			page 2


  32:Source\azure_iot_sdk\c-utility\src/crt_abstractions.c **** #pragma warning(disable:4756 4056) // warning C4756: overflow in constant arithmetic
  33:Source\azure_iot_sdk\c-utility\src/crt_abstractions.c **** 
  34:Source\azure_iot_sdk\c-utility\src/crt_abstractions.c **** // These defines are missing in math.h for WEC2013 SDK
  35:Source\azure_iot_sdk\c-utility\src/crt_abstractions.c **** #ifndef _HUGE_ENUF
  36:Source\azure_iot_sdk\c-utility\src/crt_abstractions.c **** #define _HUGE_ENUF  1e+300  // _HUGE_ENUF*_HUGE_ENUF must overflow
  37:Source\azure_iot_sdk\c-utility\src/crt_abstractions.c **** #endif
  38:Source\azure_iot_sdk\c-utility\src/crt_abstractions.c **** 
  39:Source\azure_iot_sdk\c-utility\src/crt_abstractions.c **** #define INFINITY   ((float)(_HUGE_ENUF * _HUGE_ENUF))
  40:Source\azure_iot_sdk\c-utility\src/crt_abstractions.c **** #define HUGE_VALF  ((float)INFINITY)
  41:Source\azure_iot_sdk\c-utility\src/crt_abstractions.c **** #define HUGE_VALL  ((long double)INFINITY)
  42:Source\azure_iot_sdk\c-utility\src/crt_abstractions.c **** #define NAN        ((float)(INFINITY * 0.0F))
  43:Source\azure_iot_sdk\c-utility\src/crt_abstractions.c **** #endif
  44:Source\azure_iot_sdk\c-utility\src/crt_abstractions.c **** 
  45:Source\azure_iot_sdk\c-utility\src/crt_abstractions.c **** #if defined (_MSC_VER) || defined (MINGW_HAS_SECURE_API)
  46:Source\azure_iot_sdk\c-utility\src/crt_abstractions.c **** #else
  47:Source\azure_iot_sdk\c-utility\src/crt_abstractions.c **** 
  48:Source\azure_iot_sdk\c-utility\src/crt_abstractions.c **** /*Codes_SRS_CRT_ABSTRACTIONS_99_008: [strcat_s shall append the src to dst and terminates the resul
  49:Source\azure_iot_sdk\c-utility\src/crt_abstractions.c **** int strcat_s(char* dst, size_t dstSizeInBytes, const char* src)
  50:Source\azure_iot_sdk\c-utility\src/crt_abstractions.c **** {
  51:Source\azure_iot_sdk\c-utility\src/crt_abstractions.c ****     int result;
  52:Source\azure_iot_sdk\c-utility\src/crt_abstractions.c ****     /*Codes_SRS_CRT_ABSTRACTIONS_99_004: [If dst is NULL or unterminated, the error code returned s
  53:Source\azure_iot_sdk\c-utility\src/crt_abstractions.c ****     if (dst == NULL)
  54:Source\azure_iot_sdk\c-utility\src/crt_abstractions.c ****     {
  55:Source\azure_iot_sdk\c-utility\src/crt_abstractions.c ****         result = EINVAL;
  56:Source\azure_iot_sdk\c-utility\src/crt_abstractions.c ****     }
  57:Source\azure_iot_sdk\c-utility\src/crt_abstractions.c ****     /*Codes_SRS_CRT_ABSTRACTIONS_99_005: [If src is NULL, the error code returned shall be EINVAL a
  58:Source\azure_iot_sdk\c-utility\src/crt_abstractions.c ****     else if (src == NULL)
  59:Source\azure_iot_sdk\c-utility\src/crt_abstractions.c ****     {
  60:Source\azure_iot_sdk\c-utility\src/crt_abstractions.c ****         dst[0] = '\0';
  61:Source\azure_iot_sdk\c-utility\src/crt_abstractions.c ****         result = EINVAL;
  62:Source\azure_iot_sdk\c-utility\src/crt_abstractions.c ****     }
  63:Source\azure_iot_sdk\c-utility\src/crt_abstractions.c ****     else
  64:Source\azure_iot_sdk\c-utility\src/crt_abstractions.c ****     {
  65:Source\azure_iot_sdk\c-utility\src/crt_abstractions.c ****         /*Codes_SRS_CRT_ABSTRACTIONS_99_006: [If the dstSizeInBytes is 0 or smaller than the requir
  66:Source\azure_iot_sdk\c-utility\src/crt_abstractions.c ****         if (dstSizeInBytes == 0)
  67:Source\azure_iot_sdk\c-utility\src/crt_abstractions.c ****         {
  68:Source\azure_iot_sdk\c-utility\src/crt_abstractions.c ****             result = ERANGE;
  69:Source\azure_iot_sdk\c-utility\src/crt_abstractions.c ****             dst[0] = '\0';
  70:Source\azure_iot_sdk\c-utility\src/crt_abstractions.c ****         }
  71:Source\azure_iot_sdk\c-utility\src/crt_abstractions.c ****         else
  72:Source\azure_iot_sdk\c-utility\src/crt_abstractions.c ****         {
  73:Source\azure_iot_sdk\c-utility\src/crt_abstractions.c ****             size_t dstStrLen = 0;
  74:Source\azure_iot_sdk\c-utility\src/crt_abstractions.c ****             size_t src_len = strlen(src);
  75:Source\azure_iot_sdk\c-utility\src/crt_abstractions.c **** #ifdef __STDC_LIB_EXT1__
  76:Source\azure_iot_sdk\c-utility\src/crt_abstractions.c ****             dstStrLen = strnlen_s(dst, dstSizeInBytes);
  77:Source\azure_iot_sdk\c-utility\src/crt_abstractions.c **** #else
  78:Source\azure_iot_sdk\c-utility\src/crt_abstractions.c ****             size_t i;
  79:Source\azure_iot_sdk\c-utility\src/crt_abstractions.c ****             for(i=0; (i < dstSizeInBytes) && (dst[i]!= '\0'); i++)
  80:Source\azure_iot_sdk\c-utility\src/crt_abstractions.c ****             {
  81:Source\azure_iot_sdk\c-utility\src/crt_abstractions.c ****             }
  82:Source\azure_iot_sdk\c-utility\src/crt_abstractions.c ****             dstStrLen = i;
  83:Source\azure_iot_sdk\c-utility\src/crt_abstractions.c **** #endif
  84:Source\azure_iot_sdk\c-utility\src/crt_abstractions.c ****             /*Codes_SRS_CRT_ABSTRACTIONS_99_004: [If dst is NULL or unterminated, the error code re
  85:Source\azure_iot_sdk\c-utility\src/crt_abstractions.c ****             if (dstSizeInBytes == dstStrLen) /* this means the dst string is not terminated*/
  86:Source\azure_iot_sdk\c-utility\src/crt_abstractions.c ****             {
  87:Source\azure_iot_sdk\c-utility\src/crt_abstractions.c ****                 result = EINVAL;
  88:Source\azure_iot_sdk\c-utility\src/crt_abstractions.c ****             }
ARM GAS  C:\Users\Phuong\AppData\Local\Temp\cceqeziA.s 			page 3


  89:Source\azure_iot_sdk\c-utility\src/crt_abstractions.c ****             // If we are instructed to write too much data to the buffer
  90:Source\azure_iot_sdk\c-utility\src/crt_abstractions.c ****             // return ERANGE
  91:Source\azure_iot_sdk\c-utility\src/crt_abstractions.c ****             else if ((src_len + dstStrLen) >= dstSizeInBytes)
  92:Source\azure_iot_sdk\c-utility\src/crt_abstractions.c ****             {
  93:Source\azure_iot_sdk\c-utility\src/crt_abstractions.c ****                 dst[0] = '\0';
  94:Source\azure_iot_sdk\c-utility\src/crt_abstractions.c ****                 result = ERANGE;
  95:Source\azure_iot_sdk\c-utility\src/crt_abstractions.c ****             }
  96:Source\azure_iot_sdk\c-utility\src/crt_abstractions.c ****             else
  97:Source\azure_iot_sdk\c-utility\src/crt_abstractions.c ****             {
  98:Source\azure_iot_sdk\c-utility\src/crt_abstractions.c ****                 // memcpy should at most copy the result of strlen(src) or there may be
  99:Source\azure_iot_sdk\c-utility\src/crt_abstractions.c ****                 // some issues with copying unwanted memory
 100:Source\azure_iot_sdk\c-utility\src/crt_abstractions.c ****                 size_t bytes_to_cpy = dstSizeInBytes - dstStrLen;
 101:Source\azure_iot_sdk\c-utility\src/crt_abstractions.c ****                 if (bytes_to_cpy > src_len)
 102:Source\azure_iot_sdk\c-utility\src/crt_abstractions.c ****                 {
 103:Source\azure_iot_sdk\c-utility\src/crt_abstractions.c ****                     bytes_to_cpy = src_len;
 104:Source\azure_iot_sdk\c-utility\src/crt_abstractions.c ****                 }
 105:Source\azure_iot_sdk\c-utility\src/crt_abstractions.c **** 
 106:Source\azure_iot_sdk\c-utility\src/crt_abstractions.c ****                 /*Codes_SRS_CRT_ABSTRACTIONS_99_009: [The initial character of src shall overwrite 
 107:Source\azure_iot_sdk\c-utility\src/crt_abstractions.c ****                 if (memcpy(&dst[dstStrLen], src, bytes_to_cpy) == NULL)
 108:Source\azure_iot_sdk\c-utility\src/crt_abstractions.c ****                 /*Codes_SRS_CRT_ABSTRACTIONS_99_006: [If the dstSizeInBytes is 0 or smaller than th
 109:Source\azure_iot_sdk\c-utility\src/crt_abstractions.c ****                 {
 110:Source\azure_iot_sdk\c-utility\src/crt_abstractions.c ****                     dst[0] = '\0';
 111:Source\azure_iot_sdk\c-utility\src/crt_abstractions.c ****                     result = ERANGE;
 112:Source\azure_iot_sdk\c-utility\src/crt_abstractions.c ****                 }
 113:Source\azure_iot_sdk\c-utility\src/crt_abstractions.c ****                 else
 114:Source\azure_iot_sdk\c-utility\src/crt_abstractions.c ****                 {
 115:Source\azure_iot_sdk\c-utility\src/crt_abstractions.c ****                     /*Codes_SRS_CRT_ABSTRACTIONS_99_003: [strcat_s shall return Zero upon success.]
 116:Source\azure_iot_sdk\c-utility\src/crt_abstractions.c ****                     dst[dstStrLen+bytes_to_cpy] = '\0';
 117:Source\azure_iot_sdk\c-utility\src/crt_abstractions.c ****                     result = 0;
 118:Source\azure_iot_sdk\c-utility\src/crt_abstractions.c ****                 }
 119:Source\azure_iot_sdk\c-utility\src/crt_abstractions.c ****             }
 120:Source\azure_iot_sdk\c-utility\src/crt_abstractions.c ****         }
 121:Source\azure_iot_sdk\c-utility\src/crt_abstractions.c ****     }
 122:Source\azure_iot_sdk\c-utility\src/crt_abstractions.c ****     return result;
 123:Source\azure_iot_sdk\c-utility\src/crt_abstractions.c **** }
 124:Source\azure_iot_sdk\c-utility\src/crt_abstractions.c **** 
 125:Source\azure_iot_sdk\c-utility\src/crt_abstractions.c **** /*Codes_SRS_CRT_ABSTRACTIONS_99_025: [strncpy_s shall copy the first N characters of src to dst, wh
 126:Source\azure_iot_sdk\c-utility\src/crt_abstractions.c **** int strncpy_s(char* dst, size_t dstSizeInBytes, const char* src, size_t maxCount)
 127:Source\azure_iot_sdk\c-utility\src/crt_abstractions.c **** {
 128:Source\azure_iot_sdk\c-utility\src/crt_abstractions.c ****     int result;
 129:Source\azure_iot_sdk\c-utility\src/crt_abstractions.c ****     int truncationFlag = 0;
 130:Source\azure_iot_sdk\c-utility\src/crt_abstractions.c ****     /*Codes_SRS_CRT_ABSTRACTIONS_99_020: [If dst is NULL, the error code returned shall be EINVAL a
 131:Source\azure_iot_sdk\c-utility\src/crt_abstractions.c ****     if (dst == NULL)
 132:Source\azure_iot_sdk\c-utility\src/crt_abstractions.c ****     {
 133:Source\azure_iot_sdk\c-utility\src/crt_abstractions.c ****         result = EINVAL;
 134:Source\azure_iot_sdk\c-utility\src/crt_abstractions.c ****     }
 135:Source\azure_iot_sdk\c-utility\src/crt_abstractions.c ****     /*Codes_SRS_CRT_ABSTRACTIONS_99_021: [If src is NULL, the error code returned shall be EINVAL a
 136:Source\azure_iot_sdk\c-utility\src/crt_abstractions.c ****     else if (src == NULL)
 137:Source\azure_iot_sdk\c-utility\src/crt_abstractions.c ****     {
 138:Source\azure_iot_sdk\c-utility\src/crt_abstractions.c ****         dst[0] = '\0';
 139:Source\azure_iot_sdk\c-utility\src/crt_abstractions.c ****         result = EINVAL;
 140:Source\azure_iot_sdk\c-utility\src/crt_abstractions.c ****     }
 141:Source\azure_iot_sdk\c-utility\src/crt_abstractions.c ****     /*Codes_SRS_CRT_ABSTRACTIONS_99_022: [If the dstSizeInBytes is 0, the error code returned shall
 142:Source\azure_iot_sdk\c-utility\src/crt_abstractions.c ****     else if (dstSizeInBytes == 0)
 143:Source\azure_iot_sdk\c-utility\src/crt_abstractions.c ****     {
 144:Source\azure_iot_sdk\c-utility\src/crt_abstractions.c ****         result = EINVAL;
 145:Source\azure_iot_sdk\c-utility\src/crt_abstractions.c ****     }
ARM GAS  C:\Users\Phuong\AppData\Local\Temp\cceqeziA.s 			page 4


 146:Source\azure_iot_sdk\c-utility\src/crt_abstractions.c ****     else
 147:Source\azure_iot_sdk\c-utility\src/crt_abstractions.c ****     {
 148:Source\azure_iot_sdk\c-utility\src/crt_abstractions.c ****         size_t srcLength = strlen(src);
 149:Source\azure_iot_sdk\c-utility\src/crt_abstractions.c ****         if (maxCount != _TRUNCATE)
 150:Source\azure_iot_sdk\c-utility\src/crt_abstractions.c ****         {
 151:Source\azure_iot_sdk\c-utility\src/crt_abstractions.c ****             /*Codes_SRS_CRT_ABSTRACTIONS_99_041: [If those N characters will fit within dst (whose 
 152:Source\azure_iot_sdk\c-utility\src/crt_abstractions.c ****             if (srcLength > maxCount)
 153:Source\azure_iot_sdk\c-utility\src/crt_abstractions.c ****             {
 154:Source\azure_iot_sdk\c-utility\src/crt_abstractions.c ****                 srcLength = maxCount;
 155:Source\azure_iot_sdk\c-utility\src/crt_abstractions.c ****             }
 156:Source\azure_iot_sdk\c-utility\src/crt_abstractions.c **** 
 157:Source\azure_iot_sdk\c-utility\src/crt_abstractions.c ****             /*Codes_SRS_CRT_ABSTRACTIONS_99_023: [If dst is not NULL & dstSizeInBytes is smaller th
 158:Source\azure_iot_sdk\c-utility\src/crt_abstractions.c ****             if (srcLength + 1 > dstSizeInBytes)
 159:Source\azure_iot_sdk\c-utility\src/crt_abstractions.c ****             {
 160:Source\azure_iot_sdk\c-utility\src/crt_abstractions.c ****                 dst[0] = '\0';
 161:Source\azure_iot_sdk\c-utility\src/crt_abstractions.c ****                 result = ERANGE;
 162:Source\azure_iot_sdk\c-utility\src/crt_abstractions.c ****             }
 163:Source\azure_iot_sdk\c-utility\src/crt_abstractions.c ****             else
 164:Source\azure_iot_sdk\c-utility\src/crt_abstractions.c ****             {
 165:Source\azure_iot_sdk\c-utility\src/crt_abstractions.c ****                 (void)memcpy(dst, src, srcLength);
 166:Source\azure_iot_sdk\c-utility\src/crt_abstractions.c ****                 dst[srcLength] = '\0';
 167:Source\azure_iot_sdk\c-utility\src/crt_abstractions.c ****                 /*Codes_SRS_CRT_ABSTRACTIONS_99_018: [strncpy_s shall return Zero upon success]*/
 168:Source\azure_iot_sdk\c-utility\src/crt_abstractions.c ****                 result = 0;
 169:Source\azure_iot_sdk\c-utility\src/crt_abstractions.c ****             }
 170:Source\azure_iot_sdk\c-utility\src/crt_abstractions.c ****         }
 171:Source\azure_iot_sdk\c-utility\src/crt_abstractions.c ****         /*Codes_SRS_CRT_ABSTRACTIONS_99_026: [If MaxCount is _TRUNCATE (defined as -1), then as muc
 172:Source\azure_iot_sdk\c-utility\src/crt_abstractions.c ****         else
 173:Source\azure_iot_sdk\c-utility\src/crt_abstractions.c ****         {
 174:Source\azure_iot_sdk\c-utility\src/crt_abstractions.c ****             if (srcLength + 1 > dstSizeInBytes )
 175:Source\azure_iot_sdk\c-utility\src/crt_abstractions.c ****             {
 176:Source\azure_iot_sdk\c-utility\src/crt_abstractions.c ****                 srcLength = dstSizeInBytes - 1;
 177:Source\azure_iot_sdk\c-utility\src/crt_abstractions.c ****                 truncationFlag = 1;
 178:Source\azure_iot_sdk\c-utility\src/crt_abstractions.c ****             }
 179:Source\azure_iot_sdk\c-utility\src/crt_abstractions.c ****             (void)memcpy(dst, src, srcLength);
 180:Source\azure_iot_sdk\c-utility\src/crt_abstractions.c ****             dst[srcLength] = '\0';
 181:Source\azure_iot_sdk\c-utility\src/crt_abstractions.c ****             result = 0;
 182:Source\azure_iot_sdk\c-utility\src/crt_abstractions.c ****         }
 183:Source\azure_iot_sdk\c-utility\src/crt_abstractions.c ****     }
 184:Source\azure_iot_sdk\c-utility\src/crt_abstractions.c **** 
 185:Source\azure_iot_sdk\c-utility\src/crt_abstractions.c ****     /*Codes_SRS_CRT_ABSTRACTIONS_99_019: [If truncation occurred as a result of the copy, the error
 186:Source\azure_iot_sdk\c-utility\src/crt_abstractions.c ****     if (truncationFlag == 1)
 187:Source\azure_iot_sdk\c-utility\src/crt_abstractions.c ****     {
 188:Source\azure_iot_sdk\c-utility\src/crt_abstractions.c ****         result = STRUNCATE;
 189:Source\azure_iot_sdk\c-utility\src/crt_abstractions.c ****     }
 190:Source\azure_iot_sdk\c-utility\src/crt_abstractions.c **** 
 191:Source\azure_iot_sdk\c-utility\src/crt_abstractions.c ****     return result;
 192:Source\azure_iot_sdk\c-utility\src/crt_abstractions.c **** }
 193:Source\azure_iot_sdk\c-utility\src/crt_abstractions.c **** 
 194:Source\azure_iot_sdk\c-utility\src/crt_abstractions.c **** /* Codes_SRS_CRT_ABSTRACTIONS_99_016: [strcpy_s shall copy the contents in the address of src, incl
 195:Source\azure_iot_sdk\c-utility\src/crt_abstractions.c **** int strcpy_s(char* dst, size_t dstSizeInBytes, const char* src)
 196:Source\azure_iot_sdk\c-utility\src/crt_abstractions.c **** {
 197:Source\azure_iot_sdk\c-utility\src/crt_abstractions.c ****     int result;
 198:Source\azure_iot_sdk\c-utility\src/crt_abstractions.c **** 
 199:Source\azure_iot_sdk\c-utility\src/crt_abstractions.c ****     /* Codes_SRS_CRT_ABSTRACTIONS_99_012: [If dst is NULL, the error code returned shall be EINVAL 
 200:Source\azure_iot_sdk\c-utility\src/crt_abstractions.c ****     if (dst == NULL)
 201:Source\azure_iot_sdk\c-utility\src/crt_abstractions.c ****     {
 202:Source\azure_iot_sdk\c-utility\src/crt_abstractions.c ****         result = EINVAL;
ARM GAS  C:\Users\Phuong\AppData\Local\Temp\cceqeziA.s 			page 5


 203:Source\azure_iot_sdk\c-utility\src/crt_abstractions.c ****     }
 204:Source\azure_iot_sdk\c-utility\src/crt_abstractions.c ****     /* Codes_SRS_CRT_ABSTRACTIONS_99_013: [If src is NULL, the error code returned shall be EINVAL 
 205:Source\azure_iot_sdk\c-utility\src/crt_abstractions.c ****     else if (src == NULL)
 206:Source\azure_iot_sdk\c-utility\src/crt_abstractions.c ****     {
 207:Source\azure_iot_sdk\c-utility\src/crt_abstractions.c ****         dst[0] = '\0';
 208:Source\azure_iot_sdk\c-utility\src/crt_abstractions.c ****         result = EINVAL;
 209:Source\azure_iot_sdk\c-utility\src/crt_abstractions.c ****     }
 210:Source\azure_iot_sdk\c-utility\src/crt_abstractions.c ****     /* Codes_SRS_CRT_ABSTRACTIONS_99_014: [If the dstSizeInBytes is 0 or smaller than the required 
 211:Source\azure_iot_sdk\c-utility\src/crt_abstractions.c ****     else if (dstSizeInBytes == 0)
 212:Source\azure_iot_sdk\c-utility\src/crt_abstractions.c ****     {
 213:Source\azure_iot_sdk\c-utility\src/crt_abstractions.c ****         dst[0] = '\0';
 214:Source\azure_iot_sdk\c-utility\src/crt_abstractions.c ****         result = ERANGE;
 215:Source\azure_iot_sdk\c-utility\src/crt_abstractions.c ****     }
 216:Source\azure_iot_sdk\c-utility\src/crt_abstractions.c ****     else
 217:Source\azure_iot_sdk\c-utility\src/crt_abstractions.c ****     {
 218:Source\azure_iot_sdk\c-utility\src/crt_abstractions.c ****         size_t neededBuffer = strlen(src);
 219:Source\azure_iot_sdk\c-utility\src/crt_abstractions.c ****         /* Codes_SRS_CRT_ABSTRACTIONS_99_014: [If the dstSizeInBytes is 0 or smaller than the requi
 220:Source\azure_iot_sdk\c-utility\src/crt_abstractions.c ****         if (neededBuffer + 1 > dstSizeInBytes)
 221:Source\azure_iot_sdk\c-utility\src/crt_abstractions.c ****         {
 222:Source\azure_iot_sdk\c-utility\src/crt_abstractions.c ****             dst[0] = '\0';
 223:Source\azure_iot_sdk\c-utility\src/crt_abstractions.c ****             result = ERANGE;
 224:Source\azure_iot_sdk\c-utility\src/crt_abstractions.c ****         }
 225:Source\azure_iot_sdk\c-utility\src/crt_abstractions.c ****         else
 226:Source\azure_iot_sdk\c-utility\src/crt_abstractions.c ****         {
 227:Source\azure_iot_sdk\c-utility\src/crt_abstractions.c ****             (void)memcpy(dst, src, neededBuffer + 1);
 228:Source\azure_iot_sdk\c-utility\src/crt_abstractions.c ****             /*Codes_SRS_CRT_ABSTRACTIONS_99_011: [strcpy_s shall return Zero upon success]*/
 229:Source\azure_iot_sdk\c-utility\src/crt_abstractions.c ****             result = 0;
 230:Source\azure_iot_sdk\c-utility\src/crt_abstractions.c ****         }
 231:Source\azure_iot_sdk\c-utility\src/crt_abstractions.c ****     }
 232:Source\azure_iot_sdk\c-utility\src/crt_abstractions.c **** 
 233:Source\azure_iot_sdk\c-utility\src/crt_abstractions.c ****     return result;
 234:Source\azure_iot_sdk\c-utility\src/crt_abstractions.c **** }
 235:Source\azure_iot_sdk\c-utility\src/crt_abstractions.c **** 
 236:Source\azure_iot_sdk\c-utility\src/crt_abstractions.c **** /*Codes_SRS_CRT_ABSTRACTIONS_99_029: [The sprintf_s function shall format and store series of chara
 237:Source\azure_iot_sdk\c-utility\src/crt_abstractions.c **** /*Codes_SRS_CRT_ABSTRACTIONS_99_031: [A null character is appended after the last character written
 238:Source\azure_iot_sdk\c-utility\src/crt_abstractions.c **** int sprintf_s(char* dst, size_t dstSizeInBytes, const char* format, ...)
 239:Source\azure_iot_sdk\c-utility\src/crt_abstractions.c **** {
 240:Source\azure_iot_sdk\c-utility\src/crt_abstractions.c ****     int result;
 241:Source\azure_iot_sdk\c-utility\src/crt_abstractions.c ****     /*Codes_SRS_CRT_ABSTRACTIONS_99_028: [If dst or format is a null pointer, sprintf_s shall retur
 242:Source\azure_iot_sdk\c-utility\src/crt_abstractions.c ****     if ((dst == NULL) ||
 243:Source\azure_iot_sdk\c-utility\src/crt_abstractions.c ****         (format == NULL))
 244:Source\azure_iot_sdk\c-utility\src/crt_abstractions.c ****     {
 245:Source\azure_iot_sdk\c-utility\src/crt_abstractions.c ****         errno = EINVAL;
 246:Source\azure_iot_sdk\c-utility\src/crt_abstractions.c ****         result = -1;
 247:Source\azure_iot_sdk\c-utility\src/crt_abstractions.c ****     }
 248:Source\azure_iot_sdk\c-utility\src/crt_abstractions.c ****     else
 249:Source\azure_iot_sdk\c-utility\src/crt_abstractions.c ****     {
 250:Source\azure_iot_sdk\c-utility\src/crt_abstractions.c ****         /*Codes_SRS_CRT_ABSTRACTIONS_99_033: [sprintf_s shall check the format string for valid for
 251:Source\azure_iot_sdk\c-utility\src/crt_abstractions.c **** 
 252:Source\azure_iot_sdk\c-utility\src/crt_abstractions.c **** #if defined _MSC_VER
 253:Source\azure_iot_sdk\c-utility\src/crt_abstractions.c **** #error crt_abstractions is not provided for Microsoft Compilers
 254:Source\azure_iot_sdk\c-utility\src/crt_abstractions.c **** #else
 255:Source\azure_iot_sdk\c-utility\src/crt_abstractions.c ****         /*not Microsoft compiler... */
 256:Source\azure_iot_sdk\c-utility\src/crt_abstractions.c **** #if defined (__STDC_VERSION__) || (__cplusplus)
 257:Source\azure_iot_sdk\c-utility\src/crt_abstractions.c **** #if ( \
 258:Source\azure_iot_sdk\c-utility\src/crt_abstractions.c ****         ((__STDC_VERSION__  == 199901L) || (__STDC_VERSION__ == 201000L) || (__STDC_VERSION__ == 20
 259:Source\azure_iot_sdk\c-utility\src/crt_abstractions.c ****         (defined __cplusplus) \
ARM GAS  C:\Users\Phuong\AppData\Local\Temp\cceqeziA.s 			page 6


 260:Source\azure_iot_sdk\c-utility\src/crt_abstractions.c ****     )
 261:Source\azure_iot_sdk\c-utility\src/crt_abstractions.c ****         /*C99 compiler*/
 262:Source\azure_iot_sdk\c-utility\src/crt_abstractions.c ****         va_list args;
 263:Source\azure_iot_sdk\c-utility\src/crt_abstractions.c ****         va_start(args, format);
 264:Source\azure_iot_sdk\c-utility\src/crt_abstractions.c ****         /*Codes_SRS_CRT_ABSTRACTIONS_99_027: [sprintf_s shall return the number of characters store
 265:Source\azure_iot_sdk\c-utility\src/crt_abstractions.c ****         result = vsnprintf(dst, dstSizeInBytes, format, args);
 266:Source\azure_iot_sdk\c-utility\src/crt_abstractions.c ****         va_end(args);
 267:Source\azure_iot_sdk\c-utility\src/crt_abstractions.c **** 
 268:Source\azure_iot_sdk\c-utility\src/crt_abstractions.c ****         /*C99: Thus, the null-terminated output has been completely written if and only if the retu
 269:Source\azure_iot_sdk\c-utility\src/crt_abstractions.c ****         if (result < 0)
 270:Source\azure_iot_sdk\c-utility\src/crt_abstractions.c ****         {
 271:Source\azure_iot_sdk\c-utility\src/crt_abstractions.c ****             result = -1;
 272:Source\azure_iot_sdk\c-utility\src/crt_abstractions.c ****         }
 273:Source\azure_iot_sdk\c-utility\src/crt_abstractions.c ****         else if ((size_t)result >= dstSizeInBytes)
 274:Source\azure_iot_sdk\c-utility\src/crt_abstractions.c ****         {
 275:Source\azure_iot_sdk\c-utility\src/crt_abstractions.c ****             /*Codes_SRS_CRT_ABSTRACTIONS_99_034: [If the dst buffer is too small for the text being
 276:Source\azure_iot_sdk\c-utility\src/crt_abstractions.c ****             dst[0] = '\0';
 277:Source\azure_iot_sdk\c-utility\src/crt_abstractions.c ****             result = -1;
 278:Source\azure_iot_sdk\c-utility\src/crt_abstractions.c ****         }
 279:Source\azure_iot_sdk\c-utility\src/crt_abstractions.c ****         else
 280:Source\azure_iot_sdk\c-utility\src/crt_abstractions.c ****         {
 281:Source\azure_iot_sdk\c-utility\src/crt_abstractions.c ****             /*do nothing, all is fine*/
 282:Source\azure_iot_sdk\c-utility\src/crt_abstractions.c ****         }
 283:Source\azure_iot_sdk\c-utility\src/crt_abstractions.c **** #else
 284:Source\azure_iot_sdk\c-utility\src/crt_abstractions.c **** #error STDC_VERSION defined, but of unknown value; unable to sprinf_s, or provide own implementatio
 285:Source\azure_iot_sdk\c-utility\src/crt_abstractions.c **** #endif
 286:Source\azure_iot_sdk\c-utility\src/crt_abstractions.c **** #else
 287:Source\azure_iot_sdk\c-utility\src/crt_abstractions.c **** #error for STDC_VERSION undefined (assumed C89), provide own implementation of sprintf_s
 288:Source\azure_iot_sdk\c-utility\src/crt_abstractions.c **** #endif
 289:Source\azure_iot_sdk\c-utility\src/crt_abstractions.c **** #endif
 290:Source\azure_iot_sdk\c-utility\src/crt_abstractions.c ****     }
 291:Source\azure_iot_sdk\c-utility\src/crt_abstractions.c ****     return result;
 292:Source\azure_iot_sdk\c-utility\src/crt_abstractions.c **** }
 293:Source\azure_iot_sdk\c-utility\src/crt_abstractions.c **** #endif /* _MSC_VER || MINGW_HAS_SECURE_API */
 294:Source\azure_iot_sdk\c-utility\src/crt_abstractions.c **** 
 295:Source\azure_iot_sdk\c-utility\src/crt_abstractions.c **** /*Codes_SRS_CRT_ABSTRACTIONS_21_006: [The strtoull_s must use the letters from a(or A) through z(or
 296:Source\azure_iot_sdk\c-utility\src/crt_abstractions.c **** /* returns the integer value that correspond to the character 'c'. If the character is invalid, it 
 297:Source\azure_iot_sdk\c-utility\src/crt_abstractions.c **** #define DIGIT_VAL(c)         (((c>='0') && (c<='9')) ? (c-'0') : ((c>='a') && (c<='z')) ? (c-'a'+10
 298:Source\azure_iot_sdk\c-utility\src/crt_abstractions.c **** #define IN_BASE_RANGE(d, b)  ((d >= 0) && (d < b))
 299:Source\azure_iot_sdk\c-utility\src/crt_abstractions.c **** 
 300:Source\azure_iot_sdk\c-utility\src/crt_abstractions.c **** /*Codes_SRS_CRT_ABSTRACTIONS_21_010: [The white-space must be one of the characters ' ', '\f', '\n'
 301:Source\azure_iot_sdk\c-utility\src/crt_abstractions.c **** #define IS_SPACE(c)           (c == ' ' || c == '\f' || c == '\n' || c == '\r' || c == '\t' || c ==
 302:Source\azure_iot_sdk\c-utility\src/crt_abstractions.c **** 
 303:Source\azure_iot_sdk\c-utility\src/crt_abstractions.c **** /*Codes_SRS_CRT_ABSTRACTIONS_21_001: [The strtoull_s must convert the initial portion of the string
 304:Source\azure_iot_sdk\c-utility\src/crt_abstractions.c **** /*Codes_SRS_CRT_ABSTRACTIONS_21_002: [The strtoull_s must resembling an integer represented in some
 305:Source\azure_iot_sdk\c-utility\src/crt_abstractions.c **** /*Codes_SRS_CRT_ABSTRACTIONS_21_003: [The strtoull_s must return the integer that represents the va
 306:Source\azure_iot_sdk\c-utility\src/crt_abstractions.c **** unsigned long long strtoull_s(const char* nptr, char** endptr, int base)
 307:Source\azure_iot_sdk\c-utility\src/crt_abstractions.c **** {
 308:Source\azure_iot_sdk\c-utility\src/crt_abstractions.c ****     unsigned long long result = 0ULL;
 309:Source\azure_iot_sdk\c-utility\src/crt_abstractions.c ****     bool validStr = true;
 310:Source\azure_iot_sdk\c-utility\src/crt_abstractions.c ****     char* runner = (char*)nptr;
 311:Source\azure_iot_sdk\c-utility\src/crt_abstractions.c ****     bool isNegative = false;
 312:Source\azure_iot_sdk\c-utility\src/crt_abstractions.c ****     int digitVal;
 313:Source\azure_iot_sdk\c-utility\src/crt_abstractions.c **** 
 314:Source\azure_iot_sdk\c-utility\src/crt_abstractions.c ****     /*Codes_SRS_CRT_ABSTRACTIONS_21_005: [The strtoull_s must convert number using base 2 to 36.]*/
 315:Source\azure_iot_sdk\c-utility\src/crt_abstractions.c ****     /*Codes_SRS_CRT_ABSTRACTIONS_21_012: [If the subject sequence is empty or does not have the exp
 316:Source\azure_iot_sdk\c-utility\src/crt_abstractions.c ****     /*Codes_SRS_CRT_ABSTRACTIONS_21_013: [If no conversion could be performed, the strtoull_s retur
ARM GAS  C:\Users\Phuong\AppData\Local\Temp\cceqeziA.s 			page 7


 317:Source\azure_iot_sdk\c-utility\src/crt_abstractions.c ****     /*Codes_SRS_CRT_ABSTRACTIONS_21_035: [If the nptr is NULL, the strtoull_s must **not** perform 
 318:Source\azure_iot_sdk\c-utility\src/crt_abstractions.c ****         if (((base >= 2) || (base == 0)) && (base <= 36) && (runner != NULL))
 319:Source\azure_iot_sdk\c-utility\src/crt_abstractions.c ****     {
 320:Source\azure_iot_sdk\c-utility\src/crt_abstractions.c ****         /*Codes_SRS_CRT_ABSTRACTIONS_21_011: [The valid sequence starts after the first non-white-s
 321:Source\azure_iot_sdk\c-utility\src/crt_abstractions.c ****         /*Codes_SRS_CRT_ABSTRACTIONS_21_010: [The white-space must be one of the characters ' ', '\
 322:Source\azure_iot_sdk\c-utility\src/crt_abstractions.c ****         while (IS_SPACE(*runner))
 323:Source\azure_iot_sdk\c-utility\src/crt_abstractions.c ****         {
 324:Source\azure_iot_sdk\c-utility\src/crt_abstractions.c ****             runner++;
 325:Source\azure_iot_sdk\c-utility\src/crt_abstractions.c ****         }
 326:Source\azure_iot_sdk\c-utility\src/crt_abstractions.c ****         if ((*runner) == '+')
 327:Source\azure_iot_sdk\c-utility\src/crt_abstractions.c ****         {
 328:Source\azure_iot_sdk\c-utility\src/crt_abstractions.c ****             runner++;
 329:Source\azure_iot_sdk\c-utility\src/crt_abstractions.c ****         }
 330:Source\azure_iot_sdk\c-utility\src/crt_abstractions.c ****         else if ((*runner) == '-')
 331:Source\azure_iot_sdk\c-utility\src/crt_abstractions.c ****         {
 332:Source\azure_iot_sdk\c-utility\src/crt_abstractions.c ****             /*Codes_SRS_CRT_ABSTRACTIONS_21_038: [If the subject sequence starts with a negative si
 333:Source\azure_iot_sdk\c-utility\src/crt_abstractions.c ****             isNegative = true;
 334:Source\azure_iot_sdk\c-utility\src/crt_abstractions.c ****             runner++;
 335:Source\azure_iot_sdk\c-utility\src/crt_abstractions.c ****         }
 336:Source\azure_iot_sdk\c-utility\src/crt_abstractions.c **** 
 337:Source\azure_iot_sdk\c-utility\src/crt_abstractions.c ****         if ((*runner) == '0')
 338:Source\azure_iot_sdk\c-utility\src/crt_abstractions.c ****         {
 339:Source\azure_iot_sdk\c-utility\src/crt_abstractions.c ****             if ((*(runner+1) == 'x') || (*(runner+1) == 'X'))
 340:Source\azure_iot_sdk\c-utility\src/crt_abstractions.c ****             {
 341:Source\azure_iot_sdk\c-utility\src/crt_abstractions.c ****                 /*Codes_SRS_CRT_ABSTRACTIONS_21_008: [If the base is 0 and '0x' or '0X' precedes th
 342:Source\azure_iot_sdk\c-utility\src/crt_abstractions.c ****                 /* hexadecimal... */
 343:Source\azure_iot_sdk\c-utility\src/crt_abstractions.c ****                 if ((base == 0) || (base == 16))
 344:Source\azure_iot_sdk\c-utility\src/crt_abstractions.c ****                 {
 345:Source\azure_iot_sdk\c-utility\src/crt_abstractions.c ****                     base = 16;
 346:Source\azure_iot_sdk\c-utility\src/crt_abstractions.c ****                     runner += 2;
 347:Source\azure_iot_sdk\c-utility\src/crt_abstractions.c ****                 }
 348:Source\azure_iot_sdk\c-utility\src/crt_abstractions.c ****             }
 349:Source\azure_iot_sdk\c-utility\src/crt_abstractions.c ****             else if((base == 0) || (base == 8))
 350:Source\azure_iot_sdk\c-utility\src/crt_abstractions.c ****             {
 351:Source\azure_iot_sdk\c-utility\src/crt_abstractions.c ****                 /*Codes_SRS_CRT_ABSTRACTIONS_21_009: [If the base is 0 and '0' precedes the number,
 352:Source\azure_iot_sdk\c-utility\src/crt_abstractions.c ****                 /* octal... */
 353:Source\azure_iot_sdk\c-utility\src/crt_abstractions.c ****                 base = 8;
 354:Source\azure_iot_sdk\c-utility\src/crt_abstractions.c ****                 runner++;
 355:Source\azure_iot_sdk\c-utility\src/crt_abstractions.c ****             }
 356:Source\azure_iot_sdk\c-utility\src/crt_abstractions.c ****         }
 357:Source\azure_iot_sdk\c-utility\src/crt_abstractions.c **** 
 358:Source\azure_iot_sdk\c-utility\src/crt_abstractions.c ****         if(base == 0)
 359:Source\azure_iot_sdk\c-utility\src/crt_abstractions.c ****         {
 360:Source\azure_iot_sdk\c-utility\src/crt_abstractions.c ****             /*Codes_SRS_CRT_ABSTRACTIONS_21_007: [If the base is 0 and no special chars precedes th
 361:Source\azure_iot_sdk\c-utility\src/crt_abstractions.c ****             /* decimal... */
 362:Source\azure_iot_sdk\c-utility\src/crt_abstractions.c ****             base = 10;
 363:Source\azure_iot_sdk\c-utility\src/crt_abstractions.c ****         }
 364:Source\azure_iot_sdk\c-utility\src/crt_abstractions.c **** 
 365:Source\azure_iot_sdk\c-utility\src/crt_abstractions.c ****         digitVal = DIGIT_VAL(*runner);
 366:Source\azure_iot_sdk\c-utility\src/crt_abstractions.c ****         if (validStr && IN_BASE_RANGE(digitVal, base))
 367:Source\azure_iot_sdk\c-utility\src/crt_abstractions.c ****         {
 368:Source\azure_iot_sdk\c-utility\src/crt_abstractions.c ****             errno = 0;
 369:Source\azure_iot_sdk\c-utility\src/crt_abstractions.c ****             do
 370:Source\azure_iot_sdk\c-utility\src/crt_abstractions.c ****             {
 371:Source\azure_iot_sdk\c-utility\src/crt_abstractions.c ****                 if (((ULLONG_MAX - digitVal) / base) < result)
 372:Source\azure_iot_sdk\c-utility\src/crt_abstractions.c ****                 {
 373:Source\azure_iot_sdk\c-utility\src/crt_abstractions.c ****                     /*Codes_SRS_CRT_ABSTRACTIONS_21_014: [If the correct value is outside the range
ARM GAS  C:\Users\Phuong\AppData\Local\Temp\cceqeziA.s 			page 8


 374:Source\azure_iot_sdk\c-utility\src/crt_abstractions.c ****                     /* overflow... */
 375:Source\azure_iot_sdk\c-utility\src/crt_abstractions.c ****                     result = ULLONG_MAX;
 376:Source\azure_iot_sdk\c-utility\src/crt_abstractions.c ****                     errno = ERANGE;
 377:Source\azure_iot_sdk\c-utility\src/crt_abstractions.c ****                 }
 378:Source\azure_iot_sdk\c-utility\src/crt_abstractions.c ****                 else
 379:Source\azure_iot_sdk\c-utility\src/crt_abstractions.c ****                 {
 380:Source\azure_iot_sdk\c-utility\src/crt_abstractions.c ****                     result = result * base + digitVal;
 381:Source\azure_iot_sdk\c-utility\src/crt_abstractions.c ****                 }
 382:Source\azure_iot_sdk\c-utility\src/crt_abstractions.c ****                 runner++;
 383:Source\azure_iot_sdk\c-utility\src/crt_abstractions.c ****                 digitVal = DIGIT_VAL(*runner);
 384:Source\azure_iot_sdk\c-utility\src/crt_abstractions.c ****             } while (IN_BASE_RANGE(digitVal, base));
 385:Source\azure_iot_sdk\c-utility\src/crt_abstractions.c ****         }
 386:Source\azure_iot_sdk\c-utility\src/crt_abstractions.c ****         else
 387:Source\azure_iot_sdk\c-utility\src/crt_abstractions.c ****         {
 388:Source\azure_iot_sdk\c-utility\src/crt_abstractions.c ****             runner = (char*)nptr;
 389:Source\azure_iot_sdk\c-utility\src/crt_abstractions.c ****         }
 390:Source\azure_iot_sdk\c-utility\src/crt_abstractions.c ****     }
 391:Source\azure_iot_sdk\c-utility\src/crt_abstractions.c **** 
 392:Source\azure_iot_sdk\c-utility\src/crt_abstractions.c ****     /*Codes_SRS_CRT_ABSTRACTIONS_21_004: [The strtoull_s must return in endptr a final string of on
 393:Source\azure_iot_sdk\c-utility\src/crt_abstractions.c ****     if (endptr != NULL)
 394:Source\azure_iot_sdk\c-utility\src/crt_abstractions.c ****     {
 395:Source\azure_iot_sdk\c-utility\src/crt_abstractions.c ****         (*endptr) = (char*)runner;
 396:Source\azure_iot_sdk\c-utility\src/crt_abstractions.c ****     }
 397:Source\azure_iot_sdk\c-utility\src/crt_abstractions.c **** 
 398:Source\azure_iot_sdk\c-utility\src/crt_abstractions.c ****     /*Codes_SRS_CRT_ABSTRACTIONS_21_038: [If the subject sequence starts with a negative sign, the 
 399:Source\azure_iot_sdk\c-utility\src/crt_abstractions.c ****     if (isNegative)
 400:Source\azure_iot_sdk\c-utility\src/crt_abstractions.c ****     {
 401:Source\azure_iot_sdk\c-utility\src/crt_abstractions.c ****         result = ULLONG_MAX - result + 1;
 402:Source\azure_iot_sdk\c-utility\src/crt_abstractions.c ****     }
 403:Source\azure_iot_sdk\c-utility\src/crt_abstractions.c **** 
 404:Source\azure_iot_sdk\c-utility\src/crt_abstractions.c ****     return result;
 405:Source\azure_iot_sdk\c-utility\src/crt_abstractions.c **** }
 406:Source\azure_iot_sdk\c-utility\src/crt_abstractions.c **** 
 407:Source\azure_iot_sdk\c-utility\src/crt_abstractions.c **** /*Codes_SRS_CRT_ABSTRACTIONS_21_023: [If the string is 'INF' of 'INFINITY' (ignoring case), the str
 408:Source\azure_iot_sdk\c-utility\src/crt_abstractions.c **** /*Codes_SRS_CRT_ABSTRACTIONS_21_024: [If the string is 'NAN' or 'NAN(...)' (ignoring case), the str
 409:Source\azure_iot_sdk\c-utility\src/crt_abstractions.c **** /*Codes_SRS_CRT_ABSTRACTIONS_21_033: [If the string is 'INF' of 'INFINITY' (ignoring case), the str
 410:Source\azure_iot_sdk\c-utility\src/crt_abstractions.c **** /*Codes_SRS_CRT_ABSTRACTIONS_21_034: [If the string is 'NAN' or 'NAN(...)' (ignoring case), the str
 411:Source\azure_iot_sdk\c-utility\src/crt_abstractions.c **** static int substricmp(const char* nptr, const char* subsrt)
 412:Source\azure_iot_sdk\c-utility\src/crt_abstractions.c **** {
  27              		.loc 1 412 0
  28              		.cfi_startproc
  29              		@ args = 0, pretend = 0, frame = 0
  30              		@ frame_needed = 0, uses_anonymous_args = 0
  31              	.LVL0:
  32 0000 10B5     		push	{r4, lr}
  33              		.cfi_def_cfa_offset 8
  34              		.cfi_offset 4, -8
  35              		.cfi_offset 14, -4
  36              	.LVL1:
 413:Source\azure_iot_sdk\c-utility\src/crt_abstractions.c ****     int result = 0;
  37              		.loc 1 413 0
  38 0002 0023     		movs	r3, #0
 414:Source\azure_iot_sdk\c-utility\src/crt_abstractions.c ****     while (((*subsrt) != '\0') && (result == 0))
  39              		.loc 1 414 0
  40 0004 0FE0     		b	.L2
  41              	.LVL2:
  42              	.L8:
ARM GAS  C:\Users\Phuong\AppData\Local\Temp\cceqeziA.s 			page 9


 415:Source\azure_iot_sdk\c-utility\src/crt_abstractions.c ****     {
 416:Source\azure_iot_sdk\c-utility\src/crt_abstractions.c ****         result = TOUPPER(*nptr) - TOUPPER(*subsrt);
  43              		.loc 1 416 0
  44 0006 0378     		ldrb	r3, [r0]
  45              	.LVL3:
  46 0008 1C00     		movs	r4, r3
  47 000a 613C     		subs	r4, r4, #97
  48 000c E4B2     		uxtb	r4, r4
  49 000e 192C     		cmp	r4, #25
  50 0010 00D8     		bhi	.L4
  51              		.loc 1 416 0 is_stmt 0 discriminator 1
  52 0012 203B     		subs	r3, r3, #32
  53              	.L4:
  54              		.loc 1 416 0 discriminator 4
  55 0014 1400     		movs	r4, r2
  56 0016 613C     		subs	r4, r4, #97
  57 0018 E4B2     		uxtb	r4, r4
  58 001a 192C     		cmp	r4, #25
  59 001c 00D8     		bhi	.L6
  60              		.loc 1 416 0 discriminator 5
  61 001e 203A     		subs	r2, r2, #32
  62              	.L6:
  63              		.loc 1 416 0 discriminator 8
  64 0020 9B1A     		subs	r3, r3, r2
  65              	.LVL4:
 417:Source\azure_iot_sdk\c-utility\src/crt_abstractions.c ****         nptr++;
  66              		.loc 1 417 0 is_stmt 1 discriminator 8
  67 0022 0130     		adds	r0, r0, #1
  68              	.LVL5:
 418:Source\azure_iot_sdk\c-utility\src/crt_abstractions.c ****         subsrt++;
  69              		.loc 1 418 0 discriminator 8
  70 0024 0131     		adds	r1, r1, #1
  71              	.LVL6:
  72              	.L2:
 414:Source\azure_iot_sdk\c-utility\src/crt_abstractions.c ****     {
  73              		.loc 1 414 0
  74 0026 0A78     		ldrb	r2, [r1]
  75 0028 002A     		cmp	r2, #0
  76 002a 01D0     		beq	.L7
 414:Source\azure_iot_sdk\c-utility\src/crt_abstractions.c ****     {
  77              		.loc 1 414 0 is_stmt 0 discriminator 1
  78 002c 002B     		cmp	r3, #0
  79 002e EAD0     		beq	.L8
  80              	.L7:
 419:Source\azure_iot_sdk\c-utility\src/crt_abstractions.c ****     }
 420:Source\azure_iot_sdk\c-utility\src/crt_abstractions.c ****     return result;
 421:Source\azure_iot_sdk\c-utility\src/crt_abstractions.c **** }
  81              		.loc 1 421 0 is_stmt 1
  82 0030 1800     		movs	r0, r3
  83              	.LVL7:
  84              		@ sp needed
  85 0032 10BD     		pop	{r4, pc}
  86              		.cfi_endproc
  87              	.LFE6:
  88              		.size	substricmp, .-substricmp
  89              		.section	.text.isInfinity,"ax",%progbits
  90              		.align	2
ARM GAS  C:\Users\Phuong\AppData\Local\Temp\cceqeziA.s 			page 10


  91              		.code	16
  92              		.thumb_func
  93              		.type	isInfinity, %function
  94              	isInfinity:
  95              	.LFB7:
 422:Source\azure_iot_sdk\c-utility\src/crt_abstractions.c **** 
 423:Source\azure_iot_sdk\c-utility\src/crt_abstractions.c **** /*Codes_SRS_CRT_ABSTRACTIONS_21_023: [If the string is 'INF' of 'INFINITY' (ignoring case), the str
 424:Source\azure_iot_sdk\c-utility\src/crt_abstractions.c **** /*Codes_SRS_CRT_ABSTRACTIONS_21_033: [If the string is 'INF' of 'INFINITY' (ignoring case), the str
 425:Source\azure_iot_sdk\c-utility\src/crt_abstractions.c **** static bool isInfinity(const char** endptr)
 426:Source\azure_iot_sdk\c-utility\src/crt_abstractions.c **** {
  96              		.loc 1 426 0
  97              		.cfi_startproc
  98              		@ args = 0, pretend = 0, frame = 0
  99              		@ frame_needed = 0, uses_anonymous_args = 0
 100              	.LVL8:
 101 0000 70B5     		push	{r4, r5, r6, lr}
 102              		.cfi_def_cfa_offset 16
 103              		.cfi_offset 4, -16
 104              		.cfi_offset 5, -12
 105              		.cfi_offset 6, -8
 106              		.cfi_offset 14, -4
 107 0002 0500     		movs	r5, r0
 108              	.LVL9:
 427:Source\azure_iot_sdk\c-utility\src/crt_abstractions.c ****     bool result = false;
 428:Source\azure_iot_sdk\c-utility\src/crt_abstractions.c ****     if (substricmp((*endptr), "INF") == 0)
 109              		.loc 1 428 0
 110 0004 0468     		ldr	r4, [r0]
 111 0006 0B49     		ldr	r1, .L13
 112 0008 2000     		movs	r0, r4
 113              	.LVL10:
 114 000a FFF7FEFF 		bl	substricmp
 115              	.LVL11:
 116 000e 0028     		cmp	r0, #0
 117 0010 0BD1     		bne	.L11
 429:Source\azure_iot_sdk\c-utility\src/crt_abstractions.c ****     {
 430:Source\azure_iot_sdk\c-utility\src/crt_abstractions.c ****         (*endptr) += 3;
 118              		.loc 1 430 0
 119 0012 0334     		adds	r4, r4, #3
 120 0014 2C60     		str	r4, [r5]
 121              	.LVL12:
 431:Source\azure_iot_sdk\c-utility\src/crt_abstractions.c ****         result = true;
 432:Source\azure_iot_sdk\c-utility\src/crt_abstractions.c ****         if (substricmp((*endptr), "INITY") == 0)
 122              		.loc 1 432 0
 123 0016 0849     		ldr	r1, .L13+4
 124 0018 2000     		movs	r0, r4
 125 001a FFF7FEFF 		bl	substricmp
 126              	.LVL13:
 127 001e 0028     		cmp	r0, #0
 128 0020 05D1     		bne	.L12
 433:Source\azure_iot_sdk\c-utility\src/crt_abstractions.c ****         {
 434:Source\azure_iot_sdk\c-utility\src/crt_abstractions.c ****             (*endptr) += 5;
 129              		.loc 1 434 0
 130 0022 0534     		adds	r4, r4, #5
 131 0024 2C60     		str	r4, [r5]
 431:Source\azure_iot_sdk\c-utility\src/crt_abstractions.c ****         result = true;
 132              		.loc 1 431 0
 133 0026 0130     		adds	r0, r0, #1
ARM GAS  C:\Users\Phuong\AppData\Local\Temp\cceqeziA.s 			page 11


 134 0028 02E0     		b	.L10
 135              	.LVL14:
 136              	.L11:
 427:Source\azure_iot_sdk\c-utility\src/crt_abstractions.c ****     if (substricmp((*endptr), "INF") == 0)
 137              		.loc 1 427 0
 138 002a 0020     		movs	r0, #0
 139 002c 00E0     		b	.L10
 140              	.LVL15:
 141              	.L12:
 431:Source\azure_iot_sdk\c-utility\src/crt_abstractions.c ****         result = true;
 142              		.loc 1 431 0
 143 002e 0120     		movs	r0, #1
 144              	.LVL16:
 145              	.L10:
 435:Source\azure_iot_sdk\c-utility\src/crt_abstractions.c ****         }
 436:Source\azure_iot_sdk\c-utility\src/crt_abstractions.c ****     }
 437:Source\azure_iot_sdk\c-utility\src/crt_abstractions.c ****     return result;
 438:Source\azure_iot_sdk\c-utility\src/crt_abstractions.c **** }
 146              		.loc 1 438 0
 147              		@ sp needed
 148              	.LVL17:
 149 0030 70BD     		pop	{r4, r5, r6, pc}
 150              	.L14:
 151 0032 C046     		.align	2
 152              	.L13:
 153 0034 00000000 		.word	.LC0
 154 0038 04000000 		.word	.LC2
 155              		.cfi_endproc
 156              	.LFE7:
 157              		.size	isInfinity, .-isInfinity
 158              		.section	.text.isNaN,"ax",%progbits
 159              		.align	2
 160              		.code	16
 161              		.thumb_func
 162              		.type	isNaN, %function
 163              	isNaN:
 164              	.LFB8:
 439:Source\azure_iot_sdk\c-utility\src/crt_abstractions.c **** 
 440:Source\azure_iot_sdk\c-utility\src/crt_abstractions.c **** /*Codes_SRS_CRT_ABSTRACTIONS_21_024: [If the string is 'NAN' or 'NAN(...)' (ignoring case), the str
 441:Source\azure_iot_sdk\c-utility\src/crt_abstractions.c **** /*Codes_SRS_CRT_ABSTRACTIONS_21_034: [If the string is 'NAN' or 'NAN(...)' (ignoring case), the str
 442:Source\azure_iot_sdk\c-utility\src/crt_abstractions.c **** static bool isNaN(const char** endptr)
 443:Source\azure_iot_sdk\c-utility\src/crt_abstractions.c **** {
 165              		.loc 1 443 0
 166              		.cfi_startproc
 167              		@ args = 0, pretend = 0, frame = 0
 168              		@ frame_needed = 0, uses_anonymous_args = 0
 169              	.LVL18:
 170 0000 70B5     		push	{r4, r5, r6, lr}
 171              		.cfi_def_cfa_offset 16
 172              		.cfi_offset 4, -16
 173              		.cfi_offset 5, -12
 174              		.cfi_offset 6, -8
 175              		.cfi_offset 14, -4
 176 0002 0500     		movs	r5, r0
 444:Source\azure_iot_sdk\c-utility\src/crt_abstractions.c ****     const char* runner = (*endptr);
 177              		.loc 1 444 0
 178 0004 0468     		ldr	r4, [r0]
ARM GAS  C:\Users\Phuong\AppData\Local\Temp\cceqeziA.s 			page 12


 179              	.LVL19:
 445:Source\azure_iot_sdk\c-utility\src/crt_abstractions.c ****     bool result = false;
 446:Source\azure_iot_sdk\c-utility\src/crt_abstractions.c ****     if (substricmp(runner, "NAN") == 0)
 180              		.loc 1 446 0
 181 0006 1049     		ldr	r1, .L23
 182 0008 2000     		movs	r0, r4
 183              	.LVL20:
 184 000a FFF7FEFF 		bl	substricmp
 185              	.LVL21:
 186 000e 0028     		cmp	r0, #0
 187 0010 0ED1     		bne	.L20
 447:Source\azure_iot_sdk\c-utility\src/crt_abstractions.c ****     {
 448:Source\azure_iot_sdk\c-utility\src/crt_abstractions.c ****         runner += 3;
 188              		.loc 1 448 0
 189 0012 E31C     		adds	r3, r4, #3
 190              	.LVL22:
 449:Source\azure_iot_sdk\c-utility\src/crt_abstractions.c ****         result = true;
 450:Source\azure_iot_sdk\c-utility\src/crt_abstractions.c ****         if ((*runner) == '(')
 191              		.loc 1 450 0
 192 0014 E278     		ldrb	r2, [r4, #3]
 193 0016 282A     		cmp	r2, #40
 194 0018 0CD1     		bne	.L21
 195              	.L18:
 451:Source\azure_iot_sdk\c-utility\src/crt_abstractions.c ****         {
 452:Source\azure_iot_sdk\c-utility\src/crt_abstractions.c ****             do
 453:Source\azure_iot_sdk\c-utility\src/crt_abstractions.c ****             {
 454:Source\azure_iot_sdk\c-utility\src/crt_abstractions.c ****                 runner++;
 196              		.loc 1 454 0 discriminator 2
 197 001a 0133     		adds	r3, r3, #1
 198              	.LVL23:
 455:Source\azure_iot_sdk\c-utility\src/crt_abstractions.c ****             } while (((*runner) != '\0') && ((*runner) != ')'));
 199              		.loc 1 455 0 discriminator 2
 200 001c 1A78     		ldrb	r2, [r3]
 201 001e 002A     		cmp	r2, #0
 202 0020 01D0     		beq	.L17
 203              		.loc 1 455 0 is_stmt 0 discriminator 1
 204 0022 292A     		cmp	r2, #41
 205 0024 F9D1     		bne	.L18
 206              	.L17:
 456:Source\azure_iot_sdk\c-utility\src/crt_abstractions.c ****             if ((*runner) == ')')
 207              		.loc 1 456 0 is_stmt 1
 208 0026 292A     		cmp	r2, #41
 209 0028 07D1     		bne	.L22
 457:Source\azure_iot_sdk\c-utility\src/crt_abstractions.c ****                 runner++;
 210              		.loc 1 457 0
 211 002a 5C1C     		adds	r4, r3, #1
 212              	.LVL24:
 449:Source\azure_iot_sdk\c-utility\src/crt_abstractions.c ****         if ((*runner) == '(')
 213              		.loc 1 449 0
 214 002c 0120     		movs	r0, #1
 215 002e 06E0     		b	.L16
 216              	.LVL25:
 217              	.L20:
 445:Source\azure_iot_sdk\c-utility\src/crt_abstractions.c ****     if (substricmp(runner, "NAN") == 0)
 218              		.loc 1 445 0
 219 0030 0020     		movs	r0, #0
 220 0032 04E0     		b	.L16
ARM GAS  C:\Users\Phuong\AppData\Local\Temp\cceqeziA.s 			page 13


 221              	.LVL26:
 222              	.L21:
 448:Source\azure_iot_sdk\c-utility\src/crt_abstractions.c ****         result = true;
 223              		.loc 1 448 0
 224 0034 1C00     		movs	r4, r3
 449:Source\azure_iot_sdk\c-utility\src/crt_abstractions.c ****         if ((*runner) == '(')
 225              		.loc 1 449 0
 226 0036 0120     		movs	r0, #1
 227 0038 01E0     		b	.L16
 228              	.L22:
 454:Source\azure_iot_sdk\c-utility\src/crt_abstractions.c ****             } while (((*runner) != '\0') && ((*runner) != ')'));
 229              		.loc 1 454 0
 230 003a 1C00     		movs	r4, r3
 458:Source\azure_iot_sdk\c-utility\src/crt_abstractions.c ****             else
 459:Source\azure_iot_sdk\c-utility\src/crt_abstractions.c ****                 result = false;
 231              		.loc 1 459 0
 232 003c 0020     		movs	r0, #0
 233              	.LVL27:
 234              	.L16:
 460:Source\azure_iot_sdk\c-utility\src/crt_abstractions.c ****         }
 461:Source\azure_iot_sdk\c-utility\src/crt_abstractions.c ****     }
 462:Source\azure_iot_sdk\c-utility\src/crt_abstractions.c ****     if (result)
 235              		.loc 1 462 0
 236 003e 0028     		cmp	r0, #0
 237 0040 00D0     		beq	.L19
 463:Source\azure_iot_sdk\c-utility\src/crt_abstractions.c ****         (*endptr) = runner;
 238              		.loc 1 463 0
 239 0042 2C60     		str	r4, [r5]
 240              	.L19:
 464:Source\azure_iot_sdk\c-utility\src/crt_abstractions.c ****     return result;
 465:Source\azure_iot_sdk\c-utility\src/crt_abstractions.c **** }
 241              		.loc 1 465 0
 242              		@ sp needed
 243              	.LVL28:
 244              	.LVL29:
 245 0044 70BD     		pop	{r4, r5, r6, pc}
 246              	.L24:
 247 0046 C046     		.align	2
 248              	.L23:
 249 0048 0C000000 		.word	.LC4
 250              		.cfi_endproc
 251              	.LFE8:
 252              		.size	isNaN, .-isNaN
 253              		.section	.text.strcat_s,"ax",%progbits
 254              		.align	2
 255              		.global	strcat_s
 256              		.code	16
 257              		.thumb_func
 258              		.type	strcat_s, %function
 259              	strcat_s:
 260              	.LFB1:
  50:Source\azure_iot_sdk\c-utility\src/crt_abstractions.c ****     int result;
 261              		.loc 1 50 0
 262              		.cfi_startproc
 263              		@ args = 0, pretend = 0, frame = 8
 264              		@ frame_needed = 0, uses_anonymous_args = 0
 265              	.LVL30:
ARM GAS  C:\Users\Phuong\AppData\Local\Temp\cceqeziA.s 			page 14


 266 0000 F0B5     		push	{r4, r5, r6, r7, lr}
 267              		.cfi_def_cfa_offset 20
 268              		.cfi_offset 4, -20
 269              		.cfi_offset 5, -16
 270              		.cfi_offset 6, -12
 271              		.cfi_offset 7, -8
 272              		.cfi_offset 14, -4
 273 0002 83B0     		sub	sp, sp, #12
 274              		.cfi_def_cfa_offset 32
 275 0004 0500     		movs	r5, r0
 276 0006 0F00     		movs	r7, r1
 277 0008 1600     		movs	r6, r2
  53:Source\azure_iot_sdk\c-utility\src/crt_abstractions.c ****     {
 278              		.loc 1 53 0
 279 000a 0028     		cmp	r0, #0
 280 000c 38D0     		beq	.L35
  58:Source\azure_iot_sdk\c-utility\src/crt_abstractions.c ****     {
 281              		.loc 1 58 0
 282 000e 002A     		cmp	r2, #0
 283 0010 03D1     		bne	.L27
  60:Source\azure_iot_sdk\c-utility\src/crt_abstractions.c ****         result = EINVAL;
 284              		.loc 1 60 0
 285 0012 0023     		movs	r3, #0
 286 0014 0370     		strb	r3, [r0]
 287              	.LVL31:
  61:Source\azure_iot_sdk\c-utility\src/crt_abstractions.c ****     }
 288              		.loc 1 61 0
 289 0016 1620     		movs	r0, #22
 290              	.LVL32:
 291 0018 35E0     		b	.L26
 292              	.LVL33:
 293              	.L27:
  66:Source\azure_iot_sdk\c-utility\src/crt_abstractions.c ****         {
 294              		.loc 1 66 0
 295 001a 0029     		cmp	r1, #0
 296 001c 03D1     		bne	.L28
 297              	.LVL34:
  69:Source\azure_iot_sdk\c-utility\src/crt_abstractions.c ****         }
 298              		.loc 1 69 0
 299 001e 0023     		movs	r3, #0
 300 0020 0370     		strb	r3, [r0]
  68:Source\azure_iot_sdk\c-utility\src/crt_abstractions.c ****             dst[0] = '\0';
 301              		.loc 1 68 0
 302 0022 2220     		movs	r0, #34
 303              	.LVL35:
 304 0024 2FE0     		b	.L26
 305              	.LVL36:
 306              	.L28:
 307              	.LBB2:
  74:Source\azure_iot_sdk\c-utility\src/crt_abstractions.c **** #ifdef __STDC_LIB_EXT1__
 308              		.loc 1 74 0
 309 0026 1000     		movs	r0, r2
 310              	.LVL37:
 311 0028 FFF7FEFF 		bl	strlen
 312              	.LVL38:
 313 002c 0190     		str	r0, [sp, #4]
 314              	.LVL39:
ARM GAS  C:\Users\Phuong\AppData\Local\Temp\cceqeziA.s 			page 15


  79:Source\azure_iot_sdk\c-utility\src/crt_abstractions.c ****             {
 315              		.loc 1 79 0
 316 002e 0024     		movs	r4, #0
 317 0030 00E0     		b	.L29
 318              	.LVL40:
 319              	.L31:
  79:Source\azure_iot_sdk\c-utility\src/crt_abstractions.c ****             {
 320              		.loc 1 79 0 is_stmt 0 discriminator 4
 321 0032 0134     		adds	r4, r4, #1
 322              	.LVL41:
 323              	.L29:
  79:Source\azure_iot_sdk\c-utility\src/crt_abstractions.c ****             {
 324              		.loc 1 79 0 discriminator 1
 325 0034 BC42     		cmp	r4, r7
 326 0036 02D2     		bcs	.L30
  79:Source\azure_iot_sdk\c-utility\src/crt_abstractions.c ****             {
 327              		.loc 1 79 0 discriminator 3
 328 0038 2B5D     		ldrb	r3, [r5, r4]
 329 003a 002B     		cmp	r3, #0
 330 003c F9D1     		bne	.L31
 331              	.L30:
 332              	.LVL42:
  85:Source\azure_iot_sdk\c-utility\src/crt_abstractions.c ****             {
 333              		.loc 1 85 0 is_stmt 1
 334 003e BC42     		cmp	r4, r7
 335 0040 20D0     		beq	.L36
  91:Source\azure_iot_sdk\c-utility\src/crt_abstractions.c ****             {
 336              		.loc 1 91 0
 337 0042 2018     		adds	r0, r4, r0
 338              	.LVL43:
 339 0044 8742     		cmp	r7, r0
 340 0046 03D8     		bhi	.L32
  93:Source\azure_iot_sdk\c-utility\src/crt_abstractions.c ****                 result = ERANGE;
 341              		.loc 1 93 0
 342 0048 0023     		movs	r3, #0
 343 004a 2B70     		strb	r3, [r5]
 344              	.LVL44:
  94:Source\azure_iot_sdk\c-utility\src/crt_abstractions.c ****             }
 345              		.loc 1 94 0
 346 004c 2220     		movs	r0, #34
 347 004e 1AE0     		b	.L26
 348              	.LVL45:
 349              	.L32:
 350              	.LBB3:
 100:Source\azure_iot_sdk\c-utility\src/crt_abstractions.c ****                 if (bytes_to_cpy > src_len)
 351              		.loc 1 100 0
 352 0050 3B1B     		subs	r3, r7, r4
 353              	.LVL46:
 101:Source\azure_iot_sdk\c-utility\src/crt_abstractions.c ****                 {
 354              		.loc 1 101 0
 355 0052 019A     		ldr	r2, [sp, #4]
 356 0054 9A42     		cmp	r2, r3
 357 0056 00D3     		bcc	.L33
 100:Source\azure_iot_sdk\c-utility\src/crt_abstractions.c ****                 if (bytes_to_cpy > src_len)
 358              		.loc 1 100 0
 359 0058 0193     		str	r3, [sp, #4]
 360              	.LVL47:
ARM GAS  C:\Users\Phuong\AppData\Local\Temp\cceqeziA.s 			page 16


 361              	.L33:
 107:Source\azure_iot_sdk\c-utility\src/crt_abstractions.c ****                 /*Codes_SRS_CRT_ABSTRACTIONS_99_006: [If the dstSizeInBytes is 0 or smaller than th
 362              		.loc 1 107 0
 363 005a 2819     		adds	r0, r5, r4
 364 005c 019A     		ldr	r2, [sp, #4]
 365 005e 3100     		movs	r1, r6
 366 0060 FFF7FEFF 		bl	memcpy
 367              	.LVL48:
 368 0064 0028     		cmp	r0, #0
 369 0066 03D1     		bne	.L34
 110:Source\azure_iot_sdk\c-utility\src/crt_abstractions.c ****                     result = ERANGE;
 370              		.loc 1 110 0
 371 0068 0023     		movs	r3, #0
 372 006a 2B70     		strb	r3, [r5]
 373              	.LVL49:
 111:Source\azure_iot_sdk\c-utility\src/crt_abstractions.c ****                 }
 374              		.loc 1 111 0
 375 006c 2230     		adds	r0, r0, #34
 376 006e 0AE0     		b	.L26
 377              	.LVL50:
 378              	.L34:
 116:Source\azure_iot_sdk\c-utility\src/crt_abstractions.c ****                     result = 0;
 379              		.loc 1 116 0
 380 0070 019B     		ldr	r3, [sp, #4]
 381 0072 9C46     		mov	ip, r3
 382 0074 6444     		add	r4, r4, ip
 383              	.LVL51:
 384 0076 2D19     		adds	r5, r5, r4
 385              	.LVL52:
 386 0078 0023     		movs	r3, #0
 387 007a 2B70     		strb	r3, [r5]
 388              	.LVL53:
 117:Source\azure_iot_sdk\c-utility\src/crt_abstractions.c ****                 }
 389              		.loc 1 117 0
 390 007c 0020     		movs	r0, #0
 391 007e 02E0     		b	.L26
 392              	.LVL54:
 393              	.L35:
 394              	.LBE3:
 395              	.LBE2:
  55:Source\azure_iot_sdk\c-utility\src/crt_abstractions.c ****     }
 396              		.loc 1 55 0
 397 0080 1620     		movs	r0, #22
 398              	.LVL55:
 399 0082 00E0     		b	.L26
 400              	.LVL56:
 401              	.L36:
 402              	.LBB4:
  87:Source\azure_iot_sdk\c-utility\src/crt_abstractions.c ****             }
 403              		.loc 1 87 0
 404 0084 1620     		movs	r0, #22
 405              	.LVL57:
 406              	.L26:
 407              	.LBE4:
 123:Source\azure_iot_sdk\c-utility\src/crt_abstractions.c **** 
 408              		.loc 1 123 0
 409 0086 03B0     		add	sp, sp, #12
ARM GAS  C:\Users\Phuong\AppData\Local\Temp\cceqeziA.s 			page 17


 410              		@ sp needed
 411              	.LVL58:
 412              	.LVL59:
 413 0088 F0BD     		pop	{r4, r5, r6, r7, pc}
 414              		.cfi_endproc
 415              	.LFE1:
 416              		.size	strcat_s, .-strcat_s
 417 008a C046     		.section	.text.strncpy_s,"ax",%progbits
 418              		.align	2
 419              		.global	strncpy_s
 420              		.code	16
 421              		.thumb_func
 422              		.type	strncpy_s, %function
 423              	strncpy_s:
 424              	.LFB2:
 127:Source\azure_iot_sdk\c-utility\src/crt_abstractions.c ****     int result;
 425              		.loc 1 127 0
 426              		.cfi_startproc
 427              		@ args = 0, pretend = 0, frame = 0
 428              		@ frame_needed = 0, uses_anonymous_args = 0
 429              	.LVL60:
 430 0000 F0B5     		push	{r4, r5, r6, r7, lr}
 431              		.cfi_def_cfa_offset 20
 432              		.cfi_offset 4, -20
 433              		.cfi_offset 5, -16
 434              		.cfi_offset 6, -12
 435              		.cfi_offset 7, -8
 436              		.cfi_offset 14, -4
 437 0002 4746     		mov	r7, r8
 438 0004 80B4     		push	{r7}
 439              		.cfi_def_cfa_offset 24
 440              		.cfi_offset 8, -24
 441 0006 0400     		movs	r4, r0
 442 0008 0F00     		movs	r7, r1
 443 000a 1500     		movs	r5, r2
 444 000c 1E00     		movs	r6, r3
 445              	.LVL61:
 131:Source\azure_iot_sdk\c-utility\src/crt_abstractions.c ****     {
 446              		.loc 1 131 0
 447 000e 0028     		cmp	r0, #0
 448 0010 36D0     		beq	.L45
 136:Source\azure_iot_sdk\c-utility\src/crt_abstractions.c ****     {
 449              		.loc 1 136 0
 450 0012 002A     		cmp	r2, #0
 451 0014 04D1     		bne	.L39
 138:Source\azure_iot_sdk\c-utility\src/crt_abstractions.c ****         result = EINVAL;
 452              		.loc 1 138 0
 453 0016 0023     		movs	r3, #0
 454              	.LVL62:
 455 0018 0370     		strb	r3, [r0]
 456              	.LVL63:
 129:Source\azure_iot_sdk\c-utility\src/crt_abstractions.c ****     /*Codes_SRS_CRT_ABSTRACTIONS_99_020: [If dst is NULL, the error code returned shall be EINVAL a
 457              		.loc 1 129 0
 458 001a 0026     		movs	r6, #0
 459              	.LVL64:
 139:Source\azure_iot_sdk\c-utility\src/crt_abstractions.c ****     }
 460              		.loc 1 139 0
ARM GAS  C:\Users\Phuong\AppData\Local\Temp\cceqeziA.s 			page 18


 461 001c 1620     		movs	r0, #22
 462              	.LVL65:
 463 001e 34E0     		b	.L38
 464              	.LVL66:
 465              	.L39:
 142:Source\azure_iot_sdk\c-utility\src/crt_abstractions.c ****     {
 466              		.loc 1 142 0
 467 0020 0029     		cmp	r1, #0
 468 0022 30D0     		beq	.L46
 469              	.LBB5:
 148:Source\azure_iot_sdk\c-utility\src/crt_abstractions.c ****         if (maxCount != _TRUNCATE)
 470              		.loc 1 148 0
 471 0024 1000     		movs	r0, r2
 472              	.LVL67:
 473 0026 FFF7FEFF 		bl	strlen
 474              	.LVL68:
 475 002a 8046     		mov	r8, r0
 476              	.LVL69:
 149:Source\azure_iot_sdk\c-utility\src/crt_abstractions.c ****         {
 477              		.loc 1 149 0
 478 002c 731C     		adds	r3, r6, #1
 479 002e 15D0     		beq	.L40
 152:Source\azure_iot_sdk\c-utility\src/crt_abstractions.c ****             {
 480              		.loc 1 152 0
 481 0030 B042     		cmp	r0, r6
 482 0032 00D8     		bhi	.L41
 148:Source\azure_iot_sdk\c-utility\src/crt_abstractions.c ****         if (maxCount != _TRUNCATE)
 483              		.loc 1 148 0
 484 0034 0600     		movs	r6, r0
 485              	.LVL70:
 486              	.L41:
 158:Source\azure_iot_sdk\c-utility\src/crt_abstractions.c ****             {
 487              		.loc 1 158 0
 488 0036 731C     		adds	r3, r6, #1
 489 0038 9F42     		cmp	r7, r3
 490 003a 04D2     		bcs	.L42
 160:Source\azure_iot_sdk\c-utility\src/crt_abstractions.c ****                 result = ERANGE;
 491              		.loc 1 160 0
 492 003c 0023     		movs	r3, #0
 493 003e 2370     		strb	r3, [r4]
 494              	.LVL71:
 495              	.LBE5:
 129:Source\azure_iot_sdk\c-utility\src/crt_abstractions.c ****     /*Codes_SRS_CRT_ABSTRACTIONS_99_020: [If dst is NULL, the error code returned shall be EINVAL a
 496              		.loc 1 129 0
 497 0040 0026     		movs	r6, #0
 498              	.LVL72:
 499              	.LBB6:
 161:Source\azure_iot_sdk\c-utility\src/crt_abstractions.c ****             }
 500              		.loc 1 161 0
 501 0042 2220     		movs	r0, #34
 502 0044 21E0     		b	.L38
 503              	.LVL73:
 504              	.L42:
 165:Source\azure_iot_sdk\c-utility\src/crt_abstractions.c ****                 dst[srcLength] = '\0';
 505              		.loc 1 165 0
 506 0046 3200     		movs	r2, r6
 507 0048 2900     		movs	r1, r5
ARM GAS  C:\Users\Phuong\AppData\Local\Temp\cceqeziA.s 			page 19


 508 004a 2000     		movs	r0, r4
 509 004c FFF7FEFF 		bl	memcpy
 510              	.LVL74:
 166:Source\azure_iot_sdk\c-utility\src/crt_abstractions.c ****                 /*Codes_SRS_CRT_ABSTRACTIONS_99_018: [strncpy_s shall return Zero upon success]*/
 511              		.loc 1 166 0
 512 0050 A419     		adds	r4, r4, r6
 513              	.LVL75:
 514 0052 0023     		movs	r3, #0
 515 0054 2370     		strb	r3, [r4]
 516              	.LVL76:
 517              	.LBE6:
 129:Source\azure_iot_sdk\c-utility\src/crt_abstractions.c ****     /*Codes_SRS_CRT_ABSTRACTIONS_99_020: [If dst is NULL, the error code returned shall be EINVAL a
 518              		.loc 1 129 0
 519 0056 0026     		movs	r6, #0
 520              	.LVL77:
 521              	.LBB7:
 168:Source\azure_iot_sdk\c-utility\src/crt_abstractions.c ****             }
 522              		.loc 1 168 0
 523 0058 0020     		movs	r0, #0
 524 005a 16E0     		b	.L38
 525              	.LVL78:
 526              	.L40:
 174:Source\azure_iot_sdk\c-utility\src/crt_abstractions.c ****             {
 527              		.loc 1 174 0
 528 005c 0130     		adds	r0, r0, #1
 529              	.LVL79:
 530 005e 8742     		cmp	r7, r0
 531 0060 03D2     		bcs	.L47
 176:Source\azure_iot_sdk\c-utility\src/crt_abstractions.c ****                 truncationFlag = 1;
 532              		.loc 1 176 0
 533 0062 7B1E     		subs	r3, r7, #1
 534 0064 9846     		mov	r8, r3
 535              	.LVL80:
 177:Source\azure_iot_sdk\c-utility\src/crt_abstractions.c ****             }
 536              		.loc 1 177 0
 537 0066 0126     		movs	r6, #1
 538              	.LVL81:
 539 0068 00E0     		b	.L43
 540              	.LVL82:
 541              	.L47:
 542              	.LBE7:
 129:Source\azure_iot_sdk\c-utility\src/crt_abstractions.c ****     /*Codes_SRS_CRT_ABSTRACTIONS_99_020: [If dst is NULL, the error code returned shall be EINVAL a
 543              		.loc 1 129 0
 544 006a 0026     		movs	r6, #0
 545              	.LVL83:
 546              	.L43:
 547              	.LBB8:
 179:Source\azure_iot_sdk\c-utility\src/crt_abstractions.c ****             dst[srcLength] = '\0';
 548              		.loc 1 179 0
 549 006c 4246     		mov	r2, r8
 550 006e 2900     		movs	r1, r5
 551 0070 2000     		movs	r0, r4
 552 0072 FFF7FEFF 		bl	memcpy
 553              	.LVL84:
 180:Source\azure_iot_sdk\c-utility\src/crt_abstractions.c ****             result = 0;
 554              		.loc 1 180 0
 555 0076 4444     		add	r4, r4, r8
ARM GAS  C:\Users\Phuong\AppData\Local\Temp\cceqeziA.s 			page 20


 556              	.LVL85:
 557 0078 0023     		movs	r3, #0
 558 007a 2370     		strb	r3, [r4]
 559              	.LVL86:
 181:Source\azure_iot_sdk\c-utility\src/crt_abstractions.c ****         }
 560              		.loc 1 181 0
 561 007c 0020     		movs	r0, #0
 562 007e 04E0     		b	.L38
 563              	.LVL87:
 564              	.L45:
 565              	.LBE8:
 129:Source\azure_iot_sdk\c-utility\src/crt_abstractions.c ****     /*Codes_SRS_CRT_ABSTRACTIONS_99_020: [If dst is NULL, the error code returned shall be EINVAL a
 566              		.loc 1 129 0
 567 0080 0026     		movs	r6, #0
 133:Source\azure_iot_sdk\c-utility\src/crt_abstractions.c ****     }
 568              		.loc 1 133 0
 569 0082 1620     		movs	r0, #22
 570              	.LVL88:
 571 0084 01E0     		b	.L38
 572              	.LVL89:
 573              	.L46:
 129:Source\azure_iot_sdk\c-utility\src/crt_abstractions.c ****     /*Codes_SRS_CRT_ABSTRACTIONS_99_020: [If dst is NULL, the error code returned shall be EINVAL a
 574              		.loc 1 129 0
 575 0086 0026     		movs	r6, #0
 144:Source\azure_iot_sdk\c-utility\src/crt_abstractions.c ****     }
 576              		.loc 1 144 0
 577 0088 1620     		movs	r0, #22
 578              	.LVL90:
 579              	.L38:
 186:Source\azure_iot_sdk\c-utility\src/crt_abstractions.c ****     {
 580              		.loc 1 186 0
 581 008a 012E     		cmp	r6, #1
 582 008c 00D1     		bne	.L44
 188:Source\azure_iot_sdk\c-utility\src/crt_abstractions.c ****     }
 583              		.loc 1 188 0
 584 008e 5020     		movs	r0, #80
 585              	.LVL91:
 586              	.L44:
 192:Source\azure_iot_sdk\c-utility\src/crt_abstractions.c **** 
 587              		.loc 1 192 0
 588              		@ sp needed
 589              	.LVL92:
 590              	.LVL93:
 591              	.LVL94:
 592 0090 04BC     		pop	{r2}
 593 0092 9046     		mov	r8, r2
 594 0094 F0BD     		pop	{r4, r5, r6, r7, pc}
 595              		.cfi_endproc
 596              	.LFE2:
 597              		.size	strncpy_s, .-strncpy_s
 598 0096 C046     		.section	.text.strcpy_s,"ax",%progbits
 599              		.align	2
 600              		.global	strcpy_s
 601              		.code	16
 602              		.thumb_func
 603              		.type	strcpy_s, %function
 604              	strcpy_s:
ARM GAS  C:\Users\Phuong\AppData\Local\Temp\cceqeziA.s 			page 21


 605              	.LFB3:
 196:Source\azure_iot_sdk\c-utility\src/crt_abstractions.c ****     int result;
 606              		.loc 1 196 0
 607              		.cfi_startproc
 608              		@ args = 0, pretend = 0, frame = 0
 609              		@ frame_needed = 0, uses_anonymous_args = 0
 610              	.LVL95:
 611 0000 70B5     		push	{r4, r5, r6, lr}
 612              		.cfi_def_cfa_offset 16
 613              		.cfi_offset 4, -16
 614              		.cfi_offset 5, -12
 615              		.cfi_offset 6, -8
 616              		.cfi_offset 14, -4
 617 0002 0400     		movs	r4, r0
 618 0004 0E00     		movs	r6, r1
 619 0006 1500     		movs	r5, r2
 200:Source\azure_iot_sdk\c-utility\src/crt_abstractions.c ****     {
 620              		.loc 1 200 0
 621 0008 0028     		cmp	r0, #0
 622 000a 1BD0     		beq	.L54
 205:Source\azure_iot_sdk\c-utility\src/crt_abstractions.c ****     {
 623              		.loc 1 205 0
 624 000c 002A     		cmp	r2, #0
 625 000e 03D1     		bne	.L51
 207:Source\azure_iot_sdk\c-utility\src/crt_abstractions.c ****         result = EINVAL;
 626              		.loc 1 207 0
 627 0010 0023     		movs	r3, #0
 628 0012 0370     		strb	r3, [r0]
 629              	.LVL96:
 208:Source\azure_iot_sdk\c-utility\src/crt_abstractions.c ****     }
 630              		.loc 1 208 0
 631 0014 1620     		movs	r0, #22
 632              	.LVL97:
 633 0016 16E0     		b	.L50
 634              	.LVL98:
 635              	.L51:
 211:Source\azure_iot_sdk\c-utility\src/crt_abstractions.c ****     {
 636              		.loc 1 211 0
 637 0018 0029     		cmp	r1, #0
 638 001a 03D1     		bne	.L52
 213:Source\azure_iot_sdk\c-utility\src/crt_abstractions.c ****         result = ERANGE;
 639              		.loc 1 213 0
 640 001c 0023     		movs	r3, #0
 641 001e 0370     		strb	r3, [r0]
 642              	.LVL99:
 214:Source\azure_iot_sdk\c-utility\src/crt_abstractions.c ****     }
 643              		.loc 1 214 0
 644 0020 2220     		movs	r0, #34
 645              	.LVL100:
 646 0022 10E0     		b	.L50
 647              	.LVL101:
 648              	.L52:
 649              	.LBB9:
 218:Source\azure_iot_sdk\c-utility\src/crt_abstractions.c ****         /* Codes_SRS_CRT_ABSTRACTIONS_99_014: [If the dstSizeInBytes is 0 or smaller than the requi
 650              		.loc 1 218 0
 651 0024 1000     		movs	r0, r2
 652              	.LVL102:
ARM GAS  C:\Users\Phuong\AppData\Local\Temp\cceqeziA.s 			page 22


 653 0026 FFF7FEFF 		bl	strlen
 654              	.LVL103:
 220:Source\azure_iot_sdk\c-utility\src/crt_abstractions.c ****         {
 655              		.loc 1 220 0
 656 002a 421C     		adds	r2, r0, #1
 657 002c 9642     		cmp	r6, r2
 658 002e 03D2     		bcs	.L53
 222:Source\azure_iot_sdk\c-utility\src/crt_abstractions.c ****             result = ERANGE;
 659              		.loc 1 222 0
 660 0030 0023     		movs	r3, #0
 661 0032 2370     		strb	r3, [r4]
 662              	.LVL104:
 223:Source\azure_iot_sdk\c-utility\src/crt_abstractions.c ****         }
 663              		.loc 1 223 0
 664 0034 2220     		movs	r0, #34
 665              	.LVL105:
 666 0036 06E0     		b	.L50
 667              	.LVL106:
 668              	.L53:
 227:Source\azure_iot_sdk\c-utility\src/crt_abstractions.c ****             /*Codes_SRS_CRT_ABSTRACTIONS_99_011: [strcpy_s shall return Zero upon success]*/
 669              		.loc 1 227 0
 670 0038 2900     		movs	r1, r5
 671 003a 2000     		movs	r0, r4
 672              	.LVL107:
 673 003c FFF7FEFF 		bl	memcpy
 674              	.LVL108:
 229:Source\azure_iot_sdk\c-utility\src/crt_abstractions.c ****         }
 675              		.loc 1 229 0
 676 0040 0020     		movs	r0, #0
 677 0042 00E0     		b	.L50
 678              	.LVL109:
 679              	.L54:
 680              	.LBE9:
 202:Source\azure_iot_sdk\c-utility\src/crt_abstractions.c ****     }
 681              		.loc 1 202 0
 682 0044 1620     		movs	r0, #22
 683              	.LVL110:
 684              	.L50:
 234:Source\azure_iot_sdk\c-utility\src/crt_abstractions.c **** 
 685              		.loc 1 234 0
 686              		@ sp needed
 687              	.LVL111:
 688              	.LVL112:
 689              	.LVL113:
 690 0046 70BD     		pop	{r4, r5, r6, pc}
 691              		.cfi_endproc
 692              	.LFE3:
 693              		.size	strcpy_s, .-strcpy_s
 694              		.section	.text.sprintf_s,"ax",%progbits
 695              		.align	2
 696              		.global	sprintf_s
 697              		.code	16
 698              		.thumb_func
 699              		.type	sprintf_s, %function
 700              	sprintf_s:
 701              	.LFB4:
 239:Source\azure_iot_sdk\c-utility\src/crt_abstractions.c ****     int result;
ARM GAS  C:\Users\Phuong\AppData\Local\Temp\cceqeziA.s 			page 23


 702              		.loc 1 239 0
 703              		.cfi_startproc
 704              		@ args = 4, pretend = 8, frame = 8
 705              		@ frame_needed = 0, uses_anonymous_args = 1
 706              	.LVL114:
 707 0000 0CB4     		push	{r2, r3}
 708              		.cfi_def_cfa_offset 8
 709 0002 30B5     		push	{r4, r5, lr}
 710              		.cfi_def_cfa_offset 20
 711              		.cfi_offset 4, -20
 712              		.cfi_offset 5, -16
 713              		.cfi_offset 14, -12
 714 0004 83B0     		sub	sp, sp, #12
 715              		.cfi_def_cfa_offset 32
 716 0006 0400     		movs	r4, r0
 717 0008 0D00     		movs	r5, r1
 242:Source\azure_iot_sdk\c-utility\src/crt_abstractions.c ****         (format == NULL))
 718              		.loc 1 242 0
 719 000a 0028     		cmp	r0, #0
 720 000c 02D0     		beq	.L56
 242:Source\azure_iot_sdk\c-utility\src/crt_abstractions.c ****         (format == NULL))
 721              		.loc 1 242 0 is_stmt 0 discriminator 1
 722 000e 069B     		ldr	r3, [sp, #24]
 723 0010 002B     		cmp	r3, #0
 724 0012 06D1     		bne	.L57
 725              	.L56:
 245:Source\azure_iot_sdk\c-utility\src/crt_abstractions.c ****         result = -1;
 726              		.loc 1 245 0 is_stmt 1
 727 0014 FFF7FEFF 		bl	__errno
 728              	.LVL115:
 729 0018 1623     		movs	r3, #22
 730 001a 0360     		str	r3, [r0]
 731              	.LVL116:
 246:Source\azure_iot_sdk\c-utility\src/crt_abstractions.c ****     }
 732              		.loc 1 246 0
 733 001c 0120     		movs	r0, #1
 734 001e 4042     		rsbs	r0, r0, #0
 735 0020 0FE0     		b	.L58
 736              	.LVL117:
 737              	.L57:
 738              	.LBB10:
 263:Source\azure_iot_sdk\c-utility\src/crt_abstractions.c ****         /*Codes_SRS_CRT_ABSTRACTIONS_99_027: [sprintf_s shall return the number of characters store
 739              		.loc 1 263 0
 740 0022 07AB     		add	r3, sp, #28
 741 0024 0193     		str	r3, [sp, #4]
 265:Source\azure_iot_sdk\c-utility\src/crt_abstractions.c ****         va_end(args);
 742              		.loc 1 265 0
 743 0026 069A     		ldr	r2, [sp, #24]
 744 0028 FFF7FEFF 		bl	vsnprintf
 745              	.LVL118:
 269:Source\azure_iot_sdk\c-utility\src/crt_abstractions.c ****         {
 746              		.loc 1 269 0
 747 002c 0028     		cmp	r0, #0
 748 002e 06DB     		blt	.L60
 273:Source\azure_iot_sdk\c-utility\src/crt_abstractions.c ****         {
 749              		.loc 1 273 0
 750 0030 8542     		cmp	r5, r0
ARM GAS  C:\Users\Phuong\AppData\Local\Temp\cceqeziA.s 			page 24


 751 0032 06D8     		bhi	.L58
 276:Source\azure_iot_sdk\c-utility\src/crt_abstractions.c ****             result = -1;
 752              		.loc 1 276 0
 753 0034 0023     		movs	r3, #0
 754 0036 2370     		strb	r3, [r4]
 755              	.LVL119:
 277:Source\azure_iot_sdk\c-utility\src/crt_abstractions.c ****         }
 756              		.loc 1 277 0
 757 0038 0120     		movs	r0, #1
 758 003a 4042     		rsbs	r0, r0, #0
 759 003c 01E0     		b	.L58
 760              	.LVL120:
 761              	.L60:
 271:Source\azure_iot_sdk\c-utility\src/crt_abstractions.c ****         }
 762              		.loc 1 271 0
 763 003e 0120     		movs	r0, #1
 764              	.LVL121:
 765 0040 4042     		rsbs	r0, r0, #0
 766              	.LVL122:
 767              	.L58:
 768              	.LBE10:
 292:Source\azure_iot_sdk\c-utility\src/crt_abstractions.c **** #endif /* _MSC_VER || MINGW_HAS_SECURE_API */
 769              		.loc 1 292 0
 770 0042 03B0     		add	sp, sp, #12
 771              		@ sp needed
 772              	.LVL123:
 773              	.LVL124:
 774 0044 30BC     		pop	{r4, r5}
 775 0046 08BC     		pop	{r3}
 776 0048 02B0     		add	sp, sp, #8
 777 004a 1847     		bx	r3
 778              		.cfi_endproc
 779              	.LFE4:
 780              		.size	sprintf_s, .-sprintf_s
 781              		.global	__aeabi_uldivmod
 782              		.global	__aeabi_lmul
 783              		.section	.text.strtoull_s,"ax",%progbits
 784              		.align	2
 785              		.global	strtoull_s
 786              		.code	16
 787              		.thumb_func
 788              		.type	strtoull_s, %function
 789              	strtoull_s:
 790              	.LFB5:
 307:Source\azure_iot_sdk\c-utility\src/crt_abstractions.c ****     unsigned long long result = 0ULL;
 791              		.loc 1 307 0
 792              		.cfi_startproc
 793              		@ args = 0, pretend = 0, frame = 16
 794              		@ frame_needed = 0, uses_anonymous_args = 0
 795              	.LVL125:
 796 0000 F0B5     		push	{r4, r5, r6, r7, lr}
 797              		.cfi_def_cfa_offset 20
 798              		.cfi_offset 4, -20
 799              		.cfi_offset 5, -16
 800              		.cfi_offset 6, -12
 801              		.cfi_offset 7, -8
 802              		.cfi_offset 14, -4
ARM GAS  C:\Users\Phuong\AppData\Local\Temp\cceqeziA.s 			page 25


 803 0002 5F46     		mov	r7, fp
 804 0004 5646     		mov	r6, r10
 805 0006 4D46     		mov	r5, r9
 806 0008 4446     		mov	r4, r8
 807 000a F0B4     		push	{r4, r5, r6, r7}
 808              		.cfi_def_cfa_offset 36
 809              		.cfi_offset 8, -36
 810              		.cfi_offset 9, -32
 811              		.cfi_offset 10, -28
 812              		.cfi_offset 11, -24
 813 000c 85B0     		sub	sp, sp, #20
 814              		.cfi_def_cfa_offset 56
 815 000e 0700     		movs	r7, r0
 816 0010 8A46     		mov	r10, r1
 817 0012 9046     		mov	r8, r2
 818              	.LVL126:
 318:Source\azure_iot_sdk\c-utility\src/crt_abstractions.c ****     {
 819              		.loc 1 318 0
 820 0014 012A     		cmp	r2, #1
 821 0016 02DC     		bgt	.L62
 318:Source\azure_iot_sdk\c-utility\src/crt_abstractions.c ****     {
 822              		.loc 1 318 0 is_stmt 0 discriminator 2
 823 0018 002A     		cmp	r2, #0
 824 001a 00D0     		beq	.LCB852
 825 001c AFE0     		b	.L86	@long jump
 826              	.LCB852:
 827              	.L62:
 318:Source\azure_iot_sdk\c-utility\src/crt_abstractions.c ****     {
 828              		.loc 1 318 0 discriminator 3
 829 001e 4346     		mov	r3, r8
 830 0020 242B     		cmp	r3, #36
 831 0022 00DD     		ble	.LCB856
 832 0024 B0E0     		b	.L87	@long jump
 833              	.LCB856:
 318:Source\azure_iot_sdk\c-utility\src/crt_abstractions.c ****     {
 834              		.loc 1 318 0 discriminator 4
 835 0026 002F     		cmp	r7, #0
 836 0028 06D1     		bne	.L88
 311:Source\azure_iot_sdk\c-utility\src/crt_abstractions.c ****     int digitVal;
 837              		.loc 1 311 0 is_stmt 1
 838 002a 0023     		movs	r3, #0
 839 002c 9946     		mov	r9, r3
 308:Source\azure_iot_sdk\c-utility\src/crt_abstractions.c ****     bool validStr = true;
 840              		.loc 1 308 0
 841 002e 0024     		movs	r4, #0
 842 0030 0025     		movs	r5, #0
 843 0032 B5E0     		b	.L63
 844              	.LVL127:
 845              	.L65:
 324:Source\azure_iot_sdk\c-utility\src/crt_abstractions.c ****         }
 846              		.loc 1 324 0
 847 0034 0134     		adds	r4, r4, #1
 848              	.LVL128:
 849 0036 00E0     		b	.L64
 850              	.LVL129:
 851              	.L88:
 852 0038 3C00     		movs	r4, r7
ARM GAS  C:\Users\Phuong\AppData\Local\Temp\cceqeziA.s 			page 26


 853              	.LVL130:
 854              	.L64:
 322:Source\azure_iot_sdk\c-utility\src/crt_abstractions.c ****         {
 855              		.loc 1 322 0
 856 003a 2378     		ldrb	r3, [r4]
 857 003c 202B     		cmp	r3, #32
 858 003e F9D0     		beq	.L65
 322:Source\azure_iot_sdk\c-utility\src/crt_abstractions.c ****         {
 859              		.loc 1 322 0 is_stmt 0 discriminator 1
 860 0040 0C2B     		cmp	r3, #12
 861 0042 F7D0     		beq	.L65
 322:Source\azure_iot_sdk\c-utility\src/crt_abstractions.c ****         {
 862              		.loc 1 322 0 discriminator 2
 863 0044 0A2B     		cmp	r3, #10
 864 0046 F5D0     		beq	.L65
 322:Source\azure_iot_sdk\c-utility\src/crt_abstractions.c ****         {
 865              		.loc 1 322 0 discriminator 3
 866 0048 0D2B     		cmp	r3, #13
 867 004a F3D0     		beq	.L65
 322:Source\azure_iot_sdk\c-utility\src/crt_abstractions.c ****         {
 868              		.loc 1 322 0 discriminator 4
 869 004c 092B     		cmp	r3, #9
 870 004e F1D0     		beq	.L65
 322:Source\azure_iot_sdk\c-utility\src/crt_abstractions.c ****         {
 871              		.loc 1 322 0 discriminator 5
 872 0050 0B2B     		cmp	r3, #11
 873 0052 EFD0     		beq	.L65
 326:Source\azure_iot_sdk\c-utility\src/crt_abstractions.c ****         {
 874              		.loc 1 326 0 is_stmt 1
 875 0054 2B2B     		cmp	r3, #43
 876 0056 03D1     		bne	.L66
 328:Source\azure_iot_sdk\c-utility\src/crt_abstractions.c ****         }
 877              		.loc 1 328 0
 878 0058 0134     		adds	r4, r4, #1
 879              	.LVL131:
 311:Source\azure_iot_sdk\c-utility\src/crt_abstractions.c ****     int digitVal;
 880              		.loc 1 311 0
 881 005a 0023     		movs	r3, #0
 882 005c 9946     		mov	r9, r3
 883 005e 07E0     		b	.L67
 884              	.L66:
 330:Source\azure_iot_sdk\c-utility\src/crt_abstractions.c ****         {
 885              		.loc 1 330 0
 886 0060 2D2B     		cmp	r3, #45
 887 0062 03D1     		bne	.L89
 888              	.LVL132:
 334:Source\azure_iot_sdk\c-utility\src/crt_abstractions.c ****         }
 889              		.loc 1 334 0
 890 0064 0134     		adds	r4, r4, #1
 891              	.LVL133:
 333:Source\azure_iot_sdk\c-utility\src/crt_abstractions.c ****             runner++;
 892              		.loc 1 333 0
 893 0066 2C3B     		subs	r3, r3, #44
 894 0068 9946     		mov	r9, r3
 895 006a 01E0     		b	.L67
 896              	.LVL134:
 897              	.L89:
ARM GAS  C:\Users\Phuong\AppData\Local\Temp\cceqeziA.s 			page 27


 311:Source\azure_iot_sdk\c-utility\src/crt_abstractions.c ****     int digitVal;
 898              		.loc 1 311 0
 899 006c 0023     		movs	r3, #0
 900 006e 9946     		mov	r9, r3
 901              	.LVL135:
 902              	.L67:
 337:Source\azure_iot_sdk\c-utility\src/crt_abstractions.c ****         {
 903              		.loc 1 337 0
 904 0070 2378     		ldrb	r3, [r4]
 905 0072 302B     		cmp	r3, #48
 906 0074 15D1     		bne	.L68
 339:Source\azure_iot_sdk\c-utility\src/crt_abstractions.c ****             {
 907              		.loc 1 339 0
 908 0076 6378     		ldrb	r3, [r4, #1]
 909 0078 782B     		cmp	r3, #120
 910 007a 01D0     		beq	.L69
 339:Source\azure_iot_sdk\c-utility\src/crt_abstractions.c ****             {
 911              		.loc 1 339 0 is_stmt 0 discriminator 1
 912 007c 582B     		cmp	r3, #88
 913 007e 08D1     		bne	.L70
 914              	.L69:
 343:Source\azure_iot_sdk\c-utility\src/crt_abstractions.c ****                 {
 915              		.loc 1 343 0 is_stmt 1
 916 0080 4346     		mov	r3, r8
 917 0082 002B     		cmp	r3, #0
 918 0084 01D0     		beq	.L71
 343:Source\azure_iot_sdk\c-utility\src/crt_abstractions.c ****                 {
 919              		.loc 1 343 0 is_stmt 0 discriminator 1
 920 0086 102B     		cmp	r3, #16
 921 0088 0BD1     		bne	.L68
 922              	.L71:
 923              	.LVL136:
 346:Source\azure_iot_sdk\c-utility\src/crt_abstractions.c ****                 }
 924              		.loc 1 346 0 is_stmt 1
 925 008a 0234     		adds	r4, r4, #2
 926              	.LVL137:
 345:Source\azure_iot_sdk\c-utility\src/crt_abstractions.c ****                     runner += 2;
 927              		.loc 1 345 0
 928 008c 1023     		movs	r3, #16
 929 008e 9846     		mov	r8, r3
 930 0090 07E0     		b	.L68
 931              	.LVL138:
 932              	.L70:
 349:Source\azure_iot_sdk\c-utility\src/crt_abstractions.c ****             {
 933              		.loc 1 349 0
 934 0092 4346     		mov	r3, r8
 935 0094 002B     		cmp	r3, #0
 936 0096 01D0     		beq	.L72
 349:Source\azure_iot_sdk\c-utility\src/crt_abstractions.c ****             {
 937              		.loc 1 349 0 is_stmt 0 discriminator 1
 938 0098 082B     		cmp	r3, #8
 939 009a 02D1     		bne	.L68
 940              	.L72:
 941              	.LVL139:
 354:Source\azure_iot_sdk\c-utility\src/crt_abstractions.c ****             }
 942              		.loc 1 354 0 is_stmt 1
 943 009c 0134     		adds	r4, r4, #1
ARM GAS  C:\Users\Phuong\AppData\Local\Temp\cceqeziA.s 			page 28


 944              	.LVL140:
 353:Source\azure_iot_sdk\c-utility\src/crt_abstractions.c ****                 runner++;
 945              		.loc 1 353 0
 946 009e 0823     		movs	r3, #8
 947 00a0 9846     		mov	r8, r3
 948              	.LVL141:
 949              	.L68:
 358:Source\azure_iot_sdk\c-utility\src/crt_abstractions.c ****         {
 950              		.loc 1 358 0
 951 00a2 4346     		mov	r3, r8
 952 00a4 002B     		cmp	r3, #0
 953 00a6 01D1     		bne	.L73
 362:Source\azure_iot_sdk\c-utility\src/crt_abstractions.c ****         }
 954              		.loc 1 362 0
 955 00a8 0A33     		adds	r3, r3, #10
 956 00aa 9846     		mov	r8, r3
 957              	.LVL142:
 958              	.L73:
 365:Source\azure_iot_sdk\c-utility\src/crt_abstractions.c ****         if (validStr && IN_BASE_RANGE(digitVal, base))
 959              		.loc 1 365 0
 960 00ac 2678     		ldrb	r6, [r4]
 961 00ae 3300     		movs	r3, r6
 962 00b0 303B     		subs	r3, r3, #48
 963 00b2 DBB2     		uxtb	r3, r3
 964 00b4 092B     		cmp	r3, #9
 965 00b6 01D8     		bhi	.L74
 365:Source\azure_iot_sdk\c-utility\src/crt_abstractions.c ****         if (validStr && IN_BASE_RANGE(digitVal, base))
 966              		.loc 1 365 0 is_stmt 0 discriminator 1
 967 00b8 303E     		subs	r6, r6, #48
 968 00ba 0FE0     		b	.L75
 969              	.L74:
 365:Source\azure_iot_sdk\c-utility\src/crt_abstractions.c ****         if (validStr && IN_BASE_RANGE(digitVal, base))
 970              		.loc 1 365 0 discriminator 2
 971 00bc 3300     		movs	r3, r6
 972 00be 613B     		subs	r3, r3, #97
 973 00c0 DBB2     		uxtb	r3, r3
 974 00c2 192B     		cmp	r3, #25
 975 00c4 01D8     		bhi	.L76
 365:Source\azure_iot_sdk\c-utility\src/crt_abstractions.c ****         if (validStr && IN_BASE_RANGE(digitVal, base))
 976              		.loc 1 365 0 discriminator 4
 977 00c6 573E     		subs	r6, r6, #87
 978 00c8 08E0     		b	.L75
 979              	.L76:
 365:Source\azure_iot_sdk\c-utility\src/crt_abstractions.c ****         if (validStr && IN_BASE_RANGE(digitVal, base))
 980              		.loc 1 365 0 discriminator 5
 981 00ca 3300     		movs	r3, r6
 982 00cc 413B     		subs	r3, r3, #65
 983 00ce DBB2     		uxtb	r3, r3
 984 00d0 192B     		cmp	r3, #25
 985 00d2 01D8     		bhi	.L91
 365:Source\azure_iot_sdk\c-utility\src/crt_abstractions.c ****         if (validStr && IN_BASE_RANGE(digitVal, base))
 986              		.loc 1 365 0 discriminator 7
 987 00d4 373E     		subs	r6, r6, #55
 988 00d6 01E0     		b	.L75
 989              	.L91:
 365:Source\azure_iot_sdk\c-utility\src/crt_abstractions.c ****         if (validStr && IN_BASE_RANGE(digitVal, base))
 990              		.loc 1 365 0
ARM GAS  C:\Users\Phuong\AppData\Local\Temp\cceqeziA.s 			page 29


 991 00d8 0126     		movs	r6, #1
 992 00da 7642     		rsbs	r6, r6, #0
 993              	.L75:
 994              	.LVL143:
 366:Source\azure_iot_sdk\c-utility\src/crt_abstractions.c ****         {
 995              		.loc 1 366 0 is_stmt 1 discriminator 12
 996 00dc 002E     		cmp	r6, #0
 997 00de 58DB     		blt	.L92
 366:Source\azure_iot_sdk\c-utility\src/crt_abstractions.c ****         {
 998              		.loc 1 366 0 is_stmt 0 discriminator 2
 999 00e0 B045     		cmp	r8, r6
 1000 00e2 59DD     		ble	.L93
 368:Source\azure_iot_sdk\c-utility\src/crt_abstractions.c ****             do
 1001              		.loc 1 368 0 is_stmt 1
 1002 00e4 FFF7FEFF 		bl	__errno
 1003              	.LVL144:
 1004 00e8 0023     		movs	r3, #0
 1005 00ea 0360     		str	r3, [r0]
 1006 00ec 2700     		movs	r7, r4
 1007              	.LVL145:
 308:Source\azure_iot_sdk\c-utility\src/crt_abstractions.c ****     bool validStr = true;
 1008              		.loc 1 308 0
 1009 00ee 0024     		movs	r4, #0
 1010              	.LVL146:
 1011 00f0 0025     		movs	r5, #0
 1012 00f2 3300     		movs	r3, r6
 1013 00f4 BB46     		mov	fp, r7
 1014              	.LVL147:
 1015              	.L83:
 371:Source\azure_iot_sdk\c-utility\src/crt_abstractions.c ****                 {
 1016              		.loc 1 371 0
 1017 00f6 1E00     		movs	r6, r3
 1018 00f8 DF17     		asrs	r7, r3, #31
 1019 00fa D843     		mvns	r0, r3
 1020 00fc F943     		mvns	r1, r7
 1021 00fe 4346     		mov	r3, r8
 1022              	.LVL148:
 1023 0100 0093     		str	r3, [sp]
 1024 0102 DB17     		asrs	r3, r3, #31
 1025 0104 0393     		str	r3, [sp, #12]
 1026 0106 4246     		mov	r2, r8
 1027 0108 FFF7FEFF 		bl	__aeabi_uldivmod
 1028              	.LVL149:
 1029 010c 8D42     		cmp	r5, r1
 1030 010e 02D8     		bhi	.L95
 1031 0110 09D1     		bne	.L77
 1032 0112 8442     		cmp	r4, r0
 1033 0114 07D9     		bls	.L77
 1034              	.L95:
 1035              	.LVL150:
 376:Source\azure_iot_sdk\c-utility\src/crt_abstractions.c ****                 }
 1036              		.loc 1 376 0
 1037 0116 FFF7FEFF 		bl	__errno
 1038              	.LVL151:
 1039 011a 2223     		movs	r3, #34
 1040 011c 0360     		str	r3, [r0]
 375:Source\azure_iot_sdk\c-utility\src/crt_abstractions.c ****                     errno = ERANGE;
ARM GAS  C:\Users\Phuong\AppData\Local\Temp\cceqeziA.s 			page 30


 1041              		.loc 1 375 0
 1042 011e 0124     		movs	r4, #1
 1043 0120 6442     		rsbs	r4, r4, #0
 1044 0122 E517     		asrs	r5, r4, #31
 1045 0124 09E0     		b	.L79
 1046              	.LVL152:
 1047              	.L77:
 380:Source\azure_iot_sdk\c-utility\src/crt_abstractions.c ****                 }
 1048              		.loc 1 380 0
 1049 0126 009A     		ldr	r2, [sp]
 1050 0128 039B     		ldr	r3, [sp, #12]
 1051 012a 2000     		movs	r0, r4
 1052 012c 2900     		movs	r1, r5
 1053 012e FFF7FEFF 		bl	__aeabi_lmul
 1054              	.LVL153:
 1055 0132 8019     		adds	r0, r0, r6
 1056 0134 7941     		adcs	r1, r1, r7
 1057 0136 0400     		movs	r4, r0
 1058              	.LVL154:
 1059 0138 0D00     		movs	r5, r1
 1060              	.LVL155:
 1061              	.L79:
 382:Source\azure_iot_sdk\c-utility\src/crt_abstractions.c ****                 digitVal = DIGIT_VAL(*runner);
 1062              		.loc 1 382 0
 1063 013a 0123     		movs	r3, #1
 1064 013c 9C46     		mov	ip, r3
 1065 013e E344     		add	fp, fp, ip
 1066              	.LVL156:
 383:Source\azure_iot_sdk\c-utility\src/crt_abstractions.c ****             } while (IN_BASE_RANGE(digitVal, base));
 1067              		.loc 1 383 0
 1068 0140 5B46     		mov	r3, fp
 1069 0142 1B78     		ldrb	r3, [r3]
 1070 0144 1A00     		movs	r2, r3
 1071 0146 303A     		subs	r2, r2, #48
 1072 0148 D2B2     		uxtb	r2, r2
 1073 014a 092A     		cmp	r2, #9
 1074 014c 01D8     		bhi	.L80
 383:Source\azure_iot_sdk\c-utility\src/crt_abstractions.c ****             } while (IN_BASE_RANGE(digitVal, base));
 1075              		.loc 1 383 0 is_stmt 0 discriminator 1
 1076 014e 303B     		subs	r3, r3, #48
 1077 0150 0FE0     		b	.L81
 1078              	.L80:
 383:Source\azure_iot_sdk\c-utility\src/crt_abstractions.c ****             } while (IN_BASE_RANGE(digitVal, base));
 1079              		.loc 1 383 0 discriminator 2
 1080 0152 1A00     		movs	r2, r3
 1081 0154 613A     		subs	r2, r2, #97
 1082 0156 D2B2     		uxtb	r2, r2
 1083 0158 192A     		cmp	r2, #25
 1084 015a 01D8     		bhi	.L82
 383:Source\azure_iot_sdk\c-utility\src/crt_abstractions.c ****             } while (IN_BASE_RANGE(digitVal, base));
 1085              		.loc 1 383 0 discriminator 4
 1086 015c 573B     		subs	r3, r3, #87
 1087 015e 08E0     		b	.L81
 1088              	.L82:
 383:Source\azure_iot_sdk\c-utility\src/crt_abstractions.c ****             } while (IN_BASE_RANGE(digitVal, base));
 1089              		.loc 1 383 0 discriminator 5
 1090 0160 1A00     		movs	r2, r3
ARM GAS  C:\Users\Phuong\AppData\Local\Temp\cceqeziA.s 			page 31


 1091 0162 413A     		subs	r2, r2, #65
 1092 0164 D2B2     		uxtb	r2, r2
 1093 0166 192A     		cmp	r2, #25
 1094 0168 01D8     		bhi	.L94
 383:Source\azure_iot_sdk\c-utility\src/crt_abstractions.c ****             } while (IN_BASE_RANGE(digitVal, base));
 1095              		.loc 1 383 0 discriminator 7
 1096 016a 373B     		subs	r3, r3, #55
 1097 016c 01E0     		b	.L81
 1098              	.L94:
 383:Source\azure_iot_sdk\c-utility\src/crt_abstractions.c ****             } while (IN_BASE_RANGE(digitVal, base));
 1099              		.loc 1 383 0
 1100 016e 0123     		movs	r3, #1
 1101 0170 5B42     		rsbs	r3, r3, #0
 1102              	.L81:
 1103              	.LVL157:
 384:Source\azure_iot_sdk\c-utility\src/crt_abstractions.c ****         }
 1104              		.loc 1 384 0 is_stmt 1 discriminator 12
 1105 0172 002B     		cmp	r3, #0
 1106 0174 13DB     		blt	.L96
 384:Source\azure_iot_sdk\c-utility\src/crt_abstractions.c ****         }
 1107              		.loc 1 384 0 is_stmt 0 discriminator 1
 1108 0176 9845     		cmp	r8, r3
 1109 0178 BDDC     		bgt	.L83
 1110 017a 5F46     		mov	r7, fp
 1111 017c 10E0     		b	.L63
 1112              	.LVL158:
 1113              	.L86:
 311:Source\azure_iot_sdk\c-utility\src/crt_abstractions.c ****     int digitVal;
 1114              		.loc 1 311 0 is_stmt 1
 1115 017e 0023     		movs	r3, #0
 1116 0180 9946     		mov	r9, r3
 308:Source\azure_iot_sdk\c-utility\src/crt_abstractions.c ****     bool validStr = true;
 1117              		.loc 1 308 0
 1118 0182 0024     		movs	r4, #0
 1119 0184 0025     		movs	r5, #0
 1120 0186 0BE0     		b	.L63
 1121              	.L87:
 311:Source\azure_iot_sdk\c-utility\src/crt_abstractions.c ****     int digitVal;
 1122              		.loc 1 311 0
 1123 0188 0023     		movs	r3, #0
 1124 018a 9946     		mov	r9, r3
 308:Source\azure_iot_sdk\c-utility\src/crt_abstractions.c ****     bool validStr = true;
 1125              		.loc 1 308 0
 1126 018c 0024     		movs	r4, #0
 1127 018e 0025     		movs	r5, #0
 1128 0190 06E0     		b	.L63
 1129              	.LVL159:
 1130              	.L92:
 1131 0192 0024     		movs	r4, #0
 1132              	.LVL160:
 1133 0194 0025     		movs	r5, #0
 1134 0196 03E0     		b	.L63
 1135              	.LVL161:
 1136              	.L93:
 1137 0198 0024     		movs	r4, #0
 1138              	.LVL162:
 1139 019a 0025     		movs	r5, #0
ARM GAS  C:\Users\Phuong\AppData\Local\Temp\cceqeziA.s 			page 32


 1140 019c 00E0     		b	.L63
 1141              	.LVL163:
 1142              	.L96:
 1143 019e 5F46     		mov	r7, fp
 1144              	.LVL164:
 1145              	.L63:
 393:Source\azure_iot_sdk\c-utility\src/crt_abstractions.c ****     {
 1146              		.loc 1 393 0
 1147 01a0 5346     		mov	r3, r10
 1148 01a2 002B     		cmp	r3, #0
 1149 01a4 00D0     		beq	.L84
 1150              	.LVL165:
 395:Source\azure_iot_sdk\c-utility\src/crt_abstractions.c ****     }
 1151              		.loc 1 395 0
 1152 01a6 1F60     		str	r7, [r3]
 1153              	.L84:
 399:Source\azure_iot_sdk\c-utility\src/crt_abstractions.c ****     {
 1154              		.loc 1 399 0
 1155 01a8 4B46     		mov	r3, r9
 1156              	.LVL166:
 1157 01aa 002B     		cmp	r3, #0
 1158 01ac 04D0     		beq	.L85
 401:Source\azure_iot_sdk\c-utility\src/crt_abstractions.c ****     }
 1159              		.loc 1 401 0
 1160 01ae 2200     		movs	r2, r4
 1161 01b0 2B00     		movs	r3, r5
 1162 01b2 0025     		movs	r5, #0
 1163 01b4 5442     		rsbs	r4, r2, #0
 1164 01b6 9D41     		sbcs	r5, r3
 1165              	.LVL167:
 1166              	.L85:
 405:Source\azure_iot_sdk\c-utility\src/crt_abstractions.c **** 
 1167              		.loc 1 405 0
 1168 01b8 2000     		movs	r0, r4
 1169 01ba 2900     		movs	r1, r5
 1170 01bc 05B0     		add	sp, sp, #20
 1171              		@ sp needed
 1172              	.LVL168:
 1173              	.LVL169:
 1174              	.LVL170:
 1175              	.LVL171:
 1176              	.LVL172:
 1177 01be 3CBC     		pop	{r2, r3, r4, r5}
 1178 01c0 9046     		mov	r8, r2
 1179 01c2 9946     		mov	r9, r3
 1180 01c4 A246     		mov	r10, r4
 1181 01c6 AB46     		mov	fp, r5
 1182 01c8 F0BD     		pop	{r4, r5, r6, r7, pc}
 1183              		.cfi_endproc
 1184              	.LFE5:
 1185              		.size	strtoull_s, .-strtoull_s
 1186              		.global	__aeabi_i2d
 1187              		.global	__aeabi_d2ulz
 1188              		.global	__aeabi_ul2d
 1189              		.global	__aeabi_ddiv
 1190 01ca C046     		.section	.text.splitFloatString,"ax",%progbits
 1191              		.align	2
ARM GAS  C:\Users\Phuong\AppData\Local\Temp\cceqeziA.s 			page 33


 1192              		.code	16
 1193              		.thumb_func
 1194              		.type	splitFloatString, %function
 1195              	splitFloatString:
 1196              	.LFB9:
 466:Source\azure_iot_sdk\c-utility\src/crt_abstractions.c **** 
 467:Source\azure_iot_sdk\c-utility\src/crt_abstractions.c **** #define FLOAT_STRING_TYPE_VALUES    \
 468:Source\azure_iot_sdk\c-utility\src/crt_abstractions.c ****             FST_INFINITY,           \
 469:Source\azure_iot_sdk\c-utility\src/crt_abstractions.c ****             FST_NAN,                \
 470:Source\azure_iot_sdk\c-utility\src/crt_abstractions.c ****             FST_NUMBER,             \
 471:Source\azure_iot_sdk\c-utility\src/crt_abstractions.c ****             FST_OVERFLOW,           \
 472:Source\azure_iot_sdk\c-utility\src/crt_abstractions.c ****             FST_ERROR
 473:Source\azure_iot_sdk\c-utility\src/crt_abstractions.c **** 
 474:Source\azure_iot_sdk\c-utility\src/crt_abstractions.c **** DEFINE_ENUM(FLOAT_STRING_TYPE, FLOAT_STRING_TYPE_VALUES);
 475:Source\azure_iot_sdk\c-utility\src/crt_abstractions.c **** 
 476:Source\azure_iot_sdk\c-utility\src/crt_abstractions.c **** static FLOAT_STRING_TYPE splitFloatString(const char* nptr, char** endptr, int *signal, double *fra
 477:Source\azure_iot_sdk\c-utility\src/crt_abstractions.c **** {
 1197              		.loc 1 477 0
 1198              		.cfi_startproc
 1199              		@ args = 4, pretend = 0, frame = 16
 1200              		@ frame_needed = 0, uses_anonymous_args = 0
 1201              	.LVL173:
 1202 0000 F0B5     		push	{r4, r5, r6, r7, lr}
 1203              		.cfi_def_cfa_offset 20
 1204              		.cfi_offset 4, -20
 1205              		.cfi_offset 5, -16
 1206              		.cfi_offset 6, -12
 1207              		.cfi_offset 7, -8
 1208              		.cfi_offset 14, -4
 1209 0002 5746     		mov	r7, r10
 1210 0004 4E46     		mov	r6, r9
 1211 0006 4546     		mov	r5, r8
 1212 0008 E0B4     		push	{r5, r6, r7}
 1213              		.cfi_def_cfa_offset 32
 1214              		.cfi_offset 8, -32
 1215              		.cfi_offset 9, -28
 1216              		.cfi_offset 10, -24
 1217 000a 84B0     		sub	sp, sp, #16
 1218              		.cfi_def_cfa_offset 48
 1219 000c 0D00     		movs	r5, r1
 1220 000e 0193     		str	r3, [sp, #4]
 1221              	.LVL174:
 478:Source\azure_iot_sdk\c-utility\src/crt_abstractions.c ****     FLOAT_STRING_TYPE result = FST_ERROR;
 479:Source\azure_iot_sdk\c-utility\src/crt_abstractions.c **** 
 480:Source\azure_iot_sdk\c-utility\src/crt_abstractions.c ****     unsigned long long ullInteger = 0;
 481:Source\azure_iot_sdk\c-utility\src/crt_abstractions.c ****     unsigned long long ullFraction = 0;
 482:Source\azure_iot_sdk\c-utility\src/crt_abstractions.c ****     int integerSize = 0;
 483:Source\azure_iot_sdk\c-utility\src/crt_abstractions.c ****     int fractionSize = 0;
 484:Source\azure_iot_sdk\c-utility\src/crt_abstractions.c ****     char* startptr;
 485:Source\azure_iot_sdk\c-utility\src/crt_abstractions.c **** 
 486:Source\azure_iot_sdk\c-utility\src/crt_abstractions.c ****     (*endptr) = (char*)nptr;
 1222              		.loc 1 486 0
 1223 0010 0860     		str	r0, [r1]
 487:Source\azure_iot_sdk\c-utility\src/crt_abstractions.c **** 
 488:Source\azure_iot_sdk\c-utility\src/crt_abstractions.c ****     /*Codes_SRS_CRT_ABSTRACTIONS_21_018: [The white-space for strtof_s must be one of the character
 489:Source\azure_iot_sdk\c-utility\src/crt_abstractions.c ****     /*Codes_SRS_CRT_ABSTRACTIONS_21_028: [The white-space for strtold_s must be one of the characte
 490:Source\azure_iot_sdk\c-utility\src/crt_abstractions.c ****     while (IS_SPACE(**endptr))
ARM GAS  C:\Users\Phuong\AppData\Local\Temp\cceqeziA.s 			page 34


 1224              		.loc 1 490 0
 1225 0012 01E0     		b	.L98
 1226              	.LVL175:
 1227              	.L99:
 491:Source\azure_iot_sdk\c-utility\src/crt_abstractions.c ****     {
 492:Source\azure_iot_sdk\c-utility\src/crt_abstractions.c ****         (*endptr)++;
 1228              		.loc 1 492 0
 1229 0014 0133     		adds	r3, r3, #1
 1230 0016 2B60     		str	r3, [r5]
 1231              	.L98:
 490:Source\azure_iot_sdk\c-utility\src/crt_abstractions.c ****     {
 1232              		.loc 1 490 0
 1233 0018 2B68     		ldr	r3, [r5]
 1234 001a 1978     		ldrb	r1, [r3]
 1235 001c 2029     		cmp	r1, #32
 1236 001e F9D0     		beq	.L99
 490:Source\azure_iot_sdk\c-utility\src/crt_abstractions.c ****     {
 1237              		.loc 1 490 0 is_stmt 0 discriminator 1
 1238 0020 0C29     		cmp	r1, #12
 1239 0022 F7D0     		beq	.L99
 490:Source\azure_iot_sdk\c-utility\src/crt_abstractions.c ****     {
 1240              		.loc 1 490 0 discriminator 2
 1241 0024 0A29     		cmp	r1, #10
 1242 0026 F5D0     		beq	.L99
 490:Source\azure_iot_sdk\c-utility\src/crt_abstractions.c ****     {
 1243              		.loc 1 490 0 discriminator 3
 1244 0028 0D29     		cmp	r1, #13
 1245 002a F3D0     		beq	.L99
 490:Source\azure_iot_sdk\c-utility\src/crt_abstractions.c ****     {
 1246              		.loc 1 490 0 discriminator 4
 1247 002c 0929     		cmp	r1, #9
 1248 002e F1D0     		beq	.L99
 490:Source\azure_iot_sdk\c-utility\src/crt_abstractions.c ****     {
 1249              		.loc 1 490 0 discriminator 5
 1250 0030 0B29     		cmp	r1, #11
 1251 0032 EFD0     		beq	.L99
 493:Source\azure_iot_sdk\c-utility\src/crt_abstractions.c ****     }
 494:Source\azure_iot_sdk\c-utility\src/crt_abstractions.c **** 
 495:Source\azure_iot_sdk\c-utility\src/crt_abstractions.c ****     /*Codes_SRS_CRT_ABSTRACTIONS_21_019: [The valid sequence for strtof_s starts after the first no
 496:Source\azure_iot_sdk\c-utility\src/crt_abstractions.c ****     /*Codes_SRS_CRT_ABSTRACTIONS_21_029: [The valid sequence for strtold_s starts after the first n
 497:Source\azure_iot_sdk\c-utility\src/crt_abstractions.c ****     (*signal) = +1;
 1252              		.loc 1 497 0 is_stmt 1
 1253 0034 0123     		movs	r3, #1
 1254 0036 1360     		str	r3, [r2]
 498:Source\azure_iot_sdk\c-utility\src/crt_abstractions.c ****     if ((**endptr) == '+')
 1255              		.loc 1 498 0
 1256 0038 2968     		ldr	r1, [r5]
 1257 003a 0B78     		ldrb	r3, [r1]
 1258 003c 2B2B     		cmp	r3, #43
 1259 003e 02D1     		bne	.L100
 499:Source\azure_iot_sdk\c-utility\src/crt_abstractions.c ****     {
 500:Source\azure_iot_sdk\c-utility\src/crt_abstractions.c ****         (*endptr)++;
 1260              		.loc 1 500 0
 1261 0040 0131     		adds	r1, r1, #1
 1262 0042 2960     		str	r1, [r5]
 1263 0044 06E0     		b	.L101
 1264              	.L100:
ARM GAS  C:\Users\Phuong\AppData\Local\Temp\cceqeziA.s 			page 35


 501:Source\azure_iot_sdk\c-utility\src/crt_abstractions.c ****     }
 502:Source\azure_iot_sdk\c-utility\src/crt_abstractions.c ****     else if ((**endptr) == '-')
 1265              		.loc 1 502 0
 1266 0046 2D2B     		cmp	r3, #45
 1267 0048 04D1     		bne	.L101
 503:Source\azure_iot_sdk\c-utility\src/crt_abstractions.c ****     {
 504:Source\azure_iot_sdk\c-utility\src/crt_abstractions.c ****         (*signal) = -1;
 1268              		.loc 1 504 0
 1269 004a 2E3B     		subs	r3, r3, #46
 1270 004c 1360     		str	r3, [r2]
 505:Source\azure_iot_sdk\c-utility\src/crt_abstractions.c ****         (*endptr)++;
 1271              		.loc 1 505 0
 1272 004e 2B68     		ldr	r3, [r5]
 1273 0050 0133     		adds	r3, r3, #1
 1274 0052 2B60     		str	r3, [r5]
 1275              	.L101:
 506:Source\azure_iot_sdk\c-utility\src/crt_abstractions.c ****     }
 507:Source\azure_iot_sdk\c-utility\src/crt_abstractions.c **** 
 508:Source\azure_iot_sdk\c-utility\src/crt_abstractions.c ****     /*Codes_SRS_CRT_ABSTRACTIONS_21_023: [If the string is 'INF' of 'INFINITY' (ignoring case), the
 509:Source\azure_iot_sdk\c-utility\src/crt_abstractions.c ****     /*Codes_SRS_CRT_ABSTRACTIONS_21_033: [If the string is 'INF' of 'INFINITY' (ignoring case), the
 510:Source\azure_iot_sdk\c-utility\src/crt_abstractions.c ****     if (isInfinity((const char**)endptr))
 1276              		.loc 1 510 0
 1277 0054 2800     		movs	r0, r5
 1278              	.LVL176:
 1279 0056 FFF7FEFF 		bl	isInfinity
 1280              	.LVL177:
 1281 005a 0028     		cmp	r0, #0
 1282 005c 00D0     		beq	.LCB1350
 1283 005e DEE0     		b	.L116	@long jump
 1284              	.LCB1350:
 511:Source\azure_iot_sdk\c-utility\src/crt_abstractions.c ****     {
 512:Source\azure_iot_sdk\c-utility\src/crt_abstractions.c ****         result = FST_INFINITY;
 513:Source\azure_iot_sdk\c-utility\src/crt_abstractions.c ****     }
 514:Source\azure_iot_sdk\c-utility\src/crt_abstractions.c ****     /*Codes_SRS_CRT_ABSTRACTIONS_21_034: [If the string is 'NAN' or 'NAN(...)' (ignoring case), the
 515:Source\azure_iot_sdk\c-utility\src/crt_abstractions.c ****     /*Codes_SRS_CRT_ABSTRACTIONS_21_024: [If the string is 'NAN' or 'NAN(...)' (ignoring case), the
 516:Source\azure_iot_sdk\c-utility\src/crt_abstractions.c ****     else if (isNaN((const char**)endptr))
 1285              		.loc 1 516 0
 1286 0060 2800     		movs	r0, r5
 1287 0062 FFF7FEFF 		bl	isNaN
 1288              	.LVL178:
 1289 0066 0028     		cmp	r0, #0
 1290 0068 00D0     		beq	.LCB1355
 1291 006a DAE0     		b	.L117	@long jump
 1292              	.LCB1355:
 517:Source\azure_iot_sdk\c-utility\src/crt_abstractions.c ****     {
 518:Source\azure_iot_sdk\c-utility\src/crt_abstractions.c ****         result = FST_NAN;
 519:Source\azure_iot_sdk\c-utility\src/crt_abstractions.c ****     }
 520:Source\azure_iot_sdk\c-utility\src/crt_abstractions.c ****     else if (IN_BASE_RANGE(DIGIT_VAL(**endptr), 10))
 1293              		.loc 1 520 0
 1294 006c 2C68     		ldr	r4, [r5]
 1295 006e 2378     		ldrb	r3, [r4]
 1296 0070 1900     		movs	r1, r3
 1297 0072 3039     		subs	r1, r1, #48
 1298 0074 C9B2     		uxtb	r1, r1
 1299 0076 0929     		cmp	r1, #9
 1300 0078 04D8     		bhi	.L103
 1301              		.loc 1 520 0 is_stmt 0 discriminator 1
ARM GAS  C:\Users\Phuong\AppData\Local\Temp\cceqeziA.s 			page 36


 1302 007a 1A00     		movs	r2, r3
 1303 007c 303A     		subs	r2, r2, #48
 1304 007e D243     		mvns	r2, r2
 1305 0080 D20F     		lsrs	r2, r2, #31
 1306 0082 15E0     		b	.L104
 1307              	.L103:
 1308              		.loc 1 520 0 discriminator 2
 1309 0084 1A00     		movs	r2, r3
 1310 0086 613A     		subs	r2, r2, #97
 1311 0088 D2B2     		uxtb	r2, r2
 1312 008a 192A     		cmp	r2, #25
 1313 008c 04D8     		bhi	.L105
 1314              		.loc 1 520 0 discriminator 4
 1315 008e 1A00     		movs	r2, r3
 1316 0090 573A     		subs	r2, r2, #87
 1317 0092 D243     		mvns	r2, r2
 1318 0094 D20F     		lsrs	r2, r2, #31
 1319 0096 0BE0     		b	.L104
 1320              	.L105:
 1321              		.loc 1 520 0 discriminator 5
 1322 0098 1A00     		movs	r2, r3
 1323 009a 413A     		subs	r2, r2, #65
 1324 009c D2B2     		uxtb	r2, r2
 1325 009e 192A     		cmp	r2, #25
 1326 00a0 03D8     		bhi	.L118
 1327              		.loc 1 520 0 discriminator 7
 1328 00a2 372B     		cmp	r3, #55
 1329 00a4 03D5     		bpl	.L119
 1330              		.loc 1 520 0
 1331 00a6 0022     		movs	r2, #0
 1332 00a8 02E0     		b	.L104
 1333              	.L118:
 1334 00aa 0022     		movs	r2, #0
 1335 00ac 00E0     		b	.L104
 1336              	.L119:
 1337 00ae 0122     		movs	r2, #1
 1338              	.L104:
 1339              		.loc 1 520 0 discriminator 14
 1340 00b0 002A     		cmp	r2, #0
 1341 00b2 00D1     		bne	.LCB1410
 1342 00b4 B7E0     		b	.L120	@long jump
 1343              	.LCB1410:
 1344              		.loc 1 520 0 discriminator 15
 1345 00b6 0929     		cmp	r1, #9
 1346 00b8 08D8     		bhi	.L107
 1347              		.loc 1 520 0 discriminator 16
 1348 00ba 303B     		subs	r3, r3, #48
 1349 00bc 1900     		movs	r1, r3
 1350 00be DB0F     		lsrs	r3, r3, #31
 1351 00c0 0022     		movs	r2, #0
 1352 00c2 0920     		movs	r0, #9
 1353 00c4 8842     		cmp	r0, r1
 1354 00c6 5341     		adcs	r3, r3, r2
 1355 00c8 DBB2     		uxtb	r3, r3
 1356 00ca 1AE0     		b	.L108
 1357              	.L107:
 1358              		.loc 1 520 0 discriminator 17
ARM GAS  C:\Users\Phuong\AppData\Local\Temp\cceqeziA.s 			page 37


 1359 00cc 1A00     		movs	r2, r3
 1360 00ce 613A     		subs	r2, r2, #97
 1361 00d0 D2B2     		uxtb	r2, r2
 1362 00d2 192A     		cmp	r2, #25
 1363 00d4 08D8     		bhi	.L109
 1364              		.loc 1 520 0 discriminator 19
 1365 00d6 573B     		subs	r3, r3, #87
 1366 00d8 1900     		movs	r1, r3
 1367 00da DB0F     		lsrs	r3, r3, #31
 1368 00dc 0022     		movs	r2, #0
 1369 00de 0920     		movs	r0, #9
 1370 00e0 8842     		cmp	r0, r1
 1371 00e2 5341     		adcs	r3, r3, r2
 1372 00e4 DBB2     		uxtb	r3, r3
 1373 00e6 0CE0     		b	.L108
 1374              	.L109:
 1375              		.loc 1 520 0 discriminator 20
 1376 00e8 1A00     		movs	r2, r3
 1377 00ea 413A     		subs	r2, r2, #65
 1378 00ec D2B2     		uxtb	r2, r2
 1379 00ee 192A     		cmp	r2, #25
 1380 00f0 04D8     		bhi	.L121
 1381              		.loc 1 520 0 discriminator 23
 1382 00f2 373B     		subs	r3, r3, #55
 1383 00f4 092B     		cmp	r3, #9
 1384 00f6 03DC     		bgt	.L122
 1385              		.loc 1 520 0
 1386 00f8 0123     		movs	r3, #1
 1387 00fa 02E0     		b	.L108
 1388              	.L121:
 1389 00fc 0123     		movs	r3, #1
 1390 00fe 00E0     		b	.L108
 1391              	.L122:
 1392 0100 0023     		movs	r3, #0
 1393              	.L108:
 1394              		.loc 1 520 0 discriminator 29
 1395 0102 002B     		cmp	r3, #0
 1396 0104 00D1     		bne	.LCB1464
 1397 0106 90E0     		b	.L123	@long jump
 1398              	.LCB1464:
 1399              	.LVL179:
 521:Source\azure_iot_sdk\c-utility\src/crt_abstractions.c ****     {
 522:Source\azure_iot_sdk\c-utility\src/crt_abstractions.c ****         result = FST_NUMBER;
 523:Source\azure_iot_sdk\c-utility\src/crt_abstractions.c ****         startptr = *endptr;
 524:Source\azure_iot_sdk\c-utility\src/crt_abstractions.c ****         /* integers will go to the fraction and exponential. */
 525:Source\azure_iot_sdk\c-utility\src/crt_abstractions.c ****         ullInteger = strtoull_s(startptr, endptr, 10);
 1400              		.loc 1 525 0 is_stmt 1
 1401 0108 0A22     		movs	r2, #10
 1402 010a 2900     		movs	r1, r5
 1403 010c 2000     		movs	r0, r4
 1404 010e FFF7FEFF 		bl	strtoull_s
 1405              	.LVL180:
 1406 0112 0300     		movs	r3, r0
 1407 0114 0390     		str	r0, [sp, #12]
 1408 0116 0291     		str	r1, [sp, #8]
 1409              	.LVL181:
 526:Source\azure_iot_sdk\c-utility\src/crt_abstractions.c ****         integerSize = (int)((*endptr) - startptr);
ARM GAS  C:\Users\Phuong\AppData\Local\Temp\cceqeziA.s 			page 38


 1410              		.loc 1 526 0
 1411 0118 2A68     		ldr	r2, [r5]
 1412 011a 121B     		subs	r2, r2, r4
 1413 011c 9146     		mov	r9, r2
 1414              	.LVL182:
 527:Source\azure_iot_sdk\c-utility\src/crt_abstractions.c ****         if ((ullInteger == ULLONG_MAX) && (errno != 0))
 1415              		.loc 1 527 0
 1416 011e 0133     		adds	r3, r3, #1
 1417 0120 09D1     		bne	.L124
 1418 0122 0B00     		movs	r3, r1
 1419 0124 0133     		adds	r3, r3, #1
 1420 0126 06D1     		bne	.L124
 1421              		.loc 1 527 0 is_stmt 0 discriminator 1
 1422 0128 FFF7FEFF 		bl	__errno
 1423              	.LVL183:
 1424 012c 0368     		ldr	r3, [r0]
 1425 012e 002B     		cmp	r3, #0
 1426 0130 03D1     		bne	.L125
 522:Source\azure_iot_sdk\c-utility\src/crt_abstractions.c ****         startptr = *endptr;
 1427              		.loc 1 522 0 is_stmt 1
 1428 0132 0224     		movs	r4, #2
 1429              	.LVL184:
 1430 0134 02E0     		b	.L111
 1431              	.LVL185:
 1432              	.L124:
 1433 0136 0224     		movs	r4, #2
 1434              	.LVL186:
 1435 0138 00E0     		b	.L111
 1436              	.LVL187:
 1437              	.L125:
 528:Source\azure_iot_sdk\c-utility\src/crt_abstractions.c ****         {
 529:Source\azure_iot_sdk\c-utility\src/crt_abstractions.c ****             result = FST_OVERFLOW;
 1438              		.loc 1 529 0
 1439 013a 0324     		movs	r4, #3
 1440              	.LVL188:
 1441              	.L111:
 530:Source\azure_iot_sdk\c-utility\src/crt_abstractions.c ****         }
 531:Source\azure_iot_sdk\c-utility\src/crt_abstractions.c **** 
 532:Source\azure_iot_sdk\c-utility\src/crt_abstractions.c ****         /* get the real fraction part, if exist. */
 533:Source\azure_iot_sdk\c-utility\src/crt_abstractions.c ****         if ((**endptr) == '.')
 1442              		.loc 1 533 0
 1443 013c 2868     		ldr	r0, [r5]
 1444 013e 0378     		ldrb	r3, [r0]
 1445 0140 2E2B     		cmp	r3, #46
 1446 0142 16D1     		bne	.L126
 534:Source\azure_iot_sdk\c-utility\src/crt_abstractions.c ****         {
 535:Source\azure_iot_sdk\c-utility\src/crt_abstractions.c ****             startptr = (*endptr) + 1;
 1447              		.loc 1 535 0
 1448 0144 431C     		adds	r3, r0, #1
 1449 0146 9A46     		mov	r10, r3
 1450              	.LVL189:
 536:Source\azure_iot_sdk\c-utility\src/crt_abstractions.c ****             ullFraction = strtoull_s(startptr, endptr, 10);
 1451              		.loc 1 536 0
 1452 0148 0A22     		movs	r2, #10
 1453 014a 2900     		movs	r1, r5
 1454 014c 1800     		movs	r0, r3
 1455 014e FFF7FEFF 		bl	strtoull_s
ARM GAS  C:\Users\Phuong\AppData\Local\Temp\cceqeziA.s 			page 39


 1456              	.LVL190:
 1457 0152 0600     		movs	r6, r0
 1458 0154 0F00     		movs	r7, r1
 1459              	.LVL191:
 537:Source\azure_iot_sdk\c-utility\src/crt_abstractions.c ****             fractionSize = (int)((*endptr) - startptr);
 1460              		.loc 1 537 0
 1461 0156 2B68     		ldr	r3, [r5]
 1462 0158 5246     		mov	r2, r10
 1463 015a 9B1A     		subs	r3, r3, r2
 1464 015c 9846     		mov	r8, r3
 1465              	.LVL192:
 538:Source\azure_iot_sdk\c-utility\src/crt_abstractions.c ****             if ((ullFraction == ULLONG_MAX) && (errno != 0))
 1466              		.loc 1 538 0
 1467 015e 431C     		adds	r3, r0, #1
 1468 0160 0DD1     		bne	.L112
 1469              	.LVL193:
 1470 0162 4B1C     		adds	r3, r1, #1
 1471 0164 0BD1     		bne	.L112
 1472              		.loc 1 538 0 is_stmt 0 discriminator 1
 1473 0166 FFF7FEFF 		bl	__errno
 1474              	.LVL194:
 1475 016a 0368     		ldr	r3, [r0]
 1476 016c 002B     		cmp	r3, #0
 1477 016e 05D1     		bne	.L127
 1478 0170 05E0     		b	.L112
 1479              	.LVL195:
 1480              	.L126:
 483:Source\azure_iot_sdk\c-utility\src/crt_abstractions.c ****     char* startptr;
 1481              		.loc 1 483 0 is_stmt 1
 1482 0172 0023     		movs	r3, #0
 1483 0174 9846     		mov	r8, r3
 481:Source\azure_iot_sdk\c-utility\src/crt_abstractions.c ****     int integerSize = 0;
 1484              		.loc 1 481 0
 1485 0176 0026     		movs	r6, #0
 1486 0178 0027     		movs	r7, #0
 1487 017a 00E0     		b	.L112
 1488              	.LVL196:
 1489              	.L127:
 539:Source\azure_iot_sdk\c-utility\src/crt_abstractions.c ****             {
 540:Source\azure_iot_sdk\c-utility\src/crt_abstractions.c ****                 result = FST_OVERFLOW;
 1490              		.loc 1 540 0
 1491 017c 0324     		movs	r4, #3
 1492              	.LVL197:
 1493              	.L112:
 541:Source\azure_iot_sdk\c-utility\src/crt_abstractions.c ****             }
 542:Source\azure_iot_sdk\c-utility\src/crt_abstractions.c ****         }
 543:Source\azure_iot_sdk\c-utility\src/crt_abstractions.c **** 
 544:Source\azure_iot_sdk\c-utility\src/crt_abstractions.c ****         if (((**endptr) == 'e') || ((**endptr) == 'E'))
 1494              		.loc 1 544 0
 1495 017e 2868     		ldr	r0, [r5]
 1496 0180 0378     		ldrb	r3, [r0]
 1497 0182 652B     		cmp	r3, #101
 1498 0184 01D0     		beq	.L113
 1499              		.loc 1 544 0 is_stmt 0 discriminator 1
 1500 0186 452B     		cmp	r3, #69
 1501 0188 0DD1     		bne	.L114
 1502              	.L113:
ARM GAS  C:\Users\Phuong\AppData\Local\Temp\cceqeziA.s 			page 40


 545:Source\azure_iot_sdk\c-utility\src/crt_abstractions.c ****         {
 546:Source\azure_iot_sdk\c-utility\src/crt_abstractions.c ****             startptr = (*endptr) + 1;
 1503              		.loc 1 546 0 is_stmt 1
 1504 018a 0130     		adds	r0, r0, #1
 1505              	.LVL198:
 547:Source\azure_iot_sdk\c-utility\src/crt_abstractions.c ****             (*exponential) = (int)strtol(startptr, endptr, 10);
 1506              		.loc 1 547 0
 1507 018c 0A22     		movs	r2, #10
 1508 018e 2900     		movs	r1, r5
 1509 0190 FFF7FEFF 		bl	strtol
 1510              	.LVL199:
 1511 0194 0C9B     		ldr	r3, [sp, #48]
 1512 0196 1860     		str	r0, [r3]
 548:Source\azure_iot_sdk\c-utility\src/crt_abstractions.c ****             if (((*exponential) < (DBL_MAX_10_EXP * (-1))) || ((*exponential) > DBL_MAX_10_EXP))
 1513              		.loc 1 548 0
 1514 0198 3530     		adds	r0, r0, #53
 1515 019a FF30     		adds	r0, r0, #255
 1516 019c 9A23     		movs	r3, #154
 1517 019e 9B00     		lsls	r3, r3, #2
 1518 01a0 9842     		cmp	r0, r3
 1519 01a2 04D8     		bhi	.L128
 1520 01a4 04E0     		b	.L115
 1521              	.L114:
 549:Source\azure_iot_sdk\c-utility\src/crt_abstractions.c ****             {
 550:Source\azure_iot_sdk\c-utility\src/crt_abstractions.c ****                 result = FST_OVERFLOW;
 551:Source\azure_iot_sdk\c-utility\src/crt_abstractions.c ****             }
 552:Source\azure_iot_sdk\c-utility\src/crt_abstractions.c ****         }
 553:Source\azure_iot_sdk\c-utility\src/crt_abstractions.c ****         else
 554:Source\azure_iot_sdk\c-utility\src/crt_abstractions.c ****         {
 555:Source\azure_iot_sdk\c-utility\src/crt_abstractions.c ****             (*exponential) = 0;
 1522              		.loc 1 555 0
 1523 01a6 0023     		movs	r3, #0
 1524 01a8 0C9A     		ldr	r2, [sp, #48]
 1525 01aa 1360     		str	r3, [r2]
 1526 01ac 00E0     		b	.L115
 1527              	.L128:
 550:Source\azure_iot_sdk\c-utility\src/crt_abstractions.c ****             }
 1528              		.loc 1 550 0
 1529 01ae 0324     		movs	r4, #3
 1530              	.LVL200:
 1531              	.L115:
 556:Source\azure_iot_sdk\c-utility\src/crt_abstractions.c ****         }
 557:Source\azure_iot_sdk\c-utility\src/crt_abstractions.c **** 
 558:Source\azure_iot_sdk\c-utility\src/crt_abstractions.c ****         if (result == FST_NUMBER)
 1532              		.loc 1 558 0
 1533 01b0 022C     		cmp	r4, #2
 1534 01b2 3BD1     		bne	.L102
 559:Source\azure_iot_sdk\c-utility\src/crt_abstractions.c ****         {
 560:Source\azure_iot_sdk\c-utility\src/crt_abstractions.c ****             /* Add ullInteger to ullFraction. */
 561:Source\azure_iot_sdk\c-utility\src/crt_abstractions.c ****             ullFraction += (ullInteger * (unsigned long long)(pow(10, (double)fractionSize)));
 1535              		.loc 1 561 0
 1536 01b4 4046     		mov	r0, r8
 1537 01b6 FFF7FEFF 		bl	__aeabi_i2d
 1538              	.LVL201:
 1539 01ba 0200     		movs	r2, r0
 1540 01bc 0B00     		movs	r3, r1
 1541 01be 0020     		movs	r0, #0
ARM GAS  C:\Users\Phuong\AppData\Local\Temp\cceqeziA.s 			page 41


 1542 01c0 1E49     		ldr	r1, .L129
 1543 01c2 FFF7FEFF 		bl	pow
 1544              	.LVL202:
 1545 01c6 FFF7FEFF 		bl	__aeabi_d2ulz
 1546              	.LVL203:
 1547 01ca 0200     		movs	r2, r0
 1548 01cc 0B00     		movs	r3, r1
 1549 01ce 0398     		ldr	r0, [sp, #12]
 1550 01d0 0299     		ldr	r1, [sp, #8]
 1551 01d2 FFF7FEFF 		bl	__aeabi_lmul
 1552              	.LVL204:
 1553 01d6 8019     		adds	r0, r0, r6
 1554 01d8 7941     		adcs	r1, r1, r7
 1555              	.LVL205:
 562:Source\azure_iot_sdk\c-utility\src/crt_abstractions.c ****             (*fraction) = ((double)ullFraction / (pow(10.0f, (double)(fractionSize + integerSize - 
 1556              		.loc 1 562 0
 1557 01da FFF7FEFF 		bl	__aeabi_ul2d
 1558              	.LVL206:
 1559 01de 0600     		movs	r6, r0
 1560 01e0 0F00     		movs	r7, r1
 1561 01e2 4046     		mov	r0, r8
 1562 01e4 4844     		add	r0, r0, r9
 1563 01e6 0138     		subs	r0, r0, #1
 1564 01e8 FFF7FEFF 		bl	__aeabi_i2d
 1565              	.LVL207:
 1566 01ec 0200     		movs	r2, r0
 1567 01ee 0B00     		movs	r3, r1
 1568 01f0 0020     		movs	r0, #0
 1569 01f2 1249     		ldr	r1, .L129
 1570 01f4 FFF7FEFF 		bl	pow
 1571              	.LVL208:
 1572 01f8 0200     		movs	r2, r0
 1573 01fa 0B00     		movs	r3, r1
 1574 01fc 3000     		movs	r0, r6
 1575 01fe 3900     		movs	r1, r7
 1576 0200 FFF7FEFF 		bl	__aeabi_ddiv
 1577              	.LVL209:
 1578 0204 019B     		ldr	r3, [sp, #4]
 1579 0206 1860     		str	r0, [r3]
 1580 0208 5960     		str	r1, [r3, #4]
 563:Source\azure_iot_sdk\c-utility\src/crt_abstractions.c **** 
 564:Source\azure_iot_sdk\c-utility\src/crt_abstractions.c ****             /* Unify rest of integerSize and fractionSize in the exponential. */
 565:Source\azure_iot_sdk\c-utility\src/crt_abstractions.c ****             (*exponential) += integerSize - 1;
 1581              		.loc 1 565 0
 1582 020a 4B46     		mov	r3, r9
 1583 020c 013B     		subs	r3, r3, #1
 1584 020e 0C9A     		ldr	r2, [sp, #48]
 1585 0210 1268     		ldr	r2, [r2]
 1586 0212 0192     		str	r2, [sp, #4]
 1587              	.LVL210:
 1588 0214 9446     		mov	ip, r2
 1589 0216 6344     		add	r3, r3, ip
 1590 0218 0C9A     		ldr	r2, [sp, #48]
 1591 021a 1360     		str	r3, [r2]
 1592 021c 06E0     		b	.L102
 1593              	.LVL211:
 1594              	.L116:
ARM GAS  C:\Users\Phuong\AppData\Local\Temp\cceqeziA.s 			page 42


 512:Source\azure_iot_sdk\c-utility\src/crt_abstractions.c ****     }
 1595              		.loc 1 512 0
 1596 021e 0024     		movs	r4, #0
 1597 0220 04E0     		b	.L102
 1598              	.L117:
 518:Source\azure_iot_sdk\c-utility\src/crt_abstractions.c ****     }
 1599              		.loc 1 518 0
 1600 0222 0124     		movs	r4, #1
 1601 0224 02E0     		b	.L102
 1602              	.L120:
 478:Source\azure_iot_sdk\c-utility\src/crt_abstractions.c **** 
 1603              		.loc 1 478 0
 1604 0226 0424     		movs	r4, #4
 1605 0228 00E0     		b	.L102
 1606              	.L123:
 1607 022a 0424     		movs	r4, #4
 1608              	.LVL212:
 1609              	.L102:
 566:Source\azure_iot_sdk\c-utility\src/crt_abstractions.c ****         }
 567:Source\azure_iot_sdk\c-utility\src/crt_abstractions.c ****     }
 568:Source\azure_iot_sdk\c-utility\src/crt_abstractions.c **** 
 569:Source\azure_iot_sdk\c-utility\src/crt_abstractions.c ****     return result;
 570:Source\azure_iot_sdk\c-utility\src/crt_abstractions.c **** }
 1610              		.loc 1 570 0
 1611 022c 2000     		movs	r0, r4
 1612 022e 04B0     		add	sp, sp, #16
 1613              		@ sp needed
 1614              	.LVL213:
 1615              	.LVL214:
 1616 0230 1CBC     		pop	{r2, r3, r4}
 1617 0232 9046     		mov	r8, r2
 1618 0234 9946     		mov	r9, r3
 1619 0236 A246     		mov	r10, r4
 1620 0238 F0BD     		pop	{r4, r5, r6, r7, pc}
 1621              	.L130:
 1622 023a C046     		.align	2
 1623              	.L129:
 1624 023c 00002440 		.word	1076101120
 1625              		.cfi_endproc
 1626              	.LFE9:
 1627              		.size	splitFloatString, .-splitFloatString
 1628              		.global	__aeabi_i2f
 1629              		.global	__aeabi_fmul
 1630              		.global	__aeabi_dmul
 1631              		.global	__aeabi_dcmpge
 1632              		.global	__aeabi_dcmple
 1633              		.global	__aeabi_d2f
 1634              		.section	.text.strtof_s,"ax",%progbits
 1635              		.align	2
 1636              		.global	strtof_s
 1637              		.code	16
 1638              		.thumb_func
 1639              		.type	strtof_s, %function
 1640              	strtof_s:
 1641              	.LFB10:
 571:Source\azure_iot_sdk\c-utility\src/crt_abstractions.c **** 
 572:Source\azure_iot_sdk\c-utility\src/crt_abstractions.c **** /*Codes_SRS_CRT_ABSTRACTIONS_21_015: [The strtof_s must convert the initial portion of the string p
ARM GAS  C:\Users\Phuong\AppData\Local\Temp\cceqeziA.s 			page 43


 573:Source\azure_iot_sdk\c-utility\src/crt_abstractions.c **** /*Codes_SRS_CRT_ABSTRACTIONS_21_016: [The strtof_s must return the float that represents the value 
 574:Source\azure_iot_sdk\c-utility\src/crt_abstractions.c **** float strtof_s(const char* nptr, char** endptr)
 575:Source\azure_iot_sdk\c-utility\src/crt_abstractions.c **** {
 1642              		.loc 1 575 0
 1643              		.cfi_startproc
 1644              		@ args = 0, pretend = 0, frame = 24
 1645              		@ frame_needed = 0, uses_anonymous_args = 0
 1646              	.LVL215:
 1647 0000 F0B5     		push	{r4, r5, r6, r7, lr}
 1648              		.cfi_def_cfa_offset 20
 1649              		.cfi_offset 4, -20
 1650              		.cfi_offset 5, -16
 1651              		.cfi_offset 6, -12
 1652              		.cfi_offset 7, -8
 1653              		.cfi_offset 14, -4
 1654 0002 89B0     		sub	sp, sp, #36
 1655              		.cfi_def_cfa_offset 56
 1656 0004 0400     		movs	r4, r0
 1657 0006 0F00     		movs	r7, r1
 576:Source\azure_iot_sdk\c-utility\src/crt_abstractions.c ****     int signal = 1;
 1658              		.loc 1 576 0
 1659 0008 0123     		movs	r3, #1
 1660 000a 0793     		str	r3, [sp, #28]
 577:Source\azure_iot_sdk\c-utility\src/crt_abstractions.c ****     double fraction;
 578:Source\azure_iot_sdk\c-utility\src/crt_abstractions.c ****     int exponential;
 579:Source\azure_iot_sdk\c-utility\src/crt_abstractions.c ****     char* runner = (char*)nptr;
 1661              		.loc 1 579 0
 1662 000c 0290     		str	r0, [sp, #8]
 1663              	.LVL216:
 580:Source\azure_iot_sdk\c-utility\src/crt_abstractions.c ****     double val;
 581:Source\azure_iot_sdk\c-utility\src/crt_abstractions.c **** 
 582:Source\azure_iot_sdk\c-utility\src/crt_abstractions.c ****     /*Codes_SRS_CRT_ABSTRACTIONS_21_021: [If no conversion could be performed, the strtof_s returns
 583:Source\azure_iot_sdk\c-utility\src/crt_abstractions.c ****     float result = 0.0;
 584:Source\azure_iot_sdk\c-utility\src/crt_abstractions.c **** 
 585:Source\azure_iot_sdk\c-utility\src/crt_abstractions.c ****     /*Codes_SRS_CRT_ABSTRACTIONS_21_036: [**If the nptr is NULL, the strtof_s must not perform any 
 586:Source\azure_iot_sdk\c-utility\src/crt_abstractions.c ****     if (nptr != NULL)
 1664              		.loc 1 586 0
 1665 000e 0028     		cmp	r0, #0
 1666 0010 6AD0     		beq	.L141
 587:Source\azure_iot_sdk\c-utility\src/crt_abstractions.c ****     {
 588:Source\azure_iot_sdk\c-utility\src/crt_abstractions.c ****         switch (splitFloatString(nptr, &runner, &signal, &fraction, &exponential))
 1667              		.loc 1 588 0
 1668 0012 03AB     		add	r3, sp, #12
 1669 0014 0093     		str	r3, [sp]
 1670 0016 04AB     		add	r3, sp, #16
 1671 0018 07AA     		add	r2, sp, #28
 1672 001a 02A9     		add	r1, sp, #8
 1673              	.LVL217:
 1674 001c FFF7FEFF 		bl	splitFloatString
 1675              	.LVL218:
 1676 0020 0128     		cmp	r0, #1
 1677 0022 63D0     		beq	.L142
 1678 0024 0028     		cmp	r0, #0
 1679 0026 04D0     		beq	.L134
 1680 0028 0228     		cmp	r0, #2
 1681 002a 0FD0     		beq	.L135
 1682 002c 0328     		cmp	r0, #3
ARM GAS  C:\Users\Phuong\AppData\Local\Temp\cceqeziA.s 			page 44


 1683 002e 4BD0     		beq	.L136
 1684 0030 57E0     		b	.L145
 1685              	.L134:
 589:Source\azure_iot_sdk\c-utility\src/crt_abstractions.c ****         {
 590:Source\azure_iot_sdk\c-utility\src/crt_abstractions.c ****         case FST_INFINITY:
 591:Source\azure_iot_sdk\c-utility\src/crt_abstractions.c ****             /*Codes_SRS_CRT_ABSTRACTIONS_21_023: [If the string is 'INF' of 'INFINITY' (ignoring ca
 592:Source\azure_iot_sdk\c-utility\src/crt_abstractions.c ****             result = INFINITY * (signal);
 1686              		.loc 1 592 0
 1687 0032 0798     		ldr	r0, [sp, #28]
 1688 0034 FFF7FEFF 		bl	__aeabi_i2f
 1689              	.LVL219:
 1690 0038 FF21     		movs	r1, #255
 1691 003a C905     		lsls	r1, r1, #23
 1692 003c FFF7FEFF 		bl	__aeabi_fmul
 1693              	.LVL220:
 1694 0040 041C     		adds	r4, r0, #0
 1695              	.LVL221:
 593:Source\azure_iot_sdk\c-utility\src/crt_abstractions.c ****             errno = 0;
 1696              		.loc 1 593 0
 1697 0042 FFF7FEFF 		bl	__errno
 1698              	.LVL222:
 1699 0046 0023     		movs	r3, #0
 1700 0048 0360     		str	r3, [r0]
 594:Source\azure_iot_sdk\c-utility\src/crt_abstractions.c ****             break;
 1701              		.loc 1 594 0
 1702 004a 50E0     		b	.L132
 1703              	.LVL223:
 1704              	.L135:
 595:Source\azure_iot_sdk\c-utility\src/crt_abstractions.c ****         case FST_NAN:
 596:Source\azure_iot_sdk\c-utility\src/crt_abstractions.c ****             /*Codes_SRS_CRT_ABSTRACTIONS_21_024: [If the string is 'NAN' or 'NAN(...)' (ignoring ca
 597:Source\azure_iot_sdk\c-utility\src/crt_abstractions.c ****             result = NAN;
 598:Source\azure_iot_sdk\c-utility\src/crt_abstractions.c ****             break;
 599:Source\azure_iot_sdk\c-utility\src/crt_abstractions.c ****         case FST_NUMBER:
 600:Source\azure_iot_sdk\c-utility\src/crt_abstractions.c ****             val = fraction * pow(10.0, (double)exponential) * (double)signal;
 1705              		.loc 1 600 0
 1706 004c 0398     		ldr	r0, [sp, #12]
 1707 004e FFF7FEFF 		bl	__aeabi_i2d
 1708              	.LVL224:
 1709 0052 0200     		movs	r2, r0
 1710 0054 0B00     		movs	r3, r1
 1711 0056 0020     		movs	r0, #0
 1712 0058 2849     		ldr	r1, .L146
 1713 005a FFF7FEFF 		bl	pow
 1714              	.LVL225:
 1715 005e 049A     		ldr	r2, [sp, #16]
 1716 0060 059B     		ldr	r3, [sp, #20]
 1717 0062 FFF7FEFF 		bl	__aeabi_dmul
 1718              	.LVL226:
 1719 0066 0400     		movs	r4, r0
 1720              	.LVL227:
 1721 0068 0D00     		movs	r5, r1
 1722 006a 079E     		ldr	r6, [sp, #28]
 1723 006c 3000     		movs	r0, r6
 1724 006e FFF7FEFF 		bl	__aeabi_i2d
 1725              	.LVL228:
 1726 0072 0200     		movs	r2, r0
 1727 0074 0B00     		movs	r3, r1
ARM GAS  C:\Users\Phuong\AppData\Local\Temp\cceqeziA.s 			page 45


 1728 0076 2000     		movs	r0, r4
 1729 0078 2900     		movs	r1, r5
 1730 007a FFF7FEFF 		bl	__aeabi_dmul
 1731              	.LVL229:
 1732 007e 0400     		movs	r4, r0
 1733 0080 0D00     		movs	r5, r1
 1734              	.LVL230:
 601:Source\azure_iot_sdk\c-utility\src/crt_abstractions.c ****             if ((val >= (FLT_MAX * (-1))) && (val <= FLT_MAX))
 1735              		.loc 1 601 0
 1736 0082 E022     		movs	r2, #224
 1737 0084 1206     		lsls	r2, r2, #24
 1738 0086 1E4B     		ldr	r3, .L146+4
 1739 0088 FFF7FEFF 		bl	__aeabi_dcmpge
 1740              	.LVL231:
 1741 008c 0028     		cmp	r0, #0
 1742 008e 0ED0     		beq	.L137
 1743              		.loc 1 601 0 is_stmt 0 discriminator 1
 1744 0090 E022     		movs	r2, #224
 1745 0092 1206     		lsls	r2, r2, #24
 1746 0094 1B4B     		ldr	r3, .L146+8
 1747 0096 2000     		movs	r0, r4
 1748 0098 2900     		movs	r1, r5
 1749 009a FFF7FEFF 		bl	__aeabi_dcmple
 1750              	.LVL232:
 1751 009e 0028     		cmp	r0, #0
 1752 00a0 05D0     		beq	.L137
 602:Source\azure_iot_sdk\c-utility\src/crt_abstractions.c ****             {
 603:Source\azure_iot_sdk\c-utility\src/crt_abstractions.c ****                 /*Codes_SRS_CRT_ABSTRACTIONS_21_016: [The strtof_s must return the float that repre
 604:Source\azure_iot_sdk\c-utility\src/crt_abstractions.c ****                 result = (float)val;
 1753              		.loc 1 604 0 is_stmt 1
 1754 00a2 2000     		movs	r0, r4
 1755 00a4 2900     		movs	r1, r5
 1756 00a6 FFF7FEFF 		bl	__aeabi_d2f
 1757              	.LVL233:
 1758 00aa 041C     		adds	r4, r0, #0
 1759              	.LVL234:
 1760 00ac 1FE0     		b	.L132
 1761              	.LVL235:
 1762              	.L137:
 605:Source\azure_iot_sdk\c-utility\src/crt_abstractions.c ****             }
 606:Source\azure_iot_sdk\c-utility\src/crt_abstractions.c ****             else
 607:Source\azure_iot_sdk\c-utility\src/crt_abstractions.c ****             {
 608:Source\azure_iot_sdk\c-utility\src/crt_abstractions.c ****                 /*Codes_SRS_CRT_ABSTRACTIONS_21_022: [If the correct value is outside the range, th
 609:Source\azure_iot_sdk\c-utility\src/crt_abstractions.c ****                 result = HUGE_VALF * (signal);
 1763              		.loc 1 609 0
 1764 00ae 3000     		movs	r0, r6
 1765 00b0 FFF7FEFF 		bl	__aeabi_i2f
 1766              	.LVL236:
 1767 00b4 FF21     		movs	r1, #255
 1768 00b6 C905     		lsls	r1, r1, #23
 1769 00b8 FFF7FEFF 		bl	__aeabi_fmul
 1770              	.LVL237:
 1771 00bc 041C     		adds	r4, r0, #0
 1772              	.LVL238:
 610:Source\azure_iot_sdk\c-utility\src/crt_abstractions.c ****                 errno = ERANGE;
 1773              		.loc 1 610 0
 1774 00be FFF7FEFF 		bl	__errno
ARM GAS  C:\Users\Phuong\AppData\Local\Temp\cceqeziA.s 			page 46


 1775              	.LVL239:
 1776 00c2 2223     		movs	r3, #34
 1777 00c4 0360     		str	r3, [r0]
 1778 00c6 12E0     		b	.L132
 1779              	.LVL240:
 1780              	.L136:
 611:Source\azure_iot_sdk\c-utility\src/crt_abstractions.c ****             }
 612:Source\azure_iot_sdk\c-utility\src/crt_abstractions.c ****             break;
 613:Source\azure_iot_sdk\c-utility\src/crt_abstractions.c ****         case FST_OVERFLOW:
 614:Source\azure_iot_sdk\c-utility\src/crt_abstractions.c ****             /*Codes_SRS_CRT_ABSTRACTIONS_21_022: [If the correct value is outside the range, the st
 615:Source\azure_iot_sdk\c-utility\src/crt_abstractions.c ****             result = HUGE_VALF * (signal);
 1781              		.loc 1 615 0
 1782 00c8 0798     		ldr	r0, [sp, #28]
 1783 00ca FFF7FEFF 		bl	__aeabi_i2f
 1784              	.LVL241:
 1785 00ce FF21     		movs	r1, #255
 1786 00d0 C905     		lsls	r1, r1, #23
 1787 00d2 FFF7FEFF 		bl	__aeabi_fmul
 1788              	.LVL242:
 1789 00d6 041C     		adds	r4, r0, #0
 1790              	.LVL243:
 616:Source\azure_iot_sdk\c-utility\src/crt_abstractions.c ****             errno = ERANGE;
 1791              		.loc 1 616 0
 1792 00d8 FFF7FEFF 		bl	__errno
 1793              	.LVL244:
 1794 00dc 2223     		movs	r3, #34
 1795 00de 0360     		str	r3, [r0]
 617:Source\azure_iot_sdk\c-utility\src/crt_abstractions.c ****             break;
 1796              		.loc 1 617 0
 1797 00e0 05E0     		b	.L132
 1798              	.LVL245:
 1799              	.L145:
 618:Source\azure_iot_sdk\c-utility\src/crt_abstractions.c ****         default:
 619:Source\azure_iot_sdk\c-utility\src/crt_abstractions.c ****             /*Codes_SRS_CRT_ABSTRACTIONS_21_020: [If the subject sequence is empty or does not have
 620:Source\azure_iot_sdk\c-utility\src/crt_abstractions.c ****             runner = (char*)nptr;
 1800              		.loc 1 620 0
 1801 00e2 0294     		str	r4, [sp, #8]
 583:Source\azure_iot_sdk\c-utility\src/crt_abstractions.c **** 
 1802              		.loc 1 583 0
 1803 00e4 0024     		movs	r4, #0
 1804              	.LVL246:
 621:Source\azure_iot_sdk\c-utility\src/crt_abstractions.c ****             break;
 1805              		.loc 1 621 0
 1806 00e6 02E0     		b	.L132
 1807              	.LVL247:
 1808              	.L141:
 583:Source\azure_iot_sdk\c-utility\src/crt_abstractions.c **** 
 1809              		.loc 1 583 0
 1810 00e8 0024     		movs	r4, #0
 1811 00ea 00E0     		b	.L132
 1812              	.LVL248:
 1813              	.L142:
 597:Source\azure_iot_sdk\c-utility\src/crt_abstractions.c ****             break;
 1814              		.loc 1 597 0
 1815 00ec 064C     		ldr	r4, .L146+12
 1816              	.LVL249:
 1817              	.L132:
ARM GAS  C:\Users\Phuong\AppData\Local\Temp\cceqeziA.s 			page 47


 622:Source\azure_iot_sdk\c-utility\src/crt_abstractions.c ****         }
 623:Source\azure_iot_sdk\c-utility\src/crt_abstractions.c ****     }
 624:Source\azure_iot_sdk\c-utility\src/crt_abstractions.c **** 
 625:Source\azure_iot_sdk\c-utility\src/crt_abstractions.c ****     /*Codes_SRS_CRT_ABSTRACTIONS_21_017: [The strtof_s must return in endptr a final string of one 
 626:Source\azure_iot_sdk\c-utility\src/crt_abstractions.c ****     if (endptr != NULL)
 1818              		.loc 1 626 0
 1819 00ee 002F     		cmp	r7, #0
 1820 00f0 01D0     		beq	.L140
 627:Source\azure_iot_sdk\c-utility\src/crt_abstractions.c ****     {
 628:Source\azure_iot_sdk\c-utility\src/crt_abstractions.c ****         (*endptr) = runner;
 1821              		.loc 1 628 0
 1822 00f2 029B     		ldr	r3, [sp, #8]
 1823 00f4 3B60     		str	r3, [r7]
 1824              	.L140:
 629:Source\azure_iot_sdk\c-utility\src/crt_abstractions.c ****     }
 630:Source\azure_iot_sdk\c-utility\src/crt_abstractions.c **** 
 631:Source\azure_iot_sdk\c-utility\src/crt_abstractions.c ****     return result;
 632:Source\azure_iot_sdk\c-utility\src/crt_abstractions.c **** }
 1825              		.loc 1 632 0
 1826 00f6 201C     		adds	r0, r4, #0
 1827 00f8 09B0     		add	sp, sp, #36
 1828              		@ sp needed
 1829              	.LVL250:
 1830              	.LVL251:
 1831 00fa F0BD     		pop	{r4, r5, r6, r7, pc}
 1832              	.L147:
 1833              		.align	2
 1834              	.L146:
 1835 00fc 00002440 		.word	1076101120
 1836 0100 FFFFEFC7 		.word	-940572673
 1837 0104 FFFFEF47 		.word	1206910975
 1838 0108 0000C07F 		.word	2143289344
 1839              		.cfi_endproc
 1840              	.LFE10:
 1841              		.size	strtof_s, .-strtof_s
 1842              		.global	__aeabi_f2d
 1843              		.section	.text.strtold_s,"ax",%progbits
 1844              		.align	2
 1845              		.global	strtold_s
 1846              		.code	16
 1847              		.thumb_func
 1848              		.type	strtold_s, %function
 1849              	strtold_s:
 1850              	.LFB11:
 633:Source\azure_iot_sdk\c-utility\src/crt_abstractions.c **** 
 634:Source\azure_iot_sdk\c-utility\src/crt_abstractions.c **** /*Codes_SRS_CRT_ABSTRACTIONS_21_025: [The strtold_s must convert the initial portion of the string 
 635:Source\azure_iot_sdk\c-utility\src/crt_abstractions.c **** /*Codes_SRS_CRT_ABSTRACTIONS_21_026: [The strtold_s must return the long double that represents the
 636:Source\azure_iot_sdk\c-utility\src/crt_abstractions.c **** long double strtold_s(const char* nptr, char** endptr)
 637:Source\azure_iot_sdk\c-utility\src/crt_abstractions.c **** {
 1851              		.loc 1 637 0
 1852              		.cfi_startproc
 1853              		@ args = 0, pretend = 0, frame = 24
 1854              		@ frame_needed = 0, uses_anonymous_args = 0
 1855              	.LVL252:
 1856 0000 F0B5     		push	{r4, r5, r6, r7, lr}
 1857              		.cfi_def_cfa_offset 20
 1858              		.cfi_offset 4, -20
ARM GAS  C:\Users\Phuong\AppData\Local\Temp\cceqeziA.s 			page 48


 1859              		.cfi_offset 5, -16
 1860              		.cfi_offset 6, -12
 1861              		.cfi_offset 7, -8
 1862              		.cfi_offset 14, -4
 1863 0002 89B0     		sub	sp, sp, #36
 1864              		.cfi_def_cfa_offset 56
 1865 0004 0400     		movs	r4, r0
 1866 0006 0D00     		movs	r5, r1
 638:Source\azure_iot_sdk\c-utility\src/crt_abstractions.c ****     int signal = 1;
 1867              		.loc 1 638 0
 1868 0008 0123     		movs	r3, #1
 1869 000a 0793     		str	r3, [sp, #28]
 639:Source\azure_iot_sdk\c-utility\src/crt_abstractions.c ****     double fraction;
 640:Source\azure_iot_sdk\c-utility\src/crt_abstractions.c ****     int exponential;
 641:Source\azure_iot_sdk\c-utility\src/crt_abstractions.c ****     char* runner = (char*)nptr;
 1870              		.loc 1 641 0
 1871 000c 0290     		str	r0, [sp, #8]
 1872              	.LVL253:
 642:Source\azure_iot_sdk\c-utility\src/crt_abstractions.c **** 
 643:Source\azure_iot_sdk\c-utility\src/crt_abstractions.c ****     /*Codes_SRS_CRT_ABSTRACTIONS_21_031: [If no conversion could be performed, the strtold_s return
 644:Source\azure_iot_sdk\c-utility\src/crt_abstractions.c ****     long double result = 0.0;
 645:Source\azure_iot_sdk\c-utility\src/crt_abstractions.c **** 
 646:Source\azure_iot_sdk\c-utility\src/crt_abstractions.c ****     /*Codes_SRS_CRT_ABSTRACTIONS_21_037: [If the nptr is NULL, the strtold_s must not perform any c
 647:Source\azure_iot_sdk\c-utility\src/crt_abstractions.c ****     if (nptr != NULL)
 1873              		.loc 1 647 0
 1874 000e 0028     		cmp	r0, #0
 1875 0010 76D0     		beq	.L160
 648:Source\azure_iot_sdk\c-utility\src/crt_abstractions.c ****     {
 649:Source\azure_iot_sdk\c-utility\src/crt_abstractions.c ****         switch (splitFloatString(nptr, &runner, &signal, &fraction, &exponential))
 1876              		.loc 1 649 0
 1877 0012 03AB     		add	r3, sp, #12
 1878 0014 0093     		str	r3, [sp]
 1879 0016 04AB     		add	r3, sp, #16
 1880 0018 07AA     		add	r2, sp, #28
 1881 001a 02A9     		add	r1, sp, #8
 1882              	.LVL254:
 1883 001c FFF7FEFF 		bl	splitFloatString
 1884              	.LVL255:
 1885 0020 0128     		cmp	r0, #1
 1886 0022 70D0     		beq	.L161
 1887 0024 0028     		cmp	r0, #0
 1888 0026 04D0     		beq	.L151
 1889 0028 0228     		cmp	r0, #2
 1890 002a 12D0     		beq	.L152
 1891 002c 0328     		cmp	r0, #3
 1892 002e 53D0     		beq	.L153
 1893 0030 62E0     		b	.L162
 1894              	.L151:
 650:Source\azure_iot_sdk\c-utility\src/crt_abstractions.c ****         {
 651:Source\azure_iot_sdk\c-utility\src/crt_abstractions.c ****         case FST_INFINITY:
 652:Source\azure_iot_sdk\c-utility\src/crt_abstractions.c ****             /*Codes_SRS_CRT_ABSTRACTIONS_21_033: [If the string is 'INF' of 'INFINITY' (ignoring ca
 653:Source\azure_iot_sdk\c-utility\src/crt_abstractions.c ****             result = INFINITY * (signal);
 1895              		.loc 1 653 0
 1896 0032 0798     		ldr	r0, [sp, #28]
 1897 0034 FFF7FEFF 		bl	__aeabi_i2f
 1898              	.LVL256:
 1899 0038 FF21     		movs	r1, #255
ARM GAS  C:\Users\Phuong\AppData\Local\Temp\cceqeziA.s 			page 49


 1900 003a C905     		lsls	r1, r1, #23
 1901 003c FFF7FEFF 		bl	__aeabi_fmul
 1902              	.LVL257:
 1903 0040 FFF7FEFF 		bl	__aeabi_f2d
 1904              	.LVL258:
 1905 0044 0600     		movs	r6, r0
 1906 0046 0F00     		movs	r7, r1
 1907              	.LVL259:
 654:Source\azure_iot_sdk\c-utility\src/crt_abstractions.c ****             errno = 0;
 1908              		.loc 1 654 0
 1909 0048 FFF7FEFF 		bl	__errno
 1910              	.LVL260:
 1911 004c 0023     		movs	r3, #0
 1912 004e 0360     		str	r3, [r0]
 655:Source\azure_iot_sdk\c-utility\src/crt_abstractions.c ****             break;
 1913              		.loc 1 655 0
 1914 0050 5BE0     		b	.L149
 1915              	.LVL261:
 1916              	.L152:
 656:Source\azure_iot_sdk\c-utility\src/crt_abstractions.c ****         case FST_NAN:
 657:Source\azure_iot_sdk\c-utility\src/crt_abstractions.c ****             /*Codes_SRS_CRT_ABSTRACTIONS_21_034: [If the string is 'NAN' or 'NAN(...)' (ignoring ca
 658:Source\azure_iot_sdk\c-utility\src/crt_abstractions.c ****             result = NAN;
 659:Source\azure_iot_sdk\c-utility\src/crt_abstractions.c ****             break;
 660:Source\azure_iot_sdk\c-utility\src/crt_abstractions.c ****         case FST_NUMBER:
 661:Source\azure_iot_sdk\c-utility\src/crt_abstractions.c ****             if ((exponential != DBL_MAX_10_EXP || (fraction <= 1.7976931348623158)) &&
 1917              		.loc 1 661 0
 1918 0052 039C     		ldr	r4, [sp, #12]
 1919              	.LVL262:
 1920 0054 9A23     		movs	r3, #154
 1921 0056 5B00     		lsls	r3, r3, #1
 1922 0058 9C42     		cmp	r4, r3
 1923 005a 07D1     		bne	.L154
 1924              		.loc 1 661 0 is_stmt 0 discriminator 2
 1925 005c 2F4A     		ldr	r2, .L163
 1926 005e 304B     		ldr	r3, .L163+4
 1927 0060 0498     		ldr	r0, [sp, #16]
 1928 0062 0599     		ldr	r1, [sp, #20]
 1929 0064 FFF7FEFF 		bl	__aeabi_dcmple
 1930              	.LVL263:
 1931 0068 0028     		cmp	r0, #0
 1932 006a 25D0     		beq	.L155
 1933              	.L154:
 1934              		.loc 1 661 0 discriminator 3
 1935 006c 2D4B     		ldr	r3, .L163+8
 1936 006e 9C42     		cmp	r4, r3
 1937 0070 07D1     		bne	.L157
 662:Source\azure_iot_sdk\c-utility\src/crt_abstractions.c ****                 (exponential != (DBL_MAX_10_EXP * (-1)) || (fraction <= 2.2250738585072014)))
 1938              		.loc 1 662 0 is_stmt 1
 1939 0072 2D4A     		ldr	r2, .L163+12
 1940 0074 2D4B     		ldr	r3, .L163+16
 1941 0076 0498     		ldr	r0, [sp, #16]
 1942 0078 0599     		ldr	r1, [sp, #20]
 1943 007a FFF7FEFF 		bl	__aeabi_dcmple
 1944              	.LVL264:
 1945 007e 0028     		cmp	r0, #0
 1946 0080 1AD0     		beq	.L155
 1947              	.L157:
ARM GAS  C:\Users\Phuong\AppData\Local\Temp\cceqeziA.s 			page 50


 663:Source\azure_iot_sdk\c-utility\src/crt_abstractions.c ****             {
 664:Source\azure_iot_sdk\c-utility\src/crt_abstractions.c ****                 /*Codes_SRS_CRT_ABSTRACTIONS_21_026: [The strtold_s must return the long double tha
 665:Source\azure_iot_sdk\c-utility\src/crt_abstractions.c ****                 result = fraction * pow(10.0, (double)exponential) * (double)signal;
 1948              		.loc 1 665 0
 1949 0082 2000     		movs	r0, r4
 1950 0084 FFF7FEFF 		bl	__aeabi_i2d
 1951              	.LVL265:
 1952 0088 0200     		movs	r2, r0
 1953 008a 0B00     		movs	r3, r1
 1954 008c 0020     		movs	r0, #0
 1955 008e 2849     		ldr	r1, .L163+20
 1956 0090 FFF7FEFF 		bl	pow
 1957              	.LVL266:
 1958 0094 049A     		ldr	r2, [sp, #16]
 1959 0096 059B     		ldr	r3, [sp, #20]
 1960 0098 FFF7FEFF 		bl	__aeabi_dmul
 1961              	.LVL267:
 1962 009c 0600     		movs	r6, r0
 1963 009e 0F00     		movs	r7, r1
 1964 00a0 0798     		ldr	r0, [sp, #28]
 1965 00a2 FFF7FEFF 		bl	__aeabi_i2d
 1966              	.LVL268:
 1967 00a6 0200     		movs	r2, r0
 1968 00a8 0B00     		movs	r3, r1
 1969 00aa 3000     		movs	r0, r6
 1970 00ac 3900     		movs	r1, r7
 1971 00ae FFF7FEFF 		bl	__aeabi_dmul
 1972              	.LVL269:
 1973 00b2 0600     		movs	r6, r0
 1974 00b4 0F00     		movs	r7, r1
 1975              	.LVL270:
 1976 00b6 28E0     		b	.L149
 1977              	.LVL271:
 1978              	.L155:
 666:Source\azure_iot_sdk\c-utility\src/crt_abstractions.c ****             }
 667:Source\azure_iot_sdk\c-utility\src/crt_abstractions.c ****             else
 668:Source\azure_iot_sdk\c-utility\src/crt_abstractions.c ****             {
 669:Source\azure_iot_sdk\c-utility\src/crt_abstractions.c ****                 /*Codes_SRS_CRT_ABSTRACTIONS_21_032: [If the correct value is outside the range, th
 670:Source\azure_iot_sdk\c-utility\src/crt_abstractions.c ****                 result = HUGE_VALF * (signal);
 1979              		.loc 1 670 0
 1980 00b8 0798     		ldr	r0, [sp, #28]
 1981 00ba FFF7FEFF 		bl	__aeabi_i2f
 1982              	.LVL272:
 1983 00be FF21     		movs	r1, #255
 1984 00c0 C905     		lsls	r1, r1, #23
 1985 00c2 FFF7FEFF 		bl	__aeabi_fmul
 1986              	.LVL273:
 1987 00c6 FFF7FEFF 		bl	__aeabi_f2d
 1988              	.LVL274:
 1989 00ca 0600     		movs	r6, r0
 1990 00cc 0F00     		movs	r7, r1
 1991              	.LVL275:
 671:Source\azure_iot_sdk\c-utility\src/crt_abstractions.c ****                 errno = ERANGE;
 1992              		.loc 1 671 0
 1993 00ce FFF7FEFF 		bl	__errno
 1994              	.LVL276:
 1995 00d2 2223     		movs	r3, #34
ARM GAS  C:\Users\Phuong\AppData\Local\Temp\cceqeziA.s 			page 51


 1996 00d4 0360     		str	r3, [r0]
 1997 00d6 18E0     		b	.L149
 1998              	.LVL277:
 1999              	.L153:
 672:Source\azure_iot_sdk\c-utility\src/crt_abstractions.c ****             }
 673:Source\azure_iot_sdk\c-utility\src/crt_abstractions.c ****             break;
 674:Source\azure_iot_sdk\c-utility\src/crt_abstractions.c ****         case FST_OVERFLOW:
 675:Source\azure_iot_sdk\c-utility\src/crt_abstractions.c ****             /*Codes_SRS_CRT_ABSTRACTIONS_21_032: [If the correct value is outside the range, the st
 676:Source\azure_iot_sdk\c-utility\src/crt_abstractions.c ****             result = HUGE_VALF * (signal);
 2000              		.loc 1 676 0
 2001 00d8 0798     		ldr	r0, [sp, #28]
 2002 00da FFF7FEFF 		bl	__aeabi_i2f
 2003              	.LVL278:
 2004 00de FF21     		movs	r1, #255
 2005 00e0 C905     		lsls	r1, r1, #23
 2006 00e2 FFF7FEFF 		bl	__aeabi_fmul
 2007              	.LVL279:
 2008 00e6 FFF7FEFF 		bl	__aeabi_f2d
 2009              	.LVL280:
 2010 00ea 0600     		movs	r6, r0
 2011 00ec 0F00     		movs	r7, r1
 2012              	.LVL281:
 677:Source\azure_iot_sdk\c-utility\src/crt_abstractions.c ****             errno = ERANGE;
 2013              		.loc 1 677 0
 2014 00ee FFF7FEFF 		bl	__errno
 2015              	.LVL282:
 2016 00f2 2223     		movs	r3, #34
 2017 00f4 0360     		str	r3, [r0]
 678:Source\azure_iot_sdk\c-utility\src/crt_abstractions.c ****             break;
 2018              		.loc 1 678 0
 2019 00f6 08E0     		b	.L149
 2020              	.LVL283:
 2021              	.L162:
 679:Source\azure_iot_sdk\c-utility\src/crt_abstractions.c ****         default:
 680:Source\azure_iot_sdk\c-utility\src/crt_abstractions.c ****             /*Codes_SRS_CRT_ABSTRACTIONS_21_030: [If the subject sequence is empty or does not have
 681:Source\azure_iot_sdk\c-utility\src/crt_abstractions.c ****             runner = (char*)nptr;
 2022              		.loc 1 681 0
 2023 00f8 0294     		str	r4, [sp, #8]
 644:Source\azure_iot_sdk\c-utility\src/crt_abstractions.c **** 
 2024              		.loc 1 644 0
 2025 00fa 0026     		movs	r6, #0
 2026 00fc 0027     		movs	r7, #0
 682:Source\azure_iot_sdk\c-utility\src/crt_abstractions.c ****             break;
 2027              		.loc 1 682 0
 2028 00fe 04E0     		b	.L149
 2029              	.LVL284:
 2030              	.L160:
 644:Source\azure_iot_sdk\c-utility\src/crt_abstractions.c **** 
 2031              		.loc 1 644 0
 2032 0100 0026     		movs	r6, #0
 2033 0102 0027     		movs	r7, #0
 2034 0104 01E0     		b	.L149
 2035              	.LVL285:
 2036              	.L161:
 658:Source\azure_iot_sdk\c-utility\src/crt_abstractions.c ****             break;
 2037              		.loc 1 658 0
 2038 0106 0026     		movs	r6, #0
ARM GAS  C:\Users\Phuong\AppData\Local\Temp\cceqeziA.s 			page 52


 2039 0108 0A4F     		ldr	r7, .L163+24
 2040              	.LVL286:
 2041              	.L149:
 683:Source\azure_iot_sdk\c-utility\src/crt_abstractions.c ****         }
 684:Source\azure_iot_sdk\c-utility\src/crt_abstractions.c ****     }
 685:Source\azure_iot_sdk\c-utility\src/crt_abstractions.c **** 
 686:Source\azure_iot_sdk\c-utility\src/crt_abstractions.c ****     /*Codes_SRS_CRT_ABSTRACTIONS_21_027: [The strtold_s must return in endptr a final string of one
 687:Source\azure_iot_sdk\c-utility\src/crt_abstractions.c ****     if (endptr != NULL)
 2042              		.loc 1 687 0
 2043 010a 002D     		cmp	r5, #0
 2044 010c 01D0     		beq	.L159
 688:Source\azure_iot_sdk\c-utility\src/crt_abstractions.c ****     {
 689:Source\azure_iot_sdk\c-utility\src/crt_abstractions.c ****         (*endptr) = runner;
 2045              		.loc 1 689 0
 2046 010e 029B     		ldr	r3, [sp, #8]
 2047 0110 2B60     		str	r3, [r5]
 2048              	.L159:
 690:Source\azure_iot_sdk\c-utility\src/crt_abstractions.c ****     }
 691:Source\azure_iot_sdk\c-utility\src/crt_abstractions.c **** 
 692:Source\azure_iot_sdk\c-utility\src/crt_abstractions.c ****     return result;
 693:Source\azure_iot_sdk\c-utility\src/crt_abstractions.c **** }
 2049              		.loc 1 693 0
 2050 0112 3000     		movs	r0, r6
 2051 0114 3900     		movs	r1, r7
 2052 0116 09B0     		add	sp, sp, #36
 2053              		@ sp needed
 2054              	.LVL287:
 2055              	.LVL288:
 2056 0118 F0BD     		pop	{r4, r5, r6, r7, pc}
 2057              	.L164:
 2058 011a C046     		.align	2
 2059              	.L163:
 2060 011c 48A367E0 		.word	-530078904
 2061 0120 59C3FC3F 		.word	1073529689
 2062 0124 CCFEFFFF 		.word	-308
 2063 0128 A0C8EB85 		.word	-2048145248
 2064 012c F3CC0140 		.word	1073859827
 2065 0130 00002440 		.word	1076101120
 2066 0134 0000F87F 		.word	2146959360
 2067              		.cfi_endproc
 2068              	.LFE11:
 2069              		.size	strtold_s, .-strtold_s
 2070              		.section	.text.mallocAndStrcpy_s,"ax",%progbits
 2071              		.align	2
 2072              		.global	mallocAndStrcpy_s
 2073              		.code	16
 2074              		.thumb_func
 2075              		.type	mallocAndStrcpy_s, %function
 2076              	mallocAndStrcpy_s:
 2077              	.LFB12:
 694:Source\azure_iot_sdk\c-utility\src/crt_abstractions.c **** 
 695:Source\azure_iot_sdk\c-utility\src/crt_abstractions.c **** 
 696:Source\azure_iot_sdk\c-utility\src/crt_abstractions.c **** /*Codes_SRS_CRT_ABSTRACTIONS_99_038: [mallocAndstrcpy_s shall allocate memory for destination buffe
 697:Source\azure_iot_sdk\c-utility\src/crt_abstractions.c **** int mallocAndStrcpy_s(char** destination, const char* source)
 698:Source\azure_iot_sdk\c-utility\src/crt_abstractions.c **** {
 2078              		.loc 1 698 0
 2079              		.cfi_startproc
ARM GAS  C:\Users\Phuong\AppData\Local\Temp\cceqeziA.s 			page 53


 2080              		@ args = 0, pretend = 0, frame = 0
 2081              		@ frame_needed = 0, uses_anonymous_args = 0
 2082              	.LVL289:
 2083 0000 70B5     		push	{r4, r5, r6, lr}
 2084              		.cfi_def_cfa_offset 16
 2085              		.cfi_offset 4, -16
 2086              		.cfi_offset 5, -12
 2087              		.cfi_offset 6, -8
 2088              		.cfi_offset 14, -4
 2089 0002 0500     		movs	r5, r0
 2090 0004 0C00     		movs	r4, r1
 699:Source\azure_iot_sdk\c-utility\src/crt_abstractions.c ****     int result;
 700:Source\azure_iot_sdk\c-utility\src/crt_abstractions.c ****     int copied_result;
 701:Source\azure_iot_sdk\c-utility\src/crt_abstractions.c ****     /*Codes_SRS_CRT_ABSTRACTIONS_99_036: [destination parameter or source parameter is NULL, the er
 702:Source\azure_iot_sdk\c-utility\src/crt_abstractions.c ****     if ((destination == NULL) || (source == NULL))
 2091              		.loc 1 702 0
 2092 0006 0028     		cmp	r0, #0
 2093 0008 17D0     		beq	.L167
 2094              		.loc 1 702 0 is_stmt 0 discriminator 1
 2095 000a 0029     		cmp	r1, #0
 2096 000c 17D0     		beq	.L168
 2097              	.LBB11:
 703:Source\azure_iot_sdk\c-utility\src/crt_abstractions.c ****     {
 704:Source\azure_iot_sdk\c-utility\src/crt_abstractions.c ****         /*If strDestination or strSource is a NULL pointer[...]these functions return EINVAL */
 705:Source\azure_iot_sdk\c-utility\src/crt_abstractions.c ****         result = EINVAL;
 706:Source\azure_iot_sdk\c-utility\src/crt_abstractions.c ****     }
 707:Source\azure_iot_sdk\c-utility\src/crt_abstractions.c ****     else
 708:Source\azure_iot_sdk\c-utility\src/crt_abstractions.c ****     {
 709:Source\azure_iot_sdk\c-utility\src/crt_abstractions.c ****         size_t l = strlen(source);
 2098              		.loc 1 709 0 is_stmt 1
 2099 000e 0800     		movs	r0, r1
 2100              	.LVL290:
 2101 0010 FFF7FEFF 		bl	strlen
 2102              	.LVL291:
 710:Source\azure_iot_sdk\c-utility\src/crt_abstractions.c ****         char* temp = (char*)malloc(l + 1);
 2103              		.loc 1 710 0
 2104 0014 461C     		adds	r6, r0, #1
 2105 0016 3000     		movs	r0, r6
 2106              	.LVL292:
 2107 0018 FFF7FEFF 		bl	malloc
 2108              	.LVL293:
 711:Source\azure_iot_sdk\c-utility\src/crt_abstractions.c **** 
 712:Source\azure_iot_sdk\c-utility\src/crt_abstractions.c ****         /*Codes_SRS_CRT_ABSTRACTIONS_99_037: [Upon failure to allocate memory for the destination, 
 713:Source\azure_iot_sdk\c-utility\src/crt_abstractions.c ****         if (temp == NULL)
 2109              		.loc 1 713 0
 2110 001c 0028     		cmp	r0, #0
 2111 001e 10D0     		beq	.L169
 714:Source\azure_iot_sdk\c-utility\src/crt_abstractions.c ****         {
 715:Source\azure_iot_sdk\c-utility\src/crt_abstractions.c ****             result = ENOMEM;
 716:Source\azure_iot_sdk\c-utility\src/crt_abstractions.c ****         }
 717:Source\azure_iot_sdk\c-utility\src/crt_abstractions.c ****         else
 718:Source\azure_iot_sdk\c-utility\src/crt_abstractions.c ****         {
 719:Source\azure_iot_sdk\c-utility\src/crt_abstractions.c ****             *destination = temp;
 2112              		.loc 1 719 0
 2113 0020 2860     		str	r0, [r5]
 720:Source\azure_iot_sdk\c-utility\src/crt_abstractions.c ****             /*Codes_SRS_CRT_ABSTRACTIONS_99_039: [mallocAndstrcpy_s shall copy the contents in the 
 721:Source\azure_iot_sdk\c-utility\src/crt_abstractions.c ****             copied_result = strcpy_s(*destination, l + 1, source);
ARM GAS  C:\Users\Phuong\AppData\Local\Temp\cceqeziA.s 			page 54


 2114              		.loc 1 721 0
 2115 0022 2200     		movs	r2, r4
 2116 0024 3100     		movs	r1, r6
 2117 0026 FFF7FEFF 		bl	strcpy_s
 2118              	.LVL294:
 2119 002a 041E     		subs	r4, r0, #0
 2120              	.LVL295:
 722:Source\azure_iot_sdk\c-utility\src/crt_abstractions.c ****             if (copied_result < 0) /*strcpy_s error*/
 2121              		.loc 1 722 0
 2122 002c 0BDA     		bge	.L170
 723:Source\azure_iot_sdk\c-utility\src/crt_abstractions.c ****             {
 724:Source\azure_iot_sdk\c-utility\src/crt_abstractions.c ****                 free(*destination);
 2123              		.loc 1 724 0
 2124 002e 2868     		ldr	r0, [r5]
 2125              	.LVL296:
 2126 0030 FFF7FEFF 		bl	free
 2127              	.LVL297:
 725:Source\azure_iot_sdk\c-utility\src/crt_abstractions.c ****                 *destination = NULL;
 2128              		.loc 1 725 0
 2129 0034 0023     		movs	r3, #0
 2130 0036 2B60     		str	r3, [r5]
 2131              	.LVL298:
 2132 0038 06E0     		b	.L166
 2133              	.LVL299:
 2134              	.L167:
 2135              	.LBE11:
 705:Source\azure_iot_sdk\c-utility\src/crt_abstractions.c ****     }
 2136              		.loc 1 705 0
 2137 003a 1624     		movs	r4, #22
 2138 003c 04E0     		b	.L166
 2139              	.L168:
 2140 003e 1624     		movs	r4, #22
 2141 0040 02E0     		b	.L166
 2142              	.LVL300:
 2143              	.L169:
 2144              	.LBB12:
 715:Source\azure_iot_sdk\c-utility\src/crt_abstractions.c ****         }
 2145              		.loc 1 715 0
 2146 0042 0C24     		movs	r4, #12
 2147              	.LVL301:
 2148 0044 00E0     		b	.L166
 2149              	.LVL302:
 2150              	.L170:
 726:Source\azure_iot_sdk\c-utility\src/crt_abstractions.c ****                 result = copied_result;
 727:Source\azure_iot_sdk\c-utility\src/crt_abstractions.c ****             }
 728:Source\azure_iot_sdk\c-utility\src/crt_abstractions.c ****             else
 729:Source\azure_iot_sdk\c-utility\src/crt_abstractions.c ****             {
 730:Source\azure_iot_sdk\c-utility\src/crt_abstractions.c ****                 /*Codes_SRS_CRT_ABSTRACTIONS_99_035: [mallocAndstrcpy_s shall return Zero upon succ
 731:Source\azure_iot_sdk\c-utility\src/crt_abstractions.c ****                 result = 0;
 2151              		.loc 1 731 0
 2152 0046 0024     		movs	r4, #0
 2153              	.LVL303:
 2154              	.L166:
 2155              	.LBE12:
 732:Source\azure_iot_sdk\c-utility\src/crt_abstractions.c ****             }
 733:Source\azure_iot_sdk\c-utility\src/crt_abstractions.c ****         }
 734:Source\azure_iot_sdk\c-utility\src/crt_abstractions.c ****     }
ARM GAS  C:\Users\Phuong\AppData\Local\Temp\cceqeziA.s 			page 55


 735:Source\azure_iot_sdk\c-utility\src/crt_abstractions.c ****     return result;
 736:Source\azure_iot_sdk\c-utility\src/crt_abstractions.c **** }
 2156              		.loc 1 736 0
 2157 0048 2000     		movs	r0, r4
 2158              		@ sp needed
 2159              	.LVL304:
 2160              	.LVL305:
 2161 004a 70BD     		pop	{r4, r5, r6, pc}
 2162              		.cfi_endproc
 2163              	.LFE12:
 2164              		.size	mallocAndStrcpy_s, .-mallocAndStrcpy_s
 2165              		.global	__aeabi_uidivmod
 2166              		.global	__aeabi_uidiv
 2167              		.section	.text.unsignedIntToString,"ax",%progbits
 2168              		.align	2
 2169              		.global	unsignedIntToString
 2170              		.code	16
 2171              		.thumb_func
 2172              		.type	unsignedIntToString, %function
 2173              	unsignedIntToString:
 2174              	.LFB13:
 737:Source\azure_iot_sdk\c-utility\src/crt_abstractions.c **** 
 738:Source\azure_iot_sdk\c-utility\src/crt_abstractions.c **** /*takes "value" and transforms it into a decimal string*/
 739:Source\azure_iot_sdk\c-utility\src/crt_abstractions.c **** /*10 => "10"*/
 740:Source\azure_iot_sdk\c-utility\src/crt_abstractions.c **** /*return 0 when everything went ok*/
 741:Source\azure_iot_sdk\c-utility\src/crt_abstractions.c **** /*Codes_SRS_CRT_ABSTRACTIONS_02_001: [unsignedIntToString shall convert the parameter value to its 
 742:Source\azure_iot_sdk\c-utility\src/crt_abstractions.c **** int unsignedIntToString(char* destination, size_t destinationSize, unsigned int value)
 743:Source\azure_iot_sdk\c-utility\src/crt_abstractions.c **** {
 2175              		.loc 1 743 0
 2176              		.cfi_startproc
 2177              		@ args = 0, pretend = 0, frame = 0
 2178              		@ frame_needed = 0, uses_anonymous_args = 0
 2179              	.LVL306:
 2180 0000 F8B5     		push	{r3, r4, r5, r6, r7, lr}
 2181              		.cfi_def_cfa_offset 24
 2182              		.cfi_offset 3, -24
 2183              		.cfi_offset 4, -20
 2184              		.cfi_offset 5, -16
 2185              		.cfi_offset 6, -12
 2186              		.cfi_offset 7, -8
 2187              		.cfi_offset 14, -4
 2188 0002 4F46     		mov	r7, r9
 2189 0004 4646     		mov	r6, r8
 2190 0006 C0B4     		push	{r6, r7}
 2191              		.cfi_def_cfa_offset 32
 2192              		.cfi_offset 8, -32
 2193              		.cfi_offset 9, -28
 2194 0008 8046     		mov	r8, r0
 2195 000a 8946     		mov	r9, r1
 2196 000c 1400     		movs	r4, r2
 744:Source\azure_iot_sdk\c-utility\src/crt_abstractions.c ****     int result;
 745:Source\azure_iot_sdk\c-utility\src/crt_abstractions.c ****     size_t pos;
 746:Source\azure_iot_sdk\c-utility\src/crt_abstractions.c ****     /*the below loop gets the number in reverse order*/
 747:Source\azure_iot_sdk\c-utility\src/crt_abstractions.c ****     /*Codes_SRS_CRT_ABSTRACTIONS_02_003: [If destination is NULL then unsignedIntToString shall fai
 748:Source\azure_iot_sdk\c-utility\src/crt_abstractions.c ****     /*Codes_SRS_CRT_ABSTRACTIONS_02_002: [If the conversion fails for any reason (for example, insu
 749:Source\azure_iot_sdk\c-utility\src/crt_abstractions.c ****     if (
 2197              		.loc 1 749 0
ARM GAS  C:\Users\Phuong\AppData\Local\Temp\cceqeziA.s 			page 56


 2198 000e 0028     		cmp	r0, #0
 2199 0010 2DD0     		beq	.L177
 750:Source\azure_iot_sdk\c-utility\src/crt_abstractions.c ****         (destination == NULL) ||
 2200              		.loc 1 750 0
 2201 0012 0129     		cmp	r1, #1
 2202 0014 2DD9     		bls	.L178
 2203 0016 0026     		movs	r6, #0
 2204 0018 00E0     		b	.L174
 2205              	.LVL307:
 2206              	.L179:
 751:Source\azure_iot_sdk\c-utility\src/crt_abstractions.c ****         (destinationSize < 2) /*because the smallest number is '0\0' which requires 2 characters*/
 752:Source\azure_iot_sdk\c-utility\src/crt_abstractions.c ****         )
 753:Source\azure_iot_sdk\c-utility\src/crt_abstractions.c ****     {
 754:Source\azure_iot_sdk\c-utility\src/crt_abstractions.c ****         result = __FAILURE__;
 755:Source\azure_iot_sdk\c-utility\src/crt_abstractions.c ****     }
 756:Source\azure_iot_sdk\c-utility\src/crt_abstractions.c ****     else
 757:Source\azure_iot_sdk\c-utility\src/crt_abstractions.c ****     {
 758:Source\azure_iot_sdk\c-utility\src/crt_abstractions.c ****         pos = 0;
 759:Source\azure_iot_sdk\c-utility\src/crt_abstractions.c ****         do
 760:Source\azure_iot_sdk\c-utility\src/crt_abstractions.c ****         {
 761:Source\azure_iot_sdk\c-utility\src/crt_abstractions.c ****             destination[pos++] = '0' + (value % 10);
 2207              		.loc 1 761 0
 2208 001a 3E00     		movs	r6, r7
 2209              	.LVL308:
 2210              	.L174:
 2211              		.loc 1 761 0 is_stmt 0 discriminator 2
 2212 001c 771C     		adds	r7, r6, #1
 2213              	.LVL309:
 2214 001e 4346     		mov	r3, r8
 2215 0020 9D19     		adds	r5, r3, r6
 2216 0022 0A21     		movs	r1, #10
 2217 0024 2000     		movs	r0, r4
 2218 0026 FFF7FEFF 		bl	__aeabi_uidivmod
 2219              	.LVL310:
 2220 002a 3031     		adds	r1, r1, #48
 2221 002c 2970     		strb	r1, [r5]
 762:Source\azure_iot_sdk\c-utility\src/crt_abstractions.c ****             value /= 10;
 2222              		.loc 1 762 0 is_stmt 1 discriminator 2
 2223 002e 0A21     		movs	r1, #10
 2224 0030 2000     		movs	r0, r4
 2225 0032 FFF7FEFF 		bl	__aeabi_uidiv
 2226              	.LVL311:
 2227 0036 041E     		subs	r4, r0, #0
 2228              	.LVL312:
 763:Source\azure_iot_sdk\c-utility\src/crt_abstractions.c ****         } while ((value > 0) && (pos < (destinationSize-1)));
 2229              		.loc 1 763 0 discriminator 2
 2230 0038 03D0     		beq	.L173
 2231              		.loc 1 763 0 is_stmt 0 discriminator 1
 2232 003a 4B46     		mov	r3, r9
 2233 003c 013B     		subs	r3, r3, #1
 2234 003e 9F42     		cmp	r7, r3
 2235 0040 EBD3     		bcc	.L179
 2236              	.L173:
 764:Source\azure_iot_sdk\c-utility\src/crt_abstractions.c **** 
 765:Source\azure_iot_sdk\c-utility\src/crt_abstractions.c ****         if (value == 0)
 2237              		.loc 1 765 0 is_stmt 1
 2238 0042 002C     		cmp	r4, #0
ARM GAS  C:\Users\Phuong\AppData\Local\Temp\cceqeziA.s 			page 57


 2239 0044 17D1     		bne	.L180
 2240              	.LBB13:
 766:Source\azure_iot_sdk\c-utility\src/crt_abstractions.c ****         {
 767:Source\azure_iot_sdk\c-utility\src/crt_abstractions.c ****             size_t w;
 768:Source\azure_iot_sdk\c-utility\src/crt_abstractions.c ****             destination[pos] = '\0';
 2241              		.loc 1 768 0
 2242 0046 4346     		mov	r3, r8
 2243 0048 DB19     		adds	r3, r3, r7
 2244 004a 0022     		movs	r2, #0
 2245 004c 1A70     		strb	r2, [r3]
 2246              	.LVL313:
 769:Source\azure_iot_sdk\c-utility\src/crt_abstractions.c ****             /*all converted and they fit*/
 770:Source\azure_iot_sdk\c-utility\src/crt_abstractions.c ****             for (w = 0; w <= (pos-1) >> 1; w++)
 2247              		.loc 1 770 0
 2248 004e 09E0     		b	.L175
 2249              	.LVL314:
 2250              	.L176:
 2251              	.LBB14:
 771:Source\azure_iot_sdk\c-utility\src/crt_abstractions.c ****             {
 772:Source\azure_iot_sdk\c-utility\src/crt_abstractions.c ****                 char temp;
 773:Source\azure_iot_sdk\c-utility\src/crt_abstractions.c ****                 temp = destination[w];
 2252              		.loc 1 773 0 discriminator 3
 2253 0050 4346     		mov	r3, r8
 2254 0052 9918     		adds	r1, r3, r2
 2255 0054 0878     		ldrb	r0, [r1]
 2256              	.LVL315:
 774:Source\azure_iot_sdk\c-utility\src/crt_abstractions.c ****                 destination[w] = destination[pos - 1 - w];
 2257              		.loc 1 774 0 discriminator 3
 2258 0056 BB1A     		subs	r3, r7, r2
 2259 0058 013B     		subs	r3, r3, #1
 2260 005a 4344     		add	r3, r3, r8
 2261 005c 1C78     		ldrb	r4, [r3]
 2262 005e 0C70     		strb	r4, [r1]
 775:Source\azure_iot_sdk\c-utility\src/crt_abstractions.c ****                 destination[pos -1 - w] = temp;
 2263              		.loc 1 775 0 discriminator 3
 2264 0060 1870     		strb	r0, [r3]
 2265              	.LBE14:
 770:Source\azure_iot_sdk\c-utility\src/crt_abstractions.c ****             {
 2266              		.loc 1 770 0 discriminator 3
 2267 0062 0132     		adds	r2, r2, #1
 2268              	.LVL316:
 2269              	.L175:
 770:Source\azure_iot_sdk\c-utility\src/crt_abstractions.c ****             {
 2270              		.loc 1 770 0 is_stmt 0 discriminator 1
 2271 0064 7308     		lsrs	r3, r6, #1
 2272 0066 9A42     		cmp	r2, r3
 2273 0068 F2D9     		bls	.L176
 776:Source\azure_iot_sdk\c-utility\src/crt_abstractions.c ****             }
 777:Source\azure_iot_sdk\c-utility\src/crt_abstractions.c ****             /*Codes_SRS_CRT_ABSTRACTIONS_02_004: [If the conversion has been successfull then unsig
 778:Source\azure_iot_sdk\c-utility\src/crt_abstractions.c ****             result = 0;
 2274              		.loc 1 778 0 is_stmt 1
 2275 006a 0020     		movs	r0, #0
 2276 006c 04E0     		b	.L172
 2277              	.LVL317:
 2278              	.L177:
 2279              	.LBE13:
 754:Source\azure_iot_sdk\c-utility\src/crt_abstractions.c ****     }
ARM GAS  C:\Users\Phuong\AppData\Local\Temp\cceqeziA.s 			page 58


 2280              		.loc 1 754 0
 2281 006e 0448     		ldr	r0, .L181
 2282              	.LVL318:
 2283 0070 02E0     		b	.L172
 2284              	.LVL319:
 2285              	.L178:
 2286 0072 0348     		ldr	r0, .L181
 2287              	.LVL320:
 2288 0074 00E0     		b	.L172
 2289              	.LVL321:
 2290              	.L180:
 779:Source\azure_iot_sdk\c-utility\src/crt_abstractions.c ****         }
 780:Source\azure_iot_sdk\c-utility\src/crt_abstractions.c ****         else
 781:Source\azure_iot_sdk\c-utility\src/crt_abstractions.c ****         {
 782:Source\azure_iot_sdk\c-utility\src/crt_abstractions.c ****             /*Codes_SRS_CRT_ABSTRACTIONS_02_002: [If the conversion fails for any reason (for examp
 783:Source\azure_iot_sdk\c-utility\src/crt_abstractions.c ****             result = __FAILURE__;
 2291              		.loc 1 783 0
 2292 0076 0348     		ldr	r0, .L181+4
 2293              	.LVL322:
 2294              	.L172:
 784:Source\azure_iot_sdk\c-utility\src/crt_abstractions.c ****         }
 785:Source\azure_iot_sdk\c-utility\src/crt_abstractions.c ****     }
 786:Source\azure_iot_sdk\c-utility\src/crt_abstractions.c ****     return result;
 787:Source\azure_iot_sdk\c-utility\src/crt_abstractions.c **** }
 2295              		.loc 1 787 0
 2296              		@ sp needed
 2297              	.LVL323:
 2298              	.LVL324:
 2299 0078 0CBC     		pop	{r2, r3}
 2300 007a 9046     		mov	r8, r2
 2301 007c 9946     		mov	r9, r3
 2302 007e F8BD     		pop	{r3, r4, r5, r6, r7, pc}
 2303              	.L182:
 2304              		.align	2
 2305              	.L181:
 2306 0080 F2020000 		.word	754
 2307 0084 0F030000 		.word	783
 2308              		.cfi_endproc
 2309              	.LFE13:
 2310              		.size	unsignedIntToString, .-unsignedIntToString
 2311              		.section	.text.size_tToString,"ax",%progbits
 2312              		.align	2
 2313              		.global	size_tToString
 2314              		.code	16
 2315              		.thumb_func
 2316              		.type	size_tToString, %function
 2317              	size_tToString:
 2318              	.LFB14:
 788:Source\azure_iot_sdk\c-utility\src/crt_abstractions.c **** 
 789:Source\azure_iot_sdk\c-utility\src/crt_abstractions.c **** /*takes "value" and transforms it into a decimal string*/
 790:Source\azure_iot_sdk\c-utility\src/crt_abstractions.c **** /*10 => "10"*/
 791:Source\azure_iot_sdk\c-utility\src/crt_abstractions.c **** /*return 0 when everything went ok*/
 792:Source\azure_iot_sdk\c-utility\src/crt_abstractions.c **** /*Codes_SRS_CRT_ABSTRACTIONS_02_001: [unsignedIntToString shall convert the parameter value to its 
 793:Source\azure_iot_sdk\c-utility\src/crt_abstractions.c **** int size_tToString(char* destination, size_t destinationSize, size_t value)
 794:Source\azure_iot_sdk\c-utility\src/crt_abstractions.c **** {
 2319              		.loc 1 794 0
 2320              		.cfi_startproc
ARM GAS  C:\Users\Phuong\AppData\Local\Temp\cceqeziA.s 			page 59


 2321              		@ args = 0, pretend = 0, frame = 0
 2322              		@ frame_needed = 0, uses_anonymous_args = 0
 2323              	.LVL325:
 2324 0000 F8B5     		push	{r3, r4, r5, r6, r7, lr}
 2325              		.cfi_def_cfa_offset 24
 2326              		.cfi_offset 3, -24
 2327              		.cfi_offset 4, -20
 2328              		.cfi_offset 5, -16
 2329              		.cfi_offset 6, -12
 2330              		.cfi_offset 7, -8
 2331              		.cfi_offset 14, -4
 2332 0002 4F46     		mov	r7, r9
 2333 0004 4646     		mov	r6, r8
 2334 0006 C0B4     		push	{r6, r7}
 2335              		.cfi_def_cfa_offset 32
 2336              		.cfi_offset 8, -32
 2337              		.cfi_offset 9, -28
 2338 0008 8046     		mov	r8, r0
 2339 000a 8946     		mov	r9, r1
 2340 000c 1400     		movs	r4, r2
 795:Source\azure_iot_sdk\c-utility\src/crt_abstractions.c ****     int result;
 796:Source\azure_iot_sdk\c-utility\src/crt_abstractions.c ****     size_t pos;
 797:Source\azure_iot_sdk\c-utility\src/crt_abstractions.c ****     /*the below loop gets the number in reverse order*/
 798:Source\azure_iot_sdk\c-utility\src/crt_abstractions.c ****     /*Codes_SRS_CRT_ABSTRACTIONS_02_003: [If destination is NULL then unsignedIntToString shall fai
 799:Source\azure_iot_sdk\c-utility\src/crt_abstractions.c ****     /*Codes_SRS_CRT_ABSTRACTIONS_02_002: [If the conversion fails for any reason (for example, insu
 800:Source\azure_iot_sdk\c-utility\src/crt_abstractions.c ****     if (
 2341              		.loc 1 800 0
 2342 000e 0028     		cmp	r0, #0
 2343 0010 2DD0     		beq	.L189
 801:Source\azure_iot_sdk\c-utility\src/crt_abstractions.c ****         (destination == NULL) ||
 2344              		.loc 1 801 0
 2345 0012 0129     		cmp	r1, #1
 2346 0014 2DD9     		bls	.L190
 2347 0016 0026     		movs	r6, #0
 2348 0018 00E0     		b	.L186
 2349              	.LVL326:
 2350              	.L191:
 802:Source\azure_iot_sdk\c-utility\src/crt_abstractions.c ****         (destinationSize < 2) /*because the smallest number is '0\0' which requires 2 characters*/
 803:Source\azure_iot_sdk\c-utility\src/crt_abstractions.c ****         )
 804:Source\azure_iot_sdk\c-utility\src/crt_abstractions.c ****     {
 805:Source\azure_iot_sdk\c-utility\src/crt_abstractions.c ****         result = __FAILURE__;
 806:Source\azure_iot_sdk\c-utility\src/crt_abstractions.c ****     }
 807:Source\azure_iot_sdk\c-utility\src/crt_abstractions.c ****     else
 808:Source\azure_iot_sdk\c-utility\src/crt_abstractions.c ****     {
 809:Source\azure_iot_sdk\c-utility\src/crt_abstractions.c ****         pos = 0;
 810:Source\azure_iot_sdk\c-utility\src/crt_abstractions.c ****         do
 811:Source\azure_iot_sdk\c-utility\src/crt_abstractions.c ****         {
 812:Source\azure_iot_sdk\c-utility\src/crt_abstractions.c ****             destination[pos++] = '0' + (value % 10);
 2351              		.loc 1 812 0
 2352 001a 3E00     		movs	r6, r7
 2353              	.LVL327:
 2354              	.L186:
 2355              		.loc 1 812 0 is_stmt 0 discriminator 2
 2356 001c 771C     		adds	r7, r6, #1
 2357              	.LVL328:
 2358 001e 4346     		mov	r3, r8
 2359 0020 9D19     		adds	r5, r3, r6
ARM GAS  C:\Users\Phuong\AppData\Local\Temp\cceqeziA.s 			page 60


 2360 0022 0A21     		movs	r1, #10
 2361 0024 2000     		movs	r0, r4
 2362 0026 FFF7FEFF 		bl	__aeabi_uidivmod
 2363              	.LVL329:
 2364 002a 3031     		adds	r1, r1, #48
 2365 002c 2970     		strb	r1, [r5]
 813:Source\azure_iot_sdk\c-utility\src/crt_abstractions.c ****             value /= 10;
 2366              		.loc 1 813 0 is_stmt 1 discriminator 2
 2367 002e 0A21     		movs	r1, #10
 2368 0030 2000     		movs	r0, r4
 2369 0032 FFF7FEFF 		bl	__aeabi_uidiv
 2370              	.LVL330:
 2371 0036 041E     		subs	r4, r0, #0
 2372              	.LVL331:
 814:Source\azure_iot_sdk\c-utility\src/crt_abstractions.c ****         } while ((value > 0) && (pos < (destinationSize - 1)));
 2373              		.loc 1 814 0 discriminator 2
 2374 0038 03D0     		beq	.L185
 2375              		.loc 1 814 0 is_stmt 0 discriminator 1
 2376 003a 4B46     		mov	r3, r9
 2377 003c 013B     		subs	r3, r3, #1
 2378 003e 9F42     		cmp	r7, r3
 2379 0040 EBD3     		bcc	.L191
 2380              	.L185:
 815:Source\azure_iot_sdk\c-utility\src/crt_abstractions.c **** 
 816:Source\azure_iot_sdk\c-utility\src/crt_abstractions.c ****         if (value == 0)
 2381              		.loc 1 816 0 is_stmt 1
 2382 0042 002C     		cmp	r4, #0
 2383 0044 17D1     		bne	.L192
 2384              	.LBB15:
 817:Source\azure_iot_sdk\c-utility\src/crt_abstractions.c ****         {
 818:Source\azure_iot_sdk\c-utility\src/crt_abstractions.c ****             size_t w;
 819:Source\azure_iot_sdk\c-utility\src/crt_abstractions.c ****             destination[pos] = '\0';
 2385              		.loc 1 819 0
 2386 0046 4346     		mov	r3, r8
 2387 0048 DB19     		adds	r3, r3, r7
 2388 004a 0022     		movs	r2, #0
 2389 004c 1A70     		strb	r2, [r3]
 2390              	.LVL332:
 820:Source\azure_iot_sdk\c-utility\src/crt_abstractions.c ****             /*all converted and they fit*/
 821:Source\azure_iot_sdk\c-utility\src/crt_abstractions.c ****             for (w = 0; w <= (pos - 1) >> 1; w++)
 2391              		.loc 1 821 0
 2392 004e 09E0     		b	.L187
 2393              	.LVL333:
 2394              	.L188:
 2395              	.LBB16:
 822:Source\azure_iot_sdk\c-utility\src/crt_abstractions.c ****             {
 823:Source\azure_iot_sdk\c-utility\src/crt_abstractions.c ****                 char temp;
 824:Source\azure_iot_sdk\c-utility\src/crt_abstractions.c ****                 temp = destination[w];
 2396              		.loc 1 824 0 discriminator 3
 2397 0050 4346     		mov	r3, r8
 2398 0052 9918     		adds	r1, r3, r2
 2399 0054 0878     		ldrb	r0, [r1]
 2400              	.LVL334:
 825:Source\azure_iot_sdk\c-utility\src/crt_abstractions.c ****                 destination[w] = destination[pos - 1 - w];
 2401              		.loc 1 825 0 discriminator 3
 2402 0056 BB1A     		subs	r3, r7, r2
 2403 0058 013B     		subs	r3, r3, #1
ARM GAS  C:\Users\Phuong\AppData\Local\Temp\cceqeziA.s 			page 61


 2404 005a 4344     		add	r3, r3, r8
 2405 005c 1C78     		ldrb	r4, [r3]
 2406 005e 0C70     		strb	r4, [r1]
 826:Source\azure_iot_sdk\c-utility\src/crt_abstractions.c ****                 destination[pos - 1 - w] = temp;
 2407              		.loc 1 826 0 discriminator 3
 2408 0060 1870     		strb	r0, [r3]
 2409              	.LBE16:
 821:Source\azure_iot_sdk\c-utility\src/crt_abstractions.c ****             {
 2410              		.loc 1 821 0 discriminator 3
 2411 0062 0132     		adds	r2, r2, #1
 2412              	.LVL335:
 2413              	.L187:
 821:Source\azure_iot_sdk\c-utility\src/crt_abstractions.c ****             {
 2414              		.loc 1 821 0 is_stmt 0 discriminator 1
 2415 0064 7308     		lsrs	r3, r6, #1
 2416 0066 9A42     		cmp	r2, r3
 2417 0068 F2D9     		bls	.L188
 827:Source\azure_iot_sdk\c-utility\src/crt_abstractions.c ****             }
 828:Source\azure_iot_sdk\c-utility\src/crt_abstractions.c ****             /*Codes_SRS_CRT_ABSTRACTIONS_02_004: [If the conversion has been successfull then unsig
 829:Source\azure_iot_sdk\c-utility\src/crt_abstractions.c ****             result = 0;
 2418              		.loc 1 829 0 is_stmt 1
 2419 006a 0020     		movs	r0, #0
 2420 006c 04E0     		b	.L184
 2421              	.LVL336:
 2422              	.L189:
 2423              	.LBE15:
 805:Source\azure_iot_sdk\c-utility\src/crt_abstractions.c ****     }
 2424              		.loc 1 805 0
 2425 006e 0448     		ldr	r0, .L193
 2426              	.LVL337:
 2427 0070 02E0     		b	.L184
 2428              	.LVL338:
 2429              	.L190:
 2430 0072 0348     		ldr	r0, .L193
 2431              	.LVL339:
 2432 0074 00E0     		b	.L184
 2433              	.LVL340:
 2434              	.L192:
 830:Source\azure_iot_sdk\c-utility\src/crt_abstractions.c ****         }
 831:Source\azure_iot_sdk\c-utility\src/crt_abstractions.c ****         else
 832:Source\azure_iot_sdk\c-utility\src/crt_abstractions.c ****         {
 833:Source\azure_iot_sdk\c-utility\src/crt_abstractions.c ****             /*Codes_SRS_CRT_ABSTRACTIONS_02_002: [If the conversion fails for any reason (for examp
 834:Source\azure_iot_sdk\c-utility\src/crt_abstractions.c ****             result = __FAILURE__;
 2435              		.loc 1 834 0
 2436 0076 0348     		ldr	r0, .L193+4
 2437              	.LVL341:
 2438              	.L184:
 835:Source\azure_iot_sdk\c-utility\src/crt_abstractions.c ****         }
 836:Source\azure_iot_sdk\c-utility\src/crt_abstractions.c ****     }
 837:Source\azure_iot_sdk\c-utility\src/crt_abstractions.c ****     return result;
 838:Source\azure_iot_sdk\c-utility\src/crt_abstractions.c **** }
 2439              		.loc 1 838 0
 2440              		@ sp needed
 2441              	.LVL342:
 2442              	.LVL343:
 2443 0078 0CBC     		pop	{r2, r3}
 2444 007a 9046     		mov	r8, r2
ARM GAS  C:\Users\Phuong\AppData\Local\Temp\cceqeziA.s 			page 62


 2445 007c 9946     		mov	r9, r3
 2446 007e F8BD     		pop	{r3, r4, r5, r6, r7, pc}
 2447              	.L194:
 2448              		.align	2
 2449              	.L193:
 2450 0080 25030000 		.word	805
 2451 0084 42030000 		.word	834
 2452              		.cfi_endproc
 2453              	.LFE14:
 2454              		.size	size_tToString, .-size_tToString
 2455              		.section	.rodata.str1.4,"aMS",%progbits,1
 2456              		.align	2
 2457              	.LC0:
 2458 0000 494E4600 		.ascii	"INF\000"
 2459              	.LC2:
 2460 0004 494E4954 		.ascii	"INITY\000"
 2460      5900
 2461 000a 0000     		.space	2
 2462              	.LC4:
 2463 000c 4E414E00 		.ascii	"NAN\000"
 2464              		.text
 2465              	.Letext0:
 2466              		.file 2 "c:\\program files (x86)\\cypress\\psoc creator\\4.2\\psoc creator\\import\\gnu\\arm\\5.4.
 2467              		.file 3 "c:\\program files (x86)\\cypress\\psoc creator\\4.2\\psoc creator\\import\\gnu\\arm\\5.4.
 2468              		.file 4 "c:\\program files (x86)\\cypress\\psoc creator\\4.2\\psoc creator\\import\\gnu\\arm\\5.4.
 2469              		.file 5 "c:\\program files (x86)\\cypress\\psoc creator\\4.2\\psoc creator\\import\\gnu\\arm\\5.4.
 2470              		.file 6 "c:\\program files (x86)\\cypress\\psoc creator\\4.2\\psoc creator\\import\\gnu\\arm\\5.4.
 2471              		.file 7 "c:\\program files (x86)\\cypress\\psoc creator\\4.2\\psoc creator\\import\\gnu\\arm\\5.4.
 2472              		.file 8 "<built-in>"
 2473              		.file 9 "c:\\program files (x86)\\cypress\\psoc creator\\4.2\\psoc creator\\import\\gnu\\arm\\5.4.
 2474              		.section	.debug_info,"",%progbits
 2475              	.Ldebug_info0:
 2476 0000 570B0000 		.4byte	0xb57
 2477 0004 0400     		.2byte	0x4
 2478 0006 00000000 		.4byte	.Ldebug_abbrev0
 2479 000a 04       		.byte	0x4
 2480 000b 01       		.uleb128 0x1
 2481 000c B7030000 		.4byte	.LASF77
 2482 0010 0C       		.byte	0xc
 2483 0011 83010000 		.4byte	.LASF78
 2484 0015 35020000 		.4byte	.LASF79
 2485 0019 58000000 		.4byte	.Ldebug_ranges0+0x58
 2486 001d 00000000 		.4byte	0
 2487 0021 00000000 		.4byte	.Ldebug_line0
 2488 0025 02       		.uleb128 0x2
 2489 0026 19000000 		.4byte	.LASF12
 2490 002a 02       		.byte	0x2
 2491 002b D8       		.byte	0xd8
 2492 002c 30000000 		.4byte	0x30
 2493 0030 03       		.uleb128 0x3
 2494 0031 04       		.byte	0x4
 2495 0032 07       		.byte	0x7
 2496 0033 52010000 		.4byte	.LASF0
 2497 0037 04       		.uleb128 0x4
 2498 0038 04       		.byte	0x4
 2499 0039 05       		.byte	0x5
 2500 003a 696E7400 		.ascii	"int\000"
ARM GAS  C:\Users\Phuong\AppData\Local\Temp\cceqeziA.s 			page 63


 2501 003e 03       		.uleb128 0x3
 2502 003f 08       		.byte	0x8
 2503 0040 05       		.byte	0x5
 2504 0041 8C000000 		.4byte	.LASF1
 2505 0045 03       		.uleb128 0x3
 2506 0046 08       		.byte	0x8
 2507 0047 04       		.byte	0x4
 2508 0048 29020000 		.4byte	.LASF2
 2509 004c 03       		.uleb128 0x3
 2510 004d 01       		.byte	0x1
 2511 004e 06       		.byte	0x6
 2512 004f 9A000000 		.4byte	.LASF3
 2513 0053 03       		.uleb128 0x3
 2514 0054 01       		.byte	0x1
 2515 0055 08       		.byte	0x8
 2516 0056 41030000 		.4byte	.LASF4
 2517 005a 03       		.uleb128 0x3
 2518 005b 02       		.byte	0x2
 2519 005c 05       		.byte	0x5
 2520 005d 62030000 		.4byte	.LASF5
 2521 0061 03       		.uleb128 0x3
 2522 0062 02       		.byte	0x2
 2523 0063 07       		.byte	0x7
 2524 0064 B9010000 		.4byte	.LASF6
 2525 0068 03       		.uleb128 0x3
 2526 0069 04       		.byte	0x4
 2527 006a 05       		.byte	0x5
 2528 006b BE000000 		.4byte	.LASF7
 2529 006f 03       		.uleb128 0x3
 2530 0070 04       		.byte	0x4
 2531 0071 07       		.byte	0x7
 2532 0072 66010000 		.4byte	.LASF8
 2533 0076 03       		.uleb128 0x3
 2534 0077 08       		.byte	0x8
 2535 0078 07       		.byte	0x7
 2536 0079 5C000000 		.4byte	.LASF9
 2537 007d 03       		.uleb128 0x3
 2538 007e 04       		.byte	0x4
 2539 007f 07       		.byte	0x7
 2540 0080 20020000 		.4byte	.LASF10
 2541 0084 05       		.uleb128 0x5
 2542 0085 04       		.byte	0x4
 2543 0086 06       		.uleb128 0x6
 2544 0087 04       		.byte	0x4
 2545 0088 8C000000 		.4byte	0x8c
 2546 008c 03       		.uleb128 0x3
 2547 008d 01       		.byte	0x1
 2548 008e 08       		.byte	0x8
 2549 008f 49040000 		.4byte	.LASF11
 2550 0093 06       		.uleb128 0x6
 2551 0094 04       		.byte	0x4
 2552 0095 99000000 		.4byte	0x99
 2553 0099 07       		.uleb128 0x7
 2554 009a 8C000000 		.4byte	0x8c
 2555 009e 02       		.uleb128 0x2
 2556 009f DA020000 		.4byte	.LASF13
 2557 00a3 03       		.byte	0x3
ARM GAS  C:\Users\Phuong\AppData\Local\Temp\cceqeziA.s 			page 64


 2558 00a4 28       		.byte	0x28
 2559 00a5 A9000000 		.4byte	0xa9
 2560 00a9 08       		.uleb128 0x8
 2561 00aa DD000000 		.4byte	.LASF80
 2562 00ae 04       		.byte	0x4
 2563 00af 08       		.byte	0x8
 2564 00b0 00       		.byte	0
 2565 00b1 C0000000 		.4byte	0xc0
 2566 00b5 09       		.uleb128 0x9
 2567 00b6 60040000 		.4byte	.LASF81
 2568 00ba 84000000 		.4byte	0x84
 2569 00be 00       		.byte	0
 2570 00bf 00       		.byte	0
 2571 00c0 02       		.uleb128 0x2
 2572 00c1 2D000000 		.4byte	.LASF14
 2573 00c5 03       		.byte	0x3
 2574 00c6 62       		.byte	0x62
 2575 00c7 9E000000 		.4byte	0x9e
 2576 00cb 03       		.uleb128 0x3
 2577 00cc 08       		.byte	0x8
 2578 00cd 04       		.byte	0x4
 2579 00ce 06010000 		.4byte	.LASF15
 2580 00d2 03       		.uleb128 0x3
 2581 00d3 04       		.byte	0x4
 2582 00d4 04       		.byte	0x4
 2583 00d5 17030000 		.4byte	.LASF16
 2584 00d9 0A       		.uleb128 0xa
 2585 00da 01030000 		.4byte	.LASF82
 2586 00de 01       		.byte	0x1
 2587 00df 53000000 		.4byte	0x53
 2588 00e3 01       		.byte	0x1
 2589 00e4 DA01     		.2byte	0x1da
 2590 00e6 09010000 		.4byte	0x109
 2591 00ea 0B       		.uleb128 0xb
 2592 00eb E7000000 		.4byte	.LASF17
 2593 00ef 00       		.byte	0
 2594 00f0 0B       		.uleb128 0xb
 2595 00f1 B1040000 		.4byte	.LASF18
 2596 00f5 01       		.byte	0x1
 2597 00f6 0B       		.uleb128 0xb
 2598 00f7 57030000 		.4byte	.LASF19
 2599 00fb 02       		.byte	0x2
 2600 00fc 0B       		.uleb128 0xb
 2601 00fd 20000000 		.4byte	.LASF20
 2602 0101 03       		.byte	0x3
 2603 0102 0B       		.uleb128 0xb
 2604 0103 86030000 		.4byte	.LASF21
 2605 0107 04       		.byte	0x4
 2606 0108 00       		.byte	0
 2607 0109 0C       		.uleb128 0xc
 2608 010a 25010000 		.4byte	.LASF22
 2609 010e 01       		.byte	0x1
 2610 010f DA01     		.2byte	0x1da
 2611 0111 D9000000 		.4byte	0xd9
 2612 0115 0D       		.uleb128 0xd
 2613 0116 AC030000 		.4byte	.LASF25
 2614 011a 01       		.byte	0x1
ARM GAS  C:\Users\Phuong\AppData\Local\Temp\cceqeziA.s 			page 65


 2615 011b 9B01     		.2byte	0x19b
 2616 011d 37000000 		.4byte	0x37
 2617 0121 00000000 		.4byte	.LFB6
 2618 0125 34000000 		.4byte	.LFE6-.LFB6
 2619 0129 01       		.uleb128 0x1
 2620 012a 9C       		.byte	0x9c
 2621 012b 60010000 		.4byte	0x160
 2622 012f 0E       		.uleb128 0xe
 2623 0130 2D030000 		.4byte	.LASF23
 2624 0134 01       		.byte	0x1
 2625 0135 9B01     		.2byte	0x19b
 2626 0137 93000000 		.4byte	0x93
 2627 013b 00000000 		.4byte	.LLST0
 2628 013f 0E       		.uleb128 0xe
 2629 0140 A6000000 		.4byte	.LASF24
 2630 0144 01       		.byte	0x1
 2631 0145 9B01     		.2byte	0x19b
 2632 0147 93000000 		.4byte	0x93
 2633 014b 1E000000 		.4byte	.LLST1
 2634 014f 0F       		.uleb128 0xf
 2635 0150 B9040000 		.4byte	.LASF28
 2636 0154 01       		.byte	0x1
 2637 0155 9D01     		.2byte	0x19d
 2638 0157 37000000 		.4byte	0x37
 2639 015b 3C000000 		.4byte	.LLST2
 2640 015f 00       		.byte	0
 2641 0160 0D       		.uleb128 0xd
 2642 0161 FB000000 		.4byte	.LASF26
 2643 0165 01       		.byte	0x1
 2644 0166 A901     		.2byte	0x1a9
 2645 0168 D1010000 		.4byte	0x1d1
 2646 016c 00000000 		.4byte	.LFB7
 2647 0170 3C000000 		.4byte	.LFE7-.LFB7
 2648 0174 01       		.uleb128 0x1
 2649 0175 9C       		.byte	0x9c
 2650 0176 D1010000 		.4byte	0x1d1
 2651 017a 0E       		.uleb128 0xe
 2652 017b F1010000 		.4byte	.LASF27
 2653 017f 01       		.byte	0x1
 2654 0180 A901     		.2byte	0x1a9
 2655 0182 D8010000 		.4byte	0x1d8
 2656 0186 66000000 		.4byte	.LLST3
 2657 018a 0F       		.uleb128 0xf
 2658 018b B9040000 		.4byte	.LASF28
 2659 018f 01       		.byte	0x1
 2660 0190 AB01     		.2byte	0x1ab
 2661 0192 D1010000 		.4byte	0x1d1
 2662 0196 92000000 		.4byte	.LLST4
 2663 019a 10       		.uleb128 0x10
 2664 019b 0E000000 		.4byte	.LVL11
 2665 019f 15010000 		.4byte	0x115
 2666 01a3 B7010000 		.4byte	0x1b7
 2667 01a7 11       		.uleb128 0x11
 2668 01a8 01       		.uleb128 0x1
 2669 01a9 50       		.byte	0x50
 2670 01aa 02       		.uleb128 0x2
 2671 01ab 74       		.byte	0x74
ARM GAS  C:\Users\Phuong\AppData\Local\Temp\cceqeziA.s 			page 66


 2672 01ac 00       		.sleb128 0
 2673 01ad 11       		.uleb128 0x11
 2674 01ae 01       		.uleb128 0x1
 2675 01af 51       		.byte	0x51
 2676 01b0 05       		.uleb128 0x5
 2677 01b1 03       		.byte	0x3
 2678 01b2 00000000 		.4byte	.LC0
 2679 01b6 00       		.byte	0
 2680 01b7 12       		.uleb128 0x12
 2681 01b8 1E000000 		.4byte	.LVL13
 2682 01bc 15010000 		.4byte	0x115
 2683 01c0 11       		.uleb128 0x11
 2684 01c1 01       		.uleb128 0x1
 2685 01c2 50       		.byte	0x50
 2686 01c3 02       		.uleb128 0x2
 2687 01c4 74       		.byte	0x74
 2688 01c5 00       		.sleb128 0
 2689 01c6 11       		.uleb128 0x11
 2690 01c7 01       		.uleb128 0x1
 2691 01c8 51       		.byte	0x51
 2692 01c9 05       		.uleb128 0x5
 2693 01ca 03       		.byte	0x3
 2694 01cb 04000000 		.4byte	.LC2
 2695 01cf 00       		.byte	0
 2696 01d0 00       		.byte	0
 2697 01d1 03       		.uleb128 0x3
 2698 01d2 01       		.byte	0x1
 2699 01d3 02       		.byte	0x2
 2700 01d4 3B030000 		.4byte	.LASF29
 2701 01d8 06       		.uleb128 0x6
 2702 01d9 04       		.byte	0x4
 2703 01da 93000000 		.4byte	0x93
 2704 01de 0D       		.uleb128 0xd
 2705 01df 27030000 		.4byte	.LASF30
 2706 01e3 01       		.byte	0x1
 2707 01e4 BA01     		.2byte	0x1ba
 2708 01e6 D1010000 		.4byte	0x1d1
 2709 01ea 00000000 		.4byte	.LFB8
 2710 01ee 4C000000 		.4byte	.LFE8-.LFB8
 2711 01f2 01       		.uleb128 0x1
 2712 01f3 9C       		.byte	0x9c
 2713 01f4 42020000 		.4byte	0x242
 2714 01f8 0E       		.uleb128 0xe
 2715 01f9 F1010000 		.4byte	.LASF27
 2716 01fd 01       		.byte	0x1
 2717 01fe BA01     		.2byte	0x1ba
 2718 0200 D8010000 		.4byte	0x1d8
 2719 0204 D5000000 		.4byte	.LLST5
 2720 0208 0F       		.uleb128 0xf
 2721 0209 98040000 		.4byte	.LASF31
 2722 020d 01       		.byte	0x1
 2723 020e BC01     		.2byte	0x1bc
 2724 0210 93000000 		.4byte	0x93
 2725 0214 01010000 		.4byte	.LLST6
 2726 0218 0F       		.uleb128 0xf
 2727 0219 B9040000 		.4byte	.LASF28
 2728 021d 01       		.byte	0x1
ARM GAS  C:\Users\Phuong\AppData\Local\Temp\cceqeziA.s 			page 67


 2729 021e BD01     		.2byte	0x1bd
 2730 0220 D1010000 		.4byte	0x1d1
 2731 0224 40010000 		.4byte	.LLST7
 2732 0228 12       		.uleb128 0x12
 2733 0229 0E000000 		.4byte	.LVL21
 2734 022d 15010000 		.4byte	0x115
 2735 0231 11       		.uleb128 0x11
 2736 0232 01       		.uleb128 0x1
 2737 0233 50       		.byte	0x50
 2738 0234 02       		.uleb128 0x2
 2739 0235 74       		.byte	0x74
 2740 0236 00       		.sleb128 0
 2741 0237 11       		.uleb128 0x11
 2742 0238 01       		.uleb128 0x1
 2743 0239 51       		.byte	0x51
 2744 023a 05       		.uleb128 0x5
 2745 023b 03       		.byte	0x3
 2746 023c 0C000000 		.4byte	.LC4
 2747 0240 00       		.byte	0
 2748 0241 00       		.byte	0
 2749 0242 13       		.uleb128 0x13
 2750 0243 7E000000 		.4byte	.LASF36
 2751 0247 01       		.byte	0x1
 2752 0248 31       		.byte	0x31
 2753 0249 37000000 		.4byte	0x37
 2754 024d 00000000 		.4byte	.LFB1
 2755 0251 8A000000 		.4byte	.LFE1-.LFB1
 2756 0255 01       		.uleb128 0x1
 2757 0256 9C       		.byte	0x9c
 2758 0257 16030000 		.4byte	0x316
 2759 025b 14       		.uleb128 0x14
 2760 025c 64737400 		.ascii	"dst\000"
 2761 0260 01       		.byte	0x1
 2762 0261 31       		.byte	0x31
 2763 0262 86000000 		.4byte	0x86
 2764 0266 83010000 		.4byte	.LLST8
 2765 026a 15       		.uleb128 0x15
 2766 026b 16010000 		.4byte	.LASF32
 2767 026f 01       		.byte	0x1
 2768 0270 31       		.byte	0x31
 2769 0271 25000000 		.4byte	0x25
 2770 0275 FF010000 		.4byte	.LLST9
 2771 0279 14       		.uleb128 0x14
 2772 027a 73726300 		.ascii	"src\000"
 2773 027e 01       		.byte	0x1
 2774 027f 31       		.byte	0x31
 2775 0280 93000000 		.4byte	0x93
 2776 0284 41020000 		.4byte	.LLST10
 2777 0288 16       		.uleb128 0x16
 2778 0289 B9040000 		.4byte	.LASF28
 2779 028d 01       		.byte	0x1
 2780 028e 33       		.byte	0x33
 2781 028f 37000000 		.4byte	0x37
 2782 0293 83020000 		.4byte	.LLST11
 2783 0297 17       		.uleb128 0x17
 2784 0298 00000000 		.4byte	.Ldebug_ranges0+0
 2785 029c 16       		.uleb128 0x16
ARM GAS  C:\Users\Phuong\AppData\Local\Temp\cceqeziA.s 			page 68


 2786 029d 16020000 		.4byte	.LASF33
 2787 02a1 01       		.byte	0x1
 2788 02a2 49       		.byte	0x49
 2789 02a3 25000000 		.4byte	0x25
 2790 02a7 D5020000 		.4byte	.LLST12
 2791 02ab 16       		.uleb128 0x16
 2792 02ac 4F030000 		.4byte	.LASF34
 2793 02b0 01       		.byte	0x1
 2794 02b1 4A       		.byte	0x4a
 2795 02b2 25000000 		.4byte	0x25
 2796 02b6 FF020000 		.4byte	.LLST13
 2797 02ba 18       		.uleb128 0x18
 2798 02bb 6900     		.ascii	"i\000"
 2799 02bd 01       		.byte	0x1
 2800 02be 4E       		.byte	0x4e
 2801 02bf 25000000 		.4byte	0x25
 2802 02c3 29030000 		.4byte	.LLST14
 2803 02c7 19       		.uleb128 0x19
 2804 02c8 50000000 		.4byte	.LBB3
 2805 02cc 30000000 		.4byte	.LBE3-.LBB3
 2806 02d0 04030000 		.4byte	0x304
 2807 02d4 16       		.uleb128 0x16
 2808 02d5 F8010000 		.4byte	.LASF35
 2809 02d9 01       		.byte	0x1
 2810 02da 64       		.byte	0x64
 2811 02db 25000000 		.4byte	0x25
 2812 02df 53030000 		.4byte	.LLST15
 2813 02e3 12       		.uleb128 0x12
 2814 02e4 64000000 		.4byte	.LVL48
 2815 02e8 040B0000 		.4byte	0xb04
 2816 02ec 11       		.uleb128 0x11
 2817 02ed 01       		.uleb128 0x1
 2818 02ee 50       		.byte	0x50
 2819 02ef 05       		.uleb128 0x5
 2820 02f0 75       		.byte	0x75
 2821 02f1 00       		.sleb128 0
 2822 02f2 74       		.byte	0x74
 2823 02f3 00       		.sleb128 0
 2824 02f4 22       		.byte	0x22
 2825 02f5 11       		.uleb128 0x11
 2826 02f6 01       		.uleb128 0x1
 2827 02f7 51       		.byte	0x51
 2828 02f8 02       		.uleb128 0x2
 2829 02f9 76       		.byte	0x76
 2830 02fa 00       		.sleb128 0
 2831 02fb 11       		.uleb128 0x11
 2832 02fc 01       		.uleb128 0x1
 2833 02fd 52       		.byte	0x52
 2834 02fe 03       		.uleb128 0x3
 2835 02ff 91       		.byte	0x91
 2836 0300 64       		.sleb128 -28
 2837 0301 06       		.byte	0x6
 2838 0302 00       		.byte	0
 2839 0303 00       		.byte	0
 2840 0304 12       		.uleb128 0x12
 2841 0305 2C000000 		.4byte	.LVL38
 2842 0309 0D0B0000 		.4byte	0xb0d
ARM GAS  C:\Users\Phuong\AppData\Local\Temp\cceqeziA.s 			page 69


 2843 030d 11       		.uleb128 0x11
 2844 030e 01       		.uleb128 0x1
 2845 030f 50       		.byte	0x50
 2846 0310 02       		.uleb128 0x2
 2847 0311 76       		.byte	0x76
 2848 0312 00       		.sleb128 0
 2849 0313 00       		.byte	0
 2850 0314 00       		.byte	0
 2851 0315 00       		.byte	0
 2852 0316 13       		.uleb128 0x13
 2853 0317 9B030000 		.4byte	.LASF37
 2854 031b 01       		.byte	0x1
 2855 031c 7E       		.byte	0x7e
 2856 031d 37000000 		.4byte	0x37
 2857 0321 00000000 		.4byte	.LFB2
 2858 0325 96000000 		.4byte	.LFE2-.LFB2
 2859 0329 01       		.uleb128 0x1
 2860 032a 9C       		.byte	0x9c
 2861 032b EF030000 		.4byte	0x3ef
 2862 032f 14       		.uleb128 0x14
 2863 0330 64737400 		.ascii	"dst\000"
 2864 0334 01       		.byte	0x1
 2865 0335 7E       		.byte	0x7e
 2866 0336 86000000 		.4byte	0x86
 2867 033a 72030000 		.4byte	.LLST16
 2868 033e 15       		.uleb128 0x15
 2869 033f 16010000 		.4byte	.LASF32
 2870 0343 01       		.byte	0x1
 2871 0344 7E       		.byte	0x7e
 2872 0345 25000000 		.4byte	0x25
 2873 0349 FC030000 		.4byte	.LLST17
 2874 034d 14       		.uleb128 0x14
 2875 034e 73726300 		.ascii	"src\000"
 2876 0352 01       		.byte	0x1
 2877 0353 7E       		.byte	0x7e
 2878 0354 93000000 		.4byte	0x93
 2879 0358 3E040000 		.4byte	.LLST18
 2880 035c 15       		.uleb128 0x15
 2881 035d 06000000 		.4byte	.LASF38
 2882 0361 01       		.byte	0x1
 2883 0362 7E       		.byte	0x7e
 2884 0363 25000000 		.4byte	0x25
 2885 0367 80040000 		.4byte	.LLST19
 2886 036b 16       		.uleb128 0x16
 2887 036c B9040000 		.4byte	.LASF28
 2888 0370 01       		.byte	0x1
 2889 0371 80       		.byte	0x80
 2890 0372 37000000 		.4byte	0x37
 2891 0376 1B050000 		.4byte	.LLST20
 2892 037a 16       		.uleb128 0x16
 2893 037b CE000000 		.4byte	.LASF39
 2894 037f 01       		.byte	0x1
 2895 0380 81       		.byte	0x81
 2896 0381 37000000 		.4byte	0x37
 2897 0385 5F050000 		.4byte	.LLST21
 2898 0389 17       		.uleb128 0x17
 2899 038a 18000000 		.4byte	.Ldebug_ranges0+0x18
ARM GAS  C:\Users\Phuong\AppData\Local\Temp\cceqeziA.s 			page 70


 2900 038e 16       		.uleb128 0x16
 2901 038f 48010000 		.4byte	.LASF40
 2902 0393 01       		.byte	0x1
 2903 0394 94       		.byte	0x94
 2904 0395 25000000 		.4byte	0x25
 2905 0399 AD050000 		.4byte	.LLST22
 2906 039d 10       		.uleb128 0x10
 2907 039e 2A000000 		.4byte	.LVL68
 2908 03a2 0D0B0000 		.4byte	0xb0d
 2909 03a6 B1030000 		.4byte	0x3b1
 2910 03aa 11       		.uleb128 0x11
 2911 03ab 01       		.uleb128 0x1
 2912 03ac 50       		.byte	0x50
 2913 03ad 02       		.uleb128 0x2
 2914 03ae 75       		.byte	0x75
 2915 03af 00       		.sleb128 0
 2916 03b0 00       		.byte	0
 2917 03b1 10       		.uleb128 0x10
 2918 03b2 50000000 		.4byte	.LVL74
 2919 03b6 040B0000 		.4byte	0xb04
 2920 03ba D1030000 		.4byte	0x3d1
 2921 03be 11       		.uleb128 0x11
 2922 03bf 01       		.uleb128 0x1
 2923 03c0 50       		.byte	0x50
 2924 03c1 02       		.uleb128 0x2
 2925 03c2 74       		.byte	0x74
 2926 03c3 00       		.sleb128 0
 2927 03c4 11       		.uleb128 0x11
 2928 03c5 01       		.uleb128 0x1
 2929 03c6 51       		.byte	0x51
 2930 03c7 02       		.uleb128 0x2
 2931 03c8 75       		.byte	0x75
 2932 03c9 00       		.sleb128 0
 2933 03ca 11       		.uleb128 0x11
 2934 03cb 01       		.uleb128 0x1
 2935 03cc 52       		.byte	0x52
 2936 03cd 02       		.uleb128 0x2
 2937 03ce 76       		.byte	0x76
 2938 03cf 00       		.sleb128 0
 2939 03d0 00       		.byte	0
 2940 03d1 12       		.uleb128 0x12
 2941 03d2 76000000 		.4byte	.LVL84
 2942 03d6 040B0000 		.4byte	0xb04
 2943 03da 11       		.uleb128 0x11
 2944 03db 01       		.uleb128 0x1
 2945 03dc 50       		.byte	0x50
 2946 03dd 02       		.uleb128 0x2
 2947 03de 74       		.byte	0x74
 2948 03df 00       		.sleb128 0
 2949 03e0 11       		.uleb128 0x11
 2950 03e1 01       		.uleb128 0x1
 2951 03e2 51       		.byte	0x51
 2952 03e3 02       		.uleb128 0x2
 2953 03e4 75       		.byte	0x75
 2954 03e5 00       		.sleb128 0
 2955 03e6 11       		.uleb128 0x11
 2956 03e7 01       		.uleb128 0x1
ARM GAS  C:\Users\Phuong\AppData\Local\Temp\cceqeziA.s 			page 71


 2957 03e8 52       		.byte	0x52
 2958 03e9 02       		.uleb128 0x2
 2959 03ea 78       		.byte	0x78
 2960 03eb 00       		.sleb128 0
 2961 03ec 00       		.byte	0
 2962 03ed 00       		.byte	0
 2963 03ee 00       		.byte	0
 2964 03ef 13       		.uleb128 0x13
 2965 03f0 F8020000 		.4byte	.LASF41
 2966 03f4 01       		.byte	0x1
 2967 03f5 C3       		.byte	0xc3
 2968 03f6 37000000 		.4byte	0x37
 2969 03fa 00000000 		.4byte	.LFB3
 2970 03fe 48000000 		.4byte	.LFE3-.LFB3
 2971 0402 01       		.uleb128 0x1
 2972 0403 9C       		.byte	0x9c
 2973 0404 88040000 		.4byte	0x488
 2974 0408 14       		.uleb128 0x14
 2975 0409 64737400 		.ascii	"dst\000"
 2976 040d 01       		.byte	0x1
 2977 040e C3       		.byte	0xc3
 2978 040f 86000000 		.4byte	0x86
 2979 0413 02060000 		.4byte	.LLST23
 2980 0417 15       		.uleb128 0x15
 2981 0418 16010000 		.4byte	.LASF32
 2982 041c 01       		.byte	0x1
 2983 041d C3       		.byte	0xc3
 2984 041e 25000000 		.4byte	0x25
 2985 0422 70060000 		.4byte	.LLST24
 2986 0426 14       		.uleb128 0x14
 2987 0427 73726300 		.ascii	"src\000"
 2988 042b 01       		.byte	0x1
 2989 042c C3       		.byte	0xc3
 2990 042d 93000000 		.4byte	0x93
 2991 0431 B2060000 		.4byte	.LLST25
 2992 0435 16       		.uleb128 0x16
 2993 0436 B9040000 		.4byte	.LASF28
 2994 043a 01       		.byte	0x1
 2995 043b C5       		.byte	0xc5
 2996 043c 37000000 		.4byte	0x37
 2997 0440 F4060000 		.4byte	.LLST26
 2998 0444 1A       		.uleb128 0x1a
 2999 0445 24000000 		.4byte	.LBB9
 3000 0449 20000000 		.4byte	.LBE9-.LBB9
 3001 044d 16       		.uleb128 0x16
 3002 044e 65040000 		.4byte	.LASF42
 3003 0452 01       		.byte	0x1
 3004 0453 DA       		.byte	0xda
 3005 0454 25000000 		.4byte	0x25
 3006 0458 39070000 		.4byte	.LLST27
 3007 045c 10       		.uleb128 0x10
 3008 045d 2A000000 		.4byte	.LVL103
 3009 0461 0D0B0000 		.4byte	0xb0d
 3010 0465 70040000 		.4byte	0x470
 3011 0469 11       		.uleb128 0x11
 3012 046a 01       		.uleb128 0x1
 3013 046b 50       		.byte	0x50
ARM GAS  C:\Users\Phuong\AppData\Local\Temp\cceqeziA.s 			page 72


 3014 046c 02       		.uleb128 0x2
 3015 046d 75       		.byte	0x75
 3016 046e 00       		.sleb128 0
 3017 046f 00       		.byte	0
 3018 0470 12       		.uleb128 0x12
 3019 0471 40000000 		.4byte	.LVL108
 3020 0475 040B0000 		.4byte	0xb04
 3021 0479 11       		.uleb128 0x11
 3022 047a 01       		.uleb128 0x1
 3023 047b 50       		.byte	0x50
 3024 047c 02       		.uleb128 0x2
 3025 047d 74       		.byte	0x74
 3026 047e 00       		.sleb128 0
 3027 047f 11       		.uleb128 0x11
 3028 0480 01       		.uleb128 0x1
 3029 0481 51       		.byte	0x51
 3030 0482 02       		.uleb128 0x2
 3031 0483 75       		.byte	0x75
 3032 0484 00       		.sleb128 0
 3033 0485 00       		.byte	0
 3034 0486 00       		.byte	0
 3035 0487 00       		.byte	0
 3036 0488 13       		.uleb128 0x13
 3037 0489 0F000000 		.4byte	.LASF43
 3038 048d 01       		.byte	0x1
 3039 048e EE       		.byte	0xee
 3040 048f 37000000 		.4byte	0x37
 3041 0493 00000000 		.4byte	.LFB4
 3042 0497 4C000000 		.4byte	.LFE4-.LFB4
 3043 049b 01       		.uleb128 0x1
 3044 049c 9C       		.byte	0x9c
 3045 049d 1B050000 		.4byte	0x51b
 3046 04a1 14       		.uleb128 0x14
 3047 04a2 64737400 		.ascii	"dst\000"
 3048 04a6 01       		.byte	0x1
 3049 04a7 EE       		.byte	0xee
 3050 04a8 86000000 		.4byte	0x86
 3051 04ac 71070000 		.4byte	.LLST28
 3052 04b0 15       		.uleb128 0x15
 3053 04b1 16010000 		.4byte	.LASF32
 3054 04b5 01       		.byte	0x1
 3055 04b6 EE       		.byte	0xee
 3056 04b7 25000000 		.4byte	0x25
 3057 04bb B3070000 		.4byte	.LLST29
 3058 04bf 1B       		.uleb128 0x1b
 3059 04c0 7F030000 		.4byte	.LASF44
 3060 04c4 01       		.byte	0x1
 3061 04c5 EE       		.byte	0xee
 3062 04c6 93000000 		.4byte	0x93
 3063 04ca 02       		.uleb128 0x2
 3064 04cb 91       		.byte	0x91
 3065 04cc 78       		.sleb128 -8
 3066 04cd 1C       		.uleb128 0x1c
 3067 04ce 16       		.uleb128 0x16
 3068 04cf B9040000 		.4byte	.LASF28
 3069 04d3 01       		.byte	0x1
 3070 04d4 F0       		.byte	0xf0
ARM GAS  C:\Users\Phuong\AppData\Local\Temp\cceqeziA.s 			page 73


 3071 04d5 37000000 		.4byte	0x37
 3072 04d9 F5070000 		.4byte	.LLST30
 3073 04dd 19       		.uleb128 0x19
 3074 04de 22000000 		.4byte	.LBB10
 3075 04e2 20000000 		.4byte	.LBE10-.LBB10
 3076 04e6 11050000 		.4byte	0x511
 3077 04ea 1D       		.uleb128 0x1d
 3078 04eb AC040000 		.4byte	.LASF45
 3079 04ef 01       		.byte	0x1
 3080 04f0 0601     		.2byte	0x106
 3081 04f2 C0000000 		.4byte	0xc0
 3082 04f6 02       		.uleb128 0x2
 3083 04f7 91       		.byte	0x91
 3084 04f8 64       		.sleb128 -28
 3085 04f9 12       		.uleb128 0x12
 3086 04fa 2C000000 		.4byte	.LVL118
 3087 04fe 180B0000 		.4byte	0xb18
 3088 0502 11       		.uleb128 0x11
 3089 0503 01       		.uleb128 0x1
 3090 0504 52       		.byte	0x52
 3091 0505 03       		.uleb128 0x3
 3092 0506 91       		.byte	0x91
 3093 0507 68       		.sleb128 -24
 3094 0508 06       		.byte	0x6
 3095 0509 11       		.uleb128 0x11
 3096 050a 01       		.uleb128 0x1
 3097 050b 53       		.byte	0x53
 3098 050c 02       		.uleb128 0x2
 3099 050d 91       		.byte	0x91
 3100 050e 6C       		.sleb128 -20
 3101 050f 00       		.byte	0
 3102 0510 00       		.byte	0
 3103 0511 1E       		.uleb128 0x1e
 3104 0512 18000000 		.4byte	.LVL115
 3105 0516 230B0000 		.4byte	0xb23
 3106 051a 00       		.byte	0
 3107 051b 1F       		.uleb128 0x1f
 3108 051c 73000000 		.4byte	.LASF46
 3109 0520 01       		.byte	0x1
 3110 0521 3201     		.2byte	0x132
 3111 0523 76000000 		.4byte	0x76
 3112 0527 00000000 		.4byte	.LFB5
 3113 052b CA010000 		.4byte	.LFE5-.LFB5
 3114 052f 01       		.uleb128 0x1
 3115 0530 9C       		.byte	0x9c
 3116 0531 C5050000 		.4byte	0x5c5
 3117 0535 0E       		.uleb128 0xe
 3118 0536 2D030000 		.4byte	.LASF23
 3119 053a 01       		.byte	0x1
 3120 053b 3201     		.2byte	0x132
 3121 053d 93000000 		.4byte	0x93
 3122 0541 38080000 		.4byte	.LLST31
 3123 0545 0E       		.uleb128 0xe
 3124 0546 F1010000 		.4byte	.LASF27
 3125 054a 01       		.byte	0x1
 3126 054b 3201     		.2byte	0x132
 3127 054d C5050000 		.4byte	0x5c5
ARM GAS  C:\Users\Phuong\AppData\Local\Temp\cceqeziA.s 			page 74


 3128 0551 7D080000 		.4byte	.LLST32
 3129 0555 0E       		.uleb128 0xe
 3130 0556 05020000 		.4byte	.LASF47
 3131 055a 01       		.byte	0x1
 3132 055b 3201     		.2byte	0x132
 3133 055d 37000000 		.4byte	0x37
 3134 0561 D5080000 		.4byte	.LLST33
 3135 0565 0F       		.uleb128 0xf
 3136 0566 B9040000 		.4byte	.LASF28
 3137 056a 01       		.byte	0x1
 3138 056b 3401     		.2byte	0x134
 3139 056d 76000000 		.4byte	0x76
 3140 0571 2C090000 		.4byte	.LLST34
 3141 0575 20       		.uleb128 0x20
 3142 0576 0D010000 		.4byte	.LASF48
 3143 057a 01       		.byte	0x1
 3144 057b 3501     		.2byte	0x135
 3145 057d D1010000 		.4byte	0x1d1
 3146 0581 01       		.byte	0x1
 3147 0582 0F       		.uleb128 0xf
 3148 0583 98040000 		.4byte	.LASF31
 3149 0587 01       		.byte	0x1
 3150 0588 3601     		.2byte	0x136
 3151 058a 86000000 		.4byte	0x86
 3152 058e B0090000 		.4byte	.LLST35
 3153 0592 0F       		.uleb128 0xf
 3154 0593 90030000 		.4byte	.LASF49
 3155 0597 01       		.byte	0x1
 3156 0598 3701     		.2byte	0x137
 3157 059a D1010000 		.4byte	0x1d1
 3158 059e 310A0000 		.4byte	.LLST36
 3159 05a2 0F       		.uleb128 0xf
 3160 05a3 AD000000 		.4byte	.LASF50
 3161 05a7 01       		.byte	0x1
 3162 05a8 3801     		.2byte	0x138
 3163 05aa 37000000 		.4byte	0x37
 3164 05ae 7F0A0000 		.4byte	.LLST37
 3165 05b2 1E       		.uleb128 0x1e
 3166 05b3 E8000000 		.4byte	.LVL144
 3167 05b7 230B0000 		.4byte	0xb23
 3168 05bb 1E       		.uleb128 0x1e
 3169 05bc 1A010000 		.4byte	.LVL151
 3170 05c0 230B0000 		.4byte	0xb23
 3171 05c4 00       		.byte	0
 3172 05c5 06       		.uleb128 0x6
 3173 05c6 04       		.byte	0x4
 3174 05c7 86000000 		.4byte	0x86
 3175 05cb 21       		.uleb128 0x21
 3176 05cc E0010000 		.4byte	.LASF51
 3177 05d0 01       		.byte	0x1
 3178 05d1 DC01     		.2byte	0x1dc
 3179 05d3 09010000 		.4byte	0x109
 3180 05d7 00000000 		.4byte	.LFB9
 3181 05db 40020000 		.4byte	.LFE9-.LFB9
 3182 05df 01       		.uleb128 0x1
 3183 05e0 9C       		.byte	0x9c
 3184 05e1 38070000 		.4byte	0x738
ARM GAS  C:\Users\Phuong\AppData\Local\Temp\cceqeziA.s 			page 75


 3185 05e5 0E       		.uleb128 0xe
 3186 05e6 2D030000 		.4byte	.LASF23
 3187 05ea 01       		.byte	0x1
 3188 05eb DC01     		.2byte	0x1dc
 3189 05ed 93000000 		.4byte	0x93
 3190 05f1 C90A0000 		.4byte	.LLST38
 3191 05f5 0E       		.uleb128 0xe
 3192 05f6 F1010000 		.4byte	.LASF27
 3193 05fa 01       		.byte	0x1
 3194 05fb DC01     		.2byte	0x1dc
 3195 05fd C5050000 		.4byte	0x5c5
 3196 0601 EA0A0000 		.4byte	.LLST39
 3197 0605 0E       		.uleb128 0xe
 3198 0606 A5030000 		.4byte	.LASF52
 3199 060a 01       		.byte	0x1
 3200 060b DC01     		.2byte	0x1dc
 3201 060d 38070000 		.4byte	0x738
 3202 0611 160B0000 		.4byte	.LLST40
 3203 0615 0E       		.uleb128 0xe
 3204 0616 57040000 		.4byte	.LASF53
 3205 061a 01       		.byte	0x1
 3206 061b DC01     		.2byte	0x1dc
 3207 061d 3E070000 		.4byte	0x73e
 3208 0621 370B0000 		.4byte	.LLST41
 3209 0625 22       		.uleb128 0x22
 3210 0626 0A020000 		.4byte	.LASF54
 3211 062a 01       		.byte	0x1
 3212 062b DC01     		.2byte	0x1dc
 3213 062d 38070000 		.4byte	0x738
 3214 0631 02       		.uleb128 0x2
 3215 0632 91       		.byte	0x91
 3216 0633 00       		.sleb128 0
 3217 0634 0F       		.uleb128 0xf
 3218 0635 B9040000 		.4byte	.LASF28
 3219 0639 01       		.byte	0x1
 3220 063a DE01     		.2byte	0x1de
 3221 063c 09010000 		.4byte	0x109
 3222 0640 7E0B0000 		.4byte	.LLST42
 3223 0644 0F       		.uleb128 0xf
 3224 0645 78010000 		.4byte	.LASF55
 3225 0649 01       		.byte	0x1
 3226 064a E001     		.2byte	0x1e0
 3227 064c 76000000 		.4byte	0x76
 3228 0650 C00B0000 		.4byte	.LLST43
 3229 0654 0F       		.uleb128 0xf
 3230 0655 8C040000 		.4byte	.LASF56
 3231 0659 01       		.byte	0x1
 3232 065a E101     		.2byte	0x1e1
 3233 065c 76000000 		.4byte	0x76
 3234 0660 340C0000 		.4byte	.LLST44
 3235 0664 0F       		.uleb128 0xf
 3236 0665 6C030000 		.4byte	.LASF57
 3237 0669 01       		.byte	0x1
 3238 066a E201     		.2byte	0x1e2
 3239 066c 37000000 		.4byte	0x37
 3240 0670 A80C0000 		.4byte	.LLST45
 3241 0674 0F       		.uleb128 0xf
ARM GAS  C:\Users\Phuong\AppData\Local\Temp\cceqeziA.s 			page 76


 3242 0675 9F040000 		.4byte	.LASF58
 3243 0679 01       		.byte	0x1
 3244 067a E301     		.2byte	0x1e3
 3245 067c 37000000 		.4byte	0x37
 3246 0680 F40C0000 		.4byte	.LLST46
 3247 0684 0F       		.uleb128 0xf
 3248 0685 32030000 		.4byte	.LASF59
 3249 0689 01       		.byte	0x1
 3250 068a E401     		.2byte	0x1e4
 3251 068c 86000000 		.4byte	0x86
 3252 0690 410D0000 		.4byte	.LLST47
 3253 0694 10       		.uleb128 0x10
 3254 0695 5A000000 		.4byte	.LVL177
 3255 0699 60010000 		.4byte	0x160
 3256 069d A8060000 		.4byte	0x6a8
 3257 06a1 11       		.uleb128 0x11
 3258 06a2 01       		.uleb128 0x1
 3259 06a3 50       		.byte	0x50
 3260 06a4 02       		.uleb128 0x2
 3261 06a5 75       		.byte	0x75
 3262 06a6 00       		.sleb128 0
 3263 06a7 00       		.byte	0
 3264 06a8 10       		.uleb128 0x10
 3265 06a9 66000000 		.4byte	.LVL178
 3266 06ad DE010000 		.4byte	0x1de
 3267 06b1 BC060000 		.4byte	0x6bc
 3268 06b5 11       		.uleb128 0x11
 3269 06b6 01       		.uleb128 0x1
 3270 06b7 50       		.byte	0x50
 3271 06b8 02       		.uleb128 0x2
 3272 06b9 75       		.byte	0x75
 3273 06ba 00       		.sleb128 0
 3274 06bb 00       		.byte	0
 3275 06bc 10       		.uleb128 0x10
 3276 06bd 12010000 		.4byte	.LVL180
 3277 06c1 1B050000 		.4byte	0x51b
 3278 06c5 DB060000 		.4byte	0x6db
 3279 06c9 11       		.uleb128 0x11
 3280 06ca 01       		.uleb128 0x1
 3281 06cb 50       		.byte	0x50
 3282 06cc 02       		.uleb128 0x2
 3283 06cd 74       		.byte	0x74
 3284 06ce 00       		.sleb128 0
 3285 06cf 11       		.uleb128 0x11
 3286 06d0 01       		.uleb128 0x1
 3287 06d1 51       		.byte	0x51
 3288 06d2 02       		.uleb128 0x2
 3289 06d3 75       		.byte	0x75
 3290 06d4 00       		.sleb128 0
 3291 06d5 11       		.uleb128 0x11
 3292 06d6 01       		.uleb128 0x1
 3293 06d7 52       		.byte	0x52
 3294 06d8 01       		.uleb128 0x1
 3295 06d9 3A       		.byte	0x3a
 3296 06da 00       		.byte	0
 3297 06db 1E       		.uleb128 0x1e
 3298 06dc 2C010000 		.4byte	.LVL183
ARM GAS  C:\Users\Phuong\AppData\Local\Temp\cceqeziA.s 			page 77


 3299 06e0 230B0000 		.4byte	0xb23
 3300 06e4 10       		.uleb128 0x10
 3301 06e5 52010000 		.4byte	.LVL190
 3302 06e9 1B050000 		.4byte	0x51b
 3303 06ed 03070000 		.4byte	0x703
 3304 06f1 11       		.uleb128 0x11
 3305 06f2 01       		.uleb128 0x1
 3306 06f3 50       		.byte	0x50
 3307 06f4 02       		.uleb128 0x2
 3308 06f5 7A       		.byte	0x7a
 3309 06f6 00       		.sleb128 0
 3310 06f7 11       		.uleb128 0x11
 3311 06f8 01       		.uleb128 0x1
 3312 06f9 51       		.byte	0x51
 3313 06fa 02       		.uleb128 0x2
 3314 06fb 75       		.byte	0x75
 3315 06fc 00       		.sleb128 0
 3316 06fd 11       		.uleb128 0x11
 3317 06fe 01       		.uleb128 0x1
 3318 06ff 52       		.byte	0x52
 3319 0700 01       		.uleb128 0x1
 3320 0701 3A       		.byte	0x3a
 3321 0702 00       		.byte	0
 3322 0703 1E       		.uleb128 0x1e
 3323 0704 6A010000 		.4byte	.LVL194
 3324 0708 230B0000 		.4byte	0xb23
 3325 070c 10       		.uleb128 0x10
 3326 070d 94010000 		.4byte	.LVL199
 3327 0711 2E0B0000 		.4byte	0xb2e
 3328 0715 25070000 		.4byte	0x725
 3329 0719 11       		.uleb128 0x11
 3330 071a 01       		.uleb128 0x1
 3331 071b 51       		.byte	0x51
 3332 071c 02       		.uleb128 0x2
 3333 071d 75       		.byte	0x75
 3334 071e 00       		.sleb128 0
 3335 071f 11       		.uleb128 0x11
 3336 0720 01       		.uleb128 0x1
 3337 0721 52       		.byte	0x52
 3338 0722 01       		.uleb128 0x1
 3339 0723 3A       		.byte	0x3a
 3340 0724 00       		.byte	0
 3341 0725 1E       		.uleb128 0x1e
 3342 0726 C6010000 		.4byte	.LVL202
 3343 072a 390B0000 		.4byte	0xb39
 3344 072e 1E       		.uleb128 0x1e
 3345 072f F8010000 		.4byte	.LVL208
 3346 0733 390B0000 		.4byte	0xb39
 3347 0737 00       		.byte	0
 3348 0738 06       		.uleb128 0x6
 3349 0739 04       		.byte	0x4
 3350 073a 37000000 		.4byte	0x37
 3351 073e 06       		.uleb128 0x6
 3352 073f 04       		.byte	0x4
 3353 0740 CB000000 		.4byte	0xcb
 3354 0744 1F       		.uleb128 0x1f
 3355 0745 4E040000 		.4byte	.LASF60
ARM GAS  C:\Users\Phuong\AppData\Local\Temp\cceqeziA.s 			page 78


 3356 0749 01       		.byte	0x1
 3357 074a 3E02     		.2byte	0x23e
 3358 074c D2000000 		.4byte	0xd2
 3359 0750 00000000 		.4byte	.LFB10
 3360 0754 0C010000 		.4byte	.LFE10-.LFB10
 3361 0758 01       		.uleb128 0x1
 3362 0759 9C       		.byte	0x9c
 3363 075a 2C080000 		.4byte	0x82c
 3364 075e 0E       		.uleb128 0xe
 3365 075f 2D030000 		.4byte	.LASF23
 3366 0763 01       		.byte	0x1
 3367 0764 3E02     		.2byte	0x23e
 3368 0766 93000000 		.4byte	0x93
 3369 076a 960D0000 		.4byte	.LLST48
 3370 076e 0E       		.uleb128 0xe
 3371 076f F1010000 		.4byte	.LASF27
 3372 0773 01       		.byte	0x1
 3373 0774 3E02     		.2byte	0x23e
 3374 0776 C5050000 		.4byte	0x5c5
 3375 077a 2F0E0000 		.4byte	.LLST49
 3376 077e 1D       		.uleb128 0x1d
 3377 077f A5030000 		.4byte	.LASF52
 3378 0783 01       		.byte	0x1
 3379 0784 4002     		.2byte	0x240
 3380 0786 37000000 		.4byte	0x37
 3381 078a 02       		.uleb128 0x2
 3382 078b 91       		.byte	0x91
 3383 078c 64       		.sleb128 -28
 3384 078d 1D       		.uleb128 0x1d
 3385 078e 57040000 		.4byte	.LASF53
 3386 0792 01       		.byte	0x1
 3387 0793 4102     		.2byte	0x241
 3388 0795 CB000000 		.4byte	0xcb
 3389 0799 02       		.uleb128 0x2
 3390 079a 91       		.byte	0x91
 3391 079b 58       		.sleb128 -40
 3392 079c 1D       		.uleb128 0x1d
 3393 079d 0A020000 		.4byte	.LASF54
 3394 07a1 01       		.byte	0x1
 3395 07a2 4202     		.2byte	0x242
 3396 07a4 37000000 		.4byte	0x37
 3397 07a8 02       		.uleb128 0x2
 3398 07a9 91       		.byte	0x91
 3399 07aa 54       		.sleb128 -44
 3400 07ab 1D       		.uleb128 0x1d
 3401 07ac 98040000 		.4byte	.LASF31
 3402 07b0 01       		.byte	0x1
 3403 07b1 4302     		.2byte	0x243
 3404 07b3 86000000 		.4byte	0x86
 3405 07b7 02       		.uleb128 0x2
 3406 07b8 91       		.byte	0x91
 3407 07b9 50       		.sleb128 -48
 3408 07ba 23       		.uleb128 0x23
 3409 07bb 76616C00 		.ascii	"val\000"
 3410 07bf 01       		.byte	0x1
 3411 07c0 4402     		.2byte	0x244
 3412 07c2 CB000000 		.4byte	0xcb
ARM GAS  C:\Users\Phuong\AppData\Local\Temp\cceqeziA.s 			page 79


 3413 07c6 710E0000 		.4byte	.LLST50
 3414 07ca 0F       		.uleb128 0xf
 3415 07cb B9040000 		.4byte	.LASF28
 3416 07cf 01       		.byte	0x1
 3417 07d0 4702     		.2byte	0x247
 3418 07d2 D2000000 		.4byte	0xd2
 3419 07d6 990E0000 		.4byte	.LLST51
 3420 07da 10       		.uleb128 0x10
 3421 07db 20000000 		.4byte	.LVL218
 3422 07df CB050000 		.4byte	0x5cb
 3423 07e3 07080000 		.4byte	0x807
 3424 07e7 11       		.uleb128 0x11
 3425 07e8 01       		.uleb128 0x1
 3426 07e9 50       		.byte	0x50
 3427 07ea 02       		.uleb128 0x2
 3428 07eb 74       		.byte	0x74
 3429 07ec 00       		.sleb128 0
 3430 07ed 11       		.uleb128 0x11
 3431 07ee 01       		.uleb128 0x1
 3432 07ef 51       		.byte	0x51
 3433 07f0 02       		.uleb128 0x2
 3434 07f1 91       		.byte	0x91
 3435 07f2 50       		.sleb128 -48
 3436 07f3 11       		.uleb128 0x11
 3437 07f4 01       		.uleb128 0x1
 3438 07f5 52       		.byte	0x52
 3439 07f6 02       		.uleb128 0x2
 3440 07f7 91       		.byte	0x91
 3441 07f8 64       		.sleb128 -28
 3442 07f9 11       		.uleb128 0x11
 3443 07fa 01       		.uleb128 0x1
 3444 07fb 53       		.byte	0x53
 3445 07fc 02       		.uleb128 0x2
 3446 07fd 91       		.byte	0x91
 3447 07fe 58       		.sleb128 -40
 3448 07ff 11       		.uleb128 0x11
 3449 0800 02       		.uleb128 0x2
 3450 0801 7D       		.byte	0x7d
 3451 0802 00       		.sleb128 0
 3452 0803 02       		.uleb128 0x2
 3453 0804 91       		.byte	0x91
 3454 0805 54       		.sleb128 -44
 3455 0806 00       		.byte	0
 3456 0807 1E       		.uleb128 0x1e
 3457 0808 46000000 		.4byte	.LVL222
 3458 080c 230B0000 		.4byte	0xb23
 3459 0810 1E       		.uleb128 0x1e
 3460 0811 5E000000 		.4byte	.LVL225
 3461 0815 390B0000 		.4byte	0xb39
 3462 0819 1E       		.uleb128 0x1e
 3463 081a C2000000 		.4byte	.LVL239
 3464 081e 230B0000 		.4byte	0xb23
 3465 0822 1E       		.uleb128 0x1e
 3466 0823 DC000000 		.4byte	.LVL244
 3467 0827 230B0000 		.4byte	0xb23
 3468 082b 00       		.byte	0
 3469 082c 1F       		.uleb128 0x1f
ARM GAS  C:\Users\Phuong\AppData\Local\Temp\cceqeziA.s 			page 80


 3470 082d 72040000 		.4byte	.LASF61
 3471 0831 01       		.byte	0x1
 3472 0832 7C02     		.2byte	0x27c
 3473 0834 45000000 		.4byte	0x45
 3474 0838 00000000 		.4byte	.LFB11
 3475 083c 38010000 		.4byte	.LFE11-.LFB11
 3476 0840 01       		.uleb128 0x1
 3477 0841 9C       		.byte	0x9c
 3478 0842 04090000 		.4byte	0x904
 3479 0846 0E       		.uleb128 0xe
 3480 0847 2D030000 		.4byte	.LASF23
 3481 084b 01       		.byte	0x1
 3482 084c 7C02     		.2byte	0x27c
 3483 084e 93000000 		.4byte	0x93
 3484 0852 540F0000 		.4byte	.LLST52
 3485 0856 0E       		.uleb128 0xe
 3486 0857 F1010000 		.4byte	.LASF27
 3487 085b 01       		.byte	0x1
 3488 085c 7C02     		.2byte	0x27c
 3489 085e C5050000 		.4byte	0x5c5
 3490 0862 AF0F0000 		.4byte	.LLST53
 3491 0866 1D       		.uleb128 0x1d
 3492 0867 A5030000 		.4byte	.LASF52
 3493 086b 01       		.byte	0x1
 3494 086c 7E02     		.2byte	0x27e
 3495 086e 37000000 		.4byte	0x37
 3496 0872 02       		.uleb128 0x2
 3497 0873 91       		.byte	0x91
 3498 0874 64       		.sleb128 -28
 3499 0875 1D       		.uleb128 0x1d
 3500 0876 57040000 		.4byte	.LASF53
 3501 087a 01       		.byte	0x1
 3502 087b 7F02     		.2byte	0x27f
 3503 087d CB000000 		.4byte	0xcb
 3504 0881 02       		.uleb128 0x2
 3505 0882 91       		.byte	0x91
 3506 0883 58       		.sleb128 -40
 3507 0884 1D       		.uleb128 0x1d
 3508 0885 0A020000 		.4byte	.LASF54
 3509 0889 01       		.byte	0x1
 3510 088a 8002     		.2byte	0x280
 3511 088c 37000000 		.4byte	0x37
 3512 0890 02       		.uleb128 0x2
 3513 0891 91       		.byte	0x91
 3514 0892 54       		.sleb128 -44
 3515 0893 1D       		.uleb128 0x1d
 3516 0894 98040000 		.4byte	.LASF31
 3517 0898 01       		.byte	0x1
 3518 0899 8102     		.2byte	0x281
 3519 089b 86000000 		.4byte	0x86
 3520 089f 02       		.uleb128 0x2
 3521 08a0 91       		.byte	0x91
 3522 08a1 50       		.sleb128 -48
 3523 08a2 0F       		.uleb128 0xf
 3524 08a3 B9040000 		.4byte	.LASF28
 3525 08a7 01       		.byte	0x1
 3526 08a8 8402     		.2byte	0x284
ARM GAS  C:\Users\Phuong\AppData\Local\Temp\cceqeziA.s 			page 81


 3527 08aa 45000000 		.4byte	0x45
 3528 08ae F10F0000 		.4byte	.LLST54
 3529 08b2 10       		.uleb128 0x10
 3530 08b3 20000000 		.4byte	.LVL255
 3531 08b7 CB050000 		.4byte	0x5cb
 3532 08bb DF080000 		.4byte	0x8df
 3533 08bf 11       		.uleb128 0x11
 3534 08c0 01       		.uleb128 0x1
 3535 08c1 50       		.byte	0x50
 3536 08c2 02       		.uleb128 0x2
 3537 08c3 74       		.byte	0x74
 3538 08c4 00       		.sleb128 0
 3539 08c5 11       		.uleb128 0x11
 3540 08c6 01       		.uleb128 0x1
 3541 08c7 51       		.byte	0x51
 3542 08c8 02       		.uleb128 0x2
 3543 08c9 91       		.byte	0x91
 3544 08ca 50       		.sleb128 -48
 3545 08cb 11       		.uleb128 0x11
 3546 08cc 01       		.uleb128 0x1
 3547 08cd 52       		.byte	0x52
 3548 08ce 02       		.uleb128 0x2
 3549 08cf 91       		.byte	0x91
 3550 08d0 64       		.sleb128 -28
 3551 08d1 11       		.uleb128 0x11
 3552 08d2 01       		.uleb128 0x1
 3553 08d3 53       		.byte	0x53
 3554 08d4 02       		.uleb128 0x2
 3555 08d5 91       		.byte	0x91
 3556 08d6 58       		.sleb128 -40
 3557 08d7 11       		.uleb128 0x11
 3558 08d8 02       		.uleb128 0x2
 3559 08d9 7D       		.byte	0x7d
 3560 08da 00       		.sleb128 0
 3561 08db 02       		.uleb128 0x2
 3562 08dc 91       		.byte	0x91
 3563 08dd 54       		.sleb128 -44
 3564 08de 00       		.byte	0
 3565 08df 1E       		.uleb128 0x1e
 3566 08e0 4C000000 		.4byte	.LVL260
 3567 08e4 230B0000 		.4byte	0xb23
 3568 08e8 1E       		.uleb128 0x1e
 3569 08e9 94000000 		.4byte	.LVL266
 3570 08ed 390B0000 		.4byte	0xb39
 3571 08f1 1E       		.uleb128 0x1e
 3572 08f2 D2000000 		.4byte	.LVL276
 3573 08f6 230B0000 		.4byte	0xb23
 3574 08fa 1E       		.uleb128 0x1e
 3575 08fb F2000000 		.4byte	.LVL282
 3576 08ff 230B0000 		.4byte	0xb23
 3577 0903 00       		.byte	0
 3578 0904 24       		.uleb128 0x24
 3579 0905 4A000000 		.4byte	.LASF62
 3580 0909 01       		.byte	0x1
 3581 090a B902     		.2byte	0x2b9
 3582 090c 37000000 		.4byte	0x37
 3583 0910 00000000 		.4byte	.LFB12
ARM GAS  C:\Users\Phuong\AppData\Local\Temp\cceqeziA.s 			page 82


 3584 0914 4C000000 		.4byte	.LFE12-.LFB12
 3585 0918 01       		.uleb128 0x1
 3586 0919 9C       		.byte	0x9c
 3587 091a CE090000 		.4byte	0x9ce
 3588 091e 0E       		.uleb128 0xe
 3589 091f 3C010000 		.4byte	.LASF63
 3590 0923 01       		.byte	0x1
 3591 0924 B902     		.2byte	0x2b9
 3592 0926 C5050000 		.4byte	0x5c5
 3593 092a AD100000 		.4byte	.LLST55
 3594 092e 0E       		.uleb128 0xe
 3595 092f 43000000 		.4byte	.LASF64
 3596 0933 01       		.byte	0x1
 3597 0934 B902     		.2byte	0x2b9
 3598 0936 93000000 		.4byte	0x93
 3599 093a EF100000 		.4byte	.LLST56
 3600 093e 0F       		.uleb128 0xf
 3601 093f B9040000 		.4byte	.LASF28
 3602 0943 01       		.byte	0x1
 3603 0944 BB02     		.2byte	0x2bb
 3604 0946 37000000 		.4byte	0x37
 3605 094a 3F110000 		.4byte	.LLST57
 3606 094e 0F       		.uleb128 0xf
 3607 094f 35000000 		.4byte	.LASF65
 3608 0953 01       		.byte	0x1
 3609 0954 BC02     		.2byte	0x2bc
 3610 0956 37000000 		.4byte	0x37
 3611 095a 68110000 		.4byte	.LLST58
 3612 095e 17       		.uleb128 0x17
 3613 095f 40000000 		.4byte	.Ldebug_ranges0+0x40
 3614 0963 23       		.uleb128 0x23
 3615 0964 6C00     		.ascii	"l\000"
 3616 0966 01       		.byte	0x1
 3617 0967 C502     		.2byte	0x2c5
 3618 0969 25000000 		.4byte	0x25
 3619 096d 91110000 		.4byte	.LLST59
 3620 0971 0F       		.uleb128 0xf
 3621 0972 37010000 		.4byte	.LASF66
 3622 0976 01       		.byte	0x1
 3623 0977 C602     		.2byte	0x2c6
 3624 0979 86000000 		.4byte	0x86
 3625 097d CB110000 		.4byte	.LLST60
 3626 0981 10       		.uleb128 0x10
 3627 0982 14000000 		.4byte	.LVL291
 3628 0986 0D0B0000 		.4byte	0xb0d
 3629 098a 95090000 		.4byte	0x995
 3630 098e 11       		.uleb128 0x11
 3631 098f 01       		.uleb128 0x1
 3632 0990 50       		.byte	0x50
 3633 0991 02       		.uleb128 0x2
 3634 0992 74       		.byte	0x74
 3635 0993 00       		.sleb128 0
 3636 0994 00       		.byte	0
 3637 0995 10       		.uleb128 0x10
 3638 0996 1C000000 		.4byte	.LVL293
 3639 099a 440B0000 		.4byte	0xb44
 3640 099e A9090000 		.4byte	0x9a9
ARM GAS  C:\Users\Phuong\AppData\Local\Temp\cceqeziA.s 			page 83


 3641 09a2 11       		.uleb128 0x11
 3642 09a3 01       		.uleb128 0x1
 3643 09a4 50       		.byte	0x50
 3644 09a5 02       		.uleb128 0x2
 3645 09a6 76       		.byte	0x76
 3646 09a7 00       		.sleb128 0
 3647 09a8 00       		.byte	0
 3648 09a9 10       		.uleb128 0x10
 3649 09aa 2A000000 		.4byte	.LVL294
 3650 09ae EF030000 		.4byte	0x3ef
 3651 09b2 C3090000 		.4byte	0x9c3
 3652 09b6 11       		.uleb128 0x11
 3653 09b7 01       		.uleb128 0x1
 3654 09b8 51       		.byte	0x51
 3655 09b9 02       		.uleb128 0x2
 3656 09ba 76       		.byte	0x76
 3657 09bb 00       		.sleb128 0
 3658 09bc 11       		.uleb128 0x11
 3659 09bd 01       		.uleb128 0x1
 3660 09be 52       		.byte	0x52
 3661 09bf 02       		.uleb128 0x2
 3662 09c0 74       		.byte	0x74
 3663 09c1 00       		.sleb128 0
 3664 09c2 00       		.byte	0
 3665 09c3 1E       		.uleb128 0x1e
 3666 09c4 34000000 		.4byte	.LVL297
 3667 09c8 4F0B0000 		.4byte	0xb4f
 3668 09cc 00       		.byte	0
 3669 09cd 00       		.byte	0
 3670 09ce 1F       		.uleb128 0x1f
 3671 09cf CC010000 		.4byte	.LASF67
 3672 09d3 01       		.byte	0x1
 3673 09d4 E602     		.2byte	0x2e6
 3674 09d6 37000000 		.4byte	0x37
 3675 09da 00000000 		.4byte	.LFB13
 3676 09de 88000000 		.4byte	.LFE13-.LFB13
 3677 09e2 01       		.uleb128 0x1
 3678 09e3 9C       		.byte	0x9c
 3679 09e4 690A0000 		.4byte	0xa69
 3680 09e8 0E       		.uleb128 0xe
 3681 09e9 3C010000 		.4byte	.LASF63
 3682 09ed 01       		.byte	0x1
 3683 09ee E602     		.2byte	0x2e6
 3684 09f0 86000000 		.4byte	0x86
 3685 09f4 E9110000 		.4byte	.LLST61
 3686 09f8 0E       		.uleb128 0xe
 3687 09f9 7C040000 		.4byte	.LASF68
 3688 09fd 01       		.byte	0x1
 3689 09fe E602     		.2byte	0x2e6
 3690 0a00 25000000 		.4byte	0x25
 3691 0a04 41120000 		.4byte	.LLST62
 3692 0a08 0E       		.uleb128 0xe
 3693 0a09 00000000 		.4byte	.LASF69
 3694 0a0d 01       		.byte	0x1
 3695 0a0e E602     		.2byte	0x2e6
 3696 0a10 30000000 		.4byte	0x30
 3697 0a14 83120000 		.4byte	.LLST63
ARM GAS  C:\Users\Phuong\AppData\Local\Temp\cceqeziA.s 			page 84


 3698 0a18 1D       		.uleb128 0x1d
 3699 0a19 B9040000 		.4byte	.LASF28
 3700 0a1d 01       		.byte	0x1
 3701 0a1e E802     		.2byte	0x2e8
 3702 0a20 37000000 		.4byte	0x37
 3703 0a24 01       		.uleb128 0x1
 3704 0a25 50       		.byte	0x50
 3705 0a26 23       		.uleb128 0x23
 3706 0a27 706F7300 		.ascii	"pos\000"
 3707 0a2b 01       		.byte	0x1
 3708 0a2c E902     		.2byte	0x2e9
 3709 0a2e 25000000 		.4byte	0x25
 3710 0a32 CD120000 		.4byte	.LLST64
 3711 0a36 1A       		.uleb128 0x1a
 3712 0a37 46000000 		.4byte	.LBB13
 3713 0a3b 28000000 		.4byte	.LBE13-.LBB13
 3714 0a3f 23       		.uleb128 0x23
 3715 0a40 7700     		.ascii	"w\000"
 3716 0a42 01       		.byte	0x1
 3717 0a43 FF02     		.2byte	0x2ff
 3718 0a45 25000000 		.4byte	0x25
 3719 0a49 01130000 		.4byte	.LLST65
 3720 0a4d 1A       		.uleb128 0x1a
 3721 0a4e 50000000 		.4byte	.LBB14
 3722 0a52 12000000 		.4byte	.LBE14-.LBB14
 3723 0a56 0F       		.uleb128 0xf
 3724 0a57 37010000 		.4byte	.LASF66
 3725 0a5b 01       		.byte	0x1
 3726 0a5c 0403     		.2byte	0x304
 3727 0a5e 8C000000 		.4byte	0x8c
 3728 0a62 20130000 		.4byte	.LLST66
 3729 0a66 00       		.byte	0
 3730 0a67 00       		.byte	0
 3731 0a68 00       		.byte	0
 3732 0a69 1F       		.uleb128 0x1f
 3733 0a6a E9020000 		.4byte	.LASF70
 3734 0a6e 01       		.byte	0x1
 3735 0a6f 1903     		.2byte	0x319
 3736 0a71 37000000 		.4byte	0x37
 3737 0a75 00000000 		.4byte	.LFB14
 3738 0a79 88000000 		.4byte	.LFE14-.LFB14
 3739 0a7d 01       		.uleb128 0x1
 3740 0a7e 9C       		.byte	0x9c
 3741 0a7f 040B0000 		.4byte	0xb04
 3742 0a83 0E       		.uleb128 0xe
 3743 0a84 3C010000 		.4byte	.LASF63
 3744 0a88 01       		.byte	0x1
 3745 0a89 1903     		.2byte	0x319
 3746 0a8b 86000000 		.4byte	0x86
 3747 0a8f 33130000 		.4byte	.LLST67
 3748 0a93 0E       		.uleb128 0xe
 3749 0a94 7C040000 		.4byte	.LASF68
 3750 0a98 01       		.byte	0x1
 3751 0a99 1903     		.2byte	0x319
 3752 0a9b 25000000 		.4byte	0x25
 3753 0a9f 8B130000 		.4byte	.LLST68
 3754 0aa3 0E       		.uleb128 0xe
ARM GAS  C:\Users\Phuong\AppData\Local\Temp\cceqeziA.s 			page 85


 3755 0aa4 00000000 		.4byte	.LASF69
 3756 0aa8 01       		.byte	0x1
 3757 0aa9 1903     		.2byte	0x319
 3758 0aab 25000000 		.4byte	0x25
 3759 0aaf CD130000 		.4byte	.LLST69
 3760 0ab3 1D       		.uleb128 0x1d
 3761 0ab4 B9040000 		.4byte	.LASF28
 3762 0ab8 01       		.byte	0x1
 3763 0ab9 1B03     		.2byte	0x31b
 3764 0abb 37000000 		.4byte	0x37
 3765 0abf 01       		.uleb128 0x1
 3766 0ac0 50       		.byte	0x50
 3767 0ac1 23       		.uleb128 0x23
 3768 0ac2 706F7300 		.ascii	"pos\000"
 3769 0ac6 01       		.byte	0x1
 3770 0ac7 1C03     		.2byte	0x31c
 3771 0ac9 25000000 		.4byte	0x25
 3772 0acd 17140000 		.4byte	.LLST70
 3773 0ad1 1A       		.uleb128 0x1a
 3774 0ad2 46000000 		.4byte	.LBB15
 3775 0ad6 28000000 		.4byte	.LBE15-.LBB15
 3776 0ada 23       		.uleb128 0x23
 3777 0adb 7700     		.ascii	"w\000"
 3778 0add 01       		.byte	0x1
 3779 0ade 3203     		.2byte	0x332
 3780 0ae0 25000000 		.4byte	0x25
 3781 0ae4 4B140000 		.4byte	.LLST71
 3782 0ae8 1A       		.uleb128 0x1a
 3783 0ae9 50000000 		.4byte	.LBB16
 3784 0aed 12000000 		.4byte	.LBE16-.LBB16
 3785 0af1 0F       		.uleb128 0xf
 3786 0af2 37010000 		.4byte	.LASF66
 3787 0af6 01       		.byte	0x1
 3788 0af7 3703     		.2byte	0x337
 3789 0af9 8C000000 		.4byte	0x8c
 3790 0afd 6A140000 		.4byte	.LLST72
 3791 0b01 00       		.byte	0
 3792 0b02 00       		.byte	0
 3793 0b03 00       		.byte	0
 3794 0b04 25       		.uleb128 0x25
 3795 0b05 F4000000 		.4byte	.LASF83
 3796 0b09 F4000000 		.4byte	.LASF83
 3797 0b0d 26       		.uleb128 0x26
 3798 0b0e 5F010000 		.4byte	.LASF71
 3799 0b12 5F010000 		.4byte	.LASF71
 3800 0b16 04       		.byte	0x4
 3801 0b17 21       		.byte	0x21
 3802 0b18 26       		.uleb128 0x26
 3803 0b19 1D030000 		.4byte	.LASF72
 3804 0b1d 1D030000 		.4byte	.LASF72
 3805 0b21 05       		.byte	0x5
 3806 0b22 FF       		.byte	0xff
 3807 0b23 26       		.uleb128 0x26
 3808 0b24 B6000000 		.4byte	.LASF73
 3809 0b28 B6000000 		.4byte	.LASF73
 3810 0b2c 06       		.byte	0x6
 3811 0b2d 0F       		.byte	0xf
ARM GAS  C:\Users\Phuong\AppData\Local\Temp\cceqeziA.s 			page 86


 3812 0b2e 26       		.uleb128 0x26
 3813 0b2f C7000000 		.4byte	.LASF74
 3814 0b33 C7000000 		.4byte	.LASF74
 3815 0b37 07       		.byte	0x7
 3816 0b38 A2       		.byte	0xa2
 3817 0b39 27       		.uleb128 0x27
 3818 0b3a 706F7700 		.ascii	"pow\000"
 3819 0b3e 706F7700 		.ascii	"pow\000"
 3820 0b42 09       		.byte	0x9
 3821 0b43 86       		.byte	0x86
 3822 0b44 26       		.uleb128 0x26
 3823 0b45 78030000 		.4byte	.LASF75
 3824 0b49 78030000 		.4byte	.LASF75
 3825 0b4d 07       		.byte	0x7
 3826 0b4e 64       		.byte	0x64
 3827 0b4f 26       		.uleb128 0x26
 3828 0b50 87000000 		.4byte	.LASF76
 3829 0b54 87000000 		.4byte	.LASF76
 3830 0b58 07       		.byte	0x7
 3831 0b59 59       		.byte	0x59
 3832 0b5a 00       		.byte	0
 3833              		.section	.debug_abbrev,"",%progbits
 3834              	.Ldebug_abbrev0:
 3835 0000 01       		.uleb128 0x1
 3836 0001 11       		.uleb128 0x11
 3837 0002 01       		.byte	0x1
 3838 0003 25       		.uleb128 0x25
 3839 0004 0E       		.uleb128 0xe
 3840 0005 13       		.uleb128 0x13
 3841 0006 0B       		.uleb128 0xb
 3842 0007 03       		.uleb128 0x3
 3843 0008 0E       		.uleb128 0xe
 3844 0009 1B       		.uleb128 0x1b
 3845 000a 0E       		.uleb128 0xe
 3846 000b 55       		.uleb128 0x55
 3847 000c 17       		.uleb128 0x17
 3848 000d 11       		.uleb128 0x11
 3849 000e 01       		.uleb128 0x1
 3850 000f 10       		.uleb128 0x10
 3851 0010 17       		.uleb128 0x17
 3852 0011 00       		.byte	0
 3853 0012 00       		.byte	0
 3854 0013 02       		.uleb128 0x2
 3855 0014 16       		.uleb128 0x16
 3856 0015 00       		.byte	0
 3857 0016 03       		.uleb128 0x3
 3858 0017 0E       		.uleb128 0xe
 3859 0018 3A       		.uleb128 0x3a
 3860 0019 0B       		.uleb128 0xb
 3861 001a 3B       		.uleb128 0x3b
 3862 001b 0B       		.uleb128 0xb
 3863 001c 49       		.uleb128 0x49
 3864 001d 13       		.uleb128 0x13
 3865 001e 00       		.byte	0
 3866 001f 00       		.byte	0
 3867 0020 03       		.uleb128 0x3
 3868 0021 24       		.uleb128 0x24
ARM GAS  C:\Users\Phuong\AppData\Local\Temp\cceqeziA.s 			page 87


 3869 0022 00       		.byte	0
 3870 0023 0B       		.uleb128 0xb
 3871 0024 0B       		.uleb128 0xb
 3872 0025 3E       		.uleb128 0x3e
 3873 0026 0B       		.uleb128 0xb
 3874 0027 03       		.uleb128 0x3
 3875 0028 0E       		.uleb128 0xe
 3876 0029 00       		.byte	0
 3877 002a 00       		.byte	0
 3878 002b 04       		.uleb128 0x4
 3879 002c 24       		.uleb128 0x24
 3880 002d 00       		.byte	0
 3881 002e 0B       		.uleb128 0xb
 3882 002f 0B       		.uleb128 0xb
 3883 0030 3E       		.uleb128 0x3e
 3884 0031 0B       		.uleb128 0xb
 3885 0032 03       		.uleb128 0x3
 3886 0033 08       		.uleb128 0x8
 3887 0034 00       		.byte	0
 3888 0035 00       		.byte	0
 3889 0036 05       		.uleb128 0x5
 3890 0037 0F       		.uleb128 0xf
 3891 0038 00       		.byte	0
 3892 0039 0B       		.uleb128 0xb
 3893 003a 0B       		.uleb128 0xb
 3894 003b 00       		.byte	0
 3895 003c 00       		.byte	0
 3896 003d 06       		.uleb128 0x6
 3897 003e 0F       		.uleb128 0xf
 3898 003f 00       		.byte	0
 3899 0040 0B       		.uleb128 0xb
 3900 0041 0B       		.uleb128 0xb
 3901 0042 49       		.uleb128 0x49
 3902 0043 13       		.uleb128 0x13
 3903 0044 00       		.byte	0
 3904 0045 00       		.byte	0
 3905 0046 07       		.uleb128 0x7
 3906 0047 26       		.uleb128 0x26
 3907 0048 00       		.byte	0
 3908 0049 49       		.uleb128 0x49
 3909 004a 13       		.uleb128 0x13
 3910 004b 00       		.byte	0
 3911 004c 00       		.byte	0
 3912 004d 08       		.uleb128 0x8
 3913 004e 13       		.uleb128 0x13
 3914 004f 01       		.byte	0x1
 3915 0050 03       		.uleb128 0x3
 3916 0051 0E       		.uleb128 0xe
 3917 0052 0B       		.uleb128 0xb
 3918 0053 0B       		.uleb128 0xb
 3919 0054 3A       		.uleb128 0x3a
 3920 0055 0B       		.uleb128 0xb
 3921 0056 3B       		.uleb128 0x3b
 3922 0057 0B       		.uleb128 0xb
 3923 0058 01       		.uleb128 0x1
 3924 0059 13       		.uleb128 0x13
 3925 005a 00       		.byte	0
ARM GAS  C:\Users\Phuong\AppData\Local\Temp\cceqeziA.s 			page 88


 3926 005b 00       		.byte	0
 3927 005c 09       		.uleb128 0x9
 3928 005d 0D       		.uleb128 0xd
 3929 005e 00       		.byte	0
 3930 005f 03       		.uleb128 0x3
 3931 0060 0E       		.uleb128 0xe
 3932 0061 49       		.uleb128 0x49
 3933 0062 13       		.uleb128 0x13
 3934 0063 38       		.uleb128 0x38
 3935 0064 0B       		.uleb128 0xb
 3936 0065 34       		.uleb128 0x34
 3937 0066 19       		.uleb128 0x19
 3938 0067 00       		.byte	0
 3939 0068 00       		.byte	0
 3940 0069 0A       		.uleb128 0xa
 3941 006a 04       		.uleb128 0x4
 3942 006b 01       		.byte	0x1
 3943 006c 03       		.uleb128 0x3
 3944 006d 0E       		.uleb128 0xe
 3945 006e 0B       		.uleb128 0xb
 3946 006f 0B       		.uleb128 0xb
 3947 0070 49       		.uleb128 0x49
 3948 0071 13       		.uleb128 0x13
 3949 0072 3A       		.uleb128 0x3a
 3950 0073 0B       		.uleb128 0xb
 3951 0074 3B       		.uleb128 0x3b
 3952 0075 05       		.uleb128 0x5
 3953 0076 01       		.uleb128 0x1
 3954 0077 13       		.uleb128 0x13
 3955 0078 00       		.byte	0
 3956 0079 00       		.byte	0
 3957 007a 0B       		.uleb128 0xb
 3958 007b 28       		.uleb128 0x28
 3959 007c 00       		.byte	0
 3960 007d 03       		.uleb128 0x3
 3961 007e 0E       		.uleb128 0xe
 3962 007f 1C       		.uleb128 0x1c
 3963 0080 0B       		.uleb128 0xb
 3964 0081 00       		.byte	0
 3965 0082 00       		.byte	0
 3966 0083 0C       		.uleb128 0xc
 3967 0084 16       		.uleb128 0x16
 3968 0085 00       		.byte	0
 3969 0086 03       		.uleb128 0x3
 3970 0087 0E       		.uleb128 0xe
 3971 0088 3A       		.uleb128 0x3a
 3972 0089 0B       		.uleb128 0xb
 3973 008a 3B       		.uleb128 0x3b
 3974 008b 05       		.uleb128 0x5
 3975 008c 49       		.uleb128 0x49
 3976 008d 13       		.uleb128 0x13
 3977 008e 00       		.byte	0
 3978 008f 00       		.byte	0
 3979 0090 0D       		.uleb128 0xd
 3980 0091 2E       		.uleb128 0x2e
 3981 0092 01       		.byte	0x1
 3982 0093 03       		.uleb128 0x3
ARM GAS  C:\Users\Phuong\AppData\Local\Temp\cceqeziA.s 			page 89


 3983 0094 0E       		.uleb128 0xe
 3984 0095 3A       		.uleb128 0x3a
 3985 0096 0B       		.uleb128 0xb
 3986 0097 3B       		.uleb128 0x3b
 3987 0098 05       		.uleb128 0x5
 3988 0099 27       		.uleb128 0x27
 3989 009a 19       		.uleb128 0x19
 3990 009b 49       		.uleb128 0x49
 3991 009c 13       		.uleb128 0x13
 3992 009d 11       		.uleb128 0x11
 3993 009e 01       		.uleb128 0x1
 3994 009f 12       		.uleb128 0x12
 3995 00a0 06       		.uleb128 0x6
 3996 00a1 40       		.uleb128 0x40
 3997 00a2 18       		.uleb128 0x18
 3998 00a3 9742     		.uleb128 0x2117
 3999 00a5 19       		.uleb128 0x19
 4000 00a6 01       		.uleb128 0x1
 4001 00a7 13       		.uleb128 0x13
 4002 00a8 00       		.byte	0
 4003 00a9 00       		.byte	0
 4004 00aa 0E       		.uleb128 0xe
 4005 00ab 05       		.uleb128 0x5
 4006 00ac 00       		.byte	0
 4007 00ad 03       		.uleb128 0x3
 4008 00ae 0E       		.uleb128 0xe
 4009 00af 3A       		.uleb128 0x3a
 4010 00b0 0B       		.uleb128 0xb
 4011 00b1 3B       		.uleb128 0x3b
 4012 00b2 05       		.uleb128 0x5
 4013 00b3 49       		.uleb128 0x49
 4014 00b4 13       		.uleb128 0x13
 4015 00b5 02       		.uleb128 0x2
 4016 00b6 17       		.uleb128 0x17
 4017 00b7 00       		.byte	0
 4018 00b8 00       		.byte	0
 4019 00b9 0F       		.uleb128 0xf
 4020 00ba 34       		.uleb128 0x34
 4021 00bb 00       		.byte	0
 4022 00bc 03       		.uleb128 0x3
 4023 00bd 0E       		.uleb128 0xe
 4024 00be 3A       		.uleb128 0x3a
 4025 00bf 0B       		.uleb128 0xb
 4026 00c0 3B       		.uleb128 0x3b
 4027 00c1 05       		.uleb128 0x5
 4028 00c2 49       		.uleb128 0x49
 4029 00c3 13       		.uleb128 0x13
 4030 00c4 02       		.uleb128 0x2
 4031 00c5 17       		.uleb128 0x17
 4032 00c6 00       		.byte	0
 4033 00c7 00       		.byte	0
 4034 00c8 10       		.uleb128 0x10
 4035 00c9 898201   		.uleb128 0x4109
 4036 00cc 01       		.byte	0x1
 4037 00cd 11       		.uleb128 0x11
 4038 00ce 01       		.uleb128 0x1
 4039 00cf 31       		.uleb128 0x31
ARM GAS  C:\Users\Phuong\AppData\Local\Temp\cceqeziA.s 			page 90


 4040 00d0 13       		.uleb128 0x13
 4041 00d1 01       		.uleb128 0x1
 4042 00d2 13       		.uleb128 0x13
 4043 00d3 00       		.byte	0
 4044 00d4 00       		.byte	0
 4045 00d5 11       		.uleb128 0x11
 4046 00d6 8A8201   		.uleb128 0x410a
 4047 00d9 00       		.byte	0
 4048 00da 02       		.uleb128 0x2
 4049 00db 18       		.uleb128 0x18
 4050 00dc 9142     		.uleb128 0x2111
 4051 00de 18       		.uleb128 0x18
 4052 00df 00       		.byte	0
 4053 00e0 00       		.byte	0
 4054 00e1 12       		.uleb128 0x12
 4055 00e2 898201   		.uleb128 0x4109
 4056 00e5 01       		.byte	0x1
 4057 00e6 11       		.uleb128 0x11
 4058 00e7 01       		.uleb128 0x1
 4059 00e8 31       		.uleb128 0x31
 4060 00e9 13       		.uleb128 0x13
 4061 00ea 00       		.byte	0
 4062 00eb 00       		.byte	0
 4063 00ec 13       		.uleb128 0x13
 4064 00ed 2E       		.uleb128 0x2e
 4065 00ee 01       		.byte	0x1
 4066 00ef 3F       		.uleb128 0x3f
 4067 00f0 19       		.uleb128 0x19
 4068 00f1 03       		.uleb128 0x3
 4069 00f2 0E       		.uleb128 0xe
 4070 00f3 3A       		.uleb128 0x3a
 4071 00f4 0B       		.uleb128 0xb
 4072 00f5 3B       		.uleb128 0x3b
 4073 00f6 0B       		.uleb128 0xb
 4074 00f7 27       		.uleb128 0x27
 4075 00f8 19       		.uleb128 0x19
 4076 00f9 49       		.uleb128 0x49
 4077 00fa 13       		.uleb128 0x13
 4078 00fb 11       		.uleb128 0x11
 4079 00fc 01       		.uleb128 0x1
 4080 00fd 12       		.uleb128 0x12
 4081 00fe 06       		.uleb128 0x6
 4082 00ff 40       		.uleb128 0x40
 4083 0100 18       		.uleb128 0x18
 4084 0101 9742     		.uleb128 0x2117
 4085 0103 19       		.uleb128 0x19
 4086 0104 01       		.uleb128 0x1
 4087 0105 13       		.uleb128 0x13
 4088 0106 00       		.byte	0
 4089 0107 00       		.byte	0
 4090 0108 14       		.uleb128 0x14
 4091 0109 05       		.uleb128 0x5
 4092 010a 00       		.byte	0
 4093 010b 03       		.uleb128 0x3
 4094 010c 08       		.uleb128 0x8
 4095 010d 3A       		.uleb128 0x3a
 4096 010e 0B       		.uleb128 0xb
ARM GAS  C:\Users\Phuong\AppData\Local\Temp\cceqeziA.s 			page 91


 4097 010f 3B       		.uleb128 0x3b
 4098 0110 0B       		.uleb128 0xb
 4099 0111 49       		.uleb128 0x49
 4100 0112 13       		.uleb128 0x13
 4101 0113 02       		.uleb128 0x2
 4102 0114 17       		.uleb128 0x17
 4103 0115 00       		.byte	0
 4104 0116 00       		.byte	0
 4105 0117 15       		.uleb128 0x15
 4106 0118 05       		.uleb128 0x5
 4107 0119 00       		.byte	0
 4108 011a 03       		.uleb128 0x3
 4109 011b 0E       		.uleb128 0xe
 4110 011c 3A       		.uleb128 0x3a
 4111 011d 0B       		.uleb128 0xb
 4112 011e 3B       		.uleb128 0x3b
 4113 011f 0B       		.uleb128 0xb
 4114 0120 49       		.uleb128 0x49
 4115 0121 13       		.uleb128 0x13
 4116 0122 02       		.uleb128 0x2
 4117 0123 17       		.uleb128 0x17
 4118 0124 00       		.byte	0
 4119 0125 00       		.byte	0
 4120 0126 16       		.uleb128 0x16
 4121 0127 34       		.uleb128 0x34
 4122 0128 00       		.byte	0
 4123 0129 03       		.uleb128 0x3
 4124 012a 0E       		.uleb128 0xe
 4125 012b 3A       		.uleb128 0x3a
 4126 012c 0B       		.uleb128 0xb
 4127 012d 3B       		.uleb128 0x3b
 4128 012e 0B       		.uleb128 0xb
 4129 012f 49       		.uleb128 0x49
 4130 0130 13       		.uleb128 0x13
 4131 0131 02       		.uleb128 0x2
 4132 0132 17       		.uleb128 0x17
 4133 0133 00       		.byte	0
 4134 0134 00       		.byte	0
 4135 0135 17       		.uleb128 0x17
 4136 0136 0B       		.uleb128 0xb
 4137 0137 01       		.byte	0x1
 4138 0138 55       		.uleb128 0x55
 4139 0139 17       		.uleb128 0x17
 4140 013a 00       		.byte	0
 4141 013b 00       		.byte	0
 4142 013c 18       		.uleb128 0x18
 4143 013d 34       		.uleb128 0x34
 4144 013e 00       		.byte	0
 4145 013f 03       		.uleb128 0x3
 4146 0140 08       		.uleb128 0x8
 4147 0141 3A       		.uleb128 0x3a
 4148 0142 0B       		.uleb128 0xb
 4149 0143 3B       		.uleb128 0x3b
 4150 0144 0B       		.uleb128 0xb
 4151 0145 49       		.uleb128 0x49
 4152 0146 13       		.uleb128 0x13
 4153 0147 02       		.uleb128 0x2
ARM GAS  C:\Users\Phuong\AppData\Local\Temp\cceqeziA.s 			page 92


 4154 0148 17       		.uleb128 0x17
 4155 0149 00       		.byte	0
 4156 014a 00       		.byte	0
 4157 014b 19       		.uleb128 0x19
 4158 014c 0B       		.uleb128 0xb
 4159 014d 01       		.byte	0x1
 4160 014e 11       		.uleb128 0x11
 4161 014f 01       		.uleb128 0x1
 4162 0150 12       		.uleb128 0x12
 4163 0151 06       		.uleb128 0x6
 4164 0152 01       		.uleb128 0x1
 4165 0153 13       		.uleb128 0x13
 4166 0154 00       		.byte	0
 4167 0155 00       		.byte	0
 4168 0156 1A       		.uleb128 0x1a
 4169 0157 0B       		.uleb128 0xb
 4170 0158 01       		.byte	0x1
 4171 0159 11       		.uleb128 0x11
 4172 015a 01       		.uleb128 0x1
 4173 015b 12       		.uleb128 0x12
 4174 015c 06       		.uleb128 0x6
 4175 015d 00       		.byte	0
 4176 015e 00       		.byte	0
 4177 015f 1B       		.uleb128 0x1b
 4178 0160 05       		.uleb128 0x5
 4179 0161 00       		.byte	0
 4180 0162 03       		.uleb128 0x3
 4181 0163 0E       		.uleb128 0xe
 4182 0164 3A       		.uleb128 0x3a
 4183 0165 0B       		.uleb128 0xb
 4184 0166 3B       		.uleb128 0x3b
 4185 0167 0B       		.uleb128 0xb
 4186 0168 49       		.uleb128 0x49
 4187 0169 13       		.uleb128 0x13
 4188 016a 02       		.uleb128 0x2
 4189 016b 18       		.uleb128 0x18
 4190 016c 00       		.byte	0
 4191 016d 00       		.byte	0
 4192 016e 1C       		.uleb128 0x1c
 4193 016f 18       		.uleb128 0x18
 4194 0170 00       		.byte	0
 4195 0171 00       		.byte	0
 4196 0172 00       		.byte	0
 4197 0173 1D       		.uleb128 0x1d
 4198 0174 34       		.uleb128 0x34
 4199 0175 00       		.byte	0
 4200 0176 03       		.uleb128 0x3
 4201 0177 0E       		.uleb128 0xe
 4202 0178 3A       		.uleb128 0x3a
 4203 0179 0B       		.uleb128 0xb
 4204 017a 3B       		.uleb128 0x3b
 4205 017b 05       		.uleb128 0x5
 4206 017c 49       		.uleb128 0x49
 4207 017d 13       		.uleb128 0x13
 4208 017e 02       		.uleb128 0x2
 4209 017f 18       		.uleb128 0x18
 4210 0180 00       		.byte	0
ARM GAS  C:\Users\Phuong\AppData\Local\Temp\cceqeziA.s 			page 93


 4211 0181 00       		.byte	0
 4212 0182 1E       		.uleb128 0x1e
 4213 0183 898201   		.uleb128 0x4109
 4214 0186 00       		.byte	0
 4215 0187 11       		.uleb128 0x11
 4216 0188 01       		.uleb128 0x1
 4217 0189 31       		.uleb128 0x31
 4218 018a 13       		.uleb128 0x13
 4219 018b 00       		.byte	0
 4220 018c 00       		.byte	0
 4221 018d 1F       		.uleb128 0x1f
 4222 018e 2E       		.uleb128 0x2e
 4223 018f 01       		.byte	0x1
 4224 0190 3F       		.uleb128 0x3f
 4225 0191 19       		.uleb128 0x19
 4226 0192 03       		.uleb128 0x3
 4227 0193 0E       		.uleb128 0xe
 4228 0194 3A       		.uleb128 0x3a
 4229 0195 0B       		.uleb128 0xb
 4230 0196 3B       		.uleb128 0x3b
 4231 0197 05       		.uleb128 0x5
 4232 0198 27       		.uleb128 0x27
 4233 0199 19       		.uleb128 0x19
 4234 019a 49       		.uleb128 0x49
 4235 019b 13       		.uleb128 0x13
 4236 019c 11       		.uleb128 0x11
 4237 019d 01       		.uleb128 0x1
 4238 019e 12       		.uleb128 0x12
 4239 019f 06       		.uleb128 0x6
 4240 01a0 40       		.uleb128 0x40
 4241 01a1 18       		.uleb128 0x18
 4242 01a2 9642     		.uleb128 0x2116
 4243 01a4 19       		.uleb128 0x19
 4244 01a5 01       		.uleb128 0x1
 4245 01a6 13       		.uleb128 0x13
 4246 01a7 00       		.byte	0
 4247 01a8 00       		.byte	0
 4248 01a9 20       		.uleb128 0x20
 4249 01aa 34       		.uleb128 0x34
 4250 01ab 00       		.byte	0
 4251 01ac 03       		.uleb128 0x3
 4252 01ad 0E       		.uleb128 0xe
 4253 01ae 3A       		.uleb128 0x3a
 4254 01af 0B       		.uleb128 0xb
 4255 01b0 3B       		.uleb128 0x3b
 4256 01b1 05       		.uleb128 0x5
 4257 01b2 49       		.uleb128 0x49
 4258 01b3 13       		.uleb128 0x13
 4259 01b4 1C       		.uleb128 0x1c
 4260 01b5 0B       		.uleb128 0xb
 4261 01b6 00       		.byte	0
 4262 01b7 00       		.byte	0
 4263 01b8 21       		.uleb128 0x21
 4264 01b9 2E       		.uleb128 0x2e
 4265 01ba 01       		.byte	0x1
 4266 01bb 03       		.uleb128 0x3
 4267 01bc 0E       		.uleb128 0xe
ARM GAS  C:\Users\Phuong\AppData\Local\Temp\cceqeziA.s 			page 94


 4268 01bd 3A       		.uleb128 0x3a
 4269 01be 0B       		.uleb128 0xb
 4270 01bf 3B       		.uleb128 0x3b
 4271 01c0 05       		.uleb128 0x5
 4272 01c1 27       		.uleb128 0x27
 4273 01c2 19       		.uleb128 0x19
 4274 01c3 49       		.uleb128 0x49
 4275 01c4 13       		.uleb128 0x13
 4276 01c5 11       		.uleb128 0x11
 4277 01c6 01       		.uleb128 0x1
 4278 01c7 12       		.uleb128 0x12
 4279 01c8 06       		.uleb128 0x6
 4280 01c9 40       		.uleb128 0x40
 4281 01ca 18       		.uleb128 0x18
 4282 01cb 9642     		.uleb128 0x2116
 4283 01cd 19       		.uleb128 0x19
 4284 01ce 01       		.uleb128 0x1
 4285 01cf 13       		.uleb128 0x13
 4286 01d0 00       		.byte	0
 4287 01d1 00       		.byte	0
 4288 01d2 22       		.uleb128 0x22
 4289 01d3 05       		.uleb128 0x5
 4290 01d4 00       		.byte	0
 4291 01d5 03       		.uleb128 0x3
 4292 01d6 0E       		.uleb128 0xe
 4293 01d7 3A       		.uleb128 0x3a
 4294 01d8 0B       		.uleb128 0xb
 4295 01d9 3B       		.uleb128 0x3b
 4296 01da 05       		.uleb128 0x5
 4297 01db 49       		.uleb128 0x49
 4298 01dc 13       		.uleb128 0x13
 4299 01dd 02       		.uleb128 0x2
 4300 01de 18       		.uleb128 0x18
 4301 01df 00       		.byte	0
 4302 01e0 00       		.byte	0
 4303 01e1 23       		.uleb128 0x23
 4304 01e2 34       		.uleb128 0x34
 4305 01e3 00       		.byte	0
 4306 01e4 03       		.uleb128 0x3
 4307 01e5 08       		.uleb128 0x8
 4308 01e6 3A       		.uleb128 0x3a
 4309 01e7 0B       		.uleb128 0xb
 4310 01e8 3B       		.uleb128 0x3b
 4311 01e9 05       		.uleb128 0x5
 4312 01ea 49       		.uleb128 0x49
 4313 01eb 13       		.uleb128 0x13
 4314 01ec 02       		.uleb128 0x2
 4315 01ed 17       		.uleb128 0x17
 4316 01ee 00       		.byte	0
 4317 01ef 00       		.byte	0
 4318 01f0 24       		.uleb128 0x24
 4319 01f1 2E       		.uleb128 0x2e
 4320 01f2 01       		.byte	0x1
 4321 01f3 3F       		.uleb128 0x3f
 4322 01f4 19       		.uleb128 0x19
 4323 01f5 03       		.uleb128 0x3
 4324 01f6 0E       		.uleb128 0xe
ARM GAS  C:\Users\Phuong\AppData\Local\Temp\cceqeziA.s 			page 95


 4325 01f7 3A       		.uleb128 0x3a
 4326 01f8 0B       		.uleb128 0xb
 4327 01f9 3B       		.uleb128 0x3b
 4328 01fa 05       		.uleb128 0x5
 4329 01fb 27       		.uleb128 0x27
 4330 01fc 19       		.uleb128 0x19
 4331 01fd 49       		.uleb128 0x49
 4332 01fe 13       		.uleb128 0x13
 4333 01ff 11       		.uleb128 0x11
 4334 0200 01       		.uleb128 0x1
 4335 0201 12       		.uleb128 0x12
 4336 0202 06       		.uleb128 0x6
 4337 0203 40       		.uleb128 0x40
 4338 0204 18       		.uleb128 0x18
 4339 0205 9742     		.uleb128 0x2117
 4340 0207 19       		.uleb128 0x19
 4341 0208 01       		.uleb128 0x1
 4342 0209 13       		.uleb128 0x13
 4343 020a 00       		.byte	0
 4344 020b 00       		.byte	0
 4345 020c 25       		.uleb128 0x25
 4346 020d 2E       		.uleb128 0x2e
 4347 020e 00       		.byte	0
 4348 020f 3F       		.uleb128 0x3f
 4349 0210 19       		.uleb128 0x19
 4350 0211 3C       		.uleb128 0x3c
 4351 0212 19       		.uleb128 0x19
 4352 0213 6E       		.uleb128 0x6e
 4353 0214 0E       		.uleb128 0xe
 4354 0215 03       		.uleb128 0x3
 4355 0216 0E       		.uleb128 0xe
 4356 0217 00       		.byte	0
 4357 0218 00       		.byte	0
 4358 0219 26       		.uleb128 0x26
 4359 021a 2E       		.uleb128 0x2e
 4360 021b 00       		.byte	0
 4361 021c 3F       		.uleb128 0x3f
 4362 021d 19       		.uleb128 0x19
 4363 021e 3C       		.uleb128 0x3c
 4364 021f 19       		.uleb128 0x19
 4365 0220 6E       		.uleb128 0x6e
 4366 0221 0E       		.uleb128 0xe
 4367 0222 03       		.uleb128 0x3
 4368 0223 0E       		.uleb128 0xe
 4369 0224 3A       		.uleb128 0x3a
 4370 0225 0B       		.uleb128 0xb
 4371 0226 3B       		.uleb128 0x3b
 4372 0227 0B       		.uleb128 0xb
 4373 0228 00       		.byte	0
 4374 0229 00       		.byte	0
 4375 022a 27       		.uleb128 0x27
 4376 022b 2E       		.uleb128 0x2e
 4377 022c 00       		.byte	0
 4378 022d 3F       		.uleb128 0x3f
 4379 022e 19       		.uleb128 0x19
 4380 022f 3C       		.uleb128 0x3c
 4381 0230 19       		.uleb128 0x19
ARM GAS  C:\Users\Phuong\AppData\Local\Temp\cceqeziA.s 			page 96


 4382 0231 6E       		.uleb128 0x6e
 4383 0232 08       		.uleb128 0x8
 4384 0233 03       		.uleb128 0x3
 4385 0234 08       		.uleb128 0x8
 4386 0235 3A       		.uleb128 0x3a
 4387 0236 0B       		.uleb128 0xb
 4388 0237 3B       		.uleb128 0x3b
 4389 0238 0B       		.uleb128 0xb
 4390 0239 00       		.byte	0
 4391 023a 00       		.byte	0
 4392 023b 00       		.byte	0
 4393              		.section	.debug_loc,"",%progbits
 4394              	.Ldebug_loc0:
 4395              	.LLST0:
 4396 0000 00000000 		.4byte	.LVL0
 4397 0004 24000000 		.4byte	.LVL5
 4398 0008 0100     		.2byte	0x1
 4399 000a 50       		.byte	0x50
 4400 000b 24000000 		.4byte	.LVL5
 4401 000f 32000000 		.4byte	.LVL7
 4402 0013 0100     		.2byte	0x1
 4403 0015 50       		.byte	0x50
 4404 0016 00000000 		.4byte	0
 4405 001a 00000000 		.4byte	0
 4406              	.LLST1:
 4407 001e 00000000 		.4byte	.LVL0
 4408 0022 26000000 		.4byte	.LVL6
 4409 0026 0100     		.2byte	0x1
 4410 0028 51       		.byte	0x51
 4411 0029 26000000 		.4byte	.LVL6
 4412 002d 34000000 		.4byte	.LFE6
 4413 0031 0100     		.2byte	0x1
 4414 0033 51       		.byte	0x51
 4415 0034 00000000 		.4byte	0
 4416 0038 00000000 		.4byte	0
 4417              	.LLST2:
 4418 003c 02000000 		.4byte	.LVL1
 4419 0040 06000000 		.4byte	.LVL2
 4420 0044 0200     		.2byte	0x2
 4421 0046 30       		.byte	0x30
 4422 0047 9F       		.byte	0x9f
 4423 0048 06000000 		.4byte	.LVL2
 4424 004c 08000000 		.4byte	.LVL3
 4425 0050 0100     		.2byte	0x1
 4426 0052 53       		.byte	0x53
 4427 0053 22000000 		.4byte	.LVL4
 4428 0057 34000000 		.4byte	.LFE6
 4429 005b 0100     		.2byte	0x1
 4430 005d 53       		.byte	0x53
 4431 005e 00000000 		.4byte	0
 4432 0062 00000000 		.4byte	0
 4433              	.LLST3:
 4434 0066 00000000 		.4byte	.LVL8
 4435 006a 0A000000 		.4byte	.LVL10
 4436 006e 0100     		.2byte	0x1
 4437 0070 50       		.byte	0x50
 4438 0071 0A000000 		.4byte	.LVL10
ARM GAS  C:\Users\Phuong\AppData\Local\Temp\cceqeziA.s 			page 97


 4439 0075 30000000 		.4byte	.LVL17
 4440 0079 0100     		.2byte	0x1
 4441 007b 55       		.byte	0x55
 4442 007c 30000000 		.4byte	.LVL17
 4443 0080 3C000000 		.4byte	.LFE7
 4444 0084 0400     		.2byte	0x4
 4445 0086 F3       		.byte	0xf3
 4446 0087 01       		.uleb128 0x1
 4447 0088 50       		.byte	0x50
 4448 0089 9F       		.byte	0x9f
 4449 008a 00000000 		.4byte	0
 4450 008e 00000000 		.4byte	0
 4451              	.LLST4:
 4452 0092 04000000 		.4byte	.LVL9
 4453 0096 16000000 		.4byte	.LVL12
 4454 009a 0200     		.2byte	0x2
 4455 009c 30       		.byte	0x30
 4456 009d 9F       		.byte	0x9f
 4457 009e 16000000 		.4byte	.LVL12
 4458 00a2 2A000000 		.4byte	.LVL14
 4459 00a6 0200     		.2byte	0x2
 4460 00a8 31       		.byte	0x31
 4461 00a9 9F       		.byte	0x9f
 4462 00aa 2A000000 		.4byte	.LVL14
 4463 00ae 2E000000 		.4byte	.LVL15
 4464 00b2 0200     		.2byte	0x2
 4465 00b4 30       		.byte	0x30
 4466 00b5 9F       		.byte	0x9f
 4467 00b6 2E000000 		.4byte	.LVL15
 4468 00ba 30000000 		.4byte	.LVL16
 4469 00be 0200     		.2byte	0x2
 4470 00c0 31       		.byte	0x31
 4471 00c1 9F       		.byte	0x9f
 4472 00c2 30000000 		.4byte	.LVL16
 4473 00c6 3C000000 		.4byte	.LFE7
 4474 00ca 0100     		.2byte	0x1
 4475 00cc 50       		.byte	0x50
 4476 00cd 00000000 		.4byte	0
 4477 00d1 00000000 		.4byte	0
 4478              	.LLST5:
 4479 00d5 00000000 		.4byte	.LVL18
 4480 00d9 0A000000 		.4byte	.LVL20
 4481 00dd 0100     		.2byte	0x1
 4482 00df 50       		.byte	0x50
 4483 00e0 0A000000 		.4byte	.LVL20
 4484 00e4 44000000 		.4byte	.LVL29
 4485 00e8 0100     		.2byte	0x1
 4486 00ea 55       		.byte	0x55
 4487 00eb 44000000 		.4byte	.LVL29
 4488 00ef 4C000000 		.4byte	.LFE8
 4489 00f3 0400     		.2byte	0x4
 4490 00f5 F3       		.byte	0xf3
 4491 00f6 01       		.uleb128 0x1
 4492 00f7 50       		.byte	0x50
 4493 00f8 9F       		.byte	0x9f
 4494 00f9 00000000 		.4byte	0
 4495 00fd 00000000 		.4byte	0
ARM GAS  C:\Users\Phuong\AppData\Local\Temp\cceqeziA.s 			page 98


 4496              	.LLST6:
 4497 0101 06000000 		.4byte	.LVL19
 4498 0105 14000000 		.4byte	.LVL22
 4499 0109 0100     		.2byte	0x1
 4500 010b 54       		.byte	0x54
 4501 010c 14000000 		.4byte	.LVL22
 4502 0110 2C000000 		.4byte	.LVL24
 4503 0114 0100     		.2byte	0x1
 4504 0116 53       		.byte	0x53
 4505 0117 2C000000 		.4byte	.LVL24
 4506 011b 34000000 		.4byte	.LVL26
 4507 011f 0100     		.2byte	0x1
 4508 0121 54       		.byte	0x54
 4509 0122 34000000 		.4byte	.LVL26
 4510 0126 3E000000 		.4byte	.LVL27
 4511 012a 0100     		.2byte	0x1
 4512 012c 53       		.byte	0x53
 4513 012d 3E000000 		.4byte	.LVL27
 4514 0131 44000000 		.4byte	.LVL28
 4515 0135 0100     		.2byte	0x1
 4516 0137 54       		.byte	0x54
 4517 0138 00000000 		.4byte	0
 4518 013c 00000000 		.4byte	0
 4519              	.LLST7:
 4520 0140 06000000 		.4byte	.LVL19
 4521 0144 14000000 		.4byte	.LVL22
 4522 0148 0200     		.2byte	0x2
 4523 014a 30       		.byte	0x30
 4524 014b 9F       		.byte	0x9f
 4525 014c 14000000 		.4byte	.LVL22
 4526 0150 30000000 		.4byte	.LVL25
 4527 0154 0200     		.2byte	0x2
 4528 0156 31       		.byte	0x31
 4529 0157 9F       		.byte	0x9f
 4530 0158 30000000 		.4byte	.LVL25
 4531 015c 34000000 		.4byte	.LVL26
 4532 0160 0200     		.2byte	0x2
 4533 0162 30       		.byte	0x30
 4534 0163 9F       		.byte	0x9f
 4535 0164 34000000 		.4byte	.LVL26
 4536 0168 3E000000 		.4byte	.LVL27
 4537 016c 0200     		.2byte	0x2
 4538 016e 31       		.byte	0x31
 4539 016f 9F       		.byte	0x9f
 4540 0170 3E000000 		.4byte	.LVL27
 4541 0174 4C000000 		.4byte	.LFE8
 4542 0178 0100     		.2byte	0x1
 4543 017a 50       		.byte	0x50
 4544 017b 00000000 		.4byte	0
 4545 017f 00000000 		.4byte	0
 4546              	.LLST8:
 4547 0183 00000000 		.4byte	.LVL30
 4548 0187 18000000 		.4byte	.LVL32
 4549 018b 0100     		.2byte	0x1
 4550 018d 50       		.byte	0x50
 4551 018e 18000000 		.4byte	.LVL32
 4552 0192 1A000000 		.4byte	.LVL33
ARM GAS  C:\Users\Phuong\AppData\Local\Temp\cceqeziA.s 			page 99


 4553 0196 0100     		.2byte	0x1
 4554 0198 55       		.byte	0x55
 4555 0199 1A000000 		.4byte	.LVL33
 4556 019d 24000000 		.4byte	.LVL35
 4557 01a1 0100     		.2byte	0x1
 4558 01a3 50       		.byte	0x50
 4559 01a4 24000000 		.4byte	.LVL35
 4560 01a8 26000000 		.4byte	.LVL36
 4561 01ac 0100     		.2byte	0x1
 4562 01ae 55       		.byte	0x55
 4563 01af 26000000 		.4byte	.LVL36
 4564 01b3 28000000 		.4byte	.LVL37
 4565 01b7 0100     		.2byte	0x1
 4566 01b9 50       		.byte	0x50
 4567 01ba 28000000 		.4byte	.LVL37
 4568 01be 78000000 		.4byte	.LVL52
 4569 01c2 0100     		.2byte	0x1
 4570 01c4 55       		.byte	0x55
 4571 01c5 78000000 		.4byte	.LVL52
 4572 01c9 80000000 		.4byte	.LVL54
 4573 01cd 0400     		.2byte	0x4
 4574 01cf F3       		.byte	0xf3
 4575 01d0 01       		.uleb128 0x1
 4576 01d1 50       		.byte	0x50
 4577 01d2 9F       		.byte	0x9f
 4578 01d3 80000000 		.4byte	.LVL54
 4579 01d7 82000000 		.4byte	.LVL55
 4580 01db 0100     		.2byte	0x1
 4581 01dd 50       		.byte	0x50
 4582 01de 82000000 		.4byte	.LVL55
 4583 01e2 86000000 		.4byte	.LVL57
 4584 01e6 0100     		.2byte	0x1
 4585 01e8 55       		.byte	0x55
 4586 01e9 86000000 		.4byte	.LVL57
 4587 01ed 8A000000 		.4byte	.LFE1
 4588 01f1 0400     		.2byte	0x4
 4589 01f3 F3       		.byte	0xf3
 4590 01f4 01       		.uleb128 0x1
 4591 01f5 50       		.byte	0x50
 4592 01f6 9F       		.byte	0x9f
 4593 01f7 00000000 		.4byte	0
 4594 01fb 00000000 		.4byte	0
 4595              	.LLST9:
 4596 01ff 00000000 		.4byte	.LVL30
 4597 0203 2B000000 		.4byte	.LVL38-1
 4598 0207 0100     		.2byte	0x1
 4599 0209 51       		.byte	0x51
 4600 020a 2B000000 		.4byte	.LVL38-1
 4601 020e 80000000 		.4byte	.LVL54
 4602 0212 0100     		.2byte	0x1
 4603 0214 57       		.byte	0x57
 4604 0215 80000000 		.4byte	.LVL54
 4605 0219 84000000 		.4byte	.LVL56
 4606 021d 0100     		.2byte	0x1
 4607 021f 51       		.byte	0x51
 4608 0220 84000000 		.4byte	.LVL56
 4609 0224 88000000 		.4byte	.LVL59
ARM GAS  C:\Users\Phuong\AppData\Local\Temp\cceqeziA.s 			page 100


 4610 0228 0100     		.2byte	0x1
 4611 022a 57       		.byte	0x57
 4612 022b 88000000 		.4byte	.LVL59
 4613 022f 8A000000 		.4byte	.LFE1
 4614 0233 0400     		.2byte	0x4
 4615 0235 F3       		.byte	0xf3
 4616 0236 01       		.uleb128 0x1
 4617 0237 51       		.byte	0x51
 4618 0238 9F       		.byte	0x9f
 4619 0239 00000000 		.4byte	0
 4620 023d 00000000 		.4byte	0
 4621              	.LLST10:
 4622 0241 00000000 		.4byte	.LVL30
 4623 0245 2B000000 		.4byte	.LVL38-1
 4624 0249 0100     		.2byte	0x1
 4625 024b 52       		.byte	0x52
 4626 024c 2B000000 		.4byte	.LVL38-1
 4627 0250 80000000 		.4byte	.LVL54
 4628 0254 0100     		.2byte	0x1
 4629 0256 56       		.byte	0x56
 4630 0257 80000000 		.4byte	.LVL54
 4631 025b 84000000 		.4byte	.LVL56
 4632 025f 0100     		.2byte	0x1
 4633 0261 52       		.byte	0x52
 4634 0262 84000000 		.4byte	.LVL56
 4635 0266 88000000 		.4byte	.LVL58
 4636 026a 0100     		.2byte	0x1
 4637 026c 56       		.byte	0x56
 4638 026d 88000000 		.4byte	.LVL58
 4639 0271 8A000000 		.4byte	.LFE1
 4640 0275 0400     		.2byte	0x4
 4641 0277 F3       		.byte	0xf3
 4642 0278 01       		.uleb128 0x1
 4643 0279 52       		.byte	0x52
 4644 027a 9F       		.byte	0x9f
 4645 027b 00000000 		.4byte	0
 4646 027f 00000000 		.4byte	0
 4647              	.LLST11:
 4648 0283 16000000 		.4byte	.LVL31
 4649 0287 1A000000 		.4byte	.LVL33
 4650 028b 0200     		.2byte	0x2
 4651 028d 46       		.byte	0x46
 4652 028e 9F       		.byte	0x9f
 4653 028f 1E000000 		.4byte	.LVL34
 4654 0293 26000000 		.4byte	.LVL36
 4655 0297 0300     		.2byte	0x3
 4656 0299 08       		.byte	0x8
 4657 029a 22       		.byte	0x22
 4658 029b 9F       		.byte	0x9f
 4659 029c 4C000000 		.4byte	.LVL44
 4660 02a0 50000000 		.4byte	.LVL45
 4661 02a4 0300     		.2byte	0x3
 4662 02a6 08       		.byte	0x8
 4663 02a7 22       		.byte	0x22
 4664 02a8 9F       		.byte	0x9f
 4665 02a9 6C000000 		.4byte	.LVL49
 4666 02ad 70000000 		.4byte	.LVL50
ARM GAS  C:\Users\Phuong\AppData\Local\Temp\cceqeziA.s 			page 101


 4667 02b1 0300     		.2byte	0x3
 4668 02b3 08       		.byte	0x8
 4669 02b4 22       		.byte	0x22
 4670 02b5 9F       		.byte	0x9f
 4671 02b6 7C000000 		.4byte	.LVL53
 4672 02ba 80000000 		.4byte	.LVL54
 4673 02be 0200     		.2byte	0x2
 4674 02c0 30       		.byte	0x30
 4675 02c1 9F       		.byte	0x9f
 4676 02c2 86000000 		.4byte	.LVL57
 4677 02c6 8A000000 		.4byte	.LFE1
 4678 02ca 0100     		.2byte	0x1
 4679 02cc 50       		.byte	0x50
 4680 02cd 00000000 		.4byte	0
 4681 02d1 00000000 		.4byte	0
 4682              	.LLST12:
 4683 02d5 26000000 		.4byte	.LVL36
 4684 02d9 3E000000 		.4byte	.LVL42
 4685 02dd 0200     		.2byte	0x2
 4686 02df 30       		.byte	0x30
 4687 02e0 9F       		.byte	0x9f
 4688 02e1 3E000000 		.4byte	.LVL42
 4689 02e5 76000000 		.4byte	.LVL51
 4690 02e9 0100     		.2byte	0x1
 4691 02eb 54       		.byte	0x54
 4692 02ec 84000000 		.4byte	.LVL56
 4693 02f0 86000000 		.4byte	.LVL57
 4694 02f4 0100     		.2byte	0x1
 4695 02f6 54       		.byte	0x54
 4696 02f7 00000000 		.4byte	0
 4697 02fb 00000000 		.4byte	0
 4698              	.LLST13:
 4699 02ff 2E000000 		.4byte	.LVL39
 4700 0303 44000000 		.4byte	.LVL43
 4701 0307 0100     		.2byte	0x1
 4702 0309 50       		.byte	0x50
 4703 030a 44000000 		.4byte	.LVL43
 4704 030e 5A000000 		.4byte	.LVL47
 4705 0312 0200     		.2byte	0x2
 4706 0314 91       		.byte	0x91
 4707 0315 64       		.sleb128 -28
 4708 0316 84000000 		.4byte	.LVL56
 4709 031a 86000000 		.4byte	.LVL57
 4710 031e 0100     		.2byte	0x1
 4711 0320 50       		.byte	0x50
 4712 0321 00000000 		.4byte	0
 4713 0325 00000000 		.4byte	0
 4714              	.LLST14:
 4715 0329 2E000000 		.4byte	.LVL39
 4716 032d 32000000 		.4byte	.LVL40
 4717 0331 0200     		.2byte	0x2
 4718 0333 30       		.byte	0x30
 4719 0334 9F       		.byte	0x9f
 4720 0335 32000000 		.4byte	.LVL40
 4721 0339 76000000 		.4byte	.LVL51
 4722 033d 0100     		.2byte	0x1
 4723 033f 54       		.byte	0x54
ARM GAS  C:\Users\Phuong\AppData\Local\Temp\cceqeziA.s 			page 102


 4724 0340 84000000 		.4byte	.LVL56
 4725 0344 86000000 		.4byte	.LVL57
 4726 0348 0100     		.2byte	0x1
 4727 034a 54       		.byte	0x54
 4728 034b 00000000 		.4byte	0
 4729 034f 00000000 		.4byte	0
 4730              	.LLST15:
 4731 0353 52000000 		.4byte	.LVL46
 4732 0357 5A000000 		.4byte	.LVL47
 4733 035b 0100     		.2byte	0x1
 4734 035d 53       		.byte	0x53
 4735 035e 5A000000 		.4byte	.LVL47
 4736 0362 80000000 		.4byte	.LVL54
 4737 0366 0200     		.2byte	0x2
 4738 0368 91       		.byte	0x91
 4739 0369 64       		.sleb128 -28
 4740 036a 00000000 		.4byte	0
 4741 036e 00000000 		.4byte	0
 4742              	.LLST16:
 4743 0372 00000000 		.4byte	.LVL60
 4744 0376 1E000000 		.4byte	.LVL65
 4745 037a 0100     		.2byte	0x1
 4746 037c 50       		.byte	0x50
 4747 037d 1E000000 		.4byte	.LVL65
 4748 0381 20000000 		.4byte	.LVL66
 4749 0385 0100     		.2byte	0x1
 4750 0387 54       		.byte	0x54
 4751 0388 20000000 		.4byte	.LVL66
 4752 038c 26000000 		.4byte	.LVL67
 4753 0390 0100     		.2byte	0x1
 4754 0392 50       		.byte	0x50
 4755 0393 26000000 		.4byte	.LVL67
 4756 0397 52000000 		.4byte	.LVL75
 4757 039b 0100     		.2byte	0x1
 4758 039d 54       		.byte	0x54
 4759 039e 52000000 		.4byte	.LVL75
 4760 03a2 5C000000 		.4byte	.LVL78
 4761 03a6 0400     		.2byte	0x4
 4762 03a8 F3       		.byte	0xf3
 4763 03a9 01       		.uleb128 0x1
 4764 03aa 50       		.byte	0x50
 4765 03ab 9F       		.byte	0x9f
 4766 03ac 5C000000 		.4byte	.LVL78
 4767 03b0 78000000 		.4byte	.LVL85
 4768 03b4 0100     		.2byte	0x1
 4769 03b6 54       		.byte	0x54
 4770 03b7 78000000 		.4byte	.LVL85
 4771 03bb 80000000 		.4byte	.LVL87
 4772 03bf 0400     		.2byte	0x4
 4773 03c1 F3       		.byte	0xf3
 4774 03c2 01       		.uleb128 0x1
 4775 03c3 50       		.byte	0x50
 4776 03c4 9F       		.byte	0x9f
 4777 03c5 80000000 		.4byte	.LVL87
 4778 03c9 84000000 		.4byte	.LVL88
 4779 03cd 0100     		.2byte	0x1
 4780 03cf 50       		.byte	0x50
ARM GAS  C:\Users\Phuong\AppData\Local\Temp\cceqeziA.s 			page 103


 4781 03d0 84000000 		.4byte	.LVL88
 4782 03d4 86000000 		.4byte	.LVL89
 4783 03d8 0100     		.2byte	0x1
 4784 03da 54       		.byte	0x54
 4785 03db 86000000 		.4byte	.LVL89
 4786 03df 8A000000 		.4byte	.LVL90
 4787 03e3 0100     		.2byte	0x1
 4788 03e5 50       		.byte	0x50
 4789 03e6 8A000000 		.4byte	.LVL90
 4790 03ea 96000000 		.4byte	.LFE2
 4791 03ee 0400     		.2byte	0x4
 4792 03f0 F3       		.byte	0xf3
 4793 03f1 01       		.uleb128 0x1
 4794 03f2 50       		.byte	0x50
 4795 03f3 9F       		.byte	0x9f
 4796 03f4 00000000 		.4byte	0
 4797 03f8 00000000 		.4byte	0
 4798              	.LLST17:
 4799 03fc 00000000 		.4byte	.LVL60
 4800 0400 29000000 		.4byte	.LVL68-1
 4801 0404 0100     		.2byte	0x1
 4802 0406 51       		.byte	0x51
 4803 0407 29000000 		.4byte	.LVL68-1
 4804 040b 80000000 		.4byte	.LVL87
 4805 040f 0100     		.2byte	0x1
 4806 0411 57       		.byte	0x57
 4807 0412 80000000 		.4byte	.LVL87
 4808 0416 8A000000 		.4byte	.LVL90
 4809 041a 0100     		.2byte	0x1
 4810 041c 51       		.byte	0x51
 4811 041d 8A000000 		.4byte	.LVL90
 4812 0421 90000000 		.4byte	.LVL94
 4813 0425 0100     		.2byte	0x1
 4814 0427 57       		.byte	0x57
 4815 0428 90000000 		.4byte	.LVL94
 4816 042c 96000000 		.4byte	.LFE2
 4817 0430 0400     		.2byte	0x4
 4818 0432 F3       		.byte	0xf3
 4819 0433 01       		.uleb128 0x1
 4820 0434 51       		.byte	0x51
 4821 0435 9F       		.byte	0x9f
 4822 0436 00000000 		.4byte	0
 4823 043a 00000000 		.4byte	0
 4824              	.LLST18:
 4825 043e 00000000 		.4byte	.LVL60
 4826 0442 29000000 		.4byte	.LVL68-1
 4827 0446 0100     		.2byte	0x1
 4828 0448 52       		.byte	0x52
 4829 0449 29000000 		.4byte	.LVL68-1
 4830 044d 80000000 		.4byte	.LVL87
 4831 0451 0100     		.2byte	0x1
 4832 0453 55       		.byte	0x55
 4833 0454 80000000 		.4byte	.LVL87
 4834 0458 8A000000 		.4byte	.LVL90
 4835 045c 0100     		.2byte	0x1
 4836 045e 52       		.byte	0x52
 4837 045f 8A000000 		.4byte	.LVL90
ARM GAS  C:\Users\Phuong\AppData\Local\Temp\cceqeziA.s 			page 104


 4838 0463 90000000 		.4byte	.LVL92
 4839 0467 0100     		.2byte	0x1
 4840 0469 55       		.byte	0x55
 4841 046a 90000000 		.4byte	.LVL92
 4842 046e 96000000 		.4byte	.LFE2
 4843 0472 0400     		.2byte	0x4
 4844 0474 F3       		.byte	0xf3
 4845 0475 01       		.uleb128 0x1
 4846 0476 52       		.byte	0x52
 4847 0477 9F       		.byte	0x9f
 4848 0478 00000000 		.4byte	0
 4849 047c 00000000 		.4byte	0
 4850              	.LLST19:
 4851 0480 00000000 		.4byte	.LVL60
 4852 0484 18000000 		.4byte	.LVL62
 4853 0488 0100     		.2byte	0x1
 4854 048a 53       		.byte	0x53
 4855 048b 18000000 		.4byte	.LVL62
 4856 048f 1C000000 		.4byte	.LVL64
 4857 0493 0100     		.2byte	0x1
 4858 0495 56       		.byte	0x56
 4859 0496 1C000000 		.4byte	.LVL64
 4860 049a 20000000 		.4byte	.LVL66
 4861 049e 0400     		.2byte	0x4
 4862 04a0 F3       		.byte	0xf3
 4863 04a1 01       		.uleb128 0x1
 4864 04a2 53       		.byte	0x53
 4865 04a3 9F       		.byte	0x9f
 4866 04a4 20000000 		.4byte	.LVL66
 4867 04a8 29000000 		.4byte	.LVL68-1
 4868 04ac 0100     		.2byte	0x1
 4869 04ae 53       		.byte	0x53
 4870 04af 29000000 		.4byte	.LVL68-1
 4871 04b3 36000000 		.4byte	.LVL70
 4872 04b7 0100     		.2byte	0x1
 4873 04b9 56       		.byte	0x56
 4874 04ba 36000000 		.4byte	.LVL70
 4875 04be 5C000000 		.4byte	.LVL78
 4876 04c2 0400     		.2byte	0x4
 4877 04c4 F3       		.byte	0xf3
 4878 04c5 01       		.uleb128 0x1
 4879 04c6 53       		.byte	0x53
 4880 04c7 9F       		.byte	0x9f
 4881 04c8 5C000000 		.4byte	.LVL78
 4882 04cc 68000000 		.4byte	.LVL81
 4883 04d0 0100     		.2byte	0x1
 4884 04d2 56       		.byte	0x56
 4885 04d3 68000000 		.4byte	.LVL81
 4886 04d7 6A000000 		.4byte	.LVL82
 4887 04db 0400     		.2byte	0x4
 4888 04dd F3       		.byte	0xf3
 4889 04de 01       		.uleb128 0x1
 4890 04df 53       		.byte	0x53
 4891 04e0 9F       		.byte	0x9f
 4892 04e1 6A000000 		.4byte	.LVL82
 4893 04e5 6C000000 		.4byte	.LVL83
 4894 04e9 0100     		.2byte	0x1
ARM GAS  C:\Users\Phuong\AppData\Local\Temp\cceqeziA.s 			page 105


 4895 04eb 56       		.byte	0x56
 4896 04ec 6C000000 		.4byte	.LVL83
 4897 04f0 80000000 		.4byte	.LVL87
 4898 04f4 0400     		.2byte	0x4
 4899 04f6 F3       		.byte	0xf3
 4900 04f7 01       		.uleb128 0x1
 4901 04f8 53       		.byte	0x53
 4902 04f9 9F       		.byte	0x9f
 4903 04fa 80000000 		.4byte	.LVL87
 4904 04fe 8A000000 		.4byte	.LVL90
 4905 0502 0100     		.2byte	0x1
 4906 0504 53       		.byte	0x53
 4907 0505 8A000000 		.4byte	.LVL90
 4908 0509 96000000 		.4byte	.LFE2
 4909 050d 0400     		.2byte	0x4
 4910 050f F3       		.byte	0xf3
 4911 0510 01       		.uleb128 0x1
 4912 0511 53       		.byte	0x53
 4913 0512 9F       		.byte	0x9f
 4914 0513 00000000 		.4byte	0
 4915 0517 00000000 		.4byte	0
 4916              	.LLST20:
 4917 051b 1A000000 		.4byte	.LVL63
 4918 051f 20000000 		.4byte	.LVL66
 4919 0523 0200     		.2byte	0x2
 4920 0525 46       		.byte	0x46
 4921 0526 9F       		.byte	0x9f
 4922 0527 40000000 		.4byte	.LVL71
 4923 052b 46000000 		.4byte	.LVL73
 4924 052f 0300     		.2byte	0x3
 4925 0531 08       		.byte	0x8
 4926 0532 22       		.byte	0x22
 4927 0533 9F       		.byte	0x9f
 4928 0534 56000000 		.4byte	.LVL76
 4929 0538 5C000000 		.4byte	.LVL78
 4930 053c 0200     		.2byte	0x2
 4931 053e 30       		.byte	0x30
 4932 053f 9F       		.byte	0x9f
 4933 0540 7C000000 		.4byte	.LVL86
 4934 0544 80000000 		.4byte	.LVL87
 4935 0548 0200     		.2byte	0x2
 4936 054a 30       		.byte	0x30
 4937 054b 9F       		.byte	0x9f
 4938 054c 8A000000 		.4byte	.LVL90
 4939 0550 96000000 		.4byte	.LFE2
 4940 0554 0100     		.2byte	0x1
 4941 0556 50       		.byte	0x50
 4942 0557 00000000 		.4byte	0
 4943 055b 00000000 		.4byte	0
 4944              	.LLST21:
 4945 055f 0E000000 		.4byte	.LVL61
 4946 0563 66000000 		.4byte	.LVL80
 4947 0567 0200     		.2byte	0x2
 4948 0569 30       		.byte	0x30
 4949 056a 9F       		.byte	0x9f
 4950 056b 66000000 		.4byte	.LVL80
 4951 056f 6A000000 		.4byte	.LVL82
ARM GAS  C:\Users\Phuong\AppData\Local\Temp\cceqeziA.s 			page 106


 4952 0573 0200     		.2byte	0x2
 4953 0575 31       		.byte	0x31
 4954 0576 9F       		.byte	0x9f
 4955 0577 6A000000 		.4byte	.LVL82
 4956 057b 6C000000 		.4byte	.LVL83
 4957 057f 0200     		.2byte	0x2
 4958 0581 30       		.byte	0x30
 4959 0582 9F       		.byte	0x9f
 4960 0583 6C000000 		.4byte	.LVL83
 4961 0587 80000000 		.4byte	.LVL87
 4962 058b 0100     		.2byte	0x1
 4963 058d 56       		.byte	0x56
 4964 058e 80000000 		.4byte	.LVL87
 4965 0592 8A000000 		.4byte	.LVL90
 4966 0596 0200     		.2byte	0x2
 4967 0598 30       		.byte	0x30
 4968 0599 9F       		.byte	0x9f
 4969 059a 8A000000 		.4byte	.LVL90
 4970 059e 90000000 		.4byte	.LVL93
 4971 05a2 0100     		.2byte	0x1
 4972 05a4 56       		.byte	0x56
 4973 05a5 00000000 		.4byte	0
 4974 05a9 00000000 		.4byte	0
 4975              	.LLST22:
 4976 05ad 2C000000 		.4byte	.LVL69
 4977 05b1 36000000 		.4byte	.LVL70
 4978 05b5 0100     		.2byte	0x1
 4979 05b7 50       		.byte	0x50
 4980 05b8 36000000 		.4byte	.LVL70
 4981 05bc 42000000 		.4byte	.LVL72
 4982 05c0 0100     		.2byte	0x1
 4983 05c2 56       		.byte	0x56
 4984 05c3 46000000 		.4byte	.LVL73
 4985 05c7 58000000 		.4byte	.LVL77
 4986 05cb 0100     		.2byte	0x1
 4987 05cd 56       		.byte	0x56
 4988 05ce 5C000000 		.4byte	.LVL78
 4989 05d2 5E000000 		.4byte	.LVL79
 4990 05d6 0100     		.2byte	0x1
 4991 05d8 50       		.byte	0x50
 4992 05d9 5E000000 		.4byte	.LVL79
 4993 05dd 66000000 		.4byte	.LVL80
 4994 05e1 0100     		.2byte	0x1
 4995 05e3 58       		.byte	0x58
 4996 05e4 66000000 		.4byte	.LVL80
 4997 05e8 6A000000 		.4byte	.LVL82
 4998 05ec 0100     		.2byte	0x1
 4999 05ee 53       		.byte	0x53
 5000 05ef 6A000000 		.4byte	.LVL82
 5001 05f3 80000000 		.4byte	.LVL87
 5002 05f7 0100     		.2byte	0x1
 5003 05f9 58       		.byte	0x58
 5004 05fa 00000000 		.4byte	0
 5005 05fe 00000000 		.4byte	0
 5006              	.LLST23:
 5007 0602 00000000 		.4byte	.LVL95
 5008 0606 16000000 		.4byte	.LVL97
ARM GAS  C:\Users\Phuong\AppData\Local\Temp\cceqeziA.s 			page 107


 5009 060a 0100     		.2byte	0x1
 5010 060c 50       		.byte	0x50
 5011 060d 16000000 		.4byte	.LVL97
 5012 0611 18000000 		.4byte	.LVL98
 5013 0615 0100     		.2byte	0x1
 5014 0617 54       		.byte	0x54
 5015 0618 18000000 		.4byte	.LVL98
 5016 061c 22000000 		.4byte	.LVL100
 5017 0620 0100     		.2byte	0x1
 5018 0622 50       		.byte	0x50
 5019 0623 22000000 		.4byte	.LVL100
 5020 0627 24000000 		.4byte	.LVL101
 5021 062b 0100     		.2byte	0x1
 5022 062d 54       		.byte	0x54
 5023 062e 24000000 		.4byte	.LVL101
 5024 0632 26000000 		.4byte	.LVL102
 5025 0636 0100     		.2byte	0x1
 5026 0638 50       		.byte	0x50
 5027 0639 26000000 		.4byte	.LVL102
 5028 063d 44000000 		.4byte	.LVL109
 5029 0641 0100     		.2byte	0x1
 5030 0643 54       		.byte	0x54
 5031 0644 44000000 		.4byte	.LVL109
 5032 0648 46000000 		.4byte	.LVL110
 5033 064c 0100     		.2byte	0x1
 5034 064e 50       		.byte	0x50
 5035 064f 46000000 		.4byte	.LVL110
 5036 0653 46000000 		.4byte	.LVL111
 5037 0657 0100     		.2byte	0x1
 5038 0659 54       		.byte	0x54
 5039 065a 46000000 		.4byte	.LVL111
 5040 065e 48000000 		.4byte	.LFE3
 5041 0662 0400     		.2byte	0x4
 5042 0664 F3       		.byte	0xf3
 5043 0665 01       		.uleb128 0x1
 5044 0666 50       		.byte	0x50
 5045 0667 9F       		.byte	0x9f
 5046 0668 00000000 		.4byte	0
 5047 066c 00000000 		.4byte	0
 5048              	.LLST24:
 5049 0670 00000000 		.4byte	.LVL95
 5050 0674 29000000 		.4byte	.LVL103-1
 5051 0678 0100     		.2byte	0x1
 5052 067a 51       		.byte	0x51
 5053 067b 29000000 		.4byte	.LVL103-1
 5054 067f 44000000 		.4byte	.LVL109
 5055 0683 0100     		.2byte	0x1
 5056 0685 56       		.byte	0x56
 5057 0686 44000000 		.4byte	.LVL109
 5058 068a 46000000 		.4byte	.LVL110
 5059 068e 0100     		.2byte	0x1
 5060 0690 51       		.byte	0x51
 5061 0691 46000000 		.4byte	.LVL110
 5062 0695 46000000 		.4byte	.LVL113
 5063 0699 0100     		.2byte	0x1
 5064 069b 56       		.byte	0x56
 5065 069c 46000000 		.4byte	.LVL113
ARM GAS  C:\Users\Phuong\AppData\Local\Temp\cceqeziA.s 			page 108


 5066 06a0 48000000 		.4byte	.LFE3
 5067 06a4 0400     		.2byte	0x4
 5068 06a6 F3       		.byte	0xf3
 5069 06a7 01       		.uleb128 0x1
 5070 06a8 51       		.byte	0x51
 5071 06a9 9F       		.byte	0x9f
 5072 06aa 00000000 		.4byte	0
 5073 06ae 00000000 		.4byte	0
 5074              	.LLST25:
 5075 06b2 00000000 		.4byte	.LVL95
 5076 06b6 29000000 		.4byte	.LVL103-1
 5077 06ba 0100     		.2byte	0x1
 5078 06bc 52       		.byte	0x52
 5079 06bd 29000000 		.4byte	.LVL103-1
 5080 06c1 44000000 		.4byte	.LVL109
 5081 06c5 0100     		.2byte	0x1
 5082 06c7 55       		.byte	0x55
 5083 06c8 44000000 		.4byte	.LVL109
 5084 06cc 46000000 		.4byte	.LVL110
 5085 06d0 0100     		.2byte	0x1
 5086 06d2 52       		.byte	0x52
 5087 06d3 46000000 		.4byte	.LVL110
 5088 06d7 46000000 		.4byte	.LVL112
 5089 06db 0100     		.2byte	0x1
 5090 06dd 55       		.byte	0x55
 5091 06de 46000000 		.4byte	.LVL112
 5092 06e2 48000000 		.4byte	.LFE3
 5093 06e6 0400     		.2byte	0x4
 5094 06e8 F3       		.byte	0xf3
 5095 06e9 01       		.uleb128 0x1
 5096 06ea 52       		.byte	0x52
 5097 06eb 9F       		.byte	0x9f
 5098 06ec 00000000 		.4byte	0
 5099 06f0 00000000 		.4byte	0
 5100              	.LLST26:
 5101 06f4 14000000 		.4byte	.LVL96
 5102 06f8 18000000 		.4byte	.LVL98
 5103 06fc 0200     		.2byte	0x2
 5104 06fe 46       		.byte	0x46
 5105 06ff 9F       		.byte	0x9f
 5106 0700 20000000 		.4byte	.LVL99
 5107 0704 24000000 		.4byte	.LVL101
 5108 0708 0300     		.2byte	0x3
 5109 070a 08       		.byte	0x8
 5110 070b 22       		.byte	0x22
 5111 070c 9F       		.byte	0x9f
 5112 070d 34000000 		.4byte	.LVL104
 5113 0711 38000000 		.4byte	.LVL106
 5114 0715 0300     		.2byte	0x3
 5115 0717 08       		.byte	0x8
 5116 0718 22       		.byte	0x22
 5117 0719 9F       		.byte	0x9f
 5118 071a 40000000 		.4byte	.LVL108
 5119 071e 44000000 		.4byte	.LVL109
 5120 0722 0200     		.2byte	0x2
 5121 0724 30       		.byte	0x30
 5122 0725 9F       		.byte	0x9f
ARM GAS  C:\Users\Phuong\AppData\Local\Temp\cceqeziA.s 			page 109


 5123 0726 46000000 		.4byte	.LVL110
 5124 072a 48000000 		.4byte	.LFE3
 5125 072e 0100     		.2byte	0x1
 5126 0730 50       		.byte	0x50
 5127 0731 00000000 		.4byte	0
 5128 0735 00000000 		.4byte	0
 5129              	.LLST27:
 5130 0739 2A000000 		.4byte	.LVL103
 5131 073d 36000000 		.4byte	.LVL105
 5132 0741 0100     		.2byte	0x1
 5133 0743 50       		.byte	0x50
 5134 0744 36000000 		.4byte	.LVL105
 5135 0748 38000000 		.4byte	.LVL106
 5136 074c 0300     		.2byte	0x3
 5137 074e 72       		.byte	0x72
 5138 074f 7F       		.sleb128 -1
 5139 0750 9F       		.byte	0x9f
 5140 0751 38000000 		.4byte	.LVL106
 5141 0755 3C000000 		.4byte	.LVL107
 5142 0759 0100     		.2byte	0x1
 5143 075b 50       		.byte	0x50
 5144 075c 3C000000 		.4byte	.LVL107
 5145 0760 3F000000 		.4byte	.LVL108-1
 5146 0764 0300     		.2byte	0x3
 5147 0766 72       		.byte	0x72
 5148 0767 7F       		.sleb128 -1
 5149 0768 9F       		.byte	0x9f
 5150 0769 00000000 		.4byte	0
 5151 076d 00000000 		.4byte	0
 5152              	.LLST28:
 5153 0771 00000000 		.4byte	.LVL114
 5154 0775 17000000 		.4byte	.LVL115-1
 5155 0779 0100     		.2byte	0x1
 5156 077b 50       		.byte	0x50
 5157 077c 17000000 		.4byte	.LVL115-1
 5158 0780 22000000 		.4byte	.LVL117
 5159 0784 0100     		.2byte	0x1
 5160 0786 54       		.byte	0x54
 5161 0787 22000000 		.4byte	.LVL117
 5162 078b 2B000000 		.4byte	.LVL118-1
 5163 078f 0100     		.2byte	0x1
 5164 0791 50       		.byte	0x50
 5165 0792 2B000000 		.4byte	.LVL118-1
 5166 0796 44000000 		.4byte	.LVL123
 5167 079a 0100     		.2byte	0x1
 5168 079c 54       		.byte	0x54
 5169 079d 44000000 		.4byte	.LVL123
 5170 07a1 4C000000 		.4byte	.LFE4
 5171 07a5 0400     		.2byte	0x4
 5172 07a7 F3       		.byte	0xf3
 5173 07a8 01       		.uleb128 0x1
 5174 07a9 50       		.byte	0x50
 5175 07aa 9F       		.byte	0x9f
 5176 07ab 00000000 		.4byte	0
 5177 07af 00000000 		.4byte	0
 5178              	.LLST29:
 5179 07b3 00000000 		.4byte	.LVL114
ARM GAS  C:\Users\Phuong\AppData\Local\Temp\cceqeziA.s 			page 110


 5180 07b7 17000000 		.4byte	.LVL115-1
 5181 07bb 0100     		.2byte	0x1
 5182 07bd 51       		.byte	0x51
 5183 07be 17000000 		.4byte	.LVL115-1
 5184 07c2 22000000 		.4byte	.LVL117
 5185 07c6 0100     		.2byte	0x1
 5186 07c8 55       		.byte	0x55
 5187 07c9 22000000 		.4byte	.LVL117
 5188 07cd 2B000000 		.4byte	.LVL118-1
 5189 07d1 0100     		.2byte	0x1
 5190 07d3 51       		.byte	0x51
 5191 07d4 2B000000 		.4byte	.LVL118-1
 5192 07d8 44000000 		.4byte	.LVL124
 5193 07dc 0100     		.2byte	0x1
 5194 07de 55       		.byte	0x55
 5195 07df 44000000 		.4byte	.LVL124
 5196 07e3 4C000000 		.4byte	.LFE4
 5197 07e7 0400     		.2byte	0x4
 5198 07e9 F3       		.byte	0xf3
 5199 07ea 01       		.uleb128 0x1
 5200 07eb 51       		.byte	0x51
 5201 07ec 9F       		.byte	0x9f
 5202 07ed 00000000 		.4byte	0
 5203 07f1 00000000 		.4byte	0
 5204              	.LLST30:
 5205 07f5 1C000000 		.4byte	.LVL116
 5206 07f9 22000000 		.4byte	.LVL117
 5207 07fd 0300     		.2byte	0x3
 5208 07ff 09       		.byte	0x9
 5209 0800 FF       		.byte	0xff
 5210 0801 9F       		.byte	0x9f
 5211 0802 2C000000 		.4byte	.LVL118
 5212 0806 38000000 		.4byte	.LVL119
 5213 080a 0100     		.2byte	0x1
 5214 080c 50       		.byte	0x50
 5215 080d 38000000 		.4byte	.LVL119
 5216 0811 3E000000 		.4byte	.LVL120
 5217 0815 0300     		.2byte	0x3
 5218 0817 09       		.byte	0x9
 5219 0818 FF       		.byte	0xff
 5220 0819 9F       		.byte	0x9f
 5221 081a 3E000000 		.4byte	.LVL120
 5222 081e 40000000 		.4byte	.LVL121
 5223 0822 0100     		.2byte	0x1
 5224 0824 50       		.byte	0x50
 5225 0825 42000000 		.4byte	.LVL122
 5226 0829 4C000000 		.4byte	.LFE4
 5227 082d 0100     		.2byte	0x1
 5228 082f 50       		.byte	0x50
 5229 0830 00000000 		.4byte	0
 5230 0834 00000000 		.4byte	0
 5231              	.LLST31:
 5232 0838 00000000 		.4byte	.LVL125
 5233 083c E7000000 		.4byte	.LVL144-1
 5234 0840 0100     		.2byte	0x1
 5235 0842 50       		.byte	0x50
 5236 0843 E7000000 		.4byte	.LVL144-1
ARM GAS  C:\Users\Phuong\AppData\Local\Temp\cceqeziA.s 			page 111


 5237 0847 EE000000 		.4byte	.LVL145
 5238 084b 0100     		.2byte	0x1
 5239 084d 57       		.byte	0x57
 5240 084e EE000000 		.4byte	.LVL145
 5241 0852 7E010000 		.4byte	.LVL158
 5242 0856 0400     		.2byte	0x4
 5243 0858 F3       		.byte	0xf3
 5244 0859 01       		.uleb128 0x1
 5245 085a 50       		.byte	0x50
 5246 085b 9F       		.byte	0x9f
 5247 085c 7E010000 		.4byte	.LVL158
 5248 0860 9E010000 		.4byte	.LVL163
 5249 0864 0100     		.2byte	0x1
 5250 0866 50       		.byte	0x50
 5251 0867 9E010000 		.4byte	.LVL163
 5252 086b CA010000 		.4byte	.LFE5
 5253 086f 0400     		.2byte	0x4
 5254 0871 F3       		.byte	0xf3
 5255 0872 01       		.uleb128 0x1
 5256 0873 50       		.byte	0x50
 5257 0874 9F       		.byte	0x9f
 5258 0875 00000000 		.4byte	0
 5259 0879 00000000 		.4byte	0
 5260              	.LLST32:
 5261 087d 00000000 		.4byte	.LVL125
 5262 0881 E7000000 		.4byte	.LVL144-1
 5263 0885 0100     		.2byte	0x1
 5264 0887 51       		.byte	0x51
 5265 0888 E7000000 		.4byte	.LVL144-1
 5266 088c 7E010000 		.4byte	.LVL158
 5267 0890 0100     		.2byte	0x1
 5268 0892 5A       		.byte	0x5a
 5269 0893 7E010000 		.4byte	.LVL158
 5270 0897 9E010000 		.4byte	.LVL163
 5271 089b 0100     		.2byte	0x1
 5272 089d 51       		.byte	0x51
 5273 089e 9E010000 		.4byte	.LVL163
 5274 08a2 A6010000 		.4byte	.LVL165
 5275 08a6 0100     		.2byte	0x1
 5276 08a8 5A       		.byte	0x5a
 5277 08a9 A6010000 		.4byte	.LVL165
 5278 08ad AA010000 		.4byte	.LVL166
 5279 08b1 0100     		.2byte	0x1
 5280 08b3 53       		.byte	0x53
 5281 08b4 AA010000 		.4byte	.LVL166
 5282 08b8 BE010000 		.4byte	.LVL172
 5283 08bc 0100     		.2byte	0x1
 5284 08be 5A       		.byte	0x5a
 5285 08bf BE010000 		.4byte	.LVL172
 5286 08c3 CA010000 		.4byte	.LFE5
 5287 08c7 0400     		.2byte	0x4
 5288 08c9 F3       		.byte	0xf3
 5289 08ca 01       		.uleb128 0x1
 5290 08cb 51       		.byte	0x51
 5291 08cc 9F       		.byte	0x9f
 5292 08cd 00000000 		.4byte	0
 5293 08d1 00000000 		.4byte	0
ARM GAS  C:\Users\Phuong\AppData\Local\Temp\cceqeziA.s 			page 112


 5294              	.LLST33:
 5295 08d5 00000000 		.4byte	.LVL125
 5296 08d9 8A000000 		.4byte	.LVL136
 5297 08dd 0100     		.2byte	0x1
 5298 08df 52       		.byte	0x52
 5299 08e0 8A000000 		.4byte	.LVL136
 5300 08e4 92000000 		.4byte	.LVL138
 5301 08e8 0200     		.2byte	0x2
 5302 08ea 40       		.byte	0x40
 5303 08eb 9F       		.byte	0x9f
 5304 08ec 92000000 		.4byte	.LVL138
 5305 08f0 9C000000 		.4byte	.LVL139
 5306 08f4 0100     		.2byte	0x1
 5307 08f6 52       		.byte	0x52
 5308 08f7 9C000000 		.4byte	.LVL139
 5309 08fb A2000000 		.4byte	.LVL141
 5310 08ff 0200     		.2byte	0x2
 5311 0901 38       		.byte	0x38
 5312 0902 9F       		.byte	0x9f
 5313 0903 A2000000 		.4byte	.LVL141
 5314 0907 7E010000 		.4byte	.LVL158
 5315 090b 0100     		.2byte	0x1
 5316 090d 58       		.byte	0x58
 5317 090e 7E010000 		.4byte	.LVL158
 5318 0912 92010000 		.4byte	.LVL159
 5319 0916 0100     		.2byte	0x1
 5320 0918 52       		.byte	0x52
 5321 0919 92010000 		.4byte	.LVL159
 5322 091d BE010000 		.4byte	.LVL170
 5323 0921 0100     		.2byte	0x1
 5324 0923 58       		.byte	0x58
 5325 0924 00000000 		.4byte	0
 5326 0928 00000000 		.4byte	0
 5327              	.LLST34:
 5328 092c 14000000 		.4byte	.LVL126
 5329 0930 F6000000 		.4byte	.LVL147
 5330 0934 0A00     		.2byte	0xa
 5331 0936 9E       		.byte	0x9e
 5332 0937 08       		.uleb128 0x8
 5333 0938 00000000 		.8byte	0
 5333      00000000 
 5334 0940 F6000000 		.4byte	.LVL147
 5335 0944 16010000 		.4byte	.LVL150
 5336 0948 0600     		.2byte	0x6
 5337 094a 54       		.byte	0x54
 5338 094b 93       		.byte	0x93
 5339 094c 04       		.uleb128 0x4
 5340 094d 55       		.byte	0x55
 5341 094e 93       		.byte	0x93
 5342 094f 04       		.uleb128 0x4
 5343 0950 16010000 		.4byte	.LVL150
 5344 0954 26010000 		.4byte	.LVL152
 5345 0958 0A00     		.2byte	0xa
 5346 095a 9E       		.byte	0x9e
 5347 095b 08       		.uleb128 0x8
 5348 095c FFFFFFFF 		.8byte	0xffffffffffffffff
 5348      FFFFFFFF 
ARM GAS  C:\Users\Phuong\AppData\Local\Temp\cceqeziA.s 			page 113


 5349 0964 26010000 		.4byte	.LVL152
 5350 0968 38010000 		.4byte	.LVL154
 5351 096c 0600     		.2byte	0x6
 5352 096e 54       		.byte	0x54
 5353 096f 93       		.byte	0x93
 5354 0970 04       		.uleb128 0x4
 5355 0971 55       		.byte	0x55
 5356 0972 93       		.byte	0x93
 5357 0973 04       		.uleb128 0x4
 5358 0974 3A010000 		.4byte	.LVL155
 5359 0978 7E010000 		.4byte	.LVL158
 5360 097c 0600     		.2byte	0x6
 5361 097e 54       		.byte	0x54
 5362 097f 93       		.byte	0x93
 5363 0980 04       		.uleb128 0x4
 5364 0981 55       		.byte	0x55
 5365 0982 93       		.byte	0x93
 5366 0983 04       		.uleb128 0x4
 5367 0984 7E010000 		.4byte	.LVL158
 5368 0988 9E010000 		.4byte	.LVL163
 5369 098c 0A00     		.2byte	0xa
 5370 098e 9E       		.byte	0x9e
 5371 098f 08       		.uleb128 0x8
 5372 0990 00000000 		.8byte	0
 5372      00000000 
 5373 0998 9E010000 		.4byte	.LVL163
 5374 099c BE010000 		.4byte	.LVL168
 5375 09a0 0600     		.2byte	0x6
 5376 09a2 54       		.byte	0x54
 5377 09a3 93       		.byte	0x93
 5378 09a4 04       		.uleb128 0x4
 5379 09a5 55       		.byte	0x55
 5380 09a6 93       		.byte	0x93
 5381 09a7 04       		.uleb128 0x4
 5382 09a8 00000000 		.4byte	0
 5383 09ac 00000000 		.4byte	0
 5384              	.LLST35:
 5385 09b0 14000000 		.4byte	.LVL126
 5386 09b4 34000000 		.4byte	.LVL127
 5387 09b8 0100     		.2byte	0x1
 5388 09ba 50       		.byte	0x50
 5389 09bb 34000000 		.4byte	.LVL127
 5390 09bf 38000000 		.4byte	.LVL129
 5391 09c3 0100     		.2byte	0x1
 5392 09c5 54       		.byte	0x54
 5393 09c6 38000000 		.4byte	.LVL129
 5394 09ca 3A000000 		.4byte	.LVL130
 5395 09ce 0100     		.2byte	0x1
 5396 09d0 50       		.byte	0x50
 5397 09d1 3A000000 		.4byte	.LVL130
 5398 09d5 F0000000 		.4byte	.LVL146
 5399 09d9 0100     		.2byte	0x1
 5400 09db 54       		.byte	0x54
 5401 09dc F0000000 		.4byte	.LVL146
 5402 09e0 F6000000 		.4byte	.LVL147
 5403 09e4 0100     		.2byte	0x1
 5404 09e6 57       		.byte	0x57
ARM GAS  C:\Users\Phuong\AppData\Local\Temp\cceqeziA.s 			page 114


 5405 09e7 F6000000 		.4byte	.LVL147
 5406 09eb 7E010000 		.4byte	.LVL158
 5407 09ef 0100     		.2byte	0x1
 5408 09f1 5B       		.byte	0x5b
 5409 09f2 7E010000 		.4byte	.LVL158
 5410 09f6 92010000 		.4byte	.LVL159
 5411 09fa 0100     		.2byte	0x1
 5412 09fc 50       		.byte	0x50
 5413 09fd 92010000 		.4byte	.LVL159
 5414 0a01 94010000 		.4byte	.LVL160
 5415 0a05 0100     		.2byte	0x1
 5416 0a07 54       		.byte	0x54
 5417 0a08 98010000 		.4byte	.LVL161
 5418 0a0c 9A010000 		.4byte	.LVL162
 5419 0a10 0100     		.2byte	0x1
 5420 0a12 54       		.byte	0x54
 5421 0a13 9E010000 		.4byte	.LVL163
 5422 0a17 A0010000 		.4byte	.LVL164
 5423 0a1b 0100     		.2byte	0x1
 5424 0a1d 5B       		.byte	0x5b
 5425 0a1e A0010000 		.4byte	.LVL164
 5426 0a22 BE010000 		.4byte	.LVL169
 5427 0a26 0100     		.2byte	0x1
 5428 0a28 57       		.byte	0x57
 5429 0a29 00000000 		.4byte	0
 5430 0a2d 00000000 		.4byte	0
 5431              	.LLST36:
 5432 0a31 14000000 		.4byte	.LVL126
 5433 0a35 64000000 		.4byte	.LVL132
 5434 0a39 0200     		.2byte	0x2
 5435 0a3b 30       		.byte	0x30
 5436 0a3c 9F       		.byte	0x9f
 5437 0a3d 64000000 		.4byte	.LVL132
 5438 0a41 6C000000 		.4byte	.LVL134
 5439 0a45 0200     		.2byte	0x2
 5440 0a47 31       		.byte	0x31
 5441 0a48 9F       		.byte	0x9f
 5442 0a49 6C000000 		.4byte	.LVL134
 5443 0a4d 70000000 		.4byte	.LVL135
 5444 0a51 0200     		.2byte	0x2
 5445 0a53 30       		.byte	0x30
 5446 0a54 9F       		.byte	0x9f
 5447 0a55 70000000 		.4byte	.LVL135
 5448 0a59 7E010000 		.4byte	.LVL158
 5449 0a5d 0100     		.2byte	0x1
 5450 0a5f 59       		.byte	0x59
 5451 0a60 7E010000 		.4byte	.LVL158
 5452 0a64 92010000 		.4byte	.LVL159
 5453 0a68 0200     		.2byte	0x2
 5454 0a6a 30       		.byte	0x30
 5455 0a6b 9F       		.byte	0x9f
 5456 0a6c 92010000 		.4byte	.LVL159
 5457 0a70 BE010000 		.4byte	.LVL171
 5458 0a74 0100     		.2byte	0x1
 5459 0a76 59       		.byte	0x59
 5460 0a77 00000000 		.4byte	0
 5461 0a7b 00000000 		.4byte	0
ARM GAS  C:\Users\Phuong\AppData\Local\Temp\cceqeziA.s 			page 115


 5462              	.LLST37:
 5463 0a7f DC000000 		.4byte	.LVL143
 5464 0a83 F6000000 		.4byte	.LVL147
 5465 0a87 0100     		.2byte	0x1
 5466 0a89 56       		.byte	0x56
 5467 0a8a F6000000 		.4byte	.LVL147
 5468 0a8e 00010000 		.4byte	.LVL148
 5469 0a92 0100     		.2byte	0x1
 5470 0a94 53       		.byte	0x53
 5471 0a95 00010000 		.4byte	.LVL148
 5472 0a99 72010000 		.4byte	.LVL157
 5473 0a9d 0100     		.2byte	0x1
 5474 0a9f 56       		.byte	0x56
 5475 0aa0 72010000 		.4byte	.LVL157
 5476 0aa4 7E010000 		.4byte	.LVL158
 5477 0aa8 0100     		.2byte	0x1
 5478 0aaa 53       		.byte	0x53
 5479 0aab 92010000 		.4byte	.LVL159
 5480 0aaf 9E010000 		.4byte	.LVL163
 5481 0ab3 0100     		.2byte	0x1
 5482 0ab5 56       		.byte	0x56
 5483 0ab6 9E010000 		.4byte	.LVL163
 5484 0aba A0010000 		.4byte	.LVL164
 5485 0abe 0100     		.2byte	0x1
 5486 0ac0 53       		.byte	0x53
 5487 0ac1 00000000 		.4byte	0
 5488 0ac5 00000000 		.4byte	0
 5489              	.LLST38:
 5490 0ac9 00000000 		.4byte	.LVL173
 5491 0acd 56000000 		.4byte	.LVL176
 5492 0ad1 0100     		.2byte	0x1
 5493 0ad3 50       		.byte	0x50
 5494 0ad4 56000000 		.4byte	.LVL176
 5495 0ad8 40020000 		.4byte	.LFE9
 5496 0adc 0400     		.2byte	0x4
 5497 0ade F3       		.byte	0xf3
 5498 0adf 01       		.uleb128 0x1
 5499 0ae0 50       		.byte	0x50
 5500 0ae1 9F       		.byte	0x9f
 5501 0ae2 00000000 		.4byte	0
 5502 0ae6 00000000 		.4byte	0
 5503              	.LLST39:
 5504 0aea 00000000 		.4byte	.LVL173
 5505 0aee 14000000 		.4byte	.LVL175
 5506 0af2 0100     		.2byte	0x1
 5507 0af4 51       		.byte	0x51
 5508 0af5 14000000 		.4byte	.LVL175
 5509 0af9 30020000 		.4byte	.LVL214
 5510 0afd 0100     		.2byte	0x1
 5511 0aff 55       		.byte	0x55
 5512 0b00 30020000 		.4byte	.LVL214
 5513 0b04 40020000 		.4byte	.LFE9
 5514 0b08 0400     		.2byte	0x4
 5515 0b0a F3       		.byte	0xf3
 5516 0b0b 01       		.uleb128 0x1
 5517 0b0c 51       		.byte	0x51
 5518 0b0d 9F       		.byte	0x9f
ARM GAS  C:\Users\Phuong\AppData\Local\Temp\cceqeziA.s 			page 116


 5519 0b0e 00000000 		.4byte	0
 5520 0b12 00000000 		.4byte	0
 5521              	.LLST40:
 5522 0b16 00000000 		.4byte	.LVL173
 5523 0b1a 59000000 		.4byte	.LVL177-1
 5524 0b1e 0100     		.2byte	0x1
 5525 0b20 52       		.byte	0x52
 5526 0b21 59000000 		.4byte	.LVL177-1
 5527 0b25 40020000 		.4byte	.LFE9
 5528 0b29 0400     		.2byte	0x4
 5529 0b2b F3       		.byte	0xf3
 5530 0b2c 01       		.uleb128 0x1
 5531 0b2d 52       		.byte	0x52
 5532 0b2e 9F       		.byte	0x9f
 5533 0b2f 00000000 		.4byte	0
 5534 0b33 00000000 		.4byte	0
 5535              	.LLST41:
 5536 0b37 00000000 		.4byte	.LVL173
 5537 0b3b 14000000 		.4byte	.LVL175
 5538 0b3f 0100     		.2byte	0x1
 5539 0b41 53       		.byte	0x53
 5540 0b42 14000000 		.4byte	.LVL175
 5541 0b46 14020000 		.4byte	.LVL210
 5542 0b4a 0200     		.2byte	0x2
 5543 0b4c 91       		.byte	0x91
 5544 0b4d 54       		.sleb128 -44
 5545 0b4e 14020000 		.4byte	.LVL210
 5546 0b52 1E020000 		.4byte	.LVL211
 5547 0b56 0400     		.2byte	0x4
 5548 0b58 F3       		.byte	0xf3
 5549 0b59 01       		.uleb128 0x1
 5550 0b5a 53       		.byte	0x53
 5551 0b5b 9F       		.byte	0x9f
 5552 0b5c 1E020000 		.4byte	.LVL211
 5553 0b60 2C020000 		.4byte	.LVL212
 5554 0b64 0200     		.2byte	0x2
 5555 0b66 91       		.byte	0x91
 5556 0b67 54       		.sleb128 -44
 5557 0b68 2C020000 		.4byte	.LVL212
 5558 0b6c 40020000 		.4byte	.LFE9
 5559 0b70 0400     		.2byte	0x4
 5560 0b72 F3       		.byte	0xf3
 5561 0b73 01       		.uleb128 0x1
 5562 0b74 53       		.byte	0x53
 5563 0b75 9F       		.byte	0x9f
 5564 0b76 00000000 		.4byte	0
 5565 0b7a 00000000 		.4byte	0
 5566              	.LLST42:
 5567 0b7e 10000000 		.4byte	.LVL174
 5568 0b82 08010000 		.4byte	.LVL179
 5569 0b86 0200     		.2byte	0x2
 5570 0b88 34       		.byte	0x34
 5571 0b89 9F       		.byte	0x9f
 5572 0b8a 08010000 		.4byte	.LVL179
 5573 0b8e 3C010000 		.4byte	.LVL188
 5574 0b92 0200     		.2byte	0x2
 5575 0b94 32       		.byte	0x32
ARM GAS  C:\Users\Phuong\AppData\Local\Temp\cceqeziA.s 			page 117


 5576 0b95 9F       		.byte	0x9f
 5577 0b96 3C010000 		.4byte	.LVL188
 5578 0b9a 1E020000 		.4byte	.LVL211
 5579 0b9e 0100     		.2byte	0x1
 5580 0ba0 54       		.byte	0x54
 5581 0ba1 1E020000 		.4byte	.LVL211
 5582 0ba5 2C020000 		.4byte	.LVL212
 5583 0ba9 0200     		.2byte	0x2
 5584 0bab 34       		.byte	0x34
 5585 0bac 9F       		.byte	0x9f
 5586 0bad 2C020000 		.4byte	.LVL212
 5587 0bb1 30020000 		.4byte	.LVL213
 5588 0bb5 0100     		.2byte	0x1
 5589 0bb7 54       		.byte	0x54
 5590 0bb8 00000000 		.4byte	0
 5591 0bbc 00000000 		.4byte	0
 5592              	.LLST43:
 5593 0bc0 10000000 		.4byte	.LVL174
 5594 0bc4 18010000 		.4byte	.LVL181
 5595 0bc8 0A00     		.2byte	0xa
 5596 0bca 9E       		.byte	0x9e
 5597 0bcb 08       		.uleb128 0x8
 5598 0bcc 00000000 		.8byte	0
 5598      00000000 
 5599 0bd4 18010000 		.4byte	.LVL181
 5600 0bd8 2B010000 		.4byte	.LVL183-1
 5601 0bdc 0600     		.2byte	0x6
 5602 0bde 50       		.byte	0x50
 5603 0bdf 93       		.byte	0x93
 5604 0be0 04       		.uleb128 0x4
 5605 0be1 51       		.byte	0x51
 5606 0be2 93       		.byte	0x93
 5607 0be3 04       		.uleb128 0x4
 5608 0be4 2B010000 		.4byte	.LVL183-1
 5609 0be8 36010000 		.4byte	.LVL185
 5610 0bec 0800     		.2byte	0x8
 5611 0bee 91       		.byte	0x91
 5612 0bef 5C       		.sleb128 -36
 5613 0bf0 93       		.byte	0x93
 5614 0bf1 04       		.uleb128 0x4
 5615 0bf2 91       		.byte	0x91
 5616 0bf3 58       		.sleb128 -40
 5617 0bf4 93       		.byte	0x93
 5618 0bf5 04       		.uleb128 0x4
 5619 0bf6 36010000 		.4byte	.LVL185
 5620 0bfa 3A010000 		.4byte	.LVL187
 5621 0bfe 0600     		.2byte	0x6
 5622 0c00 50       		.byte	0x50
 5623 0c01 93       		.byte	0x93
 5624 0c02 04       		.uleb128 0x4
 5625 0c03 51       		.byte	0x51
 5626 0c04 93       		.byte	0x93
 5627 0c05 04       		.uleb128 0x4
 5628 0c06 3A010000 		.4byte	.LVL187
 5629 0c0a 1E020000 		.4byte	.LVL211
 5630 0c0e 0800     		.2byte	0x8
 5631 0c10 91       		.byte	0x91
ARM GAS  C:\Users\Phuong\AppData\Local\Temp\cceqeziA.s 			page 118


 5632 0c11 5C       		.sleb128 -36
 5633 0c12 93       		.byte	0x93
 5634 0c13 04       		.uleb128 0x4
 5635 0c14 91       		.byte	0x91
 5636 0c15 58       		.sleb128 -40
 5637 0c16 93       		.byte	0x93
 5638 0c17 04       		.uleb128 0x4
 5639 0c18 1E020000 		.4byte	.LVL211
 5640 0c1c 2C020000 		.4byte	.LVL212
 5641 0c20 0A00     		.2byte	0xa
 5642 0c22 9E       		.byte	0x9e
 5643 0c23 08       		.uleb128 0x8
 5644 0c24 00000000 		.8byte	0
 5644      00000000 
 5645 0c2c 00000000 		.4byte	0
 5646 0c30 00000000 		.4byte	0
 5647              	.LLST44:
 5648 0c34 10000000 		.4byte	.LVL174
 5649 0c38 56010000 		.4byte	.LVL191
 5650 0c3c 0A00     		.2byte	0xa
 5651 0c3e 9E       		.byte	0x9e
 5652 0c3f 08       		.uleb128 0x8
 5653 0c40 00000000 		.8byte	0
 5653      00000000 
 5654 0c48 56010000 		.4byte	.LVL191
 5655 0c4c 72010000 		.4byte	.LVL195
 5656 0c50 0600     		.2byte	0x6
 5657 0c52 56       		.byte	0x56
 5658 0c53 93       		.byte	0x93
 5659 0c54 04       		.uleb128 0x4
 5660 0c55 57       		.byte	0x57
 5661 0c56 93       		.byte	0x93
 5662 0c57 04       		.uleb128 0x4
 5663 0c58 72010000 		.4byte	.LVL195
 5664 0c5c 7C010000 		.4byte	.LVL196
 5665 0c60 0A00     		.2byte	0xa
 5666 0c62 9E       		.byte	0x9e
 5667 0c63 08       		.uleb128 0x8
 5668 0c64 00000000 		.8byte	0
 5668      00000000 
 5669 0c6c 7C010000 		.4byte	.LVL196
 5670 0c70 DA010000 		.4byte	.LVL205
 5671 0c74 0600     		.2byte	0x6
 5672 0c76 56       		.byte	0x56
 5673 0c77 93       		.byte	0x93
 5674 0c78 04       		.uleb128 0x4
 5675 0c79 57       		.byte	0x57
 5676 0c7a 93       		.byte	0x93
 5677 0c7b 04       		.uleb128 0x4
 5678 0c7c DA010000 		.4byte	.LVL205
 5679 0c80 DD010000 		.4byte	.LVL206-1
 5680 0c84 0600     		.2byte	0x6
 5681 0c86 50       		.byte	0x50
 5682 0c87 93       		.byte	0x93
 5683 0c88 04       		.uleb128 0x4
 5684 0c89 51       		.byte	0x51
 5685 0c8a 93       		.byte	0x93
ARM GAS  C:\Users\Phuong\AppData\Local\Temp\cceqeziA.s 			page 119


 5686 0c8b 04       		.uleb128 0x4
 5687 0c8c 1E020000 		.4byte	.LVL211
 5688 0c90 2C020000 		.4byte	.LVL212
 5689 0c94 0A00     		.2byte	0xa
 5690 0c96 9E       		.byte	0x9e
 5691 0c97 08       		.uleb128 0x8
 5692 0c98 00000000 		.8byte	0
 5692      00000000 
 5693 0ca0 00000000 		.4byte	0
 5694 0ca4 00000000 		.4byte	0
 5695              	.LLST45:
 5696 0ca8 10000000 		.4byte	.LVL174
 5697 0cac 1E010000 		.4byte	.LVL182
 5698 0cb0 0200     		.2byte	0x2
 5699 0cb2 30       		.byte	0x30
 5700 0cb3 9F       		.byte	0x9f
 5701 0cb4 1E010000 		.4byte	.LVL182
 5702 0cb8 2B010000 		.4byte	.LVL183-1
 5703 0cbc 0100     		.2byte	0x1
 5704 0cbe 52       		.byte	0x52
 5705 0cbf 2B010000 		.4byte	.LVL183-1
 5706 0cc3 36010000 		.4byte	.LVL185
 5707 0cc7 0100     		.2byte	0x1
 5708 0cc9 59       		.byte	0x59
 5709 0cca 36010000 		.4byte	.LVL185
 5710 0cce 3A010000 		.4byte	.LVL187
 5711 0cd2 0100     		.2byte	0x1
 5712 0cd4 52       		.byte	0x52
 5713 0cd5 3A010000 		.4byte	.LVL187
 5714 0cd9 1E020000 		.4byte	.LVL211
 5715 0cdd 0100     		.2byte	0x1
 5716 0cdf 59       		.byte	0x59
 5717 0ce0 1E020000 		.4byte	.LVL211
 5718 0ce4 2C020000 		.4byte	.LVL212
 5719 0ce8 0200     		.2byte	0x2
 5720 0cea 30       		.byte	0x30
 5721 0ceb 9F       		.byte	0x9f
 5722 0cec 00000000 		.4byte	0
 5723 0cf0 00000000 		.4byte	0
 5724              	.LLST46:
 5725 0cf4 10000000 		.4byte	.LVL174
 5726 0cf8 5E010000 		.4byte	.LVL192
 5727 0cfc 0200     		.2byte	0x2
 5728 0cfe 30       		.byte	0x30
 5729 0cff 9F       		.byte	0x9f
 5730 0d00 5E010000 		.4byte	.LVL192
 5731 0d04 62010000 		.4byte	.LVL193
 5732 0d08 0100     		.2byte	0x1
 5733 0d0a 53       		.byte	0x53
 5734 0d0b 62010000 		.4byte	.LVL193
 5735 0d0f 72010000 		.4byte	.LVL195
 5736 0d13 0100     		.2byte	0x1
 5737 0d15 58       		.byte	0x58
 5738 0d16 72010000 		.4byte	.LVL195
 5739 0d1a 7C010000 		.4byte	.LVL196
 5740 0d1e 0200     		.2byte	0x2
 5741 0d20 30       		.byte	0x30
ARM GAS  C:\Users\Phuong\AppData\Local\Temp\cceqeziA.s 			page 120


 5742 0d21 9F       		.byte	0x9f
 5743 0d22 7C010000 		.4byte	.LVL196
 5744 0d26 1E020000 		.4byte	.LVL211
 5745 0d2a 0100     		.2byte	0x1
 5746 0d2c 58       		.byte	0x58
 5747 0d2d 1E020000 		.4byte	.LVL211
 5748 0d31 2C020000 		.4byte	.LVL212
 5749 0d35 0200     		.2byte	0x2
 5750 0d37 30       		.byte	0x30
 5751 0d38 9F       		.byte	0x9f
 5752 0d39 00000000 		.4byte	0
 5753 0d3d 00000000 		.4byte	0
 5754              	.LLST47:
 5755 0d41 08010000 		.4byte	.LVL179
 5756 0d45 34010000 		.4byte	.LVL184
 5757 0d49 0100     		.2byte	0x1
 5758 0d4b 54       		.byte	0x54
 5759 0d4c 36010000 		.4byte	.LVL185
 5760 0d50 38010000 		.4byte	.LVL186
 5761 0d54 0100     		.2byte	0x1
 5762 0d56 54       		.byte	0x54
 5763 0d57 3A010000 		.4byte	.LVL187
 5764 0d5b 3C010000 		.4byte	.LVL188
 5765 0d5f 0100     		.2byte	0x1
 5766 0d61 54       		.byte	0x54
 5767 0d62 48010000 		.4byte	.LVL189
 5768 0d66 51010000 		.4byte	.LVL190-1
 5769 0d6a 0100     		.2byte	0x1
 5770 0d6c 53       		.byte	0x53
 5771 0d6d 51010000 		.4byte	.LVL190-1
 5772 0d71 72010000 		.4byte	.LVL195
 5773 0d75 0100     		.2byte	0x1
 5774 0d77 5A       		.byte	0x5a
 5775 0d78 7C010000 		.4byte	.LVL196
 5776 0d7c 7E010000 		.4byte	.LVL197
 5777 0d80 0100     		.2byte	0x1
 5778 0d82 5A       		.byte	0x5a
 5779 0d83 8C010000 		.4byte	.LVL198
 5780 0d87 93010000 		.4byte	.LVL199-1
 5781 0d8b 0100     		.2byte	0x1
 5782 0d8d 50       		.byte	0x50
 5783 0d8e 00000000 		.4byte	0
 5784 0d92 00000000 		.4byte	0
 5785              	.LLST48:
 5786 0d96 00000000 		.4byte	.LVL215
 5787 0d9a 1F000000 		.4byte	.LVL218-1
 5788 0d9e 0100     		.2byte	0x1
 5789 0da0 50       		.byte	0x50
 5790 0da1 1F000000 		.4byte	.LVL218-1
 5791 0da5 42000000 		.4byte	.LVL221
 5792 0da9 0100     		.2byte	0x1
 5793 0dab 54       		.byte	0x54
 5794 0dac 42000000 		.4byte	.LVL221
 5795 0db0 4C000000 		.4byte	.LVL223
 5796 0db4 0400     		.2byte	0x4
 5797 0db6 F3       		.byte	0xf3
 5798 0db7 01       		.uleb128 0x1
ARM GAS  C:\Users\Phuong\AppData\Local\Temp\cceqeziA.s 			page 121


 5799 0db8 50       		.byte	0x50
 5800 0db9 9F       		.byte	0x9f
 5801 0dba 4C000000 		.4byte	.LVL223
 5802 0dbe 68000000 		.4byte	.LVL227
 5803 0dc2 0100     		.2byte	0x1
 5804 0dc4 54       		.byte	0x54
 5805 0dc5 68000000 		.4byte	.LVL227
 5806 0dc9 C8000000 		.4byte	.LVL240
 5807 0dcd 0400     		.2byte	0x4
 5808 0dcf F3       		.byte	0xf3
 5809 0dd0 01       		.uleb128 0x1
 5810 0dd1 50       		.byte	0x50
 5811 0dd2 9F       		.byte	0x9f
 5812 0dd3 C8000000 		.4byte	.LVL240
 5813 0dd7 D8000000 		.4byte	.LVL243
 5814 0ddb 0100     		.2byte	0x1
 5815 0ddd 54       		.byte	0x54
 5816 0dde D8000000 		.4byte	.LVL243
 5817 0de2 E2000000 		.4byte	.LVL245
 5818 0de6 0400     		.2byte	0x4
 5819 0de8 F3       		.byte	0xf3
 5820 0de9 01       		.uleb128 0x1
 5821 0dea 50       		.byte	0x50
 5822 0deb 9F       		.byte	0x9f
 5823 0dec E2000000 		.4byte	.LVL245
 5824 0df0 E6000000 		.4byte	.LVL246
 5825 0df4 0100     		.2byte	0x1
 5826 0df6 54       		.byte	0x54
 5827 0df7 E6000000 		.4byte	.LVL246
 5828 0dfb E8000000 		.4byte	.LVL247
 5829 0dff 0200     		.2byte	0x2
 5830 0e01 91       		.byte	0x91
 5831 0e02 50       		.sleb128 -48
 5832 0e03 E8000000 		.4byte	.LVL247
 5833 0e07 EC000000 		.4byte	.LVL248
 5834 0e0b 0100     		.2byte	0x1
 5835 0e0d 50       		.byte	0x50
 5836 0e0e EC000000 		.4byte	.LVL248
 5837 0e12 EE000000 		.4byte	.LVL249
 5838 0e16 0100     		.2byte	0x1
 5839 0e18 54       		.byte	0x54
 5840 0e19 EE000000 		.4byte	.LVL249
 5841 0e1d 0C010000 		.4byte	.LFE10
 5842 0e21 0400     		.2byte	0x4
 5843 0e23 F3       		.byte	0xf3
 5844 0e24 01       		.uleb128 0x1
 5845 0e25 50       		.byte	0x50
 5846 0e26 9F       		.byte	0x9f
 5847 0e27 00000000 		.4byte	0
 5848 0e2b 00000000 		.4byte	0
 5849              	.LLST49:
 5850 0e2f 00000000 		.4byte	.LVL215
 5851 0e33 1C000000 		.4byte	.LVL217
 5852 0e37 0100     		.2byte	0x1
 5853 0e39 51       		.byte	0x51
 5854 0e3a 1C000000 		.4byte	.LVL217
 5855 0e3e E8000000 		.4byte	.LVL247
ARM GAS  C:\Users\Phuong\AppData\Local\Temp\cceqeziA.s 			page 122


 5856 0e42 0100     		.2byte	0x1
 5857 0e44 57       		.byte	0x57
 5858 0e45 E8000000 		.4byte	.LVL247
 5859 0e49 EC000000 		.4byte	.LVL248
 5860 0e4d 0100     		.2byte	0x1
 5861 0e4f 51       		.byte	0x51
 5862 0e50 EC000000 		.4byte	.LVL248
 5863 0e54 FA000000 		.4byte	.LVL251
 5864 0e58 0100     		.2byte	0x1
 5865 0e5a 57       		.byte	0x57
 5866 0e5b FA000000 		.4byte	.LVL251
 5867 0e5f 0C010000 		.4byte	.LFE10
 5868 0e63 0400     		.2byte	0x4
 5869 0e65 F3       		.byte	0xf3
 5870 0e66 01       		.uleb128 0x1
 5871 0e67 51       		.byte	0x51
 5872 0e68 9F       		.byte	0x9f
 5873 0e69 00000000 		.4byte	0
 5874 0e6d 00000000 		.4byte	0
 5875              	.LLST50:
 5876 0e71 82000000 		.4byte	.LVL230
 5877 0e75 AC000000 		.4byte	.LVL234
 5878 0e79 0600     		.2byte	0x6
 5879 0e7b 54       		.byte	0x54
 5880 0e7c 93       		.byte	0x93
 5881 0e7d 04       		.uleb128 0x4
 5882 0e7e 55       		.byte	0x55
 5883 0e7f 93       		.byte	0x93
 5884 0e80 04       		.uleb128 0x4
 5885 0e81 AE000000 		.4byte	.LVL235
 5886 0e85 BE000000 		.4byte	.LVL238
 5887 0e89 0600     		.2byte	0x6
 5888 0e8b 54       		.byte	0x54
 5889 0e8c 93       		.byte	0x93
 5890 0e8d 04       		.uleb128 0x4
 5891 0e8e 55       		.byte	0x55
 5892 0e8f 93       		.byte	0x93
 5893 0e90 04       		.uleb128 0x4
 5894 0e91 00000000 		.4byte	0
 5895 0e95 00000000 		.4byte	0
 5896              	.LLST51:
 5897 0e99 0E000000 		.4byte	.LVL216
 5898 0e9d 42000000 		.4byte	.LVL221
 5899 0ea1 0600     		.2byte	0x6
 5900 0ea3 9E       		.byte	0x9e
 5901 0ea4 04       		.uleb128 0x4
 5902 0ea5 00000000 		.4byte	0
 5903 0ea9 42000000 		.4byte	.LVL221
 5904 0ead 45000000 		.4byte	.LVL222-1
 5905 0eb1 0100     		.2byte	0x1
 5906 0eb3 50       		.byte	0x50
 5907 0eb4 45000000 		.4byte	.LVL222-1
 5908 0eb8 4C000000 		.4byte	.LVL223
 5909 0ebc 0100     		.2byte	0x1
 5910 0ebe 54       		.byte	0x54
 5911 0ebf 4C000000 		.4byte	.LVL223
 5912 0ec3 AC000000 		.4byte	.LVL234
ARM GAS  C:\Users\Phuong\AppData\Local\Temp\cceqeziA.s 			page 123


 5913 0ec7 0600     		.2byte	0x6
 5914 0ec9 9E       		.byte	0x9e
 5915 0eca 04       		.uleb128 0x4
 5916 0ecb 00000000 		.4byte	0
 5917 0ecf AC000000 		.4byte	.LVL234
 5918 0ed3 AE000000 		.4byte	.LVL235
 5919 0ed7 0100     		.2byte	0x1
 5920 0ed9 50       		.byte	0x50
 5921 0eda AE000000 		.4byte	.LVL235
 5922 0ede BE000000 		.4byte	.LVL238
 5923 0ee2 0600     		.2byte	0x6
 5924 0ee4 9E       		.byte	0x9e
 5925 0ee5 04       		.uleb128 0x4
 5926 0ee6 00000000 		.4byte	0
 5927 0eea BE000000 		.4byte	.LVL238
 5928 0eee C1000000 		.4byte	.LVL239-1
 5929 0ef2 0100     		.2byte	0x1
 5930 0ef4 50       		.byte	0x50
 5931 0ef5 C1000000 		.4byte	.LVL239-1
 5932 0ef9 C8000000 		.4byte	.LVL240
 5933 0efd 0100     		.2byte	0x1
 5934 0eff 54       		.byte	0x54
 5935 0f00 C8000000 		.4byte	.LVL240
 5936 0f04 D8000000 		.4byte	.LVL243
 5937 0f08 0600     		.2byte	0x6
 5938 0f0a 9E       		.byte	0x9e
 5939 0f0b 04       		.uleb128 0x4
 5940 0f0c 00000000 		.4byte	0
 5941 0f10 D8000000 		.4byte	.LVL243
 5942 0f14 DB000000 		.4byte	.LVL244-1
 5943 0f18 0100     		.2byte	0x1
 5944 0f1a 50       		.byte	0x50
 5945 0f1b DB000000 		.4byte	.LVL244-1
 5946 0f1f E2000000 		.4byte	.LVL245
 5947 0f23 0100     		.2byte	0x1
 5948 0f25 54       		.byte	0x54
 5949 0f26 E2000000 		.4byte	.LVL245
 5950 0f2a EE000000 		.4byte	.LVL249
 5951 0f2e 0600     		.2byte	0x6
 5952 0f30 9E       		.byte	0x9e
 5953 0f31 04       		.uleb128 0x4
 5954 0f32 00000000 		.4byte	0
 5955 0f36 EE000000 		.4byte	.LVL249
 5956 0f3a FA000000 		.4byte	.LVL250
 5957 0f3e 0100     		.2byte	0x1
 5958 0f40 54       		.byte	0x54
 5959 0f41 FA000000 		.4byte	.LVL250
 5960 0f45 0C010000 		.4byte	.LFE10
 5961 0f49 0100     		.2byte	0x1
 5962 0f4b 50       		.byte	0x50
 5963 0f4c 00000000 		.4byte	0
 5964 0f50 00000000 		.4byte	0
 5965              	.LLST52:
 5966 0f54 00000000 		.4byte	.LVL252
 5967 0f58 1F000000 		.4byte	.LVL255-1
 5968 0f5c 0100     		.2byte	0x1
 5969 0f5e 50       		.byte	0x50
ARM GAS  C:\Users\Phuong\AppData\Local\Temp\cceqeziA.s 			page 124


 5970 0f5f 1F000000 		.4byte	.LVL255-1
 5971 0f63 54000000 		.4byte	.LVL262
 5972 0f67 0100     		.2byte	0x1
 5973 0f69 54       		.byte	0x54
 5974 0f6a 54000000 		.4byte	.LVL262
 5975 0f6e D8000000 		.4byte	.LVL277
 5976 0f72 0400     		.2byte	0x4
 5977 0f74 F3       		.byte	0xf3
 5978 0f75 01       		.uleb128 0x1
 5979 0f76 50       		.byte	0x50
 5980 0f77 9F       		.byte	0x9f
 5981 0f78 D8000000 		.4byte	.LVL277
 5982 0f7c 00010000 		.4byte	.LVL284
 5983 0f80 0100     		.2byte	0x1
 5984 0f82 54       		.byte	0x54
 5985 0f83 00010000 		.4byte	.LVL284
 5986 0f87 06010000 		.4byte	.LVL285
 5987 0f8b 0100     		.2byte	0x1
 5988 0f8d 50       		.byte	0x50
 5989 0f8e 06010000 		.4byte	.LVL285
 5990 0f92 0A010000 		.4byte	.LVL286
 5991 0f96 0100     		.2byte	0x1
 5992 0f98 54       		.byte	0x54
 5993 0f99 0A010000 		.4byte	.LVL286
 5994 0f9d 38010000 		.4byte	.LFE11
 5995 0fa1 0400     		.2byte	0x4
 5996 0fa3 F3       		.byte	0xf3
 5997 0fa4 01       		.uleb128 0x1
 5998 0fa5 50       		.byte	0x50
 5999 0fa6 9F       		.byte	0x9f
 6000 0fa7 00000000 		.4byte	0
 6001 0fab 00000000 		.4byte	0
 6002              	.LLST53:
 6003 0faf 00000000 		.4byte	.LVL252
 6004 0fb3 1C000000 		.4byte	.LVL254
 6005 0fb7 0100     		.2byte	0x1
 6006 0fb9 51       		.byte	0x51
 6007 0fba 1C000000 		.4byte	.LVL254
 6008 0fbe 00010000 		.4byte	.LVL284
 6009 0fc2 0100     		.2byte	0x1
 6010 0fc4 55       		.byte	0x55
 6011 0fc5 00010000 		.4byte	.LVL284
 6012 0fc9 06010000 		.4byte	.LVL285
 6013 0fcd 0100     		.2byte	0x1
 6014 0fcf 51       		.byte	0x51
 6015 0fd0 06010000 		.4byte	.LVL285
 6016 0fd4 18010000 		.4byte	.LVL287
 6017 0fd8 0100     		.2byte	0x1
 6018 0fda 55       		.byte	0x55
 6019 0fdb 18010000 		.4byte	.LVL287
 6020 0fdf 38010000 		.4byte	.LFE11
 6021 0fe3 0400     		.2byte	0x4
 6022 0fe5 F3       		.byte	0xf3
 6023 0fe6 01       		.uleb128 0x1
 6024 0fe7 51       		.byte	0x51
 6025 0fe8 9F       		.byte	0x9f
 6026 0fe9 00000000 		.4byte	0
ARM GAS  C:\Users\Phuong\AppData\Local\Temp\cceqeziA.s 			page 125


 6027 0fed 00000000 		.4byte	0
 6028              	.LLST54:
 6029 0ff1 0E000000 		.4byte	.LVL253
 6030 0ff5 48000000 		.4byte	.LVL259
 6031 0ff9 0A00     		.2byte	0xa
 6032 0ffb 9E       		.byte	0x9e
 6033 0ffc 08       		.uleb128 0x8
 6034 0ffd 00000000 		.4byte	0
 6035 1001 00000000 		.4byte	0
 6036 1005 48000000 		.4byte	.LVL259
 6037 1009 52000000 		.4byte	.LVL261
 6038 100d 0600     		.2byte	0x6
 6039 100f 56       		.byte	0x56
 6040 1010 93       		.byte	0x93
 6041 1011 04       		.uleb128 0x4
 6042 1012 57       		.byte	0x57
 6043 1013 93       		.byte	0x93
 6044 1014 04       		.uleb128 0x4
 6045 1015 52000000 		.4byte	.LVL261
 6046 1019 B6000000 		.4byte	.LVL270
 6047 101d 0A00     		.2byte	0xa
 6048 101f 9E       		.byte	0x9e
 6049 1020 08       		.uleb128 0x8
 6050 1021 00000000 		.4byte	0
 6051 1025 00000000 		.4byte	0
 6052 1029 B6000000 		.4byte	.LVL270
 6053 102d B8000000 		.4byte	.LVL271
 6054 1031 0600     		.2byte	0x6
 6055 1033 56       		.byte	0x56
 6056 1034 93       		.byte	0x93
 6057 1035 04       		.uleb128 0x4
 6058 1036 57       		.byte	0x57
 6059 1037 93       		.byte	0x93
 6060 1038 04       		.uleb128 0x4
 6061 1039 B8000000 		.4byte	.LVL271
 6062 103d CE000000 		.4byte	.LVL275
 6063 1041 0A00     		.2byte	0xa
 6064 1043 9E       		.byte	0x9e
 6065 1044 08       		.uleb128 0x8
 6066 1045 00000000 		.4byte	0
 6067 1049 00000000 		.4byte	0
 6068 104d CE000000 		.4byte	.LVL275
 6069 1051 D8000000 		.4byte	.LVL277
 6070 1055 0600     		.2byte	0x6
 6071 1057 56       		.byte	0x56
 6072 1058 93       		.byte	0x93
 6073 1059 04       		.uleb128 0x4
 6074 105a 57       		.byte	0x57
 6075 105b 93       		.byte	0x93
 6076 105c 04       		.uleb128 0x4
 6077 105d D8000000 		.4byte	.LVL277
 6078 1061 EE000000 		.4byte	.LVL281
 6079 1065 0A00     		.2byte	0xa
 6080 1067 9E       		.byte	0x9e
 6081 1068 08       		.uleb128 0x8
 6082 1069 00000000 		.4byte	0
 6083 106d 00000000 		.4byte	0
ARM GAS  C:\Users\Phuong\AppData\Local\Temp\cceqeziA.s 			page 126


 6084 1071 EE000000 		.4byte	.LVL281
 6085 1075 F8000000 		.4byte	.LVL283
 6086 1079 0600     		.2byte	0x6
 6087 107b 56       		.byte	0x56
 6088 107c 93       		.byte	0x93
 6089 107d 04       		.uleb128 0x4
 6090 107e 57       		.byte	0x57
 6091 107f 93       		.byte	0x93
 6092 1080 04       		.uleb128 0x4
 6093 1081 F8000000 		.4byte	.LVL283
 6094 1085 0A010000 		.4byte	.LVL286
 6095 1089 0A00     		.2byte	0xa
 6096 108b 9E       		.byte	0x9e
 6097 108c 08       		.uleb128 0x8
 6098 108d 00000000 		.4byte	0
 6099 1091 00000000 		.4byte	0
 6100 1095 0A010000 		.4byte	.LVL286
 6101 1099 18010000 		.4byte	.LVL288
 6102 109d 0600     		.2byte	0x6
 6103 109f 56       		.byte	0x56
 6104 10a0 93       		.byte	0x93
 6105 10a1 04       		.uleb128 0x4
 6106 10a2 57       		.byte	0x57
 6107 10a3 93       		.byte	0x93
 6108 10a4 04       		.uleb128 0x4
 6109 10a5 00000000 		.4byte	0
 6110 10a9 00000000 		.4byte	0
 6111              	.LLST55:
 6112 10ad 00000000 		.4byte	.LVL289
 6113 10b1 10000000 		.4byte	.LVL290
 6114 10b5 0100     		.2byte	0x1
 6115 10b7 50       		.byte	0x50
 6116 10b8 10000000 		.4byte	.LVL290
 6117 10bc 3A000000 		.4byte	.LVL299
 6118 10c0 0100     		.2byte	0x1
 6119 10c2 55       		.byte	0x55
 6120 10c3 3A000000 		.4byte	.LVL299
 6121 10c7 42000000 		.4byte	.LVL300
 6122 10cb 0100     		.2byte	0x1
 6123 10cd 50       		.byte	0x50
 6124 10ce 42000000 		.4byte	.LVL300
 6125 10d2 4A000000 		.4byte	.LVL305
 6126 10d6 0100     		.2byte	0x1
 6127 10d8 55       		.byte	0x55
 6128 10d9 4A000000 		.4byte	.LVL305
 6129 10dd 4C000000 		.4byte	.LFE12
 6130 10e1 0400     		.2byte	0x4
 6131 10e3 F3       		.byte	0xf3
 6132 10e4 01       		.uleb128 0x1
 6133 10e5 50       		.byte	0x50
 6134 10e6 9F       		.byte	0x9f
 6135 10e7 00000000 		.4byte	0
 6136 10eb 00000000 		.4byte	0
 6137              	.LLST56:
 6138 10ef 00000000 		.4byte	.LVL289
 6139 10f3 13000000 		.4byte	.LVL291-1
 6140 10f7 0100     		.2byte	0x1
ARM GAS  C:\Users\Phuong\AppData\Local\Temp\cceqeziA.s 			page 127


 6141 10f9 51       		.byte	0x51
 6142 10fa 13000000 		.4byte	.LVL291-1
 6143 10fe 2C000000 		.4byte	.LVL295
 6144 1102 0100     		.2byte	0x1
 6145 1104 54       		.byte	0x54
 6146 1105 2C000000 		.4byte	.LVL295
 6147 1109 3A000000 		.4byte	.LVL299
 6148 110d 0400     		.2byte	0x4
 6149 110f F3       		.byte	0xf3
 6150 1110 01       		.uleb128 0x1
 6151 1111 51       		.byte	0x51
 6152 1112 9F       		.byte	0x9f
 6153 1113 3A000000 		.4byte	.LVL299
 6154 1117 42000000 		.4byte	.LVL300
 6155 111b 0100     		.2byte	0x1
 6156 111d 51       		.byte	0x51
 6157 111e 42000000 		.4byte	.LVL300
 6158 1122 44000000 		.4byte	.LVL301
 6159 1126 0100     		.2byte	0x1
 6160 1128 54       		.byte	0x54
 6161 1129 44000000 		.4byte	.LVL301
 6162 112d 4C000000 		.4byte	.LFE12
 6163 1131 0400     		.2byte	0x4
 6164 1133 F3       		.byte	0xf3
 6165 1134 01       		.uleb128 0x1
 6166 1135 51       		.byte	0x51
 6167 1136 9F       		.byte	0x9f
 6168 1137 00000000 		.4byte	0
 6169 113b 00000000 		.4byte	0
 6170              	.LLST57:
 6171 113f 38000000 		.4byte	.LVL298
 6172 1143 3A000000 		.4byte	.LVL299
 6173 1147 0100     		.2byte	0x1
 6174 1149 54       		.byte	0x54
 6175 114a 48000000 		.4byte	.LVL303
 6176 114e 4A000000 		.4byte	.LVL304
 6177 1152 0100     		.2byte	0x1
 6178 1154 54       		.byte	0x54
 6179 1155 4A000000 		.4byte	.LVL304
 6180 1159 4C000000 		.4byte	.LFE12
 6181 115d 0100     		.2byte	0x1
 6182 115f 50       		.byte	0x50
 6183 1160 00000000 		.4byte	0
 6184 1164 00000000 		.4byte	0
 6185              	.LLST58:
 6186 1168 2C000000 		.4byte	.LVL295
 6187 116c 30000000 		.4byte	.LVL296
 6188 1170 0100     		.2byte	0x1
 6189 1172 50       		.byte	0x50
 6190 1173 30000000 		.4byte	.LVL296
 6191 1177 3A000000 		.4byte	.LVL299
 6192 117b 0100     		.2byte	0x1
 6193 117d 54       		.byte	0x54
 6194 117e 46000000 		.4byte	.LVL302
 6195 1182 48000000 		.4byte	.LVL303
 6196 1186 0100     		.2byte	0x1
 6197 1188 50       		.byte	0x50
ARM GAS  C:\Users\Phuong\AppData\Local\Temp\cceqeziA.s 			page 128


 6198 1189 00000000 		.4byte	0
 6199 118d 00000000 		.4byte	0
 6200              	.LLST59:
 6201 1191 14000000 		.4byte	.LVL291
 6202 1195 18000000 		.4byte	.LVL292
 6203 1199 0100     		.2byte	0x1
 6204 119b 50       		.byte	0x50
 6205 119c 18000000 		.4byte	.LVL292
 6206 11a0 1B000000 		.4byte	.LVL293-1
 6207 11a4 0300     		.2byte	0x3
 6208 11a6 70       		.byte	0x70
 6209 11a7 7F       		.sleb128 -1
 6210 11a8 9F       		.byte	0x9f
 6211 11a9 1B000000 		.4byte	.LVL293-1
 6212 11ad 3A000000 		.4byte	.LVL299
 6213 11b1 0300     		.2byte	0x3
 6214 11b3 76       		.byte	0x76
 6215 11b4 7F       		.sleb128 -1
 6216 11b5 9F       		.byte	0x9f
 6217 11b6 42000000 		.4byte	.LVL300
 6218 11ba 48000000 		.4byte	.LVL303
 6219 11be 0300     		.2byte	0x3
 6220 11c0 76       		.byte	0x76
 6221 11c1 7F       		.sleb128 -1
 6222 11c2 9F       		.byte	0x9f
 6223 11c3 00000000 		.4byte	0
 6224 11c7 00000000 		.4byte	0
 6225              	.LLST60:
 6226 11cb 1C000000 		.4byte	.LVL293
 6227 11cf 29000000 		.4byte	.LVL294-1
 6228 11d3 0100     		.2byte	0x1
 6229 11d5 50       		.byte	0x50
 6230 11d6 42000000 		.4byte	.LVL300
 6231 11da 46000000 		.4byte	.LVL302
 6232 11de 0100     		.2byte	0x1
 6233 11e0 50       		.byte	0x50
 6234 11e1 00000000 		.4byte	0
 6235 11e5 00000000 		.4byte	0
 6236              	.LLST61:
 6237 11e9 00000000 		.4byte	.LVL306
 6238 11ed 1A000000 		.4byte	.LVL307
 6239 11f1 0100     		.2byte	0x1
 6240 11f3 50       		.byte	0x50
 6241 11f4 1A000000 		.4byte	.LVL307
 6242 11f8 6E000000 		.4byte	.LVL317
 6243 11fc 0100     		.2byte	0x1
 6244 11fe 58       		.byte	0x58
 6245 11ff 6E000000 		.4byte	.LVL317
 6246 1203 70000000 		.4byte	.LVL318
 6247 1207 0100     		.2byte	0x1
 6248 1209 50       		.byte	0x50
 6249 120a 70000000 		.4byte	.LVL318
 6250 120e 72000000 		.4byte	.LVL319
 6251 1212 0100     		.2byte	0x1
 6252 1214 58       		.byte	0x58
 6253 1215 72000000 		.4byte	.LVL319
 6254 1219 74000000 		.4byte	.LVL320
ARM GAS  C:\Users\Phuong\AppData\Local\Temp\cceqeziA.s 			page 129


 6255 121d 0100     		.2byte	0x1
 6256 121f 50       		.byte	0x50
 6257 1220 74000000 		.4byte	.LVL320
 6258 1224 78000000 		.4byte	.LVL323
 6259 1228 0100     		.2byte	0x1
 6260 122a 58       		.byte	0x58
 6261 122b 78000000 		.4byte	.LVL323
 6262 122f 88000000 		.4byte	.LFE13
 6263 1233 0400     		.2byte	0x4
 6264 1235 F3       		.byte	0xf3
 6265 1236 01       		.uleb128 0x1
 6266 1237 50       		.byte	0x50
 6267 1238 9F       		.byte	0x9f
 6268 1239 00000000 		.4byte	0
 6269 123d 00000000 		.4byte	0
 6270              	.LLST62:
 6271 1241 00000000 		.4byte	.LVL306
 6272 1245 1A000000 		.4byte	.LVL307
 6273 1249 0100     		.2byte	0x1
 6274 124b 51       		.byte	0x51
 6275 124c 1A000000 		.4byte	.LVL307
 6276 1250 6E000000 		.4byte	.LVL317
 6277 1254 0100     		.2byte	0x1
 6278 1256 59       		.byte	0x59
 6279 1257 6E000000 		.4byte	.LVL317
 6280 125b 76000000 		.4byte	.LVL321
 6281 125f 0100     		.2byte	0x1
 6282 1261 51       		.byte	0x51
 6283 1262 76000000 		.4byte	.LVL321
 6284 1266 78000000 		.4byte	.LVL324
 6285 126a 0100     		.2byte	0x1
 6286 126c 59       		.byte	0x59
 6287 126d 78000000 		.4byte	.LVL324
 6288 1271 88000000 		.4byte	.LFE13
 6289 1275 0400     		.2byte	0x4
 6290 1277 F3       		.byte	0xf3
 6291 1278 01       		.uleb128 0x1
 6292 1279 51       		.byte	0x51
 6293 127a 9F       		.byte	0x9f
 6294 127b 00000000 		.4byte	0
 6295 127f 00000000 		.4byte	0
 6296              	.LLST63:
 6297 1283 00000000 		.4byte	.LVL306
 6298 1287 1A000000 		.4byte	.LVL307
 6299 128b 0100     		.2byte	0x1
 6300 128d 52       		.byte	0x52
 6301 128e 1A000000 		.4byte	.LVL307
 6302 1292 1C000000 		.4byte	.LVL308
 6303 1296 0100     		.2byte	0x1
 6304 1298 50       		.byte	0x50
 6305 1299 1C000000 		.4byte	.LVL308
 6306 129d 38000000 		.4byte	.LVL312
 6307 12a1 0100     		.2byte	0x1
 6308 12a3 54       		.byte	0x54
 6309 12a4 38000000 		.4byte	.LVL312
 6310 12a8 50000000 		.4byte	.LVL314
 6311 12ac 0100     		.2byte	0x1
ARM GAS  C:\Users\Phuong\AppData\Local\Temp\cceqeziA.s 			page 130


 6312 12ae 50       		.byte	0x50
 6313 12af 6E000000 		.4byte	.LVL317
 6314 12b3 76000000 		.4byte	.LVL321
 6315 12b7 0100     		.2byte	0x1
 6316 12b9 52       		.byte	0x52
 6317 12ba 76000000 		.4byte	.LVL321
 6318 12be 78000000 		.4byte	.LVL322
 6319 12c2 0100     		.2byte	0x1
 6320 12c4 50       		.byte	0x50
 6321 12c5 00000000 		.4byte	0
 6322 12c9 00000000 		.4byte	0
 6323              	.LLST64:
 6324 12cd 1A000000 		.4byte	.LVL307
 6325 12d1 1C000000 		.4byte	.LVL308
 6326 12d5 0100     		.2byte	0x1
 6327 12d7 57       		.byte	0x57
 6328 12d8 1C000000 		.4byte	.LVL308
 6329 12dc 1E000000 		.4byte	.LVL309
 6330 12e0 0100     		.2byte	0x1
 6331 12e2 56       		.byte	0x56
 6332 12e3 1E000000 		.4byte	.LVL309
 6333 12e7 6E000000 		.4byte	.LVL317
 6334 12eb 0100     		.2byte	0x1
 6335 12ed 57       		.byte	0x57
 6336 12ee 76000000 		.4byte	.LVL321
 6337 12f2 78000000 		.4byte	.LVL322
 6338 12f6 0100     		.2byte	0x1
 6339 12f8 57       		.byte	0x57
 6340 12f9 00000000 		.4byte	0
 6341 12fd 00000000 		.4byte	0
 6342              	.LLST65:
 6343 1301 4E000000 		.4byte	.LVL313
 6344 1305 50000000 		.4byte	.LVL314
 6345 1309 0200     		.2byte	0x2
 6346 130b 30       		.byte	0x30
 6347 130c 9F       		.byte	0x9f
 6348 130d 50000000 		.4byte	.LVL314
 6349 1311 6E000000 		.4byte	.LVL317
 6350 1315 0100     		.2byte	0x1
 6351 1317 52       		.byte	0x52
 6352 1318 00000000 		.4byte	0
 6353 131c 00000000 		.4byte	0
 6354              	.LLST66:
 6355 1320 56000000 		.4byte	.LVL315
 6356 1324 64000000 		.4byte	.LVL316
 6357 1328 0100     		.2byte	0x1
 6358 132a 50       		.byte	0x50
 6359 132b 00000000 		.4byte	0
 6360 132f 00000000 		.4byte	0
 6361              	.LLST67:
 6362 1333 00000000 		.4byte	.LVL325
 6363 1337 1A000000 		.4byte	.LVL326
 6364 133b 0100     		.2byte	0x1
 6365 133d 50       		.byte	0x50
 6366 133e 1A000000 		.4byte	.LVL326
 6367 1342 6E000000 		.4byte	.LVL336
 6368 1346 0100     		.2byte	0x1
ARM GAS  C:\Users\Phuong\AppData\Local\Temp\cceqeziA.s 			page 131


 6369 1348 58       		.byte	0x58
 6370 1349 6E000000 		.4byte	.LVL336
 6371 134d 70000000 		.4byte	.LVL337
 6372 1351 0100     		.2byte	0x1
 6373 1353 50       		.byte	0x50
 6374 1354 70000000 		.4byte	.LVL337
 6375 1358 72000000 		.4byte	.LVL338
 6376 135c 0100     		.2byte	0x1
 6377 135e 58       		.byte	0x58
 6378 135f 72000000 		.4byte	.LVL338
 6379 1363 74000000 		.4byte	.LVL339
 6380 1367 0100     		.2byte	0x1
 6381 1369 50       		.byte	0x50
 6382 136a 74000000 		.4byte	.LVL339
 6383 136e 78000000 		.4byte	.LVL342
 6384 1372 0100     		.2byte	0x1
 6385 1374 58       		.byte	0x58
 6386 1375 78000000 		.4byte	.LVL342
 6387 1379 88000000 		.4byte	.LFE14
 6388 137d 0400     		.2byte	0x4
 6389 137f F3       		.byte	0xf3
 6390 1380 01       		.uleb128 0x1
 6391 1381 50       		.byte	0x50
 6392 1382 9F       		.byte	0x9f
 6393 1383 00000000 		.4byte	0
 6394 1387 00000000 		.4byte	0
 6395              	.LLST68:
 6396 138b 00000000 		.4byte	.LVL325
 6397 138f 1A000000 		.4byte	.LVL326
 6398 1393 0100     		.2byte	0x1
 6399 1395 51       		.byte	0x51
 6400 1396 1A000000 		.4byte	.LVL326
 6401 139a 6E000000 		.4byte	.LVL336
 6402 139e 0100     		.2byte	0x1
 6403 13a0 59       		.byte	0x59
 6404 13a1 6E000000 		.4byte	.LVL336
 6405 13a5 76000000 		.4byte	.LVL340
 6406 13a9 0100     		.2byte	0x1
 6407 13ab 51       		.byte	0x51
 6408 13ac 76000000 		.4byte	.LVL340
 6409 13b0 78000000 		.4byte	.LVL343
 6410 13b4 0100     		.2byte	0x1
 6411 13b6 59       		.byte	0x59
 6412 13b7 78000000 		.4byte	.LVL343
 6413 13bb 88000000 		.4byte	.LFE14
 6414 13bf 0400     		.2byte	0x4
 6415 13c1 F3       		.byte	0xf3
 6416 13c2 01       		.uleb128 0x1
 6417 13c3 51       		.byte	0x51
 6418 13c4 9F       		.byte	0x9f
 6419 13c5 00000000 		.4byte	0
 6420 13c9 00000000 		.4byte	0
 6421              	.LLST69:
 6422 13cd 00000000 		.4byte	.LVL325
 6423 13d1 1A000000 		.4byte	.LVL326
 6424 13d5 0100     		.2byte	0x1
 6425 13d7 52       		.byte	0x52
ARM GAS  C:\Users\Phuong\AppData\Local\Temp\cceqeziA.s 			page 132


 6426 13d8 1A000000 		.4byte	.LVL326
 6427 13dc 1C000000 		.4byte	.LVL327
 6428 13e0 0100     		.2byte	0x1
 6429 13e2 50       		.byte	0x50
 6430 13e3 1C000000 		.4byte	.LVL327
 6431 13e7 38000000 		.4byte	.LVL331
 6432 13eb 0100     		.2byte	0x1
 6433 13ed 54       		.byte	0x54
 6434 13ee 38000000 		.4byte	.LVL331
 6435 13f2 50000000 		.4byte	.LVL333
 6436 13f6 0100     		.2byte	0x1
 6437 13f8 50       		.byte	0x50
 6438 13f9 6E000000 		.4byte	.LVL336
 6439 13fd 76000000 		.4byte	.LVL340
 6440 1401 0100     		.2byte	0x1
 6441 1403 52       		.byte	0x52
 6442 1404 76000000 		.4byte	.LVL340
 6443 1408 78000000 		.4byte	.LVL341
 6444 140c 0100     		.2byte	0x1
 6445 140e 50       		.byte	0x50
 6446 140f 00000000 		.4byte	0
 6447 1413 00000000 		.4byte	0
 6448              	.LLST70:
 6449 1417 1A000000 		.4byte	.LVL326
 6450 141b 1C000000 		.4byte	.LVL327
 6451 141f 0100     		.2byte	0x1
 6452 1421 57       		.byte	0x57
 6453 1422 1C000000 		.4byte	.LVL327
 6454 1426 1E000000 		.4byte	.LVL328
 6455 142a 0100     		.2byte	0x1
 6456 142c 56       		.byte	0x56
 6457 142d 1E000000 		.4byte	.LVL328
 6458 1431 6E000000 		.4byte	.LVL336
 6459 1435 0100     		.2byte	0x1
 6460 1437 57       		.byte	0x57
 6461 1438 76000000 		.4byte	.LVL340
 6462 143c 78000000 		.4byte	.LVL341
 6463 1440 0100     		.2byte	0x1
 6464 1442 57       		.byte	0x57
 6465 1443 00000000 		.4byte	0
 6466 1447 00000000 		.4byte	0
 6467              	.LLST71:
 6468 144b 4E000000 		.4byte	.LVL332
 6469 144f 50000000 		.4byte	.LVL333
 6470 1453 0200     		.2byte	0x2
 6471 1455 30       		.byte	0x30
 6472 1456 9F       		.byte	0x9f
 6473 1457 50000000 		.4byte	.LVL333
 6474 145b 6E000000 		.4byte	.LVL336
 6475 145f 0100     		.2byte	0x1
 6476 1461 52       		.byte	0x52
 6477 1462 00000000 		.4byte	0
 6478 1466 00000000 		.4byte	0
 6479              	.LLST72:
 6480 146a 56000000 		.4byte	.LVL334
 6481 146e 64000000 		.4byte	.LVL335
 6482 1472 0100     		.2byte	0x1
ARM GAS  C:\Users\Phuong\AppData\Local\Temp\cceqeziA.s 			page 133


 6483 1474 50       		.byte	0x50
 6484 1475 00000000 		.4byte	0
 6485 1479 00000000 		.4byte	0
 6486              		.section	.debug_aranges,"",%progbits
 6487 0000 84000000 		.4byte	0x84
 6488 0004 0200     		.2byte	0x2
 6489 0006 00000000 		.4byte	.Ldebug_info0
 6490 000a 04       		.byte	0x4
 6491 000b 00       		.byte	0
 6492 000c 0000     		.2byte	0
 6493 000e 0000     		.2byte	0
 6494 0010 00000000 		.4byte	.LFB6
 6495 0014 34000000 		.4byte	.LFE6-.LFB6
 6496 0018 00000000 		.4byte	.LFB7
 6497 001c 3C000000 		.4byte	.LFE7-.LFB7
 6498 0020 00000000 		.4byte	.LFB8
 6499 0024 4C000000 		.4byte	.LFE8-.LFB8
 6500 0028 00000000 		.4byte	.LFB1
 6501 002c 8A000000 		.4byte	.LFE1-.LFB1
 6502 0030 00000000 		.4byte	.LFB2
 6503 0034 96000000 		.4byte	.LFE2-.LFB2
 6504 0038 00000000 		.4byte	.LFB3
 6505 003c 48000000 		.4byte	.LFE3-.LFB3
 6506 0040 00000000 		.4byte	.LFB4
 6507 0044 4C000000 		.4byte	.LFE4-.LFB4
 6508 0048 00000000 		.4byte	.LFB5
 6509 004c CA010000 		.4byte	.LFE5-.LFB5
 6510 0050 00000000 		.4byte	.LFB9
 6511 0054 40020000 		.4byte	.LFE9-.LFB9
 6512 0058 00000000 		.4byte	.LFB10
 6513 005c 0C010000 		.4byte	.LFE10-.LFB10
 6514 0060 00000000 		.4byte	.LFB11
 6515 0064 38010000 		.4byte	.LFE11-.LFB11
 6516 0068 00000000 		.4byte	.LFB12
 6517 006c 4C000000 		.4byte	.LFE12-.LFB12
 6518 0070 00000000 		.4byte	.LFB13
 6519 0074 88000000 		.4byte	.LFE13-.LFB13
 6520 0078 00000000 		.4byte	.LFB14
 6521 007c 88000000 		.4byte	.LFE14-.LFB14
 6522 0080 00000000 		.4byte	0
 6523 0084 00000000 		.4byte	0
 6524              		.section	.debug_ranges,"",%progbits
 6525              	.Ldebug_ranges0:
 6526 0000 26000000 		.4byte	.LBB2
 6527 0004 80000000 		.4byte	.LBE2
 6528 0008 84000000 		.4byte	.LBB4
 6529 000c 86000000 		.4byte	.LBE4
 6530 0010 00000000 		.4byte	0
 6531 0014 00000000 		.4byte	0
 6532 0018 24000000 		.4byte	.LBB5
 6533 001c 40000000 		.4byte	.LBE5
 6534 0020 42000000 		.4byte	.LBB6
 6535 0024 56000000 		.4byte	.LBE6
 6536 0028 58000000 		.4byte	.LBB7
 6537 002c 6A000000 		.4byte	.LBE7
 6538 0030 6C000000 		.4byte	.LBB8
 6539 0034 80000000 		.4byte	.LBE8
ARM GAS  C:\Users\Phuong\AppData\Local\Temp\cceqeziA.s 			page 134


 6540 0038 00000000 		.4byte	0
 6541 003c 00000000 		.4byte	0
 6542 0040 0E000000 		.4byte	.LBB11
 6543 0044 3A000000 		.4byte	.LBE11
 6544 0048 42000000 		.4byte	.LBB12
 6545 004c 48000000 		.4byte	.LBE12
 6546 0050 00000000 		.4byte	0
 6547 0054 00000000 		.4byte	0
 6548 0058 00000000 		.4byte	.LFB6
 6549 005c 34000000 		.4byte	.LFE6
 6550 0060 00000000 		.4byte	.LFB7
 6551 0064 3C000000 		.4byte	.LFE7
 6552 0068 00000000 		.4byte	.LFB8
 6553 006c 4C000000 		.4byte	.LFE8
 6554 0070 00000000 		.4byte	.LFB1
 6555 0074 8A000000 		.4byte	.LFE1
 6556 0078 00000000 		.4byte	.LFB2
 6557 007c 96000000 		.4byte	.LFE2
 6558 0080 00000000 		.4byte	.LFB3
 6559 0084 48000000 		.4byte	.LFE3
 6560 0088 00000000 		.4byte	.LFB4
 6561 008c 4C000000 		.4byte	.LFE4
 6562 0090 00000000 		.4byte	.LFB5
 6563 0094 CA010000 		.4byte	.LFE5
 6564 0098 00000000 		.4byte	.LFB9
 6565 009c 40020000 		.4byte	.LFE9
 6566 00a0 00000000 		.4byte	.LFB10
 6567 00a4 0C010000 		.4byte	.LFE10
 6568 00a8 00000000 		.4byte	.LFB11
 6569 00ac 38010000 		.4byte	.LFE11
 6570 00b0 00000000 		.4byte	.LFB12
 6571 00b4 4C000000 		.4byte	.LFE12
 6572 00b8 00000000 		.4byte	.LFB13
 6573 00bc 88000000 		.4byte	.LFE13
 6574 00c0 00000000 		.4byte	.LFB14
 6575 00c4 88000000 		.4byte	.LFE14
 6576 00c8 00000000 		.4byte	0
 6577 00cc 00000000 		.4byte	0
 6578              		.section	.debug_line,"",%progbits
 6579              	.Ldebug_line0:
 6580 0000 35060000 		.section	.debug_str,"MS",%progbits,1
 6580      0200F401 
 6580      00000201 
 6580      FB0E0D00 
 6580      01010101 
 6581              	.LASF69:
 6582 0000 76616C75 		.ascii	"value\000"
 6582      6500
 6583              	.LASF38:
 6584 0006 6D617843 		.ascii	"maxCount\000"
 6584      6F756E74 
 6584      00
 6585              	.LASF43:
 6586 000f 73707269 		.ascii	"sprintf_s\000"
 6586      6E74665F 
 6586      7300
 6587              	.LASF12:
ARM GAS  C:\Users\Phuong\AppData\Local\Temp\cceqeziA.s 			page 135


 6588 0019 73697A65 		.ascii	"size_t\000"
 6588      5F7400
 6589              	.LASF20:
 6590 0020 4653545F 		.ascii	"FST_OVERFLOW\000"
 6590      4F564552 
 6590      464C4F57 
 6590      00
 6591              	.LASF14:
 6592 002d 76615F6C 		.ascii	"va_list\000"
 6592      69737400 
 6593              	.LASF65:
 6594 0035 636F7069 		.ascii	"copied_result\000"
 6594      65645F72 
 6594      6573756C 
 6594      7400
 6595              	.LASF64:
 6596 0043 736F7572 		.ascii	"source\000"
 6596      636500
 6597              	.LASF62:
 6598 004a 6D616C6C 		.ascii	"mallocAndStrcpy_s\000"
 6598      6F63416E 
 6598      64537472 
 6598      6370795F 
 6598      7300
 6599              	.LASF9:
 6600 005c 6C6F6E67 		.ascii	"long long unsigned int\000"
 6600      206C6F6E 
 6600      6720756E 
 6600      7369676E 
 6600      65642069 
 6601              	.LASF46:
 6602 0073 73747274 		.ascii	"strtoull_s\000"
 6602      6F756C6C 
 6602      5F7300
 6603              	.LASF36:
 6604 007e 73747263 		.ascii	"strcat_s\000"
 6604      61745F73 
 6604      00
 6605              	.LASF76:
 6606 0087 66726565 		.ascii	"free\000"
 6606      00
 6607              	.LASF1:
 6608 008c 6C6F6E67 		.ascii	"long long int\000"
 6608      206C6F6E 
 6608      6720696E 
 6608      7400
 6609              	.LASF3:
 6610 009a 7369676E 		.ascii	"signed char\000"
 6610      65642063 
 6610      68617200 
 6611              	.LASF24:
 6612 00a6 73756273 		.ascii	"subsrt\000"
 6612      727400
 6613              	.LASF50:
 6614 00ad 64696769 		.ascii	"digitVal\000"
 6614      7456616C 
 6614      00
ARM GAS  C:\Users\Phuong\AppData\Local\Temp\cceqeziA.s 			page 136


 6615              	.LASF73:
 6616 00b6 5F5F6572 		.ascii	"__errno\000"
 6616      726E6F00 
 6617              	.LASF7:
 6618 00be 6C6F6E67 		.ascii	"long int\000"
 6618      20696E74 
 6618      00
 6619              	.LASF74:
 6620 00c7 73747274 		.ascii	"strtol\000"
 6620      6F6C00
 6621              	.LASF39:
 6622 00ce 7472756E 		.ascii	"truncationFlag\000"
 6622      63617469 
 6622      6F6E466C 
 6622      616700
 6623              	.LASF80:
 6624 00dd 5F5F7661 		.ascii	"__va_list\000"
 6624      5F6C6973 
 6624      7400
 6625              	.LASF17:
 6626 00e7 4653545F 		.ascii	"FST_INFINITY\000"
 6626      494E4649 
 6626      4E495459 
 6626      00
 6627              	.LASF83:
 6628 00f4 6D656D63 		.ascii	"memcpy\000"
 6628      707900
 6629              	.LASF26:
 6630 00fb 6973496E 		.ascii	"isInfinity\000"
 6630      66696E69 
 6630      747900
 6631              	.LASF15:
 6632 0106 646F7562 		.ascii	"double\000"
 6632      6C6500
 6633              	.LASF48:
 6634 010d 76616C69 		.ascii	"validStr\000"
 6634      64537472 
 6634      00
 6635              	.LASF32:
 6636 0116 64737453 		.ascii	"dstSizeInBytes\000"
 6636      697A6549 
 6636      6E427974 
 6636      657300
 6637              	.LASF22:
 6638 0125 464C4F41 		.ascii	"FLOAT_STRING_TYPE\000"
 6638      545F5354 
 6638      52494E47 
 6638      5F545950 
 6638      4500
 6639              	.LASF66:
 6640 0137 74656D70 		.ascii	"temp\000"
 6640      00
 6641              	.LASF63:
 6642 013c 64657374 		.ascii	"destination\000"
 6642      696E6174 
 6642      696F6E00 
 6643              	.LASF40:
ARM GAS  C:\Users\Phuong\AppData\Local\Temp\cceqeziA.s 			page 137


 6644 0148 7372634C 		.ascii	"srcLength\000"
 6644      656E6774 
 6644      6800
 6645              	.LASF0:
 6646 0152 756E7369 		.ascii	"unsigned int\000"
 6646      676E6564 
 6646      20696E74 
 6646      00
 6647              	.LASF71:
 6648 015f 7374726C 		.ascii	"strlen\000"
 6648      656E00
 6649              	.LASF8:
 6650 0166 6C6F6E67 		.ascii	"long unsigned int\000"
 6650      20756E73 
 6650      69676E65 
 6650      6420696E 
 6650      7400
 6651              	.LASF55:
 6652 0178 756C6C49 		.ascii	"ullInteger\000"
 6652      6E746567 
 6652      657200
 6653              	.LASF78:
 6654 0183 536F7572 		.ascii	"Source\\azure_iot_sdk\\c-utility\\src\\crt_abstract"
 6654      63655C61 
 6654      7A757265 
 6654      5F696F74 
 6654      5F73646B 
 6655 01b2 696F6E73 		.ascii	"ions.c\000"
 6655      2E6300
 6656              	.LASF6:
 6657 01b9 73686F72 		.ascii	"short unsigned int\000"
 6657      7420756E 
 6657      7369676E 
 6657      65642069 
 6657      6E7400
 6658              	.LASF67:
 6659 01cc 756E7369 		.ascii	"unsignedIntToString\000"
 6659      676E6564 
 6659      496E7454 
 6659      6F537472 
 6659      696E6700 
 6660              	.LASF51:
 6661 01e0 73706C69 		.ascii	"splitFloatString\000"
 6661      74466C6F 
 6661      61745374 
 6661      72696E67 
 6661      00
 6662              	.LASF27:
 6663 01f1 656E6470 		.ascii	"endptr\000"
 6663      747200
 6664              	.LASF35:
 6665 01f8 62797465 		.ascii	"bytes_to_cpy\000"
 6665      735F746F 
 6665      5F637079 
 6665      00
 6666              	.LASF47:
 6667 0205 62617365 		.ascii	"base\000"
ARM GAS  C:\Users\Phuong\AppData\Local\Temp\cceqeziA.s 			page 138


 6667      00
 6668              	.LASF54:
 6669 020a 6578706F 		.ascii	"exponential\000"
 6669      6E656E74 
 6669      69616C00 
 6670              	.LASF33:
 6671 0216 64737453 		.ascii	"dstStrLen\000"
 6671      74724C65 
 6671      6E00
 6672              	.LASF10:
 6673 0220 73697A65 		.ascii	"sizetype\000"
 6673      74797065 
 6673      00
 6674              	.LASF2:
 6675 0229 6C6F6E67 		.ascii	"long double\000"
 6675      20646F75 
 6675      626C6500 
 6676              	.LASF79:
 6677 0235 433A5C55 		.ascii	"C:\\Users\\Phuong\\Documents\\PSoC Creator\\Dec0820"
 6677      73657273 
 6677      5C506875 
 6677      6F6E675C 
 6677      446F6375 
 6678 0263 31385C69 		.ascii	"18\\iot-sdk-iot-dev\\PSOC6_FreeRTOS+LwIP+MbedTLS_Az"
 6678      6F742D73 
 6678      646B2D69 
 6678      6F742D64 
 6678      65765C50 
 6679 0294 7572652D 		.ascii	"ure-IOT-Hub-Demo\\PSOC6_FreeRTOS+LwIP+MbedTLS_Azure"
 6679      494F542D 
 6679      4875622D 
 6679      44656D6F 
 6679      5C50534F 
 6680 02c6 2D494F54 		.ascii	"-IOT-Hub-Demo.cydsn\000"
 6680      2D487562 
 6680      2D44656D 
 6680      6F2E6379 
 6680      64736E00 
 6681              	.LASF13:
 6682 02da 5F5F676E 		.ascii	"__gnuc_va_list\000"
 6682      75635F76 
 6682      615F6C69 
 6682      737400
 6683              	.LASF70:
 6684 02e9 73697A65 		.ascii	"size_tToString\000"
 6684      5F74546F 
 6684      53747269 
 6684      6E6700
 6685              	.LASF41:
 6686 02f8 73747263 		.ascii	"strcpy_s\000"
 6686      70795F73 
 6686      00
 6687              	.LASF82:
 6688 0301 464C4F41 		.ascii	"FLOAT_STRING_TYPE_TAG\000"
 6688      545F5354 
 6688      52494E47 
 6688      5F545950 
ARM GAS  C:\Users\Phuong\AppData\Local\Temp\cceqeziA.s 			page 139


 6688      455F5441 
 6689              	.LASF16:
 6690 0317 666C6F61 		.ascii	"float\000"
 6690      7400
 6691              	.LASF72:
 6692 031d 76736E70 		.ascii	"vsnprintf\000"
 6692      72696E74 
 6692      6600
 6693              	.LASF30:
 6694 0327 69734E61 		.ascii	"isNaN\000"
 6694      4E00
 6695              	.LASF23:
 6696 032d 6E707472 		.ascii	"nptr\000"
 6696      00
 6697              	.LASF59:
 6698 0332 73746172 		.ascii	"startptr\000"
 6698      74707472 
 6698      00
 6699              	.LASF29:
 6700 033b 5F426F6F 		.ascii	"_Bool\000"
 6700      6C00
 6701              	.LASF4:
 6702 0341 756E7369 		.ascii	"unsigned char\000"
 6702      676E6564 
 6702      20636861 
 6702      7200
 6703              	.LASF34:
 6704 034f 7372635F 		.ascii	"src_len\000"
 6704      6C656E00 
 6705              	.LASF19:
 6706 0357 4653545F 		.ascii	"FST_NUMBER\000"
 6706      4E554D42 
 6706      455200
 6707              	.LASF5:
 6708 0362 73686F72 		.ascii	"short int\000"
 6708      7420696E 
 6708      7400
 6709              	.LASF57:
 6710 036c 696E7465 		.ascii	"integerSize\000"
 6710      67657253 
 6710      697A6500 
 6711              	.LASF75:
 6712 0378 6D616C6C 		.ascii	"malloc\000"
 6712      6F6300
 6713              	.LASF44:
 6714 037f 666F726D 		.ascii	"format\000"
 6714      617400
 6715              	.LASF21:
 6716 0386 4653545F 		.ascii	"FST_ERROR\000"
 6716      4552524F 
 6716      5200
 6717              	.LASF49:
 6718 0390 69734E65 		.ascii	"isNegative\000"
 6718      67617469 
 6718      766500
 6719              	.LASF37:
 6720 039b 7374726E 		.ascii	"strncpy_s\000"
ARM GAS  C:\Users\Phuong\AppData\Local\Temp\cceqeziA.s 			page 140


 6720      6370795F 
 6720      7300
 6721              	.LASF52:
 6722 03a5 7369676E 		.ascii	"signal\000"
 6722      616C00
 6723              	.LASF25:
 6724 03ac 73756273 		.ascii	"substricmp\000"
 6724      74726963 
 6724      6D7000
 6725              	.LASF77:
 6726 03b7 474E5520 		.ascii	"GNU C11 5.4.1 20160609 (release) [ARM/embedded-5-br"
 6726      43313120 
 6726      352E342E 
 6726      31203230 
 6726      31363036 
 6727 03ea 616E6368 		.ascii	"anch revision 237715] -mcpu=cortex-m0plus -mthumb -"
 6727      20726576 
 6727      6973696F 
 6727      6E203233 
 6727      37373135 
 6728 041d 67202D4F 		.ascii	"g -Og -ffunction-sections -ffat-lto-objects\000"
 6728      67202D66 
 6728      66756E63 
 6728      74696F6E 
 6728      2D736563 
 6729              	.LASF11:
 6730 0449 63686172 		.ascii	"char\000"
 6730      00
 6731              	.LASF60:
 6732 044e 73747274 		.ascii	"strtof_s\000"
 6732      6F665F73 
 6732      00
 6733              	.LASF53:
 6734 0457 66726163 		.ascii	"fraction\000"
 6734      74696F6E 
 6734      00
 6735              	.LASF81:
 6736 0460 5F5F6170 		.ascii	"__ap\000"
 6736      00
 6737              	.LASF42:
 6738 0465 6E656564 		.ascii	"neededBuffer\000"
 6738      65644275 
 6738      66666572 
 6738      00
 6739              	.LASF61:
 6740 0472 73747274 		.ascii	"strtold_s\000"
 6740      6F6C645F 
 6740      7300
 6741              	.LASF68:
 6742 047c 64657374 		.ascii	"destinationSize\000"
 6742      696E6174 
 6742      696F6E53 
 6742      697A6500 
 6743              	.LASF56:
 6744 048c 756C6C46 		.ascii	"ullFraction\000"
 6744      72616374 
 6744      696F6E00 
ARM GAS  C:\Users\Phuong\AppData\Local\Temp\cceqeziA.s 			page 141


 6745              	.LASF31:
 6746 0498 72756E6E 		.ascii	"runner\000"
 6746      657200
 6747              	.LASF58:
 6748 049f 66726163 		.ascii	"fractionSize\000"
 6748      74696F6E 
 6748      53697A65 
 6748      00
 6749              	.LASF45:
 6750 04ac 61726773 		.ascii	"args\000"
 6750      00
 6751              	.LASF18:
 6752 04b1 4653545F 		.ascii	"FST_NAN\000"
 6752      4E414E00 
 6753              	.LASF28:
 6754 04b9 72657375 		.ascii	"result\000"
 6754      6C7400
 6755              		.ident	"GCC: (GNU Tools for ARM Embedded Processors) 5.4.1 20160609 (release) [ARM/embedded-5-bran
