ARM GAS  C:\Users\Phuong\AppData\Local\Temp\ccMdlIAe.s 			page 1


   1              		.syntax unified
   2              		.cpu cortex-m0plus
   3              		.fpu softvfp
   4              		.eabi_attribute 20, 1
   5              		.eabi_attribute 21, 1
   6              		.eabi_attribute 23, 3
   7              		.eabi_attribute 24, 1
   8              		.eabi_attribute 25, 1
   9              		.eabi_attribute 26, 1
  10              		.eabi_attribute 30, 1
  11              		.eabi_attribute 34, 0
  12              		.eabi_attribute 18, 4
  13              		.thumb
  14              		.syntax unified
  15              		.file	"ctr_drbg.c"
  16              		.text
  17              	.Ltext0:
  18              		.cfi_sections	.debug_frame
  19              		.section	.text.ctr_drbg_self_test_entropy,"ax",%progbits
  20              		.align	2
  21              		.code	16
  22              		.thumb_func
  23              		.type	ctr_drbg_self_test_entropy, %function
  24              	ctr_drbg_self_test_entropy:
  25              	.LFB14:
  26              		.file 1 "Source\\mbedtls_open\\library\\ctr_drbg.c"
   1:Source\mbedtls_open\library/ctr_drbg.c **** /*
   2:Source\mbedtls_open\library/ctr_drbg.c ****  *  CTR_DRBG implementation based on AES-256 (NIST SP 800-90)
   3:Source\mbedtls_open\library/ctr_drbg.c ****  *
   4:Source\mbedtls_open\library/ctr_drbg.c ****  *  Copyright (C) 2006-2015, ARM Limited, All Rights Reserved
   5:Source\mbedtls_open\library/ctr_drbg.c ****  *  SPDX-License-Identifier: Apache-2.0
   6:Source\mbedtls_open\library/ctr_drbg.c ****  *
   7:Source\mbedtls_open\library/ctr_drbg.c ****  *  Licensed under the Apache License, Version 2.0 (the "License"); you may
   8:Source\mbedtls_open\library/ctr_drbg.c ****  *  not use this file except in compliance with the License.
   9:Source\mbedtls_open\library/ctr_drbg.c ****  *  You may obtain a copy of the License at
  10:Source\mbedtls_open\library/ctr_drbg.c ****  *
  11:Source\mbedtls_open\library/ctr_drbg.c ****  *  http://www.apache.org/licenses/LICENSE-2.0
  12:Source\mbedtls_open\library/ctr_drbg.c ****  *
  13:Source\mbedtls_open\library/ctr_drbg.c ****  *  Unless required by applicable law or agreed to in writing, software
  14:Source\mbedtls_open\library/ctr_drbg.c ****  *  distributed under the License is distributed on an "AS IS" BASIS, WITHOUT
  15:Source\mbedtls_open\library/ctr_drbg.c ****  *  WARRANTIES OR CONDITIONS OF ANY KIND, either express or implied.
  16:Source\mbedtls_open\library/ctr_drbg.c ****  *  See the License for the specific language governing permissions and
  17:Source\mbedtls_open\library/ctr_drbg.c ****  *  limitations under the License.
  18:Source\mbedtls_open\library/ctr_drbg.c ****  *
  19:Source\mbedtls_open\library/ctr_drbg.c ****  *  This file is part of mbed TLS (https://tls.mbed.org)
  20:Source\mbedtls_open\library/ctr_drbg.c ****  */
  21:Source\mbedtls_open\library/ctr_drbg.c **** /*
  22:Source\mbedtls_open\library/ctr_drbg.c ****  *  The NIST SP 800-90 DRBGs are described in the following publication.
  23:Source\mbedtls_open\library/ctr_drbg.c ****  *
  24:Source\mbedtls_open\library/ctr_drbg.c ****  *  http://csrc.nist.gov/publications/nistpubs/800-90/SP800-90revised_March2007.pdf
  25:Source\mbedtls_open\library/ctr_drbg.c ****  */
  26:Source\mbedtls_open\library/ctr_drbg.c **** 
  27:Source\mbedtls_open\library/ctr_drbg.c **** #if !defined(MBEDTLS_CONFIG_FILE)
  28:Source\mbedtls_open\library/ctr_drbg.c **** #include "mbedtls/config.h"
  29:Source\mbedtls_open\library/ctr_drbg.c **** #else
  30:Source\mbedtls_open\library/ctr_drbg.c **** #include MBEDTLS_CONFIG_FILE
  31:Source\mbedtls_open\library/ctr_drbg.c **** #endif
ARM GAS  C:\Users\Phuong\AppData\Local\Temp\ccMdlIAe.s 			page 2


  32:Source\mbedtls_open\library/ctr_drbg.c **** 
  33:Source\mbedtls_open\library/ctr_drbg.c **** #if defined(MBEDTLS_CTR_DRBG_C)
  34:Source\mbedtls_open\library/ctr_drbg.c **** 
  35:Source\mbedtls_open\library/ctr_drbg.c **** #include "mbedtls/ctr_drbg.h"
  36:Source\mbedtls_open\library/ctr_drbg.c **** #include "mbedtls/platform_util.h"
  37:Source\mbedtls_open\library/ctr_drbg.c **** 
  38:Source\mbedtls_open\library/ctr_drbg.c **** #include <string.h>
  39:Source\mbedtls_open\library/ctr_drbg.c **** 
  40:Source\mbedtls_open\library/ctr_drbg.c **** #if defined(MBEDTLS_FS_IO)
  41:Source\mbedtls_open\library/ctr_drbg.c **** #include <stdio.h>
  42:Source\mbedtls_open\library/ctr_drbg.c **** #endif
  43:Source\mbedtls_open\library/ctr_drbg.c **** 
  44:Source\mbedtls_open\library/ctr_drbg.c **** #if defined(MBEDTLS_SELF_TEST)
  45:Source\mbedtls_open\library/ctr_drbg.c **** #if defined(MBEDTLS_PLATFORM_C)
  46:Source\mbedtls_open\library/ctr_drbg.c **** #include "mbedtls/platform.h"
  47:Source\mbedtls_open\library/ctr_drbg.c **** #else
  48:Source\mbedtls_open\library/ctr_drbg.c **** #include <stdio.h>
  49:Source\mbedtls_open\library/ctr_drbg.c **** #define mbedtls_printf printf
  50:Source\mbedtls_open\library/ctr_drbg.c **** #endif /* MBEDTLS_PLATFORM_C */
  51:Source\mbedtls_open\library/ctr_drbg.c **** #endif /* MBEDTLS_SELF_TEST */
  52:Source\mbedtls_open\library/ctr_drbg.c **** 
  53:Source\mbedtls_open\library/ctr_drbg.c **** /*
  54:Source\mbedtls_open\library/ctr_drbg.c ****  * CTR_DRBG context initialization
  55:Source\mbedtls_open\library/ctr_drbg.c ****  */
  56:Source\mbedtls_open\library/ctr_drbg.c **** void mbedtls_ctr_drbg_init( mbedtls_ctr_drbg_context *ctx )
  57:Source\mbedtls_open\library/ctr_drbg.c **** {
  58:Source\mbedtls_open\library/ctr_drbg.c ****     memset( ctx, 0, sizeof( mbedtls_ctr_drbg_context ) );
  59:Source\mbedtls_open\library/ctr_drbg.c **** 
  60:Source\mbedtls_open\library/ctr_drbg.c **** #if defined(MBEDTLS_THREADING_C)
  61:Source\mbedtls_open\library/ctr_drbg.c ****     mbedtls_mutex_init( &ctx->mutex );
  62:Source\mbedtls_open\library/ctr_drbg.c **** #endif
  63:Source\mbedtls_open\library/ctr_drbg.c **** }
  64:Source\mbedtls_open\library/ctr_drbg.c **** 
  65:Source\mbedtls_open\library/ctr_drbg.c **** /*
  66:Source\mbedtls_open\library/ctr_drbg.c ****  * Non-public function wrapped by mbedtls_ctr_drbg_seed(). Necessary to allow
  67:Source\mbedtls_open\library/ctr_drbg.c ****  * NIST tests to succeed (which require known length fixed entropy)
  68:Source\mbedtls_open\library/ctr_drbg.c ****  */
  69:Source\mbedtls_open\library/ctr_drbg.c **** /* CTR_DRBG_Instantiate with derivation function (SP 800-90A &sect;10.2.1.3.2)
  70:Source\mbedtls_open\library/ctr_drbg.c ****  * mbedtls_ctr_drbg_seed_entropy_len(ctx, f_entropy, p_entropy,
  71:Source\mbedtls_open\library/ctr_drbg.c ****  *                                   custom, len, entropy_len)
  72:Source\mbedtls_open\library/ctr_drbg.c ****  * implements
  73:Source\mbedtls_open\library/ctr_drbg.c ****  * CTR_DRBG_Instantiate(entropy_input, nonce, personalization_string,
  74:Source\mbedtls_open\library/ctr_drbg.c ****  *                      security_strength) -> initial_working_state
  75:Source\mbedtls_open\library/ctr_drbg.c ****  * with inputs
  76:Source\mbedtls_open\library/ctr_drbg.c ****  *   custom[:len] = nonce || personalization_string
  77:Source\mbedtls_open\library/ctr_drbg.c ****  * where entropy_input comes from f_entropy for entropy_len bytes
  78:Source\mbedtls_open\library/ctr_drbg.c ****  * and with outputs
  79:Source\mbedtls_open\library/ctr_drbg.c ****  *   ctx = initial_working_state
  80:Source\mbedtls_open\library/ctr_drbg.c ****  */
  81:Source\mbedtls_open\library/ctr_drbg.c **** int mbedtls_ctr_drbg_seed_entropy_len(
  82:Source\mbedtls_open\library/ctr_drbg.c ****                    mbedtls_ctr_drbg_context *ctx,
  83:Source\mbedtls_open\library/ctr_drbg.c ****                    int (*f_entropy)(void *, unsigned char *, size_t),
  84:Source\mbedtls_open\library/ctr_drbg.c ****                    void *p_entropy,
  85:Source\mbedtls_open\library/ctr_drbg.c ****                    const unsigned char *custom,
  86:Source\mbedtls_open\library/ctr_drbg.c ****                    size_t len,
  87:Source\mbedtls_open\library/ctr_drbg.c ****                    size_t entropy_len )
  88:Source\mbedtls_open\library/ctr_drbg.c **** {
ARM GAS  C:\Users\Phuong\AppData\Local\Temp\ccMdlIAe.s 			page 3


  89:Source\mbedtls_open\library/ctr_drbg.c ****     int ret;
  90:Source\mbedtls_open\library/ctr_drbg.c ****     unsigned char key[MBEDTLS_CTR_DRBG_KEYSIZE];
  91:Source\mbedtls_open\library/ctr_drbg.c **** 
  92:Source\mbedtls_open\library/ctr_drbg.c ****     memset( key, 0, MBEDTLS_CTR_DRBG_KEYSIZE );
  93:Source\mbedtls_open\library/ctr_drbg.c **** 
  94:Source\mbedtls_open\library/ctr_drbg.c ****     mbedtls_aes_init( &ctx->aes_ctx );
  95:Source\mbedtls_open\library/ctr_drbg.c **** 
  96:Source\mbedtls_open\library/ctr_drbg.c ****     ctx->f_entropy = f_entropy;
  97:Source\mbedtls_open\library/ctr_drbg.c ****     ctx->p_entropy = p_entropy;
  98:Source\mbedtls_open\library/ctr_drbg.c **** 
  99:Source\mbedtls_open\library/ctr_drbg.c ****     ctx->entropy_len = entropy_len;
 100:Source\mbedtls_open\library/ctr_drbg.c ****     ctx->reseed_interval = MBEDTLS_CTR_DRBG_RESEED_INTERVAL;
 101:Source\mbedtls_open\library/ctr_drbg.c **** 
 102:Source\mbedtls_open\library/ctr_drbg.c ****     /*
 103:Source\mbedtls_open\library/ctr_drbg.c ****      * Initialize with an empty key
 104:Source\mbedtls_open\library/ctr_drbg.c ****      */
 105:Source\mbedtls_open\library/ctr_drbg.c ****     if( ( ret = mbedtls_aes_setkey_enc( &ctx->aes_ctx, key, MBEDTLS_CTR_DRBG_KEYBITS ) ) != 0 )
 106:Source\mbedtls_open\library/ctr_drbg.c ****     {
 107:Source\mbedtls_open\library/ctr_drbg.c ****         return( ret );
 108:Source\mbedtls_open\library/ctr_drbg.c ****     }
 109:Source\mbedtls_open\library/ctr_drbg.c **** 
 110:Source\mbedtls_open\library/ctr_drbg.c ****     if( ( ret = mbedtls_ctr_drbg_reseed( ctx, custom, len ) ) != 0 )
 111:Source\mbedtls_open\library/ctr_drbg.c ****     {
 112:Source\mbedtls_open\library/ctr_drbg.c ****         return( ret );
 113:Source\mbedtls_open\library/ctr_drbg.c ****     }
 114:Source\mbedtls_open\library/ctr_drbg.c ****     return( 0 );
 115:Source\mbedtls_open\library/ctr_drbg.c **** }
 116:Source\mbedtls_open\library/ctr_drbg.c **** 
 117:Source\mbedtls_open\library/ctr_drbg.c **** int mbedtls_ctr_drbg_seed( mbedtls_ctr_drbg_context *ctx,
 118:Source\mbedtls_open\library/ctr_drbg.c ****                    int (*f_entropy)(void *, unsigned char *, size_t),
 119:Source\mbedtls_open\library/ctr_drbg.c ****                    void *p_entropy,
 120:Source\mbedtls_open\library/ctr_drbg.c ****                    const unsigned char *custom,
 121:Source\mbedtls_open\library/ctr_drbg.c ****                    size_t len )
 122:Source\mbedtls_open\library/ctr_drbg.c **** {
 123:Source\mbedtls_open\library/ctr_drbg.c ****     return( mbedtls_ctr_drbg_seed_entropy_len( ctx, f_entropy, p_entropy, custom, len,
 124:Source\mbedtls_open\library/ctr_drbg.c ****                                        MBEDTLS_CTR_DRBG_ENTROPY_LEN ) );
 125:Source\mbedtls_open\library/ctr_drbg.c **** }
 126:Source\mbedtls_open\library/ctr_drbg.c **** 
 127:Source\mbedtls_open\library/ctr_drbg.c **** void mbedtls_ctr_drbg_free( mbedtls_ctr_drbg_context *ctx )
 128:Source\mbedtls_open\library/ctr_drbg.c **** {
 129:Source\mbedtls_open\library/ctr_drbg.c ****     if( ctx == NULL )
 130:Source\mbedtls_open\library/ctr_drbg.c ****         return;
 131:Source\mbedtls_open\library/ctr_drbg.c **** 
 132:Source\mbedtls_open\library/ctr_drbg.c **** #if defined(MBEDTLS_THREADING_C)
 133:Source\mbedtls_open\library/ctr_drbg.c ****     mbedtls_mutex_free( &ctx->mutex );
 134:Source\mbedtls_open\library/ctr_drbg.c **** #endif
 135:Source\mbedtls_open\library/ctr_drbg.c ****     mbedtls_aes_free( &ctx->aes_ctx );
 136:Source\mbedtls_open\library/ctr_drbg.c ****     mbedtls_platform_zeroize( ctx, sizeof( mbedtls_ctr_drbg_context ) );
 137:Source\mbedtls_open\library/ctr_drbg.c **** }
 138:Source\mbedtls_open\library/ctr_drbg.c **** 
 139:Source\mbedtls_open\library/ctr_drbg.c **** void mbedtls_ctr_drbg_set_prediction_resistance( mbedtls_ctr_drbg_context *ctx, int resistance )
 140:Source\mbedtls_open\library/ctr_drbg.c **** {
 141:Source\mbedtls_open\library/ctr_drbg.c ****     ctx->prediction_resistance = resistance;
 142:Source\mbedtls_open\library/ctr_drbg.c **** }
 143:Source\mbedtls_open\library/ctr_drbg.c **** 
 144:Source\mbedtls_open\library/ctr_drbg.c **** void mbedtls_ctr_drbg_set_entropy_len( mbedtls_ctr_drbg_context *ctx, size_t len )
 145:Source\mbedtls_open\library/ctr_drbg.c **** {
ARM GAS  C:\Users\Phuong\AppData\Local\Temp\ccMdlIAe.s 			page 4


 146:Source\mbedtls_open\library/ctr_drbg.c ****     ctx->entropy_len = len;
 147:Source\mbedtls_open\library/ctr_drbg.c **** }
 148:Source\mbedtls_open\library/ctr_drbg.c **** 
 149:Source\mbedtls_open\library/ctr_drbg.c **** void mbedtls_ctr_drbg_set_reseed_interval( mbedtls_ctr_drbg_context *ctx, int interval )
 150:Source\mbedtls_open\library/ctr_drbg.c **** {
 151:Source\mbedtls_open\library/ctr_drbg.c ****     ctx->reseed_interval = interval;
 152:Source\mbedtls_open\library/ctr_drbg.c **** }
 153:Source\mbedtls_open\library/ctr_drbg.c **** 
 154:Source\mbedtls_open\library/ctr_drbg.c **** static int block_cipher_df( unsigned char *output,
 155:Source\mbedtls_open\library/ctr_drbg.c ****                             const unsigned char *data, size_t data_len )
 156:Source\mbedtls_open\library/ctr_drbg.c **** {
 157:Source\mbedtls_open\library/ctr_drbg.c ****     unsigned char buf[MBEDTLS_CTR_DRBG_MAX_SEED_INPUT + MBEDTLS_CTR_DRBG_BLOCKSIZE + 16];
 158:Source\mbedtls_open\library/ctr_drbg.c ****     unsigned char tmp[MBEDTLS_CTR_DRBG_SEEDLEN];
 159:Source\mbedtls_open\library/ctr_drbg.c ****     unsigned char key[MBEDTLS_CTR_DRBG_KEYSIZE];
 160:Source\mbedtls_open\library/ctr_drbg.c ****     unsigned char chain[MBEDTLS_CTR_DRBG_BLOCKSIZE];
 161:Source\mbedtls_open\library/ctr_drbg.c ****     unsigned char *p, *iv;
 162:Source\mbedtls_open\library/ctr_drbg.c ****     mbedtls_aes_context aes_ctx;
 163:Source\mbedtls_open\library/ctr_drbg.c ****     int ret = 0;
 164:Source\mbedtls_open\library/ctr_drbg.c **** 
 165:Source\mbedtls_open\library/ctr_drbg.c ****     int i, j;
 166:Source\mbedtls_open\library/ctr_drbg.c ****     size_t buf_len, use_len;
 167:Source\mbedtls_open\library/ctr_drbg.c **** 
 168:Source\mbedtls_open\library/ctr_drbg.c ****     if( data_len > MBEDTLS_CTR_DRBG_MAX_SEED_INPUT )
 169:Source\mbedtls_open\library/ctr_drbg.c ****         return( MBEDTLS_ERR_CTR_DRBG_INPUT_TOO_BIG );
 170:Source\mbedtls_open\library/ctr_drbg.c **** 
 171:Source\mbedtls_open\library/ctr_drbg.c ****     memset( buf, 0, MBEDTLS_CTR_DRBG_MAX_SEED_INPUT + MBEDTLS_CTR_DRBG_BLOCKSIZE + 16 );
 172:Source\mbedtls_open\library/ctr_drbg.c ****     mbedtls_aes_init( &aes_ctx );
 173:Source\mbedtls_open\library/ctr_drbg.c **** 
 174:Source\mbedtls_open\library/ctr_drbg.c ****     /*
 175:Source\mbedtls_open\library/ctr_drbg.c ****      * Construct IV (16 bytes) and S in buffer
 176:Source\mbedtls_open\library/ctr_drbg.c ****      * IV = Counter (in 32-bits) padded to 16 with zeroes
 177:Source\mbedtls_open\library/ctr_drbg.c ****      * S = Length input string (in 32-bits) || Length of output (in 32-bits) ||
 178:Source\mbedtls_open\library/ctr_drbg.c ****      *     data || 0x80
 179:Source\mbedtls_open\library/ctr_drbg.c ****      *     (Total is padded to a multiple of 16-bytes with zeroes)
 180:Source\mbedtls_open\library/ctr_drbg.c ****      */
 181:Source\mbedtls_open\library/ctr_drbg.c ****     p = buf + MBEDTLS_CTR_DRBG_BLOCKSIZE;
 182:Source\mbedtls_open\library/ctr_drbg.c ****     *p++ = ( data_len >> 24 ) & 0xff;
 183:Source\mbedtls_open\library/ctr_drbg.c ****     *p++ = ( data_len >> 16 ) & 0xff;
 184:Source\mbedtls_open\library/ctr_drbg.c ****     *p++ = ( data_len >> 8  ) & 0xff;
 185:Source\mbedtls_open\library/ctr_drbg.c ****     *p++ = ( data_len       ) & 0xff;
 186:Source\mbedtls_open\library/ctr_drbg.c ****     p += 3;
 187:Source\mbedtls_open\library/ctr_drbg.c ****     *p++ = MBEDTLS_CTR_DRBG_SEEDLEN;
 188:Source\mbedtls_open\library/ctr_drbg.c ****     memcpy( p, data, data_len );
 189:Source\mbedtls_open\library/ctr_drbg.c ****     p[data_len] = 0x80;
 190:Source\mbedtls_open\library/ctr_drbg.c **** 
 191:Source\mbedtls_open\library/ctr_drbg.c ****     buf_len = MBEDTLS_CTR_DRBG_BLOCKSIZE + 8 + data_len + 1;
 192:Source\mbedtls_open\library/ctr_drbg.c **** 
 193:Source\mbedtls_open\library/ctr_drbg.c ****     for( i = 0; i < MBEDTLS_CTR_DRBG_KEYSIZE; i++ )
 194:Source\mbedtls_open\library/ctr_drbg.c ****         key[i] = i;
 195:Source\mbedtls_open\library/ctr_drbg.c **** 
 196:Source\mbedtls_open\library/ctr_drbg.c ****     if( ( ret = mbedtls_aes_setkey_enc( &aes_ctx, key, MBEDTLS_CTR_DRBG_KEYBITS ) ) != 0 )
 197:Source\mbedtls_open\library/ctr_drbg.c ****     {
 198:Source\mbedtls_open\library/ctr_drbg.c ****         goto exit;
 199:Source\mbedtls_open\library/ctr_drbg.c ****     }
 200:Source\mbedtls_open\library/ctr_drbg.c **** 
 201:Source\mbedtls_open\library/ctr_drbg.c ****     /*
 202:Source\mbedtls_open\library/ctr_drbg.c ****      * Reduce data to MBEDTLS_CTR_DRBG_SEEDLEN bytes of data
ARM GAS  C:\Users\Phuong\AppData\Local\Temp\ccMdlIAe.s 			page 5


 203:Source\mbedtls_open\library/ctr_drbg.c ****      */
 204:Source\mbedtls_open\library/ctr_drbg.c ****     for( j = 0; j < MBEDTLS_CTR_DRBG_SEEDLEN; j += MBEDTLS_CTR_DRBG_BLOCKSIZE )
 205:Source\mbedtls_open\library/ctr_drbg.c ****     {
 206:Source\mbedtls_open\library/ctr_drbg.c ****         p = buf;
 207:Source\mbedtls_open\library/ctr_drbg.c ****         memset( chain, 0, MBEDTLS_CTR_DRBG_BLOCKSIZE );
 208:Source\mbedtls_open\library/ctr_drbg.c ****         use_len = buf_len;
 209:Source\mbedtls_open\library/ctr_drbg.c **** 
 210:Source\mbedtls_open\library/ctr_drbg.c ****         while( use_len > 0 )
 211:Source\mbedtls_open\library/ctr_drbg.c ****         {
 212:Source\mbedtls_open\library/ctr_drbg.c ****             for( i = 0; i < MBEDTLS_CTR_DRBG_BLOCKSIZE; i++ )
 213:Source\mbedtls_open\library/ctr_drbg.c ****                 chain[i] ^= p[i];
 214:Source\mbedtls_open\library/ctr_drbg.c ****             p += MBEDTLS_CTR_DRBG_BLOCKSIZE;
 215:Source\mbedtls_open\library/ctr_drbg.c ****             use_len -= ( use_len >= MBEDTLS_CTR_DRBG_BLOCKSIZE ) ?
 216:Source\mbedtls_open\library/ctr_drbg.c ****                        MBEDTLS_CTR_DRBG_BLOCKSIZE : use_len;
 217:Source\mbedtls_open\library/ctr_drbg.c **** 
 218:Source\mbedtls_open\library/ctr_drbg.c ****             if( ( ret = mbedtls_aes_crypt_ecb( &aes_ctx, MBEDTLS_AES_ENCRYPT, chain, chain ) ) != 0
 219:Source\mbedtls_open\library/ctr_drbg.c ****             {
 220:Source\mbedtls_open\library/ctr_drbg.c ****                 goto exit;
 221:Source\mbedtls_open\library/ctr_drbg.c ****             }
 222:Source\mbedtls_open\library/ctr_drbg.c ****         }
 223:Source\mbedtls_open\library/ctr_drbg.c **** 
 224:Source\mbedtls_open\library/ctr_drbg.c ****         memcpy( tmp + j, chain, MBEDTLS_CTR_DRBG_BLOCKSIZE );
 225:Source\mbedtls_open\library/ctr_drbg.c **** 
 226:Source\mbedtls_open\library/ctr_drbg.c ****         /*
 227:Source\mbedtls_open\library/ctr_drbg.c ****          * Update IV
 228:Source\mbedtls_open\library/ctr_drbg.c ****          */
 229:Source\mbedtls_open\library/ctr_drbg.c ****         buf[3]++;
 230:Source\mbedtls_open\library/ctr_drbg.c ****     }
 231:Source\mbedtls_open\library/ctr_drbg.c **** 
 232:Source\mbedtls_open\library/ctr_drbg.c ****     /*
 233:Source\mbedtls_open\library/ctr_drbg.c ****      * Do final encryption with reduced data
 234:Source\mbedtls_open\library/ctr_drbg.c ****      */
 235:Source\mbedtls_open\library/ctr_drbg.c ****     if( ( ret = mbedtls_aes_setkey_enc( &aes_ctx, tmp, MBEDTLS_CTR_DRBG_KEYBITS ) ) != 0 )
 236:Source\mbedtls_open\library/ctr_drbg.c ****     {
 237:Source\mbedtls_open\library/ctr_drbg.c ****         goto exit;
 238:Source\mbedtls_open\library/ctr_drbg.c ****     }
 239:Source\mbedtls_open\library/ctr_drbg.c ****     iv = tmp + MBEDTLS_CTR_DRBG_KEYSIZE;
 240:Source\mbedtls_open\library/ctr_drbg.c ****     p = output;
 241:Source\mbedtls_open\library/ctr_drbg.c **** 
 242:Source\mbedtls_open\library/ctr_drbg.c ****     for( j = 0; j < MBEDTLS_CTR_DRBG_SEEDLEN; j += MBEDTLS_CTR_DRBG_BLOCKSIZE )
 243:Source\mbedtls_open\library/ctr_drbg.c ****     {
 244:Source\mbedtls_open\library/ctr_drbg.c ****         if( ( ret = mbedtls_aes_crypt_ecb( &aes_ctx, MBEDTLS_AES_ENCRYPT, iv, iv ) ) != 0 )
 245:Source\mbedtls_open\library/ctr_drbg.c ****         {
 246:Source\mbedtls_open\library/ctr_drbg.c ****             goto exit;
 247:Source\mbedtls_open\library/ctr_drbg.c ****         }
 248:Source\mbedtls_open\library/ctr_drbg.c ****         memcpy( p, iv, MBEDTLS_CTR_DRBG_BLOCKSIZE );
 249:Source\mbedtls_open\library/ctr_drbg.c ****         p += MBEDTLS_CTR_DRBG_BLOCKSIZE;
 250:Source\mbedtls_open\library/ctr_drbg.c ****     }
 251:Source\mbedtls_open\library/ctr_drbg.c **** exit:
 252:Source\mbedtls_open\library/ctr_drbg.c ****     mbedtls_aes_free( &aes_ctx );
 253:Source\mbedtls_open\library/ctr_drbg.c ****     /*
 254:Source\mbedtls_open\library/ctr_drbg.c ****     * tidy up the stack
 255:Source\mbedtls_open\library/ctr_drbg.c ****     */
 256:Source\mbedtls_open\library/ctr_drbg.c ****     mbedtls_platform_zeroize( buf, sizeof( buf ) );
 257:Source\mbedtls_open\library/ctr_drbg.c ****     mbedtls_platform_zeroize( tmp, sizeof( tmp ) );
 258:Source\mbedtls_open\library/ctr_drbg.c ****     mbedtls_platform_zeroize( key, sizeof( key ) );
 259:Source\mbedtls_open\library/ctr_drbg.c ****     mbedtls_platform_zeroize( chain, sizeof( chain ) );
ARM GAS  C:\Users\Phuong\AppData\Local\Temp\ccMdlIAe.s 			page 6


 260:Source\mbedtls_open\library/ctr_drbg.c ****     if( 0 != ret )
 261:Source\mbedtls_open\library/ctr_drbg.c ****     {
 262:Source\mbedtls_open\library/ctr_drbg.c ****         /*
 263:Source\mbedtls_open\library/ctr_drbg.c ****         * wipe partial seed from memory
 264:Source\mbedtls_open\library/ctr_drbg.c ****         */
 265:Source\mbedtls_open\library/ctr_drbg.c ****         mbedtls_platform_zeroize( output, MBEDTLS_CTR_DRBG_SEEDLEN );
 266:Source\mbedtls_open\library/ctr_drbg.c ****     }
 267:Source\mbedtls_open\library/ctr_drbg.c **** 
 268:Source\mbedtls_open\library/ctr_drbg.c ****     return( ret );
 269:Source\mbedtls_open\library/ctr_drbg.c **** }
 270:Source\mbedtls_open\library/ctr_drbg.c **** 
 271:Source\mbedtls_open\library/ctr_drbg.c **** /* CTR_DRBG_Update (SP 800-90A &sect;10.2.1.2)
 272:Source\mbedtls_open\library/ctr_drbg.c ****  * ctr_drbg_update_internal(ctx, provided_data)
 273:Source\mbedtls_open\library/ctr_drbg.c ****  * implements
 274:Source\mbedtls_open\library/ctr_drbg.c ****  * CTR_DRBG_Update(provided_data, Key, V)
 275:Source\mbedtls_open\library/ctr_drbg.c ****  * with inputs and outputs
 276:Source\mbedtls_open\library/ctr_drbg.c ****  *   ctx->aes_ctx = Key
 277:Source\mbedtls_open\library/ctr_drbg.c ****  *   ctx->counter = V
 278:Source\mbedtls_open\library/ctr_drbg.c ****  */
 279:Source\mbedtls_open\library/ctr_drbg.c **** static int ctr_drbg_update_internal( mbedtls_ctr_drbg_context *ctx,
 280:Source\mbedtls_open\library/ctr_drbg.c ****                               const unsigned char data[MBEDTLS_CTR_DRBG_SEEDLEN] )
 281:Source\mbedtls_open\library/ctr_drbg.c **** {
 282:Source\mbedtls_open\library/ctr_drbg.c ****     unsigned char tmp[MBEDTLS_CTR_DRBG_SEEDLEN];
 283:Source\mbedtls_open\library/ctr_drbg.c ****     unsigned char *p = tmp;
 284:Source\mbedtls_open\library/ctr_drbg.c ****     int i, j;
 285:Source\mbedtls_open\library/ctr_drbg.c ****     int ret = 0;
 286:Source\mbedtls_open\library/ctr_drbg.c **** 
 287:Source\mbedtls_open\library/ctr_drbg.c ****     memset( tmp, 0, MBEDTLS_CTR_DRBG_SEEDLEN );
 288:Source\mbedtls_open\library/ctr_drbg.c **** 
 289:Source\mbedtls_open\library/ctr_drbg.c ****     for( j = 0; j < MBEDTLS_CTR_DRBG_SEEDLEN; j += MBEDTLS_CTR_DRBG_BLOCKSIZE )
 290:Source\mbedtls_open\library/ctr_drbg.c ****     {
 291:Source\mbedtls_open\library/ctr_drbg.c ****         /*
 292:Source\mbedtls_open\library/ctr_drbg.c ****          * Increase counter
 293:Source\mbedtls_open\library/ctr_drbg.c ****          */
 294:Source\mbedtls_open\library/ctr_drbg.c ****         for( i = MBEDTLS_CTR_DRBG_BLOCKSIZE; i > 0; i-- )
 295:Source\mbedtls_open\library/ctr_drbg.c ****             if( ++ctx->counter[i - 1] != 0 )
 296:Source\mbedtls_open\library/ctr_drbg.c ****                 break;
 297:Source\mbedtls_open\library/ctr_drbg.c **** 
 298:Source\mbedtls_open\library/ctr_drbg.c ****         /*
 299:Source\mbedtls_open\library/ctr_drbg.c ****          * Crypt counter block
 300:Source\mbedtls_open\library/ctr_drbg.c ****          */
 301:Source\mbedtls_open\library/ctr_drbg.c ****         if( ( ret = mbedtls_aes_crypt_ecb( &ctx->aes_ctx, MBEDTLS_AES_ENCRYPT, ctx->counter, p ) ) 
 302:Source\mbedtls_open\library/ctr_drbg.c ****         {
 303:Source\mbedtls_open\library/ctr_drbg.c ****             return( ret );
 304:Source\mbedtls_open\library/ctr_drbg.c ****         }
 305:Source\mbedtls_open\library/ctr_drbg.c **** 
 306:Source\mbedtls_open\library/ctr_drbg.c ****         p += MBEDTLS_CTR_DRBG_BLOCKSIZE;
 307:Source\mbedtls_open\library/ctr_drbg.c ****     }
 308:Source\mbedtls_open\library/ctr_drbg.c **** 
 309:Source\mbedtls_open\library/ctr_drbg.c ****     for( i = 0; i < MBEDTLS_CTR_DRBG_SEEDLEN; i++ )
 310:Source\mbedtls_open\library/ctr_drbg.c ****         tmp[i] ^= data[i];
 311:Source\mbedtls_open\library/ctr_drbg.c **** 
 312:Source\mbedtls_open\library/ctr_drbg.c ****     /*
 313:Source\mbedtls_open\library/ctr_drbg.c ****      * Update key and counter
 314:Source\mbedtls_open\library/ctr_drbg.c ****      */
 315:Source\mbedtls_open\library/ctr_drbg.c ****     if( ( ret = mbedtls_aes_setkey_enc( &ctx->aes_ctx, tmp, MBEDTLS_CTR_DRBG_KEYBITS ) ) != 0 )
 316:Source\mbedtls_open\library/ctr_drbg.c ****     {
ARM GAS  C:\Users\Phuong\AppData\Local\Temp\ccMdlIAe.s 			page 7


 317:Source\mbedtls_open\library/ctr_drbg.c ****         return( ret );
 318:Source\mbedtls_open\library/ctr_drbg.c ****     }
 319:Source\mbedtls_open\library/ctr_drbg.c ****     memcpy( ctx->counter, tmp + MBEDTLS_CTR_DRBG_KEYSIZE, MBEDTLS_CTR_DRBG_BLOCKSIZE );
 320:Source\mbedtls_open\library/ctr_drbg.c **** 
 321:Source\mbedtls_open\library/ctr_drbg.c ****     return( 0 );
 322:Source\mbedtls_open\library/ctr_drbg.c **** }
 323:Source\mbedtls_open\library/ctr_drbg.c **** 
 324:Source\mbedtls_open\library/ctr_drbg.c **** /* CTR_DRBG_Instantiate with derivation function (SP 800-90A &sect;10.2.1.3.2)
 325:Source\mbedtls_open\library/ctr_drbg.c ****  * mbedtls_ctr_drbg_update(ctx, additional, add_len)
 326:Source\mbedtls_open\library/ctr_drbg.c ****  * implements
 327:Source\mbedtls_open\library/ctr_drbg.c ****  * CTR_DRBG_Instantiate(entropy_input, nonce, personalization_string,
 328:Source\mbedtls_open\library/ctr_drbg.c ****  *                      security_strength) -> initial_working_state
 329:Source\mbedtls_open\library/ctr_drbg.c ****  * with inputs
 330:Source\mbedtls_open\library/ctr_drbg.c ****  *   ctx->counter = all-bits-0
 331:Source\mbedtls_open\library/ctr_drbg.c ****  *   ctx->aes_ctx = context from all-bits-0 key
 332:Source\mbedtls_open\library/ctr_drbg.c ****  *   additional[:add_len] = entropy_input || nonce || personalization_string
 333:Source\mbedtls_open\library/ctr_drbg.c ****  * and with outputs
 334:Source\mbedtls_open\library/ctr_drbg.c ****  *   ctx = initial_working_state
 335:Source\mbedtls_open\library/ctr_drbg.c ****  */
 336:Source\mbedtls_open\library/ctr_drbg.c **** void mbedtls_ctr_drbg_update( mbedtls_ctr_drbg_context *ctx,
 337:Source\mbedtls_open\library/ctr_drbg.c ****                       const unsigned char *additional, size_t add_len )
 338:Source\mbedtls_open\library/ctr_drbg.c **** {
 339:Source\mbedtls_open\library/ctr_drbg.c ****     unsigned char add_input[MBEDTLS_CTR_DRBG_SEEDLEN];
 340:Source\mbedtls_open\library/ctr_drbg.c **** 
 341:Source\mbedtls_open\library/ctr_drbg.c ****     if( add_len > 0 )
 342:Source\mbedtls_open\library/ctr_drbg.c ****     {
 343:Source\mbedtls_open\library/ctr_drbg.c ****         /* MAX_INPUT would be more logical here, but we have to match
 344:Source\mbedtls_open\library/ctr_drbg.c ****          * block_cipher_df()'s limits since we can't propagate errors */
 345:Source\mbedtls_open\library/ctr_drbg.c ****         if( add_len > MBEDTLS_CTR_DRBG_MAX_SEED_INPUT )
 346:Source\mbedtls_open\library/ctr_drbg.c ****             add_len = MBEDTLS_CTR_DRBG_MAX_SEED_INPUT;
 347:Source\mbedtls_open\library/ctr_drbg.c **** 
 348:Source\mbedtls_open\library/ctr_drbg.c ****         block_cipher_df( add_input, additional, add_len );
 349:Source\mbedtls_open\library/ctr_drbg.c ****         ctr_drbg_update_internal( ctx, add_input );
 350:Source\mbedtls_open\library/ctr_drbg.c ****     }
 351:Source\mbedtls_open\library/ctr_drbg.c **** }
 352:Source\mbedtls_open\library/ctr_drbg.c **** 
 353:Source\mbedtls_open\library/ctr_drbg.c **** /* CTR_DRBG_Reseed with derivation function (SP 800-90A &sect;10.2.1.4.2)
 354:Source\mbedtls_open\library/ctr_drbg.c ****  * mbedtls_ctr_drbg_reseed(ctx, additional, len)
 355:Source\mbedtls_open\library/ctr_drbg.c ****  * implements
 356:Source\mbedtls_open\library/ctr_drbg.c ****  * CTR_DRBG_Reseed(working_state, entropy_input, additional_input)
 357:Source\mbedtls_open\library/ctr_drbg.c ****  *                -> new_working_state
 358:Source\mbedtls_open\library/ctr_drbg.c ****  * with inputs
 359:Source\mbedtls_open\library/ctr_drbg.c ****  *   ctx contains working_state
 360:Source\mbedtls_open\library/ctr_drbg.c ****  *   additional[:len] = additional_input
 361:Source\mbedtls_open\library/ctr_drbg.c ****  * and entropy_input comes from calling ctx->f_entropy
 362:Source\mbedtls_open\library/ctr_drbg.c ****  * and with output
 363:Source\mbedtls_open\library/ctr_drbg.c ****  *   ctx contains new_working_state
 364:Source\mbedtls_open\library/ctr_drbg.c ****  */
 365:Source\mbedtls_open\library/ctr_drbg.c **** int mbedtls_ctr_drbg_reseed( mbedtls_ctr_drbg_context *ctx,
 366:Source\mbedtls_open\library/ctr_drbg.c ****                      const unsigned char *additional, size_t len )
 367:Source\mbedtls_open\library/ctr_drbg.c **** {
 368:Source\mbedtls_open\library/ctr_drbg.c ****     unsigned char seed[MBEDTLS_CTR_DRBG_MAX_SEED_INPUT];
 369:Source\mbedtls_open\library/ctr_drbg.c ****     size_t seedlen = 0;
 370:Source\mbedtls_open\library/ctr_drbg.c ****     int ret;
 371:Source\mbedtls_open\library/ctr_drbg.c **** 
 372:Source\mbedtls_open\library/ctr_drbg.c ****     if( ctx->entropy_len > MBEDTLS_CTR_DRBG_MAX_SEED_INPUT ||
 373:Source\mbedtls_open\library/ctr_drbg.c ****         len > MBEDTLS_CTR_DRBG_MAX_SEED_INPUT - ctx->entropy_len )
ARM GAS  C:\Users\Phuong\AppData\Local\Temp\ccMdlIAe.s 			page 8


 374:Source\mbedtls_open\library/ctr_drbg.c ****         return( MBEDTLS_ERR_CTR_DRBG_INPUT_TOO_BIG );
 375:Source\mbedtls_open\library/ctr_drbg.c **** 
 376:Source\mbedtls_open\library/ctr_drbg.c ****     memset( seed, 0, MBEDTLS_CTR_DRBG_MAX_SEED_INPUT );
 377:Source\mbedtls_open\library/ctr_drbg.c **** 
 378:Source\mbedtls_open\library/ctr_drbg.c ****     /*
 379:Source\mbedtls_open\library/ctr_drbg.c ****      * Gather entropy_len bytes of entropy to seed state
 380:Source\mbedtls_open\library/ctr_drbg.c ****      */
 381:Source\mbedtls_open\library/ctr_drbg.c ****     if( 0 != ctx->f_entropy( ctx->p_entropy, seed,
 382:Source\mbedtls_open\library/ctr_drbg.c ****                              ctx->entropy_len ) )
 383:Source\mbedtls_open\library/ctr_drbg.c ****     {
 384:Source\mbedtls_open\library/ctr_drbg.c ****         return( MBEDTLS_ERR_CTR_DRBG_ENTROPY_SOURCE_FAILED );
 385:Source\mbedtls_open\library/ctr_drbg.c ****     }
 386:Source\mbedtls_open\library/ctr_drbg.c **** 
 387:Source\mbedtls_open\library/ctr_drbg.c ****     seedlen += ctx->entropy_len;
 388:Source\mbedtls_open\library/ctr_drbg.c **** 
 389:Source\mbedtls_open\library/ctr_drbg.c ****     /*
 390:Source\mbedtls_open\library/ctr_drbg.c ****      * Add additional data
 391:Source\mbedtls_open\library/ctr_drbg.c ****      */
 392:Source\mbedtls_open\library/ctr_drbg.c ****     if( additional && len )
 393:Source\mbedtls_open\library/ctr_drbg.c ****     {
 394:Source\mbedtls_open\library/ctr_drbg.c ****         memcpy( seed + seedlen, additional, len );
 395:Source\mbedtls_open\library/ctr_drbg.c ****         seedlen += len;
 396:Source\mbedtls_open\library/ctr_drbg.c ****     }
 397:Source\mbedtls_open\library/ctr_drbg.c **** 
 398:Source\mbedtls_open\library/ctr_drbg.c ****     /*
 399:Source\mbedtls_open\library/ctr_drbg.c ****      * Reduce to 384 bits
 400:Source\mbedtls_open\library/ctr_drbg.c ****      */
 401:Source\mbedtls_open\library/ctr_drbg.c ****     if( ( ret = block_cipher_df( seed, seed, seedlen ) ) != 0 )
 402:Source\mbedtls_open\library/ctr_drbg.c ****     {
 403:Source\mbedtls_open\library/ctr_drbg.c ****         return( ret );
 404:Source\mbedtls_open\library/ctr_drbg.c ****     }
 405:Source\mbedtls_open\library/ctr_drbg.c **** 
 406:Source\mbedtls_open\library/ctr_drbg.c ****     /*
 407:Source\mbedtls_open\library/ctr_drbg.c ****      * Update state
 408:Source\mbedtls_open\library/ctr_drbg.c ****      */
 409:Source\mbedtls_open\library/ctr_drbg.c ****     if( ( ret = ctr_drbg_update_internal( ctx, seed ) ) != 0 )
 410:Source\mbedtls_open\library/ctr_drbg.c ****     {
 411:Source\mbedtls_open\library/ctr_drbg.c ****         return( ret );
 412:Source\mbedtls_open\library/ctr_drbg.c ****     }
 413:Source\mbedtls_open\library/ctr_drbg.c ****     ctx->reseed_counter = 1;
 414:Source\mbedtls_open\library/ctr_drbg.c **** 
 415:Source\mbedtls_open\library/ctr_drbg.c ****     return( 0 );
 416:Source\mbedtls_open\library/ctr_drbg.c **** }
 417:Source\mbedtls_open\library/ctr_drbg.c **** 
 418:Source\mbedtls_open\library/ctr_drbg.c **** /* CTR_DRBG_Generate with derivation function (SP 800-90A &sect;10.2.1.5.2)
 419:Source\mbedtls_open\library/ctr_drbg.c ****  * mbedtls_ctr_drbg_random_with_add(ctx, output, output_len, additional, add_len)
 420:Source\mbedtls_open\library/ctr_drbg.c ****  * implements
 421:Source\mbedtls_open\library/ctr_drbg.c ****  * CTR_DRBG_Reseed(working_state, entropy_input, additional[:add_len])
 422:Source\mbedtls_open\library/ctr_drbg.c ****  *                -> working_state_after_reseed
 423:Source\mbedtls_open\library/ctr_drbg.c ****  *                if required, then
 424:Source\mbedtls_open\library/ctr_drbg.c ****  * CTR_DRBG_Generate(working_state_after_reseed,
 425:Source\mbedtls_open\library/ctr_drbg.c ****  *                   requested_number_of_bits, additional_input)
 426:Source\mbedtls_open\library/ctr_drbg.c ****  *                -> status, returned_bits, new_working_state
 427:Source\mbedtls_open\library/ctr_drbg.c ****  * with inputs
 428:Source\mbedtls_open\library/ctr_drbg.c ****  *   ctx contains working_state
 429:Source\mbedtls_open\library/ctr_drbg.c ****  *   requested_number_of_bits = 8 * output_len
 430:Source\mbedtls_open\library/ctr_drbg.c ****  *   additional[:add_len] = additional_input
ARM GAS  C:\Users\Phuong\AppData\Local\Temp\ccMdlIAe.s 			page 9


 431:Source\mbedtls_open\library/ctr_drbg.c ****  * and entropy_input comes from calling ctx->f_entropy
 432:Source\mbedtls_open\library/ctr_drbg.c ****  * and with outputs
 433:Source\mbedtls_open\library/ctr_drbg.c ****  *   status = SUCCESS (this function does the reseed internally)
 434:Source\mbedtls_open\library/ctr_drbg.c ****  *   returned_bits = output[:output_len]
 435:Source\mbedtls_open\library/ctr_drbg.c ****  *   ctx contains new_working_state
 436:Source\mbedtls_open\library/ctr_drbg.c ****  */
 437:Source\mbedtls_open\library/ctr_drbg.c **** int mbedtls_ctr_drbg_random_with_add( void *p_rng,
 438:Source\mbedtls_open\library/ctr_drbg.c ****                               unsigned char *output, size_t output_len,
 439:Source\mbedtls_open\library/ctr_drbg.c ****                               const unsigned char *additional, size_t add_len )
 440:Source\mbedtls_open\library/ctr_drbg.c **** {
 441:Source\mbedtls_open\library/ctr_drbg.c ****     int ret = 0;
 442:Source\mbedtls_open\library/ctr_drbg.c ****     mbedtls_ctr_drbg_context *ctx = (mbedtls_ctr_drbg_context *) p_rng;
 443:Source\mbedtls_open\library/ctr_drbg.c ****     unsigned char add_input[MBEDTLS_CTR_DRBG_SEEDLEN];
 444:Source\mbedtls_open\library/ctr_drbg.c ****     unsigned char *p = output;
 445:Source\mbedtls_open\library/ctr_drbg.c ****     unsigned char tmp[MBEDTLS_CTR_DRBG_BLOCKSIZE];
 446:Source\mbedtls_open\library/ctr_drbg.c ****     int i;
 447:Source\mbedtls_open\library/ctr_drbg.c ****     size_t use_len;
 448:Source\mbedtls_open\library/ctr_drbg.c **** 
 449:Source\mbedtls_open\library/ctr_drbg.c ****     if( output_len > MBEDTLS_CTR_DRBG_MAX_REQUEST )
 450:Source\mbedtls_open\library/ctr_drbg.c ****         return( MBEDTLS_ERR_CTR_DRBG_REQUEST_TOO_BIG );
 451:Source\mbedtls_open\library/ctr_drbg.c **** 
 452:Source\mbedtls_open\library/ctr_drbg.c ****     if( add_len > MBEDTLS_CTR_DRBG_MAX_INPUT )
 453:Source\mbedtls_open\library/ctr_drbg.c ****         return( MBEDTLS_ERR_CTR_DRBG_INPUT_TOO_BIG );
 454:Source\mbedtls_open\library/ctr_drbg.c **** 
 455:Source\mbedtls_open\library/ctr_drbg.c ****     memset( add_input, 0, MBEDTLS_CTR_DRBG_SEEDLEN );
 456:Source\mbedtls_open\library/ctr_drbg.c **** 
 457:Source\mbedtls_open\library/ctr_drbg.c ****     if( ctx->reseed_counter > ctx->reseed_interval ||
 458:Source\mbedtls_open\library/ctr_drbg.c ****         ctx->prediction_resistance )
 459:Source\mbedtls_open\library/ctr_drbg.c ****     {
 460:Source\mbedtls_open\library/ctr_drbg.c ****         if( ( ret = mbedtls_ctr_drbg_reseed( ctx, additional, add_len ) ) != 0 )
 461:Source\mbedtls_open\library/ctr_drbg.c ****         {
 462:Source\mbedtls_open\library/ctr_drbg.c ****             return( ret );
 463:Source\mbedtls_open\library/ctr_drbg.c ****         }
 464:Source\mbedtls_open\library/ctr_drbg.c ****         add_len = 0;
 465:Source\mbedtls_open\library/ctr_drbg.c ****     }
 466:Source\mbedtls_open\library/ctr_drbg.c **** 
 467:Source\mbedtls_open\library/ctr_drbg.c ****     if( add_len > 0 )
 468:Source\mbedtls_open\library/ctr_drbg.c ****     {
 469:Source\mbedtls_open\library/ctr_drbg.c ****         if( ( ret = block_cipher_df( add_input, additional, add_len ) ) != 0 )
 470:Source\mbedtls_open\library/ctr_drbg.c ****         {
 471:Source\mbedtls_open\library/ctr_drbg.c ****             return( ret );
 472:Source\mbedtls_open\library/ctr_drbg.c ****         }
 473:Source\mbedtls_open\library/ctr_drbg.c ****         if( ( ret = ctr_drbg_update_internal( ctx, add_input ) ) != 0 )
 474:Source\mbedtls_open\library/ctr_drbg.c ****         {
 475:Source\mbedtls_open\library/ctr_drbg.c ****             return( ret );
 476:Source\mbedtls_open\library/ctr_drbg.c ****         }
 477:Source\mbedtls_open\library/ctr_drbg.c ****     }
 478:Source\mbedtls_open\library/ctr_drbg.c **** 
 479:Source\mbedtls_open\library/ctr_drbg.c ****     while( output_len > 0 )
 480:Source\mbedtls_open\library/ctr_drbg.c ****     {
 481:Source\mbedtls_open\library/ctr_drbg.c ****         /*
 482:Source\mbedtls_open\library/ctr_drbg.c ****          * Increase counter
 483:Source\mbedtls_open\library/ctr_drbg.c ****          */
 484:Source\mbedtls_open\library/ctr_drbg.c ****         for( i = MBEDTLS_CTR_DRBG_BLOCKSIZE; i > 0; i-- )
 485:Source\mbedtls_open\library/ctr_drbg.c ****             if( ++ctx->counter[i - 1] != 0 )
 486:Source\mbedtls_open\library/ctr_drbg.c ****                 break;
 487:Source\mbedtls_open\library/ctr_drbg.c **** 
ARM GAS  C:\Users\Phuong\AppData\Local\Temp\ccMdlIAe.s 			page 10


 488:Source\mbedtls_open\library/ctr_drbg.c ****         /*
 489:Source\mbedtls_open\library/ctr_drbg.c ****          * Crypt counter block
 490:Source\mbedtls_open\library/ctr_drbg.c ****          */
 491:Source\mbedtls_open\library/ctr_drbg.c ****         if( ( ret = mbedtls_aes_crypt_ecb( &ctx->aes_ctx, MBEDTLS_AES_ENCRYPT, ctx->counter, tmp ) 
 492:Source\mbedtls_open\library/ctr_drbg.c ****         {
 493:Source\mbedtls_open\library/ctr_drbg.c ****             return( ret );
 494:Source\mbedtls_open\library/ctr_drbg.c ****         }
 495:Source\mbedtls_open\library/ctr_drbg.c **** 
 496:Source\mbedtls_open\library/ctr_drbg.c ****         use_len = ( output_len > MBEDTLS_CTR_DRBG_BLOCKSIZE ) ? MBEDTLS_CTR_DRBG_BLOCKSIZE :
 497:Source\mbedtls_open\library/ctr_drbg.c ****                                                        output_len;
 498:Source\mbedtls_open\library/ctr_drbg.c ****         /*
 499:Source\mbedtls_open\library/ctr_drbg.c ****          * Copy random block to destination
 500:Source\mbedtls_open\library/ctr_drbg.c ****          */
 501:Source\mbedtls_open\library/ctr_drbg.c ****         memcpy( p, tmp, use_len );
 502:Source\mbedtls_open\library/ctr_drbg.c ****         p += use_len;
 503:Source\mbedtls_open\library/ctr_drbg.c ****         output_len -= use_len;
 504:Source\mbedtls_open\library/ctr_drbg.c ****     }
 505:Source\mbedtls_open\library/ctr_drbg.c **** 
 506:Source\mbedtls_open\library/ctr_drbg.c ****     if( ( ret = ctr_drbg_update_internal( ctx, add_input ) ) != 0 )
 507:Source\mbedtls_open\library/ctr_drbg.c ****     {
 508:Source\mbedtls_open\library/ctr_drbg.c ****         return( ret );
 509:Source\mbedtls_open\library/ctr_drbg.c ****     }
 510:Source\mbedtls_open\library/ctr_drbg.c **** 
 511:Source\mbedtls_open\library/ctr_drbg.c ****     ctx->reseed_counter++;
 512:Source\mbedtls_open\library/ctr_drbg.c **** 
 513:Source\mbedtls_open\library/ctr_drbg.c ****     return( 0 );
 514:Source\mbedtls_open\library/ctr_drbg.c **** }
 515:Source\mbedtls_open\library/ctr_drbg.c **** 
 516:Source\mbedtls_open\library/ctr_drbg.c **** int mbedtls_ctr_drbg_random( void *p_rng, unsigned char *output, size_t output_len )
 517:Source\mbedtls_open\library/ctr_drbg.c **** {
 518:Source\mbedtls_open\library/ctr_drbg.c ****     int ret;
 519:Source\mbedtls_open\library/ctr_drbg.c ****     mbedtls_ctr_drbg_context *ctx = (mbedtls_ctr_drbg_context *) p_rng;
 520:Source\mbedtls_open\library/ctr_drbg.c **** 
 521:Source\mbedtls_open\library/ctr_drbg.c **** #if defined(MBEDTLS_THREADING_C)
 522:Source\mbedtls_open\library/ctr_drbg.c ****     if( ( ret = mbedtls_mutex_lock( &ctx->mutex ) ) != 0 )
 523:Source\mbedtls_open\library/ctr_drbg.c ****         return( ret );
 524:Source\mbedtls_open\library/ctr_drbg.c **** #endif
 525:Source\mbedtls_open\library/ctr_drbg.c **** 
 526:Source\mbedtls_open\library/ctr_drbg.c ****     ret = mbedtls_ctr_drbg_random_with_add( ctx, output, output_len, NULL, 0 );
 527:Source\mbedtls_open\library/ctr_drbg.c **** 
 528:Source\mbedtls_open\library/ctr_drbg.c **** #if defined(MBEDTLS_THREADING_C)
 529:Source\mbedtls_open\library/ctr_drbg.c ****     if( mbedtls_mutex_unlock( &ctx->mutex ) != 0 )
 530:Source\mbedtls_open\library/ctr_drbg.c ****         return( MBEDTLS_ERR_THREADING_MUTEX_ERROR );
 531:Source\mbedtls_open\library/ctr_drbg.c **** #endif
 532:Source\mbedtls_open\library/ctr_drbg.c **** 
 533:Source\mbedtls_open\library/ctr_drbg.c ****     return( ret );
 534:Source\mbedtls_open\library/ctr_drbg.c **** }
 535:Source\mbedtls_open\library/ctr_drbg.c **** 
 536:Source\mbedtls_open\library/ctr_drbg.c **** #if defined(MBEDTLS_FS_IO)
 537:Source\mbedtls_open\library/ctr_drbg.c **** int mbedtls_ctr_drbg_write_seed_file( mbedtls_ctr_drbg_context *ctx, const char *path )
 538:Source\mbedtls_open\library/ctr_drbg.c **** {
 539:Source\mbedtls_open\library/ctr_drbg.c ****     int ret = MBEDTLS_ERR_CTR_DRBG_FILE_IO_ERROR;
 540:Source\mbedtls_open\library/ctr_drbg.c ****     FILE *f;
 541:Source\mbedtls_open\library/ctr_drbg.c ****     unsigned char buf[ MBEDTLS_CTR_DRBG_MAX_INPUT ];
 542:Source\mbedtls_open\library/ctr_drbg.c **** 
 543:Source\mbedtls_open\library/ctr_drbg.c ****     if( ( f = fopen( path, "wb" ) ) == NULL )
 544:Source\mbedtls_open\library/ctr_drbg.c ****         return( MBEDTLS_ERR_CTR_DRBG_FILE_IO_ERROR );
ARM GAS  C:\Users\Phuong\AppData\Local\Temp\ccMdlIAe.s 			page 11


 545:Source\mbedtls_open\library/ctr_drbg.c **** 
 546:Source\mbedtls_open\library/ctr_drbg.c ****     if( ( ret = mbedtls_ctr_drbg_random( ctx, buf, MBEDTLS_CTR_DRBG_MAX_INPUT ) ) != 0 )
 547:Source\mbedtls_open\library/ctr_drbg.c ****         goto exit;
 548:Source\mbedtls_open\library/ctr_drbg.c **** 
 549:Source\mbedtls_open\library/ctr_drbg.c ****     if( fwrite( buf, 1, MBEDTLS_CTR_DRBG_MAX_INPUT, f ) != MBEDTLS_CTR_DRBG_MAX_INPUT )
 550:Source\mbedtls_open\library/ctr_drbg.c ****         ret = MBEDTLS_ERR_CTR_DRBG_FILE_IO_ERROR;
 551:Source\mbedtls_open\library/ctr_drbg.c ****     else
 552:Source\mbedtls_open\library/ctr_drbg.c ****         ret = 0;
 553:Source\mbedtls_open\library/ctr_drbg.c **** 
 554:Source\mbedtls_open\library/ctr_drbg.c **** exit:
 555:Source\mbedtls_open\library/ctr_drbg.c ****     mbedtls_platform_zeroize( buf, sizeof( buf ) );
 556:Source\mbedtls_open\library/ctr_drbg.c **** 
 557:Source\mbedtls_open\library/ctr_drbg.c ****     fclose( f );
 558:Source\mbedtls_open\library/ctr_drbg.c ****     return( ret );
 559:Source\mbedtls_open\library/ctr_drbg.c **** }
 560:Source\mbedtls_open\library/ctr_drbg.c **** 
 561:Source\mbedtls_open\library/ctr_drbg.c **** int mbedtls_ctr_drbg_update_seed_file( mbedtls_ctr_drbg_context *ctx, const char *path )
 562:Source\mbedtls_open\library/ctr_drbg.c **** {
 563:Source\mbedtls_open\library/ctr_drbg.c ****     int ret = 0;
 564:Source\mbedtls_open\library/ctr_drbg.c ****     FILE *f;
 565:Source\mbedtls_open\library/ctr_drbg.c ****     size_t n;
 566:Source\mbedtls_open\library/ctr_drbg.c ****     unsigned char buf[ MBEDTLS_CTR_DRBG_MAX_INPUT ];
 567:Source\mbedtls_open\library/ctr_drbg.c **** 
 568:Source\mbedtls_open\library/ctr_drbg.c ****     if( ( f = fopen( path, "rb" ) ) == NULL )
 569:Source\mbedtls_open\library/ctr_drbg.c ****         return( MBEDTLS_ERR_CTR_DRBG_FILE_IO_ERROR );
 570:Source\mbedtls_open\library/ctr_drbg.c **** 
 571:Source\mbedtls_open\library/ctr_drbg.c ****     fseek( f, 0, SEEK_END );
 572:Source\mbedtls_open\library/ctr_drbg.c ****     n = (size_t) ftell( f );
 573:Source\mbedtls_open\library/ctr_drbg.c ****     fseek( f, 0, SEEK_SET );
 574:Source\mbedtls_open\library/ctr_drbg.c **** 
 575:Source\mbedtls_open\library/ctr_drbg.c ****     if( n > MBEDTLS_CTR_DRBG_MAX_INPUT )
 576:Source\mbedtls_open\library/ctr_drbg.c ****     {
 577:Source\mbedtls_open\library/ctr_drbg.c ****         fclose( f );
 578:Source\mbedtls_open\library/ctr_drbg.c ****         return( MBEDTLS_ERR_CTR_DRBG_INPUT_TOO_BIG );
 579:Source\mbedtls_open\library/ctr_drbg.c ****     }
 580:Source\mbedtls_open\library/ctr_drbg.c **** 
 581:Source\mbedtls_open\library/ctr_drbg.c ****     if( fread( buf, 1, n, f ) != n )
 582:Source\mbedtls_open\library/ctr_drbg.c ****         ret = MBEDTLS_ERR_CTR_DRBG_FILE_IO_ERROR;
 583:Source\mbedtls_open\library/ctr_drbg.c ****     else
 584:Source\mbedtls_open\library/ctr_drbg.c ****         mbedtls_ctr_drbg_update( ctx, buf, n );
 585:Source\mbedtls_open\library/ctr_drbg.c **** 
 586:Source\mbedtls_open\library/ctr_drbg.c ****     fclose( f );
 587:Source\mbedtls_open\library/ctr_drbg.c **** 
 588:Source\mbedtls_open\library/ctr_drbg.c ****     mbedtls_platform_zeroize( buf, sizeof( buf ) );
 589:Source\mbedtls_open\library/ctr_drbg.c **** 
 590:Source\mbedtls_open\library/ctr_drbg.c ****     if( ret != 0 )
 591:Source\mbedtls_open\library/ctr_drbg.c ****         return( ret );
 592:Source\mbedtls_open\library/ctr_drbg.c **** 
 593:Source\mbedtls_open\library/ctr_drbg.c ****     return( mbedtls_ctr_drbg_write_seed_file( ctx, path ) );
 594:Source\mbedtls_open\library/ctr_drbg.c **** }
 595:Source\mbedtls_open\library/ctr_drbg.c **** #endif /* MBEDTLS_FS_IO */
 596:Source\mbedtls_open\library/ctr_drbg.c **** 
 597:Source\mbedtls_open\library/ctr_drbg.c **** #if defined(MBEDTLS_SELF_TEST)
 598:Source\mbedtls_open\library/ctr_drbg.c **** 
 599:Source\mbedtls_open\library/ctr_drbg.c **** static const unsigned char entropy_source_pr[96] =
 600:Source\mbedtls_open\library/ctr_drbg.c ****     { 0xc1, 0x80, 0x81, 0xa6, 0x5d, 0x44, 0x02, 0x16,
 601:Source\mbedtls_open\library/ctr_drbg.c ****       0x19, 0xb3, 0xf1, 0x80, 0xb1, 0xc9, 0x20, 0x02,
ARM GAS  C:\Users\Phuong\AppData\Local\Temp\ccMdlIAe.s 			page 12


 602:Source\mbedtls_open\library/ctr_drbg.c ****       0x6a, 0x54, 0x6f, 0x0c, 0x70, 0x81, 0x49, 0x8b,
 603:Source\mbedtls_open\library/ctr_drbg.c ****       0x6e, 0xa6, 0x62, 0x52, 0x6d, 0x51, 0xb1, 0xcb,
 604:Source\mbedtls_open\library/ctr_drbg.c ****       0x58, 0x3b, 0xfa, 0xd5, 0x37, 0x5f, 0xfb, 0xc9,
 605:Source\mbedtls_open\library/ctr_drbg.c ****       0xff, 0x46, 0xd2, 0x19, 0xc7, 0x22, 0x3e, 0x95,
 606:Source\mbedtls_open\library/ctr_drbg.c ****       0x45, 0x9d, 0x82, 0xe1, 0xe7, 0x22, 0x9f, 0x63,
 607:Source\mbedtls_open\library/ctr_drbg.c ****       0x31, 0x69, 0xd2, 0x6b, 0x57, 0x47, 0x4f, 0xa3,
 608:Source\mbedtls_open\library/ctr_drbg.c ****       0x37, 0xc9, 0x98, 0x1c, 0x0b, 0xfb, 0x91, 0x31,
 609:Source\mbedtls_open\library/ctr_drbg.c ****       0x4d, 0x55, 0xb9, 0xe9, 0x1c, 0x5a, 0x5e, 0xe4,
 610:Source\mbedtls_open\library/ctr_drbg.c ****       0x93, 0x92, 0xcf, 0xc5, 0x23, 0x12, 0xd5, 0x56,
 611:Source\mbedtls_open\library/ctr_drbg.c ****       0x2c, 0x4a, 0x6e, 0xff, 0xdc, 0x10, 0xd0, 0x68 };
 612:Source\mbedtls_open\library/ctr_drbg.c **** 
 613:Source\mbedtls_open\library/ctr_drbg.c **** static const unsigned char entropy_source_nopr[64] =
 614:Source\mbedtls_open\library/ctr_drbg.c ****     { 0x5a, 0x19, 0x4d, 0x5e, 0x2b, 0x31, 0x58, 0x14,
 615:Source\mbedtls_open\library/ctr_drbg.c ****       0x54, 0xde, 0xf6, 0x75, 0xfb, 0x79, 0x58, 0xfe,
 616:Source\mbedtls_open\library/ctr_drbg.c ****       0xc7, 0xdb, 0x87, 0x3e, 0x56, 0x89, 0xfc, 0x9d,
 617:Source\mbedtls_open\library/ctr_drbg.c ****       0x03, 0x21, 0x7c, 0x68, 0xd8, 0x03, 0x38, 0x20,
 618:Source\mbedtls_open\library/ctr_drbg.c ****       0xf9, 0xe6, 0x5e, 0x04, 0xd8, 0x56, 0xf3, 0xa9,
 619:Source\mbedtls_open\library/ctr_drbg.c ****       0xc4, 0x4a, 0x4c, 0xbd, 0xc1, 0xd0, 0x08, 0x46,
 620:Source\mbedtls_open\library/ctr_drbg.c ****       0xf5, 0x98, 0x3d, 0x77, 0x1c, 0x1b, 0x13, 0x7e,
 621:Source\mbedtls_open\library/ctr_drbg.c ****       0x4e, 0x0f, 0x9d, 0x8e, 0xf4, 0x09, 0xf9, 0x2e };
 622:Source\mbedtls_open\library/ctr_drbg.c **** 
 623:Source\mbedtls_open\library/ctr_drbg.c **** static const unsigned char nonce_pers_pr[16] =
 624:Source\mbedtls_open\library/ctr_drbg.c ****     { 0xd2, 0x54, 0xfc, 0xff, 0x02, 0x1e, 0x69, 0xd2,
 625:Source\mbedtls_open\library/ctr_drbg.c ****       0x29, 0xc9, 0xcf, 0xad, 0x85, 0xfa, 0x48, 0x6c };
 626:Source\mbedtls_open\library/ctr_drbg.c **** 
 627:Source\mbedtls_open\library/ctr_drbg.c **** static const unsigned char nonce_pers_nopr[16] =
 628:Source\mbedtls_open\library/ctr_drbg.c ****     { 0x1b, 0x54, 0xb8, 0xff, 0x06, 0x42, 0xbf, 0xf5,
 629:Source\mbedtls_open\library/ctr_drbg.c ****       0x21, 0xf1, 0x5c, 0x1c, 0x0b, 0x66, 0x5f, 0x3f };
 630:Source\mbedtls_open\library/ctr_drbg.c **** 
 631:Source\mbedtls_open\library/ctr_drbg.c **** static const unsigned char result_pr[16] =
 632:Source\mbedtls_open\library/ctr_drbg.c ****     { 0x34, 0x01, 0x16, 0x56, 0xb4, 0x29, 0x00, 0x8f,
 633:Source\mbedtls_open\library/ctr_drbg.c ****       0x35, 0x63, 0xec, 0xb5, 0xf2, 0x59, 0x07, 0x23 };
 634:Source\mbedtls_open\library/ctr_drbg.c **** 
 635:Source\mbedtls_open\library/ctr_drbg.c **** static const unsigned char result_nopr[16] =
 636:Source\mbedtls_open\library/ctr_drbg.c ****     { 0xa0, 0x54, 0x30, 0x3d, 0x8a, 0x7e, 0xa9, 0x88,
 637:Source\mbedtls_open\library/ctr_drbg.c ****       0x9d, 0x90, 0x3e, 0x07, 0x7c, 0x6f, 0x21, 0x8f };
 638:Source\mbedtls_open\library/ctr_drbg.c **** 
 639:Source\mbedtls_open\library/ctr_drbg.c **** static size_t test_offset;
 640:Source\mbedtls_open\library/ctr_drbg.c **** static int ctr_drbg_self_test_entropy( void *data, unsigned char *buf,
 641:Source\mbedtls_open\library/ctr_drbg.c ****                                        size_t len )
 642:Source\mbedtls_open\library/ctr_drbg.c **** {
  27              		.loc 1 642 0
  28              		.cfi_startproc
  29              		@ args = 0, pretend = 0, frame = 0
  30              		@ frame_needed = 0, uses_anonymous_args = 0
  31              	.LVL0:
  32 0000 70B5     		push	{r4, r5, r6, lr}
  33              		.cfi_def_cfa_offset 16
  34              		.cfi_offset 4, -16
  35              		.cfi_offset 5, -12
  36              		.cfi_offset 6, -8
  37              		.cfi_offset 14, -4
  38 0002 0B00     		movs	r3, r1
  39 0004 1400     		movs	r4, r2
  40              	.LVL1:
 643:Source\mbedtls_open\library/ctr_drbg.c ****     const unsigned char *p = data;
 644:Source\mbedtls_open\library/ctr_drbg.c ****     memcpy( buf, p + test_offset, len );
ARM GAS  C:\Users\Phuong\AppData\Local\Temp\ccMdlIAe.s 			page 13


  41              		.loc 1 644 0
  42 0006 054D     		ldr	r5, .L2
  43 0008 2E68     		ldr	r6, [r5]
  44 000a 8119     		adds	r1, r0, r6
  45              	.LVL2:
  46 000c 1800     		movs	r0, r3
  47              	.LVL3:
  48 000e FFF7FEFF 		bl	memcpy
  49              	.LVL4:
 645:Source\mbedtls_open\library/ctr_drbg.c ****     test_offset += len;
  50              		.loc 1 645 0
  51 0012 3419     		adds	r4, r6, r4
  52              	.LVL5:
  53 0014 2C60     		str	r4, [r5]
 646:Source\mbedtls_open\library/ctr_drbg.c ****     return( 0 );
 647:Source\mbedtls_open\library/ctr_drbg.c **** }
  54              		.loc 1 647 0
  55 0016 0020     		movs	r0, #0
  56              		@ sp needed
  57 0018 70BD     		pop	{r4, r5, r6, pc}
  58              	.L3:
  59 001a C046     		.align	2
  60              	.L2:
  61 001c 00000000 		.word	.LANCHOR0
  62              		.cfi_endproc
  63              	.LFE14:
  64              		.size	ctr_drbg_self_test_entropy, .-ctr_drbg_self_test_entropy
  65              		.section	.text.block_cipher_df,"ax",%progbits
  66              		.align	2
  67              		.code	16
  68              		.thumb_func
  69              		.type	block_cipher_df, %function
  70              	block_cipher_df:
  71              	.LFB8:
 156:Source\mbedtls_open\library/ctr_drbg.c ****     unsigned char buf[MBEDTLS_CTR_DRBG_MAX_SEED_INPUT + MBEDTLS_CTR_DRBG_BLOCKSIZE + 16];
  72              		.loc 1 156 0
  73              		.cfi_startproc
  74              		@ args = 0, pretend = 0, frame = 800
  75              		@ frame_needed = 0, uses_anonymous_args = 0
  76              	.LVL6:
  77 0000 F0B5     		push	{r4, r5, r6, r7, lr}
  78              		.cfi_def_cfa_offset 20
  79              		.cfi_offset 4, -20
  80              		.cfi_offset 5, -16
  81              		.cfi_offset 6, -12
  82              		.cfi_offset 7, -8
  83              		.cfi_offset 14, -4
  84 0002 4746     		mov	r7, r8
  85 0004 80B4     		push	{r7}
  86              		.cfi_def_cfa_offset 24
  87              		.cfi_offset 8, -24
  88 0006 584C     		ldr	r4, .L20
  89 0008 A544     		add	sp, sp, r4
  90              		.cfi_def_cfa_offset 824
  91 000a 0190     		str	r0, [sp, #4]
  92 000c 0D00     		movs	r5, r1
  93 000e 1700     		movs	r7, r2
ARM GAS  C:\Users\Phuong\AppData\Local\Temp\ccMdlIAe.s 			page 14


  94              	.LVL7:
 168:Source\mbedtls_open\library/ctr_drbg.c ****         return( MBEDTLS_ERR_CTR_DRBG_INPUT_TOO_BIG );
  95              		.loc 1 168 0
  96 0010 C023     		movs	r3, #192
  97 0012 5B00     		lsls	r3, r3, #1
  98 0014 9A42     		cmp	r2, r3
  99 0016 00D9     		bls	.LCB74
 100 0018 9CE0     		b	.L17	@long jump
 101              	.LCB74:
 171:Source\mbedtls_open\library/ctr_drbg.c ****     mbedtls_aes_init( &aes_ctx );
 102              		.loc 1 171 0
 103 001a D022     		movs	r2, #208
 104              	.LVL8:
 105 001c 5200     		lsls	r2, r2, #1
 106 001e 0021     		movs	r1, #0
 107              	.LVL9:
 108 0020 60A8     		add	r0, sp, #384
 109              	.LVL10:
 110 0022 FFF7FEFF 		bl	memset
 111              	.LVL11:
 172:Source\mbedtls_open\library/ctr_drbg.c **** 
 112              		.loc 1 172 0
 113 0026 02A8     		add	r0, sp, #8
 114 0028 FFF7FEFF 		bl	mbedtls_aes_init
 115              	.LVL12:
 182:Source\mbedtls_open\library/ctr_drbg.c ****     *p++ = ( data_len >> 16 ) & 0xff;
 116              		.loc 1 182 0
 117 002c 3A0E     		lsrs	r2, r7, #24
 118 002e 60AB     		add	r3, sp, #384
 119 0030 1A74     		strb	r2, [r3, #16]
 120              	.LVL13:
 183:Source\mbedtls_open\library/ctr_drbg.c ****     *p++ = ( data_len >> 8  ) & 0xff;
 121              		.loc 1 183 0
 122 0032 3A0C     		lsrs	r2, r7, #16
 123 0034 5A74     		strb	r2, [r3, #17]
 124              	.LVL14:
 184:Source\mbedtls_open\library/ctr_drbg.c ****     *p++ = ( data_len       ) & 0xff;
 125              		.loc 1 184 0
 126 0036 3A0A     		lsrs	r2, r7, #8
 127 0038 9A74     		strb	r2, [r3, #18]
 128              	.LVL15:
 185:Source\mbedtls_open\library/ctr_drbg.c ****     p += 3;
 129              		.loc 1 185 0
 130 003a DF74     		strb	r7, [r3, #19]
 131              	.LVL16:
 187:Source\mbedtls_open\library/ctr_drbg.c ****     memcpy( p, data, data_len );
 132              		.loc 1 187 0
 133 003c 3022     		movs	r2, #48
 134 003e DA75     		strb	r2, [r3, #23]
 188:Source\mbedtls_open\library/ctr_drbg.c ****     p[data_len] = 0x80;
 135              		.loc 1 188 0
 136 0040 66AE     		add	r6, sp, #408
 137              	.LVL17:
 138 0042 3A00     		movs	r2, r7
 139 0044 2900     		movs	r1, r5
 140 0046 3000     		movs	r0, r6
 141 0048 FFF7FEFF 		bl	memcpy
ARM GAS  C:\Users\Phuong\AppData\Local\Temp\ccMdlIAe.s 			page 15


 142              	.LVL18:
 189:Source\mbedtls_open\library/ctr_drbg.c **** 
 143              		.loc 1 189 0
 144 004c 8023     		movs	r3, #128
 145 004e F355     		strb	r3, [r6, r7]
 191:Source\mbedtls_open\library/ctr_drbg.c **** 
 146              		.loc 1 191 0
 147 0050 1937     		adds	r7, r7, #25
 148              	.LVL19:
 193:Source\mbedtls_open\library/ctr_drbg.c ****         key[i] = i;
 149              		.loc 1 193 0
 150 0052 0023     		movs	r3, #0
 151 0054 02E0     		b	.L6
 152              	.LVL20:
 153              	.L7:
 194:Source\mbedtls_open\library/ctr_drbg.c **** 
 154              		.loc 1 194 0 discriminator 3
 155 0056 4CAA     		add	r2, sp, #304
 156 0058 D354     		strb	r3, [r2, r3]
 193:Source\mbedtls_open\library/ctr_drbg.c ****         key[i] = i;
 157              		.loc 1 193 0 discriminator 3
 158 005a 0133     		adds	r3, r3, #1
 159              	.LVL21:
 160              	.L6:
 193:Source\mbedtls_open\library/ctr_drbg.c ****         key[i] = i;
 161              		.loc 1 193 0 is_stmt 0 discriminator 1
 162 005c 1F2B     		cmp	r3, #31
 163 005e FADD     		ble	.L7
 196:Source\mbedtls_open\library/ctr_drbg.c ****     {
 164              		.loc 1 196 0 is_stmt 1
 165 0060 8022     		movs	r2, #128
 166 0062 5200     		lsls	r2, r2, #1
 167 0064 4CA9     		add	r1, sp, #304
 168 0066 02A8     		add	r0, sp, #8
 169 0068 FFF7FEFF 		bl	mbedtls_aes_setkey_enc
 170              	.LVL22:
 171 006c 041E     		subs	r4, r0, #0
 172              	.LVL23:
 173 006e 55D1     		bne	.L8
 174 0070 0023     		movs	r3, #0
 175 0072 9846     		mov	r8, r3
 176 0074 33E0     		b	.L9
 177              	.LVL24:
 178              	.L14:
 207:Source\mbedtls_open\library/ctr_drbg.c ****         use_len = buf_len;
 179              		.loc 1 207 0
 180 0076 1022     		movs	r2, #16
 181 0078 0021     		movs	r1, #0
 182 007a 48A8     		add	r0, sp, #288
 183 007c FFF7FEFF 		bl	memset
 184              	.LVL25:
 208:Source\mbedtls_open\library/ctr_drbg.c **** 
 185              		.loc 1 208 0
 186 0080 3E00     		movs	r6, r7
 206:Source\mbedtls_open\library/ctr_drbg.c ****         memset( chain, 0, MBEDTLS_CTR_DRBG_BLOCKSIZE );
 187              		.loc 1 206 0
 188 0082 60AD     		add	r5, sp, #384
ARM GAS  C:\Users\Phuong\AppData\Local\Temp\ccMdlIAe.s 			page 16


 189              	.LVL26:
 210:Source\mbedtls_open\library/ctr_drbg.c ****         {
 190              		.loc 1 210 0
 191 0084 1CE0     		b	.L10
 192              	.LVL27:
 193              	.L11:
 213:Source\mbedtls_open\library/ctr_drbg.c ****             p += MBEDTLS_CTR_DRBG_BLOCKSIZE;
 194              		.loc 1 213 0 discriminator 3
 195 0086 EA5C     		ldrb	r2, [r5, r3]
 196 0088 02A9     		add	r1, sp, #8
 197 008a 8C20     		movs	r0, #140
 198 008c 4000     		lsls	r0, r0, #1
 199 008e 0918     		adds	r1, r1, r0
 200 0090 C95C     		ldrb	r1, [r1, r3]
 201 0092 5140     		eors	r1, r2
 202 0094 02AA     		add	r2, sp, #8
 203 0096 1218     		adds	r2, r2, r0
 204 0098 D154     		strb	r1, [r2, r3]
 212:Source\mbedtls_open\library/ctr_drbg.c ****                 chain[i] ^= p[i];
 205              		.loc 1 212 0 discriminator 3
 206 009a 0133     		adds	r3, r3, #1
 207              	.LVL28:
 208 009c 00E0     		b	.L13
 209              	.LVL29:
 210              	.L18:
 211 009e 0023     		movs	r3, #0
 212              	.L13:
 213              	.LVL30:
 212:Source\mbedtls_open\library/ctr_drbg.c ****                 chain[i] ^= p[i];
 214              		.loc 1 212 0 is_stmt 0 discriminator 1
 215 00a0 0F2B     		cmp	r3, #15
 216 00a2 F0DD     		ble	.L11
 214:Source\mbedtls_open\library/ctr_drbg.c ****             use_len -= ( use_len >= MBEDTLS_CTR_DRBG_BLOCKSIZE ) ?
 217              		.loc 1 214 0 is_stmt 1
 218 00a4 1035     		adds	r5, r5, #16
 219              	.LVL31:
 216:Source\mbedtls_open\library/ctr_drbg.c **** 
 220              		.loc 1 216 0
 221 00a6 3300     		movs	r3, r6
 222              	.LVL32:
 223 00a8 102E     		cmp	r6, #16
 224 00aa 00D9     		bls	.L12
 225              	.LVL33:
 226 00ac 1023     		movs	r3, #16
 227              	.LVL34:
 228              	.L12:
 215:Source\mbedtls_open\library/ctr_drbg.c ****                        MBEDTLS_CTR_DRBG_BLOCKSIZE : use_len;
 229              		.loc 1 215 0
 230 00ae F61A     		subs	r6, r6, r3
 231              	.LVL35:
 218:Source\mbedtls_open\library/ctr_drbg.c ****             {
 232              		.loc 1 218 0
 233 00b0 48AB     		add	r3, sp, #288
 234 00b2 1A00     		movs	r2, r3
 235 00b4 0121     		movs	r1, #1
 236 00b6 02A8     		add	r0, sp, #8
 237 00b8 FFF7FEFF 		bl	mbedtls_aes_crypt_ecb
ARM GAS  C:\Users\Phuong\AppData\Local\Temp\ccMdlIAe.s 			page 17


 238              	.LVL36:
 239 00bc 041E     		subs	r4, r0, #0
 240              	.LVL37:
 241 00be 2DD1     		bne	.L8
 242              	.LVL38:
 243              	.L10:
 210:Source\mbedtls_open\library/ctr_drbg.c ****         {
 244              		.loc 1 210 0
 245 00c0 002E     		cmp	r6, #0
 246 00c2 ECD1     		bne	.L18
 224:Source\mbedtls_open\library/ctr_drbg.c **** 
 247              		.loc 1 224 0 discriminator 2
 248 00c4 54A8     		add	r0, sp, #336
 249 00c6 4044     		add	r0, r0, r8
 250 00c8 1022     		movs	r2, #16
 251 00ca 48A9     		add	r1, sp, #288
 252 00cc FFF7FEFF 		bl	memcpy
 253              	.LVL39:
 229:Source\mbedtls_open\library/ctr_drbg.c ****     }
 254              		.loc 1 229 0 discriminator 2
 255 00d0 60AA     		add	r2, sp, #384
 256 00d2 D378     		ldrb	r3, [r2, #3]
 257 00d4 0133     		adds	r3, r3, #1
 258 00d6 D370     		strb	r3, [r2, #3]
 204:Source\mbedtls_open\library/ctr_drbg.c ****     {
 259              		.loc 1 204 0 discriminator 2
 260 00d8 1023     		movs	r3, #16
 261 00da 9C46     		mov	ip, r3
 262 00dc E044     		add	r8, r8, ip
 263              	.LVL40:
 264              	.L9:
 204:Source\mbedtls_open\library/ctr_drbg.c ****     {
 265              		.loc 1 204 0 is_stmt 0 discriminator 1
 266 00de 4346     		mov	r3, r8
 267 00e0 2F2B     		cmp	r3, #47
 268 00e2 C8DD     		ble	.L14
 235:Source\mbedtls_open\library/ctr_drbg.c ****     {
 269              		.loc 1 235 0 is_stmt 1
 270 00e4 8022     		movs	r2, #128
 271 00e6 5200     		lsls	r2, r2, #1
 272 00e8 54A9     		add	r1, sp, #336
 273 00ea 02A8     		add	r0, sp, #8
 274 00ec FFF7FEFF 		bl	mbedtls_aes_setkey_enc
 275              	.LVL41:
 276 00f0 041E     		subs	r4, r0, #0
 277              	.LVL42:
 278 00f2 13D1     		bne	.L8
 279 00f4 019E     		ldr	r6, [sp, #4]
 280 00f6 0025     		movs	r5, #0
 281 00f8 0EE0     		b	.L15
 282              	.LVL43:
 283              	.L16:
 244:Source\mbedtls_open\library/ctr_drbg.c ****         {
 284              		.loc 1 244 0
 285 00fa 5CAB     		add	r3, sp, #368
 286 00fc 1A00     		movs	r2, r3
 287 00fe 0121     		movs	r1, #1
ARM GAS  C:\Users\Phuong\AppData\Local\Temp\ccMdlIAe.s 			page 18


 288 0100 02A8     		add	r0, sp, #8
 289 0102 FFF7FEFF 		bl	mbedtls_aes_crypt_ecb
 290              	.LVL44:
 291 0106 041E     		subs	r4, r0, #0
 292              	.LVL45:
 293 0108 08D1     		bne	.L8
 248:Source\mbedtls_open\library/ctr_drbg.c ****         p += MBEDTLS_CTR_DRBG_BLOCKSIZE;
 294              		.loc 1 248 0 discriminator 2
 295 010a 1022     		movs	r2, #16
 296 010c 5CA9     		add	r1, sp, #368
 297 010e 3000     		movs	r0, r6
 298              	.LVL46:
 299 0110 FFF7FEFF 		bl	memcpy
 300              	.LVL47:
 249:Source\mbedtls_open\library/ctr_drbg.c ****     }
 301              		.loc 1 249 0 discriminator 2
 302 0114 1036     		adds	r6, r6, #16
 303              	.LVL48:
 242:Source\mbedtls_open\library/ctr_drbg.c ****     {
 304              		.loc 1 242 0 discriminator 2
 305 0116 1035     		adds	r5, r5, #16
 306              	.LVL49:
 307              	.L15:
 242:Source\mbedtls_open\library/ctr_drbg.c ****     {
 308              		.loc 1 242 0 is_stmt 0 discriminator 1
 309 0118 2F2D     		cmp	r5, #47
 310 011a EEDD     		ble	.L16
 311              	.LVL50:
 312              	.L8:
 252:Source\mbedtls_open\library/ctr_drbg.c ****     /*
 313              		.loc 1 252 0 is_stmt 1
 314 011c 02A8     		add	r0, sp, #8
 315 011e FFF7FEFF 		bl	mbedtls_aes_free
 316              	.LVL51:
 256:Source\mbedtls_open\library/ctr_drbg.c ****     mbedtls_platform_zeroize( tmp, sizeof( tmp ) );
 317              		.loc 1 256 0
 318 0122 D021     		movs	r1, #208
 319 0124 4900     		lsls	r1, r1, #1
 320 0126 60A8     		add	r0, sp, #384
 321 0128 FFF7FEFF 		bl	mbedtls_platform_zeroize
 322              	.LVL52:
 257:Source\mbedtls_open\library/ctr_drbg.c ****     mbedtls_platform_zeroize( key, sizeof( key ) );
 323              		.loc 1 257 0
 324 012c 3021     		movs	r1, #48
 325 012e 54A8     		add	r0, sp, #336
 326 0130 FFF7FEFF 		bl	mbedtls_platform_zeroize
 327              	.LVL53:
 258:Source\mbedtls_open\library/ctr_drbg.c ****     mbedtls_platform_zeroize( chain, sizeof( chain ) );
 328              		.loc 1 258 0
 329 0134 2021     		movs	r1, #32
 330 0136 4CA8     		add	r0, sp, #304
 331 0138 FFF7FEFF 		bl	mbedtls_platform_zeroize
 332              	.LVL54:
 259:Source\mbedtls_open\library/ctr_drbg.c ****     if( 0 != ret )
 333              		.loc 1 259 0
 334 013c 1021     		movs	r1, #16
 335 013e 48A8     		add	r0, sp, #288
ARM GAS  C:\Users\Phuong\AppData\Local\Temp\ccMdlIAe.s 			page 19


 336 0140 FFF7FEFF 		bl	mbedtls_platform_zeroize
 337              	.LVL55:
 260:Source\mbedtls_open\library/ctr_drbg.c ****     {
 338              		.loc 1 260 0
 339 0144 002C     		cmp	r4, #0
 340 0146 08D0     		beq	.L19
 265:Source\mbedtls_open\library/ctr_drbg.c ****     }
 341              		.loc 1 265 0
 342 0148 3021     		movs	r1, #48
 343 014a 0198     		ldr	r0, [sp, #4]
 344 014c FFF7FEFF 		bl	mbedtls_platform_zeroize
 345              	.LVL56:
 268:Source\mbedtls_open\library/ctr_drbg.c **** }
 346              		.loc 1 268 0
 347 0150 2000     		movs	r0, r4
 348 0152 03E0     		b	.L5
 349              	.LVL57:
 350              	.L17:
 169:Source\mbedtls_open\library/ctr_drbg.c **** 
 351              		.loc 1 169 0
 352 0154 3820     		movs	r0, #56
 353              	.LVL58:
 354 0156 4042     		rsbs	r0, r0, #0
 355 0158 00E0     		b	.L5
 356              	.LVL59:
 357              	.L19:
 268:Source\mbedtls_open\library/ctr_drbg.c **** }
 358              		.loc 1 268 0
 359 015a 2000     		movs	r0, r4
 360              	.LVL60:
 361              	.L5:
 269:Source\mbedtls_open\library/ctr_drbg.c **** 
 362              		.loc 1 269 0
 363 015c C823     		movs	r3, #200
 364 015e 9B00     		lsls	r3, r3, #2
 365 0160 9D44     		add	sp, sp, r3
 366              		@ sp needed
 367 0162 04BC     		pop	{r2}
 368 0164 9046     		mov	r8, r2
 369 0166 F0BD     		pop	{r4, r5, r6, r7, pc}
 370              	.L21:
 371              		.align	2
 372              	.L20:
 373 0168 E0FCFFFF 		.word	-800
 374              		.cfi_endproc
 375              	.LFE8:
 376              		.size	block_cipher_df, .-block_cipher_df
 377              		.section	.text.ctr_drbg_update_internal,"ax",%progbits
 378              		.align	2
 379              		.code	16
 380              		.thumb_func
 381              		.type	ctr_drbg_update_internal, %function
 382              	ctr_drbg_update_internal:
 383              	.LFB9:
 281:Source\mbedtls_open\library/ctr_drbg.c ****     unsigned char tmp[MBEDTLS_CTR_DRBG_SEEDLEN];
 384              		.loc 1 281 0
 385              		.cfi_startproc
ARM GAS  C:\Users\Phuong\AppData\Local\Temp\ccMdlIAe.s 			page 20


 386              		@ args = 0, pretend = 0, frame = 48
 387              		@ frame_needed = 0, uses_anonymous_args = 0
 388              	.LVL61:
 389 0000 F0B5     		push	{r4, r5, r6, r7, lr}
 390              		.cfi_def_cfa_offset 20
 391              		.cfi_offset 4, -20
 392              		.cfi_offset 5, -16
 393              		.cfi_offset 6, -12
 394              		.cfi_offset 7, -8
 395              		.cfi_offset 14, -4
 396 0002 8DB0     		sub	sp, sp, #52
 397              		.cfi_def_cfa_offset 72
 398 0004 0400     		movs	r4, r0
 399 0006 0D00     		movs	r5, r1
 400              	.LVL62:
 287:Source\mbedtls_open\library/ctr_drbg.c **** 
 401              		.loc 1 287 0
 402 0008 3022     		movs	r2, #48
 403 000a 0021     		movs	r1, #0
 404              	.LVL63:
 405 000c 6846     		mov	r0, sp
 406              	.LVL64:
 407 000e FFF7FEFF 		bl	memset
 408              	.LVL65:
 289:Source\mbedtls_open\library/ctr_drbg.c ****     {
 409              		.loc 1 289 0
 410 0012 0027     		movs	r7, #0
 283:Source\mbedtls_open\library/ctr_drbg.c ****     int i, j;
 411              		.loc 1 283 0
 412 0014 6E46     		mov	r6, sp
 289:Source\mbedtls_open\library/ctr_drbg.c ****     {
 413              		.loc 1 289 0
 414 0016 15E0     		b	.L23
 415              	.LVL66:
 416              	.L25:
 295:Source\mbedtls_open\library/ctr_drbg.c ****                 break;
 417              		.loc 1 295 0
 418 0018 013A     		subs	r2, r2, #1
 419              	.LVL67:
 420 001a A35C     		ldrb	r3, [r4, r2]
 421 001c 0133     		adds	r3, r3, #1
 422 001e DBB2     		uxtb	r3, r3
 423 0020 A354     		strb	r3, [r4, r2]
 424 0022 002B     		cmp	r3, #0
 425 0024 01D0     		beq	.L27
 426 0026 02E0     		b	.L24
 427              	.LVL68:
 428              	.L31:
 429 0028 1022     		movs	r2, #16
 430              	.L27:
 431              	.LVL69:
 294:Source\mbedtls_open\library/ctr_drbg.c ****             if( ++ctx->counter[i - 1] != 0 )
 432              		.loc 1 294 0 discriminator 1
 433 002a 002A     		cmp	r2, #0
 434 002c F4DC     		bgt	.L25
 435              	.LVL70:
 436              	.L24:
ARM GAS  C:\Users\Phuong\AppData\Local\Temp\ccMdlIAe.s 			page 21


 301:Source\mbedtls_open\library/ctr_drbg.c ****         {
 437              		.loc 1 301 0
 438 002e 2000     		movs	r0, r4
 439 0030 2030     		adds	r0, r0, #32
 440 0032 3300     		movs	r3, r6
 441 0034 2200     		movs	r2, r4
 442 0036 0121     		movs	r1, #1
 443 0038 FFF7FEFF 		bl	mbedtls_aes_crypt_ecb
 444              	.LVL71:
 445 003c 0028     		cmp	r0, #0
 446 003e 1DD1     		bne	.L26
 306:Source\mbedtls_open\library/ctr_drbg.c ****     }
 447              		.loc 1 306 0 discriminator 2
 448 0040 1036     		adds	r6, r6, #16
 449              	.LVL72:
 289:Source\mbedtls_open\library/ctr_drbg.c ****     {
 450              		.loc 1 289 0 discriminator 2
 451 0042 1037     		adds	r7, r7, #16
 452              	.LVL73:
 453              	.L23:
 289:Source\mbedtls_open\library/ctr_drbg.c ****     {
 454              		.loc 1 289 0 is_stmt 0 discriminator 1
 455 0044 2F2F     		cmp	r7, #47
 456 0046 EFDD     		ble	.L31
 457 0048 0023     		movs	r3, #0
 458 004a 06E0     		b	.L28
 459              	.LVL74:
 460              	.L29:
 310:Source\mbedtls_open\library/ctr_drbg.c **** 
 461              		.loc 1 310 0 is_stmt 1 discriminator 3
 462 004c E95C     		ldrb	r1, [r5, r3]
 463 004e 6A46     		mov	r2, sp
 464 0050 D25C     		ldrb	r2, [r2, r3]
 465 0052 4A40     		eors	r2, r1
 466 0054 6946     		mov	r1, sp
 467 0056 CA54     		strb	r2, [r1, r3]
 309:Source\mbedtls_open\library/ctr_drbg.c ****         tmp[i] ^= data[i];
 468              		.loc 1 309 0 discriminator 3
 469 0058 0133     		adds	r3, r3, #1
 470              	.LVL75:
 471              	.L28:
 309:Source\mbedtls_open\library/ctr_drbg.c ****         tmp[i] ^= data[i];
 472              		.loc 1 309 0 is_stmt 0 discriminator 1
 473 005a 2F2B     		cmp	r3, #47
 474 005c F6DD     		ble	.L29
 315:Source\mbedtls_open\library/ctr_drbg.c ****     {
 475              		.loc 1 315 0 is_stmt 1
 476 005e 2000     		movs	r0, r4
 477 0060 2030     		adds	r0, r0, #32
 478 0062 8022     		movs	r2, #128
 479 0064 5200     		lsls	r2, r2, #1
 480 0066 6946     		mov	r1, sp
 481 0068 FFF7FEFF 		bl	mbedtls_aes_setkey_enc
 482              	.LVL76:
 483 006c 0028     		cmp	r0, #0
 484 006e 05D1     		bne	.L26
 319:Source\mbedtls_open\library/ctr_drbg.c **** 
ARM GAS  C:\Users\Phuong\AppData\Local\Temp\ccMdlIAe.s 			page 22


 485              		.loc 1 319 0
 486 0070 1022     		movs	r2, #16
 487 0072 08A9     		add	r1, sp, #32
 488 0074 2000     		movs	r0, r4
 489              	.LVL77:
 490 0076 FFF7FEFF 		bl	memcpy
 491              	.LVL78:
 321:Source\mbedtls_open\library/ctr_drbg.c **** }
 492              		.loc 1 321 0
 493 007a 0020     		movs	r0, #0
 494              	.L26:
 322:Source\mbedtls_open\library/ctr_drbg.c **** 
 495              		.loc 1 322 0
 496 007c 0DB0     		add	sp, sp, #52
 497              		@ sp needed
 498              	.LVL79:
 499              	.LVL80:
 500              	.LVL81:
 501              	.LVL82:
 502 007e F0BD     		pop	{r4, r5, r6, r7, pc}
 503              		.cfi_endproc
 504              	.LFE9:
 505              		.size	ctr_drbg_update_internal, .-ctr_drbg_update_internal
 506              		.section	.text.mbedtls_ctr_drbg_init,"ax",%progbits
 507              		.align	2
 508              		.global	mbedtls_ctr_drbg_init
 509              		.code	16
 510              		.thumb_func
 511              		.type	mbedtls_ctr_drbg_init, %function
 512              	mbedtls_ctr_drbg_init:
 513              	.LFB1:
  57:Source\mbedtls_open\library/ctr_drbg.c ****     memset( ctx, 0, sizeof( mbedtls_ctr_drbg_context ) );
 514              		.loc 1 57 0
 515              		.cfi_startproc
 516              		@ args = 0, pretend = 0, frame = 0
 517              		@ frame_needed = 0, uses_anonymous_args = 0
 518              	.LVL83:
 519 0000 10B5     		push	{r4, lr}
 520              		.cfi_def_cfa_offset 8
 521              		.cfi_offset 4, -8
 522              		.cfi_offset 14, -4
  58:Source\mbedtls_open\library/ctr_drbg.c **** 
 523              		.loc 1 58 0
 524 0002 A022     		movs	r2, #160
 525 0004 5200     		lsls	r2, r2, #1
 526 0006 0021     		movs	r1, #0
 527 0008 FFF7FEFF 		bl	memset
 528              	.LVL84:
  63:Source\mbedtls_open\library/ctr_drbg.c **** 
 529              		.loc 1 63 0
 530              		@ sp needed
 531 000c 10BD     		pop	{r4, pc}
 532              		.cfi_endproc
 533              	.LFE1:
 534              		.size	mbedtls_ctr_drbg_init, .-mbedtls_ctr_drbg_init
 535 000e C046     		.section	.text.mbedtls_ctr_drbg_free,"ax",%progbits
 536              		.align	2
ARM GAS  C:\Users\Phuong\AppData\Local\Temp\ccMdlIAe.s 			page 23


 537              		.global	mbedtls_ctr_drbg_free
 538              		.code	16
 539              		.thumb_func
 540              		.type	mbedtls_ctr_drbg_free, %function
 541              	mbedtls_ctr_drbg_free:
 542              	.LFB4:
 128:Source\mbedtls_open\library/ctr_drbg.c ****     if( ctx == NULL )
 543              		.loc 1 128 0
 544              		.cfi_startproc
 545              		@ args = 0, pretend = 0, frame = 0
 546              		@ frame_needed = 0, uses_anonymous_args = 0
 547              	.LVL85:
 548 0000 10B5     		push	{r4, lr}
 549              		.cfi_def_cfa_offset 8
 550              		.cfi_offset 4, -8
 551              		.cfi_offset 14, -4
 552 0002 041E     		subs	r4, r0, #0
 129:Source\mbedtls_open\library/ctr_drbg.c ****         return;
 553              		.loc 1 129 0
 554 0004 07D0     		beq	.L34
 135:Source\mbedtls_open\library/ctr_drbg.c ****     mbedtls_platform_zeroize( ctx, sizeof( mbedtls_ctr_drbg_context ) );
 555              		.loc 1 135 0
 556 0006 2030     		adds	r0, r0, #32
 557              	.LVL86:
 558 0008 FFF7FEFF 		bl	mbedtls_aes_free
 559              	.LVL87:
 136:Source\mbedtls_open\library/ctr_drbg.c **** }
 560              		.loc 1 136 0
 561 000c A021     		movs	r1, #160
 562 000e 4900     		lsls	r1, r1, #1
 563 0010 2000     		movs	r0, r4
 564 0012 FFF7FEFF 		bl	mbedtls_platform_zeroize
 565              	.LVL88:
 566              	.L34:
 137:Source\mbedtls_open\library/ctr_drbg.c **** 
 567              		.loc 1 137 0
 568              		@ sp needed
 569              	.LVL89:
 570 0016 10BD     		pop	{r4, pc}
 571              		.cfi_endproc
 572              	.LFE4:
 573              		.size	mbedtls_ctr_drbg_free, .-mbedtls_ctr_drbg_free
 574              		.section	.text.mbedtls_ctr_drbg_set_prediction_resistance,"ax",%progbits
 575              		.align	2
 576              		.global	mbedtls_ctr_drbg_set_prediction_resistance
 577              		.code	16
 578              		.thumb_func
 579              		.type	mbedtls_ctr_drbg_set_prediction_resistance, %function
 580              	mbedtls_ctr_drbg_set_prediction_resistance:
 581              	.LFB5:
 140:Source\mbedtls_open\library/ctr_drbg.c ****     ctx->prediction_resistance = resistance;
 582              		.loc 1 140 0
 583              		.cfi_startproc
 584              		@ args = 0, pretend = 0, frame = 0
 585              		@ frame_needed = 0, uses_anonymous_args = 0
 586              		@ link register save eliminated.
 587              	.LVL90:
ARM GAS  C:\Users\Phuong\AppData\Local\Temp\ccMdlIAe.s 			page 24


 141:Source\mbedtls_open\library/ctr_drbg.c **** }
 588              		.loc 1 141 0
 589 0000 4161     		str	r1, [r0, #20]
 142:Source\mbedtls_open\library/ctr_drbg.c **** 
 590              		.loc 1 142 0
 591              		@ sp needed
 592 0002 7047     		bx	lr
 593              		.cfi_endproc
 594              	.LFE5:
 595              		.size	mbedtls_ctr_drbg_set_prediction_resistance, .-mbedtls_ctr_drbg_set_prediction_resistance
 596              		.section	.text.mbedtls_ctr_drbg_set_entropy_len,"ax",%progbits
 597              		.align	2
 598              		.global	mbedtls_ctr_drbg_set_entropy_len
 599              		.code	16
 600              		.thumb_func
 601              		.type	mbedtls_ctr_drbg_set_entropy_len, %function
 602              	mbedtls_ctr_drbg_set_entropy_len:
 603              	.LFB6:
 145:Source\mbedtls_open\library/ctr_drbg.c ****     ctx->entropy_len = len;
 604              		.loc 1 145 0
 605              		.cfi_startproc
 606              		@ args = 0, pretend = 0, frame = 0
 607              		@ frame_needed = 0, uses_anonymous_args = 0
 608              		@ link register save eliminated.
 609              	.LVL91:
 146:Source\mbedtls_open\library/ctr_drbg.c **** }
 610              		.loc 1 146 0
 611 0000 8161     		str	r1, [r0, #24]
 147:Source\mbedtls_open\library/ctr_drbg.c **** 
 612              		.loc 1 147 0
 613              		@ sp needed
 614 0002 7047     		bx	lr
 615              		.cfi_endproc
 616              	.LFE6:
 617              		.size	mbedtls_ctr_drbg_set_entropy_len, .-mbedtls_ctr_drbg_set_entropy_len
 618              		.section	.text.mbedtls_ctr_drbg_set_reseed_interval,"ax",%progbits
 619              		.align	2
 620              		.global	mbedtls_ctr_drbg_set_reseed_interval
 621              		.code	16
 622              		.thumb_func
 623              		.type	mbedtls_ctr_drbg_set_reseed_interval, %function
 624              	mbedtls_ctr_drbg_set_reseed_interval:
 625              	.LFB7:
 150:Source\mbedtls_open\library/ctr_drbg.c ****     ctx->reseed_interval = interval;
 626              		.loc 1 150 0
 627              		.cfi_startproc
 628              		@ args = 0, pretend = 0, frame = 0
 629              		@ frame_needed = 0, uses_anonymous_args = 0
 630              		@ link register save eliminated.
 631              	.LVL92:
 151:Source\mbedtls_open\library/ctr_drbg.c **** }
 632              		.loc 1 151 0
 633 0000 C161     		str	r1, [r0, #28]
 152:Source\mbedtls_open\library/ctr_drbg.c **** 
 634              		.loc 1 152 0
 635              		@ sp needed
 636 0002 7047     		bx	lr
ARM GAS  C:\Users\Phuong\AppData\Local\Temp\ccMdlIAe.s 			page 25


 637              		.cfi_endproc
 638              	.LFE7:
 639              		.size	mbedtls_ctr_drbg_set_reseed_interval, .-mbedtls_ctr_drbg_set_reseed_interval
 640              		.section	.text.mbedtls_ctr_drbg_update,"ax",%progbits
 641              		.align	2
 642              		.global	mbedtls_ctr_drbg_update
 643              		.code	16
 644              		.thumb_func
 645              		.type	mbedtls_ctr_drbg_update, %function
 646              	mbedtls_ctr_drbg_update:
 647              	.LFB10:
 338:Source\mbedtls_open\library/ctr_drbg.c ****     unsigned char add_input[MBEDTLS_CTR_DRBG_SEEDLEN];
 648              		.loc 1 338 0
 649              		.cfi_startproc
 650              		@ args = 0, pretend = 0, frame = 48
 651              		@ frame_needed = 0, uses_anonymous_args = 0
 652              	.LVL93:
 653 0000 10B5     		push	{r4, lr}
 654              		.cfi_def_cfa_offset 8
 655              		.cfi_offset 4, -8
 656              		.cfi_offset 14, -4
 657 0002 8CB0     		sub	sp, sp, #48
 658              		.cfi_def_cfa_offset 56
 659 0004 0400     		movs	r4, r0
 341:Source\mbedtls_open\library/ctr_drbg.c ****     {
 660              		.loc 1 341 0
 661 0006 002A     		cmp	r2, #0
 662 0008 0BD0     		beq	.L39
 345:Source\mbedtls_open\library/ctr_drbg.c ****             add_len = MBEDTLS_CTR_DRBG_MAX_SEED_INPUT;
 663              		.loc 1 345 0
 664 000a C023     		movs	r3, #192
 665 000c 5B00     		lsls	r3, r3, #1
 666 000e 9A42     		cmp	r2, r3
 667 0010 00D9     		bls	.L41
 346:Source\mbedtls_open\library/ctr_drbg.c **** 
 668              		.loc 1 346 0
 669 0012 1A00     		movs	r2, r3
 670              	.LVL94:
 671              	.L41:
 348:Source\mbedtls_open\library/ctr_drbg.c ****         ctr_drbg_update_internal( ctx, add_input );
 672              		.loc 1 348 0
 673 0014 6846     		mov	r0, sp
 674              	.LVL95:
 675 0016 FFF7FEFF 		bl	block_cipher_df
 676              	.LVL96:
 349:Source\mbedtls_open\library/ctr_drbg.c ****     }
 677              		.loc 1 349 0
 678 001a 6946     		mov	r1, sp
 679 001c 2000     		movs	r0, r4
 680 001e FFF7FEFF 		bl	ctr_drbg_update_internal
 681              	.LVL97:
 682              	.L39:
 351:Source\mbedtls_open\library/ctr_drbg.c **** 
 683              		.loc 1 351 0
 684 0022 0CB0     		add	sp, sp, #48
 685              		@ sp needed
 686              	.LVL98:
ARM GAS  C:\Users\Phuong\AppData\Local\Temp\ccMdlIAe.s 			page 26


 687 0024 10BD     		pop	{r4, pc}
 688              		.cfi_endproc
 689              	.LFE10:
 690              		.size	mbedtls_ctr_drbg_update, .-mbedtls_ctr_drbg_update
 691 0026 C046     		.section	.text.mbedtls_ctr_drbg_reseed,"ax",%progbits
 692              		.align	2
 693              		.global	mbedtls_ctr_drbg_reseed
 694              		.code	16
 695              		.thumb_func
 696              		.type	mbedtls_ctr_drbg_reseed, %function
 697              	mbedtls_ctr_drbg_reseed:
 698              	.LFB11:
 367:Source\mbedtls_open\library/ctr_drbg.c ****     unsigned char seed[MBEDTLS_CTR_DRBG_MAX_SEED_INPUT];
 699              		.loc 1 367 0
 700              		.cfi_startproc
 701              		@ args = 0, pretend = 0, frame = 392
 702              		@ frame_needed = 0, uses_anonymous_args = 0
 703              	.LVL99:
 704 0000 F0B5     		push	{r4, r5, r6, r7, lr}
 705              		.cfi_def_cfa_offset 20
 706              		.cfi_offset 4, -20
 707              		.cfi_offset 5, -16
 708              		.cfi_offset 6, -12
 709              		.cfi_offset 7, -8
 710              		.cfi_offset 14, -4
 711 0002 E3B0     		sub	sp, sp, #396
 712              		.cfi_def_cfa_offset 416
 713 0004 0400     		movs	r4, r0
 714 0006 0191     		str	r1, [sp, #4]
 715 0008 1700     		movs	r7, r2
 716              	.LVL100:
 372:Source\mbedtls_open\library/ctr_drbg.c ****         len > MBEDTLS_CTR_DRBG_MAX_SEED_INPUT - ctx->entropy_len )
 717              		.loc 1 372 0
 718 000a 8269     		ldr	r2, [r0, #24]
 719              	.LVL101:
 720 000c C023     		movs	r3, #192
 721 000e 5B00     		lsls	r3, r3, #1
 722 0010 9A42     		cmp	r2, r3
 723 0012 32D8     		bhi	.L46
 373:Source\mbedtls_open\library/ctr_drbg.c ****         return( MBEDTLS_ERR_CTR_DRBG_INPUT_TOO_BIG );
 724              		.loc 1 373 0 discriminator 1
 725 0014 9B1A     		subs	r3, r3, r2
 372:Source\mbedtls_open\library/ctr_drbg.c ****         len > MBEDTLS_CTR_DRBG_MAX_SEED_INPUT - ctx->entropy_len )
 726              		.loc 1 372 0 discriminator 1
 727 0016 BB42     		cmp	r3, r7
 728 0018 32D3     		bcc	.L47
 376:Source\mbedtls_open\library/ctr_drbg.c **** 
 729              		.loc 1 376 0
 730 001a C022     		movs	r2, #192
 731 001c 5200     		lsls	r2, r2, #1
 732 001e 0021     		movs	r1, #0
 733              	.LVL102:
 734 0020 02A8     		add	r0, sp, #8
 735              	.LVL103:
 736 0022 FFF7FEFF 		bl	memset
 737              	.LVL104:
 381:Source\mbedtls_open\library/ctr_drbg.c ****                              ctx->entropy_len ) )
ARM GAS  C:\Users\Phuong\AppData\Local\Temp\ccMdlIAe.s 			page 27


 738              		.loc 1 381 0
 739 0026 9C23     		movs	r3, #156
 740 0028 5B00     		lsls	r3, r3, #1
 741 002a E358     		ldr	r3, [r4, r3]
 742 002c 9E22     		movs	r2, #158
 743 002e 5200     		lsls	r2, r2, #1
 744 0030 A058     		ldr	r0, [r4, r2]
 745 0032 A269     		ldr	r2, [r4, #24]
 746 0034 02A9     		add	r1, sp, #8
 747 0036 9847     		blx	r3
 748              	.LVL105:
 749 0038 061E     		subs	r6, r0, #0
 750 003a 24D1     		bne	.L48
 387:Source\mbedtls_open\library/ctr_drbg.c **** 
 751              		.loc 1 387 0
 752 003c A569     		ldr	r5, [r4, #24]
 753              	.LVL106:
 392:Source\mbedtls_open\library/ctr_drbg.c ****     {
 754              		.loc 1 392 0
 755 003e 019B     		ldr	r3, [sp, #4]
 756 0040 002B     		cmp	r3, #0
 757 0042 0AD0     		beq	.L45
 392:Source\mbedtls_open\library/ctr_drbg.c ****     {
 758              		.loc 1 392 0 is_stmt 0 discriminator 1
 759 0044 002F     		cmp	r7, #0
 760 0046 08D0     		beq	.L45
 394:Source\mbedtls_open\library/ctr_drbg.c ****         seedlen += len;
 761              		.loc 1 394 0 is_stmt 1
 762 0048 2800     		movs	r0, r5
 763 004a 02AB     		add	r3, sp, #8
 764 004c 9C46     		mov	ip, r3
 765 004e 6044     		add	r0, r0, ip
 766 0050 3A00     		movs	r2, r7
 767 0052 0199     		ldr	r1, [sp, #4]
 768 0054 FFF7FEFF 		bl	memcpy
 769              	.LVL107:
 395:Source\mbedtls_open\library/ctr_drbg.c ****     }
 770              		.loc 1 395 0
 771 0058 ED19     		adds	r5, r5, r7
 772              	.LVL108:
 773              	.L45:
 401:Source\mbedtls_open\library/ctr_drbg.c ****     {
 774              		.loc 1 401 0
 775 005a 2A00     		movs	r2, r5
 776 005c 02A9     		add	r1, sp, #8
 777 005e 0800     		movs	r0, r1
 778 0060 FFF7FEFF 		bl	block_cipher_df
 779              	.LVL109:
 780 0064 0028     		cmp	r0, #0
 781 0066 11D1     		bne	.L49
 409:Source\mbedtls_open\library/ctr_drbg.c ****     {
 782              		.loc 1 409 0
 783 0068 02A9     		add	r1, sp, #8
 784 006a 2000     		movs	r0, r4
 785              	.LVL110:
 786 006c FFF7FEFF 		bl	ctr_drbg_update_internal
 787              	.LVL111:
ARM GAS  C:\Users\Phuong\AppData\Local\Temp\ccMdlIAe.s 			page 28


 788 0070 0028     		cmp	r0, #0
 789 0072 0DD1     		bne	.L50
 413:Source\mbedtls_open\library/ctr_drbg.c **** 
 790              		.loc 1 413 0
 791 0074 0123     		movs	r3, #1
 792 0076 2361     		str	r3, [r4, #16]
 415:Source\mbedtls_open\library/ctr_drbg.c **** }
 793              		.loc 1 415 0
 794 0078 0BE0     		b	.L44
 795              	.LVL112:
 796              	.L46:
 374:Source\mbedtls_open\library/ctr_drbg.c **** 
 797              		.loc 1 374 0
 798 007a 3826     		movs	r6, #56
 799 007c 7642     		rsbs	r6, r6, #0
 800 007e 08E0     		b	.L44
 801              	.L47:
 802 0080 3826     		movs	r6, #56
 803 0082 7642     		rsbs	r6, r6, #0
 804 0084 05E0     		b	.L44
 805              	.LVL113:
 806              	.L48:
 384:Source\mbedtls_open\library/ctr_drbg.c ****     }
 807              		.loc 1 384 0
 808 0086 3426     		movs	r6, #52
 809 0088 7642     		rsbs	r6, r6, #0
 810 008a 02E0     		b	.L44
 811              	.LVL114:
 812              	.L49:
 403:Source\mbedtls_open\library/ctr_drbg.c ****     }
 813              		.loc 1 403 0
 814 008c 0600     		movs	r6, r0
 815 008e 00E0     		b	.L44
 816              	.L50:
 411:Source\mbedtls_open\library/ctr_drbg.c ****     }
 817              		.loc 1 411 0
 818 0090 0600     		movs	r6, r0
 819              	.LVL115:
 820              	.L44:
 416:Source\mbedtls_open\library/ctr_drbg.c **** 
 821              		.loc 1 416 0
 822 0092 3000     		movs	r0, r6
 823 0094 63B0     		add	sp, sp, #396
 824              		@ sp needed
 825              	.LVL116:
 826              	.LVL117:
 827 0096 F0BD     		pop	{r4, r5, r6, r7, pc}
 828              		.cfi_endproc
 829              	.LFE11:
 830              		.size	mbedtls_ctr_drbg_reseed, .-mbedtls_ctr_drbg_reseed
 831              		.section	.text.mbedtls_ctr_drbg_seed_entropy_len,"ax",%progbits
 832              		.align	2
 833              		.global	mbedtls_ctr_drbg_seed_entropy_len
 834              		.code	16
 835              		.thumb_func
 836              		.type	mbedtls_ctr_drbg_seed_entropy_len, %function
 837              	mbedtls_ctr_drbg_seed_entropy_len:
ARM GAS  C:\Users\Phuong\AppData\Local\Temp\ccMdlIAe.s 			page 29


 838              	.LFB2:
  88:Source\mbedtls_open\library/ctr_drbg.c ****     int ret;
 839              		.loc 1 88 0
 840              		.cfi_startproc
 841              		@ args = 8, pretend = 0, frame = 40
 842              		@ frame_needed = 0, uses_anonymous_args = 0
 843              	.LVL118:
 844 0000 F0B5     		push	{r4, r5, r6, r7, lr}
 845              		.cfi_def_cfa_offset 20
 846              		.cfi_offset 4, -20
 847              		.cfi_offset 5, -16
 848              		.cfi_offset 6, -12
 849              		.cfi_offset 7, -8
 850              		.cfi_offset 14, -4
 851 0002 8BB0     		sub	sp, sp, #44
 852              		.cfi_def_cfa_offset 64
 853 0004 0400     		movs	r4, r0
 854 0006 0E00     		movs	r6, r1
 855 0008 1700     		movs	r7, r2
 856 000a 0193     		str	r3, [sp, #4]
  92:Source\mbedtls_open\library/ctr_drbg.c **** 
 857              		.loc 1 92 0
 858 000c 2022     		movs	r2, #32
 859              	.LVL119:
 860 000e 0021     		movs	r1, #0
 861              	.LVL120:
 862 0010 02A8     		add	r0, sp, #8
 863              	.LVL121:
 864 0012 FFF7FEFF 		bl	memset
 865              	.LVL122:
  94:Source\mbedtls_open\library/ctr_drbg.c **** 
 866              		.loc 1 94 0
 867 0016 2500     		movs	r5, r4
 868 0018 2035     		adds	r5, r5, #32
 869 001a 2800     		movs	r0, r5
 870 001c FFF7FEFF 		bl	mbedtls_aes_init
 871              	.LVL123:
  96:Source\mbedtls_open\library/ctr_drbg.c ****     ctx->p_entropy = p_entropy;
 872              		.loc 1 96 0
 873 0020 9C23     		movs	r3, #156
 874 0022 5B00     		lsls	r3, r3, #1
 875 0024 E650     		str	r6, [r4, r3]
  97:Source\mbedtls_open\library/ctr_drbg.c **** 
 876              		.loc 1 97 0
 877 0026 0433     		adds	r3, r3, #4
 878 0028 E750     		str	r7, [r4, r3]
  99:Source\mbedtls_open\library/ctr_drbg.c ****     ctx->reseed_interval = MBEDTLS_CTR_DRBG_RESEED_INTERVAL;
 879              		.loc 1 99 0
 880 002a 119B     		ldr	r3, [sp, #68]
 881 002c A361     		str	r3, [r4, #24]
 100:Source\mbedtls_open\library/ctr_drbg.c **** 
 882              		.loc 1 100 0
 883 002e 084B     		ldr	r3, .L55
 884 0030 E361     		str	r3, [r4, #28]
 105:Source\mbedtls_open\library/ctr_drbg.c ****     {
 885              		.loc 1 105 0
 886 0032 8022     		movs	r2, #128
ARM GAS  C:\Users\Phuong\AppData\Local\Temp\ccMdlIAe.s 			page 30


 887 0034 5200     		lsls	r2, r2, #1
 888 0036 02A9     		add	r1, sp, #8
 889 0038 2800     		movs	r0, r5
 890 003a FFF7FEFF 		bl	mbedtls_aes_setkey_enc
 891              	.LVL124:
 892 003e 0028     		cmp	r0, #0
 893 0040 04D1     		bne	.L52
 110:Source\mbedtls_open\library/ctr_drbg.c ****     {
 894              		.loc 1 110 0
 895 0042 109A     		ldr	r2, [sp, #64]
 896 0044 0199     		ldr	r1, [sp, #4]
 897 0046 2000     		movs	r0, r4
 898              	.LVL125:
 899 0048 FFF7FEFF 		bl	mbedtls_ctr_drbg_reseed
 900              	.LVL126:
 901              	.L52:
 115:Source\mbedtls_open\library/ctr_drbg.c **** 
 902              		.loc 1 115 0
 903 004c 0BB0     		add	sp, sp, #44
 904              		@ sp needed
 905              	.LVL127:
 906              	.LVL128:
 907              	.LVL129:
 908              	.LVL130:
 909 004e F0BD     		pop	{r4, r5, r6, r7, pc}
 910              	.L56:
 911              		.align	2
 912              	.L55:
 913 0050 10270000 		.word	10000
 914              		.cfi_endproc
 915              	.LFE2:
 916              		.size	mbedtls_ctr_drbg_seed_entropy_len, .-mbedtls_ctr_drbg_seed_entropy_len
 917              		.section	.text.mbedtls_ctr_drbg_seed,"ax",%progbits
 918              		.align	2
 919              		.global	mbedtls_ctr_drbg_seed
 920              		.code	16
 921              		.thumb_func
 922              		.type	mbedtls_ctr_drbg_seed, %function
 923              	mbedtls_ctr_drbg_seed:
 924              	.LFB3:
 122:Source\mbedtls_open\library/ctr_drbg.c ****     return( mbedtls_ctr_drbg_seed_entropy_len( ctx, f_entropy, p_entropy, custom, len,
 925              		.loc 1 122 0
 926              		.cfi_startproc
 927              		@ args = 4, pretend = 0, frame = 0
 928              		@ frame_needed = 0, uses_anonymous_args = 0
 929              	.LVL131:
 930 0000 10B5     		push	{r4, lr}
 931              		.cfi_def_cfa_offset 8
 932              		.cfi_offset 4, -8
 933              		.cfi_offset 14, -4
 934 0002 82B0     		sub	sp, sp, #8
 935              		.cfi_def_cfa_offset 16
 123:Source\mbedtls_open\library/ctr_drbg.c ****                                        MBEDTLS_CTR_DRBG_ENTROPY_LEN ) );
 936              		.loc 1 123 0
 937 0004 3024     		movs	r4, #48
 938 0006 0194     		str	r4, [sp, #4]
 939 0008 049C     		ldr	r4, [sp, #16]
ARM GAS  C:\Users\Phuong\AppData\Local\Temp\ccMdlIAe.s 			page 31


 940 000a 0094     		str	r4, [sp]
 941 000c FFF7FEFF 		bl	mbedtls_ctr_drbg_seed_entropy_len
 942              	.LVL132:
 125:Source\mbedtls_open\library/ctr_drbg.c **** 
 943              		.loc 1 125 0
 944 0010 02B0     		add	sp, sp, #8
 945              		@ sp needed
 946 0012 10BD     		pop	{r4, pc}
 947              		.cfi_endproc
 948              	.LFE3:
 949              		.size	mbedtls_ctr_drbg_seed, .-mbedtls_ctr_drbg_seed
 950              		.section	.text.mbedtls_ctr_drbg_random_with_add,"ax",%progbits
 951              		.align	2
 952              		.global	mbedtls_ctr_drbg_random_with_add
 953              		.code	16
 954              		.thumb_func
 955              		.type	mbedtls_ctr_drbg_random_with_add, %function
 956              	mbedtls_ctr_drbg_random_with_add:
 957              	.LFB12:
 440:Source\mbedtls_open\library/ctr_drbg.c ****     int ret = 0;
 958              		.loc 1 440 0
 959              		.cfi_startproc
 960              		@ args = 4, pretend = 0, frame = 64
 961              		@ frame_needed = 0, uses_anonymous_args = 0
 962              	.LVL133:
 963 0000 F0B5     		push	{r4, r5, r6, r7, lr}
 964              		.cfi_def_cfa_offset 20
 965              		.cfi_offset 4, -20
 966              		.cfi_offset 5, -16
 967              		.cfi_offset 6, -12
 968              		.cfi_offset 7, -8
 969              		.cfi_offset 14, -4
 970 0002 91B0     		sub	sp, sp, #68
 971              		.cfi_def_cfa_offset 88
 972 0004 0400     		movs	r4, r0
 973 0006 0F00     		movs	r7, r1
 974 0008 1500     		movs	r5, r2
 975 000a 1E00     		movs	r6, r3
 976              	.LVL134:
 449:Source\mbedtls_open\library/ctr_drbg.c ****         return( MBEDTLS_ERR_CTR_DRBG_REQUEST_TOO_BIG );
 977              		.loc 1 449 0
 978 000c 8023     		movs	r3, #128
 979              	.LVL135:
 980 000e DB00     		lsls	r3, r3, #3
 981 0010 9A42     		cmp	r2, r3
 982 0012 55D8     		bhi	.L68
 452:Source\mbedtls_open\library/ctr_drbg.c ****         return( MBEDTLS_ERR_CTR_DRBG_INPUT_TOO_BIG );
 983              		.loc 1 452 0
 984 0014 8023     		movs	r3, #128
 985 0016 5B00     		lsls	r3, r3, #1
 986 0018 169A     		ldr	r2, [sp, #88]
 987              	.LVL136:
 988 001a 9A42     		cmp	r2, r3
 989 001c 53D8     		bhi	.L69
 455:Source\mbedtls_open\library/ctr_drbg.c **** 
 990              		.loc 1 455 0
 991 001e 3022     		movs	r2, #48
ARM GAS  C:\Users\Phuong\AppData\Local\Temp\ccMdlIAe.s 			page 32


 992 0020 0021     		movs	r1, #0
 993              	.LVL137:
 994 0022 04A8     		add	r0, sp, #16
 995              	.LVL138:
 996 0024 FFF7FEFF 		bl	memset
 997              	.LVL139:
 457:Source\mbedtls_open\library/ctr_drbg.c ****         ctx->prediction_resistance )
 998              		.loc 1 457 0
 999 0028 2369     		ldr	r3, [r4, #16]
 1000 002a E269     		ldr	r2, [r4, #28]
 1001 002c 9342     		cmp	r3, r2
 1002 002e 02DC     		bgt	.L60
 457:Source\mbedtls_open\library/ctr_drbg.c ****         ctx->prediction_resistance )
 1003              		.loc 1 457 0 is_stmt 0 discriminator 1
 1004 0030 6369     		ldr	r3, [r4, #20]
 1005 0032 002B     		cmp	r3, #0
 1006 0034 08D0     		beq	.L61
 1007              	.L60:
 460:Source\mbedtls_open\library/ctr_drbg.c ****         {
 1008              		.loc 1 460 0 is_stmt 1
 1009 0036 169A     		ldr	r2, [sp, #88]
 1010 0038 3100     		movs	r1, r6
 1011 003a 2000     		movs	r0, r4
 1012 003c FFF7FEFF 		bl	mbedtls_ctr_drbg_reseed
 1013              	.LVL140:
 1014 0040 0028     		cmp	r0, #0
 1015 0042 42D1     		bne	.L59
 464:Source\mbedtls_open\library/ctr_drbg.c ****     }
 1016              		.loc 1 464 0
 1017 0044 0023     		movs	r3, #0
 1018 0046 1693     		str	r3, [sp, #88]
 1019              	.LVL141:
 1020              	.L61:
 467:Source\mbedtls_open\library/ctr_drbg.c ****     {
 1021              		.loc 1 467 0
 1022 0048 169B     		ldr	r3, [sp, #88]
 1023 004a 002B     		cmp	r3, #0
 1024 004c 2CD0     		beq	.L63
 469:Source\mbedtls_open\library/ctr_drbg.c ****         {
 1025              		.loc 1 469 0
 1026 004e 1A00     		movs	r2, r3
 1027 0050 3100     		movs	r1, r6
 1028 0052 04A8     		add	r0, sp, #16
 1029 0054 FFF7FEFF 		bl	block_cipher_df
 1030              	.LVL142:
 1031 0058 0028     		cmp	r0, #0
 1032 005a 36D1     		bne	.L59
 473:Source\mbedtls_open\library/ctr_drbg.c ****         {
 1033              		.loc 1 473 0
 1034 005c 04A9     		add	r1, sp, #16
 1035 005e 2000     		movs	r0, r4
 1036              	.LVL143:
 1037 0060 FFF7FEFF 		bl	ctr_drbg_update_internal
 1038              	.LVL144:
 1039 0064 0028     		cmp	r0, #0
 1040 0066 1FD0     		beq	.L63
 1041 0068 2FE0     		b	.L59
ARM GAS  C:\Users\Phuong\AppData\Local\Temp\ccMdlIAe.s 			page 33


 1042              	.LVL145:
 1043              	.L65:
 485:Source\mbedtls_open\library/ctr_drbg.c ****                 break;
 1044              		.loc 1 485 0
 1045 006a 013A     		subs	r2, r2, #1
 1046              	.LVL146:
 1047 006c A35C     		ldrb	r3, [r4, r2]
 1048 006e 0133     		adds	r3, r3, #1
 1049 0070 DBB2     		uxtb	r3, r3
 1050 0072 A354     		strb	r3, [r4, r2]
 1051 0074 002B     		cmp	r3, #0
 1052 0076 01D0     		beq	.L67
 1053 0078 02E0     		b	.L64
 1054              	.LVL147:
 1055              	.L74:
 1056 007a 1022     		movs	r2, #16
 1057              	.L67:
 1058              	.LVL148:
 484:Source\mbedtls_open\library/ctr_drbg.c ****             if( ++ctx->counter[i - 1] != 0 )
 1059              		.loc 1 484 0 discriminator 1
 1060 007c 002A     		cmp	r2, #0
 1061 007e F4DC     		bgt	.L65
 1062              	.LVL149:
 1063              	.L64:
 491:Source\mbedtls_open\library/ctr_drbg.c ****         {
 1064              		.loc 1 491 0
 1065 0080 2000     		movs	r0, r4
 1066 0082 2030     		adds	r0, r0, #32
 1067 0084 6B46     		mov	r3, sp
 1068 0086 2200     		movs	r2, r4
 1069 0088 0121     		movs	r1, #1
 1070 008a FFF7FEFF 		bl	mbedtls_aes_crypt_ecb
 1071              	.LVL150:
 1072 008e 0028     		cmp	r0, #0
 1073 0090 1BD1     		bne	.L59
 496:Source\mbedtls_open\library/ctr_drbg.c ****                                                        output_len;
 1074              		.loc 1 496 0
 1075 0092 2E00     		movs	r6, r5
 1076 0094 102D     		cmp	r5, #16
 1077 0096 00D9     		bls	.L66
 1078 0098 1026     		movs	r6, #16
 1079              	.L66:
 1080              	.LVL151:
 501:Source\mbedtls_open\library/ctr_drbg.c ****         p += use_len;
 1081              		.loc 1 501 0
 1082 009a 3200     		movs	r2, r6
 1083 009c 6946     		mov	r1, sp
 1084 009e 3800     		movs	r0, r7
 1085              	.LVL152:
 1086 00a0 FFF7FEFF 		bl	memcpy
 1087              	.LVL153:
 502:Source\mbedtls_open\library/ctr_drbg.c ****         output_len -= use_len;
 1088              		.loc 1 502 0
 1089 00a4 BF19     		adds	r7, r7, r6
 1090              	.LVL154:
 503:Source\mbedtls_open\library/ctr_drbg.c ****     }
 1091              		.loc 1 503 0
ARM GAS  C:\Users\Phuong\AppData\Local\Temp\ccMdlIAe.s 			page 34


 1092 00a6 AD1B     		subs	r5, r5, r6
 1093              	.LVL155:
 1094              	.L63:
 479:Source\mbedtls_open\library/ctr_drbg.c ****     {
 1095              		.loc 1 479 0
 1096 00a8 002D     		cmp	r5, #0
 1097 00aa E6D1     		bne	.L74
 506:Source\mbedtls_open\library/ctr_drbg.c ****     {
 1098              		.loc 1 506 0
 1099 00ac 04A9     		add	r1, sp, #16
 1100 00ae 2000     		movs	r0, r4
 1101 00b0 FFF7FEFF 		bl	ctr_drbg_update_internal
 1102              	.LVL156:
 1103 00b4 0028     		cmp	r0, #0
 1104 00b6 08D1     		bne	.L59
 511:Source\mbedtls_open\library/ctr_drbg.c **** 
 1105              		.loc 1 511 0
 1106 00b8 2369     		ldr	r3, [r4, #16]
 1107 00ba 0133     		adds	r3, r3, #1
 1108 00bc 2361     		str	r3, [r4, #16]
 513:Source\mbedtls_open\library/ctr_drbg.c **** }
 1109              		.loc 1 513 0
 1110 00be 04E0     		b	.L59
 1111              	.LVL157:
 1112              	.L68:
 450:Source\mbedtls_open\library/ctr_drbg.c **** 
 1113              		.loc 1 450 0
 1114 00c0 3620     		movs	r0, #54
 1115              	.LVL158:
 1116 00c2 4042     		rsbs	r0, r0, #0
 1117 00c4 01E0     		b	.L59
 1118              	.LVL159:
 1119              	.L69:
 453:Source\mbedtls_open\library/ctr_drbg.c **** 
 1120              		.loc 1 453 0
 1121 00c6 3820     		movs	r0, #56
 1122              	.LVL160:
 1123 00c8 4042     		rsbs	r0, r0, #0
 1124              	.LVL161:
 1125              	.L59:
 514:Source\mbedtls_open\library/ctr_drbg.c **** 
 1126              		.loc 1 514 0
 1127 00ca 11B0     		add	sp, sp, #68
 1128              		@ sp needed
 1129              	.LVL162:
 1130              	.LVL163:
 1131              	.LVL164:
 1132 00cc F0BD     		pop	{r4, r5, r6, r7, pc}
 1133              		.cfi_endproc
 1134              	.LFE12:
 1135              		.size	mbedtls_ctr_drbg_random_with_add, .-mbedtls_ctr_drbg_random_with_add
 1136 00ce C046     		.section	.text.mbedtls_ctr_drbg_random,"ax",%progbits
 1137              		.align	2
 1138              		.global	mbedtls_ctr_drbg_random
 1139              		.code	16
 1140              		.thumb_func
 1141              		.type	mbedtls_ctr_drbg_random, %function
ARM GAS  C:\Users\Phuong\AppData\Local\Temp\ccMdlIAe.s 			page 35


 1142              	mbedtls_ctr_drbg_random:
 1143              	.LFB13:
 517:Source\mbedtls_open\library/ctr_drbg.c ****     int ret;
 1144              		.loc 1 517 0
 1145              		.cfi_startproc
 1146              		@ args = 0, pretend = 0, frame = 0
 1147              		@ frame_needed = 0, uses_anonymous_args = 0
 1148              	.LVL165:
 1149 0000 00B5     		push	{lr}
 1150              		.cfi_def_cfa_offset 4
 1151              		.cfi_offset 14, -4
 1152 0002 83B0     		sub	sp, sp, #12
 1153              		.cfi_def_cfa_offset 16
 1154              	.LVL166:
 526:Source\mbedtls_open\library/ctr_drbg.c **** 
 1155              		.loc 1 526 0
 1156 0004 0023     		movs	r3, #0
 1157 0006 0093     		str	r3, [sp]
 1158 0008 FFF7FEFF 		bl	mbedtls_ctr_drbg_random_with_add
 1159              	.LVL167:
 534:Source\mbedtls_open\library/ctr_drbg.c **** 
 1160              		.loc 1 534 0
 1161 000c 03B0     		add	sp, sp, #12
 1162              		@ sp needed
 1163 000e 00BD     		pop	{pc}
 1164              		.cfi_endproc
 1165              	.LFE13:
 1166              		.size	mbedtls_ctr_drbg_random, .-mbedtls_ctr_drbg_random
 1167              		.section	.text.mbedtls_ctr_drbg_self_test,"ax",%progbits
 1168              		.align	2
 1169              		.global	mbedtls_ctr_drbg_self_test
 1170              		.code	16
 1171              		.thumb_func
 1172              		.type	mbedtls_ctr_drbg_self_test, %function
 1173              	mbedtls_ctr_drbg_self_test:
 1174              	.LFB15:
 648:Source\mbedtls_open\library/ctr_drbg.c **** 
 649:Source\mbedtls_open\library/ctr_drbg.c **** #define CHK( c )    if( (c) != 0 )                          \
 650:Source\mbedtls_open\library/ctr_drbg.c ****                     {                                       \
 651:Source\mbedtls_open\library/ctr_drbg.c ****                         if( verbose != 0 )                  \
 652:Source\mbedtls_open\library/ctr_drbg.c ****                             mbedtls_printf( "failed\n" );  \
 653:Source\mbedtls_open\library/ctr_drbg.c ****                         return( 1 );                        \
 654:Source\mbedtls_open\library/ctr_drbg.c ****                     }
 655:Source\mbedtls_open\library/ctr_drbg.c **** 
 656:Source\mbedtls_open\library/ctr_drbg.c **** /*
 657:Source\mbedtls_open\library/ctr_drbg.c ****  * Checkup routine
 658:Source\mbedtls_open\library/ctr_drbg.c ****  */
 659:Source\mbedtls_open\library/ctr_drbg.c **** int mbedtls_ctr_drbg_self_test( int verbose )
 660:Source\mbedtls_open\library/ctr_drbg.c **** {
 1175              		.loc 1 660 0
 1176              		.cfi_startproc
 1177              		@ args = 0, pretend = 0, frame = 336
 1178              		@ frame_needed = 0, uses_anonymous_args = 0
 1179              	.LVL168:
 1180 0000 30B5     		push	{r4, r5, lr}
 1181              		.cfi_def_cfa_offset 12
 1182              		.cfi_offset 4, -12
ARM GAS  C:\Users\Phuong\AppData\Local\Temp\ccMdlIAe.s 			page 36


 1183              		.cfi_offset 5, -8
 1184              		.cfi_offset 14, -4
 1185 0002 D7B0     		sub	sp, sp, #348
 1186              		.cfi_def_cfa_offset 360
 1187 0004 0400     		movs	r4, r0
 661:Source\mbedtls_open\library/ctr_drbg.c ****     mbedtls_ctr_drbg_context ctx;
 662:Source\mbedtls_open\library/ctr_drbg.c ****     unsigned char buf[16];
 663:Source\mbedtls_open\library/ctr_drbg.c **** 
 664:Source\mbedtls_open\library/ctr_drbg.c ****     mbedtls_ctr_drbg_init( &ctx );
 1188              		.loc 1 664 0
 1189 0006 06A8     		add	r0, sp, #24
 1190              	.LVL169:
 1191 0008 FFF7FEFF 		bl	mbedtls_ctr_drbg_init
 1192              	.LVL170:
 665:Source\mbedtls_open\library/ctr_drbg.c **** 
 666:Source\mbedtls_open\library/ctr_drbg.c ****     /*
 667:Source\mbedtls_open\library/ctr_drbg.c ****      * Based on a NIST CTR_DRBG test vector (PR = True)
 668:Source\mbedtls_open\library/ctr_drbg.c ****      */
 669:Source\mbedtls_open\library/ctr_drbg.c ****     if( verbose != 0 )
 1193              		.loc 1 669 0
 1194 000c 002C     		cmp	r4, #0
 1195 000e 02D0     		beq	.L78
 670:Source\mbedtls_open\library/ctr_drbg.c ****         mbedtls_printf( "  CTR_DRBG (PR = TRUE) : " );
 1196              		.loc 1 670 0
 1197 0010 6648     		ldr	r0, .L101
 1198 0012 FFF7FEFF 		bl	printf
 1199              	.LVL171:
 1200              	.L78:
 671:Source\mbedtls_open\library/ctr_drbg.c **** 
 672:Source\mbedtls_open\library/ctr_drbg.c ****     test_offset = 0;
 1201              		.loc 1 672 0
 1202 0016 0022     		movs	r2, #0
 1203 0018 654B     		ldr	r3, .L101+4
 1204 001a 1A60     		str	r2, [r3]
 673:Source\mbedtls_open\library/ctr_drbg.c ****     CHK( mbedtls_ctr_drbg_seed_entropy_len( &ctx, ctr_drbg_self_test_entropy,
 1205              		.loc 1 673 0
 1206 001c 654B     		ldr	r3, .L101+8
 1207 001e 1A00     		movs	r2, r3
 1208 0020 1032     		adds	r2, r2, #16
 1209 0022 2021     		movs	r1, #32
 1210 0024 0191     		str	r1, [sp, #4]
 1211 0026 1039     		subs	r1, r1, #16
 1212 0028 0091     		str	r1, [sp]
 1213 002a 6349     		ldr	r1, .L101+12
 1214 002c 06A8     		add	r0, sp, #24
 1215 002e FFF7FEFF 		bl	mbedtls_ctr_drbg_seed_entropy_len
 1216              	.LVL172:
 1217 0032 0028     		cmp	r0, #0
 1218 0034 07D0     		beq	.L79
 1219              		.loc 1 673 0 is_stmt 0 discriminator 1
 1220 0036 002C     		cmp	r4, #0
 1221 0038 00D1     		bne	.LCB1288
 1222 003a A3E0     		b	.L92	@long jump
 1223              	.LCB1288:
 1224              		.loc 1 673 0 discriminator 2
 1225 003c 5F48     		ldr	r0, .L101+16
 1226 003e FFF7FEFF 		bl	puts
ARM GAS  C:\Users\Phuong\AppData\Local\Temp\ccMdlIAe.s 			page 37


 1227              	.LVL173:
 1228 0042 0125     		movs	r5, #1
 1229 0044 AFE0     		b	.L80
 1230              	.L79:
 674:Source\mbedtls_open\library/ctr_drbg.c ****                                 (void *) entropy_source_pr, nonce_pers_pr, 16, 32 ) );
 675:Source\mbedtls_open\library/ctr_drbg.c ****     mbedtls_ctr_drbg_set_prediction_resistance( &ctx, MBEDTLS_CTR_DRBG_PR_ON );
 1231              		.loc 1 675 0 is_stmt 1
 1232 0046 0121     		movs	r1, #1
 1233 0048 06A8     		add	r0, sp, #24
 1234 004a FFF7FEFF 		bl	mbedtls_ctr_drbg_set_prediction_resistance
 1235              	.LVL174:
 676:Source\mbedtls_open\library/ctr_drbg.c ****     CHK( mbedtls_ctr_drbg_random( &ctx, buf, MBEDTLS_CTR_DRBG_BLOCKSIZE ) );
 1236              		.loc 1 676 0
 1237 004e 1022     		movs	r2, #16
 1238 0050 02A9     		add	r1, sp, #8
 1239 0052 06A8     		add	r0, sp, #24
 1240 0054 FFF7FEFF 		bl	mbedtls_ctr_drbg_random
 1241              	.LVL175:
 1242 0058 0028     		cmp	r0, #0
 1243 005a 07D0     		beq	.L81
 1244              		.loc 1 676 0 is_stmt 0 discriminator 1
 1245 005c 002C     		cmp	r4, #0
 1246 005e 00D1     		bne	.LCB1310
 1247 0060 92E0     		b	.L93	@long jump
 1248              	.LCB1310:
 1249              		.loc 1 676 0 discriminator 2
 1250 0062 5648     		ldr	r0, .L101+16
 1251 0064 FFF7FEFF 		bl	puts
 1252              	.LVL176:
 1253 0068 0125     		movs	r5, #1
 1254 006a 9CE0     		b	.L80
 1255              	.L81:
 677:Source\mbedtls_open\library/ctr_drbg.c ****     CHK( mbedtls_ctr_drbg_random( &ctx, buf, MBEDTLS_CTR_DRBG_BLOCKSIZE ) );
 1256              		.loc 1 677 0 is_stmt 1
 1257 006c 1022     		movs	r2, #16
 1258 006e 02A9     		add	r1, sp, #8
 1259 0070 06A8     		add	r0, sp, #24
 1260 0072 FFF7FEFF 		bl	mbedtls_ctr_drbg_random
 1261              	.LVL177:
 1262 0076 0028     		cmp	r0, #0
 1263 0078 07D0     		beq	.L82
 1264              		.loc 1 677 0 is_stmt 0 discriminator 1
 1265 007a 002C     		cmp	r4, #0
 1266 007c 00D1     		bne	.LCB1327
 1267 007e 85E0     		b	.L94	@long jump
 1268              	.LCB1327:
 1269              		.loc 1 677 0 discriminator 2
 1270 0080 4E48     		ldr	r0, .L101+16
 1271 0082 FFF7FEFF 		bl	puts
 1272              	.LVL178:
 1273 0086 0125     		movs	r5, #1
 1274 0088 8DE0     		b	.L80
 1275              	.L82:
 678:Source\mbedtls_open\library/ctr_drbg.c ****     CHK( memcmp( buf, result_pr, MBEDTLS_CTR_DRBG_BLOCKSIZE ) );
 1276              		.loc 1 678 0 is_stmt 1
 1277 008a 1022     		movs	r2, #16
 1278 008c 4949     		ldr	r1, .L101+8
ARM GAS  C:\Users\Phuong\AppData\Local\Temp\ccMdlIAe.s 			page 38


 1279 008e 7031     		adds	r1, r1, #112
 1280 0090 02A8     		add	r0, sp, #8
 1281 0092 FFF7FEFF 		bl	memcmp
 1282              	.LVL179:
 1283 0096 0028     		cmp	r0, #0
 1284 0098 06D0     		beq	.L83
 1285              		.loc 1 678 0 is_stmt 0 discriminator 1
 1286 009a 002C     		cmp	r4, #0
 1287 009c 78D0     		beq	.L95
 1288              		.loc 1 678 0 discriminator 2
 1289 009e 4748     		ldr	r0, .L101+16
 1290 00a0 FFF7FEFF 		bl	puts
 1291              	.LVL180:
 1292 00a4 0125     		movs	r5, #1
 1293 00a6 7EE0     		b	.L80
 1294              	.L83:
 679:Source\mbedtls_open\library/ctr_drbg.c **** 
 680:Source\mbedtls_open\library/ctr_drbg.c ****     mbedtls_ctr_drbg_free( &ctx );
 1295              		.loc 1 680 0 is_stmt 1
 1296 00a8 06A8     		add	r0, sp, #24
 1297 00aa FFF7FEFF 		bl	mbedtls_ctr_drbg_free
 1298              	.LVL181:
 681:Source\mbedtls_open\library/ctr_drbg.c **** 
 682:Source\mbedtls_open\library/ctr_drbg.c ****     if( verbose != 0 )
 1299              		.loc 1 682 0
 1300 00ae 002C     		cmp	r4, #0
 1301 00b0 02D0     		beq	.L84
 683:Source\mbedtls_open\library/ctr_drbg.c ****         mbedtls_printf( "passed\n" );
 1302              		.loc 1 683 0
 1303 00b2 4348     		ldr	r0, .L101+20
 1304 00b4 FFF7FEFF 		bl	puts
 1305              	.LVL182:
 1306              	.L84:
 684:Source\mbedtls_open\library/ctr_drbg.c **** 
 685:Source\mbedtls_open\library/ctr_drbg.c ****     /*
 686:Source\mbedtls_open\library/ctr_drbg.c ****      * Based on a NIST CTR_DRBG test vector (PR = FALSE)
 687:Source\mbedtls_open\library/ctr_drbg.c ****      */
 688:Source\mbedtls_open\library/ctr_drbg.c ****     if( verbose != 0 )
 1307              		.loc 1 688 0
 1308 00b8 002C     		cmp	r4, #0
 1309 00ba 02D0     		beq	.L85
 689:Source\mbedtls_open\library/ctr_drbg.c ****         mbedtls_printf( "  CTR_DRBG (PR = FALSE): " );
 1310              		.loc 1 689 0
 1311 00bc 4148     		ldr	r0, .L101+24
 1312 00be FFF7FEFF 		bl	printf
 1313              	.LVL183:
 1314              	.L85:
 690:Source\mbedtls_open\library/ctr_drbg.c **** 
 691:Source\mbedtls_open\library/ctr_drbg.c ****     mbedtls_ctr_drbg_init( &ctx );
 1315              		.loc 1 691 0
 1316 00c2 06A8     		add	r0, sp, #24
 1317 00c4 FFF7FEFF 		bl	mbedtls_ctr_drbg_init
 1318              	.LVL184:
 692:Source\mbedtls_open\library/ctr_drbg.c **** 
 693:Source\mbedtls_open\library/ctr_drbg.c ****     test_offset = 0;
 1319              		.loc 1 693 0
 1320 00c8 0022     		movs	r2, #0
ARM GAS  C:\Users\Phuong\AppData\Local\Temp\ccMdlIAe.s 			page 39


 1321 00ca 394B     		ldr	r3, .L101+4
 1322 00cc 1A60     		str	r2, [r3]
 694:Source\mbedtls_open\library/ctr_drbg.c ****     CHK( mbedtls_ctr_drbg_seed_entropy_len( &ctx, ctr_drbg_self_test_entropy,
 1323              		.loc 1 694 0
 1324 00ce 3E4B     		ldr	r3, .L101+28
 1325 00d0 1A00     		movs	r2, r3
 1326 00d2 1032     		adds	r2, r2, #16
 1327 00d4 2021     		movs	r1, #32
 1328 00d6 0191     		str	r1, [sp, #4]
 1329 00d8 1039     		subs	r1, r1, #16
 1330 00da 0091     		str	r1, [sp]
 1331 00dc 3649     		ldr	r1, .L101+12
 1332 00de 06A8     		add	r0, sp, #24
 1333 00e0 FFF7FEFF 		bl	mbedtls_ctr_drbg_seed_entropy_len
 1334              	.LVL185:
 1335 00e4 0028     		cmp	r0, #0
 1336 00e6 06D0     		beq	.L86
 1337              		.loc 1 694 0 is_stmt 0 discriminator 1
 1338 00e8 002C     		cmp	r4, #0
 1339 00ea 53D0     		beq	.L96
 1340              		.loc 1 694 0 discriminator 2
 1341 00ec 3348     		ldr	r0, .L101+16
 1342 00ee FFF7FEFF 		bl	puts
 1343              	.LVL186:
 1344 00f2 0125     		movs	r5, #1
 1345 00f4 57E0     		b	.L80
 1346              	.L86:
 695:Source\mbedtls_open\library/ctr_drbg.c ****                             (void *) entropy_source_nopr, nonce_pers_nopr, 16, 32 ) );
 696:Source\mbedtls_open\library/ctr_drbg.c ****     CHK( mbedtls_ctr_drbg_random( &ctx, buf, 16 ) );
 1347              		.loc 1 696 0 is_stmt 1
 1348 00f6 1022     		movs	r2, #16
 1349 00f8 02A9     		add	r1, sp, #8
 1350 00fa 06A8     		add	r0, sp, #24
 1351 00fc FFF7FEFF 		bl	mbedtls_ctr_drbg_random
 1352              	.LVL187:
 1353 0100 0028     		cmp	r0, #0
 1354 0102 06D0     		beq	.L87
 1355              		.loc 1 696 0 is_stmt 0 discriminator 1
 1356 0104 002C     		cmp	r4, #0
 1357 0106 47D0     		beq	.L97
 1358              		.loc 1 696 0 discriminator 2
 1359 0108 2C48     		ldr	r0, .L101+16
 1360 010a FFF7FEFF 		bl	puts
 1361              	.LVL188:
 1362 010e 0125     		movs	r5, #1
 1363 0110 49E0     		b	.L80
 1364              	.L87:
 697:Source\mbedtls_open\library/ctr_drbg.c ****     CHK( mbedtls_ctr_drbg_reseed( &ctx, NULL, 0 ) );
 1365              		.loc 1 697 0 is_stmt 1
 1366 0112 0022     		movs	r2, #0
 1367 0114 0021     		movs	r1, #0
 1368 0116 06A8     		add	r0, sp, #24
 1369 0118 FFF7FEFF 		bl	mbedtls_ctr_drbg_reseed
 1370              	.LVL189:
 1371 011c 0028     		cmp	r0, #0
 1372 011e 06D0     		beq	.L88
 1373              		.loc 1 697 0 is_stmt 0 discriminator 1
ARM GAS  C:\Users\Phuong\AppData\Local\Temp\ccMdlIAe.s 			page 40


 1374 0120 002C     		cmp	r4, #0
 1375 0122 3BD0     		beq	.L98
 1376              		.loc 1 697 0 discriminator 2
 1377 0124 2548     		ldr	r0, .L101+16
 1378 0126 FFF7FEFF 		bl	puts
 1379              	.LVL190:
 1380 012a 0125     		movs	r5, #1
 1381 012c 3BE0     		b	.L80
 1382              	.L88:
 698:Source\mbedtls_open\library/ctr_drbg.c ****     CHK( mbedtls_ctr_drbg_random( &ctx, buf, 16 ) );
 1383              		.loc 1 698 0 is_stmt 1
 1384 012e 1022     		movs	r2, #16
 1385 0130 02A9     		add	r1, sp, #8
 1386 0132 06A8     		add	r0, sp, #24
 1387 0134 FFF7FEFF 		bl	mbedtls_ctr_drbg_random
 1388              	.LVL191:
 1389 0138 0028     		cmp	r0, #0
 1390 013a 06D0     		beq	.L89
 1391              		.loc 1 698 0 is_stmt 0 discriminator 1
 1392 013c 002C     		cmp	r4, #0
 1393 013e 2FD0     		beq	.L99
 1394              		.loc 1 698 0 discriminator 2
 1395 0140 1E48     		ldr	r0, .L101+16
 1396 0142 FFF7FEFF 		bl	puts
 1397              	.LVL192:
 1398 0146 0125     		movs	r5, #1
 1399 0148 2DE0     		b	.L80
 1400              	.L89:
 699:Source\mbedtls_open\library/ctr_drbg.c ****     CHK( memcmp( buf, result_nopr, 16 ) );
 1401              		.loc 1 699 0 is_stmt 1
 1402 014a 1022     		movs	r2, #16
 1403 014c 1E49     		ldr	r1, .L101+28
 1404 014e 5031     		adds	r1, r1, #80
 1405 0150 02A8     		add	r0, sp, #8
 1406 0152 FFF7FEFF 		bl	memcmp
 1407              	.LVL193:
 1408 0156 051E     		subs	r5, r0, #0
 1409 0158 06D0     		beq	.L90
 1410              		.loc 1 699 0 is_stmt 0 discriminator 1
 1411 015a 002C     		cmp	r4, #0
 1412 015c 22D0     		beq	.L100
 1413              		.loc 1 699 0 discriminator 2
 1414 015e 1748     		ldr	r0, .L101+16
 1415 0160 FFF7FEFF 		bl	puts
 1416              	.LVL194:
 1417 0164 0125     		movs	r5, #1
 1418 0166 1EE0     		b	.L80
 1419              	.L90:
 700:Source\mbedtls_open\library/ctr_drbg.c **** 
 701:Source\mbedtls_open\library/ctr_drbg.c ****     mbedtls_ctr_drbg_free( &ctx );
 1420              		.loc 1 701 0 is_stmt 1
 1421 0168 06A8     		add	r0, sp, #24
 1422 016a FFF7FEFF 		bl	mbedtls_ctr_drbg_free
 1423              	.LVL195:
 702:Source\mbedtls_open\library/ctr_drbg.c **** 
 703:Source\mbedtls_open\library/ctr_drbg.c ****     if( verbose != 0 )
 1424              		.loc 1 703 0
ARM GAS  C:\Users\Phuong\AppData\Local\Temp\ccMdlIAe.s 			page 41


 1425 016e 002C     		cmp	r4, #0
 1426 0170 02D0     		beq	.L91
 704:Source\mbedtls_open\library/ctr_drbg.c ****         mbedtls_printf( "passed\n" );
 1427              		.loc 1 704 0
 1428 0172 1348     		ldr	r0, .L101+20
 1429 0174 FFF7FEFF 		bl	puts
 1430              	.LVL196:
 1431              	.L91:
 705:Source\mbedtls_open\library/ctr_drbg.c **** 
 706:Source\mbedtls_open\library/ctr_drbg.c ****     if( verbose != 0 )
 1432              		.loc 1 706 0
 1433 0178 002C     		cmp	r4, #0
 1434 017a 14D0     		beq	.L80
 707:Source\mbedtls_open\library/ctr_drbg.c ****             mbedtls_printf( "\n" );
 1435              		.loc 1 707 0
 1436 017c 0A20     		movs	r0, #10
 1437 017e FFF7FEFF 		bl	putchar
 1438              	.LVL197:
 1439 0182 10E0     		b	.L80
 1440              	.L92:
 673:Source\mbedtls_open\library/ctr_drbg.c ****                                 (void *) entropy_source_pr, nonce_pers_pr, 16, 32 ) );
 1441              		.loc 1 673 0
 1442 0184 0125     		movs	r5, #1
 1443 0186 0EE0     		b	.L80
 1444              	.L93:
 676:Source\mbedtls_open\library/ctr_drbg.c ****     CHK( mbedtls_ctr_drbg_random( &ctx, buf, MBEDTLS_CTR_DRBG_BLOCKSIZE ) );
 1445              		.loc 1 676 0
 1446 0188 0125     		movs	r5, #1
 1447 018a 0CE0     		b	.L80
 1448              	.L94:
 677:Source\mbedtls_open\library/ctr_drbg.c ****     CHK( memcmp( buf, result_pr, MBEDTLS_CTR_DRBG_BLOCKSIZE ) );
 1449              		.loc 1 677 0
 1450 018c 0125     		movs	r5, #1
 1451 018e 0AE0     		b	.L80
 1452              	.L95:
 678:Source\mbedtls_open\library/ctr_drbg.c **** 
 1453              		.loc 1 678 0
 1454 0190 0125     		movs	r5, #1
 1455 0192 08E0     		b	.L80
 1456              	.L96:
 694:Source\mbedtls_open\library/ctr_drbg.c ****                             (void *) entropy_source_nopr, nonce_pers_nopr, 16, 32 ) );
 1457              		.loc 1 694 0
 1458 0194 0125     		movs	r5, #1
 1459 0196 06E0     		b	.L80
 1460              	.L97:
 696:Source\mbedtls_open\library/ctr_drbg.c ****     CHK( mbedtls_ctr_drbg_reseed( &ctx, NULL, 0 ) );
 1461              		.loc 1 696 0
 1462 0198 0125     		movs	r5, #1
 1463 019a 04E0     		b	.L80
 1464              	.L98:
 697:Source\mbedtls_open\library/ctr_drbg.c ****     CHK( mbedtls_ctr_drbg_random( &ctx, buf, 16 ) );
 1465              		.loc 1 697 0
 1466 019c 0125     		movs	r5, #1
 1467 019e 02E0     		b	.L80
 1468              	.L99:
 698:Source\mbedtls_open\library/ctr_drbg.c ****     CHK( memcmp( buf, result_nopr, 16 ) );
 1469              		.loc 1 698 0
ARM GAS  C:\Users\Phuong\AppData\Local\Temp\ccMdlIAe.s 			page 42


 1470 01a0 0125     		movs	r5, #1
 1471 01a2 00E0     		b	.L80
 1472              	.L100:
 699:Source\mbedtls_open\library/ctr_drbg.c **** 
 1473              		.loc 1 699 0
 1474 01a4 0125     		movs	r5, #1
 1475              	.L80:
 708:Source\mbedtls_open\library/ctr_drbg.c **** 
 709:Source\mbedtls_open\library/ctr_drbg.c ****     return( 0 );
 710:Source\mbedtls_open\library/ctr_drbg.c **** }
 1476              		.loc 1 710 0
 1477 01a6 2800     		movs	r0, r5
 1478 01a8 57B0     		add	sp, sp, #348
 1479              		@ sp needed
 1480              	.LVL198:
 1481 01aa 30BD     		pop	{r4, r5, pc}
 1482              	.L102:
 1483              		.align	2
 1484              	.L101:
 1485 01ac 00000000 		.word	.LC1
 1486 01b0 00000000 		.word	.LANCHOR0
 1487 01b4 00000000 		.word	.LANCHOR1
 1488 01b8 00000000 		.word	ctr_drbg_self_test_entropy
 1489 01bc 1C000000 		.word	.LC6
 1490 01c0 24000000 		.word	.LC8
 1491 01c4 2C000000 		.word	.LC10
 1492 01c8 80000000 		.word	.LANCHOR2
 1493              		.cfi_endproc
 1494              	.LFE15:
 1495              		.size	mbedtls_ctr_drbg_self_test, .-mbedtls_ctr_drbg_self_test
 1496              		.section	.rodata
 1497              		.align	2
 1498              		.set	.LANCHOR1,. + 0
 1499              		.set	.LANCHOR2,. + 128
 1500              		.type	nonce_pers_pr, %object
 1501              		.size	nonce_pers_pr, 16
 1502              	nonce_pers_pr:
 1503 0000 D2       		.byte	-46
 1504 0001 54       		.byte	84
 1505 0002 FC       		.byte	-4
 1506 0003 FF       		.byte	-1
 1507 0004 02       		.byte	2
 1508 0005 1E       		.byte	30
 1509 0006 69       		.byte	105
 1510 0007 D2       		.byte	-46
 1511 0008 29       		.byte	41
 1512 0009 C9       		.byte	-55
 1513 000a CF       		.byte	-49
 1514 000b AD       		.byte	-83
 1515 000c 85       		.byte	-123
 1516 000d FA       		.byte	-6
 1517 000e 48       		.byte	72
 1518 000f 6C       		.byte	108
 1519              		.type	entropy_source_pr, %object
 1520              		.size	entropy_source_pr, 96
 1521              	entropy_source_pr:
 1522 0010 C1       		.byte	-63
ARM GAS  C:\Users\Phuong\AppData\Local\Temp\ccMdlIAe.s 			page 43


 1523 0011 80       		.byte	-128
 1524 0012 81       		.byte	-127
 1525 0013 A6       		.byte	-90
 1526 0014 5D       		.byte	93
 1527 0015 44       		.byte	68
 1528 0016 02       		.byte	2
 1529 0017 16       		.byte	22
 1530 0018 19       		.byte	25
 1531 0019 B3       		.byte	-77
 1532 001a F1       		.byte	-15
 1533 001b 80       		.byte	-128
 1534 001c B1       		.byte	-79
 1535 001d C9       		.byte	-55
 1536 001e 20       		.byte	32
 1537 001f 02       		.byte	2
 1538 0020 6A       		.byte	106
 1539 0021 54       		.byte	84
 1540 0022 6F       		.byte	111
 1541 0023 0C       		.byte	12
 1542 0024 70       		.byte	112
 1543 0025 81       		.byte	-127
 1544 0026 49       		.byte	73
 1545 0027 8B       		.byte	-117
 1546 0028 6E       		.byte	110
 1547 0029 A6       		.byte	-90
 1548 002a 62       		.byte	98
 1549 002b 52       		.byte	82
 1550 002c 6D       		.byte	109
 1551 002d 51       		.byte	81
 1552 002e B1       		.byte	-79
 1553 002f CB       		.byte	-53
 1554 0030 58       		.byte	88
 1555 0031 3B       		.byte	59
 1556 0032 FA       		.byte	-6
 1557 0033 D5       		.byte	-43
 1558 0034 37       		.byte	55
 1559 0035 5F       		.byte	95
 1560 0036 FB       		.byte	-5
 1561 0037 C9       		.byte	-55
 1562 0038 FF       		.byte	-1
 1563 0039 46       		.byte	70
 1564 003a D2       		.byte	-46
 1565 003b 19       		.byte	25
 1566 003c C7       		.byte	-57
 1567 003d 22       		.byte	34
 1568 003e 3E       		.byte	62
 1569 003f 95       		.byte	-107
 1570 0040 45       		.byte	69
 1571 0041 9D       		.byte	-99
 1572 0042 82       		.byte	-126
 1573 0043 E1       		.byte	-31
 1574 0044 E7       		.byte	-25
 1575 0045 22       		.byte	34
 1576 0046 9F       		.byte	-97
 1577 0047 63       		.byte	99
 1578 0048 31       		.byte	49
 1579 0049 69       		.byte	105
ARM GAS  C:\Users\Phuong\AppData\Local\Temp\ccMdlIAe.s 			page 44


 1580 004a D2       		.byte	-46
 1581 004b 6B       		.byte	107
 1582 004c 57       		.byte	87
 1583 004d 47       		.byte	71
 1584 004e 4F       		.byte	79
 1585 004f A3       		.byte	-93
 1586 0050 37       		.byte	55
 1587 0051 C9       		.byte	-55
 1588 0052 98       		.byte	-104
 1589 0053 1C       		.byte	28
 1590 0054 0B       		.byte	11
 1591 0055 FB       		.byte	-5
 1592 0056 91       		.byte	-111
 1593 0057 31       		.byte	49
 1594 0058 4D       		.byte	77
 1595 0059 55       		.byte	85
 1596 005a B9       		.byte	-71
 1597 005b E9       		.byte	-23
 1598 005c 1C       		.byte	28
 1599 005d 5A       		.byte	90
 1600 005e 5E       		.byte	94
 1601 005f E4       		.byte	-28
 1602 0060 93       		.byte	-109
 1603 0061 92       		.byte	-110
 1604 0062 CF       		.byte	-49
 1605 0063 C5       		.byte	-59
 1606 0064 23       		.byte	35
 1607 0065 12       		.byte	18
 1608 0066 D5       		.byte	-43
 1609 0067 56       		.byte	86
 1610 0068 2C       		.byte	44
 1611 0069 4A       		.byte	74
 1612 006a 6E       		.byte	110
 1613 006b FF       		.byte	-1
 1614 006c DC       		.byte	-36
 1615 006d 10       		.byte	16
 1616 006e D0       		.byte	-48
 1617 006f 68       		.byte	104
 1618              		.type	result_pr, %object
 1619              		.size	result_pr, 16
 1620              	result_pr:
 1621 0070 34       		.byte	52
 1622 0071 01       		.byte	1
 1623 0072 16       		.byte	22
 1624 0073 56       		.byte	86
 1625 0074 B4       		.byte	-76
 1626 0075 29       		.byte	41
 1627 0076 00       		.byte	0
 1628 0077 8F       		.byte	-113
 1629 0078 35       		.byte	53
 1630 0079 63       		.byte	99
 1631 007a EC       		.byte	-20
 1632 007b B5       		.byte	-75
 1633 007c F2       		.byte	-14
 1634 007d 59       		.byte	89
 1635 007e 07       		.byte	7
 1636 007f 23       		.byte	35
ARM GAS  C:\Users\Phuong\AppData\Local\Temp\ccMdlIAe.s 			page 45


 1637              		.type	nonce_pers_nopr, %object
 1638              		.size	nonce_pers_nopr, 16
 1639              	nonce_pers_nopr:
 1640 0080 1B       		.byte	27
 1641 0081 54       		.byte	84
 1642 0082 B8       		.byte	-72
 1643 0083 FF       		.byte	-1
 1644 0084 06       		.byte	6
 1645 0085 42       		.byte	66
 1646 0086 BF       		.byte	-65
 1647 0087 F5       		.byte	-11
 1648 0088 21       		.byte	33
 1649 0089 F1       		.byte	-15
 1650 008a 5C       		.byte	92
 1651 008b 1C       		.byte	28
 1652 008c 0B       		.byte	11
 1653 008d 66       		.byte	102
 1654 008e 5F       		.byte	95
 1655 008f 3F       		.byte	63
 1656              		.type	entropy_source_nopr, %object
 1657              		.size	entropy_source_nopr, 64
 1658              	entropy_source_nopr:
 1659 0090 5A       		.byte	90
 1660 0091 19       		.byte	25
 1661 0092 4D       		.byte	77
 1662 0093 5E       		.byte	94
 1663 0094 2B       		.byte	43
 1664 0095 31       		.byte	49
 1665 0096 58       		.byte	88
 1666 0097 14       		.byte	20
 1667 0098 54       		.byte	84
 1668 0099 DE       		.byte	-34
 1669 009a F6       		.byte	-10
 1670 009b 75       		.byte	117
 1671 009c FB       		.byte	-5
 1672 009d 79       		.byte	121
 1673 009e 58       		.byte	88
 1674 009f FE       		.byte	-2
 1675 00a0 C7       		.byte	-57
 1676 00a1 DB       		.byte	-37
 1677 00a2 87       		.byte	-121
 1678 00a3 3E       		.byte	62
 1679 00a4 56       		.byte	86
 1680 00a5 89       		.byte	-119
 1681 00a6 FC       		.byte	-4
 1682 00a7 9D       		.byte	-99
 1683 00a8 03       		.byte	3
 1684 00a9 21       		.byte	33
 1685 00aa 7C       		.byte	124
 1686 00ab 68       		.byte	104
 1687 00ac D8       		.byte	-40
 1688 00ad 03       		.byte	3
 1689 00ae 38       		.byte	56
 1690 00af 20       		.byte	32
 1691 00b0 F9       		.byte	-7
 1692 00b1 E6       		.byte	-26
 1693 00b2 5E       		.byte	94
ARM GAS  C:\Users\Phuong\AppData\Local\Temp\ccMdlIAe.s 			page 46


 1694 00b3 04       		.byte	4
 1695 00b4 D8       		.byte	-40
 1696 00b5 56       		.byte	86
 1697 00b6 F3       		.byte	-13
 1698 00b7 A9       		.byte	-87
 1699 00b8 C4       		.byte	-60
 1700 00b9 4A       		.byte	74
 1701 00ba 4C       		.byte	76
 1702 00bb BD       		.byte	-67
 1703 00bc C1       		.byte	-63
 1704 00bd D0       		.byte	-48
 1705 00be 08       		.byte	8
 1706 00bf 46       		.byte	70
 1707 00c0 F5       		.byte	-11
 1708 00c1 98       		.byte	-104
 1709 00c2 3D       		.byte	61
 1710 00c3 77       		.byte	119
 1711 00c4 1C       		.byte	28
 1712 00c5 1B       		.byte	27
 1713 00c6 13       		.byte	19
 1714 00c7 7E       		.byte	126
 1715 00c8 4E       		.byte	78
 1716 00c9 0F       		.byte	15
 1717 00ca 9D       		.byte	-99
 1718 00cb 8E       		.byte	-114
 1719 00cc F4       		.byte	-12
 1720 00cd 09       		.byte	9
 1721 00ce F9       		.byte	-7
 1722 00cf 2E       		.byte	46
 1723              		.type	result_nopr, %object
 1724              		.size	result_nopr, 16
 1725              	result_nopr:
 1726 00d0 A0       		.byte	-96
 1727 00d1 54       		.byte	84
 1728 00d2 30       		.byte	48
 1729 00d3 3D       		.byte	61
 1730 00d4 8A       		.byte	-118
 1731 00d5 7E       		.byte	126
 1732 00d6 A9       		.byte	-87
 1733 00d7 88       		.byte	-120
 1734 00d8 9D       		.byte	-99
 1735 00d9 90       		.byte	-112
 1736 00da 3E       		.byte	62
 1737 00db 07       		.byte	7
 1738 00dc 7C       		.byte	124
 1739 00dd 6F       		.byte	111
 1740 00de 21       		.byte	33
 1741 00df 8F       		.byte	-113
 1742              		.section	.rodata.str1.4,"aMS",%progbits,1
 1743              		.align	2
 1744              	.LC1:
 1745 0000 20204354 		.ascii	"  CTR_DRBG (PR = TRUE) : \000"
 1745      525F4452 
 1745      42472028 
 1745      5052203D 
 1745      20545255 
 1746 001a 0000     		.space	2
ARM GAS  C:\Users\Phuong\AppData\Local\Temp\ccMdlIAe.s 			page 47


 1747              	.LC6:
 1748 001c 6661696C 		.ascii	"failed\000"
 1748      656400
 1749 0023 00       		.space	1
 1750              	.LC8:
 1751 0024 70617373 		.ascii	"passed\000"
 1751      656400
 1752 002b 00       		.space	1
 1753              	.LC10:
 1754 002c 20204354 		.ascii	"  CTR_DRBG (PR = FALSE): \000"
 1754      525F4452 
 1754      42472028 
 1754      5052203D 
 1754      2046414C 
 1755              		.bss
 1756              		.align	2
 1757              		.set	.LANCHOR0,. + 0
 1758              		.type	test_offset, %object
 1759              		.size	test_offset, 4
 1760              	test_offset:
 1761 0000 00000000 		.space	4
 1762              		.text
 1763              	.Letext0:
 1764              		.file 2 "c:\\program files (x86)\\cypress\\psoc creator\\4.2\\psoc creator\\import\\gnu\\arm\\5.4.
 1765              		.file 3 "c:\\program files (x86)\\cypress\\psoc creator\\4.2\\psoc creator\\import\\gnu\\arm\\5.4.
 1766              		.file 4 "c:\\program files (x86)\\cypress\\psoc creator\\4.2\\psoc creator\\import\\gnu\\arm\\5.4.
 1767              		.file 5 ".\\Source\\mbedtls_open\\include/mbedtls/aes.h"
 1768              		.file 6 ".\\Source\\mbedtls_open\\include/mbedtls/ctr_drbg.h"
 1769              		.file 7 ".\\Source\\mbedtls_open\\include/mbedtls/platform_util.h"
 1770              		.file 8 "c:\\program files (x86)\\cypress\\psoc creator\\4.2\\psoc creator\\import\\gnu\\arm\\5.4.
 1771              		.file 9 "c:\\program files (x86)\\cypress\\psoc creator\\4.2\\psoc creator\\import\\gnu\\arm\\5.4.
 1772              		.file 10 "<built-in>"