ARM GAS  C:\Users\Phuong\AppData\Local\Temp\ccgxicpz.s 			page 1


   1              		.syntax unified
   2              		.cpu cortex-m0plus
   3              		.fpu softvfp
   4              		.eabi_attribute 20, 1
   5              		.eabi_attribute 21, 1
   6              		.eabi_attribute 23, 3
   7              		.eabi_attribute 24, 1
   8              		.eabi_attribute 25, 1
   9              		.eabi_attribute 26, 1
  10              		.eabi_attribute 30, 1
  11              		.eabi_attribute 34, 0
  12              		.eabi_attribute 18, 4
  13              		.thumb
  14              		.syntax unified
  15              		.file	"debug.c"
  16              		.text
  17              	.Ltext0:
  18              		.cfi_sections	.debug_frame
  19              		.section	.text.debug_print_line_by_line,"ax",%progbits
  20              		.align	2
  21              		.code	16
  22              		.thumb_func
  23              		.type	debug_print_line_by_line, %function
  24              	debug_print_line_by_line:
  25              	.LFB26:
  26              		.file 1 "Source\\mbedtls_open\\library\\debug.c"
   1:Source\mbedtls_open\library/debug.c **** /*
   2:Source\mbedtls_open\library/debug.c ****  *  Debugging routines
   3:Source\mbedtls_open\library/debug.c ****  *
   4:Source\mbedtls_open\library/debug.c ****  *  Copyright (C) 2006-2015, ARM Limited, All Rights Reserved
   5:Source\mbedtls_open\library/debug.c ****  *  SPDX-License-Identifier: Apache-2.0
   6:Source\mbedtls_open\library/debug.c ****  *
   7:Source\mbedtls_open\library/debug.c ****  *  Licensed under the Apache License, Version 2.0 (the "License"); you may
   8:Source\mbedtls_open\library/debug.c ****  *  not use this file except in compliance with the License.
   9:Source\mbedtls_open\library/debug.c ****  *  You may obtain a copy of the License at
  10:Source\mbedtls_open\library/debug.c ****  *
  11:Source\mbedtls_open\library/debug.c ****  *  http://www.apache.org/licenses/LICENSE-2.0
  12:Source\mbedtls_open\library/debug.c ****  *
  13:Source\mbedtls_open\library/debug.c ****  *  Unless required by applicable law or agreed to in writing, software
  14:Source\mbedtls_open\library/debug.c ****  *  distributed under the License is distributed on an "AS IS" BASIS, WITHOUT
  15:Source\mbedtls_open\library/debug.c ****  *  WARRANTIES OR CONDITIONS OF ANY KIND, either express or implied.
  16:Source\mbedtls_open\library/debug.c ****  *  See the License for the specific language governing permissions and
  17:Source\mbedtls_open\library/debug.c ****  *  limitations under the License.
  18:Source\mbedtls_open\library/debug.c ****  *
  19:Source\mbedtls_open\library/debug.c ****  *  This file is part of mbed TLS (https://tls.mbed.org)
  20:Source\mbedtls_open\library/debug.c ****  */
  21:Source\mbedtls_open\library/debug.c **** 
  22:Source\mbedtls_open\library/debug.c **** #if !defined(MBEDTLS_CONFIG_FILE)
  23:Source\mbedtls_open\library/debug.c **** #include "mbedtls/config.h"
  24:Source\mbedtls_open\library/debug.c **** #else
  25:Source\mbedtls_open\library/debug.c **** #include MBEDTLS_CONFIG_FILE
  26:Source\mbedtls_open\library/debug.c **** #endif
  27:Source\mbedtls_open\library/debug.c **** 
  28:Source\mbedtls_open\library/debug.c **** #if defined(MBEDTLS_DEBUG_C)
  29:Source\mbedtls_open\library/debug.c **** 
  30:Source\mbedtls_open\library/debug.c **** #if defined(MBEDTLS_PLATFORM_C)
  31:Source\mbedtls_open\library/debug.c **** #include "mbedtls/platform.h"
ARM GAS  C:\Users\Phuong\AppData\Local\Temp\ccgxicpz.s 			page 2


  32:Source\mbedtls_open\library/debug.c **** #else
  33:Source\mbedtls_open\library/debug.c **** #include <stdlib.h>
  34:Source\mbedtls_open\library/debug.c **** #define mbedtls_calloc      calloc
  35:Source\mbedtls_open\library/debug.c **** #define mbedtls_free        free
  36:Source\mbedtls_open\library/debug.c **** #define mbedtls_time_t      time_t
  37:Source\mbedtls_open\library/debug.c **** #define mbedtls_snprintf    snprintf
  38:Source\mbedtls_open\library/debug.c **** #endif
  39:Source\mbedtls_open\library/debug.c **** 
  40:Source\mbedtls_open\library/debug.c **** #include "mbedtls/debug.h"
  41:Source\mbedtls_open\library/debug.c **** 
  42:Source\mbedtls_open\library/debug.c **** #include <stdarg.h>
  43:Source\mbedtls_open\library/debug.c **** #include <stdio.h>
  44:Source\mbedtls_open\library/debug.c **** #include <string.h>
  45:Source\mbedtls_open\library/debug.c **** 
  46:Source\mbedtls_open\library/debug.c **** #if ( defined(__ARMCC_VERSION) || defined(_MSC_VER) ) && \
  47:Source\mbedtls_open\library/debug.c ****     !defined(inline) && !defined(__cplusplus)
  48:Source\mbedtls_open\library/debug.c **** #define inline __inline
  49:Source\mbedtls_open\library/debug.c **** #endif
  50:Source\mbedtls_open\library/debug.c **** 
  51:Source\mbedtls_open\library/debug.c **** #define DEBUG_BUF_SIZE      512
  52:Source\mbedtls_open\library/debug.c **** 
  53:Source\mbedtls_open\library/debug.c **** static int debug_threshold = 0;
  54:Source\mbedtls_open\library/debug.c **** 
  55:Source\mbedtls_open\library/debug.c **** void mbedtls_debug_set_threshold( int threshold )
  56:Source\mbedtls_open\library/debug.c **** {
  57:Source\mbedtls_open\library/debug.c ****     debug_threshold = threshold;
  58:Source\mbedtls_open\library/debug.c **** }
  59:Source\mbedtls_open\library/debug.c **** 
  60:Source\mbedtls_open\library/debug.c **** /*
  61:Source\mbedtls_open\library/debug.c ****  * All calls to f_dbg must be made via this function
  62:Source\mbedtls_open\library/debug.c ****  */
  63:Source\mbedtls_open\library/debug.c **** static inline void debug_send_line( const mbedtls_ssl_context *ssl, int level,
  64:Source\mbedtls_open\library/debug.c ****                                     const char *file, int line,
  65:Source\mbedtls_open\library/debug.c ****                                     const char *str )
  66:Source\mbedtls_open\library/debug.c **** {
  67:Source\mbedtls_open\library/debug.c ****     /*
  68:Source\mbedtls_open\library/debug.c ****      * If in a threaded environment, we need a thread identifier.
  69:Source\mbedtls_open\library/debug.c ****      * Since there is no portable way to get one, use the address of the ssl
  70:Source\mbedtls_open\library/debug.c ****      * context instead, as it shouldn't be shared between threads.
  71:Source\mbedtls_open\library/debug.c ****      */
  72:Source\mbedtls_open\library/debug.c **** #if defined(MBEDTLS_THREADING_C)
  73:Source\mbedtls_open\library/debug.c ****     char idstr[20 + DEBUG_BUF_SIZE]; /* 0x + 16 nibbles + ': ' */
  74:Source\mbedtls_open\library/debug.c ****     mbedtls_snprintf( idstr, sizeof( idstr ), "%p: %s", (void*)ssl, str );
  75:Source\mbedtls_open\library/debug.c ****     ssl->conf->f_dbg( ssl->conf->p_dbg, level, file, line, idstr );
  76:Source\mbedtls_open\library/debug.c **** #else
  77:Source\mbedtls_open\library/debug.c ****     ssl->conf->f_dbg( ssl->conf->p_dbg, level, file, line, str );
  78:Source\mbedtls_open\library/debug.c **** #endif
  79:Source\mbedtls_open\library/debug.c **** }
  80:Source\mbedtls_open\library/debug.c **** 
  81:Source\mbedtls_open\library/debug.c **** void mbedtls_debug_print_msg( const mbedtls_ssl_context *ssl, int level,
  82:Source\mbedtls_open\library/debug.c ****                               const char *file, int line,
  83:Source\mbedtls_open\library/debug.c ****                               const char *format, ... )
  84:Source\mbedtls_open\library/debug.c **** {
  85:Source\mbedtls_open\library/debug.c ****     va_list argp;
  86:Source\mbedtls_open\library/debug.c ****     char str[DEBUG_BUF_SIZE];
  87:Source\mbedtls_open\library/debug.c ****     int ret;
  88:Source\mbedtls_open\library/debug.c **** 
ARM GAS  C:\Users\Phuong\AppData\Local\Temp\ccgxicpz.s 			page 3


  89:Source\mbedtls_open\library/debug.c ****     if( NULL == ssl || NULL == ssl->conf || NULL == ssl->conf->f_dbg || level > debug_threshold )
  90:Source\mbedtls_open\library/debug.c ****         return;
  91:Source\mbedtls_open\library/debug.c **** 
  92:Source\mbedtls_open\library/debug.c ****     va_start( argp, format );
  93:Source\mbedtls_open\library/debug.c **** #if defined(_WIN32)
  94:Source\mbedtls_open\library/debug.c **** #if defined(_TRUNCATE) && !defined(__MINGW32__)
  95:Source\mbedtls_open\library/debug.c ****     ret = _vsnprintf_s( str, DEBUG_BUF_SIZE, _TRUNCATE, format, argp );
  96:Source\mbedtls_open\library/debug.c **** #else
  97:Source\mbedtls_open\library/debug.c ****     ret = _vsnprintf( str, DEBUG_BUF_SIZE, format, argp );
  98:Source\mbedtls_open\library/debug.c ****     if( ret < 0 || (size_t) ret == DEBUG_BUF_SIZE )
  99:Source\mbedtls_open\library/debug.c ****     {
 100:Source\mbedtls_open\library/debug.c ****         str[DEBUG_BUF_SIZE-1] = '\0';
 101:Source\mbedtls_open\library/debug.c ****         ret = -1;
 102:Source\mbedtls_open\library/debug.c ****     }
 103:Source\mbedtls_open\library/debug.c **** #endif
 104:Source\mbedtls_open\library/debug.c **** #else
 105:Source\mbedtls_open\library/debug.c ****     ret = vsnprintf( str, DEBUG_BUF_SIZE, format, argp );
 106:Source\mbedtls_open\library/debug.c **** #endif
 107:Source\mbedtls_open\library/debug.c ****     va_end( argp );
 108:Source\mbedtls_open\library/debug.c **** 
 109:Source\mbedtls_open\library/debug.c ****     if( ret >= 0 && ret < DEBUG_BUF_SIZE - 1 )
 110:Source\mbedtls_open\library/debug.c ****     {
 111:Source\mbedtls_open\library/debug.c ****         str[ret]     = '\n';
 112:Source\mbedtls_open\library/debug.c ****         str[ret + 1] = '\0';
 113:Source\mbedtls_open\library/debug.c ****     }
 114:Source\mbedtls_open\library/debug.c **** 
 115:Source\mbedtls_open\library/debug.c ****     debug_send_line( ssl, level, file, line, str );
 116:Source\mbedtls_open\library/debug.c **** }
 117:Source\mbedtls_open\library/debug.c **** 
 118:Source\mbedtls_open\library/debug.c **** void mbedtls_debug_print_ret( const mbedtls_ssl_context *ssl, int level,
 119:Source\mbedtls_open\library/debug.c ****                       const char *file, int line,
 120:Source\mbedtls_open\library/debug.c ****                       const char *text, int ret )
 121:Source\mbedtls_open\library/debug.c **** {
 122:Source\mbedtls_open\library/debug.c ****     char str[DEBUG_BUF_SIZE];
 123:Source\mbedtls_open\library/debug.c **** 
 124:Source\mbedtls_open\library/debug.c ****     if( ssl->conf == NULL || ssl->conf->f_dbg == NULL || level > debug_threshold )
 125:Source\mbedtls_open\library/debug.c ****         return;
 126:Source\mbedtls_open\library/debug.c **** 
 127:Source\mbedtls_open\library/debug.c ****     /*
 128:Source\mbedtls_open\library/debug.c ****      * With non-blocking I/O and examples that just retry immediately,
 129:Source\mbedtls_open\library/debug.c ****      * the logs would be quickly flooded with WANT_READ, so ignore that.
 130:Source\mbedtls_open\library/debug.c ****      * Don't ignore WANT_WRITE however, since is is usually rare.
 131:Source\mbedtls_open\library/debug.c ****      */
 132:Source\mbedtls_open\library/debug.c ****     if( ret == MBEDTLS_ERR_SSL_WANT_READ )
 133:Source\mbedtls_open\library/debug.c ****         return;
 134:Source\mbedtls_open\library/debug.c **** 
 135:Source\mbedtls_open\library/debug.c ****     mbedtls_snprintf( str, sizeof( str ), "%s() returned %d (-0x%04x)\n",
 136:Source\mbedtls_open\library/debug.c ****               text, ret, -ret );
 137:Source\mbedtls_open\library/debug.c **** 
 138:Source\mbedtls_open\library/debug.c ****     debug_send_line( ssl, level, file, line, str );
 139:Source\mbedtls_open\library/debug.c **** }
 140:Source\mbedtls_open\library/debug.c **** 
 141:Source\mbedtls_open\library/debug.c **** void mbedtls_debug_print_buf( const mbedtls_ssl_context *ssl, int level,
 142:Source\mbedtls_open\library/debug.c ****                       const char *file, int line, const char *text,
 143:Source\mbedtls_open\library/debug.c ****                       const unsigned char *buf, size_t len )
 144:Source\mbedtls_open\library/debug.c **** {
 145:Source\mbedtls_open\library/debug.c ****     char str[DEBUG_BUF_SIZE];
ARM GAS  C:\Users\Phuong\AppData\Local\Temp\ccgxicpz.s 			page 4


 146:Source\mbedtls_open\library/debug.c ****     char txt[17];
 147:Source\mbedtls_open\library/debug.c ****     size_t i, idx = 0;
 148:Source\mbedtls_open\library/debug.c **** 
 149:Source\mbedtls_open\library/debug.c ****     if( ssl->conf == NULL || ssl->conf->f_dbg == NULL || level > debug_threshold )
 150:Source\mbedtls_open\library/debug.c ****         return;
 151:Source\mbedtls_open\library/debug.c **** 
 152:Source\mbedtls_open\library/debug.c ****     mbedtls_snprintf( str + idx, sizeof( str ) - idx, "dumping '%s' (%u bytes)\n",
 153:Source\mbedtls_open\library/debug.c ****               text, (unsigned int) len );
 154:Source\mbedtls_open\library/debug.c **** 
 155:Source\mbedtls_open\library/debug.c ****     debug_send_line( ssl, level, file, line, str );
 156:Source\mbedtls_open\library/debug.c **** 
 157:Source\mbedtls_open\library/debug.c ****     idx = 0;
 158:Source\mbedtls_open\library/debug.c ****     memset( txt, 0, sizeof( txt ) );
 159:Source\mbedtls_open\library/debug.c ****     for( i = 0; i < len; i++ )
 160:Source\mbedtls_open\library/debug.c ****     {
 161:Source\mbedtls_open\library/debug.c ****         if( i >= 4096 )
 162:Source\mbedtls_open\library/debug.c ****             break;
 163:Source\mbedtls_open\library/debug.c **** 
 164:Source\mbedtls_open\library/debug.c ****         if( i % 16 == 0 )
 165:Source\mbedtls_open\library/debug.c ****         {
 166:Source\mbedtls_open\library/debug.c ****             if( i > 0 )
 167:Source\mbedtls_open\library/debug.c ****             {
 168:Source\mbedtls_open\library/debug.c ****                 mbedtls_snprintf( str + idx, sizeof( str ) - idx, "  %s\n", txt );
 169:Source\mbedtls_open\library/debug.c ****                 debug_send_line( ssl, level, file, line, str );
 170:Source\mbedtls_open\library/debug.c **** 
 171:Source\mbedtls_open\library/debug.c ****                 idx = 0;
 172:Source\mbedtls_open\library/debug.c ****                 memset( txt, 0, sizeof( txt ) );
 173:Source\mbedtls_open\library/debug.c ****             }
 174:Source\mbedtls_open\library/debug.c **** 
 175:Source\mbedtls_open\library/debug.c ****             idx += mbedtls_snprintf( str + idx, sizeof( str ) - idx, "%04x: ",
 176:Source\mbedtls_open\library/debug.c ****                              (unsigned int) i );
 177:Source\mbedtls_open\library/debug.c **** 
 178:Source\mbedtls_open\library/debug.c ****         }
 179:Source\mbedtls_open\library/debug.c **** 
 180:Source\mbedtls_open\library/debug.c ****         idx += mbedtls_snprintf( str + idx, sizeof( str ) - idx, " %02x",
 181:Source\mbedtls_open\library/debug.c ****                          (unsigned int) buf[i] );
 182:Source\mbedtls_open\library/debug.c ****         txt[i % 16] = ( buf[i] > 31 && buf[i] < 127 ) ? buf[i] : '.' ;
 183:Source\mbedtls_open\library/debug.c ****     }
 184:Source\mbedtls_open\library/debug.c **** 
 185:Source\mbedtls_open\library/debug.c ****     if( len > 0 )
 186:Source\mbedtls_open\library/debug.c ****     {
 187:Source\mbedtls_open\library/debug.c ****         for( /* i = i */; i % 16 != 0; i++ )
 188:Source\mbedtls_open\library/debug.c ****             idx += mbedtls_snprintf( str + idx, sizeof( str ) - idx, "   " );
 189:Source\mbedtls_open\library/debug.c **** 
 190:Source\mbedtls_open\library/debug.c ****         mbedtls_snprintf( str + idx, sizeof( str ) - idx, "  %s\n", txt );
 191:Source\mbedtls_open\library/debug.c ****         debug_send_line( ssl, level, file, line, str );
 192:Source\mbedtls_open\library/debug.c ****     }
 193:Source\mbedtls_open\library/debug.c **** }
 194:Source\mbedtls_open\library/debug.c **** 
 195:Source\mbedtls_open\library/debug.c **** #if defined(MBEDTLS_ECP_C)
 196:Source\mbedtls_open\library/debug.c **** void mbedtls_debug_print_ecp( const mbedtls_ssl_context *ssl, int level,
 197:Source\mbedtls_open\library/debug.c ****                       const char *file, int line,
 198:Source\mbedtls_open\library/debug.c ****                       const char *text, const mbedtls_ecp_point *X )
 199:Source\mbedtls_open\library/debug.c **** {
 200:Source\mbedtls_open\library/debug.c ****     char str[DEBUG_BUF_SIZE];
 201:Source\mbedtls_open\library/debug.c **** 
 202:Source\mbedtls_open\library/debug.c ****     if( ssl->conf == NULL || ssl->conf->f_dbg == NULL || level > debug_threshold )
ARM GAS  C:\Users\Phuong\AppData\Local\Temp\ccgxicpz.s 			page 5


 203:Source\mbedtls_open\library/debug.c ****         return;
 204:Source\mbedtls_open\library/debug.c **** 
 205:Source\mbedtls_open\library/debug.c ****     mbedtls_snprintf( str, sizeof( str ), "%s(X)", text );
 206:Source\mbedtls_open\library/debug.c ****     mbedtls_debug_print_mpi( ssl, level, file, line, str, &X->X );
 207:Source\mbedtls_open\library/debug.c **** 
 208:Source\mbedtls_open\library/debug.c ****     mbedtls_snprintf( str, sizeof( str ), "%s(Y)", text );
 209:Source\mbedtls_open\library/debug.c ****     mbedtls_debug_print_mpi( ssl, level, file, line, str, &X->Y );
 210:Source\mbedtls_open\library/debug.c **** }
 211:Source\mbedtls_open\library/debug.c **** #endif /* MBEDTLS_ECP_C */
 212:Source\mbedtls_open\library/debug.c **** 
 213:Source\mbedtls_open\library/debug.c **** #if defined(MBEDTLS_BIGNUM_C)
 214:Source\mbedtls_open\library/debug.c **** void mbedtls_debug_print_mpi( const mbedtls_ssl_context *ssl, int level,
 215:Source\mbedtls_open\library/debug.c ****                       const char *file, int line,
 216:Source\mbedtls_open\library/debug.c ****                       const char *text, const mbedtls_mpi *X )
 217:Source\mbedtls_open\library/debug.c **** {
 218:Source\mbedtls_open\library/debug.c ****     char str[DEBUG_BUF_SIZE];
 219:Source\mbedtls_open\library/debug.c ****     int j, k, zeros = 1;
 220:Source\mbedtls_open\library/debug.c ****     size_t i, n, idx = 0;
 221:Source\mbedtls_open\library/debug.c **** 
 222:Source\mbedtls_open\library/debug.c ****     if( ssl->conf == NULL || ssl->conf->f_dbg == NULL || X == NULL || level > debug_threshold )
 223:Source\mbedtls_open\library/debug.c ****         return;
 224:Source\mbedtls_open\library/debug.c **** 
 225:Source\mbedtls_open\library/debug.c ****     for( n = X->n - 1; n > 0; n-- )
 226:Source\mbedtls_open\library/debug.c ****         if( X->p[n] != 0 )
 227:Source\mbedtls_open\library/debug.c ****             break;
 228:Source\mbedtls_open\library/debug.c **** 
 229:Source\mbedtls_open\library/debug.c ****     for( j = ( sizeof(mbedtls_mpi_uint) << 3 ) - 1; j >= 0; j-- )
 230:Source\mbedtls_open\library/debug.c ****         if( ( ( X->p[n] >> j ) & 1 ) != 0 )
 231:Source\mbedtls_open\library/debug.c ****             break;
 232:Source\mbedtls_open\library/debug.c **** 
 233:Source\mbedtls_open\library/debug.c ****     mbedtls_snprintf( str + idx, sizeof( str ) - idx, "value of '%s' (%d bits) is:\n",
 234:Source\mbedtls_open\library/debug.c ****               text, (int) ( ( n * ( sizeof(mbedtls_mpi_uint) << 3 ) ) + j + 1 ) );
 235:Source\mbedtls_open\library/debug.c **** 
 236:Source\mbedtls_open\library/debug.c ****     debug_send_line( ssl, level, file, line, str );
 237:Source\mbedtls_open\library/debug.c **** 
 238:Source\mbedtls_open\library/debug.c ****     idx = 0;
 239:Source\mbedtls_open\library/debug.c ****     for( i = n + 1, j = 0; i > 0; i-- )
 240:Source\mbedtls_open\library/debug.c ****     {
 241:Source\mbedtls_open\library/debug.c ****         if( zeros && X->p[i - 1] == 0 )
 242:Source\mbedtls_open\library/debug.c ****             continue;
 243:Source\mbedtls_open\library/debug.c **** 
 244:Source\mbedtls_open\library/debug.c ****         for( k = sizeof( mbedtls_mpi_uint ) - 1; k >= 0; k-- )
 245:Source\mbedtls_open\library/debug.c ****         {
 246:Source\mbedtls_open\library/debug.c ****             if( zeros && ( ( X->p[i - 1] >> ( k << 3 ) ) & 0xFF ) == 0 )
 247:Source\mbedtls_open\library/debug.c ****                 continue;
 248:Source\mbedtls_open\library/debug.c ****             else
 249:Source\mbedtls_open\library/debug.c ****                 zeros = 0;
 250:Source\mbedtls_open\library/debug.c **** 
 251:Source\mbedtls_open\library/debug.c ****             if( j % 16 == 0 )
 252:Source\mbedtls_open\library/debug.c ****             {
 253:Source\mbedtls_open\library/debug.c ****                 if( j > 0 )
 254:Source\mbedtls_open\library/debug.c ****                 {
 255:Source\mbedtls_open\library/debug.c ****                     mbedtls_snprintf( str + idx, sizeof( str ) - idx, "\n" );
 256:Source\mbedtls_open\library/debug.c ****                     debug_send_line( ssl, level, file, line, str );
 257:Source\mbedtls_open\library/debug.c ****                     idx = 0;
 258:Source\mbedtls_open\library/debug.c ****                 }
 259:Source\mbedtls_open\library/debug.c ****             }
ARM GAS  C:\Users\Phuong\AppData\Local\Temp\ccgxicpz.s 			page 6


 260:Source\mbedtls_open\library/debug.c **** 
 261:Source\mbedtls_open\library/debug.c ****             idx += mbedtls_snprintf( str + idx, sizeof( str ) - idx, " %02x", (unsigned int)
 262:Source\mbedtls_open\library/debug.c ****                              ( X->p[i - 1] >> ( k << 3 ) ) & 0xFF );
 263:Source\mbedtls_open\library/debug.c **** 
 264:Source\mbedtls_open\library/debug.c ****             j++;
 265:Source\mbedtls_open\library/debug.c ****         }
 266:Source\mbedtls_open\library/debug.c **** 
 267:Source\mbedtls_open\library/debug.c ****     }
 268:Source\mbedtls_open\library/debug.c **** 
 269:Source\mbedtls_open\library/debug.c ****     if( zeros == 1 )
 270:Source\mbedtls_open\library/debug.c ****         idx += mbedtls_snprintf( str + idx, sizeof( str ) - idx, " 00" );
 271:Source\mbedtls_open\library/debug.c **** 
 272:Source\mbedtls_open\library/debug.c ****     mbedtls_snprintf( str + idx, sizeof( str ) - idx, "\n" );
 273:Source\mbedtls_open\library/debug.c ****     debug_send_line( ssl, level, file, line, str );
 274:Source\mbedtls_open\library/debug.c **** }
 275:Source\mbedtls_open\library/debug.c **** #endif /* MBEDTLS_BIGNUM_C */
 276:Source\mbedtls_open\library/debug.c **** 
 277:Source\mbedtls_open\library/debug.c **** #if defined(MBEDTLS_X509_CRT_PARSE_C)
 278:Source\mbedtls_open\library/debug.c **** static void debug_print_pk( const mbedtls_ssl_context *ssl, int level,
 279:Source\mbedtls_open\library/debug.c ****                             const char *file, int line,
 280:Source\mbedtls_open\library/debug.c ****                             const char *text, const mbedtls_pk_context *pk )
 281:Source\mbedtls_open\library/debug.c **** {
 282:Source\mbedtls_open\library/debug.c ****     size_t i;
 283:Source\mbedtls_open\library/debug.c ****     mbedtls_pk_debug_item items[MBEDTLS_PK_DEBUG_MAX_ITEMS];
 284:Source\mbedtls_open\library/debug.c ****     char name[16];
 285:Source\mbedtls_open\library/debug.c **** 
 286:Source\mbedtls_open\library/debug.c ****     memset( items, 0, sizeof( items ) );
 287:Source\mbedtls_open\library/debug.c **** 
 288:Source\mbedtls_open\library/debug.c ****     if( mbedtls_pk_debug( pk, items ) != 0 )
 289:Source\mbedtls_open\library/debug.c ****     {
 290:Source\mbedtls_open\library/debug.c ****         debug_send_line( ssl, level, file, line,
 291:Source\mbedtls_open\library/debug.c ****                           "invalid PK context\n" );
 292:Source\mbedtls_open\library/debug.c ****         return;
 293:Source\mbedtls_open\library/debug.c ****     }
 294:Source\mbedtls_open\library/debug.c **** 
 295:Source\mbedtls_open\library/debug.c ****     for( i = 0; i < MBEDTLS_PK_DEBUG_MAX_ITEMS; i++ )
 296:Source\mbedtls_open\library/debug.c ****     {
 297:Source\mbedtls_open\library/debug.c ****         if( items[i].type == MBEDTLS_PK_DEBUG_NONE )
 298:Source\mbedtls_open\library/debug.c ****             return;
 299:Source\mbedtls_open\library/debug.c **** 
 300:Source\mbedtls_open\library/debug.c ****         mbedtls_snprintf( name, sizeof( name ), "%s%s", text, items[i].name );
 301:Source\mbedtls_open\library/debug.c ****         name[sizeof( name ) - 1] = '\0';
 302:Source\mbedtls_open\library/debug.c **** 
 303:Source\mbedtls_open\library/debug.c ****         if( items[i].type == MBEDTLS_PK_DEBUG_MPI )
 304:Source\mbedtls_open\library/debug.c ****             mbedtls_debug_print_mpi( ssl, level, file, line, name, items[i].value );
 305:Source\mbedtls_open\library/debug.c ****         else
 306:Source\mbedtls_open\library/debug.c **** #if defined(MBEDTLS_ECP_C)
 307:Source\mbedtls_open\library/debug.c ****         if( items[i].type == MBEDTLS_PK_DEBUG_ECP )
 308:Source\mbedtls_open\library/debug.c ****             mbedtls_debug_print_ecp( ssl, level, file, line, name, items[i].value );
 309:Source\mbedtls_open\library/debug.c ****         else
 310:Source\mbedtls_open\library/debug.c **** #endif
 311:Source\mbedtls_open\library/debug.c ****             debug_send_line( ssl, level, file, line,
 312:Source\mbedtls_open\library/debug.c ****                               "should not happen\n" );
 313:Source\mbedtls_open\library/debug.c ****     }
 314:Source\mbedtls_open\library/debug.c **** }
 315:Source\mbedtls_open\library/debug.c **** 
 316:Source\mbedtls_open\library/debug.c **** static void debug_print_line_by_line( const mbedtls_ssl_context *ssl, int level,
ARM GAS  C:\Users\Phuong\AppData\Local\Temp\ccgxicpz.s 			page 7


 317:Source\mbedtls_open\library/debug.c ****                                       const char *file, int line, const char *text )
 318:Source\mbedtls_open\library/debug.c **** {
  27              		.loc 1 318 0
  28              		.cfi_startproc
  29              		@ args = 4, pretend = 0, frame = 528
  30              		@ frame_needed = 0, uses_anonymous_args = 0
  31              	.LVL0:
  32 0000 F0B5     		push	{r4, r5, r6, r7, lr}
  33              		.cfi_def_cfa_offset 20
  34              		.cfi_offset 4, -20
  35              		.cfi_offset 5, -16
  36              		.cfi_offset 6, -12
  37              		.cfi_offset 7, -8
  38              		.cfi_offset 14, -4
  39 0002 154C     		ldr	r4, .L7
  40 0004 A544     		add	sp, sp, r4
  41              		.cfi_def_cfa_offset 560
  42 0006 0500     		movs	r5, r0
  43 0008 0391     		str	r1, [sp, #12]
  44 000a 0492     		str	r2, [sp, #16]
  45 000c 0593     		str	r3, [sp, #20]
  46 000e 8C99     		ldr	r1, [sp, #560]
  47              	.LVL1:
 319:Source\mbedtls_open\library/debug.c ****     char str[DEBUG_BUF_SIZE];
 320:Source\mbedtls_open\library/debug.c ****     const char *start, *cur;
 321:Source\mbedtls_open\library/debug.c **** 
 322:Source\mbedtls_open\library/debug.c ****     start = text;
 323:Source\mbedtls_open\library/debug.c ****     for( cur = text; *cur != '\0'; cur++ )
  48              		.loc 1 323 0
  49 0010 0C00     		movs	r4, r1
  50 0012 19E0     		b	.L2
  51              	.LVL2:
  52              	.L5:
 324:Source\mbedtls_open\library/debug.c ****     {
 325:Source\mbedtls_open\library/debug.c ****         if( *cur == '\n' )
  53              		.loc 1 325 0
  54 0014 0A2B     		cmp	r3, #10
  55 0016 16D1     		bne	.L3
  56              	.LBB28:
 326:Source\mbedtls_open\library/debug.c ****         {
 327:Source\mbedtls_open\library/debug.c ****             size_t len = cur - start + 1;
  57              		.loc 1 327 0
  58 0018 631A     		subs	r3, r4, r1
  59 001a 5E1C     		adds	r6, r3, #1
  60              	.LVL3:
 328:Source\mbedtls_open\library/debug.c ****             if( len > DEBUG_BUF_SIZE - 1 )
  61              		.loc 1 328 0
  62 001c 0F4B     		ldr	r3, .L7+4
  63 001e 9E42     		cmp	r6, r3
  64 0020 00D9     		bls	.L4
 329:Source\mbedtls_open\library/debug.c ****                 len = DEBUG_BUF_SIZE - 1;
  65              		.loc 1 329 0
  66 0022 1E00     		movs	r6, r3
  67              	.LVL4:
  68              	.L4:
 330:Source\mbedtls_open\library/debug.c **** 
 331:Source\mbedtls_open\library/debug.c ****             memcpy( str, start, len );
ARM GAS  C:\Users\Phuong\AppData\Local\Temp\ccgxicpz.s 			page 8


  69              		.loc 1 331 0
  70 0024 06AF     		add	r7, sp, #24
  71 0026 3200     		movs	r2, r6
  72 0028 3800     		movs	r0, r7
  73 002a FFF7FEFF 		bl	memcpy
  74              	.LVL5:
 332:Source\mbedtls_open\library/debug.c ****             str[len] = '\0';
  75              		.loc 1 332 0
  76 002e 0022     		movs	r2, #0
  77 0030 06AB     		add	r3, sp, #24
  78 0032 9A55     		strb	r2, [r3, r6]
  79              	.LVL6:
  80              	.LBB29:
  81              	.LBB30:
  77:Source\mbedtls_open\library/debug.c **** #endif
  82              		.loc 1 77 0
  83 0034 2B68     		ldr	r3, [r5]
  84 0036 1E69     		ldr	r6, [r3, #16]
  85              	.LVL7:
  86 0038 5869     		ldr	r0, [r3, #20]
  87 003a 0097     		str	r7, [sp]
  88 003c 059B     		ldr	r3, [sp, #20]
  89 003e 049A     		ldr	r2, [sp, #16]
  90 0040 0399     		ldr	r1, [sp, #12]
  91 0042 B047     		blx	r6
  92              	.LVL8:
  93              	.LBE30:
  94              	.LBE29:
 333:Source\mbedtls_open\library/debug.c **** 
 334:Source\mbedtls_open\library/debug.c ****             debug_send_line( ssl, level, file, line, str );
 335:Source\mbedtls_open\library/debug.c **** 
 336:Source\mbedtls_open\library/debug.c ****             start = cur + 1;
  95              		.loc 1 336 0
  96 0044 611C     		adds	r1, r4, #1
  97              	.LVL9:
  98              	.L3:
  99              	.LBE28:
 323:Source\mbedtls_open\library/debug.c ****     {
 100              		.loc 1 323 0 discriminator 2
 101 0046 0134     		adds	r4, r4, #1
 102              	.LVL10:
 103              	.L2:
 323:Source\mbedtls_open\library/debug.c ****     {
 104              		.loc 1 323 0 is_stmt 0 discriminator 1
 105 0048 2378     		ldrb	r3, [r4]
 106 004a 002B     		cmp	r3, #0
 107 004c E2D1     		bne	.L5
 337:Source\mbedtls_open\library/debug.c ****         }
 338:Source\mbedtls_open\library/debug.c ****     }
 339:Source\mbedtls_open\library/debug.c **** }
 108              		.loc 1 339 0 is_stmt 1
 109 004e 8723     		movs	r3, #135
 110 0050 9B00     		lsls	r3, r3, #2
 111 0052 9D44     		add	sp, sp, r3
 112              		@ sp needed
 113              	.LVL11:
 114              	.LVL12:
ARM GAS  C:\Users\Phuong\AppData\Local\Temp\ccgxicpz.s 			page 9


 115 0054 F0BD     		pop	{r4, r5, r6, r7, pc}
 116              	.L8:
 117 0056 C046     		.align	2
 118              	.L7:
 119 0058 E4FDFFFF 		.word	-540
 120 005c FF010000 		.word	511
 121              		.cfi_endproc
 122              	.LFE26:
 123              		.size	debug_print_line_by_line, .-debug_print_line_by_line
 124              		.section	.text.mbedtls_debug_set_threshold,"ax",%progbits
 125              		.align	2
 126              		.global	mbedtls_debug_set_threshold
 127              		.code	16
 128              		.thumb_func
 129              		.type	mbedtls_debug_set_threshold, %function
 130              	mbedtls_debug_set_threshold:
 131              	.LFB18:
  56:Source\mbedtls_open\library/debug.c ****     debug_threshold = threshold;
 132              		.loc 1 56 0
 133              		.cfi_startproc
 134              		@ args = 0, pretend = 0, frame = 0
 135              		@ frame_needed = 0, uses_anonymous_args = 0
 136              		@ link register save eliminated.
 137              	.LVL13:
  57:Source\mbedtls_open\library/debug.c **** }
 138              		.loc 1 57 0
 139 0000 014B     		ldr	r3, .L10
 140 0002 1860     		str	r0, [r3]
  58:Source\mbedtls_open\library/debug.c **** 
 141              		.loc 1 58 0
 142              		@ sp needed
 143 0004 7047     		bx	lr
 144              	.L11:
 145 0006 C046     		.align	2
 146              	.L10:
 147 0008 00000000 		.word	.LANCHOR0
 148              		.cfi_endproc
 149              	.LFE18:
 150              		.size	mbedtls_debug_set_threshold, .-mbedtls_debug_set_threshold
 151              		.section	.text.mbedtls_debug_print_msg,"ax",%progbits
 152              		.align	2
 153              		.global	mbedtls_debug_print_msg
 154              		.code	16
 155              		.thumb_func
 156              		.type	mbedtls_debug_print_msg, %function
 157              	mbedtls_debug_print_msg:
 158              	.LFB20:
  84:Source\mbedtls_open\library/debug.c ****     va_list argp;
 159              		.loc 1 84 0
 160              		.cfi_startproc
 161              		@ args = 4, pretend = 0, frame = 520
 162              		@ frame_needed = 0, uses_anonymous_args = 1
 163              	.LVL14:
 164 0000 F0B5     		push	{r4, r5, r6, r7, lr}
 165              		.cfi_def_cfa_offset 20
 166              		.cfi_offset 4, -20
 167              		.cfi_offset 5, -16
ARM GAS  C:\Users\Phuong\AppData\Local\Temp\ccgxicpz.s 			page 10


 168              		.cfi_offset 6, -12
 169              		.cfi_offset 7, -8
 170              		.cfi_offset 14, -4
 171 0002 1B4C     		ldr	r4, .L16
 172 0004 A544     		add	sp, sp, r4
 173              		.cfi_def_cfa_offset 552
 174 0006 0400     		movs	r4, r0
 175 0008 0D00     		movs	r5, r1
 176 000a 1600     		movs	r6, r2
 177 000c 1F00     		movs	r7, r3
  89:Source\mbedtls_open\library/debug.c ****         return;
 178              		.loc 1 89 0
 179 000e 0028     		cmp	r0, #0
 180 0010 29D0     		beq	.L12
  89:Source\mbedtls_open\library/debug.c ****         return;
 181              		.loc 1 89 0 is_stmt 0 discriminator 1
 182 0012 0368     		ldr	r3, [r0]
 183              	.LVL15:
 184 0014 002B     		cmp	r3, #0
 185 0016 26D0     		beq	.L12
  89:Source\mbedtls_open\library/debug.c ****         return;
 186              		.loc 1 89 0 discriminator 2
 187 0018 1B69     		ldr	r3, [r3, #16]
 188 001a 002B     		cmp	r3, #0
 189 001c 23D0     		beq	.L12
  89:Source\mbedtls_open\library/debug.c ****         return;
 190              		.loc 1 89 0 discriminator 3
 191 001e 154B     		ldr	r3, .L16+4
 192 0020 1B68     		ldr	r3, [r3]
 193 0022 8B42     		cmp	r3, r1
 194 0024 1FDB     		blt	.L12
  92:Source\mbedtls_open\library/debug.c **** #if defined(_WIN32)
 195              		.loc 1 92 0 is_stmt 1
 196 0026 8BAB     		add	r3, sp, #556
 197 0028 8393     		str	r3, [sp, #524]
 105:Source\mbedtls_open\library/debug.c **** #endif
 198              		.loc 1 105 0
 199 002a 8A9A     		ldr	r2, [sp, #552]
 200              	.LVL16:
 201 002c 8021     		movs	r1, #128
 202              	.LVL17:
 203 002e 8900     		lsls	r1, r1, #2
 204 0030 03A8     		add	r0, sp, #12
 205              	.LVL18:
 206 0032 FFF7FEFF 		bl	vsnprintf
 207              	.LVL19:
 109:Source\mbedtls_open\library/debug.c ****     {
 208              		.loc 1 109 0
 209 0036 FF23     		movs	r3, #255
 210 0038 5B00     		lsls	r3, r3, #1
 211 003a 9842     		cmp	r0, r3
 212 003c 0AD8     		bhi	.L14
 111:Source\mbedtls_open\library/debug.c ****         str[ret + 1] = '\0';
 213              		.loc 1 111 0
 214 003e F53B     		subs	r3, r3, #245
 215 0040 FF3B     		subs	r3, r3, #255
 216 0042 6A46     		mov	r2, sp
ARM GAS  C:\Users\Phuong\AppData\Local\Temp\ccgxicpz.s 			page 11


 217 0044 0C21     		movs	r1, #12
 218 0046 5218     		adds	r2, r2, r1
 219 0048 1354     		strb	r3, [r2, r0]
 112:Source\mbedtls_open\library/debug.c ****     }
 220              		.loc 1 112 0
 221 004a 0130     		adds	r0, r0, #1
 222              	.LVL20:
 223 004c 0023     		movs	r3, #0
 224 004e 6A46     		mov	r2, sp
 225 0050 5218     		adds	r2, r2, r1
 226 0052 1354     		strb	r3, [r2, r0]
 227              	.LVL21:
 228              	.L14:
 229              	.LBB31:
 230              	.LBB32:
  77:Source\mbedtls_open\library/debug.c **** #endif
 231              		.loc 1 77 0
 232 0054 2368     		ldr	r3, [r4]
 233 0056 1C69     		ldr	r4, [r3, #16]
 234              	.LVL22:
 235 0058 5869     		ldr	r0, [r3, #20]
 236 005a 03AB     		add	r3, sp, #12
 237              	.LVL23:
 238 005c 0093     		str	r3, [sp]
 239 005e 3B00     		movs	r3, r7
 240              	.LVL24:
 241 0060 3200     		movs	r2, r6
 242 0062 2900     		movs	r1, r5
 243 0064 A047     		blx	r4
 244              	.LVL25:
 245              	.L12:
 246              	.LBE32:
 247              	.LBE31:
 116:Source\mbedtls_open\library/debug.c **** 
 248              		.loc 1 116 0
 249 0066 8523     		movs	r3, #133
 250 0068 9B00     		lsls	r3, r3, #2
 251 006a 9D44     		add	sp, sp, r3
 252              		@ sp needed
 253              	.LVL26:
 254              	.LVL27:
 255              	.LVL28:
 256 006c F0BD     		pop	{r4, r5, r6, r7, pc}
 257              	.L17:
 258 006e C046     		.align	2
 259              	.L16:
 260 0070 ECFDFFFF 		.word	-532
 261 0074 00000000 		.word	.LANCHOR0
 262              		.cfi_endproc
 263              	.LFE20:
 264              		.size	mbedtls_debug_print_msg, .-mbedtls_debug_print_msg
 265              		.section	.text.mbedtls_debug_print_ret,"ax",%progbits
 266              		.align	2
 267              		.global	mbedtls_debug_print_ret
 268              		.code	16
 269              		.thumb_func
 270              		.type	mbedtls_debug_print_ret, %function
ARM GAS  C:\Users\Phuong\AppData\Local\Temp\ccgxicpz.s 			page 12


 271              	mbedtls_debug_print_ret:
 272              	.LFB21:
 121:Source\mbedtls_open\library/debug.c ****     char str[DEBUG_BUF_SIZE];
 273              		.loc 1 121 0
 274              		.cfi_startproc
 275              		@ args = 8, pretend = 0, frame = 520
 276              		@ frame_needed = 0, uses_anonymous_args = 0
 277              	.LVL29:
 278 0000 F0B5     		push	{r4, r5, r6, r7, lr}
 279              		.cfi_def_cfa_offset 20
 280              		.cfi_offset 4, -20
 281              		.cfi_offset 5, -16
 282              		.cfi_offset 6, -12
 283              		.cfi_offset 7, -8
 284              		.cfi_offset 14, -4
 285 0002 154C     		ldr	r4, .L21
 286 0004 A544     		add	sp, sp, r4
 287              		.cfi_def_cfa_offset 552
 288 0006 0700     		movs	r7, r0
 289 0008 0C00     		movs	r4, r1
 290 000a 0392     		str	r2, [sp, #12]
 291 000c 1E00     		movs	r6, r3
 124:Source\mbedtls_open\library/debug.c ****         return;
 292              		.loc 1 124 0
 293 000e 0368     		ldr	r3, [r0]
 294              	.LVL30:
 295 0010 002B     		cmp	r3, #0
 296 0012 1DD0     		beq	.L18
 124:Source\mbedtls_open\library/debug.c ****         return;
 297              		.loc 1 124 0 is_stmt 0 discriminator 1
 298 0014 1B69     		ldr	r3, [r3, #16]
 299 0016 002B     		cmp	r3, #0
 300 0018 1AD0     		beq	.L18
 124:Source\mbedtls_open\library/debug.c ****         return;
 301              		.loc 1 124 0 discriminator 2
 302 001a 104B     		ldr	r3, .L21+4
 303 001c 1B68     		ldr	r3, [r3]
 304 001e 8B42     		cmp	r3, r1
 305 0020 16DB     		blt	.L18
 132:Source\mbedtls_open\library/debug.c ****         return;
 306              		.loc 1 132 0 is_stmt 1
 307 0022 0F4B     		ldr	r3, .L21+8
 308 0024 8B99     		ldr	r1, [sp, #556]
 309              	.LVL31:
 310 0026 9942     		cmp	r1, r3
 311 0028 12D0     		beq	.L18
 135:Source\mbedtls_open\library/debug.c ****               text, ret, -ret );
 312              		.loc 1 135 0
 313 002a 04AD     		add	r5, sp, #16
 314 002c 4B42     		rsbs	r3, r1, #0
 315 002e 0193     		str	r3, [sp, #4]
 316 0030 0091     		str	r1, [sp]
 317 0032 8A9B     		ldr	r3, [sp, #552]
 318 0034 0B4A     		ldr	r2, .L21+12
 319              	.LVL32:
 320 0036 8021     		movs	r1, #128
 321 0038 8900     		lsls	r1, r1, #2
ARM GAS  C:\Users\Phuong\AppData\Local\Temp\ccgxicpz.s 			page 13


 322 003a 2800     		movs	r0, r5
 323              	.LVL33:
 324 003c FFF7FEFF 		bl	snprintf
 325              	.LVL34:
 326              	.LBB33:
 327              	.LBB34:
  77:Source\mbedtls_open\library/debug.c **** #endif
 328              		.loc 1 77 0
 329 0040 3B68     		ldr	r3, [r7]
 330 0042 1F69     		ldr	r7, [r3, #16]
 331              	.LVL35:
 332 0044 5869     		ldr	r0, [r3, #20]
 333 0046 0095     		str	r5, [sp]
 334 0048 3300     		movs	r3, r6
 335 004a 039A     		ldr	r2, [sp, #12]
 336 004c 2100     		movs	r1, r4
 337 004e B847     		blx	r7
 338              	.LVL36:
 339              	.L18:
 340              	.LBE34:
 341              	.LBE33:
 139:Source\mbedtls_open\library/debug.c **** 
 342              		.loc 1 139 0
 343 0050 8523     		movs	r3, #133
 344 0052 9B00     		lsls	r3, r3, #2
 345 0054 9D44     		add	sp, sp, r3
 346              		@ sp needed
 347              	.LVL37:
 348              	.LVL38:
 349 0056 F0BD     		pop	{r4, r5, r6, r7, pc}
 350              	.L22:
 351              		.align	2
 352              	.L21:
 353 0058 ECFDFFFF 		.word	-532
 354 005c 00000000 		.word	.LANCHOR0
 355 0060 0097FFFF 		.word	-26880
 356 0064 00000000 		.word	.LC3
 357              		.cfi_endproc
 358              	.LFE21:
 359              		.size	mbedtls_debug_print_ret, .-mbedtls_debug_print_ret
 360              		.section	.text.mbedtls_debug_print_buf,"ax",%progbits
 361              		.align	2
 362              		.global	mbedtls_debug_print_buf
 363              		.code	16
 364              		.thumb_func
 365              		.type	mbedtls_debug_print_buf, %function
 366              	mbedtls_debug_print_buf:
 367              	.LFB22:
 144:Source\mbedtls_open\library/debug.c ****     char str[DEBUG_BUF_SIZE];
 368              		.loc 1 144 0
 369              		.cfi_startproc
 370              		@ args = 12, pretend = 0, frame = 552
 371              		@ frame_needed = 0, uses_anonymous_args = 0
 372              	.LVL39:
 373 0000 F0B5     		push	{r4, r5, r6, r7, lr}
 374              		.cfi_def_cfa_offset 20
 375              		.cfi_offset 4, -20
ARM GAS  C:\Users\Phuong\AppData\Local\Temp\ccgxicpz.s 			page 14


 376              		.cfi_offset 5, -16
 377              		.cfi_offset 6, -12
 378              		.cfi_offset 7, -8
 379              		.cfi_offset 14, -4
 380 0002 4F46     		mov	r7, r9
 381 0004 80B4     		push	{r7}
 382              		.cfi_def_cfa_offset 24
 383              		.cfi_offset 9, -24
 384 0006 4D4C     		ldr	r4, .L37
 385 0008 A544     		add	sp, sp, r4
 386              		.cfi_def_cfa_offset 584
 387 000a 0700     		movs	r7, r0
 388 000c 0391     		str	r1, [sp, #12]
 389 000e 0492     		str	r2, [sp, #16]
 390 0010 0593     		str	r3, [sp, #20]
 391              	.LVL40:
 149:Source\mbedtls_open\library/debug.c ****         return;
 392              		.loc 1 149 0
 393 0012 0368     		ldr	r3, [r0]
 394              	.LVL41:
 395 0014 002B     		cmp	r3, #0
 396 0016 00D1     		bne	.LCB422
 397 0018 89E0     		b	.L23	@long jump
 398              	.LCB422:
 149:Source\mbedtls_open\library/debug.c ****         return;
 399              		.loc 1 149 0 is_stmt 0 discriminator 1
 400 001a 1B69     		ldr	r3, [r3, #16]
 401 001c 002B     		cmp	r3, #0
 402 001e 00D1     		bne	.LCB425
 403 0020 85E0     		b	.L23	@long jump
 404              	.LCB425:
 149:Source\mbedtls_open\library/debug.c ****         return;
 405              		.loc 1 149 0 discriminator 2
 406 0022 474B     		ldr	r3, .L37+4
 407 0024 1B68     		ldr	r3, [r3]
 408 0026 8B42     		cmp	r3, r1
 409 0028 00DA     		bge	.LCB429
 410 002a 80E0     		b	.L23	@long jump
 411              	.LCB429:
 152:Source\mbedtls_open\library/debug.c ****               text, (unsigned int) len );
 412              		.loc 1 152 0 is_stmt 1
 413 002c 0CAC     		add	r4, sp, #48
 414 002e 949B     		ldr	r3, [sp, #592]
 415 0030 0093     		str	r3, [sp]
 416 0032 929B     		ldr	r3, [sp, #584]
 417 0034 434A     		ldr	r2, .L37+8
 418              	.LVL42:
 419 0036 8021     		movs	r1, #128
 420              	.LVL43:
 421 0038 8900     		lsls	r1, r1, #2
 422 003a 2000     		movs	r0, r4
 423              	.LVL44:
 424 003c FFF7FEFF 		bl	snprintf
 425              	.LVL45:
 426              	.LBB35:
 427              	.LBB36:
  77:Source\mbedtls_open\library/debug.c **** #endif
ARM GAS  C:\Users\Phuong\AppData\Local\Temp\ccgxicpz.s 			page 15


 428              		.loc 1 77 0
 429 0040 3B68     		ldr	r3, [r7]
 430 0042 1E69     		ldr	r6, [r3, #16]
 431 0044 5869     		ldr	r0, [r3, #20]
 432 0046 0094     		str	r4, [sp]
 433 0048 059B     		ldr	r3, [sp, #20]
 434 004a 049A     		ldr	r2, [sp, #16]
 435 004c 0399     		ldr	r1, [sp, #12]
 436 004e B047     		blx	r6
 437              	.LVL46:
 438              	.LBE36:
 439              	.LBE35:
 158:Source\mbedtls_open\library/debug.c ****     for( i = 0; i < len; i++ )
 440              		.loc 1 158 0
 441 0050 1122     		movs	r2, #17
 442 0052 0021     		movs	r1, #0
 443 0054 07A8     		add	r0, sp, #28
 444 0056 FFF7FEFF 		bl	memset
 445              	.LVL47:
 157:Source\mbedtls_open\library/debug.c ****     memset( txt, 0, sizeof( txt ) );
 446              		.loc 1 157 0
 447 005a 0024     		movs	r4, #0
 159:Source\mbedtls_open\library/debug.c ****     {
 448              		.loc 1 159 0
 449 005c 0026     		movs	r6, #0
 450 005e B946     		mov	r9, r7
 451 0060 40E0     		b	.L25
 452              	.LVL48:
 453              	.L30:
 161:Source\mbedtls_open\library/debug.c ****             break;
 454              		.loc 1 161 0
 455 0062 394B     		ldr	r3, .L37+12
 456 0064 9E42     		cmp	r6, r3
 457 0066 40D8     		bhi	.L26
 164:Source\mbedtls_open\library/debug.c ****         {
 458              		.loc 1 164 0
 459 0068 0F23     		movs	r3, #15
 460 006a 3340     		ands	r3, r6
 461 006c 1F1E     		subs	r7, r3, #0
 462 006e 23D1     		bne	.L27
 166:Source\mbedtls_open\library/debug.c ****             {
 463              		.loc 1 166 0
 464 0070 002E     		cmp	r6, #0
 465 0072 17D0     		beq	.L28
 168:Source\mbedtls_open\library/debug.c ****                 debug_send_line( ssl, level, file, line, str );
 466              		.loc 1 168 0
 467 0074 8021     		movs	r1, #128
 468 0076 8900     		lsls	r1, r1, #2
 469 0078 091B     		subs	r1, r1, r4
 470 007a 0CAD     		add	r5, sp, #48
 471 007c 2819     		adds	r0, r5, r4
 472 007e 07AB     		add	r3, sp, #28
 473 0080 324A     		ldr	r2, .L37+16
 474 0082 FFF7FEFF 		bl	snprintf
 475              	.LVL49:
 476              	.LBB37:
 477              	.LBB38:
ARM GAS  C:\Users\Phuong\AppData\Local\Temp\ccgxicpz.s 			page 16


  77:Source\mbedtls_open\library/debug.c **** #endif
 478              		.loc 1 77 0
 479 0086 4B46     		mov	r3, r9
 480 0088 1B68     		ldr	r3, [r3]
 481 008a 1C69     		ldr	r4, [r3, #16]
 482              	.LVL50:
 483 008c 5869     		ldr	r0, [r3, #20]
 484 008e 0095     		str	r5, [sp]
 485 0090 059B     		ldr	r3, [sp, #20]
 486 0092 049A     		ldr	r2, [sp, #16]
 487 0094 0399     		ldr	r1, [sp, #12]
 488 0096 A047     		blx	r4
 489              	.LVL51:
 490              	.LBE38:
 491              	.LBE37:
 172:Source\mbedtls_open\library/debug.c ****             }
 492              		.loc 1 172 0
 493 0098 1122     		movs	r2, #17
 494 009a 0021     		movs	r1, #0
 495 009c 07A8     		add	r0, sp, #28
 496 009e FFF7FEFF 		bl	memset
 497              	.LVL52:
 171:Source\mbedtls_open\library/debug.c ****                 memset( txt, 0, sizeof( txt ) );
 498              		.loc 1 171 0
 499 00a2 0024     		movs	r4, #0
 500              	.LVL53:
 501              	.L28:
 175:Source\mbedtls_open\library/debug.c ****                              (unsigned int) i );
 502              		.loc 1 175 0
 503 00a4 8021     		movs	r1, #128
 504 00a6 8900     		lsls	r1, r1, #2
 505 00a8 091B     		subs	r1, r1, r4
 506 00aa 0CAB     		add	r3, sp, #48
 507 00ac 1819     		adds	r0, r3, r4
 508 00ae 3300     		movs	r3, r6
 509 00b0 274A     		ldr	r2, .L37+20
 510 00b2 FFF7FEFF 		bl	snprintf
 511              	.LVL54:
 512 00b6 2418     		adds	r4, r4, r0
 513              	.LVL55:
 514              	.L27:
 181:Source\mbedtls_open\library/debug.c ****         txt[i % 16] = ( buf[i] > 31 && buf[i] < 127 ) ? buf[i] : '.' ;
 515              		.loc 1 181 0
 516 00b8 939B     		ldr	r3, [sp, #588]
 517 00ba 9D19     		adds	r5, r3, r6
 518 00bc 2B78     		ldrb	r3, [r5]
 180:Source\mbedtls_open\library/debug.c ****                          (unsigned int) buf[i] );
 519              		.loc 1 180 0
 520 00be 8021     		movs	r1, #128
 521 00c0 8900     		lsls	r1, r1, #2
 522 00c2 091B     		subs	r1, r1, r4
 523 00c4 0CAA     		add	r2, sp, #48
 524 00c6 1019     		adds	r0, r2, r4
 525 00c8 224A     		ldr	r2, .L37+24
 526 00ca FFF7FEFF 		bl	snprintf
 527              	.LVL56:
 528 00ce 2418     		adds	r4, r4, r0
ARM GAS  C:\Users\Phuong\AppData\Local\Temp\ccgxicpz.s 			page 17


 529              	.LVL57:
 182:Source\mbedtls_open\library/debug.c ****     }
 530              		.loc 1 182 0
 531 00d0 2B78     		ldrb	r3, [r5]
 532 00d2 1A00     		movs	r2, r3
 533 00d4 203A     		subs	r2, r2, #32
 534 00d6 D2B2     		uxtb	r2, r2
 535 00d8 5E2A     		cmp	r2, #94
 536 00da 00D9     		bls	.L29
 537 00dc 2E23     		movs	r3, #46
 538              	.L29:
 182:Source\mbedtls_open\library/debug.c ****     }
 539              		.loc 1 182 0 is_stmt 0 discriminator 4
 540 00de 07AA     		add	r2, sp, #28
 541 00e0 D355     		strb	r3, [r2, r7]
 159:Source\mbedtls_open\library/debug.c ****     {
 542              		.loc 1 159 0 is_stmt 1 discriminator 4
 543 00e2 0136     		adds	r6, r6, #1
 544              	.LVL58:
 545              	.L25:
 159:Source\mbedtls_open\library/debug.c ****     {
 546              		.loc 1 159 0 is_stmt 0 discriminator 2
 547 00e4 949B     		ldr	r3, [sp, #592]
 548 00e6 9E42     		cmp	r6, r3
 549 00e8 BBD3     		bcc	.L30
 550              	.L26:
 551 00ea 4F46     		mov	r7, r9
 185:Source\mbedtls_open\library/debug.c ****     {
 552              		.loc 1 185 0 is_stmt 1
 553 00ec 949B     		ldr	r3, [sp, #592]
 554 00ee 002B     		cmp	r3, #0
 555 00f0 0AD1     		bne	.L31
 556              	.LVL59:
 557 00f2 1CE0     		b	.L23
 558              	.L33:
 188:Source\mbedtls_open\library/debug.c **** 
 559              		.loc 1 188 0 discriminator 2
 560 00f4 8021     		movs	r1, #128
 561 00f6 8900     		lsls	r1, r1, #2
 562 00f8 091B     		subs	r1, r1, r4
 563 00fa 0CAB     		add	r3, sp, #48
 564 00fc 1819     		adds	r0, r3, r4
 565 00fe 164A     		ldr	r2, .L37+28
 566 0100 FFF7FEFF 		bl	snprintf
 567              	.LVL60:
 568 0104 2418     		adds	r4, r4, r0
 569              	.LVL61:
 187:Source\mbedtls_open\library/debug.c ****             idx += mbedtls_snprintf( str + idx, sizeof( str ) - idx, "   " );
 570              		.loc 1 187 0 discriminator 2
 571 0106 0136     		adds	r6, r6, #1
 572              	.LVL62:
 573              	.L31:
 187:Source\mbedtls_open\library/debug.c ****             idx += mbedtls_snprintf( str + idx, sizeof( str ) - idx, "   " );
 574              		.loc 1 187 0 is_stmt 0 discriminator 1
 575 0108 3307     		lsls	r3, r6, #28
 576 010a F3D1     		bne	.L33
 190:Source\mbedtls_open\library/debug.c ****         debug_send_line( ssl, level, file, line, str );
ARM GAS  C:\Users\Phuong\AppData\Local\Temp\ccgxicpz.s 			page 18


 577              		.loc 1 190 0 is_stmt 1
 578 010c 8021     		movs	r1, #128
 579 010e 8900     		lsls	r1, r1, #2
 580 0110 091B     		subs	r1, r1, r4
 581 0112 0CAD     		add	r5, sp, #48
 582 0114 2819     		adds	r0, r5, r4
 583 0116 07AB     		add	r3, sp, #28
 584 0118 0C4A     		ldr	r2, .L37+16
 585 011a FFF7FEFF 		bl	snprintf
 586              	.LVL63:
 587              	.LBB39:
 588              	.LBB40:
  77:Source\mbedtls_open\library/debug.c **** #endif
 589              		.loc 1 77 0
 590 011e 3B68     		ldr	r3, [r7]
 591 0120 1C69     		ldr	r4, [r3, #16]
 592              	.LVL64:
 593 0122 5869     		ldr	r0, [r3, #20]
 594 0124 0095     		str	r5, [sp]
 595 0126 059B     		ldr	r3, [sp, #20]
 596 0128 049A     		ldr	r2, [sp, #16]
 597 012a 0399     		ldr	r1, [sp, #12]
 598 012c A047     		blx	r4
 599              	.LVL65:
 600              	.L23:
 601              	.LBE40:
 602              	.LBE39:
 193:Source\mbedtls_open\library/debug.c **** 
 603              		.loc 1 193 0
 604 012e 8C23     		movs	r3, #140
 605 0130 9B00     		lsls	r3, r3, #2
 606 0132 9D44     		add	sp, sp, r3
 607              		@ sp needed
 608              	.LVL66:
 609 0134 04BC     		pop	{r2}
 610 0136 9146     		mov	r9, r2
 611 0138 F0BD     		pop	{r4, r5, r6, r7, pc}
 612              	.L38:
 613 013a C046     		.align	2
 614              	.L37:
 615 013c D0FDFFFF 		.word	-560
 616 0140 00000000 		.word	.LANCHOR0
 617 0144 1C000000 		.word	.LC6
 618 0148 FF0F0000 		.word	4095
 619 014c 38000000 		.word	.LC8
 620 0150 40000000 		.word	.LC10
 621 0154 48000000 		.word	.LC12
 622 0158 50000000 		.word	.LC14
 623              		.cfi_endproc
 624              	.LFE22:
 625              		.size	mbedtls_debug_print_buf, .-mbedtls_debug_print_buf
 626              		.section	.text.mbedtls_debug_print_mpi,"ax",%progbits
 627              		.align	2
 628              		.global	mbedtls_debug_print_mpi
 629              		.code	16
 630              		.thumb_func
 631              		.type	mbedtls_debug_print_mpi, %function
ARM GAS  C:\Users\Phuong\AppData\Local\Temp\ccgxicpz.s 			page 19


 632              	mbedtls_debug_print_mpi:
 633              	.LFB24:
 217:Source\mbedtls_open\library/debug.c ****     char str[DEBUG_BUF_SIZE];
 634              		.loc 1 217 0
 635              		.cfi_startproc
 636              		@ args = 8, pretend = 0, frame = 528
 637              		@ frame_needed = 0, uses_anonymous_args = 0
 638              	.LVL67:
 639 0000 F0B5     		push	{r4, r5, r6, r7, lr}
 640              		.cfi_def_cfa_offset 20
 641              		.cfi_offset 4, -20
 642              		.cfi_offset 5, -16
 643              		.cfi_offset 6, -12
 644              		.cfi_offset 7, -8
 645              		.cfi_offset 14, -4
 646 0002 5746     		mov	r7, r10
 647 0004 4E46     		mov	r6, r9
 648 0006 4546     		mov	r5, r8
 649 0008 E0B4     		push	{r5, r6, r7}
 650              		.cfi_def_cfa_offset 32
 651              		.cfi_offset 8, -32
 652              		.cfi_offset 9, -28
 653              		.cfi_offset 10, -24
 654 000a 614C     		ldr	r4, .L58
 655 000c A544     		add	sp, sp, r4
 656              		.cfi_def_cfa_offset 568
 657 000e 8046     		mov	r8, r0
 658 0010 0391     		str	r1, [sp, #12]
 659 0012 0492     		str	r2, [sp, #16]
 660 0014 0593     		str	r3, [sp, #20]
 661 0016 8F9B     		ldr	r3, [sp, #572]
 662              	.LVL68:
 663 0018 9946     		mov	r9, r3
 664              	.LVL69:
 222:Source\mbedtls_open\library/debug.c ****         return;
 665              		.loc 1 222 0
 666 001a 0368     		ldr	r3, [r0]
 667 001c 002B     		cmp	r3, #0
 668 001e 00D1     		bne	.LCB742
 669 0020 AEE0     		b	.L39	@long jump
 670              	.LCB742:
 222:Source\mbedtls_open\library/debug.c ****         return;
 671              		.loc 1 222 0 is_stmt 0 discriminator 1
 672 0022 1B69     		ldr	r3, [r3, #16]
 673 0024 002B     		cmp	r3, #0
 674 0026 00D1     		bne	.LCB745
 675 0028 AAE0     		b	.L39	@long jump
 676              	.LCB745:
 222:Source\mbedtls_open\library/debug.c ****         return;
 677              		.loc 1 222 0 discriminator 2
 678 002a 4B46     		mov	r3, r9
 679 002c 002B     		cmp	r3, #0
 680 002e 00D1     		bne	.LCB748
 681 0030 A6E0     		b	.L39	@long jump
 682              	.LCB748:
 222:Source\mbedtls_open\library/debug.c ****         return;
 683              		.loc 1 222 0 discriminator 3
ARM GAS  C:\Users\Phuong\AppData\Local\Temp\ccgxicpz.s 			page 20


 684 0032 584B     		ldr	r3, .L58+4
 685 0034 1B68     		ldr	r3, [r3]
 686 0036 8B42     		cmp	r3, r1
 687 0038 00DA     		bge	.LCB752
 688 003a A1E0     		b	.L39	@long jump
 689              	.LCB752:
 225:Source\mbedtls_open\library/debug.c ****         if( X->p[n] != 0 )
 690              		.loc 1 225 0 is_stmt 1
 691 003c 4B46     		mov	r3, r9
 692 003e 5B68     		ldr	r3, [r3, #4]
 693 0040 5D1E     		subs	r5, r3, #1
 694              	.LVL70:
 695 0042 4A46     		mov	r2, r9
 696              	.LVL71:
 697 0044 05E0     		b	.L41
 698              	.LVL72:
 699              	.L43:
 226:Source\mbedtls_open\library/debug.c ****             break;
 700              		.loc 1 226 0
 701 0046 AB00     		lsls	r3, r5, #2
 702 0048 9168     		ldr	r1, [r2, #8]
 703 004a 5B58     		ldr	r3, [r3, r1]
 704 004c 002B     		cmp	r3, #0
 705 004e 0DD1     		bne	.L56
 225:Source\mbedtls_open\library/debug.c ****         if( X->p[n] != 0 )
 706              		.loc 1 225 0 discriminator 2
 707 0050 013D     		subs	r5, r5, #1
 708              	.LVL73:
 709              	.L41:
 225:Source\mbedtls_open\library/debug.c ****         if( X->p[n] != 0 )
 710              		.loc 1 225 0 is_stmt 0 discriminator 1
 711 0052 002D     		cmp	r5, #0
 712 0054 F7D1     		bne	.L43
 713 0056 1F23     		movs	r3, #31
 714 0058 1100     		movs	r1, r2
 715 005a 09E0     		b	.L42
 716              	.LVL74:
 717              	.L45:
 230:Source\mbedtls_open\library/debug.c ****             break;
 718              		.loc 1 230 0 is_stmt 1
 719 005c AA00     		lsls	r2, r5, #2
 720 005e 8868     		ldr	r0, [r1, #8]
 721 0060 1258     		ldr	r2, [r2, r0]
 722 0062 DA40     		lsrs	r2, r2, r3
 723 0064 D207     		lsls	r2, r2, #31
 724 0066 05D4     		bmi	.L44
 229:Source\mbedtls_open\library/debug.c ****         if( ( ( X->p[n] >> j ) & 1 ) != 0 )
 725              		.loc 1 229 0 discriminator 2
 726 0068 013B     		subs	r3, r3, #1
 727              	.LVL75:
 728 006a 01E0     		b	.L42
 729              	.LVL76:
 730              	.L56:
 731 006c 1F23     		movs	r3, #31
 732 006e 1100     		movs	r1, r2
 733              	.LVL77:
 734              	.L42:
ARM GAS  C:\Users\Phuong\AppData\Local\Temp\ccgxicpz.s 			page 21


 229:Source\mbedtls_open\library/debug.c ****         if( ( ( X->p[n] >> j ) & 1 ) != 0 )
 735              		.loc 1 229 0 is_stmt 0 discriminator 1
 736 0070 002B     		cmp	r3, #0
 737 0072 F3DA     		bge	.L45
 738              	.L44:
 739 0074 8946     		mov	r9, r1
 234:Source\mbedtls_open\library/debug.c **** 
 740              		.loc 1 234 0 is_stmt 1
 741 0076 6A01     		lsls	r2, r5, #5
 742 0078 9B18     		adds	r3, r3, r2
 743              	.LVL78:
 744 007a 0133     		adds	r3, r3, #1
 233:Source\mbedtls_open\library/debug.c ****               text, (int) ( ( n * ( sizeof(mbedtls_mpi_uint) << 3 ) ) + j + 1 ) );
 745              		.loc 1 233 0
 746 007c 06AC     		add	r4, sp, #24
 747 007e 0093     		str	r3, [sp]
 748 0080 8E9B     		ldr	r3, [sp, #568]
 749 0082 454A     		ldr	r2, .L58+8
 750 0084 8021     		movs	r1, #128
 751 0086 8900     		lsls	r1, r1, #2
 752 0088 2000     		movs	r0, r4
 753 008a FFF7FEFF 		bl	snprintf
 754              	.LVL79:
 755              	.LBB41:
 756              	.LBB42:
  77:Source\mbedtls_open\library/debug.c **** #endif
 757              		.loc 1 77 0
 758 008e 4346     		mov	r3, r8
 759 0090 1B68     		ldr	r3, [r3]
 760 0092 1E69     		ldr	r6, [r3, #16]
 761 0094 5869     		ldr	r0, [r3, #20]
 762 0096 0094     		str	r4, [sp]
 763 0098 059B     		ldr	r3, [sp, #20]
 764 009a 049A     		ldr	r2, [sp, #16]
 765 009c 0399     		ldr	r1, [sp, #12]
 766 009e B047     		blx	r6
 767              	.LVL80:
 768              	.LBE42:
 769              	.LBE41:
 239:Source\mbedtls_open\library/debug.c ****     {
 770              		.loc 1 239 0
 771 00a0 0135     		adds	r5, r5, #1
 772              	.LVL81:
 238:Source\mbedtls_open\library/debug.c ****     for( i = n + 1, j = 0; i > 0; i-- )
 773              		.loc 1 238 0
 774 00a2 0026     		movs	r6, #0
 219:Source\mbedtls_open\library/debug.c ****     size_t i, n, idx = 0;
 775              		.loc 1 219 0
 776 00a4 0123     		movs	r3, #1
 239:Source\mbedtls_open\library/debug.c ****     {
 777              		.loc 1 239 0
 778 00a6 0027     		movs	r7, #0
 779 00a8 4CE0     		b	.L46
 780              	.LVL82:
 781              	.L53:
 241:Source\mbedtls_open\library/debug.c ****             continue;
 782              		.loc 1 241 0
ARM GAS  C:\Users\Phuong\AppData\Local\Temp\ccgxicpz.s 			page 22


 783 00aa 002B     		cmp	r3, #0
 784 00ac 46D0     		beq	.L57
 241:Source\mbedtls_open\library/debug.c ****             continue;
 785              		.loc 1 241 0 is_stmt 0 discriminator 1
 786 00ae 3B4A     		ldr	r2, .L58+12
 787 00b0 AA18     		adds	r2, r5, r2
 788 00b2 9200     		lsls	r2, r2, #2
 789 00b4 4946     		mov	r1, r9
 790 00b6 8968     		ldr	r1, [r1, #8]
 791 00b8 5258     		ldr	r2, [r2, r1]
 792 00ba 002A     		cmp	r2, #0
 793 00bc 41D0     		beq	.L48
 794 00be 0324     		movs	r4, #3
 795 00c0 3DE0     		b	.L47
 796              	.LVL83:
 797              	.L52:
 246:Source\mbedtls_open\library/debug.c ****                 continue;
 798              		.loc 1 246 0 is_stmt 1
 799 00c2 002B     		cmp	r3, #0
 800 00c4 0AD0     		beq	.L49
 246:Source\mbedtls_open\library/debug.c ****                 continue;
 801              		.loc 1 246 0 is_stmt 0 discriminator 1
 802 00c6 354A     		ldr	r2, .L58+12
 803 00c8 AA18     		adds	r2, r5, r2
 804 00ca 9200     		lsls	r2, r2, #2
 805 00cc 4946     		mov	r1, r9
 806 00ce 8968     		ldr	r1, [r1, #8]
 807 00d0 5258     		ldr	r2, [r2, r1]
 808 00d2 E100     		lsls	r1, r4, #3
 809 00d4 CA40     		lsrs	r2, r2, r1
 810 00d6 FF21     		movs	r1, #255
 811 00d8 1142     		tst	r1, r2
 812 00da 2DD0     		beq	.L50
 813              	.L49:
 814              	.LVL84:
 251:Source\mbedtls_open\library/debug.c ****             {
 815              		.loc 1 251 0 is_stmt 1
 816 00dc 3B07     		lsls	r3, r7, #28
 817 00de 16D1     		bne	.L51
 253:Source\mbedtls_open\library/debug.c ****                 {
 818              		.loc 1 253 0
 819 00e0 002F     		cmp	r7, #0
 820 00e2 14DD     		ble	.L51
 255:Source\mbedtls_open\library/debug.c ****                     debug_send_line( ssl, level, file, line, str );
 821              		.loc 1 255 0
 822 00e4 8021     		movs	r1, #128
 823 00e6 8900     		lsls	r1, r1, #2
 824 00e8 891B     		subs	r1, r1, r6
 825 00ea 06AB     		add	r3, sp, #24
 826 00ec 9A46     		mov	r10, r3
 827 00ee 3000     		movs	r0, r6
 828 00f0 5044     		add	r0, r0, r10
 829 00f2 2B4A     		ldr	r2, .L58+16
 830 00f4 FFF7FEFF 		bl	snprintf
 831              	.LVL85:
 832              	.LBB43:
 833              	.LBB44:
ARM GAS  C:\Users\Phuong\AppData\Local\Temp\ccgxicpz.s 			page 23


  77:Source\mbedtls_open\library/debug.c **** #endif
 834              		.loc 1 77 0
 835 00f8 4346     		mov	r3, r8
 836 00fa 1B68     		ldr	r3, [r3]
 837 00fc 1E69     		ldr	r6, [r3, #16]
 838              	.LVL86:
 839 00fe 5869     		ldr	r0, [r3, #20]
 840 0100 5346     		mov	r3, r10
 841 0102 0093     		str	r3, [sp]
 842 0104 059B     		ldr	r3, [sp, #20]
 843 0106 049A     		ldr	r2, [sp, #16]
 844 0108 0399     		ldr	r1, [sp, #12]
 845 010a B047     		blx	r6
 846              	.LVL87:
 847              	.LBE44:
 848              	.LBE43:
 257:Source\mbedtls_open\library/debug.c ****                 }
 849              		.loc 1 257 0
 850 010c 0026     		movs	r6, #0
 851              	.LVL88:
 852              	.L51:
 262:Source\mbedtls_open\library/debug.c **** 
 853              		.loc 1 262 0
 854 010e 234B     		ldr	r3, .L58+12
 855 0110 EB18     		adds	r3, r5, r3
 856 0112 9B00     		lsls	r3, r3, #2
 857 0114 4A46     		mov	r2, r9
 858 0116 9268     		ldr	r2, [r2, #8]
 859 0118 9B58     		ldr	r3, [r3, r2]
 860 011a E200     		lsls	r2, r4, #3
 861 011c D340     		lsrs	r3, r3, r2
 261:Source\mbedtls_open\library/debug.c ****                              ( X->p[i - 1] >> ( k << 3 ) ) & 0xFF );
 862              		.loc 1 261 0
 863 011e FF22     		movs	r2, #255
 864 0120 1340     		ands	r3, r2
 865 0122 8021     		movs	r1, #128
 866 0124 8900     		lsls	r1, r1, #2
 867 0126 891B     		subs	r1, r1, r6
 868 0128 06AA     		add	r2, sp, #24
 869 012a 9019     		adds	r0, r2, r6
 870 012c 1D4A     		ldr	r2, .L58+20
 871 012e FFF7FEFF 		bl	snprintf
 872              	.LVL89:
 873 0132 3618     		adds	r6, r6, r0
 874              	.LVL90:
 264:Source\mbedtls_open\library/debug.c ****         }
 875              		.loc 1 264 0
 876 0134 0137     		adds	r7, r7, #1
 877              	.LVL91:
 249:Source\mbedtls_open\library/debug.c **** 
 878              		.loc 1 249 0
 879 0136 0023     		movs	r3, #0
 880              	.LVL92:
 881              	.L50:
 244:Source\mbedtls_open\library/debug.c ****         {
 882              		.loc 1 244 0 discriminator 2
 883 0138 013C     		subs	r4, r4, #1
ARM GAS  C:\Users\Phuong\AppData\Local\Temp\ccgxicpz.s 			page 24


 884              	.LVL93:
 885 013a 00E0     		b	.L47
 886              	.LVL94:
 887              	.L57:
 888 013c 0324     		movs	r4, #3
 889              	.L47:
 890              	.LVL95:
 244:Source\mbedtls_open\library/debug.c ****         {
 891              		.loc 1 244 0 is_stmt 0 discriminator 1
 892 013e 002C     		cmp	r4, #0
 893 0140 BFDA     		bge	.L52
 894              	.LVL96:
 895              	.L48:
 239:Source\mbedtls_open\library/debug.c ****     {
 896              		.loc 1 239 0 is_stmt 1 discriminator 2
 897 0142 013D     		subs	r5, r5, #1
 898              	.LVL97:
 899              	.L46:
 239:Source\mbedtls_open\library/debug.c ****     {
 900              		.loc 1 239 0 is_stmt 0 discriminator 1
 901 0144 002D     		cmp	r5, #0
 902 0146 B0D1     		bne	.L53
 269:Source\mbedtls_open\library/debug.c ****         idx += mbedtls_snprintf( str + idx, sizeof( str ) - idx, " 00" );
 903              		.loc 1 269 0 is_stmt 1
 904 0148 012B     		cmp	r3, #1
 905 014a 08D1     		bne	.L54
 270:Source\mbedtls_open\library/debug.c **** 
 906              		.loc 1 270 0
 907 014c 8021     		movs	r1, #128
 908 014e 8900     		lsls	r1, r1, #2
 909 0150 891B     		subs	r1, r1, r6
 910 0152 06AB     		add	r3, sp, #24
 911              	.LVL98:
 912 0154 9819     		adds	r0, r3, r6
 913 0156 144A     		ldr	r2, .L58+24
 914 0158 FFF7FEFF 		bl	snprintf
 915              	.LVL99:
 916 015c 3618     		adds	r6, r6, r0
 917              	.LVL100:
 918              	.L54:
 272:Source\mbedtls_open\library/debug.c ****     debug_send_line( ssl, level, file, line, str );
 919              		.loc 1 272 0
 920 015e 8021     		movs	r1, #128
 921 0160 8900     		lsls	r1, r1, #2
 922 0162 891B     		subs	r1, r1, r6
 923 0164 06AC     		add	r4, sp, #24
 924 0166 A019     		adds	r0, r4, r6
 925 0168 0D4A     		ldr	r2, .L58+16
 926 016a FFF7FEFF 		bl	snprintf
 927              	.LVL101:
 928              	.LBB45:
 929              	.LBB46:
  77:Source\mbedtls_open\library/debug.c **** #endif
 930              		.loc 1 77 0
 931 016e 4346     		mov	r3, r8
 932 0170 1B68     		ldr	r3, [r3]
 933 0172 1D69     		ldr	r5, [r3, #16]
ARM GAS  C:\Users\Phuong\AppData\Local\Temp\ccgxicpz.s 			page 25


 934              	.LVL102:
 935 0174 5869     		ldr	r0, [r3, #20]
 936 0176 0094     		str	r4, [sp]
 937 0178 059B     		ldr	r3, [sp, #20]
 938 017a 049A     		ldr	r2, [sp, #16]
 939 017c 0399     		ldr	r1, [sp, #12]
 940 017e A847     		blx	r5
 941              	.LVL103:
 942              	.L39:
 943              	.LBE46:
 944              	.LBE45:
 274:Source\mbedtls_open\library/debug.c **** #endif /* MBEDTLS_BIGNUM_C */
 945              		.loc 1 274 0
 946 0180 8623     		movs	r3, #134
 947 0182 9B00     		lsls	r3, r3, #2
 948 0184 9D44     		add	sp, sp, r3
 949              		@ sp needed
 950              	.LVL104:
 951 0186 1CBC     		pop	{r2, r3, r4}
 952 0188 9046     		mov	r8, r2
 953 018a 9946     		mov	r9, r3
 954 018c A246     		mov	r10, r4
 955 018e F0BD     		pop	{r4, r5, r6, r7, pc}
 956              	.L59:
 957              		.align	2
 958              	.L58:
 959 0190 E8FDFFFF 		.word	-536
 960 0194 00000000 		.word	.LANCHOR0
 961 0198 54000000 		.word	.LC17
 962 019c FFFFFF3F 		.word	1073741823
 963 01a0 74000000 		.word	.LC19
 964 01a4 48000000 		.word	.LC12
 965 01a8 78000000 		.word	.LC22
 966              		.cfi_endproc
 967              	.LFE24:
 968              		.size	mbedtls_debug_print_mpi, .-mbedtls_debug_print_mpi
 969              		.section	.text.mbedtls_debug_print_ecp,"ax",%progbits
 970              		.align	2
 971              		.global	mbedtls_debug_print_ecp
 972              		.code	16
 973              		.thumb_func
 974              		.type	mbedtls_debug_print_ecp, %function
 975              	mbedtls_debug_print_ecp:
 976              	.LFB23:
 199:Source\mbedtls_open\library/debug.c ****     char str[DEBUG_BUF_SIZE];
 977              		.loc 1 199 0
 978              		.cfi_startproc
 979              		@ args = 8, pretend = 0, frame = 512
 980              		@ frame_needed = 0, uses_anonymous_args = 0
 981              	.LVL105:
 982 0000 F0B5     		push	{r4, r5, r6, r7, lr}
 983              		.cfi_def_cfa_offset 20
 984              		.cfi_offset 4, -20
 985              		.cfi_offset 5, -16
 986              		.cfi_offset 6, -12
 987              		.cfi_offset 7, -8
 988              		.cfi_offset 14, -4
ARM GAS  C:\Users\Phuong\AppData\Local\Temp\ccgxicpz.s 			page 26


 989 0002 1B4C     		ldr	r4, .L63
 990 0004 A544     		add	sp, sp, r4
 991              		.cfi_def_cfa_offset 544
 992 0006 0700     		movs	r7, r0
 993 0008 0C00     		movs	r4, r1
 994 000a 1500     		movs	r5, r2
 995 000c 1E00     		movs	r6, r3
 202:Source\mbedtls_open\library/debug.c ****         return;
 996              		.loc 1 202 0
 997 000e 0368     		ldr	r3, [r0]
 998              	.LVL106:
 999 0010 002B     		cmp	r3, #0
 1000 0012 29D0     		beq	.L60
 202:Source\mbedtls_open\library/debug.c ****         return;
 1001              		.loc 1 202 0 is_stmt 0 discriminator 1
 1002 0014 1B69     		ldr	r3, [r3, #16]
 1003 0016 002B     		cmp	r3, #0
 1004 0018 26D0     		beq	.L60
 202:Source\mbedtls_open\library/debug.c ****         return;
 1005              		.loc 1 202 0 discriminator 2
 1006 001a 164B     		ldr	r3, .L63+4
 1007 001c 1B68     		ldr	r3, [r3]
 1008 001e 8B42     		cmp	r3, r1
 1009 0020 22DB     		blt	.L60
 205:Source\mbedtls_open\library/debug.c ****     mbedtls_debug_print_mpi( ssl, level, file, line, str, &X->X );
 1010              		.loc 1 205 0 is_stmt 1
 1011 0022 889B     		ldr	r3, [sp, #544]
 1012 0024 144A     		ldr	r2, .L63+8
 1013              	.LVL107:
 1014 0026 8021     		movs	r1, #128
 1015              	.LVL108:
 1016 0028 8900     		lsls	r1, r1, #2
 1017 002a 02A8     		add	r0, sp, #8
 1018              	.LVL109:
 1019 002c FFF7FEFF 		bl	snprintf
 1020              	.LVL110:
 206:Source\mbedtls_open\library/debug.c **** 
 1021              		.loc 1 206 0
 1022 0030 899B     		ldr	r3, [sp, #548]
 1023 0032 0193     		str	r3, [sp, #4]
 1024 0034 02AB     		add	r3, sp, #8
 1025 0036 0093     		str	r3, [sp]
 1026 0038 3300     		movs	r3, r6
 1027 003a 2A00     		movs	r2, r5
 1028 003c 2100     		movs	r1, r4
 1029 003e 3800     		movs	r0, r7
 1030 0040 FFF7FEFF 		bl	mbedtls_debug_print_mpi
 1031              	.LVL111:
 208:Source\mbedtls_open\library/debug.c ****     mbedtls_debug_print_mpi( ssl, level, file, line, str, &X->Y );
 1032              		.loc 1 208 0
 1033 0044 889B     		ldr	r3, [sp, #544]
 1034 0046 0D4A     		ldr	r2, .L63+12
 1035 0048 8021     		movs	r1, #128
 1036 004a 8900     		lsls	r1, r1, #2
 1037 004c 02A8     		add	r0, sp, #8
 1038 004e FFF7FEFF 		bl	snprintf
 1039              	.LVL112:
ARM GAS  C:\Users\Phuong\AppData\Local\Temp\ccgxicpz.s 			page 27


 209:Source\mbedtls_open\library/debug.c **** }
 1040              		.loc 1 209 0
 1041 0052 899B     		ldr	r3, [sp, #548]
 1042 0054 0C33     		adds	r3, r3, #12
 1043 0056 0193     		str	r3, [sp, #4]
 1044 0058 02AB     		add	r3, sp, #8
 1045 005a 0093     		str	r3, [sp]
 1046 005c 3300     		movs	r3, r6
 1047 005e 2A00     		movs	r2, r5
 1048 0060 2100     		movs	r1, r4
 1049 0062 3800     		movs	r0, r7
 1050 0064 FFF7FEFF 		bl	mbedtls_debug_print_mpi
 1051              	.LVL113:
 1052              	.L60:
 210:Source\mbedtls_open\library/debug.c **** #endif /* MBEDTLS_ECP_C */
 1053              		.loc 1 210 0
 1054 0068 8323     		movs	r3, #131
 1055 006a 9B00     		lsls	r3, r3, #2
 1056 006c 9D44     		add	sp, sp, r3
 1057              		@ sp needed
 1058              	.LVL114:
 1059              	.LVL115:
 1060              	.LVL116:
 1061              	.LVL117:
 1062 006e F0BD     		pop	{r4, r5, r6, r7, pc}
 1063              	.L64:
 1064              		.align	2
 1065              	.L63:
 1066 0070 F4FDFFFF 		.word	-524
 1067 0074 00000000 		.word	.LANCHOR0
 1068 0078 7C000000 		.word	.LC25
 1069 007c 84000000 		.word	.LC27
 1070              		.cfi_endproc
 1071              	.LFE23:
 1072              		.size	mbedtls_debug_print_ecp, .-mbedtls_debug_print_ecp
 1073              		.section	.text.debug_print_pk,"ax",%progbits
 1074              		.align	2
 1075              		.code	16
 1076              		.thumb_func
 1077              		.type	debug_print_pk, %function
 1078              	debug_print_pk:
 1079              	.LFB25:
 281:Source\mbedtls_open\library/debug.c ****     size_t i;
 1080              		.loc 1 281 0
 1081              		.cfi_startproc
 1082              		@ args = 8, pretend = 0, frame = 72
 1083              		@ frame_needed = 0, uses_anonymous_args = 0
 1084              	.LVL118:
 1085 0000 F0B5     		push	{r4, r5, r6, r7, lr}
 1086              		.cfi_def_cfa_offset 20
 1087              		.cfi_offset 4, -20
 1088              		.cfi_offset 5, -16
 1089              		.cfi_offset 6, -12
 1090              		.cfi_offset 7, -8
 1091              		.cfi_offset 14, -4
 1092 0002 5F46     		mov	r7, fp
 1093 0004 80B4     		push	{r7}
ARM GAS  C:\Users\Phuong\AppData\Local\Temp\ccgxicpz.s 			page 28


 1094              		.cfi_def_cfa_offset 24
 1095              		.cfi_offset 11, -24
 1096 0006 94B0     		sub	sp, sp, #80
 1097              		.cfi_def_cfa_offset 104
 1098 0008 0500     		movs	r5, r0
 1099 000a 0391     		str	r1, [sp, #12]
 1100 000c 0492     		str	r2, [sp, #16]
 1101 000e 0593     		str	r3, [sp, #20]
 286:Source\mbedtls_open\library/debug.c **** 
 1102              		.loc 1 286 0
 1103 0010 2422     		movs	r2, #36
 1104              	.LVL119:
 1105 0012 0021     		movs	r1, #0
 1106              	.LVL120:
 1107 0014 0BA8     		add	r0, sp, #44
 1108              	.LVL121:
 1109 0016 FFF7FEFF 		bl	memset
 1110              	.LVL122:
 288:Source\mbedtls_open\library/debug.c ****     {
 1111              		.loc 1 288 0
 1112 001a 0BA9     		add	r1, sp, #44
 1113 001c 1B98     		ldr	r0, [sp, #108]
 1114 001e FFF7FEFF 		bl	mbedtls_pk_debug
 1115              	.LVL123:
 1116 0022 0028     		cmp	r0, #0
 1117 0024 55D0     		beq	.L73
 1118              	.LVL124:
 1119              	.LBB47:
 1120              	.LBB48:
  77:Source\mbedtls_open\library/debug.c **** #endif
 1121              		.loc 1 77 0
 1122 0026 2B68     		ldr	r3, [r5]
 1123 0028 1C69     		ldr	r4, [r3, #16]
 1124 002a 5869     		ldr	r0, [r3, #20]
 1125 002c 2C4B     		ldr	r3, .L74
 1126 002e 0093     		str	r3, [sp]
 1127 0030 059B     		ldr	r3, [sp, #20]
 1128 0032 049A     		ldr	r2, [sp, #16]
 1129 0034 0399     		ldr	r1, [sp, #12]
 1130 0036 A047     		blx	r4
 1131              	.LVL125:
 1132 0038 4EE0     		b	.L65
 1133              	.LVL126:
 1134              	.L71:
 1135              	.LBE48:
 1136              	.LBE47:
 297:Source\mbedtls_open\library/debug.c ****             return;
 1137              		.loc 1 297 0
 1138 003a 6300     		lsls	r3, r4, #1
 1139 003c 1B19     		adds	r3, r3, r4
 1140 003e 9A00     		lsls	r2, r3, #2
 1141 0040 0BAB     		add	r3, sp, #44
 1142 0042 D35C     		ldrb	r3, [r2, r3]
 1143 0044 002B     		cmp	r3, #0
 1144 0046 47D0     		beq	.L65
 300:Source\mbedtls_open\library/debug.c ****         name[sizeof( name ) - 1] = '\0';
 1145              		.loc 1 300 0
ARM GAS  C:\Users\Phuong\AppData\Local\Temp\ccgxicpz.s 			page 29


 1146 0048 07AB     		add	r3, sp, #28
 1147 004a 9B46     		mov	fp, r3
 1148 004c 0BAE     		add	r6, sp, #44
 1149 004e 6700     		lsls	r7, r4, #1
 1150 0050 3A19     		adds	r2, r7, r4
 1151 0052 9300     		lsls	r3, r2, #2
 1152 0054 F318     		adds	r3, r6, r3
 1153 0056 5B68     		ldr	r3, [r3, #4]
 1154 0058 0093     		str	r3, [sp]
 1155 005a 1A9B     		ldr	r3, [sp, #104]
 1156 005c 214A     		ldr	r2, .L74+4
 1157 005e 1021     		movs	r1, #16
 1158 0060 5846     		mov	r0, fp
 1159 0062 FFF7FEFF 		bl	snprintf
 1160              	.LVL127:
 301:Source\mbedtls_open\library/debug.c **** 
 1161              		.loc 1 301 0
 1162 0066 0023     		movs	r3, #0
 1163 0068 5A46     		mov	r2, fp
 1164 006a D373     		strb	r3, [r2, #15]
 303:Source\mbedtls_open\library/debug.c ****             mbedtls_debug_print_mpi( ssl, level, file, line, name, items[i].value );
 1165              		.loc 1 303 0
 1166 006c 3B19     		adds	r3, r7, r4
 1167 006e 9A00     		lsls	r2, r3, #2
 1168 0070 935D     		ldrb	r3, [r2, r6]
 1169 0072 012B     		cmp	r3, #1
 1170 0074 0FD1     		bne	.L68
 304:Source\mbedtls_open\library/debug.c ****         else
 1171              		.loc 1 304 0
 1172 0076 3A19     		adds	r2, r7, r4
 1173 0078 9300     		lsls	r3, r2, #2
 1174 007a 0BAA     		add	r2, sp, #44
 1175 007c 9446     		mov	ip, r2
 1176 007e 6344     		add	r3, r3, ip
 1177 0080 9B68     		ldr	r3, [r3, #8]
 1178 0082 0193     		str	r3, [sp, #4]
 1179 0084 07AB     		add	r3, sp, #28
 1180 0086 0093     		str	r3, [sp]
 1181 0088 059B     		ldr	r3, [sp, #20]
 1182 008a 049A     		ldr	r2, [sp, #16]
 1183 008c 0399     		ldr	r1, [sp, #12]
 1184 008e 2800     		movs	r0, r5
 1185 0090 FFF7FEFF 		bl	mbedtls_debug_print_mpi
 1186              	.LVL128:
 1187 0094 1BE0     		b	.L69
 1188              	.L68:
 307:Source\mbedtls_open\library/debug.c ****             mbedtls_debug_print_ecp( ssl, level, file, line, name, items[i].value );
 1189              		.loc 1 307 0
 1190 0096 022B     		cmp	r3, #2
 1191 0098 10D1     		bne	.L70
 308:Source\mbedtls_open\library/debug.c ****         else
 1192              		.loc 1 308 0
 1193 009a 6200     		lsls	r2, r4, #1
 1194 009c 1219     		adds	r2, r2, r4
 1195 009e 9300     		lsls	r3, r2, #2
 1196 00a0 0BAA     		add	r2, sp, #44
 1197 00a2 9446     		mov	ip, r2
ARM GAS  C:\Users\Phuong\AppData\Local\Temp\ccgxicpz.s 			page 30


 1198 00a4 6344     		add	r3, r3, ip
 1199 00a6 9B68     		ldr	r3, [r3, #8]
 1200 00a8 0193     		str	r3, [sp, #4]
 1201 00aa 07AB     		add	r3, sp, #28
 1202 00ac 0093     		str	r3, [sp]
 1203 00ae 059B     		ldr	r3, [sp, #20]
 1204 00b0 049A     		ldr	r2, [sp, #16]
 1205 00b2 0399     		ldr	r1, [sp, #12]
 1206 00b4 2800     		movs	r0, r5
 1207 00b6 FFF7FEFF 		bl	mbedtls_debug_print_ecp
 1208              	.LVL129:
 1209 00ba 08E0     		b	.L69
 1210              	.L70:
 1211              	.LVL130:
 1212              	.LBB49:
 1213              	.LBB50:
  77:Source\mbedtls_open\library/debug.c **** #endif
 1214              		.loc 1 77 0
 1215 00bc 2B68     		ldr	r3, [r5]
 1216 00be 1E69     		ldr	r6, [r3, #16]
 1217 00c0 5869     		ldr	r0, [r3, #20]
 1218 00c2 094B     		ldr	r3, .L74+8
 1219 00c4 0093     		str	r3, [sp]
 1220 00c6 059B     		ldr	r3, [sp, #20]
 1221 00c8 049A     		ldr	r2, [sp, #16]
 1222 00ca 0399     		ldr	r1, [sp, #12]
 1223 00cc B047     		blx	r6
 1224              	.LVL131:
 1225              	.L69:
 1226              	.LBE50:
 1227              	.LBE49:
 295:Source\mbedtls_open\library/debug.c ****     {
 1228              		.loc 1 295 0 discriminator 2
 1229 00ce 0134     		adds	r4, r4, #1
 1230              	.LVL132:
 1231 00d0 00E0     		b	.L66
 1232              	.LVL133:
 1233              	.L73:
 1234 00d2 0024     		movs	r4, #0
 1235              	.L66:
 1236              	.LVL134:
 295:Source\mbedtls_open\library/debug.c ****     {
 1237              		.loc 1 295 0 is_stmt 0 discriminator 1
 1238 00d4 022C     		cmp	r4, #2
 1239 00d6 B0D9     		bls	.L71
 1240              	.LVL135:
 1241              	.L65:
 314:Source\mbedtls_open\library/debug.c **** 
 1242              		.loc 1 314 0 is_stmt 1
 1243 00d8 14B0     		add	sp, sp, #80
 1244              		@ sp needed
 1245              	.LVL136:
 1246 00da 04BC     		pop	{r2}
 1247 00dc 9346     		mov	fp, r2
 1248 00de F0BD     		pop	{r4, r5, r6, r7, pc}
 1249              	.L75:
 1250              		.align	2
ARM GAS  C:\Users\Phuong\AppData\Local\Temp\ccgxicpz.s 			page 31


 1251              	.L74:
 1252 00e0 8C000000 		.word	.LC29
 1253 00e4 A0000000 		.word	.LC31
 1254 00e8 A8000000 		.word	.LC33
 1255              		.cfi_endproc
 1256              	.LFE25:
 1257              		.size	debug_print_pk, .-debug_print_pk
 1258              		.section	.text.mbedtls_debug_print_crt,"ax",%progbits
 1259              		.align	2
 1260              		.global	mbedtls_debug_print_crt
 1261              		.code	16
 1262              		.thumb_func
 1263              		.type	mbedtls_debug_print_crt, %function
 1264              	mbedtls_debug_print_crt:
 1265              	.LFB27:
 340:Source\mbedtls_open\library/debug.c **** 
 341:Source\mbedtls_open\library/debug.c **** void mbedtls_debug_print_crt( const mbedtls_ssl_context *ssl, int level,
 342:Source\mbedtls_open\library/debug.c ****                       const char *file, int line,
 343:Source\mbedtls_open\library/debug.c ****                       const char *text, const mbedtls_x509_crt *crt )
 344:Source\mbedtls_open\library/debug.c **** {
 1266              		.loc 1 344 0
 1267              		.cfi_startproc
 1268              		@ args = 8, pretend = 0, frame = 1552
 1269              		@ frame_needed = 0, uses_anonymous_args = 0
 1270              	.LVL137:
 1271 0000 F0B5     		push	{r4, r5, r6, r7, lr}
 1272              		.cfi_def_cfa_offset 20
 1273              		.cfi_offset 4, -20
 1274              		.cfi_offset 5, -16
 1275              		.cfi_offset 6, -12
 1276              		.cfi_offset 7, -8
 1277              		.cfi_offset 14, -4
 1278 0002 5746     		mov	r7, r10
 1279 0004 80B4     		push	{r7}
 1280              		.cfi_def_cfa_offset 24
 1281              		.cfi_offset 10, -24
 1282 0006 2C4C     		ldr	r4, .L81
 1283 0008 A544     		add	sp, sp, r4
 1284              		.cfi_def_cfa_offset 1584
 1285 000a 0700     		movs	r7, r0
 1286 000c 0591     		str	r1, [sp, #20]
 1287 000e 0392     		str	r2, [sp, #12]
 1288 0010 0493     		str	r3, [sp, #16]
 1289 0012 2A4B     		ldr	r3, .L81+4
 1290              	.LVL138:
 1291 0014 04AA     		add	r2, sp, #16
 1292              	.LVL139:
 1293 0016 9446     		mov	ip, r2
 1294 0018 6344     		add	r3, r3, ip
 1295 001a 1C68     		ldr	r4, [r3]
 1296              	.LVL140:
 345:Source\mbedtls_open\library/debug.c ****     char str[DEBUG_BUF_SIZE];
 346:Source\mbedtls_open\library/debug.c ****     int i = 0;
 347:Source\mbedtls_open\library/debug.c **** 
 348:Source\mbedtls_open\library/debug.c ****     if( ssl->conf == NULL || ssl->conf->f_dbg == NULL || crt == NULL || level > debug_threshold )
 1297              		.loc 1 348 0
 1298 001c 0368     		ldr	r3, [r0]
ARM GAS  C:\Users\Phuong\AppData\Local\Temp\ccgxicpz.s 			page 32


 1299 001e 002B     		cmp	r3, #0
 1300 0020 43D0     		beq	.L76
 1301              		.loc 1 348 0 is_stmt 0 discriminator 1
 1302 0022 1B69     		ldr	r3, [r3, #16]
 1303 0024 002B     		cmp	r3, #0
 1304 0026 40D0     		beq	.L76
 1305              		.loc 1 348 0 discriminator 2
 1306 0028 002C     		cmp	r4, #0
 1307 002a 3ED0     		beq	.L76
 1308              		.loc 1 348 0 discriminator 3
 1309 002c 244B     		ldr	r3, .L81+8
 1310 002e 1B68     		ldr	r3, [r3]
 1311 0030 8B42     		cmp	r3, r1
 1312 0032 3ADB     		blt	.L76
 1313 0034 0026     		movs	r6, #0
 1314 0036 36E0     		b	.L78
 1315              	.LVL141:
 1316              	.L79:
 1317              	.LBB51:
 349:Source\mbedtls_open\library/debug.c ****         return;
 350:Source\mbedtls_open\library/debug.c **** 
 351:Source\mbedtls_open\library/debug.c ****     while( crt != NULL )
 352:Source\mbedtls_open\library/debug.c ****     {
 353:Source\mbedtls_open\library/debug.c ****         char buf[1024];
 354:Source\mbedtls_open\library/debug.c **** 
 355:Source\mbedtls_open\library/debug.c ****         mbedtls_snprintf( str, sizeof( str ), "%s #%d:\n", text, ++i );
 1318              		.loc 1 355 0 is_stmt 1
 1319 0038 0136     		adds	r6, r6, #1
 1320              	.LVL142:
 1321 003a FFAB     		add	r3, sp, #1020
 1322 003c 1C33     		adds	r3, r3, #28
 1323 003e 9A46     		mov	r10, r3
 1324 0040 0096     		str	r6, [sp]
 1325 0042 C423     		movs	r3, #196
 1326 0044 DB00     		lsls	r3, r3, #3
 1327 0046 04AA     		add	r2, sp, #16
 1328              	.LVL143:
 1329 0048 9446     		mov	ip, r2
 1330 004a 6344     		add	r3, r3, ip
 1331 004c 1B68     		ldr	r3, [r3]
 1332 004e 1D4A     		ldr	r2, .L81+12
 1333              	.LVL144:
 1334 0050 8021     		movs	r1, #128
 1335 0052 8900     		lsls	r1, r1, #2
 1336 0054 5046     		mov	r0, r10
 1337 0056 FFF7FEFF 		bl	snprintf
 1338              	.LVL145:
 1339              	.LBB52:
 1340              	.LBB53:
  77:Source\mbedtls_open\library/debug.c **** #endif
 1341              		.loc 1 77 0
 1342 005a 3B68     		ldr	r3, [r7]
 1343 005c 1D69     		ldr	r5, [r3, #16]
 1344 005e 5869     		ldr	r0, [r3, #20]
 1345 0060 5346     		mov	r3, r10
 1346 0062 0093     		str	r3, [sp]
 1347 0064 049B     		ldr	r3, [sp, #16]
ARM GAS  C:\Users\Phuong\AppData\Local\Temp\ccgxicpz.s 			page 33


 1348 0066 039A     		ldr	r2, [sp, #12]
 1349 0068 0599     		ldr	r1, [sp, #20]
 1350 006a A847     		blx	r5
 1351              	.LVL146:
 1352              	.LBE53:
 1353              	.LBE52:
 356:Source\mbedtls_open\library/debug.c ****         debug_send_line( ssl, level, file, line, str );
 357:Source\mbedtls_open\library/debug.c **** 
 358:Source\mbedtls_open\library/debug.c ****         mbedtls_x509_crt_info( buf, sizeof( buf ) - 1, "", crt );
 1354              		.loc 1 358 0
 1355 006c 06AD     		add	r5, sp, #24
 1356 006e 2300     		movs	r3, r4
 1357 0070 154A     		ldr	r2, .L81+16
 1358 0072 1649     		ldr	r1, .L81+20
 1359 0074 2800     		movs	r0, r5
 1360 0076 FFF7FEFF 		bl	mbedtls_x509_crt_info
 1361              	.LVL147:
 359:Source\mbedtls_open\library/debug.c ****         debug_print_line_by_line( ssl, level, file, line, buf );
 1362              		.loc 1 359 0
 1363 007a 0095     		str	r5, [sp]
 1364 007c 049B     		ldr	r3, [sp, #16]
 1365 007e 039A     		ldr	r2, [sp, #12]
 1366 0080 059D     		ldr	r5, [sp, #20]
 1367 0082 2900     		movs	r1, r5
 1368 0084 3800     		movs	r0, r7
 1369 0086 FFF7FEFF 		bl	debug_print_line_by_line
 1370              	.LVL148:
 360:Source\mbedtls_open\library/debug.c **** 
 361:Source\mbedtls_open\library/debug.c ****         debug_print_pk( ssl, level, file, line, "crt->", &crt->pk );
 1371              		.loc 1 361 0
 1372 008a 2300     		movs	r3, r4
 1373 008c BC33     		adds	r3, r3, #188
 1374 008e 0193     		str	r3, [sp, #4]
 1375 0090 0F4B     		ldr	r3, .L81+24
 1376 0092 0093     		str	r3, [sp]
 1377 0094 049B     		ldr	r3, [sp, #16]
 1378 0096 039A     		ldr	r2, [sp, #12]
 1379 0098 2900     		movs	r1, r5
 1380 009a 3800     		movs	r0, r7
 1381 009c FFF7FEFF 		bl	debug_print_pk
 1382              	.LVL149:
 362:Source\mbedtls_open\library/debug.c **** 
 363:Source\mbedtls_open\library/debug.c ****         crt = crt->next;
 1383              		.loc 1 363 0
 1384 00a0 9823     		movs	r3, #152
 1385 00a2 5B00     		lsls	r3, r3, #1
 1386 00a4 E458     		ldr	r4, [r4, r3]
 1387              	.LVL150:
 1388              	.L78:
 1389              	.LBE51:
 351:Source\mbedtls_open\library/debug.c ****     {
 1390              		.loc 1 351 0
 1391 00a6 002C     		cmp	r4, #0
 1392 00a8 C6D1     		bne	.L79
 1393              	.LVL151:
 1394              	.L76:
 364:Source\mbedtls_open\library/debug.c ****     }
ARM GAS  C:\Users\Phuong\AppData\Local\Temp\ccgxicpz.s 			page 34


 365:Source\mbedtls_open\library/debug.c **** }
 1395              		.loc 1 365 0
 1396 00aa C323     		movs	r3, #195
 1397 00ac DB00     		lsls	r3, r3, #3
 1398 00ae 9D44     		add	sp, sp, r3
 1399              		@ sp needed
 1400              	.LVL152:
 1401 00b0 04BC     		pop	{r2}
 1402 00b2 9246     		mov	r10, r2
 1403 00b4 F0BD     		pop	{r4, r5, r6, r7, pc}
 1404              	.L82:
 1405 00b6 C046     		.align	2
 1406              	.L81:
 1407 00b8 E8F9FFFF 		.word	-1560
 1408 00bc 24060000 		.word	1572
 1409 00c0 00000000 		.word	.LANCHOR0
 1410 00c4 BC000000 		.word	.LC36
 1411 00c8 C8000000 		.word	.LC38
 1412 00cc FF030000 		.word	1023
 1413 00d0 CC000000 		.word	.LC40
 1414              		.cfi_endproc
 1415              	.LFE27:
 1416              		.size	mbedtls_debug_print_crt, .-mbedtls_debug_print_crt
 1417              		.section	.rodata.str1.4,"aMS",%progbits,1
 1418              		.align	2
 1419              	.LC3:
 1420 0000 25732829 		.ascii	"%s() returned %d (-0x%04x)\012\000"
 1420      20726574 
 1420      75726E65 
 1420      64202564 
 1420      20282D30 
 1421              	.LC6:
 1422 001c 64756D70 		.ascii	"dumping '%s' (%u bytes)\012\000"
 1422      696E6720 
 1422      27257327 
 1422      20282575 
 1422      20627974 
 1423 0035 000000   		.space	3
 1424              	.LC8:
 1425 0038 20202573 		.ascii	"  %s\012\000"
 1425      0A00
 1426 003e 0000     		.space	2
 1427              	.LC10:
 1428 0040 25303478 		.ascii	"%04x: \000"
 1428      3A2000
 1429 0047 00       		.space	1
 1430              	.LC12:
 1431 0048 20253032 		.ascii	" %02x\000"
 1431      7800
 1432 004e 0000     		.space	2
 1433              	.LC14:
 1434 0050 20202000 		.ascii	"   \000"
 1435              	.LC17:
 1436 0054 76616C75 		.ascii	"value of '%s' (%d bits) is:\012\000"
 1436      65206F66 
 1436      20272573 
 1436      27202825 
ARM GAS  C:\Users\Phuong\AppData\Local\Temp\ccgxicpz.s 			page 35


 1436      64206269 
 1437 0071 000000   		.space	3
 1438              	.LC19:
 1439 0074 0A00     		.ascii	"\012\000"
 1440 0076 0000     		.space	2
 1441              	.LC22:
 1442 0078 20303000 		.ascii	" 00\000"
 1443              	.LC25:
 1444 007c 25732858 		.ascii	"%s(X)\000"
 1444      2900
 1445 0082 0000     		.space	2
 1446              	.LC27:
 1447 0084 25732859 		.ascii	"%s(Y)\000"
 1447      2900
 1448 008a 0000     		.space	2
 1449              	.LC29:
 1450 008c 696E7661 		.ascii	"invalid PK context\012\000"
 1450      6C696420 
 1450      504B2063 
 1450      6F6E7465 
 1450      78740A00 
 1451              	.LC31:
 1452 00a0 25732573 		.ascii	"%s%s\000"
 1452      00
 1453 00a5 000000   		.space	3
 1454              	.LC33:
 1455 00a8 73686F75 		.ascii	"should not happen\012\000"
 1455      6C64206E 
 1455      6F742068 
 1455      61707065 
 1455      6E0A00
 1456 00bb 00       		.space	1
 1457              	.LC36:
 1458 00bc 25732023 		.ascii	"%s #%d:\012\000"
 1458      25643A0A 
 1458      00
 1459 00c5 000000   		.space	3
 1460              	.LC38:
 1461 00c8 00       		.ascii	"\000"
 1462 00c9 000000   		.space	3
 1463              	.LC40:
 1464 00cc 6372742D 		.ascii	"crt->\000"
 1464      3E00
 1465              		.bss
 1466              		.align	2
 1467              		.set	.LANCHOR0,. + 0
 1468              		.type	debug_threshold, %object
 1469              		.size	debug_threshold, 4
 1470              	debug_threshold:
 1471 0000 00000000 		.space	4
 1472              		.text
 1473              	.Letext0:
 1474              		.file 2 "c:\\program files (x86)\\cypress\\psoc creator\\4.2\\psoc creator\\import\\gnu\\arm\\5.4.
 1475              		.file 3 "c:\\program files (x86)\\cypress\\psoc creator\\4.2\\psoc creator\\import\\gnu\\arm\\5.4.
 1476              		.file 4 "c:\\program files (x86)\\cypress\\psoc creator\\4.2\\psoc creator\\import\\gnu\\arm\\5.4.
 1477              		.file 5 "c:\\program files (x86)\\cypress\\psoc creator\\4.2\\psoc creator\\import\\gnu\\arm\\5.4.
 1478              		.file 6 ".\\Source\\mbedtls_open\\include/mbedtls/bignum.h"
ARM GAS  C:\Users\Phuong\AppData\Local\Temp\ccgxicpz.s 			page 36


 1479              		.file 7 "<built-in>"
 1480              		.file 8 ".\\Source\\mbedtls_open\\include/mbedtls/ecp.h"
 1481              		.file 9 ".\\Source\\mbedtls_open\\include/mbedtls/md.h"
 1482              		.file 10 ".\\Source\\mbedtls_open\\include/mbedtls/pk.h"
 1483              		.file 11 ".\\Source\\mbedtls_open\\include/mbedtls/asn1.h"
 1484              		.file 12 ".\\Source\\mbedtls_open\\include/mbedtls/x509.h"
 1485              		.file 13 ".\\Source\\mbedtls_open\\include/mbedtls/x509_crl.h"
 1486              		.file 14 ".\\Source\\mbedtls_open\\include/mbedtls/x509_crt.h"
 1487              		.file 15 ".\\Source\\mbedtls_open\\include/mbedtls/ssl.h"
 1488              		.file 16 "c:\\program files (x86)\\cypress\\psoc creator\\4.2\\psoc creator\\import\\gnu\\arm\\5.4