ARM GAS  C:\Users\Phuong\AppData\Local\Temp\ccpva0DN.s 			page 1


   1              		.syntax unified
   2              		.cpu cortex-m0plus
   3              		.fpu softvfp
   4              		.eabi_attribute 20, 1
   5              		.eabi_attribute 21, 1
   6              		.eabi_attribute 23, 3
   7              		.eabi_attribute 24, 1
   8              		.eabi_attribute 25, 1
   9              		.eabi_attribute 26, 1
  10              		.eabi_attribute 30, 1
  11              		.eabi_attribute 34, 0
  12              		.eabi_attribute 18, 4
  13              		.thumb
  14              		.syntax unified
  15              		.file	"def.c"
  16              		.text
  17              	.Ltext0:
  18              		.cfi_sections	.debug_frame
  19              		.section	.text.lwip_htons,"ax",%progbits
  20              		.align	2
  21              		.global	lwip_htons
  22              		.code	16
  23              		.thumb_func
  24              		.type	lwip_htons, %function
  25              	lwip_htons:
  26              	.LFB53:
  27              		.file 1 "Source\\LwIP\\src\\core\\def.c"
   1:Source\LwIP\src\core/def.c **** /**
   2:Source\LwIP\src\core/def.c ****  * @file
   3:Source\LwIP\src\core/def.c ****  * Common functions used throughout the stack.
   4:Source\LwIP\src\core/def.c ****  *
   5:Source\LwIP\src\core/def.c ****  * These are reference implementations of the byte swapping functions.
   6:Source\LwIP\src\core/def.c ****  * Again with the aim of being simple, correct and fully portable.
   7:Source\LwIP\src\core/def.c ****  * Byte swapping is the second thing you would want to optimize. You will
   8:Source\LwIP\src\core/def.c ****  * need to port it to your architecture and in your cc.h:
   9:Source\LwIP\src\core/def.c ****  *
  10:Source\LwIP\src\core/def.c ****  * \#define lwip_htons(x) your_htons
  11:Source\LwIP\src\core/def.c ****  * \#define lwip_htonl(x) your_htonl
  12:Source\LwIP\src\core/def.c ****  *
  13:Source\LwIP\src\core/def.c ****  * Note lwip_ntohs() and lwip_ntohl() are merely references to the htonx counterparts.
  14:Source\LwIP\src\core/def.c ****  * 
  15:Source\LwIP\src\core/def.c ****  * If you \#define them to htons() and htonl(), you should
  16:Source\LwIP\src\core/def.c ****  * \#define LWIP_DONT_PROVIDE_BYTEORDER_FUNCTIONS to prevent lwIP from
  17:Source\LwIP\src\core/def.c ****  * defining htonx/ntohx compatibility macros.
  18:Source\LwIP\src\core/def.c **** 
  19:Source\LwIP\src\core/def.c ****  * @defgroup sys_nonstandard Non-standard functions
  20:Source\LwIP\src\core/def.c ****  * @ingroup sys_layer
  21:Source\LwIP\src\core/def.c ****  * lwIP provides default implementations for non-standard functions.
  22:Source\LwIP\src\core/def.c ****  * These can be mapped to OS functions to reduce code footprint if desired.
  23:Source\LwIP\src\core/def.c ****  * All defines related to this section must not be placed in lwipopts.h,
  24:Source\LwIP\src\core/def.c ****  * but in arch/cc.h!
  25:Source\LwIP\src\core/def.c ****  * These options cannot be \#defined in lwipopts.h since they are not options
  26:Source\LwIP\src\core/def.c ****  * of lwIP itself, but options of the lwIP port to your system.
  27:Source\LwIP\src\core/def.c ****  */
  28:Source\LwIP\src\core/def.c **** 
  29:Source\LwIP\src\core/def.c **** /*
  30:Source\LwIP\src\core/def.c ****  * Copyright (c) 2001-2004 Swedish Institute of Computer Science.
ARM GAS  C:\Users\Phuong\AppData\Local\Temp\ccpva0DN.s 			page 2


  31:Source\LwIP\src\core/def.c ****  * All rights reserved.
  32:Source\LwIP\src\core/def.c ****  *
  33:Source\LwIP\src\core/def.c ****  * Redistribution and use in source and binary forms, with or without modification,
  34:Source\LwIP\src\core/def.c ****  * are permitted provided that the following conditions are met:
  35:Source\LwIP\src\core/def.c ****  *
  36:Source\LwIP\src\core/def.c ****  * 1. Redistributions of source code must retain the above copyright notice,
  37:Source\LwIP\src\core/def.c ****  *    this list of conditions and the following disclaimer.
  38:Source\LwIP\src\core/def.c ****  * 2. Redistributions in binary form must reproduce the above copyright notice,
  39:Source\LwIP\src\core/def.c ****  *    this list of conditions and the following disclaimer in the documentation
  40:Source\LwIP\src\core/def.c ****  *    and/or other materials provided with the distribution.
  41:Source\LwIP\src\core/def.c ****  * 3. The name of the author may not be used to endorse or promote products
  42:Source\LwIP\src\core/def.c ****  *    derived from this software without specific prior written permission.
  43:Source\LwIP\src\core/def.c ****  *
  44:Source\LwIP\src\core/def.c ****  * THIS SOFTWARE IS PROVIDED BY THE AUTHOR ``AS IS'' AND ANY EXPRESS OR IMPLIED
  45:Source\LwIP\src\core/def.c ****  * WARRANTIES, INCLUDING, BUT NOT LIMITED TO, THE IMPLIED WARRANTIES OF
  46:Source\LwIP\src\core/def.c ****  * MERCHANTABILITY AND FITNESS FOR A PARTICULAR PURPOSE ARE DISCLAIMED. IN NO EVENT
  47:Source\LwIP\src\core/def.c ****  * SHALL THE AUTHOR BE LIABLE FOR ANY DIRECT, INDIRECT, INCIDENTAL, SPECIAL,
  48:Source\LwIP\src\core/def.c ****  * EXEMPLARY, OR CONSEQUENTIAL DAMAGES (INCLUDING, BUT NOT LIMITED TO, PROCUREMENT
  49:Source\LwIP\src\core/def.c ****  * OF SUBSTITUTE GOODS OR SERVICES; LOSS OF USE, DATA, OR PROFITS; OR BUSINESS
  50:Source\LwIP\src\core/def.c ****  * INTERRUPTION) HOWEVER CAUSED AND ON ANY THEORY OF LIABILITY, WHETHER IN
  51:Source\LwIP\src\core/def.c ****  * CONTRACT, STRICT LIABILITY, OR TORT (INCLUDING NEGLIGENCE OR OTHERWISE) ARISING
  52:Source\LwIP\src\core/def.c ****  * IN ANY WAY OUT OF THE USE OF THIS SOFTWARE, EVEN IF ADVISED OF THE POSSIBILITY
  53:Source\LwIP\src\core/def.c ****  * OF SUCH DAMAGE.
  54:Source\LwIP\src\core/def.c ****  *
  55:Source\LwIP\src\core/def.c ****  * This file is part of the lwIP TCP/IP stack.
  56:Source\LwIP\src\core/def.c ****  *
  57:Source\LwIP\src\core/def.c ****  * Author: Simon Goldschmidt
  58:Source\LwIP\src\core/def.c ****  *
  59:Source\LwIP\src\core/def.c ****  */
  60:Source\LwIP\src\core/def.c **** 
  61:Source\LwIP\src\core/def.c **** #include "lwip/opt.h"
  62:Source\LwIP\src\core/def.c **** #include "lwip/def.h"
  63:Source\LwIP\src\core/def.c **** 
  64:Source\LwIP\src\core/def.c **** #include <string.h>
  65:Source\LwIP\src\core/def.c **** 
  66:Source\LwIP\src\core/def.c **** #if BYTE_ORDER == LITTLE_ENDIAN
  67:Source\LwIP\src\core/def.c **** 
  68:Source\LwIP\src\core/def.c **** #if !defined(lwip_htons)
  69:Source\LwIP\src\core/def.c **** /**
  70:Source\LwIP\src\core/def.c ****  * Convert an u16_t from host- to network byte order.
  71:Source\LwIP\src\core/def.c ****  *
  72:Source\LwIP\src\core/def.c ****  * @param n u16_t in host byte order
  73:Source\LwIP\src\core/def.c ****  * @return n in network byte order
  74:Source\LwIP\src\core/def.c ****  */
  75:Source\LwIP\src\core/def.c **** u16_t
  76:Source\LwIP\src\core/def.c **** lwip_htons(u16_t n)
  77:Source\LwIP\src\core/def.c **** {
  28              		.loc 1 77 0
  29              		.cfi_startproc
  30              		@ args = 0, pretend = 0, frame = 0
  31              		@ frame_needed = 0, uses_anonymous_args = 0
  32              		@ link register save eliminated.
  33              	.LVL0:
  78:Source\LwIP\src\core/def.c ****   return (u16_t)PP_HTONS(n);
  34              		.loc 1 78 0
  35 0000 40BA     		rev16	r0, r0
  36              	.LVL1:
ARM GAS  C:\Users\Phuong\AppData\Local\Temp\ccpva0DN.s 			page 3


  37 0002 80B2     		uxth	r0, r0
  79:Source\LwIP\src\core/def.c **** }
  38              		.loc 1 79 0
  39              		@ sp needed
  40 0004 7047     		bx	lr
  41              		.cfi_endproc
  42              	.LFE53:
  43              		.size	lwip_htons, .-lwip_htons
  44              		.section	.text.lwip_htonl,"ax",%progbits
  45              		.align	2
  46              		.global	lwip_htonl
  47              		.code	16
  48              		.thumb_func
  49              		.type	lwip_htonl, %function
  50              	lwip_htonl:
  51              	.LFB54:
  80:Source\LwIP\src\core/def.c **** #endif /* lwip_htons */
  81:Source\LwIP\src\core/def.c **** 
  82:Source\LwIP\src\core/def.c **** #if !defined(lwip_htonl)
  83:Source\LwIP\src\core/def.c **** /**
  84:Source\LwIP\src\core/def.c ****  * Convert an u32_t from host- to network byte order.
  85:Source\LwIP\src\core/def.c ****  *
  86:Source\LwIP\src\core/def.c ****  * @param n u32_t in host byte order
  87:Source\LwIP\src\core/def.c ****  * @return n in network byte order
  88:Source\LwIP\src\core/def.c ****  */
  89:Source\LwIP\src\core/def.c **** u32_t
  90:Source\LwIP\src\core/def.c **** lwip_htonl(u32_t n)
  91:Source\LwIP\src\core/def.c **** {
  52              		.loc 1 91 0
  53              		.cfi_startproc
  54              		@ args = 0, pretend = 0, frame = 0
  55              		@ frame_needed = 0, uses_anonymous_args = 0
  56              	.LVL2:
  57 0000 10B5     		push	{r4, lr}
  58              		.cfi_def_cfa_offset 8
  59              		.cfi_offset 4, -8
  60              		.cfi_offset 14, -4
  92:Source\LwIP\src\core/def.c ****   return (u32_t)PP_HTONL(n);
  61              		.loc 1 92 0
  62 0002 0406     		lsls	r4, r0, #24
  63 0004 0302     		lsls	r3, r0, #8
  64 0006 FF22     		movs	r2, #255
  65 0008 1204     		lsls	r2, r2, #16
  66 000a 1340     		ands	r3, r2
  67 000c 2100     		movs	r1, r4
  68 000e 1943     		orrs	r1, r3
  69 0010 030A     		lsrs	r3, r0, #8
  70 0012 FF22     		movs	r2, #255
  71 0014 1202     		lsls	r2, r2, #8
  72 0016 1A40     		ands	r2, r3
  73 0018 0B00     		movs	r3, r1
  74 001a 1343     		orrs	r3, r2
  75 001c 000E     		lsrs	r0, r0, #24
  76              	.LVL3:
  77 001e 1843     		orrs	r0, r3
  93:Source\LwIP\src\core/def.c **** }
  78              		.loc 1 93 0
ARM GAS  C:\Users\Phuong\AppData\Local\Temp\ccpva0DN.s 			page 4


  79              		@ sp needed
  80 0020 10BD     		pop	{r4, pc}
  81              		.cfi_endproc
  82              	.LFE54:
  83              		.size	lwip_htonl, .-lwip_htonl
  84 0022 C046     		.section	.text.lwip_strnstr,"ax",%progbits
  85              		.align	2
  86              		.global	lwip_strnstr
  87              		.code	16
  88              		.thumb_func
  89              		.type	lwip_strnstr, %function
  90              	lwip_strnstr:
  91              	.LFB55:
  94:Source\LwIP\src\core/def.c **** #endif /* lwip_htonl */
  95:Source\LwIP\src\core/def.c **** 
  96:Source\LwIP\src\core/def.c **** #endif /* BYTE_ORDER == LITTLE_ENDIAN */
  97:Source\LwIP\src\core/def.c **** 
  98:Source\LwIP\src\core/def.c **** #ifndef lwip_strnstr
  99:Source\LwIP\src\core/def.c **** /**
 100:Source\LwIP\src\core/def.c ****  * @ingroup sys_nonstandard
 101:Source\LwIP\src\core/def.c ****  * lwIP default implementation for strnstr() non-standard function.
 102:Source\LwIP\src\core/def.c ****  * This can be \#defined to strnstr() depending on your platform port.
 103:Source\LwIP\src\core/def.c ****  */
 104:Source\LwIP\src\core/def.c **** char*
 105:Source\LwIP\src\core/def.c **** lwip_strnstr(const char* buffer, const char* token, size_t n)
 106:Source\LwIP\src\core/def.c **** {
  92              		.loc 1 106 0
  93              		.cfi_startproc
  94              		@ args = 0, pretend = 0, frame = 0
  95              		@ frame_needed = 0, uses_anonymous_args = 0
  96              	.LVL4:
  97 0000 F0B5     		push	{r4, r5, r6, r7, lr}
  98              		.cfi_def_cfa_offset 20
  99              		.cfi_offset 4, -20
 100              		.cfi_offset 5, -16
 101              		.cfi_offset 6, -12
 102              		.cfi_offset 7, -8
 103              		.cfi_offset 14, -4
 104 0002 4746     		mov	r7, r8
 105 0004 80B4     		push	{r7}
 106              		.cfi_def_cfa_offset 24
 107              		.cfi_offset 8, -24
 108 0006 0700     		movs	r7, r0
 109 0008 0E00     		movs	r6, r1
 110 000a 9046     		mov	r8, r2
 107:Source\LwIP\src\core/def.c ****   const char* p;
 108:Source\LwIP\src\core/def.c ****   size_t tokenlen = strlen(token);
 111              		.loc 1 108 0
 112 000c 0800     		movs	r0, r1
 113              	.LVL5:
 114 000e FFF7FEFF 		bl	strlen
 115              	.LVL6:
 116 0012 051E     		subs	r5, r0, #0
 117              	.LVL7:
 109:Source\LwIP\src\core/def.c ****   if (tokenlen == 0) {
 118              		.loc 1 109 0
 119 0014 16D0     		beq	.L8
ARM GAS  C:\Users\Phuong\AppData\Local\Temp\ccpva0DN.s 			page 5


 120 0016 3C00     		movs	r4, r7
 121 0018 0AE0     		b	.L5
 122              	.LVL8:
 123              	.L7:
 110:Source\LwIP\src\core/def.c ****     return LWIP_CONST_CAST(char *, buffer);
 111:Source\LwIP\src\core/def.c ****   }
 112:Source\LwIP\src\core/def.c ****   for (p = buffer; *p && (p + tokenlen <= buffer + n); p++) {
 113:Source\LwIP\src\core/def.c ****     if ((*p == *token) && (strncmp(p, token, tokenlen) == 0)) {
 124              		.loc 1 113 0
 125 001a 3378     		ldrb	r3, [r6]
 126 001c 9A42     		cmp	r2, r3
 127 001e 06D1     		bne	.L6
 128              		.loc 1 113 0 is_stmt 0 discriminator 1
 129 0020 2A00     		movs	r2, r5
 130 0022 3100     		movs	r1, r6
 131 0024 2000     		movs	r0, r4
 132 0026 FFF7FEFF 		bl	strncmp
 133              	.LVL9:
 134 002a 0028     		cmp	r0, #0
 135 002c 0CD0     		beq	.L9
 136              	.L6:
 112:Source\LwIP\src\core/def.c ****     if ((*p == *token) && (strncmp(p, token, tokenlen) == 0)) {
 137              		.loc 1 112 0 is_stmt 1 discriminator 2
 138 002e 0134     		adds	r4, r4, #1
 139              	.LVL10:
 140              	.L5:
 112:Source\LwIP\src\core/def.c ****     if ((*p == *token) && (strncmp(p, token, tokenlen) == 0)) {
 141              		.loc 1 112 0 is_stmt 0 discriminator 1
 142 0030 2278     		ldrb	r2, [r4]
 143 0032 002A     		cmp	r2, #0
 144 0034 0AD0     		beq	.L10
 112:Source\LwIP\src\core/def.c ****     if ((*p == *token) && (strncmp(p, token, tokenlen) == 0)) {
 145              		.loc 1 112 0 discriminator 3
 146 0036 6319     		adds	r3, r4, r5
 147 0038 4146     		mov	r1, r8
 148 003a 7918     		adds	r1, r7, r1
 149 003c 8B42     		cmp	r3, r1
 150 003e ECD9     		bls	.L7
 114:Source\LwIP\src\core/def.c ****       return LWIP_CONST_CAST(char *, p);
 115:Source\LwIP\src\core/def.c ****     }
 116:Source\LwIP\src\core/def.c ****   }
 117:Source\LwIP\src\core/def.c ****   return NULL;
 151              		.loc 1 117 0 is_stmt 1
 152 0040 0020     		movs	r0, #0
 153 0042 04E0     		b	.L4
 154              	.LVL11:
 155              	.L8:
 110:Source\LwIP\src\core/def.c ****   }
 156              		.loc 1 110 0
 157 0044 3800     		movs	r0, r7
 158              	.LVL12:
 159 0046 02E0     		b	.L4
 160              	.LVL13:
 161              	.L9:
 114:Source\LwIP\src\core/def.c ****       return LWIP_CONST_CAST(char *, p);
 162              		.loc 1 114 0
 163 0048 2000     		movs	r0, r4
ARM GAS  C:\Users\Phuong\AppData\Local\Temp\ccpva0DN.s 			page 6


 164 004a 00E0     		b	.L4
 165              	.L10:
 166              		.loc 1 117 0
 167 004c 0020     		movs	r0, #0
 168              	.LVL14:
 169              	.L4:
 118:Source\LwIP\src\core/def.c **** }
 170              		.loc 1 118 0
 171              		@ sp needed
 172              	.LVL15:
 173              	.LVL16:
 174              	.LVL17:
 175              	.LVL18:
 176 004e 04BC     		pop	{r2}
 177 0050 9046     		mov	r8, r2
 178 0052 F0BD     		pop	{r4, r5, r6, r7, pc}
 179              		.cfi_endproc
 180              	.LFE55:
 181              		.size	lwip_strnstr, .-lwip_strnstr
 182              		.section	.text.lwip_stricmp,"ax",%progbits
 183              		.align	2
 184              		.global	lwip_stricmp
 185              		.code	16
 186              		.thumb_func
 187              		.type	lwip_stricmp, %function
 188              	lwip_stricmp:
 189              	.LFB56:
 119:Source\LwIP\src\core/def.c **** #endif
 120:Source\LwIP\src\core/def.c **** 
 121:Source\LwIP\src\core/def.c **** #ifndef lwip_stricmp
 122:Source\LwIP\src\core/def.c **** /**
 123:Source\LwIP\src\core/def.c ****  * @ingroup sys_nonstandard
 124:Source\LwIP\src\core/def.c ****  * lwIP default implementation for stricmp() non-standard function.
 125:Source\LwIP\src\core/def.c ****  * This can be \#defined to stricmp() depending on your platform port.
 126:Source\LwIP\src\core/def.c ****  */
 127:Source\LwIP\src\core/def.c **** int
 128:Source\LwIP\src\core/def.c **** lwip_stricmp(const char* str1, const char* str2)
 129:Source\LwIP\src\core/def.c **** {
 190              		.loc 1 129 0
 191              		.cfi_startproc
 192              		@ args = 0, pretend = 0, frame = 0
 193              		@ frame_needed = 0, uses_anonymous_args = 0
 194              	.LVL19:
 195 0000 70B5     		push	{r4, r5, r6, lr}
 196              		.cfi_def_cfa_offset 16
 197              		.cfi_offset 4, -16
 198              		.cfi_offset 5, -12
 199              		.cfi_offset 6, -8
 200              		.cfi_offset 14, -4
 201              	.L14:
 130:Source\LwIP\src\core/def.c ****   char c1, c2;
 131:Source\LwIP\src\core/def.c **** 
 132:Source\LwIP\src\core/def.c ****   do {
 133:Source\LwIP\src\core/def.c ****     c1 = *str1++;
 202              		.loc 1 133 0
 203 0002 461C     		adds	r6, r0, #1
 204              	.LVL20:
ARM GAS  C:\Users\Phuong\AppData\Local\Temp\ccpva0DN.s 			page 7


 205 0004 0478     		ldrb	r4, [r0]
 206              	.LVL21:
 134:Source\LwIP\src\core/def.c ****     c2 = *str2++;
 207              		.loc 1 134 0
 208 0006 4D1C     		adds	r5, r1, #1
 209              	.LVL22:
 210 0008 0878     		ldrb	r0, [r1]
 211              	.LVL23:
 135:Source\LwIP\src\core/def.c ****     if (c1 != c2) {
 212              		.loc 1 135 0
 213 000a 8442     		cmp	r4, r0
 214 000c 0CD0     		beq	.L12
 215              	.LBB2:
 136:Source\LwIP\src\core/def.c ****       char c1_upc = c1 | 0x20;
 216              		.loc 1 136 0
 217 000e 2023     		movs	r3, #32
 218 0010 2343     		orrs	r3, r4
 219 0012 DBB2     		uxtb	r3, r3
 220              	.LVL24:
 137:Source\LwIP\src\core/def.c ****       if ((c1_upc >= 'a') && (c1_upc <= 'z')) {
 221              		.loc 1 137 0
 222 0014 1900     		movs	r1, r3
 223 0016 6139     		subs	r1, r1, #97
 224 0018 C9B2     		uxtb	r1, r1
 225 001a 1929     		cmp	r1, #25
 226 001c 0AD8     		bhi	.L15
 227              	.LBB3:
 138:Source\LwIP\src\core/def.c ****         /* characters are not equal an one is in the alphabet range:
 139:Source\LwIP\src\core/def.c ****         downcase both chars and check again */
 140:Source\LwIP\src\core/def.c ****         char c2_upc = c2 | 0x20;
 228              		.loc 1 140 0
 229 001e 2022     		movs	r2, #32
 230 0020 0243     		orrs	r2, r0
 231 0022 D2B2     		uxtb	r2, r2
 232              	.LVL25:
 141:Source\LwIP\src\core/def.c ****         if (c1_upc != c2_upc) {
 233              		.loc 1 141 0
 234 0024 9342     		cmp	r3, r2
 235 0026 07D1     		bne	.L16
 236              	.LVL26:
 237              	.L12:
 238              	.LBE3:
 239              	.LBE2:
 133:Source\LwIP\src\core/def.c ****     c2 = *str2++;
 240              		.loc 1 133 0
 241 0028 3000     		movs	r0, r6
 242              	.LVL27:
 134:Source\LwIP\src\core/def.c ****     if (c1 != c2) {
 243              		.loc 1 134 0
 244 002a 2900     		movs	r1, r5
 142:Source\LwIP\src\core/def.c ****           /* still not equal */
 143:Source\LwIP\src\core/def.c ****           /* don't care for < or > */
 144:Source\LwIP\src\core/def.c ****           return 1;
 145:Source\LwIP\src\core/def.c ****         }
 146:Source\LwIP\src\core/def.c ****       } else {
 147:Source\LwIP\src\core/def.c ****         /* characters are not equal but none is in the alphabet range */
 148:Source\LwIP\src\core/def.c ****         return 1;
ARM GAS  C:\Users\Phuong\AppData\Local\Temp\ccpva0DN.s 			page 8


 149:Source\LwIP\src\core/def.c ****       }
 150:Source\LwIP\src\core/def.c ****     }
 151:Source\LwIP\src\core/def.c ****   } while (c1 != 0);
 245              		.loc 1 151 0
 246 002c 002C     		cmp	r4, #0
 247 002e E8D1     		bne	.L14
 248              	.LVL28:
 152:Source\LwIP\src\core/def.c ****   return 0;
 249              		.loc 1 152 0
 250 0030 0020     		movs	r0, #0
 251              	.LVL29:
 252 0032 02E0     		b	.L13
 253              	.LVL30:
 254              	.L15:
 255              	.LBB5:
 148:Source\LwIP\src\core/def.c ****       }
 256              		.loc 1 148 0
 257 0034 0120     		movs	r0, #1
 258              	.LVL31:
 259 0036 00E0     		b	.L13
 260              	.LVL32:
 261              	.L16:
 262              	.LBB4:
 144:Source\LwIP\src\core/def.c ****         }
 263              		.loc 1 144 0
 264 0038 0120     		movs	r0, #1
 265              	.LVL33:
 266              	.L13:
 267              	.LBE4:
 268              	.LBE5:
 153:Source\LwIP\src\core/def.c **** }
 269              		.loc 1 153 0
 270              		@ sp needed
 271              	.LVL34:
 272              	.LVL35:
 273              	.LVL36:
 274 003a 70BD     		pop	{r4, r5, r6, pc}
 275              		.cfi_endproc
 276              	.LFE56:
 277              		.size	lwip_stricmp, .-lwip_stricmp
 278              		.section	.text.lwip_strnicmp,"ax",%progbits
 279              		.align	2
 280              		.global	lwip_strnicmp
 281              		.code	16
 282              		.thumb_func
 283              		.type	lwip_strnicmp, %function
 284              	lwip_strnicmp:
 285              	.LFB57:
 154:Source\LwIP\src\core/def.c **** #endif
 155:Source\LwIP\src\core/def.c **** 
 156:Source\LwIP\src\core/def.c **** #ifndef lwip_strnicmp
 157:Source\LwIP\src\core/def.c **** /**
 158:Source\LwIP\src\core/def.c ****  * @ingroup sys_nonstandard
 159:Source\LwIP\src\core/def.c ****  * lwIP default implementation for strnicmp() non-standard function.
 160:Source\LwIP\src\core/def.c ****  * This can be \#defined to strnicmp() depending on your platform port.
 161:Source\LwIP\src\core/def.c ****  */
 162:Source\LwIP\src\core/def.c **** int
ARM GAS  C:\Users\Phuong\AppData\Local\Temp\ccpva0DN.s 			page 9


 163:Source\LwIP\src\core/def.c **** lwip_strnicmp(const char* str1, const char* str2, size_t len)
 164:Source\LwIP\src\core/def.c **** {
 286              		.loc 1 164 0
 287              		.cfi_startproc
 288              		@ args = 0, pretend = 0, frame = 0
 289              		@ frame_needed = 0, uses_anonymous_args = 0
 290              	.LVL37:
 291 0000 F0B5     		push	{r4, r5, r6, r7, lr}
 292              		.cfi_def_cfa_offset 20
 293              		.cfi_offset 4, -20
 294              		.cfi_offset 5, -16
 295              		.cfi_offset 6, -12
 296              		.cfi_offset 7, -8
 297              		.cfi_offset 14, -4
 298 0002 00E0     		b	.L20
 299              	.LVL38:
 300              	.L24:
 165:Source\LwIP\src\core/def.c ****   char c1, c2;
 166:Source\LwIP\src\core/def.c **** 
 167:Source\LwIP\src\core/def.c ****   do {
 168:Source\LwIP\src\core/def.c ****     c1 = *str1++;
 169:Source\LwIP\src\core/def.c ****     c2 = *str2++;
 170:Source\LwIP\src\core/def.c ****     if (c1 != c2) {
 171:Source\LwIP\src\core/def.c ****       char c1_upc = c1 | 0x20;
 172:Source\LwIP\src\core/def.c ****       if ((c1_upc >= 'a') && (c1_upc <= 'z')) {
 173:Source\LwIP\src\core/def.c ****         /* characters are not equal an one is in the alphabet range:
 174:Source\LwIP\src\core/def.c ****         downcase both chars and check again */
 175:Source\LwIP\src\core/def.c ****         char c2_upc = c2 | 0x20;
 176:Source\LwIP\src\core/def.c ****         if (c1_upc != c2_upc) {
 177:Source\LwIP\src\core/def.c ****           /* still not equal */
 178:Source\LwIP\src\core/def.c ****           /* don't care for < or > */
 179:Source\LwIP\src\core/def.c ****           return 1;
 180:Source\LwIP\src\core/def.c ****         }
 181:Source\LwIP\src\core/def.c ****       } else {
 182:Source\LwIP\src\core/def.c ****         /* characters are not equal but none is in the alphabet range */
 183:Source\LwIP\src\core/def.c ****         return 1;
 184:Source\LwIP\src\core/def.c ****       }
 185:Source\LwIP\src\core/def.c ****     }
 186:Source\LwIP\src\core/def.c ****   } while (len-- && c1 != 0);
 301              		.loc 1 186 0
 302 0004 1A00     		movs	r2, r3
 303              	.LVL39:
 304              	.L20:
 168:Source\LwIP\src\core/def.c ****     c2 = *str2++;
 305              		.loc 1 168 0
 306 0006 461C     		adds	r6, r0, #1
 307              	.LVL40:
 308 0008 0478     		ldrb	r4, [r0]
 309              	.LVL41:
 169:Source\LwIP\src\core/def.c ****     if (c1 != c2) {
 310              		.loc 1 169 0
 311 000a 4D1C     		adds	r5, r1, #1
 312              	.LVL42:
 313 000c 0F78     		ldrb	r7, [r1]
 314              	.LVL43:
 170:Source\LwIP\src\core/def.c ****       char c1_upc = c1 | 0x20;
 315              		.loc 1 170 0
ARM GAS  C:\Users\Phuong\AppData\Local\Temp\ccpva0DN.s 			page 10


 316 000e BC42     		cmp	r4, r7
 317 0010 0CD0     		beq	.L18
 318              	.LBB6:
 171:Source\LwIP\src\core/def.c ****       if ((c1_upc >= 'a') && (c1_upc <= 'z')) {
 319              		.loc 1 171 0
 320 0012 2023     		movs	r3, #32
 321 0014 2343     		orrs	r3, r4
 322 0016 DBB2     		uxtb	r3, r3
 323              	.LVL44:
 172:Source\LwIP\src\core/def.c ****         /* characters are not equal an one is in the alphabet range:
 324              		.loc 1 172 0
 325 0018 1800     		movs	r0, r3
 326 001a 6138     		subs	r0, r0, #97
 327 001c C0B2     		uxtb	r0, r0
 328 001e 1928     		cmp	r0, #25
 329 0020 0DD8     		bhi	.L21
 330              	.LBB7:
 175:Source\LwIP\src\core/def.c ****         if (c1_upc != c2_upc) {
 331              		.loc 1 175 0
 332 0022 2021     		movs	r1, #32
 333 0024 3943     		orrs	r1, r7
 334 0026 C9B2     		uxtb	r1, r1
 335              	.LVL45:
 176:Source\LwIP\src\core/def.c ****           /* still not equal */
 336              		.loc 1 176 0
 337 0028 8B42     		cmp	r3, r1
 338 002a 0AD1     		bne	.L22
 339              	.LVL46:
 340              	.L18:
 341              	.LBE7:
 342              	.LBE6:
 343              		.loc 1 186 0
 344 002c 531E     		subs	r3, r2, #1
 345              	.LVL47:
 346 002e 002A     		cmp	r2, #0
 347 0030 09D0     		beq	.L23
 168:Source\LwIP\src\core/def.c ****     c2 = *str2++;
 348              		.loc 1 168 0 discriminator 1
 349 0032 3000     		movs	r0, r6
 169:Source\LwIP\src\core/def.c ****     if (c1 != c2) {
 350              		.loc 1 169 0 discriminator 1
 351 0034 2900     		movs	r1, r5
 352              		.loc 1 186 0 discriminator 1
 353 0036 002C     		cmp	r4, #0
 354 0038 E4D1     		bne	.L24
 355              	.LVL48:
 187:Source\LwIP\src\core/def.c ****   return 0;
 356              		.loc 1 187 0
 357 003a 0020     		movs	r0, #0
 358              	.LVL49:
 359 003c 04E0     		b	.L19
 360              	.LVL50:
 361              	.L21:
 362              	.LBB9:
 183:Source\LwIP\src\core/def.c ****       }
 363              		.loc 1 183 0
 364 003e 0120     		movs	r0, #1
ARM GAS  C:\Users\Phuong\AppData\Local\Temp\ccpva0DN.s 			page 11


 365 0040 02E0     		b	.L19
 366              	.LVL51:
 367              	.L22:
 368              	.LBB8:
 179:Source\LwIP\src\core/def.c ****         }
 369              		.loc 1 179 0
 370 0042 0120     		movs	r0, #1
 371 0044 00E0     		b	.L19
 372              	.LVL52:
 373              	.L23:
 374              	.LBE8:
 375              	.LBE9:
 376              		.loc 1 187 0
 377 0046 0020     		movs	r0, #0
 378              	.LVL53:
 379              	.L19:
 188:Source\LwIP\src\core/def.c **** }
 380              		.loc 1 188 0
 381              		@ sp needed
 382              	.LVL54:
 383              	.LVL55:
 384              	.LVL56:
 385              	.LVL57:
 386 0048 F0BD     		pop	{r4, r5, r6, r7, pc}
 387              		.cfi_endproc
 388              	.LFE57:
 389              		.size	lwip_strnicmp, .-lwip_strnicmp
 390              		.global	__aeabi_idiv
 391 004a C046     		.section	.text.lwip_itoa,"ax",%progbits
 392              		.align	2
 393              		.global	lwip_itoa
 394              		.code	16
 395              		.thumb_func
 396              		.type	lwip_itoa, %function
 397              	lwip_itoa:
 398              	.LFB58:
 189:Source\LwIP\src\core/def.c **** #endif
 190:Source\LwIP\src\core/def.c **** 
 191:Source\LwIP\src\core/def.c **** #ifndef lwip_itoa
 192:Source\LwIP\src\core/def.c **** /**
 193:Source\LwIP\src\core/def.c ****  * @ingroup sys_nonstandard
 194:Source\LwIP\src\core/def.c ****  * lwIP default implementation for itoa() non-standard function.
 195:Source\LwIP\src\core/def.c ****  * This can be \#defined to itoa() or snprintf(result, bufsize, "%d", number) depending on your pla
 196:Source\LwIP\src\core/def.c ****  */
 197:Source\LwIP\src\core/def.c **** void
 198:Source\LwIP\src\core/def.c **** lwip_itoa(char* result, size_t bufsize, int number)
 199:Source\LwIP\src\core/def.c **** {
 399              		.loc 1 199 0
 400              		.cfi_startproc
 401              		@ args = 0, pretend = 0, frame = 0
 402              		@ frame_needed = 0, uses_anonymous_args = 0
 403              	.LVL58:
 404 0000 70B5     		push	{r4, r5, r6, lr}
 405              		.cfi_def_cfa_offset 16
 406              		.cfi_offset 4, -16
 407              		.cfi_offset 5, -12
 408              		.cfi_offset 6, -8
ARM GAS  C:\Users\Phuong\AppData\Local\Temp\ccpva0DN.s 			page 12


 409              		.cfi_offset 14, -4
 410 0002 0500     		movs	r5, r0
 411 0004 1400     		movs	r4, r2
 412              	.LVL59:
 200:Source\LwIP\src\core/def.c ****   const int base = 10;
 201:Source\LwIP\src\core/def.c ****   char* ptr = result, *ptr1 = result, tmp_char;
 413              		.loc 1 201 0
 414 0006 0600     		movs	r6, r0
 415 0008 01E0     		b	.L26
 416              	.LVL60:
 417              	.L30:
 202:Source\LwIP\src\core/def.c ****   int tmp_value;
 203:Source\LwIP\src\core/def.c ****   LWIP_UNUSED_ARG(bufsize);
 204:Source\LwIP\src\core/def.c **** 
 205:Source\LwIP\src\core/def.c ****   do {
 206:Source\LwIP\src\core/def.c ****     tmp_value = number;
 207:Source\LwIP\src\core/def.c ****     number /= base;
 208:Source\LwIP\src\core/def.c ****     *ptr++ = "zyxwvutsrqponmlkjihgfedcba9876543210123456789abcdefghijklmnopqrstuvwxyz"[35 + (tmp_va
 418              		.loc 1 208 0
 419 000a 1600     		movs	r6, r2
 207:Source\LwIP\src\core/def.c ****     *ptr++ = "zyxwvutsrqponmlkjihgfedcba9876543210123456789abcdefghijklmnopqrstuvwxyz"[35 + (tmp_va
 420              		.loc 1 207 0
 421 000c 0400     		movs	r4, r0
 422              	.LVL61:
 423              	.L26:
 207:Source\LwIP\src\core/def.c ****     *ptr++ = "zyxwvutsrqponmlkjihgfedcba9876543210123456789abcdefghijklmnopqrstuvwxyz"[35 + (tmp_va
 424              		.loc 1 207 0 is_stmt 0 discriminator 1
 425 000e 0A21     		movs	r1, #10
 426 0010 2000     		movs	r0, r4
 427 0012 FFF7FEFF 		bl	__aeabi_idiv
 428              	.LVL62:
 429              		.loc 1 208 0 is_stmt 1 discriminator 1
 430 0016 721C     		adds	r2, r6, #1
 431              	.LVL63:
 432 0018 0A23     		movs	r3, #10
 433 001a 5B42     		rsbs	r3, r3, #0
 434 001c 4343     		muls	r3, r0
 435 001e E318     		adds	r3, r4, r3
 436 0020 2333     		adds	r3, r3, #35
 437 0022 0B49     		ldr	r1, .L31
 438 0024 CB5C     		ldrb	r3, [r1, r3]
 439 0026 3370     		strb	r3, [r6]
 209:Source\LwIP\src\core/def.c ****   } while(number);
 440              		.loc 1 209 0 discriminator 1
 441 0028 0028     		cmp	r0, #0
 442 002a EED1     		bne	.L30
 210:Source\LwIP\src\core/def.c **** 
 211:Source\LwIP\src\core/def.c ****    /* Apply negative sign */
 212:Source\LwIP\src\core/def.c ****   if (tmp_value < 0) {
 443              		.loc 1 212 0
 444 002c 002C     		cmp	r4, #0
 445 002e 02DA     		bge	.L27
 213:Source\LwIP\src\core/def.c ****      *ptr++ = '-';
 446              		.loc 1 213 0
 447 0030 B21C     		adds	r2, r6, #2
 448              	.LVL64:
 449 0032 2D23     		movs	r3, #45
ARM GAS  C:\Users\Phuong\AppData\Local\Temp\ccpva0DN.s 			page 13


 450 0034 7370     		strb	r3, [r6, #1]
 451              	.L27:
 214:Source\LwIP\src\core/def.c ****   }
 215:Source\LwIP\src\core/def.c ****   *ptr-- = '\0';
 452              		.loc 1 215 0
 453 0036 531E     		subs	r3, r2, #1
 454              	.LVL65:
 455 0038 0021     		movs	r1, #0
 456 003a 1170     		strb	r1, [r2]
 216:Source\LwIP\src\core/def.c ****   while(ptr1 < ptr) {
 457              		.loc 1 216 0
 458 003c 05E0     		b	.L28
 459              	.LVL66:
 460              	.L29:
 217:Source\LwIP\src\core/def.c ****     tmp_char = *ptr;
 461              		.loc 1 217 0
 462 003e 1A78     		ldrb	r2, [r3]
 463              	.LVL67:
 218:Source\LwIP\src\core/def.c ****     *ptr--= *ptr1;
 464              		.loc 1 218 0
 465 0040 2978     		ldrb	r1, [r5]
 466 0042 1970     		strb	r1, [r3]
 467              	.LVL68:
 219:Source\LwIP\src\core/def.c ****     *ptr1++ = tmp_char;
 468              		.loc 1 219 0
 469 0044 2A70     		strb	r2, [r5]
 470 0046 0135     		adds	r5, r5, #1
 471              	.LVL69:
 218:Source\LwIP\src\core/def.c ****     *ptr--= *ptr1;
 472              		.loc 1 218 0
 473 0048 013B     		subs	r3, r3, #1
 474              	.LVL70:
 475              	.L28:
 216:Source\LwIP\src\core/def.c ****     tmp_char = *ptr;
 476              		.loc 1 216 0
 477 004a AB42     		cmp	r3, r5
 478 004c F7D8     		bhi	.L29
 220:Source\LwIP\src\core/def.c ****   }
 221:Source\LwIP\src\core/def.c **** }
 479              		.loc 1 221 0
 480              		@ sp needed
 481              	.LVL71:
 482              	.LVL72:
 483 004e 70BD     		pop	{r4, r5, r6, pc}
 484              	.L32:
 485              		.align	2
 486              	.L31:
 487 0050 00000000 		.word	.LC0
 488              		.cfi_endproc
 489              	.LFE58:
 490              		.size	lwip_itoa, .-lwip_itoa
 491              		.section	.rodata.str1.4,"aMS",%progbits,1
 492              		.align	2
 493              	.LC0:
 494 0000 7A797877 		.ascii	"zyxwvutsrqponmlkjihgfedcba9876543210123456789abcdef"
 494      76757473 
 494      7271706F 
ARM GAS  C:\Users\Phuong\AppData\Local\Temp\ccpva0DN.s 			page 14


 494      6E6D6C6B 
 494      6A696867 
 495 0033 6768696A 		.ascii	"ghijklmnopqrstuvwxyz\000"
 495      6B6C6D6E 
 495      6F707172 
 495      73747576 
 495      7778797A 
 496              		.text
 497              	.Letext0:
 498              		.file 2 "c:\\program files (x86)\\cypress\\psoc creator\\4.2\\psoc creator\\import\\gnu\\arm\\5.4.
 499              		.file 3 ".\\Source\\LwIP\\src\\include/arch/cc.h"
 500              		.file 4 "c:\\program files (x86)\\cypress\\psoc creator\\4.2\\psoc creator\\import\\gnu\\arm\\5.4.