ARM GAS  C:\Users\Phuong\AppData\Local\Temp\ccawWFGQ.s 			page 1


   1              		.syntax unified
   2              		.cpu cortex-m0plus
   3              		.fpu softvfp
   4              		.eabi_attribute 20, 1
   5              		.eabi_attribute 21, 1
   6              		.eabi_attribute 23, 3
   7              		.eabi_attribute 24, 1
   8              		.eabi_attribute 25, 1
   9              		.eabi_attribute 26, 1
  10              		.eabi_attribute 30, 1
  11              		.eabi_attribute 34, 0
  12              		.eabi_attribute 18, 4
  13              		.thumb
  14              		.syntax unified
  15              		.file	"des.c"
  16              		.text
  17              	.Ltext0:
  18              		.cfi_sections	.debug_frame
  19              		.section	.text.mbedtls_des_init,"ax",%progbits
  20              		.align	2
  21              		.global	mbedtls_des_init
  22              		.code	16
  23              		.thumb_func
  24              		.type	mbedtls_des_init, %function
  25              	mbedtls_des_init:
  26              	.LFB1:
  27              		.file 1 "Source\\mbedtls_open\\library\\des.c"
   1:Source\mbedtls_open\library/des.c **** /*
   2:Source\mbedtls_open\library/des.c ****  *  FIPS-46-3 compliant Triple-DES implementation
   3:Source\mbedtls_open\library/des.c ****  *
   4:Source\mbedtls_open\library/des.c ****  *  Copyright (C) 2006-2015, ARM Limited, All Rights Reserved
   5:Source\mbedtls_open\library/des.c ****  *  SPDX-License-Identifier: Apache-2.0
   6:Source\mbedtls_open\library/des.c ****  *
   7:Source\mbedtls_open\library/des.c ****  *  Licensed under the Apache License, Version 2.0 (the "License"); you may
   8:Source\mbedtls_open\library/des.c ****  *  not use this file except in compliance with the License.
   9:Source\mbedtls_open\library/des.c ****  *  You may obtain a copy of the License at
  10:Source\mbedtls_open\library/des.c ****  *
  11:Source\mbedtls_open\library/des.c ****  *  http://www.apache.org/licenses/LICENSE-2.0
  12:Source\mbedtls_open\library/des.c ****  *
  13:Source\mbedtls_open\library/des.c ****  *  Unless required by applicable law or agreed to in writing, software
  14:Source\mbedtls_open\library/des.c ****  *  distributed under the License is distributed on an "AS IS" BASIS, WITHOUT
  15:Source\mbedtls_open\library/des.c ****  *  WARRANTIES OR CONDITIONS OF ANY KIND, either express or implied.
  16:Source\mbedtls_open\library/des.c ****  *  See the License for the specific language governing permissions and
  17:Source\mbedtls_open\library/des.c ****  *  limitations under the License.
  18:Source\mbedtls_open\library/des.c ****  *
  19:Source\mbedtls_open\library/des.c ****  *  This file is part of mbed TLS (https://tls.mbed.org)
  20:Source\mbedtls_open\library/des.c ****  */
  21:Source\mbedtls_open\library/des.c **** /*
  22:Source\mbedtls_open\library/des.c ****  *  DES, on which TDES is based, was originally designed by Horst Feistel
  23:Source\mbedtls_open\library/des.c ****  *  at IBM in 1974, and was adopted as a standard by NIST (formerly NBS).
  24:Source\mbedtls_open\library/des.c ****  *
  25:Source\mbedtls_open\library/des.c ****  *  http://csrc.nist.gov/publications/fips/fips46-3/fips46-3.pdf
  26:Source\mbedtls_open\library/des.c ****  */
  27:Source\mbedtls_open\library/des.c **** 
  28:Source\mbedtls_open\library/des.c **** #if !defined(MBEDTLS_CONFIG_FILE)
  29:Source\mbedtls_open\library/des.c **** #include "mbedtls/config.h"
  30:Source\mbedtls_open\library/des.c **** #else
ARM GAS  C:\Users\Phuong\AppData\Local\Temp\ccawWFGQ.s 			page 2


  31:Source\mbedtls_open\library/des.c **** #include MBEDTLS_CONFIG_FILE
  32:Source\mbedtls_open\library/des.c **** #endif
  33:Source\mbedtls_open\library/des.c **** 
  34:Source\mbedtls_open\library/des.c **** #if defined(MBEDTLS_DES_C)
  35:Source\mbedtls_open\library/des.c **** 
  36:Source\mbedtls_open\library/des.c **** #include "mbedtls/des.h"
  37:Source\mbedtls_open\library/des.c **** #include "mbedtls/platform_util.h"
  38:Source\mbedtls_open\library/des.c **** 
  39:Source\mbedtls_open\library/des.c **** #include <string.h>
  40:Source\mbedtls_open\library/des.c **** 
  41:Source\mbedtls_open\library/des.c **** #if defined(MBEDTLS_SELF_TEST)
  42:Source\mbedtls_open\library/des.c **** #if defined(MBEDTLS_PLATFORM_C)
  43:Source\mbedtls_open\library/des.c **** #include "mbedtls/platform.h"
  44:Source\mbedtls_open\library/des.c **** #else
  45:Source\mbedtls_open\library/des.c **** #include <stdio.h>
  46:Source\mbedtls_open\library/des.c **** #define mbedtls_printf printf
  47:Source\mbedtls_open\library/des.c **** #endif /* MBEDTLS_PLATFORM_C */
  48:Source\mbedtls_open\library/des.c **** #endif /* MBEDTLS_SELF_TEST */
  49:Source\mbedtls_open\library/des.c **** 
  50:Source\mbedtls_open\library/des.c **** #if !defined(MBEDTLS_DES_ALT)
  51:Source\mbedtls_open\library/des.c **** 
  52:Source\mbedtls_open\library/des.c **** /*
  53:Source\mbedtls_open\library/des.c ****  * 32-bit integer manipulation macros (big endian)
  54:Source\mbedtls_open\library/des.c ****  */
  55:Source\mbedtls_open\library/des.c **** #ifndef GET_UINT32_BE
  56:Source\mbedtls_open\library/des.c **** #define GET_UINT32_BE(n,b,i)                            \
  57:Source\mbedtls_open\library/des.c **** {                                                       \
  58:Source\mbedtls_open\library/des.c ****     (n) = ( (uint32_t) (b)[(i)    ] << 24 )             \
  59:Source\mbedtls_open\library/des.c ****         | ( (uint32_t) (b)[(i) + 1] << 16 )             \
  60:Source\mbedtls_open\library/des.c ****         | ( (uint32_t) (b)[(i) + 2] <<  8 )             \
  61:Source\mbedtls_open\library/des.c ****         | ( (uint32_t) (b)[(i) + 3]       );            \
  62:Source\mbedtls_open\library/des.c **** }
  63:Source\mbedtls_open\library/des.c **** #endif
  64:Source\mbedtls_open\library/des.c **** 
  65:Source\mbedtls_open\library/des.c **** #ifndef PUT_UINT32_BE
  66:Source\mbedtls_open\library/des.c **** #define PUT_UINT32_BE(n,b,i)                            \
  67:Source\mbedtls_open\library/des.c **** {                                                       \
  68:Source\mbedtls_open\library/des.c ****     (b)[(i)    ] = (unsigned char) ( (n) >> 24 );       \
  69:Source\mbedtls_open\library/des.c ****     (b)[(i) + 1] = (unsigned char) ( (n) >> 16 );       \
  70:Source\mbedtls_open\library/des.c ****     (b)[(i) + 2] = (unsigned char) ( (n) >>  8 );       \
  71:Source\mbedtls_open\library/des.c ****     (b)[(i) + 3] = (unsigned char) ( (n)       );       \
  72:Source\mbedtls_open\library/des.c **** }
  73:Source\mbedtls_open\library/des.c **** #endif
  74:Source\mbedtls_open\library/des.c **** 
  75:Source\mbedtls_open\library/des.c **** /*
  76:Source\mbedtls_open\library/des.c ****  * Expanded DES S-boxes
  77:Source\mbedtls_open\library/des.c ****  */
  78:Source\mbedtls_open\library/des.c **** static const uint32_t SB1[64] =
  79:Source\mbedtls_open\library/des.c **** {
  80:Source\mbedtls_open\library/des.c ****     0x01010400, 0x00000000, 0x00010000, 0x01010404,
  81:Source\mbedtls_open\library/des.c ****     0x01010004, 0x00010404, 0x00000004, 0x00010000,
  82:Source\mbedtls_open\library/des.c ****     0x00000400, 0x01010400, 0x01010404, 0x00000400,
  83:Source\mbedtls_open\library/des.c ****     0x01000404, 0x01010004, 0x01000000, 0x00000004,
  84:Source\mbedtls_open\library/des.c ****     0x00000404, 0x01000400, 0x01000400, 0x00010400,
  85:Source\mbedtls_open\library/des.c ****     0x00010400, 0x01010000, 0x01010000, 0x01000404,
  86:Source\mbedtls_open\library/des.c ****     0x00010004, 0x01000004, 0x01000004, 0x00010004,
  87:Source\mbedtls_open\library/des.c ****     0x00000000, 0x00000404, 0x00010404, 0x01000000,
ARM GAS  C:\Users\Phuong\AppData\Local\Temp\ccawWFGQ.s 			page 3


  88:Source\mbedtls_open\library/des.c ****     0x00010000, 0x01010404, 0x00000004, 0x01010000,
  89:Source\mbedtls_open\library/des.c ****     0x01010400, 0x01000000, 0x01000000, 0x00000400,
  90:Source\mbedtls_open\library/des.c ****     0x01010004, 0x00010000, 0x00010400, 0x01000004,
  91:Source\mbedtls_open\library/des.c ****     0x00000400, 0x00000004, 0x01000404, 0x00010404,
  92:Source\mbedtls_open\library/des.c ****     0x01010404, 0x00010004, 0x01010000, 0x01000404,
  93:Source\mbedtls_open\library/des.c ****     0x01000004, 0x00000404, 0x00010404, 0x01010400,
  94:Source\mbedtls_open\library/des.c ****     0x00000404, 0x01000400, 0x01000400, 0x00000000,
  95:Source\mbedtls_open\library/des.c ****     0x00010004, 0x00010400, 0x00000000, 0x01010004
  96:Source\mbedtls_open\library/des.c **** };
  97:Source\mbedtls_open\library/des.c **** 
  98:Source\mbedtls_open\library/des.c **** static const uint32_t SB2[64] =
  99:Source\mbedtls_open\library/des.c **** {
 100:Source\mbedtls_open\library/des.c ****     0x80108020, 0x80008000, 0x00008000, 0x00108020,
 101:Source\mbedtls_open\library/des.c ****     0x00100000, 0x00000020, 0x80100020, 0x80008020,
 102:Source\mbedtls_open\library/des.c ****     0x80000020, 0x80108020, 0x80108000, 0x80000000,
 103:Source\mbedtls_open\library/des.c ****     0x80008000, 0x00100000, 0x00000020, 0x80100020,
 104:Source\mbedtls_open\library/des.c ****     0x00108000, 0x00100020, 0x80008020, 0x00000000,
 105:Source\mbedtls_open\library/des.c ****     0x80000000, 0x00008000, 0x00108020, 0x80100000,
 106:Source\mbedtls_open\library/des.c ****     0x00100020, 0x80000020, 0x00000000, 0x00108000,
 107:Source\mbedtls_open\library/des.c ****     0x00008020, 0x80108000, 0x80100000, 0x00008020,
 108:Source\mbedtls_open\library/des.c ****     0x00000000, 0x00108020, 0x80100020, 0x00100000,
 109:Source\mbedtls_open\library/des.c ****     0x80008020, 0x80100000, 0x80108000, 0x00008000,
 110:Source\mbedtls_open\library/des.c ****     0x80100000, 0x80008000, 0x00000020, 0x80108020,
 111:Source\mbedtls_open\library/des.c ****     0x00108020, 0x00000020, 0x00008000, 0x80000000,
 112:Source\mbedtls_open\library/des.c ****     0x00008020, 0x80108000, 0x00100000, 0x80000020,
 113:Source\mbedtls_open\library/des.c ****     0x00100020, 0x80008020, 0x80000020, 0x00100020,
 114:Source\mbedtls_open\library/des.c ****     0x00108000, 0x00000000, 0x80008000, 0x00008020,
 115:Source\mbedtls_open\library/des.c ****     0x80000000, 0x80100020, 0x80108020, 0x00108000
 116:Source\mbedtls_open\library/des.c **** };
 117:Source\mbedtls_open\library/des.c **** 
 118:Source\mbedtls_open\library/des.c **** static const uint32_t SB3[64] =
 119:Source\mbedtls_open\library/des.c **** {
 120:Source\mbedtls_open\library/des.c ****     0x00000208, 0x08020200, 0x00000000, 0x08020008,
 121:Source\mbedtls_open\library/des.c ****     0x08000200, 0x00000000, 0x00020208, 0x08000200,
 122:Source\mbedtls_open\library/des.c ****     0x00020008, 0x08000008, 0x08000008, 0x00020000,
 123:Source\mbedtls_open\library/des.c ****     0x08020208, 0x00020008, 0x08020000, 0x00000208,
 124:Source\mbedtls_open\library/des.c ****     0x08000000, 0x00000008, 0x08020200, 0x00000200,
 125:Source\mbedtls_open\library/des.c ****     0x00020200, 0x08020000, 0x08020008, 0x00020208,
 126:Source\mbedtls_open\library/des.c ****     0x08000208, 0x00020200, 0x00020000, 0x08000208,
 127:Source\mbedtls_open\library/des.c ****     0x00000008, 0x08020208, 0x00000200, 0x08000000,
 128:Source\mbedtls_open\library/des.c ****     0x08020200, 0x08000000, 0x00020008, 0x00000208,
 129:Source\mbedtls_open\library/des.c ****     0x00020000, 0x08020200, 0x08000200, 0x00000000,
 130:Source\mbedtls_open\library/des.c ****     0x00000200, 0x00020008, 0x08020208, 0x08000200,
 131:Source\mbedtls_open\library/des.c ****     0x08000008, 0x00000200, 0x00000000, 0x08020008,
 132:Source\mbedtls_open\library/des.c ****     0x08000208, 0x00020000, 0x08000000, 0x08020208,
 133:Source\mbedtls_open\library/des.c ****     0x00000008, 0x00020208, 0x00020200, 0x08000008,
 134:Source\mbedtls_open\library/des.c ****     0x08020000, 0x08000208, 0x00000208, 0x08020000,
 135:Source\mbedtls_open\library/des.c ****     0x00020208, 0x00000008, 0x08020008, 0x00020200
 136:Source\mbedtls_open\library/des.c **** };
 137:Source\mbedtls_open\library/des.c **** 
 138:Source\mbedtls_open\library/des.c **** static const uint32_t SB4[64] =
 139:Source\mbedtls_open\library/des.c **** {
 140:Source\mbedtls_open\library/des.c ****     0x00802001, 0x00002081, 0x00002081, 0x00000080,
 141:Source\mbedtls_open\library/des.c ****     0x00802080, 0x00800081, 0x00800001, 0x00002001,
 142:Source\mbedtls_open\library/des.c ****     0x00000000, 0x00802000, 0x00802000, 0x00802081,
 143:Source\mbedtls_open\library/des.c ****     0x00000081, 0x00000000, 0x00800080, 0x00800001,
 144:Source\mbedtls_open\library/des.c ****     0x00000001, 0x00002000, 0x00800000, 0x00802001,
ARM GAS  C:\Users\Phuong\AppData\Local\Temp\ccawWFGQ.s 			page 4


 145:Source\mbedtls_open\library/des.c ****     0x00000080, 0x00800000, 0x00002001, 0x00002080,
 146:Source\mbedtls_open\library/des.c ****     0x00800081, 0x00000001, 0x00002080, 0x00800080,
 147:Source\mbedtls_open\library/des.c ****     0x00002000, 0x00802080, 0x00802081, 0x00000081,
 148:Source\mbedtls_open\library/des.c ****     0x00800080, 0x00800001, 0x00802000, 0x00802081,
 149:Source\mbedtls_open\library/des.c ****     0x00000081, 0x00000000, 0x00000000, 0x00802000,
 150:Source\mbedtls_open\library/des.c ****     0x00002080, 0x00800080, 0x00800081, 0x00000001,
 151:Source\mbedtls_open\library/des.c ****     0x00802001, 0x00002081, 0x00002081, 0x00000080,
 152:Source\mbedtls_open\library/des.c ****     0x00802081, 0x00000081, 0x00000001, 0x00002000,
 153:Source\mbedtls_open\library/des.c ****     0x00800001, 0x00002001, 0x00802080, 0x00800081,
 154:Source\mbedtls_open\library/des.c ****     0x00002001, 0x00002080, 0x00800000, 0x00802001,
 155:Source\mbedtls_open\library/des.c ****     0x00000080, 0x00800000, 0x00002000, 0x00802080
 156:Source\mbedtls_open\library/des.c **** };
 157:Source\mbedtls_open\library/des.c **** 
 158:Source\mbedtls_open\library/des.c **** static const uint32_t SB5[64] =
 159:Source\mbedtls_open\library/des.c **** {
 160:Source\mbedtls_open\library/des.c ****     0x00000100, 0x02080100, 0x02080000, 0x42000100,
 161:Source\mbedtls_open\library/des.c ****     0x00080000, 0x00000100, 0x40000000, 0x02080000,
 162:Source\mbedtls_open\library/des.c ****     0x40080100, 0x00080000, 0x02000100, 0x40080100,
 163:Source\mbedtls_open\library/des.c ****     0x42000100, 0x42080000, 0x00080100, 0x40000000,
 164:Source\mbedtls_open\library/des.c ****     0x02000000, 0x40080000, 0x40080000, 0x00000000,
 165:Source\mbedtls_open\library/des.c ****     0x40000100, 0x42080100, 0x42080100, 0x02000100,
 166:Source\mbedtls_open\library/des.c ****     0x42080000, 0x40000100, 0x00000000, 0x42000000,
 167:Source\mbedtls_open\library/des.c ****     0x02080100, 0x02000000, 0x42000000, 0x00080100,
 168:Source\mbedtls_open\library/des.c ****     0x00080000, 0x42000100, 0x00000100, 0x02000000,
 169:Source\mbedtls_open\library/des.c ****     0x40000000, 0x02080000, 0x42000100, 0x40080100,
 170:Source\mbedtls_open\library/des.c ****     0x02000100, 0x40000000, 0x42080000, 0x02080100,
 171:Source\mbedtls_open\library/des.c ****     0x40080100, 0x00000100, 0x02000000, 0x42080000,
 172:Source\mbedtls_open\library/des.c ****     0x42080100, 0x00080100, 0x42000000, 0x42080100,
 173:Source\mbedtls_open\library/des.c ****     0x02080000, 0x00000000, 0x40080000, 0x42000000,
 174:Source\mbedtls_open\library/des.c ****     0x00080100, 0x02000100, 0x40000100, 0x00080000,
 175:Source\mbedtls_open\library/des.c ****     0x00000000, 0x40080000, 0x02080100, 0x40000100
 176:Source\mbedtls_open\library/des.c **** };
 177:Source\mbedtls_open\library/des.c **** 
 178:Source\mbedtls_open\library/des.c **** static const uint32_t SB6[64] =
 179:Source\mbedtls_open\library/des.c **** {
 180:Source\mbedtls_open\library/des.c ****     0x20000010, 0x20400000, 0x00004000, 0x20404010,
 181:Source\mbedtls_open\library/des.c ****     0x20400000, 0x00000010, 0x20404010, 0x00400000,
 182:Source\mbedtls_open\library/des.c ****     0x20004000, 0x00404010, 0x00400000, 0x20000010,
 183:Source\mbedtls_open\library/des.c ****     0x00400010, 0x20004000, 0x20000000, 0x00004010,
 184:Source\mbedtls_open\library/des.c ****     0x00000000, 0x00400010, 0x20004010, 0x00004000,
 185:Source\mbedtls_open\library/des.c ****     0x00404000, 0x20004010, 0x00000010, 0x20400010,
 186:Source\mbedtls_open\library/des.c ****     0x20400010, 0x00000000, 0x00404010, 0x20404000,
 187:Source\mbedtls_open\library/des.c ****     0x00004010, 0x00404000, 0x20404000, 0x20000000,
 188:Source\mbedtls_open\library/des.c ****     0x20004000, 0x00000010, 0x20400010, 0x00404000,
 189:Source\mbedtls_open\library/des.c ****     0x20404010, 0x00400000, 0x00004010, 0x20000010,
 190:Source\mbedtls_open\library/des.c ****     0x00400000, 0x20004000, 0x20000000, 0x00004010,
 191:Source\mbedtls_open\library/des.c ****     0x20000010, 0x20404010, 0x00404000, 0x20400000,
 192:Source\mbedtls_open\library/des.c ****     0x00404010, 0x20404000, 0x00000000, 0x20400010,
 193:Source\mbedtls_open\library/des.c ****     0x00000010, 0x00004000, 0x20400000, 0x00404010,
 194:Source\mbedtls_open\library/des.c ****     0x00004000, 0x00400010, 0x20004010, 0x00000000,
 195:Source\mbedtls_open\library/des.c ****     0x20404000, 0x20000000, 0x00400010, 0x20004010
 196:Source\mbedtls_open\library/des.c **** };
 197:Source\mbedtls_open\library/des.c **** 
 198:Source\mbedtls_open\library/des.c **** static const uint32_t SB7[64] =
 199:Source\mbedtls_open\library/des.c **** {
 200:Source\mbedtls_open\library/des.c ****     0x00200000, 0x04200002, 0x04000802, 0x00000000,
 201:Source\mbedtls_open\library/des.c ****     0x00000800, 0x04000802, 0x00200802, 0x04200800,
ARM GAS  C:\Users\Phuong\AppData\Local\Temp\ccawWFGQ.s 			page 5


 202:Source\mbedtls_open\library/des.c ****     0x04200802, 0x00200000, 0x00000000, 0x04000002,
 203:Source\mbedtls_open\library/des.c ****     0x00000002, 0x04000000, 0x04200002, 0x00000802,
 204:Source\mbedtls_open\library/des.c ****     0x04000800, 0x00200802, 0x00200002, 0x04000800,
 205:Source\mbedtls_open\library/des.c ****     0x04000002, 0x04200000, 0x04200800, 0x00200002,
 206:Source\mbedtls_open\library/des.c ****     0x04200000, 0x00000800, 0x00000802, 0x04200802,
 207:Source\mbedtls_open\library/des.c ****     0x00200800, 0x00000002, 0x04000000, 0x00200800,
 208:Source\mbedtls_open\library/des.c ****     0x04000000, 0x00200800, 0x00200000, 0x04000802,
 209:Source\mbedtls_open\library/des.c ****     0x04000802, 0x04200002, 0x04200002, 0x00000002,
 210:Source\mbedtls_open\library/des.c ****     0x00200002, 0x04000000, 0x04000800, 0x00200000,
 211:Source\mbedtls_open\library/des.c ****     0x04200800, 0x00000802, 0x00200802, 0x04200800,
 212:Source\mbedtls_open\library/des.c ****     0x00000802, 0x04000002, 0x04200802, 0x04200000,
 213:Source\mbedtls_open\library/des.c ****     0x00200800, 0x00000000, 0x00000002, 0x04200802,
 214:Source\mbedtls_open\library/des.c ****     0x00000000, 0x00200802, 0x04200000, 0x00000800,
 215:Source\mbedtls_open\library/des.c ****     0x04000002, 0x04000800, 0x00000800, 0x00200002
 216:Source\mbedtls_open\library/des.c **** };
 217:Source\mbedtls_open\library/des.c **** 
 218:Source\mbedtls_open\library/des.c **** static const uint32_t SB8[64] =
 219:Source\mbedtls_open\library/des.c **** {
 220:Source\mbedtls_open\library/des.c ****     0x10001040, 0x00001000, 0x00040000, 0x10041040,
 221:Source\mbedtls_open\library/des.c ****     0x10000000, 0x10001040, 0x00000040, 0x10000000,
 222:Source\mbedtls_open\library/des.c ****     0x00040040, 0x10040000, 0x10041040, 0x00041000,
 223:Source\mbedtls_open\library/des.c ****     0x10041000, 0x00041040, 0x00001000, 0x00000040,
 224:Source\mbedtls_open\library/des.c ****     0x10040000, 0x10000040, 0x10001000, 0x00001040,
 225:Source\mbedtls_open\library/des.c ****     0x00041000, 0x00040040, 0x10040040, 0x10041000,
 226:Source\mbedtls_open\library/des.c ****     0x00001040, 0x00000000, 0x00000000, 0x10040040,
 227:Source\mbedtls_open\library/des.c ****     0x10000040, 0x10001000, 0x00041040, 0x00040000,
 228:Source\mbedtls_open\library/des.c ****     0x00041040, 0x00040000, 0x10041000, 0x00001000,
 229:Source\mbedtls_open\library/des.c ****     0x00000040, 0x10040040, 0x00001000, 0x00041040,
 230:Source\mbedtls_open\library/des.c ****     0x10001000, 0x00000040, 0x10000040, 0x10040000,
 231:Source\mbedtls_open\library/des.c ****     0x10040040, 0x10000000, 0x00040000, 0x10001040,
 232:Source\mbedtls_open\library/des.c ****     0x00000000, 0x10041040, 0x00040040, 0x10000040,
 233:Source\mbedtls_open\library/des.c ****     0x10040000, 0x10001000, 0x10001040, 0x00000000,
 234:Source\mbedtls_open\library/des.c ****     0x10041040, 0x00041000, 0x00041000, 0x00001040,
 235:Source\mbedtls_open\library/des.c ****     0x00001040, 0x00040040, 0x10000000, 0x10041000
 236:Source\mbedtls_open\library/des.c **** };
 237:Source\mbedtls_open\library/des.c **** 
 238:Source\mbedtls_open\library/des.c **** /*
 239:Source\mbedtls_open\library/des.c ****  * PC1: left and right halves bit-swap
 240:Source\mbedtls_open\library/des.c ****  */
 241:Source\mbedtls_open\library/des.c **** static const uint32_t LHs[16] =
 242:Source\mbedtls_open\library/des.c **** {
 243:Source\mbedtls_open\library/des.c ****     0x00000000, 0x00000001, 0x00000100, 0x00000101,
 244:Source\mbedtls_open\library/des.c ****     0x00010000, 0x00010001, 0x00010100, 0x00010101,
 245:Source\mbedtls_open\library/des.c ****     0x01000000, 0x01000001, 0x01000100, 0x01000101,
 246:Source\mbedtls_open\library/des.c ****     0x01010000, 0x01010001, 0x01010100, 0x01010101
 247:Source\mbedtls_open\library/des.c **** };
 248:Source\mbedtls_open\library/des.c **** 
 249:Source\mbedtls_open\library/des.c **** static const uint32_t RHs[16] =
 250:Source\mbedtls_open\library/des.c **** {
 251:Source\mbedtls_open\library/des.c ****     0x00000000, 0x01000000, 0x00010000, 0x01010000,
 252:Source\mbedtls_open\library/des.c ****     0x00000100, 0x01000100, 0x00010100, 0x01010100,
 253:Source\mbedtls_open\library/des.c ****     0x00000001, 0x01000001, 0x00010001, 0x01010001,
 254:Source\mbedtls_open\library/des.c ****     0x00000101, 0x01000101, 0x00010101, 0x01010101,
 255:Source\mbedtls_open\library/des.c **** };
 256:Source\mbedtls_open\library/des.c **** 
 257:Source\mbedtls_open\library/des.c **** /*
 258:Source\mbedtls_open\library/des.c ****  * Initial Permutation macro
ARM GAS  C:\Users\Phuong\AppData\Local\Temp\ccawWFGQ.s 			page 6


 259:Source\mbedtls_open\library/des.c ****  */
 260:Source\mbedtls_open\library/des.c **** #define DES_IP(X,Y)                                             \
 261:Source\mbedtls_open\library/des.c **** {                                                               \
 262:Source\mbedtls_open\library/des.c ****     T = ((X >>  4) ^ Y) & 0x0F0F0F0F; Y ^= T; X ^= (T <<  4);   \
 263:Source\mbedtls_open\library/des.c ****     T = ((X >> 16) ^ Y) & 0x0000FFFF; Y ^= T; X ^= (T << 16);   \
 264:Source\mbedtls_open\library/des.c ****     T = ((Y >>  2) ^ X) & 0x33333333; X ^= T; Y ^= (T <<  2);   \
 265:Source\mbedtls_open\library/des.c ****     T = ((Y >>  8) ^ X) & 0x00FF00FF; X ^= T; Y ^= (T <<  8);   \
 266:Source\mbedtls_open\library/des.c ****     Y = ((Y << 1) | (Y >> 31)) & 0xFFFFFFFF;                    \
 267:Source\mbedtls_open\library/des.c ****     T = (X ^ Y) & 0xAAAAAAAA; Y ^= T; X ^= T;                   \
 268:Source\mbedtls_open\library/des.c ****     X = ((X << 1) | (X >> 31)) & 0xFFFFFFFF;                    \
 269:Source\mbedtls_open\library/des.c **** }
 270:Source\mbedtls_open\library/des.c **** 
 271:Source\mbedtls_open\library/des.c **** /*
 272:Source\mbedtls_open\library/des.c ****  * Final Permutation macro
 273:Source\mbedtls_open\library/des.c ****  */
 274:Source\mbedtls_open\library/des.c **** #define DES_FP(X,Y)                                             \
 275:Source\mbedtls_open\library/des.c **** {                                                               \
 276:Source\mbedtls_open\library/des.c ****     X = ((X << 31) | (X >> 1)) & 0xFFFFFFFF;                    \
 277:Source\mbedtls_open\library/des.c ****     T = (X ^ Y) & 0xAAAAAAAA; X ^= T; Y ^= T;                   \
 278:Source\mbedtls_open\library/des.c ****     Y = ((Y << 31) | (Y >> 1)) & 0xFFFFFFFF;                    \
 279:Source\mbedtls_open\library/des.c ****     T = ((Y >>  8) ^ X) & 0x00FF00FF; X ^= T; Y ^= (T <<  8);   \
 280:Source\mbedtls_open\library/des.c ****     T = ((Y >>  2) ^ X) & 0x33333333; X ^= T; Y ^= (T <<  2);   \
 281:Source\mbedtls_open\library/des.c ****     T = ((X >> 16) ^ Y) & 0x0000FFFF; Y ^= T; X ^= (T << 16);   \
 282:Source\mbedtls_open\library/des.c ****     T = ((X >>  4) ^ Y) & 0x0F0F0F0F; Y ^= T; X ^= (T <<  4);   \
 283:Source\mbedtls_open\library/des.c **** }
 284:Source\mbedtls_open\library/des.c **** 
 285:Source\mbedtls_open\library/des.c **** /*
 286:Source\mbedtls_open\library/des.c ****  * DES round macro
 287:Source\mbedtls_open\library/des.c ****  */
 288:Source\mbedtls_open\library/des.c **** #define DES_ROUND(X,Y)                          \
 289:Source\mbedtls_open\library/des.c **** {                                               \
 290:Source\mbedtls_open\library/des.c ****     T = *SK++ ^ X;                              \
 291:Source\mbedtls_open\library/des.c ****     Y ^= SB8[ (T      ) & 0x3F ] ^              \
 292:Source\mbedtls_open\library/des.c ****          SB6[ (T >>  8) & 0x3F ] ^              \
 293:Source\mbedtls_open\library/des.c ****          SB4[ (T >> 16) & 0x3F ] ^              \
 294:Source\mbedtls_open\library/des.c ****          SB2[ (T >> 24) & 0x3F ];               \
 295:Source\mbedtls_open\library/des.c ****                                                 \
 296:Source\mbedtls_open\library/des.c ****     T = *SK++ ^ ((X << 28) | (X >> 4));         \
 297:Source\mbedtls_open\library/des.c ****     Y ^= SB7[ (T      ) & 0x3F ] ^              \
 298:Source\mbedtls_open\library/des.c ****          SB5[ (T >>  8) & 0x3F ] ^              \
 299:Source\mbedtls_open\library/des.c ****          SB3[ (T >> 16) & 0x3F ] ^              \
 300:Source\mbedtls_open\library/des.c ****          SB1[ (T >> 24) & 0x3F ];               \
 301:Source\mbedtls_open\library/des.c **** }
 302:Source\mbedtls_open\library/des.c **** 
 303:Source\mbedtls_open\library/des.c **** #define SWAP(a,b) { uint32_t t = a; a = b; b = t; t = 0; }
 304:Source\mbedtls_open\library/des.c **** 
 305:Source\mbedtls_open\library/des.c **** void mbedtls_des_init( mbedtls_des_context *ctx )
 306:Source\mbedtls_open\library/des.c **** {
  28              		.loc 1 306 0
  29              		.cfi_startproc
  30              		@ args = 0, pretend = 0, frame = 0
  31              		@ frame_needed = 0, uses_anonymous_args = 0
  32              	.LVL0:
  33 0000 10B5     		push	{r4, lr}
  34              		.cfi_def_cfa_offset 8
  35              		.cfi_offset 4, -8
  36              		.cfi_offset 14, -4
ARM GAS  C:\Users\Phuong\AppData\Local\Temp\ccawWFGQ.s 			page 7


 307:Source\mbedtls_open\library/des.c ****     memset( ctx, 0, sizeof( mbedtls_des_context ) );
  37              		.loc 1 307 0
  38 0002 8022     		movs	r2, #128
  39 0004 0021     		movs	r1, #0
  40 0006 FFF7FEFF 		bl	memset
  41              	.LVL1:
 308:Source\mbedtls_open\library/des.c **** }
  42              		.loc 1 308 0
  43              		@ sp needed
  44 000a 10BD     		pop	{r4, pc}
  45              		.cfi_endproc
  46              	.LFE1:
  47              		.size	mbedtls_des_init, .-mbedtls_des_init
  48              		.section	.text.mbedtls_des_free,"ax",%progbits
  49              		.align	2
  50              		.global	mbedtls_des_free
  51              		.code	16
  52              		.thumb_func
  53              		.type	mbedtls_des_free, %function
  54              	mbedtls_des_free:
  55              	.LFB2:
 309:Source\mbedtls_open\library/des.c **** 
 310:Source\mbedtls_open\library/des.c **** void mbedtls_des_free( mbedtls_des_context *ctx )
 311:Source\mbedtls_open\library/des.c **** {
  56              		.loc 1 311 0
  57              		.cfi_startproc
  58              		@ args = 0, pretend = 0, frame = 0
  59              		@ frame_needed = 0, uses_anonymous_args = 0
  60              	.LVL2:
  61 0000 10B5     		push	{r4, lr}
  62              		.cfi_def_cfa_offset 8
  63              		.cfi_offset 4, -8
  64              		.cfi_offset 14, -4
 312:Source\mbedtls_open\library/des.c ****     if( ctx == NULL )
  65              		.loc 1 312 0
  66 0002 0028     		cmp	r0, #0
  67 0004 02D0     		beq	.L2
 313:Source\mbedtls_open\library/des.c ****         return;
 314:Source\mbedtls_open\library/des.c **** 
 315:Source\mbedtls_open\library/des.c ****     mbedtls_platform_zeroize( ctx, sizeof( mbedtls_des_context ) );
  68              		.loc 1 315 0
  69 0006 8021     		movs	r1, #128
  70 0008 FFF7FEFF 		bl	mbedtls_platform_zeroize
  71              	.LVL3:
  72              	.L2:
 316:Source\mbedtls_open\library/des.c **** }
  73              		.loc 1 316 0
  74              		@ sp needed
  75 000c 10BD     		pop	{r4, pc}
  76              		.cfi_endproc
  77              	.LFE2:
  78              		.size	mbedtls_des_free, .-mbedtls_des_free
  79 000e C046     		.section	.text.mbedtls_des3_init,"ax",%progbits
  80              		.align	2
  81              		.global	mbedtls_des3_init
  82              		.code	16
  83              		.thumb_func
ARM GAS  C:\Users\Phuong\AppData\Local\Temp\ccawWFGQ.s 			page 8


  84              		.type	mbedtls_des3_init, %function
  85              	mbedtls_des3_init:
  86              	.LFB3:
 317:Source\mbedtls_open\library/des.c **** 
 318:Source\mbedtls_open\library/des.c **** void mbedtls_des3_init( mbedtls_des3_context *ctx )
 319:Source\mbedtls_open\library/des.c **** {
  87              		.loc 1 319 0
  88              		.cfi_startproc
  89              		@ args = 0, pretend = 0, frame = 0
  90              		@ frame_needed = 0, uses_anonymous_args = 0
  91              	.LVL4:
  92 0000 10B5     		push	{r4, lr}
  93              		.cfi_def_cfa_offset 8
  94              		.cfi_offset 4, -8
  95              		.cfi_offset 14, -4
 320:Source\mbedtls_open\library/des.c ****     memset( ctx, 0, sizeof( mbedtls_des3_context ) );
  96              		.loc 1 320 0
  97 0002 C022     		movs	r2, #192
  98 0004 5200     		lsls	r2, r2, #1
  99 0006 0021     		movs	r1, #0
 100 0008 FFF7FEFF 		bl	memset
 101              	.LVL5:
 321:Source\mbedtls_open\library/des.c **** }
 102              		.loc 1 321 0
 103              		@ sp needed
 104 000c 10BD     		pop	{r4, pc}
 105              		.cfi_endproc
 106              	.LFE3:
 107              		.size	mbedtls_des3_init, .-mbedtls_des3_init
 108 000e C046     		.section	.text.mbedtls_des3_free,"ax",%progbits
 109              		.align	2
 110              		.global	mbedtls_des3_free
 111              		.code	16
 112              		.thumb_func
 113              		.type	mbedtls_des3_free, %function
 114              	mbedtls_des3_free:
 115              	.LFB4:
 322:Source\mbedtls_open\library/des.c **** 
 323:Source\mbedtls_open\library/des.c **** void mbedtls_des3_free( mbedtls_des3_context *ctx )
 324:Source\mbedtls_open\library/des.c **** {
 116              		.loc 1 324 0
 117              		.cfi_startproc
 118              		@ args = 0, pretend = 0, frame = 0
 119              		@ frame_needed = 0, uses_anonymous_args = 0
 120              	.LVL6:
 121 0000 10B5     		push	{r4, lr}
 122              		.cfi_def_cfa_offset 8
 123              		.cfi_offset 4, -8
 124              		.cfi_offset 14, -4
 325:Source\mbedtls_open\library/des.c ****     if( ctx == NULL )
 125              		.loc 1 325 0
 126 0002 0028     		cmp	r0, #0
 127 0004 03D0     		beq	.L5
 326:Source\mbedtls_open\library/des.c ****         return;
 327:Source\mbedtls_open\library/des.c **** 
 328:Source\mbedtls_open\library/des.c ****     mbedtls_platform_zeroize( ctx, sizeof( mbedtls_des3_context ) );
 128              		.loc 1 328 0
ARM GAS  C:\Users\Phuong\AppData\Local\Temp\ccawWFGQ.s 			page 9


 129 0006 C021     		movs	r1, #192
 130 0008 4900     		lsls	r1, r1, #1
 131 000a FFF7FEFF 		bl	mbedtls_platform_zeroize
 132              	.LVL7:
 133              	.L5:
 329:Source\mbedtls_open\library/des.c **** }
 134              		.loc 1 329 0
 135              		@ sp needed
 136 000e 10BD     		pop	{r4, pc}
 137              		.cfi_endproc
 138              	.LFE4:
 139              		.size	mbedtls_des3_free, .-mbedtls_des3_free
 140              		.section	.text.mbedtls_des_key_set_parity,"ax",%progbits
 141              		.align	2
 142              		.global	mbedtls_des_key_set_parity
 143              		.code	16
 144              		.thumb_func
 145              		.type	mbedtls_des_key_set_parity, %function
 146              	mbedtls_des_key_set_parity:
 147              	.LFB5:
 330:Source\mbedtls_open\library/des.c **** 
 331:Source\mbedtls_open\library/des.c **** static const unsigned char odd_parity_table[128] = { 1,  2,  4,  7,  8,
 332:Source\mbedtls_open\library/des.c ****         11, 13, 14, 16, 19, 21, 22, 25, 26, 28, 31, 32, 35, 37, 38, 41, 42, 44,
 333:Source\mbedtls_open\library/des.c ****         47, 49, 50, 52, 55, 56, 59, 61, 62, 64, 67, 69, 70, 73, 74, 76, 79, 81,
 334:Source\mbedtls_open\library/des.c ****         82, 84, 87, 88, 91, 93, 94, 97, 98, 100, 103, 104, 107, 109, 110, 112,
 335:Source\mbedtls_open\library/des.c ****         115, 117, 118, 121, 122, 124, 127, 128, 131, 133, 134, 137, 138, 140,
 336:Source\mbedtls_open\library/des.c ****         143, 145, 146, 148, 151, 152, 155, 157, 158, 161, 162, 164, 167, 168,
 337:Source\mbedtls_open\library/des.c ****         171, 173, 174, 176, 179, 181, 182, 185, 186, 188, 191, 193, 194, 196,
 338:Source\mbedtls_open\library/des.c ****         199, 200, 203, 205, 206, 208, 211, 213, 214, 217, 218, 220, 223, 224,
 339:Source\mbedtls_open\library/des.c ****         227, 229, 230, 233, 234, 236, 239, 241, 242, 244, 247, 248, 251, 253,
 340:Source\mbedtls_open\library/des.c ****         254 };
 341:Source\mbedtls_open\library/des.c **** 
 342:Source\mbedtls_open\library/des.c **** void mbedtls_des_key_set_parity( unsigned char key[MBEDTLS_DES_KEY_SIZE] )
 343:Source\mbedtls_open\library/des.c **** {
 148              		.loc 1 343 0
 149              		.cfi_startproc
 150              		@ args = 0, pretend = 0, frame = 0
 151              		@ frame_needed = 0, uses_anonymous_args = 0
 152              	.LVL8:
 153 0000 10B5     		push	{r4, lr}
 154              		.cfi_def_cfa_offset 8
 155              		.cfi_offset 4, -8
 156              		.cfi_offset 14, -4
 157              	.LVL9:
 344:Source\mbedtls_open\library/des.c ****     int i;
 345:Source\mbedtls_open\library/des.c **** 
 346:Source\mbedtls_open\library/des.c ****     for( i = 0; i < MBEDTLS_DES_KEY_SIZE; i++ )
 158              		.loc 1 346 0
 159 0002 0023     		movs	r3, #0
 160 0004 06E0     		b	.L8
 161              	.LVL10:
 162              	.L9:
 347:Source\mbedtls_open\library/des.c ****         key[i] = odd_parity_table[key[i] / 2];
 163              		.loc 1 347 0 discriminator 3
 164 0006 C118     		adds	r1, r0, r3
 165 0008 0A78     		ldrb	r2, [r1]
 166 000a 5208     		lsrs	r2, r2, #1
ARM GAS  C:\Users\Phuong\AppData\Local\Temp\ccawWFGQ.s 			page 10


 167 000c 034C     		ldr	r4, .L10
 168 000e A25C     		ldrb	r2, [r4, r2]
 169 0010 0A70     		strb	r2, [r1]
 346:Source\mbedtls_open\library/des.c ****         key[i] = odd_parity_table[key[i] / 2];
 170              		.loc 1 346 0 discriminator 3
 171 0012 0133     		adds	r3, r3, #1
 172              	.LVL11:
 173              	.L8:
 346:Source\mbedtls_open\library/des.c ****         key[i] = odd_parity_table[key[i] / 2];
 174              		.loc 1 346 0 is_stmt 0 discriminator 1
 175 0014 072B     		cmp	r3, #7
 176 0016 F6DD     		ble	.L9
 348:Source\mbedtls_open\library/des.c **** }
 177              		.loc 1 348 0 is_stmt 1
 178              		@ sp needed
 179 0018 10BD     		pop	{r4, pc}
 180              	.L11:
 181 001a C046     		.align	2
 182              	.L10:
 183 001c 30000000 		.word	.LANCHOR0
 184              		.cfi_endproc
 185              	.LFE5:
 186              		.size	mbedtls_des_key_set_parity, .-mbedtls_des_key_set_parity
 187              		.section	.text.mbedtls_des_key_check_key_parity,"ax",%progbits
 188              		.align	2
 189              		.global	mbedtls_des_key_check_key_parity
 190              		.code	16
 191              		.thumb_func
 192              		.type	mbedtls_des_key_check_key_parity, %function
 193              	mbedtls_des_key_check_key_parity:
 194              	.LFB6:
 349:Source\mbedtls_open\library/des.c **** 
 350:Source\mbedtls_open\library/des.c **** /*
 351:Source\mbedtls_open\library/des.c ****  * Check the given key's parity, returns 1 on failure, 0 on SUCCESS
 352:Source\mbedtls_open\library/des.c ****  */
 353:Source\mbedtls_open\library/des.c **** int mbedtls_des_key_check_key_parity( const unsigned char key[MBEDTLS_DES_KEY_SIZE] )
 354:Source\mbedtls_open\library/des.c **** {
 195              		.loc 1 354 0
 196              		.cfi_startproc
 197              		@ args = 0, pretend = 0, frame = 0
 198              		@ frame_needed = 0, uses_anonymous_args = 0
 199              	.LVL12:
 200 0000 10B5     		push	{r4, lr}
 201              		.cfi_def_cfa_offset 8
 202              		.cfi_offset 4, -8
 203              		.cfi_offset 14, -4
 204              	.LVL13:
 355:Source\mbedtls_open\library/des.c ****     int i;
 356:Source\mbedtls_open\library/des.c **** 
 357:Source\mbedtls_open\library/des.c ****     for( i = 0; i < MBEDTLS_DES_KEY_SIZE; i++ )
 205              		.loc 1 357 0
 206 0002 0023     		movs	r3, #0
 207 0004 06E0     		b	.L13
 208              	.LVL14:
 209              	.L15:
 358:Source\mbedtls_open\library/des.c ****         if( key[i] != odd_parity_table[key[i] / 2] )
 210              		.loc 1 358 0
ARM GAS  C:\Users\Phuong\AppData\Local\Temp\ccawWFGQ.s 			page 11


 211 0006 C25C     		ldrb	r2, [r0, r3]
 212 0008 5108     		lsrs	r1, r2, #1
 213 000a 054C     		ldr	r4, .L17
 214 000c 615C     		ldrb	r1, [r4, r1]
 215 000e 8A42     		cmp	r2, r1
 216 0010 04D1     		bne	.L16
 357:Source\mbedtls_open\library/des.c ****         if( key[i] != odd_parity_table[key[i] / 2] )
 217              		.loc 1 357 0 discriminator 2
 218 0012 0133     		adds	r3, r3, #1
 219              	.LVL15:
 220              	.L13:
 357:Source\mbedtls_open\library/des.c ****         if( key[i] != odd_parity_table[key[i] / 2] )
 221              		.loc 1 357 0 is_stmt 0 discriminator 1
 222 0014 072B     		cmp	r3, #7
 223 0016 F6DD     		ble	.L15
 359:Source\mbedtls_open\library/des.c ****             return( 1 );
 360:Source\mbedtls_open\library/des.c **** 
 361:Source\mbedtls_open\library/des.c ****     return( 0 );
 224              		.loc 1 361 0 is_stmt 1
 225 0018 0020     		movs	r0, #0
 226              	.LVL16:
 227 001a 00E0     		b	.L14
 228              	.LVL17:
 229              	.L16:
 359:Source\mbedtls_open\library/des.c ****             return( 1 );
 230              		.loc 1 359 0
 231 001c 0120     		movs	r0, #1
 232              	.LVL18:
 233              	.L14:
 362:Source\mbedtls_open\library/des.c **** }
 234              		.loc 1 362 0
 235              		@ sp needed
 236 001e 10BD     		pop	{r4, pc}
 237              	.L18:
 238              		.align	2
 239              	.L17:
 240 0020 30000000 		.word	.LANCHOR0
 241              		.cfi_endproc
 242              	.LFE6:
 243              		.size	mbedtls_des_key_check_key_parity, .-mbedtls_des_key_check_key_parity
 244              		.section	.text.mbedtls_des_key_check_weak,"ax",%progbits
 245              		.align	2
 246              		.global	mbedtls_des_key_check_weak
 247              		.code	16
 248              		.thumb_func
 249              		.type	mbedtls_des_key_check_weak, %function
 250              	mbedtls_des_key_check_weak:
 251              	.LFB7:
 363:Source\mbedtls_open\library/des.c **** 
 364:Source\mbedtls_open\library/des.c **** /*
 365:Source\mbedtls_open\library/des.c ****  * Table of weak and semi-weak keys
 366:Source\mbedtls_open\library/des.c ****  *
 367:Source\mbedtls_open\library/des.c ****  * Source: http://en.wikipedia.org/wiki/Weak_key
 368:Source\mbedtls_open\library/des.c ****  *
 369:Source\mbedtls_open\library/des.c ****  * Weak:
 370:Source\mbedtls_open\library/des.c ****  * Alternating ones + zeros (0x0101010101010101)
 371:Source\mbedtls_open\library/des.c ****  * Alternating 'F' + 'E' (0xFEFEFEFEFEFEFEFE)
ARM GAS  C:\Users\Phuong\AppData\Local\Temp\ccawWFGQ.s 			page 12


 372:Source\mbedtls_open\library/des.c ****  * '0xE0E0E0E0F1F1F1F1'
 373:Source\mbedtls_open\library/des.c ****  * '0x1F1F1F1F0E0E0E0E'
 374:Source\mbedtls_open\library/des.c ****  *
 375:Source\mbedtls_open\library/des.c ****  * Semi-weak:
 376:Source\mbedtls_open\library/des.c ****  * 0x011F011F010E010E and 0x1F011F010E010E01
 377:Source\mbedtls_open\library/des.c ****  * 0x01E001E001F101F1 and 0xE001E001F101F101
 378:Source\mbedtls_open\library/des.c ****  * 0x01FE01FE01FE01FE and 0xFE01FE01FE01FE01
 379:Source\mbedtls_open\library/des.c ****  * 0x1FE01FE00EF10EF1 and 0xE01FE01FF10EF10E
 380:Source\mbedtls_open\library/des.c ****  * 0x1FFE1FFE0EFE0EFE and 0xFE1FFE1FFE0EFE0E
 381:Source\mbedtls_open\library/des.c ****  * 0xE0FEE0FEF1FEF1FE and 0xFEE0FEE0FEF1FEF1
 382:Source\mbedtls_open\library/des.c ****  *
 383:Source\mbedtls_open\library/des.c ****  */
 384:Source\mbedtls_open\library/des.c **** 
 385:Source\mbedtls_open\library/des.c **** #define WEAK_KEY_COUNT 16
 386:Source\mbedtls_open\library/des.c **** 
 387:Source\mbedtls_open\library/des.c **** static const unsigned char weak_key_table[WEAK_KEY_COUNT][MBEDTLS_DES_KEY_SIZE] =
 388:Source\mbedtls_open\library/des.c **** {
 389:Source\mbedtls_open\library/des.c ****     { 0x01, 0x01, 0x01, 0x01, 0x01, 0x01, 0x01, 0x01 },
 390:Source\mbedtls_open\library/des.c ****     { 0xFE, 0xFE, 0xFE, 0xFE, 0xFE, 0xFE, 0xFE, 0xFE },
 391:Source\mbedtls_open\library/des.c ****     { 0x1F, 0x1F, 0x1F, 0x1F, 0x0E, 0x0E, 0x0E, 0x0E },
 392:Source\mbedtls_open\library/des.c ****     { 0xE0, 0xE0, 0xE0, 0xE0, 0xF1, 0xF1, 0xF1, 0xF1 },
 393:Source\mbedtls_open\library/des.c **** 
 394:Source\mbedtls_open\library/des.c ****     { 0x01, 0x1F, 0x01, 0x1F, 0x01, 0x0E, 0x01, 0x0E },
 395:Source\mbedtls_open\library/des.c ****     { 0x1F, 0x01, 0x1F, 0x01, 0x0E, 0x01, 0x0E, 0x01 },
 396:Source\mbedtls_open\library/des.c ****     { 0x01, 0xE0, 0x01, 0xE0, 0x01, 0xF1, 0x01, 0xF1 },
 397:Source\mbedtls_open\library/des.c ****     { 0xE0, 0x01, 0xE0, 0x01, 0xF1, 0x01, 0xF1, 0x01 },
 398:Source\mbedtls_open\library/des.c ****     { 0x01, 0xFE, 0x01, 0xFE, 0x01, 0xFE, 0x01, 0xFE },
 399:Source\mbedtls_open\library/des.c ****     { 0xFE, 0x01, 0xFE, 0x01, 0xFE, 0x01, 0xFE, 0x01 },
 400:Source\mbedtls_open\library/des.c ****     { 0x1F, 0xE0, 0x1F, 0xE0, 0x0E, 0xF1, 0x0E, 0xF1 },
 401:Source\mbedtls_open\library/des.c ****     { 0xE0, 0x1F, 0xE0, 0x1F, 0xF1, 0x0E, 0xF1, 0x0E },
 402:Source\mbedtls_open\library/des.c ****     { 0x1F, 0xFE, 0x1F, 0xFE, 0x0E, 0xFE, 0x0E, 0xFE },
 403:Source\mbedtls_open\library/des.c ****     { 0xFE, 0x1F, 0xFE, 0x1F, 0xFE, 0x0E, 0xFE, 0x0E },
 404:Source\mbedtls_open\library/des.c ****     { 0xE0, 0xFE, 0xE0, 0xFE, 0xF1, 0xFE, 0xF1, 0xFE },
 405:Source\mbedtls_open\library/des.c ****     { 0xFE, 0xE0, 0xFE, 0xE0, 0xFE, 0xF1, 0xFE, 0xF1 }
 406:Source\mbedtls_open\library/des.c **** };
 407:Source\mbedtls_open\library/des.c **** 
 408:Source\mbedtls_open\library/des.c **** int mbedtls_des_key_check_weak( const unsigned char key[MBEDTLS_DES_KEY_SIZE] )
 409:Source\mbedtls_open\library/des.c **** {
 252              		.loc 1 409 0
 253              		.cfi_startproc
 254              		@ args = 0, pretend = 0, frame = 0
 255              		@ frame_needed = 0, uses_anonymous_args = 0
 256              	.LVL19:
 257 0000 70B5     		push	{r4, r5, r6, lr}
 258              		.cfi_def_cfa_offset 16
 259              		.cfi_offset 4, -16
 260              		.cfi_offset 5, -12
 261              		.cfi_offset 6, -8
 262              		.cfi_offset 14, -4
 263 0002 0400     		movs	r4, r0
 264              	.LVL20:
 410:Source\mbedtls_open\library/des.c ****     int i;
 411:Source\mbedtls_open\library/des.c **** 
 412:Source\mbedtls_open\library/des.c ****     for( i = 0; i < WEAK_KEY_COUNT; i++ )
 265              		.loc 1 412 0
 266 0004 0025     		movs	r5, #0
 267 0006 09E0     		b	.L20
ARM GAS  C:\Users\Phuong\AppData\Local\Temp\ccawWFGQ.s 			page 13


 268              	.LVL21:
 269              	.L22:
 413:Source\mbedtls_open\library/des.c ****         if( memcmp( weak_key_table[i], key, MBEDTLS_DES_KEY_SIZE) == 0 )
 270              		.loc 1 413 0
 271 0008 EB00     		lsls	r3, r5, #3
 272 000a 0748     		ldr	r0, .L24
 273 000c C018     		adds	r0, r0, r3
 274 000e 0822     		movs	r2, #8
 275 0010 2100     		movs	r1, r4
 276 0012 FFF7FEFF 		bl	memcmp
 277              	.LVL22:
 278 0016 0028     		cmp	r0, #0
 279 0018 04D0     		beq	.L23
 412:Source\mbedtls_open\library/des.c ****         if( memcmp( weak_key_table[i], key, MBEDTLS_DES_KEY_SIZE) == 0 )
 280              		.loc 1 412 0 discriminator 2
 281 001a 0135     		adds	r5, r5, #1
 282              	.LVL23:
 283              	.L20:
 412:Source\mbedtls_open\library/des.c ****         if( memcmp( weak_key_table[i], key, MBEDTLS_DES_KEY_SIZE) == 0 )
 284              		.loc 1 412 0 is_stmt 0 discriminator 1
 285 001c 0F2D     		cmp	r5, #15
 286 001e F3DD     		ble	.L22
 414:Source\mbedtls_open\library/des.c ****             return( 1 );
 415:Source\mbedtls_open\library/des.c **** 
 416:Source\mbedtls_open\library/des.c ****     return( 0 );
 287              		.loc 1 416 0 is_stmt 1
 288 0020 0020     		movs	r0, #0
 289 0022 00E0     		b	.L21
 290              	.L23:
 414:Source\mbedtls_open\library/des.c ****             return( 1 );
 291              		.loc 1 414 0
 292 0024 0120     		movs	r0, #1
 293              	.L21:
 417:Source\mbedtls_open\library/des.c **** }
 294              		.loc 1 417 0
 295              		@ sp needed
 296              	.LVL24:
 297              	.LVL25:
 298 0026 70BD     		pop	{r4, r5, r6, pc}
 299              	.L25:
 300              		.align	2
 301              	.L24:
 302 0028 B0000000 		.word	.LANCHOR1
 303              		.cfi_endproc
 304              	.LFE7:
 305              		.size	mbedtls_des_key_check_weak, .-mbedtls_des_key_check_weak
 306              		.section	.text.mbedtls_des_setkey,"ax",%progbits
 307              		.align	2
 308              		.global	mbedtls_des_setkey
 309              		.code	16
 310              		.thumb_func
 311              		.type	mbedtls_des_setkey, %function
 312              	mbedtls_des_setkey:
 313              	.LFB8:
 418:Source\mbedtls_open\library/des.c **** 
 419:Source\mbedtls_open\library/des.c **** #if !defined(MBEDTLS_DES_SETKEY_ALT)
 420:Source\mbedtls_open\library/des.c **** void mbedtls_des_setkey( uint32_t SK[32], const unsigned char key[MBEDTLS_DES_KEY_SIZE] )
ARM GAS  C:\Users\Phuong\AppData\Local\Temp\ccawWFGQ.s 			page 14


 421:Source\mbedtls_open\library/des.c **** {
 314              		.loc 1 421 0
 315              		.cfi_startproc
 316              		@ args = 0, pretend = 0, frame = 0
 317              		@ frame_needed = 0, uses_anonymous_args = 0
 318              	.LVL26:
 319 0000 F0B5     		push	{r4, r5, r6, r7, lr}
 320              		.cfi_def_cfa_offset 20
 321              		.cfi_offset 4, -20
 322              		.cfi_offset 5, -16
 323              		.cfi_offset 6, -12
 324              		.cfi_offset 7, -8
 325              		.cfi_offset 14, -4
 326 0002 5F46     		mov	r7, fp
 327 0004 5646     		mov	r6, r10
 328 0006 4D46     		mov	r5, r9
 329 0008 4446     		mov	r4, r8
 330 000a F0B4     		push	{r4, r5, r6, r7}
 331              		.cfi_def_cfa_offset 36
 332              		.cfi_offset 8, -36
 333              		.cfi_offset 9, -32
 334              		.cfi_offset 10, -28
 335              		.cfi_offset 11, -24
 336 000c 8246     		mov	r10, r0
 422:Source\mbedtls_open\library/des.c ****     int i;
 423:Source\mbedtls_open\library/des.c ****     uint32_t X, Y, T;
 424:Source\mbedtls_open\library/des.c **** 
 425:Source\mbedtls_open\library/des.c ****     GET_UINT32_BE( X, key, 0 );
 337              		.loc 1 425 0
 338 000e 0B78     		ldrb	r3, [r1]
 339 0010 1C06     		lsls	r4, r3, #24
 340 0012 4B78     		ldrb	r3, [r1, #1]
 341 0014 1B04     		lsls	r3, r3, #16
 342 0016 2343     		orrs	r3, r4
 343 0018 8A78     		ldrb	r2, [r1, #2]
 344 001a 1202     		lsls	r2, r2, #8
 345 001c 1343     		orrs	r3, r2
 346 001e CC78     		ldrb	r4, [r1, #3]
 347 0020 2343     		orrs	r3, r4
 348              	.LVL27:
 426:Source\mbedtls_open\library/des.c ****     GET_UINT32_BE( Y, key, 4 );
 349              		.loc 1 426 0
 350 0022 0A79     		ldrb	r2, [r1, #4]
 351 0024 1006     		lsls	r0, r2, #24
 352              	.LVL28:
 353 0026 4A79     		ldrb	r2, [r1, #5]
 354 0028 1204     		lsls	r2, r2, #16
 355 002a 0243     		orrs	r2, r0
 356 002c 8879     		ldrb	r0, [r1, #6]
 357 002e 0002     		lsls	r0, r0, #8
 358 0030 0243     		orrs	r2, r0
 359 0032 C979     		ldrb	r1, [r1, #7]
 360              	.LVL29:
 361 0034 0A43     		orrs	r2, r1
 362              	.LVL30:
 427:Source\mbedtls_open\library/des.c **** 
 428:Source\mbedtls_open\library/des.c ****     /*
ARM GAS  C:\Users\Phuong\AppData\Local\Temp\ccawWFGQ.s 			page 15


 429:Source\mbedtls_open\library/des.c ****      * Permuted Choice 1
 430:Source\mbedtls_open\library/des.c ****      */
 431:Source\mbedtls_open\library/des.c ****     T =  ((Y >>  4) ^ X) & 0x0F0F0F0F;  X ^= T; Y ^= (T <<  4);
 363              		.loc 1 431 0
 364 0036 1009     		lsrs	r0, r2, #4
 365 0038 5840     		eors	r0, r3
 366 003a C04C     		ldr	r4, .L32
 367 003c 2040     		ands	r0, r4
 368              	.LVL31:
 369 003e 4340     		eors	r3, r0
 370              	.LVL32:
 371 0040 1C00     		movs	r4, r3
 372              	.LVL33:
 373 0042 0001     		lsls	r0, r0, #4
 374              	.LVL34:
 375 0044 4240     		eors	r2, r0
 376              	.LVL35:
 432:Source\mbedtls_open\library/des.c ****     T =  ((Y      ) ^ X) & 0x10101010;  X ^= T; Y ^= (T      );
 377              		.loc 1 432 0
 378 0046 1900     		movs	r1, r3
 379              	.LVL36:
 380 0048 5140     		eors	r1, r2
 381 004a BD4B     		ldr	r3, .L32+4
 382              	.LVL37:
 383 004c 1940     		ands	r1, r3
 384              	.LVL38:
 385 004e 2300     		movs	r3, r4
 386 0050 4B40     		eors	r3, r1
 387              	.LVL39:
 388 0052 5140     		eors	r1, r2
 389              	.LVL40:
 433:Source\mbedtls_open\library/des.c **** 
 434:Source\mbedtls_open\library/des.c ****     X =   (LHs[ (X      ) & 0xF] << 3) | (LHs[ (X >>  8) & 0xF ] << 2)
 390              		.loc 1 434 0
 391 0054 0F24     		movs	r4, #15
 392              	.LVL41:
 393 0056 2200     		movs	r2, r4
 394              	.LVL42:
 395 0058 1A40     		ands	r2, r3
 396 005a BA48     		ldr	r0, .L32+8
 397              	.LVL43:
 398 005c 9200     		lsls	r2, r2, #2
 399 005e 1558     		ldr	r5, [r2, r0]
 400 0060 ED00     		lsls	r5, r5, #3
 401 0062 1A0A     		lsrs	r2, r3, #8
 402 0064 2240     		ands	r2, r4
 403 0066 9200     		lsls	r2, r2, #2
 404 0068 1258     		ldr	r2, [r2, r0]
 405 006a 9200     		lsls	r2, r2, #2
 406 006c 1543     		orrs	r5, r2
 435:Source\mbedtls_open\library/des.c ****         | (LHs[ (X >> 16) & 0xF] << 1) | (LHs[ (X >> 24) & 0xF ]     )
 407              		.loc 1 435 0
 408 006e 1A0C     		lsrs	r2, r3, #16
 409 0070 2240     		ands	r2, r4
 410 0072 9200     		lsls	r2, r2, #2
 411 0074 1258     		ldr	r2, [r2, r0]
 412 0076 5200     		lsls	r2, r2, #1
ARM GAS  C:\Users\Phuong\AppData\Local\Temp\ccawWFGQ.s 			page 16


 413 0078 1543     		orrs	r5, r2
 414 007a 1A0E     		lsrs	r2, r3, #24
 415 007c 2240     		ands	r2, r4
 416 007e 9200     		lsls	r2, r2, #2
 417 0080 1658     		ldr	r6, [r2, r0]
 418 0082 3543     		orrs	r5, r6
 436:Source\mbedtls_open\library/des.c ****         | (LHs[ (X >>  5) & 0xF] << 7) | (LHs[ (X >> 13) & 0xF ] << 6)
 419              		.loc 1 436 0
 420 0084 5A09     		lsrs	r2, r3, #5
 421 0086 2240     		ands	r2, r4
 422 0088 9200     		lsls	r2, r2, #2
 423 008a 1258     		ldr	r2, [r2, r0]
 424 008c D201     		lsls	r2, r2, #7
 425 008e 1543     		orrs	r5, r2
 426 0090 5A0B     		lsrs	r2, r3, #13
 427 0092 2240     		ands	r2, r4
 428 0094 9200     		lsls	r2, r2, #2
 429 0096 1258     		ldr	r2, [r2, r0]
 430 0098 9201     		lsls	r2, r2, #6
 431 009a 1543     		orrs	r5, r2
 437:Source\mbedtls_open\library/des.c ****         | (LHs[ (X >> 21) & 0xF] << 5) | (LHs[ (X >> 29) & 0xF ] << 4);
 432              		.loc 1 437 0
 433 009c 5A0D     		lsrs	r2, r3, #21
 434 009e 2240     		ands	r2, r4
 435 00a0 9200     		lsls	r2, r2, #2
 436 00a2 1258     		ldr	r2, [r2, r0]
 437 00a4 5201     		lsls	r2, r2, #5
 438 00a6 1543     		orrs	r5, r2
 439 00a8 2E00     		movs	r6, r5
 440 00aa 5A0F     		lsrs	r2, r3, #29
 441 00ac 9200     		lsls	r2, r2, #2
 442 00ae 1558     		ldr	r5, [r2, r0]
 443 00b0 2D01     		lsls	r5, r5, #4
 434:Source\mbedtls_open\library/des.c ****         | (LHs[ (X >> 16) & 0xF] << 1) | (LHs[ (X >> 24) & 0xF ]     )
 444              		.loc 1 434 0
 445 00b2 3543     		orrs	r5, r6
 446              	.LVL44:
 438:Source\mbedtls_open\library/des.c **** 
 439:Source\mbedtls_open\library/des.c ****     Y =   (RHs[ (Y >>  1) & 0xF] << 3) | (RHs[ (Y >>  9) & 0xF ] << 2)
 447              		.loc 1 439 0
 448 00b4 4B08     		lsrs	r3, r1, #1
 449 00b6 2340     		ands	r3, r4
 450 00b8 9B00     		lsls	r3, r3, #2
 451 00ba C318     		adds	r3, r0, r3
 452 00bc 1A6C     		ldr	r2, [r3, #64]
 453 00be D200     		lsls	r2, r2, #3
 454 00c0 4B0A     		lsrs	r3, r1, #9
 455 00c2 2340     		ands	r3, r4
 456 00c4 9B00     		lsls	r3, r3, #2
 457 00c6 C318     		adds	r3, r0, r3
 458 00c8 1B6C     		ldr	r3, [r3, #64]
 459 00ca 9B00     		lsls	r3, r3, #2
 460 00cc 1A43     		orrs	r2, r3
 440:Source\mbedtls_open\library/des.c ****         | (RHs[ (Y >> 17) & 0xF] << 1) | (RHs[ (Y >> 25) & 0xF ]     )
 461              		.loc 1 440 0
 462 00ce 4B0C     		lsrs	r3, r1, #17
 463 00d0 2340     		ands	r3, r4
ARM GAS  C:\Users\Phuong\AppData\Local\Temp\ccawWFGQ.s 			page 17


 464 00d2 9B00     		lsls	r3, r3, #2
 465 00d4 C318     		adds	r3, r0, r3
 466 00d6 1E6C     		ldr	r6, [r3, #64]
 467 00d8 7600     		lsls	r6, r6, #1
 468 00da 3243     		orrs	r2, r6
 469 00dc 4B0E     		lsrs	r3, r1, #25
 470 00de 2340     		ands	r3, r4
 471 00e0 9B00     		lsls	r3, r3, #2
 472 00e2 C318     		adds	r3, r0, r3
 473 00e4 1B6C     		ldr	r3, [r3, #64]
 474 00e6 1343     		orrs	r3, r2
 441:Source\mbedtls_open\library/des.c ****         | (RHs[ (Y >>  4) & 0xF] << 7) | (RHs[ (Y >> 12) & 0xF ] << 6)
 475              		.loc 1 441 0
 476 00e8 0A09     		lsrs	r2, r1, #4
 477 00ea 2240     		ands	r2, r4
 478 00ec 9200     		lsls	r2, r2, #2
 479 00ee 8218     		adds	r2, r0, r2
 480 00f0 126C     		ldr	r2, [r2, #64]
 481 00f2 D201     		lsls	r2, r2, #7
 482 00f4 1343     		orrs	r3, r2
 483 00f6 0A0B     		lsrs	r2, r1, #12
 484 00f8 2240     		ands	r2, r4
 485 00fa 9200     		lsls	r2, r2, #2
 486 00fc 8218     		adds	r2, r0, r2
 487 00fe 126C     		ldr	r2, [r2, #64]
 488 0100 9201     		lsls	r2, r2, #6
 489 0102 1343     		orrs	r3, r2
 442:Source\mbedtls_open\library/des.c ****         | (RHs[ (Y >> 20) & 0xF] << 5) | (RHs[ (Y >> 28) & 0xF ] << 4);
 490              		.loc 1 442 0
 491 0104 0A0D     		lsrs	r2, r1, #20
 492 0106 1440     		ands	r4, r2
 493 0108 A400     		lsls	r4, r4, #2
 494 010a 0419     		adds	r4, r0, r4
 495 010c 226C     		ldr	r2, [r4, #64]
 496 010e 5201     		lsls	r2, r2, #5
 497 0110 1343     		orrs	r3, r2
 498 0112 1C00     		movs	r4, r3
 499 0114 0B0F     		lsrs	r3, r1, #28
 500 0116 9B00     		lsls	r3, r3, #2
 501 0118 C318     		adds	r3, r0, r3
 502 011a 1A6C     		ldr	r2, [r3, #64]
 503 011c 1201     		lsls	r2, r2, #4
 439:Source\mbedtls_open\library/des.c ****         | (RHs[ (Y >> 17) & 0xF] << 1) | (RHs[ (Y >> 25) & 0xF ]     )
 504              		.loc 1 439 0
 505 011e 2300     		movs	r3, r4
 506 0120 1343     		orrs	r3, r2
 507              	.LVL45:
 443:Source\mbedtls_open\library/des.c **** 
 444:Source\mbedtls_open\library/des.c ****     X &= 0x0FFFFFFF;
 508              		.loc 1 444 0
 509 0122 2D01     		lsls	r5, r5, #4
 510              	.LVL46:
 511 0124 2A09     		lsrs	r2, r5, #4
 512              	.LVL47:
 445:Source\mbedtls_open\library/des.c ****     Y &= 0x0FFFFFFF;
 513              		.loc 1 445 0
 514 0126 1B01     		lsls	r3, r3, #4
ARM GAS  C:\Users\Phuong\AppData\Local\Temp\ccawWFGQ.s 			page 18


 515              	.LVL48:
 516 0128 1B09     		lsrs	r3, r3, #4
 517 012a 9846     		mov	r8, r3
 518              	.LVL49:
 446:Source\mbedtls_open\library/des.c **** 
 447:Source\mbedtls_open\library/des.c ****     /*
 448:Source\mbedtls_open\library/des.c ****      * calculate subkeys
 449:Source\mbedtls_open\library/des.c ****      */
 450:Source\mbedtls_open\library/des.c ****     for( i = 0; i < 16; i++ )
 519              		.loc 1 450 0
 520 012c 0023     		movs	r3, #0
 521              	.LVL50:
 522 012e 1F00     		movs	r7, r3
 523 0130 1300     		movs	r3, r2
 524 0132 4246     		mov	r2, r8
 525              	.LVL51:
 526 0134 F9E0     		b	.L27
 527              	.LVL52:
 528              	.L31:
 451:Source\mbedtls_open\library/des.c ****     {
 452:Source\mbedtls_open\library/des.c ****         if( i < 2 || i == 8 || i == 15 )
 529              		.loc 1 452 0
 530 0136 012F     		cmp	r7, #1
 531 0138 03DD     		ble	.L28
 532              		.loc 1 452 0 is_stmt 0 discriminator 1
 533 013a 082F     		cmp	r7, #8
 534 013c 01D0     		beq	.L28
 535              		.loc 1 452 0 discriminator 2
 536 013e 0F2F     		cmp	r7, #15
 537 0140 0AD1     		bne	.L29
 538              	.L28:
 453:Source\mbedtls_open\library/des.c ****         {
 454:Source\mbedtls_open\library/des.c ****             X = ((X <<  1) | (X >> 27)) & 0x0FFFFFFF;
 539              		.loc 1 454 0 is_stmt 1
 540 0142 5900     		lsls	r1, r3, #1
 541 0144 DB0E     		lsrs	r3, r3, #27
 542              	.LVL53:
 543 0146 0B43     		orrs	r3, r1
 544 0148 1B01     		lsls	r3, r3, #4
 545 014a 1B09     		lsrs	r3, r3, #4
 546              	.LVL54:
 455:Source\mbedtls_open\library/des.c ****             Y = ((Y <<  1) | (Y >> 27)) & 0x0FFFFFFF;
 547              		.loc 1 455 0
 548 014c 5100     		lsls	r1, r2, #1
 549 014e D20E     		lsrs	r2, r2, #27
 550              	.LVL55:
 551 0150 0A43     		orrs	r2, r1
 552 0152 1201     		lsls	r2, r2, #4
 553 0154 1209     		lsrs	r2, r2, #4
 554              	.LVL56:
 555 0156 09E0     		b	.L30
 556              	.L29:
 456:Source\mbedtls_open\library/des.c ****         }
 457:Source\mbedtls_open\library/des.c ****         else
 458:Source\mbedtls_open\library/des.c ****         {
 459:Source\mbedtls_open\library/des.c ****             X = ((X <<  2) | (X >> 26)) & 0x0FFFFFFF;
 557              		.loc 1 459 0
ARM GAS  C:\Users\Phuong\AppData\Local\Temp\ccawWFGQ.s 			page 19


 558 0158 9900     		lsls	r1, r3, #2
 559 015a 9B0E     		lsrs	r3, r3, #26
 560              	.LVL57:
 561 015c 0B43     		orrs	r3, r1
 562 015e 1B01     		lsls	r3, r3, #4
 563 0160 1B09     		lsrs	r3, r3, #4
 564              	.LVL58:
 460:Source\mbedtls_open\library/des.c ****             Y = ((Y <<  2) | (Y >> 26)) & 0x0FFFFFFF;
 565              		.loc 1 460 0
 566 0162 9100     		lsls	r1, r2, #2
 567 0164 920E     		lsrs	r2, r2, #26
 568              	.LVL59:
 569 0166 0A43     		orrs	r2, r1
 570 0168 1201     		lsls	r2, r2, #4
 571 016a 1209     		lsrs	r2, r2, #4
 572              	.LVL60:
 573              	.L30:
 461:Source\mbedtls_open\library/des.c ****         }
 462:Source\mbedtls_open\library/des.c **** 
 463:Source\mbedtls_open\library/des.c ****         *SK++ =   ((X <<  4) & 0x24000000) | ((X << 28) & 0x10000000)
 574              		.loc 1 463 0 discriminator 2
 575 016c 1D01     		lsls	r5, r3, #4
 576 016e 9021     		movs	r1, #144
 577 0170 8905     		lsls	r1, r1, #22
 578 0172 0D40     		ands	r5, r1
 579 0174 1907     		lsls	r1, r3, #28
 580 0176 8024     		movs	r4, #128
 581 0178 6405     		lsls	r4, r4, #21
 582 017a 2140     		ands	r1, r4
 583 017c 0D43     		orrs	r5, r1
 464:Source\mbedtls_open\library/des.c ****                 | ((X << 14) & 0x08000000) | ((X << 18) & 0x02080000)
 584              		.loc 1 464 0 discriminator 2
 585 017e 9903     		lsls	r1, r3, #14
 586 0180 8020     		movs	r0, #128
 587 0182 0005     		lsls	r0, r0, #20
 588 0184 0140     		ands	r1, r0
 589 0186 0D43     		orrs	r5, r1
 590 0188 9904     		lsls	r1, r3, #18
 591 018a 8226     		movs	r6, #130
 592 018c B604     		lsls	r6, r6, #18
 593 018e 3140     		ands	r1, r6
 594 0190 0D43     		orrs	r5, r1
 465:Source\mbedtls_open\library/des.c ****                 | ((X <<  6) & 0x01000000) | ((X <<  9) & 0x00200000)
 595              		.loc 1 465 0 discriminator 2
 596 0192 9E01     		lsls	r6, r3, #6
 597 0194 8021     		movs	r1, #128
 598 0196 4904     		lsls	r1, r1, #17
 599 0198 0E40     		ands	r6, r1
 600 019a 3543     		orrs	r5, r6
 601 019c 5E02     		lsls	r6, r3, #9
 602 019e 8021     		movs	r1, #128
 603 01a0 8903     		lsls	r1, r1, #14
 604 01a2 0E40     		ands	r6, r1
 605 01a4 3543     		orrs	r5, r6
 466:Source\mbedtls_open\library/des.c ****                 | ((X >>  1) & 0x00100000) | ((X << 10) & 0x00040000)
 606              		.loc 1 466 0 discriminator 2
 607 01a6 5E08     		lsrs	r6, r3, #1
ARM GAS  C:\Users\Phuong\AppData\Local\Temp\ccawWFGQ.s 			page 20


 608 01a8 8021     		movs	r1, #128
 609 01aa 4903     		lsls	r1, r1, #13
 610 01ac 0E40     		ands	r6, r1
 611 01ae 3543     		orrs	r5, r6
 612 01b0 9902     		lsls	r1, r3, #10
 613 01b2 8946     		mov	r9, r1
 614 01b4 8021     		movs	r1, #128
 615 01b6 C902     		lsls	r1, r1, #11
 616 01b8 4E46     		mov	r6, r9
 617 01ba 3140     		ands	r1, r6
 618 01bc 0D43     		orrs	r5, r1
 467:Source\mbedtls_open\library/des.c ****                 | ((X <<  2) & 0x00020000) | ((X >> 10) & 0x00010000)
 619              		.loc 1 467 0 discriminator 2
 620 01be 9900     		lsls	r1, r3, #2
 621 01c0 8026     		movs	r6, #128
 622 01c2 B602     		lsls	r6, r6, #10
 623 01c4 0E40     		ands	r6, r1
 624 01c6 2900     		movs	r1, r5
 625 01c8 3143     		orrs	r1, r6
 626 01ca 9E0A     		lsrs	r6, r3, #10
 627 01cc 8025     		movs	r5, #128
 628 01ce 6D02     		lsls	r5, r5, #9
 629 01d0 2E40     		ands	r6, r5
 630 01d2 3143     		orrs	r1, r6
 631 01d4 0D00     		movs	r5, r1
 468:Source\mbedtls_open\library/des.c ****                 | ((Y >> 13) & 0x00002000) | ((Y >>  4) & 0x00001000)
 632              		.loc 1 468 0 discriminator 2
 633 01d6 510B     		lsrs	r1, r2, #13
 634 01d8 8026     		movs	r6, #128
 635 01da B601     		lsls	r6, r6, #6
 636 01dc 3140     		ands	r1, r6
 637 01de 0D43     		orrs	r5, r1
 638 01e0 2E00     		movs	r6, r5
 639 01e2 1509     		lsrs	r5, r2, #4
 640 01e4 8021     		movs	r1, #128
 641 01e6 4901     		lsls	r1, r1, #5
 642 01e8 0D40     		ands	r5, r1
 643 01ea 3100     		movs	r1, r6
 644 01ec 2943     		orrs	r1, r5
 469:Source\mbedtls_open\library/des.c ****                 | ((Y <<  6) & 0x00000800) | ((Y >>  1) & 0x00000400)
 645              		.loc 1 469 0 discriminator 2
 646 01ee 9601     		lsls	r6, r2, #6
 647 01f0 8025     		movs	r5, #128
 648 01f2 2D01     		lsls	r5, r5, #4
 649 01f4 2E40     		ands	r6, r5
 650 01f6 3143     		orrs	r1, r6
 651 01f8 0D00     		movs	r5, r1
 652 01fa 5608     		lsrs	r6, r2, #1
 653 01fc 8021     		movs	r1, #128
 654 01fe C900     		lsls	r1, r1, #3
 655 0200 0E40     		ands	r6, r1
 656 0202 2E43     		orrs	r6, r5
 470:Source\mbedtls_open\library/des.c ****                 | ((Y >> 14) & 0x00000200) | ((Y      ) & 0x00000100)
 657              		.loc 1 470 0 discriminator 2
 658 0204 910B     		lsrs	r1, r2, #14
 659 0206 8C46     		mov	ip, r1
 660 0208 8021     		movs	r1, #128
ARM GAS  C:\Users\Phuong\AppData\Local\Temp\ccawWFGQ.s 			page 21


 661 020a 8900     		lsls	r1, r1, #2
 662 020c 6546     		mov	r5, ip
 663 020e 2940     		ands	r1, r5
 664 0210 0E43     		orrs	r6, r1
 665 0212 8021     		movs	r1, #128
 666 0214 4900     		lsls	r1, r1, #1
 667 0216 1140     		ands	r1, r2
 668 0218 0E43     		orrs	r6, r1
 471:Source\mbedtls_open\library/des.c ****                 | ((Y >>  5) & 0x00000020) | ((Y >> 10) & 0x00000010)
 669              		.loc 1 471 0 discriminator 2
 670 021a 5109     		lsrs	r1, r2, #5
 671 021c 2025     		movs	r5, #32
 672 021e 0D40     		ands	r5, r1
 673 0220 3100     		movs	r1, r6
 674 0222 2943     		orrs	r1, r5
 675 0224 950A     		lsrs	r5, r2, #10
 676 0226 1026     		movs	r6, #16
 677 0228 3540     		ands	r5, r6
 678 022a 2943     		orrs	r1, r5
 679 022c 0E00     		movs	r6, r1
 472:Source\mbedtls_open\library/des.c ****                 | ((Y >>  3) & 0x00000008) | ((Y >> 18) & 0x00000004)
 680              		.loc 1 472 0 discriminator 2
 681 022e D108     		lsrs	r1, r2, #3
 682 0230 0825     		movs	r5, #8
 683 0232 0D40     		ands	r5, r1
 684 0234 3543     		orrs	r5, r6
 685 0236 960C     		lsrs	r6, r2, #18
 686 0238 0420     		movs	r0, #4
 687 023a 8046     		mov	r8, r0
 688 023c 0640     		ands	r6, r0
 689 023e 3543     		orrs	r5, r6
 473:Source\mbedtls_open\library/des.c ****                 | ((Y >> 26) & 0x00000002) | ((Y >> 24) & 0x00000001);
 690              		.loc 1 473 0 discriminator 2
 691 0240 960E     		lsrs	r6, r2, #26
 692 0242 0238     		subs	r0, r0, #2
 693 0244 0640     		ands	r6, r0
 694 0246 2E43     		orrs	r6, r5
 695 0248 150E     		lsrs	r5, r2, #24
 696 024a 0138     		subs	r0, r0, #1
 697 024c 0540     		ands	r5, r0
 698 024e 3543     		orrs	r5, r6
 463:Source\mbedtls_open\library/des.c ****                 | ((X << 14) & 0x08000000) | ((X << 18) & 0x02080000)
 699              		.loc 1 463 0 discriminator 2
 700 0250 5046     		mov	r0, r10
 701 0252 0560     		str	r5, [r0]
 702              	.LVL61:
 474:Source\mbedtls_open\library/des.c **** 
 475:Source\mbedtls_open\library/des.c ****         *SK++ =   ((X << 15) & 0x20000000) | ((X << 17) & 0x10000000)
 703              		.loc 1 475 0 discriminator 2
 704 0254 DE03     		lsls	r6, r3, #15
 705 0256 8025     		movs	r5, #128
 706 0258 AD05     		lsls	r5, r5, #22
 707 025a 3540     		ands	r5, r6
 708 025c 5804     		lsls	r0, r3, #17
 709 025e 0440     		ands	r4, r0
 710 0260 2C43     		orrs	r4, r5
 476:Source\mbedtls_open\library/des.c ****                 | ((X << 10) & 0x08000000) | ((X << 22) & 0x04000000)
ARM GAS  C:\Users\Phuong\AppData\Local\Temp\ccawWFGQ.s 			page 22


 711              		.loc 1 476 0 discriminator 2
 712 0262 4846     		mov	r0, r9
 713 0264 8025     		movs	r5, #128
 714 0266 2D05     		lsls	r5, r5, #20
 715 0268 2840     		ands	r0, r5
 716 026a 0443     		orrs	r4, r0
 717 026c 9D05     		lsls	r5, r3, #22
 718 026e 8020     		movs	r0, #128
 719 0270 C004     		lsls	r0, r0, #19
 720 0272 2840     		ands	r0, r5
 721 0274 0443     		orrs	r4, r0
 477:Source\mbedtls_open\library/des.c ****                 | ((X >>  2) & 0x02000000) | ((X <<  1) & 0x01000000)
 722              		.loc 1 477 0 discriminator 2
 723 0276 9D08     		lsrs	r5, r3, #2
 724 0278 8020     		movs	r0, #128
 725 027a 8004     		lsls	r0, r0, #18
 726 027c 2840     		ands	r0, r5
 727 027e 0443     		orrs	r4, r0
 728 0280 5D00     		lsls	r5, r3, #1
 729 0282 8020     		movs	r0, #128
 730 0284 4004     		lsls	r0, r0, #17
 731 0286 0540     		ands	r5, r0
 732 0288 2C43     		orrs	r4, r5
 478:Source\mbedtls_open\library/des.c ****                 | ((X << 16) & 0x00200000) | ((X << 11) & 0x00100000)
 733              		.loc 1 478 0 discriminator 2
 734 028a 1D04     		lsls	r5, r3, #16
 735 028c 8020     		movs	r0, #128
 736 028e 8003     		lsls	r0, r0, #14
 737 0290 0540     		ands	r5, r0
 738 0292 2C43     		orrs	r4, r5
 739 0294 DD02     		lsls	r5, r3, #11
 740 0296 8020     		movs	r0, #128
 741 0298 4003     		lsls	r0, r0, #13
 742 029a 0540     		ands	r5, r0
 743 029c 2C43     		orrs	r4, r5
 479:Source\mbedtls_open\library/des.c ****                 | ((X <<  3) & 0x00080000) | ((X >>  6) & 0x00040000)
 744              		.loc 1 479 0 discriminator 2
 745 029e D800     		lsls	r0, r3, #3
 746 02a0 8025     		movs	r5, #128
 747 02a2 2D03     		lsls	r5, r5, #12
 748 02a4 2840     		ands	r0, r5
 749 02a6 0443     		orrs	r4, r0
 750 02a8 9809     		lsrs	r0, r3, #6
 751 02aa 8025     		movs	r5, #128
 752 02ac ED02     		lsls	r5, r5, #11
 753 02ae 2840     		ands	r0, r5
 754 02b0 0443     		orrs	r4, r0
 480:Source\mbedtls_open\library/des.c ****                 | ((X << 15) & 0x00020000) | ((X >>  4) & 0x00010000)
 755              		.loc 1 480 0 discriminator 2
 756 02b2 8020     		movs	r0, #128
 757 02b4 8002     		lsls	r0, r0, #10
 758 02b6 0640     		ands	r6, r0
 759 02b8 3443     		orrs	r4, r6
 760 02ba 1809     		lsrs	r0, r3, #4
 761 02bc 8025     		movs	r5, #128
 762 02be 6D02     		lsls	r5, r5, #9
 763 02c0 2840     		ands	r0, r5
ARM GAS  C:\Users\Phuong\AppData\Local\Temp\ccawWFGQ.s 			page 23


 764 02c2 0443     		orrs	r4, r0
 481:Source\mbedtls_open\library/des.c ****                 | ((Y >>  2) & 0x00002000) | ((Y <<  8) & 0x00001000)
 765              		.loc 1 481 0 discriminator 2
 766 02c4 9508     		lsrs	r5, r2, #2
 767 02c6 8020     		movs	r0, #128
 768 02c8 8001     		lsls	r0, r0, #6
 769 02ca 0540     		ands	r5, r0
 770 02cc 2C43     		orrs	r4, r5
 771 02ce 1502     		lsls	r5, r2, #8
 772 02d0 8020     		movs	r0, #128
 773 02d2 4001     		lsls	r0, r0, #5
 774 02d4 0540     		ands	r5, r0
 775 02d6 2C43     		orrs	r4, r5
 482:Source\mbedtls_open\library/des.c ****                 | ((Y >> 14) & 0x00000808) | ((Y >>  9) & 0x00000400)
 776              		.loc 1 482 0 discriminator 2
 777 02d8 1B4D     		ldr	r5, .L32+12
 778 02da 6046     		mov	r0, ip
 779 02dc 0540     		ands	r5, r0
 780 02de 2C43     		orrs	r4, r5
 781 02e0 500A     		lsrs	r0, r2, #9
 782 02e2 8025     		movs	r5, #128
 783 02e4 ED00     		lsls	r5, r5, #3
 784 02e6 2840     		ands	r0, r5
 785 02e8 0443     		orrs	r4, r0
 483:Source\mbedtls_open\library/des.c ****                 | ((Y      ) & 0x00000200) | ((Y <<  7) & 0x00000100)
 786              		.loc 1 483 0 discriminator 2
 787 02ea 8020     		movs	r0, #128
 788 02ec 8000     		lsls	r0, r0, #2
 789 02ee 1040     		ands	r0, r2
 790 02f0 0443     		orrs	r4, r0
 791 02f2 2500     		movs	r5, r4
 792 02f4 D401     		lsls	r4, r2, #7
 793 02f6 8020     		movs	r0, #128
 794 02f8 4000     		lsls	r0, r0, #1
 795 02fa 2040     		ands	r0, r4
 796 02fc 2C00     		movs	r4, r5
 797 02fe 0443     		orrs	r4, r0
 484:Source\mbedtls_open\library/des.c ****                 | ((Y >>  7) & 0x00000020) | ((Y >>  3) & 0x00000011)
 798              		.loc 1 484 0 discriminator 2
 799 0300 D509     		lsrs	r5, r2, #7
 800 0302 2020     		movs	r0, #32
 801 0304 0540     		ands	r5, r0
 802 0306 2C43     		orrs	r4, r5
 803 0308 0F38     		subs	r0, r0, #15
 804 030a 0140     		ands	r1, r0
 805 030c 2143     		orrs	r1, r4
 485:Source\mbedtls_open\library/des.c ****                 | ((Y <<  2) & 0x00000004) | ((Y >> 21) & 0x00000002);
 806              		.loc 1 485 0 discriminator 2
 807 030e 9000     		lsls	r0, r2, #2
 808 0310 4446     		mov	r4, r8
 809 0312 2040     		ands	r0, r4
 810 0314 0143     		orrs	r1, r0
 811 0316 500D     		lsrs	r0, r2, #21
 812 0318 023C     		subs	r4, r4, #2
 813 031a 2040     		ands	r0, r4
 814 031c 0143     		orrs	r1, r0
 475:Source\mbedtls_open\library/des.c ****                 | ((X << 10) & 0x08000000) | ((X << 22) & 0x04000000)
ARM GAS  C:\Users\Phuong\AppData\Local\Temp\ccawWFGQ.s 			page 24


 815              		.loc 1 475 0 discriminator 2
 816 031e 5046     		mov	r0, r10
 817 0320 4160     		str	r1, [r0, #4]
 450:Source\mbedtls_open\library/des.c ****     {
 818              		.loc 1 450 0 discriminator 2
 819 0322 0137     		adds	r7, r7, #1
 820              	.LVL62:
 475:Source\mbedtls_open\library/des.c ****                 | ((X << 10) & 0x08000000) | ((X << 22) & 0x04000000)
 821              		.loc 1 475 0 discriminator 2
 822 0324 0821     		movs	r1, #8
 823 0326 8C46     		mov	ip, r1
 824 0328 E244     		add	r10, r10, ip
 825              	.LVL63:
 826              	.L27:
 450:Source\mbedtls_open\library/des.c ****     {
 827              		.loc 1 450 0 discriminator 1
 828 032a 0F2F     		cmp	r7, #15
 829 032c 00DC     		bgt	.LCB771
 830 032e 02E7     		b	.L31	@long jump
 831              	.LCB771:
 486:Source\mbedtls_open\library/des.c ****     }
 487:Source\mbedtls_open\library/des.c **** }
 832              		.loc 1 487 0
 833              		@ sp needed
 834              	.LVL64:
 835              	.LVL65:
 836 0330 3CBC     		pop	{r2, r3, r4, r5}
 837 0332 9046     		mov	r8, r2
 838 0334 9946     		mov	r9, r3
 839 0336 A246     		mov	r10, r4
 840 0338 AB46     		mov	fp, r5
 841 033a F0BD     		pop	{r4, r5, r6, r7, pc}
 842              	.L33:
 843              		.align	2
 844              	.L32:
 845 033c 0F0F0F0F 		.word	252645135
 846 0340 10101010 		.word	269488144
 847 0344 30010000 		.word	.LANCHOR2
 848 0348 08080000 		.word	2056
 849              		.cfi_endproc
 850              	.LFE8:
 851              		.size	mbedtls_des_setkey, .-mbedtls_des_setkey
 852              		.section	.text.des3_set2key,"ax",%progbits
 853              		.align	2
 854              		.code	16
 855              		.thumb_func
 856              		.type	des3_set2key, %function
 857              	des3_set2key:
 858              	.LFB11:
 488:Source\mbedtls_open\library/des.c **** #endif /* !MBEDTLS_DES_SETKEY_ALT */
 489:Source\mbedtls_open\library/des.c **** 
 490:Source\mbedtls_open\library/des.c **** /*
 491:Source\mbedtls_open\library/des.c ****  * DES key schedule (56-bit, encryption)
 492:Source\mbedtls_open\library/des.c ****  */
 493:Source\mbedtls_open\library/des.c **** int mbedtls_des_setkey_enc( mbedtls_des_context *ctx, const unsigned char key[MBEDTLS_DES_KEY_SIZE]
 494:Source\mbedtls_open\library/des.c **** {
 495:Source\mbedtls_open\library/des.c ****     mbedtls_des_setkey( ctx->sk, key );
ARM GAS  C:\Users\Phuong\AppData\Local\Temp\ccawWFGQ.s 			page 25


 496:Source\mbedtls_open\library/des.c **** 
 497:Source\mbedtls_open\library/des.c ****     return( 0 );
 498:Source\mbedtls_open\library/des.c **** }
 499:Source\mbedtls_open\library/des.c **** 
 500:Source\mbedtls_open\library/des.c **** /*
 501:Source\mbedtls_open\library/des.c ****  * DES key schedule (56-bit, decryption)
 502:Source\mbedtls_open\library/des.c ****  */
 503:Source\mbedtls_open\library/des.c **** int mbedtls_des_setkey_dec( mbedtls_des_context *ctx, const unsigned char key[MBEDTLS_DES_KEY_SIZE]
 504:Source\mbedtls_open\library/des.c **** {
 505:Source\mbedtls_open\library/des.c ****     int i;
 506:Source\mbedtls_open\library/des.c **** 
 507:Source\mbedtls_open\library/des.c ****     mbedtls_des_setkey( ctx->sk, key );
 508:Source\mbedtls_open\library/des.c **** 
 509:Source\mbedtls_open\library/des.c ****     for( i = 0; i < 16; i += 2 )
 510:Source\mbedtls_open\library/des.c ****     {
 511:Source\mbedtls_open\library/des.c ****         SWAP( ctx->sk[i    ], ctx->sk[30 - i] );
 512:Source\mbedtls_open\library/des.c ****         SWAP( ctx->sk[i + 1], ctx->sk[31 - i] );
 513:Source\mbedtls_open\library/des.c ****     }
 514:Source\mbedtls_open\library/des.c **** 
 515:Source\mbedtls_open\library/des.c ****     return( 0 );
 516:Source\mbedtls_open\library/des.c **** }
 517:Source\mbedtls_open\library/des.c **** 
 518:Source\mbedtls_open\library/des.c **** static void des3_set2key( uint32_t esk[96],
 519:Source\mbedtls_open\library/des.c ****                           uint32_t dsk[96],
 520:Source\mbedtls_open\library/des.c ****                           const unsigned char key[MBEDTLS_DES_KEY_SIZE*2] )
 521:Source\mbedtls_open\library/des.c **** {
 859              		.loc 1 521 0
 860              		.cfi_startproc
 861              		@ args = 0, pretend = 0, frame = 0
 862              		@ frame_needed = 0, uses_anonymous_args = 0
 863              	.LVL66:
 864 0000 F0B5     		push	{r4, r5, r6, r7, lr}
 865              		.cfi_def_cfa_offset 20
 866              		.cfi_offset 4, -20
 867              		.cfi_offset 5, -16
 868              		.cfi_offset 6, -12
 869              		.cfi_offset 7, -8
 870              		.cfi_offset 14, -4
 871 0002 4746     		mov	r7, r8
 872 0004 80B4     		push	{r7}
 873              		.cfi_def_cfa_offset 24
 874              		.cfi_offset 8, -24
 875 0006 0400     		movs	r4, r0
 876 0008 0D00     		movs	r5, r1
 877 000a 1600     		movs	r6, r2
 522:Source\mbedtls_open\library/des.c ****     int i;
 523:Source\mbedtls_open\library/des.c **** 
 524:Source\mbedtls_open\library/des.c ****     mbedtls_des_setkey( esk, key );
 878              		.loc 1 524 0
 879 000c 1100     		movs	r1, r2
 880              	.LVL67:
 881 000e FFF7FEFF 		bl	mbedtls_des_setkey
 882              	.LVL68:
 525:Source\mbedtls_open\library/des.c ****     mbedtls_des_setkey( dsk + 32, key + 8 );
 883              		.loc 1 525 0
 884 0012 3100     		movs	r1, r6
 885 0014 0831     		adds	r1, r1, #8
ARM GAS  C:\Users\Phuong\AppData\Local\Temp\ccawWFGQ.s 			page 26


 886 0016 2800     		movs	r0, r5
 887 0018 8030     		adds	r0, r0, #128
 888 001a FFF7FEFF 		bl	mbedtls_des_setkey
 889              	.LVL69:
 526:Source\mbedtls_open\library/des.c **** 
 527:Source\mbedtls_open\library/des.c ****     for( i = 0; i < 32; i += 2 )
 890              		.loc 1 527 0
 891 001e 0023     		movs	r3, #0
 892 0020 35E0     		b	.L35
 893              	.LVL70:
 894              	.L36:
 528:Source\mbedtls_open\library/des.c ****     {
 529:Source\mbedtls_open\library/des.c ****         dsk[i     ] = esk[30 - i];
 895              		.loc 1 529 0 discriminator 3
 896 0022 9F00     		lsls	r7, r3, #2
 897 0024 EE19     		adds	r6, r5, r7
 898 0026 1E22     		movs	r2, #30
 899 0028 D21A     		subs	r2, r2, r3
 900 002a 9200     		lsls	r2, r2, #2
 901 002c 1259     		ldr	r2, [r2, r4]
 902 002e 3260     		str	r2, [r6]
 530:Source\mbedtls_open\library/des.c ****         dsk[i +  1] = esk[31 - i];
 903              		.loc 1 530 0 discriminator 3
 904 0030 591C     		adds	r1, r3, #1
 905 0032 8A00     		lsls	r2, r1, #2
 906 0034 9046     		mov	r8, r2
 907 0036 A818     		adds	r0, r5, r2
 908 0038 1F22     		movs	r2, #31
 909 003a D21A     		subs	r2, r2, r3
 910 003c 9200     		lsls	r2, r2, #2
 911 003e 1259     		ldr	r2, [r2, r4]
 912 0040 0260     		str	r2, [r0]
 531:Source\mbedtls_open\library/des.c **** 
 532:Source\mbedtls_open\library/des.c ****         esk[i + 32] = dsk[62 - i];
 913              		.loc 1 532 0 discriminator 3
 914 0042 1A00     		movs	r2, r3
 915 0044 2032     		adds	r2, r2, #32
 916 0046 9200     		lsls	r2, r2, #2
 917 0048 9446     		mov	ip, r2
 918 004a 3E22     		movs	r2, #62
 919 004c D21A     		subs	r2, r2, r3
 920 004e 9200     		lsls	r2, r2, #2
 921 0050 6146     		mov	r1, ip
 922 0052 5259     		ldr	r2, [r2, r5]
 923 0054 6250     		str	r2, [r4, r1]
 533:Source\mbedtls_open\library/des.c ****         esk[i + 33] = dsk[63 - i];
 924              		.loc 1 533 0 discriminator 3
 925 0056 1A00     		movs	r2, r3
 926 0058 2132     		adds	r2, r2, #33
 927 005a 9200     		lsls	r2, r2, #2
 928 005c 9446     		mov	ip, r2
 929 005e 3F22     		movs	r2, #63
 930 0060 D21A     		subs	r2, r2, r3
 931 0062 9200     		lsls	r2, r2, #2
 932 0064 6146     		mov	r1, ip
 933 0066 5259     		ldr	r2, [r2, r5]
 934 0068 6250     		str	r2, [r4, r1]
ARM GAS  C:\Users\Phuong\AppData\Local\Temp\ccawWFGQ.s 			page 27


 534:Source\mbedtls_open\library/des.c **** 
 535:Source\mbedtls_open\library/des.c ****         esk[i + 64] = esk[i    ];
 935              		.loc 1 535 0 discriminator 3
 936 006a 1A00     		movs	r2, r3
 937 006c 4032     		adds	r2, r2, #64
 938 006e 9200     		lsls	r2, r2, #2
 939 0070 9446     		mov	ip, r2
 940 0072 E159     		ldr	r1, [r4, r7]
 941 0074 A150     		str	r1, [r4, r2]
 536:Source\mbedtls_open\library/des.c ****         esk[i + 65] = esk[i + 1];
 942              		.loc 1 536 0 discriminator 3
 943 0076 1A00     		movs	r2, r3
 944 0078 4132     		adds	r2, r2, #65
 945 007a 9200     		lsls	r2, r2, #2
 946 007c 4146     		mov	r1, r8
 947 007e 6158     		ldr	r1, [r4, r1]
 948 0080 A150     		str	r1, [r4, r2]
 537:Source\mbedtls_open\library/des.c **** 
 538:Source\mbedtls_open\library/des.c ****         dsk[i + 64] = dsk[i    ];
 949              		.loc 1 538 0 discriminator 3
 950 0082 6146     		mov	r1, ip
 951 0084 3668     		ldr	r6, [r6]
 952 0086 6E50     		str	r6, [r5, r1]
 539:Source\mbedtls_open\library/des.c ****         dsk[i + 65] = dsk[i + 1];
 953              		.loc 1 539 0 discriminator 3
 954 0088 0168     		ldr	r1, [r0]
 955 008a A950     		str	r1, [r5, r2]
 527:Source\mbedtls_open\library/des.c ****     {
 956              		.loc 1 527 0 discriminator 3
 957 008c 0233     		adds	r3, r3, #2
 958              	.LVL71:
 959              	.L35:
 527:Source\mbedtls_open\library/des.c ****     {
 960              		.loc 1 527 0 is_stmt 0 discriminator 1
 961 008e 1F2B     		cmp	r3, #31
 962 0090 C7DD     		ble	.L36
 540:Source\mbedtls_open\library/des.c ****     }
 541:Source\mbedtls_open\library/des.c **** }
 963              		.loc 1 541 0 is_stmt 1
 964              		@ sp needed
 965              	.LVL72:
 966              	.LVL73:
 967 0092 04BC     		pop	{r2}
 968 0094 9046     		mov	r8, r2
 969 0096 F0BD     		pop	{r4, r5, r6, r7, pc}
 970              		.cfi_endproc
 971              	.LFE11:
 972              		.size	des3_set2key, .-des3_set2key
 973              		.section	.text.des3_set3key,"ax",%progbits
 974              		.align	2
 975              		.code	16
 976              		.thumb_func
 977              		.type	des3_set3key, %function
 978              	des3_set3key:
 979              	.LFB14:
 542:Source\mbedtls_open\library/des.c **** 
 543:Source\mbedtls_open\library/des.c **** /*
ARM GAS  C:\Users\Phuong\AppData\Local\Temp\ccawWFGQ.s 			page 28


 544:Source\mbedtls_open\library/des.c ****  * Triple-DES key schedule (112-bit, encryption)
 545:Source\mbedtls_open\library/des.c ****  */
 546:Source\mbedtls_open\library/des.c **** int mbedtls_des3_set2key_enc( mbedtls_des3_context *ctx,
 547:Source\mbedtls_open\library/des.c ****                       const unsigned char key[MBEDTLS_DES_KEY_SIZE * 2] )
 548:Source\mbedtls_open\library/des.c **** {
 549:Source\mbedtls_open\library/des.c ****     uint32_t sk[96];
 550:Source\mbedtls_open\library/des.c **** 
 551:Source\mbedtls_open\library/des.c ****     des3_set2key( ctx->sk, sk, key );
 552:Source\mbedtls_open\library/des.c ****     mbedtls_platform_zeroize( sk,  sizeof( sk ) );
 553:Source\mbedtls_open\library/des.c **** 
 554:Source\mbedtls_open\library/des.c ****     return( 0 );
 555:Source\mbedtls_open\library/des.c **** }
 556:Source\mbedtls_open\library/des.c **** 
 557:Source\mbedtls_open\library/des.c **** /*
 558:Source\mbedtls_open\library/des.c ****  * Triple-DES key schedule (112-bit, decryption)
 559:Source\mbedtls_open\library/des.c ****  */
 560:Source\mbedtls_open\library/des.c **** int mbedtls_des3_set2key_dec( mbedtls_des3_context *ctx,
 561:Source\mbedtls_open\library/des.c ****                       const unsigned char key[MBEDTLS_DES_KEY_SIZE * 2] )
 562:Source\mbedtls_open\library/des.c **** {
 563:Source\mbedtls_open\library/des.c ****     uint32_t sk[96];
 564:Source\mbedtls_open\library/des.c **** 
 565:Source\mbedtls_open\library/des.c ****     des3_set2key( sk, ctx->sk, key );
 566:Source\mbedtls_open\library/des.c ****     mbedtls_platform_zeroize( sk,  sizeof( sk ) );
 567:Source\mbedtls_open\library/des.c **** 
 568:Source\mbedtls_open\library/des.c ****     return( 0 );
 569:Source\mbedtls_open\library/des.c **** }
 570:Source\mbedtls_open\library/des.c **** 
 571:Source\mbedtls_open\library/des.c **** static void des3_set3key( uint32_t esk[96],
 572:Source\mbedtls_open\library/des.c ****                           uint32_t dsk[96],
 573:Source\mbedtls_open\library/des.c ****                           const unsigned char key[24] )
 574:Source\mbedtls_open\library/des.c **** {
 980              		.loc 1 574 0
 981              		.cfi_startproc
 982              		@ args = 0, pretend = 0, frame = 0
 983              		@ frame_needed = 0, uses_anonymous_args = 0
 984              	.LVL74:
 985 0000 70B5     		push	{r4, r5, r6, lr}
 986              		.cfi_def_cfa_offset 16
 987              		.cfi_offset 4, -16
 988              		.cfi_offset 5, -12
 989              		.cfi_offset 6, -8
 990              		.cfi_offset 14, -4
 991 0002 0400     		movs	r4, r0
 992 0004 0D00     		movs	r5, r1
 993 0006 1600     		movs	r6, r2
 575:Source\mbedtls_open\library/des.c ****     int i;
 576:Source\mbedtls_open\library/des.c **** 
 577:Source\mbedtls_open\library/des.c ****     mbedtls_des_setkey( esk, key );
 994              		.loc 1 577 0
 995 0008 1100     		movs	r1, r2
 996              	.LVL75:
 997 000a FFF7FEFF 		bl	mbedtls_des_setkey
 998              	.LVL76:
 578:Source\mbedtls_open\library/des.c ****     mbedtls_des_setkey( dsk + 32, key +  8 );
 999              		.loc 1 578 0
 1000 000e 3100     		movs	r1, r6
 1001 0010 0831     		adds	r1, r1, #8
ARM GAS  C:\Users\Phuong\AppData\Local\Temp\ccawWFGQ.s 			page 29


 1002 0012 2800     		movs	r0, r5
 1003 0014 8030     		adds	r0, r0, #128
 1004 0016 FFF7FEFF 		bl	mbedtls_des_setkey
 1005              	.LVL77:
 579:Source\mbedtls_open\library/des.c ****     mbedtls_des_setkey( esk + 64, key + 16 );
 1006              		.loc 1 579 0
 1007 001a 3100     		movs	r1, r6
 1008 001c 1031     		adds	r1, r1, #16
 1009 001e 601C     		adds	r0, r4, #1
 1010 0020 FF30     		adds	r0, r0, #255
 1011 0022 FFF7FEFF 		bl	mbedtls_des_setkey
 1012              	.LVL78:
 580:Source\mbedtls_open\library/des.c **** 
 581:Source\mbedtls_open\library/des.c ****     for( i = 0; i < 32; i += 2 )
 1013              		.loc 1 581 0
 1014 0026 0023     		movs	r3, #0
 1015 0028 2DE0     		b	.L38
 1016              	.LVL79:
 1017              	.L39:
 582:Source\mbedtls_open\library/des.c ****     {
 583:Source\mbedtls_open\library/des.c ****         dsk[i     ] = esk[94 - i];
 1018              		.loc 1 583 0 discriminator 3
 1019 002a 9900     		lsls	r1, r3, #2
 1020 002c 5E22     		movs	r2, #94
 1021 002e D21A     		subs	r2, r2, r3
 1022 0030 9200     		lsls	r2, r2, #2
 1023 0032 1259     		ldr	r2, [r2, r4]
 1024 0034 6A50     		str	r2, [r5, r1]
 584:Source\mbedtls_open\library/des.c ****         dsk[i +  1] = esk[95 - i];
 1025              		.loc 1 584 0 discriminator 3
 1026 0036 591C     		adds	r1, r3, #1
 1027 0038 8900     		lsls	r1, r1, #2
 1028 003a 5F22     		movs	r2, #95
 1029 003c D21A     		subs	r2, r2, r3
 1030 003e 9200     		lsls	r2, r2, #2
 1031 0040 1259     		ldr	r2, [r2, r4]
 1032 0042 6A50     		str	r2, [r5, r1]
 585:Source\mbedtls_open\library/des.c **** 
 586:Source\mbedtls_open\library/des.c ****         esk[i + 32] = dsk[62 - i];
 1033              		.loc 1 586 0 discriminator 3
 1034 0044 1900     		movs	r1, r3
 1035 0046 2031     		adds	r1, r1, #32
 1036 0048 8900     		lsls	r1, r1, #2
 1037 004a 3E22     		movs	r2, #62
 1038 004c D21A     		subs	r2, r2, r3
 1039 004e 9200     		lsls	r2, r2, #2
 1040 0050 5259     		ldr	r2, [r2, r5]
 1041 0052 6250     		str	r2, [r4, r1]
 587:Source\mbedtls_open\library/des.c ****         esk[i + 33] = dsk[63 - i];
 1042              		.loc 1 587 0 discriminator 3
 1043 0054 1900     		movs	r1, r3
 1044 0056 2131     		adds	r1, r1, #33
 1045 0058 8900     		lsls	r1, r1, #2
 1046 005a 3F22     		movs	r2, #63
 1047 005c D21A     		subs	r2, r2, r3
 1048 005e 9200     		lsls	r2, r2, #2
 1049 0060 5259     		ldr	r2, [r2, r5]
ARM GAS  C:\Users\Phuong\AppData\Local\Temp\ccawWFGQ.s 			page 30


 1050 0062 6250     		str	r2, [r4, r1]
 588:Source\mbedtls_open\library/des.c **** 
 589:Source\mbedtls_open\library/des.c ****         dsk[i + 64] = esk[30 - i];
 1051              		.loc 1 589 0 discriminator 3
 1052 0064 1900     		movs	r1, r3
 1053 0066 4031     		adds	r1, r1, #64
 1054 0068 8900     		lsls	r1, r1, #2
 1055 006a 1E22     		movs	r2, #30
 1056 006c D21A     		subs	r2, r2, r3
 1057 006e 9200     		lsls	r2, r2, #2
 1058 0070 1259     		ldr	r2, [r2, r4]
 1059 0072 6A50     		str	r2, [r5, r1]
 590:Source\mbedtls_open\library/des.c ****         dsk[i + 65] = esk[31 - i];
 1060              		.loc 1 590 0 discriminator 3
 1061 0074 1900     		movs	r1, r3
 1062 0076 4131     		adds	r1, r1, #65
 1063 0078 8900     		lsls	r1, r1, #2
 1064 007a 1F22     		movs	r2, #31
 1065 007c D21A     		subs	r2, r2, r3
 1066 007e 9200     		lsls	r2, r2, #2
 1067 0080 1259     		ldr	r2, [r2, r4]
 1068 0082 6A50     		str	r2, [r5, r1]
 581:Source\mbedtls_open\library/des.c ****     {
 1069              		.loc 1 581 0 discriminator 3
 1070 0084 0233     		adds	r3, r3, #2
 1071              	.LVL80:
 1072              	.L38:
 581:Source\mbedtls_open\library/des.c ****     {
 1073              		.loc 1 581 0 is_stmt 0 discriminator 1
 1074 0086 1F2B     		cmp	r3, #31
 1075 0088 CFDD     		ble	.L39
 591:Source\mbedtls_open\library/des.c ****     }
 592:Source\mbedtls_open\library/des.c **** }
 1076              		.loc 1 592 0 is_stmt 1
 1077              		@ sp needed
 1078              	.LVL81:
 1079              	.LVL82:
 1080              	.LVL83:
 1081 008a 70BD     		pop	{r4, r5, r6, pc}
 1082              		.cfi_endproc
 1083              	.LFE14:
 1084              		.size	des3_set3key, .-des3_set3key
 1085              		.section	.text.mbedtls_des_setkey_enc,"ax",%progbits
 1086              		.align	2
 1087              		.global	mbedtls_des_setkey_enc
 1088              		.code	16
 1089              		.thumb_func
 1090              		.type	mbedtls_des_setkey_enc, %function
 1091              	mbedtls_des_setkey_enc:
 1092              	.LFB9:
 494:Source\mbedtls_open\library/des.c ****     mbedtls_des_setkey( ctx->sk, key );
 1093              		.loc 1 494 0
 1094              		.cfi_startproc
 1095              		@ args = 0, pretend = 0, frame = 0
 1096              		@ frame_needed = 0, uses_anonymous_args = 0
 1097              	.LVL84:
 1098 0000 10B5     		push	{r4, lr}
ARM GAS  C:\Users\Phuong\AppData\Local\Temp\ccawWFGQ.s 			page 31


 1099              		.cfi_def_cfa_offset 8
 1100              		.cfi_offset 4, -8
 1101              		.cfi_offset 14, -4
 495:Source\mbedtls_open\library/des.c **** 
 1102              		.loc 1 495 0
 1103 0002 FFF7FEFF 		bl	mbedtls_des_setkey
 1104              	.LVL85:
 498:Source\mbedtls_open\library/des.c **** 
 1105              		.loc 1 498 0
 1106 0006 0020     		movs	r0, #0
 1107              		@ sp needed
 1108 0008 10BD     		pop	{r4, pc}
 1109              		.cfi_endproc
 1110              	.LFE9:
 1111              		.size	mbedtls_des_setkey_enc, .-mbedtls_des_setkey_enc
 1112 000a C046     		.section	.text.mbedtls_des_setkey_dec,"ax",%progbits
 1113              		.align	2
 1114              		.global	mbedtls_des_setkey_dec
 1115              		.code	16
 1116              		.thumb_func
 1117              		.type	mbedtls_des_setkey_dec, %function
 1118              	mbedtls_des_setkey_dec:
 1119              	.LFB10:
 504:Source\mbedtls_open\library/des.c ****     int i;
 1120              		.loc 1 504 0
 1121              		.cfi_startproc
 1122              		@ args = 0, pretend = 0, frame = 0
 1123              		@ frame_needed = 0, uses_anonymous_args = 0
 1124              	.LVL86:
 1125 0000 70B5     		push	{r4, r5, r6, lr}
 1126              		.cfi_def_cfa_offset 16
 1127              		.cfi_offset 4, -16
 1128              		.cfi_offset 5, -12
 1129              		.cfi_offset 6, -8
 1130              		.cfi_offset 14, -4
 1131 0002 0400     		movs	r4, r0
 507:Source\mbedtls_open\library/des.c **** 
 1132              		.loc 1 507 0
 1133 0004 FFF7FEFF 		bl	mbedtls_des_setkey
 1134              	.LVL87:
 509:Source\mbedtls_open\library/des.c ****     {
 1135              		.loc 1 509 0
 1136 0008 0023     		movs	r3, #0
 1137 000a 11E0     		b	.L42
 1138              	.LVL88:
 1139              	.L43:
 1140              	.LBB2:
 511:Source\mbedtls_open\library/des.c ****         SWAP( ctx->sk[i + 1], ctx->sk[31 - i] );
 1141              		.loc 1 511 0 discriminator 3
 1142 000c 9900     		lsls	r1, r3, #2
 1143 000e 0859     		ldr	r0, [r1, r4]
 1144              	.LVL89:
 1145 0010 1E22     		movs	r2, #30
 1146 0012 D21A     		subs	r2, r2, r3
 1147 0014 9200     		lsls	r2, r2, #2
 1148 0016 1559     		ldr	r5, [r2, r4]
 1149 0018 0D51     		str	r5, [r1, r4]
ARM GAS  C:\Users\Phuong\AppData\Local\Temp\ccawWFGQ.s 			page 32


 1150 001a 1051     		str	r0, [r2, r4]
 1151              	.LVL90:
 1152              	.LBE2:
 1153              	.LBB3:
 512:Source\mbedtls_open\library/des.c ****     }
 1154              		.loc 1 512 0 discriminator 3
 1155 001c 591C     		adds	r1, r3, #1
 1156 001e 8900     		lsls	r1, r1, #2
 1157 0020 0859     		ldr	r0, [r1, r4]
 1158              	.LVL91:
 1159 0022 1F22     		movs	r2, #31
 1160 0024 D21A     		subs	r2, r2, r3
 1161 0026 9200     		lsls	r2, r2, #2
 1162 0028 1559     		ldr	r5, [r2, r4]
 1163 002a 0D51     		str	r5, [r1, r4]
 1164 002c 1051     		str	r0, [r2, r4]
 1165              	.LVL92:
 1166              	.LBE3:
 509:Source\mbedtls_open\library/des.c ****     {
 1167              		.loc 1 509 0 discriminator 3
 1168 002e 0233     		adds	r3, r3, #2
 1169              	.LVL93:
 1170              	.L42:
 509:Source\mbedtls_open\library/des.c ****     {
 1171              		.loc 1 509 0 is_stmt 0 discriminator 1
 1172 0030 0F2B     		cmp	r3, #15
 1173 0032 EBDD     		ble	.L43
 516:Source\mbedtls_open\library/des.c **** 
 1174              		.loc 1 516 0 is_stmt 1
 1175 0034 0020     		movs	r0, #0
 1176              		@ sp needed
 1177              	.LVL94:
 1178 0036 70BD     		pop	{r4, r5, r6, pc}
 1179              		.cfi_endproc
 1180              	.LFE10:
 1181              		.size	mbedtls_des_setkey_dec, .-mbedtls_des_setkey_dec
 1182              		.section	.text.mbedtls_des3_set2key_enc,"ax",%progbits
 1183              		.align	2
 1184              		.global	mbedtls_des3_set2key_enc
 1185              		.code	16
 1186              		.thumb_func
 1187              		.type	mbedtls_des3_set2key_enc, %function
 1188              	mbedtls_des3_set2key_enc:
 1189              	.LFB12:
 548:Source\mbedtls_open\library/des.c ****     uint32_t sk[96];
 1190              		.loc 1 548 0
 1191              		.cfi_startproc
 1192              		@ args = 0, pretend = 0, frame = 384
 1193              		@ frame_needed = 0, uses_anonymous_args = 0
 1194              	.LVL95:
 1195 0000 00B5     		push	{lr}
 1196              		.cfi_def_cfa_offset 4
 1197              		.cfi_offset 14, -4
 1198 0002 E1B0     		sub	sp, sp, #388
 1199              		.cfi_def_cfa_offset 392
 1200 0004 0A00     		movs	r2, r1
 551:Source\mbedtls_open\library/des.c ****     mbedtls_platform_zeroize( sk,  sizeof( sk ) );
ARM GAS  C:\Users\Phuong\AppData\Local\Temp\ccawWFGQ.s 			page 33


 1201              		.loc 1 551 0
 1202 0006 6946     		mov	r1, sp
 1203              	.LVL96:
 1204 0008 FFF7FEFF 		bl	des3_set2key
 1205              	.LVL97:
 552:Source\mbedtls_open\library/des.c **** 
 1206              		.loc 1 552 0
 1207 000c C021     		movs	r1, #192
 1208 000e 4900     		lsls	r1, r1, #1
 1209 0010 6846     		mov	r0, sp
 1210 0012 FFF7FEFF 		bl	mbedtls_platform_zeroize
 1211              	.LVL98:
 555:Source\mbedtls_open\library/des.c **** 
 1212              		.loc 1 555 0
 1213 0016 0020     		movs	r0, #0
 1214 0018 61B0     		add	sp, sp, #388
 1215              		@ sp needed
 1216 001a 00BD     		pop	{pc}
 1217              		.cfi_endproc
 1218              	.LFE12:
 1219              		.size	mbedtls_des3_set2key_enc, .-mbedtls_des3_set2key_enc
 1220              		.section	.text.mbedtls_des3_set2key_dec,"ax",%progbits
 1221              		.align	2
 1222              		.global	mbedtls_des3_set2key_dec
 1223              		.code	16
 1224              		.thumb_func
 1225              		.type	mbedtls_des3_set2key_dec, %function
 1226              	mbedtls_des3_set2key_dec:
 1227              	.LFB13:
 562:Source\mbedtls_open\library/des.c ****     uint32_t sk[96];
 1228              		.loc 1 562 0
 1229              		.cfi_startproc
 1230              		@ args = 0, pretend = 0, frame = 384
 1231              		@ frame_needed = 0, uses_anonymous_args = 0
 1232              	.LVL99:
 1233 0000 00B5     		push	{lr}
 1234              		.cfi_def_cfa_offset 4
 1235              		.cfi_offset 14, -4
 1236 0002 E1B0     		sub	sp, sp, #388
 1237              		.cfi_def_cfa_offset 392
 1238 0004 0A00     		movs	r2, r1
 565:Source\mbedtls_open\library/des.c ****     mbedtls_platform_zeroize( sk,  sizeof( sk ) );
 1239              		.loc 1 565 0
 1240 0006 0100     		movs	r1, r0
 1241              	.LVL100:
 1242 0008 6846     		mov	r0, sp
 1243              	.LVL101:
 1244 000a FFF7FEFF 		bl	des3_set2key
 1245              	.LVL102:
 566:Source\mbedtls_open\library/des.c **** 
 1246              		.loc 1 566 0
 1247 000e C021     		movs	r1, #192
 1248 0010 4900     		lsls	r1, r1, #1
 1249 0012 6846     		mov	r0, sp
 1250 0014 FFF7FEFF 		bl	mbedtls_platform_zeroize
 1251              	.LVL103:
 569:Source\mbedtls_open\library/des.c **** 
ARM GAS  C:\Users\Phuong\AppData\Local\Temp\ccawWFGQ.s 			page 34


 1252              		.loc 1 569 0
 1253 0018 0020     		movs	r0, #0
 1254 001a 61B0     		add	sp, sp, #388
 1255              		@ sp needed
 1256 001c 00BD     		pop	{pc}
 1257              		.cfi_endproc
 1258              	.LFE13:
 1259              		.size	mbedtls_des3_set2key_dec, .-mbedtls_des3_set2key_dec
 1260 001e C046     		.section	.text.mbedtls_des3_set3key_enc,"ax",%progbits
 1261              		.align	2
 1262              		.global	mbedtls_des3_set3key_enc
 1263              		.code	16
 1264              		.thumb_func
 1265              		.type	mbedtls_des3_set3key_enc, %function
 1266              	mbedtls_des3_set3key_enc:
 1267              	.LFB15:
 593:Source\mbedtls_open\library/des.c **** 
 594:Source\mbedtls_open\library/des.c **** /*
 595:Source\mbedtls_open\library/des.c ****  * Triple-DES key schedule (168-bit, encryption)
 596:Source\mbedtls_open\library/des.c ****  */
 597:Source\mbedtls_open\library/des.c **** int mbedtls_des3_set3key_enc( mbedtls_des3_context *ctx,
 598:Source\mbedtls_open\library/des.c ****                       const unsigned char key[MBEDTLS_DES_KEY_SIZE * 3] )
 599:Source\mbedtls_open\library/des.c **** {
 1268              		.loc 1 599 0
 1269              		.cfi_startproc
 1270              		@ args = 0, pretend = 0, frame = 384
 1271              		@ frame_needed = 0, uses_anonymous_args = 0
 1272              	.LVL104:
 1273 0000 00B5     		push	{lr}
 1274              		.cfi_def_cfa_offset 4
 1275              		.cfi_offset 14, -4
 1276 0002 E1B0     		sub	sp, sp, #388
 1277              		.cfi_def_cfa_offset 392
 1278 0004 0A00     		movs	r2, r1
 600:Source\mbedtls_open\library/des.c ****     uint32_t sk[96];
 601:Source\mbedtls_open\library/des.c **** 
 602:Source\mbedtls_open\library/des.c ****     des3_set3key( ctx->sk, sk, key );
 1279              		.loc 1 602 0
 1280 0006 6946     		mov	r1, sp
 1281              	.LVL105:
 1282 0008 FFF7FEFF 		bl	des3_set3key
 1283              	.LVL106:
 603:Source\mbedtls_open\library/des.c ****     mbedtls_platform_zeroize( sk,  sizeof( sk ) );
 1284              		.loc 1 603 0
 1285 000c C021     		movs	r1, #192
 1286 000e 4900     		lsls	r1, r1, #1
 1287 0010 6846     		mov	r0, sp
 1288 0012 FFF7FEFF 		bl	mbedtls_platform_zeroize
 1289              	.LVL107:
 604:Source\mbedtls_open\library/des.c **** 
 605:Source\mbedtls_open\library/des.c ****     return( 0 );
 606:Source\mbedtls_open\library/des.c **** }
 1290              		.loc 1 606 0
 1291 0016 0020     		movs	r0, #0
 1292 0018 61B0     		add	sp, sp, #388
 1293              		@ sp needed
 1294 001a 00BD     		pop	{pc}
ARM GAS  C:\Users\Phuong\AppData\Local\Temp\ccawWFGQ.s 			page 35


 1295              		.cfi_endproc
 1296              	.LFE15:
 1297              		.size	mbedtls_des3_set3key_enc, .-mbedtls_des3_set3key_enc
 1298              		.section	.text.mbedtls_des3_set3key_dec,"ax",%progbits
 1299              		.align	2
 1300              		.global	mbedtls_des3_set3key_dec
 1301              		.code	16
 1302              		.thumb_func
 1303              		.type	mbedtls_des3_set3key_dec, %function
 1304              	mbedtls_des3_set3key_dec:
 1305              	.LFB16:
 607:Source\mbedtls_open\library/des.c **** 
 608:Source\mbedtls_open\library/des.c **** /*
 609:Source\mbedtls_open\library/des.c ****  * Triple-DES key schedule (168-bit, decryption)
 610:Source\mbedtls_open\library/des.c ****  */
 611:Source\mbedtls_open\library/des.c **** int mbedtls_des3_set3key_dec( mbedtls_des3_context *ctx,
 612:Source\mbedtls_open\library/des.c ****                       const unsigned char key[MBEDTLS_DES_KEY_SIZE * 3] )
 613:Source\mbedtls_open\library/des.c **** {
 1306              		.loc 1 613 0
 1307              		.cfi_startproc
 1308              		@ args = 0, pretend = 0, frame = 384
 1309              		@ frame_needed = 0, uses_anonymous_args = 0
 1310              	.LVL108:
 1311 0000 00B5     		push	{lr}
 1312              		.cfi_def_cfa_offset 4
 1313              		.cfi_offset 14, -4
 1314 0002 E1B0     		sub	sp, sp, #388
 1315              		.cfi_def_cfa_offset 392
 1316 0004 0A00     		movs	r2, r1
 614:Source\mbedtls_open\library/des.c ****     uint32_t sk[96];
 615:Source\mbedtls_open\library/des.c **** 
 616:Source\mbedtls_open\library/des.c ****     des3_set3key( sk, ctx->sk, key );
 1317              		.loc 1 616 0
 1318 0006 0100     		movs	r1, r0
 1319              	.LVL109:
 1320 0008 6846     		mov	r0, sp
 1321              	.LVL110:
 1322 000a FFF7FEFF 		bl	des3_set3key
 1323              	.LVL111:
 617:Source\mbedtls_open\library/des.c ****     mbedtls_platform_zeroize( sk,  sizeof( sk ) );
 1324              		.loc 1 617 0
 1325 000e C021     		movs	r1, #192
 1326 0010 4900     		lsls	r1, r1, #1
 1327 0012 6846     		mov	r0, sp
 1328 0014 FFF7FEFF 		bl	mbedtls_platform_zeroize
 1329              	.LVL112:
 618:Source\mbedtls_open\library/des.c **** 
 619:Source\mbedtls_open\library/des.c ****     return( 0 );
 620:Source\mbedtls_open\library/des.c **** }
 1330              		.loc 1 620 0
 1331 0018 0020     		movs	r0, #0
 1332 001a 61B0     		add	sp, sp, #388
 1333              		@ sp needed
 1334 001c 00BD     		pop	{pc}
 1335              		.cfi_endproc
 1336              	.LFE16:
 1337              		.size	mbedtls_des3_set3key_dec, .-mbedtls_des3_set3key_dec
ARM GAS  C:\Users\Phuong\AppData\Local\Temp\ccawWFGQ.s 			page 36


 1338 001e C046     		.section	.text.mbedtls_des_crypt_ecb,"ax",%progbits
 1339              		.align	2
 1340              		.global	mbedtls_des_crypt_ecb
 1341              		.code	16
 1342              		.thumb_func
 1343              		.type	mbedtls_des_crypt_ecb, %function
 1344              	mbedtls_des_crypt_ecb:
 1345              	.LFB17:
 621:Source\mbedtls_open\library/des.c **** 
 622:Source\mbedtls_open\library/des.c **** /*
 623:Source\mbedtls_open\library/des.c ****  * DES-ECB block encryption/decryption
 624:Source\mbedtls_open\library/des.c ****  */
 625:Source\mbedtls_open\library/des.c **** #if !defined(MBEDTLS_DES_CRYPT_ECB_ALT)
 626:Source\mbedtls_open\library/des.c **** int mbedtls_des_crypt_ecb( mbedtls_des_context *ctx,
 627:Source\mbedtls_open\library/des.c ****                     const unsigned char input[8],
 628:Source\mbedtls_open\library/des.c ****                     unsigned char output[8] )
 629:Source\mbedtls_open\library/des.c **** {
 1346              		.loc 1 629 0
 1347              		.cfi_startproc
 1348              		@ args = 0, pretend = 0, frame = 8
 1349              		@ frame_needed = 0, uses_anonymous_args = 0
 1350              	.LVL113:
 1351 0000 F0B5     		push	{r4, r5, r6, r7, lr}
 1352              		.cfi_def_cfa_offset 20
 1353              		.cfi_offset 4, -20
 1354              		.cfi_offset 5, -16
 1355              		.cfi_offset 6, -12
 1356              		.cfi_offset 7, -8
 1357              		.cfi_offset 14, -4
 1358 0002 5F46     		mov	r7, fp
 1359 0004 5646     		mov	r6, r10
 1360 0006 4D46     		mov	r5, r9
 1361 0008 4446     		mov	r4, r8
 1362 000a F0B4     		push	{r4, r5, r6, r7}
 1363              		.cfi_def_cfa_offset 36
 1364              		.cfi_offset 8, -36
 1365              		.cfi_offset 9, -32
 1366              		.cfi_offset 10, -28
 1367              		.cfi_offset 11, -24
 1368 000c 83B0     		sub	sp, sp, #12
 1369              		.cfi_def_cfa_offset 48
 1370 000e 0192     		str	r2, [sp, #4]
 630:Source\mbedtls_open\library/des.c ****     int i;
 631:Source\mbedtls_open\library/des.c ****     uint32_t X, Y, T, *SK;
 632:Source\mbedtls_open\library/des.c **** 
 633:Source\mbedtls_open\library/des.c ****     SK = ctx->sk;
 1371              		.loc 1 633 0
 1372 0010 0700     		movs	r7, r0
 1373              	.LVL114:
 634:Source\mbedtls_open\library/des.c **** 
 635:Source\mbedtls_open\library/des.c ****     GET_UINT32_BE( X, input, 0 );
 1374              		.loc 1 635 0
 1375 0012 0B78     		ldrb	r3, [r1]
 1376 0014 1806     		lsls	r0, r3, #24
 1377              	.LVL115:
 1378 0016 4A78     		ldrb	r2, [r1, #1]
 1379              	.LVL116:
ARM GAS  C:\Users\Phuong\AppData\Local\Temp\ccawWFGQ.s 			page 37


 1380 0018 1304     		lsls	r3, r2, #16
 1381 001a 0343     		orrs	r3, r0
 1382 001c 8A78     		ldrb	r2, [r1, #2]
 1383 001e 1202     		lsls	r2, r2, #8
 1384 0020 1343     		orrs	r3, r2
 1385 0022 CA78     		ldrb	r2, [r1, #3]
 1386 0024 1343     		orrs	r3, r2
 1387              	.LVL117:
 636:Source\mbedtls_open\library/des.c ****     GET_UINT32_BE( Y, input, 4 );
 1388              		.loc 1 636 0
 1389 0026 0879     		ldrb	r0, [r1, #4]
 1390 0028 0006     		lsls	r0, r0, #24
 1391 002a 4A79     		ldrb	r2, [r1, #5]
 1392 002c 1204     		lsls	r2, r2, #16
 1393 002e 1043     		orrs	r0, r2
 1394 0030 8A79     		ldrb	r2, [r1, #6]
 1395 0032 1202     		lsls	r2, r2, #8
 1396 0034 1043     		orrs	r0, r2
 1397 0036 CA79     		ldrb	r2, [r1, #7]
 1398 0038 1043     		orrs	r0, r2
 1399              	.LVL118:
 637:Source\mbedtls_open\library/des.c **** 
 638:Source\mbedtls_open\library/des.c ****     DES_IP( X, Y );
 1400              		.loc 1 638 0
 1401 003a 1A09     		lsrs	r2, r3, #4
 1402 003c 4240     		eors	r2, r0
 1403 003e 7649     		ldr	r1, .L51
 1404              	.LVL119:
 1405 0040 0A40     		ands	r2, r1
 1406              	.LVL120:
 1407 0042 5040     		eors	r0, r2
 1408              	.LVL121:
 1409 0044 1201     		lsls	r2, r2, #4
 1410              	.LVL122:
 1411 0046 5340     		eors	r3, r2
 1412              	.LVL123:
 1413 0048 190C     		lsrs	r1, r3, #16
 1414              	.LVL124:
 1415 004a 4140     		eors	r1, r0
 1416 004c 0904     		lsls	r1, r1, #16
 1417 004e 090C     		lsrs	r1, r1, #16
 1418              	.LVL125:
 1419 0050 4840     		eors	r0, r1
 1420              	.LVL126:
 1421 0052 0904     		lsls	r1, r1, #16
 1422              	.LVL127:
 1423 0054 4B40     		eors	r3, r1
 1424              	.LVL128:
 1425 0056 8408     		lsrs	r4, r0, #2
 1426 0058 5C40     		eors	r4, r3
 1427 005a 704A     		ldr	r2, .L51+4
 1428              	.LVL129:
 1429 005c 1440     		ands	r4, r2
 1430              	.LVL130:
 1431 005e 6340     		eors	r3, r4
 1432              	.LVL131:
 1433 0060 A400     		lsls	r4, r4, #2
ARM GAS  C:\Users\Phuong\AppData\Local\Temp\ccawWFGQ.s 			page 38


 1434              	.LVL132:
 1435 0062 4440     		eors	r4, r0
 1436              	.LVL133:
 1437 0064 220A     		lsrs	r2, r4, #8
 1438              	.LVL134:
 1439 0066 5A40     		eors	r2, r3
 1440 0068 6D49     		ldr	r1, .L51+8
 1441              	.LVL135:
 1442 006a 0A40     		ands	r2, r1
 1443              	.LVL136:
 1444 006c 5340     		eors	r3, r2
 1445              	.LVL137:
 1446 006e 1202     		lsls	r2, r2, #8
 1447              	.LVL138:
 1448 0070 5440     		eors	r4, r2
 1449              	.LVL139:
 1450 0072 1F25     		movs	r5, #31
 1451 0074 EC41     		rors	r4, r4, r5
 1452              	.LVL140:
 1453 0076 1900     		movs	r1, r3
 1454 0078 6140     		eors	r1, r4
 1455 007a 6A4A     		ldr	r2, .L51+12
 1456 007c 0A40     		ands	r2, r1
 1457              	.LVL141:
 1458 007e 5440     		eors	r4, r2
 1459              	.LVL142:
 1460 0080 2600     		movs	r6, r4
 1461              	.LVL143:
 1462 0082 5A40     		eors	r2, r3
 1463              	.LVL144:
 1464 0084 EA41     		rors	r2, r2, r5
 1465              	.LVL145:
 639:Source\mbedtls_open\library/des.c **** 
 640:Source\mbedtls_open\library/des.c ****     for( i = 0; i < 8; i++ )
 1466              		.loc 1 640 0
 1467 0086 0023     		movs	r3, #0
 1468 0088 0093     		str	r3, [sp]
 1469 008a 1000     		movs	r0, r2
 1470 008c 81E0     		b	.L49
 1471              	.LVL146:
 1472              	.L50:
 641:Source\mbedtls_open\library/des.c ****     {
 642:Source\mbedtls_open\library/des.c ****         DES_ROUND( Y, X );
 1473              		.loc 1 642 0 discriminator 3
 1474 008e 3A68     		ldr	r2, [r7]
 1475 0090 7240     		eors	r2, r6
 1476              	.LVL147:
 1477 0092 3F23     		movs	r3, #63
 1478              	.LVL148:
 1479 0094 1900     		movs	r1, r3
 1480 0096 1140     		ands	r1, r2
 1481 0098 634C     		ldr	r4, .L51+16
 1482 009a A246     		mov	r10, r4
 1483 009c 8900     		lsls	r1, r1, #2
 1484 009e 0959     		ldr	r1, [r1, r4]
 1485 00a0 8C46     		mov	ip, r1
 1486 00a2 150A     		lsrs	r5, r2, #8
ARM GAS  C:\Users\Phuong\AppData\Local\Temp\ccawWFGQ.s 			page 39


 1487 00a4 1D40     		ands	r5, r3
 1488 00a6 6149     		ldr	r1, .L51+20
 1489 00a8 8946     		mov	r9, r1
 1490 00aa AD00     		lsls	r5, r5, #2
 1491 00ac 6958     		ldr	r1, [r5, r1]
 1492 00ae 6446     		mov	r4, ip
 1493 00b0 6140     		eors	r1, r4
 1494 00b2 150C     		lsrs	r5, r2, #16
 1495 00b4 1D40     		ands	r5, r3
 1496 00b6 5E4C     		ldr	r4, .L51+24
 1497 00b8 A046     		mov	r8, r4
 1498 00ba AD00     		lsls	r5, r5, #2
 1499 00bc 2D59     		ldr	r5, [r5, r4]
 1500 00be 6940     		eors	r1, r5
 1501 00c0 120E     		lsrs	r2, r2, #24
 1502              	.LVL149:
 1503 00c2 1A40     		ands	r2, r3
 1504 00c4 9200     		lsls	r2, r2, #2
 1505 00c6 5B4C     		ldr	r4, .L51+28
 1506 00c8 1259     		ldr	r2, [r2, r4]
 1507 00ca 5140     		eors	r1, r2
 1508 00cc 4140     		eors	r1, r0
 1509              	.LVL150:
 1510 00ce 3200     		movs	r2, r6
 1511 00d0 0420     		movs	r0, #4
 1512 00d2 C241     		rors	r2, r2, r0
 1513 00d4 7868     		ldr	r0, [r7, #4]
 1514 00d6 4240     		eors	r2, r0
 1515              	.LVL151:
 1516 00d8 1800     		movs	r0, r3
 1517 00da 1040     		ands	r0, r2
 1518 00dc 8000     		lsls	r0, r0, #2
 1519 00de 564C     		ldr	r4, .L51+32
 1520 00e0 0059     		ldr	r0, [r0, r4]
 1521 00e2 150A     		lsrs	r5, r2, #8
 1522 00e4 1D40     		ands	r5, r3
 1523 00e6 554C     		ldr	r4, .L51+36
 1524 00e8 A446     		mov	ip, r4
 1525 00ea AD00     		lsls	r5, r5, #2
 1526 00ec 2D59     		ldr	r5, [r5, r4]
 1527 00ee 6840     		eors	r0, r5
 1528 00f0 8346     		mov	fp, r0
 1529 00f2 100C     		lsrs	r0, r2, #16
 1530 00f4 1840     		ands	r0, r3
 1531 00f6 524D     		ldr	r5, .L51+40
 1532 00f8 8000     		lsls	r0, r0, #2
 1533 00fa 4059     		ldr	r0, [r0, r5]
 1534 00fc 5C46     		mov	r4, fp
 1535 00fe 6040     		eors	r0, r4
 1536 0100 120E     		lsrs	r2, r2, #24
 1537              	.LVL152:
 1538 0102 1A40     		ands	r2, r3
 1539 0104 4F4C     		ldr	r4, .L51+44
 1540 0106 A346     		mov	fp, r4
 1541 0108 9200     		lsls	r2, r2, #2
 1542 010a 1259     		ldr	r2, [r2, r4]
 1543 010c 5040     		eors	r0, r2
ARM GAS  C:\Users\Phuong\AppData\Local\Temp\ccawWFGQ.s 			page 40


 1544 010e 4840     		eors	r0, r1
 1545              	.LVL153:
 643:Source\mbedtls_open\library/des.c ****         DES_ROUND( X, Y );
 1546              		.loc 1 643 0 discriminator 3
 1547 0110 BA68     		ldr	r2, [r7, #8]
 1548 0112 4240     		eors	r2, r0
 1549              	.LVL154:
 1550 0114 1900     		movs	r1, r3
 1551 0116 1140     		ands	r1, r2
 1552 0118 8900     		lsls	r1, r1, #2
 1553 011a 5446     		mov	r4, r10
 1554 011c 0959     		ldr	r1, [r1, r4]
 1555 011e 8A46     		mov	r10, r1
 1556 0120 110A     		lsrs	r1, r2, #8
 1557 0122 1940     		ands	r1, r3
 1558 0124 8900     		lsls	r1, r1, #2
 1559 0126 4C46     		mov	r4, r9
 1560 0128 0959     		ldr	r1, [r1, r4]
 1561 012a 5446     		mov	r4, r10
 1562 012c 4C40     		eors	r4, r1
 1563 012e A246     		mov	r10, r4
 1564 0130 110C     		lsrs	r1, r2, #16
 1565 0132 1940     		ands	r1, r3
 1566 0134 8900     		lsls	r1, r1, #2
 1567 0136 4446     		mov	r4, r8
 1568 0138 0959     		ldr	r1, [r1, r4]
 1569 013a 5446     		mov	r4, r10
 1570 013c 6140     		eors	r1, r4
 1571 013e 120E     		lsrs	r2, r2, #24
 1572              	.LVL155:
 1573 0140 1A40     		ands	r2, r3
 1574 0142 9200     		lsls	r2, r2, #2
 1575 0144 3B4C     		ldr	r4, .L51+28
 1576 0146 1259     		ldr	r2, [r2, r4]
 1577 0148 5140     		eors	r1, r2
 1578 014a 7140     		eors	r1, r6
 1579              	.LVL156:
 1580 014c 0200     		movs	r2, r0
 1581 014e 0424     		movs	r4, #4
 1582 0150 E241     		rors	r2, r2, r4
 1583 0152 FC68     		ldr	r4, [r7, #12]
 1584 0154 6240     		eors	r2, r4
 1585              	.LVL157:
 1586 0156 1E00     		movs	r6, r3
 1587 0158 1640     		ands	r6, r2
 1588 015a B600     		lsls	r6, r6, #2
 1589 015c 364C     		ldr	r4, .L51+32
 1590 015e 3459     		ldr	r4, [r6, r4]
 1591 0160 A046     		mov	r8, r4
 1592 0162 160A     		lsrs	r6, r2, #8
 1593 0164 1E40     		ands	r6, r3
 1594 0166 B600     		lsls	r6, r6, #2
 1595 0168 6446     		mov	r4, ip
 1596 016a 3659     		ldr	r6, [r6, r4]
 1597 016c 4446     		mov	r4, r8
 1598 016e 7440     		eors	r4, r6
 1599 0170 160C     		lsrs	r6, r2, #16
ARM GAS  C:\Users\Phuong\AppData\Local\Temp\ccawWFGQ.s 			page 41


 1600 0172 1E40     		ands	r6, r3
 1601 0174 B600     		lsls	r6, r6, #2
 1602 0176 7559     		ldr	r5, [r6, r5]
 1603 0178 2600     		movs	r6, r4
 1604 017a 6E40     		eors	r6, r5
 1605 017c 120E     		lsrs	r2, r2, #24
 1606              	.LVL158:
 1607 017e 1340     		ands	r3, r2
 1608 0180 9B00     		lsls	r3, r3, #2
 1609 0182 5A46     		mov	r2, fp
 1610 0184 9B58     		ldr	r3, [r3, r2]
 1611 0186 5E40     		eors	r6, r3
 1612 0188 4E40     		eors	r6, r1
 1613              	.LVL159:
 640:Source\mbedtls_open\library/des.c ****     {
 1614              		.loc 1 640 0 discriminator 3
 1615 018a 009B     		ldr	r3, [sp]
 1616 018c 0133     		adds	r3, r3, #1
 1617 018e 0093     		str	r3, [sp]
 1618              	.LVL160:
 1619              		.loc 1 643 0 discriminator 3
 1620 0190 1037     		adds	r7, r7, #16
 1621              	.LVL161:
 1622              	.L49:
 640:Source\mbedtls_open\library/des.c ****     {
 1623              		.loc 1 640 0 discriminator 1
 1624 0192 009B     		ldr	r3, [sp]
 1625 0194 072B     		cmp	r3, #7
 1626 0196 00DC     		bgt	.LCB1600
 1627 0198 79E7     		b	.L50	@long jump
 1628              	.LCB1600:
 644:Source\mbedtls_open\library/des.c ****     }
 645:Source\mbedtls_open\library/des.c **** 
 646:Source\mbedtls_open\library/des.c ****     DES_FP( Y, X );
 1629              		.loc 1 646 0
 1630 019a 0124     		movs	r4, #1
 1631 019c 3300     		movs	r3, r6
 1632 019e E341     		rors	r3, r3, r4
 1633              	.LVL162:
 1634 01a0 0100     		movs	r1, r0
 1635 01a2 5940     		eors	r1, r3
 1636 01a4 1F4A     		ldr	r2, .L51+12
 1637 01a6 0A40     		ands	r2, r1
 1638              	.LVL163:
 1639 01a8 5340     		eors	r3, r2
 1640              	.LVL164:
 1641 01aa 0100     		movs	r1, r0
 1642 01ac 5140     		eors	r1, r2
 1643 01ae 0A00     		movs	r2, r1
 1644              	.LVL165:
 1645 01b0 E241     		rors	r2, r2, r4
 1646              	.LVL166:
 1647 01b2 140A     		lsrs	r4, r2, #8
 1648              	.LVL167:
 1649 01b4 5C40     		eors	r4, r3
 1650 01b6 1A4D     		ldr	r5, .L51+8
 1651 01b8 2C40     		ands	r4, r5
ARM GAS  C:\Users\Phuong\AppData\Local\Temp\ccawWFGQ.s 			page 42


 1652              	.LVL168:
 1653 01ba 6340     		eors	r3, r4
 1654              	.LVL169:
 1655 01bc 2402     		lsls	r4, r4, #8
 1656              	.LVL170:
 1657 01be 6240     		eors	r2, r4
 1658              	.LVL171:
 1659 01c0 9408     		lsrs	r4, r2, #2
 1660 01c2 5C40     		eors	r4, r3
 1661 01c4 154D     		ldr	r5, .L51+4
 1662              	.LVL172:
 1663 01c6 2C40     		ands	r4, r5
 1664              	.LVL173:
 1665 01c8 6340     		eors	r3, r4
 1666              	.LVL174:
 1667 01ca A400     		lsls	r4, r4, #2
 1668              	.LVL175:
 1669 01cc 6240     		eors	r2, r4
 1670              	.LVL176:
 1671 01ce 190C     		lsrs	r1, r3, #16
 1672              	.LVL177:
 1673 01d0 5140     		eors	r1, r2
 1674 01d2 0904     		lsls	r1, r1, #16
 1675 01d4 090C     		lsrs	r1, r1, #16
 1676              	.LVL178:
 1677 01d6 4A40     		eors	r2, r1
 1678              	.LVL179:
 1679 01d8 0904     		lsls	r1, r1, #16
 1680              	.LVL180:
 1681 01da 4B40     		eors	r3, r1
 1682              	.LVL181:
 1683 01dc 1909     		lsrs	r1, r3, #4
 1684 01de 5140     		eors	r1, r2
 1685 01e0 0D48     		ldr	r0, .L51
 1686 01e2 0140     		ands	r1, r0
 1687              	.LVL182:
 1688 01e4 4A40     		eors	r2, r1
 1689              	.LVL183:
 1690 01e6 0901     		lsls	r1, r1, #4
 1691              	.LVL184:
 1692 01e8 4B40     		eors	r3, r1
 1693              	.LVL185:
 647:Source\mbedtls_open\library/des.c **** 
 648:Source\mbedtls_open\library/des.c ****     PUT_UINT32_BE( Y, output, 0 );
 1694              		.loc 1 648 0
 1695 01ea 190E     		lsrs	r1, r3, #24
 1696 01ec 0198     		ldr	r0, [sp, #4]
 1697 01ee 0170     		strb	r1, [r0]
 1698 01f0 190C     		lsrs	r1, r3, #16
 1699 01f2 4170     		strb	r1, [r0, #1]
 1700 01f4 190A     		lsrs	r1, r3, #8
 1701 01f6 8170     		strb	r1, [r0, #2]
 1702 01f8 C370     		strb	r3, [r0, #3]
 649:Source\mbedtls_open\library/des.c ****     PUT_UINT32_BE( X, output, 4 );
 1703              		.loc 1 649 0
 1704 01fa 130E     		lsrs	r3, r2, #24
 1705              	.LVL186:
ARM GAS  C:\Users\Phuong\AppData\Local\Temp\ccawWFGQ.s 			page 43


 1706 01fc 0371     		strb	r3, [r0, #4]
 1707 01fe 130C     		lsrs	r3, r2, #16
 1708 0200 4371     		strb	r3, [r0, #5]
 1709 0202 130A     		lsrs	r3, r2, #8
 1710 0204 8371     		strb	r3, [r0, #6]
 1711 0206 C271     		strb	r2, [r0, #7]
 650:Source\mbedtls_open\library/des.c **** 
 651:Source\mbedtls_open\library/des.c ****     return( 0 );
 652:Source\mbedtls_open\library/des.c **** }
 1712              		.loc 1 652 0
 1713 0208 0020     		movs	r0, #0
 1714 020a 03B0     		add	sp, sp, #12
 1715              	.LVL187:
 1716              		@ sp needed
 1717              	.LVL188:
 1718 020c 3CBC     		pop	{r2, r3, r4, r5}
 1719 020e 9046     		mov	r8, r2
 1720 0210 9946     		mov	r9, r3
 1721 0212 A246     		mov	r10, r4
 1722 0214 AB46     		mov	fp, r5
 1723 0216 F0BD     		pop	{r4, r5, r6, r7, pc}
 1724              	.L52:
 1725              		.align	2
 1726              	.L51:
 1727 0218 0F0F0F0F 		.word	252645135
 1728 021c 33333333 		.word	858993459
 1729 0220 FF00FF00 		.word	16711935
 1730 0224 AAAAAAAA 		.word	-1431655766
 1731 0228 B0010000 		.word	.LANCHOR3
 1732 022c B0020000 		.word	.LANCHOR4
 1733 0230 B0030000 		.word	.LANCHOR5
 1734 0234 B0040000 		.word	.LANCHOR6
 1735 0238 B0050000 		.word	.LANCHOR7
 1736 023c B0060000 		.word	.LANCHOR8
 1737 0240 B0070000 		.word	.LANCHOR9
 1738 0244 B0080000 		.word	.LANCHOR10
 1739              		.cfi_endproc
 1740              	.LFE17:
 1741              		.size	mbedtls_des_crypt_ecb, .-mbedtls_des_crypt_ecb
 1742              		.section	.text.mbedtls_des_crypt_cbc,"ax",%progbits
 1743              		.align	2
 1744              		.global	mbedtls_des_crypt_cbc
 1745              		.code	16
 1746              		.thumb_func
 1747              		.type	mbedtls_des_crypt_cbc, %function
 1748              	mbedtls_des_crypt_cbc:
 1749              	.LFB18:
 653:Source\mbedtls_open\library/des.c **** #endif /* !MBEDTLS_DES_CRYPT_ECB_ALT */
 654:Source\mbedtls_open\library/des.c **** 
 655:Source\mbedtls_open\library/des.c **** #if defined(MBEDTLS_CIPHER_MODE_CBC)
 656:Source\mbedtls_open\library/des.c **** /*
 657:Source\mbedtls_open\library/des.c ****  * DES-CBC buffer encryption/decryption
 658:Source\mbedtls_open\library/des.c ****  */
 659:Source\mbedtls_open\library/des.c **** int mbedtls_des_crypt_cbc( mbedtls_des_context *ctx,
 660:Source\mbedtls_open\library/des.c ****                     int mode,
 661:Source\mbedtls_open\library/des.c ****                     size_t length,
 662:Source\mbedtls_open\library/des.c ****                     unsigned char iv[8],
ARM GAS  C:\Users\Phuong\AppData\Local\Temp\ccawWFGQ.s 			page 44


 663:Source\mbedtls_open\library/des.c ****                     const unsigned char *input,
 664:Source\mbedtls_open\library/des.c ****                     unsigned char *output )
 665:Source\mbedtls_open\library/des.c **** {
 1750              		.loc 1 665 0
 1751              		.cfi_startproc
 1752              		@ args = 8, pretend = 0, frame = 16
 1753              		@ frame_needed = 0, uses_anonymous_args = 0
 1754              	.LVL189:
 1755 0000 F0B5     		push	{r4, r5, r6, r7, lr}
 1756              		.cfi_def_cfa_offset 20
 1757              		.cfi_offset 4, -20
 1758              		.cfi_offset 5, -16
 1759              		.cfi_offset 6, -12
 1760              		.cfi_offset 7, -8
 1761              		.cfi_offset 14, -4
 1762 0002 85B0     		sub	sp, sp, #20
 1763              		.cfi_def_cfa_offset 40
 1764 0004 0190     		str	r0, [sp, #4]
 1765 0006 1400     		movs	r4, r2
 1766 0008 1E00     		movs	r6, r3
 1767 000a 0A9F     		ldr	r7, [sp, #40]
 1768 000c 0B9D     		ldr	r5, [sp, #44]
 666:Source\mbedtls_open\library/des.c ****     int i;
 667:Source\mbedtls_open\library/des.c ****     unsigned char temp[8];
 668:Source\mbedtls_open\library/des.c **** 
 669:Source\mbedtls_open\library/des.c ****     if( length % 8 )
 1769              		.loc 1 669 0
 1770 000e 5307     		lsls	r3, r2, #29
 1771 0010 3CD1     		bne	.L62
 1772              	.LVL190:
 670:Source\mbedtls_open\library/des.c ****         return( MBEDTLS_ERR_DES_INVALID_INPUT_LENGTH );
 671:Source\mbedtls_open\library/des.c **** 
 672:Source\mbedtls_open\library/des.c ****     if( mode == MBEDTLS_DES_ENCRYPT )
 1773              		.loc 1 672 0
 1774 0012 0129     		cmp	r1, #1
 1775 0014 36D1     		bne	.L56
 1776 0016 15E0     		b	.L55
 1777              	.LVL191:
 1778              	.L57:
 673:Source\mbedtls_open\library/des.c ****     {
 674:Source\mbedtls_open\library/des.c ****         while( length > 0 )
 675:Source\mbedtls_open\library/des.c ****         {
 676:Source\mbedtls_open\library/des.c ****             for( i = 0; i < 8; i++ )
 677:Source\mbedtls_open\library/des.c ****                 output[i] = (unsigned char)( input[i] ^ iv[i] );
 1779              		.loc 1 677 0 discriminator 3
 1780 0018 F95C     		ldrb	r1, [r7, r3]
 1781 001a F25C     		ldrb	r2, [r6, r3]
 1782 001c 4A40     		eors	r2, r1
 1783 001e EA54     		strb	r2, [r5, r3]
 676:Source\mbedtls_open\library/des.c ****                 output[i] = (unsigned char)( input[i] ^ iv[i] );
 1784              		.loc 1 676 0 discriminator 3
 1785 0020 0133     		adds	r3, r3, #1
 1786              	.LVL192:
 1787 0022 00E0     		b	.L58
 1788              	.LVL193:
 1789              	.L63:
 1790 0024 0023     		movs	r3, #0
ARM GAS  C:\Users\Phuong\AppData\Local\Temp\ccawWFGQ.s 			page 45


 1791              	.L58:
 1792              	.LVL194:
 676:Source\mbedtls_open\library/des.c ****                 output[i] = (unsigned char)( input[i] ^ iv[i] );
 1793              		.loc 1 676 0 is_stmt 0 discriminator 1
 1794 0026 072B     		cmp	r3, #7
 1795 0028 F6DD     		ble	.L57
 678:Source\mbedtls_open\library/des.c **** 
 679:Source\mbedtls_open\library/des.c ****             mbedtls_des_crypt_ecb( ctx, output, output );
 1796              		.loc 1 679 0 is_stmt 1
 1797 002a 2A00     		movs	r2, r5
 1798 002c 2900     		movs	r1, r5
 1799 002e 0198     		ldr	r0, [sp, #4]
 1800 0030 FFF7FEFF 		bl	mbedtls_des_crypt_ecb
 1801              	.LVL195:
 680:Source\mbedtls_open\library/des.c ****             memcpy( iv, output, 8 );
 1802              		.loc 1 680 0
 1803 0034 0822     		movs	r2, #8
 1804 0036 2900     		movs	r1, r5
 1805 0038 3000     		movs	r0, r6
 1806 003a FFF7FEFF 		bl	memcpy
 1807              	.LVL196:
 681:Source\mbedtls_open\library/des.c **** 
 682:Source\mbedtls_open\library/des.c ****             input  += 8;
 1808              		.loc 1 682 0
 1809 003e 0837     		adds	r7, r7, #8
 1810              	.LVL197:
 683:Source\mbedtls_open\library/des.c ****             output += 8;
 1811              		.loc 1 683 0
 1812 0040 0835     		adds	r5, r5, #8
 1813              	.LVL198:
 684:Source\mbedtls_open\library/des.c ****             length -= 8;
 1814              		.loc 1 684 0
 1815 0042 083C     		subs	r4, r4, #8
 1816              	.LVL199:
 1817              	.L55:
 674:Source\mbedtls_open\library/des.c ****         {
 1818              		.loc 1 674 0
 1819 0044 002C     		cmp	r4, #0
 1820 0046 EDD1     		bne	.L63
 685:Source\mbedtls_open\library/des.c ****         }
 686:Source\mbedtls_open\library/des.c ****     }
 687:Source\mbedtls_open\library/des.c ****     else /* MBEDTLS_DES_DECRYPT */
 688:Source\mbedtls_open\library/des.c ****     {
 689:Source\mbedtls_open\library/des.c ****         while( length > 0 )
 690:Source\mbedtls_open\library/des.c ****         {
 691:Source\mbedtls_open\library/des.c ****             memcpy( temp, input, 8 );
 692:Source\mbedtls_open\library/des.c ****             mbedtls_des_crypt_ecb( ctx, input, output );
 693:Source\mbedtls_open\library/des.c **** 
 694:Source\mbedtls_open\library/des.c ****             for( i = 0; i < 8; i++ )
 695:Source\mbedtls_open\library/des.c ****                 output[i] = (unsigned char)( output[i] ^ iv[i] );
 696:Source\mbedtls_open\library/des.c **** 
 697:Source\mbedtls_open\library/des.c ****             memcpy( iv, temp, 8 );
 698:Source\mbedtls_open\library/des.c **** 
 699:Source\mbedtls_open\library/des.c ****             input  += 8;
 700:Source\mbedtls_open\library/des.c ****             output += 8;
 701:Source\mbedtls_open\library/des.c ****             length -= 8;
 702:Source\mbedtls_open\library/des.c ****         }
ARM GAS  C:\Users\Phuong\AppData\Local\Temp\ccawWFGQ.s 			page 46


 703:Source\mbedtls_open\library/des.c ****     }
 704:Source\mbedtls_open\library/des.c **** 
 705:Source\mbedtls_open\library/des.c ****     return( 0 );
 1821              		.loc 1 705 0
 1822 0048 0020     		movs	r0, #0
 1823 004a 21E0     		b	.L54
 1824              	.L61:
 691:Source\mbedtls_open\library/des.c ****             mbedtls_des_crypt_ecb( ctx, input, output );
 1825              		.loc 1 691 0
 1826 004c 0822     		movs	r2, #8
 1827 004e 3900     		movs	r1, r7
 1828 0050 02A8     		add	r0, sp, #8
 1829 0052 FFF7FEFF 		bl	memcpy
 1830              	.LVL200:
 692:Source\mbedtls_open\library/des.c **** 
 1831              		.loc 1 692 0
 1832 0056 2A00     		movs	r2, r5
 1833 0058 3900     		movs	r1, r7
 1834 005a 0198     		ldr	r0, [sp, #4]
 1835 005c FFF7FEFF 		bl	mbedtls_des_crypt_ecb
 1836              	.LVL201:
 694:Source\mbedtls_open\library/des.c ****                 output[i] = (unsigned char)( output[i] ^ iv[i] );
 1837              		.loc 1 694 0
 1838 0060 0023     		movs	r3, #0
 1839 0062 05E0     		b	.L59
 1840              	.LVL202:
 1841              	.L60:
 695:Source\mbedtls_open\library/des.c **** 
 1842              		.loc 1 695 0 discriminator 3
 1843 0064 E918     		adds	r1, r5, r3
 1844 0066 0878     		ldrb	r0, [r1]
 1845 0068 F25C     		ldrb	r2, [r6, r3]
 1846 006a 4240     		eors	r2, r0
 1847 006c 0A70     		strb	r2, [r1]
 694:Source\mbedtls_open\library/des.c ****                 output[i] = (unsigned char)( output[i] ^ iv[i] );
 1848              		.loc 1 694 0 discriminator 3
 1849 006e 0133     		adds	r3, r3, #1
 1850              	.LVL203:
 1851              	.L59:
 694:Source\mbedtls_open\library/des.c ****                 output[i] = (unsigned char)( output[i] ^ iv[i] );
 1852              		.loc 1 694 0 is_stmt 0 discriminator 1
 1853 0070 072B     		cmp	r3, #7
 1854 0072 F7DD     		ble	.L60
 697:Source\mbedtls_open\library/des.c **** 
 1855              		.loc 1 697 0 is_stmt 1
 1856 0074 0822     		movs	r2, #8
 1857 0076 02A9     		add	r1, sp, #8
 1858 0078 3000     		movs	r0, r6
 1859 007a FFF7FEFF 		bl	memcpy
 1860              	.LVL204:
 699:Source\mbedtls_open\library/des.c ****             output += 8;
 1861              		.loc 1 699 0
 1862 007e 0837     		adds	r7, r7, #8
 1863              	.LVL205:
 700:Source\mbedtls_open\library/des.c ****             length -= 8;
 1864              		.loc 1 700 0
 1865 0080 0835     		adds	r5, r5, #8
ARM GAS  C:\Users\Phuong\AppData\Local\Temp\ccawWFGQ.s 			page 47


 1866              	.LVL206:
 701:Source\mbedtls_open\library/des.c ****         }
 1867              		.loc 1 701 0
 1868 0082 083C     		subs	r4, r4, #8
 1869              	.LVL207:
 1870              	.L56:
 689:Source\mbedtls_open\library/des.c ****         {
 1871              		.loc 1 689 0
 1872 0084 002C     		cmp	r4, #0
 1873 0086 E1D1     		bne	.L61
 1874              		.loc 1 705 0
 1875 0088 0020     		movs	r0, #0
 1876 008a 01E0     		b	.L54
 1877              	.LVL208:
 1878              	.L62:
 670:Source\mbedtls_open\library/des.c **** 
 1879              		.loc 1 670 0
 1880 008c 3220     		movs	r0, #50
 1881              	.LVL209:
 1882 008e 4042     		rsbs	r0, r0, #0
 1883              	.LVL210:
 1884              	.L54:
 706:Source\mbedtls_open\library/des.c **** }
 1885              		.loc 1 706 0
 1886 0090 05B0     		add	sp, sp, #20
 1887              		@ sp needed
 1888              	.LVL211:
 1889              	.LVL212:
 1890 0092 F0BD     		pop	{r4, r5, r6, r7, pc}
 1891              		.cfi_endproc
 1892              	.LFE18:
 1893              		.size	mbedtls_des_crypt_cbc, .-mbedtls_des_crypt_cbc
 1894              		.section	.text.mbedtls_des3_crypt_ecb,"ax",%progbits
 1895              		.align	2
 1896              		.global	mbedtls_des3_crypt_ecb
 1897              		.code	16
 1898              		.thumb_func
 1899              		.type	mbedtls_des3_crypt_ecb, %function
 1900              	mbedtls_des3_crypt_ecb:
 1901              	.LFB19:
 707:Source\mbedtls_open\library/des.c **** #endif /* MBEDTLS_CIPHER_MODE_CBC */
 708:Source\mbedtls_open\library/des.c **** 
 709:Source\mbedtls_open\library/des.c **** /*
 710:Source\mbedtls_open\library/des.c ****  * 3DES-ECB block encryption/decryption
 711:Source\mbedtls_open\library/des.c ****  */
 712:Source\mbedtls_open\library/des.c **** #if !defined(MBEDTLS_DES3_CRYPT_ECB_ALT)
 713:Source\mbedtls_open\library/des.c **** int mbedtls_des3_crypt_ecb( mbedtls_des3_context *ctx,
 714:Source\mbedtls_open\library/des.c ****                      const unsigned char input[8],
 715:Source\mbedtls_open\library/des.c ****                      unsigned char output[8] )
 716:Source\mbedtls_open\library/des.c **** {
 1902              		.loc 1 716 0
 1903              		.cfi_startproc
 1904              		@ args = 0, pretend = 0, frame = 8
 1905              		@ frame_needed = 0, uses_anonymous_args = 0
 1906              	.LVL213:
 1907 0000 F0B5     		push	{r4, r5, r6, r7, lr}
 1908              		.cfi_def_cfa_offset 20
ARM GAS  C:\Users\Phuong\AppData\Local\Temp\ccawWFGQ.s 			page 48


 1909              		.cfi_offset 4, -20
 1910              		.cfi_offset 5, -16
 1911              		.cfi_offset 6, -12
 1912              		.cfi_offset 7, -8
 1913              		.cfi_offset 14, -4
 1914 0002 5F46     		mov	r7, fp
 1915 0004 5646     		mov	r6, r10
 1916 0006 4D46     		mov	r5, r9
 1917 0008 4446     		mov	r4, r8
 1918 000a F0B4     		push	{r4, r5, r6, r7}
 1919              		.cfi_def_cfa_offset 36
 1920              		.cfi_offset 8, -36
 1921              		.cfi_offset 9, -32
 1922              		.cfi_offset 10, -28
 1923              		.cfi_offset 11, -24
 1924 000c 83B0     		sub	sp, sp, #12
 1925              		.cfi_def_cfa_offset 48
 1926 000e 0192     		str	r2, [sp, #4]
 717:Source\mbedtls_open\library/des.c ****     int i;
 718:Source\mbedtls_open\library/des.c ****     uint32_t X, Y, T, *SK;
 719:Source\mbedtls_open\library/des.c **** 
 720:Source\mbedtls_open\library/des.c ****     SK = ctx->sk;
 1927              		.loc 1 720 0
 1928 0010 0500     		movs	r5, r0
 1929              	.LVL214:
 721:Source\mbedtls_open\library/des.c **** 
 722:Source\mbedtls_open\library/des.c ****     GET_UINT32_BE( X, input, 0 );
 1930              		.loc 1 722 0
 1931 0012 0B78     		ldrb	r3, [r1]
 1932 0014 1806     		lsls	r0, r3, #24
 1933              	.LVL215:
 1934 0016 4A78     		ldrb	r2, [r1, #1]
 1935              	.LVL216:
 1936 0018 1304     		lsls	r3, r2, #16
 1937 001a 0343     		orrs	r3, r0
 1938 001c 8A78     		ldrb	r2, [r1, #2]
 1939 001e 1202     		lsls	r2, r2, #8
 1940 0020 1343     		orrs	r3, r2
 1941 0022 CA78     		ldrb	r2, [r1, #3]
 1942 0024 1343     		orrs	r3, r2
 1943              	.LVL217:
 723:Source\mbedtls_open\library/des.c ****     GET_UINT32_BE( Y, input, 4 );
 1944              		.loc 1 723 0
 1945 0026 0A79     		ldrb	r2, [r1, #4]
 1946 0028 1006     		lsls	r0, r2, #24
 1947 002a 4A79     		ldrb	r2, [r1, #5]
 1948 002c 1204     		lsls	r2, r2, #16
 1949 002e 1043     		orrs	r0, r2
 1950 0030 8A79     		ldrb	r2, [r1, #6]
 1951 0032 1202     		lsls	r2, r2, #8
 1952 0034 1043     		orrs	r0, r2
 1953 0036 CA79     		ldrb	r2, [r1, #7]
 1954 0038 1043     		orrs	r0, r2
 1955              	.LVL218:
 724:Source\mbedtls_open\library/des.c **** 
 725:Source\mbedtls_open\library/des.c ****     DES_IP( X, Y );
 1956              		.loc 1 725 0
ARM GAS  C:\Users\Phuong\AppData\Local\Temp\ccawWFGQ.s 			page 49


 1957 003a 1A09     		lsrs	r2, r3, #4
 1958 003c 4240     		eors	r2, r0
 1959 003e 9D49     		ldr	r1, .L71
 1960              	.LVL219:
 1961 0040 0A40     		ands	r2, r1
 1962              	.LVL220:
 1963 0042 0100     		movs	r1, r0
 1964 0044 5140     		eors	r1, r2
 1965              	.LVL221:
 1966 0046 1201     		lsls	r2, r2, #4
 1967              	.LVL222:
 1968 0048 5340     		eors	r3, r2
 1969              	.LVL223:
 1970 004a 1C0C     		lsrs	r4, r3, #16
 1971 004c 4C40     		eors	r4, r1
 1972 004e 2404     		lsls	r4, r4, #16
 1973 0050 240C     		lsrs	r4, r4, #16
 1974              	.LVL224:
 1975 0052 6140     		eors	r1, r4
 1976              	.LVL225:
 1977 0054 2404     		lsls	r4, r4, #16
 1978              	.LVL226:
 1979 0056 6340     		eors	r3, r4
 1980              	.LVL227:
 1981 0058 8808     		lsrs	r0, r1, #2
 1982              	.LVL228:
 1983 005a 5840     		eors	r0, r3
 1984 005c 964A     		ldr	r2, .L71+4
 1985              	.LVL229:
 1986 005e 1040     		ands	r0, r2
 1987              	.LVL230:
 1988 0060 4340     		eors	r3, r0
 1989              	.LVL231:
 1990 0062 8000     		lsls	r0, r0, #2
 1991              	.LVL232:
 1992 0064 4840     		eors	r0, r1
 1993              	.LVL233:
 1994 0066 040A     		lsrs	r4, r0, #8
 1995              	.LVL234:
 1996 0068 5C40     		eors	r4, r3
 1997 006a 944A     		ldr	r2, .L71+8
 1998              	.LVL235:
 1999 006c 1440     		ands	r4, r2
 2000              	.LVL236:
 2001 006e 6340     		eors	r3, r4
 2002              	.LVL237:
 2003 0070 2402     		lsls	r4, r4, #8
 2004              	.LVL238:
 2005 0072 6040     		eors	r0, r4
 2006              	.LVL239:
 2007 0074 1F24     		movs	r4, #31
 2008 0076 E041     		rors	r0, r0, r4
 2009              	.LVL240:
 2010 0078 1900     		movs	r1, r3
 2011 007a 4140     		eors	r1, r0
 2012 007c 904A     		ldr	r2, .L71+12
 2013 007e 0A40     		ands	r2, r1
ARM GAS  C:\Users\Phuong\AppData\Local\Temp\ccawWFGQ.s 			page 50


 2014              	.LVL241:
 2015 0080 5040     		eors	r0, r2
 2016              	.LVL242:
 2017 0082 5A40     		eors	r2, r3
 2018              	.LVL243:
 2019 0084 E241     		rors	r2, r2, r4
 2020              	.LVL244:
 726:Source\mbedtls_open\library/des.c **** 
 727:Source\mbedtls_open\library/des.c ****     for( i = 0; i < 8; i++ )
 2021              		.loc 1 727 0
 2022 0086 0023     		movs	r3, #0
 2023 0088 0093     		str	r3, [sp]
 2024 008a 1400     		movs	r4, r2
 2025 008c 0100     		movs	r1, r0
 2026              	.LVL245:
 2027 008e 81E0     		b	.L65
 2028              	.LVL246:
 2029              	.L66:
 728:Source\mbedtls_open\library/des.c ****     {
 729:Source\mbedtls_open\library/des.c ****         DES_ROUND( Y, X );
 2030              		.loc 1 729 0 discriminator 3
 2031 0090 2A68     		ldr	r2, [r5]
 2032 0092 4A40     		eors	r2, r1
 2033              	.LVL247:
 2034 0094 3F23     		movs	r3, #63
 2035              	.LVL248:
 2036 0096 1800     		movs	r0, r3
 2037 0098 1040     		ands	r0, r2
 2038 009a 8A4E     		ldr	r6, .L71+16
 2039 009c B246     		mov	r10, r6
 2040 009e 8000     		lsls	r0, r0, #2
 2041 00a0 8059     		ldr	r0, [r0, r6]
 2042 00a2 8446     		mov	ip, r0
 2043 00a4 170A     		lsrs	r7, r2, #8
 2044 00a6 1F40     		ands	r7, r3
 2045 00a8 8748     		ldr	r0, .L71+20
 2046 00aa 8146     		mov	r9, r0
 2047 00ac BF00     		lsls	r7, r7, #2
 2048 00ae 3858     		ldr	r0, [r7, r0]
 2049 00b0 6646     		mov	r6, ip
 2050 00b2 7040     		eors	r0, r6
 2051 00b4 170C     		lsrs	r7, r2, #16
 2052 00b6 1F40     		ands	r7, r3
 2053 00b8 844E     		ldr	r6, .L71+24
 2054 00ba B046     		mov	r8, r6
 2055 00bc BF00     		lsls	r7, r7, #2
 2056 00be BF59     		ldr	r7, [r7, r6]
 2057 00c0 7840     		eors	r0, r7
 2058 00c2 120E     		lsrs	r2, r2, #24
 2059              	.LVL249:
 2060 00c4 1A40     		ands	r2, r3
 2061 00c6 9200     		lsls	r2, r2, #2
 2062 00c8 814E     		ldr	r6, .L71+28
 2063 00ca 9259     		ldr	r2, [r2, r6]
 2064 00cc 5040     		eors	r0, r2
 2065 00ce 6040     		eors	r0, r4
 2066              	.LVL250:
ARM GAS  C:\Users\Phuong\AppData\Local\Temp\ccawWFGQ.s 			page 51


 2067 00d0 0A00     		movs	r2, r1
 2068 00d2 0424     		movs	r4, #4
 2069 00d4 E241     		rors	r2, r2, r4
 2070 00d6 6C68     		ldr	r4, [r5, #4]
 2071 00d8 6240     		eors	r2, r4
 2072              	.LVL251:
 2073 00da 1C00     		movs	r4, r3
 2074 00dc 1440     		ands	r4, r2
 2075 00de A400     		lsls	r4, r4, #2
 2076 00e0 7C4E     		ldr	r6, .L71+32
 2077 00e2 A459     		ldr	r4, [r4, r6]
 2078 00e4 170A     		lsrs	r7, r2, #8
 2079 00e6 1F40     		ands	r7, r3
 2080 00e8 7B4E     		ldr	r6, .L71+36
 2081 00ea B446     		mov	ip, r6
 2082 00ec BF00     		lsls	r7, r7, #2
 2083 00ee BF59     		ldr	r7, [r7, r6]
 2084 00f0 7C40     		eors	r4, r7
 2085 00f2 A346     		mov	fp, r4
 2086 00f4 140C     		lsrs	r4, r2, #16
 2087 00f6 1C40     		ands	r4, r3
 2088 00f8 784F     		ldr	r7, .L71+40
 2089 00fa A400     		lsls	r4, r4, #2
 2090 00fc E459     		ldr	r4, [r4, r7]
 2091 00fe 5E46     		mov	r6, fp
 2092 0100 7440     		eors	r4, r6
 2093 0102 120E     		lsrs	r2, r2, #24
 2094              	.LVL252:
 2095 0104 1A40     		ands	r2, r3
 2096 0106 764E     		ldr	r6, .L71+44
 2097 0108 B346     		mov	fp, r6
 2098 010a 9200     		lsls	r2, r2, #2
 2099 010c 9259     		ldr	r2, [r2, r6]
 2100 010e 5440     		eors	r4, r2
 2101 0110 4440     		eors	r4, r0
 2102              	.LVL253:
 730:Source\mbedtls_open\library/des.c ****         DES_ROUND( X, Y );
 2103              		.loc 1 730 0 discriminator 3
 2104 0112 AA68     		ldr	r2, [r5, #8]
 2105 0114 6240     		eors	r2, r4
 2106              	.LVL254:
 2107 0116 1800     		movs	r0, r3
 2108 0118 1040     		ands	r0, r2
 2109 011a 8000     		lsls	r0, r0, #2
 2110 011c 5646     		mov	r6, r10
 2111 011e 8059     		ldr	r0, [r0, r6]
 2112 0120 8246     		mov	r10, r0
 2113 0122 100A     		lsrs	r0, r2, #8
 2114 0124 1840     		ands	r0, r3
 2115 0126 8000     		lsls	r0, r0, #2
 2116 0128 4E46     		mov	r6, r9
 2117 012a 8059     		ldr	r0, [r0, r6]
 2118 012c 5646     		mov	r6, r10
 2119 012e 4640     		eors	r6, r0
 2120 0130 B246     		mov	r10, r6
 2121 0132 100C     		lsrs	r0, r2, #16
 2122 0134 1840     		ands	r0, r3
ARM GAS  C:\Users\Phuong\AppData\Local\Temp\ccawWFGQ.s 			page 52


 2123 0136 8000     		lsls	r0, r0, #2
 2124 0138 4646     		mov	r6, r8
 2125 013a 8059     		ldr	r0, [r0, r6]
 2126 013c 5646     		mov	r6, r10
 2127 013e 7040     		eors	r0, r6
 2128 0140 120E     		lsrs	r2, r2, #24
 2129              	.LVL255:
 2130 0142 1A40     		ands	r2, r3
 2131 0144 9200     		lsls	r2, r2, #2
 2132 0146 624E     		ldr	r6, .L71+28
 2133 0148 9259     		ldr	r2, [r2, r6]
 2134 014a 5040     		eors	r0, r2
 2135 014c 4840     		eors	r0, r1
 2136              	.LVL256:
 2137 014e 2200     		movs	r2, r4
 2138 0150 0421     		movs	r1, #4
 2139 0152 CA41     		rors	r2, r2, r1
 2140 0154 E968     		ldr	r1, [r5, #12]
 2141 0156 4A40     		eors	r2, r1
 2142              	.LVL257:
 2143 0158 1900     		movs	r1, r3
 2144 015a 1140     		ands	r1, r2
 2145 015c 8900     		lsls	r1, r1, #2
 2146 015e 5D4E     		ldr	r6, .L71+32
 2147 0160 8959     		ldr	r1, [r1, r6]
 2148 0162 8846     		mov	r8, r1
 2149 0164 110A     		lsrs	r1, r2, #8
 2150 0166 1940     		ands	r1, r3
 2151 0168 8900     		lsls	r1, r1, #2
 2152 016a 6646     		mov	r6, ip
 2153 016c 8959     		ldr	r1, [r1, r6]
 2154 016e 4646     		mov	r6, r8
 2155 0170 4E40     		eors	r6, r1
 2156 0172 110C     		lsrs	r1, r2, #16
 2157 0174 1940     		ands	r1, r3
 2158 0176 8900     		lsls	r1, r1, #2
 2159 0178 CF59     		ldr	r7, [r1, r7]
 2160 017a 3100     		movs	r1, r6
 2161 017c 7940     		eors	r1, r7
 2162 017e 120E     		lsrs	r2, r2, #24
 2163              	.LVL258:
 2164 0180 1340     		ands	r3, r2
 2165 0182 9B00     		lsls	r3, r3, #2
 2166 0184 5A46     		mov	r2, fp
 2167 0186 9B58     		ldr	r3, [r3, r2]
 2168 0188 5940     		eors	r1, r3
 2169 018a 4140     		eors	r1, r0
 2170              	.LVL259:
 727:Source\mbedtls_open\library/des.c ****     {
 2171              		.loc 1 727 0 discriminator 3
 2172 018c 009B     		ldr	r3, [sp]
 2173 018e 0133     		adds	r3, r3, #1
 2174 0190 0093     		str	r3, [sp]
 2175              	.LVL260:
 2176              		.loc 1 730 0 discriminator 3
 2177 0192 1035     		adds	r5, r5, #16
 2178              	.LVL261:
ARM GAS  C:\Users\Phuong\AppData\Local\Temp\ccawWFGQ.s 			page 53


 2179              	.L65:
 727:Source\mbedtls_open\library/des.c ****     {
 2180              		.loc 1 727 0 discriminator 1
 2181 0194 009B     		ldr	r3, [sp]
 2182 0196 072B     		cmp	r3, #7
 2183 0198 00DC     		bgt	.LCB2269
 2184 019a 79E7     		b	.L66	@long jump
 2185              	.LCB2269:
 2186 019c 0023     		movs	r3, #0
 2187 019e 0093     		str	r3, [sp]
 2188              	.LVL262:
 2189 01a0 0800     		movs	r0, r1
 2190 01a2 7EE0     		b	.L67
 2191              	.LVL263:
 2192              	.L68:
 731:Source\mbedtls_open\library/des.c ****     }
 732:Source\mbedtls_open\library/des.c **** 
 733:Source\mbedtls_open\library/des.c ****     for( i = 0; i < 8; i++ )
 734:Source\mbedtls_open\library/des.c ****     {
 735:Source\mbedtls_open\library/des.c ****         DES_ROUND( X, Y );
 2193              		.loc 1 735 0 discriminator 3
 2194 01a4 2A68     		ldr	r2, [r5]
 2195 01a6 6240     		eors	r2, r4
 2196              	.LVL264:
 2197 01a8 3F23     		movs	r3, #63
 2198              	.LVL265:
 2199 01aa 1900     		movs	r1, r3
 2200 01ac 1140     		ands	r1, r2
 2201 01ae 454E     		ldr	r6, .L71+16
 2202 01b0 B346     		mov	fp, r6
 2203 01b2 8900     		lsls	r1, r1, #2
 2204 01b4 8F59     		ldr	r7, [r1, r6]
 2205 01b6 160A     		lsrs	r6, r2, #8
 2206 01b8 1E40     		ands	r6, r3
 2207 01ba 4349     		ldr	r1, .L71+20
 2208 01bc 8A46     		mov	r10, r1
 2209 01be B600     		lsls	r6, r6, #2
 2210 01c0 7158     		ldr	r1, [r6, r1]
 2211 01c2 7940     		eors	r1, r7
 2212 01c4 160C     		lsrs	r6, r2, #16
 2213 01c6 1E40     		ands	r6, r3
 2214 01c8 404F     		ldr	r7, .L71+24
 2215 01ca B946     		mov	r9, r7
 2216 01cc B600     		lsls	r6, r6, #2
 2217 01ce F659     		ldr	r6, [r6, r7]
 2218 01d0 7140     		eors	r1, r6
 2219 01d2 120E     		lsrs	r2, r2, #24
 2220              	.LVL266:
 2221 01d4 1A40     		ands	r2, r3
 2222 01d6 3E4E     		ldr	r6, .L71+28
 2223 01d8 B046     		mov	r8, r6
 2224 01da 9200     		lsls	r2, r2, #2
 2225 01dc 9259     		ldr	r2, [r2, r6]
 2226 01de 5140     		eors	r1, r2
 2227 01e0 4140     		eors	r1, r0
 2228              	.LVL267:
 2229 01e2 2200     		movs	r2, r4
ARM GAS  C:\Users\Phuong\AppData\Local\Temp\ccawWFGQ.s 			page 54


 2230 01e4 0420     		movs	r0, #4
 2231 01e6 C241     		rors	r2, r2, r0
 2232 01e8 6868     		ldr	r0, [r5, #4]
 2233 01ea 4240     		eors	r2, r0
 2234              	.LVL268:
 2235 01ec 1800     		movs	r0, r3
 2236 01ee 1040     		ands	r0, r2
 2237 01f0 8000     		lsls	r0, r0, #2
 2238 01f2 384E     		ldr	r6, .L71+32
 2239 01f4 8059     		ldr	r0, [r0, r6]
 2240 01f6 160A     		lsrs	r6, r2, #8
 2241 01f8 1E40     		ands	r6, r3
 2242 01fa 374F     		ldr	r7, .L71+36
 2243 01fc B600     		lsls	r6, r6, #2
 2244 01fe F659     		ldr	r6, [r6, r7]
 2245 0200 7040     		eors	r0, r6
 2246 0202 8446     		mov	ip, r0
 2247 0204 100C     		lsrs	r0, r2, #16
 2248 0206 1840     		ands	r0, r3
 2249 0208 8000     		lsls	r0, r0, #2
 2250 020a 344E     		ldr	r6, .L71+40
 2251 020c 8059     		ldr	r0, [r0, r6]
 2252 020e 6646     		mov	r6, ip
 2253 0210 7040     		eors	r0, r6
 2254 0212 120E     		lsrs	r2, r2, #24
 2255              	.LVL269:
 2256 0214 1A40     		ands	r2, r3
 2257 0216 324E     		ldr	r6, .L71+44
 2258 0218 B446     		mov	ip, r6
 2259 021a 9200     		lsls	r2, r2, #2
 2260 021c 9259     		ldr	r2, [r2, r6]
 2261 021e 5040     		eors	r0, r2
 2262 0220 4840     		eors	r0, r1
 2263              	.LVL270:
 736:Source\mbedtls_open\library/des.c ****         DES_ROUND( Y, X );
 2264              		.loc 1 736 0 discriminator 3
 2265 0222 AA68     		ldr	r2, [r5, #8]
 2266 0224 4240     		eors	r2, r0
 2267              	.LVL271:
 2268 0226 1900     		movs	r1, r3
 2269 0228 1140     		ands	r1, r2
 2270 022a 8900     		lsls	r1, r1, #2
 2271 022c 5E46     		mov	r6, fp
 2272 022e 8959     		ldr	r1, [r1, r6]
 2273 0230 8B46     		mov	fp, r1
 2274 0232 110A     		lsrs	r1, r2, #8
 2275 0234 1940     		ands	r1, r3
 2276 0236 8900     		lsls	r1, r1, #2
 2277 0238 5646     		mov	r6, r10
 2278 023a 8959     		ldr	r1, [r1, r6]
 2279 023c 5E46     		mov	r6, fp
 2280 023e 4E40     		eors	r6, r1
 2281 0240 B346     		mov	fp, r6
 2282 0242 110C     		lsrs	r1, r2, #16
 2283 0244 1940     		ands	r1, r3
 2284 0246 8900     		lsls	r1, r1, #2
 2285 0248 4E46     		mov	r6, r9
ARM GAS  C:\Users\Phuong\AppData\Local\Temp\ccawWFGQ.s 			page 55


 2286 024a 8959     		ldr	r1, [r1, r6]
 2287 024c 5E46     		mov	r6, fp
 2288 024e 7140     		eors	r1, r6
 2289 0250 120E     		lsrs	r2, r2, #24
 2290              	.LVL272:
 2291 0252 1A40     		ands	r2, r3
 2292 0254 9200     		lsls	r2, r2, #2
 2293 0256 4646     		mov	r6, r8
 2294 0258 9259     		ldr	r2, [r2, r6]
 2295 025a 5140     		eors	r1, r2
 2296 025c 6140     		eors	r1, r4
 2297              	.LVL273:
 2298 025e 0200     		movs	r2, r0
 2299 0260 0424     		movs	r4, #4
 2300 0262 E241     		rors	r2, r2, r4
 2301 0264 EC68     		ldr	r4, [r5, #12]
 2302 0266 6240     		eors	r2, r4
 2303              	.LVL274:
 2304 0268 1C00     		movs	r4, r3
 2305 026a 1440     		ands	r4, r2
 2306 026c A400     		lsls	r4, r4, #2
 2307 026e 194E     		ldr	r6, .L71+32
 2308 0270 A459     		ldr	r4, [r4, r6]
 2309 0272 160A     		lsrs	r6, r2, #8
 2310 0274 1E40     		ands	r6, r3
 2311 0276 B600     		lsls	r6, r6, #2
 2312 0278 F759     		ldr	r7, [r6, r7]
 2313 027a 7C40     		eors	r4, r7
 2314 027c 170C     		lsrs	r7, r2, #16
 2315 027e 1F40     		ands	r7, r3
 2316 0280 BF00     		lsls	r7, r7, #2
 2317 0282 164E     		ldr	r6, .L71+40
 2318 0284 BF59     		ldr	r7, [r7, r6]
 2319 0286 7C40     		eors	r4, r7
 2320 0288 120E     		lsrs	r2, r2, #24
 2321              	.LVL275:
 2322 028a 1340     		ands	r3, r2
 2323 028c 9B00     		lsls	r3, r3, #2
 2324 028e 6246     		mov	r2, ip
 2325 0290 9A58     		ldr	r2, [r3, r2]
 2326 0292 2300     		movs	r3, r4
 2327 0294 5340     		eors	r3, r2
 2328 0296 5940     		eors	r1, r3
 2329              	.LVL276:
 2330 0298 0C00     		movs	r4, r1
 2331              	.LVL277:
 733:Source\mbedtls_open\library/des.c ****     {
 2332              		.loc 1 733 0 discriminator 3
 2333 029a 009B     		ldr	r3, [sp]
 2334 029c 0133     		adds	r3, r3, #1
 2335 029e 0093     		str	r3, [sp]
 2336              	.LVL278:
 2337              		.loc 1 736 0 discriminator 3
 2338 02a0 1035     		adds	r5, r5, #16
 2339              	.LVL279:
 2340              	.L67:
 733:Source\mbedtls_open\library/des.c ****     {
ARM GAS  C:\Users\Phuong\AppData\Local\Temp\ccawWFGQ.s 			page 56


 2341              		.loc 1 733 0 discriminator 1
 2342 02a2 009B     		ldr	r3, [sp]
 2343 02a4 072B     		cmp	r3, #7
 2344 02a6 00DC     		bgt	.LCB2455
 2345 02a8 7CE7     		b	.L68	@long jump
 2346              	.LCB2455:
 2347 02aa 0023     		movs	r3, #0
 2348 02ac 0093     		str	r3, [sp]
 2349              	.LVL280:
 2350 02ae 0100     		movs	r1, r0
 2351 02b0 9AE0     		b	.L69
 2352              	.L72:
 2353 02b2 C046     		.align	2
 2354              	.L71:
 2355 02b4 0F0F0F0F 		.word	252645135
 2356 02b8 33333333 		.word	858993459
 2357 02bc FF00FF00 		.word	16711935
 2358 02c0 AAAAAAAA 		.word	-1431655766
 2359 02c4 B0010000 		.word	.LANCHOR3
 2360 02c8 B0020000 		.word	.LANCHOR4
 2361 02cc B0030000 		.word	.LANCHOR5
 2362 02d0 B0040000 		.word	.LANCHOR6
 2363 02d4 B0050000 		.word	.LANCHOR7
 2364 02d8 B0060000 		.word	.LANCHOR8
 2365 02dc B0070000 		.word	.LANCHOR9
 2366 02e0 B0080000 		.word	.LANCHOR10
 2367              	.LVL281:
 2368              	.L70:
 737:Source\mbedtls_open\library/des.c ****     }
 738:Source\mbedtls_open\library/des.c **** 
 739:Source\mbedtls_open\library/des.c ****     for( i = 0; i < 8; i++ )
 740:Source\mbedtls_open\library/des.c ****     {
 741:Source\mbedtls_open\library/des.c ****         DES_ROUND( Y, X );
 2369              		.loc 1 741 0 discriminator 3
 2370 02e4 2A68     		ldr	r2, [r5]
 2371 02e6 4A40     		eors	r2, r1
 2372              	.LVL282:
 2373 02e8 3F23     		movs	r3, #63
 2374              	.LVL283:
 2375 02ea 1800     		movs	r0, r3
 2376 02ec 1040     		ands	r0, r2
 2377 02ee 604E     		ldr	r6, .L73
 2378 02f0 B246     		mov	r10, r6
 2379 02f2 8000     		lsls	r0, r0, #2
 2380 02f4 8059     		ldr	r0, [r0, r6]
 2381 02f6 8446     		mov	ip, r0
 2382 02f8 170A     		lsrs	r7, r2, #8
 2383 02fa 1F40     		ands	r7, r3
 2384 02fc 5D48     		ldr	r0, .L73+4
 2385 02fe 8146     		mov	r9, r0
 2386 0300 BF00     		lsls	r7, r7, #2
 2387 0302 3858     		ldr	r0, [r7, r0]
 2388 0304 6646     		mov	r6, ip
 2389 0306 7040     		eors	r0, r6
 2390 0308 170C     		lsrs	r7, r2, #16
 2391 030a 1F40     		ands	r7, r3
 2392 030c 5A4E     		ldr	r6, .L73+8
ARM GAS  C:\Users\Phuong\AppData\Local\Temp\ccawWFGQ.s 			page 57


 2393 030e B046     		mov	r8, r6
 2394 0310 BF00     		lsls	r7, r7, #2
 2395 0312 BF59     		ldr	r7, [r7, r6]
 2396 0314 7840     		eors	r0, r7
 2397 0316 120E     		lsrs	r2, r2, #24
 2398              	.LVL284:
 2399 0318 1A40     		ands	r2, r3
 2400 031a 9200     		lsls	r2, r2, #2
 2401 031c 574E     		ldr	r6, .L73+12
 2402 031e 9259     		ldr	r2, [r2, r6]
 2403 0320 5040     		eors	r0, r2
 2404 0322 6040     		eors	r0, r4
 2405              	.LVL285:
 2406 0324 0A00     		movs	r2, r1
 2407 0326 0424     		movs	r4, #4
 2408 0328 E241     		rors	r2, r2, r4
 2409 032a 6C68     		ldr	r4, [r5, #4]
 2410 032c 6240     		eors	r2, r4
 2411              	.LVL286:
 2412 032e 1C00     		movs	r4, r3
 2413 0330 1440     		ands	r4, r2
 2414 0332 A400     		lsls	r4, r4, #2
 2415 0334 524E     		ldr	r6, .L73+16
 2416 0336 A459     		ldr	r4, [r4, r6]
 2417 0338 170A     		lsrs	r7, r2, #8
 2418 033a 1F40     		ands	r7, r3
 2419 033c 514E     		ldr	r6, .L73+20
 2420 033e B446     		mov	ip, r6
 2421 0340 BF00     		lsls	r7, r7, #2
 2422 0342 BF59     		ldr	r7, [r7, r6]
 2423 0344 7C40     		eors	r4, r7
 2424 0346 A346     		mov	fp, r4
 2425 0348 140C     		lsrs	r4, r2, #16
 2426 034a 1C40     		ands	r4, r3
 2427 034c 4E4F     		ldr	r7, .L73+24
 2428 034e A400     		lsls	r4, r4, #2
 2429 0350 E459     		ldr	r4, [r4, r7]
 2430 0352 5E46     		mov	r6, fp
 2431 0354 7440     		eors	r4, r6
 2432 0356 120E     		lsrs	r2, r2, #24
 2433              	.LVL287:
 2434 0358 1A40     		ands	r2, r3
 2435 035a 4C4E     		ldr	r6, .L73+28
 2436 035c B346     		mov	fp, r6
 2437 035e 9200     		lsls	r2, r2, #2
 2438 0360 9259     		ldr	r2, [r2, r6]
 2439 0362 5440     		eors	r4, r2
 2440 0364 4440     		eors	r4, r0
 2441              	.LVL288:
 742:Source\mbedtls_open\library/des.c ****         DES_ROUND( X, Y );
 2442              		.loc 1 742 0 discriminator 3
 2443 0366 AA68     		ldr	r2, [r5, #8]
 2444 0368 6240     		eors	r2, r4
 2445              	.LVL289:
 2446 036a 1800     		movs	r0, r3
 2447 036c 1040     		ands	r0, r2
 2448 036e 8000     		lsls	r0, r0, #2
ARM GAS  C:\Users\Phuong\AppData\Local\Temp\ccawWFGQ.s 			page 58


 2449 0370 5646     		mov	r6, r10
 2450 0372 8059     		ldr	r0, [r0, r6]
 2451 0374 8246     		mov	r10, r0
 2452 0376 100A     		lsrs	r0, r2, #8
 2453 0378 1840     		ands	r0, r3
 2454 037a 8000     		lsls	r0, r0, #2
 2455 037c 4E46     		mov	r6, r9
 2456 037e 8059     		ldr	r0, [r0, r6]
 2457 0380 5646     		mov	r6, r10
 2458 0382 4640     		eors	r6, r0
 2459 0384 B246     		mov	r10, r6
 2460 0386 100C     		lsrs	r0, r2, #16
 2461 0388 1840     		ands	r0, r3
 2462 038a 8000     		lsls	r0, r0, #2
 2463 038c 4646     		mov	r6, r8
 2464 038e 8059     		ldr	r0, [r0, r6]
 2465 0390 5646     		mov	r6, r10
 2466 0392 7040     		eors	r0, r6
 2467 0394 120E     		lsrs	r2, r2, #24
 2468              	.LVL290:
 2469 0396 1A40     		ands	r2, r3
 2470 0398 9200     		lsls	r2, r2, #2
 2471 039a 384E     		ldr	r6, .L73+12
 2472 039c 9259     		ldr	r2, [r2, r6]
 2473 039e 5040     		eors	r0, r2
 2474 03a0 4840     		eors	r0, r1
 2475              	.LVL291:
 2476 03a2 2200     		movs	r2, r4
 2477 03a4 0421     		movs	r1, #4
 2478 03a6 CA41     		rors	r2, r2, r1
 2479 03a8 E968     		ldr	r1, [r5, #12]
 2480 03aa 4A40     		eors	r2, r1
 2481              	.LVL292:
 2482 03ac 1900     		movs	r1, r3
 2483 03ae 1140     		ands	r1, r2
 2484 03b0 8900     		lsls	r1, r1, #2
 2485 03b2 334E     		ldr	r6, .L73+16
 2486 03b4 8959     		ldr	r1, [r1, r6]
 2487 03b6 8846     		mov	r8, r1
 2488 03b8 110A     		lsrs	r1, r2, #8
 2489 03ba 1940     		ands	r1, r3
 2490 03bc 8900     		lsls	r1, r1, #2
 2491 03be 6646     		mov	r6, ip
 2492 03c0 8959     		ldr	r1, [r1, r6]
 2493 03c2 4646     		mov	r6, r8
 2494 03c4 4E40     		eors	r6, r1
 2495 03c6 110C     		lsrs	r1, r2, #16
 2496 03c8 1940     		ands	r1, r3
 2497 03ca 8900     		lsls	r1, r1, #2
 2498 03cc CF59     		ldr	r7, [r1, r7]
 2499 03ce 3100     		movs	r1, r6
 2500 03d0 7940     		eors	r1, r7
 2501 03d2 120E     		lsrs	r2, r2, #24
 2502              	.LVL293:
 2503 03d4 1340     		ands	r3, r2
 2504 03d6 9B00     		lsls	r3, r3, #2
 2505 03d8 5A46     		mov	r2, fp
ARM GAS  C:\Users\Phuong\AppData\Local\Temp\ccawWFGQ.s 			page 59


 2506 03da 9B58     		ldr	r3, [r3, r2]
 2507 03dc 5940     		eors	r1, r3
 2508 03de 4140     		eors	r1, r0
 2509              	.LVL294:
 739:Source\mbedtls_open\library/des.c ****     {
 2510              		.loc 1 739 0 discriminator 3
 2511 03e0 009B     		ldr	r3, [sp]
 2512 03e2 0133     		adds	r3, r3, #1
 2513 03e4 0093     		str	r3, [sp]
 2514              	.LVL295:
 2515              		.loc 1 742 0 discriminator 3
 2516 03e6 1035     		adds	r5, r5, #16
 2517              	.LVL296:
 2518              	.L69:
 739:Source\mbedtls_open\library/des.c ****     {
 2519              		.loc 1 739 0 discriminator 1
 2520 03e8 009B     		ldr	r3, [sp]
 2521 03ea 072B     		cmp	r3, #7
 2522 03ec 00DC     		bgt	.LCB2661
 2523 03ee 79E7     		b	.L70	@long jump
 2524              	.LCB2661:
 2525 03f0 2000     		movs	r0, r4
 743:Source\mbedtls_open\library/des.c ****     }
 744:Source\mbedtls_open\library/des.c **** 
 745:Source\mbedtls_open\library/des.c ****     DES_FP( Y, X );
 2526              		.loc 1 745 0
 2527 03f2 0124     		movs	r4, #1
 2528              	.LVL297:
 2529 03f4 0B00     		movs	r3, r1
 2530 03f6 E341     		rors	r3, r3, r4
 2531              	.LVL298:
 2532 03f8 0100     		movs	r1, r0
 2533 03fa 5940     		eors	r1, r3
 2534 03fc 244A     		ldr	r2, .L73+32
 2535 03fe 1140     		ands	r1, r2
 2536              	.LVL299:
 2537 0400 4B40     		eors	r3, r1
 2538              	.LVL300:
 2539 0402 0200     		movs	r2, r0
 2540 0404 4A40     		eors	r2, r1
 2541 0406 1100     		movs	r1, r2
 2542              	.LVL301:
 2543 0408 E141     		rors	r1, r1, r4
 2544              	.LVL302:
 2545 040a 0C0A     		lsrs	r4, r1, #8
 2546 040c 5C40     		eors	r4, r3
 2547 040e 214D     		ldr	r5, .L73+36
 2548              	.LVL303:
 2549 0410 2C40     		ands	r4, r5
 2550              	.LVL304:
 2551 0412 6340     		eors	r3, r4
 2552              	.LVL305:
 2553 0414 2402     		lsls	r4, r4, #8
 2554              	.LVL306:
 2555 0416 6140     		eors	r1, r4
 2556              	.LVL307:
 2557 0418 8C08     		lsrs	r4, r1, #2
ARM GAS  C:\Users\Phuong\AppData\Local\Temp\ccawWFGQ.s 			page 60


 2558 041a 5C40     		eors	r4, r3
 2559 041c 1E4D     		ldr	r5, .L73+40
 2560 041e 2C40     		ands	r4, r5
 2561              	.LVL308:
 2562 0420 6340     		eors	r3, r4
 2563              	.LVL309:
 2564 0422 A400     		lsls	r4, r4, #2
 2565              	.LVL310:
 2566 0424 6140     		eors	r1, r4
 2567              	.LVL311:
 2568 0426 1A0C     		lsrs	r2, r3, #16
 2569 0428 4A40     		eors	r2, r1
 2570 042a 1204     		lsls	r2, r2, #16
 2571 042c 120C     		lsrs	r2, r2, #16
 2572              	.LVL312:
 2573 042e 5140     		eors	r1, r2
 2574              	.LVL313:
 2575 0430 1204     		lsls	r2, r2, #16
 2576              	.LVL314:
 2577 0432 5340     		eors	r3, r2
 2578              	.LVL315:
 2579 0434 1A09     		lsrs	r2, r3, #4
 2580 0436 4A40     		eors	r2, r1
 2581 0438 1848     		ldr	r0, .L73+44
 2582 043a 0240     		ands	r2, r0
 2583              	.LVL316:
 2584 043c 5140     		eors	r1, r2
 2585              	.LVL317:
 2586 043e 1201     		lsls	r2, r2, #4
 2587              	.LVL318:
 2588 0440 5340     		eors	r3, r2
 2589              	.LVL319:
 746:Source\mbedtls_open\library/des.c **** 
 747:Source\mbedtls_open\library/des.c ****     PUT_UINT32_BE( Y, output, 0 );
 2590              		.loc 1 747 0
 2591 0442 1A0E     		lsrs	r2, r3, #24
 2592 0444 0198     		ldr	r0, [sp, #4]
 2593 0446 0270     		strb	r2, [r0]
 2594 0448 1A0C     		lsrs	r2, r3, #16
 2595 044a 4270     		strb	r2, [r0, #1]
 2596 044c 1A0A     		lsrs	r2, r3, #8
 2597 044e 8270     		strb	r2, [r0, #2]
 2598 0450 C370     		strb	r3, [r0, #3]
 748:Source\mbedtls_open\library/des.c ****     PUT_UINT32_BE( X, output, 4 );
 2599              		.loc 1 748 0
 2600 0452 0B0E     		lsrs	r3, r1, #24
 2601              	.LVL320:
 2602 0454 0371     		strb	r3, [r0, #4]
 2603 0456 0B0C     		lsrs	r3, r1, #16
 2604 0458 4371     		strb	r3, [r0, #5]
 2605 045a 0B0A     		lsrs	r3, r1, #8
 2606 045c 8371     		strb	r3, [r0, #6]
 2607 045e C171     		strb	r1, [r0, #7]
 749:Source\mbedtls_open\library/des.c **** 
 750:Source\mbedtls_open\library/des.c ****     return( 0 );
 751:Source\mbedtls_open\library/des.c **** }
 2608              		.loc 1 751 0
ARM GAS  C:\Users\Phuong\AppData\Local\Temp\ccawWFGQ.s 			page 61


 2609 0460 0020     		movs	r0, #0
 2610 0462 03B0     		add	sp, sp, #12
 2611              	.LVL321:
 2612              		@ sp needed
 2613 0464 3CBC     		pop	{r2, r3, r4, r5}
 2614 0466 9046     		mov	r8, r2
 2615 0468 9946     		mov	r9, r3
 2616 046a A246     		mov	r10, r4
 2617 046c AB46     		mov	fp, r5
 2618 046e F0BD     		pop	{r4, r5, r6, r7, pc}
 2619              	.L74:
 2620              		.align	2
 2621              	.L73:
 2622 0470 B0010000 		.word	.LANCHOR3
 2623 0474 B0020000 		.word	.LANCHOR4
 2624 0478 B0030000 		.word	.LANCHOR5
 2625 047c B0040000 		.word	.LANCHOR6
 2626 0480 B0050000 		.word	.LANCHOR7
 2627 0484 B0060000 		.word	.LANCHOR8
 2628 0488 B0070000 		.word	.LANCHOR9
 2629 048c B0080000 		.word	.LANCHOR10
 2630 0490 AAAAAAAA 		.word	-1431655766
 2631 0494 FF00FF00 		.word	16711935
 2632 0498 33333333 		.word	858993459
 2633 049c 0F0F0F0F 		.word	252645135
 2634              		.cfi_endproc
 2635              	.LFE19:
 2636              		.size	mbedtls_des3_crypt_ecb, .-mbedtls_des3_crypt_ecb
 2637              		.section	.text.mbedtls_des3_crypt_cbc,"ax",%progbits
 2638              		.align	2
 2639              		.global	mbedtls_des3_crypt_cbc
 2640              		.code	16
 2641              		.thumb_func
 2642              		.type	mbedtls_des3_crypt_cbc, %function
 2643              	mbedtls_des3_crypt_cbc:
 2644              	.LFB20:
 752:Source\mbedtls_open\library/des.c **** #endif /* !MBEDTLS_DES3_CRYPT_ECB_ALT */
 753:Source\mbedtls_open\library/des.c **** 
 754:Source\mbedtls_open\library/des.c **** #if defined(MBEDTLS_CIPHER_MODE_CBC)
 755:Source\mbedtls_open\library/des.c **** /*
 756:Source\mbedtls_open\library/des.c ****  * 3DES-CBC buffer encryption/decryption
 757:Source\mbedtls_open\library/des.c ****  */
 758:Source\mbedtls_open\library/des.c **** int mbedtls_des3_crypt_cbc( mbedtls_des3_context *ctx,
 759:Source\mbedtls_open\library/des.c ****                      int mode,
 760:Source\mbedtls_open\library/des.c ****                      size_t length,
 761:Source\mbedtls_open\library/des.c ****                      unsigned char iv[8],
 762:Source\mbedtls_open\library/des.c ****                      const unsigned char *input,
 763:Source\mbedtls_open\library/des.c ****                      unsigned char *output )
 764:Source\mbedtls_open\library/des.c **** {
 2645              		.loc 1 764 0
 2646              		.cfi_startproc
 2647              		@ args = 8, pretend = 0, frame = 16
 2648              		@ frame_needed = 0, uses_anonymous_args = 0
 2649              	.LVL322:
 2650 0000 F0B5     		push	{r4, r5, r6, r7, lr}
 2651              		.cfi_def_cfa_offset 20
 2652              		.cfi_offset 4, -20
ARM GAS  C:\Users\Phuong\AppData\Local\Temp\ccawWFGQ.s 			page 62


 2653              		.cfi_offset 5, -16
 2654              		.cfi_offset 6, -12
 2655              		.cfi_offset 7, -8
 2656              		.cfi_offset 14, -4
 2657 0002 85B0     		sub	sp, sp, #20
 2658              		.cfi_def_cfa_offset 40
 2659 0004 0190     		str	r0, [sp, #4]
 2660 0006 1400     		movs	r4, r2
 2661 0008 1E00     		movs	r6, r3
 2662 000a 0A9F     		ldr	r7, [sp, #40]
 2663 000c 0B9D     		ldr	r5, [sp, #44]
 765:Source\mbedtls_open\library/des.c ****     int i;
 766:Source\mbedtls_open\library/des.c ****     unsigned char temp[8];
 767:Source\mbedtls_open\library/des.c **** 
 768:Source\mbedtls_open\library/des.c ****     if( length % 8 )
 2664              		.loc 1 768 0
 2665 000e 5307     		lsls	r3, r2, #29
 2666 0010 3CD1     		bne	.L84
 2667              	.LVL323:
 769:Source\mbedtls_open\library/des.c ****         return( MBEDTLS_ERR_DES_INVALID_INPUT_LENGTH );
 770:Source\mbedtls_open\library/des.c **** 
 771:Source\mbedtls_open\library/des.c ****     if( mode == MBEDTLS_DES_ENCRYPT )
 2668              		.loc 1 771 0
 2669 0012 0129     		cmp	r1, #1
 2670 0014 36D1     		bne	.L78
 2671 0016 15E0     		b	.L77
 2672              	.LVL324:
 2673              	.L79:
 772:Source\mbedtls_open\library/des.c ****     {
 773:Source\mbedtls_open\library/des.c ****         while( length > 0 )
 774:Source\mbedtls_open\library/des.c ****         {
 775:Source\mbedtls_open\library/des.c ****             for( i = 0; i < 8; i++ )
 776:Source\mbedtls_open\library/des.c ****                 output[i] = (unsigned char)( input[i] ^ iv[i] );
 2674              		.loc 1 776 0 discriminator 3
 2675 0018 F95C     		ldrb	r1, [r7, r3]
 2676 001a F25C     		ldrb	r2, [r6, r3]
 2677 001c 4A40     		eors	r2, r1
 2678 001e EA54     		strb	r2, [r5, r3]
 775:Source\mbedtls_open\library/des.c ****                 output[i] = (unsigned char)( input[i] ^ iv[i] );
 2679              		.loc 1 775 0 discriminator 3
 2680 0020 0133     		adds	r3, r3, #1
 2681              	.LVL325:
 2682 0022 00E0     		b	.L80
 2683              	.LVL326:
 2684              	.L85:
 2685 0024 0023     		movs	r3, #0
 2686              	.L80:
 2687              	.LVL327:
 775:Source\mbedtls_open\library/des.c ****                 output[i] = (unsigned char)( input[i] ^ iv[i] );
 2688              		.loc 1 775 0 is_stmt 0 discriminator 1
 2689 0026 072B     		cmp	r3, #7
 2690 0028 F6DD     		ble	.L79
 777:Source\mbedtls_open\library/des.c **** 
 778:Source\mbedtls_open\library/des.c ****             mbedtls_des3_crypt_ecb( ctx, output, output );
 2691              		.loc 1 778 0 is_stmt 1
 2692 002a 2A00     		movs	r2, r5
 2693 002c 2900     		movs	r1, r5
ARM GAS  C:\Users\Phuong\AppData\Local\Temp\ccawWFGQ.s 			page 63


 2694 002e 0198     		ldr	r0, [sp, #4]
 2695 0030 FFF7FEFF 		bl	mbedtls_des3_crypt_ecb
 2696              	.LVL328:
 779:Source\mbedtls_open\library/des.c ****             memcpy( iv, output, 8 );
 2697              		.loc 1 779 0
 2698 0034 0822     		movs	r2, #8
 2699 0036 2900     		movs	r1, r5
 2700 0038 3000     		movs	r0, r6
 2701 003a FFF7FEFF 		bl	memcpy
 2702              	.LVL329:
 780:Source\mbedtls_open\library/des.c **** 
 781:Source\mbedtls_open\library/des.c ****             input  += 8;
 2703              		.loc 1 781 0
 2704 003e 0837     		adds	r7, r7, #8
 2705              	.LVL330:
 782:Source\mbedtls_open\library/des.c ****             output += 8;
 2706              		.loc 1 782 0
 2707 0040 0835     		adds	r5, r5, #8
 2708              	.LVL331:
 783:Source\mbedtls_open\library/des.c ****             length -= 8;
 2709              		.loc 1 783 0
 2710 0042 083C     		subs	r4, r4, #8
 2711              	.LVL332:
 2712              	.L77:
 773:Source\mbedtls_open\library/des.c ****         {
 2713              		.loc 1 773 0
 2714 0044 002C     		cmp	r4, #0
 2715 0046 EDD1     		bne	.L85
 784:Source\mbedtls_open\library/des.c ****         }
 785:Source\mbedtls_open\library/des.c ****     }
 786:Source\mbedtls_open\library/des.c ****     else /* MBEDTLS_DES_DECRYPT */
 787:Source\mbedtls_open\library/des.c ****     {
 788:Source\mbedtls_open\library/des.c ****         while( length > 0 )
 789:Source\mbedtls_open\library/des.c ****         {
 790:Source\mbedtls_open\library/des.c ****             memcpy( temp, input, 8 );
 791:Source\mbedtls_open\library/des.c ****             mbedtls_des3_crypt_ecb( ctx, input, output );
 792:Source\mbedtls_open\library/des.c **** 
 793:Source\mbedtls_open\library/des.c ****             for( i = 0; i < 8; i++ )
 794:Source\mbedtls_open\library/des.c ****                 output[i] = (unsigned char)( output[i] ^ iv[i] );
 795:Source\mbedtls_open\library/des.c **** 
 796:Source\mbedtls_open\library/des.c ****             memcpy( iv, temp, 8 );
 797:Source\mbedtls_open\library/des.c **** 
 798:Source\mbedtls_open\library/des.c ****             input  += 8;
 799:Source\mbedtls_open\library/des.c ****             output += 8;
 800:Source\mbedtls_open\library/des.c ****             length -= 8;
 801:Source\mbedtls_open\library/des.c ****         }
 802:Source\mbedtls_open\library/des.c ****     }
 803:Source\mbedtls_open\library/des.c **** 
 804:Source\mbedtls_open\library/des.c ****     return( 0 );
 2716              		.loc 1 804 0
 2717 0048 0020     		movs	r0, #0
 2718 004a 21E0     		b	.L76
 2719              	.L83:
 790:Source\mbedtls_open\library/des.c ****             mbedtls_des3_crypt_ecb( ctx, input, output );
 2720              		.loc 1 790 0
 2721 004c 0822     		movs	r2, #8
 2722 004e 3900     		movs	r1, r7
ARM GAS  C:\Users\Phuong\AppData\Local\Temp\ccawWFGQ.s 			page 64


 2723 0050 02A8     		add	r0, sp, #8
 2724 0052 FFF7FEFF 		bl	memcpy
 2725              	.LVL333:
 791:Source\mbedtls_open\library/des.c **** 
 2726              		.loc 1 791 0
 2727 0056 2A00     		movs	r2, r5
 2728 0058 3900     		movs	r1, r7
 2729 005a 0198     		ldr	r0, [sp, #4]
 2730 005c FFF7FEFF 		bl	mbedtls_des3_crypt_ecb
 2731              	.LVL334:
 793:Source\mbedtls_open\library/des.c ****                 output[i] = (unsigned char)( output[i] ^ iv[i] );
 2732              		.loc 1 793 0
 2733 0060 0023     		movs	r3, #0
 2734 0062 05E0     		b	.L81
 2735              	.LVL335:
 2736              	.L82:
 794:Source\mbedtls_open\library/des.c **** 
 2737              		.loc 1 794 0 discriminator 3
 2738 0064 E918     		adds	r1, r5, r3
 2739 0066 0878     		ldrb	r0, [r1]
 2740 0068 F25C     		ldrb	r2, [r6, r3]
 2741 006a 4240     		eors	r2, r0
 2742 006c 0A70     		strb	r2, [r1]
 793:Source\mbedtls_open\library/des.c ****                 output[i] = (unsigned char)( output[i] ^ iv[i] );
 2743              		.loc 1 793 0 discriminator 3
 2744 006e 0133     		adds	r3, r3, #1
 2745              	.LVL336:
 2746              	.L81:
 793:Source\mbedtls_open\library/des.c ****                 output[i] = (unsigned char)( output[i] ^ iv[i] );
 2747              		.loc 1 793 0 is_stmt 0 discriminator 1
 2748 0070 072B     		cmp	r3, #7
 2749 0072 F7DD     		ble	.L82
 796:Source\mbedtls_open\library/des.c **** 
 2750              		.loc 1 796 0 is_stmt 1
 2751 0074 0822     		movs	r2, #8
 2752 0076 02A9     		add	r1, sp, #8
 2753 0078 3000     		movs	r0, r6
 2754 007a FFF7FEFF 		bl	memcpy
 2755              	.LVL337:
 798:Source\mbedtls_open\library/des.c ****             output += 8;
 2756              		.loc 1 798 0
 2757 007e 0837     		adds	r7, r7, #8
 2758              	.LVL338:
 799:Source\mbedtls_open\library/des.c ****             length -= 8;
 2759              		.loc 1 799 0
 2760 0080 0835     		adds	r5, r5, #8
 2761              	.LVL339:
 800:Source\mbedtls_open\library/des.c ****         }
 2762              		.loc 1 800 0
 2763 0082 083C     		subs	r4, r4, #8
 2764              	.LVL340:
 2765              	.L78:
 788:Source\mbedtls_open\library/des.c ****         {
 2766              		.loc 1 788 0
 2767 0084 002C     		cmp	r4, #0
 2768 0086 E1D1     		bne	.L83
 2769              		.loc 1 804 0
ARM GAS  C:\Users\Phuong\AppData\Local\Temp\ccawWFGQ.s 			page 65


 2770 0088 0020     		movs	r0, #0
 2771 008a 01E0     		b	.L76
 2772              	.LVL341:
 2773              	.L84:
 769:Source\mbedtls_open\library/des.c **** 
 2774              		.loc 1 769 0
 2775 008c 3220     		movs	r0, #50
 2776              	.LVL342:
 2777 008e 4042     		rsbs	r0, r0, #0
 2778              	.LVL343:
 2779              	.L76:
 805:Source\mbedtls_open\library/des.c **** }
 2780              		.loc 1 805 0
 2781 0090 05B0     		add	sp, sp, #20
 2782              		@ sp needed
 2783              	.LVL344:
 2784              	.LVL345:
 2785 0092 F0BD     		pop	{r4, r5, r6, r7, pc}
 2786              		.cfi_endproc
 2787              	.LFE20:
 2788              		.size	mbedtls_des3_crypt_cbc, .-mbedtls_des3_crypt_cbc
 2789              		.section	.text.mbedtls_des_self_test,"ax",%progbits
 2790              		.align	2
 2791              		.global	mbedtls_des_self_test
 2792              		.code	16
 2793              		.thumb_func
 2794              		.type	mbedtls_des_self_test, %function
 2795              	mbedtls_des_self_test:
 2796              	.LFB21:
 806:Source\mbedtls_open\library/des.c **** #endif /* MBEDTLS_CIPHER_MODE_CBC */
 807:Source\mbedtls_open\library/des.c **** 
 808:Source\mbedtls_open\library/des.c **** #endif /* !MBEDTLS_DES_ALT */
 809:Source\mbedtls_open\library/des.c **** 
 810:Source\mbedtls_open\library/des.c **** #if defined(MBEDTLS_SELF_TEST)
 811:Source\mbedtls_open\library/des.c **** /*
 812:Source\mbedtls_open\library/des.c ****  * DES and 3DES test vectors from:
 813:Source\mbedtls_open\library/des.c ****  *
 814:Source\mbedtls_open\library/des.c ****  * http://csrc.nist.gov/groups/STM/cavp/documents/des/tripledes-vectors.zip
 815:Source\mbedtls_open\library/des.c ****  */
 816:Source\mbedtls_open\library/des.c **** static const unsigned char des3_test_keys[24] =
 817:Source\mbedtls_open\library/des.c **** {
 818:Source\mbedtls_open\library/des.c ****     0x01, 0x23, 0x45, 0x67, 0x89, 0xAB, 0xCD, 0xEF,
 819:Source\mbedtls_open\library/des.c ****     0x23, 0x45, 0x67, 0x89, 0xAB, 0xCD, 0xEF, 0x01,
 820:Source\mbedtls_open\library/des.c ****     0x45, 0x67, 0x89, 0xAB, 0xCD, 0xEF, 0x01, 0x23
 821:Source\mbedtls_open\library/des.c **** };
 822:Source\mbedtls_open\library/des.c **** 
 823:Source\mbedtls_open\library/des.c **** static const unsigned char des3_test_buf[8] =
 824:Source\mbedtls_open\library/des.c **** {
 825:Source\mbedtls_open\library/des.c ****     0x4E, 0x6F, 0x77, 0x20, 0x69, 0x73, 0x20, 0x74
 826:Source\mbedtls_open\library/des.c **** };
 827:Source\mbedtls_open\library/des.c **** 
 828:Source\mbedtls_open\library/des.c **** static const unsigned char des3_test_ecb_dec[3][8] =
 829:Source\mbedtls_open\library/des.c **** {
 830:Source\mbedtls_open\library/des.c ****     { 0xCD, 0xD6, 0x4F, 0x2F, 0x94, 0x27, 0xC1, 0x5D },
 831:Source\mbedtls_open\library/des.c ****     { 0x69, 0x96, 0xC8, 0xFA, 0x47, 0xA2, 0xAB, 0xEB },
 832:Source\mbedtls_open\library/des.c ****     { 0x83, 0x25, 0x39, 0x76, 0x44, 0x09, 0x1A, 0x0A }
 833:Source\mbedtls_open\library/des.c **** };
ARM GAS  C:\Users\Phuong\AppData\Local\Temp\ccawWFGQ.s 			page 66


 834:Source\mbedtls_open\library/des.c **** 
 835:Source\mbedtls_open\library/des.c **** static const unsigned char des3_test_ecb_enc[3][8] =
 836:Source\mbedtls_open\library/des.c **** {
 837:Source\mbedtls_open\library/des.c ****     { 0x6A, 0x2A, 0x19, 0xF4, 0x1E, 0xCA, 0x85, 0x4B },
 838:Source\mbedtls_open\library/des.c ****     { 0x03, 0xE6, 0x9F, 0x5B, 0xFA, 0x58, 0xEB, 0x42 },
 839:Source\mbedtls_open\library/des.c ****     { 0xDD, 0x17, 0xE8, 0xB8, 0xB4, 0x37, 0xD2, 0x32 }
 840:Source\mbedtls_open\library/des.c **** };
 841:Source\mbedtls_open\library/des.c **** 
 842:Source\mbedtls_open\library/des.c **** #if defined(MBEDTLS_CIPHER_MODE_CBC)
 843:Source\mbedtls_open\library/des.c **** static const unsigned char des3_test_iv[8] =
 844:Source\mbedtls_open\library/des.c **** {
 845:Source\mbedtls_open\library/des.c ****     0x12, 0x34, 0x56, 0x78, 0x90, 0xAB, 0xCD, 0xEF,
 846:Source\mbedtls_open\library/des.c **** };
 847:Source\mbedtls_open\library/des.c **** 
 848:Source\mbedtls_open\library/des.c **** static const unsigned char des3_test_cbc_dec[3][8] =
 849:Source\mbedtls_open\library/des.c **** {
 850:Source\mbedtls_open\library/des.c ****     { 0x12, 0x9F, 0x40, 0xB9, 0xD2, 0x00, 0x56, 0xB3 },
 851:Source\mbedtls_open\library/des.c ****     { 0x47, 0x0E, 0xFC, 0x9A, 0x6B, 0x8E, 0xE3, 0x93 },
 852:Source\mbedtls_open\library/des.c ****     { 0xC5, 0xCE, 0xCF, 0x63, 0xEC, 0xEC, 0x51, 0x4C }
 853:Source\mbedtls_open\library/des.c **** };
 854:Source\mbedtls_open\library/des.c **** 
 855:Source\mbedtls_open\library/des.c **** static const unsigned char des3_test_cbc_enc[3][8] =
 856:Source\mbedtls_open\library/des.c **** {
 857:Source\mbedtls_open\library/des.c ****     { 0x54, 0xF1, 0x5A, 0xF6, 0xEB, 0xE3, 0xA4, 0xB4 },
 858:Source\mbedtls_open\library/des.c ****     { 0x35, 0x76, 0x11, 0x56, 0x5F, 0xA1, 0x8E, 0x4D },
 859:Source\mbedtls_open\library/des.c ****     { 0xCB, 0x19, 0x1F, 0x85, 0xD1, 0xED, 0x84, 0x39 }
 860:Source\mbedtls_open\library/des.c **** };
 861:Source\mbedtls_open\library/des.c **** #endif /* MBEDTLS_CIPHER_MODE_CBC */
 862:Source\mbedtls_open\library/des.c **** 
 863:Source\mbedtls_open\library/des.c **** /*
 864:Source\mbedtls_open\library/des.c ****  * Checkup routine
 865:Source\mbedtls_open\library/des.c ****  */
 866:Source\mbedtls_open\library/des.c **** int mbedtls_des_self_test( int verbose )
 867:Source\mbedtls_open\library/des.c **** {
 2797              		.loc 1 867 0
 2798              		.cfi_startproc
 2799              		@ args = 0, pretend = 0, frame = 544
 2800              		@ frame_needed = 0, uses_anonymous_args = 0
 2801              	.LVL346:
 2802 0000 F0B5     		push	{r4, r5, r6, r7, lr}
 2803              		.cfi_def_cfa_offset 20
 2804              		.cfi_offset 4, -20
 2805              		.cfi_offset 5, -16
 2806              		.cfi_offset 6, -12
 2807              		.cfi_offset 7, -8
 2808              		.cfi_offset 14, -4
 2809 0002 4746     		mov	r7, r8
 2810 0004 80B4     		push	{r7}
 2811              		.cfi_def_cfa_offset 24
 2812              		.cfi_offset 8, -24
 2813 0006 BE4C     		ldr	r4, .L147
 2814 0008 A544     		add	sp, sp, r4
 2815              		.cfi_def_cfa_offset 576
 2816 000a 0600     		movs	r6, r0
 2817              	.LVL347:
 868:Source\mbedtls_open\library/des.c ****     int i, j, u, v, ret = 0;
 869:Source\mbedtls_open\library/des.c ****     mbedtls_des_context ctx;
ARM GAS  C:\Users\Phuong\AppData\Local\Temp\ccawWFGQ.s 			page 67


 870:Source\mbedtls_open\library/des.c ****     mbedtls_des3_context ctx3;
 871:Source\mbedtls_open\library/des.c ****     unsigned char buf[8];
 872:Source\mbedtls_open\library/des.c **** #if defined(MBEDTLS_CIPHER_MODE_CBC)
 873:Source\mbedtls_open\library/des.c ****     unsigned char prv[8];
 874:Source\mbedtls_open\library/des.c ****     unsigned char iv[8];
 875:Source\mbedtls_open\library/des.c **** #endif
 876:Source\mbedtls_open\library/des.c **** 
 877:Source\mbedtls_open\library/des.c ****     mbedtls_des_init( &ctx );
 2818              		.loc 1 877 0
 2819 000c 6AA8     		add	r0, sp, #424
 2820              	.LVL348:
 2821 000e FFF7FEFF 		bl	mbedtls_des_init
 2822              	.LVL349:
 878:Source\mbedtls_open\library/des.c ****     mbedtls_des3_init( &ctx3 );
 2823              		.loc 1 878 0
 2824 0012 0AA8     		add	r0, sp, #40
 2825 0014 FFF7FEFF 		bl	mbedtls_des3_init
 2826              	.LVL350:
 879:Source\mbedtls_open\library/des.c ****     /*
 880:Source\mbedtls_open\library/des.c ****      * ECB mode
 881:Source\mbedtls_open\library/des.c ****      */
 882:Source\mbedtls_open\library/des.c ****     for( i = 0; i < 6; i++ )
 2827              		.loc 1 882 0
 2828 0018 0027     		movs	r7, #0
 2829 001a 80E0     		b	.L87
 2830              	.LVL351:
 2831              	.L109:
 883:Source\mbedtls_open\library/des.c ****     {
 884:Source\mbedtls_open\library/des.c ****         u = i >> 1;
 2832              		.loc 1 884 0
 2833 001c 7D10     		asrs	r5, r7, #1
 2834              	.LVL352:
 885:Source\mbedtls_open\library/des.c ****         v = i  & 1;
 2835              		.loc 1 885 0
 2836 001e 0123     		movs	r3, #1
 2837 0020 3B40     		ands	r3, r7
 2838 0022 9846     		mov	r8, r3
 2839              	.LVL353:
 886:Source\mbedtls_open\library/des.c **** 
 887:Source\mbedtls_open\library/des.c ****         if( verbose != 0 )
 2840              		.loc 1 887 0
 2841 0024 002E     		cmp	r6, #0
 2842 0026 11D0     		beq	.L88
 888:Source\mbedtls_open\library/des.c ****             mbedtls_printf( "  DES%c-ECB-%3d (%s): ",
 2843              		.loc 1 888 0
 2844 0028 002D     		cmp	r5, #0
 2845 002a 01D1     		bne	.L137
 2846 002c 2021     		movs	r1, #32
 2847 002e 00E0     		b	.L89
 2848              	.L137:
 2849 0030 3321     		movs	r1, #51
 2850              	.L89:
 889:Source\mbedtls_open\library/des.c ****                              ( u == 0 ) ? ' ' : '3', 56 + u * 56,
 2851              		.loc 1 889 0 discriminator 4
 2852 0032 6A1C     		adds	r2, r5, #1
 888:Source\mbedtls_open\library/des.c ****             mbedtls_printf( "  DES%c-ECB-%3d (%s): ",
 2853              		.loc 1 888 0 discriminator 4
ARM GAS  C:\Users\Phuong\AppData\Local\Temp\ccawWFGQ.s 			page 68


 2854 0034 D300     		lsls	r3, r2, #3
 2855              	.LVL354:
 2856 0036 9B1A     		subs	r3, r3, r2
 2857 0038 DA00     		lsls	r2, r3, #3
 2858 003a 4346     		mov	r3, r8
 2859 003c 002B     		cmp	r3, #0
 2860 003e 01D1     		bne	.L138
 2861              	.LVL355:
 888:Source\mbedtls_open\library/des.c ****             mbedtls_printf( "  DES%c-ECB-%3d (%s): ",
 2862              		.loc 1 888 0 is_stmt 0
 2863 0040 B04B     		ldr	r3, .L147+4
 2864              	.LVL356:
 2865 0042 00E0     		b	.L90
 2866              	.LVL357:
 2867              	.L138:
 2868 0044 B04B     		ldr	r3, .L147+8
 2869              	.LVL358:
 2870              	.L90:
 888:Source\mbedtls_open\library/des.c ****             mbedtls_printf( "  DES%c-ECB-%3d (%s): ",
 2871              		.loc 1 888 0 discriminator 8
 2872 0046 B148     		ldr	r0, .L147+12
 2873 0048 FFF7FEFF 		bl	printf
 2874              	.LVL359:
 2875              	.L88:
 890:Source\mbedtls_open\library/des.c ****                              ( v == MBEDTLS_DES_DECRYPT ) ? "dec" : "enc" );
 891:Source\mbedtls_open\library/des.c **** 
 892:Source\mbedtls_open\library/des.c ****         memcpy( buf, des3_test_buf, 8 );
 2876              		.loc 1 892 0 is_stmt 1
 2877 004c 08AA     		add	r2, sp, #32
 2878 004e B04B     		ldr	r3, .L147+16
 2879 0050 03CB     		ldmia	r3!, {r0, r1}
 2880 0052 03C2     		stmia	r2!, {r0, r1}
 893:Source\mbedtls_open\library/des.c **** 
 894:Source\mbedtls_open\library/des.c ****         switch( i )
 2881              		.loc 1 894 0
 2882 0054 052F     		cmp	r7, #5
 2883 0056 00D9     		bls	.LCB3094
 2884 0058 48E1     		b	.L139	@long jump
 2885              	.LCB3094:
 2886 005a BB00     		lsls	r3, r7, #2
 2887 005c AD4A     		ldr	r2, .L147+20
 2888 005e D358     		ldr	r3, [r2, r3]
 2889 0060 9F46     		mov	pc, r3
 2890              		.section	.rodata
 2891              		.align	2
 2892              	.L93:
 2893 0000 62000000 		.word	.L92
 2894 0004 6E000000 		.word	.L94
 2895 0008 7A000000 		.word	.L95
 2896 000c 88000000 		.word	.L96
 2897 0010 94000000 		.word	.L97
 2898 0014 A0000000 		.word	.L98
 2899              		.section	.text.mbedtls_des_self_test
 2900              	.L92:
 895:Source\mbedtls_open\library/des.c ****         {
 896:Source\mbedtls_open\library/des.c ****         case 0:
 897:Source\mbedtls_open\library/des.c ****             mbedtls_des_setkey_dec( &ctx, des3_test_keys );
ARM GAS  C:\Users\Phuong\AppData\Local\Temp\ccawWFGQ.s 			page 69


 2901              		.loc 1 897 0
 2902 0062 AB49     		ldr	r1, .L147+16
 2903 0064 0831     		adds	r1, r1, #8
 2904 0066 6AA8     		add	r0, sp, #424
 2905 0068 FFF7FEFF 		bl	mbedtls_des_setkey_dec
 2906              	.LVL360:
 898:Source\mbedtls_open\library/des.c ****             break;
 2907              		.loc 1 898 0
 2908 006c 0AE0     		b	.L99
 2909              	.L94:
 899:Source\mbedtls_open\library/des.c **** 
 900:Source\mbedtls_open\library/des.c ****         case 1:
 901:Source\mbedtls_open\library/des.c ****             mbedtls_des_setkey_enc( &ctx, des3_test_keys );
 2910              		.loc 1 901 0
 2911 006e A849     		ldr	r1, .L147+16
 2912 0070 0831     		adds	r1, r1, #8
 2913 0072 6AA8     		add	r0, sp, #424
 2914 0074 FFF7FEFF 		bl	mbedtls_des_setkey_enc
 2915              	.LVL361:
 902:Source\mbedtls_open\library/des.c ****             break;
 2916              		.loc 1 902 0
 2917 0078 04E0     		b	.L99
 2918              	.L95:
 903:Source\mbedtls_open\library/des.c **** 
 904:Source\mbedtls_open\library/des.c ****         case 2:
 905:Source\mbedtls_open\library/des.c ****             mbedtls_des3_set2key_dec( &ctx3, des3_test_keys );
 2919              		.loc 1 905 0
 2920 007a A549     		ldr	r1, .L147+16
 2921 007c 0831     		adds	r1, r1, #8
 2922 007e 0AA8     		add	r0, sp, #40
 2923 0080 FFF7FEFF 		bl	mbedtls_des3_set2key_dec
 2924              	.LVL362:
 2925              	.L99:
 888:Source\mbedtls_open\library/des.c ****                              ( u == 0 ) ? ' ' : '3', 56 + u * 56,
 2926              		.loc 1 888 0 discriminator 1
 2927 0084 0024     		movs	r4, #0
 2928 0086 1FE0     		b	.L100
 2929              	.L96:
 906:Source\mbedtls_open\library/des.c ****             break;
 907:Source\mbedtls_open\library/des.c **** 
 908:Source\mbedtls_open\library/des.c ****         case 3:
 909:Source\mbedtls_open\library/des.c ****             mbedtls_des3_set2key_enc( &ctx3, des3_test_keys );
 2930              		.loc 1 909 0
 2931 0088 A149     		ldr	r1, .L147+16
 2932 008a 0831     		adds	r1, r1, #8
 2933 008c 0AA8     		add	r0, sp, #40
 2934 008e FFF7FEFF 		bl	mbedtls_des3_set2key_enc
 2935              	.LVL363:
 910:Source\mbedtls_open\library/des.c ****             break;
 2936              		.loc 1 910 0
 2937 0092 F7E7     		b	.L99
 2938              	.L97:
 911:Source\mbedtls_open\library/des.c **** 
 912:Source\mbedtls_open\library/des.c ****         case 4:
 913:Source\mbedtls_open\library/des.c ****             mbedtls_des3_set3key_dec( &ctx3, des3_test_keys );
 2939              		.loc 1 913 0
 2940 0094 9E49     		ldr	r1, .L147+16
ARM GAS  C:\Users\Phuong\AppData\Local\Temp\ccawWFGQ.s 			page 70


 2941 0096 0831     		adds	r1, r1, #8
 2942 0098 0AA8     		add	r0, sp, #40
 2943 009a FFF7FEFF 		bl	mbedtls_des3_set3key_dec
 2944              	.LVL364:
 914:Source\mbedtls_open\library/des.c ****             break;
 2945              		.loc 1 914 0
 2946 009e F1E7     		b	.L99
 2947              	.L98:
 915:Source\mbedtls_open\library/des.c **** 
 916:Source\mbedtls_open\library/des.c ****         case 5:
 917:Source\mbedtls_open\library/des.c ****             mbedtls_des3_set3key_enc( &ctx3, des3_test_keys );
 2948              		.loc 1 917 0
 2949 00a0 9B49     		ldr	r1, .L147+16
 2950 00a2 0831     		adds	r1, r1, #8
 2951 00a4 0AA8     		add	r0, sp, #40
 2952 00a6 FFF7FEFF 		bl	mbedtls_des3_set3key_enc
 2953              	.LVL365:
 918:Source\mbedtls_open\library/des.c ****             break;
 2954              		.loc 1 918 0
 2955 00aa EBE7     		b	.L99
 2956              	.LVL366:
 2957              	.L103:
 919:Source\mbedtls_open\library/des.c **** 
 920:Source\mbedtls_open\library/des.c ****         default:
 921:Source\mbedtls_open\library/des.c ****             return( 1 );
 922:Source\mbedtls_open\library/des.c ****         }
 923:Source\mbedtls_open\library/des.c **** 
 924:Source\mbedtls_open\library/des.c ****         for( j = 0; j < 10000; j++ )
 925:Source\mbedtls_open\library/des.c ****         {
 926:Source\mbedtls_open\library/des.c ****             if( u == 0 )
 2958              		.loc 1 926 0
 2959 00ac 002D     		cmp	r5, #0
 2960 00ae 05D1     		bne	.L101
 927:Source\mbedtls_open\library/des.c ****                 mbedtls_des_crypt_ecb( &ctx, buf, buf );
 2961              		.loc 1 927 0
 2962 00b0 08AA     		add	r2, sp, #32
 2963 00b2 1100     		movs	r1, r2
 2964 00b4 6AA8     		add	r0, sp, #424
 2965 00b6 FFF7FEFF 		bl	mbedtls_des_crypt_ecb
 2966              	.LVL367:
 2967 00ba 04E0     		b	.L102
 2968              	.L101:
 928:Source\mbedtls_open\library/des.c ****             else
 929:Source\mbedtls_open\library/des.c ****                 mbedtls_des3_crypt_ecb( &ctx3, buf, buf );
 2969              		.loc 1 929 0
 2970 00bc 08AA     		add	r2, sp, #32
 2971 00be 1100     		movs	r1, r2
 2972 00c0 0AA8     		add	r0, sp, #40
 2973 00c2 FFF7FEFF 		bl	mbedtls_des3_crypt_ecb
 2974              	.LVL368:
 2975              	.L102:
 924:Source\mbedtls_open\library/des.c ****         {
 2976              		.loc 1 924 0 discriminator 2
 2977 00c6 0134     		adds	r4, r4, #1
 2978              	.LVL369:
 2979              	.L100:
 924:Source\mbedtls_open\library/des.c ****         {
ARM GAS  C:\Users\Phuong\AppData\Local\Temp\ccawWFGQ.s 			page 71


 2980              		.loc 1 924 0 is_stmt 0 discriminator 1
 2981 00c8 934B     		ldr	r3, .L147+24
 2982 00ca 9C42     		cmp	r4, r3
 2983 00cc EEDD     		ble	.L103
 930:Source\mbedtls_open\library/des.c ****         }
 931:Source\mbedtls_open\library/des.c **** 
 932:Source\mbedtls_open\library/des.c ****         if( ( v == MBEDTLS_DES_DECRYPT &&
 2984              		.loc 1 932 0 is_stmt 1
 2985 00ce 4346     		mov	r3, r8
 2986 00d0 002B     		cmp	r3, #0
 2987 00d2 09D1     		bne	.L104
 2988              	.LVL370:
 933:Source\mbedtls_open\library/des.c ****                 memcmp( buf, des3_test_ecb_dec[u], 8 ) != 0 ) ||
 2989              		.loc 1 933 0 discriminator 1
 2990 00d4 EB00     		lsls	r3, r5, #3
 2991              	.LVL371:
 2992 00d6 8E49     		ldr	r1, .L147+16
 2993 00d8 2031     		adds	r1, r1, #32
 2994 00da C918     		adds	r1, r1, r3
 2995 00dc 0822     		movs	r2, #8
 2996 00de 08A8     		add	r0, sp, #32
 2997 00e0 FFF7FEFF 		bl	memcmp
 2998              	.LVL372:
 932:Source\mbedtls_open\library/des.c ****                 memcmp( buf, des3_test_ecb_dec[u], 8 ) != 0 ) ||
 2999              		.loc 1 932 0 discriminator 1
 3000 00e4 0028     		cmp	r0, #0
 3001 00e6 0CD1     		bne	.L105
 3002              	.L104:
 3003              		.loc 1 933 0
 3004 00e8 4346     		mov	r3, r8
 3005 00ea 002B     		cmp	r3, #0
 3006 00ec 11D0     		beq	.L106
 3007              	.LVL373:
 934:Source\mbedtls_open\library/des.c ****             ( v != MBEDTLS_DES_DECRYPT &&
 935:Source\mbedtls_open\library/des.c ****                 memcmp( buf, des3_test_ecb_enc[u], 8 ) != 0 ) )
 3008              		.loc 1 935 0
 3009 00ee ED00     		lsls	r5, r5, #3
 3010              	.LVL374:
 3011 00f0 8749     		ldr	r1, .L147+16
 3012 00f2 3831     		adds	r1, r1, #56
 3013 00f4 4919     		adds	r1, r1, r5
 3014 00f6 0822     		movs	r2, #8
 3015 00f8 08A8     		add	r0, sp, #32
 3016 00fa FFF7FEFF 		bl	memcmp
 3017              	.LVL375:
 934:Source\mbedtls_open\library/des.c ****             ( v != MBEDTLS_DES_DECRYPT &&
 3018              		.loc 1 934 0
 3019 00fe 0028     		cmp	r0, #0
 3020 0100 07D0     		beq	.L106
 3021              	.L105:
 936:Source\mbedtls_open\library/des.c ****         {
 937:Source\mbedtls_open\library/des.c ****             if( verbose != 0 )
 3022              		.loc 1 937 0
 3023 0102 002E     		cmp	r6, #0
 3024 0104 00D1     		bne	.LCB3231
 3025 0106 E4E0     		b	.L140	@long jump
 3026              	.LCB3231:
ARM GAS  C:\Users\Phuong\AppData\Local\Temp\ccawWFGQ.s 			page 72


 938:Source\mbedtls_open\library/des.c ****                 mbedtls_printf( "failed\n" );
 3027              		.loc 1 938 0
 3028 0108 8448     		ldr	r0, .L147+28
 3029 010a FFF7FEFF 		bl	puts
 3030              	.LVL376:
 939:Source\mbedtls_open\library/des.c **** 
 940:Source\mbedtls_open\library/des.c ****             ret = 1;
 3031              		.loc 1 940 0
 3032 010e 0124     		movs	r4, #1
 3033              	.LVL377:
 3034 0110 E4E0     		b	.L107
 3035              	.LVL378:
 3036              	.L106:
 941:Source\mbedtls_open\library/des.c ****             goto exit;
 942:Source\mbedtls_open\library/des.c ****         }
 943:Source\mbedtls_open\library/des.c **** 
 944:Source\mbedtls_open\library/des.c ****         if( verbose != 0 )
 3037              		.loc 1 944 0
 3038 0112 002E     		cmp	r6, #0
 3039 0114 02D0     		beq	.L108
 945:Source\mbedtls_open\library/des.c ****             mbedtls_printf( "passed\n" );
 3040              		.loc 1 945 0
 3041 0116 8248     		ldr	r0, .L147+32
 3042 0118 FFF7FEFF 		bl	puts
 3043              	.LVL379:
 3044              	.L108:
 882:Source\mbedtls_open\library/des.c ****     {
 3045              		.loc 1 882 0 discriminator 2
 3046 011c 0137     		adds	r7, r7, #1
 3047              	.LVL380:
 3048              	.L87:
 882:Source\mbedtls_open\library/des.c ****     {
 3049              		.loc 1 882 0 is_stmt 0 discriminator 1
 3050 011e 052F     		cmp	r7, #5
 3051 0120 00DC     		bgt	.LCB3262
 3052 0122 7BE7     		b	.L109	@long jump
 3053              	.LCB3262:
 946:Source\mbedtls_open\library/des.c ****     }
 947:Source\mbedtls_open\library/des.c **** 
 948:Source\mbedtls_open\library/des.c ****     if( verbose != 0 )
 3054              		.loc 1 948 0 is_stmt 1
 3055 0124 002E     		cmp	r6, #0
 3056 0126 02D0     		beq	.L110
 949:Source\mbedtls_open\library/des.c ****         mbedtls_printf( "\n" );
 3057              		.loc 1 949 0
 3058 0128 0A20     		movs	r0, #10
 3059 012a FFF7FEFF 		bl	putchar
 3060              	.LVL381:
 3061              	.L110:
 3062 012e 0023     		movs	r3, #0
 3063 0130 9846     		mov	r8, r3
 3064 0132 C3E0     		b	.L111
 3065              	.LVL382:
 3066              	.L136:
 950:Source\mbedtls_open\library/des.c **** 
 951:Source\mbedtls_open\library/des.c **** #if defined(MBEDTLS_CIPHER_MODE_CBC)
 952:Source\mbedtls_open\library/des.c ****     /*
ARM GAS  C:\Users\Phuong\AppData\Local\Temp\ccawWFGQ.s 			page 73


 953:Source\mbedtls_open\library/des.c ****      * CBC mode
 954:Source\mbedtls_open\library/des.c ****      */
 955:Source\mbedtls_open\library/des.c ****     for( i = 0; i < 6; i++ )
 956:Source\mbedtls_open\library/des.c ****     {
 957:Source\mbedtls_open\library/des.c ****         u = i >> 1;
 3067              		.loc 1 957 0
 3068 0134 4346     		mov	r3, r8
 3069              	.LVL383:
 3070 0136 5F10     		asrs	r7, r3, #1
 3071              	.LVL384:
 958:Source\mbedtls_open\library/des.c ****         v = i  & 1;
 3072              		.loc 1 958 0
 3073 0138 0125     		movs	r5, #1
 3074 013a 1D40     		ands	r5, r3
 3075              	.LVL385:
 959:Source\mbedtls_open\library/des.c **** 
 960:Source\mbedtls_open\library/des.c ****         if( verbose != 0 )
 3076              		.loc 1 960 0
 3077 013c 002E     		cmp	r6, #0
 3078 013e 10D0     		beq	.L112
 3079              	.LVL386:
 961:Source\mbedtls_open\library/des.c ****             mbedtls_printf( "  DES%c-CBC-%3d (%s): ",
 3080              		.loc 1 961 0
 3081 0140 002F     		cmp	r7, #0
 3082 0142 01D1     		bne	.L141
 3083 0144 2021     		movs	r1, #32
 3084 0146 00E0     		b	.L113
 3085              	.L141:
 3086 0148 3321     		movs	r1, #51
 3087              	.L113:
 962:Source\mbedtls_open\library/des.c ****                              ( u == 0 ) ? ' ' : '3', 56 + u * 56,
 3088              		.loc 1 962 0 discriminator 4
 3089 014a 7A1C     		adds	r2, r7, #1
 961:Source\mbedtls_open\library/des.c ****             mbedtls_printf( "  DES%c-CBC-%3d (%s): ",
 3090              		.loc 1 961 0 discriminator 4
 3091 014c D300     		lsls	r3, r2, #3
 3092              	.LVL387:
 3093 014e 9B1A     		subs	r3, r3, r2
 3094 0150 DA00     		lsls	r2, r3, #3
 3095 0152 002D     		cmp	r5, #0
 3096 0154 01D1     		bne	.L142
 961:Source\mbedtls_open\library/des.c ****             mbedtls_printf( "  DES%c-CBC-%3d (%s): ",
 3097              		.loc 1 961 0 is_stmt 0
 3098 0156 6B4B     		ldr	r3, .L147+4
 3099 0158 00E0     		b	.L114
 3100              	.L142:
 3101 015a 6B4B     		ldr	r3, .L147+8
 3102              	.L114:
 961:Source\mbedtls_open\library/des.c ****             mbedtls_printf( "  DES%c-CBC-%3d (%s): ",
 3103              		.loc 1 961 0 discriminator 8
 3104 015c 7148     		ldr	r0, .L147+36
 3105 015e FFF7FEFF 		bl	printf
 3106              	.LVL388:
 3107              	.L112:
 963:Source\mbedtls_open\library/des.c ****                              ( v == MBEDTLS_DES_DECRYPT ) ? "dec" : "enc" );
 964:Source\mbedtls_open\library/des.c **** 
 965:Source\mbedtls_open\library/des.c ****         memcpy( iv,  des3_test_iv,  8 );
ARM GAS  C:\Users\Phuong\AppData\Local\Temp\ccawWFGQ.s 			page 74


 3108              		.loc 1 965 0 is_stmt 1
 3109 0162 04A9     		add	r1, sp, #16
 3110 0164 6A4B     		ldr	r3, .L147+16
 3111 0166 1A00     		movs	r2, r3
 3112 0168 5032     		adds	r2, r2, #80
 3113 016a 11CA     		ldmia	r2!, {r0, r4}
 3114 016c 11C1     		stmia	r1!, {r0, r4}
 966:Source\mbedtls_open\library/des.c ****         memcpy( prv, des3_test_iv,  8 );
 3115              		.loc 1 966 0
 3116 016e 06A9     		add	r1, sp, #24
 3117 0170 1A00     		movs	r2, r3
 3118 0172 5032     		adds	r2, r2, #80
 3119 0174 11CA     		ldmia	r2!, {r0, r4}
 3120 0176 11C1     		stmia	r1!, {r0, r4}
 967:Source\mbedtls_open\library/des.c ****         memcpy( buf, des3_test_buf, 8 );
 3121              		.loc 1 967 0
 3122 0178 08AA     		add	r2, sp, #32
 3123 017a 03CB     		ldmia	r3!, {r0, r1}
 3124 017c 03C2     		stmia	r2!, {r0, r1}
 968:Source\mbedtls_open\library/des.c **** 
 969:Source\mbedtls_open\library/des.c ****         switch( i )
 3125              		.loc 1 969 0
 3126 017e 4346     		mov	r3, r8
 3127 0180 052B     		cmp	r3, #5
 3128 0182 00D9     		bls	.LCB3332
 3129 0184 B4E0     		b	.L143	@long jump
 3130              	.LCB3332:
 3131              	.LVL389:
 3132 0186 9B00     		lsls	r3, r3, #2
 3133              	.LVL390:
 3134 0188 674A     		ldr	r2, .L147+40
 3135 018a D358     		ldr	r3, [r2, r3]
 3136 018c 9F46     		mov	pc, r3
 3137              		.section	.rodata
 3138              		.align	2
 3139              	.L116:
 3140 0018 8E010000 		.word	.L115
 3141 001c 9A010000 		.word	.L117
 3142 0020 A6010000 		.word	.L118
 3143 0024 B2010000 		.word	.L119
 3144 0028 BE010000 		.word	.L120
 3145 002c CA010000 		.word	.L121
 3146              		.section	.text.mbedtls_des_self_test
 3147              	.L115:
 970:Source\mbedtls_open\library/des.c ****         {
 971:Source\mbedtls_open\library/des.c ****         case 0:
 972:Source\mbedtls_open\library/des.c ****             mbedtls_des_setkey_dec( &ctx, des3_test_keys );
 3148              		.loc 1 972 0
 3149 018e 6049     		ldr	r1, .L147+16
 3150 0190 0831     		adds	r1, r1, #8
 3151 0192 6AA8     		add	r0, sp, #424
 3152 0194 FFF7FEFF 		bl	mbedtls_des_setkey_dec
 3153              	.LVL391:
 973:Source\mbedtls_open\library/des.c ****             break;
 3154              		.loc 1 973 0
 3155 0198 1CE0     		b	.L122
 3156              	.L117:
ARM GAS  C:\Users\Phuong\AppData\Local\Temp\ccawWFGQ.s 			page 75


 974:Source\mbedtls_open\library/des.c **** 
 975:Source\mbedtls_open\library/des.c ****         case 1:
 976:Source\mbedtls_open\library/des.c ****             mbedtls_des_setkey_enc( &ctx, des3_test_keys );
 3157              		.loc 1 976 0
 3158 019a 5D49     		ldr	r1, .L147+16
 3159 019c 0831     		adds	r1, r1, #8
 3160 019e 6AA8     		add	r0, sp, #424
 3161 01a0 FFF7FEFF 		bl	mbedtls_des_setkey_enc
 3162              	.LVL392:
 977:Source\mbedtls_open\library/des.c ****             break;
 3163              		.loc 1 977 0
 3164 01a4 16E0     		b	.L122
 3165              	.L118:
 978:Source\mbedtls_open\library/des.c **** 
 979:Source\mbedtls_open\library/des.c ****         case 2:
 980:Source\mbedtls_open\library/des.c ****             mbedtls_des3_set2key_dec( &ctx3, des3_test_keys );
 3166              		.loc 1 980 0
 3167 01a6 5A49     		ldr	r1, .L147+16
 3168 01a8 0831     		adds	r1, r1, #8
 3169 01aa 0AA8     		add	r0, sp, #40
 3170 01ac FFF7FEFF 		bl	mbedtls_des3_set2key_dec
 3171              	.LVL393:
 981:Source\mbedtls_open\library/des.c ****             break;
 3172              		.loc 1 981 0
 3173 01b0 10E0     		b	.L122
 3174              	.L119:
 982:Source\mbedtls_open\library/des.c **** 
 983:Source\mbedtls_open\library/des.c ****         case 3:
 984:Source\mbedtls_open\library/des.c ****             mbedtls_des3_set2key_enc( &ctx3, des3_test_keys );
 3175              		.loc 1 984 0
 3176 01b2 5749     		ldr	r1, .L147+16
 3177 01b4 0831     		adds	r1, r1, #8
 3178 01b6 0AA8     		add	r0, sp, #40
 3179 01b8 FFF7FEFF 		bl	mbedtls_des3_set2key_enc
 3180              	.LVL394:
 985:Source\mbedtls_open\library/des.c ****             break;
 3181              		.loc 1 985 0
 3182 01bc 0AE0     		b	.L122
 3183              	.L120:
 986:Source\mbedtls_open\library/des.c **** 
 987:Source\mbedtls_open\library/des.c ****         case 4:
 988:Source\mbedtls_open\library/des.c ****             mbedtls_des3_set3key_dec( &ctx3, des3_test_keys );
 3184              		.loc 1 988 0
 3185 01be 5449     		ldr	r1, .L147+16
 3186 01c0 0831     		adds	r1, r1, #8
 3187 01c2 0AA8     		add	r0, sp, #40
 3188 01c4 FFF7FEFF 		bl	mbedtls_des3_set3key_dec
 3189              	.LVL395:
 989:Source\mbedtls_open\library/des.c ****             break;
 3190              		.loc 1 989 0
 3191 01c8 04E0     		b	.L122
 3192              	.L121:
 990:Source\mbedtls_open\library/des.c **** 
 991:Source\mbedtls_open\library/des.c ****         case 5:
 992:Source\mbedtls_open\library/des.c ****             mbedtls_des3_set3key_enc( &ctx3, des3_test_keys );
 3193              		.loc 1 992 0
 3194 01ca 5149     		ldr	r1, .L147+16
ARM GAS  C:\Users\Phuong\AppData\Local\Temp\ccawWFGQ.s 			page 76


 3195 01cc 0831     		adds	r1, r1, #8
 3196 01ce 0AA8     		add	r0, sp, #40
 3197 01d0 FFF7FEFF 		bl	mbedtls_des3_set3key_enc
 3198              	.LVL396:
 3199              	.L122:
 993:Source\mbedtls_open\library/des.c ****             break;
 994:Source\mbedtls_open\library/des.c **** 
 995:Source\mbedtls_open\library/des.c ****         default:
 996:Source\mbedtls_open\library/des.c ****             return( 1 );
 997:Source\mbedtls_open\library/des.c ****         }
 998:Source\mbedtls_open\library/des.c **** 
 999:Source\mbedtls_open\library/des.c ****         if( v == MBEDTLS_DES_DECRYPT )
 3200              		.loc 1 999 0
 3201 01d4 002D     		cmp	r5, #0
 3202 01d6 18D0     		beq	.L144
 3203 01d8 0024     		movs	r4, #0
 3204 01da 40E0     		b	.L124
 3205              	.LVL397:
 3206              	.L127:
1000:Source\mbedtls_open\library/des.c ****         {
1001:Source\mbedtls_open\library/des.c ****             for( j = 0; j < 10000; j++ )
1002:Source\mbedtls_open\library/des.c ****             {
1003:Source\mbedtls_open\library/des.c ****                 if( u == 0 )
 3207              		.loc 1 1003 0
 3208 01dc 002F     		cmp	r7, #0
 3209 01de 09D1     		bne	.L125
1004:Source\mbedtls_open\library/des.c ****                     mbedtls_des_crypt_cbc( &ctx, v, 8, iv, buf, buf );
 3210              		.loc 1 1004 0
 3211 01e0 08AB     		add	r3, sp, #32
 3212 01e2 0193     		str	r3, [sp, #4]
 3213 01e4 0093     		str	r3, [sp]
 3214 01e6 04AB     		add	r3, sp, #16
 3215 01e8 0822     		movs	r2, #8
 3216 01ea 2900     		movs	r1, r5
 3217 01ec 6AA8     		add	r0, sp, #424
 3218 01ee FFF7FEFF 		bl	mbedtls_des_crypt_cbc
 3219              	.LVL398:
 3220 01f2 08E0     		b	.L126
 3221              	.L125:
1005:Source\mbedtls_open\library/des.c ****                 else
1006:Source\mbedtls_open\library/des.c ****                     mbedtls_des3_crypt_cbc( &ctx3, v, 8, iv, buf, buf );
 3222              		.loc 1 1006 0
 3223 01f4 08AB     		add	r3, sp, #32
 3224 01f6 0193     		str	r3, [sp, #4]
 3225 01f8 0093     		str	r3, [sp]
 3226 01fa 04AB     		add	r3, sp, #16
 3227 01fc 0822     		movs	r2, #8
 3228 01fe 2900     		movs	r1, r5
 3229 0200 0AA8     		add	r0, sp, #40
 3230 0202 FFF7FEFF 		bl	mbedtls_des3_crypt_cbc
 3231              	.LVL399:
 3232              	.L126:
1001:Source\mbedtls_open\library/des.c ****             {
 3233              		.loc 1 1001 0 discriminator 2
 3234 0206 0134     		adds	r4, r4, #1
 3235              	.LVL400:
 3236 0208 00E0     		b	.L123
ARM GAS  C:\Users\Phuong\AppData\Local\Temp\ccawWFGQ.s 			page 77


 3237              	.LVL401:
 3238              	.L144:
 3239 020a 0024     		movs	r4, #0
 3240              	.L123:
 3241              	.LVL402:
1001:Source\mbedtls_open\library/des.c ****             {
 3242              		.loc 1 1001 0 is_stmt 0 discriminator 1
 3243 020c 424B     		ldr	r3, .L147+24
 3244 020e 9C42     		cmp	r4, r3
 3245 0210 E4DD     		ble	.L127
 3246 0212 2CE0     		b	.L128
 3247              	.L131:
 3248              	.LBB4:
1007:Source\mbedtls_open\library/des.c ****             }
1008:Source\mbedtls_open\library/des.c ****         }
1009:Source\mbedtls_open\library/des.c ****         else
1010:Source\mbedtls_open\library/des.c ****         {
1011:Source\mbedtls_open\library/des.c ****             for( j = 0; j < 10000; j++ )
1012:Source\mbedtls_open\library/des.c ****             {
1013:Source\mbedtls_open\library/des.c ****                 unsigned char tmp[8];
1014:Source\mbedtls_open\library/des.c **** 
1015:Source\mbedtls_open\library/des.c ****                 if( u == 0 )
 3249              		.loc 1 1015 0 is_stmt 1
 3250 0214 002F     		cmp	r7, #0
 3251 0216 09D1     		bne	.L129
1016:Source\mbedtls_open\library/des.c ****                     mbedtls_des_crypt_cbc( &ctx, v, 8, iv, buf, buf );
 3252              		.loc 1 1016 0
 3253 0218 08AB     		add	r3, sp, #32
 3254 021a 0193     		str	r3, [sp, #4]
 3255 021c 0093     		str	r3, [sp]
 3256 021e 04AB     		add	r3, sp, #16
 3257 0220 0822     		movs	r2, #8
 3258 0222 2900     		movs	r1, r5
 3259 0224 6AA8     		add	r0, sp, #424
 3260 0226 FFF7FEFF 		bl	mbedtls_des_crypt_cbc
 3261              	.LVL403:
 3262 022a 08E0     		b	.L130
 3263              	.L129:
1017:Source\mbedtls_open\library/des.c ****                 else
1018:Source\mbedtls_open\library/des.c ****                     mbedtls_des3_crypt_cbc( &ctx3, v, 8, iv, buf, buf );
 3264              		.loc 1 1018 0
 3265 022c 08AB     		add	r3, sp, #32
 3266 022e 0193     		str	r3, [sp, #4]
 3267 0230 0093     		str	r3, [sp]
 3268 0232 04AB     		add	r3, sp, #16
 3269 0234 0822     		movs	r2, #8
 3270 0236 2900     		movs	r1, r5
 3271 0238 0AA8     		add	r0, sp, #40
 3272 023a FFF7FEFF 		bl	mbedtls_des3_crypt_cbc
 3273              	.LVL404:
 3274              	.L130:
1019:Source\mbedtls_open\library/des.c **** 
1020:Source\mbedtls_open\library/des.c ****                 memcpy( tmp, prv, 8 );
 3275              		.loc 1 1020 0 discriminator 2
 3276 023e 0822     		movs	r2, #8
 3277 0240 06A9     		add	r1, sp, #24
 3278 0242 02A8     		add	r0, sp, #8
ARM GAS  C:\Users\Phuong\AppData\Local\Temp\ccawWFGQ.s 			page 78


 3279 0244 FFF7FEFF 		bl	memcpy
 3280              	.LVL405:
1021:Source\mbedtls_open\library/des.c ****                 memcpy( prv, buf, 8 );
 3281              		.loc 1 1021 0 discriminator 2
 3282 0248 0822     		movs	r2, #8
 3283 024a 08A9     		add	r1, sp, #32
 3284 024c 06A8     		add	r0, sp, #24
 3285 024e FFF7FEFF 		bl	memcpy
 3286              	.LVL406:
1022:Source\mbedtls_open\library/des.c ****                 memcpy( buf, tmp, 8 );
 3287              		.loc 1 1022 0 discriminator 2
 3288 0252 0822     		movs	r2, #8
 3289 0254 02A9     		add	r1, sp, #8
 3290 0256 08A8     		add	r0, sp, #32
 3291 0258 FFF7FEFF 		bl	memcpy
 3292              	.LVL407:
 3293              	.LBE4:
1011:Source\mbedtls_open\library/des.c ****             {
 3294              		.loc 1 1011 0 discriminator 2
 3295 025c 0134     		adds	r4, r4, #1
 3296              	.LVL408:
 3297              	.L124:
1011:Source\mbedtls_open\library/des.c ****             {
 3298              		.loc 1 1011 0 is_stmt 0 discriminator 1
 3299 025e 2E4B     		ldr	r3, .L147+24
 3300 0260 9C42     		cmp	r4, r3
 3301 0262 D7DD     		ble	.L131
1023:Source\mbedtls_open\library/des.c ****             }
1024:Source\mbedtls_open\library/des.c **** 
1025:Source\mbedtls_open\library/des.c ****             memcpy( buf, prv, 8 );
 3302              		.loc 1 1025 0 is_stmt 1
 3303 0264 0822     		movs	r2, #8
 3304 0266 06A9     		add	r1, sp, #24
 3305 0268 08A8     		add	r0, sp, #32
 3306 026a FFF7FEFF 		bl	memcpy
 3307              	.LVL409:
 3308              	.L128:
1026:Source\mbedtls_open\library/des.c ****         }
1027:Source\mbedtls_open\library/des.c **** 
1028:Source\mbedtls_open\library/des.c ****         if( ( v == MBEDTLS_DES_DECRYPT &&
 3309              		.loc 1 1028 0
 3310 026e 002D     		cmp	r5, #0
 3311 0270 09D1     		bne	.L132
1029:Source\mbedtls_open\library/des.c ****                 memcmp( buf, des3_test_cbc_dec[u], 8 ) != 0 ) ||
 3312              		.loc 1 1029 0 discriminator 1
 3313 0272 FB00     		lsls	r3, r7, #3
 3314 0274 2649     		ldr	r1, .L147+16
 3315 0276 5831     		adds	r1, r1, #88
 3316 0278 C918     		adds	r1, r1, r3
 3317 027a 0822     		movs	r2, #8
 3318 027c 08A8     		add	r0, sp, #32
 3319 027e FFF7FEFF 		bl	memcmp
 3320              	.LVL410:
1028:Source\mbedtls_open\library/des.c ****                 memcmp( buf, des3_test_cbc_dec[u], 8 ) != 0 ) ||
 3321              		.loc 1 1028 0 discriminator 1
 3322 0282 0028     		cmp	r0, #0
 3323 0284 0BD1     		bne	.L133
ARM GAS  C:\Users\Phuong\AppData\Local\Temp\ccawWFGQ.s 			page 79


 3324              	.L132:
 3325              		.loc 1 1029 0
 3326 0286 002D     		cmp	r5, #0
 3327 0288 10D0     		beq	.L134
1030:Source\mbedtls_open\library/des.c ****             ( v != MBEDTLS_DES_DECRYPT &&
1031:Source\mbedtls_open\library/des.c ****                 memcmp( buf, des3_test_cbc_enc[u], 8 ) != 0 ) )
 3328              		.loc 1 1031 0
 3329 028a FF00     		lsls	r7, r7, #3
 3330              	.LVL411:
 3331 028c 2049     		ldr	r1, .L147+16
 3332 028e 7031     		adds	r1, r1, #112
 3333 0290 C919     		adds	r1, r1, r7
 3334 0292 0822     		movs	r2, #8
 3335 0294 08A8     		add	r0, sp, #32
 3336 0296 FFF7FEFF 		bl	memcmp
 3337              	.LVL412:
1030:Source\mbedtls_open\library/des.c ****             ( v != MBEDTLS_DES_DECRYPT &&
 3338              		.loc 1 1030 0
 3339 029a 0028     		cmp	r0, #0
 3340 029c 06D0     		beq	.L134
 3341              	.L133:
1032:Source\mbedtls_open\library/des.c ****         {
1033:Source\mbedtls_open\library/des.c ****             if( verbose != 0 )
 3342              		.loc 1 1033 0
 3343 029e 002E     		cmp	r6, #0
 3344 02a0 19D0     		beq	.L145
1034:Source\mbedtls_open\library/des.c ****                 mbedtls_printf( "failed\n" );
 3345              		.loc 1 1034 0
 3346 02a2 1E48     		ldr	r0, .L147+28
 3347 02a4 FFF7FEFF 		bl	puts
 3348              	.LVL413:
1035:Source\mbedtls_open\library/des.c **** 
1036:Source\mbedtls_open\library/des.c ****             ret = 1;
 3349              		.loc 1 1036 0
 3350 02a8 0124     		movs	r4, #1
 3351              	.LVL414:
 3352 02aa 17E0     		b	.L107
 3353              	.LVL415:
 3354              	.L134:
1037:Source\mbedtls_open\library/des.c ****             goto exit;
1038:Source\mbedtls_open\library/des.c ****         }
1039:Source\mbedtls_open\library/des.c **** 
1040:Source\mbedtls_open\library/des.c ****         if( verbose != 0 )
 3355              		.loc 1 1040 0
 3356 02ac 002E     		cmp	r6, #0
 3357 02ae 02D0     		beq	.L135
1041:Source\mbedtls_open\library/des.c ****             mbedtls_printf( "passed\n" );
 3358              		.loc 1 1041 0
 3359 02b0 1B48     		ldr	r0, .L147+32
 3360 02b2 FFF7FEFF 		bl	puts
 3361              	.LVL416:
 3362              	.L135:
 955:Source\mbedtls_open\library/des.c ****     {
 3363              		.loc 1 955 0 discriminator 2
 3364 02b6 0123     		movs	r3, #1
 3365 02b8 9C46     		mov	ip, r3
 3366 02ba E044     		add	r8, r8, ip
ARM GAS  C:\Users\Phuong\AppData\Local\Temp\ccawWFGQ.s 			page 80


 3367              	.LVL417:
 3368              	.L111:
 955:Source\mbedtls_open\library/des.c ****     {
 3369              		.loc 1 955 0 is_stmt 0 discriminator 1
 3370 02bc 4346     		mov	r3, r8
 3371 02be 052B     		cmp	r3, #5
 3372 02c0 00DC     		bgt	.LCB3587
 3373 02c2 37E7     		b	.L136	@long jump
 3374              	.LCB3587:
1042:Source\mbedtls_open\library/des.c ****     }
1043:Source\mbedtls_open\library/des.c **** #endif /* MBEDTLS_CIPHER_MODE_CBC */
1044:Source\mbedtls_open\library/des.c **** 
1045:Source\mbedtls_open\library/des.c ****     if( verbose != 0 )
 3375              		.loc 1 1045 0 is_stmt 1
 3376 02c4 002E     		cmp	r6, #0
 3377 02c6 08D0     		beq	.L146
1046:Source\mbedtls_open\library/des.c ****         mbedtls_printf( "\n" );
 3378              		.loc 1 1046 0
 3379 02c8 0A20     		movs	r0, #10
 3380 02ca FFF7FEFF 		bl	putchar
 3381              	.LVL418:
 868:Source\mbedtls_open\library/des.c ****     mbedtls_des_context ctx;
 3382              		.loc 1 868 0
 3383 02ce 0024     		movs	r4, #0
 3384 02d0 04E0     		b	.L107
 3385              	.LVL419:
 3386              	.L140:
 940:Source\mbedtls_open\library/des.c ****             goto exit;
 3387              		.loc 1 940 0
 3388 02d2 0124     		movs	r4, #1
 3389              	.LVL420:
 3390 02d4 02E0     		b	.L107
 3391              	.LVL421:
 3392              	.L145:
1036:Source\mbedtls_open\library/des.c ****             goto exit;
 3393              		.loc 1 1036 0
 3394 02d6 0124     		movs	r4, #1
 3395              	.LVL422:
 3396 02d8 00E0     		b	.L107
 3397              	.LVL423:
 3398              	.L146:
 868:Source\mbedtls_open\library/des.c ****     mbedtls_des_context ctx;
 3399              		.loc 1 868 0
 3400 02da 0024     		movs	r4, #0
 3401              	.LVL424:
 3402              	.L107:
1047:Source\mbedtls_open\library/des.c **** 
1048:Source\mbedtls_open\library/des.c **** exit:
1049:Source\mbedtls_open\library/des.c ****     mbedtls_des_free( &ctx );
 3403              		.loc 1 1049 0
 3404 02dc 6AA8     		add	r0, sp, #424
 3405 02de FFF7FEFF 		bl	mbedtls_des_free
 3406              	.LVL425:
1050:Source\mbedtls_open\library/des.c ****     mbedtls_des3_free( &ctx3 );
 3407              		.loc 1 1050 0
 3408 02e2 0AA8     		add	r0, sp, #40
 3409 02e4 FFF7FEFF 		bl	mbedtls_des3_free
ARM GAS  C:\Users\Phuong\AppData\Local\Temp\ccawWFGQ.s 			page 81


 3410              	.LVL426:
1051:Source\mbedtls_open\library/des.c **** 
1052:Source\mbedtls_open\library/des.c ****     return( ret );
 3411              		.loc 1 1052 0
 3412 02e8 2000     		movs	r0, r4
 3413 02ea 02E0     		b	.L91
 3414              	.LVL427:
 3415              	.L139:
 921:Source\mbedtls_open\library/des.c ****         }
 3416              		.loc 1 921 0
 3417 02ec 0120     		movs	r0, #1
 3418 02ee 00E0     		b	.L91
 3419              	.LVL428:
 3420              	.L143:
 996:Source\mbedtls_open\library/des.c ****         }
 3421              		.loc 1 996 0
 3422 02f0 0120     		movs	r0, #1
 3423              	.LVL429:
 3424              	.L91:
1053:Source\mbedtls_open\library/des.c **** }
 3425              		.loc 1 1053 0
 3426 02f2 8A23     		movs	r3, #138
 3427 02f4 9B00     		lsls	r3, r3, #2
 3428 02f6 9D44     		add	sp, sp, r3
 3429              		@ sp needed
 3430              	.LVL430:
 3431 02f8 04BC     		pop	{r2}
 3432 02fa 9046     		mov	r8, r2
 3433 02fc F0BD     		pop	{r4, r5, r6, r7, pc}
 3434              	.L148:
 3435 02fe C046     		.align	2
 3436              	.L147:
 3437 0300 D8FDFFFF 		.word	-552
 3438 0304 00000000 		.word	.LC20
 3439 0308 04000000 		.word	.LC22
 3440 030c 08000000 		.word	.LC24
 3441 0310 B0090000 		.word	.LANCHOR11
 3442 0314 00000000 		.word	.L93
 3443 0318 0F270000 		.word	9999
 3444 031c 20000000 		.word	.LC28
 3445 0320 28000000 		.word	.LC30
 3446 0324 30000000 		.word	.LC32
 3447 0328 18000000 		.word	.L116
 3448              		.cfi_endproc
 3449              	.LFE21:
 3450              		.size	mbedtls_des_self_test, .-mbedtls_des_self_test
 3451              		.section	.rodata
 3452              		.align	2
 3453              		.set	.LANCHOR0,. + 0
 3454              		.set	.LANCHOR1,. + 128
 3455              		.set	.LANCHOR2,. + 256
 3456              		.set	.LANCHOR3,. + 384
 3457              		.set	.LANCHOR4,. + 640
 3458              		.set	.LANCHOR5,. + 896
 3459              		.set	.LANCHOR6,. + 1152
 3460              		.set	.LANCHOR7,. + 1408
 3461              		.set	.LANCHOR8,. + 1664
ARM GAS  C:\Users\Phuong\AppData\Local\Temp\ccawWFGQ.s 			page 82


 3462              		.set	.LANCHOR9,. + 1920
 3463              		.set	.LANCHOR10,. + 2176
 3464              		.set	.LANCHOR11,. + 2432
 3465              		.type	odd_parity_table, %object
 3466              		.size	odd_parity_table, 128
 3467              	odd_parity_table:
 3468 0030 01       		.byte	1
 3469 0031 02       		.byte	2
 3470 0032 04       		.byte	4
 3471 0033 07       		.byte	7
 3472 0034 08       		.byte	8
 3473 0035 0B       		.byte	11
 3474 0036 0D       		.byte	13
 3475 0037 0E       		.byte	14
 3476 0038 10       		.byte	16
 3477 0039 13       		.byte	19
 3478 003a 15       		.byte	21
 3479 003b 16       		.byte	22
 3480 003c 19       		.byte	25
 3481 003d 1A       		.byte	26
 3482 003e 1C       		.byte	28
 3483 003f 1F       		.byte	31
 3484 0040 20       		.byte	32
 3485 0041 23       		.byte	35
 3486 0042 25       		.byte	37
 3487 0043 26       		.byte	38
 3488 0044 29       		.byte	41
 3489 0045 2A       		.byte	42
 3490 0046 2C       		.byte	44
 3491 0047 2F       		.byte	47
 3492 0048 31       		.byte	49
 3493 0049 32       		.byte	50
 3494 004a 34       		.byte	52
 3495 004b 37       		.byte	55
 3496 004c 38       		.byte	56
 3497 004d 3B       		.byte	59
 3498 004e 3D       		.byte	61
 3499 004f 3E       		.byte	62
 3500 0050 40       		.byte	64
 3501 0051 43       		.byte	67
 3502 0052 45       		.byte	69
 3503 0053 46       		.byte	70
 3504 0054 49       		.byte	73
 3505 0055 4A       		.byte	74
 3506 0056 4C       		.byte	76
 3507 0057 4F       		.byte	79
 3508 0058 51       		.byte	81
 3509 0059 52       		.byte	82
 3510 005a 54       		.byte	84
 3511 005b 57       		.byte	87
 3512 005c 58       		.byte	88
 3513 005d 5B       		.byte	91
 3514 005e 5D       		.byte	93
 3515 005f 5E       		.byte	94
 3516 0060 61       		.byte	97
 3517 0061 62       		.byte	98
 3518 0062 64       		.byte	100
ARM GAS  C:\Users\Phuong\AppData\Local\Temp\ccawWFGQ.s 			page 83


 3519 0063 67       		.byte	103
 3520 0064 68       		.byte	104
 3521 0065 6B       		.byte	107
 3522 0066 6D       		.byte	109
 3523 0067 6E       		.byte	110
 3524 0068 70       		.byte	112
 3525 0069 73       		.byte	115
 3526 006a 75       		.byte	117
 3527 006b 76       		.byte	118
 3528 006c 79       		.byte	121
 3529 006d 7A       		.byte	122
 3530 006e 7C       		.byte	124
 3531 006f 7F       		.byte	127
 3532 0070 80       		.byte	-128
 3533 0071 83       		.byte	-125
 3534 0072 85       		.byte	-123
 3535 0073 86       		.byte	-122
 3536 0074 89       		.byte	-119
 3537 0075 8A       		.byte	-118
 3538 0076 8C       		.byte	-116
 3539 0077 8F       		.byte	-113
 3540 0078 91       		.byte	-111
 3541 0079 92       		.byte	-110
 3542 007a 94       		.byte	-108
 3543 007b 97       		.byte	-105
 3544 007c 98       		.byte	-104
 3545 007d 9B       		.byte	-101
 3546 007e 9D       		.byte	-99
 3547 007f 9E       		.byte	-98
 3548 0080 A1       		.byte	-95
 3549 0081 A2       		.byte	-94
 3550 0082 A4       		.byte	-92
 3551 0083 A7       		.byte	-89
 3552 0084 A8       		.byte	-88
 3553 0085 AB       		.byte	-85
 3554 0086 AD       		.byte	-83
 3555 0087 AE       		.byte	-82
 3556 0088 B0       		.byte	-80
 3557 0089 B3       		.byte	-77
 3558 008a B5       		.byte	-75
 3559 008b B6       		.byte	-74
 3560 008c B9       		.byte	-71
 3561 008d BA       		.byte	-70
 3562 008e BC       		.byte	-68
 3563 008f BF       		.byte	-65
 3564 0090 C1       		.byte	-63
 3565 0091 C2       		.byte	-62
 3566 0092 C4       		.byte	-60
 3567 0093 C7       		.byte	-57
 3568 0094 C8       		.byte	-56
 3569 0095 CB       		.byte	-53
 3570 0096 CD       		.byte	-51
 3571 0097 CE       		.byte	-50
 3572 0098 D0       		.byte	-48
 3573 0099 D3       		.byte	-45
 3574 009a D5       		.byte	-43
 3575 009b D6       		.byte	-42
ARM GAS  C:\Users\Phuong\AppData\Local\Temp\ccawWFGQ.s 			page 84


 3576 009c D9       		.byte	-39
 3577 009d DA       		.byte	-38
 3578 009e DC       		.byte	-36
 3579 009f DF       		.byte	-33
 3580 00a0 E0       		.byte	-32
 3581 00a1 E3       		.byte	-29
 3582 00a2 E5       		.byte	-27
 3583 00a3 E6       		.byte	-26
 3584 00a4 E9       		.byte	-23
 3585 00a5 EA       		.byte	-22
 3586 00a6 EC       		.byte	-20
 3587 00a7 EF       		.byte	-17
 3588 00a8 F1       		.byte	-15
 3589 00a9 F2       		.byte	-14
 3590 00aa F4       		.byte	-12
 3591 00ab F7       		.byte	-9
 3592 00ac F8       		.byte	-8
 3593 00ad FB       		.byte	-5
 3594 00ae FD       		.byte	-3
 3595 00af FE       		.byte	-2
 3596              		.type	weak_key_table, %object
 3597              		.size	weak_key_table, 128
 3598              	weak_key_table:
 3599 00b0 01       		.byte	1
 3600 00b1 01       		.byte	1
 3601 00b2 01       		.byte	1
 3602 00b3 01       		.byte	1
 3603 00b4 01       		.byte	1
 3604 00b5 01       		.byte	1
 3605 00b6 01       		.byte	1
 3606 00b7 01       		.byte	1
 3607 00b8 FE       		.byte	-2
 3608 00b9 FE       		.byte	-2
 3609 00ba FE       		.byte	-2
 3610 00bb FE       		.byte	-2
 3611 00bc FE       		.byte	-2
 3612 00bd FE       		.byte	-2
 3613 00be FE       		.byte	-2
 3614 00bf FE       		.byte	-2
 3615 00c0 1F       		.byte	31
 3616 00c1 1F       		.byte	31
 3617 00c2 1F       		.byte	31
 3618 00c3 1F       		.byte	31
 3619 00c4 0E       		.byte	14
 3620 00c5 0E       		.byte	14
 3621 00c6 0E       		.byte	14
 3622 00c7 0E       		.byte	14
 3623 00c8 E0       		.byte	-32
 3624 00c9 E0       		.byte	-32
 3625 00ca E0       		.byte	-32
 3626 00cb E0       		.byte	-32
 3627 00cc F1       		.byte	-15
 3628 00cd F1       		.byte	-15
 3629 00ce F1       		.byte	-15
 3630 00cf F1       		.byte	-15
 3631 00d0 01       		.byte	1
 3632 00d1 1F       		.byte	31
ARM GAS  C:\Users\Phuong\AppData\Local\Temp\ccawWFGQ.s 			page 85


 3633 00d2 01       		.byte	1
 3634 00d3 1F       		.byte	31
 3635 00d4 01       		.byte	1
 3636 00d5 0E       		.byte	14
 3637 00d6 01       		.byte	1
 3638 00d7 0E       		.byte	14
 3639 00d8 1F       		.byte	31
 3640 00d9 01       		.byte	1
 3641 00da 1F       		.byte	31
 3642 00db 01       		.byte	1
 3643 00dc 0E       		.byte	14
 3644 00dd 01       		.byte	1
 3645 00de 0E       		.byte	14
 3646 00df 01       		.byte	1
 3647 00e0 01       		.byte	1
 3648 00e1 E0       		.byte	-32
 3649 00e2 01       		.byte	1
 3650 00e3 E0       		.byte	-32
 3651 00e4 01       		.byte	1
 3652 00e5 F1       		.byte	-15
 3653 00e6 01       		.byte	1
 3654 00e7 F1       		.byte	-15
 3655 00e8 E0       		.byte	-32
 3656 00e9 01       		.byte	1
 3657 00ea E0       		.byte	-32
 3658 00eb 01       		.byte	1
 3659 00ec F1       		.byte	-15
 3660 00ed 01       		.byte	1
 3661 00ee F1       		.byte	-15
 3662 00ef 01       		.byte	1
 3663 00f0 01       		.byte	1
 3664 00f1 FE       		.byte	-2
 3665 00f2 01       		.byte	1
 3666 00f3 FE       		.byte	-2
 3667 00f4 01       		.byte	1
 3668 00f5 FE       		.byte	-2
 3669 00f6 01       		.byte	1
 3670 00f7 FE       		.byte	-2
 3671 00f8 FE       		.byte	-2
 3672 00f9 01       		.byte	1
 3673 00fa FE       		.byte	-2
 3674 00fb 01       		.byte	1
 3675 00fc FE       		.byte	-2
 3676 00fd 01       		.byte	1
 3677 00fe FE       		.byte	-2
 3678 00ff 01       		.byte	1
 3679 0100 1F       		.byte	31
 3680 0101 E0       		.byte	-32
 3681 0102 1F       		.byte	31
 3682 0103 E0       		.byte	-32
 3683 0104 0E       		.byte	14
 3684 0105 F1       		.byte	-15
 3685 0106 0E       		.byte	14
 3686 0107 F1       		.byte	-15
 3687 0108 E0       		.byte	-32
 3688 0109 1F       		.byte	31
 3689 010a E0       		.byte	-32
ARM GAS  C:\Users\Phuong\AppData\Local\Temp\ccawWFGQ.s 			page 86


 3690 010b 1F       		.byte	31
 3691 010c F1       		.byte	-15
 3692 010d 0E       		.byte	14
 3693 010e F1       		.byte	-15
 3694 010f 0E       		.byte	14
 3695 0110 1F       		.byte	31
 3696 0111 FE       		.byte	-2
 3697 0112 1F       		.byte	31
 3698 0113 FE       		.byte	-2
 3699 0114 0E       		.byte	14
 3700 0115 FE       		.byte	-2
 3701 0116 0E       		.byte	14
 3702 0117 FE       		.byte	-2
 3703 0118 FE       		.byte	-2
 3704 0119 1F       		.byte	31
 3705 011a FE       		.byte	-2
 3706 011b 1F       		.byte	31
 3707 011c FE       		.byte	-2
 3708 011d 0E       		.byte	14
 3709 011e FE       		.byte	-2
 3710 011f 0E       		.byte	14
 3711 0120 E0       		.byte	-32
 3712 0121 FE       		.byte	-2
 3713 0122 E0       		.byte	-32
 3714 0123 FE       		.byte	-2
 3715 0124 F1       		.byte	-15
 3716 0125 FE       		.byte	-2
 3717 0126 F1       		.byte	-15
 3718 0127 FE       		.byte	-2
 3719 0128 FE       		.byte	-2
 3720 0129 E0       		.byte	-32
 3721 012a FE       		.byte	-2
 3722 012b E0       		.byte	-32
 3723 012c FE       		.byte	-2
 3724 012d F1       		.byte	-15
 3725 012e FE       		.byte	-2
 3726 012f F1       		.byte	-15
 3727              		.type	LHs, %object
 3728              		.size	LHs, 64
 3729              	LHs:
 3730 0130 00000000 		.word	0
 3731 0134 01000000 		.word	1
 3732 0138 00010000 		.word	256
 3733 013c 01010000 		.word	257
 3734 0140 00000100 		.word	65536
 3735 0144 01000100 		.word	65537
 3736 0148 00010100 		.word	65792
 3737 014c 01010100 		.word	65793
 3738 0150 00000001 		.word	16777216
 3739 0154 01000001 		.word	16777217
 3740 0158 00010001 		.word	16777472
 3741 015c 01010001 		.word	16777473
 3742 0160 00000101 		.word	16842752
 3743 0164 01000101 		.word	16842753
 3744 0168 00010101 		.word	16843008
 3745 016c 01010101 		.word	16843009
 3746              		.type	RHs, %object
ARM GAS  C:\Users\Phuong\AppData\Local\Temp\ccawWFGQ.s 			page 87


 3747              		.size	RHs, 64
 3748              	RHs:
 3749 0170 00000000 		.word	0
 3750 0174 00000001 		.word	16777216
 3751 0178 00000100 		.word	65536
 3752 017c 00000101 		.word	16842752
 3753 0180 00010000 		.word	256
 3754 0184 00010001 		.word	16777472
 3755 0188 00010100 		.word	65792
 3756 018c 00010101 		.word	16843008
 3757 0190 01000000 		.word	1
 3758 0194 01000001 		.word	16777217
 3759 0198 01000100 		.word	65537
 3760 019c 01000101 		.word	16842753
 3761 01a0 01010000 		.word	257
 3762 01a4 01010001 		.word	16777473
 3763 01a8 01010100 		.word	65793
 3764 01ac 01010101 		.word	16843009
 3765              		.type	SB8, %object
 3766              		.size	SB8, 256
 3767              	SB8:
 3768 01b0 40100010 		.word	268439616
 3769 01b4 00100000 		.word	4096
 3770 01b8 00000400 		.word	262144
 3771 01bc 40100410 		.word	268701760
 3772 01c0 00000010 		.word	268435456
 3773 01c4 40100010 		.word	268439616
 3774 01c8 40000000 		.word	64
 3775 01cc 00000010 		.word	268435456
 3776 01d0 40000400 		.word	262208
 3777 01d4 00000410 		.word	268697600
 3778 01d8 40100410 		.word	268701760
 3779 01dc 00100400 		.word	266240
 3780 01e0 00100410 		.word	268701696
 3781 01e4 40100400 		.word	266304
 3782 01e8 00100000 		.word	4096
 3783 01ec 40000000 		.word	64
 3784 01f0 00000410 		.word	268697600
 3785 01f4 40000010 		.word	268435520
 3786 01f8 00100010 		.word	268439552
 3787 01fc 40100000 		.word	4160
 3788 0200 00100400 		.word	266240
 3789 0204 40000400 		.word	262208
 3790 0208 40000410 		.word	268697664
 3791 020c 00100410 		.word	268701696
 3792 0210 40100000 		.word	4160
 3793 0214 00000000 		.word	0
 3794 0218 00000000 		.word	0
 3795 021c 40000410 		.word	268697664
 3796 0220 40000010 		.word	268435520
 3797 0224 00100010 		.word	268439552
 3798 0228 40100400 		.word	266304
 3799 022c 00000400 		.word	262144
 3800 0230 40100400 		.word	266304
 3801 0234 00000400 		.word	262144
 3802 0238 00100410 		.word	268701696
 3803 023c 00100000 		.word	4096
ARM GAS  C:\Users\Phuong\AppData\Local\Temp\ccawWFGQ.s 			page 88


 3804 0240 40000000 		.word	64
 3805 0244 40000410 		.word	268697664
 3806 0248 00100000 		.word	4096
 3807 024c 40100400 		.word	266304
 3808 0250 00100010 		.word	268439552
 3809 0254 40000000 		.word	64
 3810 0258 40000010 		.word	268435520
 3811 025c 00000410 		.word	268697600
 3812 0260 40000410 		.word	268697664
 3813 0264 00000010 		.word	268435456
 3814 0268 00000400 		.word	262144
 3815 026c 40100010 		.word	268439616
 3816 0270 00000000 		.word	0
 3817 0274 40100410 		.word	268701760
 3818 0278 40000400 		.word	262208
 3819 027c 40000010 		.word	268435520
 3820 0280 00000410 		.word	268697600
 3821 0284 00100010 		.word	268439552
 3822 0288 40100010 		.word	268439616
 3823 028c 00000000 		.word	0
 3824 0290 40100410 		.word	268701760
 3825 0294 00100400 		.word	266240
 3826 0298 00100400 		.word	266240
 3827 029c 40100000 		.word	4160
 3828 02a0 40100000 		.word	4160
 3829 02a4 40000400 		.word	262208
 3830 02a8 00000010 		.word	268435456
 3831 02ac 00100410 		.word	268701696
 3832              		.type	SB6, %object
 3833              		.size	SB6, 256
 3834              	SB6:
 3835 02b0 10000020 		.word	536870928
 3836 02b4 00004020 		.word	541065216
 3837 02b8 00400000 		.word	16384
 3838 02bc 10404020 		.word	541081616
 3839 02c0 00004020 		.word	541065216
 3840 02c4 10000000 		.word	16
 3841 02c8 10404020 		.word	541081616
 3842 02cc 00004000 		.word	4194304
 3843 02d0 00400020 		.word	536887296
 3844 02d4 10404000 		.word	4210704
 3845 02d8 00004000 		.word	4194304
 3846 02dc 10000020 		.word	536870928
 3847 02e0 10004000 		.word	4194320
 3848 02e4 00400020 		.word	536887296
 3849 02e8 00000020 		.word	536870912
 3850 02ec 10400000 		.word	16400
 3851 02f0 00000000 		.word	0
 3852 02f4 10004000 		.word	4194320
 3853 02f8 10400020 		.word	536887312
 3854 02fc 00400000 		.word	16384
 3855 0300 00404000 		.word	4210688
 3856 0304 10400020 		.word	536887312
 3857 0308 10000000 		.word	16
 3858 030c 10004020 		.word	541065232
 3859 0310 10004020 		.word	541065232
 3860 0314 00000000 		.word	0
ARM GAS  C:\Users\Phuong\AppData\Local\Temp\ccawWFGQ.s 			page 89


 3861 0318 10404000 		.word	4210704
 3862 031c 00404020 		.word	541081600
 3863 0320 10400000 		.word	16400
 3864 0324 00404000 		.word	4210688
 3865 0328 00404020 		.word	541081600
 3866 032c 00000020 		.word	536870912
 3867 0330 00400020 		.word	536887296
 3868 0334 10000000 		.word	16
 3869 0338 10004020 		.word	541065232
 3870 033c 00404000 		.word	4210688
 3871 0340 10404020 		.word	541081616
 3872 0344 00004000 		.word	4194304
 3873 0348 10400000 		.word	16400
 3874 034c 10000020 		.word	536870928
 3875 0350 00004000 		.word	4194304
 3876 0354 00400020 		.word	536887296
 3877 0358 00000020 		.word	536870912
 3878 035c 10400000 		.word	16400
 3879 0360 10000020 		.word	536870928
 3880 0364 10404020 		.word	541081616
 3881 0368 00404000 		.word	4210688
 3882 036c 00004020 		.word	541065216
 3883 0370 10404000 		.word	4210704
 3884 0374 00404020 		.word	541081600
 3885 0378 00000000 		.word	0
 3886 037c 10004020 		.word	541065232
 3887 0380 10000000 		.word	16
 3888 0384 00400000 		.word	16384
 3889 0388 00004020 		.word	541065216
 3890 038c 10404000 		.word	4210704
 3891 0390 00400000 		.word	16384
 3892 0394 10004000 		.word	4194320
 3893 0398 10400020 		.word	536887312
 3894 039c 00000000 		.word	0
 3895 03a0 00404020 		.word	541081600
 3896 03a4 00000020 		.word	536870912
 3897 03a8 10004000 		.word	4194320
 3898 03ac 10400020 		.word	536887312
 3899              		.type	SB4, %object
 3900              		.size	SB4, 256
 3901              	SB4:
 3902 03b0 01208000 		.word	8396801
 3903 03b4 81200000 		.word	8321
 3904 03b8 81200000 		.word	8321
 3905 03bc 80000000 		.word	128
 3906 03c0 80208000 		.word	8396928
 3907 03c4 81008000 		.word	8388737
 3908 03c8 01008000 		.word	8388609
 3909 03cc 01200000 		.word	8193
 3910 03d0 00000000 		.word	0
 3911 03d4 00208000 		.word	8396800
 3912 03d8 00208000 		.word	8396800
 3913 03dc 81208000 		.word	8396929
 3914 03e0 81000000 		.word	129
 3915 03e4 00000000 		.word	0
 3916 03e8 80008000 		.word	8388736
 3917 03ec 01008000 		.word	8388609
ARM GAS  C:\Users\Phuong\AppData\Local\Temp\ccawWFGQ.s 			page 90


 3918 03f0 01000000 		.word	1
 3919 03f4 00200000 		.word	8192
 3920 03f8 00008000 		.word	8388608
 3921 03fc 01208000 		.word	8396801
 3922 0400 80000000 		.word	128
 3923 0404 00008000 		.word	8388608
 3924 0408 01200000 		.word	8193
 3925 040c 80200000 		.word	8320
 3926 0410 81008000 		.word	8388737
 3927 0414 01000000 		.word	1
 3928 0418 80200000 		.word	8320
 3929 041c 80008000 		.word	8388736
 3930 0420 00200000 		.word	8192
 3931 0424 80208000 		.word	8396928
 3932 0428 81208000 		.word	8396929
 3933 042c 81000000 		.word	129
 3934 0430 80008000 		.word	8388736
 3935 0434 01008000 		.word	8388609
 3936 0438 00208000 		.word	8396800
 3937 043c 81208000 		.word	8396929
 3938 0440 81000000 		.word	129
 3939 0444 00000000 		.word	0
 3940 0448 00000000 		.word	0
 3941 044c 00208000 		.word	8396800
 3942 0450 80200000 		.word	8320
 3943 0454 80008000 		.word	8388736
 3944 0458 81008000 		.word	8388737
 3945 045c 01000000 		.word	1
 3946 0460 01208000 		.word	8396801
 3947 0464 81200000 		.word	8321
 3948 0468 81200000 		.word	8321
 3949 046c 80000000 		.word	128
 3950 0470 81208000 		.word	8396929
 3951 0474 81000000 		.word	129
 3952 0478 01000000 		.word	1
 3953 047c 00200000 		.word	8192
 3954 0480 01008000 		.word	8388609
 3955 0484 01200000 		.word	8193
 3956 0488 80208000 		.word	8396928
 3957 048c 81008000 		.word	8388737
 3958 0490 01200000 		.word	8193
 3959 0494 80200000 		.word	8320
 3960 0498 00008000 		.word	8388608
 3961 049c 01208000 		.word	8396801
 3962 04a0 80000000 		.word	128
 3963 04a4 00008000 		.word	8388608
 3964 04a8 00200000 		.word	8192
 3965 04ac 80208000 		.word	8396928
 3966              		.type	SB2, %object
 3967              		.size	SB2, 256
 3968              	SB2:
 3969 04b0 20801080 		.word	-2146402272
 3970 04b4 00800080 		.word	-2147450880
 3971 04b8 00800000 		.word	32768
 3972 04bc 20801000 		.word	1081376
 3973 04c0 00001000 		.word	1048576
 3974 04c4 20000000 		.word	32
ARM GAS  C:\Users\Phuong\AppData\Local\Temp\ccawWFGQ.s 			page 91


 3975 04c8 20001080 		.word	-2146435040
 3976 04cc 20800080 		.word	-2147450848
 3977 04d0 20000080 		.word	-2147483616
 3978 04d4 20801080 		.word	-2146402272
 3979 04d8 00801080 		.word	-2146402304
 3980 04dc 00000080 		.word	-2147483648
 3981 04e0 00800080 		.word	-2147450880
 3982 04e4 00001000 		.word	1048576
 3983 04e8 20000000 		.word	32
 3984 04ec 20001080 		.word	-2146435040
 3985 04f0 00801000 		.word	1081344
 3986 04f4 20001000 		.word	1048608
 3987 04f8 20800080 		.word	-2147450848
 3988 04fc 00000000 		.word	0
 3989 0500 00000080 		.word	-2147483648
 3990 0504 00800000 		.word	32768
 3991 0508 20801000 		.word	1081376
 3992 050c 00001080 		.word	-2146435072
 3993 0510 20001000 		.word	1048608
 3994 0514 20000080 		.word	-2147483616
 3995 0518 00000000 		.word	0
 3996 051c 00801000 		.word	1081344
 3997 0520 20800000 		.word	32800
 3998 0524 00801080 		.word	-2146402304
 3999 0528 00001080 		.word	-2146435072
 4000 052c 20800000 		.word	32800
 4001 0530 00000000 		.word	0
 4002 0534 20801000 		.word	1081376
 4003 0538 20001080 		.word	-2146435040
 4004 053c 00001000 		.word	1048576
 4005 0540 20800080 		.word	-2147450848
 4006 0544 00001080 		.word	-2146435072
 4007 0548 00801080 		.word	-2146402304
 4008 054c 00800000 		.word	32768
 4009 0550 00001080 		.word	-2146435072
 4010 0554 00800080 		.word	-2147450880
 4011 0558 20000000 		.word	32
 4012 055c 20801080 		.word	-2146402272
 4013 0560 20801000 		.word	1081376
 4014 0564 20000000 		.word	32
 4015 0568 00800000 		.word	32768
 4016 056c 00000080 		.word	-2147483648
 4017 0570 20800000 		.word	32800
 4018 0574 00801080 		.word	-2146402304
 4019 0578 00001000 		.word	1048576
 4020 057c 20000080 		.word	-2147483616
 4021 0580 20001000 		.word	1048608
 4022 0584 20800080 		.word	-2147450848
 4023 0588 20000080 		.word	-2147483616
 4024 058c 20001000 		.word	1048608
 4025 0590 00801000 		.word	1081344
 4026 0594 00000000 		.word	0
 4027 0598 00800080 		.word	-2147450880
 4028 059c 20800000 		.word	32800
 4029 05a0 00000080 		.word	-2147483648
 4030 05a4 20001080 		.word	-2146435040
 4031 05a8 20801080 		.word	-2146402272
ARM GAS  C:\Users\Phuong\AppData\Local\Temp\ccawWFGQ.s 			page 92


 4032 05ac 00801000 		.word	1081344
 4033              		.type	SB7, %object
 4034              		.size	SB7, 256
 4035              	SB7:
 4036 05b0 00002000 		.word	2097152
 4037 05b4 02002004 		.word	69206018
 4038 05b8 02080004 		.word	67110914
 4039 05bc 00000000 		.word	0
 4040 05c0 00080000 		.word	2048
 4041 05c4 02080004 		.word	67110914
 4042 05c8 02082000 		.word	2099202
 4043 05cc 00082004 		.word	69208064
 4044 05d0 02082004 		.word	69208066
 4045 05d4 00002000 		.word	2097152
 4046 05d8 00000000 		.word	0
 4047 05dc 02000004 		.word	67108866
 4048 05e0 02000000 		.word	2
 4049 05e4 00000004 		.word	67108864
 4050 05e8 02002004 		.word	69206018
 4051 05ec 02080000 		.word	2050
 4052 05f0 00080004 		.word	67110912
 4053 05f4 02082000 		.word	2099202
 4054 05f8 02002000 		.word	2097154
 4055 05fc 00080004 		.word	67110912
 4056 0600 02000004 		.word	67108866
 4057 0604 00002004 		.word	69206016
 4058 0608 00082004 		.word	69208064
 4059 060c 02002000 		.word	2097154
 4060 0610 00002004 		.word	69206016
 4061 0614 00080000 		.word	2048
 4062 0618 02080000 		.word	2050
 4063 061c 02082004 		.word	69208066
 4064 0620 00082000 		.word	2099200
 4065 0624 02000000 		.word	2
 4066 0628 00000004 		.word	67108864
 4067 062c 00082000 		.word	2099200
 4068 0630 00000004 		.word	67108864
 4069 0634 00082000 		.word	2099200
 4070 0638 00002000 		.word	2097152
 4071 063c 02080004 		.word	67110914
 4072 0640 02080004 		.word	67110914
 4073 0644 02002004 		.word	69206018
 4074 0648 02002004 		.word	69206018
 4075 064c 02000000 		.word	2
 4076 0650 02002000 		.word	2097154
 4077 0654 00000004 		.word	67108864
 4078 0658 00080004 		.word	67110912
 4079 065c 00002000 		.word	2097152
 4080 0660 00082004 		.word	69208064
 4081 0664 02080000 		.word	2050
 4082 0668 02082000 		.word	2099202
 4083 066c 00082004 		.word	69208064
 4084 0670 02080000 		.word	2050
 4085 0674 02000004 		.word	67108866
 4086 0678 02082004 		.word	69208066
 4087 067c 00002004 		.word	69206016
 4088 0680 00082000 		.word	2099200
ARM GAS  C:\Users\Phuong\AppData\Local\Temp\ccawWFGQ.s 			page 93


 4089 0684 00000000 		.word	0
 4090 0688 02000000 		.word	2
 4091 068c 02082004 		.word	69208066
 4092 0690 00000000 		.word	0
 4093 0694 02082000 		.word	2099202
 4094 0698 00002004 		.word	69206016
 4095 069c 00080000 		.word	2048
 4096 06a0 02000004 		.word	67108866
 4097 06a4 00080004 		.word	67110912
 4098 06a8 00080000 		.word	2048
 4099 06ac 02002000 		.word	2097154
 4100              		.type	SB5, %object
 4101              		.size	SB5, 256
 4102              	SB5:
 4103 06b0 00010000 		.word	256
 4104 06b4 00010802 		.word	34078976
 4105 06b8 00000802 		.word	34078720
 4106 06bc 00010042 		.word	1107296512
 4107 06c0 00000800 		.word	524288
 4108 06c4 00010000 		.word	256
 4109 06c8 00000040 		.word	1073741824
 4110 06cc 00000802 		.word	34078720
 4111 06d0 00010840 		.word	1074266368
 4112 06d4 00000800 		.word	524288
 4113 06d8 00010002 		.word	33554688
 4114 06dc 00010840 		.word	1074266368
 4115 06e0 00010042 		.word	1107296512
 4116 06e4 00000842 		.word	1107820544
 4117 06e8 00010800 		.word	524544
 4118 06ec 00000040 		.word	1073741824
 4119 06f0 00000002 		.word	33554432
 4120 06f4 00000840 		.word	1074266112
 4121 06f8 00000840 		.word	1074266112
 4122 06fc 00000000 		.word	0
 4123 0700 00010040 		.word	1073742080
 4124 0704 00010842 		.word	1107820800
 4125 0708 00010842 		.word	1107820800
 4126 070c 00010002 		.word	33554688
 4127 0710 00000842 		.word	1107820544
 4128 0714 00010040 		.word	1073742080
 4129 0718 00000000 		.word	0
 4130 071c 00000042 		.word	1107296256
 4131 0720 00010802 		.word	34078976
 4132 0724 00000002 		.word	33554432
 4133 0728 00000042 		.word	1107296256
 4134 072c 00010800 		.word	524544
 4135 0730 00000800 		.word	524288
 4136 0734 00010042 		.word	1107296512
 4137 0738 00010000 		.word	256
 4138 073c 00000002 		.word	33554432
 4139 0740 00000040 		.word	1073741824
 4140 0744 00000802 		.word	34078720
 4141 0748 00010042 		.word	1107296512
 4142 074c 00010840 		.word	1074266368
 4143 0750 00010002 		.word	33554688
 4144 0754 00000040 		.word	1073741824
 4145 0758 00000842 		.word	1107820544
ARM GAS  C:\Users\Phuong\AppData\Local\Temp\ccawWFGQ.s 			page 94


 4146 075c 00010802 		.word	34078976
 4147 0760 00010840 		.word	1074266368
 4148 0764 00010000 		.word	256
 4149 0768 00000002 		.word	33554432
 4150 076c 00000842 		.word	1107820544
 4151 0770 00010842 		.word	1107820800
 4152 0774 00010800 		.word	524544
 4153 0778 00000042 		.word	1107296256
 4154 077c 00010842 		.word	1107820800
 4155 0780 00000802 		.word	34078720
 4156 0784 00000000 		.word	0
 4157 0788 00000840 		.word	1074266112
 4158 078c 00000042 		.word	1107296256
 4159 0790 00010800 		.word	524544
 4160 0794 00010002 		.word	33554688
 4161 0798 00010040 		.word	1073742080
 4162 079c 00000800 		.word	524288
 4163 07a0 00000000 		.word	0
 4164 07a4 00000840 		.word	1074266112
 4165 07a8 00010802 		.word	34078976
 4166 07ac 00010040 		.word	1073742080
 4167              		.type	SB3, %object
 4168              		.size	SB3, 256
 4169              	SB3:
 4170 07b0 08020000 		.word	520
 4171 07b4 00020208 		.word	134349312
 4172 07b8 00000000 		.word	0
 4173 07bc 08000208 		.word	134348808
 4174 07c0 00020008 		.word	134218240
 4175 07c4 00000000 		.word	0
 4176 07c8 08020200 		.word	131592
 4177 07cc 00020008 		.word	134218240
 4178 07d0 08000200 		.word	131080
 4179 07d4 08000008 		.word	134217736
 4180 07d8 08000008 		.word	134217736
 4181 07dc 00000200 		.word	131072
 4182 07e0 08020208 		.word	134349320
 4183 07e4 08000200 		.word	131080
 4184 07e8 00000208 		.word	134348800
 4185 07ec 08020000 		.word	520
 4186 07f0 00000008 		.word	134217728
 4187 07f4 08000000 		.word	8
 4188 07f8 00020208 		.word	134349312
 4189 07fc 00020000 		.word	512
 4190 0800 00020200 		.word	131584
 4191 0804 00000208 		.word	134348800
 4192 0808 08000208 		.word	134348808
 4193 080c 08020200 		.word	131592
 4194 0810 08020008 		.word	134218248
 4195 0814 00020200 		.word	131584
 4196 0818 00000200 		.word	131072
 4197 081c 08020008 		.word	134218248
 4198 0820 08000000 		.word	8
 4199 0824 08020208 		.word	134349320
 4200 0828 00020000 		.word	512
 4201 082c 00000008 		.word	134217728
 4202 0830 00020208 		.word	134349312
ARM GAS  C:\Users\Phuong\AppData\Local\Temp\ccawWFGQ.s 			page 95


 4203 0834 00000008 		.word	134217728
 4204 0838 08000200 		.word	131080
 4205 083c 08020000 		.word	520
 4206 0840 00000200 		.word	131072
 4207 0844 00020208 		.word	134349312
 4208 0848 00020008 		.word	134218240
 4209 084c 00000000 		.word	0
 4210 0850 00020000 		.word	512
 4211 0854 08000200 		.word	131080
 4212 0858 08020208 		.word	134349320
 4213 085c 00020008 		.word	134218240
 4214 0860 08000008 		.word	134217736
 4215 0864 00020000 		.word	512
 4216 0868 00000000 		.word	0
 4217 086c 08000208 		.word	134348808
 4218 0870 08020008 		.word	134218248
 4219 0874 00000200 		.word	131072
 4220 0878 00000008 		.word	134217728
 4221 087c 08020208 		.word	134349320
 4222 0880 08000000 		.word	8
 4223 0884 08020200 		.word	131592
 4224 0888 00020200 		.word	131584
 4225 088c 08000008 		.word	134217736
 4226 0890 00000208 		.word	134348800
 4227 0894 08020008 		.word	134218248
 4228 0898 08020000 		.word	520
 4229 089c 00000208 		.word	134348800
 4230 08a0 08020200 		.word	131592
 4231 08a4 08000000 		.word	8
 4232 08a8 08000208 		.word	134348808
 4233 08ac 00020200 		.word	131584
 4234              		.type	SB1, %object
 4235              		.size	SB1, 256
 4236              	SB1:
 4237 08b0 00040101 		.word	16843776
 4238 08b4 00000000 		.word	0
 4239 08b8 00000100 		.word	65536
 4240 08bc 04040101 		.word	16843780
 4241 08c0 04000101 		.word	16842756
 4242 08c4 04040100 		.word	66564
 4243 08c8 04000000 		.word	4
 4244 08cc 00000100 		.word	65536
 4245 08d0 00040000 		.word	1024
 4246 08d4 00040101 		.word	16843776
 4247 08d8 04040101 		.word	16843780
 4248 08dc 00040000 		.word	1024
 4249 08e0 04040001 		.word	16778244
 4250 08e4 04000101 		.word	16842756
 4251 08e8 00000001 		.word	16777216
 4252 08ec 04000000 		.word	4
 4253 08f0 04040000 		.word	1028
 4254 08f4 00040001 		.word	16778240
 4255 08f8 00040001 		.word	16778240
 4256 08fc 00040100 		.word	66560
 4257 0900 00040100 		.word	66560
 4258 0904 00000101 		.word	16842752
 4259 0908 00000101 		.word	16842752
ARM GAS  C:\Users\Phuong\AppData\Local\Temp\ccawWFGQ.s 			page 96


 4260 090c 04040001 		.word	16778244
 4261 0910 04000100 		.word	65540
 4262 0914 04000001 		.word	16777220
 4263 0918 04000001 		.word	16777220
 4264 091c 04000100 		.word	65540
 4265 0920 00000000 		.word	0
 4266 0924 04040000 		.word	1028
 4267 0928 04040100 		.word	66564
 4268 092c 00000001 		.word	16777216
 4269 0930 00000100 		.word	65536
 4270 0934 04040101 		.word	16843780
 4271 0938 04000000 		.word	4
 4272 093c 00000101 		.word	16842752
 4273 0940 00040101 		.word	16843776
 4274 0944 00000001 		.word	16777216
 4275 0948 00000001 		.word	16777216
 4276 094c 00040000 		.word	1024
 4277 0950 04000101 		.word	16842756
 4278 0954 00000100 		.word	65536
 4279 0958 00040100 		.word	66560
 4280 095c 04000001 		.word	16777220
 4281 0960 00040000 		.word	1024
 4282 0964 04000000 		.word	4
 4283 0968 04040001 		.word	16778244
 4284 096c 04040100 		.word	66564
 4285 0970 04040101 		.word	16843780
 4286 0974 04000100 		.word	65540
 4287 0978 00000101 		.word	16842752
 4288 097c 04040001 		.word	16778244
 4289 0980 04000001 		.word	16777220
 4290 0984 04040000 		.word	1028
 4291 0988 04040100 		.word	66564
 4292 098c 00040101 		.word	16843776
 4293 0990 04040000 		.word	1028
 4294 0994 00040001 		.word	16778240
 4295 0998 00040001 		.word	16778240
 4296 099c 00000000 		.word	0
 4297 09a0 04000100 		.word	65540
 4298 09a4 00040100 		.word	66560
 4299 09a8 00000000 		.word	0
 4300 09ac 04000101 		.word	16842756
 4301              		.type	des3_test_buf, %object
 4302              		.size	des3_test_buf, 8
 4303              	des3_test_buf:
 4304 09b0 4E       		.byte	78
 4305 09b1 6F       		.byte	111
 4306 09b2 77       		.byte	119
 4307 09b3 20       		.byte	32
 4308 09b4 69       		.byte	105
 4309 09b5 73       		.byte	115
 4310 09b6 20       		.byte	32
 4311 09b7 74       		.byte	116
 4312              		.type	des3_test_keys, %object
 4313              		.size	des3_test_keys, 24
 4314              	des3_test_keys:
 4315 09b8 01       		.byte	1
 4316 09b9 23       		.byte	35
ARM GAS  C:\Users\Phuong\AppData\Local\Temp\ccawWFGQ.s 			page 97


 4317 09ba 45       		.byte	69
 4318 09bb 67       		.byte	103
 4319 09bc 89       		.byte	-119
 4320 09bd AB       		.byte	-85
 4321 09be CD       		.byte	-51
 4322 09bf EF       		.byte	-17
 4323 09c0 23       		.byte	35
 4324 09c1 45       		.byte	69
 4325 09c2 67       		.byte	103
 4326 09c3 89       		.byte	-119
 4327 09c4 AB       		.byte	-85
 4328 09c5 CD       		.byte	-51
 4329 09c6 EF       		.byte	-17
 4330 09c7 01       		.byte	1
 4331 09c8 45       		.byte	69
 4332 09c9 67       		.byte	103
 4333 09ca 89       		.byte	-119
 4334 09cb AB       		.byte	-85
 4335 09cc CD       		.byte	-51
 4336 09cd EF       		.byte	-17
 4337 09ce 01       		.byte	1
 4338 09cf 23       		.byte	35
 4339              		.type	des3_test_ecb_dec, %object
 4340              		.size	des3_test_ecb_dec, 24
 4341              	des3_test_ecb_dec:
 4342 09d0 CD       		.byte	-51
 4343 09d1 D6       		.byte	-42
 4344 09d2 4F       		.byte	79
 4345 09d3 2F       		.byte	47
 4346 09d4 94       		.byte	-108
 4347 09d5 27       		.byte	39
 4348 09d6 C1       		.byte	-63
 4349 09d7 5D       		.byte	93
 4350 09d8 69       		.byte	105
 4351 09d9 96       		.byte	-106
 4352 09da C8       		.byte	-56
 4353 09db FA       		.byte	-6
 4354 09dc 47       		.byte	71
 4355 09dd A2       		.byte	-94
 4356 09de AB       		.byte	-85
 4357 09df EB       		.byte	-21
 4358 09e0 83       		.byte	-125
 4359 09e1 25       		.byte	37
 4360 09e2 39       		.byte	57
 4361 09e3 76       		.byte	118
 4362 09e4 44       		.byte	68
 4363 09e5 09       		.byte	9
 4364 09e6 1A       		.byte	26
 4365 09e7 0A       		.byte	10
 4366              		.type	des3_test_ecb_enc, %object
 4367              		.size	des3_test_ecb_enc, 24
 4368              	des3_test_ecb_enc:
 4369 09e8 6A       		.byte	106
 4370 09e9 2A       		.byte	42
 4371 09ea 19       		.byte	25
 4372 09eb F4       		.byte	-12
 4373 09ec 1E       		.byte	30
ARM GAS  C:\Users\Phuong\AppData\Local\Temp\ccawWFGQ.s 			page 98


 4374 09ed CA       		.byte	-54
 4375 09ee 85       		.byte	-123
 4376 09ef 4B       		.byte	75
 4377 09f0 03       		.byte	3
 4378 09f1 E6       		.byte	-26
 4379 09f2 9F       		.byte	-97
 4380 09f3 5B       		.byte	91
 4381 09f4 FA       		.byte	-6
 4382 09f5 58       		.byte	88
 4383 09f6 EB       		.byte	-21
 4384 09f7 42       		.byte	66
 4385 09f8 DD       		.byte	-35
 4386 09f9 17       		.byte	23
 4387 09fa E8       		.byte	-24
 4388 09fb B8       		.byte	-72
 4389 09fc B4       		.byte	-76
 4390 09fd 37       		.byte	55
 4391 09fe D2       		.byte	-46
 4392 09ff 32       		.byte	50
 4393              		.type	des3_test_iv, %object
 4394              		.size	des3_test_iv, 8
 4395              	des3_test_iv:
 4396 0a00 12       		.byte	18
 4397 0a01 34       		.byte	52
 4398 0a02 56       		.byte	86
 4399 0a03 78       		.byte	120
 4400 0a04 90       		.byte	-112
 4401 0a05 AB       		.byte	-85
 4402 0a06 CD       		.byte	-51
 4403 0a07 EF       		.byte	-17
 4404              		.type	des3_test_cbc_dec, %object
 4405              		.size	des3_test_cbc_dec, 24
 4406              	des3_test_cbc_dec:
 4407 0a08 12       		.byte	18
 4408 0a09 9F       		.byte	-97
 4409 0a0a 40       		.byte	64
 4410 0a0b B9       		.byte	-71
 4411 0a0c D2       		.byte	-46
 4412 0a0d 00       		.byte	0
 4413 0a0e 56       		.byte	86
 4414 0a0f B3       		.byte	-77
 4415 0a10 47       		.byte	71
 4416 0a11 0E       		.byte	14
 4417 0a12 FC       		.byte	-4
 4418 0a13 9A       		.byte	-102
 4419 0a14 6B       		.byte	107
 4420 0a15 8E       		.byte	-114
 4421 0a16 E3       		.byte	-29
 4422 0a17 93       		.byte	-109
 4423 0a18 C5       		.byte	-59
 4424 0a19 CE       		.byte	-50
 4425 0a1a CF       		.byte	-49
 4426 0a1b 63       		.byte	99
 4427 0a1c EC       		.byte	-20
 4428 0a1d EC       		.byte	-20
 4429 0a1e 51       		.byte	81
 4430 0a1f 4C       		.byte	76
ARM GAS  C:\Users\Phuong\AppData\Local\Temp\ccawWFGQ.s 			page 99


 4431              		.type	des3_test_cbc_enc, %object
 4432              		.size	des3_test_cbc_enc, 24
 4433              	des3_test_cbc_enc:
 4434 0a20 54       		.byte	84
 4435 0a21 F1       		.byte	-15
 4436 0a22 5A       		.byte	90
 4437 0a23 F6       		.byte	-10
 4438 0a24 EB       		.byte	-21
 4439 0a25 E3       		.byte	-29
 4440 0a26 A4       		.byte	-92
 4441 0a27 B4       		.byte	-76
 4442 0a28 35       		.byte	53
 4443 0a29 76       		.byte	118
 4444 0a2a 11       		.byte	17
 4445 0a2b 56       		.byte	86
 4446 0a2c 5F       		.byte	95
 4447 0a2d A1       		.byte	-95
 4448 0a2e 8E       		.byte	-114
 4449 0a2f 4D       		.byte	77
 4450 0a30 CB       		.byte	-53
 4451 0a31 19       		.byte	25
 4452 0a32 1F       		.byte	31
 4453 0a33 85       		.byte	-123
 4454 0a34 D1       		.byte	-47
 4455 0a35 ED       		.byte	-19
 4456 0a36 84       		.byte	-124
 4457 0a37 39       		.byte	57
 4458              		.section	.rodata.str1.4,"aMS",%progbits,1
 4459              		.align	2
 4460              	.LC20:
 4461 0000 64656300 		.ascii	"dec\000"
 4462              	.LC22:
 4463 0004 656E6300 		.ascii	"enc\000"
 4464              	.LC24:
 4465 0008 20204445 		.ascii	"  DES%c-ECB-%3d (%s): \000"
 4465      5325632D 
 4465      4543422D 
 4465      25336420 
 4465      28257329 
 4466 001f 00       		.space	1
 4467              	.LC28:
 4468 0020 6661696C 		.ascii	"failed\000"
 4468      656400
 4469 0027 00       		.space	1
 4470              	.LC30:
 4471 0028 70617373 		.ascii	"passed\000"
 4471      656400
 4472 002f 00       		.space	1
 4473              	.LC32:
 4474 0030 20204445 		.ascii	"  DES%c-CBC-%3d (%s): \000"
 4474      5325632D 
 4474      4342432D 
 4474      25336420 
 4474      28257329 
 4475              		.text
 4476              	.Letext0:
 4477              		.file 2 "c:\\program files (x86)\\cypress\\psoc creator\\4.2\\psoc creator\\import\\gnu\\arm\\5.4.
ARM GAS  C:\Users\Phuong\AppData\Local\Temp\ccawWFGQ.s 			page 100


 4478              		.file 3 "c:\\program files (x86)\\cypress\\psoc creator\\4.2\\psoc creator\\import\\gnu\\arm\\5.4.
 4479              		.file 4 "c:\\program files (x86)\\cypress\\psoc creator\\4.2\\psoc creator\\import\\gnu\\arm\\5.4.
 4480              		.file 5 ".\\Source\\mbedtls_open\\include/mbedtls/des.h"
 4481              		.file 6 ".\\Source\\mbedtls_open\\include/mbedtls/platform_util.h"
 4482              		.file 7 "c:\\program files (x86)\\cypress\\psoc creator\\4.2\\psoc creator\\import\\gnu\\arm\\5.4.
 4483              		.file 8 "c:\\program files (x86)\\cypress\\psoc creator\\4.2\\psoc creator\\import\\gnu\\arm\\5.4.
 4484              		.file 9 "<built-in>"
 4485              		.section	.debug_info,"",%progbits
 4486              	.Ldebug_info0:
 4487 0000 27130000 		.4byte	0x1327
 4488 0004 0400     		.2byte	0x4
 4489 0006 00000000 		.4byte	.Ldebug_abbrev0
 4490 000a 04       		.byte	0x4
 4491 000b 01       		.uleb128 0x1
 4492 000c 8E000000 		.4byte	.LASF63
 4493 0010 0C       		.byte	0xc
 4494 0011 9F040000 		.4byte	.LASF64
 4495 0015 91020000 		.4byte	.LASF65
 4496 0019 00000000 		.4byte	.Ldebug_ranges0+0
 4497 001d 00000000 		.4byte	0
 4498 0021 00000000 		.4byte	.Ldebug_line0
 4499 0025 02       		.uleb128 0x2
 4500 0026 01       		.byte	0x1
 4501 0027 06       		.byte	0x6
 4502 0028 3B020000 		.4byte	.LASF0
 4503 002c 02       		.uleb128 0x2
 4504 002d 01       		.byte	0x1
 4505 002e 08       		.byte	0x8
 4506 002f 16020000 		.4byte	.LASF1
 4507 0033 02       		.uleb128 0x2
 4508 0034 02       		.byte	0x2
 4509 0035 05       		.byte	0x5
 4510 0036 37000000 		.4byte	.LASF2
 4511 003a 02       		.uleb128 0x2
 4512 003b 02       		.byte	0x2
 4513 003c 07       		.byte	0x7
 4514 003d 6B030000 		.4byte	.LASF3
 4515 0041 02       		.uleb128 0x2
 4516 0042 04       		.byte	0x4
 4517 0043 05       		.byte	0x5
 4518 0044 D1010000 		.4byte	.LASF4
 4519 0048 03       		.uleb128 0x3
 4520 0049 E1010000 		.4byte	.LASF9
 4521 004d 02       		.byte	0x2
 4522 004e 41       		.byte	0x41
 4523 004f 53000000 		.4byte	0x53
 4524 0053 02       		.uleb128 0x2
 4525 0054 04       		.byte	0x4
 4526 0055 07       		.byte	0x7
 4527 0056 F3030000 		.4byte	.LASF5
 4528 005a 02       		.uleb128 0x2
 4529 005b 08       		.byte	0x8
 4530 005c 05       		.byte	0x5
 4531 005d 1E050000 		.4byte	.LASF6
 4532 0061 02       		.uleb128 0x2
 4533 0062 08       		.byte	0x8
 4534 0063 07       		.byte	0x7
ARM GAS  C:\Users\Phuong\AppData\Local\Temp\ccawWFGQ.s 			page 101


 4535 0064 9D010000 		.4byte	.LASF7
 4536 0068 04       		.uleb128 0x4
 4537 0069 04       		.byte	0x4
 4538 006a 05       		.byte	0x5
 4539 006b 696E7400 		.ascii	"int\000"
 4540 006f 02       		.uleb128 0x2
 4541 0070 04       		.byte	0x4
 4542 0071 07       		.byte	0x7
 4543 0072 84020000 		.4byte	.LASF8
 4544 0076 03       		.uleb128 0x3
 4545 0077 BA030000 		.4byte	.LASF10
 4546 007b 03       		.byte	0x3
 4547 007c D8       		.byte	0xd8
 4548 007d 6F000000 		.4byte	0x6f
 4549 0081 02       		.uleb128 0x2
 4550 0082 08       		.byte	0x8
 4551 0083 04       		.byte	0x4
 4552 0084 F1010000 		.4byte	.LASF11
 4553 0088 03       		.uleb128 0x3
 4554 0089 60020000 		.4byte	.LASF12
 4555 008d 04       		.byte	0x4
 4556 008e 30       		.byte	0x30
 4557 008f 48000000 		.4byte	0x48
 4558 0093 05       		.uleb128 0x5
 4559 0094 66010000 		.4byte	.LASF14
 4560 0098 80       		.byte	0x80
 4561 0099 05       		.byte	0x5
 4562 009a 40       		.byte	0x40
 4563 009b AB000000 		.4byte	0xab
 4564 009f 06       		.uleb128 0x6
 4565 00a0 736B00   		.ascii	"sk\000"
 4566 00a3 05       		.byte	0x5
 4567 00a4 42       		.byte	0x42
 4568 00a5 AB000000 		.4byte	0xab
 4569 00a9 00       		.byte	0
 4570 00aa 00       		.byte	0
 4571 00ab 07       		.uleb128 0x7
 4572 00ac 88000000 		.4byte	0x88
 4573 00b0 BB000000 		.4byte	0xbb
 4574 00b4 08       		.uleb128 0x8
 4575 00b5 BB000000 		.4byte	0xbb
 4576 00b9 1F       		.byte	0x1f
 4577 00ba 00       		.byte	0
 4578 00bb 02       		.uleb128 0x2
 4579 00bc 04       		.byte	0x4
 4580 00bd 07       		.byte	0x7
 4581 00be 7D040000 		.4byte	.LASF13
 4582 00c2 03       		.uleb128 0x3
 4583 00c3 66010000 		.4byte	.LASF14
 4584 00c7 05       		.byte	0x5
 4585 00c8 44       		.byte	0x44
 4586 00c9 93000000 		.4byte	0x93
 4587 00cd 09       		.uleb128 0x9
 4588 00ce 41000000 		.4byte	.LASF15
 4589 00d2 8001     		.2byte	0x180
 4590 00d4 05       		.byte	0x5
 4591 00d5 49       		.byte	0x49
ARM GAS  C:\Users\Phuong\AppData\Local\Temp\ccawWFGQ.s 			page 102


 4592 00d6 E6000000 		.4byte	0xe6
 4593 00da 06       		.uleb128 0x6
 4594 00db 736B00   		.ascii	"sk\000"
 4595 00de 05       		.byte	0x5
 4596 00df 4B       		.byte	0x4b
 4597 00e0 E6000000 		.4byte	0xe6
 4598 00e4 00       		.byte	0
 4599 00e5 00       		.byte	0
 4600 00e6 07       		.uleb128 0x7
 4601 00e7 88000000 		.4byte	0x88
 4602 00eb F6000000 		.4byte	0xf6
 4603 00ef 08       		.uleb128 0x8
 4604 00f0 BB000000 		.4byte	0xbb
 4605 00f4 5F       		.byte	0x5f
 4606 00f5 00       		.byte	0
 4607 00f6 03       		.uleb128 0x3
 4608 00f7 41000000 		.4byte	.LASF15
 4609 00fb 05       		.byte	0x5
 4610 00fc 4D       		.byte	0x4d
 4611 00fd CD000000 		.4byte	0xcd
 4612 0101 0A       		.uleb128 0xa
 4613 0102 04       		.byte	0x4
 4614 0103 2C000000 		.4byte	0x2c
 4615 0107 02       		.uleb128 0x2
 4616 0108 01       		.byte	0x1
 4617 0109 08       		.byte	0x8
 4618 010a 8F030000 		.4byte	.LASF16
 4619 010e 0B       		.uleb128 0xb
 4620 010f 7E030000 		.4byte	.LASF17
 4621 0113 01       		.byte	0x1
 4622 0114 3101     		.2byte	0x131
 4623 0116 00000000 		.4byte	.LFB1
 4624 011a 0C000000 		.4byte	.LFE1-.LFB1
 4625 011e 01       		.uleb128 0x1
 4626 011f 9C       		.byte	0x9c
 4627 0120 51010000 		.4byte	0x151
 4628 0124 0C       		.uleb128 0xc
 4629 0125 63747800 		.ascii	"ctx\000"
 4630 0129 01       		.byte	0x1
 4631 012a 3101     		.2byte	0x131
 4632 012c 51010000 		.4byte	0x151
 4633 0130 00000000 		.4byte	.LLST0
 4634 0134 0D       		.uleb128 0xd
 4635 0135 0A000000 		.4byte	.LVL1
 4636 0139 D9120000 		.4byte	0x12d9
 4637 013d 0E       		.uleb128 0xe
 4638 013e 01       		.uleb128 0x1
 4639 013f 50       		.byte	0x50
 4640 0140 03       		.uleb128 0x3
 4641 0141 F3       		.byte	0xf3
 4642 0142 01       		.uleb128 0x1
 4643 0143 50       		.byte	0x50
 4644 0144 0E       		.uleb128 0xe
 4645 0145 01       		.uleb128 0x1
 4646 0146 51       		.byte	0x51
 4647 0147 01       		.uleb128 0x1
 4648 0148 30       		.byte	0x30
ARM GAS  C:\Users\Phuong\AppData\Local\Temp\ccawWFGQ.s 			page 103


 4649 0149 0E       		.uleb128 0xe
 4650 014a 01       		.uleb128 0x1
 4651 014b 52       		.byte	0x52
 4652 014c 02       		.uleb128 0x2
 4653 014d 08       		.byte	0x8
 4654 014e 80       		.byte	0x80
 4655 014f 00       		.byte	0
 4656 0150 00       		.byte	0
 4657 0151 0A       		.uleb128 0xa
 4658 0152 04       		.byte	0x4
 4659 0153 C2000000 		.4byte	0xc2
 4660 0157 0B       		.uleb128 0xb
 4661 0158 3F040000 		.4byte	.LASF18
 4662 015c 01       		.byte	0x1
 4663 015d 3601     		.2byte	0x136
 4664 015f 00000000 		.4byte	.LFB2
 4665 0163 0E000000 		.4byte	.LFE2-.LFB2
 4666 0167 01       		.uleb128 0x1
 4667 0168 9C       		.byte	0x9c
 4668 0169 95010000 		.4byte	0x195
 4669 016d 0C       		.uleb128 0xc
 4670 016e 63747800 		.ascii	"ctx\000"
 4671 0172 01       		.byte	0x1
 4672 0173 3601     		.2byte	0x136
 4673 0175 51010000 		.4byte	0x151
 4674 0179 21000000 		.4byte	.LLST1
 4675 017d 0D       		.uleb128 0xd
 4676 017e 0C000000 		.4byte	.LVL3
 4677 0182 E2120000 		.4byte	0x12e2
 4678 0186 0E       		.uleb128 0xe
 4679 0187 01       		.uleb128 0x1
 4680 0188 50       		.byte	0x50
 4681 0189 03       		.uleb128 0x3
 4682 018a F3       		.byte	0xf3
 4683 018b 01       		.uleb128 0x1
 4684 018c 50       		.byte	0x50
 4685 018d 0E       		.uleb128 0xe
 4686 018e 01       		.uleb128 0x1
 4687 018f 51       		.byte	0x51
 4688 0190 02       		.uleb128 0x2
 4689 0191 08       		.byte	0x8
 4690 0192 80       		.byte	0x80
 4691 0193 00       		.byte	0
 4692 0194 00       		.byte	0
 4693 0195 0B       		.uleb128 0xb
 4694 0196 E9040000 		.4byte	.LASF19
 4695 019a 01       		.byte	0x1
 4696 019b 3E01     		.2byte	0x13e
 4697 019d 00000000 		.4byte	.LFB3
 4698 01a1 0E000000 		.4byte	.LFE3-.LFB3
 4699 01a5 01       		.uleb128 0x1
 4700 01a6 9C       		.byte	0x9c
 4701 01a7 D9010000 		.4byte	0x1d9
 4702 01ab 0C       		.uleb128 0xc
 4703 01ac 63747800 		.ascii	"ctx\000"
 4704 01b0 01       		.byte	0x1
 4705 01b1 3E01     		.2byte	0x13e
ARM GAS  C:\Users\Phuong\AppData\Local\Temp\ccawWFGQ.s 			page 104


 4706 01b3 D9010000 		.4byte	0x1d9
 4707 01b7 42000000 		.4byte	.LLST2
 4708 01bb 0D       		.uleb128 0xd
 4709 01bc 0C000000 		.4byte	.LVL5
 4710 01c0 D9120000 		.4byte	0x12d9
 4711 01c4 0E       		.uleb128 0xe
 4712 01c5 01       		.uleb128 0x1
 4713 01c6 50       		.byte	0x50
 4714 01c7 03       		.uleb128 0x3
 4715 01c8 F3       		.byte	0xf3
 4716 01c9 01       		.uleb128 0x1
 4717 01ca 50       		.byte	0x50
 4718 01cb 0E       		.uleb128 0xe
 4719 01cc 01       		.uleb128 0x1
 4720 01cd 51       		.byte	0x51
 4721 01ce 01       		.uleb128 0x1
 4722 01cf 30       		.byte	0x30
 4723 01d0 0E       		.uleb128 0xe
 4724 01d1 01       		.uleb128 0x1
 4725 01d2 52       		.byte	0x52
 4726 01d3 03       		.uleb128 0x3
 4727 01d4 0A       		.byte	0xa
 4728 01d5 8001     		.2byte	0x180
 4729 01d7 00       		.byte	0
 4730 01d8 00       		.byte	0
 4731 01d9 0A       		.uleb128 0xa
 4732 01da 04       		.byte	0x4
 4733 01db F6000000 		.4byte	0xf6
 4734 01df 0B       		.uleb128 0xb
 4735 01e0 C8040000 		.4byte	.LASF20
 4736 01e4 01       		.byte	0x1
 4737 01e5 4301     		.2byte	0x143
 4738 01e7 00000000 		.4byte	.LFB4
 4739 01eb 10000000 		.4byte	.LFE4-.LFB4
 4740 01ef 01       		.uleb128 0x1
 4741 01f0 9C       		.byte	0x9c
 4742 01f1 1E020000 		.4byte	0x21e
 4743 01f5 0C       		.uleb128 0xc
 4744 01f6 63747800 		.ascii	"ctx\000"
 4745 01fa 01       		.byte	0x1
 4746 01fb 4301     		.2byte	0x143
 4747 01fd D9010000 		.4byte	0x1d9
 4748 0201 63000000 		.4byte	.LLST3
 4749 0205 0D       		.uleb128 0xd
 4750 0206 0E000000 		.4byte	.LVL7
 4751 020a E2120000 		.4byte	0x12e2
 4752 020e 0E       		.uleb128 0xe
 4753 020f 01       		.uleb128 0x1
 4754 0210 50       		.byte	0x50
 4755 0211 03       		.uleb128 0x3
 4756 0212 F3       		.byte	0xf3
 4757 0213 01       		.uleb128 0x1
 4758 0214 50       		.byte	0x50
 4759 0215 0E       		.uleb128 0xe
 4760 0216 01       		.uleb128 0x1
 4761 0217 51       		.byte	0x51
 4762 0218 03       		.uleb128 0x3
ARM GAS  C:\Users\Phuong\AppData\Local\Temp\ccawWFGQ.s 			page 105


 4763 0219 0A       		.byte	0xa
 4764 021a 8001     		.2byte	0x180
 4765 021c 00       		.byte	0
 4766 021d 00       		.byte	0
 4767 021e 0B       		.uleb128 0xb
 4768 021f 6B000000 		.4byte	.LASF21
 4769 0223 01       		.byte	0x1
 4770 0224 5601     		.2byte	0x156
 4771 0226 00000000 		.4byte	.LFB5
 4772 022a 20000000 		.4byte	.LFE5-.LFB5
 4773 022e 01       		.uleb128 0x1
 4774 022f 9C       		.byte	0x9c
 4775 0230 51020000 		.4byte	0x251
 4776 0234 0F       		.uleb128 0xf
 4777 0235 6B657900 		.ascii	"key\000"
 4778 0239 01       		.byte	0x1
 4779 023a 5601     		.2byte	0x156
 4780 023c 01010000 		.4byte	0x101
 4781 0240 01       		.uleb128 0x1
 4782 0241 50       		.byte	0x50
 4783 0242 10       		.uleb128 0x10
 4784 0243 6900     		.ascii	"i\000"
 4785 0245 01       		.byte	0x1
 4786 0246 5801     		.2byte	0x158
 4787 0248 68000000 		.4byte	0x68
 4788 024c 84000000 		.4byte	.LLST4
 4789 0250 00       		.byte	0
 4790 0251 11       		.uleb128 0x11
 4791 0252 94030000 		.4byte	.LASF22
 4792 0256 01       		.byte	0x1
 4793 0257 6101     		.2byte	0x161
 4794 0259 68000000 		.4byte	0x68
 4795 025d 00000000 		.4byte	.LFB6
 4796 0261 24000000 		.4byte	.LFE6-.LFB6
 4797 0265 01       		.uleb128 0x1
 4798 0266 9C       		.byte	0x9c
 4799 0267 8A020000 		.4byte	0x28a
 4800 026b 0C       		.uleb128 0xc
 4801 026c 6B657900 		.ascii	"key\000"
 4802 0270 01       		.byte	0x1
 4803 0271 6101     		.2byte	0x161
 4804 0273 8A020000 		.4byte	0x28a
 4805 0277 A3000000 		.4byte	.LLST5
 4806 027b 10       		.uleb128 0x10
 4807 027c 6900     		.ascii	"i\000"
 4808 027e 01       		.byte	0x1
 4809 027f 6301     		.2byte	0x163
 4810 0281 68000000 		.4byte	0x68
 4811 0285 DD000000 		.4byte	.LLST6
 4812 0289 00       		.byte	0
 4813 028a 0A       		.uleb128 0xa
 4814 028b 04       		.byte	0x4
 4815 028c 90020000 		.4byte	0x290
 4816 0290 12       		.uleb128 0x12
 4817 0291 2C000000 		.4byte	0x2c
 4818 0295 11       		.uleb128 0x11
 4819 0296 69020000 		.4byte	.LASF23
ARM GAS  C:\Users\Phuong\AppData\Local\Temp\ccawWFGQ.s 			page 106


 4820 029a 01       		.byte	0x1
 4821 029b 9801     		.2byte	0x198
 4822 029d 68000000 		.4byte	0x68
 4823 02a1 00000000 		.4byte	.LFB7
 4824 02a5 2C000000 		.4byte	.LFE7-.LFB7
 4825 02a9 01       		.uleb128 0x1
 4826 02aa 9C       		.byte	0x9c
 4827 02ab F1020000 		.4byte	0x2f1
 4828 02af 0C       		.uleb128 0xc
 4829 02b0 6B657900 		.ascii	"key\000"
 4830 02b4 01       		.byte	0x1
 4831 02b5 9801     		.2byte	0x198
 4832 02b7 8A020000 		.4byte	0x28a
 4833 02bb FC000000 		.4byte	.LLST7
 4834 02bf 10       		.uleb128 0x10
 4835 02c0 6900     		.ascii	"i\000"
 4836 02c2 01       		.byte	0x1
 4837 02c3 9A01     		.2byte	0x19a
 4838 02c5 68000000 		.4byte	0x68
 4839 02c9 28010000 		.4byte	.LLST8
 4840 02cd 0D       		.uleb128 0xd
 4841 02ce 16000000 		.4byte	.LVL22
 4842 02d2 ED120000 		.4byte	0x12ed
 4843 02d6 0E       		.uleb128 0xe
 4844 02d7 01       		.uleb128 0x1
 4845 02d8 50       		.byte	0x50
 4846 02d9 0A       		.uleb128 0xa
 4847 02da 75       		.byte	0x75
 4848 02db 00       		.sleb128 0
 4849 02dc 33       		.byte	0x33
 4850 02dd 24       		.byte	0x24
 4851 02de 03       		.byte	0x3
 4852 02df B0000000 		.4byte	.LANCHOR1
 4853 02e3 22       		.byte	0x22
 4854 02e4 0E       		.uleb128 0xe
 4855 02e5 01       		.uleb128 0x1
 4856 02e6 51       		.byte	0x51
 4857 02e7 02       		.uleb128 0x2
 4858 02e8 74       		.byte	0x74
 4859 02e9 00       		.sleb128 0
 4860 02ea 0E       		.uleb128 0xe
 4861 02eb 01       		.uleb128 0x1
 4862 02ec 52       		.byte	0x52
 4863 02ed 01       		.uleb128 0x1
 4864 02ee 38       		.byte	0x38
 4865 02ef 00       		.byte	0
 4866 02f0 00       		.byte	0
 4867 02f1 0B       		.uleb128 0xb
 4868 02f2 12000000 		.4byte	.LASF24
 4869 02f6 01       		.byte	0x1
 4870 02f7 A401     		.2byte	0x1a4
 4871 02f9 00000000 		.4byte	.LFB8
 4872 02fd 4C030000 		.4byte	.LFE8-.LFB8
 4873 0301 01       		.uleb128 0x1
 4874 0302 9C       		.byte	0x9c
 4875 0303 5F030000 		.4byte	0x35f
 4876 0307 0C       		.uleb128 0xc
ARM GAS  C:\Users\Phuong\AppData\Local\Temp\ccawWFGQ.s 			page 107


 4877 0308 534B00   		.ascii	"SK\000"
 4878 030b 01       		.byte	0x1
 4879 030c A401     		.2byte	0x1a4
 4880 030e 5F030000 		.4byte	0x35f
 4881 0312 47010000 		.4byte	.LLST9
 4882 0316 0C       		.uleb128 0xc
 4883 0317 6B657900 		.ascii	"key\000"
 4884 031b 01       		.byte	0x1
 4885 031c A401     		.2byte	0x1a4
 4886 031e 8A020000 		.4byte	0x28a
 4887 0322 8A010000 		.4byte	.LLST10
 4888 0326 10       		.uleb128 0x10
 4889 0327 6900     		.ascii	"i\000"
 4890 0329 01       		.byte	0x1
 4891 032a A601     		.2byte	0x1a6
 4892 032c 68000000 		.4byte	0x68
 4893 0330 AB010000 		.4byte	.LLST11
 4894 0334 10       		.uleb128 0x10
 4895 0335 5800     		.ascii	"X\000"
 4896 0337 01       		.byte	0x1
 4897 0338 A701     		.2byte	0x1a7
 4898 033a 88000000 		.4byte	0x88
 4899 033e CA010000 		.4byte	.LLST12
 4900 0342 10       		.uleb128 0x10
 4901 0343 5900     		.ascii	"Y\000"
 4902 0345 01       		.byte	0x1
 4903 0346 A701     		.2byte	0x1a7
 4904 0348 88000000 		.4byte	0x88
 4905 034c 6F020000 		.4byte	.LLST13
 4906 0350 10       		.uleb128 0x10
 4907 0351 5400     		.ascii	"T\000"
 4908 0353 01       		.byte	0x1
 4909 0354 A701     		.2byte	0x1a7
 4910 0356 88000000 		.4byte	0x88
 4911 035a EB020000 		.4byte	.LLST14
 4912 035e 00       		.byte	0
 4913 035f 0A       		.uleb128 0xa
 4914 0360 04       		.byte	0x4
 4915 0361 88000000 		.4byte	0x88
 4916 0365 13       		.uleb128 0x13
 4917 0366 25000000 		.4byte	.LASF25
 4918 036a 01       		.byte	0x1
 4919 036b 0602     		.2byte	0x206
 4920 036d 00000000 		.4byte	.LFB11
 4921 0371 98000000 		.4byte	.LFE11-.LFB11
 4922 0375 01       		.uleb128 0x1
 4923 0376 9C       		.byte	0x9c
 4924 0377 EB030000 		.4byte	0x3eb
 4925 037b 0C       		.uleb128 0xc
 4926 037c 65736B00 		.ascii	"esk\000"
 4927 0380 01       		.byte	0x1
 4928 0381 0602     		.2byte	0x206
 4929 0383 5F030000 		.4byte	0x35f
 4930 0387 18070000 		.4byte	.LLST15
 4931 038b 0C       		.uleb128 0xc
 4932 038c 64736B00 		.ascii	"dsk\000"
 4933 0390 01       		.byte	0x1
ARM GAS  C:\Users\Phuong\AppData\Local\Temp\ccawWFGQ.s 			page 108


 4934 0391 0702     		.2byte	0x207
 4935 0393 5F030000 		.4byte	0x35f
 4936 0397 44070000 		.4byte	.LLST16
 4937 039b 0C       		.uleb128 0xc
 4938 039c 6B657900 		.ascii	"key\000"
 4939 03a0 01       		.byte	0x1
 4940 03a1 0802     		.2byte	0x208
 4941 03a3 8A020000 		.4byte	0x28a
 4942 03a7 70070000 		.4byte	.LLST17
 4943 03ab 10       		.uleb128 0x10
 4944 03ac 6900     		.ascii	"i\000"
 4945 03ae 01       		.byte	0x1
 4946 03af 0A02     		.2byte	0x20a
 4947 03b1 68000000 		.4byte	0x68
 4948 03b5 9C070000 		.4byte	.LLST18
 4949 03b9 14       		.uleb128 0x14
 4950 03ba 12000000 		.4byte	.LVL68
 4951 03be F1020000 		.4byte	0x2f1
 4952 03c2 D3030000 		.4byte	0x3d3
 4953 03c6 0E       		.uleb128 0xe
 4954 03c7 01       		.uleb128 0x1
 4955 03c8 50       		.byte	0x50
 4956 03c9 02       		.uleb128 0x2
 4957 03ca 74       		.byte	0x74
 4958 03cb 00       		.sleb128 0
 4959 03cc 0E       		.uleb128 0xe
 4960 03cd 01       		.uleb128 0x1
 4961 03ce 51       		.byte	0x51
 4962 03cf 02       		.uleb128 0x2
 4963 03d0 76       		.byte	0x76
 4964 03d1 00       		.sleb128 0
 4965 03d2 00       		.byte	0
 4966 03d3 0D       		.uleb128 0xd
 4967 03d4 1E000000 		.4byte	.LVL69
 4968 03d8 F1020000 		.4byte	0x2f1
 4969 03dc 0E       		.uleb128 0xe
 4970 03dd 01       		.uleb128 0x1
 4971 03de 50       		.byte	0x50
 4972 03df 03       		.uleb128 0x3
 4973 03e0 75       		.byte	0x75
 4974 03e1 8001     		.sleb128 128
 4975 03e3 0E       		.uleb128 0xe
 4976 03e4 01       		.uleb128 0x1
 4977 03e5 51       		.byte	0x51
 4978 03e6 02       		.uleb128 0x2
 4979 03e7 76       		.byte	0x76
 4980 03e8 08       		.sleb128 8
 4981 03e9 00       		.byte	0
 4982 03ea 00       		.byte	0
 4983 03eb 13       		.uleb128 0x13
 4984 03ec 82010000 		.4byte	.LASF26
 4985 03f0 01       		.byte	0x1
 4986 03f1 3B02     		.2byte	0x23b
 4987 03f3 00000000 		.4byte	.LFB14
 4988 03f7 8C000000 		.4byte	.LFE14-.LFB14
 4989 03fb 01       		.uleb128 0x1
 4990 03fc 9C       		.byte	0x9c
ARM GAS  C:\Users\Phuong\AppData\Local\Temp\ccawWFGQ.s 			page 109


 4991 03fd 8C040000 		.4byte	0x48c
 4992 0401 0C       		.uleb128 0xc
 4993 0402 65736B00 		.ascii	"esk\000"
 4994 0406 01       		.byte	0x1
 4995 0407 3B02     		.2byte	0x23b
 4996 0409 5F030000 		.4byte	0x35f
 4997 040d BB070000 		.4byte	.LLST19
 4998 0411 0C       		.uleb128 0xc
 4999 0412 64736B00 		.ascii	"dsk\000"
 5000 0416 01       		.byte	0x1
 5001 0417 3C02     		.2byte	0x23c
 5002 0419 5F030000 		.4byte	0x35f
 5003 041d E7070000 		.4byte	.LLST20
 5004 0421 0C       		.uleb128 0xc
 5005 0422 6B657900 		.ascii	"key\000"
 5006 0426 01       		.byte	0x1
 5007 0427 3D02     		.2byte	0x23d
 5008 0429 8A020000 		.4byte	0x28a
 5009 042d 13080000 		.4byte	.LLST21
 5010 0431 10       		.uleb128 0x10
 5011 0432 6900     		.ascii	"i\000"
 5012 0434 01       		.byte	0x1
 5013 0435 3F02     		.2byte	0x23f
 5014 0437 68000000 		.4byte	0x68
 5015 043b 3F080000 		.4byte	.LLST22
 5016 043f 14       		.uleb128 0x14
 5017 0440 0E000000 		.4byte	.LVL76
 5018 0444 F1020000 		.4byte	0x2f1
 5019 0448 59040000 		.4byte	0x459
 5020 044c 0E       		.uleb128 0xe
 5021 044d 01       		.uleb128 0x1
 5022 044e 50       		.byte	0x50
 5023 044f 02       		.uleb128 0x2
 5024 0450 74       		.byte	0x74
 5025 0451 00       		.sleb128 0
 5026 0452 0E       		.uleb128 0xe
 5027 0453 01       		.uleb128 0x1
 5028 0454 51       		.byte	0x51
 5029 0455 02       		.uleb128 0x2
 5030 0456 76       		.byte	0x76
 5031 0457 00       		.sleb128 0
 5032 0458 00       		.byte	0
 5033 0459 14       		.uleb128 0x14
 5034 045a 1A000000 		.4byte	.LVL77
 5035 045e F1020000 		.4byte	0x2f1
 5036 0462 74040000 		.4byte	0x474
 5037 0466 0E       		.uleb128 0xe
 5038 0467 01       		.uleb128 0x1
 5039 0468 50       		.byte	0x50
 5040 0469 03       		.uleb128 0x3
 5041 046a 75       		.byte	0x75
 5042 046b 8001     		.sleb128 128
 5043 046d 0E       		.uleb128 0xe
 5044 046e 01       		.uleb128 0x1
 5045 046f 51       		.byte	0x51
 5046 0470 02       		.uleb128 0x2
 5047 0471 76       		.byte	0x76
ARM GAS  C:\Users\Phuong\AppData\Local\Temp\ccawWFGQ.s 			page 110


 5048 0472 08       		.sleb128 8
 5049 0473 00       		.byte	0
 5050 0474 0D       		.uleb128 0xd
 5051 0475 26000000 		.4byte	.LVL78
 5052 0479 F1020000 		.4byte	0x2f1
 5053 047d 0E       		.uleb128 0xe
 5054 047e 01       		.uleb128 0x1
 5055 047f 50       		.byte	0x50
 5056 0480 03       		.uleb128 0x3
 5057 0481 74       		.byte	0x74
 5058 0482 8002     		.sleb128 256
 5059 0484 0E       		.uleb128 0xe
 5060 0485 01       		.uleb128 0x1
 5061 0486 51       		.byte	0x51
 5062 0487 02       		.uleb128 0x2
 5063 0488 76       		.byte	0x76
 5064 0489 10       		.sleb128 16
 5065 048a 00       		.byte	0
 5066 048b 00       		.byte	0
 5067 048c 11       		.uleb128 0x11
 5068 048d 28040000 		.4byte	.LASF27
 5069 0491 01       		.byte	0x1
 5070 0492 ED01     		.2byte	0x1ed
 5071 0494 68000000 		.4byte	0x68
 5072 0498 00000000 		.4byte	.LFB9
 5073 049c 0A000000 		.4byte	.LFE9-.LFB9
 5074 04a0 01       		.uleb128 0x1
 5075 04a1 9C       		.byte	0x9c
 5076 04a2 DF040000 		.4byte	0x4df
 5077 04a6 0C       		.uleb128 0xc
 5078 04a7 63747800 		.ascii	"ctx\000"
 5079 04ab 01       		.byte	0x1
 5080 04ac ED01     		.2byte	0x1ed
 5081 04ae 51010000 		.4byte	0x151
 5082 04b2 5E080000 		.4byte	.LLST23
 5083 04b6 0C       		.uleb128 0xc
 5084 04b7 6B657900 		.ascii	"key\000"
 5085 04bb 01       		.byte	0x1
 5086 04bc ED01     		.2byte	0x1ed
 5087 04be 8A020000 		.4byte	0x28a
 5088 04c2 7F080000 		.4byte	.LLST24
 5089 04c6 0D       		.uleb128 0xd
 5090 04c7 06000000 		.4byte	.LVL85
 5091 04cb F1020000 		.4byte	0x2f1
 5092 04cf 0E       		.uleb128 0xe
 5093 04d0 01       		.uleb128 0x1
 5094 04d1 50       		.byte	0x50
 5095 04d2 03       		.uleb128 0x3
 5096 04d3 F3       		.byte	0xf3
 5097 04d4 01       		.uleb128 0x1
 5098 04d5 50       		.byte	0x50
 5099 04d6 0E       		.uleb128 0xe
 5100 04d7 01       		.uleb128 0x1
 5101 04d8 51       		.byte	0x51
 5102 04d9 03       		.uleb128 0x3
 5103 04da F3       		.byte	0xf3
 5104 04db 01       		.uleb128 0x1
ARM GAS  C:\Users\Phuong\AppData\Local\Temp\ccawWFGQ.s 			page 111


 5105 04dc 51       		.byte	0x51
 5106 04dd 00       		.byte	0
 5107 04de 00       		.byte	0
 5108 04df 11       		.uleb128 0x11
 5109 04e0 24020000 		.4byte	.LASF28
 5110 04e4 01       		.byte	0x1
 5111 04e5 F701     		.2byte	0x1f7
 5112 04e7 68000000 		.4byte	0x68
 5113 04eb 00000000 		.4byte	.LFB10
 5114 04ef 38000000 		.4byte	.LFE10-.LFB10
 5115 04f3 01       		.uleb128 0x1
 5116 04f4 9C       		.byte	0x9c
 5117 04f5 77050000 		.4byte	0x577
 5118 04f9 0C       		.uleb128 0xc
 5119 04fa 63747800 		.ascii	"ctx\000"
 5120 04fe 01       		.byte	0x1
 5121 04ff F701     		.2byte	0x1f7
 5122 0501 51010000 		.4byte	0x151
 5123 0505 A0080000 		.4byte	.LLST25
 5124 0509 0C       		.uleb128 0xc
 5125 050a 6B657900 		.ascii	"key\000"
 5126 050e 01       		.byte	0x1
 5127 050f F701     		.2byte	0x1f7
 5128 0511 8A020000 		.4byte	0x28a
 5129 0515 CC080000 		.4byte	.LLST26
 5130 0519 10       		.uleb128 0x10
 5131 051a 6900     		.ascii	"i\000"
 5132 051c 01       		.byte	0x1
 5133 051d F901     		.2byte	0x1f9
 5134 051f 68000000 		.4byte	0x68
 5135 0523 ED080000 		.4byte	.LLST27
 5136 0527 15       		.uleb128 0x15
 5137 0528 0C000000 		.4byte	.LBB2
 5138 052c 10000000 		.4byte	.LBE2-.LBB2
 5139 0530 43050000 		.4byte	0x543
 5140 0534 10       		.uleb128 0x10
 5141 0535 7400     		.ascii	"t\000"
 5142 0537 01       		.byte	0x1
 5143 0538 FF01     		.2byte	0x1ff
 5144 053a 88000000 		.4byte	0x88
 5145 053e 0C090000 		.4byte	.LLST28
 5146 0542 00       		.byte	0
 5147 0543 15       		.uleb128 0x15
 5148 0544 1C000000 		.4byte	.LBB3
 5149 0548 12000000 		.4byte	.LBE3-.LBB3
 5150 054c 5F050000 		.4byte	0x55f
 5151 0550 10       		.uleb128 0x10
 5152 0551 7400     		.ascii	"t\000"
 5153 0553 01       		.byte	0x1
 5154 0554 0002     		.2byte	0x200
 5155 0556 88000000 		.4byte	0x88
 5156 055a 2B090000 		.4byte	.LLST29
 5157 055e 00       		.byte	0
 5158 055f 0D       		.uleb128 0xd
 5159 0560 08000000 		.4byte	.LVL87
 5160 0564 F1020000 		.4byte	0x2f1
 5161 0568 0E       		.uleb128 0xe
ARM GAS  C:\Users\Phuong\AppData\Local\Temp\ccawWFGQ.s 			page 112


 5162 0569 01       		.uleb128 0x1
 5163 056a 50       		.byte	0x50
 5164 056b 02       		.uleb128 0x2
 5165 056c 74       		.byte	0x74
 5166 056d 00       		.sleb128 0
 5167 056e 0E       		.uleb128 0xe
 5168 056f 01       		.uleb128 0x1
 5169 0570 51       		.byte	0x51
 5170 0571 03       		.uleb128 0x3
 5171 0572 F3       		.byte	0xf3
 5172 0573 01       		.uleb128 0x1
 5173 0574 51       		.byte	0x51
 5174 0575 00       		.byte	0
 5175 0576 00       		.byte	0
 5176 0577 11       		.uleb128 0x11
 5177 0578 47020000 		.4byte	.LASF29
 5178 057c 01       		.byte	0x1
 5179 057d 2202     		.2byte	0x222
 5180 057f 68000000 		.4byte	0x68
 5181 0583 00000000 		.4byte	.LFB12
 5182 0587 1C000000 		.4byte	.LFE12-.LFB12
 5183 058b 01       		.uleb128 0x1
 5184 058c 9C       		.byte	0x9c
 5185 058d FA050000 		.4byte	0x5fa
 5186 0591 0C       		.uleb128 0xc
 5187 0592 63747800 		.ascii	"ctx\000"
 5188 0596 01       		.byte	0x1
 5189 0597 2202     		.2byte	0x222
 5190 0599 D9010000 		.4byte	0x1d9
 5191 059d 4A090000 		.4byte	.LLST30
 5192 05a1 0C       		.uleb128 0xc
 5193 05a2 6B657900 		.ascii	"key\000"
 5194 05a6 01       		.byte	0x1
 5195 05a7 2302     		.2byte	0x223
 5196 05a9 8A020000 		.4byte	0x28a
 5197 05ad 6B090000 		.4byte	.LLST31
 5198 05b1 16       		.uleb128 0x16
 5199 05b2 736B00   		.ascii	"sk\000"
 5200 05b5 01       		.byte	0x1
 5201 05b6 2502     		.2byte	0x225
 5202 05b8 E6000000 		.4byte	0xe6
 5203 05bc 03       		.uleb128 0x3
 5204 05bd 91       		.byte	0x91
 5205 05be F87C     		.sleb128 -392
 5206 05c0 14       		.uleb128 0x14
 5207 05c1 0C000000 		.4byte	.LVL97
 5208 05c5 65030000 		.4byte	0x365
 5209 05c9 E2050000 		.4byte	0x5e2
 5210 05cd 0E       		.uleb128 0xe
 5211 05ce 01       		.uleb128 0x1
 5212 05cf 50       		.byte	0x50
 5213 05d0 03       		.uleb128 0x3
 5214 05d1 F3       		.byte	0xf3
 5215 05d2 01       		.uleb128 0x1
 5216 05d3 50       		.byte	0x50
 5217 05d4 0E       		.uleb128 0xe
 5218 05d5 01       		.uleb128 0x1
ARM GAS  C:\Users\Phuong\AppData\Local\Temp\ccawWFGQ.s 			page 113


 5219 05d6 51       		.byte	0x51
 5220 05d7 02       		.uleb128 0x2
 5221 05d8 7D       		.byte	0x7d
 5222 05d9 00       		.sleb128 0
 5223 05da 0E       		.uleb128 0xe
 5224 05db 01       		.uleb128 0x1
 5225 05dc 52       		.byte	0x52
 5226 05dd 03       		.uleb128 0x3
 5227 05de F3       		.byte	0xf3
 5228 05df 01       		.uleb128 0x1
 5229 05e0 51       		.byte	0x51
 5230 05e1 00       		.byte	0
 5231 05e2 0D       		.uleb128 0xd
 5232 05e3 16000000 		.4byte	.LVL98
 5233 05e7 E2120000 		.4byte	0x12e2
 5234 05eb 0E       		.uleb128 0xe
 5235 05ec 01       		.uleb128 0x1
 5236 05ed 50       		.byte	0x50
 5237 05ee 02       		.uleb128 0x2
 5238 05ef 7D       		.byte	0x7d
 5239 05f0 00       		.sleb128 0
 5240 05f1 0E       		.uleb128 0xe
 5241 05f2 01       		.uleb128 0x1
 5242 05f3 51       		.byte	0x51
 5243 05f4 03       		.uleb128 0x3
 5244 05f5 0A       		.byte	0xa
 5245 05f6 8001     		.2byte	0x180
 5246 05f8 00       		.byte	0
 5247 05f9 00       		.byte	0
 5248 05fa 11       		.uleb128 0x11
 5249 05fb 4D010000 		.4byte	.LASF30
 5250 05ff 01       		.byte	0x1
 5251 0600 3002     		.2byte	0x230
 5252 0602 68000000 		.4byte	0x68
 5253 0606 00000000 		.4byte	.LFB13
 5254 060a 1E000000 		.4byte	.LFE13-.LFB13
 5255 060e 01       		.uleb128 0x1
 5256 060f 9C       		.byte	0x9c
 5257 0610 7D060000 		.4byte	0x67d
 5258 0614 0C       		.uleb128 0xc
 5259 0615 63747800 		.ascii	"ctx\000"
 5260 0619 01       		.byte	0x1
 5261 061a 3002     		.2byte	0x230
 5262 061c D9010000 		.4byte	0x1d9
 5263 0620 97090000 		.4byte	.LLST32
 5264 0624 0C       		.uleb128 0xc
 5265 0625 6B657900 		.ascii	"key\000"
 5266 0629 01       		.byte	0x1
 5267 062a 3102     		.2byte	0x231
 5268 062c 8A020000 		.4byte	0x28a
 5269 0630 C3090000 		.4byte	.LLST33
 5270 0634 16       		.uleb128 0x16
 5271 0635 736B00   		.ascii	"sk\000"
 5272 0638 01       		.byte	0x1
 5273 0639 3302     		.2byte	0x233
 5274 063b E6000000 		.4byte	0xe6
 5275 063f 03       		.uleb128 0x3
ARM GAS  C:\Users\Phuong\AppData\Local\Temp\ccawWFGQ.s 			page 114


 5276 0640 91       		.byte	0x91
 5277 0641 F87C     		.sleb128 -392
 5278 0643 14       		.uleb128 0x14
 5279 0644 0E000000 		.4byte	.LVL102
 5280 0648 65030000 		.4byte	0x365
 5281 064c 65060000 		.4byte	0x665
 5282 0650 0E       		.uleb128 0xe
 5283 0651 01       		.uleb128 0x1
 5284 0652 50       		.byte	0x50
 5285 0653 02       		.uleb128 0x2
 5286 0654 7D       		.byte	0x7d
 5287 0655 00       		.sleb128 0
 5288 0656 0E       		.uleb128 0xe
 5289 0657 01       		.uleb128 0x1
 5290 0658 51       		.byte	0x51
 5291 0659 03       		.uleb128 0x3
 5292 065a F3       		.byte	0xf3
 5293 065b 01       		.uleb128 0x1
 5294 065c 50       		.byte	0x50
 5295 065d 0E       		.uleb128 0xe
 5296 065e 01       		.uleb128 0x1
 5297 065f 52       		.byte	0x52
 5298 0660 03       		.uleb128 0x3
 5299 0661 F3       		.byte	0xf3
 5300 0662 01       		.uleb128 0x1
 5301 0663 51       		.byte	0x51
 5302 0664 00       		.byte	0
 5303 0665 0D       		.uleb128 0xd
 5304 0666 18000000 		.4byte	.LVL103
 5305 066a E2120000 		.4byte	0x12e2
 5306 066e 0E       		.uleb128 0xe
 5307 066f 01       		.uleb128 0x1
 5308 0670 50       		.byte	0x50
 5309 0671 02       		.uleb128 0x2
 5310 0672 7D       		.byte	0x7d
 5311 0673 00       		.sleb128 0
 5312 0674 0E       		.uleb128 0xe
 5313 0675 01       		.uleb128 0x1
 5314 0676 51       		.byte	0x51
 5315 0677 03       		.uleb128 0x3
 5316 0678 0A       		.byte	0xa
 5317 0679 8001     		.2byte	0x180
 5318 067b 00       		.byte	0
 5319 067c 00       		.byte	0
 5320 067d 11       		.uleb128 0x11
 5321 067e 86040000 		.4byte	.LASF31
 5322 0682 01       		.byte	0x1
 5323 0683 5502     		.2byte	0x255
 5324 0685 68000000 		.4byte	0x68
 5325 0689 00000000 		.4byte	.LFB15
 5326 068d 1C000000 		.4byte	.LFE15-.LFB15
 5327 0691 01       		.uleb128 0x1
 5328 0692 9C       		.byte	0x9c
 5329 0693 00070000 		.4byte	0x700
 5330 0697 0C       		.uleb128 0xc
 5331 0698 63747800 		.ascii	"ctx\000"
 5332 069c 01       		.byte	0x1
ARM GAS  C:\Users\Phuong\AppData\Local\Temp\ccawWFGQ.s 			page 115


 5333 069d 5502     		.2byte	0x255
 5334 069f D9010000 		.4byte	0x1d9
 5335 06a3 EF090000 		.4byte	.LLST34
 5336 06a7 0C       		.uleb128 0xc
 5337 06a8 6B657900 		.ascii	"key\000"
 5338 06ac 01       		.byte	0x1
 5339 06ad 5602     		.2byte	0x256
 5340 06af 8A020000 		.4byte	0x28a
 5341 06b3 100A0000 		.4byte	.LLST35
 5342 06b7 16       		.uleb128 0x16
 5343 06b8 736B00   		.ascii	"sk\000"
 5344 06bb 01       		.byte	0x1
 5345 06bc 5802     		.2byte	0x258
 5346 06be E6000000 		.4byte	0xe6
 5347 06c2 03       		.uleb128 0x3
 5348 06c3 91       		.byte	0x91
 5349 06c4 F87C     		.sleb128 -392
 5350 06c6 14       		.uleb128 0x14
 5351 06c7 0C000000 		.4byte	.LVL106
 5352 06cb EB030000 		.4byte	0x3eb
 5353 06cf E8060000 		.4byte	0x6e8
 5354 06d3 0E       		.uleb128 0xe
 5355 06d4 01       		.uleb128 0x1
 5356 06d5 50       		.byte	0x50
 5357 06d6 03       		.uleb128 0x3
 5358 06d7 F3       		.byte	0xf3
 5359 06d8 01       		.uleb128 0x1
 5360 06d9 50       		.byte	0x50
 5361 06da 0E       		.uleb128 0xe
 5362 06db 01       		.uleb128 0x1
 5363 06dc 51       		.byte	0x51
 5364 06dd 02       		.uleb128 0x2
 5365 06de 7D       		.byte	0x7d
 5366 06df 00       		.sleb128 0
 5367 06e0 0E       		.uleb128 0xe
 5368 06e1 01       		.uleb128 0x1
 5369 06e2 52       		.byte	0x52
 5370 06e3 03       		.uleb128 0x3
 5371 06e4 F3       		.byte	0xf3
 5372 06e5 01       		.uleb128 0x1
 5373 06e6 51       		.byte	0x51
 5374 06e7 00       		.byte	0
 5375 06e8 0D       		.uleb128 0xd
 5376 06e9 16000000 		.4byte	.LVL107
 5377 06ed E2120000 		.4byte	0x12e2
 5378 06f1 0E       		.uleb128 0xe
 5379 06f2 01       		.uleb128 0x1
 5380 06f3 50       		.byte	0x50
 5381 06f4 02       		.uleb128 0x2
 5382 06f5 7D       		.byte	0x7d
 5383 06f6 00       		.sleb128 0
 5384 06f7 0E       		.uleb128 0xe
 5385 06f8 01       		.uleb128 0x1
 5386 06f9 51       		.byte	0x51
 5387 06fa 03       		.uleb128 0x3
 5388 06fb 0A       		.byte	0xa
 5389 06fc 8001     		.2byte	0x180
ARM GAS  C:\Users\Phuong\AppData\Local\Temp\ccawWFGQ.s 			page 116


 5390 06fe 00       		.byte	0
 5391 06ff 00       		.byte	0
 5392 0700 11       		.uleb128 0x11
 5393 0701 52030000 		.4byte	.LASF32
 5394 0705 01       		.byte	0x1
 5395 0706 6302     		.2byte	0x263
 5396 0708 68000000 		.4byte	0x68
 5397 070c 00000000 		.4byte	.LFB16
 5398 0710 1E000000 		.4byte	.LFE16-.LFB16
 5399 0714 01       		.uleb128 0x1
 5400 0715 9C       		.byte	0x9c
 5401 0716 83070000 		.4byte	0x783
 5402 071a 0C       		.uleb128 0xc
 5403 071b 63747800 		.ascii	"ctx\000"
 5404 071f 01       		.byte	0x1
 5405 0720 6302     		.2byte	0x263
 5406 0722 D9010000 		.4byte	0x1d9
 5407 0726 3C0A0000 		.4byte	.LLST36
 5408 072a 0C       		.uleb128 0xc
 5409 072b 6B657900 		.ascii	"key\000"
 5410 072f 01       		.byte	0x1
 5411 0730 6402     		.2byte	0x264
 5412 0732 8A020000 		.4byte	0x28a
 5413 0736 680A0000 		.4byte	.LLST37
 5414 073a 16       		.uleb128 0x16
 5415 073b 736B00   		.ascii	"sk\000"
 5416 073e 01       		.byte	0x1
 5417 073f 6602     		.2byte	0x266
 5418 0741 E6000000 		.4byte	0xe6
 5419 0745 03       		.uleb128 0x3
 5420 0746 91       		.byte	0x91
 5421 0747 F87C     		.sleb128 -392
 5422 0749 14       		.uleb128 0x14
 5423 074a 0E000000 		.4byte	.LVL111
 5424 074e EB030000 		.4byte	0x3eb
 5425 0752 6B070000 		.4byte	0x76b
 5426 0756 0E       		.uleb128 0xe
 5427 0757 01       		.uleb128 0x1
 5428 0758 50       		.byte	0x50
 5429 0759 02       		.uleb128 0x2
 5430 075a 7D       		.byte	0x7d
 5431 075b 00       		.sleb128 0
 5432 075c 0E       		.uleb128 0xe
 5433 075d 01       		.uleb128 0x1
 5434 075e 51       		.byte	0x51
 5435 075f 03       		.uleb128 0x3
 5436 0760 F3       		.byte	0xf3
 5437 0761 01       		.uleb128 0x1
 5438 0762 50       		.byte	0x50
 5439 0763 0E       		.uleb128 0xe
 5440 0764 01       		.uleb128 0x1
 5441 0765 52       		.byte	0x52
 5442 0766 03       		.uleb128 0x3
 5443 0767 F3       		.byte	0xf3
 5444 0768 01       		.uleb128 0x1
 5445 0769 51       		.byte	0x51
 5446 076a 00       		.byte	0
ARM GAS  C:\Users\Phuong\AppData\Local\Temp\ccawWFGQ.s 			page 117


 5447 076b 0D       		.uleb128 0xd
 5448 076c 18000000 		.4byte	.LVL112
 5449 0770 E2120000 		.4byte	0x12e2
 5450 0774 0E       		.uleb128 0xe
 5451 0775 01       		.uleb128 0x1
 5452 0776 50       		.byte	0x50
 5453 0777 02       		.uleb128 0x2
 5454 0778 7D       		.byte	0x7d
 5455 0779 00       		.sleb128 0
 5456 077a 0E       		.uleb128 0xe
 5457 077b 01       		.uleb128 0x1
 5458 077c 51       		.byte	0x51
 5459 077d 03       		.uleb128 0x3
 5460 077e 0A       		.byte	0xa
 5461 077f 8001     		.2byte	0x180
 5462 0781 00       		.byte	0
 5463 0782 00       		.byte	0
 5464 0783 11       		.uleb128 0x11
 5465 0784 50040000 		.4byte	.LASF33
 5466 0788 01       		.byte	0x1
 5467 0789 7202     		.2byte	0x272
 5468 078b 68000000 		.4byte	0x68
 5469 078f 00000000 		.4byte	.LFB17
 5470 0793 48020000 		.4byte	.LFE17-.LFB17
 5471 0797 01       		.uleb128 0x1
 5472 0798 9C       		.byte	0x9c
 5473 0799 15080000 		.4byte	0x815
 5474 079d 0C       		.uleb128 0xc
 5475 079e 63747800 		.ascii	"ctx\000"
 5476 07a2 01       		.byte	0x1
 5477 07a3 7202     		.2byte	0x272
 5478 07a5 51010000 		.4byte	0x151
 5479 07a9 940A0000 		.4byte	.LLST38
 5480 07ad 17       		.uleb128 0x17
 5481 07ae 56000000 		.4byte	.LASF34
 5482 07b2 01       		.byte	0x1
 5483 07b3 7302     		.2byte	0x273
 5484 07b5 8A020000 		.4byte	0x28a
 5485 07b9 C00A0000 		.4byte	.LLST39
 5486 07bd 17       		.uleb128 0x17
 5487 07be C1040000 		.4byte	.LASF35
 5488 07c2 01       		.byte	0x1
 5489 07c3 7402     		.2byte	0x274
 5490 07c5 01010000 		.4byte	0x101
 5491 07c9 E10A0000 		.4byte	.LLST40
 5492 07cd 10       		.uleb128 0x10
 5493 07ce 6900     		.ascii	"i\000"
 5494 07d0 01       		.byte	0x1
 5495 07d1 7602     		.2byte	0x276
 5496 07d3 68000000 		.4byte	0x68
 5497 07d7 000B0000 		.4byte	.LLST41
 5498 07db 10       		.uleb128 0x10
 5499 07dc 5800     		.ascii	"X\000"
 5500 07de 01       		.byte	0x1
 5501 07df 7702     		.2byte	0x277
 5502 07e1 88000000 		.4byte	0x88
 5503 07e5 4E0B0000 		.4byte	.LLST42
ARM GAS  C:\Users\Phuong\AppData\Local\Temp\ccawWFGQ.s 			page 118


 5504 07e9 10       		.uleb128 0x10
 5505 07ea 5900     		.ascii	"Y\000"
 5506 07ec 01       		.byte	0x1
 5507 07ed 7702     		.2byte	0x277
 5508 07ef 88000000 		.4byte	0x88
 5509 07f3 A30B0000 		.4byte	.LLST43
 5510 07f7 10       		.uleb128 0x10
 5511 07f8 5400     		.ascii	"T\000"
 5512 07fa 01       		.byte	0x1
 5513 07fb 7702     		.2byte	0x277
 5514 07fd 88000000 		.4byte	0x88
 5515 0801 F80B0000 		.4byte	.LLST44
 5516 0805 10       		.uleb128 0x10
 5517 0806 534B00   		.ascii	"SK\000"
 5518 0809 01       		.byte	0x1
 5519 080a 7702     		.2byte	0x277
 5520 080c 5F030000 		.4byte	0x35f
 5521 0810 FF170000 		.4byte	.LLST45
 5522 0814 00       		.byte	0
 5523 0815 11       		.uleb128 0x11
 5524 0816 12040000 		.4byte	.LASF36
 5525 081a 01       		.byte	0x1
 5526 081b 9302     		.2byte	0x293
 5527 081d 68000000 		.4byte	0x68
 5528 0821 00000000 		.4byte	.LFB18
 5529 0825 94000000 		.4byte	.LFE18-.LFB18
 5530 0829 01       		.uleb128 0x1
 5531 082a 9C       		.byte	0x9c
 5532 082b 47090000 		.4byte	0x947
 5533 082f 0C       		.uleb128 0xc
 5534 0830 63747800 		.ascii	"ctx\000"
 5535 0834 01       		.byte	0x1
 5536 0835 9302     		.2byte	0x293
 5537 0837 51010000 		.4byte	0x151
 5538 083b 5C180000 		.4byte	.LLST46
 5539 083f 17       		.uleb128 0x17
 5540 0840 B5030000 		.4byte	.LASF37
 5541 0844 01       		.byte	0x1
 5542 0845 9402     		.2byte	0x294
 5543 0847 68000000 		.4byte	0x68
 5544 084b 92180000 		.4byte	.LLST47
 5545 084f 17       		.uleb128 0x17
 5546 0850 8F010000 		.4byte	.LASF38
 5547 0854 01       		.byte	0x1
 5548 0855 9502     		.2byte	0x295
 5549 0857 76000000 		.4byte	0x76
 5550 085b CC180000 		.4byte	.LLST48
 5551 085f 0C       		.uleb128 0xc
 5552 0860 697600   		.ascii	"iv\000"
 5553 0863 01       		.byte	0x1
 5554 0864 9602     		.2byte	0x296
 5555 0866 01010000 		.4byte	0x101
 5556 086a 00190000 		.4byte	.LLST49
 5557 086e 17       		.uleb128 0x17
 5558 086f 56000000 		.4byte	.LASF34
 5559 0873 01       		.byte	0x1
 5560 0874 9702     		.2byte	0x297
ARM GAS  C:\Users\Phuong\AppData\Local\Temp\ccawWFGQ.s 			page 119


 5561 0876 8A020000 		.4byte	0x28a
 5562 087a 2C190000 		.4byte	.LLST50
 5563 087e 17       		.uleb128 0x17
 5564 087f C1040000 		.4byte	.LASF35
 5565 0883 01       		.byte	0x1
 5566 0884 9802     		.2byte	0x298
 5567 0886 01010000 		.4byte	0x101
 5568 088a 62190000 		.4byte	.LLST51
 5569 088e 10       		.uleb128 0x10
 5570 088f 6900     		.ascii	"i\000"
 5571 0891 01       		.byte	0x1
 5572 0892 9A02     		.2byte	0x29a
 5573 0894 68000000 		.4byte	0x68
 5574 0898 98190000 		.4byte	.LLST52
 5575 089c 18       		.uleb128 0x18
 5576 089d 32000000 		.4byte	.LASF39
 5577 08a1 01       		.byte	0x1
 5578 08a2 9B02     		.2byte	0x29b
 5579 08a4 47090000 		.4byte	0x947
 5580 08a8 02       		.uleb128 0x2
 5581 08a9 91       		.byte	0x91
 5582 08aa 60       		.sleb128 -32
 5583 08ab 14       		.uleb128 0x14
 5584 08ac 34000000 		.4byte	.LVL195
 5585 08b0 83070000 		.4byte	0x783
 5586 08b4 CC080000 		.4byte	0x8cc
 5587 08b8 0E       		.uleb128 0xe
 5588 08b9 01       		.uleb128 0x1
 5589 08ba 50       		.byte	0x50
 5590 08bb 03       		.uleb128 0x3
 5591 08bc 91       		.byte	0x91
 5592 08bd 5C       		.sleb128 -36
 5593 08be 06       		.byte	0x6
 5594 08bf 0E       		.uleb128 0xe
 5595 08c0 01       		.uleb128 0x1
 5596 08c1 51       		.byte	0x51
 5597 08c2 02       		.uleb128 0x2
 5598 08c3 75       		.byte	0x75
 5599 08c4 00       		.sleb128 0
 5600 08c5 0E       		.uleb128 0xe
 5601 08c6 01       		.uleb128 0x1
 5602 08c7 52       		.byte	0x52
 5603 08c8 02       		.uleb128 0x2
 5604 08c9 75       		.byte	0x75
 5605 08ca 00       		.sleb128 0
 5606 08cb 00       		.byte	0
 5607 08cc 14       		.uleb128 0x14
 5608 08cd 3E000000 		.4byte	.LVL196
 5609 08d1 F8120000 		.4byte	0x12f8
 5610 08d5 EB080000 		.4byte	0x8eb
 5611 08d9 0E       		.uleb128 0xe
 5612 08da 01       		.uleb128 0x1
 5613 08db 50       		.byte	0x50
 5614 08dc 02       		.uleb128 0x2
 5615 08dd 76       		.byte	0x76
 5616 08de 00       		.sleb128 0
 5617 08df 0E       		.uleb128 0xe
ARM GAS  C:\Users\Phuong\AppData\Local\Temp\ccawWFGQ.s 			page 120


 5618 08e0 01       		.uleb128 0x1
 5619 08e1 51       		.byte	0x51
 5620 08e2 02       		.uleb128 0x2
 5621 08e3 75       		.byte	0x75
 5622 08e4 00       		.sleb128 0
 5623 08e5 0E       		.uleb128 0xe
 5624 08e6 01       		.uleb128 0x1
 5625 08e7 52       		.byte	0x52
 5626 08e8 01       		.uleb128 0x1
 5627 08e9 38       		.byte	0x38
 5628 08ea 00       		.byte	0
 5629 08eb 14       		.uleb128 0x14
 5630 08ec 56000000 		.4byte	.LVL200
 5631 08f0 F8120000 		.4byte	0x12f8
 5632 08f4 0A090000 		.4byte	0x90a
 5633 08f8 0E       		.uleb128 0xe
 5634 08f9 01       		.uleb128 0x1
 5635 08fa 50       		.byte	0x50
 5636 08fb 02       		.uleb128 0x2
 5637 08fc 91       		.byte	0x91
 5638 08fd 60       		.sleb128 -32
 5639 08fe 0E       		.uleb128 0xe
 5640 08ff 01       		.uleb128 0x1
 5641 0900 51       		.byte	0x51
 5642 0901 02       		.uleb128 0x2
 5643 0902 77       		.byte	0x77
 5644 0903 00       		.sleb128 0
 5645 0904 0E       		.uleb128 0xe
 5646 0905 01       		.uleb128 0x1
 5647 0906 52       		.byte	0x52
 5648 0907 01       		.uleb128 0x1
 5649 0908 38       		.byte	0x38
 5650 0909 00       		.byte	0
 5651 090a 14       		.uleb128 0x14
 5652 090b 60000000 		.4byte	.LVL201
 5653 090f 83070000 		.4byte	0x783
 5654 0913 2B090000 		.4byte	0x92b
 5655 0917 0E       		.uleb128 0xe
 5656 0918 01       		.uleb128 0x1
 5657 0919 50       		.byte	0x50
 5658 091a 03       		.uleb128 0x3
 5659 091b 91       		.byte	0x91
 5660 091c 5C       		.sleb128 -36
 5661 091d 06       		.byte	0x6
 5662 091e 0E       		.uleb128 0xe
 5663 091f 01       		.uleb128 0x1
 5664 0920 51       		.byte	0x51
 5665 0921 02       		.uleb128 0x2
 5666 0922 77       		.byte	0x77
 5667 0923 00       		.sleb128 0
 5668 0924 0E       		.uleb128 0xe
 5669 0925 01       		.uleb128 0x1
 5670 0926 52       		.byte	0x52
 5671 0927 02       		.uleb128 0x2
 5672 0928 75       		.byte	0x75
 5673 0929 00       		.sleb128 0
 5674 092a 00       		.byte	0
ARM GAS  C:\Users\Phuong\AppData\Local\Temp\ccawWFGQ.s 			page 121


 5675 092b 0D       		.uleb128 0xd
 5676 092c 7E000000 		.4byte	.LVL204
 5677 0930 F8120000 		.4byte	0x12f8
 5678 0934 0E       		.uleb128 0xe
 5679 0935 01       		.uleb128 0x1
 5680 0936 50       		.byte	0x50
 5681 0937 02       		.uleb128 0x2
 5682 0938 76       		.byte	0x76
 5683 0939 00       		.sleb128 0
 5684 093a 0E       		.uleb128 0xe
 5685 093b 01       		.uleb128 0x1
 5686 093c 51       		.byte	0x51
 5687 093d 02       		.uleb128 0x2
 5688 093e 91       		.byte	0x91
 5689 093f 60       		.sleb128 -32
 5690 0940 0E       		.uleb128 0xe
 5691 0941 01       		.uleb128 0x1
 5692 0942 52       		.byte	0x52
 5693 0943 01       		.uleb128 0x1
 5694 0944 38       		.byte	0x38
 5695 0945 00       		.byte	0
 5696 0946 00       		.byte	0
 5697 0947 07       		.uleb128 0x7
 5698 0948 2C000000 		.4byte	0x2c
 5699 094c 57090000 		.4byte	0x957
 5700 0950 08       		.uleb128 0x8
 5701 0951 BB000000 		.4byte	0xbb
 5702 0955 07       		.byte	0x7
 5703 0956 00       		.byte	0
 5704 0957 11       		.uleb128 0x11
 5705 0958 3B030000 		.4byte	.LASF40
 5706 095c 01       		.byte	0x1
 5707 095d C902     		.2byte	0x2c9
 5708 095f 68000000 		.4byte	0x68
 5709 0963 00000000 		.4byte	.LFB19
 5710 0967 A0040000 		.4byte	.LFE19-.LFB19
 5711 096b 01       		.uleb128 0x1
 5712 096c 9C       		.byte	0x9c
 5713 096d E9090000 		.4byte	0x9e9
 5714 0971 0C       		.uleb128 0xc
 5715 0972 63747800 		.ascii	"ctx\000"
 5716 0976 01       		.byte	0x1
 5717 0977 C902     		.2byte	0x2c9
 5718 0979 D9010000 		.4byte	0x1d9
 5719 097d CD190000 		.4byte	.LLST53
 5720 0981 17       		.uleb128 0x17
 5721 0982 56000000 		.4byte	.LASF34
 5722 0986 01       		.byte	0x1
 5723 0987 CA02     		.2byte	0x2ca
 5724 0989 8A020000 		.4byte	0x28a
 5725 098d F9190000 		.4byte	.LLST54
 5726 0991 17       		.uleb128 0x17
 5727 0992 C1040000 		.4byte	.LASF35
 5728 0996 01       		.byte	0x1
 5729 0997 CB02     		.2byte	0x2cb
 5730 0999 01010000 		.4byte	0x101
 5731 099d 1A1A0000 		.4byte	.LLST55
ARM GAS  C:\Users\Phuong\AppData\Local\Temp\ccawWFGQ.s 			page 122


 5732 09a1 10       		.uleb128 0x10
 5733 09a2 6900     		.ascii	"i\000"
 5734 09a4 01       		.byte	0x1
 5735 09a5 CD02     		.2byte	0x2cd
 5736 09a7 68000000 		.4byte	0x68
 5737 09ab 391A0000 		.4byte	.LLST56
 5738 09af 10       		.uleb128 0x10
 5739 09b0 5800     		.ascii	"X\000"
 5740 09b2 01       		.byte	0x1
 5741 09b3 CE02     		.2byte	0x2ce
 5742 09b5 88000000 		.4byte	0x88
 5743 09b9 E31A0000 		.4byte	.LLST57
 5744 09bd 10       		.uleb128 0x10
 5745 09be 5900     		.ascii	"Y\000"
 5746 09c0 01       		.byte	0x1
 5747 09c1 CE02     		.2byte	0x2ce
 5748 09c3 88000000 		.4byte	0x88
 5749 09c7 6F1B0000 		.4byte	.LLST58
 5750 09cb 10       		.uleb128 0x10
 5751 09cc 5400     		.ascii	"T\000"
 5752 09ce 01       		.byte	0x1
 5753 09cf CE02     		.2byte	0x2ce
 5754 09d1 88000000 		.4byte	0x88
 5755 09d5 061C0000 		.4byte	.LLST59
 5756 09d9 10       		.uleb128 0x10
 5757 09da 534B00   		.ascii	"SK\000"
 5758 09dd 01       		.byte	0x1
 5759 09de CE02     		.2byte	0x2ce
 5760 09e0 5F030000 		.4byte	0x35f
 5761 09e4 02260000 		.4byte	.LLST60
 5762 09e8 00       		.byte	0
 5763 09e9 11       		.uleb128 0x11
 5764 09ea 66040000 		.4byte	.LASF41
 5765 09ee 01       		.byte	0x1
 5766 09ef F602     		.2byte	0x2f6
 5767 09f1 68000000 		.4byte	0x68
 5768 09f5 00000000 		.4byte	.LFB20
 5769 09f9 94000000 		.4byte	.LFE20-.LFB20
 5770 09fd 01       		.uleb128 0x1
 5771 09fe 9C       		.byte	0x9c
 5772 09ff 1B0B0000 		.4byte	0xb1b
 5773 0a03 0C       		.uleb128 0xc
 5774 0a04 63747800 		.ascii	"ctx\000"
 5775 0a08 01       		.byte	0x1
 5776 0a09 F602     		.2byte	0x2f6
 5777 0a0b D9010000 		.4byte	0x1d9
 5778 0a0f DD260000 		.4byte	.LLST61
 5779 0a13 17       		.uleb128 0x17
 5780 0a14 B5030000 		.4byte	.LASF37
 5781 0a18 01       		.byte	0x1
 5782 0a19 F702     		.2byte	0x2f7
 5783 0a1b 68000000 		.4byte	0x68
 5784 0a1f 13270000 		.4byte	.LLST62
 5785 0a23 17       		.uleb128 0x17
 5786 0a24 8F010000 		.4byte	.LASF38
 5787 0a28 01       		.byte	0x1
 5788 0a29 F802     		.2byte	0x2f8
ARM GAS  C:\Users\Phuong\AppData\Local\Temp\ccawWFGQ.s 			page 123


 5789 0a2b 76000000 		.4byte	0x76
 5790 0a2f 4D270000 		.4byte	.LLST63
 5791 0a33 0C       		.uleb128 0xc
 5792 0a34 697600   		.ascii	"iv\000"
 5793 0a37 01       		.byte	0x1
 5794 0a38 F902     		.2byte	0x2f9
 5795 0a3a 01010000 		.4byte	0x101
 5796 0a3e 81270000 		.4byte	.LLST64
 5797 0a42 17       		.uleb128 0x17
 5798 0a43 56000000 		.4byte	.LASF34
 5799 0a47 01       		.byte	0x1
 5800 0a48 FA02     		.2byte	0x2fa
 5801 0a4a 8A020000 		.4byte	0x28a
 5802 0a4e AD270000 		.4byte	.LLST65
 5803 0a52 17       		.uleb128 0x17
 5804 0a53 C1040000 		.4byte	.LASF35
 5805 0a57 01       		.byte	0x1
 5806 0a58 FB02     		.2byte	0x2fb
 5807 0a5a 01010000 		.4byte	0x101
 5808 0a5e E3270000 		.4byte	.LLST66
 5809 0a62 10       		.uleb128 0x10
 5810 0a63 6900     		.ascii	"i\000"
 5811 0a65 01       		.byte	0x1
 5812 0a66 FD02     		.2byte	0x2fd
 5813 0a68 68000000 		.4byte	0x68
 5814 0a6c 19280000 		.4byte	.LLST67
 5815 0a70 18       		.uleb128 0x18
 5816 0a71 32000000 		.4byte	.LASF39
 5817 0a75 01       		.byte	0x1
 5818 0a76 FE02     		.2byte	0x2fe
 5819 0a78 47090000 		.4byte	0x947
 5820 0a7c 02       		.uleb128 0x2
 5821 0a7d 91       		.byte	0x91
 5822 0a7e 60       		.sleb128 -32
 5823 0a7f 14       		.uleb128 0x14
 5824 0a80 34000000 		.4byte	.LVL328
 5825 0a84 57090000 		.4byte	0x957
 5826 0a88 A00A0000 		.4byte	0xaa0
 5827 0a8c 0E       		.uleb128 0xe
 5828 0a8d 01       		.uleb128 0x1
 5829 0a8e 50       		.byte	0x50
 5830 0a8f 03       		.uleb128 0x3
 5831 0a90 91       		.byte	0x91
 5832 0a91 5C       		.sleb128 -36
 5833 0a92 06       		.byte	0x6
 5834 0a93 0E       		.uleb128 0xe
 5835 0a94 01       		.uleb128 0x1
 5836 0a95 51       		.byte	0x51
 5837 0a96 02       		.uleb128 0x2
 5838 0a97 75       		.byte	0x75
 5839 0a98 00       		.sleb128 0
 5840 0a99 0E       		.uleb128 0xe
 5841 0a9a 01       		.uleb128 0x1
 5842 0a9b 52       		.byte	0x52
 5843 0a9c 02       		.uleb128 0x2
 5844 0a9d 75       		.byte	0x75
 5845 0a9e 00       		.sleb128 0
ARM GAS  C:\Users\Phuong\AppData\Local\Temp\ccawWFGQ.s 			page 124


 5846 0a9f 00       		.byte	0
 5847 0aa0 14       		.uleb128 0x14
 5848 0aa1 3E000000 		.4byte	.LVL329
 5849 0aa5 F8120000 		.4byte	0x12f8
 5850 0aa9 BF0A0000 		.4byte	0xabf
 5851 0aad 0E       		.uleb128 0xe
 5852 0aae 01       		.uleb128 0x1
 5853 0aaf 50       		.byte	0x50
 5854 0ab0 02       		.uleb128 0x2
 5855 0ab1 76       		.byte	0x76
 5856 0ab2 00       		.sleb128 0
 5857 0ab3 0E       		.uleb128 0xe
 5858 0ab4 01       		.uleb128 0x1
 5859 0ab5 51       		.byte	0x51
 5860 0ab6 02       		.uleb128 0x2
 5861 0ab7 75       		.byte	0x75
 5862 0ab8 00       		.sleb128 0
 5863 0ab9 0E       		.uleb128 0xe
 5864 0aba 01       		.uleb128 0x1
 5865 0abb 52       		.byte	0x52
 5866 0abc 01       		.uleb128 0x1
 5867 0abd 38       		.byte	0x38
 5868 0abe 00       		.byte	0
 5869 0abf 14       		.uleb128 0x14
 5870 0ac0 56000000 		.4byte	.LVL333
 5871 0ac4 F8120000 		.4byte	0x12f8
 5872 0ac8 DE0A0000 		.4byte	0xade
 5873 0acc 0E       		.uleb128 0xe
 5874 0acd 01       		.uleb128 0x1
 5875 0ace 50       		.byte	0x50
 5876 0acf 02       		.uleb128 0x2
 5877 0ad0 91       		.byte	0x91
 5878 0ad1 60       		.sleb128 -32
 5879 0ad2 0E       		.uleb128 0xe
 5880 0ad3 01       		.uleb128 0x1
 5881 0ad4 51       		.byte	0x51
 5882 0ad5 02       		.uleb128 0x2
 5883 0ad6 77       		.byte	0x77
 5884 0ad7 00       		.sleb128 0
 5885 0ad8 0E       		.uleb128 0xe
 5886 0ad9 01       		.uleb128 0x1
 5887 0ada 52       		.byte	0x52
 5888 0adb 01       		.uleb128 0x1
 5889 0adc 38       		.byte	0x38
 5890 0add 00       		.byte	0
 5891 0ade 14       		.uleb128 0x14
 5892 0adf 60000000 		.4byte	.LVL334
 5893 0ae3 57090000 		.4byte	0x957
 5894 0ae7 FF0A0000 		.4byte	0xaff
 5895 0aeb 0E       		.uleb128 0xe
 5896 0aec 01       		.uleb128 0x1
 5897 0aed 50       		.byte	0x50
 5898 0aee 03       		.uleb128 0x3
 5899 0aef 91       		.byte	0x91
 5900 0af0 5C       		.sleb128 -36
 5901 0af1 06       		.byte	0x6
 5902 0af2 0E       		.uleb128 0xe
ARM GAS  C:\Users\Phuong\AppData\Local\Temp\ccawWFGQ.s 			page 125


 5903 0af3 01       		.uleb128 0x1
 5904 0af4 51       		.byte	0x51
 5905 0af5 02       		.uleb128 0x2
 5906 0af6 77       		.byte	0x77
 5907 0af7 00       		.sleb128 0
 5908 0af8 0E       		.uleb128 0xe
 5909 0af9 01       		.uleb128 0x1
 5910 0afa 52       		.byte	0x52
 5911 0afb 02       		.uleb128 0x2
 5912 0afc 75       		.byte	0x75
 5913 0afd 00       		.sleb128 0
 5914 0afe 00       		.byte	0
 5915 0aff 0D       		.uleb128 0xd
 5916 0b00 7E000000 		.4byte	.LVL337
 5917 0b04 F8120000 		.4byte	0x12f8
 5918 0b08 0E       		.uleb128 0xe
 5919 0b09 01       		.uleb128 0x1
 5920 0b0a 50       		.byte	0x50
 5921 0b0b 02       		.uleb128 0x2
 5922 0b0c 76       		.byte	0x76
 5923 0b0d 00       		.sleb128 0
 5924 0b0e 0E       		.uleb128 0xe
 5925 0b0f 01       		.uleb128 0x1
 5926 0b10 51       		.byte	0x51
 5927 0b11 02       		.uleb128 0x2
 5928 0b12 91       		.byte	0x91
 5929 0b13 60       		.sleb128 -32
 5930 0b14 0E       		.uleb128 0xe
 5931 0b15 01       		.uleb128 0x1
 5932 0b16 52       		.byte	0x52
 5933 0b17 01       		.uleb128 0x1
 5934 0b18 38       		.byte	0x38
 5935 0b19 00       		.byte	0
 5936 0b1a 00       		.byte	0
 5937 0b1b 11       		.uleb128 0x11
 5938 0b1c B4010000 		.4byte	.LASF42
 5939 0b20 01       		.byte	0x1
 5940 0b21 6203     		.2byte	0x362
 5941 0b23 68000000 		.4byte	0x68
 5942 0b27 00000000 		.4byte	.LFB21
 5943 0b2b 2C030000 		.4byte	.LFE21-.LFB21
 5944 0b2f 01       		.uleb128 0x1
 5945 0b30 9C       		.byte	0x9c
 5946 0b31 AD100000 		.4byte	0x10ad
 5947 0b35 17       		.uleb128 0x17
 5948 0b36 7A010000 		.4byte	.LASF43
 5949 0b3a 01       		.byte	0x1
 5950 0b3b 6203     		.2byte	0x362
 5951 0b3d 68000000 		.4byte	0x68
 5952 0b41 4E280000 		.4byte	.LLST68
 5953 0b45 10       		.uleb128 0x10
 5954 0b46 6900     		.ascii	"i\000"
 5955 0b48 01       		.byte	0x1
 5956 0b49 6403     		.2byte	0x364
 5957 0b4b 68000000 		.4byte	0x68
 5958 0b4f 7A280000 		.4byte	.LLST69
 5959 0b53 10       		.uleb128 0x10
ARM GAS  C:\Users\Phuong\AppData\Local\Temp\ccawWFGQ.s 			page 126


 5960 0b54 6A00     		.ascii	"j\000"
 5961 0b56 01       		.byte	0x1
 5962 0b57 6403     		.2byte	0x364
 5963 0b59 68000000 		.4byte	0x68
 5964 0b5d 12290000 		.4byte	.LLST70
 5965 0b61 10       		.uleb128 0x10
 5966 0b62 7500     		.ascii	"u\000"
 5967 0b64 01       		.byte	0x1
 5968 0b65 6403     		.2byte	0x364
 5969 0b67 68000000 		.4byte	0x68
 5970 0b6b 67290000 		.4byte	.LLST71
 5971 0b6f 10       		.uleb128 0x10
 5972 0b70 7600     		.ascii	"v\000"
 5973 0b72 01       		.byte	0x1
 5974 0b73 6403     		.2byte	0x364
 5975 0b75 68000000 		.4byte	0x68
 5976 0b79 D7290000 		.4byte	.LLST72
 5977 0b7d 10       		.uleb128 0x10
 5978 0b7e 72657400 		.ascii	"ret\000"
 5979 0b82 01       		.byte	0x1
 5980 0b83 6403     		.2byte	0x364
 5981 0b85 68000000 		.4byte	0x68
 5982 0b89 842A0000 		.4byte	.LLST73
 5983 0b8d 16       		.uleb128 0x16
 5984 0b8e 63747800 		.ascii	"ctx\000"
 5985 0b92 01       		.byte	0x1
 5986 0b93 6503     		.2byte	0x365
 5987 0b95 C2000000 		.4byte	0xc2
 5988 0b99 03       		.uleb128 0x3
 5989 0b9a 91       		.byte	0x91
 5990 0b9b E87E     		.sleb128 -152
 5991 0b9d 18       		.uleb128 0x18
 5992 0b9e 20010000 		.4byte	.LASF44
 5993 0ba2 01       		.byte	0x1
 5994 0ba3 6603     		.2byte	0x366
 5995 0ba5 F6000000 		.4byte	0xf6
 5996 0ba9 03       		.uleb128 0x3
 5997 0baa 91       		.byte	0x91
 5998 0bab E87B     		.sleb128 -536
 5999 0bad 16       		.uleb128 0x16
 6000 0bae 62756600 		.ascii	"buf\000"
 6001 0bb2 01       		.byte	0x1
 6002 0bb3 6703     		.2byte	0x367
 6003 0bb5 47090000 		.4byte	0x947
 6004 0bb9 03       		.uleb128 0x3
 6005 0bba 91       		.byte	0x91
 6006 0bbb E07B     		.sleb128 -544
 6007 0bbd 16       		.uleb128 0x16
 6008 0bbe 70727600 		.ascii	"prv\000"
 6009 0bc2 01       		.byte	0x1
 6010 0bc3 6903     		.2byte	0x369
 6011 0bc5 47090000 		.4byte	0x947
 6012 0bc9 03       		.uleb128 0x3
 6013 0bca 91       		.byte	0x91
 6014 0bcb D87B     		.sleb128 -552
 6015 0bcd 16       		.uleb128 0x16
 6016 0bce 697600   		.ascii	"iv\000"
ARM GAS  C:\Users\Phuong\AppData\Local\Temp\ccawWFGQ.s 			page 127


 6017 0bd1 01       		.byte	0x1
 6018 0bd2 6A03     		.2byte	0x36a
 6019 0bd4 47090000 		.4byte	0x947
 6020 0bd8 03       		.uleb128 0x3
 6021 0bd9 91       		.byte	0x91
 6022 0bda D07B     		.sleb128 -560
 6023 0bdc 19       		.uleb128 0x19
 6024 0bdd EC010000 		.4byte	.LASF66
 6025 0be1 01       		.byte	0x1
 6026 0be2 1804     		.2byte	0x418
 6027 0be4 DC020000 		.4byte	.L107
 6028 0be8 15       		.uleb128 0x15
 6029 0be9 14020000 		.4byte	.LBB4
 6030 0bed 48000000 		.4byte	.LBE4-.LBB4
 6031 0bf1 D30C0000 		.4byte	0xcd3
 6032 0bf5 16       		.uleb128 0x16
 6033 0bf6 746D7000 		.ascii	"tmp\000"
 6034 0bfa 01       		.byte	0x1
 6035 0bfb F503     		.2byte	0x3f5
 6036 0bfd 47090000 		.4byte	0x947
 6037 0c01 03       		.uleb128 0x3
 6038 0c02 91       		.byte	0x91
 6039 0c03 C87B     		.sleb128 -568
 6040 0c05 14       		.uleb128 0x14
 6041 0c06 2A020000 		.4byte	.LVL403
 6042 0c0a 15080000 		.4byte	0x815
 6043 0c0e 3C0C0000 		.4byte	0xc3c
 6044 0c12 0E       		.uleb128 0xe
 6045 0c13 01       		.uleb128 0x1
 6046 0c14 50       		.byte	0x50
 6047 0c15 03       		.uleb128 0x3
 6048 0c16 91       		.byte	0x91
 6049 0c17 E87E     		.sleb128 -152
 6050 0c19 0E       		.uleb128 0xe
 6051 0c1a 01       		.uleb128 0x1
 6052 0c1b 51       		.byte	0x51
 6053 0c1c 02       		.uleb128 0x2
 6054 0c1d 75       		.byte	0x75
 6055 0c1e 00       		.sleb128 0
 6056 0c1f 0E       		.uleb128 0xe
 6057 0c20 01       		.uleb128 0x1
 6058 0c21 52       		.byte	0x52
 6059 0c22 01       		.uleb128 0x1
 6060 0c23 38       		.byte	0x38
 6061 0c24 0E       		.uleb128 0xe
 6062 0c25 01       		.uleb128 0x1
 6063 0c26 53       		.byte	0x53
 6064 0c27 03       		.uleb128 0x3
 6065 0c28 91       		.byte	0x91
 6066 0c29 D07B     		.sleb128 -560
 6067 0c2b 0E       		.uleb128 0xe
 6068 0c2c 02       		.uleb128 0x2
 6069 0c2d 7D       		.byte	0x7d
 6070 0c2e 00       		.sleb128 0
 6071 0c2f 03       		.uleb128 0x3
 6072 0c30 91       		.byte	0x91
 6073 0c31 E07B     		.sleb128 -544
ARM GAS  C:\Users\Phuong\AppData\Local\Temp\ccawWFGQ.s 			page 128


 6074 0c33 0E       		.uleb128 0xe
 6075 0c34 02       		.uleb128 0x2
 6076 0c35 7D       		.byte	0x7d
 6077 0c36 04       		.sleb128 4
 6078 0c37 03       		.uleb128 0x3
 6079 0c38 91       		.byte	0x91
 6080 0c39 E07B     		.sleb128 -544
 6081 0c3b 00       		.byte	0
 6082 0c3c 14       		.uleb128 0x14
 6083 0c3d 3E020000 		.4byte	.LVL404
 6084 0c41 E9090000 		.4byte	0x9e9
 6085 0c45 730C0000 		.4byte	0xc73
 6086 0c49 0E       		.uleb128 0xe
 6087 0c4a 01       		.uleb128 0x1
 6088 0c4b 50       		.byte	0x50
 6089 0c4c 03       		.uleb128 0x3
 6090 0c4d 91       		.byte	0x91
 6091 0c4e E87B     		.sleb128 -536
 6092 0c50 0E       		.uleb128 0xe
 6093 0c51 01       		.uleb128 0x1
 6094 0c52 51       		.byte	0x51
 6095 0c53 02       		.uleb128 0x2
 6096 0c54 75       		.byte	0x75
 6097 0c55 00       		.sleb128 0
 6098 0c56 0E       		.uleb128 0xe
 6099 0c57 01       		.uleb128 0x1
 6100 0c58 52       		.byte	0x52
 6101 0c59 01       		.uleb128 0x1
 6102 0c5a 38       		.byte	0x38
 6103 0c5b 0E       		.uleb128 0xe
 6104 0c5c 01       		.uleb128 0x1
 6105 0c5d 53       		.byte	0x53
 6106 0c5e 03       		.uleb128 0x3
 6107 0c5f 91       		.byte	0x91
 6108 0c60 D07B     		.sleb128 -560
 6109 0c62 0E       		.uleb128 0xe
 6110 0c63 02       		.uleb128 0x2
 6111 0c64 7D       		.byte	0x7d
 6112 0c65 00       		.sleb128 0
 6113 0c66 03       		.uleb128 0x3
 6114 0c67 91       		.byte	0x91
 6115 0c68 E07B     		.sleb128 -544
 6116 0c6a 0E       		.uleb128 0xe
 6117 0c6b 02       		.uleb128 0x2
 6118 0c6c 7D       		.byte	0x7d
 6119 0c6d 04       		.sleb128 4
 6120 0c6e 03       		.uleb128 0x3
 6121 0c6f 91       		.byte	0x91
 6122 0c70 E07B     		.sleb128 -544
 6123 0c72 00       		.byte	0
 6124 0c73 14       		.uleb128 0x14
 6125 0c74 48020000 		.4byte	.LVL405
 6126 0c78 F8120000 		.4byte	0x12f8
 6127 0c7c 940C0000 		.4byte	0xc94
 6128 0c80 0E       		.uleb128 0xe
 6129 0c81 01       		.uleb128 0x1
 6130 0c82 50       		.byte	0x50
ARM GAS  C:\Users\Phuong\AppData\Local\Temp\ccawWFGQ.s 			page 129


 6131 0c83 03       		.uleb128 0x3
 6132 0c84 91       		.byte	0x91
 6133 0c85 C87B     		.sleb128 -568
 6134 0c87 0E       		.uleb128 0xe
 6135 0c88 01       		.uleb128 0x1
 6136 0c89 51       		.byte	0x51
 6137 0c8a 03       		.uleb128 0x3
 6138 0c8b 91       		.byte	0x91
 6139 0c8c D87B     		.sleb128 -552
 6140 0c8e 0E       		.uleb128 0xe
 6141 0c8f 01       		.uleb128 0x1
 6142 0c90 52       		.byte	0x52
 6143 0c91 01       		.uleb128 0x1
 6144 0c92 38       		.byte	0x38
 6145 0c93 00       		.byte	0
 6146 0c94 14       		.uleb128 0x14
 6147 0c95 52020000 		.4byte	.LVL406
 6148 0c99 F8120000 		.4byte	0x12f8
 6149 0c9d B50C0000 		.4byte	0xcb5
 6150 0ca1 0E       		.uleb128 0xe
 6151 0ca2 01       		.uleb128 0x1
 6152 0ca3 50       		.byte	0x50
 6153 0ca4 03       		.uleb128 0x3
 6154 0ca5 91       		.byte	0x91
 6155 0ca6 D87B     		.sleb128 -552
 6156 0ca8 0E       		.uleb128 0xe
 6157 0ca9 01       		.uleb128 0x1
 6158 0caa 51       		.byte	0x51
 6159 0cab 03       		.uleb128 0x3
 6160 0cac 91       		.byte	0x91
 6161 0cad E07B     		.sleb128 -544
 6162 0caf 0E       		.uleb128 0xe
 6163 0cb0 01       		.uleb128 0x1
 6164 0cb1 52       		.byte	0x52
 6165 0cb2 01       		.uleb128 0x1
 6166 0cb3 38       		.byte	0x38
 6167 0cb4 00       		.byte	0
 6168 0cb5 0D       		.uleb128 0xd
 6169 0cb6 5C020000 		.4byte	.LVL407
 6170 0cba F8120000 		.4byte	0x12f8
 6171 0cbe 0E       		.uleb128 0xe
 6172 0cbf 01       		.uleb128 0x1
 6173 0cc0 50       		.byte	0x50
 6174 0cc1 03       		.uleb128 0x3
 6175 0cc2 91       		.byte	0x91
 6176 0cc3 E07B     		.sleb128 -544
 6177 0cc5 0E       		.uleb128 0xe
 6178 0cc6 01       		.uleb128 0x1
 6179 0cc7 51       		.byte	0x51
 6180 0cc8 03       		.uleb128 0x3
 6181 0cc9 91       		.byte	0x91
 6182 0cca C87B     		.sleb128 -568
 6183 0ccc 0E       		.uleb128 0xe
 6184 0ccd 01       		.uleb128 0x1
 6185 0cce 52       		.byte	0x52
 6186 0ccf 01       		.uleb128 0x1
 6187 0cd0 38       		.byte	0x38
ARM GAS  C:\Users\Phuong\AppData\Local\Temp\ccawWFGQ.s 			page 130


 6188 0cd1 00       		.byte	0
 6189 0cd2 00       		.byte	0
 6190 0cd3 14       		.uleb128 0x14
 6191 0cd4 12000000 		.4byte	.LVL349
 6192 0cd8 0E010000 		.4byte	0x10e
 6193 0cdc E80C0000 		.4byte	0xce8
 6194 0ce0 0E       		.uleb128 0xe
 6195 0ce1 01       		.uleb128 0x1
 6196 0ce2 50       		.byte	0x50
 6197 0ce3 03       		.uleb128 0x3
 6198 0ce4 91       		.byte	0x91
 6199 0ce5 E87E     		.sleb128 -152
 6200 0ce7 00       		.byte	0
 6201 0ce8 14       		.uleb128 0x14
 6202 0ce9 18000000 		.4byte	.LVL350
 6203 0ced 95010000 		.4byte	0x195
 6204 0cf1 FD0C0000 		.4byte	0xcfd
 6205 0cf5 0E       		.uleb128 0xe
 6206 0cf6 01       		.uleb128 0x1
 6207 0cf7 50       		.byte	0x50
 6208 0cf8 03       		.uleb128 0x3
 6209 0cf9 91       		.byte	0x91
 6210 0cfa E87B     		.sleb128 -536
 6211 0cfc 00       		.byte	0
 6212 0cfd 14       		.uleb128 0x14
 6213 0cfe 4C000000 		.4byte	.LVL359
 6214 0d02 01130000 		.4byte	0x1301
 6215 0d06 140D0000 		.4byte	0xd14
 6216 0d0a 0E       		.uleb128 0xe
 6217 0d0b 01       		.uleb128 0x1
 6218 0d0c 50       		.byte	0x50
 6219 0d0d 05       		.uleb128 0x5
 6220 0d0e 03       		.byte	0x3
 6221 0d0f 08000000 		.4byte	.LC24
 6222 0d13 00       		.byte	0
 6223 0d14 14       		.uleb128 0x14
 6224 0d15 6C000000 		.4byte	.LVL360
 6225 0d19 DF040000 		.4byte	0x4df
 6226 0d1d 320D0000 		.4byte	0xd32
 6227 0d21 0E       		.uleb128 0xe
 6228 0d22 01       		.uleb128 0x1
 6229 0d23 50       		.byte	0x50
 6230 0d24 03       		.uleb128 0x3
 6231 0d25 91       		.byte	0x91
 6232 0d26 E87E     		.sleb128 -152
 6233 0d28 0E       		.uleb128 0xe
 6234 0d29 01       		.uleb128 0x1
 6235 0d2a 51       		.byte	0x51
 6236 0d2b 05       		.uleb128 0x5
 6237 0d2c 03       		.byte	0x3
 6238 0d2d B8090000 		.4byte	.LANCHOR11+8
 6239 0d31 00       		.byte	0
 6240 0d32 14       		.uleb128 0x14
 6241 0d33 78000000 		.4byte	.LVL361
 6242 0d37 8C040000 		.4byte	0x48c
 6243 0d3b 500D0000 		.4byte	0xd50
 6244 0d3f 0E       		.uleb128 0xe
ARM GAS  C:\Users\Phuong\AppData\Local\Temp\ccawWFGQ.s 			page 131


 6245 0d40 01       		.uleb128 0x1
 6246 0d41 50       		.byte	0x50
 6247 0d42 03       		.uleb128 0x3
 6248 0d43 91       		.byte	0x91
 6249 0d44 E87E     		.sleb128 -152
 6250 0d46 0E       		.uleb128 0xe
 6251 0d47 01       		.uleb128 0x1
 6252 0d48 51       		.byte	0x51
 6253 0d49 05       		.uleb128 0x5
 6254 0d4a 03       		.byte	0x3
 6255 0d4b B8090000 		.4byte	.LANCHOR11+8
 6256 0d4f 00       		.byte	0
 6257 0d50 14       		.uleb128 0x14
 6258 0d51 84000000 		.4byte	.LVL362
 6259 0d55 FA050000 		.4byte	0x5fa
 6260 0d59 6E0D0000 		.4byte	0xd6e
 6261 0d5d 0E       		.uleb128 0xe
 6262 0d5e 01       		.uleb128 0x1
 6263 0d5f 50       		.byte	0x50
 6264 0d60 03       		.uleb128 0x3
 6265 0d61 91       		.byte	0x91
 6266 0d62 E87B     		.sleb128 -536
 6267 0d64 0E       		.uleb128 0xe
 6268 0d65 01       		.uleb128 0x1
 6269 0d66 51       		.byte	0x51
 6270 0d67 05       		.uleb128 0x5
 6271 0d68 03       		.byte	0x3
 6272 0d69 B8090000 		.4byte	.LANCHOR11+8
 6273 0d6d 00       		.byte	0
 6274 0d6e 14       		.uleb128 0x14
 6275 0d6f 92000000 		.4byte	.LVL363
 6276 0d73 77050000 		.4byte	0x577
 6277 0d77 8C0D0000 		.4byte	0xd8c
 6278 0d7b 0E       		.uleb128 0xe
 6279 0d7c 01       		.uleb128 0x1
 6280 0d7d 50       		.byte	0x50
 6281 0d7e 03       		.uleb128 0x3
 6282 0d7f 91       		.byte	0x91
 6283 0d80 E87B     		.sleb128 -536
 6284 0d82 0E       		.uleb128 0xe
 6285 0d83 01       		.uleb128 0x1
 6286 0d84 51       		.byte	0x51
 6287 0d85 05       		.uleb128 0x5
 6288 0d86 03       		.byte	0x3
 6289 0d87 B8090000 		.4byte	.LANCHOR11+8
 6290 0d8b 00       		.byte	0
 6291 0d8c 14       		.uleb128 0x14
 6292 0d8d 9E000000 		.4byte	.LVL364
 6293 0d91 00070000 		.4byte	0x700
 6294 0d95 AA0D0000 		.4byte	0xdaa
 6295 0d99 0E       		.uleb128 0xe
 6296 0d9a 01       		.uleb128 0x1
 6297 0d9b 50       		.byte	0x50
 6298 0d9c 03       		.uleb128 0x3
 6299 0d9d 91       		.byte	0x91
 6300 0d9e E87B     		.sleb128 -536
 6301 0da0 0E       		.uleb128 0xe
ARM GAS  C:\Users\Phuong\AppData\Local\Temp\ccawWFGQ.s 			page 132


 6302 0da1 01       		.uleb128 0x1
 6303 0da2 51       		.byte	0x51
 6304 0da3 05       		.uleb128 0x5
 6305 0da4 03       		.byte	0x3
 6306 0da5 B8090000 		.4byte	.LANCHOR11+8
 6307 0da9 00       		.byte	0
 6308 0daa 14       		.uleb128 0x14
 6309 0dab AA000000 		.4byte	.LVL365
 6310 0daf 7D060000 		.4byte	0x67d
 6311 0db3 C80D0000 		.4byte	0xdc8
 6312 0db7 0E       		.uleb128 0xe
 6313 0db8 01       		.uleb128 0x1
 6314 0db9 50       		.byte	0x50
 6315 0dba 03       		.uleb128 0x3
 6316 0dbb 91       		.byte	0x91
 6317 0dbc E87B     		.sleb128 -536
 6318 0dbe 0E       		.uleb128 0xe
 6319 0dbf 01       		.uleb128 0x1
 6320 0dc0 51       		.byte	0x51
 6321 0dc1 05       		.uleb128 0x5
 6322 0dc2 03       		.byte	0x3
 6323 0dc3 B8090000 		.4byte	.LANCHOR11+8
 6324 0dc7 00       		.byte	0
 6325 0dc8 14       		.uleb128 0x14
 6326 0dc9 BA000000 		.4byte	.LVL367
 6327 0dcd 83070000 		.4byte	0x783
 6328 0dd1 EB0D0000 		.4byte	0xdeb
 6329 0dd5 0E       		.uleb128 0xe
 6330 0dd6 01       		.uleb128 0x1
 6331 0dd7 50       		.byte	0x50
 6332 0dd8 03       		.uleb128 0x3
 6333 0dd9 91       		.byte	0x91
 6334 0dda E87E     		.sleb128 -152
 6335 0ddc 0E       		.uleb128 0xe
 6336 0ddd 01       		.uleb128 0x1
 6337 0dde 51       		.byte	0x51
 6338 0ddf 03       		.uleb128 0x3
 6339 0de0 91       		.byte	0x91
 6340 0de1 E07B     		.sleb128 -544
 6341 0de3 0E       		.uleb128 0xe
 6342 0de4 01       		.uleb128 0x1
 6343 0de5 52       		.byte	0x52
 6344 0de6 03       		.uleb128 0x3
 6345 0de7 91       		.byte	0x91
 6346 0de8 E07B     		.sleb128 -544
 6347 0dea 00       		.byte	0
 6348 0deb 14       		.uleb128 0x14
 6349 0dec C6000000 		.4byte	.LVL368
 6350 0df0 57090000 		.4byte	0x957
 6351 0df4 0E0E0000 		.4byte	0xe0e
 6352 0df8 0E       		.uleb128 0xe
 6353 0df9 01       		.uleb128 0x1
 6354 0dfa 50       		.byte	0x50
 6355 0dfb 03       		.uleb128 0x3
 6356 0dfc 91       		.byte	0x91
 6357 0dfd E87B     		.sleb128 -536
 6358 0dff 0E       		.uleb128 0xe
ARM GAS  C:\Users\Phuong\AppData\Local\Temp\ccawWFGQ.s 			page 133


 6359 0e00 01       		.uleb128 0x1
 6360 0e01 51       		.byte	0x51
 6361 0e02 03       		.uleb128 0x3
 6362 0e03 91       		.byte	0x91
 6363 0e04 E07B     		.sleb128 -544
 6364 0e06 0E       		.uleb128 0xe
 6365 0e07 01       		.uleb128 0x1
 6366 0e08 52       		.byte	0x52
 6367 0e09 03       		.uleb128 0x3
 6368 0e0a 91       		.byte	0x91
 6369 0e0b E07B     		.sleb128 -544
 6370 0e0d 00       		.byte	0
 6371 0e0e 14       		.uleb128 0x14
 6372 0e0f E4000000 		.4byte	.LVL372
 6373 0e13 ED120000 		.4byte	0x12ed
 6374 0e17 360E0000 		.4byte	0xe36
 6375 0e1b 0E       		.uleb128 0xe
 6376 0e1c 01       		.uleb128 0x1
 6377 0e1d 50       		.byte	0x50
 6378 0e1e 03       		.uleb128 0x3
 6379 0e1f 91       		.byte	0x91
 6380 0e20 E07B     		.sleb128 -544
 6381 0e22 0E       		.uleb128 0xe
 6382 0e23 01       		.uleb128 0x1
 6383 0e24 51       		.byte	0x51
 6384 0e25 0A       		.uleb128 0xa
 6385 0e26 75       		.byte	0x75
 6386 0e27 00       		.sleb128 0
 6387 0e28 33       		.byte	0x33
 6388 0e29 24       		.byte	0x24
 6389 0e2a 03       		.byte	0x3
 6390 0e2b D0090000 		.4byte	.LANCHOR11+32
 6391 0e2f 22       		.byte	0x22
 6392 0e30 0E       		.uleb128 0xe
 6393 0e31 01       		.uleb128 0x1
 6394 0e32 52       		.byte	0x52
 6395 0e33 01       		.uleb128 0x1
 6396 0e34 38       		.byte	0x38
 6397 0e35 00       		.byte	0
 6398 0e36 14       		.uleb128 0x14
 6399 0e37 FE000000 		.4byte	.LVL375
 6400 0e3b ED120000 		.4byte	0x12ed
 6401 0e3f 5C0E0000 		.4byte	0xe5c
 6402 0e43 0E       		.uleb128 0xe
 6403 0e44 01       		.uleb128 0x1
 6404 0e45 50       		.byte	0x50
 6405 0e46 03       		.uleb128 0x3
 6406 0e47 91       		.byte	0x91
 6407 0e48 E07B     		.sleb128 -544
 6408 0e4a 0E       		.uleb128 0xe
 6409 0e4b 01       		.uleb128 0x1
 6410 0e4c 51       		.byte	0x51
 6411 0e4d 08       		.uleb128 0x8
 6412 0e4e 75       		.byte	0x75
 6413 0e4f 00       		.sleb128 0
 6414 0e50 03       		.byte	0x3
 6415 0e51 E8090000 		.4byte	.LANCHOR11+56
ARM GAS  C:\Users\Phuong\AppData\Local\Temp\ccawWFGQ.s 			page 134


 6416 0e55 22       		.byte	0x22
 6417 0e56 0E       		.uleb128 0xe
 6418 0e57 01       		.uleb128 0x1
 6419 0e58 52       		.byte	0x52
 6420 0e59 01       		.uleb128 0x1
 6421 0e5a 38       		.byte	0x38
 6422 0e5b 00       		.byte	0
 6423 0e5c 14       		.uleb128 0x14
 6424 0e5d 0E010000 		.4byte	.LVL376
 6425 0e61 0C130000 		.4byte	0x130c
 6426 0e65 730E0000 		.4byte	0xe73
 6427 0e69 0E       		.uleb128 0xe
 6428 0e6a 01       		.uleb128 0x1
 6429 0e6b 50       		.byte	0x50
 6430 0e6c 05       		.uleb128 0x5
 6431 0e6d 03       		.byte	0x3
 6432 0e6e 20000000 		.4byte	.LC28
 6433 0e72 00       		.byte	0
 6434 0e73 14       		.uleb128 0x14
 6435 0e74 1C010000 		.4byte	.LVL379
 6436 0e78 0C130000 		.4byte	0x130c
 6437 0e7c 8A0E0000 		.4byte	0xe8a
 6438 0e80 0E       		.uleb128 0xe
 6439 0e81 01       		.uleb128 0x1
 6440 0e82 50       		.byte	0x50
 6441 0e83 05       		.uleb128 0x5
 6442 0e84 03       		.byte	0x3
 6443 0e85 28000000 		.4byte	.LC30
 6444 0e89 00       		.byte	0
 6445 0e8a 14       		.uleb128 0x14
 6446 0e8b 2E010000 		.4byte	.LVL381
 6447 0e8f 1B130000 		.4byte	0x131b
 6448 0e93 9D0E0000 		.4byte	0xe9d
 6449 0e97 0E       		.uleb128 0xe
 6450 0e98 01       		.uleb128 0x1
 6451 0e99 50       		.byte	0x50
 6452 0e9a 01       		.uleb128 0x1
 6453 0e9b 3A       		.byte	0x3a
 6454 0e9c 00       		.byte	0
 6455 0e9d 14       		.uleb128 0x14
 6456 0e9e 62010000 		.4byte	.LVL388
 6457 0ea2 01130000 		.4byte	0x1301
 6458 0ea6 B40E0000 		.4byte	0xeb4
 6459 0eaa 0E       		.uleb128 0xe
 6460 0eab 01       		.uleb128 0x1
 6461 0eac 50       		.byte	0x50
 6462 0ead 05       		.uleb128 0x5
 6463 0eae 03       		.byte	0x3
 6464 0eaf 30000000 		.4byte	.LC32
 6465 0eb3 00       		.byte	0
 6466 0eb4 14       		.uleb128 0x14
 6467 0eb5 98010000 		.4byte	.LVL391
 6468 0eb9 DF040000 		.4byte	0x4df
 6469 0ebd D20E0000 		.4byte	0xed2
 6470 0ec1 0E       		.uleb128 0xe
 6471 0ec2 01       		.uleb128 0x1
 6472 0ec3 50       		.byte	0x50
ARM GAS  C:\Users\Phuong\AppData\Local\Temp\ccawWFGQ.s 			page 135


 6473 0ec4 03       		.uleb128 0x3
 6474 0ec5 91       		.byte	0x91
 6475 0ec6 E87E     		.sleb128 -152
 6476 0ec8 0E       		.uleb128 0xe
 6477 0ec9 01       		.uleb128 0x1
 6478 0eca 51       		.byte	0x51
 6479 0ecb 05       		.uleb128 0x5
 6480 0ecc 03       		.byte	0x3
 6481 0ecd B8090000 		.4byte	.LANCHOR11+8
 6482 0ed1 00       		.byte	0
 6483 0ed2 14       		.uleb128 0x14
 6484 0ed3 A4010000 		.4byte	.LVL392
 6485 0ed7 8C040000 		.4byte	0x48c
 6486 0edb F00E0000 		.4byte	0xef0
 6487 0edf 0E       		.uleb128 0xe
 6488 0ee0 01       		.uleb128 0x1
 6489 0ee1 50       		.byte	0x50
 6490 0ee2 03       		.uleb128 0x3
 6491 0ee3 91       		.byte	0x91
 6492 0ee4 E87E     		.sleb128 -152
 6493 0ee6 0E       		.uleb128 0xe
 6494 0ee7 01       		.uleb128 0x1
 6495 0ee8 51       		.byte	0x51
 6496 0ee9 05       		.uleb128 0x5
 6497 0eea 03       		.byte	0x3
 6498 0eeb B8090000 		.4byte	.LANCHOR11+8
 6499 0eef 00       		.byte	0
 6500 0ef0 14       		.uleb128 0x14
 6501 0ef1 B0010000 		.4byte	.LVL393
 6502 0ef5 FA050000 		.4byte	0x5fa
 6503 0ef9 0E0F0000 		.4byte	0xf0e
 6504 0efd 0E       		.uleb128 0xe
 6505 0efe 01       		.uleb128 0x1
 6506 0eff 50       		.byte	0x50
 6507 0f00 03       		.uleb128 0x3
 6508 0f01 91       		.byte	0x91
 6509 0f02 E87B     		.sleb128 -536
 6510 0f04 0E       		.uleb128 0xe
 6511 0f05 01       		.uleb128 0x1
 6512 0f06 51       		.byte	0x51
 6513 0f07 05       		.uleb128 0x5
 6514 0f08 03       		.byte	0x3
 6515 0f09 B8090000 		.4byte	.LANCHOR11+8
 6516 0f0d 00       		.byte	0
 6517 0f0e 14       		.uleb128 0x14
 6518 0f0f BC010000 		.4byte	.LVL394
 6519 0f13 77050000 		.4byte	0x577
 6520 0f17 2C0F0000 		.4byte	0xf2c
 6521 0f1b 0E       		.uleb128 0xe
 6522 0f1c 01       		.uleb128 0x1
 6523 0f1d 50       		.byte	0x50
 6524 0f1e 03       		.uleb128 0x3
 6525 0f1f 91       		.byte	0x91
 6526 0f20 E87B     		.sleb128 -536
 6527 0f22 0E       		.uleb128 0xe
 6528 0f23 01       		.uleb128 0x1
 6529 0f24 51       		.byte	0x51
ARM GAS  C:\Users\Phuong\AppData\Local\Temp\ccawWFGQ.s 			page 136


 6530 0f25 05       		.uleb128 0x5
 6531 0f26 03       		.byte	0x3
 6532 0f27 B8090000 		.4byte	.LANCHOR11+8
 6533 0f2b 00       		.byte	0
 6534 0f2c 14       		.uleb128 0x14
 6535 0f2d C8010000 		.4byte	.LVL395
 6536 0f31 00070000 		.4byte	0x700
 6537 0f35 4A0F0000 		.4byte	0xf4a
 6538 0f39 0E       		.uleb128 0xe
 6539 0f3a 01       		.uleb128 0x1
 6540 0f3b 50       		.byte	0x50
 6541 0f3c 03       		.uleb128 0x3
 6542 0f3d 91       		.byte	0x91
 6543 0f3e E87B     		.sleb128 -536
 6544 0f40 0E       		.uleb128 0xe
 6545 0f41 01       		.uleb128 0x1
 6546 0f42 51       		.byte	0x51
 6547 0f43 05       		.uleb128 0x5
 6548 0f44 03       		.byte	0x3
 6549 0f45 B8090000 		.4byte	.LANCHOR11+8
 6550 0f49 00       		.byte	0
 6551 0f4a 14       		.uleb128 0x14
 6552 0f4b D4010000 		.4byte	.LVL396
 6553 0f4f 7D060000 		.4byte	0x67d
 6554 0f53 680F0000 		.4byte	0xf68
 6555 0f57 0E       		.uleb128 0xe
 6556 0f58 01       		.uleb128 0x1
 6557 0f59 50       		.byte	0x50
 6558 0f5a 03       		.uleb128 0x3
 6559 0f5b 91       		.byte	0x91
 6560 0f5c E87B     		.sleb128 -536
 6561 0f5e 0E       		.uleb128 0xe
 6562 0f5f 01       		.uleb128 0x1
 6563 0f60 51       		.byte	0x51
 6564 0f61 05       		.uleb128 0x5
 6565 0f62 03       		.byte	0x3
 6566 0f63 B8090000 		.4byte	.LANCHOR11+8
 6567 0f67 00       		.byte	0
 6568 0f68 14       		.uleb128 0x14
 6569 0f69 F2010000 		.4byte	.LVL398
 6570 0f6d 15080000 		.4byte	0x815
 6571 0f71 9F0F0000 		.4byte	0xf9f
 6572 0f75 0E       		.uleb128 0xe
 6573 0f76 01       		.uleb128 0x1
 6574 0f77 50       		.byte	0x50
 6575 0f78 03       		.uleb128 0x3
 6576 0f79 91       		.byte	0x91
 6577 0f7a E87E     		.sleb128 -152
 6578 0f7c 0E       		.uleb128 0xe
 6579 0f7d 01       		.uleb128 0x1
 6580 0f7e 51       		.byte	0x51
 6581 0f7f 02       		.uleb128 0x2
 6582 0f80 75       		.byte	0x75
 6583 0f81 00       		.sleb128 0
 6584 0f82 0E       		.uleb128 0xe
 6585 0f83 01       		.uleb128 0x1
 6586 0f84 52       		.byte	0x52
ARM GAS  C:\Users\Phuong\AppData\Local\Temp\ccawWFGQ.s 			page 137


 6587 0f85 01       		.uleb128 0x1
 6588 0f86 38       		.byte	0x38
 6589 0f87 0E       		.uleb128 0xe
 6590 0f88 01       		.uleb128 0x1
 6591 0f89 53       		.byte	0x53
 6592 0f8a 03       		.uleb128 0x3
 6593 0f8b 91       		.byte	0x91
 6594 0f8c D07B     		.sleb128 -560
 6595 0f8e 0E       		.uleb128 0xe
 6596 0f8f 02       		.uleb128 0x2
 6597 0f90 7D       		.byte	0x7d
 6598 0f91 00       		.sleb128 0
 6599 0f92 03       		.uleb128 0x3
 6600 0f93 91       		.byte	0x91
 6601 0f94 E07B     		.sleb128 -544
 6602 0f96 0E       		.uleb128 0xe
 6603 0f97 02       		.uleb128 0x2
 6604 0f98 7D       		.byte	0x7d
 6605 0f99 04       		.sleb128 4
 6606 0f9a 03       		.uleb128 0x3
 6607 0f9b 91       		.byte	0x91
 6608 0f9c E07B     		.sleb128 -544
 6609 0f9e 00       		.byte	0
 6610 0f9f 14       		.uleb128 0x14
 6611 0fa0 06020000 		.4byte	.LVL399
 6612 0fa4 E9090000 		.4byte	0x9e9
 6613 0fa8 D60F0000 		.4byte	0xfd6
 6614 0fac 0E       		.uleb128 0xe
 6615 0fad 01       		.uleb128 0x1
 6616 0fae 50       		.byte	0x50
 6617 0faf 03       		.uleb128 0x3
 6618 0fb0 91       		.byte	0x91
 6619 0fb1 E87B     		.sleb128 -536
 6620 0fb3 0E       		.uleb128 0xe
 6621 0fb4 01       		.uleb128 0x1
 6622 0fb5 51       		.byte	0x51
 6623 0fb6 02       		.uleb128 0x2
 6624 0fb7 75       		.byte	0x75
 6625 0fb8 00       		.sleb128 0
 6626 0fb9 0E       		.uleb128 0xe
 6627 0fba 01       		.uleb128 0x1
 6628 0fbb 52       		.byte	0x52
 6629 0fbc 01       		.uleb128 0x1
 6630 0fbd 38       		.byte	0x38
 6631 0fbe 0E       		.uleb128 0xe
 6632 0fbf 01       		.uleb128 0x1
 6633 0fc0 53       		.byte	0x53
 6634 0fc1 03       		.uleb128 0x3
 6635 0fc2 91       		.byte	0x91
 6636 0fc3 D07B     		.sleb128 -560
 6637 0fc5 0E       		.uleb128 0xe
 6638 0fc6 02       		.uleb128 0x2
 6639 0fc7 7D       		.byte	0x7d
 6640 0fc8 00       		.sleb128 0
 6641 0fc9 03       		.uleb128 0x3
 6642 0fca 91       		.byte	0x91
 6643 0fcb E07B     		.sleb128 -544
ARM GAS  C:\Users\Phuong\AppData\Local\Temp\ccawWFGQ.s 			page 138


 6644 0fcd 0E       		.uleb128 0xe
 6645 0fce 02       		.uleb128 0x2
 6646 0fcf 7D       		.byte	0x7d
 6647 0fd0 04       		.sleb128 4
 6648 0fd1 03       		.uleb128 0x3
 6649 0fd2 91       		.byte	0x91
 6650 0fd3 E07B     		.sleb128 -544
 6651 0fd5 00       		.byte	0
 6652 0fd6 14       		.uleb128 0x14
 6653 0fd7 6E020000 		.4byte	.LVL409
 6654 0fdb F8120000 		.4byte	0x12f8
 6655 0fdf F70F0000 		.4byte	0xff7
 6656 0fe3 0E       		.uleb128 0xe
 6657 0fe4 01       		.uleb128 0x1
 6658 0fe5 50       		.byte	0x50
 6659 0fe6 03       		.uleb128 0x3
 6660 0fe7 91       		.byte	0x91
 6661 0fe8 E07B     		.sleb128 -544
 6662 0fea 0E       		.uleb128 0xe
 6663 0feb 01       		.uleb128 0x1
 6664 0fec 51       		.byte	0x51
 6665 0fed 03       		.uleb128 0x3
 6666 0fee 91       		.byte	0x91
 6667 0fef D87B     		.sleb128 -552
 6668 0ff1 0E       		.uleb128 0xe
 6669 0ff2 01       		.uleb128 0x1
 6670 0ff3 52       		.byte	0x52
 6671 0ff4 01       		.uleb128 0x1
 6672 0ff5 38       		.byte	0x38
 6673 0ff6 00       		.byte	0
 6674 0ff7 14       		.uleb128 0x14
 6675 0ff8 82020000 		.4byte	.LVL410
 6676 0ffc ED120000 		.4byte	0x12ed
 6677 1000 1F100000 		.4byte	0x101f
 6678 1004 0E       		.uleb128 0xe
 6679 1005 01       		.uleb128 0x1
 6680 1006 50       		.byte	0x50
 6681 1007 03       		.uleb128 0x3
 6682 1008 91       		.byte	0x91
 6683 1009 E07B     		.sleb128 -544
 6684 100b 0E       		.uleb128 0xe
 6685 100c 01       		.uleb128 0x1
 6686 100d 51       		.byte	0x51
 6687 100e 0A       		.uleb128 0xa
 6688 100f 77       		.byte	0x77
 6689 1010 00       		.sleb128 0
 6690 1011 33       		.byte	0x33
 6691 1012 24       		.byte	0x24
 6692 1013 03       		.byte	0x3
 6693 1014 080A0000 		.4byte	.LANCHOR11+88
 6694 1018 22       		.byte	0x22
 6695 1019 0E       		.uleb128 0xe
 6696 101a 01       		.uleb128 0x1
 6697 101b 52       		.byte	0x52
 6698 101c 01       		.uleb128 0x1
 6699 101d 38       		.byte	0x38
 6700 101e 00       		.byte	0
ARM GAS  C:\Users\Phuong\AppData\Local\Temp\ccawWFGQ.s 			page 139


 6701 101f 14       		.uleb128 0x14
 6702 1020 9A020000 		.4byte	.LVL412
 6703 1024 ED120000 		.4byte	0x12ed
 6704 1028 45100000 		.4byte	0x1045
 6705 102c 0E       		.uleb128 0xe
 6706 102d 01       		.uleb128 0x1
 6707 102e 50       		.byte	0x50
 6708 102f 03       		.uleb128 0x3
 6709 1030 91       		.byte	0x91
 6710 1031 E07B     		.sleb128 -544
 6711 1033 0E       		.uleb128 0xe
 6712 1034 01       		.uleb128 0x1
 6713 1035 51       		.byte	0x51
 6714 1036 08       		.uleb128 0x8
 6715 1037 77       		.byte	0x77
 6716 1038 00       		.sleb128 0
 6717 1039 03       		.byte	0x3
 6718 103a 200A0000 		.4byte	.LANCHOR11+112
 6719 103e 22       		.byte	0x22
 6720 103f 0E       		.uleb128 0xe
 6721 1040 01       		.uleb128 0x1
 6722 1041 52       		.byte	0x52
 6723 1042 01       		.uleb128 0x1
 6724 1043 38       		.byte	0x38
 6725 1044 00       		.byte	0
 6726 1045 14       		.uleb128 0x14
 6727 1046 A8020000 		.4byte	.LVL413
 6728 104a 0C130000 		.4byte	0x130c
 6729 104e 5C100000 		.4byte	0x105c
 6730 1052 0E       		.uleb128 0xe
 6731 1053 01       		.uleb128 0x1
 6732 1054 50       		.byte	0x50
 6733 1055 05       		.uleb128 0x5
 6734 1056 03       		.byte	0x3
 6735 1057 20000000 		.4byte	.LC28
 6736 105b 00       		.byte	0
 6737 105c 14       		.uleb128 0x14
 6738 105d B6020000 		.4byte	.LVL416
 6739 1061 0C130000 		.4byte	0x130c
 6740 1065 73100000 		.4byte	0x1073
 6741 1069 0E       		.uleb128 0xe
 6742 106a 01       		.uleb128 0x1
 6743 106b 50       		.byte	0x50
 6744 106c 05       		.uleb128 0x5
 6745 106d 03       		.byte	0x3
 6746 106e 28000000 		.4byte	.LC30
 6747 1072 00       		.byte	0
 6748 1073 14       		.uleb128 0x14
 6749 1074 CE020000 		.4byte	.LVL418
 6750 1078 1B130000 		.4byte	0x131b
 6751 107c 86100000 		.4byte	0x1086
 6752 1080 0E       		.uleb128 0xe
 6753 1081 01       		.uleb128 0x1
 6754 1082 50       		.byte	0x50
 6755 1083 01       		.uleb128 0x1
 6756 1084 3A       		.byte	0x3a
 6757 1085 00       		.byte	0
ARM GAS  C:\Users\Phuong\AppData\Local\Temp\ccawWFGQ.s 			page 140


 6758 1086 14       		.uleb128 0x14
 6759 1087 E2020000 		.4byte	.LVL425
 6760 108b 57010000 		.4byte	0x157
 6761 108f 9B100000 		.4byte	0x109b
 6762 1093 0E       		.uleb128 0xe
 6763 1094 01       		.uleb128 0x1
 6764 1095 50       		.byte	0x50
 6765 1096 03       		.uleb128 0x3
 6766 1097 91       		.byte	0x91
 6767 1098 E87E     		.sleb128 -152
 6768 109a 00       		.byte	0
 6769 109b 0D       		.uleb128 0xd
 6770 109c E8020000 		.4byte	.LVL426
 6771 10a0 DF010000 		.4byte	0x1df
 6772 10a4 0E       		.uleb128 0xe
 6773 10a5 01       		.uleb128 0x1
 6774 10a6 50       		.byte	0x50
 6775 10a7 03       		.uleb128 0x3
 6776 10a8 91       		.byte	0x91
 6777 10a9 E87B     		.sleb128 -536
 6778 10ab 00       		.byte	0
 6779 10ac 00       		.byte	0
 6780 10ad 07       		.uleb128 0x7
 6781 10ae BD100000 		.4byte	0x10bd
 6782 10b2 BD100000 		.4byte	0x10bd
 6783 10b6 08       		.uleb128 0x8
 6784 10b7 BB000000 		.4byte	0xbb
 6785 10bb 3F       		.byte	0x3f
 6786 10bc 00       		.byte	0
 6787 10bd 12       		.uleb128 0x12
 6788 10be 88000000 		.4byte	0x88
 6789 10c2 1A       		.uleb128 0x1a
 6790 10c3 53423100 		.ascii	"SB1\000"
 6791 10c7 01       		.byte	0x1
 6792 10c8 4E       		.byte	0x4e
 6793 10c9 D3100000 		.4byte	0x10d3
 6794 10cd 05       		.uleb128 0x5
 6795 10ce 03       		.byte	0x3
 6796 10cf B0080000 		.4byte	SB1
 6797 10d3 12       		.uleb128 0x12
 6798 10d4 AD100000 		.4byte	0x10ad
 6799 10d8 1A       		.uleb128 0x1a
 6800 10d9 53423200 		.ascii	"SB2\000"
 6801 10dd 01       		.byte	0x1
 6802 10de 62       		.byte	0x62
 6803 10df E9100000 		.4byte	0x10e9
 6804 10e3 05       		.uleb128 0x5
 6805 10e4 03       		.byte	0x3
 6806 10e5 B0040000 		.4byte	SB2
 6807 10e9 12       		.uleb128 0x12
 6808 10ea AD100000 		.4byte	0x10ad
 6809 10ee 1A       		.uleb128 0x1a
 6810 10ef 53423300 		.ascii	"SB3\000"
 6811 10f3 01       		.byte	0x1
 6812 10f4 76       		.byte	0x76
 6813 10f5 FF100000 		.4byte	0x10ff
 6814 10f9 05       		.uleb128 0x5
ARM GAS  C:\Users\Phuong\AppData\Local\Temp\ccawWFGQ.s 			page 141


 6815 10fa 03       		.byte	0x3
 6816 10fb B0070000 		.4byte	SB3
 6817 10ff 12       		.uleb128 0x12
 6818 1100 AD100000 		.4byte	0x10ad
 6819 1104 1A       		.uleb128 0x1a
 6820 1105 53423400 		.ascii	"SB4\000"
 6821 1109 01       		.byte	0x1
 6822 110a 8A       		.byte	0x8a
 6823 110b 15110000 		.4byte	0x1115
 6824 110f 05       		.uleb128 0x5
 6825 1110 03       		.byte	0x3
 6826 1111 B0030000 		.4byte	SB4
 6827 1115 12       		.uleb128 0x12
 6828 1116 AD100000 		.4byte	0x10ad
 6829 111a 1A       		.uleb128 0x1a
 6830 111b 53423500 		.ascii	"SB5\000"
 6831 111f 01       		.byte	0x1
 6832 1120 9E       		.byte	0x9e
 6833 1121 2B110000 		.4byte	0x112b
 6834 1125 05       		.uleb128 0x5
 6835 1126 03       		.byte	0x3
 6836 1127 B0060000 		.4byte	SB5
 6837 112b 12       		.uleb128 0x12
 6838 112c AD100000 		.4byte	0x10ad
 6839 1130 1A       		.uleb128 0x1a
 6840 1131 53423600 		.ascii	"SB6\000"
 6841 1135 01       		.byte	0x1
 6842 1136 B2       		.byte	0xb2
 6843 1137 41110000 		.4byte	0x1141
 6844 113b 05       		.uleb128 0x5
 6845 113c 03       		.byte	0x3
 6846 113d B0020000 		.4byte	SB6
 6847 1141 12       		.uleb128 0x12
 6848 1142 AD100000 		.4byte	0x10ad
 6849 1146 1A       		.uleb128 0x1a
 6850 1147 53423700 		.ascii	"SB7\000"
 6851 114b 01       		.byte	0x1
 6852 114c C6       		.byte	0xc6
 6853 114d 57110000 		.4byte	0x1157
 6854 1151 05       		.uleb128 0x5
 6855 1152 03       		.byte	0x3
 6856 1153 B0050000 		.4byte	SB7
 6857 1157 12       		.uleb128 0x12
 6858 1158 AD100000 		.4byte	0x10ad
 6859 115c 1A       		.uleb128 0x1a
 6860 115d 53423800 		.ascii	"SB8\000"
 6861 1161 01       		.byte	0x1
 6862 1162 DA       		.byte	0xda
 6863 1163 6D110000 		.4byte	0x116d
 6864 1167 05       		.uleb128 0x5
 6865 1168 03       		.byte	0x3
 6866 1169 B0010000 		.4byte	SB8
 6867 116d 12       		.uleb128 0x12
 6868 116e AD100000 		.4byte	0x10ad
 6869 1172 07       		.uleb128 0x7
 6870 1173 BD100000 		.4byte	0x10bd
 6871 1177 82110000 		.4byte	0x1182
ARM GAS  C:\Users\Phuong\AppData\Local\Temp\ccawWFGQ.s 			page 142


 6872 117b 08       		.uleb128 0x8
 6873 117c BB000000 		.4byte	0xbb
 6874 1180 0F       		.byte	0xf
 6875 1181 00       		.byte	0
 6876 1182 1A       		.uleb128 0x1a
 6877 1183 4C487300 		.ascii	"LHs\000"
 6878 1187 01       		.byte	0x1
 6879 1188 F1       		.byte	0xf1
 6880 1189 93110000 		.4byte	0x1193
 6881 118d 05       		.uleb128 0x5
 6882 118e 03       		.byte	0x3
 6883 118f 30010000 		.4byte	LHs
 6884 1193 12       		.uleb128 0x12
 6885 1194 72110000 		.4byte	0x1172
 6886 1198 1A       		.uleb128 0x1a
 6887 1199 52487300 		.ascii	"RHs\000"
 6888 119d 01       		.byte	0x1
 6889 119e F9       		.byte	0xf9
 6890 119f A9110000 		.4byte	0x11a9
 6891 11a3 05       		.uleb128 0x5
 6892 11a4 03       		.byte	0x3
 6893 11a5 70010000 		.4byte	RHs
 6894 11a9 12       		.uleb128 0x12
 6895 11aa 72110000 		.4byte	0x1172
 6896 11ae 07       		.uleb128 0x7
 6897 11af 90020000 		.4byte	0x290
 6898 11b3 BE110000 		.4byte	0x11be
 6899 11b7 08       		.uleb128 0x8
 6900 11b8 BB000000 		.4byte	0xbb
 6901 11bc 7F       		.byte	0x7f
 6902 11bd 00       		.byte	0
 6903 11be 18       		.uleb128 0x18
 6904 11bf 0D050000 		.4byte	.LASF45
 6905 11c3 01       		.byte	0x1
 6906 11c4 4B01     		.2byte	0x14b
 6907 11c6 D0110000 		.4byte	0x11d0
 6908 11ca 05       		.uleb128 0x5
 6909 11cb 03       		.byte	0x3
 6910 11cc 30000000 		.4byte	odd_parity_table
 6911 11d0 12       		.uleb128 0x12
 6912 11d1 AE110000 		.4byte	0x11ae
 6913 11d5 07       		.uleb128 0x7
 6914 11d6 90020000 		.4byte	0x290
 6915 11da EB110000 		.4byte	0x11eb
 6916 11de 08       		.uleb128 0x8
 6917 11df BB000000 		.4byte	0xbb
 6918 11e3 0F       		.byte	0xf
 6919 11e4 08       		.uleb128 0x8
 6920 11e5 BB000000 		.4byte	0xbb
 6921 11e9 07       		.byte	0x7
 6922 11ea 00       		.byte	0
 6923 11eb 18       		.uleb128 0x18
 6924 11ec 5C000000 		.4byte	.LASF46
 6925 11f0 01       		.byte	0x1
 6926 11f1 8301     		.2byte	0x183
 6927 11f3 FD110000 		.4byte	0x11fd
 6928 11f7 05       		.uleb128 0x5
ARM GAS  C:\Users\Phuong\AppData\Local\Temp\ccawWFGQ.s 			page 143


 6929 11f8 03       		.byte	0x3
 6930 11f9 B0000000 		.4byte	weak_key_table
 6931 11fd 12       		.uleb128 0x12
 6932 11fe D5110000 		.4byte	0x11d5
 6933 1202 07       		.uleb128 0x7
 6934 1203 90020000 		.4byte	0x290
 6935 1207 12120000 		.4byte	0x1212
 6936 120b 08       		.uleb128 0x8
 6937 120c BB000000 		.4byte	0xbb
 6938 1210 17       		.byte	0x17
 6939 1211 00       		.byte	0
 6940 1212 18       		.uleb128 0x18
 6941 1213 3E010000 		.4byte	.LASF47
 6942 1217 01       		.byte	0x1
 6943 1218 3003     		.2byte	0x330
 6944 121a 24120000 		.4byte	0x1224
 6945 121e 05       		.uleb128 0x5
 6946 121f 03       		.byte	0x3
 6947 1220 B8090000 		.4byte	des3_test_keys
 6948 1224 12       		.uleb128 0x12
 6949 1225 02120000 		.4byte	0x1202
 6950 1229 07       		.uleb128 0x7
 6951 122a 90020000 		.4byte	0x290
 6952 122e 39120000 		.4byte	0x1239
 6953 1232 08       		.uleb128 0x8
 6954 1233 BB000000 		.4byte	0xbb
 6955 1237 07       		.byte	0x7
 6956 1238 00       		.byte	0
 6957 1239 18       		.uleb128 0x18
 6958 123a D3030000 		.4byte	.LASF48
 6959 123e 01       		.byte	0x1
 6960 123f 3703     		.2byte	0x337
 6961 1241 4B120000 		.4byte	0x124b
 6962 1245 05       		.uleb128 0x5
 6963 1246 03       		.byte	0x3
 6964 1247 B0090000 		.4byte	des3_test_buf
 6965 124b 12       		.uleb128 0x12
 6966 124c 29120000 		.4byte	0x1229
 6967 1250 07       		.uleb128 0x7
 6968 1251 90020000 		.4byte	0x290
 6969 1255 66120000 		.4byte	0x1266
 6970 1259 08       		.uleb128 0x8
 6971 125a BB000000 		.4byte	0xbb
 6972 125e 02       		.byte	0x2
 6973 125f 08       		.uleb128 0x8
 6974 1260 BB000000 		.4byte	0xbb
 6975 1264 07       		.byte	0x7
 6976 1265 00       		.byte	0
 6977 1266 18       		.uleb128 0x18
 6978 1267 FB040000 		.4byte	.LASF49
 6979 126b 01       		.byte	0x1
 6980 126c 3C03     		.2byte	0x33c
 6981 126e 78120000 		.4byte	0x1278
 6982 1272 05       		.uleb128 0x5
 6983 1273 03       		.byte	0x3
 6984 1274 D0090000 		.4byte	des3_test_ecb_dec
 6985 1278 12       		.uleb128 0x12
ARM GAS  C:\Users\Phuong\AppData\Local\Temp\ccawWFGQ.s 			page 144


 6986 1279 50120000 		.4byte	0x1250
 6987 127d 18       		.uleb128 0x18
 6988 127e 25010000 		.4byte	.LASF50
 6989 1282 01       		.byte	0x1
 6990 1283 4303     		.2byte	0x343
 6991 1285 8F120000 		.4byte	0x128f
 6992 1289 05       		.uleb128 0x5
 6993 128a 03       		.byte	0x3
 6994 128b E8090000 		.4byte	des3_test_ecb_enc
 6995 128f 12       		.uleb128 0x12
 6996 1290 50120000 		.4byte	0x1250
 6997 1294 18       		.uleb128 0x18
 6998 1295 05040000 		.4byte	.LASF51
 6999 1299 01       		.byte	0x1
 7000 129a 4B03     		.2byte	0x34b
 7001 129c A6120000 		.4byte	0x12a6
 7002 12a0 05       		.uleb128 0x5
 7003 12a1 03       		.byte	0x3
 7004 12a2 000A0000 		.4byte	des3_test_iv
 7005 12a6 12       		.uleb128 0x12
 7006 12a7 29120000 		.4byte	0x1229
 7007 12ab 18       		.uleb128 0x18
 7008 12ac E1030000 		.4byte	.LASF52
 7009 12b0 01       		.byte	0x1
 7010 12b1 5003     		.2byte	0x350
 7011 12b3 BD120000 		.4byte	0x12bd
 7012 12b7 05       		.uleb128 0x5
 7013 12b8 03       		.byte	0x3
 7014 12b9 080A0000 		.4byte	des3_test_cbc_dec
 7015 12bd 12       		.uleb128 0x12
 7016 12be 50120000 		.4byte	0x1250
 7017 12c2 18       		.uleb128 0x18
 7018 12c3 00000000 		.4byte	.LASF53
 7019 12c7 01       		.byte	0x1
 7020 12c8 5703     		.2byte	0x357
 7021 12ca D4120000 		.4byte	0x12d4
 7022 12ce 05       		.uleb128 0x5
 7023 12cf 03       		.byte	0x3
 7024 12d0 200A0000 		.4byte	des3_test_cbc_enc
 7025 12d4 12       		.uleb128 0x12
 7026 12d5 50120000 		.4byte	0x1250
 7027 12d9 1B       		.uleb128 0x1b
 7028 12da CA010000 		.4byte	.LASF56
 7029 12de CA010000 		.4byte	.LASF56
 7030 12e2 1C       		.uleb128 0x1c
 7031 12e3 FD010000 		.4byte	.LASF54
 7032 12e7 FD010000 		.4byte	.LASF54
 7033 12eb 06       		.byte	0x6
 7034 12ec 42       		.byte	0x42
 7035 12ed 1C       		.uleb128 0x1c
 7036 12ee 96010000 		.4byte	.LASF55
 7037 12f2 96010000 		.4byte	.LASF55
 7038 12f6 07       		.byte	0x7
 7039 12f7 16       		.byte	0x16
 7040 12f8 1B       		.uleb128 0x1b
 7041 12f9 37010000 		.4byte	.LASF57
 7042 12fd 37010000 		.4byte	.LASF57
ARM GAS  C:\Users\Phuong\AppData\Local\Temp\ccawWFGQ.s 			page 145


 7043 1301 1C       		.uleb128 0x1c
 7044 1302 DA010000 		.4byte	.LASF58
 7045 1306 DA010000 		.4byte	.LASF58
 7046 130a 08       		.byte	0x8
 7047 130b BB       		.byte	0xbb
 7048 130c 1D       		.uleb128 0x1d
 7049 130d 36030000 		.4byte	.LASF59
 7050 1311 DA040000 		.4byte	.LASF61
 7051 1315 09       		.byte	0x9
 7052 1316 00       		.byte	0
 7053 1317 36030000 		.4byte	.LASF59
 7054 131b 1D       		.uleb128 0x1d
 7055 131c 86000000 		.4byte	.LASF60
 7056 1320 C1030000 		.4byte	.LASF62
 7057 1324 09       		.byte	0x9
 7058 1325 00       		.byte	0
 7059 1326 86000000 		.4byte	.LASF60
 7060 132a 00       		.byte	0
 7061              		.section	.debug_abbrev,"",%progbits
 7062              	.Ldebug_abbrev0:
 7063 0000 01       		.uleb128 0x1
 7064 0001 11       		.uleb128 0x11
 7065 0002 01       		.byte	0x1
 7066 0003 25       		.uleb128 0x25
 7067 0004 0E       		.uleb128 0xe
 7068 0005 13       		.uleb128 0x13
 7069 0006 0B       		.uleb128 0xb
 7070 0007 03       		.uleb128 0x3
 7071 0008 0E       		.uleb128 0xe
 7072 0009 1B       		.uleb128 0x1b
 7073 000a 0E       		.uleb128 0xe
 7074 000b 55       		.uleb128 0x55
 7075 000c 17       		.uleb128 0x17
 7076 000d 11       		.uleb128 0x11
 7077 000e 01       		.uleb128 0x1
 7078 000f 10       		.uleb128 0x10
 7079 0010 17       		.uleb128 0x17
 7080 0011 00       		.byte	0
 7081 0012 00       		.byte	0
 7082 0013 02       		.uleb128 0x2
 7083 0014 24       		.uleb128 0x24
 7084 0015 00       		.byte	0
 7085 0016 0B       		.uleb128 0xb
 7086 0017 0B       		.uleb128 0xb
 7087 0018 3E       		.uleb128 0x3e
 7088 0019 0B       		.uleb128 0xb
 7089 001a 03       		.uleb128 0x3
 7090 001b 0E       		.uleb128 0xe
 7091 001c 00       		.byte	0
 7092 001d 00       		.byte	0
 7093 001e 03       		.uleb128 0x3
 7094 001f 16       		.uleb128 0x16
 7095 0020 00       		.byte	0
 7096 0021 03       		.uleb128 0x3
 7097 0022 0E       		.uleb128 0xe
 7098 0023 3A       		.uleb128 0x3a
 7099 0024 0B       		.uleb128 0xb
ARM GAS  C:\Users\Phuong\AppData\Local\Temp\ccawWFGQ.s 			page 146


 7100 0025 3B       		.uleb128 0x3b
 7101 0026 0B       		.uleb128 0xb
 7102 0027 49       		.uleb128 0x49
 7103 0028 13       		.uleb128 0x13
 7104 0029 00       		.byte	0
 7105 002a 00       		.byte	0
 7106 002b 04       		.uleb128 0x4
 7107 002c 24       		.uleb128 0x24
 7108 002d 00       		.byte	0
 7109 002e 0B       		.uleb128 0xb
 7110 002f 0B       		.uleb128 0xb
 7111 0030 3E       		.uleb128 0x3e
 7112 0031 0B       		.uleb128 0xb
 7113 0032 03       		.uleb128 0x3
 7114 0033 08       		.uleb128 0x8
 7115 0034 00       		.byte	0
 7116 0035 00       		.byte	0
 7117 0036 05       		.uleb128 0x5
 7118 0037 13       		.uleb128 0x13
 7119 0038 01       		.byte	0x1
 7120 0039 03       		.uleb128 0x3
 7121 003a 0E       		.uleb128 0xe
 7122 003b 0B       		.uleb128 0xb
 7123 003c 0B       		.uleb128 0xb
 7124 003d 3A       		.uleb128 0x3a
 7125 003e 0B       		.uleb128 0xb
 7126 003f 3B       		.uleb128 0x3b
 7127 0040 0B       		.uleb128 0xb
 7128 0041 01       		.uleb128 0x1
 7129 0042 13       		.uleb128 0x13
 7130 0043 00       		.byte	0
 7131 0044 00       		.byte	0
 7132 0045 06       		.uleb128 0x6
 7133 0046 0D       		.uleb128 0xd
 7134 0047 00       		.byte	0
 7135 0048 03       		.uleb128 0x3
 7136 0049 08       		.uleb128 0x8
 7137 004a 3A       		.uleb128 0x3a
 7138 004b 0B       		.uleb128 0xb
 7139 004c 3B       		.uleb128 0x3b
 7140 004d 0B       		.uleb128 0xb
 7141 004e 49       		.uleb128 0x49
 7142 004f 13       		.uleb128 0x13
 7143 0050 38       		.uleb128 0x38
 7144 0051 0B       		.uleb128 0xb
 7145 0052 00       		.byte	0
 7146 0053 00       		.byte	0
 7147 0054 07       		.uleb128 0x7
 7148 0055 01       		.uleb128 0x1
 7149 0056 01       		.byte	0x1
 7150 0057 49       		.uleb128 0x49
 7151 0058 13       		.uleb128 0x13
 7152 0059 01       		.uleb128 0x1
 7153 005a 13       		.uleb128 0x13
 7154 005b 00       		.byte	0
 7155 005c 00       		.byte	0
 7156 005d 08       		.uleb128 0x8
ARM GAS  C:\Users\Phuong\AppData\Local\Temp\ccawWFGQ.s 			page 147


 7157 005e 21       		.uleb128 0x21
 7158 005f 00       		.byte	0
 7159 0060 49       		.uleb128 0x49
 7160 0061 13       		.uleb128 0x13
 7161 0062 2F       		.uleb128 0x2f
 7162 0063 0B       		.uleb128 0xb
 7163 0064 00       		.byte	0
 7164 0065 00       		.byte	0
 7165 0066 09       		.uleb128 0x9
 7166 0067 13       		.uleb128 0x13
 7167 0068 01       		.byte	0x1
 7168 0069 03       		.uleb128 0x3
 7169 006a 0E       		.uleb128 0xe
 7170 006b 0B       		.uleb128 0xb
 7171 006c 05       		.uleb128 0x5
 7172 006d 3A       		.uleb128 0x3a
 7173 006e 0B       		.uleb128 0xb
 7174 006f 3B       		.uleb128 0x3b
 7175 0070 0B       		.uleb128 0xb
 7176 0071 01       		.uleb128 0x1
 7177 0072 13       		.uleb128 0x13
 7178 0073 00       		.byte	0
 7179 0074 00       		.byte	0
 7180 0075 0A       		.uleb128 0xa
 7181 0076 0F       		.uleb128 0xf
 7182 0077 00       		.byte	0
 7183 0078 0B       		.uleb128 0xb
 7184 0079 0B       		.uleb128 0xb
 7185 007a 49       		.uleb128 0x49
 7186 007b 13       		.uleb128 0x13
 7187 007c 00       		.byte	0
 7188 007d 00       		.byte	0
 7189 007e 0B       		.uleb128 0xb
 7190 007f 2E       		.uleb128 0x2e
 7191 0080 01       		.byte	0x1
 7192 0081 3F       		.uleb128 0x3f
 7193 0082 19       		.uleb128 0x19
 7194 0083 03       		.uleb128 0x3
 7195 0084 0E       		.uleb128 0xe
 7196 0085 3A       		.uleb128 0x3a
 7197 0086 0B       		.uleb128 0xb
 7198 0087 3B       		.uleb128 0x3b
 7199 0088 05       		.uleb128 0x5
 7200 0089 27       		.uleb128 0x27
 7201 008a 19       		.uleb128 0x19
 7202 008b 11       		.uleb128 0x11
 7203 008c 01       		.uleb128 0x1
 7204 008d 12       		.uleb128 0x12
 7205 008e 06       		.uleb128 0x6
 7206 008f 40       		.uleb128 0x40
 7207 0090 18       		.uleb128 0x18
 7208 0091 9742     		.uleb128 0x2117
 7209 0093 19       		.uleb128 0x19
 7210 0094 01       		.uleb128 0x1
 7211 0095 13       		.uleb128 0x13
 7212 0096 00       		.byte	0
 7213 0097 00       		.byte	0
ARM GAS  C:\Users\Phuong\AppData\Local\Temp\ccawWFGQ.s 			page 148


 7214 0098 0C       		.uleb128 0xc
 7215 0099 05       		.uleb128 0x5
 7216 009a 00       		.byte	0
 7217 009b 03       		.uleb128 0x3
 7218 009c 08       		.uleb128 0x8
 7219 009d 3A       		.uleb128 0x3a
 7220 009e 0B       		.uleb128 0xb
 7221 009f 3B       		.uleb128 0x3b
 7222 00a0 05       		.uleb128 0x5
 7223 00a1 49       		.uleb128 0x49
 7224 00a2 13       		.uleb128 0x13
 7225 00a3 02       		.uleb128 0x2
 7226 00a4 17       		.uleb128 0x17
 7227 00a5 00       		.byte	0
 7228 00a6 00       		.byte	0
 7229 00a7 0D       		.uleb128 0xd
 7230 00a8 898201   		.uleb128 0x4109
 7231 00ab 01       		.byte	0x1
 7232 00ac 11       		.uleb128 0x11
 7233 00ad 01       		.uleb128 0x1
 7234 00ae 31       		.uleb128 0x31
 7235 00af 13       		.uleb128 0x13
 7236 00b0 00       		.byte	0
 7237 00b1 00       		.byte	0
 7238 00b2 0E       		.uleb128 0xe
 7239 00b3 8A8201   		.uleb128 0x410a
 7240 00b6 00       		.byte	0
 7241 00b7 02       		.uleb128 0x2
 7242 00b8 18       		.uleb128 0x18
 7243 00b9 9142     		.uleb128 0x2111
 7244 00bb 18       		.uleb128 0x18
 7245 00bc 00       		.byte	0
 7246 00bd 00       		.byte	0
 7247 00be 0F       		.uleb128 0xf
 7248 00bf 05       		.uleb128 0x5
 7249 00c0 00       		.byte	0
 7250 00c1 03       		.uleb128 0x3
 7251 00c2 08       		.uleb128 0x8
 7252 00c3 3A       		.uleb128 0x3a
 7253 00c4 0B       		.uleb128 0xb
 7254 00c5 3B       		.uleb128 0x3b
 7255 00c6 05       		.uleb128 0x5
 7256 00c7 49       		.uleb128 0x49
 7257 00c8 13       		.uleb128 0x13
 7258 00c9 02       		.uleb128 0x2
 7259 00ca 18       		.uleb128 0x18
 7260 00cb 00       		.byte	0
 7261 00cc 00       		.byte	0
 7262 00cd 10       		.uleb128 0x10
 7263 00ce 34       		.uleb128 0x34
 7264 00cf 00       		.byte	0
 7265 00d0 03       		.uleb128 0x3
 7266 00d1 08       		.uleb128 0x8
 7267 00d2 3A       		.uleb128 0x3a
 7268 00d3 0B       		.uleb128 0xb
 7269 00d4 3B       		.uleb128 0x3b
 7270 00d5 05       		.uleb128 0x5
ARM GAS  C:\Users\Phuong\AppData\Local\Temp\ccawWFGQ.s 			page 149


 7271 00d6 49       		.uleb128 0x49
 7272 00d7 13       		.uleb128 0x13
 7273 00d8 02       		.uleb128 0x2
 7274 00d9 17       		.uleb128 0x17
 7275 00da 00       		.byte	0
 7276 00db 00       		.byte	0
 7277 00dc 11       		.uleb128 0x11
 7278 00dd 2E       		.uleb128 0x2e
 7279 00de 01       		.byte	0x1
 7280 00df 3F       		.uleb128 0x3f
 7281 00e0 19       		.uleb128 0x19
 7282 00e1 03       		.uleb128 0x3
 7283 00e2 0E       		.uleb128 0xe
 7284 00e3 3A       		.uleb128 0x3a
 7285 00e4 0B       		.uleb128 0xb
 7286 00e5 3B       		.uleb128 0x3b
 7287 00e6 05       		.uleb128 0x5
 7288 00e7 27       		.uleb128 0x27
 7289 00e8 19       		.uleb128 0x19
 7290 00e9 49       		.uleb128 0x49
 7291 00ea 13       		.uleb128 0x13
 7292 00eb 11       		.uleb128 0x11
 7293 00ec 01       		.uleb128 0x1
 7294 00ed 12       		.uleb128 0x12
 7295 00ee 06       		.uleb128 0x6
 7296 00ef 40       		.uleb128 0x40
 7297 00f0 18       		.uleb128 0x18
 7298 00f1 9742     		.uleb128 0x2117
 7299 00f3 19       		.uleb128 0x19
 7300 00f4 01       		.uleb128 0x1
 7301 00f5 13       		.uleb128 0x13
 7302 00f6 00       		.byte	0
 7303 00f7 00       		.byte	0
 7304 00f8 12       		.uleb128 0x12
 7305 00f9 26       		.uleb128 0x26
 7306 00fa 00       		.byte	0
 7307 00fb 49       		.uleb128 0x49
 7308 00fc 13       		.uleb128 0x13
 7309 00fd 00       		.byte	0
 7310 00fe 00       		.byte	0
 7311 00ff 13       		.uleb128 0x13
 7312 0100 2E       		.uleb128 0x2e
 7313 0101 01       		.byte	0x1
 7314 0102 03       		.uleb128 0x3
 7315 0103 0E       		.uleb128 0xe
 7316 0104 3A       		.uleb128 0x3a
 7317 0105 0B       		.uleb128 0xb
 7318 0106 3B       		.uleb128 0x3b
 7319 0107 05       		.uleb128 0x5
 7320 0108 27       		.uleb128 0x27
 7321 0109 19       		.uleb128 0x19
 7322 010a 11       		.uleb128 0x11
 7323 010b 01       		.uleb128 0x1
 7324 010c 12       		.uleb128 0x12
 7325 010d 06       		.uleb128 0x6
 7326 010e 40       		.uleb128 0x40
 7327 010f 18       		.uleb128 0x18
ARM GAS  C:\Users\Phuong\AppData\Local\Temp\ccawWFGQ.s 			page 150


 7328 0110 9742     		.uleb128 0x2117
 7329 0112 19       		.uleb128 0x19
 7330 0113 01       		.uleb128 0x1
 7331 0114 13       		.uleb128 0x13
 7332 0115 00       		.byte	0
 7333 0116 00       		.byte	0
 7334 0117 14       		.uleb128 0x14
 7335 0118 898201   		.uleb128 0x4109
 7336 011b 01       		.byte	0x1
 7337 011c 11       		.uleb128 0x11
 7338 011d 01       		.uleb128 0x1
 7339 011e 31       		.uleb128 0x31
 7340 011f 13       		.uleb128 0x13
 7341 0120 01       		.uleb128 0x1
 7342 0121 13       		.uleb128 0x13
 7343 0122 00       		.byte	0
 7344 0123 00       		.byte	0
 7345 0124 15       		.uleb128 0x15
 7346 0125 0B       		.uleb128 0xb
 7347 0126 01       		.byte	0x1
 7348 0127 11       		.uleb128 0x11
 7349 0128 01       		.uleb128 0x1
 7350 0129 12       		.uleb128 0x12
 7351 012a 06       		.uleb128 0x6
 7352 012b 01       		.uleb128 0x1
 7353 012c 13       		.uleb128 0x13
 7354 012d 00       		.byte	0
 7355 012e 00       		.byte	0
 7356 012f 16       		.uleb128 0x16
 7357 0130 34       		.uleb128 0x34
 7358 0131 00       		.byte	0
 7359 0132 03       		.uleb128 0x3
 7360 0133 08       		.uleb128 0x8
 7361 0134 3A       		.uleb128 0x3a
 7362 0135 0B       		.uleb128 0xb
 7363 0136 3B       		.uleb128 0x3b
 7364 0137 05       		.uleb128 0x5
 7365 0138 49       		.uleb128 0x49
 7366 0139 13       		.uleb128 0x13
 7367 013a 02       		.uleb128 0x2
 7368 013b 18       		.uleb128 0x18
 7369 013c 00       		.byte	0
 7370 013d 00       		.byte	0
 7371 013e 17       		.uleb128 0x17
 7372 013f 05       		.uleb128 0x5
 7373 0140 00       		.byte	0
 7374 0141 03       		.uleb128 0x3
 7375 0142 0E       		.uleb128 0xe
 7376 0143 3A       		.uleb128 0x3a
 7377 0144 0B       		.uleb128 0xb
 7378 0145 3B       		.uleb128 0x3b
 7379 0146 05       		.uleb128 0x5
 7380 0147 49       		.uleb128 0x49
 7381 0148 13       		.uleb128 0x13
 7382 0149 02       		.uleb128 0x2
 7383 014a 17       		.uleb128 0x17
 7384 014b 00       		.byte	0
ARM GAS  C:\Users\Phuong\AppData\Local\Temp\ccawWFGQ.s 			page 151


 7385 014c 00       		.byte	0
 7386 014d 18       		.uleb128 0x18
 7387 014e 34       		.uleb128 0x34
 7388 014f 00       		.byte	0
 7389 0150 03       		.uleb128 0x3
 7390 0151 0E       		.uleb128 0xe
 7391 0152 3A       		.uleb128 0x3a
 7392 0153 0B       		.uleb128 0xb
 7393 0154 3B       		.uleb128 0x3b
 7394 0155 05       		.uleb128 0x5
 7395 0156 49       		.uleb128 0x49
 7396 0157 13       		.uleb128 0x13
 7397 0158 02       		.uleb128 0x2
 7398 0159 18       		.uleb128 0x18
 7399 015a 00       		.byte	0
 7400 015b 00       		.byte	0
 7401 015c 19       		.uleb128 0x19
 7402 015d 0A       		.uleb128 0xa
 7403 015e 00       		.byte	0
 7404 015f 03       		.uleb128 0x3
 7405 0160 0E       		.uleb128 0xe
 7406 0161 3A       		.uleb128 0x3a
 7407 0162 0B       		.uleb128 0xb
 7408 0163 3B       		.uleb128 0x3b
 7409 0164 05       		.uleb128 0x5
 7410 0165 11       		.uleb128 0x11
 7411 0166 01       		.uleb128 0x1
 7412 0167 00       		.byte	0
 7413 0168 00       		.byte	0
 7414 0169 1A       		.uleb128 0x1a
 7415 016a 34       		.uleb128 0x34
 7416 016b 00       		.byte	0
 7417 016c 03       		.uleb128 0x3
 7418 016d 08       		.uleb128 0x8
 7419 016e 3A       		.uleb128 0x3a
 7420 016f 0B       		.uleb128 0xb
 7421 0170 3B       		.uleb128 0x3b
 7422 0171 0B       		.uleb128 0xb
 7423 0172 49       		.uleb128 0x49
 7424 0173 13       		.uleb128 0x13
 7425 0174 02       		.uleb128 0x2
 7426 0175 18       		.uleb128 0x18
 7427 0176 00       		.byte	0
 7428 0177 00       		.byte	0
 7429 0178 1B       		.uleb128 0x1b
 7430 0179 2E       		.uleb128 0x2e
 7431 017a 00       		.byte	0
 7432 017b 3F       		.uleb128 0x3f
 7433 017c 19       		.uleb128 0x19
 7434 017d 3C       		.uleb128 0x3c
 7435 017e 19       		.uleb128 0x19
 7436 017f 6E       		.uleb128 0x6e
 7437 0180 0E       		.uleb128 0xe
 7438 0181 03       		.uleb128 0x3
 7439 0182 0E       		.uleb128 0xe
 7440 0183 00       		.byte	0
 7441 0184 00       		.byte	0
ARM GAS  C:\Users\Phuong\AppData\Local\Temp\ccawWFGQ.s 			page 152


 7442 0185 1C       		.uleb128 0x1c
 7443 0186 2E       		.uleb128 0x2e
 7444 0187 00       		.byte	0
 7445 0188 3F       		.uleb128 0x3f
 7446 0189 19       		.uleb128 0x19
 7447 018a 3C       		.uleb128 0x3c
 7448 018b 19       		.uleb128 0x19
 7449 018c 6E       		.uleb128 0x6e
 7450 018d 0E       		.uleb128 0xe
 7451 018e 03       		.uleb128 0x3
 7452 018f 0E       		.uleb128 0xe
 7453 0190 3A       		.uleb128 0x3a
 7454 0191 0B       		.uleb128 0xb
 7455 0192 3B       		.uleb128 0x3b
 7456 0193 0B       		.uleb128 0xb
 7457 0194 00       		.byte	0
 7458 0195 00       		.byte	0
 7459 0196 1D       		.uleb128 0x1d
 7460 0197 2E       		.uleb128 0x2e
 7461 0198 00       		.byte	0
 7462 0199 3F       		.uleb128 0x3f
 7463 019a 19       		.uleb128 0x19
 7464 019b 3C       		.uleb128 0x3c
 7465 019c 19       		.uleb128 0x19
 7466 019d 6E       		.uleb128 0x6e
 7467 019e 0E       		.uleb128 0xe
 7468 019f 03       		.uleb128 0x3
 7469 01a0 0E       		.uleb128 0xe
 7470 01a1 3A       		.uleb128 0x3a
 7471 01a2 0B       		.uleb128 0xb
 7472 01a3 3B       		.uleb128 0x3b
 7473 01a4 0B       		.uleb128 0xb
 7474 01a5 6E       		.uleb128 0x6e
 7475 01a6 0E       		.uleb128 0xe
 7476 01a7 00       		.byte	0
 7477 01a8 00       		.byte	0
 7478 01a9 00       		.byte	0
 7479              		.section	.debug_loc,"",%progbits
 7480              	.Ldebug_loc0:
 7481              	.LLST0:
 7482 0000 00000000 		.4byte	.LVL0
 7483 0004 09000000 		.4byte	.LVL1-1
 7484 0008 0100     		.2byte	0x1
 7485 000a 50       		.byte	0x50
 7486 000b 09000000 		.4byte	.LVL1-1
 7487 000f 0C000000 		.4byte	.LFE1
 7488 0013 0400     		.2byte	0x4
 7489 0015 F3       		.byte	0xf3
 7490 0016 01       		.uleb128 0x1
 7491 0017 50       		.byte	0x50
 7492 0018 9F       		.byte	0x9f
 7493 0019 00000000 		.4byte	0
 7494 001d 00000000 		.4byte	0
 7495              	.LLST1:
 7496 0021 00000000 		.4byte	.LVL2
 7497 0025 0B000000 		.4byte	.LVL3-1
 7498 0029 0100     		.2byte	0x1
ARM GAS  C:\Users\Phuong\AppData\Local\Temp\ccawWFGQ.s 			page 153


 7499 002b 50       		.byte	0x50
 7500 002c 0B000000 		.4byte	.LVL3-1
 7501 0030 0E000000 		.4byte	.LFE2
 7502 0034 0400     		.2byte	0x4
 7503 0036 F3       		.byte	0xf3
 7504 0037 01       		.uleb128 0x1
 7505 0038 50       		.byte	0x50
 7506 0039 9F       		.byte	0x9f
 7507 003a 00000000 		.4byte	0
 7508 003e 00000000 		.4byte	0
 7509              	.LLST2:
 7510 0042 00000000 		.4byte	.LVL4
 7511 0046 0B000000 		.4byte	.LVL5-1
 7512 004a 0100     		.2byte	0x1
 7513 004c 50       		.byte	0x50
 7514 004d 0B000000 		.4byte	.LVL5-1
 7515 0051 0E000000 		.4byte	.LFE3
 7516 0055 0400     		.2byte	0x4
 7517 0057 F3       		.byte	0xf3
 7518 0058 01       		.uleb128 0x1
 7519 0059 50       		.byte	0x50
 7520 005a 9F       		.byte	0x9f
 7521 005b 00000000 		.4byte	0
 7522 005f 00000000 		.4byte	0
 7523              	.LLST3:
 7524 0063 00000000 		.4byte	.LVL6
 7525 0067 0D000000 		.4byte	.LVL7-1
 7526 006b 0100     		.2byte	0x1
 7527 006d 50       		.byte	0x50
 7528 006e 0D000000 		.4byte	.LVL7-1
 7529 0072 10000000 		.4byte	.LFE4
 7530 0076 0400     		.2byte	0x4
 7531 0078 F3       		.byte	0xf3
 7532 0079 01       		.uleb128 0x1
 7533 007a 50       		.byte	0x50
 7534 007b 9F       		.byte	0x9f
 7535 007c 00000000 		.4byte	0
 7536 0080 00000000 		.4byte	0
 7537              	.LLST4:
 7538 0084 02000000 		.4byte	.LVL9
 7539 0088 06000000 		.4byte	.LVL10
 7540 008c 0200     		.2byte	0x2
 7541 008e 30       		.byte	0x30
 7542 008f 9F       		.byte	0x9f
 7543 0090 06000000 		.4byte	.LVL10
 7544 0094 20000000 		.4byte	.LFE5
 7545 0098 0100     		.2byte	0x1
 7546 009a 53       		.byte	0x53
 7547 009b 00000000 		.4byte	0
 7548 009f 00000000 		.4byte	0
 7549              	.LLST5:
 7550 00a3 00000000 		.4byte	.LVL12
 7551 00a7 1A000000 		.4byte	.LVL16
 7552 00ab 0100     		.2byte	0x1
 7553 00ad 50       		.byte	0x50
 7554 00ae 1A000000 		.4byte	.LVL16
 7555 00b2 1C000000 		.4byte	.LVL17
ARM GAS  C:\Users\Phuong\AppData\Local\Temp\ccawWFGQ.s 			page 154


 7556 00b6 0400     		.2byte	0x4
 7557 00b8 F3       		.byte	0xf3
 7558 00b9 01       		.uleb128 0x1
 7559 00ba 50       		.byte	0x50
 7560 00bb 9F       		.byte	0x9f
 7561 00bc 1C000000 		.4byte	.LVL17
 7562 00c0 1E000000 		.4byte	.LVL18
 7563 00c4 0100     		.2byte	0x1
 7564 00c6 50       		.byte	0x50
 7565 00c7 1E000000 		.4byte	.LVL18
 7566 00cb 24000000 		.4byte	.LFE6
 7567 00cf 0400     		.2byte	0x4
 7568 00d1 F3       		.byte	0xf3
 7569 00d2 01       		.uleb128 0x1
 7570 00d3 50       		.byte	0x50
 7571 00d4 9F       		.byte	0x9f
 7572 00d5 00000000 		.4byte	0
 7573 00d9 00000000 		.4byte	0
 7574              	.LLST6:
 7575 00dd 02000000 		.4byte	.LVL13
 7576 00e1 06000000 		.4byte	.LVL14
 7577 00e5 0200     		.2byte	0x2
 7578 00e7 30       		.byte	0x30
 7579 00e8 9F       		.byte	0x9f
 7580 00e9 06000000 		.4byte	.LVL14
 7581 00ed 24000000 		.4byte	.LFE6
 7582 00f1 0100     		.2byte	0x1
 7583 00f3 53       		.byte	0x53
 7584 00f4 00000000 		.4byte	0
 7585 00f8 00000000 		.4byte	0
 7586              	.LLST7:
 7587 00fc 00000000 		.4byte	.LVL19
 7588 0100 08000000 		.4byte	.LVL21
 7589 0104 0100     		.2byte	0x1
 7590 0106 50       		.byte	0x50
 7591 0107 08000000 		.4byte	.LVL21
 7592 010b 26000000 		.4byte	.LVL24
 7593 010f 0100     		.2byte	0x1
 7594 0111 54       		.byte	0x54
 7595 0112 26000000 		.4byte	.LVL24
 7596 0116 2C000000 		.4byte	.LFE7
 7597 011a 0400     		.2byte	0x4
 7598 011c F3       		.byte	0xf3
 7599 011d 01       		.uleb128 0x1
 7600 011e 50       		.byte	0x50
 7601 011f 9F       		.byte	0x9f
 7602 0120 00000000 		.4byte	0
 7603 0124 00000000 		.4byte	0
 7604              	.LLST8:
 7605 0128 04000000 		.4byte	.LVL20
 7606 012c 08000000 		.4byte	.LVL21
 7607 0130 0200     		.2byte	0x2
 7608 0132 30       		.byte	0x30
 7609 0133 9F       		.byte	0x9f
 7610 0134 08000000 		.4byte	.LVL21
 7611 0138 26000000 		.4byte	.LVL25
 7612 013c 0100     		.2byte	0x1
ARM GAS  C:\Users\Phuong\AppData\Local\Temp\ccawWFGQ.s 			page 155


 7613 013e 55       		.byte	0x55
 7614 013f 00000000 		.4byte	0
 7615 0143 00000000 		.4byte	0
 7616              	.LLST9:
 7617 0147 00000000 		.4byte	.LVL26
 7618 014b 26000000 		.4byte	.LVL28
 7619 014f 0100     		.2byte	0x1
 7620 0151 50       		.byte	0x50
 7621 0152 26000000 		.4byte	.LVL28
 7622 0156 6C010000 		.4byte	.LVL60
 7623 015a 0100     		.2byte	0x1
 7624 015c 5A       		.byte	0x5a
 7625 015d 6C010000 		.4byte	.LVL60
 7626 0161 54020000 		.4byte	.LVL61
 7627 0165 0300     		.2byte	0x3
 7628 0167 7A       		.byte	0x7a
 7629 0168 04       		.sleb128 4
 7630 0169 9F       		.byte	0x9f
 7631 016a 54020000 		.4byte	.LVL61
 7632 016e 2A030000 		.4byte	.LVL63
 7633 0172 0300     		.2byte	0x3
 7634 0174 7A       		.byte	0x7a
 7635 0175 08       		.sleb128 8
 7636 0176 9F       		.byte	0x9f
 7637 0177 2A030000 		.4byte	.LVL63
 7638 017b 30030000 		.4byte	.LVL65
 7639 017f 0100     		.2byte	0x1
 7640 0181 5A       		.byte	0x5a
 7641 0182 00000000 		.4byte	0
 7642 0186 00000000 		.4byte	0
 7643              	.LLST10:
 7644 018a 00000000 		.4byte	.LVL26
 7645 018e 34000000 		.4byte	.LVL29
 7646 0192 0100     		.2byte	0x1
 7647 0194 51       		.byte	0x51
 7648 0195 34000000 		.4byte	.LVL29
 7649 0199 4C030000 		.4byte	.LFE8
 7650 019d 0400     		.2byte	0x4
 7651 019f F3       		.byte	0xf3
 7652 01a0 01       		.uleb128 0x1
 7653 01a1 51       		.byte	0x51
 7654 01a2 9F       		.byte	0x9f
 7655 01a3 00000000 		.4byte	0
 7656 01a7 00000000 		.4byte	0
 7657              	.LLST11:
 7658 01ab 2C010000 		.4byte	.LVL49
 7659 01af 36010000 		.4byte	.LVL52
 7660 01b3 0200     		.2byte	0x2
 7661 01b5 30       		.byte	0x30
 7662 01b6 9F       		.byte	0x9f
 7663 01b7 36010000 		.4byte	.LVL52
 7664 01bb 30030000 		.4byte	.LVL64
 7665 01bf 0100     		.2byte	0x1
 7666 01c1 57       		.byte	0x57
 7667 01c2 00000000 		.4byte	0
 7668 01c6 00000000 		.4byte	0
 7669              	.LLST12:
ARM GAS  C:\Users\Phuong\AppData\Local\Temp\ccawWFGQ.s 			page 156


 7670 01ca 22000000 		.4byte	.LVL27
 7671 01ce 40000000 		.4byte	.LVL32
 7672 01d2 0100     		.2byte	0x1
 7673 01d4 53       		.byte	0x53
 7674 01d5 40000000 		.4byte	.LVL32
 7675 01d9 42000000 		.4byte	.LVL33
 7676 01dd 3000     		.2byte	0x30
 7677 01df F3       		.byte	0xf3
 7678 01e0 01       		.uleb128 0x1
 7679 01e1 51       		.byte	0x51
 7680 01e2 23       		.byte	0x23
 7681 01e3 01       		.uleb128 0x1
 7682 01e4 94       		.byte	0x94
 7683 01e5 01       		.byte	0x1
 7684 01e6 08       		.byte	0x8
 7685 01e7 FF       		.byte	0xff
 7686 01e8 1A       		.byte	0x1a
 7687 01e9 40       		.byte	0x40
 7688 01ea 24       		.byte	0x24
 7689 01eb F3       		.byte	0xf3
 7690 01ec 01       		.uleb128 0x1
 7691 01ed 51       		.byte	0x51
 7692 01ee 94       		.byte	0x94
 7693 01ef 01       		.byte	0x1
 7694 01f0 08       		.byte	0x8
 7695 01f1 FF       		.byte	0xff
 7696 01f2 1A       		.byte	0x1a
 7697 01f3 48       		.byte	0x48
 7698 01f4 24       		.byte	0x24
 7699 01f5 21       		.byte	0x21
 7700 01f6 F3       		.byte	0xf3
 7701 01f7 01       		.uleb128 0x1
 7702 01f8 51       		.byte	0x51
 7703 01f9 23       		.byte	0x23
 7704 01fa 02       		.uleb128 0x2
 7705 01fb 94       		.byte	0x94
 7706 01fc 01       		.byte	0x1
 7707 01fd 08       		.byte	0x8
 7708 01fe FF       		.byte	0xff
 7709 01ff 1A       		.byte	0x1a
 7710 0200 38       		.byte	0x38
 7711 0201 24       		.byte	0x24
 7712 0202 21       		.byte	0x21
 7713 0203 F3       		.byte	0xf3
 7714 0204 01       		.uleb128 0x1
 7715 0205 51       		.byte	0x51
 7716 0206 23       		.byte	0x23
 7717 0207 03       		.uleb128 0x3
 7718 0208 94       		.byte	0x94
 7719 0209 01       		.byte	0x1
 7720 020a 08       		.byte	0x8
 7721 020b FF       		.byte	0xff
 7722 020c 1A       		.byte	0x1a
 7723 020d 21       		.byte	0x21
 7724 020e 9F       		.byte	0x9f
 7725 020f 42000000 		.4byte	.LVL33
 7726 0213 4C000000 		.4byte	.LVL37
ARM GAS  C:\Users\Phuong\AppData\Local\Temp\ccawWFGQ.s 			page 157


 7727 0217 0100     		.2byte	0x1
 7728 0219 53       		.byte	0x53
 7729 021a 4C000000 		.4byte	.LVL37
 7730 021e 52000000 		.4byte	.LVL39
 7731 0222 0100     		.2byte	0x1
 7732 0224 54       		.byte	0x54
 7733 0225 52000000 		.4byte	.LVL39
 7734 0229 B4000000 		.4byte	.LVL44
 7735 022d 0100     		.2byte	0x1
 7736 022f 53       		.byte	0x53
 7737 0230 B4000000 		.4byte	.LVL44
 7738 0234 24010000 		.4byte	.LVL46
 7739 0238 0100     		.2byte	0x1
 7740 023a 55       		.byte	0x55
 7741 023b 26010000 		.4byte	.LVL47
 7742 023f 34010000 		.4byte	.LVL51
 7743 0243 0100     		.2byte	0x1
 7744 0245 52       		.byte	0x52
 7745 0246 34010000 		.4byte	.LVL51
 7746 024a 46010000 		.4byte	.LVL53
 7747 024e 0100     		.2byte	0x1
 7748 0250 53       		.byte	0x53
 7749 0251 4C010000 		.4byte	.LVL54
 7750 0255 5C010000 		.4byte	.LVL57
 7751 0259 0100     		.2byte	0x1
 7752 025b 53       		.byte	0x53
 7753 025c 62010000 		.4byte	.LVL58
 7754 0260 4C030000 		.4byte	.LFE8
 7755 0264 0100     		.2byte	0x1
 7756 0266 53       		.byte	0x53
 7757 0267 00000000 		.4byte	0
 7758 026b 00000000 		.4byte	0
 7759              	.LLST13:
 7760 026f 36000000 		.4byte	.LVL30
 7761 0273 54000000 		.4byte	.LVL40
 7762 0277 0100     		.2byte	0x1
 7763 0279 52       		.byte	0x52
 7764 027a 54000000 		.4byte	.LVL40
 7765 027e 22010000 		.4byte	.LVL45
 7766 0282 0100     		.2byte	0x1
 7767 0284 51       		.byte	0x51
 7768 0285 22010000 		.4byte	.LVL45
 7769 0289 28010000 		.4byte	.LVL48
 7770 028d 0100     		.2byte	0x1
 7771 028f 53       		.byte	0x53
 7772 0290 28010000 		.4byte	.LVL48
 7773 0294 2C010000 		.4byte	.LVL49
 7774 0298 1200     		.2byte	0x12
 7775 029a 71       		.byte	0x71
 7776 029b 00       		.sleb128 0
 7777 029c 4C       		.byte	0x4c
 7778 029d 25       		.byte	0x25
 7779 029e 32       		.byte	0x32
 7780 029f 24       		.byte	0x24
 7781 02a0 70       		.byte	0x70
 7782 02a1 00       		.sleb128 0
 7783 02a2 22       		.byte	0x22
ARM GAS  C:\Users\Phuong\AppData\Local\Temp\ccawWFGQ.s 			page 158


 7784 02a3 23       		.byte	0x23
 7785 02a4 40       		.uleb128 0x40
 7786 02a5 06       		.byte	0x6
 7787 02a6 34       		.byte	0x34
 7788 02a7 24       		.byte	0x24
 7789 02a8 74       		.byte	0x74
 7790 02a9 00       		.sleb128 0
 7791 02aa 21       		.byte	0x21
 7792 02ab 9F       		.byte	0x9f
 7793 02ac 2C010000 		.4byte	.LVL49
 7794 02b0 2E010000 		.4byte	.LVL50
 7795 02b4 0100     		.2byte	0x1
 7796 02b6 53       		.byte	0x53
 7797 02b7 2E010000 		.4byte	.LVL50
 7798 02bb 36010000 		.4byte	.LVL52
 7799 02bf 0100     		.2byte	0x1
 7800 02c1 58       		.byte	0x58
 7801 02c2 36010000 		.4byte	.LVL52
 7802 02c6 50010000 		.4byte	.LVL55
 7803 02ca 0100     		.2byte	0x1
 7804 02cc 52       		.byte	0x52
 7805 02cd 56010000 		.4byte	.LVL56
 7806 02d1 66010000 		.4byte	.LVL59
 7807 02d5 0100     		.2byte	0x1
 7808 02d7 52       		.byte	0x52
 7809 02d8 6C010000 		.4byte	.LVL60
 7810 02dc 4C030000 		.4byte	.LFE8
 7811 02e0 0100     		.2byte	0x1
 7812 02e2 52       		.byte	0x52
 7813 02e3 00000000 		.4byte	0
 7814 02e7 00000000 		.4byte	0
 7815              	.LLST14:
 7816 02eb 3E000000 		.4byte	.LVL31
 7817 02ef 44000000 		.4byte	.LVL34
 7818 02f3 0100     		.2byte	0x1
 7819 02f5 50       		.byte	0x50
 7820 02f6 44000000 		.4byte	.LVL34
 7821 02fa 46000000 		.4byte	.LVL35
 7822 02fe 3B00     		.2byte	0x3b
 7823 0300 F3       		.byte	0xf3
 7824 0301 01       		.uleb128 0x1
 7825 0302 51       		.byte	0x51
 7826 0303 23       		.byte	0x23
 7827 0304 01       		.uleb128 0x1
 7828 0305 94       		.byte	0x94
 7829 0306 01       		.byte	0x1
 7830 0307 08       		.byte	0x8
 7831 0308 FF       		.byte	0xff
 7832 0309 1A       		.byte	0x1a
 7833 030a 40       		.byte	0x40
 7834 030b 24       		.byte	0x24
 7835 030c F3       		.byte	0xf3
 7836 030d 01       		.uleb128 0x1
 7837 030e 51       		.byte	0x51
 7838 030f 94       		.byte	0x94
 7839 0310 01       		.byte	0x1
 7840 0311 08       		.byte	0x8
ARM GAS  C:\Users\Phuong\AppData\Local\Temp\ccawWFGQ.s 			page 159


 7841 0312 FF       		.byte	0xff
 7842 0313 1A       		.byte	0x1a
 7843 0314 48       		.byte	0x48
 7844 0315 24       		.byte	0x24
 7845 0316 21       		.byte	0x21
 7846 0317 F3       		.byte	0xf3
 7847 0318 01       		.uleb128 0x1
 7848 0319 51       		.byte	0x51
 7849 031a 23       		.byte	0x23
 7850 031b 02       		.uleb128 0x2
 7851 031c 94       		.byte	0x94
 7852 031d 01       		.byte	0x1
 7853 031e 08       		.byte	0x8
 7854 031f FF       		.byte	0xff
 7855 0320 1A       		.byte	0x1a
 7856 0321 38       		.byte	0x38
 7857 0322 24       		.byte	0x24
 7858 0323 21       		.byte	0x21
 7859 0324 F3       		.byte	0xf3
 7860 0325 01       		.uleb128 0x1
 7861 0326 51       		.byte	0x51
 7862 0327 23       		.byte	0x23
 7863 0328 03       		.uleb128 0x3
 7864 0329 94       		.byte	0x94
 7865 032a 01       		.byte	0x1
 7866 032b 08       		.byte	0x8
 7867 032c FF       		.byte	0xff
 7868 032d 1A       		.byte	0x1a
 7869 032e 21       		.byte	0x21
 7870 032f 72       		.byte	0x72
 7871 0330 00       		.sleb128 0
 7872 0331 34       		.byte	0x34
 7873 0332 25       		.byte	0x25
 7874 0333 27       		.byte	0x27
 7875 0334 0C       		.byte	0xc
 7876 0335 0F0F0F0F 		.4byte	0xf0f0f0f
 7877 0339 1A       		.byte	0x1a
 7878 033a 9F       		.byte	0x9f
 7879 033b 46000000 		.4byte	.LVL35
 7880 033f 48000000 		.4byte	.LVL36
 7881 0343 6200     		.2byte	0x62
 7882 0345 F3       		.byte	0xf3
 7883 0346 01       		.uleb128 0x1
 7884 0347 51       		.byte	0x51
 7885 0348 23       		.byte	0x23
 7886 0349 01       		.uleb128 0x1
 7887 034a 94       		.byte	0x94
 7888 034b 01       		.byte	0x1
 7889 034c 08       		.byte	0x8
 7890 034d FF       		.byte	0xff
 7891 034e 1A       		.byte	0x1a
 7892 034f 40       		.byte	0x40
 7893 0350 24       		.byte	0x24
 7894 0351 F3       		.byte	0xf3
 7895 0352 01       		.uleb128 0x1
 7896 0353 51       		.byte	0x51
 7897 0354 94       		.byte	0x94
ARM GAS  C:\Users\Phuong\AppData\Local\Temp\ccawWFGQ.s 			page 160


 7898 0355 01       		.byte	0x1
 7899 0356 08       		.byte	0x8
 7900 0357 FF       		.byte	0xff
 7901 0358 1A       		.byte	0x1a
 7902 0359 48       		.byte	0x48
 7903 035a 24       		.byte	0x24
 7904 035b 21       		.byte	0x21
 7905 035c F3       		.byte	0xf3
 7906 035d 01       		.uleb128 0x1
 7907 035e 51       		.byte	0x51
 7908 035f 23       		.byte	0x23
 7909 0360 02       		.uleb128 0x2
 7910 0361 94       		.byte	0x94
 7911 0362 01       		.byte	0x1
 7912 0363 08       		.byte	0x8
 7913 0364 FF       		.byte	0xff
 7914 0365 1A       		.byte	0x1a
 7915 0366 38       		.byte	0x38
 7916 0367 24       		.byte	0x24
 7917 0368 21       		.byte	0x21
 7918 0369 F3       		.byte	0xf3
 7919 036a 01       		.uleb128 0x1
 7920 036b 51       		.byte	0x51
 7921 036c 23       		.byte	0x23
 7922 036d 03       		.uleb128 0x3
 7923 036e 94       		.byte	0x94
 7924 036f 01       		.byte	0x1
 7925 0370 08       		.byte	0x8
 7926 0371 FF       		.byte	0xff
 7927 0372 1A       		.byte	0x1a
 7928 0373 21       		.byte	0x21
 7929 0374 F3       		.byte	0xf3
 7930 0375 01       		.uleb128 0x1
 7931 0376 51       		.byte	0x51
 7932 0377 23       		.byte	0x23
 7933 0378 05       		.uleb128 0x5
 7934 0379 94       		.byte	0x94
 7935 037a 01       		.byte	0x1
 7936 037b 08       		.byte	0x8
 7937 037c FF       		.byte	0xff
 7938 037d 1A       		.byte	0x1a
 7939 037e 40       		.byte	0x40
 7940 037f 24       		.byte	0x24
 7941 0380 F3       		.byte	0xf3
 7942 0381 01       		.uleb128 0x1
 7943 0382 51       		.byte	0x51
 7944 0383 23       		.byte	0x23
 7945 0384 04       		.uleb128 0x4
 7946 0385 94       		.byte	0x94
 7947 0386 01       		.byte	0x1
 7948 0387 08       		.byte	0x8
 7949 0388 FF       		.byte	0xff
 7950 0389 1A       		.byte	0x1a
 7951 038a 48       		.byte	0x48
 7952 038b 24       		.byte	0x24
 7953 038c 21       		.byte	0x21
 7954 038d F3       		.byte	0xf3
ARM GAS  C:\Users\Phuong\AppData\Local\Temp\ccawWFGQ.s 			page 161


 7955 038e 01       		.uleb128 0x1
 7956 038f 51       		.byte	0x51
 7957 0390 23       		.byte	0x23
 7958 0391 06       		.uleb128 0x6
 7959 0392 94       		.byte	0x94
 7960 0393 01       		.byte	0x1
 7961 0394 08       		.byte	0x8
 7962 0395 FF       		.byte	0xff
 7963 0396 1A       		.byte	0x1a
 7964 0397 38       		.byte	0x38
 7965 0398 24       		.byte	0x24
 7966 0399 21       		.byte	0x21
 7967 039a 71       		.byte	0x71
 7968 039b 00       		.sleb128 0
 7969 039c 21       		.byte	0x21
 7970 039d 34       		.byte	0x34
 7971 039e 25       		.byte	0x25
 7972 039f 27       		.byte	0x27
 7973 03a0 0C       		.byte	0xc
 7974 03a1 0F0F0F0F 		.4byte	0xf0f0f0f
 7975 03a5 1A       		.byte	0x1a
 7976 03a6 9F       		.byte	0x9f
 7977 03a7 48000000 		.4byte	.LVL36
 7978 03ab 4E000000 		.4byte	.LVL38
 7979 03af 6A00     		.2byte	0x6a
 7980 03b1 F3       		.byte	0xf3
 7981 03b2 01       		.uleb128 0x1
 7982 03b3 51       		.byte	0x51
 7983 03b4 23       		.byte	0x23
 7984 03b5 01       		.uleb128 0x1
 7985 03b6 94       		.byte	0x94
 7986 03b7 01       		.byte	0x1
 7987 03b8 08       		.byte	0x8
 7988 03b9 FF       		.byte	0xff
 7989 03ba 1A       		.byte	0x1a
 7990 03bb 40       		.byte	0x40
 7991 03bc 24       		.byte	0x24
 7992 03bd F3       		.byte	0xf3
 7993 03be 01       		.uleb128 0x1
 7994 03bf 51       		.byte	0x51
 7995 03c0 94       		.byte	0x94
 7996 03c1 01       		.byte	0x1
 7997 03c2 08       		.byte	0x8
 7998 03c3 FF       		.byte	0xff
 7999 03c4 1A       		.byte	0x1a
 8000 03c5 48       		.byte	0x48
 8001 03c6 24       		.byte	0x24
 8002 03c7 21       		.byte	0x21
 8003 03c8 F3       		.byte	0xf3
 8004 03c9 01       		.uleb128 0x1
 8005 03ca 51       		.byte	0x51
 8006 03cb 23       		.byte	0x23
 8007 03cc 02       		.uleb128 0x2
 8008 03cd 94       		.byte	0x94
 8009 03ce 01       		.byte	0x1
 8010 03cf 08       		.byte	0x8
 8011 03d0 FF       		.byte	0xff
ARM GAS  C:\Users\Phuong\AppData\Local\Temp\ccawWFGQ.s 			page 162


 8012 03d1 1A       		.byte	0x1a
 8013 03d2 38       		.byte	0x38
 8014 03d3 24       		.byte	0x24
 8015 03d4 21       		.byte	0x21
 8016 03d5 F3       		.byte	0xf3
 8017 03d6 01       		.uleb128 0x1
 8018 03d7 51       		.byte	0x51
 8019 03d8 23       		.byte	0x23
 8020 03d9 03       		.uleb128 0x3
 8021 03da 94       		.byte	0x94
 8022 03db 01       		.byte	0x1
 8023 03dc 08       		.byte	0x8
 8024 03dd FF       		.byte	0xff
 8025 03de 1A       		.byte	0x1a
 8026 03df 21       		.byte	0x21
 8027 03e0 F3       		.byte	0xf3
 8028 03e1 01       		.uleb128 0x1
 8029 03e2 51       		.byte	0x51
 8030 03e3 23       		.byte	0x23
 8031 03e4 05       		.uleb128 0x5
 8032 03e5 94       		.byte	0x94
 8033 03e6 01       		.byte	0x1
 8034 03e7 08       		.byte	0x8
 8035 03e8 FF       		.byte	0xff
 8036 03e9 1A       		.byte	0x1a
 8037 03ea 40       		.byte	0x40
 8038 03eb 24       		.byte	0x24
 8039 03ec F3       		.byte	0xf3
 8040 03ed 01       		.uleb128 0x1
 8041 03ee 51       		.byte	0x51
 8042 03ef 23       		.byte	0x23
 8043 03f0 04       		.uleb128 0x4
 8044 03f1 94       		.byte	0x94
 8045 03f2 01       		.byte	0x1
 8046 03f3 08       		.byte	0x8
 8047 03f4 FF       		.byte	0xff
 8048 03f5 1A       		.byte	0x1a
 8049 03f6 48       		.byte	0x48
 8050 03f7 24       		.byte	0x24
 8051 03f8 21       		.byte	0x21
 8052 03f9 F3       		.byte	0xf3
 8053 03fa 01       		.uleb128 0x1
 8054 03fb 51       		.byte	0x51
 8055 03fc 23       		.byte	0x23
 8056 03fd 06       		.uleb128 0x6
 8057 03fe 94       		.byte	0x94
 8058 03ff 01       		.byte	0x1
 8059 0400 08       		.byte	0x8
 8060 0401 FF       		.byte	0xff
 8061 0402 1A       		.byte	0x1a
 8062 0403 38       		.byte	0x38
 8063 0404 24       		.byte	0x24
 8064 0405 21       		.byte	0x21
 8065 0406 F3       		.byte	0xf3
 8066 0407 01       		.uleb128 0x1
 8067 0408 51       		.byte	0x51
 8068 0409 23       		.byte	0x23
ARM GAS  C:\Users\Phuong\AppData\Local\Temp\ccawWFGQ.s 			page 163


 8069 040a 07       		.uleb128 0x7
 8070 040b 94       		.byte	0x94
 8071 040c 01       		.byte	0x1
 8072 040d 08       		.byte	0x8
 8073 040e FF       		.byte	0xff
 8074 040f 1A       		.byte	0x1a
 8075 0410 21       		.byte	0x21
 8076 0411 34       		.byte	0x34
 8077 0412 25       		.byte	0x25
 8078 0413 27       		.byte	0x27
 8079 0414 0C       		.byte	0xc
 8080 0415 0F0F0F0F 		.4byte	0xf0f0f0f
 8081 0419 1A       		.byte	0x1a
 8082 041a 9F       		.byte	0x9f
 8083 041b 4E000000 		.4byte	.LVL38
 8084 041f 54000000 		.4byte	.LVL40
 8085 0423 0100     		.2byte	0x1
 8086 0425 51       		.byte	0x51
 8087 0426 54000000 		.4byte	.LVL40
 8088 042a 56000000 		.4byte	.LVL41
 8089 042e 0C00     		.2byte	0xc
 8090 0430 74       		.byte	0x74
 8091 0431 00       		.sleb128 0
 8092 0432 72       		.byte	0x72
 8093 0433 00       		.sleb128 0
 8094 0434 27       		.byte	0x27
 8095 0435 0C       		.byte	0xc
 8096 0436 10101010 		.4byte	0x10101010
 8097 043a 1A       		.byte	0x1a
 8098 043b 9F       		.byte	0x9f
 8099 043c 56000000 		.4byte	.LVL41
 8100 0440 58000000 		.4byte	.LVL42
 8101 0444 A300     		.2byte	0xa3
 8102 0446 F3       		.byte	0xf3
 8103 0447 01       		.uleb128 0x1
 8104 0448 51       		.byte	0x51
 8105 0449 23       		.byte	0x23
 8106 044a 01       		.uleb128 0x1
 8107 044b 94       		.byte	0x94
 8108 044c 01       		.byte	0x1
 8109 044d 08       		.byte	0x8
 8110 044e FF       		.byte	0xff
 8111 044f 1A       		.byte	0x1a
 8112 0450 40       		.byte	0x40
 8113 0451 24       		.byte	0x24
 8114 0452 F3       		.byte	0xf3
 8115 0453 01       		.uleb128 0x1
 8116 0454 51       		.byte	0x51
 8117 0455 94       		.byte	0x94
 8118 0456 01       		.byte	0x1
 8119 0457 08       		.byte	0x8
 8120 0458 FF       		.byte	0xff
 8121 0459 1A       		.byte	0x1a
 8122 045a 48       		.byte	0x48
 8123 045b 24       		.byte	0x24
 8124 045c 21       		.byte	0x21
 8125 045d F3       		.byte	0xf3
ARM GAS  C:\Users\Phuong\AppData\Local\Temp\ccawWFGQ.s 			page 164


 8126 045e 01       		.uleb128 0x1
 8127 045f 51       		.byte	0x51
 8128 0460 23       		.byte	0x23
 8129 0461 02       		.uleb128 0x2
 8130 0462 94       		.byte	0x94
 8131 0463 01       		.byte	0x1
 8132 0464 08       		.byte	0x8
 8133 0465 FF       		.byte	0xff
 8134 0466 1A       		.byte	0x1a
 8135 0467 38       		.byte	0x38
 8136 0468 24       		.byte	0x24
 8137 0469 21       		.byte	0x21
 8138 046a F3       		.byte	0xf3
 8139 046b 01       		.uleb128 0x1
 8140 046c 51       		.byte	0x51
 8141 046d 23       		.byte	0x23
 8142 046e 03       		.uleb128 0x3
 8143 046f 94       		.byte	0x94
 8144 0470 01       		.byte	0x1
 8145 0471 08       		.byte	0x8
 8146 0472 FF       		.byte	0xff
 8147 0473 1A       		.byte	0x1a
 8148 0474 21       		.byte	0x21
 8149 0475 F3       		.byte	0xf3
 8150 0476 01       		.uleb128 0x1
 8151 0477 51       		.byte	0x51
 8152 0478 23       		.byte	0x23
 8153 0479 01       		.uleb128 0x1
 8154 047a 94       		.byte	0x94
 8155 047b 01       		.byte	0x1
 8156 047c 08       		.byte	0x8
 8157 047d FF       		.byte	0xff
 8158 047e 1A       		.byte	0x1a
 8159 047f 40       		.byte	0x40
 8160 0480 24       		.byte	0x24
 8161 0481 F3       		.byte	0xf3
 8162 0482 01       		.uleb128 0x1
 8163 0483 51       		.byte	0x51
 8164 0484 94       		.byte	0x94
 8165 0485 01       		.byte	0x1
 8166 0486 08       		.byte	0x8
 8167 0487 FF       		.byte	0xff
 8168 0488 1A       		.byte	0x1a
 8169 0489 48       		.byte	0x48
 8170 048a 24       		.byte	0x24
 8171 048b 21       		.byte	0x21
 8172 048c F3       		.byte	0xf3
 8173 048d 01       		.uleb128 0x1
 8174 048e 51       		.byte	0x51
 8175 048f 23       		.byte	0x23
 8176 0490 02       		.uleb128 0x2
 8177 0491 94       		.byte	0x94
 8178 0492 01       		.byte	0x1
 8179 0493 08       		.byte	0x8
 8180 0494 FF       		.byte	0xff
 8181 0495 1A       		.byte	0x1a
 8182 0496 38       		.byte	0x38
ARM GAS  C:\Users\Phuong\AppData\Local\Temp\ccawWFGQ.s 			page 165


 8183 0497 24       		.byte	0x24
 8184 0498 21       		.byte	0x21
 8185 0499 F3       		.byte	0xf3
 8186 049a 01       		.uleb128 0x1
 8187 049b 51       		.byte	0x51
 8188 049c 23       		.byte	0x23
 8189 049d 03       		.uleb128 0x3
 8190 049e 94       		.byte	0x94
 8191 049f 01       		.byte	0x1
 8192 04a0 08       		.byte	0x8
 8193 04a1 FF       		.byte	0xff
 8194 04a2 1A       		.byte	0x1a
 8195 04a3 21       		.byte	0x21
 8196 04a4 F3       		.byte	0xf3
 8197 04a5 01       		.uleb128 0x1
 8198 04a6 51       		.byte	0x51
 8199 04a7 23       		.byte	0x23
 8200 04a8 05       		.uleb128 0x5
 8201 04a9 94       		.byte	0x94
 8202 04aa 01       		.byte	0x1
 8203 04ab 08       		.byte	0x8
 8204 04ac FF       		.byte	0xff
 8205 04ad 1A       		.byte	0x1a
 8206 04ae 40       		.byte	0x40
 8207 04af 24       		.byte	0x24
 8208 04b0 F3       		.byte	0xf3
 8209 04b1 01       		.uleb128 0x1
 8210 04b2 51       		.byte	0x51
 8211 04b3 23       		.byte	0x23
 8212 04b4 04       		.uleb128 0x4
 8213 04b5 94       		.byte	0x94
 8214 04b6 01       		.byte	0x1
 8215 04b7 08       		.byte	0x8
 8216 04b8 FF       		.byte	0xff
 8217 04b9 1A       		.byte	0x1a
 8218 04ba 48       		.byte	0x48
 8219 04bb 24       		.byte	0x24
 8220 04bc 21       		.byte	0x21
 8221 04bd F3       		.byte	0xf3
 8222 04be 01       		.uleb128 0x1
 8223 04bf 51       		.byte	0x51
 8224 04c0 23       		.byte	0x23
 8225 04c1 06       		.uleb128 0x6
 8226 04c2 94       		.byte	0x94
 8227 04c3 01       		.byte	0x1
 8228 04c4 08       		.byte	0x8
 8229 04c5 FF       		.byte	0xff
 8230 04c6 1A       		.byte	0x1a
 8231 04c7 38       		.byte	0x38
 8232 04c8 24       		.byte	0x24
 8233 04c9 21       		.byte	0x21
 8234 04ca F3       		.byte	0xf3
 8235 04cb 01       		.uleb128 0x1
 8236 04cc 51       		.byte	0x51
 8237 04cd 23       		.byte	0x23
 8238 04ce 07       		.uleb128 0x7
 8239 04cf 94       		.byte	0x94
ARM GAS  C:\Users\Phuong\AppData\Local\Temp\ccawWFGQ.s 			page 166


 8240 04d0 01       		.byte	0x1
 8241 04d1 08       		.byte	0x8
 8242 04d2 FF       		.byte	0xff
 8243 04d3 1A       		.byte	0x1a
 8244 04d4 21       		.byte	0x21
 8245 04d5 34       		.byte	0x34
 8246 04d6 25       		.byte	0x25
 8247 04d7 27       		.byte	0x27
 8248 04d8 0C       		.byte	0xc
 8249 04d9 0F0F0F0F 		.4byte	0xf0f0f0f
 8250 04dd 1A       		.byte	0x1a
 8251 04de 27       		.byte	0x27
 8252 04df 72       		.byte	0x72
 8253 04e0 00       		.sleb128 0
 8254 04e1 27       		.byte	0x27
 8255 04e2 0C       		.byte	0xc
 8256 04e3 10101010 		.4byte	0x10101010
 8257 04e7 1A       		.byte	0x1a
 8258 04e8 9F       		.byte	0x9f
 8259 04e9 58000000 		.4byte	.LVL42
 8260 04ed 5C000000 		.4byte	.LVL43
 8261 04f1 D500     		.2byte	0xd5
 8262 04f3 F3       		.byte	0xf3
 8263 04f4 01       		.uleb128 0x1
 8264 04f5 51       		.byte	0x51
 8265 04f6 23       		.byte	0x23
 8266 04f7 01       		.uleb128 0x1
 8267 04f8 94       		.byte	0x94
 8268 04f9 01       		.byte	0x1
 8269 04fa 08       		.byte	0x8
 8270 04fb FF       		.byte	0xff
 8271 04fc 1A       		.byte	0x1a
 8272 04fd 40       		.byte	0x40
 8273 04fe 24       		.byte	0x24
 8274 04ff F3       		.byte	0xf3
 8275 0500 01       		.uleb128 0x1
 8276 0501 51       		.byte	0x51
 8277 0502 94       		.byte	0x94
 8278 0503 01       		.byte	0x1
 8279 0504 08       		.byte	0x8
 8280 0505 FF       		.byte	0xff
 8281 0506 1A       		.byte	0x1a
 8282 0507 48       		.byte	0x48
 8283 0508 24       		.byte	0x24
 8284 0509 21       		.byte	0x21
 8285 050a F3       		.byte	0xf3
 8286 050b 01       		.uleb128 0x1
 8287 050c 51       		.byte	0x51
 8288 050d 23       		.byte	0x23
 8289 050e 02       		.uleb128 0x2
 8290 050f 94       		.byte	0x94
 8291 0510 01       		.byte	0x1
 8292 0511 08       		.byte	0x8
 8293 0512 FF       		.byte	0xff
 8294 0513 1A       		.byte	0x1a
 8295 0514 38       		.byte	0x38
 8296 0515 24       		.byte	0x24
ARM GAS  C:\Users\Phuong\AppData\Local\Temp\ccawWFGQ.s 			page 167


 8297 0516 21       		.byte	0x21
 8298 0517 F3       		.byte	0xf3
 8299 0518 01       		.uleb128 0x1
 8300 0519 51       		.byte	0x51
 8301 051a 23       		.byte	0x23
 8302 051b 03       		.uleb128 0x3
 8303 051c 94       		.byte	0x94
 8304 051d 01       		.byte	0x1
 8305 051e 08       		.byte	0x8
 8306 051f FF       		.byte	0xff
 8307 0520 1A       		.byte	0x1a
 8308 0521 21       		.byte	0x21
 8309 0522 F3       		.byte	0xf3
 8310 0523 01       		.uleb128 0x1
 8311 0524 51       		.byte	0x51
 8312 0525 23       		.byte	0x23
 8313 0526 01       		.uleb128 0x1
 8314 0527 94       		.byte	0x94
 8315 0528 01       		.byte	0x1
 8316 0529 08       		.byte	0x8
 8317 052a FF       		.byte	0xff
 8318 052b 1A       		.byte	0x1a
 8319 052c 40       		.byte	0x40
 8320 052d 24       		.byte	0x24
 8321 052e F3       		.byte	0xf3
 8322 052f 01       		.uleb128 0x1
 8323 0530 51       		.byte	0x51
 8324 0531 94       		.byte	0x94
 8325 0532 01       		.byte	0x1
 8326 0533 08       		.byte	0x8
 8327 0534 FF       		.byte	0xff
 8328 0535 1A       		.byte	0x1a
 8329 0536 48       		.byte	0x48
 8330 0537 24       		.byte	0x24
 8331 0538 21       		.byte	0x21
 8332 0539 F3       		.byte	0xf3
 8333 053a 01       		.uleb128 0x1
 8334 053b 51       		.byte	0x51
 8335 053c 23       		.byte	0x23
 8336 053d 02       		.uleb128 0x2
 8337 053e 94       		.byte	0x94
 8338 053f 01       		.byte	0x1
 8339 0540 08       		.byte	0x8
 8340 0541 FF       		.byte	0xff
 8341 0542 1A       		.byte	0x1a
 8342 0543 38       		.byte	0x38
 8343 0544 24       		.byte	0x24
 8344 0545 21       		.byte	0x21
 8345 0546 F3       		.byte	0xf3
 8346 0547 01       		.uleb128 0x1
 8347 0548 51       		.byte	0x51
 8348 0549 23       		.byte	0x23
 8349 054a 03       		.uleb128 0x3
 8350 054b 94       		.byte	0x94
 8351 054c 01       		.byte	0x1
 8352 054d 08       		.byte	0x8
 8353 054e FF       		.byte	0xff
ARM GAS  C:\Users\Phuong\AppData\Local\Temp\ccawWFGQ.s 			page 168


 8354 054f 1A       		.byte	0x1a
 8355 0550 21       		.byte	0x21
 8356 0551 F3       		.byte	0xf3
 8357 0552 01       		.uleb128 0x1
 8358 0553 51       		.byte	0x51
 8359 0554 23       		.byte	0x23
 8360 0555 05       		.uleb128 0x5
 8361 0556 94       		.byte	0x94
 8362 0557 01       		.byte	0x1
 8363 0558 08       		.byte	0x8
 8364 0559 FF       		.byte	0xff
 8365 055a 1A       		.byte	0x1a
 8366 055b 40       		.byte	0x40
 8367 055c 24       		.byte	0x24
 8368 055d F3       		.byte	0xf3
 8369 055e 01       		.uleb128 0x1
 8370 055f 51       		.byte	0x51
 8371 0560 23       		.byte	0x23
 8372 0561 04       		.uleb128 0x4
 8373 0562 94       		.byte	0x94
 8374 0563 01       		.byte	0x1
 8375 0564 08       		.byte	0x8
 8376 0565 FF       		.byte	0xff
 8377 0566 1A       		.byte	0x1a
 8378 0567 48       		.byte	0x48
 8379 0568 24       		.byte	0x24
 8380 0569 21       		.byte	0x21
 8381 056a F3       		.byte	0xf3
 8382 056b 01       		.uleb128 0x1
 8383 056c 51       		.byte	0x51
 8384 056d 23       		.byte	0x23
 8385 056e 06       		.uleb128 0x6
 8386 056f 94       		.byte	0x94
 8387 0570 01       		.byte	0x1
 8388 0571 08       		.byte	0x8
 8389 0572 FF       		.byte	0xff
 8390 0573 1A       		.byte	0x1a
 8391 0574 38       		.byte	0x38
 8392 0575 24       		.byte	0x24
 8393 0576 21       		.byte	0x21
 8394 0577 F3       		.byte	0xf3
 8395 0578 01       		.uleb128 0x1
 8396 0579 51       		.byte	0x51
 8397 057a 23       		.byte	0x23
 8398 057b 07       		.uleb128 0x7
 8399 057c 94       		.byte	0x94
 8400 057d 01       		.byte	0x1
 8401 057e 08       		.byte	0x8
 8402 057f FF       		.byte	0xff
 8403 0580 1A       		.byte	0x1a
 8404 0581 21       		.byte	0x21
 8405 0582 34       		.byte	0x34
 8406 0583 25       		.byte	0x25
 8407 0584 27       		.byte	0x27
 8408 0585 0C       		.byte	0xc
 8409 0586 0F0F0F0F 		.4byte	0xf0f0f0f
 8410 058a 1A       		.byte	0x1a
ARM GAS  C:\Users\Phuong\AppData\Local\Temp\ccawWFGQ.s 			page 169


 8411 058b 27       		.byte	0x27
 8412 058c F3       		.byte	0xf3
 8413 058d 01       		.uleb128 0x1
 8414 058e 51       		.byte	0x51
 8415 058f 23       		.byte	0x23
 8416 0590 05       		.uleb128 0x5
 8417 0591 94       		.byte	0x94
 8418 0592 01       		.byte	0x1
 8419 0593 08       		.byte	0x8
 8420 0594 FF       		.byte	0xff
 8421 0595 1A       		.byte	0x1a
 8422 0596 40       		.byte	0x40
 8423 0597 24       		.byte	0x24
 8424 0598 F3       		.byte	0xf3
 8425 0599 01       		.uleb128 0x1
 8426 059a 51       		.byte	0x51
 8427 059b 23       		.byte	0x23
 8428 059c 04       		.uleb128 0x4
 8429 059d 94       		.byte	0x94
 8430 059e 01       		.byte	0x1
 8431 059f 08       		.byte	0x8
 8432 05a0 FF       		.byte	0xff
 8433 05a1 1A       		.byte	0x1a
 8434 05a2 48       		.byte	0x48
 8435 05a3 24       		.byte	0x24
 8436 05a4 21       		.byte	0x21
 8437 05a5 F3       		.byte	0xf3
 8438 05a6 01       		.uleb128 0x1
 8439 05a7 51       		.byte	0x51
 8440 05a8 23       		.byte	0x23
 8441 05a9 06       		.uleb128 0x6
 8442 05aa 94       		.byte	0x94
 8443 05ab 01       		.byte	0x1
 8444 05ac 08       		.byte	0x8
 8445 05ad FF       		.byte	0xff
 8446 05ae 1A       		.byte	0x1a
 8447 05af 38       		.byte	0x38
 8448 05b0 24       		.byte	0x24
 8449 05b1 21       		.byte	0x21
 8450 05b2 F3       		.byte	0xf3
 8451 05b3 01       		.uleb128 0x1
 8452 05b4 51       		.byte	0x51
 8453 05b5 23       		.byte	0x23
 8454 05b6 07       		.uleb128 0x7
 8455 05b7 94       		.byte	0x94
 8456 05b8 01       		.byte	0x1
 8457 05b9 08       		.byte	0x8
 8458 05ba FF       		.byte	0xff
 8459 05bb 1A       		.byte	0x1a
 8460 05bc 21       		.byte	0x21
 8461 05bd 27       		.byte	0x27
 8462 05be 70       		.byte	0x70
 8463 05bf 00       		.sleb128 0
 8464 05c0 27       		.byte	0x27
 8465 05c1 0C       		.byte	0xc
 8466 05c2 10101010 		.4byte	0x10101010
 8467 05c6 1A       		.byte	0x1a
ARM GAS  C:\Users\Phuong\AppData\Local\Temp\ccawWFGQ.s 			page 170


 8468 05c7 9F       		.byte	0x9f
 8469 05c8 5C000000 		.4byte	.LVL43
 8470 05cc 36010000 		.4byte	.LVL52
 8471 05d0 3E01     		.2byte	0x13e
 8472 05d2 F3       		.byte	0xf3
 8473 05d3 01       		.uleb128 0x1
 8474 05d4 51       		.byte	0x51
 8475 05d5 23       		.byte	0x23
 8476 05d6 01       		.uleb128 0x1
 8477 05d7 94       		.byte	0x94
 8478 05d8 01       		.byte	0x1
 8479 05d9 08       		.byte	0x8
 8480 05da FF       		.byte	0xff
 8481 05db 1A       		.byte	0x1a
 8482 05dc 40       		.byte	0x40
 8483 05dd 24       		.byte	0x24
 8484 05de F3       		.byte	0xf3
 8485 05df 01       		.uleb128 0x1
 8486 05e0 51       		.byte	0x51
 8487 05e1 94       		.byte	0x94
 8488 05e2 01       		.byte	0x1
 8489 05e3 08       		.byte	0x8
 8490 05e4 FF       		.byte	0xff
 8491 05e5 1A       		.byte	0x1a
 8492 05e6 48       		.byte	0x48
 8493 05e7 24       		.byte	0x24
 8494 05e8 21       		.byte	0x21
 8495 05e9 F3       		.byte	0xf3
 8496 05ea 01       		.uleb128 0x1
 8497 05eb 51       		.byte	0x51
 8498 05ec 23       		.byte	0x23
 8499 05ed 02       		.uleb128 0x2
 8500 05ee 94       		.byte	0x94
 8501 05ef 01       		.byte	0x1
 8502 05f0 08       		.byte	0x8
 8503 05f1 FF       		.byte	0xff
 8504 05f2 1A       		.byte	0x1a
 8505 05f3 38       		.byte	0x38
 8506 05f4 24       		.byte	0x24
 8507 05f5 21       		.byte	0x21
 8508 05f6 F3       		.byte	0xf3
 8509 05f7 01       		.uleb128 0x1
 8510 05f8 51       		.byte	0x51
 8511 05f9 23       		.byte	0x23
 8512 05fa 03       		.uleb128 0x3
 8513 05fb 94       		.byte	0x94
 8514 05fc 01       		.byte	0x1
 8515 05fd 08       		.byte	0x8
 8516 05fe FF       		.byte	0xff
 8517 05ff 1A       		.byte	0x1a
 8518 0600 21       		.byte	0x21
 8519 0601 F3       		.byte	0xf3
 8520 0602 01       		.uleb128 0x1
 8521 0603 51       		.byte	0x51
 8522 0604 23       		.byte	0x23
 8523 0605 01       		.uleb128 0x1
 8524 0606 94       		.byte	0x94
ARM GAS  C:\Users\Phuong\AppData\Local\Temp\ccawWFGQ.s 			page 171


 8525 0607 01       		.byte	0x1
 8526 0608 08       		.byte	0x8
 8527 0609 FF       		.byte	0xff
 8528 060a 1A       		.byte	0x1a
 8529 060b 40       		.byte	0x40
 8530 060c 24       		.byte	0x24
 8531 060d F3       		.byte	0xf3
 8532 060e 01       		.uleb128 0x1
 8533 060f 51       		.byte	0x51
 8534 0610 94       		.byte	0x94
 8535 0611 01       		.byte	0x1
 8536 0612 08       		.byte	0x8
 8537 0613 FF       		.byte	0xff
 8538 0614 1A       		.byte	0x1a
 8539 0615 48       		.byte	0x48
 8540 0616 24       		.byte	0x24
 8541 0617 21       		.byte	0x21
 8542 0618 F3       		.byte	0xf3
 8543 0619 01       		.uleb128 0x1
 8544 061a 51       		.byte	0x51
 8545 061b 23       		.byte	0x23
 8546 061c 02       		.uleb128 0x2
 8547 061d 94       		.byte	0x94
 8548 061e 01       		.byte	0x1
 8549 061f 08       		.byte	0x8
 8550 0620 FF       		.byte	0xff
 8551 0621 1A       		.byte	0x1a
 8552 0622 38       		.byte	0x38
 8553 0623 24       		.byte	0x24
 8554 0624 21       		.byte	0x21
 8555 0625 F3       		.byte	0xf3
 8556 0626 01       		.uleb128 0x1
 8557 0627 51       		.byte	0x51
 8558 0628 23       		.byte	0x23
 8559 0629 03       		.uleb128 0x3
 8560 062a 94       		.byte	0x94
 8561 062b 01       		.byte	0x1
 8562 062c 08       		.byte	0x8
 8563 062d FF       		.byte	0xff
 8564 062e 1A       		.byte	0x1a
 8565 062f 21       		.byte	0x21
 8566 0630 F3       		.byte	0xf3
 8567 0631 01       		.uleb128 0x1
 8568 0632 51       		.byte	0x51
 8569 0633 23       		.byte	0x23
 8570 0634 05       		.uleb128 0x5
 8571 0635 94       		.byte	0x94
 8572 0636 01       		.byte	0x1
 8573 0637 08       		.byte	0x8
 8574 0638 FF       		.byte	0xff
 8575 0639 1A       		.byte	0x1a
 8576 063a 40       		.byte	0x40
 8577 063b 24       		.byte	0x24
 8578 063c F3       		.byte	0xf3
 8579 063d 01       		.uleb128 0x1
 8580 063e 51       		.byte	0x51
 8581 063f 23       		.byte	0x23
ARM GAS  C:\Users\Phuong\AppData\Local\Temp\ccawWFGQ.s 			page 172


 8582 0640 04       		.uleb128 0x4
 8583 0641 94       		.byte	0x94
 8584 0642 01       		.byte	0x1
 8585 0643 08       		.byte	0x8
 8586 0644 FF       		.byte	0xff
 8587 0645 1A       		.byte	0x1a
 8588 0646 48       		.byte	0x48
 8589 0647 24       		.byte	0x24
 8590 0648 21       		.byte	0x21
 8591 0649 F3       		.byte	0xf3
 8592 064a 01       		.uleb128 0x1
 8593 064b 51       		.byte	0x51
 8594 064c 23       		.byte	0x23
 8595 064d 06       		.uleb128 0x6
 8596 064e 94       		.byte	0x94
 8597 064f 01       		.byte	0x1
 8598 0650 08       		.byte	0x8
 8599 0651 FF       		.byte	0xff
 8600 0652 1A       		.byte	0x1a
 8601 0653 38       		.byte	0x38
 8602 0654 24       		.byte	0x24
 8603 0655 21       		.byte	0x21
 8604 0656 F3       		.byte	0xf3
 8605 0657 01       		.uleb128 0x1
 8606 0658 51       		.byte	0x51
 8607 0659 23       		.byte	0x23
 8608 065a 07       		.uleb128 0x7
 8609 065b 94       		.byte	0x94
 8610 065c 01       		.byte	0x1
 8611 065d 08       		.byte	0x8
 8612 065e FF       		.byte	0xff
 8613 065f 1A       		.byte	0x1a
 8614 0660 21       		.byte	0x21
 8615 0661 34       		.byte	0x34
 8616 0662 25       		.byte	0x25
 8617 0663 27       		.byte	0x27
 8618 0664 0C       		.byte	0xc
 8619 0665 0F0F0F0F 		.4byte	0xf0f0f0f
 8620 0669 1A       		.byte	0x1a
 8621 066a F3       		.byte	0xf3
 8622 066b 01       		.uleb128 0x1
 8623 066c 51       		.byte	0x51
 8624 066d 23       		.byte	0x23
 8625 066e 01       		.uleb128 0x1
 8626 066f 94       		.byte	0x94
 8627 0670 01       		.byte	0x1
 8628 0671 08       		.byte	0x8
 8629 0672 FF       		.byte	0xff
 8630 0673 1A       		.byte	0x1a
 8631 0674 40       		.byte	0x40
 8632 0675 24       		.byte	0x24
 8633 0676 F3       		.byte	0xf3
 8634 0677 01       		.uleb128 0x1
 8635 0678 51       		.byte	0x51
 8636 0679 94       		.byte	0x94
 8637 067a 01       		.byte	0x1
 8638 067b 08       		.byte	0x8
ARM GAS  C:\Users\Phuong\AppData\Local\Temp\ccawWFGQ.s 			page 173


 8639 067c FF       		.byte	0xff
 8640 067d 1A       		.byte	0x1a
 8641 067e 48       		.byte	0x48
 8642 067f 24       		.byte	0x24
 8643 0680 21       		.byte	0x21
 8644 0681 F3       		.byte	0xf3
 8645 0682 01       		.uleb128 0x1
 8646 0683 51       		.byte	0x51
 8647 0684 23       		.byte	0x23
 8648 0685 02       		.uleb128 0x2
 8649 0686 94       		.byte	0x94
 8650 0687 01       		.byte	0x1
 8651 0688 08       		.byte	0x8
 8652 0689 FF       		.byte	0xff
 8653 068a 1A       		.byte	0x1a
 8654 068b 38       		.byte	0x38
 8655 068c 24       		.byte	0x24
 8656 068d 21       		.byte	0x21
 8657 068e F3       		.byte	0xf3
 8658 068f 01       		.uleb128 0x1
 8659 0690 51       		.byte	0x51
 8660 0691 23       		.byte	0x23
 8661 0692 03       		.uleb128 0x3
 8662 0693 94       		.byte	0x94
 8663 0694 01       		.byte	0x1
 8664 0695 08       		.byte	0x8
 8665 0696 FF       		.byte	0xff
 8666 0697 1A       		.byte	0x1a
 8667 0698 21       		.byte	0x21
 8668 0699 F3       		.byte	0xf3
 8669 069a 01       		.uleb128 0x1
 8670 069b 51       		.byte	0x51
 8671 069c 23       		.byte	0x23
 8672 069d 05       		.uleb128 0x5
 8673 069e 94       		.byte	0x94
 8674 069f 01       		.byte	0x1
 8675 06a0 08       		.byte	0x8
 8676 06a1 FF       		.byte	0xff
 8677 06a2 1A       		.byte	0x1a
 8678 06a3 40       		.byte	0x40
 8679 06a4 24       		.byte	0x24
 8680 06a5 F3       		.byte	0xf3
 8681 06a6 01       		.uleb128 0x1
 8682 06a7 51       		.byte	0x51
 8683 06a8 23       		.byte	0x23
 8684 06a9 04       		.uleb128 0x4
 8685 06aa 94       		.byte	0x94
 8686 06ab 01       		.byte	0x1
 8687 06ac 08       		.byte	0x8
 8688 06ad FF       		.byte	0xff
 8689 06ae 1A       		.byte	0x1a
 8690 06af 48       		.byte	0x48
 8691 06b0 24       		.byte	0x24
 8692 06b1 21       		.byte	0x21
 8693 06b2 F3       		.byte	0xf3
 8694 06b3 01       		.uleb128 0x1
 8695 06b4 51       		.byte	0x51
ARM GAS  C:\Users\Phuong\AppData\Local\Temp\ccawWFGQ.s 			page 174


 8696 06b5 23       		.byte	0x23
 8697 06b6 06       		.uleb128 0x6
 8698 06b7 94       		.byte	0x94
 8699 06b8 01       		.byte	0x1
 8700 06b9 08       		.byte	0x8
 8701 06ba FF       		.byte	0xff
 8702 06bb 1A       		.byte	0x1a
 8703 06bc 38       		.byte	0x38
 8704 06bd 24       		.byte	0x24
 8705 06be 21       		.byte	0x21
 8706 06bf F3       		.byte	0xf3
 8707 06c0 01       		.uleb128 0x1
 8708 06c1 51       		.byte	0x51
 8709 06c2 23       		.byte	0x23
 8710 06c3 07       		.uleb128 0x7
 8711 06c4 94       		.byte	0x94
 8712 06c5 01       		.byte	0x1
 8713 06c6 08       		.byte	0x8
 8714 06c7 FF       		.byte	0xff
 8715 06c8 1A       		.byte	0x1a
 8716 06c9 21       		.byte	0x21
 8717 06ca 34       		.byte	0x34
 8718 06cb 25       		.byte	0x25
 8719 06cc 27       		.byte	0x27
 8720 06cd 0C       		.byte	0xc
 8721 06ce 0F0F0F0F 		.4byte	0xf0f0f0f
 8722 06d2 1A       		.byte	0x1a
 8723 06d3 34       		.byte	0x34
 8724 06d4 24       		.byte	0x24
 8725 06d5 21       		.byte	0x21
 8726 06d6 27       		.byte	0x27
 8727 06d7 F3       		.byte	0xf3
 8728 06d8 01       		.uleb128 0x1
 8729 06d9 51       		.byte	0x51
 8730 06da 23       		.byte	0x23
 8731 06db 05       		.uleb128 0x5
 8732 06dc 94       		.byte	0x94
 8733 06dd 01       		.byte	0x1
 8734 06de 08       		.byte	0x8
 8735 06df FF       		.byte	0xff
 8736 06e0 1A       		.byte	0x1a
 8737 06e1 40       		.byte	0x40
 8738 06e2 24       		.byte	0x24
 8739 06e3 F3       		.byte	0xf3
 8740 06e4 01       		.uleb128 0x1
 8741 06e5 51       		.byte	0x51
 8742 06e6 23       		.byte	0x23
 8743 06e7 04       		.uleb128 0x4
 8744 06e8 94       		.byte	0x94
 8745 06e9 01       		.byte	0x1
 8746 06ea 08       		.byte	0x8
 8747 06eb FF       		.byte	0xff
 8748 06ec 1A       		.byte	0x1a
 8749 06ed 48       		.byte	0x48
 8750 06ee 24       		.byte	0x24
 8751 06ef 21       		.byte	0x21
 8752 06f0 F3       		.byte	0xf3
ARM GAS  C:\Users\Phuong\AppData\Local\Temp\ccawWFGQ.s 			page 175


 8753 06f1 01       		.uleb128 0x1
 8754 06f2 51       		.byte	0x51
 8755 06f3 23       		.byte	0x23
 8756 06f4 06       		.uleb128 0x6
 8757 06f5 94       		.byte	0x94
 8758 06f6 01       		.byte	0x1
 8759 06f7 08       		.byte	0x8
 8760 06f8 FF       		.byte	0xff
 8761 06f9 1A       		.byte	0x1a
 8762 06fa 38       		.byte	0x38
 8763 06fb 24       		.byte	0x24
 8764 06fc 21       		.byte	0x21
 8765 06fd F3       		.byte	0xf3
 8766 06fe 01       		.uleb128 0x1
 8767 06ff 51       		.byte	0x51
 8768 0700 23       		.byte	0x23
 8769 0701 07       		.uleb128 0x7
 8770 0702 94       		.byte	0x94
 8771 0703 01       		.byte	0x1
 8772 0704 08       		.byte	0x8
 8773 0705 FF       		.byte	0xff
 8774 0706 1A       		.byte	0x1a
 8775 0707 21       		.byte	0x21
 8776 0708 27       		.byte	0x27
 8777 0709 0C       		.byte	0xc
 8778 070a 10101010 		.4byte	0x10101010
 8779 070e 1A       		.byte	0x1a
 8780 070f 9F       		.byte	0x9f
 8781 0710 00000000 		.4byte	0
 8782 0714 00000000 		.4byte	0
 8783              	.LLST15:
 8784 0718 00000000 		.4byte	.LVL66
 8785 071c 11000000 		.4byte	.LVL68-1
 8786 0720 0100     		.2byte	0x1
 8787 0722 50       		.byte	0x50
 8788 0723 11000000 		.4byte	.LVL68-1
 8789 0727 92000000 		.4byte	.LVL72
 8790 072b 0100     		.2byte	0x1
 8791 072d 54       		.byte	0x54
 8792 072e 92000000 		.4byte	.LVL72
 8793 0732 98000000 		.4byte	.LFE11
 8794 0736 0400     		.2byte	0x4
 8795 0738 F3       		.byte	0xf3
 8796 0739 01       		.uleb128 0x1
 8797 073a 50       		.byte	0x50
 8798 073b 9F       		.byte	0x9f
 8799 073c 00000000 		.4byte	0
 8800 0740 00000000 		.4byte	0
 8801              	.LLST16:
 8802 0744 00000000 		.4byte	.LVL66
 8803 0748 0E000000 		.4byte	.LVL67
 8804 074c 0100     		.2byte	0x1
 8805 074e 51       		.byte	0x51
 8806 074f 0E000000 		.4byte	.LVL67
 8807 0753 92000000 		.4byte	.LVL73
 8808 0757 0100     		.2byte	0x1
 8809 0759 55       		.byte	0x55
ARM GAS  C:\Users\Phuong\AppData\Local\Temp\ccawWFGQ.s 			page 176


 8810 075a 92000000 		.4byte	.LVL73
 8811 075e 98000000 		.4byte	.LFE11
 8812 0762 0400     		.2byte	0x4
 8813 0764 F3       		.byte	0xf3
 8814 0765 01       		.uleb128 0x1
 8815 0766 51       		.byte	0x51
 8816 0767 9F       		.byte	0x9f
 8817 0768 00000000 		.4byte	0
 8818 076c 00000000 		.4byte	0
 8819              	.LLST17:
 8820 0770 00000000 		.4byte	.LVL66
 8821 0774 11000000 		.4byte	.LVL68-1
 8822 0778 0100     		.2byte	0x1
 8823 077a 52       		.byte	0x52
 8824 077b 11000000 		.4byte	.LVL68-1
 8825 077f 22000000 		.4byte	.LVL70
 8826 0783 0100     		.2byte	0x1
 8827 0785 56       		.byte	0x56
 8828 0786 22000000 		.4byte	.LVL70
 8829 078a 98000000 		.4byte	.LFE11
 8830 078e 0400     		.2byte	0x4
 8831 0790 F3       		.byte	0xf3
 8832 0791 01       		.uleb128 0x1
 8833 0792 52       		.byte	0x52
 8834 0793 9F       		.byte	0x9f
 8835 0794 00000000 		.4byte	0
 8836 0798 00000000 		.4byte	0
 8837              	.LLST18:
 8838 079c 1E000000 		.4byte	.LVL69
 8839 07a0 22000000 		.4byte	.LVL70
 8840 07a4 0200     		.2byte	0x2
 8841 07a6 30       		.byte	0x30
 8842 07a7 9F       		.byte	0x9f
 8843 07a8 22000000 		.4byte	.LVL70
 8844 07ac 98000000 		.4byte	.LFE11
 8845 07b0 0100     		.2byte	0x1
 8846 07b2 53       		.byte	0x53
 8847 07b3 00000000 		.4byte	0
 8848 07b7 00000000 		.4byte	0
 8849              	.LLST19:
 8850 07bb 00000000 		.4byte	.LVL74
 8851 07bf 0D000000 		.4byte	.LVL76-1
 8852 07c3 0100     		.2byte	0x1
 8853 07c5 50       		.byte	0x50
 8854 07c6 0D000000 		.4byte	.LVL76-1
 8855 07ca 8A000000 		.4byte	.LVL81
 8856 07ce 0100     		.2byte	0x1
 8857 07d0 54       		.byte	0x54
 8858 07d1 8A000000 		.4byte	.LVL81
 8859 07d5 8C000000 		.4byte	.LFE14
 8860 07d9 0400     		.2byte	0x4
 8861 07db F3       		.byte	0xf3
 8862 07dc 01       		.uleb128 0x1
 8863 07dd 50       		.byte	0x50
 8864 07de 9F       		.byte	0x9f
 8865 07df 00000000 		.4byte	0
 8866 07e3 00000000 		.4byte	0
ARM GAS  C:\Users\Phuong\AppData\Local\Temp\ccawWFGQ.s 			page 177


 8867              	.LLST20:
 8868 07e7 00000000 		.4byte	.LVL74
 8869 07eb 0A000000 		.4byte	.LVL75
 8870 07ef 0100     		.2byte	0x1
 8871 07f1 51       		.byte	0x51
 8872 07f2 0A000000 		.4byte	.LVL75
 8873 07f6 8A000000 		.4byte	.LVL82
 8874 07fa 0100     		.2byte	0x1
 8875 07fc 55       		.byte	0x55
 8876 07fd 8A000000 		.4byte	.LVL82
 8877 0801 8C000000 		.4byte	.LFE14
 8878 0805 0400     		.2byte	0x4
 8879 0807 F3       		.byte	0xf3
 8880 0808 01       		.uleb128 0x1
 8881 0809 51       		.byte	0x51
 8882 080a 9F       		.byte	0x9f
 8883 080b 00000000 		.4byte	0
 8884 080f 00000000 		.4byte	0
 8885              	.LLST21:
 8886 0813 00000000 		.4byte	.LVL74
 8887 0817 0D000000 		.4byte	.LVL76-1
 8888 081b 0100     		.2byte	0x1
 8889 081d 52       		.byte	0x52
 8890 081e 0D000000 		.4byte	.LVL76-1
 8891 0822 8A000000 		.4byte	.LVL83
 8892 0826 0100     		.2byte	0x1
 8893 0828 56       		.byte	0x56
 8894 0829 8A000000 		.4byte	.LVL83
 8895 082d 8C000000 		.4byte	.LFE14
 8896 0831 0400     		.2byte	0x4
 8897 0833 F3       		.byte	0xf3
 8898 0834 01       		.uleb128 0x1
 8899 0835 52       		.byte	0x52
 8900 0836 9F       		.byte	0x9f
 8901 0837 00000000 		.4byte	0
 8902 083b 00000000 		.4byte	0
 8903              	.LLST22:
 8904 083f 26000000 		.4byte	.LVL78
 8905 0843 2A000000 		.4byte	.LVL79
 8906 0847 0200     		.2byte	0x2
 8907 0849 30       		.byte	0x30
 8908 084a 9F       		.byte	0x9f
 8909 084b 2A000000 		.4byte	.LVL79
 8910 084f 8C000000 		.4byte	.LFE14
 8911 0853 0100     		.2byte	0x1
 8912 0855 53       		.byte	0x53
 8913 0856 00000000 		.4byte	0
 8914 085a 00000000 		.4byte	0
 8915              	.LLST23:
 8916 085e 00000000 		.4byte	.LVL84
 8917 0862 05000000 		.4byte	.LVL85-1
 8918 0866 0100     		.2byte	0x1
 8919 0868 50       		.byte	0x50
 8920 0869 05000000 		.4byte	.LVL85-1
 8921 086d 0A000000 		.4byte	.LFE9
 8922 0871 0400     		.2byte	0x4
 8923 0873 F3       		.byte	0xf3
ARM GAS  C:\Users\Phuong\AppData\Local\Temp\ccawWFGQ.s 			page 178


 8924 0874 01       		.uleb128 0x1
 8925 0875 50       		.byte	0x50
 8926 0876 9F       		.byte	0x9f
 8927 0877 00000000 		.4byte	0
 8928 087b 00000000 		.4byte	0
 8929              	.LLST24:
 8930 087f 00000000 		.4byte	.LVL84
 8931 0883 05000000 		.4byte	.LVL85-1
 8932 0887 0100     		.2byte	0x1
 8933 0889 51       		.byte	0x51
 8934 088a 05000000 		.4byte	.LVL85-1
 8935 088e 0A000000 		.4byte	.LFE9
 8936 0892 0400     		.2byte	0x4
 8937 0894 F3       		.byte	0xf3
 8938 0895 01       		.uleb128 0x1
 8939 0896 51       		.byte	0x51
 8940 0897 9F       		.byte	0x9f
 8941 0898 00000000 		.4byte	0
 8942 089c 00000000 		.4byte	0
 8943              	.LLST25:
 8944 08a0 00000000 		.4byte	.LVL86
 8945 08a4 07000000 		.4byte	.LVL87-1
 8946 08a8 0100     		.2byte	0x1
 8947 08aa 50       		.byte	0x50
 8948 08ab 07000000 		.4byte	.LVL87-1
 8949 08af 36000000 		.4byte	.LVL94
 8950 08b3 0100     		.2byte	0x1
 8951 08b5 54       		.byte	0x54
 8952 08b6 36000000 		.4byte	.LVL94
 8953 08ba 38000000 		.4byte	.LFE10
 8954 08be 0400     		.2byte	0x4
 8955 08c0 F3       		.byte	0xf3
 8956 08c1 01       		.uleb128 0x1
 8957 08c2 50       		.byte	0x50
 8958 08c3 9F       		.byte	0x9f
 8959 08c4 00000000 		.4byte	0
 8960 08c8 00000000 		.4byte	0
 8961              	.LLST26:
 8962 08cc 00000000 		.4byte	.LVL86
 8963 08d0 07000000 		.4byte	.LVL87-1
 8964 08d4 0100     		.2byte	0x1
 8965 08d6 51       		.byte	0x51
 8966 08d7 07000000 		.4byte	.LVL87-1
 8967 08db 38000000 		.4byte	.LFE10
 8968 08df 0400     		.2byte	0x4
 8969 08e1 F3       		.byte	0xf3
 8970 08e2 01       		.uleb128 0x1
 8971 08e3 51       		.byte	0x51
 8972 08e4 9F       		.byte	0x9f
 8973 08e5 00000000 		.4byte	0
 8974 08e9 00000000 		.4byte	0
 8975              	.LLST27:
 8976 08ed 08000000 		.4byte	.LVL87
 8977 08f1 0C000000 		.4byte	.LVL88
 8978 08f5 0200     		.2byte	0x2
 8979 08f7 30       		.byte	0x30
 8980 08f8 9F       		.byte	0x9f
ARM GAS  C:\Users\Phuong\AppData\Local\Temp\ccawWFGQ.s 			page 179


 8981 08f9 0C000000 		.4byte	.LVL88
 8982 08fd 38000000 		.4byte	.LFE10
 8983 0901 0100     		.2byte	0x1
 8984 0903 53       		.byte	0x53
 8985 0904 00000000 		.4byte	0
 8986 0908 00000000 		.4byte	0
 8987              	.LLST28:
 8988 090c 10000000 		.4byte	.LVL89
 8989 0910 1C000000 		.4byte	.LVL90
 8990 0914 0100     		.2byte	0x1
 8991 0916 50       		.byte	0x50
 8992 0917 1C000000 		.4byte	.LVL90
 8993 091b 30000000 		.4byte	.LVL93
 8994 091f 0200     		.2byte	0x2
 8995 0921 30       		.byte	0x30
 8996 0922 9F       		.byte	0x9f
 8997 0923 00000000 		.4byte	0
 8998 0927 00000000 		.4byte	0
 8999              	.LLST29:
 9000 092b 22000000 		.4byte	.LVL91
 9001 092f 2E000000 		.4byte	.LVL92
 9002 0933 0100     		.2byte	0x1
 9003 0935 50       		.byte	0x50
 9004 0936 2E000000 		.4byte	.LVL92
 9005 093a 30000000 		.4byte	.LVL93
 9006 093e 0200     		.2byte	0x2
 9007 0940 30       		.byte	0x30
 9008 0941 9F       		.byte	0x9f
 9009 0942 00000000 		.4byte	0
 9010 0946 00000000 		.4byte	0
 9011              	.LLST30:
 9012 094a 00000000 		.4byte	.LVL95
 9013 094e 0B000000 		.4byte	.LVL97-1
 9014 0952 0100     		.2byte	0x1
 9015 0954 50       		.byte	0x50
 9016 0955 0B000000 		.4byte	.LVL97-1
 9017 0959 1C000000 		.4byte	.LFE12
 9018 095d 0400     		.2byte	0x4
 9019 095f F3       		.byte	0xf3
 9020 0960 01       		.uleb128 0x1
 9021 0961 50       		.byte	0x50
 9022 0962 9F       		.byte	0x9f
 9023 0963 00000000 		.4byte	0
 9024 0967 00000000 		.4byte	0
 9025              	.LLST31:
 9026 096b 00000000 		.4byte	.LVL95
 9027 096f 08000000 		.4byte	.LVL96
 9028 0973 0100     		.2byte	0x1
 9029 0975 51       		.byte	0x51
 9030 0976 08000000 		.4byte	.LVL96
 9031 097a 0B000000 		.4byte	.LVL97-1
 9032 097e 0100     		.2byte	0x1
 9033 0980 52       		.byte	0x52
 9034 0981 0B000000 		.4byte	.LVL97-1
 9035 0985 1C000000 		.4byte	.LFE12
 9036 0989 0400     		.2byte	0x4
 9037 098b F3       		.byte	0xf3
ARM GAS  C:\Users\Phuong\AppData\Local\Temp\ccawWFGQ.s 			page 180


 9038 098c 01       		.uleb128 0x1
 9039 098d 51       		.byte	0x51
 9040 098e 9F       		.byte	0x9f
 9041 098f 00000000 		.4byte	0
 9042 0993 00000000 		.4byte	0
 9043              	.LLST32:
 9044 0997 00000000 		.4byte	.LVL99
 9045 099b 0A000000 		.4byte	.LVL101
 9046 099f 0100     		.2byte	0x1
 9047 09a1 50       		.byte	0x50
 9048 09a2 0A000000 		.4byte	.LVL101
 9049 09a6 0D000000 		.4byte	.LVL102-1
 9050 09aa 0100     		.2byte	0x1
 9051 09ac 51       		.byte	0x51
 9052 09ad 0D000000 		.4byte	.LVL102-1
 9053 09b1 1E000000 		.4byte	.LFE13
 9054 09b5 0400     		.2byte	0x4
 9055 09b7 F3       		.byte	0xf3
 9056 09b8 01       		.uleb128 0x1
 9057 09b9 50       		.byte	0x50
 9058 09ba 9F       		.byte	0x9f
 9059 09bb 00000000 		.4byte	0
 9060 09bf 00000000 		.4byte	0
 9061              	.LLST33:
 9062 09c3 00000000 		.4byte	.LVL99
 9063 09c7 08000000 		.4byte	.LVL100
 9064 09cb 0100     		.2byte	0x1
 9065 09cd 51       		.byte	0x51
 9066 09ce 08000000 		.4byte	.LVL100
 9067 09d2 0D000000 		.4byte	.LVL102-1
 9068 09d6 0100     		.2byte	0x1
 9069 09d8 52       		.byte	0x52
 9070 09d9 0D000000 		.4byte	.LVL102-1
 9071 09dd 1E000000 		.4byte	.LFE13
 9072 09e1 0400     		.2byte	0x4
 9073 09e3 F3       		.byte	0xf3
 9074 09e4 01       		.uleb128 0x1
 9075 09e5 51       		.byte	0x51
 9076 09e6 9F       		.byte	0x9f
 9077 09e7 00000000 		.4byte	0
 9078 09eb 00000000 		.4byte	0
 9079              	.LLST34:
 9080 09ef 00000000 		.4byte	.LVL104
 9081 09f3 0B000000 		.4byte	.LVL106-1
 9082 09f7 0100     		.2byte	0x1
 9083 09f9 50       		.byte	0x50
 9084 09fa 0B000000 		.4byte	.LVL106-1
 9085 09fe 1C000000 		.4byte	.LFE15
 9086 0a02 0400     		.2byte	0x4
 9087 0a04 F3       		.byte	0xf3
 9088 0a05 01       		.uleb128 0x1
 9089 0a06 50       		.byte	0x50
 9090 0a07 9F       		.byte	0x9f
 9091 0a08 00000000 		.4byte	0
 9092 0a0c 00000000 		.4byte	0
 9093              	.LLST35:
 9094 0a10 00000000 		.4byte	.LVL104
ARM GAS  C:\Users\Phuong\AppData\Local\Temp\ccawWFGQ.s 			page 181


 9095 0a14 08000000 		.4byte	.LVL105
 9096 0a18 0100     		.2byte	0x1
 9097 0a1a 51       		.byte	0x51
 9098 0a1b 08000000 		.4byte	.LVL105
 9099 0a1f 0B000000 		.4byte	.LVL106-1
 9100 0a23 0100     		.2byte	0x1
 9101 0a25 52       		.byte	0x52
 9102 0a26 0B000000 		.4byte	.LVL106-1
 9103 0a2a 1C000000 		.4byte	.LFE15
 9104 0a2e 0400     		.2byte	0x4
 9105 0a30 F3       		.byte	0xf3
 9106 0a31 01       		.uleb128 0x1
 9107 0a32 51       		.byte	0x51
 9108 0a33 9F       		.byte	0x9f
 9109 0a34 00000000 		.4byte	0
 9110 0a38 00000000 		.4byte	0
 9111              	.LLST36:
 9112 0a3c 00000000 		.4byte	.LVL108
 9113 0a40 0A000000 		.4byte	.LVL110
 9114 0a44 0100     		.2byte	0x1
 9115 0a46 50       		.byte	0x50
 9116 0a47 0A000000 		.4byte	.LVL110
 9117 0a4b 0D000000 		.4byte	.LVL111-1
 9118 0a4f 0100     		.2byte	0x1
 9119 0a51 51       		.byte	0x51
 9120 0a52 0D000000 		.4byte	.LVL111-1
 9121 0a56 1E000000 		.4byte	.LFE16
 9122 0a5a 0400     		.2byte	0x4
 9123 0a5c F3       		.byte	0xf3
 9124 0a5d 01       		.uleb128 0x1
 9125 0a5e 50       		.byte	0x50
 9126 0a5f 9F       		.byte	0x9f
 9127 0a60 00000000 		.4byte	0
 9128 0a64 00000000 		.4byte	0
 9129              	.LLST37:
 9130 0a68 00000000 		.4byte	.LVL108
 9131 0a6c 08000000 		.4byte	.LVL109
 9132 0a70 0100     		.2byte	0x1
 9133 0a72 51       		.byte	0x51
 9134 0a73 08000000 		.4byte	.LVL109
 9135 0a77 0D000000 		.4byte	.LVL111-1
 9136 0a7b 0100     		.2byte	0x1
 9137 0a7d 52       		.byte	0x52
 9138 0a7e 0D000000 		.4byte	.LVL111-1
 9139 0a82 1E000000 		.4byte	.LFE16
 9140 0a86 0400     		.2byte	0x4
 9141 0a88 F3       		.byte	0xf3
 9142 0a89 01       		.uleb128 0x1
 9143 0a8a 51       		.byte	0x51
 9144 0a8b 9F       		.byte	0x9f
 9145 0a8c 00000000 		.4byte	0
 9146 0a90 00000000 		.4byte	0
 9147              	.LLST38:
 9148 0a94 00000000 		.4byte	.LVL113
 9149 0a98 16000000 		.4byte	.LVL115
 9150 0a9c 0100     		.2byte	0x1
 9151 0a9e 50       		.byte	0x50
ARM GAS  C:\Users\Phuong\AppData\Local\Temp\ccawWFGQ.s 			page 182


 9152 0a9f 16000000 		.4byte	.LVL115
 9153 0aa3 8E000000 		.4byte	.LVL146
 9154 0aa7 0100     		.2byte	0x1
 9155 0aa9 57       		.byte	0x57
 9156 0aaa 8E000000 		.4byte	.LVL146
 9157 0aae 48020000 		.4byte	.LFE17
 9158 0ab2 0400     		.2byte	0x4
 9159 0ab4 F3       		.byte	0xf3
 9160 0ab5 01       		.uleb128 0x1
 9161 0ab6 50       		.byte	0x50
 9162 0ab7 9F       		.byte	0x9f
 9163 0ab8 00000000 		.4byte	0
 9164 0abc 00000000 		.4byte	0
 9165              	.LLST39:
 9166 0ac0 00000000 		.4byte	.LVL113
 9167 0ac4 40000000 		.4byte	.LVL119
 9168 0ac8 0100     		.2byte	0x1
 9169 0aca 51       		.byte	0x51
 9170 0acb 40000000 		.4byte	.LVL119
 9171 0acf 48020000 		.4byte	.LFE17
 9172 0ad3 0400     		.2byte	0x4
 9173 0ad5 F3       		.byte	0xf3
 9174 0ad6 01       		.uleb128 0x1
 9175 0ad7 51       		.byte	0x51
 9176 0ad8 9F       		.byte	0x9f
 9177 0ad9 00000000 		.4byte	0
 9178 0add 00000000 		.4byte	0
 9179              	.LLST40:
 9180 0ae1 00000000 		.4byte	.LVL113
 9181 0ae5 18000000 		.4byte	.LVL116
 9182 0ae9 0100     		.2byte	0x1
 9183 0aeb 52       		.byte	0x52
 9184 0aec 18000000 		.4byte	.LVL116
 9185 0af0 48020000 		.4byte	.LFE17
 9186 0af4 0200     		.2byte	0x2
 9187 0af6 91       		.byte	0x91
 9188 0af7 54       		.sleb128 -44
 9189 0af8 00000000 		.4byte	0
 9190 0afc 00000000 		.4byte	0
 9191              	.LLST41:
 9192 0b00 86000000 		.4byte	.LVL145
 9193 0b04 8E000000 		.4byte	.LVL146
 9194 0b08 0200     		.2byte	0x2
 9195 0b0a 30       		.byte	0x30
 9196 0b0b 9F       		.byte	0x9f
 9197 0b0c 8E000000 		.4byte	.LVL146
 9198 0b10 94000000 		.4byte	.LVL148
 9199 0b14 0100     		.2byte	0x1
 9200 0b16 53       		.byte	0x53
 9201 0b17 94000000 		.4byte	.LVL148
 9202 0b1b 90010000 		.4byte	.LVL160
 9203 0b1f 0200     		.2byte	0x2
 9204 0b21 7D       		.byte	0x7d
 9205 0b22 00       		.sleb128 0
 9206 0b23 90010000 		.4byte	.LVL160
 9207 0b27 92010000 		.4byte	.LVL161
 9208 0b2b 0100     		.2byte	0x1
ARM GAS  C:\Users\Phuong\AppData\Local\Temp\ccawWFGQ.s 			page 183


 9209 0b2d 53       		.byte	0x53
 9210 0b2e 92010000 		.4byte	.LVL161
 9211 0b32 0C020000 		.4byte	.LVL187
 9212 0b36 0200     		.2byte	0x2
 9213 0b38 7D       		.byte	0x7d
 9214 0b39 00       		.sleb128 0
 9215 0b3a 0C020000 		.4byte	.LVL187
 9216 0b3e 48020000 		.4byte	.LFE17
 9217 0b42 0200     		.2byte	0x2
 9218 0b44 91       		.byte	0x91
 9219 0b45 50       		.sleb128 -48
 9220 0b46 00000000 		.4byte	0
 9221 0b4a 00000000 		.4byte	0
 9222              	.LLST42:
 9223 0b4e 26000000 		.4byte	.LVL117
 9224 0b52 84000000 		.4byte	.LVL144
 9225 0b56 0100     		.2byte	0x1
 9226 0b58 53       		.byte	0x53
 9227 0b59 84000000 		.4byte	.LVL144
 9228 0b5d 8E000000 		.4byte	.LVL146
 9229 0b61 0100     		.2byte	0x1
 9230 0b63 52       		.byte	0x52
 9231 0b64 8E000000 		.4byte	.LVL146
 9232 0b68 CE000000 		.4byte	.LVL150
 9233 0b6c 0100     		.2byte	0x1
 9234 0b6e 50       		.byte	0x50
 9235 0b6f CE000000 		.4byte	.LVL150
 9236 0b73 10010000 		.4byte	.LVL153
 9237 0b77 0100     		.2byte	0x1
 9238 0b79 51       		.byte	0x51
 9239 0b7a 10010000 		.4byte	.LVL153
 9240 0b7e B0010000 		.4byte	.LVL165
 9241 0b82 0100     		.2byte	0x1
 9242 0b84 50       		.byte	0x50
 9243 0b85 B0010000 		.4byte	.LVL165
 9244 0b89 B2010000 		.4byte	.LVL166
 9245 0b8d 0100     		.2byte	0x1
 9246 0b8f 51       		.byte	0x51
 9247 0b90 B2010000 		.4byte	.LVL166
 9248 0b94 48020000 		.4byte	.LFE17
 9249 0b98 0100     		.2byte	0x1
 9250 0b9a 52       		.byte	0x52
 9251 0b9b 00000000 		.4byte	0
 9252 0b9f 00000000 		.4byte	0
 9253              	.LLST43:
 9254 0ba3 3A000000 		.4byte	.LVL118
 9255 0ba7 64000000 		.4byte	.LVL133
 9256 0bab 0100     		.2byte	0x1
 9257 0bad 50       		.byte	0x50
 9258 0bae 64000000 		.4byte	.LVL133
 9259 0bb2 80000000 		.4byte	.LVL142
 9260 0bb6 0100     		.2byte	0x1
 9261 0bb8 54       		.byte	0x54
 9262 0bb9 82000000 		.4byte	.LVL143
 9263 0bbd 8E000000 		.4byte	.LVL146
 9264 0bc1 0100     		.2byte	0x1
 9265 0bc3 54       		.byte	0x54
ARM GAS  C:\Users\Phuong\AppData\Local\Temp\ccawWFGQ.s 			page 184


 9266 0bc4 8E000000 		.4byte	.LVL146
 9267 0bc8 4C010000 		.4byte	.LVL156
 9268 0bcc 0100     		.2byte	0x1
 9269 0bce 56       		.byte	0x56
 9270 0bcf 4C010000 		.4byte	.LVL156
 9271 0bd3 8A010000 		.4byte	.LVL159
 9272 0bd7 0100     		.2byte	0x1
 9273 0bd9 51       		.byte	0x51
 9274 0bda 8A010000 		.4byte	.LVL159
 9275 0bde A0010000 		.4byte	.LVL162
 9276 0be2 0100     		.2byte	0x1
 9277 0be4 56       		.byte	0x56
 9278 0be5 A0010000 		.4byte	.LVL162
 9279 0be9 FC010000 		.4byte	.LVL186
 9280 0bed 0100     		.2byte	0x1
 9281 0bef 53       		.byte	0x53
 9282 0bf0 00000000 		.4byte	0
 9283 0bf4 00000000 		.4byte	0
 9284              	.LLST44:
 9285 0bf8 42000000 		.4byte	.LVL120
 9286 0bfc 46000000 		.4byte	.LVL122
 9287 0c00 0100     		.2byte	0x1
 9288 0c02 52       		.byte	0x52
 9289 0c03 46000000 		.4byte	.LVL122
 9290 0c07 48000000 		.4byte	.LVL123
 9291 0c0b 3A00     		.2byte	0x3a
 9292 0c0d F3       		.byte	0xf3
 9293 0c0e 01       		.uleb128 0x1
 9294 0c0f 51       		.byte	0x51
 9295 0c10 23       		.byte	0x23
 9296 0c11 04       		.uleb128 0x4
 9297 0c12 94       		.byte	0x94
 9298 0c13 01       		.byte	0x1
 9299 0c14 08       		.byte	0x8
 9300 0c15 FF       		.byte	0xff
 9301 0c16 1A       		.byte	0x1a
 9302 0c17 48       		.byte	0x48
 9303 0c18 24       		.byte	0x24
 9304 0c19 F3       		.byte	0xf3
 9305 0c1a 01       		.uleb128 0x1
 9306 0c1b 51       		.byte	0x51
 9307 0c1c 23       		.byte	0x23
 9308 0c1d 05       		.uleb128 0x5
 9309 0c1e 94       		.byte	0x94
 9310 0c1f 01       		.byte	0x1
 9311 0c20 08       		.byte	0x8
 9312 0c21 FF       		.byte	0xff
 9313 0c22 1A       		.byte	0x1a
 9314 0c23 40       		.byte	0x40
 9315 0c24 24       		.byte	0x24
 9316 0c25 21       		.byte	0x21
 9317 0c26 F3       		.byte	0xf3
 9318 0c27 01       		.uleb128 0x1
 9319 0c28 51       		.byte	0x51
 9320 0c29 23       		.byte	0x23
 9321 0c2a 06       		.uleb128 0x6
 9322 0c2b 94       		.byte	0x94
ARM GAS  C:\Users\Phuong\AppData\Local\Temp\ccawWFGQ.s 			page 185


 9323 0c2c 01       		.byte	0x1
 9324 0c2d 08       		.byte	0x8
 9325 0c2e FF       		.byte	0xff
 9326 0c2f 1A       		.byte	0x1a
 9327 0c30 38       		.byte	0x38
 9328 0c31 24       		.byte	0x24
 9329 0c32 21       		.byte	0x21
 9330 0c33 F3       		.byte	0xf3
 9331 0c34 01       		.uleb128 0x1
 9332 0c35 51       		.byte	0x51
 9333 0c36 23       		.byte	0x23
 9334 0c37 07       		.uleb128 0x7
 9335 0c38 94       		.byte	0x94
 9336 0c39 01       		.byte	0x1
 9337 0c3a 08       		.byte	0x8
 9338 0c3b FF       		.byte	0xff
 9339 0c3c 1A       		.byte	0x1a
 9340 0c3d 21       		.byte	0x21
 9341 0c3e 73       		.byte	0x73
 9342 0c3f 00       		.sleb128 0
 9343 0c40 34       		.byte	0x34
 9344 0c41 25       		.byte	0x25
 9345 0c42 27       		.byte	0x27
 9346 0c43 71       		.byte	0x71
 9347 0c44 00       		.sleb128 0
 9348 0c45 1A       		.byte	0x1a
 9349 0c46 9F       		.byte	0x9f
 9350 0c47 48000000 		.4byte	.LVL123
 9351 0c4b 4A000000 		.4byte	.LVL124
 9352 0c4f 6700     		.2byte	0x67
 9353 0c51 F3       		.byte	0xf3
 9354 0c52 01       		.uleb128 0x1
 9355 0c53 51       		.byte	0x51
 9356 0c54 23       		.byte	0x23
 9357 0c55 04       		.uleb128 0x4
 9358 0c56 94       		.byte	0x94
 9359 0c57 01       		.byte	0x1
 9360 0c58 08       		.byte	0x8
 9361 0c59 FF       		.byte	0xff
 9362 0c5a 1A       		.byte	0x1a
 9363 0c5b 48       		.byte	0x48
 9364 0c5c 24       		.byte	0x24
 9365 0c5d F3       		.byte	0xf3
 9366 0c5e 01       		.uleb128 0x1
 9367 0c5f 51       		.byte	0x51
 9368 0c60 23       		.byte	0x23
 9369 0c61 05       		.uleb128 0x5
 9370 0c62 94       		.byte	0x94
 9371 0c63 01       		.byte	0x1
 9372 0c64 08       		.byte	0x8
 9373 0c65 FF       		.byte	0xff
 9374 0c66 1A       		.byte	0x1a
 9375 0c67 40       		.byte	0x40
 9376 0c68 24       		.byte	0x24
 9377 0c69 21       		.byte	0x21
 9378 0c6a F3       		.byte	0xf3
 9379 0c6b 01       		.uleb128 0x1
ARM GAS  C:\Users\Phuong\AppData\Local\Temp\ccawWFGQ.s 			page 186


 9380 0c6c 51       		.byte	0x51
 9381 0c6d 23       		.byte	0x23
 9382 0c6e 06       		.uleb128 0x6
 9383 0c6f 94       		.byte	0x94
 9384 0c70 01       		.byte	0x1
 9385 0c71 08       		.byte	0x8
 9386 0c72 FF       		.byte	0xff
 9387 0c73 1A       		.byte	0x1a
 9388 0c74 38       		.byte	0x38
 9389 0c75 24       		.byte	0x24
 9390 0c76 21       		.byte	0x21
 9391 0c77 F3       		.byte	0xf3
 9392 0c78 01       		.uleb128 0x1
 9393 0c79 51       		.byte	0x51
 9394 0c7a 23       		.byte	0x23
 9395 0c7b 07       		.uleb128 0x7
 9396 0c7c 94       		.byte	0x94
 9397 0c7d 01       		.byte	0x1
 9398 0c7e 08       		.byte	0x8
 9399 0c7f FF       		.byte	0xff
 9400 0c80 1A       		.byte	0x1a
 9401 0c81 21       		.byte	0x21
 9402 0c82 F3       		.byte	0xf3
 9403 0c83 01       		.uleb128 0x1
 9404 0c84 51       		.byte	0x51
 9405 0c85 23       		.byte	0x23
 9406 0c86 01       		.uleb128 0x1
 9407 0c87 94       		.byte	0x94
 9408 0c88 01       		.byte	0x1
 9409 0c89 08       		.byte	0x8
 9410 0c8a FF       		.byte	0xff
 9411 0c8b 1A       		.byte	0x1a
 9412 0c8c 40       		.byte	0x40
 9413 0c8d 24       		.byte	0x24
 9414 0c8e F3       		.byte	0xf3
 9415 0c8f 01       		.uleb128 0x1
 9416 0c90 51       		.byte	0x51
 9417 0c91 94       		.byte	0x94
 9418 0c92 01       		.byte	0x1
 9419 0c93 08       		.byte	0x8
 9420 0c94 FF       		.byte	0xff
 9421 0c95 1A       		.byte	0x1a
 9422 0c96 48       		.byte	0x48
 9423 0c97 24       		.byte	0x24
 9424 0c98 21       		.byte	0x21
 9425 0c99 F3       		.byte	0xf3
 9426 0c9a 01       		.uleb128 0x1
 9427 0c9b 51       		.byte	0x51
 9428 0c9c 23       		.byte	0x23
 9429 0c9d 02       		.uleb128 0x2
 9430 0c9e 94       		.byte	0x94
 9431 0c9f 01       		.byte	0x1
 9432 0ca0 08       		.byte	0x8
 9433 0ca1 FF       		.byte	0xff
 9434 0ca2 1A       		.byte	0x1a
 9435 0ca3 38       		.byte	0x38
 9436 0ca4 24       		.byte	0x24
ARM GAS  C:\Users\Phuong\AppData\Local\Temp\ccawWFGQ.s 			page 187


 9437 0ca5 21       		.byte	0x21
 9438 0ca6 F3       		.byte	0xf3
 9439 0ca7 01       		.uleb128 0x1
 9440 0ca8 51       		.byte	0x51
 9441 0ca9 23       		.byte	0x23
 9442 0caa 03       		.uleb128 0x3
 9443 0cab 94       		.byte	0x94
 9444 0cac 01       		.byte	0x1
 9445 0cad 08       		.byte	0x8
 9446 0cae FF       		.byte	0xff
 9447 0caf 1A       		.byte	0x1a
 9448 0cb0 21       		.byte	0x21
 9449 0cb1 34       		.byte	0x34
 9450 0cb2 25       		.byte	0x25
 9451 0cb3 27       		.byte	0x27
 9452 0cb4 71       		.byte	0x71
 9453 0cb5 00       		.sleb128 0
 9454 0cb6 1A       		.byte	0x1a
 9455 0cb7 9F       		.byte	0x9f
 9456 0cb8 4A000000 		.4byte	.LVL124
 9457 0cbc 50000000 		.4byte	.LVL125
 9458 0cc0 6A00     		.2byte	0x6a
 9459 0cc2 F3       		.byte	0xf3
 9460 0cc3 01       		.uleb128 0x1
 9461 0cc4 51       		.byte	0x51
 9462 0cc5 23       		.byte	0x23
 9463 0cc6 04       		.uleb128 0x4
 9464 0cc7 94       		.byte	0x94
 9465 0cc8 01       		.byte	0x1
 9466 0cc9 08       		.byte	0x8
 9467 0cca FF       		.byte	0xff
 9468 0ccb 1A       		.byte	0x1a
 9469 0ccc 48       		.byte	0x48
 9470 0ccd 24       		.byte	0x24
 9471 0cce F3       		.byte	0xf3
 9472 0ccf 01       		.uleb128 0x1
 9473 0cd0 51       		.byte	0x51
 9474 0cd1 23       		.byte	0x23
 9475 0cd2 05       		.uleb128 0x5
 9476 0cd3 94       		.byte	0x94
 9477 0cd4 01       		.byte	0x1
 9478 0cd5 08       		.byte	0x8
 9479 0cd6 FF       		.byte	0xff
 9480 0cd7 1A       		.byte	0x1a
 9481 0cd8 40       		.byte	0x40
 9482 0cd9 24       		.byte	0x24
 9483 0cda 21       		.byte	0x21
 9484 0cdb F3       		.byte	0xf3
 9485 0cdc 01       		.uleb128 0x1
 9486 0cdd 51       		.byte	0x51
 9487 0cde 23       		.byte	0x23
 9488 0cdf 06       		.uleb128 0x6
 9489 0ce0 94       		.byte	0x94
 9490 0ce1 01       		.byte	0x1
 9491 0ce2 08       		.byte	0x8
 9492 0ce3 FF       		.byte	0xff
 9493 0ce4 1A       		.byte	0x1a
ARM GAS  C:\Users\Phuong\AppData\Local\Temp\ccawWFGQ.s 			page 188


 9494 0ce5 38       		.byte	0x38
 9495 0ce6 24       		.byte	0x24
 9496 0ce7 21       		.byte	0x21
 9497 0ce8 F3       		.byte	0xf3
 9498 0ce9 01       		.uleb128 0x1
 9499 0cea 51       		.byte	0x51
 9500 0ceb 23       		.byte	0x23
 9501 0cec 07       		.uleb128 0x7
 9502 0ced 94       		.byte	0x94
 9503 0cee 01       		.byte	0x1
 9504 0cef 08       		.byte	0x8
 9505 0cf0 FF       		.byte	0xff
 9506 0cf1 1A       		.byte	0x1a
 9507 0cf2 21       		.byte	0x21
 9508 0cf3 F3       		.byte	0xf3
 9509 0cf4 01       		.uleb128 0x1
 9510 0cf5 51       		.byte	0x51
 9511 0cf6 23       		.byte	0x23
 9512 0cf7 01       		.uleb128 0x1
 9513 0cf8 94       		.byte	0x94
 9514 0cf9 01       		.byte	0x1
 9515 0cfa 08       		.byte	0x8
 9516 0cfb FF       		.byte	0xff
 9517 0cfc 1A       		.byte	0x1a
 9518 0cfd 40       		.byte	0x40
 9519 0cfe 24       		.byte	0x24
 9520 0cff F3       		.byte	0xf3
 9521 0d00 01       		.uleb128 0x1
 9522 0d01 51       		.byte	0x51
 9523 0d02 94       		.byte	0x94
 9524 0d03 01       		.byte	0x1
 9525 0d04 08       		.byte	0x8
 9526 0d05 FF       		.byte	0xff
 9527 0d06 1A       		.byte	0x1a
 9528 0d07 48       		.byte	0x48
 9529 0d08 24       		.byte	0x24
 9530 0d09 21       		.byte	0x21
 9531 0d0a F3       		.byte	0xf3
 9532 0d0b 01       		.uleb128 0x1
 9533 0d0c 51       		.byte	0x51
 9534 0d0d 23       		.byte	0x23
 9535 0d0e 02       		.uleb128 0x2
 9536 0d0f 94       		.byte	0x94
 9537 0d10 01       		.byte	0x1
 9538 0d11 08       		.byte	0x8
 9539 0d12 FF       		.byte	0xff
 9540 0d13 1A       		.byte	0x1a
 9541 0d14 38       		.byte	0x38
 9542 0d15 24       		.byte	0x24
 9543 0d16 21       		.byte	0x21
 9544 0d17 F3       		.byte	0xf3
 9545 0d18 01       		.uleb128 0x1
 9546 0d19 51       		.byte	0x51
 9547 0d1a 23       		.byte	0x23
 9548 0d1b 03       		.uleb128 0x3
 9549 0d1c 94       		.byte	0x94
 9550 0d1d 01       		.byte	0x1
ARM GAS  C:\Users\Phuong\AppData\Local\Temp\ccawWFGQ.s 			page 189


 9551 0d1e 08       		.byte	0x8
 9552 0d1f FF       		.byte	0xff
 9553 0d20 1A       		.byte	0x1a
 9554 0d21 21       		.byte	0x21
 9555 0d22 34       		.byte	0x34
 9556 0d23 25       		.byte	0x25
 9557 0d24 27       		.byte	0x27
 9558 0d25 0C       		.byte	0xc
 9559 0d26 0F0F0F0F 		.4byte	0xf0f0f0f
 9560 0d2a 1A       		.byte	0x1a
 9561 0d2b 9F       		.byte	0x9f
 9562 0d2c 50000000 		.4byte	.LVL125
 9563 0d30 54000000 		.4byte	.LVL127
 9564 0d34 0100     		.2byte	0x1
 9565 0d36 51       		.byte	0x51
 9566 0d37 54000000 		.4byte	.LVL127
 9567 0d3b 56000000 		.4byte	.LVL128
 9568 0d3f A500     		.2byte	0xa5
 9569 0d41 F3       		.byte	0xf3
 9570 0d42 01       		.uleb128 0x1
 9571 0d43 51       		.byte	0x51
 9572 0d44 23       		.byte	0x23
 9573 0d45 04       		.uleb128 0x4
 9574 0d46 94       		.byte	0x94
 9575 0d47 01       		.byte	0x1
 9576 0d48 08       		.byte	0x8
 9577 0d49 FF       		.byte	0xff
 9578 0d4a 1A       		.byte	0x1a
 9579 0d4b 48       		.byte	0x48
 9580 0d4c 24       		.byte	0x24
 9581 0d4d F3       		.byte	0xf3
 9582 0d4e 01       		.uleb128 0x1
 9583 0d4f 51       		.byte	0x51
 9584 0d50 23       		.byte	0x23
 9585 0d51 05       		.uleb128 0x5
 9586 0d52 94       		.byte	0x94
 9587 0d53 01       		.byte	0x1
 9588 0d54 08       		.byte	0x8
 9589 0d55 FF       		.byte	0xff
 9590 0d56 1A       		.byte	0x1a
 9591 0d57 40       		.byte	0x40
 9592 0d58 24       		.byte	0x24
 9593 0d59 21       		.byte	0x21
 9594 0d5a F3       		.byte	0xf3
 9595 0d5b 01       		.uleb128 0x1
 9596 0d5c 51       		.byte	0x51
 9597 0d5d 23       		.byte	0x23
 9598 0d5e 06       		.uleb128 0x6
 9599 0d5f 94       		.byte	0x94
 9600 0d60 01       		.byte	0x1
 9601 0d61 08       		.byte	0x8
 9602 0d62 FF       		.byte	0xff
 9603 0d63 1A       		.byte	0x1a
 9604 0d64 38       		.byte	0x38
 9605 0d65 24       		.byte	0x24
 9606 0d66 21       		.byte	0x21
 9607 0d67 F3       		.byte	0xf3
ARM GAS  C:\Users\Phuong\AppData\Local\Temp\ccawWFGQ.s 			page 190


 9608 0d68 01       		.uleb128 0x1
 9609 0d69 51       		.byte	0x51
 9610 0d6a 23       		.byte	0x23
 9611 0d6b 07       		.uleb128 0x7
 9612 0d6c 94       		.byte	0x94
 9613 0d6d 01       		.byte	0x1
 9614 0d6e 08       		.byte	0x8
 9615 0d6f FF       		.byte	0xff
 9616 0d70 1A       		.byte	0x1a
 9617 0d71 21       		.byte	0x21
 9618 0d72 F3       		.byte	0xf3
 9619 0d73 01       		.uleb128 0x1
 9620 0d74 51       		.byte	0x51
 9621 0d75 23       		.byte	0x23
 9622 0d76 04       		.uleb128 0x4
 9623 0d77 94       		.byte	0x94
 9624 0d78 01       		.byte	0x1
 9625 0d79 08       		.byte	0x8
 9626 0d7a FF       		.byte	0xff
 9627 0d7b 1A       		.byte	0x1a
 9628 0d7c 48       		.byte	0x48
 9629 0d7d 24       		.byte	0x24
 9630 0d7e F3       		.byte	0xf3
 9631 0d7f 01       		.uleb128 0x1
 9632 0d80 51       		.byte	0x51
 9633 0d81 23       		.byte	0x23
 9634 0d82 05       		.uleb128 0x5
 9635 0d83 94       		.byte	0x94
 9636 0d84 01       		.byte	0x1
 9637 0d85 08       		.byte	0x8
 9638 0d86 FF       		.byte	0xff
 9639 0d87 1A       		.byte	0x1a
 9640 0d88 40       		.byte	0x40
 9641 0d89 24       		.byte	0x24
 9642 0d8a 21       		.byte	0x21
 9643 0d8b F3       		.byte	0xf3
 9644 0d8c 01       		.uleb128 0x1
 9645 0d8d 51       		.byte	0x51
 9646 0d8e 23       		.byte	0x23
 9647 0d8f 06       		.uleb128 0x6
 9648 0d90 94       		.byte	0x94
 9649 0d91 01       		.byte	0x1
 9650 0d92 08       		.byte	0x8
 9651 0d93 FF       		.byte	0xff
 9652 0d94 1A       		.byte	0x1a
 9653 0d95 38       		.byte	0x38
 9654 0d96 24       		.byte	0x24
 9655 0d97 21       		.byte	0x21
 9656 0d98 F3       		.byte	0xf3
 9657 0d99 01       		.uleb128 0x1
 9658 0d9a 51       		.byte	0x51
 9659 0d9b 23       		.byte	0x23
 9660 0d9c 07       		.uleb128 0x7
 9661 0d9d 94       		.byte	0x94
 9662 0d9e 01       		.byte	0x1
 9663 0d9f 08       		.byte	0x8
 9664 0da0 FF       		.byte	0xff
ARM GAS  C:\Users\Phuong\AppData\Local\Temp\ccawWFGQ.s 			page 191


 9665 0da1 1A       		.byte	0x1a
 9666 0da2 21       		.byte	0x21
 9667 0da3 F3       		.byte	0xf3
 9668 0da4 01       		.uleb128 0x1
 9669 0da5 51       		.byte	0x51
 9670 0da6 23       		.byte	0x23
 9671 0da7 01       		.uleb128 0x1
 9672 0da8 94       		.byte	0x94
 9673 0da9 01       		.byte	0x1
 9674 0daa 08       		.byte	0x8
 9675 0dab FF       		.byte	0xff
 9676 0dac 1A       		.byte	0x1a
 9677 0dad 40       		.byte	0x40
 9678 0dae 24       		.byte	0x24
 9679 0daf F3       		.byte	0xf3
 9680 0db0 01       		.uleb128 0x1
 9681 0db1 51       		.byte	0x51
 9682 0db2 94       		.byte	0x94
 9683 0db3 01       		.byte	0x1
 9684 0db4 08       		.byte	0x8
 9685 0db5 FF       		.byte	0xff
 9686 0db6 1A       		.byte	0x1a
 9687 0db7 48       		.byte	0x48
 9688 0db8 24       		.byte	0x24
 9689 0db9 21       		.byte	0x21
 9690 0dba F3       		.byte	0xf3
 9691 0dbb 01       		.uleb128 0x1
 9692 0dbc 51       		.byte	0x51
 9693 0dbd 23       		.byte	0x23
 9694 0dbe 02       		.uleb128 0x2
 9695 0dbf 94       		.byte	0x94
 9696 0dc0 01       		.byte	0x1
 9697 0dc1 08       		.byte	0x8
 9698 0dc2 FF       		.byte	0xff
 9699 0dc3 1A       		.byte	0x1a
 9700 0dc4 38       		.byte	0x38
 9701 0dc5 24       		.byte	0x24
 9702 0dc6 21       		.byte	0x21
 9703 0dc7 F3       		.byte	0xf3
 9704 0dc8 01       		.uleb128 0x1
 9705 0dc9 51       		.byte	0x51
 9706 0dca 23       		.byte	0x23
 9707 0dcb 03       		.uleb128 0x3
 9708 0dcc 94       		.byte	0x94
 9709 0dcd 01       		.byte	0x1
 9710 0dce 08       		.byte	0x8
 9711 0dcf FF       		.byte	0xff
 9712 0dd0 1A       		.byte	0x1a
 9713 0dd1 21       		.byte	0x21
 9714 0dd2 34       		.byte	0x34
 9715 0dd3 25       		.byte	0x25
 9716 0dd4 27       		.byte	0x27
 9717 0dd5 0C       		.byte	0xc
 9718 0dd6 0F0F0F0F 		.4byte	0xf0f0f0f
 9719 0dda 1A       		.byte	0x1a
 9720 0ddb 27       		.byte	0x27
 9721 0ddc 73       		.byte	0x73
ARM GAS  C:\Users\Phuong\AppData\Local\Temp\ccawWFGQ.s 			page 192


 9722 0ddd 00       		.sleb128 0
 9723 0dde 40       		.byte	0x40
 9724 0ddf 25       		.byte	0x25
 9725 0de0 27       		.byte	0x27
 9726 0de1 40       		.byte	0x40
 9727 0de2 24       		.byte	0x24
 9728 0de3 40       		.byte	0x40
 9729 0de4 25       		.byte	0x25
 9730 0de5 9F       		.byte	0x9f
 9731 0de6 56000000 		.4byte	.LVL128
 9732 0dea 5C000000 		.4byte	.LVL129
 9733 0dee D500     		.2byte	0xd5
 9734 0df0 F3       		.byte	0xf3
 9735 0df1 01       		.uleb128 0x1
 9736 0df2 51       		.byte	0x51
 9737 0df3 23       		.byte	0x23
 9738 0df4 04       		.uleb128 0x4
 9739 0df5 94       		.byte	0x94
 9740 0df6 01       		.byte	0x1
 9741 0df7 08       		.byte	0x8
 9742 0df8 FF       		.byte	0xff
 9743 0df9 1A       		.byte	0x1a
 9744 0dfa 48       		.byte	0x48
 9745 0dfb 24       		.byte	0x24
 9746 0dfc F3       		.byte	0xf3
 9747 0dfd 01       		.uleb128 0x1
 9748 0dfe 51       		.byte	0x51
 9749 0dff 23       		.byte	0x23
 9750 0e00 05       		.uleb128 0x5
 9751 0e01 94       		.byte	0x94
 9752 0e02 01       		.byte	0x1
 9753 0e03 08       		.byte	0x8
 9754 0e04 FF       		.byte	0xff
 9755 0e05 1A       		.byte	0x1a
 9756 0e06 40       		.byte	0x40
 9757 0e07 24       		.byte	0x24
 9758 0e08 21       		.byte	0x21
 9759 0e09 F3       		.byte	0xf3
 9760 0e0a 01       		.uleb128 0x1
 9761 0e0b 51       		.byte	0x51
 9762 0e0c 23       		.byte	0x23
 9763 0e0d 06       		.uleb128 0x6
 9764 0e0e 94       		.byte	0x94
 9765 0e0f 01       		.byte	0x1
 9766 0e10 08       		.byte	0x8
 9767 0e11 FF       		.byte	0xff
 9768 0e12 1A       		.byte	0x1a
 9769 0e13 38       		.byte	0x38
 9770 0e14 24       		.byte	0x24
 9771 0e15 21       		.byte	0x21
 9772 0e16 F3       		.byte	0xf3
 9773 0e17 01       		.uleb128 0x1
 9774 0e18 51       		.byte	0x51
 9775 0e19 23       		.byte	0x23
 9776 0e1a 07       		.uleb128 0x7
 9777 0e1b 94       		.byte	0x94
 9778 0e1c 01       		.byte	0x1
ARM GAS  C:\Users\Phuong\AppData\Local\Temp\ccawWFGQ.s 			page 193


 9779 0e1d 08       		.byte	0x8
 9780 0e1e FF       		.byte	0xff
 9781 0e1f 1A       		.byte	0x1a
 9782 0e20 21       		.byte	0x21
 9783 0e21 F3       		.byte	0xf3
 9784 0e22 01       		.uleb128 0x1
 9785 0e23 51       		.byte	0x51
 9786 0e24 23       		.byte	0x23
 9787 0e25 04       		.uleb128 0x4
 9788 0e26 94       		.byte	0x94
 9789 0e27 01       		.byte	0x1
 9790 0e28 08       		.byte	0x8
 9791 0e29 FF       		.byte	0xff
 9792 0e2a 1A       		.byte	0x1a
 9793 0e2b 48       		.byte	0x48
 9794 0e2c 24       		.byte	0x24
 9795 0e2d F3       		.byte	0xf3
 9796 0e2e 01       		.uleb128 0x1
 9797 0e2f 51       		.byte	0x51
 9798 0e30 23       		.byte	0x23
 9799 0e31 05       		.uleb128 0x5
 9800 0e32 94       		.byte	0x94
 9801 0e33 01       		.byte	0x1
 9802 0e34 08       		.byte	0x8
 9803 0e35 FF       		.byte	0xff
 9804 0e36 1A       		.byte	0x1a
 9805 0e37 40       		.byte	0x40
 9806 0e38 24       		.byte	0x24
 9807 0e39 21       		.byte	0x21
 9808 0e3a F3       		.byte	0xf3
 9809 0e3b 01       		.uleb128 0x1
 9810 0e3c 51       		.byte	0x51
 9811 0e3d 23       		.byte	0x23
 9812 0e3e 06       		.uleb128 0x6
 9813 0e3f 94       		.byte	0x94
 9814 0e40 01       		.byte	0x1
 9815 0e41 08       		.byte	0x8
 9816 0e42 FF       		.byte	0xff
 9817 0e43 1A       		.byte	0x1a
 9818 0e44 38       		.byte	0x38
 9819 0e45 24       		.byte	0x24
 9820 0e46 21       		.byte	0x21
 9821 0e47 F3       		.byte	0xf3
 9822 0e48 01       		.uleb128 0x1
 9823 0e49 51       		.byte	0x51
 9824 0e4a 23       		.byte	0x23
 9825 0e4b 07       		.uleb128 0x7
 9826 0e4c 94       		.byte	0x94
 9827 0e4d 01       		.byte	0x1
 9828 0e4e 08       		.byte	0x8
 9829 0e4f FF       		.byte	0xff
 9830 0e50 1A       		.byte	0x1a
 9831 0e51 21       		.byte	0x21
 9832 0e52 F3       		.byte	0xf3
 9833 0e53 01       		.uleb128 0x1
 9834 0e54 51       		.byte	0x51
 9835 0e55 23       		.byte	0x23
ARM GAS  C:\Users\Phuong\AppData\Local\Temp\ccawWFGQ.s 			page 194


 9836 0e56 01       		.uleb128 0x1
 9837 0e57 94       		.byte	0x94
 9838 0e58 01       		.byte	0x1
 9839 0e59 08       		.byte	0x8
 9840 0e5a FF       		.byte	0xff
 9841 0e5b 1A       		.byte	0x1a
 9842 0e5c 40       		.byte	0x40
 9843 0e5d 24       		.byte	0x24
 9844 0e5e F3       		.byte	0xf3
 9845 0e5f 01       		.uleb128 0x1
 9846 0e60 51       		.byte	0x51
 9847 0e61 94       		.byte	0x94
 9848 0e62 01       		.byte	0x1
 9849 0e63 08       		.byte	0x8
 9850 0e64 FF       		.byte	0xff
 9851 0e65 1A       		.byte	0x1a
 9852 0e66 48       		.byte	0x48
 9853 0e67 24       		.byte	0x24
 9854 0e68 21       		.byte	0x21
 9855 0e69 F3       		.byte	0xf3
 9856 0e6a 01       		.uleb128 0x1
 9857 0e6b 51       		.byte	0x51
 9858 0e6c 23       		.byte	0x23
 9859 0e6d 02       		.uleb128 0x2
 9860 0e6e 94       		.byte	0x94
 9861 0e6f 01       		.byte	0x1
 9862 0e70 08       		.byte	0x8
 9863 0e71 FF       		.byte	0xff
 9864 0e72 1A       		.byte	0x1a
 9865 0e73 38       		.byte	0x38
 9866 0e74 24       		.byte	0x24
 9867 0e75 21       		.byte	0x21
 9868 0e76 F3       		.byte	0xf3
 9869 0e77 01       		.uleb128 0x1
 9870 0e78 51       		.byte	0x51
 9871 0e79 23       		.byte	0x23
 9872 0e7a 03       		.uleb128 0x3
 9873 0e7b 94       		.byte	0x94
 9874 0e7c 01       		.byte	0x1
 9875 0e7d 08       		.byte	0x8
 9876 0e7e FF       		.byte	0xff
 9877 0e7f 1A       		.byte	0x1a
 9878 0e80 21       		.byte	0x21
 9879 0e81 34       		.byte	0x34
 9880 0e82 25       		.byte	0x25
 9881 0e83 27       		.byte	0x27
 9882 0e84 0C       		.byte	0xc
 9883 0e85 0F0F0F0F 		.4byte	0xf0f0f0f
 9884 0e89 1A       		.byte	0x1a
 9885 0e8a 27       		.byte	0x27
 9886 0e8b F3       		.byte	0xf3
 9887 0e8c 01       		.uleb128 0x1
 9888 0e8d 51       		.byte	0x51
 9889 0e8e 23       		.byte	0x23
 9890 0e8f 01       		.uleb128 0x1
 9891 0e90 94       		.byte	0x94
 9892 0e91 01       		.byte	0x1
ARM GAS  C:\Users\Phuong\AppData\Local\Temp\ccawWFGQ.s 			page 195


 9893 0e92 08       		.byte	0x8
 9894 0e93 FF       		.byte	0xff
 9895 0e94 1A       		.byte	0x1a
 9896 0e95 40       		.byte	0x40
 9897 0e96 24       		.byte	0x24
 9898 0e97 F3       		.byte	0xf3
 9899 0e98 01       		.uleb128 0x1
 9900 0e99 51       		.byte	0x51
 9901 0e9a 94       		.byte	0x94
 9902 0e9b 01       		.byte	0x1
 9903 0e9c 08       		.byte	0x8
 9904 0e9d FF       		.byte	0xff
 9905 0e9e 1A       		.byte	0x1a
 9906 0e9f 48       		.byte	0x48
 9907 0ea0 24       		.byte	0x24
 9908 0ea1 21       		.byte	0x21
 9909 0ea2 F3       		.byte	0xf3
 9910 0ea3 01       		.uleb128 0x1
 9911 0ea4 51       		.byte	0x51
 9912 0ea5 23       		.byte	0x23
 9913 0ea6 02       		.uleb128 0x2
 9914 0ea7 94       		.byte	0x94
 9915 0ea8 01       		.byte	0x1
 9916 0ea9 08       		.byte	0x8
 9917 0eaa FF       		.byte	0xff
 9918 0eab 1A       		.byte	0x1a
 9919 0eac 38       		.byte	0x38
 9920 0ead 24       		.byte	0x24
 9921 0eae 21       		.byte	0x21
 9922 0eaf F3       		.byte	0xf3
 9923 0eb0 01       		.uleb128 0x1
 9924 0eb1 51       		.byte	0x51
 9925 0eb2 23       		.byte	0x23
 9926 0eb3 03       		.uleb128 0x3
 9927 0eb4 94       		.byte	0x94
 9928 0eb5 01       		.byte	0x1
 9929 0eb6 08       		.byte	0x8
 9930 0eb7 FF       		.byte	0xff
 9931 0eb8 1A       		.byte	0x1a
 9932 0eb9 21       		.byte	0x21
 9933 0eba 72       		.byte	0x72
 9934 0ebb 00       		.sleb128 0
 9935 0ebc 27       		.byte	0x27
 9936 0ebd 40       		.byte	0x40
 9937 0ebe 25       		.byte	0x25
 9938 0ebf 27       		.byte	0x27
 9939 0ec0 40       		.byte	0x40
 9940 0ec1 24       		.byte	0x24
 9941 0ec2 40       		.byte	0x40
 9942 0ec3 25       		.byte	0x25
 9943 0ec4 9F       		.byte	0x9f
 9944 0ec5 5C000000 		.4byte	.LVL129
 9945 0ec9 5E000000 		.4byte	.LVL130
 9946 0ecd 3E01     		.2byte	0x13e
 9947 0ecf F3       		.byte	0xf3
 9948 0ed0 01       		.uleb128 0x1
 9949 0ed1 51       		.byte	0x51
ARM GAS  C:\Users\Phuong\AppData\Local\Temp\ccawWFGQ.s 			page 196


 9950 0ed2 23       		.byte	0x23
 9951 0ed3 04       		.uleb128 0x4
 9952 0ed4 94       		.byte	0x94
 9953 0ed5 01       		.byte	0x1
 9954 0ed6 08       		.byte	0x8
 9955 0ed7 FF       		.byte	0xff
 9956 0ed8 1A       		.byte	0x1a
 9957 0ed9 48       		.byte	0x48
 9958 0eda 24       		.byte	0x24
 9959 0edb F3       		.byte	0xf3
 9960 0edc 01       		.uleb128 0x1
 9961 0edd 51       		.byte	0x51
 9962 0ede 23       		.byte	0x23
 9963 0edf 05       		.uleb128 0x5
 9964 0ee0 94       		.byte	0x94
 9965 0ee1 01       		.byte	0x1
 9966 0ee2 08       		.byte	0x8
 9967 0ee3 FF       		.byte	0xff
 9968 0ee4 1A       		.byte	0x1a
 9969 0ee5 40       		.byte	0x40
 9970 0ee6 24       		.byte	0x24
 9971 0ee7 21       		.byte	0x21
 9972 0ee8 F3       		.byte	0xf3
 9973 0ee9 01       		.uleb128 0x1
 9974 0eea 51       		.byte	0x51
 9975 0eeb 23       		.byte	0x23
 9976 0eec 06       		.uleb128 0x6
 9977 0eed 94       		.byte	0x94
 9978 0eee 01       		.byte	0x1
 9979 0eef 08       		.byte	0x8
 9980 0ef0 FF       		.byte	0xff
 9981 0ef1 1A       		.byte	0x1a
 9982 0ef2 38       		.byte	0x38
 9983 0ef3 24       		.byte	0x24
 9984 0ef4 21       		.byte	0x21
 9985 0ef5 F3       		.byte	0xf3
 9986 0ef6 01       		.uleb128 0x1
 9987 0ef7 51       		.byte	0x51
 9988 0ef8 23       		.byte	0x23
 9989 0ef9 07       		.uleb128 0x7
 9990 0efa 94       		.byte	0x94
 9991 0efb 01       		.byte	0x1
 9992 0efc 08       		.byte	0x8
 9993 0efd FF       		.byte	0xff
 9994 0efe 1A       		.byte	0x1a
 9995 0eff 21       		.byte	0x21
 9996 0f00 F3       		.byte	0xf3
 9997 0f01 01       		.uleb128 0x1
 9998 0f02 51       		.byte	0x51
 9999 0f03 23       		.byte	0x23
 10000 0f04 04       		.uleb128 0x4
 10001 0f05 94       		.byte	0x94
 10002 0f06 01       		.byte	0x1
 10003 0f07 08       		.byte	0x8
 10004 0f08 FF       		.byte	0xff
 10005 0f09 1A       		.byte	0x1a
 10006 0f0a 48       		.byte	0x48
ARM GAS  C:\Users\Phuong\AppData\Local\Temp\ccawWFGQ.s 			page 197


 10007 0f0b 24       		.byte	0x24
 10008 0f0c F3       		.byte	0xf3
 10009 0f0d 01       		.uleb128 0x1
 10010 0f0e 51       		.byte	0x51
 10011 0f0f 23       		.byte	0x23
 10012 0f10 05       		.uleb128 0x5
 10013 0f11 94       		.byte	0x94
 10014 0f12 01       		.byte	0x1
 10015 0f13 08       		.byte	0x8
 10016 0f14 FF       		.byte	0xff
 10017 0f15 1A       		.byte	0x1a
 10018 0f16 40       		.byte	0x40
 10019 0f17 24       		.byte	0x24
 10020 0f18 21       		.byte	0x21
 10021 0f19 F3       		.byte	0xf3
 10022 0f1a 01       		.uleb128 0x1
 10023 0f1b 51       		.byte	0x51
 10024 0f1c 23       		.byte	0x23
 10025 0f1d 06       		.uleb128 0x6
 10026 0f1e 94       		.byte	0x94
 10027 0f1f 01       		.byte	0x1
 10028 0f20 08       		.byte	0x8
 10029 0f21 FF       		.byte	0xff
 10030 0f22 1A       		.byte	0x1a
 10031 0f23 38       		.byte	0x38
 10032 0f24 24       		.byte	0x24
 10033 0f25 21       		.byte	0x21
 10034 0f26 F3       		.byte	0xf3
 10035 0f27 01       		.uleb128 0x1
 10036 0f28 51       		.byte	0x51
 10037 0f29 23       		.byte	0x23
 10038 0f2a 07       		.uleb128 0x7
 10039 0f2b 94       		.byte	0x94
 10040 0f2c 01       		.byte	0x1
 10041 0f2d 08       		.byte	0x8
 10042 0f2e FF       		.byte	0xff
 10043 0f2f 1A       		.byte	0x1a
 10044 0f30 21       		.byte	0x21
 10045 0f31 F3       		.byte	0xf3
 10046 0f32 01       		.uleb128 0x1
 10047 0f33 51       		.byte	0x51
 10048 0f34 23       		.byte	0x23
 10049 0f35 01       		.uleb128 0x1
 10050 0f36 94       		.byte	0x94
 10051 0f37 01       		.byte	0x1
 10052 0f38 08       		.byte	0x8
 10053 0f39 FF       		.byte	0xff
 10054 0f3a 1A       		.byte	0x1a
 10055 0f3b 40       		.byte	0x40
 10056 0f3c 24       		.byte	0x24
 10057 0f3d F3       		.byte	0xf3
 10058 0f3e 01       		.uleb128 0x1
 10059 0f3f 51       		.byte	0x51
 10060 0f40 94       		.byte	0x94
 10061 0f41 01       		.byte	0x1
 10062 0f42 08       		.byte	0x8
 10063 0f43 FF       		.byte	0xff
ARM GAS  C:\Users\Phuong\AppData\Local\Temp\ccawWFGQ.s 			page 198


 10064 0f44 1A       		.byte	0x1a
 10065 0f45 48       		.byte	0x48
 10066 0f46 24       		.byte	0x24
 10067 0f47 21       		.byte	0x21
 10068 0f48 F3       		.byte	0xf3
 10069 0f49 01       		.uleb128 0x1
 10070 0f4a 51       		.byte	0x51
 10071 0f4b 23       		.byte	0x23
 10072 0f4c 02       		.uleb128 0x2
 10073 0f4d 94       		.byte	0x94
 10074 0f4e 01       		.byte	0x1
 10075 0f4f 08       		.byte	0x8
 10076 0f50 FF       		.byte	0xff
 10077 0f51 1A       		.byte	0x1a
 10078 0f52 38       		.byte	0x38
 10079 0f53 24       		.byte	0x24
 10080 0f54 21       		.byte	0x21
 10081 0f55 F3       		.byte	0xf3
 10082 0f56 01       		.uleb128 0x1
 10083 0f57 51       		.byte	0x51
 10084 0f58 23       		.byte	0x23
 10085 0f59 03       		.uleb128 0x3
 10086 0f5a 94       		.byte	0x94
 10087 0f5b 01       		.byte	0x1
 10088 0f5c 08       		.byte	0x8
 10089 0f5d FF       		.byte	0xff
 10090 0f5e 1A       		.byte	0x1a
 10091 0f5f 21       		.byte	0x21
 10092 0f60 34       		.byte	0x34
 10093 0f61 25       		.byte	0x25
 10094 0f62 27       		.byte	0x27
 10095 0f63 0C       		.byte	0xc
 10096 0f64 0F0F0F0F 		.4byte	0xf0f0f0f
 10097 0f68 1A       		.byte	0x1a
 10098 0f69 27       		.byte	0x27
 10099 0f6a F3       		.byte	0xf3
 10100 0f6b 01       		.uleb128 0x1
 10101 0f6c 51       		.byte	0x51
 10102 0f6d 23       		.byte	0x23
 10103 0f6e 01       		.uleb128 0x1
 10104 0f6f 94       		.byte	0x94
 10105 0f70 01       		.byte	0x1
 10106 0f71 08       		.byte	0x8
 10107 0f72 FF       		.byte	0xff
 10108 0f73 1A       		.byte	0x1a
 10109 0f74 40       		.byte	0x40
 10110 0f75 24       		.byte	0x24
 10111 0f76 F3       		.byte	0xf3
 10112 0f77 01       		.uleb128 0x1
 10113 0f78 51       		.byte	0x51
 10114 0f79 94       		.byte	0x94
 10115 0f7a 01       		.byte	0x1
 10116 0f7b 08       		.byte	0x8
 10117 0f7c FF       		.byte	0xff
 10118 0f7d 1A       		.byte	0x1a
 10119 0f7e 48       		.byte	0x48
 10120 0f7f 24       		.byte	0x24
ARM GAS  C:\Users\Phuong\AppData\Local\Temp\ccawWFGQ.s 			page 199


 10121 0f80 21       		.byte	0x21
 10122 0f81 F3       		.byte	0xf3
 10123 0f82 01       		.uleb128 0x1
 10124 0f83 51       		.byte	0x51
 10125 0f84 23       		.byte	0x23
 10126 0f85 02       		.uleb128 0x2
 10127 0f86 94       		.byte	0x94
 10128 0f87 01       		.byte	0x1
 10129 0f88 08       		.byte	0x8
 10130 0f89 FF       		.byte	0xff
 10131 0f8a 1A       		.byte	0x1a
 10132 0f8b 38       		.byte	0x38
 10133 0f8c 24       		.byte	0x24
 10134 0f8d 21       		.byte	0x21
 10135 0f8e F3       		.byte	0xf3
 10136 0f8f 01       		.uleb128 0x1
 10137 0f90 51       		.byte	0x51
 10138 0f91 23       		.byte	0x23
 10139 0f92 03       		.uleb128 0x3
 10140 0f93 94       		.byte	0x94
 10141 0f94 01       		.byte	0x1
 10142 0f95 08       		.byte	0x8
 10143 0f96 FF       		.byte	0xff
 10144 0f97 1A       		.byte	0x1a
 10145 0f98 21       		.byte	0x21
 10146 0f99 F3       		.byte	0xf3
 10147 0f9a 01       		.uleb128 0x1
 10148 0f9b 51       		.byte	0x51
 10149 0f9c 23       		.byte	0x23
 10150 0f9d 04       		.uleb128 0x4
 10151 0f9e 94       		.byte	0x94
 10152 0f9f 01       		.byte	0x1
 10153 0fa0 08       		.byte	0x8
 10154 0fa1 FF       		.byte	0xff
 10155 0fa2 1A       		.byte	0x1a
 10156 0fa3 48       		.byte	0x48
 10157 0fa4 24       		.byte	0x24
 10158 0fa5 F3       		.byte	0xf3
 10159 0fa6 01       		.uleb128 0x1
 10160 0fa7 51       		.byte	0x51
 10161 0fa8 23       		.byte	0x23
 10162 0fa9 05       		.uleb128 0x5
 10163 0faa 94       		.byte	0x94
 10164 0fab 01       		.byte	0x1
 10165 0fac 08       		.byte	0x8
 10166 0fad FF       		.byte	0xff
 10167 0fae 1A       		.byte	0x1a
 10168 0faf 40       		.byte	0x40
 10169 0fb0 24       		.byte	0x24
 10170 0fb1 21       		.byte	0x21
 10171 0fb2 F3       		.byte	0xf3
 10172 0fb3 01       		.uleb128 0x1
 10173 0fb4 51       		.byte	0x51
 10174 0fb5 23       		.byte	0x23
 10175 0fb6 06       		.uleb128 0x6
 10176 0fb7 94       		.byte	0x94
 10177 0fb8 01       		.byte	0x1
ARM GAS  C:\Users\Phuong\AppData\Local\Temp\ccawWFGQ.s 			page 200


 10178 0fb9 08       		.byte	0x8
 10179 0fba FF       		.byte	0xff
 10180 0fbb 1A       		.byte	0x1a
 10181 0fbc 38       		.byte	0x38
 10182 0fbd 24       		.byte	0x24
 10183 0fbe 21       		.byte	0x21
 10184 0fbf F3       		.byte	0xf3
 10185 0fc0 01       		.uleb128 0x1
 10186 0fc1 51       		.byte	0x51
 10187 0fc2 23       		.byte	0x23
 10188 0fc3 07       		.uleb128 0x7
 10189 0fc4 94       		.byte	0x94
 10190 0fc5 01       		.byte	0x1
 10191 0fc6 08       		.byte	0x8
 10192 0fc7 FF       		.byte	0xff
 10193 0fc8 1A       		.byte	0x1a
 10194 0fc9 21       		.byte	0x21
 10195 0fca F3       		.byte	0xf3
 10196 0fcb 01       		.uleb128 0x1
 10197 0fcc 51       		.byte	0x51
 10198 0fcd 23       		.byte	0x23
 10199 0fce 01       		.uleb128 0x1
 10200 0fcf 94       		.byte	0x94
 10201 0fd0 01       		.byte	0x1
 10202 0fd1 08       		.byte	0x8
 10203 0fd2 FF       		.byte	0xff
 10204 0fd3 1A       		.byte	0x1a
 10205 0fd4 40       		.byte	0x40
 10206 0fd5 24       		.byte	0x24
 10207 0fd6 F3       		.byte	0xf3
 10208 0fd7 01       		.uleb128 0x1
 10209 0fd8 51       		.byte	0x51
 10210 0fd9 94       		.byte	0x94
 10211 0fda 01       		.byte	0x1
 10212 0fdb 08       		.byte	0x8
 10213 0fdc FF       		.byte	0xff
 10214 0fdd 1A       		.byte	0x1a
 10215 0fde 48       		.byte	0x48
 10216 0fdf 24       		.byte	0x24
 10217 0fe0 21       		.byte	0x21
 10218 0fe1 F3       		.byte	0xf3
 10219 0fe2 01       		.uleb128 0x1
 10220 0fe3 51       		.byte	0x51
 10221 0fe4 23       		.byte	0x23
 10222 0fe5 02       		.uleb128 0x2
 10223 0fe6 94       		.byte	0x94
 10224 0fe7 01       		.byte	0x1
 10225 0fe8 08       		.byte	0x8
 10226 0fe9 FF       		.byte	0xff
 10227 0fea 1A       		.byte	0x1a
 10228 0feb 38       		.byte	0x38
 10229 0fec 24       		.byte	0x24
 10230 0fed 21       		.byte	0x21
 10231 0fee F3       		.byte	0xf3
 10232 0fef 01       		.uleb128 0x1
 10233 0ff0 51       		.byte	0x51
 10234 0ff1 23       		.byte	0x23
ARM GAS  C:\Users\Phuong\AppData\Local\Temp\ccawWFGQ.s 			page 201


 10235 0ff2 03       		.uleb128 0x3
 10236 0ff3 94       		.byte	0x94
 10237 0ff4 01       		.byte	0x1
 10238 0ff5 08       		.byte	0x8
 10239 0ff6 FF       		.byte	0xff
 10240 0ff7 1A       		.byte	0x1a
 10241 0ff8 21       		.byte	0x21
 10242 0ff9 34       		.byte	0x34
 10243 0ffa 25       		.byte	0x25
 10244 0ffb 27       		.byte	0x27
 10245 0ffc 0C       		.byte	0xc
 10246 0ffd 0F0F0F0F 		.4byte	0xf0f0f0f
 10247 1001 1A       		.byte	0x1a
 10248 1002 34       		.byte	0x34
 10249 1003 24       		.byte	0x24
 10250 1004 27       		.byte	0x27
 10251 1005 40       		.byte	0x40
 10252 1006 25       		.byte	0x25
 10253 1007 27       		.byte	0x27
 10254 1008 40       		.byte	0x40
 10255 1009 24       		.byte	0x24
 10256 100a 40       		.byte	0x40
 10257 100b 25       		.byte	0x25
 10258 100c 9F       		.byte	0x9f
 10259 100d 5E000000 		.4byte	.LVL130
 10260 1011 62000000 		.4byte	.LVL132
 10261 1015 0100     		.2byte	0x1
 10262 1017 54       		.byte	0x54
 10263 1018 62000000 		.4byte	.LVL132
 10264 101c 66000000 		.4byte	.LVL134
 10265 1020 A700     		.2byte	0xa7
 10266 1022 F3       		.byte	0xf3
 10267 1023 01       		.uleb128 0x1
 10268 1024 51       		.byte	0x51
 10269 1025 23       		.byte	0x23
 10270 1026 01       		.uleb128 0x1
 10271 1027 94       		.byte	0x94
 10272 1028 01       		.byte	0x1
 10273 1029 08       		.byte	0x8
 10274 102a FF       		.byte	0xff
 10275 102b 1A       		.byte	0x1a
 10276 102c 40       		.byte	0x40
 10277 102d 24       		.byte	0x24
 10278 102e F3       		.byte	0xf3
 10279 102f 01       		.uleb128 0x1
 10280 1030 51       		.byte	0x51
 10281 1031 94       		.byte	0x94
 10282 1032 01       		.byte	0x1
 10283 1033 08       		.byte	0x8
 10284 1034 FF       		.byte	0xff
 10285 1035 1A       		.byte	0x1a
 10286 1036 48       		.byte	0x48
 10287 1037 24       		.byte	0x24
 10288 1038 21       		.byte	0x21
 10289 1039 F3       		.byte	0xf3
 10290 103a 01       		.uleb128 0x1
 10291 103b 51       		.byte	0x51
ARM GAS  C:\Users\Phuong\AppData\Local\Temp\ccawWFGQ.s 			page 202


 10292 103c 23       		.byte	0x23
 10293 103d 02       		.uleb128 0x2
 10294 103e 94       		.byte	0x94
 10295 103f 01       		.byte	0x1
 10296 1040 08       		.byte	0x8
 10297 1041 FF       		.byte	0xff
 10298 1042 1A       		.byte	0x1a
 10299 1043 38       		.byte	0x38
 10300 1044 24       		.byte	0x24
 10301 1045 21       		.byte	0x21
 10302 1046 F3       		.byte	0xf3
 10303 1047 01       		.uleb128 0x1
 10304 1048 51       		.byte	0x51
 10305 1049 23       		.byte	0x23
 10306 104a 03       		.uleb128 0x3
 10307 104b 94       		.byte	0x94
 10308 104c 01       		.byte	0x1
 10309 104d 08       		.byte	0x8
 10310 104e FF       		.byte	0xff
 10311 104f 1A       		.byte	0x1a
 10312 1050 21       		.byte	0x21
 10313 1051 F3       		.byte	0xf3
 10314 1052 01       		.uleb128 0x1
 10315 1053 51       		.byte	0x51
 10316 1054 23       		.byte	0x23
 10317 1055 04       		.uleb128 0x4
 10318 1056 94       		.byte	0x94
 10319 1057 01       		.byte	0x1
 10320 1058 08       		.byte	0x8
 10321 1059 FF       		.byte	0xff
 10322 105a 1A       		.byte	0x1a
 10323 105b 48       		.byte	0x48
 10324 105c 24       		.byte	0x24
 10325 105d F3       		.byte	0xf3
 10326 105e 01       		.uleb128 0x1
 10327 105f 51       		.byte	0x51
 10328 1060 23       		.byte	0x23
 10329 1061 05       		.uleb128 0x5
 10330 1062 94       		.byte	0x94
 10331 1063 01       		.byte	0x1
 10332 1064 08       		.byte	0x8
 10333 1065 FF       		.byte	0xff
 10334 1066 1A       		.byte	0x1a
 10335 1067 40       		.byte	0x40
 10336 1068 24       		.byte	0x24
 10337 1069 21       		.byte	0x21
 10338 106a F3       		.byte	0xf3
 10339 106b 01       		.uleb128 0x1
 10340 106c 51       		.byte	0x51
 10341 106d 23       		.byte	0x23
 10342 106e 06       		.uleb128 0x6
 10343 106f 94       		.byte	0x94
 10344 1070 01       		.byte	0x1
 10345 1071 08       		.byte	0x8
 10346 1072 FF       		.byte	0xff
 10347 1073 1A       		.byte	0x1a
 10348 1074 38       		.byte	0x38
ARM GAS  C:\Users\Phuong\AppData\Local\Temp\ccawWFGQ.s 			page 203


 10349 1075 24       		.byte	0x24
 10350 1076 21       		.byte	0x21
 10351 1077 F3       		.byte	0xf3
 10352 1078 01       		.uleb128 0x1
 10353 1079 51       		.byte	0x51
 10354 107a 23       		.byte	0x23
 10355 107b 07       		.uleb128 0x7
 10356 107c 94       		.byte	0x94
 10357 107d 01       		.byte	0x1
 10358 107e 08       		.byte	0x8
 10359 107f FF       		.byte	0xff
 10360 1080 1A       		.byte	0x1a
 10361 1081 21       		.byte	0x21
 10362 1082 F3       		.byte	0xf3
 10363 1083 01       		.uleb128 0x1
 10364 1084 51       		.byte	0x51
 10365 1085 23       		.byte	0x23
 10366 1086 01       		.uleb128 0x1
 10367 1087 94       		.byte	0x94
 10368 1088 01       		.byte	0x1
 10369 1089 08       		.byte	0x8
 10370 108a FF       		.byte	0xff
 10371 108b 1A       		.byte	0x1a
 10372 108c 40       		.byte	0x40
 10373 108d 24       		.byte	0x24
 10374 108e F3       		.byte	0xf3
 10375 108f 01       		.uleb128 0x1
 10376 1090 51       		.byte	0x51
 10377 1091 94       		.byte	0x94
 10378 1092 01       		.byte	0x1
 10379 1093 08       		.byte	0x8
 10380 1094 FF       		.byte	0xff
 10381 1095 1A       		.byte	0x1a
 10382 1096 48       		.byte	0x48
 10383 1097 24       		.byte	0x24
 10384 1098 21       		.byte	0x21
 10385 1099 F3       		.byte	0xf3
 10386 109a 01       		.uleb128 0x1
 10387 109b 51       		.byte	0x51
 10388 109c 23       		.byte	0x23
 10389 109d 02       		.uleb128 0x2
 10390 109e 94       		.byte	0x94
 10391 109f 01       		.byte	0x1
 10392 10a0 08       		.byte	0x8
 10393 10a1 FF       		.byte	0xff
 10394 10a2 1A       		.byte	0x1a
 10395 10a3 38       		.byte	0x38
 10396 10a4 24       		.byte	0x24
 10397 10a5 21       		.byte	0x21
 10398 10a6 F3       		.byte	0xf3
 10399 10a7 01       		.uleb128 0x1
 10400 10a8 51       		.byte	0x51
 10401 10a9 23       		.byte	0x23
 10402 10aa 03       		.uleb128 0x3
 10403 10ab 94       		.byte	0x94
 10404 10ac 01       		.byte	0x1
 10405 10ad 08       		.byte	0x8
ARM GAS  C:\Users\Phuong\AppData\Local\Temp\ccawWFGQ.s 			page 204


 10406 10ae FF       		.byte	0xff
 10407 10af 1A       		.byte	0x1a
 10408 10b0 21       		.byte	0x21
 10409 10b1 34       		.byte	0x34
 10410 10b2 25       		.byte	0x25
 10411 10b3 27       		.byte	0x27
 10412 10b4 0C       		.byte	0xc
 10413 10b5 0F0F0F0F 		.4byte	0xf0f0f0f
 10414 10b9 1A       		.byte	0x1a
 10415 10ba 34       		.byte	0x34
 10416 10bb 24       		.byte	0x24
 10417 10bc 27       		.byte	0x27
 10418 10bd 70       		.byte	0x70
 10419 10be 00       		.sleb128 0
 10420 10bf 32       		.byte	0x32
 10421 10c0 25       		.byte	0x25
 10422 10c1 27       		.byte	0x27
 10423 10c2 71       		.byte	0x71
 10424 10c3 00       		.sleb128 0
 10425 10c4 27       		.byte	0x27
 10426 10c5 72       		.byte	0x72
 10427 10c6 00       		.sleb128 0
 10428 10c7 1A       		.byte	0x1a
 10429 10c8 9F       		.byte	0x9f
 10430 10c9 66000000 		.4byte	.LVL134
 10431 10cd 6A000000 		.4byte	.LVL135
 10432 10d1 AA00     		.2byte	0xaa
 10433 10d3 F3       		.byte	0xf3
 10434 10d4 01       		.uleb128 0x1
 10435 10d5 51       		.byte	0x51
 10436 10d6 23       		.byte	0x23
 10437 10d7 01       		.uleb128 0x1
 10438 10d8 94       		.byte	0x94
 10439 10d9 01       		.byte	0x1
 10440 10da 08       		.byte	0x8
 10441 10db FF       		.byte	0xff
 10442 10dc 1A       		.byte	0x1a
 10443 10dd 40       		.byte	0x40
 10444 10de 24       		.byte	0x24
 10445 10df F3       		.byte	0xf3
 10446 10e0 01       		.uleb128 0x1
 10447 10e1 51       		.byte	0x51
 10448 10e2 94       		.byte	0x94
 10449 10e3 01       		.byte	0x1
 10450 10e4 08       		.byte	0x8
 10451 10e5 FF       		.byte	0xff
 10452 10e6 1A       		.byte	0x1a
 10453 10e7 48       		.byte	0x48
 10454 10e8 24       		.byte	0x24
 10455 10e9 21       		.byte	0x21
 10456 10ea F3       		.byte	0xf3
 10457 10eb 01       		.uleb128 0x1
 10458 10ec 51       		.byte	0x51
 10459 10ed 23       		.byte	0x23
 10460 10ee 02       		.uleb128 0x2
 10461 10ef 94       		.byte	0x94
 10462 10f0 01       		.byte	0x1
ARM GAS  C:\Users\Phuong\AppData\Local\Temp\ccawWFGQ.s 			page 205


 10463 10f1 08       		.byte	0x8
 10464 10f2 FF       		.byte	0xff
 10465 10f3 1A       		.byte	0x1a
 10466 10f4 38       		.byte	0x38
 10467 10f5 24       		.byte	0x24
 10468 10f6 21       		.byte	0x21
 10469 10f7 F3       		.byte	0xf3
 10470 10f8 01       		.uleb128 0x1
 10471 10f9 51       		.byte	0x51
 10472 10fa 23       		.byte	0x23
 10473 10fb 03       		.uleb128 0x3
 10474 10fc 94       		.byte	0x94
 10475 10fd 01       		.byte	0x1
 10476 10fe 08       		.byte	0x8
 10477 10ff FF       		.byte	0xff
 10478 1100 1A       		.byte	0x1a
 10479 1101 21       		.byte	0x21
 10480 1102 F3       		.byte	0xf3
 10481 1103 01       		.uleb128 0x1
 10482 1104 51       		.byte	0x51
 10483 1105 23       		.byte	0x23
 10484 1106 04       		.uleb128 0x4
 10485 1107 94       		.byte	0x94
 10486 1108 01       		.byte	0x1
 10487 1109 08       		.byte	0x8
 10488 110a FF       		.byte	0xff
 10489 110b 1A       		.byte	0x1a
 10490 110c 48       		.byte	0x48
 10491 110d 24       		.byte	0x24
 10492 110e F3       		.byte	0xf3
 10493 110f 01       		.uleb128 0x1
 10494 1110 51       		.byte	0x51
 10495 1111 23       		.byte	0x23
 10496 1112 05       		.uleb128 0x5
 10497 1113 94       		.byte	0x94
 10498 1114 01       		.byte	0x1
 10499 1115 08       		.byte	0x8
 10500 1116 FF       		.byte	0xff
 10501 1117 1A       		.byte	0x1a
 10502 1118 40       		.byte	0x40
 10503 1119 24       		.byte	0x24
 10504 111a 21       		.byte	0x21
 10505 111b F3       		.byte	0xf3
 10506 111c 01       		.uleb128 0x1
 10507 111d 51       		.byte	0x51
 10508 111e 23       		.byte	0x23
 10509 111f 06       		.uleb128 0x6
 10510 1120 94       		.byte	0x94
 10511 1121 01       		.byte	0x1
 10512 1122 08       		.byte	0x8
 10513 1123 FF       		.byte	0xff
 10514 1124 1A       		.byte	0x1a
 10515 1125 38       		.byte	0x38
 10516 1126 24       		.byte	0x24
 10517 1127 21       		.byte	0x21
 10518 1128 F3       		.byte	0xf3
 10519 1129 01       		.uleb128 0x1
ARM GAS  C:\Users\Phuong\AppData\Local\Temp\ccawWFGQ.s 			page 206


 10520 112a 51       		.byte	0x51
 10521 112b 23       		.byte	0x23
 10522 112c 07       		.uleb128 0x7
 10523 112d 94       		.byte	0x94
 10524 112e 01       		.byte	0x1
 10525 112f 08       		.byte	0x8
 10526 1130 FF       		.byte	0xff
 10527 1131 1A       		.byte	0x1a
 10528 1132 21       		.byte	0x21
 10529 1133 F3       		.byte	0xf3
 10530 1134 01       		.uleb128 0x1
 10531 1135 51       		.byte	0x51
 10532 1136 23       		.byte	0x23
 10533 1137 01       		.uleb128 0x1
 10534 1138 94       		.byte	0x94
 10535 1139 01       		.byte	0x1
 10536 113a 08       		.byte	0x8
 10537 113b FF       		.byte	0xff
 10538 113c 1A       		.byte	0x1a
 10539 113d 40       		.byte	0x40
 10540 113e 24       		.byte	0x24
 10541 113f F3       		.byte	0xf3
 10542 1140 01       		.uleb128 0x1
 10543 1141 51       		.byte	0x51
 10544 1142 94       		.byte	0x94
 10545 1143 01       		.byte	0x1
 10546 1144 08       		.byte	0x8
 10547 1145 FF       		.byte	0xff
 10548 1146 1A       		.byte	0x1a
 10549 1147 48       		.byte	0x48
 10550 1148 24       		.byte	0x24
 10551 1149 21       		.byte	0x21
 10552 114a F3       		.byte	0xf3
 10553 114b 01       		.uleb128 0x1
 10554 114c 51       		.byte	0x51
 10555 114d 23       		.byte	0x23
 10556 114e 02       		.uleb128 0x2
 10557 114f 94       		.byte	0x94
 10558 1150 01       		.byte	0x1
 10559 1151 08       		.byte	0x8
 10560 1152 FF       		.byte	0xff
 10561 1153 1A       		.byte	0x1a
 10562 1154 38       		.byte	0x38
 10563 1155 24       		.byte	0x24
 10564 1156 21       		.byte	0x21
 10565 1157 F3       		.byte	0xf3
 10566 1158 01       		.uleb128 0x1
 10567 1159 51       		.byte	0x51
 10568 115a 23       		.byte	0x23
 10569 115b 03       		.uleb128 0x3
 10570 115c 94       		.byte	0x94
 10571 115d 01       		.byte	0x1
 10572 115e 08       		.byte	0x8
 10573 115f FF       		.byte	0xff
 10574 1160 1A       		.byte	0x1a
 10575 1161 21       		.byte	0x21
 10576 1162 34       		.byte	0x34
ARM GAS  C:\Users\Phuong\AppData\Local\Temp\ccawWFGQ.s 			page 207


 10577 1163 25       		.byte	0x25
 10578 1164 27       		.byte	0x27
 10579 1165 0C       		.byte	0xc
 10580 1166 0F0F0F0F 		.4byte	0xf0f0f0f
 10581 116a 1A       		.byte	0x1a
 10582 116b 34       		.byte	0x34
 10583 116c 24       		.byte	0x24
 10584 116d 27       		.byte	0x27
 10585 116e 70       		.byte	0x70
 10586 116f 00       		.sleb128 0
 10587 1170 32       		.byte	0x32
 10588 1171 25       		.byte	0x25
 10589 1172 27       		.byte	0x27
 10590 1173 71       		.byte	0x71
 10591 1174 00       		.sleb128 0
 10592 1175 27       		.byte	0x27
 10593 1176 0C       		.byte	0xc
 10594 1177 33333333 		.4byte	0x33333333
 10595 117b 1A       		.byte	0x1a
 10596 117c 9F       		.byte	0x9f
 10597 117d 6A000000 		.4byte	.LVL135
 10598 1181 6C000000 		.4byte	.LVL136
 10599 1185 E701     		.2byte	0x1e7
 10600 1187 F3       		.byte	0xf3
 10601 1188 01       		.uleb128 0x1
 10602 1189 51       		.byte	0x51
 10603 118a 23       		.byte	0x23
 10604 118b 01       		.uleb128 0x1
 10605 118c 94       		.byte	0x94
 10606 118d 01       		.byte	0x1
 10607 118e 08       		.byte	0x8
 10608 118f FF       		.byte	0xff
 10609 1190 1A       		.byte	0x1a
 10610 1191 40       		.byte	0x40
 10611 1192 24       		.byte	0x24
 10612 1193 F3       		.byte	0xf3
 10613 1194 01       		.uleb128 0x1
 10614 1195 51       		.byte	0x51
 10615 1196 94       		.byte	0x94
 10616 1197 01       		.byte	0x1
 10617 1198 08       		.byte	0x8
 10618 1199 FF       		.byte	0xff
 10619 119a 1A       		.byte	0x1a
 10620 119b 48       		.byte	0x48
 10621 119c 24       		.byte	0x24
 10622 119d 21       		.byte	0x21
 10623 119e F3       		.byte	0xf3
 10624 119f 01       		.uleb128 0x1
 10625 11a0 51       		.byte	0x51
 10626 11a1 23       		.byte	0x23
 10627 11a2 02       		.uleb128 0x2
 10628 11a3 94       		.byte	0x94
 10629 11a4 01       		.byte	0x1
 10630 11a5 08       		.byte	0x8
 10631 11a6 FF       		.byte	0xff
 10632 11a7 1A       		.byte	0x1a
 10633 11a8 38       		.byte	0x38
ARM GAS  C:\Users\Phuong\AppData\Local\Temp\ccawWFGQ.s 			page 208


 10634 11a9 24       		.byte	0x24
 10635 11aa 21       		.byte	0x21
 10636 11ab F3       		.byte	0xf3
 10637 11ac 01       		.uleb128 0x1
 10638 11ad 51       		.byte	0x51
 10639 11ae 23       		.byte	0x23
 10640 11af 03       		.uleb128 0x3
 10641 11b0 94       		.byte	0x94
 10642 11b1 01       		.byte	0x1
 10643 11b2 08       		.byte	0x8
 10644 11b3 FF       		.byte	0xff
 10645 11b4 1A       		.byte	0x1a
 10646 11b5 21       		.byte	0x21
 10647 11b6 F3       		.byte	0xf3
 10648 11b7 01       		.uleb128 0x1
 10649 11b8 51       		.byte	0x51
 10650 11b9 23       		.byte	0x23
 10651 11ba 04       		.uleb128 0x4
 10652 11bb 94       		.byte	0x94
 10653 11bc 01       		.byte	0x1
 10654 11bd 08       		.byte	0x8
 10655 11be FF       		.byte	0xff
 10656 11bf 1A       		.byte	0x1a
 10657 11c0 48       		.byte	0x48
 10658 11c1 24       		.byte	0x24
 10659 11c2 F3       		.byte	0xf3
 10660 11c3 01       		.uleb128 0x1
 10661 11c4 51       		.byte	0x51
 10662 11c5 23       		.byte	0x23
 10663 11c6 05       		.uleb128 0x5
 10664 11c7 94       		.byte	0x94
 10665 11c8 01       		.byte	0x1
 10666 11c9 08       		.byte	0x8
 10667 11ca FF       		.byte	0xff
 10668 11cb 1A       		.byte	0x1a
 10669 11cc 40       		.byte	0x40
 10670 11cd 24       		.byte	0x24
 10671 11ce 21       		.byte	0x21
 10672 11cf F3       		.byte	0xf3
 10673 11d0 01       		.uleb128 0x1
 10674 11d1 51       		.byte	0x51
 10675 11d2 23       		.byte	0x23
 10676 11d3 06       		.uleb128 0x6
 10677 11d4 94       		.byte	0x94
 10678 11d5 01       		.byte	0x1
 10679 11d6 08       		.byte	0x8
 10680 11d7 FF       		.byte	0xff
 10681 11d8 1A       		.byte	0x1a
 10682 11d9 38       		.byte	0x38
 10683 11da 24       		.byte	0x24
 10684 11db 21       		.byte	0x21
 10685 11dc F3       		.byte	0xf3
 10686 11dd 01       		.uleb128 0x1
 10687 11de 51       		.byte	0x51
 10688 11df 23       		.byte	0x23
 10689 11e0 07       		.uleb128 0x7
 10690 11e1 94       		.byte	0x94
ARM GAS  C:\Users\Phuong\AppData\Local\Temp\ccawWFGQ.s 			page 209


 10691 11e2 01       		.byte	0x1
 10692 11e3 08       		.byte	0x8
 10693 11e4 FF       		.byte	0xff
 10694 11e5 1A       		.byte	0x1a
 10695 11e6 21       		.byte	0x21
 10696 11e7 F3       		.byte	0xf3
 10697 11e8 01       		.uleb128 0x1
 10698 11e9 51       		.byte	0x51
 10699 11ea 23       		.byte	0x23
 10700 11eb 01       		.uleb128 0x1
 10701 11ec 94       		.byte	0x94
 10702 11ed 01       		.byte	0x1
 10703 11ee 08       		.byte	0x8
 10704 11ef FF       		.byte	0xff
 10705 11f0 1A       		.byte	0x1a
 10706 11f1 40       		.byte	0x40
 10707 11f2 24       		.byte	0x24
 10708 11f3 F3       		.byte	0xf3
 10709 11f4 01       		.uleb128 0x1
 10710 11f5 51       		.byte	0x51
 10711 11f6 94       		.byte	0x94
 10712 11f7 01       		.byte	0x1
 10713 11f8 08       		.byte	0x8
 10714 11f9 FF       		.byte	0xff
 10715 11fa 1A       		.byte	0x1a
 10716 11fb 48       		.byte	0x48
 10717 11fc 24       		.byte	0x24
 10718 11fd 21       		.byte	0x21
 10719 11fe F3       		.byte	0xf3
 10720 11ff 01       		.uleb128 0x1
 10721 1200 51       		.byte	0x51
 10722 1201 23       		.byte	0x23
 10723 1202 02       		.uleb128 0x2
 10724 1203 94       		.byte	0x94
 10725 1204 01       		.byte	0x1
 10726 1205 08       		.byte	0x8
 10727 1206 FF       		.byte	0xff
 10728 1207 1A       		.byte	0x1a
 10729 1208 38       		.byte	0x38
 10730 1209 24       		.byte	0x24
 10731 120a 21       		.byte	0x21
 10732 120b F3       		.byte	0xf3
 10733 120c 01       		.uleb128 0x1
 10734 120d 51       		.byte	0x51
 10735 120e 23       		.byte	0x23
 10736 120f 03       		.uleb128 0x3
 10737 1210 94       		.byte	0x94
 10738 1211 01       		.byte	0x1
 10739 1212 08       		.byte	0x8
 10740 1213 FF       		.byte	0xff
 10741 1214 1A       		.byte	0x1a
 10742 1215 21       		.byte	0x21
 10743 1216 34       		.byte	0x34
 10744 1217 25       		.byte	0x25
 10745 1218 27       		.byte	0x27
 10746 1219 0C       		.byte	0xc
 10747 121a 0F0F0F0F 		.4byte	0xf0f0f0f
ARM GAS  C:\Users\Phuong\AppData\Local\Temp\ccawWFGQ.s 			page 210


 10748 121e 1A       		.byte	0x1a
 10749 121f 34       		.byte	0x34
 10750 1220 24       		.byte	0x24
 10751 1221 27       		.byte	0x27
 10752 1222 F3       		.byte	0xf3
 10753 1223 01       		.uleb128 0x1
 10754 1224 51       		.byte	0x51
 10755 1225 23       		.byte	0x23
 10756 1226 04       		.uleb128 0x4
 10757 1227 94       		.byte	0x94
 10758 1228 01       		.byte	0x1
 10759 1229 08       		.byte	0x8
 10760 122a FF       		.byte	0xff
 10761 122b 1A       		.byte	0x1a
 10762 122c 48       		.byte	0x48
 10763 122d 24       		.byte	0x24
 10764 122e F3       		.byte	0xf3
 10765 122f 01       		.uleb128 0x1
 10766 1230 51       		.byte	0x51
 10767 1231 23       		.byte	0x23
 10768 1232 05       		.uleb128 0x5
 10769 1233 94       		.byte	0x94
 10770 1234 01       		.byte	0x1
 10771 1235 08       		.byte	0x8
 10772 1236 FF       		.byte	0xff
 10773 1237 1A       		.byte	0x1a
 10774 1238 40       		.byte	0x40
 10775 1239 24       		.byte	0x24
 10776 123a 21       		.byte	0x21
 10777 123b F3       		.byte	0xf3
 10778 123c 01       		.uleb128 0x1
 10779 123d 51       		.byte	0x51
 10780 123e 23       		.byte	0x23
 10781 123f 06       		.uleb128 0x6
 10782 1240 94       		.byte	0x94
 10783 1241 01       		.byte	0x1
 10784 1242 08       		.byte	0x8
 10785 1243 FF       		.byte	0xff
 10786 1244 1A       		.byte	0x1a
 10787 1245 38       		.byte	0x38
 10788 1246 24       		.byte	0x24
 10789 1247 21       		.byte	0x21
 10790 1248 F3       		.byte	0xf3
 10791 1249 01       		.uleb128 0x1
 10792 124a 51       		.byte	0x51
 10793 124b 23       		.byte	0x23
 10794 124c 07       		.uleb128 0x7
 10795 124d 94       		.byte	0x94
 10796 124e 01       		.byte	0x1
 10797 124f 08       		.byte	0x8
 10798 1250 FF       		.byte	0xff
 10799 1251 1A       		.byte	0x1a
 10800 1252 21       		.byte	0x21
 10801 1253 F3       		.byte	0xf3
 10802 1254 01       		.uleb128 0x1
 10803 1255 51       		.byte	0x51
 10804 1256 23       		.byte	0x23
ARM GAS  C:\Users\Phuong\AppData\Local\Temp\ccawWFGQ.s 			page 211


 10805 1257 04       		.uleb128 0x4
 10806 1258 94       		.byte	0x94
 10807 1259 01       		.byte	0x1
 10808 125a 08       		.byte	0x8
 10809 125b FF       		.byte	0xff
 10810 125c 1A       		.byte	0x1a
 10811 125d 48       		.byte	0x48
 10812 125e 24       		.byte	0x24
 10813 125f F3       		.byte	0xf3
 10814 1260 01       		.uleb128 0x1
 10815 1261 51       		.byte	0x51
 10816 1262 23       		.byte	0x23
 10817 1263 05       		.uleb128 0x5
 10818 1264 94       		.byte	0x94
 10819 1265 01       		.byte	0x1
 10820 1266 08       		.byte	0x8
 10821 1267 FF       		.byte	0xff
 10822 1268 1A       		.byte	0x1a
 10823 1269 40       		.byte	0x40
 10824 126a 24       		.byte	0x24
 10825 126b 21       		.byte	0x21
 10826 126c F3       		.byte	0xf3
 10827 126d 01       		.uleb128 0x1
 10828 126e 51       		.byte	0x51
 10829 126f 23       		.byte	0x23
 10830 1270 06       		.uleb128 0x6
 10831 1271 94       		.byte	0x94
 10832 1272 01       		.byte	0x1
 10833 1273 08       		.byte	0x8
 10834 1274 FF       		.byte	0xff
 10835 1275 1A       		.byte	0x1a
 10836 1276 38       		.byte	0x38
 10837 1277 24       		.byte	0x24
 10838 1278 21       		.byte	0x21
 10839 1279 F3       		.byte	0xf3
 10840 127a 01       		.uleb128 0x1
 10841 127b 51       		.byte	0x51
 10842 127c 23       		.byte	0x23
 10843 127d 07       		.uleb128 0x7
 10844 127e 94       		.byte	0x94
 10845 127f 01       		.byte	0x1
 10846 1280 08       		.byte	0x8
 10847 1281 FF       		.byte	0xff
 10848 1282 1A       		.byte	0x1a
 10849 1283 21       		.byte	0x21
 10850 1284 F3       		.byte	0xf3
 10851 1285 01       		.uleb128 0x1
 10852 1286 51       		.byte	0x51
 10853 1287 23       		.byte	0x23
 10854 1288 01       		.uleb128 0x1
 10855 1289 94       		.byte	0x94
 10856 128a 01       		.byte	0x1
 10857 128b 08       		.byte	0x8
 10858 128c FF       		.byte	0xff
 10859 128d 1A       		.byte	0x1a
 10860 128e 40       		.byte	0x40
 10861 128f 24       		.byte	0x24
ARM GAS  C:\Users\Phuong\AppData\Local\Temp\ccawWFGQ.s 			page 212


 10862 1290 F3       		.byte	0xf3
 10863 1291 01       		.uleb128 0x1
 10864 1292 51       		.byte	0x51
 10865 1293 94       		.byte	0x94
 10866 1294 01       		.byte	0x1
 10867 1295 08       		.byte	0x8
 10868 1296 FF       		.byte	0xff
 10869 1297 1A       		.byte	0x1a
 10870 1298 48       		.byte	0x48
 10871 1299 24       		.byte	0x24
 10872 129a 21       		.byte	0x21
 10873 129b F3       		.byte	0xf3
 10874 129c 01       		.uleb128 0x1
 10875 129d 51       		.byte	0x51
 10876 129e 23       		.byte	0x23
 10877 129f 02       		.uleb128 0x2
 10878 12a0 94       		.byte	0x94
 10879 12a1 01       		.byte	0x1
 10880 12a2 08       		.byte	0x8
 10881 12a3 FF       		.byte	0xff
 10882 12a4 1A       		.byte	0x1a
 10883 12a5 38       		.byte	0x38
 10884 12a6 24       		.byte	0x24
 10885 12a7 21       		.byte	0x21
 10886 12a8 F3       		.byte	0xf3
 10887 12a9 01       		.uleb128 0x1
 10888 12aa 51       		.byte	0x51
 10889 12ab 23       		.byte	0x23
 10890 12ac 03       		.uleb128 0x3
 10891 12ad 94       		.byte	0x94
 10892 12ae 01       		.byte	0x1
 10893 12af 08       		.byte	0x8
 10894 12b0 FF       		.byte	0xff
 10895 12b1 1A       		.byte	0x1a
 10896 12b2 21       		.byte	0x21
 10897 12b3 34       		.byte	0x34
 10898 12b4 25       		.byte	0x25
 10899 12b5 27       		.byte	0x27
 10900 12b6 0C       		.byte	0xc
 10901 12b7 0F0F0F0F 		.4byte	0xf0f0f0f
 10902 12bb 1A       		.byte	0x1a
 10903 12bc 27       		.byte	0x27
 10904 12bd F3       		.byte	0xf3
 10905 12be 01       		.uleb128 0x1
 10906 12bf 51       		.byte	0x51
 10907 12c0 23       		.byte	0x23
 10908 12c1 01       		.uleb128 0x1
 10909 12c2 94       		.byte	0x94
 10910 12c3 01       		.byte	0x1
 10911 12c4 08       		.byte	0x8
 10912 12c5 FF       		.byte	0xff
 10913 12c6 1A       		.byte	0x1a
 10914 12c7 40       		.byte	0x40
 10915 12c8 24       		.byte	0x24
 10916 12c9 F3       		.byte	0xf3
 10917 12ca 01       		.uleb128 0x1
 10918 12cb 51       		.byte	0x51
ARM GAS  C:\Users\Phuong\AppData\Local\Temp\ccawWFGQ.s 			page 213


 10919 12cc 94       		.byte	0x94
 10920 12cd 01       		.byte	0x1
 10921 12ce 08       		.byte	0x8
 10922 12cf FF       		.byte	0xff
 10923 12d0 1A       		.byte	0x1a
 10924 12d1 48       		.byte	0x48
 10925 12d2 24       		.byte	0x24
 10926 12d3 21       		.byte	0x21
 10927 12d4 F3       		.byte	0xf3
 10928 12d5 01       		.uleb128 0x1
 10929 12d6 51       		.byte	0x51
 10930 12d7 23       		.byte	0x23
 10931 12d8 02       		.uleb128 0x2
 10932 12d9 94       		.byte	0x94
 10933 12da 01       		.byte	0x1
 10934 12db 08       		.byte	0x8
 10935 12dc FF       		.byte	0xff
 10936 12dd 1A       		.byte	0x1a
 10937 12de 38       		.byte	0x38
 10938 12df 24       		.byte	0x24
 10939 12e0 21       		.byte	0x21
 10940 12e1 F3       		.byte	0xf3
 10941 12e2 01       		.uleb128 0x1
 10942 12e3 51       		.byte	0x51
 10943 12e4 23       		.byte	0x23
 10944 12e5 03       		.uleb128 0x3
 10945 12e6 94       		.byte	0x94
 10946 12e7 01       		.byte	0x1
 10947 12e8 08       		.byte	0x8
 10948 12e9 FF       		.byte	0xff
 10949 12ea 1A       		.byte	0x1a
 10950 12eb 21       		.byte	0x21
 10951 12ec F3       		.byte	0xf3
 10952 12ed 01       		.uleb128 0x1
 10953 12ee 51       		.byte	0x51
 10954 12ef 23       		.byte	0x23
 10955 12f0 04       		.uleb128 0x4
 10956 12f1 94       		.byte	0x94
 10957 12f2 01       		.byte	0x1
 10958 12f3 08       		.byte	0x8
 10959 12f4 FF       		.byte	0xff
 10960 12f5 1A       		.byte	0x1a
 10961 12f6 48       		.byte	0x48
 10962 12f7 24       		.byte	0x24
 10963 12f8 F3       		.byte	0xf3
 10964 12f9 01       		.uleb128 0x1
 10965 12fa 51       		.byte	0x51
 10966 12fb 23       		.byte	0x23
 10967 12fc 05       		.uleb128 0x5
 10968 12fd 94       		.byte	0x94
 10969 12fe 01       		.byte	0x1
 10970 12ff 08       		.byte	0x8
 10971 1300 FF       		.byte	0xff
 10972 1301 1A       		.byte	0x1a
 10973 1302 40       		.byte	0x40
 10974 1303 24       		.byte	0x24
 10975 1304 21       		.byte	0x21
ARM GAS  C:\Users\Phuong\AppData\Local\Temp\ccawWFGQ.s 			page 214


 10976 1305 F3       		.byte	0xf3
 10977 1306 01       		.uleb128 0x1
 10978 1307 51       		.byte	0x51
 10979 1308 23       		.byte	0x23
 10980 1309 06       		.uleb128 0x6
 10981 130a 94       		.byte	0x94
 10982 130b 01       		.byte	0x1
 10983 130c 08       		.byte	0x8
 10984 130d FF       		.byte	0xff
 10985 130e 1A       		.byte	0x1a
 10986 130f 38       		.byte	0x38
 10987 1310 24       		.byte	0x24
 10988 1311 21       		.byte	0x21
 10989 1312 F3       		.byte	0xf3
 10990 1313 01       		.uleb128 0x1
 10991 1314 51       		.byte	0x51
 10992 1315 23       		.byte	0x23
 10993 1316 07       		.uleb128 0x7
 10994 1317 94       		.byte	0x94
 10995 1318 01       		.byte	0x1
 10996 1319 08       		.byte	0x8
 10997 131a FF       		.byte	0xff
 10998 131b 1A       		.byte	0x1a
 10999 131c 21       		.byte	0x21
 11000 131d F3       		.byte	0xf3
 11001 131e 01       		.uleb128 0x1
 11002 131f 51       		.byte	0x51
 11003 1320 23       		.byte	0x23
 11004 1321 01       		.uleb128 0x1
 11005 1322 94       		.byte	0x94
 11006 1323 01       		.byte	0x1
 11007 1324 08       		.byte	0x8
 11008 1325 FF       		.byte	0xff
 11009 1326 1A       		.byte	0x1a
 11010 1327 40       		.byte	0x40
 11011 1328 24       		.byte	0x24
 11012 1329 F3       		.byte	0xf3
 11013 132a 01       		.uleb128 0x1
 11014 132b 51       		.byte	0x51
 11015 132c 94       		.byte	0x94
 11016 132d 01       		.byte	0x1
 11017 132e 08       		.byte	0x8
 11018 132f FF       		.byte	0xff
 11019 1330 1A       		.byte	0x1a
 11020 1331 48       		.byte	0x48
 11021 1332 24       		.byte	0x24
 11022 1333 21       		.byte	0x21
 11023 1334 F3       		.byte	0xf3
 11024 1335 01       		.uleb128 0x1
 11025 1336 51       		.byte	0x51
 11026 1337 23       		.byte	0x23
 11027 1338 02       		.uleb128 0x2
 11028 1339 94       		.byte	0x94
 11029 133a 01       		.byte	0x1
 11030 133b 08       		.byte	0x8
 11031 133c FF       		.byte	0xff
 11032 133d 1A       		.byte	0x1a
ARM GAS  C:\Users\Phuong\AppData\Local\Temp\ccawWFGQ.s 			page 215


 11033 133e 38       		.byte	0x38
 11034 133f 24       		.byte	0x24
 11035 1340 21       		.byte	0x21
 11036 1341 F3       		.byte	0xf3
 11037 1342 01       		.uleb128 0x1
 11038 1343 51       		.byte	0x51
 11039 1344 23       		.byte	0x23
 11040 1345 03       		.uleb128 0x3
 11041 1346 94       		.byte	0x94
 11042 1347 01       		.byte	0x1
 11043 1348 08       		.byte	0x8
 11044 1349 FF       		.byte	0xff
 11045 134a 1A       		.byte	0x1a
 11046 134b 21       		.byte	0x21
 11047 134c 34       		.byte	0x34
 11048 134d 25       		.byte	0x25
 11049 134e 27       		.byte	0x27
 11050 134f 0C       		.byte	0xc
 11051 1350 0F0F0F0F 		.4byte	0xf0f0f0f
 11052 1354 1A       		.byte	0x1a
 11053 1355 34       		.byte	0x34
 11054 1356 24       		.byte	0x24
 11055 1357 27       		.byte	0x27
 11056 1358 40       		.byte	0x40
 11057 1359 25       		.byte	0x25
 11058 135a 27       		.byte	0x27
 11059 135b 40       		.byte	0x40
 11060 135c 24       		.byte	0x24
 11061 135d 40       		.byte	0x40
 11062 135e 25       		.byte	0x25
 11063 135f 40       		.byte	0x40
 11064 1360 24       		.byte	0x24
 11065 1361 27       		.byte	0x27
 11066 1362 70       		.byte	0x70
 11067 1363 00       		.sleb128 0
 11068 1364 32       		.byte	0x32
 11069 1365 25       		.byte	0x25
 11070 1366 27       		.byte	0x27
 11071 1367 0C       		.byte	0xc
 11072 1368 33333333 		.4byte	0x33333333
 11073 136c 1A       		.byte	0x1a
 11074 136d 9F       		.byte	0x9f
 11075 136e 6C000000 		.4byte	.LVL136
 11076 1372 70000000 		.4byte	.LVL138
 11077 1376 0100     		.2byte	0x1
 11078 1378 52       		.byte	0x52
 11079 1379 7E000000 		.4byte	.LVL141
 11080 137d 84000000 		.4byte	.LVL144
 11081 1381 0100     		.2byte	0x1
 11082 1383 52       		.byte	0x52
 11083 1384 84000000 		.4byte	.LVL144
 11084 1388 8E000000 		.4byte	.LVL146
 11085 138c 0A00     		.2byte	0xa
 11086 138e 71       		.byte	0x71
 11087 138f 00       		.sleb128 0
 11088 1390 11       		.byte	0x11
 11089 1391 AAD5AAD5 		.sleb128 -1431655766
ARM GAS  C:\Users\Phuong\AppData\Local\Temp\ccawWFGQ.s 			page 216


 11089      7A
 11090 1396 1A       		.byte	0x1a
 11091 1397 9F       		.byte	0x9f
 11092 1398 92000000 		.4byte	.LVL147
 11093 139c C2000000 		.4byte	.LVL149
 11094 13a0 0100     		.2byte	0x1
 11095 13a2 52       		.byte	0x52
 11096 13a3 C2000000 		.4byte	.LVL149
 11097 13a7 D8000000 		.4byte	.LVL151
 11098 13ab 0700     		.2byte	0x7
 11099 13ad 77       		.byte	0x77
 11100 13ae 00       		.sleb128 0
 11101 13af 06       		.byte	0x6
 11102 13b0 76       		.byte	0x76
 11103 13b1 00       		.sleb128 0
 11104 13b2 27       		.byte	0x27
 11105 13b3 9F       		.byte	0x9f
 11106 13b4 D8000000 		.4byte	.LVL151
 11107 13b8 02010000 		.4byte	.LVL152
 11108 13bc 0100     		.2byte	0x1
 11109 13be 52       		.byte	0x52
 11110 13bf 02010000 		.4byte	.LVL152
 11111 13c3 14010000 		.4byte	.LVL154
 11112 13c7 1100     		.2byte	0x11
 11113 13c9 76       		.byte	0x76
 11114 13ca 00       		.sleb128 0
 11115 13cb 34       		.byte	0x34
 11116 13cc 14       		.byte	0x14
 11117 13cd 14       		.byte	0x14
 11118 13ce 1F       		.byte	0x1f
 11119 13cf 23       		.byte	0x23
 11120 13d0 20       		.uleb128 0x20
 11121 13d1 24       		.byte	0x24
 11122 13d2 17       		.byte	0x17
 11123 13d3 25       		.byte	0x25
 11124 13d4 21       		.byte	0x21
 11125 13d5 77       		.byte	0x77
 11126 13d6 04       		.sleb128 4
 11127 13d7 06       		.byte	0x6
 11128 13d8 27       		.byte	0x27
 11129 13d9 9F       		.byte	0x9f
 11130 13da 14010000 		.4byte	.LVL154
 11131 13de 40010000 		.4byte	.LVL155
 11132 13e2 0100     		.2byte	0x1
 11133 13e4 52       		.byte	0x52
 11134 13e5 40010000 		.4byte	.LVL155
 11135 13e9 56010000 		.4byte	.LVL157
 11136 13ed 0700     		.2byte	0x7
 11137 13ef 77       		.byte	0x77
 11138 13f0 08       		.sleb128 8
 11139 13f1 06       		.byte	0x6
 11140 13f2 70       		.byte	0x70
 11141 13f3 00       		.sleb128 0
 11142 13f4 27       		.byte	0x27
 11143 13f5 9F       		.byte	0x9f
 11144 13f6 56010000 		.4byte	.LVL157
 11145 13fa 7E010000 		.4byte	.LVL158
ARM GAS  C:\Users\Phuong\AppData\Local\Temp\ccawWFGQ.s 			page 217


 11146 13fe 0100     		.2byte	0x1
 11147 1400 52       		.byte	0x52
 11148 1401 7E010000 		.4byte	.LVL158
 11149 1405 92010000 		.4byte	.LVL161
 11150 1409 1100     		.2byte	0x11
 11151 140b 70       		.byte	0x70
 11152 140c 00       		.sleb128 0
 11153 140d 34       		.byte	0x34
 11154 140e 14       		.byte	0x14
 11155 140f 14       		.byte	0x14
 11156 1410 1F       		.byte	0x1f
 11157 1411 23       		.byte	0x23
 11158 1412 20       		.uleb128 0x20
 11159 1413 24       		.byte	0x24
 11160 1414 17       		.byte	0x17
 11161 1415 25       		.byte	0x25
 11162 1416 21       		.byte	0x21
 11163 1417 77       		.byte	0x77
 11164 1418 0C       		.sleb128 12
 11165 1419 06       		.byte	0x6
 11166 141a 27       		.byte	0x27
 11167 141b 9F       		.byte	0x9f
 11168 141c A8010000 		.4byte	.LVL163
 11169 1420 B0010000 		.4byte	.LVL165
 11170 1424 0100     		.2byte	0x1
 11171 1426 52       		.byte	0x52
 11172 1427 B0010000 		.4byte	.LVL165
 11173 142b B4010000 		.4byte	.LVL167
 11174 142f 1800     		.2byte	0x18
 11175 1431 76       		.byte	0x76
 11176 1432 00       		.sleb128 0
 11177 1433 74       		.byte	0x74
 11178 1434 00       		.sleb128 0
 11179 1435 14       		.byte	0x14
 11180 1436 14       		.byte	0x14
 11181 1437 1F       		.byte	0x1f
 11182 1438 23       		.byte	0x23
 11183 1439 20       		.uleb128 0x20
 11184 143a 24       		.byte	0x24
 11185 143b 17       		.byte	0x17
 11186 143c 25       		.byte	0x25
 11187 143d 21       		.byte	0x21
 11188 143e 70       		.byte	0x70
 11189 143f 00       		.sleb128 0
 11190 1440 27       		.byte	0x27
 11191 1441 11       		.byte	0x11
 11192 1442 AAD5AAD5 		.sleb128 -1431655766
 11192      7A
 11193 1447 1A       		.byte	0x1a
 11194 1448 9F       		.byte	0x9f
 11195 1449 B4010000 		.4byte	.LVL167
 11196 144d BA010000 		.4byte	.LVL168
 11197 1451 1700     		.2byte	0x17
 11198 1453 76       		.byte	0x76
 11199 1454 00       		.sleb128 0
 11200 1455 31       		.byte	0x31
 11201 1456 14       		.byte	0x14
ARM GAS  C:\Users\Phuong\AppData\Local\Temp\ccawWFGQ.s 			page 218


 11202 1457 14       		.byte	0x14
 11203 1458 1F       		.byte	0x1f
 11204 1459 23       		.byte	0x23
 11205 145a 20       		.uleb128 0x20
 11206 145b 24       		.byte	0x24
 11207 145c 17       		.byte	0x17
 11208 145d 25       		.byte	0x25
 11209 145e 21       		.byte	0x21
 11210 145f 70       		.byte	0x70
 11211 1460 00       		.sleb128 0
 11212 1461 27       		.byte	0x27
 11213 1462 11       		.byte	0x11
 11214 1463 AAD5AAD5 		.sleb128 -1431655766
 11214      7A
 11215 1468 1A       		.byte	0x1a
 11216 1469 9F       		.byte	0x9f
 11217 146a BA010000 		.4byte	.LVL168
 11218 146e BE010000 		.4byte	.LVL170
 11219 1472 0100     		.2byte	0x1
 11220 1474 54       		.byte	0x54
 11221 1475 BE010000 		.4byte	.LVL170
 11222 1479 C0010000 		.4byte	.LVL171
 11223 147d 2C00     		.2byte	0x2c
 11224 147f 76       		.byte	0x76
 11225 1480 00       		.sleb128 0
 11226 1481 31       		.byte	0x31
 11227 1482 14       		.byte	0x14
 11228 1483 14       		.byte	0x14
 11229 1484 1F       		.byte	0x1f
 11230 1485 23       		.byte	0x23
 11231 1486 20       		.uleb128 0x20
 11232 1487 24       		.byte	0x24
 11233 1488 17       		.byte	0x17
 11234 1489 25       		.byte	0x25
 11235 148a 21       		.byte	0x21
 11236 148b 70       		.byte	0x70
 11237 148c 00       		.sleb128 0
 11238 148d 27       		.byte	0x27
 11239 148e 11       		.byte	0x11
 11240 148f AAD5AAD5 		.sleb128 -1431655766
 11240      7A
 11241 1494 1A       		.byte	0x1a
 11242 1495 76       		.byte	0x76
 11243 1496 00       		.sleb128 0
 11244 1497 31       		.byte	0x31
 11245 1498 14       		.byte	0x14
 11246 1499 14       		.byte	0x14
 11247 149a 1F       		.byte	0x1f
 11248 149b 23       		.byte	0x23
 11249 149c 20       		.uleb128 0x20
 11250 149d 24       		.byte	0x24
 11251 149e 17       		.byte	0x17
 11252 149f 25       		.byte	0x25
 11253 14a0 21       		.byte	0x21
 11254 14a1 27       		.byte	0x27
 11255 14a2 72       		.byte	0x72
 11256 14a3 00       		.sleb128 0
ARM GAS  C:\Users\Phuong\AppData\Local\Temp\ccawWFGQ.s 			page 219


 11257 14a4 38       		.byte	0x38
 11258 14a5 25       		.byte	0x25
 11259 14a6 27       		.byte	0x27
 11260 14a7 75       		.byte	0x75
 11261 14a8 00       		.sleb128 0
 11262 14a9 1A       		.byte	0x1a
 11263 14aa 9F       		.byte	0x9f
 11264 14ab C0010000 		.4byte	.LVL171
 11265 14af C6010000 		.4byte	.LVL172
 11266 14b3 3600     		.2byte	0x36
 11267 14b5 76       		.byte	0x76
 11268 14b6 00       		.sleb128 0
 11269 14b7 31       		.byte	0x31
 11270 14b8 14       		.byte	0x14
 11271 14b9 14       		.byte	0x14
 11272 14ba 1F       		.byte	0x1f
 11273 14bb 23       		.byte	0x23
 11274 14bc 20       		.uleb128 0x20
 11275 14bd 24       		.byte	0x24
 11276 14be 17       		.byte	0x17
 11277 14bf 25       		.byte	0x25
 11278 14c0 21       		.byte	0x21
 11279 14c1 70       		.byte	0x70
 11280 14c2 00       		.sleb128 0
 11281 14c3 27       		.byte	0x27
 11282 14c4 11       		.byte	0x11
 11283 14c5 AAD5AAD5 		.sleb128 -1431655766
 11283      7A
 11284 14ca 1A       		.byte	0x1a
 11285 14cb 76       		.byte	0x76
 11286 14cc 00       		.sleb128 0
 11287 14cd 31       		.byte	0x31
 11288 14ce 14       		.byte	0x14
 11289 14cf 14       		.byte	0x14
 11290 14d0 1F       		.byte	0x1f
 11291 14d1 23       		.byte	0x23
 11292 14d2 20       		.uleb128 0x20
 11293 14d3 24       		.byte	0x24
 11294 14d4 17       		.byte	0x17
 11295 14d5 25       		.byte	0x25
 11296 14d6 21       		.byte	0x21
 11297 14d7 27       		.byte	0x27
 11298 14d8 71       		.byte	0x71
 11299 14d9 00       		.sleb128 0
 11300 14da 31       		.byte	0x31
 11301 14db 14       		.byte	0x14
 11302 14dc 14       		.byte	0x14
 11303 14dd 1F       		.byte	0x1f
 11304 14de 23       		.byte	0x23
 11305 14df 20       		.uleb128 0x20
 11306 14e0 24       		.byte	0x24
 11307 14e1 17       		.byte	0x17
 11308 14e2 25       		.byte	0x25
 11309 14e3 21       		.byte	0x21
 11310 14e4 38       		.byte	0x38
 11311 14e5 25       		.byte	0x25
 11312 14e6 27       		.byte	0x27
ARM GAS  C:\Users\Phuong\AppData\Local\Temp\ccawWFGQ.s 			page 220


 11313 14e7 75       		.byte	0x75
 11314 14e8 00       		.sleb128 0
 11315 14e9 1A       		.byte	0x1a
 11316 14ea 9F       		.byte	0x9f
 11317 14eb C6010000 		.4byte	.LVL172
 11318 14ef C8010000 		.4byte	.LVL173
 11319 14f3 3900     		.2byte	0x39
 11320 14f5 76       		.byte	0x76
 11321 14f6 00       		.sleb128 0
 11322 14f7 31       		.byte	0x31
 11323 14f8 14       		.byte	0x14
 11324 14f9 14       		.byte	0x14
 11325 14fa 1F       		.byte	0x1f
 11326 14fb 23       		.byte	0x23
 11327 14fc 20       		.uleb128 0x20
 11328 14fd 24       		.byte	0x24
 11329 14fe 17       		.byte	0x17
 11330 14ff 25       		.byte	0x25
 11331 1500 21       		.byte	0x21
 11332 1501 70       		.byte	0x70
 11333 1502 00       		.sleb128 0
 11334 1503 27       		.byte	0x27
 11335 1504 11       		.byte	0x11
 11336 1505 AAD5AAD5 		.sleb128 -1431655766
 11336      7A
 11337 150a 1A       		.byte	0x1a
 11338 150b 76       		.byte	0x76
 11339 150c 00       		.sleb128 0
 11340 150d 31       		.byte	0x31
 11341 150e 14       		.byte	0x14
 11342 150f 14       		.byte	0x14
 11343 1510 1F       		.byte	0x1f
 11344 1511 23       		.byte	0x23
 11345 1512 20       		.uleb128 0x20
 11346 1513 24       		.byte	0x24
 11347 1514 17       		.byte	0x17
 11348 1515 25       		.byte	0x25
 11349 1516 21       		.byte	0x21
 11350 1517 27       		.byte	0x27
 11351 1518 71       		.byte	0x71
 11352 1519 00       		.sleb128 0
 11353 151a 31       		.byte	0x31
 11354 151b 14       		.byte	0x14
 11355 151c 14       		.byte	0x14
 11356 151d 1F       		.byte	0x1f
 11357 151e 23       		.byte	0x23
 11358 151f 20       		.uleb128 0x20
 11359 1520 24       		.byte	0x24
 11360 1521 17       		.byte	0x17
 11361 1522 25       		.byte	0x25
 11362 1523 21       		.byte	0x21
 11363 1524 38       		.byte	0x38
 11364 1525 25       		.byte	0x25
 11365 1526 27       		.byte	0x27
 11366 1527 0C       		.byte	0xc
 11367 1528 FF00FF00 		.4byte	0xff00ff
 11368 152c 1A       		.byte	0x1a
ARM GAS  C:\Users\Phuong\AppData\Local\Temp\ccawWFGQ.s 			page 221


 11369 152d 9F       		.byte	0x9f
 11370 152e C8010000 		.4byte	.LVL173
 11371 1532 CC010000 		.4byte	.LVL175
 11372 1536 0100     		.2byte	0x1
 11373 1538 54       		.byte	0x54
 11374 1539 CC010000 		.4byte	.LVL175
 11375 153d CE010000 		.4byte	.LVL176
 11376 1541 6500     		.2byte	0x65
 11377 1543 76       		.byte	0x76
 11378 1544 00       		.sleb128 0
 11379 1545 31       		.byte	0x31
 11380 1546 14       		.byte	0x14
 11381 1547 14       		.byte	0x14
 11382 1548 1F       		.byte	0x1f
 11383 1549 23       		.byte	0x23
 11384 154a 20       		.uleb128 0x20
 11385 154b 24       		.byte	0x24
 11386 154c 17       		.byte	0x17
 11387 154d 25       		.byte	0x25
 11388 154e 21       		.byte	0x21
 11389 154f 70       		.byte	0x70
 11390 1550 00       		.sleb128 0
 11391 1551 27       		.byte	0x27
 11392 1552 11       		.byte	0x11
 11393 1553 AAD5AAD5 		.sleb128 -1431655766
 11393      7A
 11394 1558 1A       		.byte	0x1a
 11395 1559 76       		.byte	0x76
 11396 155a 00       		.sleb128 0
 11397 155b 31       		.byte	0x31
 11398 155c 14       		.byte	0x14
 11399 155d 14       		.byte	0x14
 11400 155e 1F       		.byte	0x1f
 11401 155f 23       		.byte	0x23
 11402 1560 20       		.uleb128 0x20
 11403 1561 24       		.byte	0x24
 11404 1562 17       		.byte	0x17
 11405 1563 25       		.byte	0x25
 11406 1564 21       		.byte	0x21
 11407 1565 70       		.byte	0x70
 11408 1566 00       		.sleb128 0
 11409 1567 27       		.byte	0x27
 11410 1568 11       		.byte	0x11
 11411 1569 AAD5AAD5 		.sleb128 -1431655766
 11411      7A
 11412 156e 1A       		.byte	0x1a
 11413 156f 76       		.byte	0x76
 11414 1570 00       		.sleb128 0
 11415 1571 31       		.byte	0x31
 11416 1572 14       		.byte	0x14
 11417 1573 14       		.byte	0x14
 11418 1574 1F       		.byte	0x1f
 11419 1575 23       		.byte	0x23
 11420 1576 20       		.uleb128 0x20
 11421 1577 24       		.byte	0x24
 11422 1578 17       		.byte	0x17
 11423 1579 25       		.byte	0x25
ARM GAS  C:\Users\Phuong\AppData\Local\Temp\ccawWFGQ.s 			page 222


 11424 157a 21       		.byte	0x21
 11425 157b 27       		.byte	0x27
 11426 157c 71       		.byte	0x71
 11427 157d 00       		.sleb128 0
 11428 157e 31       		.byte	0x31
 11429 157f 14       		.byte	0x14
 11430 1580 14       		.byte	0x14
 11431 1581 1F       		.byte	0x1f
 11432 1582 23       		.byte	0x23
 11433 1583 20       		.uleb128 0x20
 11434 1584 24       		.byte	0x24
 11435 1585 17       		.byte	0x17
 11436 1586 25       		.byte	0x25
 11437 1587 21       		.byte	0x21
 11438 1588 38       		.byte	0x38
 11439 1589 25       		.byte	0x25
 11440 158a 27       		.byte	0x27
 11441 158b 0C       		.byte	0xc
 11442 158c FF00FF00 		.4byte	0xff00ff
 11443 1590 1A       		.byte	0x1a
 11444 1591 27       		.byte	0x27
 11445 1592 76       		.byte	0x76
 11446 1593 00       		.sleb128 0
 11447 1594 31       		.byte	0x31
 11448 1595 14       		.byte	0x14
 11449 1596 14       		.byte	0x14
 11450 1597 1F       		.byte	0x1f
 11451 1598 23       		.byte	0x23
 11452 1599 20       		.uleb128 0x20
 11453 159a 24       		.byte	0x24
 11454 159b 17       		.byte	0x17
 11455 159c 25       		.byte	0x25
 11456 159d 21       		.byte	0x21
 11457 159e 27       		.byte	0x27
 11458 159f 72       		.byte	0x72
 11459 15a0 00       		.sleb128 0
 11460 15a1 32       		.byte	0x32
 11461 15a2 25       		.byte	0x25
 11462 15a3 27       		.byte	0x27
 11463 15a4 75       		.byte	0x75
 11464 15a5 00       		.sleb128 0
 11465 15a6 1A       		.byte	0x1a
 11466 15a7 9F       		.byte	0x9f
 11467 15a8 CE010000 		.4byte	.LVL176
 11468 15ac D0010000 		.4byte	.LVL177
 11469 15b0 AA00     		.2byte	0xaa
 11470 15b2 76       		.byte	0x76
 11471 15b3 00       		.sleb128 0
 11472 15b4 31       		.byte	0x31
 11473 15b5 14       		.byte	0x14
 11474 15b6 14       		.byte	0x14
 11475 15b7 1F       		.byte	0x1f
 11476 15b8 23       		.byte	0x23
 11477 15b9 20       		.uleb128 0x20
 11478 15ba 24       		.byte	0x24
 11479 15bb 17       		.byte	0x17
 11480 15bc 25       		.byte	0x25
ARM GAS  C:\Users\Phuong\AppData\Local\Temp\ccawWFGQ.s 			page 223


 11481 15bd 21       		.byte	0x21
 11482 15be 70       		.byte	0x70
 11483 15bf 00       		.sleb128 0
 11484 15c0 27       		.byte	0x27
 11485 15c1 11       		.byte	0x11
 11486 15c2 AAD5AAD5 		.sleb128 -1431655766
 11486      7A
 11487 15c7 1A       		.byte	0x1a
 11488 15c8 76       		.byte	0x76
 11489 15c9 00       		.sleb128 0
 11490 15ca 31       		.byte	0x31
 11491 15cb 14       		.byte	0x14
 11492 15cc 14       		.byte	0x14
 11493 15cd 1F       		.byte	0x1f
 11494 15ce 23       		.byte	0x23
 11495 15cf 20       		.uleb128 0x20
 11496 15d0 24       		.byte	0x24
 11497 15d1 17       		.byte	0x17
 11498 15d2 25       		.byte	0x25
 11499 15d3 21       		.byte	0x21
 11500 15d4 70       		.byte	0x70
 11501 15d5 00       		.sleb128 0
 11502 15d6 27       		.byte	0x27
 11503 15d7 11       		.byte	0x11
 11504 15d8 AAD5AAD5 		.sleb128 -1431655766
 11504      7A
 11505 15dd 1A       		.byte	0x1a
 11506 15de 76       		.byte	0x76
 11507 15df 00       		.sleb128 0
 11508 15e0 31       		.byte	0x31
 11509 15e1 14       		.byte	0x14
 11510 15e2 14       		.byte	0x14
 11511 15e3 1F       		.byte	0x1f
 11512 15e4 23       		.byte	0x23
 11513 15e5 20       		.uleb128 0x20
 11514 15e6 24       		.byte	0x24
 11515 15e7 17       		.byte	0x17
 11516 15e8 25       		.byte	0x25
 11517 15e9 21       		.byte	0x21
 11518 15ea 27       		.byte	0x27
 11519 15eb 71       		.byte	0x71
 11520 15ec 00       		.sleb128 0
 11521 15ed 31       		.byte	0x31
 11522 15ee 14       		.byte	0x14
 11523 15ef 14       		.byte	0x14
 11524 15f0 1F       		.byte	0x1f
 11525 15f1 23       		.byte	0x23
 11526 15f2 20       		.uleb128 0x20
 11527 15f3 24       		.byte	0x24
 11528 15f4 17       		.byte	0x17
 11529 15f5 25       		.byte	0x25
 11530 15f6 21       		.byte	0x21
 11531 15f7 38       		.byte	0x38
 11532 15f8 25       		.byte	0x25
 11533 15f9 27       		.byte	0x27
 11534 15fa 0C       		.byte	0xc
 11535 15fb FF00FF00 		.4byte	0xff00ff
ARM GAS  C:\Users\Phuong\AppData\Local\Temp\ccawWFGQ.s 			page 224


 11536 15ff 1A       		.byte	0x1a
 11537 1600 27       		.byte	0x27
 11538 1601 76       		.byte	0x76
 11539 1602 00       		.sleb128 0
 11540 1603 31       		.byte	0x31
 11541 1604 14       		.byte	0x14
 11542 1605 14       		.byte	0x14
 11543 1606 1F       		.byte	0x1f
 11544 1607 23       		.byte	0x23
 11545 1608 20       		.uleb128 0x20
 11546 1609 24       		.byte	0x24
 11547 160a 17       		.byte	0x17
 11548 160b 25       		.byte	0x25
 11549 160c 21       		.byte	0x21
 11550 160d 27       		.byte	0x27
 11551 160e 71       		.byte	0x71
 11552 160f 00       		.sleb128 0
 11553 1610 31       		.byte	0x31
 11554 1611 14       		.byte	0x14
 11555 1612 14       		.byte	0x14
 11556 1613 1F       		.byte	0x1f
 11557 1614 23       		.byte	0x23
 11558 1615 20       		.uleb128 0x20
 11559 1616 24       		.byte	0x24
 11560 1617 17       		.byte	0x17
 11561 1618 25       		.byte	0x25
 11562 1619 21       		.byte	0x21
 11563 161a 76       		.byte	0x76
 11564 161b 00       		.sleb128 0
 11565 161c 31       		.byte	0x31
 11566 161d 14       		.byte	0x14
 11567 161e 14       		.byte	0x14
 11568 161f 1F       		.byte	0x1f
 11569 1620 23       		.byte	0x23
 11570 1621 20       		.uleb128 0x20
 11571 1622 24       		.byte	0x24
 11572 1623 17       		.byte	0x17
 11573 1624 25       		.byte	0x25
 11574 1625 21       		.byte	0x21
 11575 1626 70       		.byte	0x70
 11576 1627 00       		.sleb128 0
 11577 1628 27       		.byte	0x27
 11578 1629 11       		.byte	0x11
 11579 162a AAD5AAD5 		.sleb128 -1431655766
 11579      7A
 11580 162f 1A       		.byte	0x1a
 11581 1630 76       		.byte	0x76
 11582 1631 00       		.sleb128 0
 11583 1632 31       		.byte	0x31
 11584 1633 14       		.byte	0x14
 11585 1634 14       		.byte	0x14
 11586 1635 1F       		.byte	0x1f
 11587 1636 23       		.byte	0x23
 11588 1637 20       		.uleb128 0x20
 11589 1638 24       		.byte	0x24
 11590 1639 17       		.byte	0x17
 11591 163a 25       		.byte	0x25
ARM GAS  C:\Users\Phuong\AppData\Local\Temp\ccawWFGQ.s 			page 225


 11592 163b 21       		.byte	0x21
 11593 163c 27       		.byte	0x27
 11594 163d 71       		.byte	0x71
 11595 163e 00       		.sleb128 0
 11596 163f 31       		.byte	0x31
 11597 1640 14       		.byte	0x14
 11598 1641 14       		.byte	0x14
 11599 1642 1F       		.byte	0x1f
 11600 1643 23       		.byte	0x23
 11601 1644 20       		.uleb128 0x20
 11602 1645 24       		.byte	0x24
 11603 1646 17       		.byte	0x17
 11604 1647 25       		.byte	0x25
 11605 1648 21       		.byte	0x21
 11606 1649 38       		.byte	0x38
 11607 164a 25       		.byte	0x25
 11608 164b 27       		.byte	0x27
 11609 164c 0C       		.byte	0xc
 11610 164d FF00FF00 		.4byte	0xff00ff
 11611 1651 1A       		.byte	0x1a
 11612 1652 38       		.byte	0x38
 11613 1653 24       		.byte	0x24
 11614 1654 27       		.byte	0x27
 11615 1655 32       		.byte	0x32
 11616 1656 25       		.byte	0x25
 11617 1657 27       		.byte	0x27
 11618 1658 75       		.byte	0x75
 11619 1659 00       		.sleb128 0
 11620 165a 1A       		.byte	0x1a
 11621 165b 9F       		.byte	0x9f
 11622 165c D0010000 		.4byte	.LVL177
 11623 1660 D6010000 		.4byte	.LVL178
 11624 1664 EF00     		.2byte	0xef
 11625 1666 76       		.byte	0x76
 11626 1667 00       		.sleb128 0
 11627 1668 31       		.byte	0x31
 11628 1669 14       		.byte	0x14
 11629 166a 14       		.byte	0x14
 11630 166b 1F       		.byte	0x1f
 11631 166c 23       		.byte	0x23
 11632 166d 20       		.uleb128 0x20
 11633 166e 24       		.byte	0x24
 11634 166f 17       		.byte	0x17
 11635 1670 25       		.byte	0x25
 11636 1671 21       		.byte	0x21
 11637 1672 70       		.byte	0x70
 11638 1673 00       		.sleb128 0
 11639 1674 27       		.byte	0x27
 11640 1675 11       		.byte	0x11
 11641 1676 AAD5AAD5 		.sleb128 -1431655766
 11641      7A
 11642 167b 1A       		.byte	0x1a
 11643 167c 76       		.byte	0x76
 11644 167d 00       		.sleb128 0
 11645 167e 31       		.byte	0x31
 11646 167f 14       		.byte	0x14
 11647 1680 14       		.byte	0x14
ARM GAS  C:\Users\Phuong\AppData\Local\Temp\ccawWFGQ.s 			page 226


 11648 1681 1F       		.byte	0x1f
 11649 1682 23       		.byte	0x23
 11650 1683 20       		.uleb128 0x20
 11651 1684 24       		.byte	0x24
 11652 1685 17       		.byte	0x17
 11653 1686 25       		.byte	0x25
 11654 1687 21       		.byte	0x21
 11655 1688 70       		.byte	0x70
 11656 1689 00       		.sleb128 0
 11657 168a 27       		.byte	0x27
 11658 168b 11       		.byte	0x11
 11659 168c AAD5AAD5 		.sleb128 -1431655766
 11659      7A
 11660 1691 1A       		.byte	0x1a
 11661 1692 76       		.byte	0x76
 11662 1693 00       		.sleb128 0
 11663 1694 31       		.byte	0x31
 11664 1695 14       		.byte	0x14
 11665 1696 14       		.byte	0x14
 11666 1697 1F       		.byte	0x1f
 11667 1698 23       		.byte	0x23
 11668 1699 20       		.uleb128 0x20
 11669 169a 24       		.byte	0x24
 11670 169b 17       		.byte	0x17
 11671 169c 25       		.byte	0x25
 11672 169d 21       		.byte	0x21
 11673 169e 27       		.byte	0x27
 11674 169f 76       		.byte	0x76
 11675 16a0 00       		.sleb128 0
 11676 16a1 31       		.byte	0x31
 11677 16a2 14       		.byte	0x14
 11678 16a3 14       		.byte	0x14
 11679 16a4 1F       		.byte	0x1f
 11680 16a5 23       		.byte	0x23
 11681 16a6 20       		.uleb128 0x20
 11682 16a7 24       		.byte	0x24
 11683 16a8 17       		.byte	0x17
 11684 16a9 25       		.byte	0x25
 11685 16aa 21       		.byte	0x21
 11686 16ab 70       		.byte	0x70
 11687 16ac 00       		.sleb128 0
 11688 16ad 27       		.byte	0x27
 11689 16ae 11       		.byte	0x11
 11690 16af AAD5AAD5 		.sleb128 -1431655766
 11690      7A
 11691 16b4 1A       		.byte	0x1a
 11692 16b5 70       		.byte	0x70
 11693 16b6 00       		.sleb128 0
 11694 16b7 27       		.byte	0x27
 11695 16b8 31       		.byte	0x31
 11696 16b9 14       		.byte	0x14
 11697 16ba 14       		.byte	0x14
 11698 16bb 1F       		.byte	0x1f
 11699 16bc 23       		.byte	0x23
 11700 16bd 20       		.uleb128 0x20
 11701 16be 24       		.byte	0x24
 11702 16bf 17       		.byte	0x17
ARM GAS  C:\Users\Phuong\AppData\Local\Temp\ccawWFGQ.s 			page 227


 11703 16c0 25       		.byte	0x25
 11704 16c1 21       		.byte	0x21
 11705 16c2 38       		.byte	0x38
 11706 16c3 25       		.byte	0x25
 11707 16c4 27       		.byte	0x27
 11708 16c5 0C       		.byte	0xc
 11709 16c6 FF00FF00 		.4byte	0xff00ff
 11710 16ca 1A       		.byte	0x1a
 11711 16cb 27       		.byte	0x27
 11712 16cc 76       		.byte	0x76
 11713 16cd 00       		.sleb128 0
 11714 16ce 31       		.byte	0x31
 11715 16cf 14       		.byte	0x14
 11716 16d0 14       		.byte	0x14
 11717 16d1 1F       		.byte	0x1f
 11718 16d2 23       		.byte	0x23
 11719 16d3 20       		.uleb128 0x20
 11720 16d4 24       		.byte	0x24
 11721 16d5 17       		.byte	0x17
 11722 16d6 25       		.byte	0x25
 11723 16d7 21       		.byte	0x21
 11724 16d8 27       		.byte	0x27
 11725 16d9 76       		.byte	0x76
 11726 16da 00       		.sleb128 0
 11727 16db 31       		.byte	0x31
 11728 16dc 14       		.byte	0x14
 11729 16dd 14       		.byte	0x14
 11730 16de 1F       		.byte	0x1f
 11731 16df 23       		.byte	0x23
 11732 16e0 20       		.uleb128 0x20
 11733 16e1 24       		.byte	0x24
 11734 16e2 17       		.byte	0x17
 11735 16e3 25       		.byte	0x25
 11736 16e4 21       		.byte	0x21
 11737 16e5 70       		.byte	0x70
 11738 16e6 00       		.sleb128 0
 11739 16e7 27       		.byte	0x27
 11740 16e8 11       		.byte	0x11
 11741 16e9 AAD5AAD5 		.sleb128 -1431655766
 11741      7A
 11742 16ee 1A       		.byte	0x1a
 11743 16ef 70       		.byte	0x70
 11744 16f0 00       		.sleb128 0
 11745 16f1 27       		.byte	0x27
 11746 16f2 31       		.byte	0x31
 11747 16f3 14       		.byte	0x14
 11748 16f4 14       		.byte	0x14
 11749 16f5 1F       		.byte	0x1f
 11750 16f6 23       		.byte	0x23
 11751 16f7 20       		.uleb128 0x20
 11752 16f8 24       		.byte	0x24
 11753 16f9 17       		.byte	0x17
 11754 16fa 25       		.byte	0x25
 11755 16fb 21       		.byte	0x21
 11756 16fc 76       		.byte	0x76
 11757 16fd 00       		.sleb128 0
 11758 16fe 31       		.byte	0x31
ARM GAS  C:\Users\Phuong\AppData\Local\Temp\ccawWFGQ.s 			page 228


 11759 16ff 14       		.byte	0x14
 11760 1700 14       		.byte	0x14
 11761 1701 1F       		.byte	0x1f
 11762 1702 23       		.byte	0x23
 11763 1703 20       		.uleb128 0x20
 11764 1704 24       		.byte	0x24
 11765 1705 17       		.byte	0x17
 11766 1706 25       		.byte	0x25
 11767 1707 21       		.byte	0x21
 11768 1708 70       		.byte	0x70
 11769 1709 00       		.sleb128 0
 11770 170a 27       		.byte	0x27
 11771 170b 11       		.byte	0x11
 11772 170c AAD5AAD5 		.sleb128 -1431655766
 11772      7A
 11773 1711 1A       		.byte	0x1a
 11774 1712 76       		.byte	0x76
 11775 1713 00       		.sleb128 0
 11776 1714 31       		.byte	0x31
 11777 1715 14       		.byte	0x14
 11778 1716 14       		.byte	0x14
 11779 1717 1F       		.byte	0x1f
 11780 1718 23       		.byte	0x23
 11781 1719 20       		.uleb128 0x20
 11782 171a 24       		.byte	0x24
 11783 171b 17       		.byte	0x17
 11784 171c 25       		.byte	0x25
 11785 171d 21       		.byte	0x21
 11786 171e 27       		.byte	0x27
 11787 171f 76       		.byte	0x76
 11788 1720 00       		.sleb128 0
 11789 1721 31       		.byte	0x31
 11790 1722 14       		.byte	0x14
 11791 1723 14       		.byte	0x14
 11792 1724 1F       		.byte	0x1f
 11793 1725 23       		.byte	0x23
 11794 1726 20       		.uleb128 0x20
 11795 1727 24       		.byte	0x24
 11796 1728 17       		.byte	0x17
 11797 1729 25       		.byte	0x25
 11798 172a 21       		.byte	0x21
 11799 172b 70       		.byte	0x70
 11800 172c 00       		.sleb128 0
 11801 172d 27       		.byte	0x27
 11802 172e 11       		.byte	0x11
 11803 172f AAD5AAD5 		.sleb128 -1431655766
 11803      7A
 11804 1734 1A       		.byte	0x1a
 11805 1735 70       		.byte	0x70
 11806 1736 00       		.sleb128 0
 11807 1737 27       		.byte	0x27
 11808 1738 31       		.byte	0x31
 11809 1739 14       		.byte	0x14
 11810 173a 14       		.byte	0x14
 11811 173b 1F       		.byte	0x1f
 11812 173c 23       		.byte	0x23
 11813 173d 20       		.uleb128 0x20
ARM GAS  C:\Users\Phuong\AppData\Local\Temp\ccawWFGQ.s 			page 229


 11814 173e 24       		.byte	0x24
 11815 173f 17       		.byte	0x17
 11816 1740 25       		.byte	0x25
 11817 1741 21       		.byte	0x21
 11818 1742 38       		.byte	0x38
 11819 1743 25       		.byte	0x25
 11820 1744 27       		.byte	0x27
 11821 1745 0C       		.byte	0xc
 11822 1746 FF00FF00 		.4byte	0xff00ff
 11823 174a 1A       		.byte	0x1a
 11824 174b 38       		.byte	0x38
 11825 174c 24       		.byte	0x24
 11826 174d 27       		.byte	0x27
 11827 174e 32       		.byte	0x32
 11828 174f 25       		.byte	0x25
 11829 1750 27       		.byte	0x27
 11830 1751 75       		.byte	0x75
 11831 1752 00       		.sleb128 0
 11832 1753 1A       		.byte	0x1a
 11833 1754 9F       		.byte	0x9f
 11834 1755 D6010000 		.4byte	.LVL178
 11835 1759 DA010000 		.4byte	.LVL180
 11836 175d 0100     		.2byte	0x1
 11837 175f 51       		.byte	0x51
 11838 1760 DA010000 		.4byte	.LVL180
 11839 1764 DC010000 		.4byte	.LVL181
 11840 1768 8200     		.2byte	0x82
 11841 176a 76       		.byte	0x76
 11842 176b 00       		.sleb128 0
 11843 176c 31       		.byte	0x31
 11844 176d 14       		.byte	0x14
 11845 176e 14       		.byte	0x14
 11846 176f 1F       		.byte	0x1f
 11847 1770 23       		.byte	0x23
 11848 1771 20       		.uleb128 0x20
 11849 1772 24       		.byte	0x24
 11850 1773 17       		.byte	0x17
 11851 1774 25       		.byte	0x25
 11852 1775 21       		.byte	0x21
 11853 1776 70       		.byte	0x70
 11854 1777 00       		.sleb128 0
 11855 1778 27       		.byte	0x27
 11856 1779 11       		.byte	0x11
 11857 177a AAD5AAD5 		.sleb128 -1431655766
 11857      7A
 11858 177f 1A       		.byte	0x1a
 11859 1780 70       		.byte	0x70
 11860 1781 00       		.sleb128 0
 11861 1782 27       		.byte	0x27
 11862 1783 31       		.byte	0x31
 11863 1784 14       		.byte	0x14
 11864 1785 14       		.byte	0x14
 11865 1786 1F       		.byte	0x1f
 11866 1787 23       		.byte	0x23
 11867 1788 20       		.uleb128 0x20
 11868 1789 24       		.byte	0x24
 11869 178a 17       		.byte	0x17
ARM GAS  C:\Users\Phuong\AppData\Local\Temp\ccawWFGQ.s 			page 230


 11870 178b 25       		.byte	0x25
 11871 178c 21       		.byte	0x21
 11872 178d 76       		.byte	0x76
 11873 178e 00       		.sleb128 0
 11874 178f 31       		.byte	0x31
 11875 1790 14       		.byte	0x14
 11876 1791 14       		.byte	0x14
 11877 1792 1F       		.byte	0x1f
 11878 1793 23       		.byte	0x23
 11879 1794 20       		.uleb128 0x20
 11880 1795 24       		.byte	0x24
 11881 1796 17       		.byte	0x17
 11882 1797 25       		.byte	0x25
 11883 1798 21       		.byte	0x21
 11884 1799 70       		.byte	0x70
 11885 179a 00       		.sleb128 0
 11886 179b 27       		.byte	0x27
 11887 179c 11       		.byte	0x11
 11888 179d AAD5AAD5 		.sleb128 -1431655766
 11888      7A
 11889 17a2 1A       		.byte	0x1a
 11890 17a3 76       		.byte	0x76
 11891 17a4 00       		.sleb128 0
 11892 17a5 31       		.byte	0x31
 11893 17a6 14       		.byte	0x14
 11894 17a7 14       		.byte	0x14
 11895 17a8 1F       		.byte	0x1f
 11896 17a9 23       		.byte	0x23
 11897 17aa 20       		.uleb128 0x20
 11898 17ab 24       		.byte	0x24
 11899 17ac 17       		.byte	0x17
 11900 17ad 25       		.byte	0x25
 11901 17ae 21       		.byte	0x21
 11902 17af 27       		.byte	0x27
 11903 17b0 76       		.byte	0x76
 11904 17b1 00       		.sleb128 0
 11905 17b2 31       		.byte	0x31
 11906 17b3 14       		.byte	0x14
 11907 17b4 14       		.byte	0x14
 11908 17b5 1F       		.byte	0x1f
 11909 17b6 23       		.byte	0x23
 11910 17b7 20       		.uleb128 0x20
 11911 17b8 24       		.byte	0x24
 11912 17b9 17       		.byte	0x17
 11913 17ba 25       		.byte	0x25
 11914 17bb 21       		.byte	0x21
 11915 17bc 70       		.byte	0x70
 11916 17bd 00       		.sleb128 0
 11917 17be 27       		.byte	0x27
 11918 17bf 11       		.byte	0x11
 11919 17c0 AAD5AAD5 		.sleb128 -1431655766
 11919      7A
 11920 17c5 1A       		.byte	0x1a
 11921 17c6 70       		.byte	0x70
 11922 17c7 00       		.sleb128 0
 11923 17c8 27       		.byte	0x27
 11924 17c9 31       		.byte	0x31
ARM GAS  C:\Users\Phuong\AppData\Local\Temp\ccawWFGQ.s 			page 231


 11925 17ca 14       		.byte	0x14
 11926 17cb 14       		.byte	0x14
 11927 17cc 1F       		.byte	0x1f
 11928 17cd 23       		.byte	0x23
 11929 17ce 20       		.uleb128 0x20
 11930 17cf 24       		.byte	0x24
 11931 17d0 17       		.byte	0x17
 11932 17d1 25       		.byte	0x25
 11933 17d2 21       		.byte	0x21
 11934 17d3 38       		.byte	0x38
 11935 17d4 25       		.byte	0x25
 11936 17d5 27       		.byte	0x27
 11937 17d6 0C       		.byte	0xc
 11938 17d7 FF00FF00 		.4byte	0xff00ff
 11939 17db 1A       		.byte	0x1a
 11940 17dc 38       		.byte	0x38
 11941 17dd 24       		.byte	0x24
 11942 17de 27       		.byte	0x27
 11943 17df 73       		.byte	0x73
 11944 17e0 00       		.sleb128 0
 11945 17e1 40       		.byte	0x40
 11946 17e2 25       		.byte	0x25
 11947 17e3 27       		.byte	0x27
 11948 17e4 74       		.byte	0x74
 11949 17e5 00       		.sleb128 0
 11950 17e6 27       		.byte	0x27
 11951 17e7 40       		.byte	0x40
 11952 17e8 24       		.byte	0x24
 11953 17e9 40       		.byte	0x40
 11954 17ea 25       		.byte	0x25
 11955 17eb 9F       		.byte	0x9f
 11956 17ec E4010000 		.4byte	.LVL182
 11957 17f0 E8010000 		.4byte	.LVL184
 11958 17f4 0100     		.2byte	0x1
 11959 17f6 51       		.byte	0x51
 11960 17f7 00000000 		.4byte	0
 11961 17fb 00000000 		.4byte	0
 11962              	.LLST45:
 11963 17ff 12000000 		.4byte	.LVL114
 11964 1803 16000000 		.4byte	.LVL115
 11965 1807 0100     		.2byte	0x1
 11966 1809 50       		.byte	0x50
 11967 180a 16000000 		.4byte	.LVL115
 11968 180e 8E000000 		.4byte	.LVL146
 11969 1812 0100     		.2byte	0x1
 11970 1814 57       		.byte	0x57
 11971 1815 8E000000 		.4byte	.LVL146
 11972 1819 CE000000 		.4byte	.LVL150
 11973 181d 0300     		.2byte	0x3
 11974 181f 77       		.byte	0x77
 11975 1820 04       		.sleb128 4
 11976 1821 9F       		.byte	0x9f
 11977 1822 CE000000 		.4byte	.LVL150
 11978 1826 10010000 		.4byte	.LVL153
 11979 182a 0300     		.2byte	0x3
 11980 182c 77       		.byte	0x77
 11981 182d 08       		.sleb128 8
ARM GAS  C:\Users\Phuong\AppData\Local\Temp\ccawWFGQ.s 			page 232


 11982 182e 9F       		.byte	0x9f
 11983 182f 10010000 		.4byte	.LVL153
 11984 1833 4C010000 		.4byte	.LVL156
 11985 1837 0300     		.2byte	0x3
 11986 1839 77       		.byte	0x77
 11987 183a 0C       		.sleb128 12
 11988 183b 9F       		.byte	0x9f
 11989 183c 4C010000 		.4byte	.LVL156
 11990 1840 92010000 		.4byte	.LVL161
 11991 1844 0300     		.2byte	0x3
 11992 1846 77       		.byte	0x77
 11993 1847 10       		.sleb128 16
 11994 1848 9F       		.byte	0x9f
 11995 1849 92010000 		.4byte	.LVL161
 11996 184d 0C020000 		.4byte	.LVL188
 11997 1851 0100     		.2byte	0x1
 11998 1853 57       		.byte	0x57
 11999 1854 00000000 		.4byte	0
 12000 1858 00000000 		.4byte	0
 12001              	.LLST46:
 12002 185c 00000000 		.4byte	.LVL189
 12003 1860 18000000 		.4byte	.LVL191
 12004 1864 0100     		.2byte	0x1
 12005 1866 50       		.byte	0x50
 12006 1867 18000000 		.4byte	.LVL191
 12007 186b 8C000000 		.4byte	.LVL208
 12008 186f 0200     		.2byte	0x2
 12009 1871 91       		.byte	0x91
 12010 1872 5C       		.sleb128 -36
 12011 1873 8C000000 		.4byte	.LVL208
 12012 1877 8E000000 		.4byte	.LVL209
 12013 187b 0100     		.2byte	0x1
 12014 187d 50       		.byte	0x50
 12015 187e 8E000000 		.4byte	.LVL209
 12016 1882 94000000 		.4byte	.LFE18
 12017 1886 0200     		.2byte	0x2
 12018 1888 91       		.byte	0x91
 12019 1889 5C       		.sleb128 -36
 12020 188a 00000000 		.4byte	0
 12021 188e 00000000 		.4byte	0
 12022              	.LLST47:
 12023 1892 00000000 		.4byte	.LVL189
 12024 1896 18000000 		.4byte	.LVL191
 12025 189a 0100     		.2byte	0x1
 12026 189c 51       		.byte	0x51
 12027 189d 18000000 		.4byte	.LVL191
 12028 18a1 8C000000 		.4byte	.LVL208
 12029 18a5 0400     		.2byte	0x4
 12030 18a7 F3       		.byte	0xf3
 12031 18a8 01       		.uleb128 0x1
 12032 18a9 51       		.byte	0x51
 12033 18aa 9F       		.byte	0x9f
 12034 18ab 8C000000 		.4byte	.LVL208
 12035 18af 90000000 		.4byte	.LVL210
 12036 18b3 0100     		.2byte	0x1
 12037 18b5 51       		.byte	0x51
 12038 18b6 90000000 		.4byte	.LVL210
ARM GAS  C:\Users\Phuong\AppData\Local\Temp\ccawWFGQ.s 			page 233


 12039 18ba 94000000 		.4byte	.LFE18
 12040 18be 0400     		.2byte	0x4
 12041 18c0 F3       		.byte	0xf3
 12042 18c1 01       		.uleb128 0x1
 12043 18c2 51       		.byte	0x51
 12044 18c3 9F       		.byte	0x9f
 12045 18c4 00000000 		.4byte	0
 12046 18c8 00000000 		.4byte	0
 12047              	.LLST48:
 12048 18cc 00000000 		.4byte	.LVL189
 12049 18d0 18000000 		.4byte	.LVL191
 12050 18d4 0100     		.2byte	0x1
 12051 18d6 52       		.byte	0x52
 12052 18d7 18000000 		.4byte	.LVL191
 12053 18db 8C000000 		.4byte	.LVL208
 12054 18df 0100     		.2byte	0x1
 12055 18e1 54       		.byte	0x54
 12056 18e2 8C000000 		.4byte	.LVL208
 12057 18e6 90000000 		.4byte	.LVL210
 12058 18ea 0100     		.2byte	0x1
 12059 18ec 52       		.byte	0x52
 12060 18ed 90000000 		.4byte	.LVL210
 12061 18f1 92000000 		.4byte	.LVL211
 12062 18f5 0100     		.2byte	0x1
 12063 18f7 54       		.byte	0x54
 12064 18f8 00000000 		.4byte	0
 12065 18fc 00000000 		.4byte	0
 12066              	.LLST49:
 12067 1900 00000000 		.4byte	.LVL189
 12068 1904 12000000 		.4byte	.LVL190
 12069 1908 0100     		.2byte	0x1
 12070 190a 53       		.byte	0x53
 12071 190b 12000000 		.4byte	.LVL190
 12072 190f 92000000 		.4byte	.LVL212
 12073 1913 0100     		.2byte	0x1
 12074 1915 56       		.byte	0x56
 12075 1916 92000000 		.4byte	.LVL212
 12076 191a 94000000 		.4byte	.LFE18
 12077 191e 0400     		.2byte	0x4
 12078 1920 F3       		.byte	0xf3
 12079 1921 01       		.uleb128 0x1
 12080 1922 53       		.byte	0x53
 12081 1923 9F       		.byte	0x9f
 12082 1924 00000000 		.4byte	0
 12083 1928 00000000 		.4byte	0
 12084              	.LLST50:
 12085 192c 00000000 		.4byte	.LVL189
 12086 1930 18000000 		.4byte	.LVL191
 12087 1934 0200     		.2byte	0x2
 12088 1936 91       		.byte	0x91
 12089 1937 00       		.sleb128 0
 12090 1938 18000000 		.4byte	.LVL191
 12091 193c 64000000 		.4byte	.LVL202
 12092 1940 0100     		.2byte	0x1
 12093 1942 57       		.byte	0x57
 12094 1943 80000000 		.4byte	.LVL205
 12095 1947 8C000000 		.4byte	.LVL208
ARM GAS  C:\Users\Phuong\AppData\Local\Temp\ccawWFGQ.s 			page 234


 12096 194b 0100     		.2byte	0x1
 12097 194d 57       		.byte	0x57
 12098 194e 8C000000 		.4byte	.LVL208
 12099 1952 90000000 		.4byte	.LVL210
 12100 1956 0200     		.2byte	0x2
 12101 1958 91       		.byte	0x91
 12102 1959 00       		.sleb128 0
 12103 195a 00000000 		.4byte	0
 12104 195e 00000000 		.4byte	0
 12105              	.LLST51:
 12106 1962 00000000 		.4byte	.LVL189
 12107 1966 18000000 		.4byte	.LVL191
 12108 196a 0200     		.2byte	0x2
 12109 196c 91       		.byte	0x91
 12110 196d 04       		.sleb128 4
 12111 196e 18000000 		.4byte	.LVL191
 12112 1972 64000000 		.4byte	.LVL202
 12113 1976 0100     		.2byte	0x1
 12114 1978 55       		.byte	0x55
 12115 1979 82000000 		.4byte	.LVL206
 12116 197d 8C000000 		.4byte	.LVL208
 12117 1981 0100     		.2byte	0x1
 12118 1983 55       		.byte	0x55
 12119 1984 8C000000 		.4byte	.LVL208
 12120 1988 90000000 		.4byte	.LVL210
 12121 198c 0200     		.2byte	0x2
 12122 198e 91       		.byte	0x91
 12123 198f 04       		.sleb128 4
 12124 1990 00000000 		.4byte	0
 12125 1994 00000000 		.4byte	0
 12126              	.LLST52:
 12127 1998 18000000 		.4byte	.LVL191
 12128 199c 24000000 		.4byte	.LVL193
 12129 19a0 0100     		.2byte	0x1
 12130 19a2 53       		.byte	0x53
 12131 19a3 26000000 		.4byte	.LVL194
 12132 19a7 33000000 		.4byte	.LVL195-1
 12133 19ab 0100     		.2byte	0x1
 12134 19ad 53       		.byte	0x53
 12135 19ae 60000000 		.4byte	.LVL201
 12136 19b2 64000000 		.4byte	.LVL202
 12137 19b6 0200     		.2byte	0x2
 12138 19b8 30       		.byte	0x30
 12139 19b9 9F       		.byte	0x9f
 12140 19ba 64000000 		.4byte	.LVL202
 12141 19be 7D000000 		.4byte	.LVL204-1
 12142 19c2 0100     		.2byte	0x1
 12143 19c4 53       		.byte	0x53
 12144 19c5 00000000 		.4byte	0
 12145 19c9 00000000 		.4byte	0
 12146              	.LLST53:
 12147 19cd 00000000 		.4byte	.LVL213
 12148 19d1 16000000 		.4byte	.LVL215
 12149 19d5 0100     		.2byte	0x1
 12150 19d7 50       		.byte	0x50
 12151 19d8 16000000 		.4byte	.LVL215
 12152 19dc 90000000 		.4byte	.LVL246
ARM GAS  C:\Users\Phuong\AppData\Local\Temp\ccawWFGQ.s 			page 235


 12153 19e0 0100     		.2byte	0x1
 12154 19e2 55       		.byte	0x55
 12155 19e3 90000000 		.4byte	.LVL246
 12156 19e7 A0040000 		.4byte	.LFE19
 12157 19eb 0400     		.2byte	0x4
 12158 19ed F3       		.byte	0xf3
 12159 19ee 01       		.uleb128 0x1
 12160 19ef 50       		.byte	0x50
 12161 19f0 9F       		.byte	0x9f
 12162 19f1 00000000 		.4byte	0
 12163 19f5 00000000 		.4byte	0
 12164              	.LLST54:
 12165 19f9 00000000 		.4byte	.LVL213
 12166 19fd 40000000 		.4byte	.LVL219
 12167 1a01 0100     		.2byte	0x1
 12168 1a03 51       		.byte	0x51
 12169 1a04 40000000 		.4byte	.LVL219
 12170 1a08 A0040000 		.4byte	.LFE19
 12171 1a0c 0400     		.2byte	0x4
 12172 1a0e F3       		.byte	0xf3
 12173 1a0f 01       		.uleb128 0x1
 12174 1a10 51       		.byte	0x51
 12175 1a11 9F       		.byte	0x9f
 12176 1a12 00000000 		.4byte	0
 12177 1a16 00000000 		.4byte	0
 12178              	.LLST55:
 12179 1a1a 00000000 		.4byte	.LVL213
 12180 1a1e 18000000 		.4byte	.LVL216
 12181 1a22 0100     		.2byte	0x1
 12182 1a24 52       		.byte	0x52
 12183 1a25 18000000 		.4byte	.LVL216
 12184 1a29 A0040000 		.4byte	.LFE19
 12185 1a2d 0200     		.2byte	0x2
 12186 1a2f 91       		.byte	0x91
 12187 1a30 54       		.sleb128 -44
 12188 1a31 00000000 		.4byte	0
 12189 1a35 00000000 		.4byte	0
 12190              	.LLST56:
 12191 1a39 86000000 		.4byte	.LVL244
 12192 1a3d 90000000 		.4byte	.LVL246
 12193 1a41 0200     		.2byte	0x2
 12194 1a43 30       		.byte	0x30
 12195 1a44 9F       		.byte	0x9f
 12196 1a45 90000000 		.4byte	.LVL246
 12197 1a49 96000000 		.4byte	.LVL248
 12198 1a4d 0100     		.2byte	0x1
 12199 1a4f 53       		.byte	0x53
 12200 1a50 96000000 		.4byte	.LVL248
 12201 1a54 92010000 		.4byte	.LVL260
 12202 1a58 0200     		.2byte	0x2
 12203 1a5a 7D       		.byte	0x7d
 12204 1a5b 00       		.sleb128 0
 12205 1a5c 92010000 		.4byte	.LVL260
 12206 1a60 94010000 		.4byte	.LVL261
 12207 1a64 0100     		.2byte	0x1
 12208 1a66 53       		.byte	0x53
 12209 1a67 94010000 		.4byte	.LVL261
ARM GAS  C:\Users\Phuong\AppData\Local\Temp\ccawWFGQ.s 			page 236


 12210 1a6b A0010000 		.4byte	.LVL262
 12211 1a6f 0200     		.2byte	0x2
 12212 1a71 7D       		.byte	0x7d
 12213 1a72 00       		.sleb128 0
 12214 1a73 A4010000 		.4byte	.LVL263
 12215 1a77 AA010000 		.4byte	.LVL265
 12216 1a7b 0100     		.2byte	0x1
 12217 1a7d 53       		.byte	0x53
 12218 1a7e AA010000 		.4byte	.LVL265
 12219 1a82 A0020000 		.4byte	.LVL278
 12220 1a86 0200     		.2byte	0x2
 12221 1a88 7D       		.byte	0x7d
 12222 1a89 00       		.sleb128 0
 12223 1a8a A0020000 		.4byte	.LVL278
 12224 1a8e A2020000 		.4byte	.LVL279
 12225 1a92 0100     		.2byte	0x1
 12226 1a94 53       		.byte	0x53
 12227 1a95 A2020000 		.4byte	.LVL279
 12228 1a99 AE020000 		.4byte	.LVL280
 12229 1a9d 0200     		.2byte	0x2
 12230 1a9f 7D       		.byte	0x7d
 12231 1aa0 00       		.sleb128 0
 12232 1aa1 E4020000 		.4byte	.LVL281
 12233 1aa5 EA020000 		.4byte	.LVL283
 12234 1aa9 0100     		.2byte	0x1
 12235 1aab 53       		.byte	0x53
 12236 1aac EA020000 		.4byte	.LVL283
 12237 1ab0 E6030000 		.4byte	.LVL295
 12238 1ab4 0200     		.2byte	0x2
 12239 1ab6 7D       		.byte	0x7d
 12240 1ab7 00       		.sleb128 0
 12241 1ab8 E6030000 		.4byte	.LVL295
 12242 1abc E8030000 		.4byte	.LVL296
 12243 1ac0 0100     		.2byte	0x1
 12244 1ac2 53       		.byte	0x53
 12245 1ac3 E8030000 		.4byte	.LVL296
 12246 1ac7 64040000 		.4byte	.LVL321
 12247 1acb 0200     		.2byte	0x2
 12248 1acd 7D       		.byte	0x7d
 12249 1ace 00       		.sleb128 0
 12250 1acf 64040000 		.4byte	.LVL321
 12251 1ad3 A0040000 		.4byte	.LFE19
 12252 1ad7 0200     		.2byte	0x2
 12253 1ad9 91       		.byte	0x91
 12254 1ada 50       		.sleb128 -48
 12255 1adb 00000000 		.4byte	0
 12256 1adf 00000000 		.4byte	0
 12257              	.LLST57:
 12258 1ae3 26000000 		.4byte	.LVL217
 12259 1ae7 84000000 		.4byte	.LVL243
 12260 1aeb 0100     		.2byte	0x1
 12261 1aed 53       		.byte	0x53
 12262 1aee 84000000 		.4byte	.LVL243
 12263 1af2 90000000 		.4byte	.LVL246
 12264 1af6 0100     		.2byte	0x1
 12265 1af8 52       		.byte	0x52
 12266 1af9 90000000 		.4byte	.LVL246
ARM GAS  C:\Users\Phuong\AppData\Local\Temp\ccawWFGQ.s 			page 237


 12267 1afd D0000000 		.4byte	.LVL250
 12268 1b01 0100     		.2byte	0x1
 12269 1b03 54       		.byte	0x54
 12270 1b04 D0000000 		.4byte	.LVL250
 12271 1b08 12010000 		.4byte	.LVL253
 12272 1b0c 0100     		.2byte	0x1
 12273 1b0e 50       		.byte	0x50
 12274 1b0f 12010000 		.4byte	.LVL253
 12275 1b13 5E020000 		.4byte	.LVL273
 12276 1b17 0100     		.2byte	0x1
 12277 1b19 54       		.byte	0x54
 12278 1b1a 5E020000 		.4byte	.LVL273
 12279 1b1e 98020000 		.4byte	.LVL276
 12280 1b22 0100     		.2byte	0x1
 12281 1b24 51       		.byte	0x51
 12282 1b25 9A020000 		.4byte	.LVL277
 12283 1b29 A2020000 		.4byte	.LVL279
 12284 1b2d 0100     		.2byte	0x1
 12285 1b2f 51       		.byte	0x51
 12286 1b30 A2020000 		.4byte	.LVL279
 12287 1b34 24030000 		.4byte	.LVL285
 12288 1b38 0100     		.2byte	0x1
 12289 1b3a 54       		.byte	0x54
 12290 1b3b 24030000 		.4byte	.LVL285
 12291 1b3f 66030000 		.4byte	.LVL288
 12292 1b43 0100     		.2byte	0x1
 12293 1b45 50       		.byte	0x50
 12294 1b46 66030000 		.4byte	.LVL288
 12295 1b4a F4030000 		.4byte	.LVL297
 12296 1b4e 0100     		.2byte	0x1
 12297 1b50 54       		.byte	0x54
 12298 1b51 F4030000 		.4byte	.LVL297
 12299 1b55 08040000 		.4byte	.LVL301
 12300 1b59 0100     		.2byte	0x1
 12301 1b5b 50       		.byte	0x50
 12302 1b5c 08040000 		.4byte	.LVL301
 12303 1b60 A0040000 		.4byte	.LFE19
 12304 1b64 0100     		.2byte	0x1
 12305 1b66 51       		.byte	0x51
 12306 1b67 00000000 		.4byte	0
 12307 1b6b 00000000 		.4byte	0
 12308              	.LLST58:
 12309 1b6f 3A000000 		.4byte	.LVL218
 12310 1b73 46000000 		.4byte	.LVL221
 12311 1b77 0100     		.2byte	0x1
 12312 1b79 50       		.byte	0x50
 12313 1b7a 46000000 		.4byte	.LVL221
 12314 1b7e 66000000 		.4byte	.LVL233
 12315 1b82 0100     		.2byte	0x1
 12316 1b84 51       		.byte	0x51
 12317 1b85 66000000 		.4byte	.LVL233
 12318 1b89 90000000 		.4byte	.LVL246
 12319 1b8d 0100     		.2byte	0x1
 12320 1b8f 50       		.byte	0x50
 12321 1b90 90000000 		.4byte	.LVL246
 12322 1b94 4E010000 		.4byte	.LVL256
 12323 1b98 0100     		.2byte	0x1
ARM GAS  C:\Users\Phuong\AppData\Local\Temp\ccawWFGQ.s 			page 238


 12324 1b9a 51       		.byte	0x51
 12325 1b9b 4E010000 		.4byte	.LVL256
 12326 1b9f 8C010000 		.4byte	.LVL259
 12327 1ba3 0100     		.2byte	0x1
 12328 1ba5 50       		.byte	0x50
 12329 1ba6 8C010000 		.4byte	.LVL259
 12330 1baa A4010000 		.4byte	.LVL263
 12331 1bae 0100     		.2byte	0x1
 12332 1bb0 51       		.byte	0x51
 12333 1bb1 A4010000 		.4byte	.LVL263
 12334 1bb5 E2010000 		.4byte	.LVL267
 12335 1bb9 0100     		.2byte	0x1
 12336 1bbb 50       		.byte	0x50
 12337 1bbc E2010000 		.4byte	.LVL267
 12338 1bc0 22020000 		.4byte	.LVL270
 12339 1bc4 0100     		.2byte	0x1
 12340 1bc6 51       		.byte	0x51
 12341 1bc7 22020000 		.4byte	.LVL270
 12342 1bcb E4020000 		.4byte	.LVL281
 12343 1bcf 0100     		.2byte	0x1
 12344 1bd1 50       		.byte	0x50
 12345 1bd2 E4020000 		.4byte	.LVL281
 12346 1bd6 A2030000 		.4byte	.LVL291
 12347 1bda 0100     		.2byte	0x1
 12348 1bdc 51       		.byte	0x51
 12349 1bdd A2030000 		.4byte	.LVL291
 12350 1be1 E0030000 		.4byte	.LVL294
 12351 1be5 0100     		.2byte	0x1
 12352 1be7 50       		.byte	0x50
 12353 1be8 E0030000 		.4byte	.LVL294
 12354 1bec F8030000 		.4byte	.LVL298
 12355 1bf0 0100     		.2byte	0x1
 12356 1bf2 51       		.byte	0x51
 12357 1bf3 F8030000 		.4byte	.LVL298
 12358 1bf7 54040000 		.4byte	.LVL320
 12359 1bfb 0100     		.2byte	0x1
 12360 1bfd 53       		.byte	0x53
 12361 1bfe 00000000 		.4byte	0
 12362 1c02 00000000 		.4byte	0
 12363              	.LLST59:
 12364 1c06 42000000 		.4byte	.LVL220
 12365 1c0a 48000000 		.4byte	.LVL222
 12366 1c0e 0100     		.2byte	0x1
 12367 1c10 52       		.byte	0x52
 12368 1c11 48000000 		.4byte	.LVL222
 12369 1c15 4A000000 		.4byte	.LVL223
 12370 1c19 0E00     		.2byte	0xe
 12371 1c1b 73       		.byte	0x73
 12372 1c1c 00       		.sleb128 0
 12373 1c1d 34       		.byte	0x34
 12374 1c1e 25       		.byte	0x25
 12375 1c1f 70       		.byte	0x70
 12376 1c20 00       		.sleb128 0
 12377 1c21 27       		.byte	0x27
 12378 1c22 0C       		.byte	0xc
 12379 1c23 0F0F0F0F 		.4byte	0xf0f0f0f
 12380 1c27 1A       		.byte	0x1a
ARM GAS  C:\Users\Phuong\AppData\Local\Temp\ccawWFGQ.s 			page 239


 12381 1c28 9F       		.byte	0x9f
 12382 1c29 4A000000 		.4byte	.LVL223
 12383 1c2d 52000000 		.4byte	.LVL224
 12384 1c31 3B00     		.2byte	0x3b
 12385 1c33 F3       		.byte	0xf3
 12386 1c34 01       		.uleb128 0x1
 12387 1c35 51       		.byte	0x51
 12388 1c36 23       		.byte	0x23
 12389 1c37 01       		.uleb128 0x1
 12390 1c38 94       		.byte	0x94
 12391 1c39 01       		.byte	0x1
 12392 1c3a 08       		.byte	0x8
 12393 1c3b FF       		.byte	0xff
 12394 1c3c 1A       		.byte	0x1a
 12395 1c3d 40       		.byte	0x40
 12396 1c3e 24       		.byte	0x24
 12397 1c3f F3       		.byte	0xf3
 12398 1c40 01       		.uleb128 0x1
 12399 1c41 51       		.byte	0x51
 12400 1c42 94       		.byte	0x94
 12401 1c43 01       		.byte	0x1
 12402 1c44 08       		.byte	0x8
 12403 1c45 FF       		.byte	0xff
 12404 1c46 1A       		.byte	0x1a
 12405 1c47 48       		.byte	0x48
 12406 1c48 24       		.byte	0x24
 12407 1c49 21       		.byte	0x21
 12408 1c4a F3       		.byte	0xf3
 12409 1c4b 01       		.uleb128 0x1
 12410 1c4c 51       		.byte	0x51
 12411 1c4d 23       		.byte	0x23
 12412 1c4e 02       		.uleb128 0x2
 12413 1c4f 94       		.byte	0x94
 12414 1c50 01       		.byte	0x1
 12415 1c51 08       		.byte	0x8
 12416 1c52 FF       		.byte	0xff
 12417 1c53 1A       		.byte	0x1a
 12418 1c54 38       		.byte	0x38
 12419 1c55 24       		.byte	0x24
 12420 1c56 21       		.byte	0x21
 12421 1c57 F3       		.byte	0xf3
 12422 1c58 01       		.uleb128 0x1
 12423 1c59 51       		.byte	0x51
 12424 1c5a 23       		.byte	0x23
 12425 1c5b 03       		.uleb128 0x3
 12426 1c5c 94       		.byte	0x94
 12427 1c5d 01       		.byte	0x1
 12428 1c5e 08       		.byte	0x8
 12429 1c5f FF       		.byte	0xff
 12430 1c60 1A       		.byte	0x1a
 12431 1c61 21       		.byte	0x21
 12432 1c62 34       		.byte	0x34
 12433 1c63 25       		.byte	0x25
 12434 1c64 70       		.byte	0x70
 12435 1c65 00       		.sleb128 0
 12436 1c66 27       		.byte	0x27
 12437 1c67 0C       		.byte	0xc
ARM GAS  C:\Users\Phuong\AppData\Local\Temp\ccawWFGQ.s 			page 240


 12438 1c68 0F0F0F0F 		.4byte	0xf0f0f0f
 12439 1c6c 1A       		.byte	0x1a
 12440 1c6d 9F       		.byte	0x9f
 12441 1c6e 52000000 		.4byte	.LVL224
 12442 1c72 56000000 		.4byte	.LVL226
 12443 1c76 0100     		.2byte	0x1
 12444 1c78 54       		.byte	0x54
 12445 1c79 56000000 		.4byte	.LVL226
 12446 1c7d 58000000 		.4byte	.LVL227
 12447 1c81 4700     		.2byte	0x47
 12448 1c83 F3       		.byte	0xf3
 12449 1c84 01       		.uleb128 0x1
 12450 1c85 51       		.byte	0x51
 12451 1c86 23       		.byte	0x23
 12452 1c87 01       		.uleb128 0x1
 12453 1c88 94       		.byte	0x94
 12454 1c89 01       		.byte	0x1
 12455 1c8a 08       		.byte	0x8
 12456 1c8b FF       		.byte	0xff
 12457 1c8c 1A       		.byte	0x1a
 12458 1c8d 40       		.byte	0x40
 12459 1c8e 24       		.byte	0x24
 12460 1c8f F3       		.byte	0xf3
 12461 1c90 01       		.uleb128 0x1
 12462 1c91 51       		.byte	0x51
 12463 1c92 94       		.byte	0x94
 12464 1c93 01       		.byte	0x1
 12465 1c94 08       		.byte	0x8
 12466 1c95 FF       		.byte	0xff
 12467 1c96 1A       		.byte	0x1a
 12468 1c97 48       		.byte	0x48
 12469 1c98 24       		.byte	0x24
 12470 1c99 21       		.byte	0x21
 12471 1c9a F3       		.byte	0xf3
 12472 1c9b 01       		.uleb128 0x1
 12473 1c9c 51       		.byte	0x51
 12474 1c9d 23       		.byte	0x23
 12475 1c9e 02       		.uleb128 0x2
 12476 1c9f 94       		.byte	0x94
 12477 1ca0 01       		.byte	0x1
 12478 1ca1 08       		.byte	0x8
 12479 1ca2 FF       		.byte	0xff
 12480 1ca3 1A       		.byte	0x1a
 12481 1ca4 38       		.byte	0x38
 12482 1ca5 24       		.byte	0x24
 12483 1ca6 21       		.byte	0x21
 12484 1ca7 F3       		.byte	0xf3
 12485 1ca8 01       		.uleb128 0x1
 12486 1ca9 51       		.byte	0x51
 12487 1caa 23       		.byte	0x23
 12488 1cab 03       		.uleb128 0x3
 12489 1cac 94       		.byte	0x94
 12490 1cad 01       		.byte	0x1
 12491 1cae 08       		.byte	0x8
 12492 1caf FF       		.byte	0xff
 12493 1cb0 1A       		.byte	0x1a
 12494 1cb1 21       		.byte	0x21
ARM GAS  C:\Users\Phuong\AppData\Local\Temp\ccawWFGQ.s 			page 241


 12495 1cb2 34       		.byte	0x34
 12496 1cb3 25       		.byte	0x25
 12497 1cb4 70       		.byte	0x70
 12498 1cb5 00       		.sleb128 0
 12499 1cb6 27       		.byte	0x27
 12500 1cb7 0C       		.byte	0xc
 12501 1cb8 0F0F0F0F 		.4byte	0xf0f0f0f
 12502 1cbc 1A       		.byte	0x1a
 12503 1cbd 73       		.byte	0x73
 12504 1cbe 00       		.sleb128 0
 12505 1cbf 40       		.byte	0x40
 12506 1cc0 25       		.byte	0x25
 12507 1cc1 27       		.byte	0x27
 12508 1cc2 70       		.byte	0x70
 12509 1cc3 00       		.sleb128 0
 12510 1cc4 27       		.byte	0x27
 12511 1cc5 40       		.byte	0x40
 12512 1cc6 24       		.byte	0x24
 12513 1cc7 40       		.byte	0x40
 12514 1cc8 25       		.byte	0x25
 12515 1cc9 9F       		.byte	0x9f
 12516 1cca 58000000 		.4byte	.LVL227
 12517 1cce 5A000000 		.4byte	.LVL228
 12518 1cd2 7700     		.2byte	0x77
 12519 1cd4 F3       		.byte	0xf3
 12520 1cd5 01       		.uleb128 0x1
 12521 1cd6 51       		.byte	0x51
 12522 1cd7 23       		.byte	0x23
 12523 1cd8 01       		.uleb128 0x1
 12524 1cd9 94       		.byte	0x94
 12525 1cda 01       		.byte	0x1
 12526 1cdb 08       		.byte	0x8
 12527 1cdc FF       		.byte	0xff
 12528 1cdd 1A       		.byte	0x1a
 12529 1cde 40       		.byte	0x40
 12530 1cdf 24       		.byte	0x24
 12531 1ce0 F3       		.byte	0xf3
 12532 1ce1 01       		.uleb128 0x1
 12533 1ce2 51       		.byte	0x51
 12534 1ce3 94       		.byte	0x94
 12535 1ce4 01       		.byte	0x1
 12536 1ce5 08       		.byte	0x8
 12537 1ce6 FF       		.byte	0xff
 12538 1ce7 1A       		.byte	0x1a
 12539 1ce8 48       		.byte	0x48
 12540 1ce9 24       		.byte	0x24
 12541 1cea 21       		.byte	0x21
 12542 1ceb F3       		.byte	0xf3
 12543 1cec 01       		.uleb128 0x1
 12544 1ced 51       		.byte	0x51
 12545 1cee 23       		.byte	0x23
 12546 1cef 02       		.uleb128 0x2
 12547 1cf0 94       		.byte	0x94
 12548 1cf1 01       		.byte	0x1
 12549 1cf2 08       		.byte	0x8
 12550 1cf3 FF       		.byte	0xff
 12551 1cf4 1A       		.byte	0x1a
ARM GAS  C:\Users\Phuong\AppData\Local\Temp\ccawWFGQ.s 			page 242


 12552 1cf5 38       		.byte	0x38
 12553 1cf6 24       		.byte	0x24
 12554 1cf7 21       		.byte	0x21
 12555 1cf8 F3       		.byte	0xf3
 12556 1cf9 01       		.uleb128 0x1
 12557 1cfa 51       		.byte	0x51
 12558 1cfb 23       		.byte	0x23
 12559 1cfc 03       		.uleb128 0x3
 12560 1cfd 94       		.byte	0x94
 12561 1cfe 01       		.byte	0x1
 12562 1cff 08       		.byte	0x8
 12563 1d00 FF       		.byte	0xff
 12564 1d01 1A       		.byte	0x1a
 12565 1d02 21       		.byte	0x21
 12566 1d03 34       		.byte	0x34
 12567 1d04 25       		.byte	0x25
 12568 1d05 70       		.byte	0x70
 12569 1d06 00       		.sleb128 0
 12570 1d07 27       		.byte	0x27
 12571 1d08 0C       		.byte	0xc
 12572 1d09 0F0F0F0F 		.4byte	0xf0f0f0f
 12573 1d0d 1A       		.byte	0x1a
 12574 1d0e F3       		.byte	0xf3
 12575 1d0f 01       		.uleb128 0x1
 12576 1d10 51       		.byte	0x51
 12577 1d11 23       		.byte	0x23
 12578 1d12 01       		.uleb128 0x1
 12579 1d13 94       		.byte	0x94
 12580 1d14 01       		.byte	0x1
 12581 1d15 08       		.byte	0x8
 12582 1d16 FF       		.byte	0xff
 12583 1d17 1A       		.byte	0x1a
 12584 1d18 40       		.byte	0x40
 12585 1d19 24       		.byte	0x24
 12586 1d1a F3       		.byte	0xf3
 12587 1d1b 01       		.uleb128 0x1
 12588 1d1c 51       		.byte	0x51
 12589 1d1d 94       		.byte	0x94
 12590 1d1e 01       		.byte	0x1
 12591 1d1f 08       		.byte	0x8
 12592 1d20 FF       		.byte	0xff
 12593 1d21 1A       		.byte	0x1a
 12594 1d22 48       		.byte	0x48
 12595 1d23 24       		.byte	0x24
 12596 1d24 21       		.byte	0x21
 12597 1d25 F3       		.byte	0xf3
 12598 1d26 01       		.uleb128 0x1
 12599 1d27 51       		.byte	0x51
 12600 1d28 23       		.byte	0x23
 12601 1d29 02       		.uleb128 0x2
 12602 1d2a 94       		.byte	0x94
 12603 1d2b 01       		.byte	0x1
 12604 1d2c 08       		.byte	0x8
 12605 1d2d FF       		.byte	0xff
 12606 1d2e 1A       		.byte	0x1a
 12607 1d2f 38       		.byte	0x38
 12608 1d30 24       		.byte	0x24
ARM GAS  C:\Users\Phuong\AppData\Local\Temp\ccawWFGQ.s 			page 243


 12609 1d31 21       		.byte	0x21
 12610 1d32 F3       		.byte	0xf3
 12611 1d33 01       		.uleb128 0x1
 12612 1d34 51       		.byte	0x51
 12613 1d35 23       		.byte	0x23
 12614 1d36 03       		.uleb128 0x3
 12615 1d37 94       		.byte	0x94
 12616 1d38 01       		.byte	0x1
 12617 1d39 08       		.byte	0x8
 12618 1d3a FF       		.byte	0xff
 12619 1d3b 1A       		.byte	0x1a
 12620 1d3c 21       		.byte	0x21
 12621 1d3d 72       		.byte	0x72
 12622 1d3e 00       		.sleb128 0
 12623 1d3f 27       		.byte	0x27
 12624 1d40 40       		.byte	0x40
 12625 1d41 25       		.byte	0x25
 12626 1d42 27       		.byte	0x27
 12627 1d43 70       		.byte	0x70
 12628 1d44 00       		.sleb128 0
 12629 1d45 27       		.byte	0x27
 12630 1d46 40       		.byte	0x40
 12631 1d47 24       		.byte	0x24
 12632 1d48 40       		.byte	0x40
 12633 1d49 25       		.byte	0x25
 12634 1d4a 9F       		.byte	0x9f
 12635 1d4b 5A000000 		.4byte	.LVL228
 12636 1d4f 5E000000 		.4byte	.LVL229
 12637 1d53 D500     		.2byte	0xd5
 12638 1d55 F3       		.byte	0xf3
 12639 1d56 01       		.uleb128 0x1
 12640 1d57 51       		.byte	0x51
 12641 1d58 23       		.byte	0x23
 12642 1d59 04       		.uleb128 0x4
 12643 1d5a 94       		.byte	0x94
 12644 1d5b 01       		.byte	0x1
 12645 1d5c 08       		.byte	0x8
 12646 1d5d FF       		.byte	0xff
 12647 1d5e 1A       		.byte	0x1a
 12648 1d5f 48       		.byte	0x48
 12649 1d60 24       		.byte	0x24
 12650 1d61 F3       		.byte	0xf3
 12651 1d62 01       		.uleb128 0x1
 12652 1d63 51       		.byte	0x51
 12653 1d64 23       		.byte	0x23
 12654 1d65 05       		.uleb128 0x5
 12655 1d66 94       		.byte	0x94
 12656 1d67 01       		.byte	0x1
 12657 1d68 08       		.byte	0x8
 12658 1d69 FF       		.byte	0xff
 12659 1d6a 1A       		.byte	0x1a
 12660 1d6b 40       		.byte	0x40
 12661 1d6c 24       		.byte	0x24
 12662 1d6d 21       		.byte	0x21
 12663 1d6e F3       		.byte	0xf3
 12664 1d6f 01       		.uleb128 0x1
 12665 1d70 51       		.byte	0x51
ARM GAS  C:\Users\Phuong\AppData\Local\Temp\ccawWFGQ.s 			page 244


 12666 1d71 23       		.byte	0x23
 12667 1d72 06       		.uleb128 0x6
 12668 1d73 94       		.byte	0x94
 12669 1d74 01       		.byte	0x1
 12670 1d75 08       		.byte	0x8
 12671 1d76 FF       		.byte	0xff
 12672 1d77 1A       		.byte	0x1a
 12673 1d78 38       		.byte	0x38
 12674 1d79 24       		.byte	0x24
 12675 1d7a 21       		.byte	0x21
 12676 1d7b F3       		.byte	0xf3
 12677 1d7c 01       		.uleb128 0x1
 12678 1d7d 51       		.byte	0x51
 12679 1d7e 23       		.byte	0x23
 12680 1d7f 07       		.uleb128 0x7
 12681 1d80 94       		.byte	0x94
 12682 1d81 01       		.byte	0x1
 12683 1d82 08       		.byte	0x8
 12684 1d83 FF       		.byte	0xff
 12685 1d84 1A       		.byte	0x1a
 12686 1d85 21       		.byte	0x21
 12687 1d86 F3       		.byte	0xf3
 12688 1d87 01       		.uleb128 0x1
 12689 1d88 51       		.byte	0x51
 12690 1d89 23       		.byte	0x23
 12691 1d8a 04       		.uleb128 0x4
 12692 1d8b 94       		.byte	0x94
 12693 1d8c 01       		.byte	0x1
 12694 1d8d 08       		.byte	0x8
 12695 1d8e FF       		.byte	0xff
 12696 1d8f 1A       		.byte	0x1a
 12697 1d90 48       		.byte	0x48
 12698 1d91 24       		.byte	0x24
 12699 1d92 F3       		.byte	0xf3
 12700 1d93 01       		.uleb128 0x1
 12701 1d94 51       		.byte	0x51
 12702 1d95 23       		.byte	0x23
 12703 1d96 05       		.uleb128 0x5
 12704 1d97 94       		.byte	0x94
 12705 1d98 01       		.byte	0x1
 12706 1d99 08       		.byte	0x8
 12707 1d9a FF       		.byte	0xff
 12708 1d9b 1A       		.byte	0x1a
 12709 1d9c 40       		.byte	0x40
 12710 1d9d 24       		.byte	0x24
 12711 1d9e 21       		.byte	0x21
 12712 1d9f F3       		.byte	0xf3
 12713 1da0 01       		.uleb128 0x1
 12714 1da1 51       		.byte	0x51
 12715 1da2 23       		.byte	0x23
 12716 1da3 06       		.uleb128 0x6
 12717 1da4 94       		.byte	0x94
 12718 1da5 01       		.byte	0x1
 12719 1da6 08       		.byte	0x8
 12720 1da7 FF       		.byte	0xff
 12721 1da8 1A       		.byte	0x1a
 12722 1da9 38       		.byte	0x38
ARM GAS  C:\Users\Phuong\AppData\Local\Temp\ccawWFGQ.s 			page 245


 12723 1daa 24       		.byte	0x24
 12724 1dab 21       		.byte	0x21
 12725 1dac F3       		.byte	0xf3
 12726 1dad 01       		.uleb128 0x1
 12727 1dae 51       		.byte	0x51
 12728 1daf 23       		.byte	0x23
 12729 1db0 07       		.uleb128 0x7
 12730 1db1 94       		.byte	0x94
 12731 1db2 01       		.byte	0x1
 12732 1db3 08       		.byte	0x8
 12733 1db4 FF       		.byte	0xff
 12734 1db5 1A       		.byte	0x1a
 12735 1db6 21       		.byte	0x21
 12736 1db7 F3       		.byte	0xf3
 12737 1db8 01       		.uleb128 0x1
 12738 1db9 51       		.byte	0x51
 12739 1dba 23       		.byte	0x23
 12740 1dbb 01       		.uleb128 0x1
 12741 1dbc 94       		.byte	0x94
 12742 1dbd 01       		.byte	0x1
 12743 1dbe 08       		.byte	0x8
 12744 1dbf FF       		.byte	0xff
 12745 1dc0 1A       		.byte	0x1a
 12746 1dc1 40       		.byte	0x40
 12747 1dc2 24       		.byte	0x24
 12748 1dc3 F3       		.byte	0xf3
 12749 1dc4 01       		.uleb128 0x1
 12750 1dc5 51       		.byte	0x51
 12751 1dc6 94       		.byte	0x94
 12752 1dc7 01       		.byte	0x1
 12753 1dc8 08       		.byte	0x8
 12754 1dc9 FF       		.byte	0xff
 12755 1dca 1A       		.byte	0x1a
 12756 1dcb 48       		.byte	0x48
 12757 1dcc 24       		.byte	0x24
 12758 1dcd 21       		.byte	0x21
 12759 1dce F3       		.byte	0xf3
 12760 1dcf 01       		.uleb128 0x1
 12761 1dd0 51       		.byte	0x51
 12762 1dd1 23       		.byte	0x23
 12763 1dd2 02       		.uleb128 0x2
 12764 1dd3 94       		.byte	0x94
 12765 1dd4 01       		.byte	0x1
 12766 1dd5 08       		.byte	0x8
 12767 1dd6 FF       		.byte	0xff
 12768 1dd7 1A       		.byte	0x1a
 12769 1dd8 38       		.byte	0x38
 12770 1dd9 24       		.byte	0x24
 12771 1dda 21       		.byte	0x21
 12772 1ddb F3       		.byte	0xf3
 12773 1ddc 01       		.uleb128 0x1
 12774 1ddd 51       		.byte	0x51
 12775 1dde 23       		.byte	0x23
 12776 1ddf 03       		.uleb128 0x3
 12777 1de0 94       		.byte	0x94
 12778 1de1 01       		.byte	0x1
 12779 1de2 08       		.byte	0x8
ARM GAS  C:\Users\Phuong\AppData\Local\Temp\ccawWFGQ.s 			page 246


 12780 1de3 FF       		.byte	0xff
 12781 1de4 1A       		.byte	0x1a
 12782 1de5 21       		.byte	0x21
 12783 1de6 34       		.byte	0x34
 12784 1de7 25       		.byte	0x25
 12785 1de8 27       		.byte	0x27
 12786 1de9 0C       		.byte	0xc
 12787 1dea 0F0F0F0F 		.4byte	0xf0f0f0f
 12788 1dee 1A       		.byte	0x1a
 12789 1def 27       		.byte	0x27
 12790 1df0 F3       		.byte	0xf3
 12791 1df1 01       		.uleb128 0x1
 12792 1df2 51       		.byte	0x51
 12793 1df3 23       		.byte	0x23
 12794 1df4 01       		.uleb128 0x1
 12795 1df5 94       		.byte	0x94
 12796 1df6 01       		.byte	0x1
 12797 1df7 08       		.byte	0x8
 12798 1df8 FF       		.byte	0xff
 12799 1df9 1A       		.byte	0x1a
 12800 1dfa 40       		.byte	0x40
 12801 1dfb 24       		.byte	0x24
 12802 1dfc F3       		.byte	0xf3
 12803 1dfd 01       		.uleb128 0x1
 12804 1dfe 51       		.byte	0x51
 12805 1dff 94       		.byte	0x94
 12806 1e00 01       		.byte	0x1
 12807 1e01 08       		.byte	0x8
 12808 1e02 FF       		.byte	0xff
 12809 1e03 1A       		.byte	0x1a
 12810 1e04 48       		.byte	0x48
 12811 1e05 24       		.byte	0x24
 12812 1e06 21       		.byte	0x21
 12813 1e07 F3       		.byte	0xf3
 12814 1e08 01       		.uleb128 0x1
 12815 1e09 51       		.byte	0x51
 12816 1e0a 23       		.byte	0x23
 12817 1e0b 02       		.uleb128 0x2
 12818 1e0c 94       		.byte	0x94
 12819 1e0d 01       		.byte	0x1
 12820 1e0e 08       		.byte	0x8
 12821 1e0f FF       		.byte	0xff
 12822 1e10 1A       		.byte	0x1a
 12823 1e11 38       		.byte	0x38
 12824 1e12 24       		.byte	0x24
 12825 1e13 21       		.byte	0x21
 12826 1e14 F3       		.byte	0xf3
 12827 1e15 01       		.uleb128 0x1
 12828 1e16 51       		.byte	0x51
 12829 1e17 23       		.byte	0x23
 12830 1e18 03       		.uleb128 0x3
 12831 1e19 94       		.byte	0x94
 12832 1e1a 01       		.byte	0x1
 12833 1e1b 08       		.byte	0x8
 12834 1e1c FF       		.byte	0xff
 12835 1e1d 1A       		.byte	0x1a
 12836 1e1e 21       		.byte	0x21
ARM GAS  C:\Users\Phuong\AppData\Local\Temp\ccawWFGQ.s 			page 247


 12837 1e1f 72       		.byte	0x72
 12838 1e20 00       		.sleb128 0
 12839 1e21 27       		.byte	0x27
 12840 1e22 40       		.byte	0x40
 12841 1e23 25       		.byte	0x25
 12842 1e24 27       		.byte	0x27
 12843 1e25 40       		.byte	0x40
 12844 1e26 24       		.byte	0x24
 12845 1e27 40       		.byte	0x40
 12846 1e28 25       		.byte	0x25
 12847 1e29 9F       		.byte	0x9f
 12848 1e2a 5E000000 		.4byte	.LVL229
 12849 1e2e 60000000 		.4byte	.LVL230
 12850 1e32 3E01     		.2byte	0x13e
 12851 1e34 F3       		.byte	0xf3
 12852 1e35 01       		.uleb128 0x1
 12853 1e36 51       		.byte	0x51
 12854 1e37 23       		.byte	0x23
 12855 1e38 04       		.uleb128 0x4
 12856 1e39 94       		.byte	0x94
 12857 1e3a 01       		.byte	0x1
 12858 1e3b 08       		.byte	0x8
 12859 1e3c FF       		.byte	0xff
 12860 1e3d 1A       		.byte	0x1a
 12861 1e3e 48       		.byte	0x48
 12862 1e3f 24       		.byte	0x24
 12863 1e40 F3       		.byte	0xf3
 12864 1e41 01       		.uleb128 0x1
 12865 1e42 51       		.byte	0x51
 12866 1e43 23       		.byte	0x23
 12867 1e44 05       		.uleb128 0x5
 12868 1e45 94       		.byte	0x94
 12869 1e46 01       		.byte	0x1
 12870 1e47 08       		.byte	0x8
 12871 1e48 FF       		.byte	0xff
 12872 1e49 1A       		.byte	0x1a
 12873 1e4a 40       		.byte	0x40
 12874 1e4b 24       		.byte	0x24
 12875 1e4c 21       		.byte	0x21
 12876 1e4d F3       		.byte	0xf3
 12877 1e4e 01       		.uleb128 0x1
 12878 1e4f 51       		.byte	0x51
 12879 1e50 23       		.byte	0x23
 12880 1e51 06       		.uleb128 0x6
 12881 1e52 94       		.byte	0x94
 12882 1e53 01       		.byte	0x1
 12883 1e54 08       		.byte	0x8
 12884 1e55 FF       		.byte	0xff
 12885 1e56 1A       		.byte	0x1a
 12886 1e57 38       		.byte	0x38
 12887 1e58 24       		.byte	0x24
 12888 1e59 21       		.byte	0x21
 12889 1e5a F3       		.byte	0xf3
 12890 1e5b 01       		.uleb128 0x1
 12891 1e5c 51       		.byte	0x51
 12892 1e5d 23       		.byte	0x23
 12893 1e5e 07       		.uleb128 0x7
ARM GAS  C:\Users\Phuong\AppData\Local\Temp\ccawWFGQ.s 			page 248


 12894 1e5f 94       		.byte	0x94
 12895 1e60 01       		.byte	0x1
 12896 1e61 08       		.byte	0x8
 12897 1e62 FF       		.byte	0xff
 12898 1e63 1A       		.byte	0x1a
 12899 1e64 21       		.byte	0x21
 12900 1e65 F3       		.byte	0xf3
 12901 1e66 01       		.uleb128 0x1
 12902 1e67 51       		.byte	0x51
 12903 1e68 23       		.byte	0x23
 12904 1e69 04       		.uleb128 0x4
 12905 1e6a 94       		.byte	0x94
 12906 1e6b 01       		.byte	0x1
 12907 1e6c 08       		.byte	0x8
 12908 1e6d FF       		.byte	0xff
 12909 1e6e 1A       		.byte	0x1a
 12910 1e6f 48       		.byte	0x48
 12911 1e70 24       		.byte	0x24
 12912 1e71 F3       		.byte	0xf3
 12913 1e72 01       		.uleb128 0x1
 12914 1e73 51       		.byte	0x51
 12915 1e74 23       		.byte	0x23
 12916 1e75 05       		.uleb128 0x5
 12917 1e76 94       		.byte	0x94
 12918 1e77 01       		.byte	0x1
 12919 1e78 08       		.byte	0x8
 12920 1e79 FF       		.byte	0xff
 12921 1e7a 1A       		.byte	0x1a
 12922 1e7b 40       		.byte	0x40
 12923 1e7c 24       		.byte	0x24
 12924 1e7d 21       		.byte	0x21
 12925 1e7e F3       		.byte	0xf3
 12926 1e7f 01       		.uleb128 0x1
 12927 1e80 51       		.byte	0x51
 12928 1e81 23       		.byte	0x23
 12929 1e82 06       		.uleb128 0x6
 12930 1e83 94       		.byte	0x94
 12931 1e84 01       		.byte	0x1
 12932 1e85 08       		.byte	0x8
 12933 1e86 FF       		.byte	0xff
 12934 1e87 1A       		.byte	0x1a
 12935 1e88 38       		.byte	0x38
 12936 1e89 24       		.byte	0x24
 12937 1e8a 21       		.byte	0x21
 12938 1e8b F3       		.byte	0xf3
 12939 1e8c 01       		.uleb128 0x1
 12940 1e8d 51       		.byte	0x51
 12941 1e8e 23       		.byte	0x23
 12942 1e8f 07       		.uleb128 0x7
 12943 1e90 94       		.byte	0x94
 12944 1e91 01       		.byte	0x1
 12945 1e92 08       		.byte	0x8
 12946 1e93 FF       		.byte	0xff
 12947 1e94 1A       		.byte	0x1a
 12948 1e95 21       		.byte	0x21
 12949 1e96 F3       		.byte	0xf3
 12950 1e97 01       		.uleb128 0x1
ARM GAS  C:\Users\Phuong\AppData\Local\Temp\ccawWFGQ.s 			page 249


 12951 1e98 51       		.byte	0x51
 12952 1e99 23       		.byte	0x23
 12953 1e9a 01       		.uleb128 0x1
 12954 1e9b 94       		.byte	0x94
 12955 1e9c 01       		.byte	0x1
 12956 1e9d 08       		.byte	0x8
 12957 1e9e FF       		.byte	0xff
 12958 1e9f 1A       		.byte	0x1a
 12959 1ea0 40       		.byte	0x40
 12960 1ea1 24       		.byte	0x24
 12961 1ea2 F3       		.byte	0xf3
 12962 1ea3 01       		.uleb128 0x1
 12963 1ea4 51       		.byte	0x51
 12964 1ea5 94       		.byte	0x94
 12965 1ea6 01       		.byte	0x1
 12966 1ea7 08       		.byte	0x8
 12967 1ea8 FF       		.byte	0xff
 12968 1ea9 1A       		.byte	0x1a
 12969 1eaa 48       		.byte	0x48
 12970 1eab 24       		.byte	0x24
 12971 1eac 21       		.byte	0x21
 12972 1ead F3       		.byte	0xf3
 12973 1eae 01       		.uleb128 0x1
 12974 1eaf 51       		.byte	0x51
 12975 1eb0 23       		.byte	0x23
 12976 1eb1 02       		.uleb128 0x2
 12977 1eb2 94       		.byte	0x94
 12978 1eb3 01       		.byte	0x1
 12979 1eb4 08       		.byte	0x8
 12980 1eb5 FF       		.byte	0xff
 12981 1eb6 1A       		.byte	0x1a
 12982 1eb7 38       		.byte	0x38
 12983 1eb8 24       		.byte	0x24
 12984 1eb9 21       		.byte	0x21
 12985 1eba F3       		.byte	0xf3
 12986 1ebb 01       		.uleb128 0x1
 12987 1ebc 51       		.byte	0x51
 12988 1ebd 23       		.byte	0x23
 12989 1ebe 03       		.uleb128 0x3
 12990 1ebf 94       		.byte	0x94
 12991 1ec0 01       		.byte	0x1
 12992 1ec1 08       		.byte	0x8
 12993 1ec2 FF       		.byte	0xff
 12994 1ec3 1A       		.byte	0x1a
 12995 1ec4 21       		.byte	0x21
 12996 1ec5 34       		.byte	0x34
 12997 1ec6 25       		.byte	0x25
 12998 1ec7 27       		.byte	0x27
 12999 1ec8 0C       		.byte	0xc
 13000 1ec9 0F0F0F0F 		.4byte	0xf0f0f0f
 13001 1ecd 1A       		.byte	0x1a
 13002 1ece 27       		.byte	0x27
 13003 1ecf F3       		.byte	0xf3
 13004 1ed0 01       		.uleb128 0x1
 13005 1ed1 51       		.byte	0x51
 13006 1ed2 23       		.byte	0x23
 13007 1ed3 01       		.uleb128 0x1
ARM GAS  C:\Users\Phuong\AppData\Local\Temp\ccawWFGQ.s 			page 250


 13008 1ed4 94       		.byte	0x94
 13009 1ed5 01       		.byte	0x1
 13010 1ed6 08       		.byte	0x8
 13011 1ed7 FF       		.byte	0xff
 13012 1ed8 1A       		.byte	0x1a
 13013 1ed9 40       		.byte	0x40
 13014 1eda 24       		.byte	0x24
 13015 1edb F3       		.byte	0xf3
 13016 1edc 01       		.uleb128 0x1
 13017 1edd 51       		.byte	0x51
 13018 1ede 94       		.byte	0x94
 13019 1edf 01       		.byte	0x1
 13020 1ee0 08       		.byte	0x8
 13021 1ee1 FF       		.byte	0xff
 13022 1ee2 1A       		.byte	0x1a
 13023 1ee3 48       		.byte	0x48
 13024 1ee4 24       		.byte	0x24
 13025 1ee5 21       		.byte	0x21
 13026 1ee6 F3       		.byte	0xf3
 13027 1ee7 01       		.uleb128 0x1
 13028 1ee8 51       		.byte	0x51
 13029 1ee9 23       		.byte	0x23
 13030 1eea 02       		.uleb128 0x2
 13031 1eeb 94       		.byte	0x94
 13032 1eec 01       		.byte	0x1
 13033 1eed 08       		.byte	0x8
 13034 1eee FF       		.byte	0xff
 13035 1eef 1A       		.byte	0x1a
 13036 1ef0 38       		.byte	0x38
 13037 1ef1 24       		.byte	0x24
 13038 1ef2 21       		.byte	0x21
 13039 1ef3 F3       		.byte	0xf3
 13040 1ef4 01       		.uleb128 0x1
 13041 1ef5 51       		.byte	0x51
 13042 1ef6 23       		.byte	0x23
 13043 1ef7 03       		.uleb128 0x3
 13044 1ef8 94       		.byte	0x94
 13045 1ef9 01       		.byte	0x1
 13046 1efa 08       		.byte	0x8
 13047 1efb FF       		.byte	0xff
 13048 1efc 1A       		.byte	0x1a
 13049 1efd 21       		.byte	0x21
 13050 1efe F3       		.byte	0xf3
 13051 1eff 01       		.uleb128 0x1
 13052 1f00 51       		.byte	0x51
 13053 1f01 23       		.byte	0x23
 13054 1f02 04       		.uleb128 0x4
 13055 1f03 94       		.byte	0x94
 13056 1f04 01       		.byte	0x1
 13057 1f05 08       		.byte	0x8
 13058 1f06 FF       		.byte	0xff
 13059 1f07 1A       		.byte	0x1a
 13060 1f08 48       		.byte	0x48
 13061 1f09 24       		.byte	0x24
 13062 1f0a F3       		.byte	0xf3
 13063 1f0b 01       		.uleb128 0x1
 13064 1f0c 51       		.byte	0x51
ARM GAS  C:\Users\Phuong\AppData\Local\Temp\ccawWFGQ.s 			page 251


 13065 1f0d 23       		.byte	0x23
 13066 1f0e 05       		.uleb128 0x5
 13067 1f0f 94       		.byte	0x94
 13068 1f10 01       		.byte	0x1
 13069 1f11 08       		.byte	0x8
 13070 1f12 FF       		.byte	0xff
 13071 1f13 1A       		.byte	0x1a
 13072 1f14 40       		.byte	0x40
 13073 1f15 24       		.byte	0x24
 13074 1f16 21       		.byte	0x21
 13075 1f17 F3       		.byte	0xf3
 13076 1f18 01       		.uleb128 0x1
 13077 1f19 51       		.byte	0x51
 13078 1f1a 23       		.byte	0x23
 13079 1f1b 06       		.uleb128 0x6
 13080 1f1c 94       		.byte	0x94
 13081 1f1d 01       		.byte	0x1
 13082 1f1e 08       		.byte	0x8
 13083 1f1f FF       		.byte	0xff
 13084 1f20 1A       		.byte	0x1a
 13085 1f21 38       		.byte	0x38
 13086 1f22 24       		.byte	0x24
 13087 1f23 21       		.byte	0x21
 13088 1f24 F3       		.byte	0xf3
 13089 1f25 01       		.uleb128 0x1
 13090 1f26 51       		.byte	0x51
 13091 1f27 23       		.byte	0x23
 13092 1f28 07       		.uleb128 0x7
 13093 1f29 94       		.byte	0x94
 13094 1f2a 01       		.byte	0x1
 13095 1f2b 08       		.byte	0x8
 13096 1f2c FF       		.byte	0xff
 13097 1f2d 1A       		.byte	0x1a
 13098 1f2e 21       		.byte	0x21
 13099 1f2f F3       		.byte	0xf3
 13100 1f30 01       		.uleb128 0x1
 13101 1f31 51       		.byte	0x51
 13102 1f32 23       		.byte	0x23
 13103 1f33 01       		.uleb128 0x1
 13104 1f34 94       		.byte	0x94
 13105 1f35 01       		.byte	0x1
 13106 1f36 08       		.byte	0x8
 13107 1f37 FF       		.byte	0xff
 13108 1f38 1A       		.byte	0x1a
 13109 1f39 40       		.byte	0x40
 13110 1f3a 24       		.byte	0x24
 13111 1f3b F3       		.byte	0xf3
 13112 1f3c 01       		.uleb128 0x1
 13113 1f3d 51       		.byte	0x51
 13114 1f3e 94       		.byte	0x94
 13115 1f3f 01       		.byte	0x1
 13116 1f40 08       		.byte	0x8
 13117 1f41 FF       		.byte	0xff
 13118 1f42 1A       		.byte	0x1a
 13119 1f43 48       		.byte	0x48
 13120 1f44 24       		.byte	0x24
 13121 1f45 21       		.byte	0x21
ARM GAS  C:\Users\Phuong\AppData\Local\Temp\ccawWFGQ.s 			page 252


 13122 1f46 F3       		.byte	0xf3
 13123 1f47 01       		.uleb128 0x1
 13124 1f48 51       		.byte	0x51
 13125 1f49 23       		.byte	0x23
 13126 1f4a 02       		.uleb128 0x2
 13127 1f4b 94       		.byte	0x94
 13128 1f4c 01       		.byte	0x1
 13129 1f4d 08       		.byte	0x8
 13130 1f4e FF       		.byte	0xff
 13131 1f4f 1A       		.byte	0x1a
 13132 1f50 38       		.byte	0x38
 13133 1f51 24       		.byte	0x24
 13134 1f52 21       		.byte	0x21
 13135 1f53 F3       		.byte	0xf3
 13136 1f54 01       		.uleb128 0x1
 13137 1f55 51       		.byte	0x51
 13138 1f56 23       		.byte	0x23
 13139 1f57 03       		.uleb128 0x3
 13140 1f58 94       		.byte	0x94
 13141 1f59 01       		.byte	0x1
 13142 1f5a 08       		.byte	0x8
 13143 1f5b FF       		.byte	0xff
 13144 1f5c 1A       		.byte	0x1a
 13145 1f5d 21       		.byte	0x21
 13146 1f5e 34       		.byte	0x34
 13147 1f5f 25       		.byte	0x25
 13148 1f60 27       		.byte	0x27
 13149 1f61 0C       		.byte	0xc
 13150 1f62 0F0F0F0F 		.4byte	0xf0f0f0f
 13151 1f66 1A       		.byte	0x1a
 13152 1f67 34       		.byte	0x34
 13153 1f68 24       		.byte	0x24
 13154 1f69 27       		.byte	0x27
 13155 1f6a 40       		.byte	0x40
 13156 1f6b 25       		.byte	0x25
 13157 1f6c 27       		.byte	0x27
 13158 1f6d 40       		.byte	0x40
 13159 1f6e 24       		.byte	0x24
 13160 1f6f 40       		.byte	0x40
 13161 1f70 25       		.byte	0x25
 13162 1f71 9F       		.byte	0x9f
 13163 1f72 60000000 		.4byte	.LVL230
 13164 1f76 64000000 		.4byte	.LVL232
 13165 1f7a 0100     		.2byte	0x1
 13166 1f7c 50       		.byte	0x50
 13167 1f7d 64000000 		.4byte	.LVL232
 13168 1f81 68000000 		.4byte	.LVL234
 13169 1f85 A700     		.2byte	0xa7
 13170 1f87 F3       		.byte	0xf3
 13171 1f88 01       		.uleb128 0x1
 13172 1f89 51       		.byte	0x51
 13173 1f8a 23       		.byte	0x23
 13174 1f8b 01       		.uleb128 0x1
 13175 1f8c 94       		.byte	0x94
 13176 1f8d 01       		.byte	0x1
 13177 1f8e 08       		.byte	0x8
 13178 1f8f FF       		.byte	0xff
ARM GAS  C:\Users\Phuong\AppData\Local\Temp\ccawWFGQ.s 			page 253


 13179 1f90 1A       		.byte	0x1a
 13180 1f91 40       		.byte	0x40
 13181 1f92 24       		.byte	0x24
 13182 1f93 F3       		.byte	0xf3
 13183 1f94 01       		.uleb128 0x1
 13184 1f95 51       		.byte	0x51
 13185 1f96 94       		.byte	0x94
 13186 1f97 01       		.byte	0x1
 13187 1f98 08       		.byte	0x8
 13188 1f99 FF       		.byte	0xff
 13189 1f9a 1A       		.byte	0x1a
 13190 1f9b 48       		.byte	0x48
 13191 1f9c 24       		.byte	0x24
 13192 1f9d 21       		.byte	0x21
 13193 1f9e F3       		.byte	0xf3
 13194 1f9f 01       		.uleb128 0x1
 13195 1fa0 51       		.byte	0x51
 13196 1fa1 23       		.byte	0x23
 13197 1fa2 02       		.uleb128 0x2
 13198 1fa3 94       		.byte	0x94
 13199 1fa4 01       		.byte	0x1
 13200 1fa5 08       		.byte	0x8
 13201 1fa6 FF       		.byte	0xff
 13202 1fa7 1A       		.byte	0x1a
 13203 1fa8 38       		.byte	0x38
 13204 1fa9 24       		.byte	0x24
 13205 1faa 21       		.byte	0x21
 13206 1fab F3       		.byte	0xf3
 13207 1fac 01       		.uleb128 0x1
 13208 1fad 51       		.byte	0x51
 13209 1fae 23       		.byte	0x23
 13210 1faf 03       		.uleb128 0x3
 13211 1fb0 94       		.byte	0x94
 13212 1fb1 01       		.byte	0x1
 13213 1fb2 08       		.byte	0x8
 13214 1fb3 FF       		.byte	0xff
 13215 1fb4 1A       		.byte	0x1a
 13216 1fb5 21       		.byte	0x21
 13217 1fb6 F3       		.byte	0xf3
 13218 1fb7 01       		.uleb128 0x1
 13219 1fb8 51       		.byte	0x51
 13220 1fb9 23       		.byte	0x23
 13221 1fba 04       		.uleb128 0x4
 13222 1fbb 94       		.byte	0x94
 13223 1fbc 01       		.byte	0x1
 13224 1fbd 08       		.byte	0x8
 13225 1fbe FF       		.byte	0xff
 13226 1fbf 1A       		.byte	0x1a
 13227 1fc0 48       		.byte	0x48
 13228 1fc1 24       		.byte	0x24
 13229 1fc2 F3       		.byte	0xf3
 13230 1fc3 01       		.uleb128 0x1
 13231 1fc4 51       		.byte	0x51
 13232 1fc5 23       		.byte	0x23
 13233 1fc6 05       		.uleb128 0x5
 13234 1fc7 94       		.byte	0x94
 13235 1fc8 01       		.byte	0x1
ARM GAS  C:\Users\Phuong\AppData\Local\Temp\ccawWFGQ.s 			page 254


 13236 1fc9 08       		.byte	0x8
 13237 1fca FF       		.byte	0xff
 13238 1fcb 1A       		.byte	0x1a
 13239 1fcc 40       		.byte	0x40
 13240 1fcd 24       		.byte	0x24
 13241 1fce 21       		.byte	0x21
 13242 1fcf F3       		.byte	0xf3
 13243 1fd0 01       		.uleb128 0x1
 13244 1fd1 51       		.byte	0x51
 13245 1fd2 23       		.byte	0x23
 13246 1fd3 06       		.uleb128 0x6
 13247 1fd4 94       		.byte	0x94
 13248 1fd5 01       		.byte	0x1
 13249 1fd6 08       		.byte	0x8
 13250 1fd7 FF       		.byte	0xff
 13251 1fd8 1A       		.byte	0x1a
 13252 1fd9 38       		.byte	0x38
 13253 1fda 24       		.byte	0x24
 13254 1fdb 21       		.byte	0x21
 13255 1fdc F3       		.byte	0xf3
 13256 1fdd 01       		.uleb128 0x1
 13257 1fde 51       		.byte	0x51
 13258 1fdf 23       		.byte	0x23
 13259 1fe0 07       		.uleb128 0x7
 13260 1fe1 94       		.byte	0x94
 13261 1fe2 01       		.byte	0x1
 13262 1fe3 08       		.byte	0x8
 13263 1fe4 FF       		.byte	0xff
 13264 1fe5 1A       		.byte	0x1a
 13265 1fe6 21       		.byte	0x21
 13266 1fe7 F3       		.byte	0xf3
 13267 1fe8 01       		.uleb128 0x1
 13268 1fe9 51       		.byte	0x51
 13269 1fea 23       		.byte	0x23
 13270 1feb 01       		.uleb128 0x1
 13271 1fec 94       		.byte	0x94
 13272 1fed 01       		.byte	0x1
 13273 1fee 08       		.byte	0x8
 13274 1fef FF       		.byte	0xff
 13275 1ff0 1A       		.byte	0x1a
 13276 1ff1 40       		.byte	0x40
 13277 1ff2 24       		.byte	0x24
 13278 1ff3 F3       		.byte	0xf3
 13279 1ff4 01       		.uleb128 0x1
 13280 1ff5 51       		.byte	0x51
 13281 1ff6 94       		.byte	0x94
 13282 1ff7 01       		.byte	0x1
 13283 1ff8 08       		.byte	0x8
 13284 1ff9 FF       		.byte	0xff
 13285 1ffa 1A       		.byte	0x1a
 13286 1ffb 48       		.byte	0x48
 13287 1ffc 24       		.byte	0x24
 13288 1ffd 21       		.byte	0x21
 13289 1ffe F3       		.byte	0xf3
 13290 1fff 01       		.uleb128 0x1
 13291 2000 51       		.byte	0x51
 13292 2001 23       		.byte	0x23
ARM GAS  C:\Users\Phuong\AppData\Local\Temp\ccawWFGQ.s 			page 255


 13293 2002 02       		.uleb128 0x2
 13294 2003 94       		.byte	0x94
 13295 2004 01       		.byte	0x1
 13296 2005 08       		.byte	0x8
 13297 2006 FF       		.byte	0xff
 13298 2007 1A       		.byte	0x1a
 13299 2008 38       		.byte	0x38
 13300 2009 24       		.byte	0x24
 13301 200a 21       		.byte	0x21
 13302 200b F3       		.byte	0xf3
 13303 200c 01       		.uleb128 0x1
 13304 200d 51       		.byte	0x51
 13305 200e 23       		.byte	0x23
 13306 200f 03       		.uleb128 0x3
 13307 2010 94       		.byte	0x94
 13308 2011 01       		.byte	0x1
 13309 2012 08       		.byte	0x8
 13310 2013 FF       		.byte	0xff
 13311 2014 1A       		.byte	0x1a
 13312 2015 21       		.byte	0x21
 13313 2016 34       		.byte	0x34
 13314 2017 25       		.byte	0x25
 13315 2018 27       		.byte	0x27
 13316 2019 0C       		.byte	0xc
 13317 201a 0F0F0F0F 		.4byte	0xf0f0f0f
 13318 201e 1A       		.byte	0x1a
 13319 201f 34       		.byte	0x34
 13320 2020 24       		.byte	0x24
 13321 2021 27       		.byte	0x27
 13322 2022 71       		.byte	0x71
 13323 2023 00       		.sleb128 0
 13324 2024 32       		.byte	0x32
 13325 2025 25       		.byte	0x25
 13326 2026 27       		.byte	0x27
 13327 2027 74       		.byte	0x74
 13328 2028 00       		.sleb128 0
 13329 2029 27       		.byte	0x27
 13330 202a 72       		.byte	0x72
 13331 202b 00       		.sleb128 0
 13332 202c 1A       		.byte	0x1a
 13333 202d 9F       		.byte	0x9f
 13334 202e 68000000 		.4byte	.LVL234
 13335 2032 6C000000 		.4byte	.LVL235
 13336 2036 E401     		.2byte	0x1e4
 13337 2038 F3       		.byte	0xf3
 13338 2039 01       		.uleb128 0x1
 13339 203a 51       		.byte	0x51
 13340 203b 23       		.byte	0x23
 13341 203c 01       		.uleb128 0x1
 13342 203d 94       		.byte	0x94
 13343 203e 01       		.byte	0x1
 13344 203f 08       		.byte	0x8
 13345 2040 FF       		.byte	0xff
 13346 2041 1A       		.byte	0x1a
 13347 2042 40       		.byte	0x40
 13348 2043 24       		.byte	0x24
 13349 2044 F3       		.byte	0xf3
ARM GAS  C:\Users\Phuong\AppData\Local\Temp\ccawWFGQ.s 			page 256


 13350 2045 01       		.uleb128 0x1
 13351 2046 51       		.byte	0x51
 13352 2047 94       		.byte	0x94
 13353 2048 01       		.byte	0x1
 13354 2049 08       		.byte	0x8
 13355 204a FF       		.byte	0xff
 13356 204b 1A       		.byte	0x1a
 13357 204c 48       		.byte	0x48
 13358 204d 24       		.byte	0x24
 13359 204e 21       		.byte	0x21
 13360 204f F3       		.byte	0xf3
 13361 2050 01       		.uleb128 0x1
 13362 2051 51       		.byte	0x51
 13363 2052 23       		.byte	0x23
 13364 2053 02       		.uleb128 0x2
 13365 2054 94       		.byte	0x94
 13366 2055 01       		.byte	0x1
 13367 2056 08       		.byte	0x8
 13368 2057 FF       		.byte	0xff
 13369 2058 1A       		.byte	0x1a
 13370 2059 38       		.byte	0x38
 13371 205a 24       		.byte	0x24
 13372 205b 21       		.byte	0x21
 13373 205c F3       		.byte	0xf3
 13374 205d 01       		.uleb128 0x1
 13375 205e 51       		.byte	0x51
 13376 205f 23       		.byte	0x23
 13377 2060 03       		.uleb128 0x3
 13378 2061 94       		.byte	0x94
 13379 2062 01       		.byte	0x1
 13380 2063 08       		.byte	0x8
 13381 2064 FF       		.byte	0xff
 13382 2065 1A       		.byte	0x1a
 13383 2066 21       		.byte	0x21
 13384 2067 F3       		.byte	0xf3
 13385 2068 01       		.uleb128 0x1
 13386 2069 51       		.byte	0x51
 13387 206a 23       		.byte	0x23
 13388 206b 04       		.uleb128 0x4
 13389 206c 94       		.byte	0x94
 13390 206d 01       		.byte	0x1
 13391 206e 08       		.byte	0x8
 13392 206f FF       		.byte	0xff
 13393 2070 1A       		.byte	0x1a
 13394 2071 48       		.byte	0x48
 13395 2072 24       		.byte	0x24
 13396 2073 F3       		.byte	0xf3
 13397 2074 01       		.uleb128 0x1
 13398 2075 51       		.byte	0x51
 13399 2076 23       		.byte	0x23
 13400 2077 05       		.uleb128 0x5
 13401 2078 94       		.byte	0x94
 13402 2079 01       		.byte	0x1
 13403 207a 08       		.byte	0x8
 13404 207b FF       		.byte	0xff
 13405 207c 1A       		.byte	0x1a
 13406 207d 40       		.byte	0x40
ARM GAS  C:\Users\Phuong\AppData\Local\Temp\ccawWFGQ.s 			page 257


 13407 207e 24       		.byte	0x24
 13408 207f 21       		.byte	0x21
 13409 2080 F3       		.byte	0xf3
 13410 2081 01       		.uleb128 0x1
 13411 2082 51       		.byte	0x51
 13412 2083 23       		.byte	0x23
 13413 2084 06       		.uleb128 0x6
 13414 2085 94       		.byte	0x94
 13415 2086 01       		.byte	0x1
 13416 2087 08       		.byte	0x8
 13417 2088 FF       		.byte	0xff
 13418 2089 1A       		.byte	0x1a
 13419 208a 38       		.byte	0x38
 13420 208b 24       		.byte	0x24
 13421 208c 21       		.byte	0x21
 13422 208d F3       		.byte	0xf3
 13423 208e 01       		.uleb128 0x1
 13424 208f 51       		.byte	0x51
 13425 2090 23       		.byte	0x23
 13426 2091 07       		.uleb128 0x7
 13427 2092 94       		.byte	0x94
 13428 2093 01       		.byte	0x1
 13429 2094 08       		.byte	0x8
 13430 2095 FF       		.byte	0xff
 13431 2096 1A       		.byte	0x1a
 13432 2097 21       		.byte	0x21
 13433 2098 F3       		.byte	0xf3
 13434 2099 01       		.uleb128 0x1
 13435 209a 51       		.byte	0x51
 13436 209b 23       		.byte	0x23
 13437 209c 01       		.uleb128 0x1
 13438 209d 94       		.byte	0x94
 13439 209e 01       		.byte	0x1
 13440 209f 08       		.byte	0x8
 13441 20a0 FF       		.byte	0xff
 13442 20a1 1A       		.byte	0x1a
 13443 20a2 40       		.byte	0x40
 13444 20a3 24       		.byte	0x24
 13445 20a4 F3       		.byte	0xf3
 13446 20a5 01       		.uleb128 0x1
 13447 20a6 51       		.byte	0x51
 13448 20a7 94       		.byte	0x94
 13449 20a8 01       		.byte	0x1
 13450 20a9 08       		.byte	0x8
 13451 20aa FF       		.byte	0xff
 13452 20ab 1A       		.byte	0x1a
 13453 20ac 48       		.byte	0x48
 13454 20ad 24       		.byte	0x24
 13455 20ae 21       		.byte	0x21
 13456 20af F3       		.byte	0xf3
 13457 20b0 01       		.uleb128 0x1
 13458 20b1 51       		.byte	0x51
 13459 20b2 23       		.byte	0x23
 13460 20b3 02       		.uleb128 0x2
 13461 20b4 94       		.byte	0x94
 13462 20b5 01       		.byte	0x1
 13463 20b6 08       		.byte	0x8
ARM GAS  C:\Users\Phuong\AppData\Local\Temp\ccawWFGQ.s 			page 258


 13464 20b7 FF       		.byte	0xff
 13465 20b8 1A       		.byte	0x1a
 13466 20b9 38       		.byte	0x38
 13467 20ba 24       		.byte	0x24
 13468 20bb 21       		.byte	0x21
 13469 20bc F3       		.byte	0xf3
 13470 20bd 01       		.uleb128 0x1
 13471 20be 51       		.byte	0x51
 13472 20bf 23       		.byte	0x23
 13473 20c0 03       		.uleb128 0x3
 13474 20c1 94       		.byte	0x94
 13475 20c2 01       		.byte	0x1
 13476 20c3 08       		.byte	0x8
 13477 20c4 FF       		.byte	0xff
 13478 20c5 1A       		.byte	0x1a
 13479 20c6 21       		.byte	0x21
 13480 20c7 34       		.byte	0x34
 13481 20c8 25       		.byte	0x25
 13482 20c9 27       		.byte	0x27
 13483 20ca 0C       		.byte	0xc
 13484 20cb 0F0F0F0F 		.4byte	0xf0f0f0f
 13485 20cf 1A       		.byte	0x1a
 13486 20d0 34       		.byte	0x34
 13487 20d1 24       		.byte	0x24
 13488 20d2 27       		.byte	0x27
 13489 20d3 F3       		.byte	0xf3
 13490 20d4 01       		.uleb128 0x1
 13491 20d5 51       		.byte	0x51
 13492 20d6 23       		.byte	0x23
 13493 20d7 04       		.uleb128 0x4
 13494 20d8 94       		.byte	0x94
 13495 20d9 01       		.byte	0x1
 13496 20da 08       		.byte	0x8
 13497 20db FF       		.byte	0xff
 13498 20dc 1A       		.byte	0x1a
 13499 20dd 48       		.byte	0x48
 13500 20de 24       		.byte	0x24
 13501 20df F3       		.byte	0xf3
 13502 20e0 01       		.uleb128 0x1
 13503 20e1 51       		.byte	0x51
 13504 20e2 23       		.byte	0x23
 13505 20e3 05       		.uleb128 0x5
 13506 20e4 94       		.byte	0x94
 13507 20e5 01       		.byte	0x1
 13508 20e6 08       		.byte	0x8
 13509 20e7 FF       		.byte	0xff
 13510 20e8 1A       		.byte	0x1a
 13511 20e9 40       		.byte	0x40
 13512 20ea 24       		.byte	0x24
 13513 20eb 21       		.byte	0x21
 13514 20ec F3       		.byte	0xf3
 13515 20ed 01       		.uleb128 0x1
 13516 20ee 51       		.byte	0x51
 13517 20ef 23       		.byte	0x23
 13518 20f0 06       		.uleb128 0x6
 13519 20f1 94       		.byte	0x94
 13520 20f2 01       		.byte	0x1
ARM GAS  C:\Users\Phuong\AppData\Local\Temp\ccawWFGQ.s 			page 259


 13521 20f3 08       		.byte	0x8
 13522 20f4 FF       		.byte	0xff
 13523 20f5 1A       		.byte	0x1a
 13524 20f6 38       		.byte	0x38
 13525 20f7 24       		.byte	0x24
 13526 20f8 21       		.byte	0x21
 13527 20f9 F3       		.byte	0xf3
 13528 20fa 01       		.uleb128 0x1
 13529 20fb 51       		.byte	0x51
 13530 20fc 23       		.byte	0x23
 13531 20fd 07       		.uleb128 0x7
 13532 20fe 94       		.byte	0x94
 13533 20ff 01       		.byte	0x1
 13534 2100 08       		.byte	0x8
 13535 2101 FF       		.byte	0xff
 13536 2102 1A       		.byte	0x1a
 13537 2103 21       		.byte	0x21
 13538 2104 F3       		.byte	0xf3
 13539 2105 01       		.uleb128 0x1
 13540 2106 51       		.byte	0x51
 13541 2107 23       		.byte	0x23
 13542 2108 04       		.uleb128 0x4
 13543 2109 94       		.byte	0x94
 13544 210a 01       		.byte	0x1
 13545 210b 08       		.byte	0x8
 13546 210c FF       		.byte	0xff
 13547 210d 1A       		.byte	0x1a
 13548 210e 48       		.byte	0x48
 13549 210f 24       		.byte	0x24
 13550 2110 F3       		.byte	0xf3
 13551 2111 01       		.uleb128 0x1
 13552 2112 51       		.byte	0x51
 13553 2113 23       		.byte	0x23
 13554 2114 05       		.uleb128 0x5
 13555 2115 94       		.byte	0x94
 13556 2116 01       		.byte	0x1
 13557 2117 08       		.byte	0x8
 13558 2118 FF       		.byte	0xff
 13559 2119 1A       		.byte	0x1a
 13560 211a 40       		.byte	0x40
 13561 211b 24       		.byte	0x24
 13562 211c 21       		.byte	0x21
 13563 211d F3       		.byte	0xf3
 13564 211e 01       		.uleb128 0x1
 13565 211f 51       		.byte	0x51
 13566 2120 23       		.byte	0x23
 13567 2121 06       		.uleb128 0x6
 13568 2122 94       		.byte	0x94
 13569 2123 01       		.byte	0x1
 13570 2124 08       		.byte	0x8
 13571 2125 FF       		.byte	0xff
 13572 2126 1A       		.byte	0x1a
 13573 2127 38       		.byte	0x38
 13574 2128 24       		.byte	0x24
 13575 2129 21       		.byte	0x21
 13576 212a F3       		.byte	0xf3
 13577 212b 01       		.uleb128 0x1
ARM GAS  C:\Users\Phuong\AppData\Local\Temp\ccawWFGQ.s 			page 260


 13578 212c 51       		.byte	0x51
 13579 212d 23       		.byte	0x23
 13580 212e 07       		.uleb128 0x7
 13581 212f 94       		.byte	0x94
 13582 2130 01       		.byte	0x1
 13583 2131 08       		.byte	0x8
 13584 2132 FF       		.byte	0xff
 13585 2133 1A       		.byte	0x1a
 13586 2134 21       		.byte	0x21
 13587 2135 F3       		.byte	0xf3
 13588 2136 01       		.uleb128 0x1
 13589 2137 51       		.byte	0x51
 13590 2138 23       		.byte	0x23
 13591 2139 01       		.uleb128 0x1
 13592 213a 94       		.byte	0x94
 13593 213b 01       		.byte	0x1
 13594 213c 08       		.byte	0x8
 13595 213d FF       		.byte	0xff
 13596 213e 1A       		.byte	0x1a
 13597 213f 40       		.byte	0x40
 13598 2140 24       		.byte	0x24
 13599 2141 F3       		.byte	0xf3
 13600 2142 01       		.uleb128 0x1
 13601 2143 51       		.byte	0x51
 13602 2144 94       		.byte	0x94
 13603 2145 01       		.byte	0x1
 13604 2146 08       		.byte	0x8
 13605 2147 FF       		.byte	0xff
 13606 2148 1A       		.byte	0x1a
 13607 2149 48       		.byte	0x48
 13608 214a 24       		.byte	0x24
 13609 214b 21       		.byte	0x21
 13610 214c F3       		.byte	0xf3
 13611 214d 01       		.uleb128 0x1
 13612 214e 51       		.byte	0x51
 13613 214f 23       		.byte	0x23
 13614 2150 02       		.uleb128 0x2
 13615 2151 94       		.byte	0x94
 13616 2152 01       		.byte	0x1
 13617 2153 08       		.byte	0x8
 13618 2154 FF       		.byte	0xff
 13619 2155 1A       		.byte	0x1a
 13620 2156 38       		.byte	0x38
 13621 2157 24       		.byte	0x24
 13622 2158 21       		.byte	0x21
 13623 2159 F3       		.byte	0xf3
 13624 215a 01       		.uleb128 0x1
 13625 215b 51       		.byte	0x51
 13626 215c 23       		.byte	0x23
 13627 215d 03       		.uleb128 0x3
 13628 215e 94       		.byte	0x94
 13629 215f 01       		.byte	0x1
 13630 2160 08       		.byte	0x8
 13631 2161 FF       		.byte	0xff
 13632 2162 1A       		.byte	0x1a
 13633 2163 21       		.byte	0x21
 13634 2164 34       		.byte	0x34
ARM GAS  C:\Users\Phuong\AppData\Local\Temp\ccawWFGQ.s 			page 261


 13635 2165 25       		.byte	0x25
 13636 2166 27       		.byte	0x27
 13637 2167 0C       		.byte	0xc
 13638 2168 0F0F0F0F 		.4byte	0xf0f0f0f
 13639 216c 1A       		.byte	0x1a
 13640 216d 27       		.byte	0x27
 13641 216e F3       		.byte	0xf3
 13642 216f 01       		.uleb128 0x1
 13643 2170 51       		.byte	0x51
 13644 2171 23       		.byte	0x23
 13645 2172 01       		.uleb128 0x1
 13646 2173 94       		.byte	0x94
 13647 2174 01       		.byte	0x1
 13648 2175 08       		.byte	0x8
 13649 2176 FF       		.byte	0xff
 13650 2177 1A       		.byte	0x1a
 13651 2178 40       		.byte	0x40
 13652 2179 24       		.byte	0x24
 13653 217a F3       		.byte	0xf3
 13654 217b 01       		.uleb128 0x1
 13655 217c 51       		.byte	0x51
 13656 217d 94       		.byte	0x94
 13657 217e 01       		.byte	0x1
 13658 217f 08       		.byte	0x8
 13659 2180 FF       		.byte	0xff
 13660 2181 1A       		.byte	0x1a
 13661 2182 48       		.byte	0x48
 13662 2183 24       		.byte	0x24
 13663 2184 21       		.byte	0x21
 13664 2185 F3       		.byte	0xf3
 13665 2186 01       		.uleb128 0x1
 13666 2187 51       		.byte	0x51
 13667 2188 23       		.byte	0x23
 13668 2189 02       		.uleb128 0x2
 13669 218a 94       		.byte	0x94
 13670 218b 01       		.byte	0x1
 13671 218c 08       		.byte	0x8
 13672 218d FF       		.byte	0xff
 13673 218e 1A       		.byte	0x1a
 13674 218f 38       		.byte	0x38
 13675 2190 24       		.byte	0x24
 13676 2191 21       		.byte	0x21
 13677 2192 F3       		.byte	0xf3
 13678 2193 01       		.uleb128 0x1
 13679 2194 51       		.byte	0x51
 13680 2195 23       		.byte	0x23
 13681 2196 03       		.uleb128 0x3
 13682 2197 94       		.byte	0x94
 13683 2198 01       		.byte	0x1
 13684 2199 08       		.byte	0x8
 13685 219a FF       		.byte	0xff
 13686 219b 1A       		.byte	0x1a
 13687 219c 21       		.byte	0x21
 13688 219d F3       		.byte	0xf3
 13689 219e 01       		.uleb128 0x1
 13690 219f 51       		.byte	0x51
 13691 21a0 23       		.byte	0x23
ARM GAS  C:\Users\Phuong\AppData\Local\Temp\ccawWFGQ.s 			page 262


 13692 21a1 04       		.uleb128 0x4
 13693 21a2 94       		.byte	0x94
 13694 21a3 01       		.byte	0x1
 13695 21a4 08       		.byte	0x8
 13696 21a5 FF       		.byte	0xff
 13697 21a6 1A       		.byte	0x1a
 13698 21a7 48       		.byte	0x48
 13699 21a8 24       		.byte	0x24
 13700 21a9 F3       		.byte	0xf3
 13701 21aa 01       		.uleb128 0x1
 13702 21ab 51       		.byte	0x51
 13703 21ac 23       		.byte	0x23
 13704 21ad 05       		.uleb128 0x5
 13705 21ae 94       		.byte	0x94
 13706 21af 01       		.byte	0x1
 13707 21b0 08       		.byte	0x8
 13708 21b1 FF       		.byte	0xff
 13709 21b2 1A       		.byte	0x1a
 13710 21b3 40       		.byte	0x40
 13711 21b4 24       		.byte	0x24
 13712 21b5 21       		.byte	0x21
 13713 21b6 F3       		.byte	0xf3
 13714 21b7 01       		.uleb128 0x1
 13715 21b8 51       		.byte	0x51
 13716 21b9 23       		.byte	0x23
 13717 21ba 06       		.uleb128 0x6
 13718 21bb 94       		.byte	0x94
 13719 21bc 01       		.byte	0x1
 13720 21bd 08       		.byte	0x8
 13721 21be FF       		.byte	0xff
 13722 21bf 1A       		.byte	0x1a
 13723 21c0 38       		.byte	0x38
 13724 21c1 24       		.byte	0x24
 13725 21c2 21       		.byte	0x21
 13726 21c3 F3       		.byte	0xf3
 13727 21c4 01       		.uleb128 0x1
 13728 21c5 51       		.byte	0x51
 13729 21c6 23       		.byte	0x23
 13730 21c7 07       		.uleb128 0x7
 13731 21c8 94       		.byte	0x94
 13732 21c9 01       		.byte	0x1
 13733 21ca 08       		.byte	0x8
 13734 21cb FF       		.byte	0xff
 13735 21cc 1A       		.byte	0x1a
 13736 21cd 21       		.byte	0x21
 13737 21ce F3       		.byte	0xf3
 13738 21cf 01       		.uleb128 0x1
 13739 21d0 51       		.byte	0x51
 13740 21d1 23       		.byte	0x23
 13741 21d2 01       		.uleb128 0x1
 13742 21d3 94       		.byte	0x94
 13743 21d4 01       		.byte	0x1
 13744 21d5 08       		.byte	0x8
 13745 21d6 FF       		.byte	0xff
 13746 21d7 1A       		.byte	0x1a
 13747 21d8 40       		.byte	0x40
 13748 21d9 24       		.byte	0x24
ARM GAS  C:\Users\Phuong\AppData\Local\Temp\ccawWFGQ.s 			page 263


 13749 21da F3       		.byte	0xf3
 13750 21db 01       		.uleb128 0x1
 13751 21dc 51       		.byte	0x51
 13752 21dd 94       		.byte	0x94
 13753 21de 01       		.byte	0x1
 13754 21df 08       		.byte	0x8
 13755 21e0 FF       		.byte	0xff
 13756 21e1 1A       		.byte	0x1a
 13757 21e2 48       		.byte	0x48
 13758 21e3 24       		.byte	0x24
 13759 21e4 21       		.byte	0x21
 13760 21e5 F3       		.byte	0xf3
 13761 21e6 01       		.uleb128 0x1
 13762 21e7 51       		.byte	0x51
 13763 21e8 23       		.byte	0x23
 13764 21e9 02       		.uleb128 0x2
 13765 21ea 94       		.byte	0x94
 13766 21eb 01       		.byte	0x1
 13767 21ec 08       		.byte	0x8
 13768 21ed FF       		.byte	0xff
 13769 21ee 1A       		.byte	0x1a
 13770 21ef 38       		.byte	0x38
 13771 21f0 24       		.byte	0x24
 13772 21f1 21       		.byte	0x21
 13773 21f2 F3       		.byte	0xf3
 13774 21f3 01       		.uleb128 0x1
 13775 21f4 51       		.byte	0x51
 13776 21f5 23       		.byte	0x23
 13777 21f6 03       		.uleb128 0x3
 13778 21f7 94       		.byte	0x94
 13779 21f8 01       		.byte	0x1
 13780 21f9 08       		.byte	0x8
 13781 21fa FF       		.byte	0xff
 13782 21fb 1A       		.byte	0x1a
 13783 21fc 21       		.byte	0x21
 13784 21fd 34       		.byte	0x34
 13785 21fe 25       		.byte	0x25
 13786 21ff 27       		.byte	0x27
 13787 2200 0C       		.byte	0xc
 13788 2201 0F0F0F0F 		.4byte	0xf0f0f0f
 13789 2205 1A       		.byte	0x1a
 13790 2206 34       		.byte	0x34
 13791 2207 24       		.byte	0x24
 13792 2208 27       		.byte	0x27
 13793 2209 40       		.byte	0x40
 13794 220a 25       		.byte	0x25
 13795 220b 27       		.byte	0x27
 13796 220c 40       		.byte	0x40
 13797 220d 24       		.byte	0x24
 13798 220e 40       		.byte	0x40
 13799 220f 25       		.byte	0x25
 13800 2210 40       		.byte	0x40
 13801 2211 24       		.byte	0x24
 13802 2212 27       		.byte	0x27
 13803 2213 71       		.byte	0x71
 13804 2214 00       		.sleb128 0
 13805 2215 32       		.byte	0x32
ARM GAS  C:\Users\Phuong\AppData\Local\Temp\ccawWFGQ.s 			page 264


 13806 2216 25       		.byte	0x25
 13807 2217 27       		.byte	0x27
 13808 2218 72       		.byte	0x72
 13809 2219 00       		.sleb128 0
 13810 221a 1A       		.byte	0x1a
 13811 221b 9F       		.byte	0x9f
 13812 221c 6C000000 		.4byte	.LVL235
 13813 2220 6E000000 		.4byte	.LVL236
 13814 2224 E701     		.2byte	0x1e7
 13815 2226 F3       		.byte	0xf3
 13816 2227 01       		.uleb128 0x1
 13817 2228 51       		.byte	0x51
 13818 2229 23       		.byte	0x23
 13819 222a 01       		.uleb128 0x1
 13820 222b 94       		.byte	0x94
 13821 222c 01       		.byte	0x1
 13822 222d 08       		.byte	0x8
 13823 222e FF       		.byte	0xff
 13824 222f 1A       		.byte	0x1a
 13825 2230 40       		.byte	0x40
 13826 2231 24       		.byte	0x24
 13827 2232 F3       		.byte	0xf3
 13828 2233 01       		.uleb128 0x1
 13829 2234 51       		.byte	0x51
 13830 2235 94       		.byte	0x94
 13831 2236 01       		.byte	0x1
 13832 2237 08       		.byte	0x8
 13833 2238 FF       		.byte	0xff
 13834 2239 1A       		.byte	0x1a
 13835 223a 48       		.byte	0x48
 13836 223b 24       		.byte	0x24
 13837 223c 21       		.byte	0x21
 13838 223d F3       		.byte	0xf3
 13839 223e 01       		.uleb128 0x1
 13840 223f 51       		.byte	0x51
 13841 2240 23       		.byte	0x23
 13842 2241 02       		.uleb128 0x2
 13843 2242 94       		.byte	0x94
 13844 2243 01       		.byte	0x1
 13845 2244 08       		.byte	0x8
 13846 2245 FF       		.byte	0xff
 13847 2246 1A       		.byte	0x1a
 13848 2247 38       		.byte	0x38
 13849 2248 24       		.byte	0x24
 13850 2249 21       		.byte	0x21
 13851 224a F3       		.byte	0xf3
 13852 224b 01       		.uleb128 0x1
 13853 224c 51       		.byte	0x51
 13854 224d 23       		.byte	0x23
 13855 224e 03       		.uleb128 0x3
 13856 224f 94       		.byte	0x94
 13857 2250 01       		.byte	0x1
 13858 2251 08       		.byte	0x8
 13859 2252 FF       		.byte	0xff
 13860 2253 1A       		.byte	0x1a
 13861 2254 21       		.byte	0x21
 13862 2255 F3       		.byte	0xf3
ARM GAS  C:\Users\Phuong\AppData\Local\Temp\ccawWFGQ.s 			page 265


 13863 2256 01       		.uleb128 0x1
 13864 2257 51       		.byte	0x51
 13865 2258 23       		.byte	0x23
 13866 2259 04       		.uleb128 0x4
 13867 225a 94       		.byte	0x94
 13868 225b 01       		.byte	0x1
 13869 225c 08       		.byte	0x8
 13870 225d FF       		.byte	0xff
 13871 225e 1A       		.byte	0x1a
 13872 225f 48       		.byte	0x48
 13873 2260 24       		.byte	0x24
 13874 2261 F3       		.byte	0xf3
 13875 2262 01       		.uleb128 0x1
 13876 2263 51       		.byte	0x51
 13877 2264 23       		.byte	0x23
 13878 2265 05       		.uleb128 0x5
 13879 2266 94       		.byte	0x94
 13880 2267 01       		.byte	0x1
 13881 2268 08       		.byte	0x8
 13882 2269 FF       		.byte	0xff
 13883 226a 1A       		.byte	0x1a
 13884 226b 40       		.byte	0x40
 13885 226c 24       		.byte	0x24
 13886 226d 21       		.byte	0x21
 13887 226e F3       		.byte	0xf3
 13888 226f 01       		.uleb128 0x1
 13889 2270 51       		.byte	0x51
 13890 2271 23       		.byte	0x23
 13891 2272 06       		.uleb128 0x6
 13892 2273 94       		.byte	0x94
 13893 2274 01       		.byte	0x1
 13894 2275 08       		.byte	0x8
 13895 2276 FF       		.byte	0xff
 13896 2277 1A       		.byte	0x1a
 13897 2278 38       		.byte	0x38
 13898 2279 24       		.byte	0x24
 13899 227a 21       		.byte	0x21
 13900 227b F3       		.byte	0xf3
 13901 227c 01       		.uleb128 0x1
 13902 227d 51       		.byte	0x51
 13903 227e 23       		.byte	0x23
 13904 227f 07       		.uleb128 0x7
 13905 2280 94       		.byte	0x94
 13906 2281 01       		.byte	0x1
 13907 2282 08       		.byte	0x8
 13908 2283 FF       		.byte	0xff
 13909 2284 1A       		.byte	0x1a
 13910 2285 21       		.byte	0x21
 13911 2286 F3       		.byte	0xf3
 13912 2287 01       		.uleb128 0x1
 13913 2288 51       		.byte	0x51
 13914 2289 23       		.byte	0x23
 13915 228a 01       		.uleb128 0x1
 13916 228b 94       		.byte	0x94
 13917 228c 01       		.byte	0x1
 13918 228d 08       		.byte	0x8
 13919 228e FF       		.byte	0xff
ARM GAS  C:\Users\Phuong\AppData\Local\Temp\ccawWFGQ.s 			page 266


 13920 228f 1A       		.byte	0x1a
 13921 2290 40       		.byte	0x40
 13922 2291 24       		.byte	0x24
 13923 2292 F3       		.byte	0xf3
 13924 2293 01       		.uleb128 0x1
 13925 2294 51       		.byte	0x51
 13926 2295 94       		.byte	0x94
 13927 2296 01       		.byte	0x1
 13928 2297 08       		.byte	0x8
 13929 2298 FF       		.byte	0xff
 13930 2299 1A       		.byte	0x1a
 13931 229a 48       		.byte	0x48
 13932 229b 24       		.byte	0x24
 13933 229c 21       		.byte	0x21
 13934 229d F3       		.byte	0xf3
 13935 229e 01       		.uleb128 0x1
 13936 229f 51       		.byte	0x51
 13937 22a0 23       		.byte	0x23
 13938 22a1 02       		.uleb128 0x2
 13939 22a2 94       		.byte	0x94
 13940 22a3 01       		.byte	0x1
 13941 22a4 08       		.byte	0x8
 13942 22a5 FF       		.byte	0xff
 13943 22a6 1A       		.byte	0x1a
 13944 22a7 38       		.byte	0x38
 13945 22a8 24       		.byte	0x24
 13946 22a9 21       		.byte	0x21
 13947 22aa F3       		.byte	0xf3
 13948 22ab 01       		.uleb128 0x1
 13949 22ac 51       		.byte	0x51
 13950 22ad 23       		.byte	0x23
 13951 22ae 03       		.uleb128 0x3
 13952 22af 94       		.byte	0x94
 13953 22b0 01       		.byte	0x1
 13954 22b1 08       		.byte	0x8
 13955 22b2 FF       		.byte	0xff
 13956 22b3 1A       		.byte	0x1a
 13957 22b4 21       		.byte	0x21
 13958 22b5 34       		.byte	0x34
 13959 22b6 25       		.byte	0x25
 13960 22b7 27       		.byte	0x27
 13961 22b8 0C       		.byte	0xc
 13962 22b9 0F0F0F0F 		.4byte	0xf0f0f0f
 13963 22bd 1A       		.byte	0x1a
 13964 22be 34       		.byte	0x34
 13965 22bf 24       		.byte	0x24
 13966 22c0 27       		.byte	0x27
 13967 22c1 F3       		.byte	0xf3
 13968 22c2 01       		.uleb128 0x1
 13969 22c3 51       		.byte	0x51
 13970 22c4 23       		.byte	0x23
 13971 22c5 04       		.uleb128 0x4
 13972 22c6 94       		.byte	0x94
 13973 22c7 01       		.byte	0x1
 13974 22c8 08       		.byte	0x8
 13975 22c9 FF       		.byte	0xff
 13976 22ca 1A       		.byte	0x1a
ARM GAS  C:\Users\Phuong\AppData\Local\Temp\ccawWFGQ.s 			page 267


 13977 22cb 48       		.byte	0x48
 13978 22cc 24       		.byte	0x24
 13979 22cd F3       		.byte	0xf3
 13980 22ce 01       		.uleb128 0x1
 13981 22cf 51       		.byte	0x51
 13982 22d0 23       		.byte	0x23
 13983 22d1 05       		.uleb128 0x5
 13984 22d2 94       		.byte	0x94
 13985 22d3 01       		.byte	0x1
 13986 22d4 08       		.byte	0x8
 13987 22d5 FF       		.byte	0xff
 13988 22d6 1A       		.byte	0x1a
 13989 22d7 40       		.byte	0x40
 13990 22d8 24       		.byte	0x24
 13991 22d9 21       		.byte	0x21
 13992 22da F3       		.byte	0xf3
 13993 22db 01       		.uleb128 0x1
 13994 22dc 51       		.byte	0x51
 13995 22dd 23       		.byte	0x23
 13996 22de 06       		.uleb128 0x6
 13997 22df 94       		.byte	0x94
 13998 22e0 01       		.byte	0x1
 13999 22e1 08       		.byte	0x8
 14000 22e2 FF       		.byte	0xff
 14001 22e3 1A       		.byte	0x1a
 14002 22e4 38       		.byte	0x38
 14003 22e5 24       		.byte	0x24
 14004 22e6 21       		.byte	0x21
 14005 22e7 F3       		.byte	0xf3
 14006 22e8 01       		.uleb128 0x1
 14007 22e9 51       		.byte	0x51
 14008 22ea 23       		.byte	0x23
 14009 22eb 07       		.uleb128 0x7
 14010 22ec 94       		.byte	0x94
 14011 22ed 01       		.byte	0x1
 14012 22ee 08       		.byte	0x8
 14013 22ef FF       		.byte	0xff
 14014 22f0 1A       		.byte	0x1a
 14015 22f1 21       		.byte	0x21
 14016 22f2 F3       		.byte	0xf3
 14017 22f3 01       		.uleb128 0x1
 14018 22f4 51       		.byte	0x51
 14019 22f5 23       		.byte	0x23
 14020 22f6 04       		.uleb128 0x4
 14021 22f7 94       		.byte	0x94
 14022 22f8 01       		.byte	0x1
 14023 22f9 08       		.byte	0x8
 14024 22fa FF       		.byte	0xff
 14025 22fb 1A       		.byte	0x1a
 14026 22fc 48       		.byte	0x48
 14027 22fd 24       		.byte	0x24
 14028 22fe F3       		.byte	0xf3
 14029 22ff 01       		.uleb128 0x1
 14030 2300 51       		.byte	0x51
 14031 2301 23       		.byte	0x23
 14032 2302 05       		.uleb128 0x5
 14033 2303 94       		.byte	0x94
ARM GAS  C:\Users\Phuong\AppData\Local\Temp\ccawWFGQ.s 			page 268


 14034 2304 01       		.byte	0x1
 14035 2305 08       		.byte	0x8
 14036 2306 FF       		.byte	0xff
 14037 2307 1A       		.byte	0x1a
 14038 2308 40       		.byte	0x40
 14039 2309 24       		.byte	0x24
 14040 230a 21       		.byte	0x21
 14041 230b F3       		.byte	0xf3
 14042 230c 01       		.uleb128 0x1
 14043 230d 51       		.byte	0x51
 14044 230e 23       		.byte	0x23
 14045 230f 06       		.uleb128 0x6
 14046 2310 94       		.byte	0x94
 14047 2311 01       		.byte	0x1
 14048 2312 08       		.byte	0x8
 14049 2313 FF       		.byte	0xff
 14050 2314 1A       		.byte	0x1a
 14051 2315 38       		.byte	0x38
 14052 2316 24       		.byte	0x24
 14053 2317 21       		.byte	0x21
 14054 2318 F3       		.byte	0xf3
 14055 2319 01       		.uleb128 0x1
 14056 231a 51       		.byte	0x51
 14057 231b 23       		.byte	0x23
 14058 231c 07       		.uleb128 0x7
 14059 231d 94       		.byte	0x94
 14060 231e 01       		.byte	0x1
 14061 231f 08       		.byte	0x8
 14062 2320 FF       		.byte	0xff
 14063 2321 1A       		.byte	0x1a
 14064 2322 21       		.byte	0x21
 14065 2323 F3       		.byte	0xf3
 14066 2324 01       		.uleb128 0x1
 14067 2325 51       		.byte	0x51
 14068 2326 23       		.byte	0x23
 14069 2327 01       		.uleb128 0x1
 14070 2328 94       		.byte	0x94
 14071 2329 01       		.byte	0x1
 14072 232a 08       		.byte	0x8
 14073 232b FF       		.byte	0xff
 14074 232c 1A       		.byte	0x1a
 14075 232d 40       		.byte	0x40
 14076 232e 24       		.byte	0x24
 14077 232f F3       		.byte	0xf3
 14078 2330 01       		.uleb128 0x1
 14079 2331 51       		.byte	0x51
 14080 2332 94       		.byte	0x94
 14081 2333 01       		.byte	0x1
 14082 2334 08       		.byte	0x8
 14083 2335 FF       		.byte	0xff
 14084 2336 1A       		.byte	0x1a
 14085 2337 48       		.byte	0x48
 14086 2338 24       		.byte	0x24
 14087 2339 21       		.byte	0x21
 14088 233a F3       		.byte	0xf3
 14089 233b 01       		.uleb128 0x1
 14090 233c 51       		.byte	0x51
ARM GAS  C:\Users\Phuong\AppData\Local\Temp\ccawWFGQ.s 			page 269


 14091 233d 23       		.byte	0x23
 14092 233e 02       		.uleb128 0x2
 14093 233f 94       		.byte	0x94
 14094 2340 01       		.byte	0x1
 14095 2341 08       		.byte	0x8
 14096 2342 FF       		.byte	0xff
 14097 2343 1A       		.byte	0x1a
 14098 2344 38       		.byte	0x38
 14099 2345 24       		.byte	0x24
 14100 2346 21       		.byte	0x21
 14101 2347 F3       		.byte	0xf3
 14102 2348 01       		.uleb128 0x1
 14103 2349 51       		.byte	0x51
 14104 234a 23       		.byte	0x23
 14105 234b 03       		.uleb128 0x3
 14106 234c 94       		.byte	0x94
 14107 234d 01       		.byte	0x1
 14108 234e 08       		.byte	0x8
 14109 234f FF       		.byte	0xff
 14110 2350 1A       		.byte	0x1a
 14111 2351 21       		.byte	0x21
 14112 2352 34       		.byte	0x34
 14113 2353 25       		.byte	0x25
 14114 2354 27       		.byte	0x27
 14115 2355 0C       		.byte	0xc
 14116 2356 0F0F0F0F 		.4byte	0xf0f0f0f
 14117 235a 1A       		.byte	0x1a
 14118 235b 27       		.byte	0x27
 14119 235c F3       		.byte	0xf3
 14120 235d 01       		.uleb128 0x1
 14121 235e 51       		.byte	0x51
 14122 235f 23       		.byte	0x23
 14123 2360 01       		.uleb128 0x1
 14124 2361 94       		.byte	0x94
 14125 2362 01       		.byte	0x1
 14126 2363 08       		.byte	0x8
 14127 2364 FF       		.byte	0xff
 14128 2365 1A       		.byte	0x1a
 14129 2366 40       		.byte	0x40
 14130 2367 24       		.byte	0x24
 14131 2368 F3       		.byte	0xf3
 14132 2369 01       		.uleb128 0x1
 14133 236a 51       		.byte	0x51
 14134 236b 94       		.byte	0x94
 14135 236c 01       		.byte	0x1
 14136 236d 08       		.byte	0x8
 14137 236e FF       		.byte	0xff
 14138 236f 1A       		.byte	0x1a
 14139 2370 48       		.byte	0x48
 14140 2371 24       		.byte	0x24
 14141 2372 21       		.byte	0x21
 14142 2373 F3       		.byte	0xf3
 14143 2374 01       		.uleb128 0x1
 14144 2375 51       		.byte	0x51
 14145 2376 23       		.byte	0x23
 14146 2377 02       		.uleb128 0x2
 14147 2378 94       		.byte	0x94
ARM GAS  C:\Users\Phuong\AppData\Local\Temp\ccawWFGQ.s 			page 270


 14148 2379 01       		.byte	0x1
 14149 237a 08       		.byte	0x8
 14150 237b FF       		.byte	0xff
 14151 237c 1A       		.byte	0x1a
 14152 237d 38       		.byte	0x38
 14153 237e 24       		.byte	0x24
 14154 237f 21       		.byte	0x21
 14155 2380 F3       		.byte	0xf3
 14156 2381 01       		.uleb128 0x1
 14157 2382 51       		.byte	0x51
 14158 2383 23       		.byte	0x23
 14159 2384 03       		.uleb128 0x3
 14160 2385 94       		.byte	0x94
 14161 2386 01       		.byte	0x1
 14162 2387 08       		.byte	0x8
 14163 2388 FF       		.byte	0xff
 14164 2389 1A       		.byte	0x1a
 14165 238a 21       		.byte	0x21
 14166 238b F3       		.byte	0xf3
 14167 238c 01       		.uleb128 0x1
 14168 238d 51       		.byte	0x51
 14169 238e 23       		.byte	0x23
 14170 238f 04       		.uleb128 0x4
 14171 2390 94       		.byte	0x94
 14172 2391 01       		.byte	0x1
 14173 2392 08       		.byte	0x8
 14174 2393 FF       		.byte	0xff
 14175 2394 1A       		.byte	0x1a
 14176 2395 48       		.byte	0x48
 14177 2396 24       		.byte	0x24
 14178 2397 F3       		.byte	0xf3
 14179 2398 01       		.uleb128 0x1
 14180 2399 51       		.byte	0x51
 14181 239a 23       		.byte	0x23
 14182 239b 05       		.uleb128 0x5
 14183 239c 94       		.byte	0x94
 14184 239d 01       		.byte	0x1
 14185 239e 08       		.byte	0x8
 14186 239f FF       		.byte	0xff
 14187 23a0 1A       		.byte	0x1a
 14188 23a1 40       		.byte	0x40
 14189 23a2 24       		.byte	0x24
 14190 23a3 21       		.byte	0x21
 14191 23a4 F3       		.byte	0xf3
 14192 23a5 01       		.uleb128 0x1
 14193 23a6 51       		.byte	0x51
 14194 23a7 23       		.byte	0x23
 14195 23a8 06       		.uleb128 0x6
 14196 23a9 94       		.byte	0x94
 14197 23aa 01       		.byte	0x1
 14198 23ab 08       		.byte	0x8
 14199 23ac FF       		.byte	0xff
 14200 23ad 1A       		.byte	0x1a
 14201 23ae 38       		.byte	0x38
 14202 23af 24       		.byte	0x24
 14203 23b0 21       		.byte	0x21
 14204 23b1 F3       		.byte	0xf3
ARM GAS  C:\Users\Phuong\AppData\Local\Temp\ccawWFGQ.s 			page 271


 14205 23b2 01       		.uleb128 0x1
 14206 23b3 51       		.byte	0x51
 14207 23b4 23       		.byte	0x23
 14208 23b5 07       		.uleb128 0x7
 14209 23b6 94       		.byte	0x94
 14210 23b7 01       		.byte	0x1
 14211 23b8 08       		.byte	0x8
 14212 23b9 FF       		.byte	0xff
 14213 23ba 1A       		.byte	0x1a
 14214 23bb 21       		.byte	0x21
 14215 23bc F3       		.byte	0xf3
 14216 23bd 01       		.uleb128 0x1
 14217 23be 51       		.byte	0x51
 14218 23bf 23       		.byte	0x23
 14219 23c0 01       		.uleb128 0x1
 14220 23c1 94       		.byte	0x94
 14221 23c2 01       		.byte	0x1
 14222 23c3 08       		.byte	0x8
 14223 23c4 FF       		.byte	0xff
 14224 23c5 1A       		.byte	0x1a
 14225 23c6 40       		.byte	0x40
 14226 23c7 24       		.byte	0x24
 14227 23c8 F3       		.byte	0xf3
 14228 23c9 01       		.uleb128 0x1
 14229 23ca 51       		.byte	0x51
 14230 23cb 94       		.byte	0x94
 14231 23cc 01       		.byte	0x1
 14232 23cd 08       		.byte	0x8
 14233 23ce FF       		.byte	0xff
 14234 23cf 1A       		.byte	0x1a
 14235 23d0 48       		.byte	0x48
 14236 23d1 24       		.byte	0x24
 14237 23d2 21       		.byte	0x21
 14238 23d3 F3       		.byte	0xf3
 14239 23d4 01       		.uleb128 0x1
 14240 23d5 51       		.byte	0x51
 14241 23d6 23       		.byte	0x23
 14242 23d7 02       		.uleb128 0x2
 14243 23d8 94       		.byte	0x94
 14244 23d9 01       		.byte	0x1
 14245 23da 08       		.byte	0x8
 14246 23db FF       		.byte	0xff
 14247 23dc 1A       		.byte	0x1a
 14248 23dd 38       		.byte	0x38
 14249 23de 24       		.byte	0x24
 14250 23df 21       		.byte	0x21
 14251 23e0 F3       		.byte	0xf3
 14252 23e1 01       		.uleb128 0x1
 14253 23e2 51       		.byte	0x51
 14254 23e3 23       		.byte	0x23
 14255 23e4 03       		.uleb128 0x3
 14256 23e5 94       		.byte	0x94
 14257 23e6 01       		.byte	0x1
 14258 23e7 08       		.byte	0x8
 14259 23e8 FF       		.byte	0xff
 14260 23e9 1A       		.byte	0x1a
 14261 23ea 21       		.byte	0x21
ARM GAS  C:\Users\Phuong\AppData\Local\Temp\ccawWFGQ.s 			page 272


 14262 23eb 34       		.byte	0x34
 14263 23ec 25       		.byte	0x25
 14264 23ed 27       		.byte	0x27
 14265 23ee 0C       		.byte	0xc
 14266 23ef 0F0F0F0F 		.4byte	0xf0f0f0f
 14267 23f3 1A       		.byte	0x1a
 14268 23f4 34       		.byte	0x34
 14269 23f5 24       		.byte	0x24
 14270 23f6 27       		.byte	0x27
 14271 23f7 40       		.byte	0x40
 14272 23f8 25       		.byte	0x25
 14273 23f9 27       		.byte	0x27
 14274 23fa 40       		.byte	0x40
 14275 23fb 24       		.byte	0x24
 14276 23fc 40       		.byte	0x40
 14277 23fd 25       		.byte	0x25
 14278 23fe 40       		.byte	0x40
 14279 23ff 24       		.byte	0x24
 14280 2400 27       		.byte	0x27
 14281 2401 71       		.byte	0x71
 14282 2402 00       		.sleb128 0
 14283 2403 32       		.byte	0x32
 14284 2404 25       		.byte	0x25
 14285 2405 27       		.byte	0x27
 14286 2406 0C       		.byte	0xc
 14287 2407 33333333 		.4byte	0x33333333
 14288 240b 1A       		.byte	0x1a
 14289 240c 9F       		.byte	0x9f
 14290 240d 6E000000 		.4byte	.LVL236
 14291 2411 72000000 		.4byte	.LVL238
 14292 2415 0100     		.2byte	0x1
 14293 2417 54       		.byte	0x54
 14294 2418 80000000 		.4byte	.LVL241
 14295 241c 84000000 		.4byte	.LVL243
 14296 2420 0100     		.2byte	0x1
 14297 2422 52       		.byte	0x52
 14298 2423 84000000 		.4byte	.LVL243
 14299 2427 8E000000 		.4byte	.LVL245
 14300 242b 0A00     		.2byte	0xa
 14301 242d 71       		.byte	0x71
 14302 242e 00       		.sleb128 0
 14303 242f 11       		.byte	0x11
 14304 2430 AAD5AAD5 		.sleb128 -1431655766
 14304      7A
 14305 2435 1A       		.byte	0x1a
 14306 2436 9F       		.byte	0x9f
 14307 2437 94000000 		.4byte	.LVL247
 14308 243b C4000000 		.4byte	.LVL249
 14309 243f 0100     		.2byte	0x1
 14310 2441 52       		.byte	0x52
 14311 2442 C4000000 		.4byte	.LVL249
 14312 2446 DA000000 		.4byte	.LVL251
 14313 244a 0700     		.2byte	0x7
 14314 244c 75       		.byte	0x75
 14315 244d 00       		.sleb128 0
 14316 244e 06       		.byte	0x6
 14317 244f 71       		.byte	0x71
ARM GAS  C:\Users\Phuong\AppData\Local\Temp\ccawWFGQ.s 			page 273


 14318 2450 00       		.sleb128 0
 14319 2451 27       		.byte	0x27
 14320 2452 9F       		.byte	0x9f
 14321 2453 DA000000 		.4byte	.LVL251
 14322 2457 04010000 		.4byte	.LVL252
 14323 245b 0100     		.2byte	0x1
 14324 245d 52       		.byte	0x52
 14325 245e 04010000 		.4byte	.LVL252
 14326 2462 16010000 		.4byte	.LVL254
 14327 2466 1100     		.2byte	0x11
 14328 2468 71       		.byte	0x71
 14329 2469 00       		.sleb128 0
 14330 246a 34       		.byte	0x34
 14331 246b 14       		.byte	0x14
 14332 246c 14       		.byte	0x14
 14333 246d 1F       		.byte	0x1f
 14334 246e 23       		.byte	0x23
 14335 246f 20       		.uleb128 0x20
 14336 2470 24       		.byte	0x24
 14337 2471 17       		.byte	0x17
 14338 2472 25       		.byte	0x25
 14339 2473 21       		.byte	0x21
 14340 2474 75       		.byte	0x75
 14341 2475 04       		.sleb128 4
 14342 2476 06       		.byte	0x6
 14343 2477 27       		.byte	0x27
 14344 2478 9F       		.byte	0x9f
 14345 2479 16010000 		.4byte	.LVL254
 14346 247d 42010000 		.4byte	.LVL255
 14347 2481 0100     		.2byte	0x1
 14348 2483 52       		.byte	0x52
 14349 2484 42010000 		.4byte	.LVL255
 14350 2488 58010000 		.4byte	.LVL257
 14351 248c 0700     		.2byte	0x7
 14352 248e 75       		.byte	0x75
 14353 248f 08       		.sleb128 8
 14354 2490 06       		.byte	0x6
 14355 2491 74       		.byte	0x74
 14356 2492 00       		.sleb128 0
 14357 2493 27       		.byte	0x27
 14358 2494 9F       		.byte	0x9f
 14359 2495 58010000 		.4byte	.LVL257
 14360 2499 80010000 		.4byte	.LVL258
 14361 249d 0100     		.2byte	0x1
 14362 249f 52       		.byte	0x52
 14363 24a0 80010000 		.4byte	.LVL258
 14364 24a4 94010000 		.4byte	.LVL261
 14365 24a8 1100     		.2byte	0x11
 14366 24aa 74       		.byte	0x74
 14367 24ab 00       		.sleb128 0
 14368 24ac 34       		.byte	0x34
 14369 24ad 14       		.byte	0x14
 14370 24ae 14       		.byte	0x14
 14371 24af 1F       		.byte	0x1f
 14372 24b0 23       		.byte	0x23
 14373 24b1 20       		.uleb128 0x20
 14374 24b2 24       		.byte	0x24
ARM GAS  C:\Users\Phuong\AppData\Local\Temp\ccawWFGQ.s 			page 274


 14375 24b3 17       		.byte	0x17
 14376 24b4 25       		.byte	0x25
 14377 24b5 21       		.byte	0x21
 14378 24b6 75       		.byte	0x75
 14379 24b7 0C       		.sleb128 12
 14380 24b8 06       		.byte	0x6
 14381 24b9 27       		.byte	0x27
 14382 24ba 9F       		.byte	0x9f
 14383 24bb A8010000 		.4byte	.LVL264
 14384 24bf D4010000 		.4byte	.LVL266
 14385 24c3 0100     		.2byte	0x1
 14386 24c5 52       		.byte	0x52
 14387 24c6 D4010000 		.4byte	.LVL266
 14388 24ca EC010000 		.4byte	.LVL268
 14389 24ce 0700     		.2byte	0x7
 14390 24d0 75       		.byte	0x75
 14391 24d1 00       		.sleb128 0
 14392 24d2 06       		.byte	0x6
 14393 24d3 74       		.byte	0x74
 14394 24d4 00       		.sleb128 0
 14395 24d5 27       		.byte	0x27
 14396 24d6 9F       		.byte	0x9f
 14397 24d7 EC010000 		.4byte	.LVL268
 14398 24db 14020000 		.4byte	.LVL269
 14399 24df 0100     		.2byte	0x1
 14400 24e1 52       		.byte	0x52
 14401 24e2 14020000 		.4byte	.LVL269
 14402 24e6 26020000 		.4byte	.LVL271
 14403 24ea 1100     		.2byte	0x11
 14404 24ec 74       		.byte	0x74
 14405 24ed 00       		.sleb128 0
 14406 24ee 34       		.byte	0x34
 14407 24ef 14       		.byte	0x14
 14408 24f0 14       		.byte	0x14
 14409 24f1 1F       		.byte	0x1f
 14410 24f2 23       		.byte	0x23
 14411 24f3 20       		.uleb128 0x20
 14412 24f4 24       		.byte	0x24
 14413 24f5 17       		.byte	0x17
 14414 24f6 25       		.byte	0x25
 14415 24f7 21       		.byte	0x21
 14416 24f8 75       		.byte	0x75
 14417 24f9 04       		.sleb128 4
 14418 24fa 06       		.byte	0x6
 14419 24fb 27       		.byte	0x27
 14420 24fc 9F       		.byte	0x9f
 14421 24fd 26020000 		.4byte	.LVL271
 14422 2501 52020000 		.4byte	.LVL272
 14423 2505 0100     		.2byte	0x1
 14424 2507 52       		.byte	0x52
 14425 2508 52020000 		.4byte	.LVL272
 14426 250c 68020000 		.4byte	.LVL274
 14427 2510 0700     		.2byte	0x7
 14428 2512 75       		.byte	0x75
 14429 2513 08       		.sleb128 8
 14430 2514 06       		.byte	0x6
 14431 2515 70       		.byte	0x70
ARM GAS  C:\Users\Phuong\AppData\Local\Temp\ccawWFGQ.s 			page 275


 14432 2516 00       		.sleb128 0
 14433 2517 27       		.byte	0x27
 14434 2518 9F       		.byte	0x9f
 14435 2519 68020000 		.4byte	.LVL274
 14436 251d 8A020000 		.4byte	.LVL275
 14437 2521 0100     		.2byte	0x1
 14438 2523 52       		.byte	0x52
 14439 2524 8A020000 		.4byte	.LVL275
 14440 2528 A2020000 		.4byte	.LVL279
 14441 252c 1100     		.2byte	0x11
 14442 252e 70       		.byte	0x70
 14443 252f 00       		.sleb128 0
 14444 2530 34       		.byte	0x34
 14445 2531 14       		.byte	0x14
 14446 2532 14       		.byte	0x14
 14447 2533 1F       		.byte	0x1f
 14448 2534 23       		.byte	0x23
 14449 2535 20       		.uleb128 0x20
 14450 2536 24       		.byte	0x24
 14451 2537 17       		.byte	0x17
 14452 2538 25       		.byte	0x25
 14453 2539 21       		.byte	0x21
 14454 253a 75       		.byte	0x75
 14455 253b 0C       		.sleb128 12
 14456 253c 06       		.byte	0x6
 14457 253d 27       		.byte	0x27
 14458 253e 9F       		.byte	0x9f
 14459 253f E8020000 		.4byte	.LVL282
 14460 2543 18030000 		.4byte	.LVL284
 14461 2547 0100     		.2byte	0x1
 14462 2549 52       		.byte	0x52
 14463 254a 18030000 		.4byte	.LVL284
 14464 254e 2E030000 		.4byte	.LVL286
 14465 2552 0700     		.2byte	0x7
 14466 2554 75       		.byte	0x75
 14467 2555 00       		.sleb128 0
 14468 2556 06       		.byte	0x6
 14469 2557 71       		.byte	0x71
 14470 2558 00       		.sleb128 0
 14471 2559 27       		.byte	0x27
 14472 255a 9F       		.byte	0x9f
 14473 255b 2E030000 		.4byte	.LVL286
 14474 255f 58030000 		.4byte	.LVL287
 14475 2563 0100     		.2byte	0x1
 14476 2565 52       		.byte	0x52
 14477 2566 58030000 		.4byte	.LVL287
 14478 256a 6A030000 		.4byte	.LVL289
 14479 256e 1100     		.2byte	0x11
 14480 2570 71       		.byte	0x71
 14481 2571 00       		.sleb128 0
 14482 2572 34       		.byte	0x34
 14483 2573 14       		.byte	0x14
 14484 2574 14       		.byte	0x14
 14485 2575 1F       		.byte	0x1f
 14486 2576 23       		.byte	0x23
 14487 2577 20       		.uleb128 0x20
 14488 2578 24       		.byte	0x24
ARM GAS  C:\Users\Phuong\AppData\Local\Temp\ccawWFGQ.s 			page 276


 14489 2579 17       		.byte	0x17
 14490 257a 25       		.byte	0x25
 14491 257b 21       		.byte	0x21
 14492 257c 75       		.byte	0x75
 14493 257d 04       		.sleb128 4
 14494 257e 06       		.byte	0x6
 14495 257f 27       		.byte	0x27
 14496 2580 9F       		.byte	0x9f
 14497 2581 6A030000 		.4byte	.LVL289
 14498 2585 96030000 		.4byte	.LVL290
 14499 2589 0100     		.2byte	0x1
 14500 258b 52       		.byte	0x52
 14501 258c 96030000 		.4byte	.LVL290
 14502 2590 AC030000 		.4byte	.LVL292
 14503 2594 0700     		.2byte	0x7
 14504 2596 75       		.byte	0x75
 14505 2597 08       		.sleb128 8
 14506 2598 06       		.byte	0x6
 14507 2599 74       		.byte	0x74
 14508 259a 00       		.sleb128 0
 14509 259b 27       		.byte	0x27
 14510 259c 9F       		.byte	0x9f
 14511 259d AC030000 		.4byte	.LVL292
 14512 25a1 D4030000 		.4byte	.LVL293
 14513 25a5 0100     		.2byte	0x1
 14514 25a7 52       		.byte	0x52
 14515 25a8 D4030000 		.4byte	.LVL293
 14516 25ac E8030000 		.4byte	.LVL296
 14517 25b0 1100     		.2byte	0x11
 14518 25b2 74       		.byte	0x74
 14519 25b3 00       		.sleb128 0
 14520 25b4 34       		.byte	0x34
 14521 25b5 14       		.byte	0x14
 14522 25b6 14       		.byte	0x14
 14523 25b7 1F       		.byte	0x1f
 14524 25b8 23       		.byte	0x23
 14525 25b9 20       		.uleb128 0x20
 14526 25ba 24       		.byte	0x24
 14527 25bb 17       		.byte	0x17
 14528 25bc 25       		.byte	0x25
 14529 25bd 21       		.byte	0x21
 14530 25be 75       		.byte	0x75
 14531 25bf 0C       		.sleb128 12
 14532 25c0 06       		.byte	0x6
 14533 25c1 27       		.byte	0x27
 14534 25c2 9F       		.byte	0x9f
 14535 25c3 00040000 		.4byte	.LVL299
 14536 25c7 08040000 		.4byte	.LVL301
 14537 25cb 0100     		.2byte	0x1
 14538 25cd 51       		.byte	0x51
 14539 25ce 12040000 		.4byte	.LVL304
 14540 25d2 16040000 		.4byte	.LVL306
 14541 25d6 0100     		.2byte	0x1
 14542 25d8 54       		.byte	0x54
 14543 25d9 20040000 		.4byte	.LVL308
 14544 25dd 24040000 		.4byte	.LVL310
 14545 25e1 0100     		.2byte	0x1
ARM GAS  C:\Users\Phuong\AppData\Local\Temp\ccawWFGQ.s 			page 277


 14546 25e3 54       		.byte	0x54
 14547 25e4 2E040000 		.4byte	.LVL312
 14548 25e8 32040000 		.4byte	.LVL314
 14549 25ec 0100     		.2byte	0x1
 14550 25ee 52       		.byte	0x52
 14551 25ef 3C040000 		.4byte	.LVL316
 14552 25f3 40040000 		.4byte	.LVL318
 14553 25f7 0100     		.2byte	0x1
 14554 25f9 52       		.byte	0x52
 14555 25fa 00000000 		.4byte	0
 14556 25fe 00000000 		.4byte	0
 14557              	.LLST60:
 14558 2602 12000000 		.4byte	.LVL214
 14559 2606 16000000 		.4byte	.LVL215
 14560 260a 0100     		.2byte	0x1
 14561 260c 50       		.byte	0x50
 14562 260d 16000000 		.4byte	.LVL215
 14563 2611 90000000 		.4byte	.LVL246
 14564 2615 0100     		.2byte	0x1
 14565 2617 55       		.byte	0x55
 14566 2618 90000000 		.4byte	.LVL246
 14567 261c D0000000 		.4byte	.LVL250
 14568 2620 0300     		.2byte	0x3
 14569 2622 75       		.byte	0x75
 14570 2623 04       		.sleb128 4
 14571 2624 9F       		.byte	0x9f
 14572 2625 D0000000 		.4byte	.LVL250
 14573 2629 12010000 		.4byte	.LVL253
 14574 262d 0300     		.2byte	0x3
 14575 262f 75       		.byte	0x75
 14576 2630 08       		.sleb128 8
 14577 2631 9F       		.byte	0x9f
 14578 2632 12010000 		.4byte	.LVL253
 14579 2636 4E010000 		.4byte	.LVL256
 14580 263a 0300     		.2byte	0x3
 14581 263c 75       		.byte	0x75
 14582 263d 0C       		.sleb128 12
 14583 263e 9F       		.byte	0x9f
 14584 263f 4E010000 		.4byte	.LVL256
 14585 2643 94010000 		.4byte	.LVL261
 14586 2647 0300     		.2byte	0x3
 14587 2649 75       		.byte	0x75
 14588 264a 10       		.sleb128 16
 14589 264b 9F       		.byte	0x9f
 14590 264c 94010000 		.4byte	.LVL261
 14591 2650 A4010000 		.4byte	.LVL263
 14592 2654 0100     		.2byte	0x1
 14593 2656 55       		.byte	0x55
 14594 2657 A4010000 		.4byte	.LVL263
 14595 265b E2010000 		.4byte	.LVL267
 14596 265f 0300     		.2byte	0x3
 14597 2661 75       		.byte	0x75
 14598 2662 04       		.sleb128 4
 14599 2663 9F       		.byte	0x9f
 14600 2664 E2010000 		.4byte	.LVL267
 14601 2668 22020000 		.4byte	.LVL270
 14602 266c 0300     		.2byte	0x3
ARM GAS  C:\Users\Phuong\AppData\Local\Temp\ccawWFGQ.s 			page 278


 14603 266e 75       		.byte	0x75
 14604 266f 08       		.sleb128 8
 14605 2670 9F       		.byte	0x9f
 14606 2671 22020000 		.4byte	.LVL270
 14607 2675 5E020000 		.4byte	.LVL273
 14608 2679 0300     		.2byte	0x3
 14609 267b 75       		.byte	0x75
 14610 267c 0C       		.sleb128 12
 14611 267d 9F       		.byte	0x9f
 14612 267e 5E020000 		.4byte	.LVL273
 14613 2682 A2020000 		.4byte	.LVL279
 14614 2686 0300     		.2byte	0x3
 14615 2688 75       		.byte	0x75
 14616 2689 10       		.sleb128 16
 14617 268a 9F       		.byte	0x9f
 14618 268b A2020000 		.4byte	.LVL279
 14619 268f E4020000 		.4byte	.LVL281
 14620 2693 0100     		.2byte	0x1
 14621 2695 55       		.byte	0x55
 14622 2696 E4020000 		.4byte	.LVL281
 14623 269a 24030000 		.4byte	.LVL285
 14624 269e 0300     		.2byte	0x3
 14625 26a0 75       		.byte	0x75
 14626 26a1 04       		.sleb128 4
 14627 26a2 9F       		.byte	0x9f
 14628 26a3 24030000 		.4byte	.LVL285
 14629 26a7 66030000 		.4byte	.LVL288
 14630 26ab 0300     		.2byte	0x3
 14631 26ad 75       		.byte	0x75
 14632 26ae 08       		.sleb128 8
 14633 26af 9F       		.byte	0x9f
 14634 26b0 66030000 		.4byte	.LVL288
 14635 26b4 A2030000 		.4byte	.LVL291
 14636 26b8 0300     		.2byte	0x3
 14637 26ba 75       		.byte	0x75
 14638 26bb 0C       		.sleb128 12
 14639 26bc 9F       		.byte	0x9f
 14640 26bd A2030000 		.4byte	.LVL291
 14641 26c1 E8030000 		.4byte	.LVL296
 14642 26c5 0300     		.2byte	0x3
 14643 26c7 75       		.byte	0x75
 14644 26c8 10       		.sleb128 16
 14645 26c9 9F       		.byte	0x9f
 14646 26ca E8030000 		.4byte	.LVL296
 14647 26ce 10040000 		.4byte	.LVL303
 14648 26d2 0100     		.2byte	0x1
 14649 26d4 55       		.byte	0x55
 14650 26d5 00000000 		.4byte	0
 14651 26d9 00000000 		.4byte	0
 14652              	.LLST61:
 14653 26dd 00000000 		.4byte	.LVL322
 14654 26e1 18000000 		.4byte	.LVL324
 14655 26e5 0100     		.2byte	0x1
 14656 26e7 50       		.byte	0x50
 14657 26e8 18000000 		.4byte	.LVL324
 14658 26ec 8C000000 		.4byte	.LVL341
 14659 26f0 0200     		.2byte	0x2
ARM GAS  C:\Users\Phuong\AppData\Local\Temp\ccawWFGQ.s 			page 279


 14660 26f2 91       		.byte	0x91
 14661 26f3 5C       		.sleb128 -36
 14662 26f4 8C000000 		.4byte	.LVL341
 14663 26f8 8E000000 		.4byte	.LVL342
 14664 26fc 0100     		.2byte	0x1
 14665 26fe 50       		.byte	0x50
 14666 26ff 8E000000 		.4byte	.LVL342
 14667 2703 94000000 		.4byte	.LFE20
 14668 2707 0200     		.2byte	0x2
 14669 2709 91       		.byte	0x91
 14670 270a 5C       		.sleb128 -36
 14671 270b 00000000 		.4byte	0
 14672 270f 00000000 		.4byte	0
 14673              	.LLST62:
 14674 2713 00000000 		.4byte	.LVL322
 14675 2717 18000000 		.4byte	.LVL324
 14676 271b 0100     		.2byte	0x1
 14677 271d 51       		.byte	0x51
 14678 271e 18000000 		.4byte	.LVL324
 14679 2722 8C000000 		.4byte	.LVL341
 14680 2726 0400     		.2byte	0x4
 14681 2728 F3       		.byte	0xf3
 14682 2729 01       		.uleb128 0x1
 14683 272a 51       		.byte	0x51
 14684 272b 9F       		.byte	0x9f
 14685 272c 8C000000 		.4byte	.LVL341
 14686 2730 90000000 		.4byte	.LVL343
 14687 2734 0100     		.2byte	0x1
 14688 2736 51       		.byte	0x51
 14689 2737 90000000 		.4byte	.LVL343
 14690 273b 94000000 		.4byte	.LFE20
 14691 273f 0400     		.2byte	0x4
 14692 2741 F3       		.byte	0xf3
 14693 2742 01       		.uleb128 0x1
 14694 2743 51       		.byte	0x51
 14695 2744 9F       		.byte	0x9f
 14696 2745 00000000 		.4byte	0
 14697 2749 00000000 		.4byte	0
 14698              	.LLST63:
 14699 274d 00000000 		.4byte	.LVL322
 14700 2751 18000000 		.4byte	.LVL324
 14701 2755 0100     		.2byte	0x1
 14702 2757 52       		.byte	0x52
 14703 2758 18000000 		.4byte	.LVL324
 14704 275c 8C000000 		.4byte	.LVL341
 14705 2760 0100     		.2byte	0x1
 14706 2762 54       		.byte	0x54
 14707 2763 8C000000 		.4byte	.LVL341
 14708 2767 90000000 		.4byte	.LVL343
 14709 276b 0100     		.2byte	0x1
 14710 276d 52       		.byte	0x52
 14711 276e 90000000 		.4byte	.LVL343
 14712 2772 92000000 		.4byte	.LVL344
 14713 2776 0100     		.2byte	0x1
 14714 2778 54       		.byte	0x54
 14715 2779 00000000 		.4byte	0
 14716 277d 00000000 		.4byte	0
ARM GAS  C:\Users\Phuong\AppData\Local\Temp\ccawWFGQ.s 			page 280


 14717              	.LLST64:
 14718 2781 00000000 		.4byte	.LVL322
 14719 2785 12000000 		.4byte	.LVL323
 14720 2789 0100     		.2byte	0x1
 14721 278b 53       		.byte	0x53
 14722 278c 12000000 		.4byte	.LVL323
 14723 2790 92000000 		.4byte	.LVL345
 14724 2794 0100     		.2byte	0x1
 14725 2796 56       		.byte	0x56
 14726 2797 92000000 		.4byte	.LVL345
 14727 279b 94000000 		.4byte	.LFE20
 14728 279f 0400     		.2byte	0x4
 14729 27a1 F3       		.byte	0xf3
 14730 27a2 01       		.uleb128 0x1
 14731 27a3 53       		.byte	0x53
 14732 27a4 9F       		.byte	0x9f
 14733 27a5 00000000 		.4byte	0
 14734 27a9 00000000 		.4byte	0
 14735              	.LLST65:
 14736 27ad 00000000 		.4byte	.LVL322
 14737 27b1 18000000 		.4byte	.LVL324
 14738 27b5 0200     		.2byte	0x2
 14739 27b7 91       		.byte	0x91
 14740 27b8 00       		.sleb128 0
 14741 27b9 18000000 		.4byte	.LVL324
 14742 27bd 64000000 		.4byte	.LVL335
 14743 27c1 0100     		.2byte	0x1
 14744 27c3 57       		.byte	0x57
 14745 27c4 80000000 		.4byte	.LVL338
 14746 27c8 8C000000 		.4byte	.LVL341
 14747 27cc 0100     		.2byte	0x1
 14748 27ce 57       		.byte	0x57
 14749 27cf 8C000000 		.4byte	.LVL341
 14750 27d3 90000000 		.4byte	.LVL343
 14751 27d7 0200     		.2byte	0x2
 14752 27d9 91       		.byte	0x91
 14753 27da 00       		.sleb128 0
 14754 27db 00000000 		.4byte	0
 14755 27df 00000000 		.4byte	0
 14756              	.LLST66:
 14757 27e3 00000000 		.4byte	.LVL322
 14758 27e7 18000000 		.4byte	.LVL324
 14759 27eb 0200     		.2byte	0x2
 14760 27ed 91       		.byte	0x91
 14761 27ee 04       		.sleb128 4
 14762 27ef 18000000 		.4byte	.LVL324
 14763 27f3 64000000 		.4byte	.LVL335
 14764 27f7 0100     		.2byte	0x1
 14765 27f9 55       		.byte	0x55
 14766 27fa 82000000 		.4byte	.LVL339
 14767 27fe 8C000000 		.4byte	.LVL341
 14768 2802 0100     		.2byte	0x1
 14769 2804 55       		.byte	0x55
 14770 2805 8C000000 		.4byte	.LVL341
 14771 2809 90000000 		.4byte	.LVL343
 14772 280d 0200     		.2byte	0x2
 14773 280f 91       		.byte	0x91
ARM GAS  C:\Users\Phuong\AppData\Local\Temp\ccawWFGQ.s 			page 281


 14774 2810 04       		.sleb128 4
 14775 2811 00000000 		.4byte	0
 14776 2815 00000000 		.4byte	0
 14777              	.LLST67:
 14778 2819 18000000 		.4byte	.LVL324
 14779 281d 24000000 		.4byte	.LVL326
 14780 2821 0100     		.2byte	0x1
 14781 2823 53       		.byte	0x53
 14782 2824 26000000 		.4byte	.LVL327
 14783 2828 33000000 		.4byte	.LVL328-1
 14784 282c 0100     		.2byte	0x1
 14785 282e 53       		.byte	0x53
 14786 282f 60000000 		.4byte	.LVL334
 14787 2833 64000000 		.4byte	.LVL335
 14788 2837 0200     		.2byte	0x2
 14789 2839 30       		.byte	0x30
 14790 283a 9F       		.byte	0x9f
 14791 283b 64000000 		.4byte	.LVL335
 14792 283f 7D000000 		.4byte	.LVL337-1
 14793 2843 0100     		.2byte	0x1
 14794 2845 53       		.byte	0x53
 14795 2846 00000000 		.4byte	0
 14796 284a 00000000 		.4byte	0
 14797              	.LLST68:
 14798 284e 00000000 		.4byte	.LVL346
 14799 2852 0E000000 		.4byte	.LVL348
 14800 2856 0100     		.2byte	0x1
 14801 2858 50       		.byte	0x50
 14802 2859 0E000000 		.4byte	.LVL348
 14803 285d F8020000 		.4byte	.LVL430
 14804 2861 0100     		.2byte	0x1
 14805 2863 56       		.byte	0x56
 14806 2864 F8020000 		.4byte	.LVL430
 14807 2868 2C030000 		.4byte	.LFE21
 14808 286c 0400     		.2byte	0x4
 14809 286e F3       		.byte	0xf3
 14810 286f 01       		.uleb128 0x1
 14811 2870 50       		.byte	0x50
 14812 2871 9F       		.byte	0x9f
 14813 2872 00000000 		.4byte	0
 14814 2876 00000000 		.4byte	0
 14815              	.LLST69:
 14816 287a 18000000 		.4byte	.LVL350
 14817 287e 1C000000 		.4byte	.LVL351
 14818 2882 0200     		.2byte	0x2
 14819 2884 30       		.byte	0x30
 14820 2885 9F       		.byte	0x9f
 14821 2886 1C000000 		.4byte	.LVL351
 14822 288a 34010000 		.4byte	.LVL382
 14823 288e 0100     		.2byte	0x1
 14824 2890 57       		.byte	0x57
 14825 2891 34010000 		.4byte	.LVL382
 14826 2895 36010000 		.4byte	.LVL383
 14827 2899 0100     		.2byte	0x1
 14828 289b 53       		.byte	0x53
 14829 289c 36010000 		.4byte	.LVL383
 14830 28a0 40010000 		.4byte	.LVL386
ARM GAS  C:\Users\Phuong\AppData\Local\Temp\ccawWFGQ.s 			page 282


 14831 28a4 0100     		.2byte	0x1
 14832 28a6 58       		.byte	0x58
 14833 28a7 40010000 		.4byte	.LVL386
 14834 28ab 4E010000 		.4byte	.LVL387
 14835 28af 0100     		.2byte	0x1
 14836 28b1 53       		.byte	0x53
 14837 28b2 4E010000 		.4byte	.LVL387
 14838 28b6 86010000 		.4byte	.LVL389
 14839 28ba 0100     		.2byte	0x1
 14840 28bc 58       		.byte	0x58
 14841 28bd 86010000 		.4byte	.LVL389
 14842 28c1 88010000 		.4byte	.LVL390
 14843 28c5 0100     		.2byte	0x1
 14844 28c7 53       		.byte	0x53
 14845 28c8 88010000 		.4byte	.LVL390
 14846 28cc D2020000 		.4byte	.LVL419
 14847 28d0 0100     		.2byte	0x1
 14848 28d2 58       		.byte	0x58
 14849 28d3 D2020000 		.4byte	.LVL419
 14850 28d7 D6020000 		.4byte	.LVL421
 14851 28db 0100     		.2byte	0x1
 14852 28dd 57       		.byte	0x57
 14853 28de D6020000 		.4byte	.LVL421
 14854 28e2 DA020000 		.4byte	.LVL423
 14855 28e6 0100     		.2byte	0x1
 14856 28e8 58       		.byte	0x58
 14857 28e9 DA020000 		.4byte	.LVL423
 14858 28ed DC020000 		.4byte	.LVL424
 14859 28f1 0100     		.2byte	0x1
 14860 28f3 53       		.byte	0x53
 14861 28f4 EC020000 		.4byte	.LVL427
 14862 28f8 F0020000 		.4byte	.LVL428
 14863 28fc 0100     		.2byte	0x1
 14864 28fe 57       		.byte	0x57
 14865 28ff F0020000 		.4byte	.LVL428
 14866 2903 F2020000 		.4byte	.LVL429
 14867 2907 0100     		.2byte	0x1
 14868 2909 53       		.byte	0x53
 14869 290a 00000000 		.4byte	0
 14870 290e 00000000 		.4byte	0
 14871              	.LLST70:
 14872 2912 AC000000 		.4byte	.LVL366
 14873 2916 10010000 		.4byte	.LVL377
 14874 291a 0100     		.2byte	0x1
 14875 291c 54       		.byte	0x54
 14876 291d 12010000 		.4byte	.LVL378
 14877 2921 1E010000 		.4byte	.LVL380
 14878 2925 0100     		.2byte	0x1
 14879 2927 54       		.byte	0x54
 14880 2928 DC010000 		.4byte	.LVL397
 14881 292c 0A020000 		.4byte	.LVL401
 14882 2930 0100     		.2byte	0x1
 14883 2932 54       		.byte	0x54
 14884 2933 0C020000 		.4byte	.LVL402
 14885 2937 AA020000 		.4byte	.LVL414
 14886 293b 0100     		.2byte	0x1
 14887 293d 54       		.byte	0x54
ARM GAS  C:\Users\Phuong\AppData\Local\Temp\ccawWFGQ.s 			page 283


 14888 293e AC020000 		.4byte	.LVL415
 14889 2942 BC020000 		.4byte	.LVL417
 14890 2946 0100     		.2byte	0x1
 14891 2948 54       		.byte	0x54
 14892 2949 D2020000 		.4byte	.LVL419
 14893 294d D4020000 		.4byte	.LVL420
 14894 2951 0100     		.2byte	0x1
 14895 2953 54       		.byte	0x54
 14896 2954 D6020000 		.4byte	.LVL421
 14897 2958 D8020000 		.4byte	.LVL422
 14898 295c 0100     		.2byte	0x1
 14899 295e 54       		.byte	0x54
 14900 295f 00000000 		.4byte	0
 14901 2963 00000000 		.4byte	0
 14902              	.LLST71:
 14903 2967 1E000000 		.4byte	.LVL352
 14904 296b F0000000 		.4byte	.LVL374
 14905 296f 0100     		.2byte	0x1
 14906 2971 55       		.byte	0x55
 14907 2972 F0000000 		.4byte	.LVL374
 14908 2976 1E010000 		.4byte	.LVL380
 14909 297a 0500     		.2byte	0x5
 14910 297c 77       		.byte	0x77
 14911 297d 00       		.sleb128 0
 14912 297e 31       		.byte	0x31
 14913 297f 26       		.byte	0x26
 14914 2980 9F       		.byte	0x9f
 14915 2981 38010000 		.4byte	.LVL384
 14916 2985 8C020000 		.4byte	.LVL411
 14917 2989 0100     		.2byte	0x1
 14918 298b 57       		.byte	0x57
 14919 298c 8C020000 		.4byte	.LVL411
 14920 2990 BC020000 		.4byte	.LVL417
 14921 2994 0500     		.2byte	0x5
 14922 2996 78       		.byte	0x78
 14923 2997 00       		.sleb128 0
 14924 2998 31       		.byte	0x31
 14925 2999 26       		.byte	0x26
 14926 299a 9F       		.byte	0x9f
 14927 299b D2020000 		.4byte	.LVL419
 14928 299f D6020000 		.4byte	.LVL421
 14929 29a3 0500     		.2byte	0x5
 14930 29a5 77       		.byte	0x77
 14931 29a6 00       		.sleb128 0
 14932 29a7 31       		.byte	0x31
 14933 29a8 26       		.byte	0x26
 14934 29a9 9F       		.byte	0x9f
 14935 29aa D6020000 		.4byte	.LVL421
 14936 29ae DA020000 		.4byte	.LVL423
 14937 29b2 0500     		.2byte	0x5
 14938 29b4 78       		.byte	0x78
 14939 29b5 00       		.sleb128 0
 14940 29b6 31       		.byte	0x31
 14941 29b7 26       		.byte	0x26
 14942 29b8 9F       		.byte	0x9f
 14943 29b9 EC020000 		.4byte	.LVL427
 14944 29bd F0020000 		.4byte	.LVL428
ARM GAS  C:\Users\Phuong\AppData\Local\Temp\ccawWFGQ.s 			page 284


 14945 29c1 0100     		.2byte	0x1
 14946 29c3 55       		.byte	0x55
 14947 29c4 F0020000 		.4byte	.LVL428
 14948 29c8 F2020000 		.4byte	.LVL429
 14949 29cc 0100     		.2byte	0x1
 14950 29ce 57       		.byte	0x57
 14951 29cf 00000000 		.4byte	0
 14952 29d3 00000000 		.4byte	0
 14953              	.LLST72:
 14954 29d7 24000000 		.4byte	.LVL353
 14955 29db 36000000 		.4byte	.LVL354
 14956 29df 0100     		.2byte	0x1
 14957 29e1 53       		.byte	0x53
 14958 29e2 36000000 		.4byte	.LVL354
 14959 29e6 40000000 		.4byte	.LVL355
 14960 29ea 0100     		.2byte	0x1
 14961 29ec 58       		.byte	0x58
 14962 29ed 40000000 		.4byte	.LVL355
 14963 29f1 42000000 		.4byte	.LVL356
 14964 29f5 0100     		.2byte	0x1
 14965 29f7 53       		.byte	0x53
 14966 29f8 42000000 		.4byte	.LVL356
 14967 29fc 44000000 		.4byte	.LVL357
 14968 2a00 0100     		.2byte	0x1
 14969 2a02 58       		.byte	0x58
 14970 2a03 44000000 		.4byte	.LVL357
 14971 2a07 46000000 		.4byte	.LVL358
 14972 2a0b 0100     		.2byte	0x1
 14973 2a0d 53       		.byte	0x53
 14974 2a0e 46000000 		.4byte	.LVL358
 14975 2a12 D4000000 		.4byte	.LVL370
 14976 2a16 0100     		.2byte	0x1
 14977 2a18 58       		.byte	0x58
 14978 2a19 D4000000 		.4byte	.LVL370
 14979 2a1d D6000000 		.4byte	.LVL371
 14980 2a21 0100     		.2byte	0x1
 14981 2a23 53       		.byte	0x53
 14982 2a24 D6000000 		.4byte	.LVL371
 14983 2a28 EE000000 		.4byte	.LVL373
 14984 2a2c 0100     		.2byte	0x1
 14985 2a2e 58       		.byte	0x58
 14986 2a2f EE000000 		.4byte	.LVL373
 14987 2a33 FD000000 		.4byte	.LVL375-1
 14988 2a37 0100     		.2byte	0x1
 14989 2a39 53       		.byte	0x53
 14990 2a3a FD000000 		.4byte	.LVL375-1
 14991 2a3e 1E010000 		.4byte	.LVL380
 14992 2a42 0100     		.2byte	0x1
 14993 2a44 58       		.byte	0x58
 14994 2a45 3C010000 		.4byte	.LVL385
 14995 2a49 BC020000 		.4byte	.LVL417
 14996 2a4d 0100     		.2byte	0x1
 14997 2a4f 55       		.byte	0x55
 14998 2a50 D2020000 		.4byte	.LVL419
 14999 2a54 D6020000 		.4byte	.LVL421
 15000 2a58 0100     		.2byte	0x1
 15001 2a5a 58       		.byte	0x58
ARM GAS  C:\Users\Phuong\AppData\Local\Temp\ccawWFGQ.s 			page 285


 15002 2a5b D6020000 		.4byte	.LVL421
 15003 2a5f DA020000 		.4byte	.LVL423
 15004 2a63 0100     		.2byte	0x1
 15005 2a65 55       		.byte	0x55
 15006 2a66 EC020000 		.4byte	.LVL427
 15007 2a6a F0020000 		.4byte	.LVL428
 15008 2a6e 0100     		.2byte	0x1
 15009 2a70 58       		.byte	0x58
 15010 2a71 F0020000 		.4byte	.LVL428
 15011 2a75 F2020000 		.4byte	.LVL429
 15012 2a79 0100     		.2byte	0x1
 15013 2a7b 55       		.byte	0x55
 15014 2a7c 00000000 		.4byte	0
 15015 2a80 00000000 		.4byte	0
 15016              	.LLST73:
 15017 2a84 0C000000 		.4byte	.LVL347
 15018 2a88 DC020000 		.4byte	.LVL424
 15019 2a8c 0200     		.2byte	0x2
 15020 2a8e 30       		.byte	0x30
 15021 2a8f 9F       		.byte	0x9f
 15022 2a90 DC020000 		.4byte	.LVL424
 15023 2a94 EC020000 		.4byte	.LVL427
 15024 2a98 0100     		.2byte	0x1
 15025 2a9a 54       		.byte	0x54
 15026 2a9b EC020000 		.4byte	.LVL427
 15027 2a9f F2020000 		.4byte	.LVL429
 15028 2aa3 0200     		.2byte	0x2
 15029 2aa5 30       		.byte	0x30
 15030 2aa6 9F       		.byte	0x9f
 15031 2aa7 00000000 		.4byte	0
 15032 2aab 00000000 		.4byte	0
 15033              		.section	.debug_aranges,"",%progbits
 15034 0000 BC000000 		.4byte	0xbc
 15035 0004 0200     		.2byte	0x2
 15036 0006 00000000 		.4byte	.Ldebug_info0
 15037 000a 04       		.byte	0x4
 15038 000b 00       		.byte	0
 15039 000c 0000     		.2byte	0
 15040 000e 0000     		.2byte	0
 15041 0010 00000000 		.4byte	.LFB1
 15042 0014 0C000000 		.4byte	.LFE1-.LFB1
 15043 0018 00000000 		.4byte	.LFB2
 15044 001c 0E000000 		.4byte	.LFE2-.LFB2
 15045 0020 00000000 		.4byte	.LFB3
 15046 0024 0E000000 		.4byte	.LFE3-.LFB3
 15047 0028 00000000 		.4byte	.LFB4
 15048 002c 10000000 		.4byte	.LFE4-.LFB4
 15049 0030 00000000 		.4byte	.LFB5
 15050 0034 20000000 		.4byte	.LFE5-.LFB5
 15051 0038 00000000 		.4byte	.LFB6
 15052 003c 24000000 		.4byte	.LFE6-.LFB6
 15053 0040 00000000 		.4byte	.LFB7
 15054 0044 2C000000 		.4byte	.LFE7-.LFB7
 15055 0048 00000000 		.4byte	.LFB8
 15056 004c 4C030000 		.4byte	.LFE8-.LFB8
 15057 0050 00000000 		.4byte	.LFB11
 15058 0054 98000000 		.4byte	.LFE11-.LFB11
ARM GAS  C:\Users\Phuong\AppData\Local\Temp\ccawWFGQ.s 			page 286


 15059 0058 00000000 		.4byte	.LFB14
 15060 005c 8C000000 		.4byte	.LFE14-.LFB14
 15061 0060 00000000 		.4byte	.LFB9
 15062 0064 0A000000 		.4byte	.LFE9-.LFB9
 15063 0068 00000000 		.4byte	.LFB10
 15064 006c 38000000 		.4byte	.LFE10-.LFB10
 15065 0070 00000000 		.4byte	.LFB12
 15066 0074 1C000000 		.4byte	.LFE12-.LFB12
 15067 0078 00000000 		.4byte	.LFB13
 15068 007c 1E000000 		.4byte	.LFE13-.LFB13
 15069 0080 00000000 		.4byte	.LFB15
 15070 0084 1C000000 		.4byte	.LFE15-.LFB15
 15071 0088 00000000 		.4byte	.LFB16
 15072 008c 1E000000 		.4byte	.LFE16-.LFB16
 15073 0090 00000000 		.4byte	.LFB17
 15074 0094 48020000 		.4byte	.LFE17-.LFB17
 15075 0098 00000000 		.4byte	.LFB18
 15076 009c 94000000 		.4byte	.LFE18-.LFB18
 15077 00a0 00000000 		.4byte	.LFB19
 15078 00a4 A0040000 		.4byte	.LFE19-.LFB19
 15079 00a8 00000000 		.4byte	.LFB20
 15080 00ac 94000000 		.4byte	.LFE20-.LFB20
 15081 00b0 00000000 		.4byte	.LFB21
 15082 00b4 2C030000 		.4byte	.LFE21-.LFB21
 15083 00b8 00000000 		.4byte	0
 15084 00bc 00000000 		.4byte	0
 15085              		.section	.debug_ranges,"",%progbits
 15086              	.Ldebug_ranges0:
 15087 0000 00000000 		.4byte	.LFB1
 15088 0004 0C000000 		.4byte	.LFE1
 15089 0008 00000000 		.4byte	.LFB2
 15090 000c 0E000000 		.4byte	.LFE2
 15091 0010 00000000 		.4byte	.LFB3
 15092 0014 0E000000 		.4byte	.LFE3
 15093 0018 00000000 		.4byte	.LFB4
 15094 001c 10000000 		.4byte	.LFE4
 15095 0020 00000000 		.4byte	.LFB5
 15096 0024 20000000 		.4byte	.LFE5
 15097 0028 00000000 		.4byte	.LFB6
 15098 002c 24000000 		.4byte	.LFE6
 15099 0030 00000000 		.4byte	.LFB7
 15100 0034 2C000000 		.4byte	.LFE7
 15101 0038 00000000 		.4byte	.LFB8
 15102 003c 4C030000 		.4byte	.LFE8
 15103 0040 00000000 		.4byte	.LFB11
 15104 0044 98000000 		.4byte	.LFE11
 15105 0048 00000000 		.4byte	.LFB14
 15106 004c 8C000000 		.4byte	.LFE14
 15107 0050 00000000 		.4byte	.LFB9
 15108 0054 0A000000 		.4byte	.LFE9
 15109 0058 00000000 		.4byte	.LFB10
 15110 005c 38000000 		.4byte	.LFE10
 15111 0060 00000000 		.4byte	.LFB12
 15112 0064 1C000000 		.4byte	.LFE12
 15113 0068 00000000 		.4byte	.LFB13
 15114 006c 1E000000 		.4byte	.LFE13
 15115 0070 00000000 		.4byte	.LFB15
ARM GAS  C:\Users\Phuong\AppData\Local\Temp\ccawWFGQ.s 			page 287


 15116 0074 1C000000 		.4byte	.LFE15
 15117 0078 00000000 		.4byte	.LFB16
 15118 007c 1E000000 		.4byte	.LFE16
 15119 0080 00000000 		.4byte	.LFB17
 15120 0084 48020000 		.4byte	.LFE17
 15121 0088 00000000 		.4byte	.LFB18
 15122 008c 94000000 		.4byte	.LFE18
 15123 0090 00000000 		.4byte	.LFB19
 15124 0094 A0040000 		.4byte	.LFE19
 15125 0098 00000000 		.4byte	.LFB20
 15126 009c 94000000 		.4byte	.LFE20
 15127 00a0 00000000 		.4byte	.LFB21
 15128 00a4 2C030000 		.4byte	.LFE21
 15129 00a8 00000000 		.4byte	0
 15130 00ac 00000000 		.4byte	0
 15131              		.section	.debug_line,"",%progbits
 15132              	.Ldebug_line0:
 15133 0000 88070000 		.section	.debug_str,"MS",%progbits,1
 15133      02008602 
 15133      00000201 
 15133      FB0E0D00 
 15133      01010101 
 15134              	.LASF53:
 15135 0000 64657333 		.ascii	"des3_test_cbc_enc\000"
 15135      5F746573 
 15135      745F6362 
 15135      635F656E 
 15135      6300
 15136              	.LASF24:
 15137 0012 6D626564 		.ascii	"mbedtls_des_setkey\000"
 15137      746C735F 
 15137      6465735F 
 15137      7365746B 
 15137      657900
 15138              	.LASF25:
 15139 0025 64657333 		.ascii	"des3_set2key\000"
 15139      5F736574 
 15139      326B6579 
 15139      00
 15140              	.LASF39:
 15141 0032 74656D70 		.ascii	"temp\000"
 15141      00
 15142              	.LASF2:
 15143 0037 73686F72 		.ascii	"short int\000"
 15143      7420696E 
 15143      7400
 15144              	.LASF15:
 15145 0041 6D626564 		.ascii	"mbedtls_des3_context\000"
 15145      746C735F 
 15145      64657333 
 15145      5F636F6E 
 15145      74657874 
 15146              	.LASF34:
 15147 0056 696E7075 		.ascii	"input\000"
 15147      7400
 15148              	.LASF46:
 15149 005c 7765616B 		.ascii	"weak_key_table\000"
ARM GAS  C:\Users\Phuong\AppData\Local\Temp\ccawWFGQ.s 			page 288


 15149      5F6B6579 
 15149      5F746162 
 15149      6C6500
 15150              	.LASF21:
 15151 006b 6D626564 		.ascii	"mbedtls_des_key_set_parity\000"
 15151      746C735F 
 15151      6465735F 
 15151      6B65795F 
 15151      7365745F 
 15152              	.LASF60:
 15153 0086 70757463 		.ascii	"putchar\000"
 15153      68617200 
 15154              	.LASF63:
 15155 008e 474E5520 		.ascii	"GNU C11 5.4.1 20160609 (release) [ARM/embedded-5-br"
 15155      43313120 
 15155      352E342E 
 15155      31203230 
 15155      31363036 
 15156 00c1 616E6368 		.ascii	"anch revision 237715] -mcpu=cortex-m0plus -mthumb -"
 15156      20726576 
 15156      6973696F 
 15156      6E203233 
 15156      37373135 
 15157 00f4 67202D4F 		.ascii	"g -Og -ffunction-sections -ffat-lto-objects\000"
 15157      67202D66 
 15157      66756E63 
 15157      74696F6E 
 15157      2D736563 
 15158              	.LASF44:
 15159 0120 63747833 		.ascii	"ctx3\000"
 15159      00
 15160              	.LASF50:
 15161 0125 64657333 		.ascii	"des3_test_ecb_enc\000"
 15161      5F746573 
 15161      745F6563 
 15161      625F656E 
 15161      6300
 15162              	.LASF57:
 15163 0137 6D656D63 		.ascii	"memcpy\000"
 15163      707900
 15164              	.LASF47:
 15165 013e 64657333 		.ascii	"des3_test_keys\000"
 15165      5F746573 
 15165      745F6B65 
 15165      797300
 15166              	.LASF30:
 15167 014d 6D626564 		.ascii	"mbedtls_des3_set2key_dec\000"
 15167      746C735F 
 15167      64657333 
 15167      5F736574 
 15167      326B6579 
 15168              	.LASF14:
 15169 0166 6D626564 		.ascii	"mbedtls_des_context\000"
 15169      746C735F 
 15169      6465735F 
 15169      636F6E74 
 15169      65787400 
ARM GAS  C:\Users\Phuong\AppData\Local\Temp\ccawWFGQ.s 			page 289


 15170              	.LASF43:
 15171 017a 76657262 		.ascii	"verbose\000"
 15171      6F736500 
 15172              	.LASF26:
 15173 0182 64657333 		.ascii	"des3_set3key\000"
 15173      5F736574 
 15173      336B6579 
 15173      00
 15174              	.LASF38:
 15175 018f 6C656E67 		.ascii	"length\000"
 15175      746800
 15176              	.LASF55:
 15177 0196 6D656D63 		.ascii	"memcmp\000"
 15177      6D7000
 15178              	.LASF7:
 15179 019d 6C6F6E67 		.ascii	"long long unsigned int\000"
 15179      206C6F6E 
 15179      6720756E 
 15179      7369676E 
 15179      65642069 
 15180              	.LASF42:
 15181 01b4 6D626564 		.ascii	"mbedtls_des_self_test\000"
 15181      746C735F 
 15181      6465735F 
 15181      73656C66 
 15181      5F746573 
 15182              	.LASF56:
 15183 01ca 6D656D73 		.ascii	"memset\000"
 15183      657400
 15184              	.LASF4:
 15185 01d1 6C6F6E67 		.ascii	"long int\000"
 15185      20696E74 
 15185      00
 15186              	.LASF58:
 15187 01da 7072696E 		.ascii	"printf\000"
 15187      746600
 15188              	.LASF9:
 15189 01e1 5F5F7569 		.ascii	"__uint32_t\000"
 15189      6E743332 
 15189      5F7400
 15190              	.LASF66:
 15191 01ec 65786974 		.ascii	"exit\000"
 15191      00
 15192              	.LASF11:
 15193 01f1 6C6F6E67 		.ascii	"long double\000"
 15193      20646F75 
 15193      626C6500 
 15194              	.LASF54:
 15195 01fd 6D626564 		.ascii	"mbedtls_platform_zeroize\000"
 15195      746C735F 
 15195      706C6174 
 15195      666F726D 
 15195      5F7A6572 
 15196              	.LASF1:
 15197 0216 756E7369 		.ascii	"unsigned char\000"
 15197      676E6564 
 15197      20636861 
ARM GAS  C:\Users\Phuong\AppData\Local\Temp\ccawWFGQ.s 			page 290


 15197      7200
 15198              	.LASF28:
 15199 0224 6D626564 		.ascii	"mbedtls_des_setkey_dec\000"
 15199      746C735F 
 15199      6465735F 
 15199      7365746B 
 15199      65795F64 
 15200              	.LASF0:
 15201 023b 7369676E 		.ascii	"signed char\000"
 15201      65642063 
 15201      68617200 
 15202              	.LASF29:
 15203 0247 6D626564 		.ascii	"mbedtls_des3_set2key_enc\000"
 15203      746C735F 
 15203      64657333 
 15203      5F736574 
 15203      326B6579 
 15204              	.LASF12:
 15205 0260 75696E74 		.ascii	"uint32_t\000"
 15205      33325F74 
 15205      00
 15206              	.LASF23:
 15207 0269 6D626564 		.ascii	"mbedtls_des_key_check_weak\000"
 15207      746C735F 
 15207      6465735F 
 15207      6B65795F 
 15207      63686563 
 15208              	.LASF8:
 15209 0284 756E7369 		.ascii	"unsigned int\000"
 15209      676E6564 
 15209      20696E74 
 15209      00
 15210              	.LASF65:
 15211 0291 433A5C55 		.ascii	"C:\\Users\\Phuong\\Documents\\PSoC Creator\\Dec0820"
 15211      73657273 
 15211      5C506875 
 15211      6F6E675C 
 15211      446F6375 
 15212 02bf 31385C69 		.ascii	"18\\iot-sdk-iot-dev\\PSOC6_FreeRTOS+LwIP+MbedTLS_Az"
 15212      6F742D73 
 15212      646B2D69 
 15212      6F742D64 
 15212      65765C50 
 15213 02f0 7572652D 		.ascii	"ure-IOT-Hub-Demo\\PSOC6_FreeRTOS+LwIP+MbedTLS_Azure"
 15213      494F542D 
 15213      4875622D 
 15213      44656D6F 
 15213      5C50534F 
 15214 0322 2D494F54 		.ascii	"-IOT-Hub-Demo.cydsn\000"
 15214      2D487562 
 15214      2D44656D 
 15214      6F2E6379 
 15214      64736E00 
 15215              	.LASF59:
 15216 0336 70757473 		.ascii	"puts\000"
 15216      00
 15217              	.LASF40:
ARM GAS  C:\Users\Phuong\AppData\Local\Temp\ccawWFGQ.s 			page 291


 15218 033b 6D626564 		.ascii	"mbedtls_des3_crypt_ecb\000"
 15218      746C735F 
 15218      64657333 
 15218      5F637279 
 15218      70745F65 
 15219              	.LASF32:
 15220 0352 6D626564 		.ascii	"mbedtls_des3_set3key_dec\000"
 15220      746C735F 
 15220      64657333 
 15220      5F736574 
 15220      336B6579 
 15221              	.LASF3:
 15222 036b 73686F72 		.ascii	"short unsigned int\000"
 15222      7420756E 
 15222      7369676E 
 15222      65642069 
 15222      6E7400
 15223              	.LASF17:
 15224 037e 6D626564 		.ascii	"mbedtls_des_init\000"
 15224      746C735F 
 15224      6465735F 
 15224      696E6974 
 15224      00
 15225              	.LASF16:
 15226 038f 63686172 		.ascii	"char\000"
 15226      00
 15227              	.LASF22:
 15228 0394 6D626564 		.ascii	"mbedtls_des_key_check_key_parity\000"
 15228      746C735F 
 15228      6465735F 
 15228      6B65795F 
 15228      63686563 
 15229              	.LASF37:
 15230 03b5 6D6F6465 		.ascii	"mode\000"
 15230      00
 15231              	.LASF10:
 15232 03ba 73697A65 		.ascii	"size_t\000"
 15232      5F7400
 15233              	.LASF62:
 15234 03c1 5F5F6275 		.ascii	"__builtin_putchar\000"
 15234      696C7469 
 15234      6E5F7075 
 15234      74636861 
 15234      7200
 15235              	.LASF48:
 15236 03d3 64657333 		.ascii	"des3_test_buf\000"
 15236      5F746573 
 15236      745F6275 
 15236      6600
 15237              	.LASF52:
 15238 03e1 64657333 		.ascii	"des3_test_cbc_dec\000"
 15238      5F746573 
 15238      745F6362 
 15238      635F6465 
 15238      6300
 15239              	.LASF5:
 15240 03f3 6C6F6E67 		.ascii	"long unsigned int\000"
ARM GAS  C:\Users\Phuong\AppData\Local\Temp\ccawWFGQ.s 			page 292


 15240      20756E73 
 15240      69676E65 
 15240      6420696E 
 15240      7400
 15241              	.LASF51:
 15242 0405 64657333 		.ascii	"des3_test_iv\000"
 15242      5F746573 
 15242      745F6976 
 15242      00
 15243              	.LASF36:
 15244 0412 6D626564 		.ascii	"mbedtls_des_crypt_cbc\000"
 15244      746C735F 
 15244      6465735F 
 15244      63727970 
 15244      745F6362 
 15245              	.LASF27:
 15246 0428 6D626564 		.ascii	"mbedtls_des_setkey_enc\000"
 15246      746C735F 
 15246      6465735F 
 15246      7365746B 
 15246      65795F65 
 15247              	.LASF18:
 15248 043f 6D626564 		.ascii	"mbedtls_des_free\000"
 15248      746C735F 
 15248      6465735F 
 15248      66726565 
 15248      00
 15249              	.LASF33:
 15250 0450 6D626564 		.ascii	"mbedtls_des_crypt_ecb\000"
 15250      746C735F 
 15250      6465735F 
 15250      63727970 
 15250      745F6563 
 15251              	.LASF41:
 15252 0466 6D626564 		.ascii	"mbedtls_des3_crypt_cbc\000"
 15252      746C735F 
 15252      64657333 
 15252      5F637279 
 15252      70745F63 
 15253              	.LASF13:
 15254 047d 73697A65 		.ascii	"sizetype\000"
 15254      74797065 
 15254      00
 15255              	.LASF31:
 15256 0486 6D626564 		.ascii	"mbedtls_des3_set3key_enc\000"
 15256      746C735F 
 15256      64657333 
 15256      5F736574 
 15256      336B6579 
 15257              	.LASF64:
 15258 049f 536F7572 		.ascii	"Source\\mbedtls_open\\library\\des.c\000"
 15258      63655C6D 
 15258      62656474 
 15258      6C735F6F 
 15258      70656E5C 
 15259              	.LASF35:
 15260 04c1 6F757470 		.ascii	"output\000"
ARM GAS  C:\Users\Phuong\AppData\Local\Temp\ccawWFGQ.s 			page 293


 15260      757400
 15261              	.LASF20:
 15262 04c8 6D626564 		.ascii	"mbedtls_des3_free\000"
 15262      746C735F 
 15262      64657333 
 15262      5F667265 
 15262      6500
 15263              	.LASF61:
 15264 04da 5F5F6275 		.ascii	"__builtin_puts\000"
 15264      696C7469 
 15264      6E5F7075 
 15264      747300
 15265              	.LASF19:
 15266 04e9 6D626564 		.ascii	"mbedtls_des3_init\000"
 15266      746C735F 
 15266      64657333 
 15266      5F696E69 
 15266      7400
 15267              	.LASF49:
 15268 04fb 64657333 		.ascii	"des3_test_ecb_dec\000"
 15268      5F746573 
 15268      745F6563 
 15268      625F6465 
 15268      6300
 15269              	.LASF45:
 15270 050d 6F64645F 		.ascii	"odd_parity_table\000"
 15270      70617269 
 15270      74795F74 
 15270      61626C65 
 15270      00
 15271              	.LASF6:
 15272 051e 6C6F6E67 		.ascii	"long long int\000"
 15272      206C6F6E 
 15272      6720696E 
 15272      7400
 15273              		.ident	"GCC: (GNU Tools for ARM Embedded Processors) 5.4.1 20160609 (release) [ARM/embedded-5-bran
