ARM GAS  C:\Users\Phuong\AppData\Local\Temp\ccawWFGQ.s 			page 1


   1              		.syntax unified
   2              		.cpu cortex-m0plus
   3              		.fpu softvfp
   4              		.eabi_attribute 20, 1
   5              		.eabi_attribute 21, 1
   6              		.eabi_attribute 23, 3
   7              		.eabi_attribute 24, 1
   8              		.eabi_attribute 25, 1
   9              		.eabi_attribute 26, 1
  10              		.eabi_attribute 30, 1
  11              		.eabi_attribute 34, 0
  12              		.eabi_attribute 18, 4
  13              		.thumb
  14              		.syntax unified
  15              		.file	"des.c"
  16              		.text
  17              	.Ltext0:
  18              		.cfi_sections	.debug_frame
  19              		.section	.text.mbedtls_des_init,"ax",%progbits
  20              		.align	2
  21              		.global	mbedtls_des_init
  22              		.code	16
  23              		.thumb_func
  24              		.type	mbedtls_des_init, %function
  25              	mbedtls_des_init:
  26              	.LFB1:
  27              		.file 1 "Source\\mbedtls_open\\library\\des.c"
   1:Source\mbedtls_open\library/des.c **** /*
   2:Source\mbedtls_open\library/des.c ****  *  FIPS-46-3 compliant Triple-DES implementation
   3:Source\mbedtls_open\library/des.c ****  *
   4:Source\mbedtls_open\library/des.c ****  *  Copyright (C) 2006-2015, ARM Limited, All Rights Reserved
   5:Source\mbedtls_open\library/des.c ****  *  SPDX-License-Identifier: Apache-2.0
   6:Source\mbedtls_open\library/des.c ****  *
   7:Source\mbedtls_open\library/des.c ****  *  Licensed under the Apache License, Version 2.0 (the "License"); you may
   8:Source\mbedtls_open\library/des.c ****  *  not use this file except in compliance with the License.
   9:Source\mbedtls_open\library/des.c ****  *  You may obtain a copy of the License at
  10:Source\mbedtls_open\library/des.c ****  *
  11:Source\mbedtls_open\library/des.c ****  *  http://www.apache.org/licenses/LICENSE-2.0
  12:Source\mbedtls_open\library/des.c ****  *
  13:Source\mbedtls_open\library/des.c ****  *  Unless required by applicable law or agreed to in writing, software
  14:Source\mbedtls_open\library/des.c ****  *  distributed under the License is distributed on an "AS IS" BASIS, WITHOUT
  15:Source\mbedtls_open\library/des.c ****  *  WARRANTIES OR CONDITIONS OF ANY KIND, either express or implied.
  16:Source\mbedtls_open\library/des.c ****  *  See the License for the specific language governing permissions and
  17:Source\mbedtls_open\library/des.c ****  *  limitations under the License.
  18:Source\mbedtls_open\library/des.c ****  *
  19:Source\mbedtls_open\library/des.c ****  *  This file is part of mbed TLS (https://tls.mbed.org)
  20:Source\mbedtls_open\library/des.c ****  */
  21:Source\mbedtls_open\library/des.c **** /*
  22:Source\mbedtls_open\library/des.c ****  *  DES, on which TDES is based, was originally designed by Horst Feistel
  23:Source\mbedtls_open\library/des.c ****  *  at IBM in 1974, and was adopted as a standard by NIST (formerly NBS).
  24:Source\mbedtls_open\library/des.c ****  *
  25:Source\mbedtls_open\library/des.c ****  *  http://csrc.nist.gov/publications/fips/fips46-3/fips46-3.pdf
  26:Source\mbedtls_open\library/des.c ****  */
  27:Source\mbedtls_open\library/des.c **** 
  28:Source\mbedtls_open\library/des.c **** #if !defined(MBEDTLS_CONFIG_FILE)
  29:Source\mbedtls_open\library/des.c **** #include "mbedtls/config.h"
  30:Source\mbedtls_open\library/des.c **** #else
ARM GAS  C:\Users\Phuong\AppData\Local\Temp\ccawWFGQ.s 			page 2


  31:Source\mbedtls_open\library/des.c **** #include MBEDTLS_CONFIG_FILE
  32:Source\mbedtls_open\library/des.c **** #endif
  33:Source\mbedtls_open\library/des.c **** 
  34:Source\mbedtls_open\library/des.c **** #if defined(MBEDTLS_DES_C)
  35:Source\mbedtls_open\library/des.c **** 
  36:Source\mbedtls_open\library/des.c **** #include "mbedtls/des.h"
  37:Source\mbedtls_open\library/des.c **** #include "mbedtls/platform_util.h"
  38:Source\mbedtls_open\library/des.c **** 
  39:Source\mbedtls_open\library/des.c **** #include <string.h>
  40:Source\mbedtls_open\library/des.c **** 
  41:Source\mbedtls_open\library/des.c **** #if defined(MBEDTLS_SELF_TEST)
  42:Source\mbedtls_open\library/des.c **** #if defined(MBEDTLS_PLATFORM_C)
  43:Source\mbedtls_open\library/des.c **** #include "mbedtls/platform.h"
  44:Source\mbedtls_open\library/des.c **** #else
  45:Source\mbedtls_open\library/des.c **** #include <stdio.h>
  46:Source\mbedtls_open\library/des.c **** #define mbedtls_printf printf
  47:Source\mbedtls_open\library/des.c **** #endif /* MBEDTLS_PLATFORM_C */
  48:Source\mbedtls_open\library/des.c **** #endif /* MBEDTLS_SELF_TEST */
  49:Source\mbedtls_open\library/des.c **** 
  50:Source\mbedtls_open\library/des.c **** #if !defined(MBEDTLS_DES_ALT)
  51:Source\mbedtls_open\library/des.c **** 
  52:Source\mbedtls_open\library/des.c **** /*
  53:Source\mbedtls_open\library/des.c ****  * 32-bit integer manipulation macros (big endian)
  54:Source\mbedtls_open\library/des.c ****  */
  55:Source\mbedtls_open\library/des.c **** #ifndef GET_UINT32_BE
  56:Source\mbedtls_open\library/des.c **** #define GET_UINT32_BE(n,b,i)                            \
  57:Source\mbedtls_open\library/des.c **** {                                                       \
  58:Source\mbedtls_open\library/des.c ****     (n) = ( (uint32_t) (b)[(i)    ] << 24 )             \
  59:Source\mbedtls_open\library/des.c ****         | ( (uint32_t) (b)[(i) + 1] << 16 )             \
  60:Source\mbedtls_open\library/des.c ****         | ( (uint32_t) (b)[(i) + 2] <<  8 )             \
  61:Source\mbedtls_open\library/des.c ****         | ( (uint32_t) (b)[(i) + 3]       );            \
  62:Source\mbedtls_open\library/des.c **** }
  63:Source\mbedtls_open\library/des.c **** #endif
  64:Source\mbedtls_open\library/des.c **** 
  65:Source\mbedtls_open\library/des.c **** #ifndef PUT_UINT32_BE
  66:Source\mbedtls_open\library/des.c **** #define PUT_UINT32_BE(n,b,i)                            \
  67:Source\mbedtls_open\library/des.c **** {                                                       \
  68:Source\mbedtls_open\library/des.c ****     (b)[(i)    ] = (unsigned char) ( (n) >> 24 );       \
  69:Source\mbedtls_open\library/des.c ****     (b)[(i) + 1] = (unsigned char) ( (n) >> 16 );       \
  70:Source\mbedtls_open\library/des.c ****     (b)[(i) + 2] = (unsigned char) ( (n) >>  8 );       \
  71:Source\mbedtls_open\library/des.c ****     (b)[(i) + 3] = (unsigned char) ( (n)       );       \
  72:Source\mbedtls_open\library/des.c **** }
  73:Source\mbedtls_open\library/des.c **** #endif
  74:Source\mbedtls_open\library/des.c **** 
  75:Source\mbedtls_open\library/des.c **** /*
  76:Source\mbedtls_open\library/des.c ****  * Expanded DES S-boxes
  77:Source\mbedtls_open\library/des.c ****  */
  78:Source\mbedtls_open\library/des.c **** static const uint32_t SB1[64] =
  79:Source\mbedtls_open\library/des.c **** {
  80:Source\mbedtls_open\library/des.c ****     0x01010400, 0x00000000, 0x00010000, 0x01010404,
  81:Source\mbedtls_open\library/des.c ****     0x01010004, 0x00010404, 0x00000004, 0x00010000,
  82:Source\mbedtls_open\library/des.c ****     0x00000400, 0x01010400, 0x01010404, 0x00000400,
  83:Source\mbedtls_open\library/des.c ****     0x01000404, 0x01010004, 0x01000000, 0x00000004,
  84:Source\mbedtls_open\library/des.c ****     0x00000404, 0x01000400, 0x01000400, 0x00010400,
  85:Source\mbedtls_open\library/des.c ****     0x00010400, 0x01010000, 0x01010000, 0x01000404,
  86:Source\mbedtls_open\library/des.c ****     0x00010004, 0x01000004, 0x01000004, 0x00010004,
  87:Source\mbedtls_open\library/des.c ****     0x00000000, 0x00000404, 0x00010404, 0x01000000,
ARM GAS  C:\Users\Phuong\AppData\Local\Temp\ccawWFGQ.s 			page 3


  88:Source\mbedtls_open\library/des.c ****     0x00010000, 0x01010404, 0x00000004, 0x01010000,
  89:Source\mbedtls_open\library/des.c ****     0x01010400, 0x01000000, 0x01000000, 0x00000400,
  90:Source\mbedtls_open\library/des.c ****     0x01010004, 0x00010000, 0x00010400, 0x01000004,
  91:Source\mbedtls_open\library/des.c ****     0x00000400, 0x00000004, 0x01000404, 0x00010404,
  92:Source\mbedtls_open\library/des.c ****     0x01010404, 0x00010004, 0x01010000, 0x01000404,
  93:Source\mbedtls_open\library/des.c ****     0x01000004, 0x00000404, 0x00010404, 0x01010400,
  94:Source\mbedtls_open\library/des.c ****     0x00000404, 0x01000400, 0x01000400, 0x00000000,
  95:Source\mbedtls_open\library/des.c ****     0x00010004, 0x00010400, 0x00000000, 0x01010004
  96:Source\mbedtls_open\library/des.c **** };
  97:Source\mbedtls_open\library/des.c **** 
  98:Source\mbedtls_open\library/des.c **** static const uint32_t SB2[64] =
  99:Source\mbedtls_open\library/des.c **** {
 100:Source\mbedtls_open\library/des.c ****     0x80108020, 0x80008000, 0x00008000, 0x00108020,
 101:Source\mbedtls_open\library/des.c ****     0x00100000, 0x00000020, 0x80100020, 0x80008020,
 102:Source\mbedtls_open\library/des.c ****     0x80000020, 0x80108020, 0x80108000, 0x80000000,
 103:Source\mbedtls_open\library/des.c ****     0x80008000, 0x00100000, 0x00000020, 0x80100020,
 104:Source\mbedtls_open\library/des.c ****     0x00108000, 0x00100020, 0x80008020, 0x00000000,
 105:Source\mbedtls_open\library/des.c ****     0x80000000, 0x00008000, 0x00108020, 0x80100000,
 106:Source\mbedtls_open\library/des.c ****     0x00100020, 0x80000020, 0x00000000, 0x00108000,
 107:Source\mbedtls_open\library/des.c ****     0x00008020, 0x80108000, 0x80100000, 0x00008020,
 108:Source\mbedtls_open\library/des.c ****     0x00000000, 0x00108020, 0x80100020, 0x00100000,
 109:Source\mbedtls_open\library/des.c ****     0x80008020, 0x80100000, 0x80108000, 0x00008000,
 110:Source\mbedtls_open\library/des.c ****     0x80100000, 0x80008000, 0x00000020, 0x80108020,
 111:Source\mbedtls_open\library/des.c ****     0x00108020, 0x00000020, 0x00008000, 0x80000000,
 112:Source\mbedtls_open\library/des.c ****     0x00008020, 0x80108000, 0x00100000, 0x80000020,
 113:Source\mbedtls_open\library/des.c ****     0x00100020, 0x80008020, 0x80000020, 0x00100020,
 114:Source\mbedtls_open\library/des.c ****     0x00108000, 0x00000000, 0x80008000, 0x00008020,
 115:Source\mbedtls_open\library/des.c ****     0x80000000, 0x80100020, 0x80108020, 0x00108000
 116:Source\mbedtls_open\library/des.c **** };
 117:Source\mbedtls_open\library/des.c **** 
 118:Source\mbedtls_open\library/des.c **** static const uint32_t SB3[64] =
 119:Source\mbedtls_open\library/des.c **** {
 120:Source\mbedtls_open\library/des.c ****     0x00000208, 0x08020200, 0x00000000, 0x08020008,
 121:Source\mbedtls_open\library/des.c ****     0x08000200, 0x00000000, 0x00020208, 0x08000200,
 122:Source\mbedtls_open\library/des.c ****     0x00020008, 0x08000008, 0x08000008, 0x00020000,
 123:Source\mbedtls_open\library/des.c ****     0x08020208, 0x00020008, 0x08020000, 0x00000208,
 124:Source\mbedtls_open\library/des.c ****     0x08000000, 0x00000008, 0x08020200, 0x00000200,
 125:Source\mbedtls_open\library/des.c ****     0x00020200, 0x08020000, 0x08020008, 0x00020208,
 126:Source\mbedtls_open\library/des.c ****     0x08000208, 0x00020200, 0x00020000, 0x08000208,
 127:Source\mbedtls_open\library/des.c ****     0x00000008, 0x08020208, 0x00000200, 0x08000000,
 128:Source\mbedtls_open\library/des.c ****     0x08020200, 0x08000000, 0x00020008, 0x00000208,
 129:Source\mbedtls_open\library/des.c ****     0x00020000, 0x08020200, 0x08000200, 0x00000000,
 130:Source\mbedtls_open\library/des.c ****     0x00000200, 0x00020008, 0x08020208, 0x08000200,
 131:Source\mbedtls_open\library/des.c ****     0x08000008, 0x00000200, 0x00000000, 0x08020008,
 132:Source\mbedtls_open\library/des.c ****     0x08000208, 0x00020000, 0x08000000, 0x08020208,
 133:Source\mbedtls_open\library/des.c ****     0x00000008, 0x00020208, 0x00020200, 0x08000008,
 134:Source\mbedtls_open\library/des.c ****     0x08020000, 0x08000208, 0x00000208, 0x08020000,
 135:Source\mbedtls_open\library/des.c ****     0x00020208, 0x00000008, 0x08020008, 0x00020200
 136:Source\mbedtls_open\library/des.c **** };
 137:Source\mbedtls_open\library/des.c **** 
 138:Source\mbedtls_open\library/des.c **** static const uint32_t SB4[64] =
 139:Source\mbedtls_open\library/des.c **** {
 140:Source\mbedtls_open\library/des.c ****     0x00802001, 0x00002081, 0x00002081, 0x00000080,
 141:Source\mbedtls_open\library/des.c ****     0x00802080, 0x00800081, 0x00800001, 0x00002001,
 142:Source\mbedtls_open\library/des.c ****     0x00000000, 0x00802000, 0x00802000, 0x00802081,
 143:Source\mbedtls_open\library/des.c ****     0x00000081, 0x00000000, 0x00800080, 0x00800001,
 144:Source\mbedtls_open\library/des.c ****     0x00000001, 0x00002000, 0x00800000, 0x00802001,
ARM GAS  C:\Users\Phuong\AppData\Local\Temp\ccawWFGQ.s 			page 4


 145:Source\mbedtls_open\library/des.c ****     0x00000080, 0x00800000, 0x00002001, 0x00002080,
 146:Source\mbedtls_open\library/des.c ****     0x00800081, 0x00000001, 0x00002080, 0x00800080,
 147:Source\mbedtls_open\library/des.c ****     0x00002000, 0x00802080, 0x00802081, 0x00000081,
 148:Source\mbedtls_open\library/des.c ****     0x00800080, 0x00800001, 0x00802000, 0x00802081,
 149:Source\mbedtls_open\library/des.c ****     0x00000081, 0x00000000, 0x00000000, 0x00802000,
 150:Source\mbedtls_open\library/des.c ****     0x00002080, 0x00800080, 0x00800081, 0x00000001,
 151:Source\mbedtls_open\library/des.c ****     0x00802001, 0x00002081, 0x00002081, 0x00000080,
 152:Source\mbedtls_open\library/des.c ****     0x00802081, 0x00000081, 0x00000001, 0x00002000,
 153:Source\mbedtls_open\library/des.c ****     0x00800001, 0x00002001, 0x00802080, 0x00800081,
 154:Source\mbedtls_open\library/des.c ****     0x00002001, 0x00002080, 0x00800000, 0x00802001,
 155:Source\mbedtls_open\library/des.c ****     0x00000080, 0x00800000, 0x00002000, 0x00802080
 156:Source\mbedtls_open\library/des.c **** };
 157:Source\mbedtls_open\library/des.c **** 
 158:Source\mbedtls_open\library/des.c **** static const uint32_t SB5[64] =
 159:Source\mbedtls_open\library/des.c **** {
 160:Source\mbedtls_open\library/des.c ****     0x00000100, 0x02080100, 0x02080000, 0x42000100,
 161:Source\mbedtls_open\library/des.c ****     0x00080000, 0x00000100, 0x40000000, 0x02080000,
 162:Source\mbedtls_open\library/des.c ****     0x40080100, 0x00080000, 0x02000100, 0x40080100,
 163:Source\mbedtls_open\library/des.c ****     0x42000100, 0x42080000, 0x00080100, 0x40000000,
 164:Source\mbedtls_open\library/des.c ****     0x02000000, 0x40080000, 0x40080000, 0x00000000,
 165:Source\mbedtls_open\library/des.c ****     0x40000100, 0x42080100, 0x42080100, 0x02000100,
 166:Source\mbedtls_open\library/des.c ****     0x42080000, 0x40000100, 0x00000000, 0x42000000,
 167:Source\mbedtls_open\library/des.c ****     0x02080100, 0x02000000, 0x42000000, 0x00080100,
 168:Source\mbedtls_open\library/des.c ****     0x00080000, 0x42000100, 0x00000100, 0x02000000,
 169:Source\mbedtls_open\library/des.c ****     0x40000000, 0x02080000, 0x42000100, 0x40080100,
 170:Source\mbedtls_open\library/des.c ****     0x02000100, 0x40000000, 0x42080000, 0x02080100,
 171:Source\mbedtls_open\library/des.c ****     0x40080100, 0x00000100, 0x02000000, 0x42080000,
 172:Source\mbedtls_open\library/des.c ****     0x42080100, 0x00080100, 0x42000000, 0x42080100,
 173:Source\mbedtls_open\library/des.c ****     0x02080000, 0x00000000, 0x40080000, 0x42000000,
 174:Source\mbedtls_open\library/des.c ****     0x00080100, 0x02000100, 0x40000100, 0x00080000,
 175:Source\mbedtls_open\library/des.c ****     0x00000000, 0x40080000, 0x02080100, 0x40000100
 176:Source\mbedtls_open\library/des.c **** };
 177:Source\mbedtls_open\library/des.c **** 
 178:Source\mbedtls_open\library/des.c **** static const uint32_t SB6[64] =
 179:Source\mbedtls_open\library/des.c **** {
 180:Source\mbedtls_open\library/des.c ****     0x20000010, 0x20400000, 0x00004000, 0x20404010,
 181:Source\mbedtls_open\library/des.c ****     0x20400000, 0x00000010, 0x20404010, 0x00400000,
 182:Source\mbedtls_open\library/des.c ****     0x20004000, 0x00404010, 0x00400000, 0x20000010,
 183:Source\mbedtls_open\library/des.c ****     0x00400010, 0x20004000, 0x20000000, 0x00004010,
 184:Source\mbedtls_open\library/des.c ****     0x00000000, 0x00400010, 0x20004010, 0x00004000,
 185:Source\mbedtls_open\library/des.c ****     0x00404000, 0x20004010, 0x00000010, 0x20400010,
 186:Source\mbedtls_open\library/des.c ****     0x20400010, 0x00000000, 0x00404010, 0x20404000,
 187:Source\mbedtls_open\library/des.c ****     0x00004010, 0x00404000, 0x20404000, 0x20000000,
 188:Source\mbedtls_open\library/des.c ****     0x20004000, 0x00000010, 0x20400010, 0x00404000,
 189:Source\mbedtls_open\library/des.c ****     0x20404010, 0x00400000, 0x00004010, 0x20000010,
 190:Source\mbedtls_open\library/des.c ****     0x00400000, 0x20004000, 0x20000000, 0x00004010,
 191:Source\mbedtls_open\library/des.c ****     0x20000010, 0x20404010, 0x00404000, 0x20400000,
 192:Source\mbedtls_open\library/des.c ****     0x00404010, 0x20404000, 0x00000000, 0x20400010,
 193:Source\mbedtls_open\library/des.c ****     0x00000010, 0x00004000, 0x20400000, 0x00404010,
 194:Source\mbedtls_open\library/des.c ****     0x00004000, 0x00400010, 0x20004010, 0x00000000,
 195:Source\mbedtls_open\library/des.c ****     0x20404000, 0x20000000, 0x00400010, 0x20004010
 196:Source\mbedtls_open\library/des.c **** };
 197:Source\mbedtls_open\library/des.c **** 
 198:Source\mbedtls_open\library/des.c **** static const uint32_t SB7[64] =
 199:Source\mbedtls_open\library/des.c **** {
 200:Source\mbedtls_open\library/des.c ****     0x00200000, 0x04200002, 0x04000802, 0x00000000,
 201:Source\mbedtls_open\library/des.c ****     0x00000800, 0x04000802, 0x00200802, 0x04200800,
ARM GAS  C:\Users\Phuong\AppData\Local\Temp\ccawWFGQ.s 			page 5


 202:Source\mbedtls_open\library/des.c ****     0x04200802, 0x00200000, 0x00000000, 0x04000002,
 203:Source\mbedtls_open\library/des.c ****     0x00000002, 0x04000000, 0x04200002, 0x00000802,
 204:Source\mbedtls_open\library/des.c ****     0x04000800, 0x00200802, 0x00200002, 0x04000800,
 205:Source\mbedtls_open\library/des.c ****     0x04000002, 0x04200000, 0x04200800, 0x00200002,
 206:Source\mbedtls_open\library/des.c ****     0x04200000, 0x00000800, 0x00000802, 0x04200802,
 207:Source\mbedtls_open\library/des.c ****     0x00200800, 0x00000002, 0x04000000, 0x00200800,
 208:Source\mbedtls_open\library/des.c ****     0x04000000, 0x00200800, 0x00200000, 0x04000802,
 209:Source\mbedtls_open\library/des.c ****     0x04000802, 0x04200002, 0x04200002, 0x00000002,
 210:Source\mbedtls_open\library/des.c ****     0x00200002, 0x04000000, 0x04000800, 0x00200000,
 211:Source\mbedtls_open\library/des.c ****     0x04200800, 0x00000802, 0x00200802, 0x04200800,
 212:Source\mbedtls_open\library/des.c ****     0x00000802, 0x04000002, 0x04200802, 0x04200000,
 213:Source\mbedtls_open\library/des.c ****     0x00200800, 0x00000000, 0x00000002, 0x04200802,
 214:Source\mbedtls_open\library/des.c ****     0x00000000, 0x00200802, 0x04200000, 0x00000800,
 215:Source\mbedtls_open\library/des.c ****     0x04000002, 0x04000800, 0x00000800, 0x00200002
 216:Source\mbedtls_open\library/des.c **** };
 217:Source\mbedtls_open\library/des.c **** 
 218:Source\mbedtls_open\library/des.c **** static const uint32_t SB8[64] =
 219:Source\mbedtls_open\library/des.c **** {
 220:Source\mbedtls_open\library/des.c ****     0x10001040, 0x00001000, 0x00040000, 0x10041040,
 221:Source\mbedtls_open\library/des.c ****     0x10000000, 0x10001040, 0x00000040, 0x10000000,
 222:Source\mbedtls_open\library/des.c ****     0x00040040, 0x10040000, 0x10041040, 0x00041000,
 223:Source\mbedtls_open\library/des.c ****     0x10041000, 0x00041040, 0x00001000, 0x00000040,
 224:Source\mbedtls_open\library/des.c ****     0x10040000, 0x10000040, 0x10001000, 0x00001040,
 225:Source\mbedtls_open\library/des.c ****     0x00041000, 0x00040040, 0x10040040, 0x10041000,
 226:Source\mbedtls_open\library/des.c ****     0x00001040, 0x00000000, 0x00000000, 0x10040040,
 227:Source\mbedtls_open\library/des.c ****     0x10000040, 0x10001000, 0x00041040, 0x00040000,
 228:Source\mbedtls_open\library/des.c ****     0x00041040, 0x00040000, 0x10041000, 0x00001000,
 229:Source\mbedtls_open\library/des.c ****     0x00000040, 0x10040040, 0x00001000, 0x00041040,
 230:Source\mbedtls_open\library/des.c ****     0x10001000, 0x00000040, 0x10000040, 0x10040000,
 231:Source\mbedtls_open\library/des.c ****     0x10040040, 0x10000000, 0x00040000, 0x10001040,
 232:Source\mbedtls_open\library/des.c ****     0x00000000, 0x10041040, 0x00040040, 0x10000040,
 233:Source\mbedtls_open\library/des.c ****     0x10040000, 0x10001000, 0x10001040, 0x00000000,
 234:Source\mbedtls_open\library/des.c ****     0x10041040, 0x00041000, 0x00041000, 0x00001040,
 235:Source\mbedtls_open\library/des.c ****     0x00001040, 0x00040040, 0x10000000, 0x10041000
 236:Source\mbedtls_open\library/des.c **** };
 237:Source\mbedtls_open\library/des.c **** 
 238:Source\mbedtls_open\library/des.c **** /*
 239:Source\mbedtls_open\library/des.c ****  * PC1: left and right halves bit-swap
 240:Source\mbedtls_open\library/des.c ****  */
 241:Source\mbedtls_open\library/des.c **** static const uint32_t LHs[16] =
 242:Source\mbedtls_open\library/des.c **** {
 243:Source\mbedtls_open\library/des.c ****     0x00000000, 0x00000001, 0x00000100, 0x00000101,
 244:Source\mbedtls_open\library/des.c ****     0x00010000, 0x00010001, 0x00010100, 0x00010101,
 245:Source\mbedtls_open\library/des.c ****     0x01000000, 0x01000001, 0x01000100, 0x01000101,
 246:Source\mbedtls_open\library/des.c ****     0x01010000, 0x01010001, 0x01010100, 0x01010101
 247:Source\mbedtls_open\library/des.c **** };
 248:Source\mbedtls_open\library/des.c **** 
 249:Source\mbedtls_open\library/des.c **** static const uint32_t RHs[16] =
 250:Source\mbedtls_open\library/des.c **** {
 251:Source\mbedtls_open\library/des.c ****     0x00000000, 0x01000000, 0x00010000, 0x01010000,
 252:Source\mbedtls_open\library/des.c ****     0x00000100, 0x01000100, 0x00010100, 0x01010100,
 253:Source\mbedtls_open\library/des.c ****     0x00000001, 0x01000001, 0x00010001, 0x01010001,
 254:Source\mbedtls_open\library/des.c ****     0x00000101, 0x01000101, 0x00010101, 0x01010101,
 255:Source\mbedtls_open\library/des.c **** };
 256:Source\mbedtls_open\library/des.c **** 
 257:Source\mbedtls_open\library/des.c **** /*
 258:Source\mbedtls_open\library/des.c ****  * Initial Permutation macro
ARM GAS  C:\Users\Phuong\AppData\Local\Temp\ccawWFGQ.s 			page 6


 259:Source\mbedtls_open\library/des.c ****  */
 260:Source\mbedtls_open\library/des.c **** #define DES_IP(X,Y)                                             \
 261:Source\mbedtls_open\library/des.c **** {                                                               \
 262:Source\mbedtls_open\library/des.c ****     T = ((X >>  4) ^ Y) & 0x0F0F0F0F; Y ^= T; X ^= (T <<  4);   \
 263:Source\mbedtls_open\library/des.c ****     T = ((X >> 16) ^ Y) & 0x0000FFFF; Y ^= T; X ^= (T << 16);   \
 264:Source\mbedtls_open\library/des.c ****     T = ((Y >>  2) ^ X) & 0x33333333; X ^= T; Y ^= (T <<  2);   \
 265:Source\mbedtls_open\library/des.c ****     T = ((Y >>  8) ^ X) & 0x00FF00FF; X ^= T; Y ^= (T <<  8);   \
 266:Source\mbedtls_open\library/des.c ****     Y = ((Y << 1) | (Y >> 31)) & 0xFFFFFFFF;                    \
 267:Source\mbedtls_open\library/des.c ****     T = (X ^ Y) & 0xAAAAAAAA; Y ^= T; X ^= T;                   \
 268:Source\mbedtls_open\library/des.c ****     X = ((X << 1) | (X >> 31)) & 0xFFFFFFFF;                    \
 269:Source\mbedtls_open\library/des.c **** }
 270:Source\mbedtls_open\library/des.c **** 
 271:Source\mbedtls_open\library/des.c **** /*
 272:Source\mbedtls_open\library/des.c ****  * Final Permutation macro
 273:Source\mbedtls_open\library/des.c ****  */
 274:Source\mbedtls_open\library/des.c **** #define DES_FP(X,Y)                                             \
 275:Source\mbedtls_open\library/des.c **** {                                                               \
 276:Source\mbedtls_open\library/des.c ****     X = ((X << 31) | (X >> 1)) & 0xFFFFFFFF;                    \
 277:Source\mbedtls_open\library/des.c ****     T = (X ^ Y) & 0xAAAAAAAA; X ^= T; Y ^= T;                   \
 278:Source\mbedtls_open\library/des.c ****     Y = ((Y << 31) | (Y >> 1)) & 0xFFFFFFFF;                    \
 279:Source\mbedtls_open\library/des.c ****     T = ((Y >>  8) ^ X) & 0x00FF00FF; X ^= T; Y ^= (T <<  8);   \
 280:Source\mbedtls_open\library/des.c ****     T = ((Y >>  2) ^ X) & 0x33333333; X ^= T; Y ^= (T <<  2);   \
 281:Source\mbedtls_open\library/des.c ****     T = ((X >> 16) ^ Y) & 0x0000FFFF; Y ^= T; X ^= (T << 16);   \
 282:Source\mbedtls_open\library/des.c ****     T = ((X >>  4) ^ Y) & 0x0F0F0F0F; Y ^= T; X ^= (T <<  4);   \
 283:Source\mbedtls_open\library/des.c **** }
 284:Source\mbedtls_open\library/des.c **** 
 285:Source\mbedtls_open\library/des.c **** /*
 286:Source\mbedtls_open\library/des.c ****  * DES round macro
 287:Source\mbedtls_open\library/des.c ****  */
 288:Source\mbedtls_open\library/des.c **** #define DES_ROUND(X,Y)                          \
 289:Source\mbedtls_open\library/des.c **** {                                               \
 290:Source\mbedtls_open\library/des.c ****     T = *SK++ ^ X;                              \
 291:Source\mbedtls_open\library/des.c ****     Y ^= SB8[ (T      ) & 0x3F ] ^              \
 292:Source\mbedtls_open\library/des.c ****          SB6[ (T >>  8) & 0x3F ] ^              \
 293:Source\mbedtls_open\library/des.c ****          SB4[ (T >> 16) & 0x3F ] ^              \
 294:Source\mbedtls_open\library/des.c ****          SB2[ (T >> 24) & 0x3F ];               \
 295:Source\mbedtls_open\library/des.c ****                                                 \
 296:Source\mbedtls_open\library/des.c ****     T = *SK++ ^ ((X << 28) | (X >> 4));         \
 297:Source\mbedtls_open\library/des.c ****     Y ^= SB7[ (T      ) & 0x3F ] ^              \
 298:Source\mbedtls_open\library/des.c ****          SB5[ (T >>  8) & 0x3F ] ^              \
 299:Source\mbedtls_open\library/des.c ****          SB3[ (T >> 16) & 0x3F ] ^              \
 300:Source\mbedtls_open\library/des.c ****          SB1[ (T >> 24) & 0x3F ];               \
 301:Source\mbedtls_open\library/des.c **** }
 302:Source\mbedtls_open\library/des.c **** 
 303:Source\mbedtls_open\library/des.c **** #define SWAP(a,b) { uint32_t t = a; a = b; b = t; t = 0; }
 304:Source\mbedtls_open\library/des.c **** 
 305:Source\mbedtls_open\library/des.c **** void mbedtls_des_init( mbedtls_des_context *ctx )
 306:Source\mbedtls_open\library/des.c **** {
  28              		.loc 1 306 0
  29              		.cfi_startproc
  30              		@ args = 0, pretend = 0, frame = 0
  31              		@ frame_needed = 0, uses_anonymous_args = 0
  32              	.LVL0:
  33 0000 10B5     		push	{r4, lr}
  34              		.cfi_def_cfa_offset 8
  35              		.cfi_offset 4, -8
  36              		.cfi_offset 14, -4
ARM GAS  C:\Users\Phuong\AppData\Local\Temp\ccawWFGQ.s 			page 7


 307:Source\mbedtls_open\library/des.c ****     memset( ctx, 0, sizeof( mbedtls_des_context ) );
  37              		.loc 1 307 0
  38 0002 8022     		movs	r2, #128
  39 0004 0021     		movs	r1, #0
  40 0006 FFF7FEFF 		bl	memset
  41              	.LVL1:
 308:Source\mbedtls_open\library/des.c **** }
  42              		.loc 1 308 0
  43              		@ sp needed
  44 000a 10BD     		pop	{r4, pc}
  45              		.cfi_endproc
  46              	.LFE1:
  47              		.size	mbedtls_des_init, .-mbedtls_des_init
  48              		.section	.text.mbedtls_des_free,"ax",%progbits
  49              		.align	2
  50              		.global	mbedtls_des_free
  51              		.code	16
  52              		.thumb_func
  53              		.type	mbedtls_des_free, %function
  54              	mbedtls_des_free:
  55              	.LFB2:
 309:Source\mbedtls_open\library/des.c **** 
 310:Source\mbedtls_open\library/des.c **** void mbedtls_des_free( mbedtls_des_context *ctx )
 311:Source\mbedtls_open\library/des.c **** {
  56              		.loc 1 311 0
  57              		.cfi_startproc
  58              		@ args = 0, pretend = 0, frame = 0
  59              		@ frame_needed = 0, uses_anonymous_args = 0
  60              	.LVL2:
  61 0000 10B5     		push	{r4, lr}
  62              		.cfi_def_cfa_offset 8
  63              		.cfi_offset 4, -8
  64              		.cfi_offset 14, -4
 312:Source\mbedtls_open\library/des.c ****     if( ctx == NULL )
  65              		.loc 1 312 0
  66 0002 0028     		cmp	r0, #0
  67 0004 02D0     		beq	.L2
 313:Source\mbedtls_open\library/des.c ****         return;
 314:Source\mbedtls_open\library/des.c **** 
 315:Source\mbedtls_open\library/des.c ****     mbedtls_platform_zeroize( ctx, sizeof( mbedtls_des_context ) );
  68              		.loc 1 315 0
  69 0006 8021     		movs	r1, #128
  70 0008 FFF7FEFF 		bl	mbedtls_platform_zeroize
  71              	.LVL3:
  72              	.L2:
 316:Source\mbedtls_open\library/des.c **** }
  73              		.loc 1 316 0
  74              		@ sp needed
  75 000c 10BD     		pop	{r4, pc}
  76              		.cfi_endproc
  77              	.LFE2:
  78              		.size	mbedtls_des_free, .-mbedtls_des_free
  79 000e C046     		.section	.text.mbedtls_des3_init,"ax",%progbits
  80              		.align	2
  81              		.global	mbedtls_des3_init
  82              		.code	16
  83              		.thumb_func
ARM GAS  C:\Users\Phuong\AppData\Local\Temp\ccawWFGQ.s 			page 8


  84              		.type	mbedtls_des3_init, %function
  85              	mbedtls_des3_init:
  86              	.LFB3:
 317:Source\mbedtls_open\library/des.c **** 
 318:Source\mbedtls_open\library/des.c **** void mbedtls_des3_init( mbedtls_des3_context *ctx )
 319:Source\mbedtls_open\library/des.c **** {
  87              		.loc 1 319 0
  88              		.cfi_startproc
  89              		@ args = 0, pretend = 0, frame = 0
  90              		@ frame_needed = 0, uses_anonymous_args = 0
  91              	.LVL4:
  92 0000 10B5     		push	{r4, lr}
  93              		.cfi_def_cfa_offset 8
  94              		.cfi_offset 4, -8
  95              		.cfi_offset 14, -4
 320:Source\mbedtls_open\library/des.c ****     memset( ctx, 0, sizeof( mbedtls_des3_context ) );
  96              		.loc 1 320 0
  97 0002 C022     		movs	r2, #192
  98 0004 5200     		lsls	r2, r2, #1
  99 0006 0021     		movs	r1, #0
 100 0008 FFF7FEFF 		bl	memset
 101              	.LVL5:
 321:Source\mbedtls_open\library/des.c **** }
 102              		.loc 1 321 0
 103              		@ sp needed
 104 000c 10BD     		pop	{r4, pc}
 105              		.cfi_endproc
 106              	.LFE3:
 107              		.size	mbedtls_des3_init, .-mbedtls_des3_init
 108 000e C046     		.section	.text.mbedtls_des3_free,"ax",%progbits
 109              		.align	2
 110              		.global	mbedtls_des3_free
 111              		.code	16
 112              		.thumb_func
 113              		.type	mbedtls_des3_free, %function
 114              	mbedtls_des3_free:
 115              	.LFB4:
 322:Source\mbedtls_open\library/des.c **** 
 323:Source\mbedtls_open\library/des.c **** void mbedtls_des3_free( mbedtls_des3_context *ctx )
 324:Source\mbedtls_open\library/des.c **** {
 116              		.loc 1 324 0
 117              		.cfi_startproc
 118              		@ args = 0, pretend = 0, frame = 0
 119              		@ frame_needed = 0, uses_anonymous_args = 0
 120              	.LVL6:
 121 0000 10B5     		push	{r4, lr}
 122              		.cfi_def_cfa_offset 8
 123              		.cfi_offset 4, -8
 124              		.cfi_offset 14, -4
 325:Source\mbedtls_open\library/des.c ****     if( ctx == NULL )
 125              		.loc 1 325 0
 126 0002 0028     		cmp	r0, #0
 127 0004 03D0     		beq	.L5
 326:Source\mbedtls_open\library/des.c ****         return;
 327:Source\mbedtls_open\library/des.c **** 
 328:Source\mbedtls_open\library/des.c ****     mbedtls_platform_zeroize( ctx, sizeof( mbedtls_des3_context ) );
 128              		.loc 1 328 0
ARM GAS  C:\Users\Phuong\AppData\Local\Temp\ccawWFGQ.s 			page 9


 129 0006 C021     		movs	r1, #192
 130 0008 4900     		lsls	r1, r1, #1
 131 000a FFF7FEFF 		bl	mbedtls_platform_zeroize
 132              	.LVL7:
 133              	.L5:
 329:Source\mbedtls_open\library/des.c **** }
 134              		.loc 1 329 0
 135              		@ sp needed
 136 000e 10BD     		pop	{r4, pc}
 137              		.cfi_endproc
 138              	.LFE4:
 139              		.size	mbedtls_des3_free, .-mbedtls_des3_free
 140              		.section	.text.mbedtls_des_key_set_parity,"ax",%progbits
 141              		.align	2
 142              		.global	mbedtls_des_key_set_parity
 143              		.code	16
 144              		.thumb_func
 145              		.type	mbedtls_des_key_set_parity, %function
 146              	mbedtls_des_key_set_parity:
 147              	.LFB5:
 330:Source\mbedtls_open\library/des.c **** 
 331:Source\mbedtls_open\library/des.c **** static const unsigned char odd_parity_table[128] = { 1,  2,  4,  7,  8,
 332:Source\mbedtls_open\library/des.c ****         11, 13, 14, 16, 19, 21, 22, 25, 26, 28, 31, 32, 35, 37, 38, 41, 42, 44,
 333:Source\mbedtls_open\library/des.c ****         47, 49, 50, 52, 55, 56, 59, 61, 62, 64, 67, 69, 70, 73, 74, 76, 79, 81,
 334:Source\mbedtls_open\library/des.c ****         82, 84, 87, 88, 91, 93, 94, 97, 98, 100, 103, 104, 107, 109, 110, 112,
 335:Source\mbedtls_open\library/des.c ****         115, 117, 118, 121, 122, 124, 127, 128, 131, 133, 134, 137, 138, 140,
 336:Source\mbedtls_open\library/des.c ****         143, 145, 146, 148, 151, 152, 155, 157, 158, 161, 162, 164, 167, 168,
 337:Source\mbedtls_open\library/des.c ****         171, 173, 174, 176, 179, 181, 182, 185, 186, 188, 191, 193, 194, 196,
 338:Source\mbedtls_open\library/des.c ****         199, 200, 203, 205, 206, 208, 211, 213, 214, 217, 218, 220, 223, 224,
 339:Source\mbedtls_open\library/des.c ****         227, 229, 230, 233, 234, 236, 239, 241, 242, 244, 247, 248, 251, 253,
 340:Source\mbedtls_open\library/des.c ****         254 };
 341:Source\mbedtls_open\library/des.c **** 
 342:Source\mbedtls_open\library/des.c **** void mbedtls_des_key_set_parity( unsigned char key[MBEDTLS_DES_KEY_SIZE] )
 343:Source\mbedtls_open\library/des.c **** {
 148              		.loc 1 343 0
 149              		.cfi_startproc
 150              		@ args = 0, pretend = 0, frame = 0
 151              		@ frame_needed = 0, uses_anonymous_args = 0
 152              	.LVL8:
 153 0000 10B5     		push	{r4, lr}
 154              		.cfi_def_cfa_offset 8
 155              		.cfi_offset 4, -8
 156              		.cfi_offset 14, -4
 157              	.LVL9:
 344:Source\mbedtls_open\library/des.c ****     int i;
 345:Source\mbedtls_open\library/des.c **** 
 346:Source\mbedtls_open\library/des.c ****     for( i = 0; i < MBEDTLS_DES_KEY_SIZE; i++ )
 158              		.loc 1 346 0
 159 0002 0023     		movs	r3, #0
 160 0004 06E0     		b	.L8
 161              	.LVL10:
 162              	.L9:
 347:Source\mbedtls_open\library/des.c ****         key[i] = odd_parity_table[key[i] / 2];
 163              		.loc 1 347 0 discriminator 3
 164 0006 C118     		adds	r1, r0, r3
 165 0008 0A78     		ldrb	r2, [r1]
 166 000a 5208     		lsrs	r2, r2, #1
ARM GAS  C:\Users\Phuong\AppData\Local\Temp\ccawWFGQ.s 			page 10


 167 000c 034C     		ldr	r4, .L10
 168 000e A25C     		ldrb	r2, [r4, r2]
 169 0010 0A70     		strb	r2, [r1]
 346:Source\mbedtls_open\library/des.c ****         key[i] = odd_parity_table[key[i] / 2];
 170              		.loc 1 346 0 discriminator 3
 171 0012 0133     		adds	r3, r3, #1
 172              	.LVL11:
 173              	.L8:
 346:Source\mbedtls_open\library/des.c ****         key[i] = odd_parity_table[key[i] / 2];
 174              		.loc 1 346 0 is_stmt 0 discriminator 1
 175 0014 072B     		cmp	r3, #7
 176 0016 F6DD     		ble	.L9
 348:Source\mbedtls_open\library/des.c **** }
 177              		.loc 1 348 0 is_stmt 1
 178              		@ sp needed
 179 0018 10BD     		pop	{r4, pc}
 180              	.L11:
 181 001a C046     		.align	2
 182              	.L10:
 183 001c 30000000 		.word	.LANCHOR0
 184              		.cfi_endproc
 185              	.LFE5:
 186              		.size	mbedtls_des_key_set_parity, .-mbedtls_des_key_set_parity
 187              		.section	.text.mbedtls_des_key_check_key_parity,"ax",%progbits
 188              		.align	2
 189              		.global	mbedtls_des_key_check_key_parity
 190              		.code	16
 191              		.thumb_func
 192              		.type	mbedtls_des_key_check_key_parity, %function
 193              	mbedtls_des_key_check_key_parity:
 194              	.LFB6:
 349:Source\mbedtls_open\library/des.c **** 
 350:Source\mbedtls_open\library/des.c **** /*
 351:Source\mbedtls_open\library/des.c ****  * Check the given key's parity, returns 1 on failure, 0 on SUCCESS
 352:Source\mbedtls_open\library/des.c ****  */
 353:Source\mbedtls_open\library/des.c **** int mbedtls_des_key_check_key_parity( const unsigned char key[MBEDTLS_DES_KEY_SIZE] )
 354:Source\mbedtls_open\library/des.c **** {
 195              		.loc 1 354 0
 196              		.cfi_startproc
 197              		@ args = 0, pretend = 0, frame = 0
 198              		@ frame_needed = 0, uses_anonymous_args = 0
 199              	.LVL12:
 200 0000 10B5     		push	{r4, lr}
 201              		.cfi_def_cfa_offset 8
 202              		.cfi_offset 4, -8
 203              		.cfi_offset 14, -4
 204              	.LVL13:
 355:Source\mbedtls_open\library/des.c ****     int i;
 356:Source\mbedtls_open\library/des.c **** 
 357:Source\mbedtls_open\library/des.c ****     for( i = 0; i < MBEDTLS_DES_KEY_SIZE; i++ )
 205              		.loc 1 357 0
 206 0002 0023     		movs	r3, #0
 207 0004 06E0     		b	.L13
 208              	.LVL14:
 209              	.L15:
 358:Source\mbedtls_open\library/des.c ****         if( key[i] != odd_parity_table[key[i] / 2] )
 210              		.loc 1 358 0
ARM GAS  C:\Users\Phuong\AppData\Local\Temp\ccawWFGQ.s 			page 11


 211 0006 C25C     		ldrb	r2, [r0, r3]
 212 0008 5108     		lsrs	r1, r2, #1
 213 000a 054C     		ldr	r4, .L17
 214 000c 615C     		ldrb	r1, [r4, r1]
 215 000e 8A42     		cmp	r2, r1
 216 0010 04D1     		bne	.L16
 357:Source\mbedtls_open\library/des.c ****         if( key[i] != odd_parity_table[key[i] / 2] )
 217              		.loc 1 357 0 discriminator 2
 218 0012 0133     		adds	r3, r3, #1
 219              	.LVL15:
 220              	.L13:
 357:Source\mbedtls_open\library/des.c ****         if( key[i] != odd_parity_table[key[i] / 2] )
 221              		.loc 1 357 0 is_stmt 0 discriminator 1
 222 0014 072B     		cmp	r3, #7
 223 0016 F6DD     		ble	.L15
 359:Source\mbedtls_open\library/des.c ****             return( 1 );
 360:Source\mbedtls_open\library/des.c **** 
 361:Source\mbedtls_open\library/des.c ****     return( 0 );
 224              		.loc 1 361 0 is_stmt 1
 225 0018 0020     		movs	r0, #0
 226              	.LVL16:
 227 001a 00E0     		b	.L14
 228              	.LVL17:
 229              	.L16:
 359:Source\mbedtls_open\library/des.c ****             return( 1 );
 230              		.loc 1 359 0
 231 001c 0120     		movs	r0, #1
 232              	.LVL18:
 233              	.L14:
 362:Source\mbedtls_open\library/des.c **** }
 234              		.loc 1 362 0
 235              		@ sp needed
 236 001e 10BD     		pop	{r4, pc}
 237              	.L18:
 238              		.align	2
 239              	.L17:
 240 0020 30000000 		.word	.LANCHOR0
 241              		.cfi_endproc
 242              	.LFE6:
 243              		.size	mbedtls_des_key_check_key_parity, .-mbedtls_des_key_check_key_parity
 244              		.section	.text.mbedtls_des_key_check_weak,"ax",%progbits
 245              		.align	2
 246              		.global	mbedtls_des_key_check_weak
 247              		.code	16
 248              		.thumb_func
 249              		.type	mbedtls_des_key_check_weak, %function
 250              	mbedtls_des_key_check_weak:
 251              	.LFB7:
 363:Source\mbedtls_open\library/des.c **** 
 364:Source\mbedtls_open\library/des.c **** /*
 365:Source\mbedtls_open\library/des.c ****  * Table of weak and semi-weak keys
 366:Source\mbedtls_open\library/des.c ****  *
 367:Source\mbedtls_open\library/des.c ****  * Source: http://en.wikipedia.org/wiki/Weak_key
 368:Source\mbedtls_open\library/des.c ****  *
 369:Source\mbedtls_open\library/des.c ****  * Weak:
 370:Source\mbedtls_open\library/des.c ****  * Alternating ones + zeros (0x0101010101010101)
 371:Source\mbedtls_open\library/des.c ****  * Alternating 'F' + 'E' (0xFEFEFEFEFEFEFEFE)
ARM GAS  C:\Users\Phuong\AppData\Local\Temp\ccawWFGQ.s 			page 12


 372:Source\mbedtls_open\library/des.c ****  * '0xE0E0E0E0F1F1F1F1'
 373:Source\mbedtls_open\library/des.c ****  * '0x1F1F1F1F0E0E0E0E'
 374:Source\mbedtls_open\library/des.c ****  *
 375:Source\mbedtls_open\library/des.c ****  * Semi-weak:
 376:Source\mbedtls_open\library/des.c ****  * 0x011F011F010E010E and 0x1F011F010E010E01
 377:Source\mbedtls_open\library/des.c ****  * 0x01E001E001F101F1 and 0xE001E001F101F101
 378:Source\mbedtls_open\library/des.c ****  * 0x01FE01FE01FE01FE and 0xFE01FE01FE01FE01
 379:Source\mbedtls_open\library/des.c ****  * 0x1FE01FE00EF10EF1 and 0xE01FE01FF10EF10E
 380:Source\mbedtls_open\library/des.c ****  * 0x1FFE1FFE0EFE0EFE and 0xFE1FFE1FFE0EFE0E
 381:Source\mbedtls_open\library/des.c ****  * 0xE0FEE0FEF1FEF1FE and 0xFEE0FEE0FEF1FEF1
 382:Source\mbedtls_open\library/des.c ****  *
 383:Source\mbedtls_open\library/des.c ****  */
 384:Source\mbedtls_open\library/des.c **** 
 385:Source\mbedtls_open\library/des.c **** #define WEAK_KEY_COUNT 16
 386:Source\mbedtls_open\library/des.c **** 
 387:Source\mbedtls_open\library/des.c **** static const unsigned char weak_key_table[WEAK_KEY_COUNT][MBEDTLS_DES_KEY_SIZE] =
 388:Source\mbedtls_open\library/des.c **** {
 389:Source\mbedtls_open\library/des.c ****     { 0x01, 0x01, 0x01, 0x01, 0x01, 0x01, 0x01, 0x01 },
 390:Source\mbedtls_open\library/des.c ****     { 0xFE, 0xFE, 0xFE, 0xFE, 0xFE, 0xFE, 0xFE, 0xFE },
 391:Source\mbedtls_open\library/des.c ****     { 0x1F, 0x1F, 0x1F, 0x1F, 0x0E, 0x0E, 0x0E, 0x0E },
 392:Source\mbedtls_open\library/des.c ****     { 0xE0, 0xE0, 0xE0, 0xE0, 0xF1, 0xF1, 0xF1, 0xF1 },
 393:Source\mbedtls_open\library/des.c **** 
 394:Source\mbedtls_open\library/des.c ****     { 0x01, 0x1F, 0x01, 0x1F, 0x01, 0x0E, 0x01, 0x0E },
 395:Source\mbedtls_open\library/des.c ****     { 0x1F, 0x01, 0x1F, 0x01, 0x0E, 0x01, 0x0E, 0x01 },
 396:Source\mbedtls_open\library/des.c ****     { 0x01, 0xE0, 0x01, 0xE0, 0x01, 0xF1, 0x01, 0xF1 },
 397:Source\mbedtls_open\library/des.c ****     { 0xE0, 0x01, 0xE0, 0x01, 0xF1, 0x01, 0xF1, 0x01 },
 398:Source\mbedtls_open\library/des.c ****     { 0x01, 0xFE, 0x01, 0xFE, 0x01, 0xFE, 0x01, 0xFE },
 399:Source\mbedtls_open\library/des.c ****     { 0xFE, 0x01, 0xFE, 0x01, 0xFE, 0x01, 0xFE, 0x01 },
 400:Source\mbedtls_open\library/des.c ****     { 0x1F, 0xE0, 0x1F, 0xE0, 0x0E, 0xF1, 0x0E, 0xF1 },
 401:Source\mbedtls_open\library/des.c ****     { 0xE0, 0x1F, 0xE0, 0x1F, 0xF1, 0x0E, 0xF1, 0x0E },
 402:Source\mbedtls_open\library/des.c ****     { 0x1F, 0xFE, 0x1F, 0xFE, 0x0E, 0xFE, 0x0E, 0xFE },
 403:Source\mbedtls_open\library/des.c ****     { 0xFE, 0x1F, 0xFE, 0x1F, 0xFE, 0x0E, 0xFE, 0x0E },
 404:Source\mbedtls_open\library/des.c ****     { 0xE0, 0xFE, 0xE0, 0xFE, 0xF1, 0xFE, 0xF1, 0xFE },
 405:Source\mbedtls_open\library/des.c ****     { 0xFE, 0xE0, 0xFE, 0xE0, 0xFE, 0xF1, 0xFE, 0xF1 }
 406:Source\mbedtls_open\library/des.c **** };
 407:Source\mbedtls_open\library/des.c **** 
 408:Source\mbedtls_open\library/des.c **** int mbedtls_des_key_check_weak( const unsigned char key[MBEDTLS_DES_KEY_SIZE] )
 409:Source\mbedtls_open\library/des.c **** {
 252              		.loc 1 409 0
 253              		.cfi_startproc
 254              		@ args = 0, pretend = 0, frame = 0
 255              		@ frame_needed = 0, uses_anonymous_args = 0
 256              	.LVL19:
 257 0000 70B5     		push	{r4, r5, r6, lr}
 258              		.cfi_def_cfa_offset 16
 259              		.cfi_offset 4, -16
 260              		.cfi_offset 5, -12
 261              		.cfi_offset 6, -8
 262              		.cfi_offset 14, -4
 263 0002 0400     		movs	r4, r0
 264              	.LVL20:
 410:Source\mbedtls_open\library/des.c ****     int i;
 411:Source\mbedtls_open\library/des.c **** 
 412:Source\mbedtls_open\library/des.c ****     for( i = 0; i < WEAK_KEY_COUNT; i++ )
 265              		.loc 1 412 0
 266 0004 0025     		movs	r5, #0
 267 0006 09E0     		b	.L20
ARM GAS  C:\Users\Phuong\AppData\Local\Temp\ccawWFGQ.s 			page 13


 268              	.LVL21:
 269              	.L22:
 413:Source\mbedtls_open\library/des.c ****         if( memcmp( weak_key_table[i], key, MBEDTLS_DES_KEY_SIZE) == 0 )
 270              		.loc 1 413 0
 271 0008 EB00     		lsls	r3, r5, #3
 272 000a 0748     		ldr	r0, .L24
 273 000c C018     		adds	r0, r0, r3
 274 000e 0822     		movs	r2, #8
 275 0010 2100     		movs	r1, r4
 276 0012 FFF7FEFF 		bl	memcmp
 277              	.LVL22:
 278 0016 0028     		cmp	r0, #0
 279 0018 04D0     		beq	.L23
 412:Source\mbedtls_open\library/des.c ****         if( memcmp( weak_key_table[i], key, MBEDTLS_DES_KEY_SIZE) == 0 )
 280              		.loc 1 412 0 discriminator 2
 281 001a 0135     		adds	r5, r5, #1
 282              	.LVL23:
 283              	.L20:
 412:Source\mbedtls_open\library/des.c ****         if( memcmp( weak_key_table[i], key, MBEDTLS_DES_KEY_SIZE) == 0 )
 284              		.loc 1 412 0 is_stmt 0 discriminator 1
 285 001c 0F2D     		cmp	r5, #15
 286 001e F3DD     		ble	.L22
 414:Source\mbedtls_open\library/des.c ****             return( 1 );
 415:Source\mbedtls_open\library/des.c **** 
 416:Source\mbedtls_open\library/des.c ****     return( 0 );
 287              		.loc 1 416 0 is_stmt 1
 288 0020 0020     		movs	r0, #0
 289 0022 00E0     		b	.L21
 290              	.L23:
 414:Source\mbedtls_open\library/des.c ****             return( 1 );
 291              		.loc 1 414 0
 292 0024 0120     		movs	r0, #1
 293              	.L21:
 417:Source\mbedtls_open\library/des.c **** }
 294              		.loc 1 417 0
 295              		@ sp needed
 296              	.LVL24:
 297              	.LVL25:
 298 0026 70BD     		pop	{r4, r5, r6, pc}
 299              	.L25:
 300              		.align	2
 301              	.L24:
 302 0028 B0000000 		.word	.LANCHOR1
 303              		.cfi_endproc
 304              	.LFE7:
 305              		.size	mbedtls_des_key_check_weak, .-mbedtls_des_key_check_weak
 306              		.section	.text.mbedtls_des_setkey,"ax",%progbits
 307              		.align	2
 308              		.global	mbedtls_des_setkey
 309              		.code	16
 310              		.thumb_func
 311              		.type	mbedtls_des_setkey, %function
 312              	mbedtls_des_setkey:
 313              	.LFB8:
 418:Source\mbedtls_open\library/des.c **** 
 419:Source\mbedtls_open\library/des.c **** #if !defined(MBEDTLS_DES_SETKEY_ALT)
 420:Source\mbedtls_open\library/des.c **** void mbedtls_des_setkey( uint32_t SK[32], const unsigned char key[MBEDTLS_DES_KEY_SIZE] )
ARM GAS  C:\Users\Phuong\AppData\Local\Temp\ccawWFGQ.s 			page 14


 421:Source\mbedtls_open\library/des.c **** {
 314              		.loc 1 421 0
 315              		.cfi_startproc
 316              		@ args = 0, pretend = 0, frame = 0
 317              		@ frame_needed = 0, uses_anonymous_args = 0
 318              	.LVL26:
 319 0000 F0B5     		push	{r4, r5, r6, r7, lr}
 320              		.cfi_def_cfa_offset 20
 321              		.cfi_offset 4, -20
 322              		.cfi_offset 5, -16
 323              		.cfi_offset 6, -12
 324              		.cfi_offset 7, -8
 325              		.cfi_offset 14, -4
 326 0002 5F46     		mov	r7, fp
 327 0004 5646     		mov	r6, r10
 328 0006 4D46     		mov	r5, r9
 329 0008 4446     		mov	r4, r8
 330 000a F0B4     		push	{r4, r5, r6, r7}
 331              		.cfi_def_cfa_offset 36
 332              		.cfi_offset 8, -36
 333              		.cfi_offset 9, -32
 334              		.cfi_offset 10, -28
 335              		.cfi_offset 11, -24
 336 000c 8246     		mov	r10, r0
 422:Source\mbedtls_open\library/des.c ****     int i;
 423:Source\mbedtls_open\library/des.c ****     uint32_t X, Y, T;
 424:Source\mbedtls_open\library/des.c **** 
 425:Source\mbedtls_open\library/des.c ****     GET_UINT32_BE( X, key, 0 );
 337              		.loc 1 425 0
 338 000e 0B78     		ldrb	r3, [r1]
 339 0010 1C06     		lsls	r4, r3, #24
 340 0012 4B78     		ldrb	r3, [r1, #1]
 341 0014 1B04     		lsls	r3, r3, #16
 342 0016 2343     		orrs	r3, r4
 343 0018 8A78     		ldrb	r2, [r1, #2]
 344 001a 1202     		lsls	r2, r2, #8
 345 001c 1343     		orrs	r3, r2
 346 001e CC78     		ldrb	r4, [r1, #3]
 347 0020 2343     		orrs	r3, r4
 348              	.LVL27:
 426:Source\mbedtls_open\library/des.c ****     GET_UINT32_BE( Y, key, 4 );
 349              		.loc 1 426 0
 350 0022 0A79     		ldrb	r2, [r1, #4]
 351 0024 1006     		lsls	r0, r2, #24
 352              	.LVL28:
 353 0026 4A79     		ldrb	r2, [r1, #5]
 354 0028 1204     		lsls	r2, r2, #16
 355 002a 0243     		orrs	r2, r0
 356 002c 8879     		ldrb	r0, [r1, #6]
 357 002e 0002     		lsls	r0, r0, #8
 358 0030 0243     		orrs	r2, r0
 359 0032 C979     		ldrb	r1, [r1, #7]
 360              	.LVL29:
 361 0034 0A43     		orrs	r2, r1
 362              	.LVL30:
 427:Source\mbedtls_open\library/des.c **** 
 428:Source\mbedtls_open\library/des.c ****     /*
ARM GAS  C:\Users\Phuong\AppData\Local\Temp\ccawWFGQ.s 			page 15


 429:Source\mbedtls_open\library/des.c ****      * Permuted Choice 1
 430:Source\mbedtls_open\library/des.c ****      */
 431:Source\mbedtls_open\library/des.c ****     T =  ((Y >>  4) ^ X) & 0x0F0F0F0F;  X ^= T; Y ^= (T <<  4);
 363              		.loc 1 431 0
 364 0036 1009     		lsrs	r0, r2, #4
 365 0038 5840     		eors	r0, r3
 366 003a C04C     		ldr	r4, .L32
 367 003c 2040     		ands	r0, r4
 368              	.LVL31:
 369 003e 4340     		eors	r3, r0
 370              	.LVL32:
 371 0040 1C00     		movs	r4, r3
 372              	.LVL33:
 373 0042 0001     		lsls	r0, r0, #4
 374              	.LVL34:
 375 0044 4240     		eors	r2, r0
 376              	.LVL35:
 432:Source\mbedtls_open\library/des.c ****     T =  ((Y      ) ^ X) & 0x10101010;  X ^= T; Y ^= (T      );
 377              		.loc 1 432 0
 378 0046 1900     		movs	r1, r3
 379              	.LVL36:
 380 0048 5140     		eors	r1, r2
 381 004a BD4B     		ldr	r3, .L32+4
 382              	.LVL37:
 383 004c 1940     		ands	r1, r3
 384              	.LVL38:
 385 004e 2300     		movs	r3, r4
 386 0050 4B40     		eors	r3, r1
 387              	.LVL39:
 388 0052 5140     		eors	r1, r2
 389              	.LVL40:
 433:Source\mbedtls_open\library/des.c **** 
 434:Source\mbedtls_open\library/des.c ****     X =   (LHs[ (X      ) & 0xF] << 3) | (LHs[ (X >>  8) & 0xF ] << 2)
 390              		.loc 1 434 0
 391 0054 0F24     		movs	r4, #15
 392              	.LVL41:
 393 0056 2200     		movs	r2, r4
 394              	.LVL42:
 395 0058 1A40     		ands	r2, r3
 396 005a BA48     		ldr	r0, .L32+8
 397              	.LVL43:
 398 005c 9200     		lsls	r2, r2, #2
 399 005e 1558     		ldr	r5, [r2, r0]
 400 0060 ED00     		lsls	r5, r5, #3
 401 0062 1A0A     		lsrs	r2, r3, #8
 402 0064 2240     		ands	r2, r4
 403 0066 9200     		lsls	r2, r2, #2
 404 0068 1258     		ldr	r2, [r2, r0]
 405 006a 9200     		lsls	r2, r2, #2
 406 006c 1543     		orrs	r5, r2
 435:Source\mbedtls_open\library/des.c ****         | (LHs[ (X >> 16) & 0xF] << 1) | (LHs[ (X >> 24) & 0xF ]     )
 407              		.loc 1 435 0
 408 006e 1A0C     		lsrs	r2, r3, #16
 409 0070 2240     		ands	r2, r4
 410 0072 9200     		lsls	r2, r2, #2
 411 0074 1258     		ldr	r2, [r2, r0]
 412 0076 5200     		lsls	r2, r2, #1
ARM GAS  C:\Users\Phuong\AppData\Local\Temp\ccawWFGQ.s 			page 16


 413 0078 1543     		orrs	r5, r2
 414 007a 1A0E     		lsrs	r2, r3, #24
 415 007c 2240     		ands	r2, r4
 416 007e 9200     		lsls	r2, r2, #2
 417 0080 1658     		ldr	r6, [r2, r0]
 418 0082 3543     		orrs	r5, r6
 436:Source\mbedtls_open\library/des.c ****         | (LHs[ (X >>  5) & 0xF] << 7) | (LHs[ (X >> 13) & 0xF ] << 6)
 419              		.loc 1 436 0
 420 0084 5A09     		lsrs	r2, r3, #5
 421 0086 2240     		ands	r2, r4
 422 0088 9200     		lsls	r2, r2, #2
 423 008a 1258     		ldr	r2, [r2, r0]
 424 008c D201     		lsls	r2, r2, #7
 425 008e 1543     		orrs	r5, r2
 426 0090 5A0B     		lsrs	r2, r3, #13
 427 0092 2240     		ands	r2, r4
 428 0094 9200     		lsls	r2, r2, #2
 429 0096 1258     		ldr	r2, [r2, r0]
 430 0098 9201     		lsls	r2, r2, #6
 431 009a 1543     		orrs	r5, r2
 437:Source\mbedtls_open\library/des.c ****         | (LHs[ (X >> 21) & 0xF] << 5) | (LHs[ (X >> 29) & 0xF ] << 4);
 432              		.loc 1 437 0
 433 009c 5A0D     		lsrs	r2, r3, #21
 434 009e 2240     		ands	r2, r4
 435 00a0 9200     		lsls	r2, r2, #2
 436 00a2 1258     		ldr	r2, [r2, r0]
 437 00a4 5201     		lsls	r2, r2, #5
 438 00a6 1543     		orrs	r5, r2
 439 00a8 2E00     		movs	r6, r5
 440 00aa 5A0F     		lsrs	r2, r3, #29
 441 00ac 9200     		lsls	r2, r2, #2
 442 00ae 1558     		ldr	r5, [r2, r0]
 443 00b0 2D01     		lsls	r5, r5, #4
 434:Source\mbedtls_open\library/des.c ****         | (LHs[ (X >> 16) & 0xF] << 1) | (LHs[ (X >> 24) & 0xF ]     )
 444              		.loc 1 434 0
 445 00b2 3543     		orrs	r5, r6
 446              	.LVL44:
 438:Source\mbedtls_open\library/des.c **** 
 439:Source\mbedtls_open\library/des.c ****     Y =   (RHs[ (Y >>  1) & 0xF] << 3) | (RHs[ (Y >>  9) & 0xF ] << 2)
 447              		.loc 1 439 0
 448 00b4 4B08     		lsrs	r3, r1, #1
 449 00b6 2340     		ands	r3, r4
 450 00b8 9B00     		lsls	r3, r3, #2
 451 00ba C318     		adds	r3, r0, r3
 452 00bc 1A6C     		ldr	r2, [r3, #64]
 453 00be D200     		lsls	r2, r2, #3
 454 00c0 4B0A     		lsrs	r3, r1, #9
 455 00c2 2340     		ands	r3, r4
 456 00c4 9B00     		lsls	r3, r3, #2
 457 00c6 C318     		adds	r3, r0, r3
 458 00c8 1B6C     		ldr	r3, [r3, #64]
 459 00ca 9B00     		lsls	r3, r3, #2
 460 00cc 1A43     		orrs	r2, r3
 440:Source\mbedtls_open\library/des.c ****         | (RHs[ (Y >> 17) & 0xF] << 1) | (RHs[ (Y >> 25) & 0xF ]     )
 461              		.loc 1 440 0
 462 00ce 4B0C     		lsrs	r3, r1, #17
 463 00d0 2340     		ands	r3, r4
ARM GAS  C:\Users\Phuong\AppData\Local\Temp\ccawWFGQ.s 			page 17


 464 00d2 9B00     		lsls	r3, r3, #2
 465 00d4 C318     		adds	r3, r0, r3
 466 00d6 1E6C     		ldr	r6, [r3, #64]
 467 00d8 7600     		lsls	r6, r6, #1
 468 00da 3243     		orrs	r2, r6
 469 00dc 4B0E     		lsrs	r3, r1, #25
 470 00de 2340     		ands	r3, r4
 471 00e0 9B00     		lsls	r3, r3, #2
 472 00e2 C318     		adds	r3, r0, r3
 473 00e4 1B6C     		ldr	r3, [r3, #64]
 474 00e6 1343     		orrs	r3, r2
 441:Source\mbedtls_open\library/des.c ****         | (RHs[ (Y >>  4) & 0xF] << 7) | (RHs[ (Y >> 12) & 0xF ] << 6)
 475              		.loc 1 441 0
 476 00e8 0A09     		lsrs	r2, r1, #4
 477 00ea 2240     		ands	r2, r4
 478 00ec 9200     		lsls	r2, r2, #2
 479 00ee 8218     		adds	r2, r0, r2
 480 00f0 126C     		ldr	r2, [r2, #64]
 481 00f2 D201     		lsls	r2, r2, #7
 482 00f4 1343     		orrs	r3, r2
 483 00f6 0A0B     		lsrs	r2, r1, #12
 484 00f8 2240     		ands	r2, r4
 485 00fa 9200     		lsls	r2, r2, #2
 486 00fc 8218     		adds	r2, r0, r2
 487 00fe 126C     		ldr	r2, [r2, #64]
 488 0100 9201     		lsls	r2, r2, #6
 489 0102 1343     		orrs	r3, r2
 442:Source\mbedtls_open\library/des.c ****         | (RHs[ (Y >> 20) & 0xF] << 5) | (RHs[ (Y >> 28) & 0xF ] << 4);
 490              		.loc 1 442 0
 491 0104 0A0D     		lsrs	r2, r1, #20
 492 0106 1440     		ands	r4, r2
 493 0108 A400     		lsls	r4, r4, #2
 494 010a 0419     		adds	r4, r0, r4
 495 010c 226C     		ldr	r2, [r4, #64]
 496 010e 5201     		lsls	r2, r2, #5
 497 0110 1343     		orrs	r3, r2
 498 0112 1C00     		movs	r4, r3
 499 0114 0B0F     		lsrs	r3, r1, #28
 500 0116 9B00     		lsls	r3, r3, #2
 501 0118 C318     		adds	r3, r0, r3
 502 011a 1A6C     		ldr	r2, [r3, #64]
 503 011c 1201     		lsls	r2, r2, #4
 439:Source\mbedtls_open\library/des.c ****         | (RHs[ (Y >> 17) & 0xF] << 1) | (RHs[ (Y >> 25) & 0xF ]     )
 504              		.loc 1 439 0
 505 011e 2300     		movs	r3, r4
 506 0120 1343     		orrs	r3, r2
 507              	.LVL45:
 443:Source\mbedtls_open\library/des.c **** 
 444:Source\mbedtls_open\library/des.c ****     X &= 0x0FFFFFFF;
 508              		.loc 1 444 0
 509 0122 2D01     		lsls	r5, r5, #4
 510              	.LVL46:
 511 0124 2A09     		lsrs	r2, r5, #4
 512              	.LVL47:
 445:Source\mbedtls_open\library/des.c ****     Y &= 0x0FFFFFFF;
 513              		.loc 1 445 0
 514 0126 1B01     		lsls	r3, r3, #4
ARM GAS  C:\Users\Phuong\AppData\Local\Temp\ccawWFGQ.s 			page 18


 515              	.LVL48:
 516 0128 1B09     		lsrs	r3, r3, #4
 517 012a 9846     		mov	r8, r3
 518              	.LVL49:
 446:Source\mbedtls_open\library/des.c **** 
 447:Source\mbedtls_open\library/des.c ****     /*
 448:Source\mbedtls_open\library/des.c ****      * calculate subkeys
 449:Source\mbedtls_open\library/des.c ****      */
 450:Source\mbedtls_open\library/des.c ****     for( i = 0; i < 16; i++ )
 519              		.loc 1 450 0
 520 012c 0023     		movs	r3, #0
 521              	.LVL50:
 522 012e 1F00     		movs	r7, r3
 523 0130 1300     		movs	r3, r2
 524 0132 4246     		mov	r2, r8
 525              	.LVL51:
 526 0134 F9E0     		b	.L27
 527              	.LVL52:
 528              	.L31:
 451:Source\mbedtls_open\library/des.c ****     {
 452:Source\mbedtls_open\library/des.c ****         if( i < 2 || i == 8 || i == 15 )
 529              		.loc 1 452 0
 530 0136 012F     		cmp	r7, #1
 531 0138 03DD     		ble	.L28
 532              		.loc 1 452 0 is_stmt 0 discriminator 1
 533 013a 082F     		cmp	r7, #8
 534 013c 01D0     		beq	.L28
 535              		.loc 1 452 0 discriminator 2
 536 013e 0F2F     		cmp	r7, #15
 537 0140 0AD1     		bne	.L29
 538              	.L28:
 453:Source\mbedtls_open\library/des.c ****         {
 454:Source\mbedtls_open\library/des.c ****             X = ((X <<  1) | (X >> 27)) & 0x0FFFFFFF;
 539              		.loc 1 454 0 is_stmt 1
 540 0142 5900     		lsls	r1, r3, #1
 541 0144 DB0E     		lsrs	r3, r3, #27
 542              	.LVL53:
 543 0146 0B43     		orrs	r3, r1
 544 0148 1B01     		lsls	r3, r3, #4
 545 014a 1B09     		lsrs	r3, r3, #4
 546              	.LVL54:
 455:Source\mbedtls_open\library/des.c ****             Y = ((Y <<  1) | (Y >> 27)) & 0x0FFFFFFF;
 547              		.loc 1 455 0
 548 014c 5100     		lsls	r1, r2, #1
 549 014e D20E     		lsrs	r2, r2, #27
 550              	.LVL55:
 551 0150 0A43     		orrs	r2, r1
 552 0152 1201     		lsls	r2, r2, #4
 553 0154 1209     		lsrs	r2, r2, #4
 554              	.LVL56:
 555 0156 09E0     		b	.L30
 556              	.L29:
 456:Source\mbedtls_open\library/des.c ****         }
 457:Source\mbedtls_open\library/des.c ****         else
 458:Source\mbedtls_open\library/des.c ****         {
 459:Source\mbedtls_open\library/des.c ****             X = ((X <<  2) | (X >> 26)) & 0x0FFFFFFF;
 557              		.loc 1 459 0
ARM GAS  C:\Users\Phuong\AppData\Local\Temp\ccawWFGQ.s 			page 19


 558 0158 9900     		lsls	r1, r3, #2
 559 015a 9B0E     		lsrs	r3, r3, #26
 560              	.LVL57:
 561 015c 0B43     		orrs	r3, r1
 562 015e 1B01     		lsls	r3, r3, #4
 563 0160 1B09     		lsrs	r3, r3, #4
 564              	.LVL58:
 460:Source\mbedtls_open\library/des.c ****             Y = ((Y <<  2) | (Y >> 26)) & 0x0FFFFFFF;
 565              		.loc 1 460 0
 566 0162 9100     		lsls	r1, r2, #2
 567 0164 920E     		lsrs	r2, r2, #26
 568              	.LVL59:
 569 0166 0A43     		orrs	r2, r1
 570 0168 1201     		lsls	r2, r2, #4
 571 016a 1209     		lsrs	r2, r2, #4
 572              	.LVL60:
 573              	.L30:
 461:Source\mbedtls_open\library/des.c ****         }
 462:Source\mbedtls_open\library/des.c **** 
 463:Source\mbedtls_open\library/des.c ****         *SK++ =   ((X <<  4) & 0x24000000) | ((X << 28) & 0x10000000)
 574              		.loc 1 463 0 discriminator 2
 575 016c 1D01     		lsls	r5, r3, #4
 576 016e 9021     		movs	r1, #144
 577 0170 8905     		lsls	r1, r1, #22
 578 0172 0D40     		ands	r5, r1
 579 0174 1907     		lsls	r1, r3, #28
 580 0176 8024     		movs	r4, #128
 581 0178 6405     		lsls	r4, r4, #21
 582 017a 2140     		ands	r1, r4
 583 017c 0D43     		orrs	r5, r1
 464:Source\mbedtls_open\library/des.c ****                 | ((X << 14) & 0x08000000) | ((X << 18) & 0x02080000)
 584              		.loc 1 464 0 discriminator 2
 585 017e 9903     		lsls	r1, r3, #14
 586 0180 8020     		movs	r0, #128
 587 0182 0005     		lsls	r0, r0, #20
 588 0184 0140     		ands	r1, r0
 589 0186 0D43     		orrs	r5, r1
 590 0188 9904     		lsls	r1, r3, #18
 591 018a 8226     		movs	r6, #130
 592 018c B604     		lsls	r6, r6, #18
 593 018e 3140     		ands	r1, r6
 594 0190 0D43     		orrs	r5, r1
 465:Source\mbedtls_open\library/des.c ****                 | ((X <<  6) & 0x01000000) | ((X <<  9) & 0x00200000)
 595              		.loc 1 465 0 discriminator 2
 596 0192 9E01     		lsls	r6, r3, #6
 597 0194 8021     		movs	r1, #128
 598 0196 4904     		lsls	r1, r1, #17
 599 0198 0E40     		ands	r6, r1
 600 019a 3543     		orrs	r5, r6
 601 019c 5E02     		lsls	r6, r3, #9
 602 019e 8021     		movs	r1, #128
 603 01a0 8903     		lsls	r1, r1, #14
 604 01a2 0E40     		ands	r6, r1
 605 01a4 3543     		orrs	r5, r6
 466:Source\mbedtls_open\library/des.c ****                 | ((X >>  1) & 0x00100000) | ((X << 10) & 0x00040000)
 606              		.loc 1 466 0 discriminator 2
 607 01a6 5E08     		lsrs	r6, r3, #1
ARM GAS  C:\Users\Phuong\AppData\Local\Temp\ccawWFGQ.s 			page 20


 608 01a8 8021     		movs	r1, #128
 609 01aa 4903     		lsls	r1, r1, #13
 610 01ac 0E40     		ands	r6, r1
 611 01ae 3543     		orrs	r5, r6
 612 01b0 9902     		lsls	r1, r3, #10
 613 01b2 8946     		mov	r9, r1
 614 01b4 8021     		movs	r1, #128
 615 01b6 C902     		lsls	r1, r1, #11
 616 01b8 4E46     		mov	r6, r9
 617 01ba 3140     		ands	r1, r6
 618 01bc 0D43     		orrs	r5, r1
 467:Source\mbedtls_open\library/des.c ****                 | ((X <<  2) & 0x00020000) | ((X >> 10) & 0x00010000)
 619              		.loc 1 467 0 discriminator 2
 620 01be 9900     		lsls	r1, r3, #2
 621 01c0 8026     		movs	r6, #128
 622 01c2 B602     		lsls	r6, r6, #10
 623 01c4 0E40     		ands	r6, r1
 624 01c6 2900     		movs	r1, r5
 625 01c8 3143     		orrs	r1, r6
 626 01ca 9E0A     		lsrs	r6, r3, #10
 627 01cc 8025     		movs	r5, #128
 628 01ce 6D02     		lsls	r5, r5, #9
 629 01d0 2E40     		ands	r6, r5
 630 01d2 3143     		orrs	r1, r6
 631 01d4 0D00     		movs	r5, r1
 468:Source\mbedtls_open\library/des.c ****                 | ((Y >> 13) & 0x00002000) | ((Y >>  4) & 0x00001000)
 632              		.loc 1 468 0 discriminator 2
 633 01d6 510B     		lsrs	r1, r2, #13
 634 01d8 8026     		movs	r6, #128
 635 01da B601     		lsls	r6, r6, #6
 636 01dc 3140     		ands	r1, r6
 637 01de 0D43     		orrs	r5, r1
 638 01e0 2E00     		movs	r6, r5
 639 01e2 1509     		lsrs	r5, r2, #4
 640 01e4 8021     		movs	r1, #128
 641 01e6 4901     		lsls	r1, r1, #5
 642 01e8 0D40     		ands	r5, r1
 643 01ea 3100     		movs	r1, r6
 644 01ec 2943     		orrs	r1, r5
 469:Source\mbedtls_open\library/des.c ****                 | ((Y <<  6) & 0x00000800) | ((Y >>  1) & 0x00000400)
 645              		.loc 1 469 0 discriminator 2
 646 01ee 9601     		lsls	r6, r2, #6
 647 01f0 8025     		movs	r5, #128
 648 01f2 2D01     		lsls	r5, r5, #4
 649 01f4 2E40     		ands	r6, r5
 650 01f6 3143     		orrs	r1, r6
 651 01f8 0D00     		movs	r5, r1
 652 01fa 5608     		lsrs	r6, r2, #1
 653 01fc 8021     		movs	r1, #128
 654 01fe C900     		lsls	r1, r1, #3
 655 0200 0E40     		ands	r6, r1
 656 0202 2E43     		orrs	r6, r5
 470:Source\mbedtls_open\library/des.c ****                 | ((Y >> 14) & 0x00000200) | ((Y      ) & 0x00000100)
 657              		.loc 1 470 0 discriminator 2
 658 0204 910B     		lsrs	r1, r2, #14
 659 0206 8C46     		mov	ip, r1
 660 0208 8021     		movs	r1, #128
ARM GAS  C:\Users\Phuong\AppData\Local\Temp\ccawWFGQ.s 			page 21


 661 020a 8900     		lsls	r1, r1, #2
 662 020c 6546     		mov	r5, ip
 663 020e 2940     		ands	r1, r5
 664 0210 0E43     		orrs	r6, r1
 665 0212 8021     		movs	r1, #128
 666 0214 4900     		lsls	r1, r1, #1
 667 0216 1140     		ands	r1, r2
 668 0218 0E43     		orrs	r6, r1
 471:Source\mbedtls_open\library/des.c ****                 | ((Y >>  5) & 0x00000020) | ((Y >> 10) & 0x00000010)
 669              		.loc 1 471 0 discriminator 2
 670 021a 5109     		lsrs	r1, r2, #5
 671 021c 2025     		movs	r5, #32
 672 021e 0D40     		ands	r5, r1
 673 0220 3100     		movs	r1, r6
 674 0222 2943     		orrs	r1, r5
 675 0224 950A     		lsrs	r5, r2, #10
 676 0226 1026     		movs	r6, #16
 677 0228 3540     		ands	r5, r6
 678 022a 2943     		orrs	r1, r5
 679 022c 0E00     		movs	r6, r1
 472:Source\mbedtls_open\library/des.c ****                 | ((Y >>  3) & 0x00000008) | ((Y >> 18) & 0x00000004)
 680              		.loc 1 472 0 discriminator 2
 681 022e D108     		lsrs	r1, r2, #3
 682 0230 0825     		movs	r5, #8
 683 0232 0D40     		ands	r5, r1
 684 0234 3543     		orrs	r5, r6
 685 0236 960C     		lsrs	r6, r2, #18
 686 0238 0420     		movs	r0, #4
 687 023a 8046     		mov	r8, r0
 688 023c 0640     		ands	r6, r0
 689 023e 3543     		orrs	r5, r6
 473:Source\mbedtls_open\library/des.c ****                 | ((Y >> 26) & 0x00000002) | ((Y >> 24) & 0x00000001);
 690              		.loc 1 473 0 discriminator 2
 691 0240 960E     		lsrs	r6, r2, #26
 692 0242 0238     		subs	r0, r0, #2
 693 0244 0640     		ands	r6, r0
 694 0246 2E43     		orrs	r6, r5
 695 0248 150E     		lsrs	r5, r2, #24
 696 024a 0138     		subs	r0, r0, #1
 697 024c 0540     		ands	r5, r0
 698 024e 3543     		orrs	r5, r6
 463:Source\mbedtls_open\library/des.c ****                 | ((X << 14) & 0x08000000) | ((X << 18) & 0x02080000)
 699              		.loc 1 463 0 discriminator 2
 700 0250 5046     		mov	r0, r10
 701 0252 0560     		str	r5, [r0]
 702              	.LVL61:
 474:Source\mbedtls_open\library/des.c **** 
 475:Source\mbedtls_open\library/des.c ****         *SK++ =   ((X << 15) & 0x20000000) | ((X << 17) & 0x10000000)
 703              		.loc 1 475 0 discriminator 2
 704 0254 DE03     		lsls	r6, r3, #15
 705 0256 8025     		movs	r5, #128
 706 0258 AD05     		lsls	r5, r5, #22
 707 025a 3540     		ands	r5, r6
 708 025c 5804     		lsls	r0, r3, #17
 709 025e 0440     		ands	r4, r0
 710 0260 2C43     		orrs	r4, r5
 476:Source\mbedtls_open\library/des.c ****                 | ((X << 10) & 0x08000000) | ((X << 22) & 0x04000000)
ARM GAS  C:\Users\Phuong\AppData\Local\Temp\ccawWFGQ.s 			page 22


 711              		.loc 1 476 0 discriminator 2
 712 0262 4846     		mov	r0, r9
 713 0264 8025     		movs	r5, #128
 714 0266 2D05     		lsls	r5, r5, #20
 715 0268 2840     		ands	r0, r5
 716 026a 0443     		orrs	r4, r0
 717 026c 9D05     		lsls	r5, r3, #22
 718 026e 8020     		movs	r0, #128
 719 0270 C004     		lsls	r0, r0, #19
 720 0272 2840     		ands	r0, r5
 721 0274 0443     		orrs	r4, r0
 477:Source\mbedtls_open\library/des.c ****                 | ((X >>  2) & 0x02000000) | ((X <<  1) & 0x01000000)
 722              		.loc 1 477 0 discriminator 2
 723 0276 9D08     		lsrs	r5, r3, #2
 724 0278 8020     		movs	r0, #128
 725 027a 8004     		lsls	r0, r0, #18
 726 027c 2840     		ands	r0, r5
 727 027e 0443     		orrs	r4, r0
 728 0280 5D00     		lsls	r5, r3, #1
 729 0282 8020     		movs	r0, #128
 730 0284 4004     		lsls	r0, r0, #17
 731 0286 0540     		ands	r5, r0
 732 0288 2C43     		orrs	r4, r5
 478:Source\mbedtls_open\library/des.c ****                 | ((X << 16) & 0x00200000) | ((X << 11) & 0x00100000)
 733              		.loc 1 478 0 discriminator 2
 734 028a 1D04     		lsls	r5, r3, #16
 735 028c 8020     		movs	r0, #128
 736 028e 8003     		lsls	r0, r0, #14
 737 0290 0540     		ands	r5, r0
 738 0292 2C43     		orrs	r4, r5
 739 0294 DD02     		lsls	r5, r3, #11
 740 0296 8020     		movs	r0, #128
 741 0298 4003     		lsls	r0, r0, #13
 742 029a 0540     		ands	r5, r0
 743 029c 2C43     		orrs	r4, r5
 479:Source\mbedtls_open\library/des.c ****                 | ((X <<  3) & 0x00080000) | ((X >>  6) & 0x00040000)
 744              		.loc 1 479 0 discriminator 2
 745 029e D800     		lsls	r0, r3, #3
 746 02a0 8025     		movs	r5, #128
 747 02a2 2D03     		lsls	r5, r5, #12
 748 02a4 2840     		ands	r0, r5
 749 02a6 0443     		orrs	r4, r0
 750 02a8 9809     		lsrs	r0, r3, #6
 751 02aa 8025     		movs	r5, #128
 752 02ac ED02     		lsls	r5, r5, #11
 753 02ae 2840     		ands	r0, r5
 754 02b0 0443     		orrs	r4, r0
 480:Source\mbedtls_open\library/des.c ****                 | ((X << 15) & 0x00020000) | ((X >>  4) & 0x00010000)
 755              		.loc 1 480 0 discriminator 2
 756 02b2 8020     		movs	r0, #128
 757 02b4 8002     		lsls	r0, r0, #10
 758 02b6 0640     		ands	r6, r0
 759 02b8 3443     		orrs	r4, r6
 760 02ba 1809     		lsrs	r0, r3, #4
 761 02bc 8025     		movs	r5, #128
 762 02be 6D02     		lsls	r5, r5, #9
 763 02c0 2840     		ands	r0, r5
ARM GAS  C:\Users\Phuong\AppData\Local\Temp\ccawWFGQ.s 			page 23


 764 02c2 0443     		orrs	r4, r0
 481:Source\mbedtls_open\library/des.c ****                 | ((Y >>  2) & 0x00002000) | ((Y <<  8) & 0x00001000)
 765              		.loc 1 481 0 discriminator 2
 766 02c4 9508     		lsrs	r5, r2, #2
 767 02c6 8020     		movs	r0, #128
 768 02c8 8001     		lsls	r0, r0, #6
 769 02ca 0540     		ands	r5, r0
 770 02cc 2C43     		orrs	r4, r5
 771 02ce 1502     		lsls	r5, r2, #8
 772 02d0 8020     		movs	r0, #128
 773 02d2 4001     		lsls	r0, r0, #5
 774 02d4 0540     		ands	r5, r0
 775 02d6 2C43     		orrs	r4, r5
 482:Source\mbedtls_open\library/des.c ****                 | ((Y >> 14) & 0x00000808) | ((Y >>  9) & 0x00000400)
 776              		.loc 1 482 0 discriminator 2
 777 02d8 1B4D     		ldr	r5, .L32+12
 778 02da 6046     		mov	r0, ip
 779 02dc 0540     		ands	r5, r0
 780 02de 2C43     		orrs	r4, r5
 781 02e0 500A     		lsrs	r0, r2, #9
 782 02e2 8025     		movs	r5, #128
 783 02e4 ED00     		lsls	r5, r5, #3
 784 02e6 2840     		ands	r0, r5
 785 02e8 0443     		orrs	r4, r0
 483:Source\mbedtls_open\library/des.c ****                 | ((Y      ) & 0x00000200) | ((Y <<  7) & 0x00000100)
 786              		.loc 1 483 0 discriminator 2
 787 02ea 8020     		movs	r0, #128
 788 02ec 8000     		lsls	r0, r0, #2
 789 02ee 1040     		ands	r0, r2
 790 02f0 0443     		orrs	r4, r0
 791 02f2 2500     		movs	r5, r4
 792 02f4 D401     		lsls	r4, r2, #7
 793 02f6 8020     		movs	r0, #128
 794 02f8 4000     		lsls	r0, r0, #1
 795 02fa 2040     		ands	r0, r4
 796 02fc 2C00     		movs	r4, r5
 797 02fe 0443     		orrs	r4, r0
 484:Source\mbedtls_open\library/des.c ****                 | ((Y >>  7) & 0x00000020) | ((Y >>  3) & 0x00000011)
 798              		.loc 1 484 0 discriminator 2
 799 0300 D509     		lsrs	r5, r2, #7
 800 0302 2020     		movs	r0, #32
 801 0304 0540     		ands	r5, r0
 802 0306 2C43     		orrs	r4, r5
 803 0308 0F38     		subs	r0, r0, #15
 804 030a 0140     		ands	r1, r0
 805 030c 2143     		orrs	r1, r4
 485:Source\mbedtls_open\library/des.c ****                 | ((Y <<  2) & 0x00000004) | ((Y >> 21) & 0x00000002);
 806              		.loc 1 485 0 discriminator 2
 807 030e 9000     		lsls	r0, r2, #2
 808 0310 4446     		mov	r4, r8
 809 0312 2040     		ands	r0, r4
 810 0314 0143     		orrs	r1, r0
 811 0316 500D     		lsrs	r0, r2, #21
 812 0318 023C     		subs	r4, r4, #2
 813 031a 2040     		ands	r0, r4
 814 031c 0143     		orrs	r1, r0
 475:Source\mbedtls_open\library/des.c ****                 | ((X << 10) & 0x08000000) | ((X << 22) & 0x04000000)
ARM GAS  C:\Users\Phuong\AppData\Local\Temp\ccawWFGQ.s 			page 24


 815              		.loc 1 475 0 discriminator 2
 816 031e 5046     		mov	r0, r10
 817 0320 4160     		str	r1, [r0, #4]
 450:Source\mbedtls_open\library/des.c ****     {
 818              		.loc 1 450 0 discriminator 2
 819 0322 0137     		adds	r7, r7, #1
 820              	.LVL62:
 475:Source\mbedtls_open\library/des.c ****                 | ((X << 10) & 0x08000000) | ((X << 22) & 0x04000000)
 821              		.loc 1 475 0 discriminator 2
 822 0324 0821     		movs	r1, #8
 823 0326 8C46     		mov	ip, r1
 824 0328 E244     		add	r10, r10, ip
 825              	.LVL63:
 826              	.L27:
 450:Source\mbedtls_open\library/des.c ****     {
 827              		.loc 1 450 0 discriminator 1
 828 032a 0F2F     		cmp	r7, #15
 829 032c 00DC     		bgt	.LCB771
 830 032e 02E7     		b	.L31	@long jump
 831              	.LCB771:
 486:Source\mbedtls_open\library/des.c ****     }
 487:Source\mbedtls_open\library/des.c **** }
 832              		.loc 1 487 0
 833              		@ sp needed
 834              	.LVL64:
 835              	.LVL65:
 836 0330 3CBC     		pop	{r2, r3, r4, r5}
 837 0332 9046     		mov	r8, r2
 838 0334 9946     		mov	r9, r3
 839 0336 A246     		mov	r10, r4
 840 0338 AB46     		mov	fp, r5
 841 033a F0BD     		pop	{r4, r5, r6, r7, pc}
 842              	.L33:
 843              		.align	2
 844              	.L32:
 845 033c 0F0F0F0F 		.word	252645135
 846 0340 10101010 		.word	269488144
 847 0344 30010000 		.word	.LANCHOR2
 848 0348 08080000 		.word	2056
 849              		.cfi_endproc
 850              	.LFE8:
 851              		.size	mbedtls_des_setkey, .-mbedtls_des_setkey
 852              		.section	.text.des3_set2key,"ax",%progbits
 853              		.align	2
 854              		.code	16
 855              		.thumb_func
 856              		.type	des3_set2key, %function
 857              	des3_set2key:
 858              	.LFB11:
 488:Source\mbedtls_open\library/des.c **** #endif /* !MBEDTLS_DES_SETKEY_ALT */
 489:Source\mbedtls_open\library/des.c **** 
 490:Source\mbedtls_open\library/des.c **** /*
 491:Source\mbedtls_open\library/des.c ****  * DES key schedule (56-bit, encryption)
 492:Source\mbedtls_open\library/des.c ****  */
 493:Source\mbedtls_open\library/des.c **** int mbedtls_des_setkey_enc( mbedtls_des_context *ctx, const unsigned char key[MBEDTLS_DES_KEY_SIZE]
 494:Source\mbedtls_open\library/des.c **** {
 495:Source\mbedtls_open\library/des.c ****     mbedtls_des_setkey( ctx->sk, key );
ARM GAS  C:\Users\Phuong\AppData\Local\Temp\ccawWFGQ.s 			page 25


 496:Source\mbedtls_open\library/des.c **** 
 497:Source\mbedtls_open\library/des.c ****     return( 0 );
 498:Source\mbedtls_open\library/des.c **** }
 499:Source\mbedtls_open\library/des.c **** 
 500:Source\mbedtls_open\library/des.c **** /*
 501:Source\mbedtls_open\library/des.c ****  * DES key schedule (56-bit, decryption)
 502:Source\mbedtls_open\library/des.c ****  */
 503:Source\mbedtls_open\library/des.c **** int mbedtls_des_setkey_dec( mbedtls_des_context *ctx, const unsigned char key[MBEDTLS_DES_KEY_SIZE]
 504:Source\mbedtls_open\library/des.c **** {
 505:Source\mbedtls_open\library/des.c ****     int i;
 506:Source\mbedtls_open\library/des.c **** 
 507:Source\mbedtls_open\library/des.c ****     mbedtls_des_setkey( ctx->sk, key );
 508:Source\mbedtls_open\library/des.c **** 
 509:Source\mbedtls_open\library/des.c ****     for( i = 0; i < 16; i += 2 )
 510:Source\mbedtls_open\library/des.c ****     {
 511:Source\mbedtls_open\library/des.c ****         SWAP( ctx->sk[i    ], ctx->sk[30 - i] );
 512:Source\mbedtls_open\library/des.c ****         SWAP( ctx->sk[i + 1], ctx->sk[31 - i] );
 513:Source\mbedtls_open\library/des.c ****     }
 514:Source\mbedtls_open\library/des.c **** 
 515:Source\mbedtls_open\library/des.c ****     return( 0 );
 516:Source\mbedtls_open\library/des.c **** }
 517:Source\mbedtls_open\library/des.c **** 
 518:Source\mbedtls_open\library/des.c **** static void des3_set2key( uint32_t esk[96],
 519:Source\mbedtls_open\library/des.c ****                           uint32_t dsk[96],
 520:Source\mbedtls_open\library/des.c ****                           const unsigned char key[MBEDTLS_DES_KEY_SIZE*2] )
 521:Source\mbedtls_open\library/des.c **** {
 859              		.loc 1 521 0
 860              		.cfi_startproc
 861              		@ args = 0, pretend = 0, frame = 0
 862              		@ frame_needed = 0, uses_anonymous_args = 0
 863              	.LVL66:
 864 0000 F0B5     		push	{r4, r5, r6, r7, lr}
 865              		.cfi_def_cfa_offset 20
 866              		.cfi_offset 4, -20
 867              		.cfi_offset 5, -16
 868              		.cfi_offset 6, -12
 869              		.cfi_offset 7, -8
 870              		.cfi_offset 14, -4
 871 0002 4746     		mov	r7, r8
 872 0004 80B4     		push	{r7}
 873              		.cfi_def_cfa_offset 24
 874              		.cfi_offset 8, -24
 875 0006 0400     		movs	r4, r0
 876 0008 0D00     		movs	r5, r1
 877 000a 1600     		movs	r6, r2
 522:Source\mbedtls_open\library/des.c ****     int i;
 523:Source\mbedtls_open\library/des.c **** 
 524:Source\mbedtls_open\library/des.c ****     mbedtls_des_setkey( esk, key );
 878              		.loc 1 524 0
 879 000c 1100     		movs	r1, r2
 880              	.LVL67:
 881 000e FFF7FEFF 		bl	mbedtls_des_setkey
 882              	.LVL68:
 525:Source\mbedtls_open\library/des.c ****     mbedtls_des_setkey( dsk + 32, key + 8 );
 883              		.loc 1 525 0
 884 0012 3100     		movs	r1, r6
 885 0014 0831     		adds	r1, r1, #8
ARM GAS  C:\Users\Phuong\AppData\Local\Temp\ccawWFGQ.s 			page 26


 886 0016 2800     		movs	r0, r5
 887 0018 8030     		adds	r0, r0, #128
 888 001a FFF7FEFF 		bl	mbedtls_des_setkey
 889              	.LVL69:
 526:Source\mbedtls_open\library/des.c **** 
 527:Source\mbedtls_open\library/des.c ****     for( i = 0; i < 32; i += 2 )
 890              		.loc 1 527 0
 891 001e 0023     		movs	r3, #0
 892 0020 35E0     		b	.L35
 893              	.LVL70:
 894              	.L36:
 528:Source\mbedtls_open\library/des.c ****     {
 529:Source\mbedtls_open\library/des.c ****         dsk[i     ] = esk[30 - i];
 895              		.loc 1 529 0 discriminator 3
 896 0022 9F00     		lsls	r7, r3, #2
 897 0024 EE19     		adds	r6, r5, r7
 898 0026 1E22     		movs	r2, #30
 899 0028 D21A     		subs	r2, r2, r3
 900 002a 9200     		lsls	r2, r2, #2
 901 002c 1259     		ldr	r2, [r2, r4]
 902 002e 3260     		str	r2, [r6]
 530:Source\mbedtls_open\library/des.c ****         dsk[i +  1] = esk[31 - i];
 903              		.loc 1 530 0 discriminator 3
 904 0030 591C     		adds	r1, r3, #1
 905 0032 8A00     		lsls	r2, r1, #2
 906 0034 9046     		mov	r8, r2
 907 0036 A818     		adds	r0, r5, r2
 908 0038 1F22     		movs	r2, #31
 909 003a D21A     		subs	r2, r2, r3
 910 003c 9200     		lsls	r2, r2, #2
 911 003e 1259     		ldr	r2, [r2, r4]
 912 0040 0260     		str	r2, [r0]
 531:Source\mbedtls_open\library/des.c **** 
 532:Source\mbedtls_open\library/des.c ****         esk[i + 32] = dsk[62 - i];
 913              		.loc 1 532 0 discriminator 3
 914 0042 1A00     		movs	r2, r3
 915 0044 2032     		adds	r2, r2, #32
 916 0046 9200     		lsls	r2, r2, #2
 917 0048 9446     		mov	ip, r2
 918 004a 3E22     		movs	r2, #62
 919 004c D21A     		subs	r2, r2, r3
 920 004e 9200     		lsls	r2, r2, #2
 921 0050 6146     		mov	r1, ip
 922 0052 5259     		ldr	r2, [r2, r5]
 923 0054 6250     		str	r2, [r4, r1]
 533:Source\mbedtls_open\library/des.c ****         esk[i + 33] = dsk[63 - i];
 924              		.loc 1 533 0 discriminator 3
 925 0056 1A00     		movs	r2, r3
 926 0058 2132     		adds	r2, r2, #33
 927 005a 9200     		lsls	r2, r2, #2
 928 005c 9446     		mov	ip, r2
 929 005e 3F22     		movs	r2, #63
 930 0060 D21A     		subs	r2, r2, r3
 931 0062 9200     		lsls	r2, r2, #2
 932 0064 6146     		mov	r1, ip
 933 0066 5259     		ldr	r2, [r2, r5]
 934 0068 6250     		str	r2, [r4, r1]
ARM GAS  C:\Users\Phuong\AppData\Local\Temp\ccawWFGQ.s 			page 27


 534:Source\mbedtls_open\library/des.c **** 
 535:Source\mbedtls_open\library/des.c ****         esk[i + 64] = esk[i    ];
 935              		.loc 1 535 0 discriminator 3
 936 006a 1A00     		movs	r2, r3
 937 006c 4032     		adds	r2, r2, #64
 938 006e 9200     		lsls	r2, r2, #2
 939 0070 9446     		mov	ip, r2
 940 0072 E159     		ldr	r1, [r4, r7]
 941 0074 A150     		str	r1, [r4, r2]
 536:Source\mbedtls_open\library/des.c ****         esk[i + 65] = esk[i + 1];
 942              		.loc 1 536 0 discriminator 3
 943 0076 1A00     		movs	r2, r3
 944 0078 4132     		adds	r2, r2, #65
 945 007a 9200     		lsls	r2, r2, #2
 946 007c 4146     		mov	r1, r8
 947 007e 6158     		ldr	r1, [r4, r1]
 948 0080 A150     		str	r1, [r4, r2]
 537:Source\mbedtls_open\library/des.c **** 
 538:Source\mbedtls_open\library/des.c ****         dsk[i + 64] = dsk[i    ];
 949              		.loc 1 538 0 discriminator 3
 950 0082 6146     		mov	r1, ip
 951 0084 3668     		ldr	r6, [r6]
 952 0086 6E50     		str	r6, [r5, r1]
 539:Source\mbedtls_open\library/des.c ****         dsk[i + 65] = dsk[i + 1];
 953              		.loc 1 539 0 discriminator 3
 954 0088 0168     		ldr	r1, [r0]
 955 008a A950     		str	r1, [r5, r2]
 527:Source\mbedtls_open\library/des.c ****     {
 956              		.loc 1 527 0 discriminator 3
 957 008c 0233     		adds	r3, r3, #2
 958              	.LVL71:
 959              	.L35:
 527:Source\mbedtls_open\library/des.c ****     {
 960              		.loc 1 527 0 is_stmt 0 discriminator 1
 961 008e 1F2B     		cmp	r3, #31
 962 0090 C7DD     		ble	.L36
 540:Source\mbedtls_open\library/des.c ****     }
 541:Source\mbedtls_open\library/des.c **** }
 963              		.loc 1 541 0 is_stmt 1
 964              		@ sp needed
 965              	.LVL72:
 966              	.LVL73:
 967 0092 04BC     		pop	{r2}
 968 0094 9046     		mov	r8, r2
 969 0096 F0BD     		pop	{r4, r5, r6, r7, pc}
 970              		.cfi_endproc
 971              	.LFE11:
 972              		.size	des3_set2key, .-des3_set2key
 973              		.section	.text.des3_set3key,"ax",%progbits
 974              		.align	2
 975              		.code	16
 976              		.thumb_func
 977              		.type	des3_set3key, %function
 978              	des3_set3key:
 979              	.LFB14:
 542:Source\mbedtls_open\library/des.c **** 
 543:Source\mbedtls_open\library/des.c **** /*
ARM GAS  C:\Users\Phuong\AppData\Local\Temp\ccawWFGQ.s 			page 28


 544:Source\mbedtls_open\library/des.c ****  * Triple-DES key schedule (112-bit, encryption)
 545:Source\mbedtls_open\library/des.c ****  */
 546:Source\mbedtls_open\library/des.c **** int mbedtls_des3_set2key_enc( mbedtls_des3_context *ctx,
 547:Source\mbedtls_open\library/des.c ****                       const unsigned char key[MBEDTLS_DES_KEY_SIZE * 2] )
 548:Source\mbedtls_open\library/des.c **** {
 549:Source\mbedtls_open\library/des.c ****     uint32_t sk[96];
 550:Source\mbedtls_open\library/des.c **** 
 551:Source\mbedtls_open\library/des.c ****     des3_set2key( ctx->sk, sk, key );
 552:Source\mbedtls_open\library/des.c ****     mbedtls_platform_zeroize( sk,  sizeof( sk ) );
 553:Source\mbedtls_open\library/des.c **** 
 554:Source\mbedtls_open\library/des.c ****     return( 0 );
 555:Source\mbedtls_open\library/des.c **** }
 556:Source\mbedtls_open\library/des.c **** 
 557:Source\mbedtls_open\library/des.c **** /*
 558:Source\mbedtls_open\library/des.c ****  * Triple-DES key schedule (112-bit, decryption)
 559:Source\mbedtls_open\library/des.c ****  */
 560:Source\mbedtls_open\library/des.c **** int mbedtls_des3_set2key_dec( mbedtls_des3_context *ctx,
 561:Source\mbedtls_open\library/des.c ****                       const unsigned char key[MBEDTLS_DES_KEY_SIZE * 2] )
 562:Source\mbedtls_open\library/des.c **** {
 563:Source\mbedtls_open\library/des.c ****     uint32_t sk[96];
 564:Source\mbedtls_open\library/des.c **** 
 565:Source\mbedtls_open\library/des.c ****     des3_set2key( sk, ctx->sk, key );
 566:Source\mbedtls_open\library/des.c ****     mbedtls_platform_zeroize( sk,  sizeof( sk ) );
 567:Source\mbedtls_open\library/des.c **** 
 568:Source\mbedtls_open\library/des.c ****     return( 0 );
 569:Source\mbedtls_open\library/des.c **** }
 570:Source\mbedtls_open\library/des.c **** 
 571:Source\mbedtls_open\library/des.c **** static void des3_set3key( uint32_t esk[96],
 572:Source\mbedtls_open\library/des.c ****                           uint32_t dsk[96],
 573:Source\mbedtls_open\library/des.c ****                           const unsigned char key[24] )
 574:Source\mbedtls_open\library/des.c **** {
 980              		.loc 1 574 0
 981              		.cfi_startproc
 982              		@ args = 0, pretend = 0, frame = 0
 983              		@ frame_needed = 0, uses_anonymous_args = 0
 984              	.LVL74:
 985 0000 70B5     		push	{r4, r5, r6, lr}
 986              		.cfi_def_cfa_offset 16
 987              		.cfi_offset 4, -16
 988              		.cfi_offset 5, -12
 989              		.cfi_offset 6, -8
 990              		.cfi_offset 14, -4
 991 0002 0400     		movs	r4, r0
 992 0004 0D00     		movs	r5, r1
 993 0006 1600     		movs	r6, r2
 575:Source\mbedtls_open\library/des.c ****     int i;
 576:Source\mbedtls_open\library/des.c **** 
 577:Source\mbedtls_open\library/des.c ****     mbedtls_des_setkey( esk, key );
 994              		.loc 1 577 0
 995 0008 1100     		movs	r1, r2
 996              	.LVL75:
 997 000a FFF7FEFF 		bl	mbedtls_des_setkey
 998              	.LVL76:
 578:Source\mbedtls_open\library/des.c ****     mbedtls_des_setkey( dsk + 32, key +  8 );
 999              		.loc 1 578 0
 1000 000e 3100     		movs	r1, r6
 1001 0010 0831     		adds	r1, r1, #8
ARM GAS  C:\Users\Phuong\AppData\Local\Temp\ccawWFGQ.s 			page 29


 1002 0012 2800     		movs	r0, r5
 1003 0014 8030     		adds	r0, r0, #128
 1004 0016 FFF7FEFF 		bl	mbedtls_des_setkey
 1005              	.LVL77:
 579:Source\mbedtls_open\library/des.c ****     mbedtls_des_setkey( esk + 64, key + 16 );
 1006              		.loc 1 579 0
 1007 001a 3100     		movs	r1, r6
 1008 001c 1031     		adds	r1, r1, #16
 1009 001e 601C     		adds	r0, r4, #1
 1010 0020 FF30     		adds	r0, r0, #255
 1011 0022 FFF7FEFF 		bl	mbedtls_des_setkey
 1012              	.LVL78:
 580:Source\mbedtls_open\library/des.c **** 
 581:Source\mbedtls_open\library/des.c ****     for( i = 0; i < 32; i += 2 )
 1013              		.loc 1 581 0
 1014 0026 0023     		movs	r3, #0
 1015 0028 2DE0     		b	.L38
 1016              	.LVL79:
 1017              	.L39:
 582:Source\mbedtls_open\library/des.c ****     {
 583:Source\mbedtls_open\library/des.c ****         dsk[i     ] = esk[94 - i];
 1018              		.loc 1 583 0 discriminator 3
 1019 002a 9900     		lsls	r1, r3, #2
 1020 002c 5E22     		movs	r2, #94
 1021 002e D21A     		subs	r2, r2, r3
 1022 0030 9200     		lsls	r2, r2, #2
 1023 0032 1259     		ldr	r2, [r2, r4]
 1024 0034 6A50     		str	r2, [r5, r1]
 584:Source\mbedtls_open\library/des.c ****         dsk[i +  1] = esk[95 - i];
 1025              		.loc 1 584 0 discriminator 3
 1026 0036 591C     		adds	r1, r3, #1
 1027 0038 8900     		lsls	r1, r1, #2
 1028 003a 5F22     		movs	r2, #95
 1029 003c D21A     		subs	r2, r2, r3
 1030 003e 9200     		lsls	r2, r2, #2
 1031 0040 1259     		ldr	r2, [r2, r4]
 1032 0042 6A50     		str	r2, [r5, r1]
 585:Source\mbedtls_open\library/des.c **** 
 586:Source\mbedtls_open\library/des.c ****         esk[i + 32] = dsk[62 - i];
 1033              		.loc 1 586 0 discriminator 3
 1034 0044 1900     		movs	r1, r3
 1035 0046 2031     		adds	r1, r1, #32
 1036 0048 8900     		lsls	r1, r1, #2
 1037 004a 3E22     		movs	r2, #62
 1038 004c D21A     		subs	r2, r2, r3
 1039 004e 9200     		lsls	r2, r2, #2
 1040 0050 5259     		ldr	r2, [r2, r5]
 1041 0052 6250     		str	r2, [r4, r1]
 587:Source\mbedtls_open\library/des.c ****         esk[i + 33] = dsk[63 - i];
 1042              		.loc 1 587 0 discriminator 3
 1043 0054 1900     		movs	r1, r3
 1044 0056 2131     		adds	r1, r1, #33
 1045 0058 8900     		lsls	r1, r1, #2
 1046 005a 3F22     		movs	r2, #63
 1047 005c D21A     		subs	r2, r2, r3
 1048 005e 9200     		lsls	r2, r2, #2
 1049 0060 5259     		ldr	r2, [r2, r5]
ARM GAS  C:\Users\Phuong\AppData\Local\Temp\ccawWFGQ.s 			page 30


 1050 0062 6250     		str	r2, [r4, r1]
 588:Source\mbedtls_open\library/des.c **** 
 589:Source\mbedtls_open\library/des.c ****         dsk[i + 64] = esk[30 - i];
 1051              		.loc 1 589 0 discriminator 3
 1052 0064 1900     		movs	r1, r3
 1053 0066 4031     		adds	r1, r1, #64
 1054 0068 8900     		lsls	r1, r1, #2
 1055 006a 1E22     		movs	r2, #30
 1056 006c D21A     		subs	r2, r2, r3
 1057 006e 9200     		lsls	r2, r2, #2
 1058 0070 1259     		ldr	r2, [r2, r4]
 1059 0072 6A50     		str	r2, [r5, r1]
 590:Source\mbedtls_open\library/des.c ****         dsk[i + 65] = esk[31 - i];
 1060              		.loc 1 590 0 discriminator 3
 1061 0074 1900     		movs	r1, r3
 1062 0076 4131     		adds	r1, r1, #65
 1063 0078 8900     		lsls	r1, r1, #2
 1064 007a 1F22     		movs	r2, #31
 1065 007c D21A     		subs	r2, r2, r3
 1066 007e 9200     		lsls	r2, r2, #2
 1067 0080 1259     		ldr	r2, [r2, r4]
 1068 0082 6A50     		str	r2, [r5, r1]
 581:Source\mbedtls_open\library/des.c ****     {
 1069              		.loc 1 581 0 discriminator 3
 1070 0084 0233     		adds	r3, r3, #2
 1071              	.LVL80:
 1072              	.L38:
 581:Source\mbedtls_open\library/des.c ****     {
 1073              		.loc 1 581 0 is_stmt 0 discriminator 1
 1074 0086 1F2B     		cmp	r3, #31
 1075 0088 CFDD     		ble	.L39
 591:Source\mbedtls_open\library/des.c ****     }
 592:Source\mbedtls_open\library/des.c **** }
 1076              		.loc 1 592 0 is_stmt 1
 1077              		@ sp needed
 1078              	.LVL81:
 1079              	.LVL82:
 1080              	.LVL83:
 1081 008a 70BD     		pop	{r4, r5, r6, pc}
 1082              		.cfi_endproc
 1083              	.LFE14:
 1084              		.size	des3_set3key, .-des3_set3key
 1085              		.section	.text.mbedtls_des_setkey_enc,"ax",%progbits
 1086              		.align	2
 1087              		.global	mbedtls_des_setkey_enc
 1088              		.code	16
 1089              		.thumb_func
 1090              		.type	mbedtls_des_setkey_enc, %function
 1091              	mbedtls_des_setkey_enc:
 1092              	.LFB9:
 494:Source\mbedtls_open\library/des.c ****     mbedtls_des_setkey( ctx->sk, key );
 1093              		.loc 1 494 0
 1094              		.cfi_startproc
 1095              		@ args = 0, pretend = 0, frame = 0
 1096              		@ frame_needed = 0, uses_anonymous_args = 0
 1097              	.LVL84:
 1098 0000 10B5     		push	{r4, lr}
ARM GAS  C:\Users\Phuong\AppData\Local\Temp\ccawWFGQ.s 			page 31


 1099              		.cfi_def_cfa_offset 8
 1100              		.cfi_offset 4, -8
 1101              		.cfi_offset 14, -4
 495:Source\mbedtls_open\library/des.c **** 
 1102              		.loc 1 495 0
 1103 0002 FFF7FEFF 		bl	mbedtls_des_setkey
 1104              	.LVL85:
 498:Source\mbedtls_open\library/des.c **** 
 1105              		.loc 1 498 0
 1106 0006 0020     		movs	r0, #0
 1107              		@ sp needed
 1108 0008 10BD     		pop	{r4, pc}
 1109              		.cfi_endproc
 1110              	.LFE9:
 1111              		.size	mbedtls_des_setkey_enc, .-mbedtls_des_setkey_enc
 1112 000a C046     		.section	.text.mbedtls_des_setkey_dec,"ax",%progbits
 1113              		.align	2
 1114              		.global	mbedtls_des_setkey_dec
 1115              		.code	16
 1116              		.thumb_func
 1117              		.type	mbedtls_des_setkey_dec, %function
 1118              	mbedtls_des_setkey_dec:
 1119              	.LFB10:
 504:Source\mbedtls_open\library/des.c ****     int i;
 1120              		.loc 1 504 0
 1121              		.cfi_startproc
 1122              		@ args = 0, pretend = 0, frame = 0
 1123              		@ frame_needed = 0, uses_anonymous_args = 0
 1124              	.LVL86:
 1125 0000 70B5     		push	{r4, r5, r6, lr}
 1126              		.cfi_def_cfa_offset 16
 1127              		.cfi_offset 4, -16
 1128              		.cfi_offset 5, -12
 1129              		.cfi_offset 6, -8
 1130              		.cfi_offset 14, -4
 1131 0002 0400     		movs	r4, r0
 507:Source\mbedtls_open\library/des.c **** 
 1132              		.loc 1 507 0
 1133 0004 FFF7FEFF 		bl	mbedtls_des_setkey
 1134              	.LVL87:
 509:Source\mbedtls_open\library/des.c ****     {
 1135              		.loc 1 509 0
 1136 0008 0023     		movs	r3, #0
 1137 000a 11E0     		b	.L42
 1138              	.LVL88:
 1139              	.L43:
 1140              	.LBB2:
 511:Source\mbedtls_open\library/des.c ****         SWAP( ctx->sk[i + 1], ctx->sk[31 - i] );
 1141              		.loc 1 511 0 discriminator 3
 1142 000c 9900     		lsls	r1, r3, #2
 1143 000e 0859     		ldr	r0, [r1, r4]
 1144              	.LVL89:
 1145 0010 1E22     		movs	r2, #30
 1146 0012 D21A     		subs	r2, r2, r3
 1147 0014 9200     		lsls	r2, r2, #2
 1148 0016 1559     		ldr	r5, [r2, r4]
 1149 0018 0D51     		str	r5, [r1, r4]
ARM GAS  C:\Users\Phuong\AppData\Local\Temp\ccawWFGQ.s 			page 32


 1150 001a 1051     		str	r0, [r2, r4]
 1151              	.LVL90:
 1152              	.LBE2:
 1153              	.LBB3:
 512:Source\mbedtls_open\library/des.c ****     }
 1154              		.loc 1 512 0 discriminator 3
 1155 001c 591C     		adds	r1, r3, #1
 1156 001e 8900     		lsls	r1, r1, #2
 1157 0020 0859     		ldr	r0, [r1, r4]
 1158              	.LVL91:
 1159 0022 1F22     		movs	r2, #31
 1160 0024 D21A     		subs	r2, r2, r3
 1161 0026 9200     		lsls	r2, r2, #2
 1162 0028 1559     		ldr	r5, [r2, r4]
 1163 002a 0D51     		str	r5, [r1, r4]
 1164 002c 1051     		str	r0, [r2, r4]
 1165              	.LVL92:
 1166              	.LBE3:
 509:Source\mbedtls_open\library/des.c ****     {
 1167              		.loc 1 509 0 discriminator 3
 1168 002e 0233     		adds	r3, r3, #2
 1169              	.LVL93:
 1170              	.L42:
 509:Source\mbedtls_open\library/des.c ****     {
 1171              		.loc 1 509 0 is_stmt 0 discriminator 1
 1172 0030 0F2B     		cmp	r3, #15
 1173 0032 EBDD     		ble	.L43
 516:Source\mbedtls_open\library/des.c **** 
 1174              		.loc 1 516 0 is_stmt 1
 1175 0034 0020     		movs	r0, #0
 1176              		@ sp needed
 1177              	.LVL94:
 1178 0036 70BD     		pop	{r4, r5, r6, pc}
 1179              		.cfi_endproc
 1180              	.LFE10:
 1181              		.size	mbedtls_des_setkey_dec, .-mbedtls_des_setkey_dec
 1182              		.section	.text.mbedtls_des3_set2key_enc,"ax",%progbits
 1183              		.align	2
 1184              		.global	mbedtls_des3_set2key_enc
 1185              		.code	16
 1186              		.thumb_func
 1187              		.type	mbedtls_des3_set2key_enc, %function
 1188              	mbedtls_des3_set2key_enc:
 1189              	.LFB12:
 548:Source\mbedtls_open\library/des.c ****     uint32_t sk[96];
 1190              		.loc 1 548 0
 1191              		.cfi_startproc
 1192              		@ args = 0, pretend = 0, frame = 384
 1193              		@ frame_needed = 0, uses_anonymous_args = 0
 1194              	.LVL95:
 1195 0000 00B5     		push	{lr}
 1196              		.cfi_def_cfa_offset 4
 1197              		.cfi_offset 14, -4
 1198 0002 E1B0     		sub	sp, sp, #388
 1199              		.cfi_def_cfa_offset 392
 1200 0004 0A00     		movs	r2, r1
 551:Source\mbedtls_open\library/des.c ****     mbedtls_platform_zeroize( sk,  sizeof( sk ) );
ARM GAS  C:\Users\Phuong\AppData\Local\Temp\ccawWFGQ.s 			page 33


 1201              		.loc 1 551 0
 1202 0006 6946     		mov	r1, sp
 1203              	.LVL96:
 1204 0008 FFF7FEFF 		bl	des3_set2key
 1205              	.LVL97:
 552:Source\mbedtls_open\library/des.c **** 
 1206              		.loc 1 552 0
 1207 000c C021     		movs	r1, #192
 1208 000e 4900     		lsls	r1, r1, #1
 1209 0010 6846     		mov	r0, sp
 1210 0012 FFF7FEFF 		bl	mbedtls_platform_zeroize
 1211              	.LVL98:
 555:Source\mbedtls_open\library/des.c **** 
 1212              		.loc 1 555 0
 1213 0016 0020     		movs	r0, #0
 1214 0018 61B0     		add	sp, sp, #388
 1215              		@ sp needed
 1216 001a 00BD     		pop	{pc}
 1217              		.cfi_endproc
 1218              	.LFE12:
 1219              		.size	mbedtls_des3_set2key_enc, .-mbedtls_des3_set2key_enc
 1220              		.section	.text.mbedtls_des3_set2key_dec,"ax",%progbits
 1221              		.align	2
 1222              		.global	mbedtls_des3_set2key_dec
 1223              		.code	16
 1224              		.thumb_func
 1225              		.type	mbedtls_des3_set2key_dec, %function
 1226              	mbedtls_des3_set2key_dec:
 1227              	.LFB13:
 562:Source\mbedtls_open\library/des.c ****     uint32_t sk[96];
 1228              		.loc 1 562 0
 1229              		.cfi_startproc
 1230              		@ args = 0, pretend = 0, frame = 384
 1231              		@ frame_needed = 0, uses_anonymous_args = 0
 1232              	.LVL99:
 1233 0000 00B5     		push	{lr}
 1234              		.cfi_def_cfa_offset 4
 1235              		.cfi_offset 14, -4
 1236 0002 E1B0     		sub	sp, sp, #388
 1237              		.cfi_def_cfa_offset 392
 1238 0004 0A00     		movs	r2, r1
 565:Source\mbedtls_open\library/des.c ****     mbedtls_platform_zeroize( sk,  sizeof( sk ) );
 1239              		.loc 1 565 0
 1240 0006 0100     		movs	r1, r0
 1241              	.LVL100:
 1242 0008 6846     		mov	r0, sp
 1243              	.LVL101:
 1244 000a FFF7FEFF 		bl	des3_set2key
 1245              	.LVL102:
 566:Source\mbedtls_open\library/des.c **** 
 1246              		.loc 1 566 0
 1247 000e C021     		movs	r1, #192
 1248 0010 4900     		lsls	r1, r1, #1
 1249 0012 6846     		mov	r0, sp
 1250 0014 FFF7FEFF 		bl	mbedtls_platform_zeroize
 1251              	.LVL103:
 569:Source\mbedtls_open\library/des.c **** 
ARM GAS  C:\Users\Phuong\AppData\Local\Temp\ccawWFGQ.s 			page 34


 1252              		.loc 1 569 0
 1253 0018 0020     		movs	r0, #0
 1254 001a 61B0     		add	sp, sp, #388
 1255              		@ sp needed
 1256 001c 00BD     		pop	{pc}
 1257              		.cfi_endproc
 1258              	.LFE13:
 1259              		.size	mbedtls_des3_set2key_dec, .-mbedtls_des3_set2key_dec
 1260 001e C046     		.section	.text.mbedtls_des3_set3key_enc,"ax",%progbits
 1261              		.align	2
 1262              		.global	mbedtls_des3_set3key_enc
 1263              		.code	16
 1264              		.thumb_func
 1265              		.type	mbedtls_des3_set3key_enc, %function
 1266              	mbedtls_des3_set3key_enc:
 1267              	.LFB15:
 593:Source\mbedtls_open\library/des.c **** 
 594:Source\mbedtls_open\library/des.c **** /*
 595:Source\mbedtls_open\library/des.c ****  * Triple-DES key schedule (168-bit, encryption)
 596:Source\mbedtls_open\library/des.c ****  */
 597:Source\mbedtls_open\library/des.c **** int mbedtls_des3_set3key_enc( mbedtls_des3_context *ctx,
 598:Source\mbedtls_open\library/des.c ****                       const unsigned char key[MBEDTLS_DES_KEY_SIZE * 3] )
 599:Source\mbedtls_open\library/des.c **** {
 1268              		.loc 1 599 0
 1269              		.cfi_startproc
 1270              		@ args = 0, pretend = 0, frame = 384
 1271              		@ frame_needed = 0, uses_anonymous_args = 0
 1272              	.LVL104:
 1273 0000 00B5     		push	{lr}
 1274              		.cfi_def_cfa_offset 4
 1275              		.cfi_offset 14, -4
 1276 0002 E1B0     		sub	sp, sp, #388
 1277              		.cfi_def_cfa_offset 392
 1278 0004 0A00     		movs	r2, r1
 600:Source\mbedtls_open\library/des.c ****     uint32_t sk[96];
 601:Source\mbedtls_open\library/des.c **** 
 602:Source\mbedtls_open\library/des.c ****     des3_set3key( ctx->sk, sk, key );
 1279              		.loc 1 602 0
 1280 0006 6946     		mov	r1, sp
 1281              	.LVL105:
 1282 0008 FFF7FEFF 		bl	des3_set3key
 1283              	.LVL106:
 603:Source\mbedtls_open\library/des.c ****     mbedtls_platform_zeroize( sk,  sizeof( sk ) );
 1284              		.loc 1 603 0
 1285 000c C021     		movs	r1, #192
 1286 000e 4900     		lsls	r1, r1, #1
 1287 0010 6846     		mov	r0, sp
 1288 0012 FFF7FEFF 		bl	mbedtls_platform_zeroize
 1289              	.LVL107:
 604:Source\mbedtls_open\library/des.c **** 
 605:Source\mbedtls_open\library/des.c ****     return( 0 );
 606:Source\mbedtls_open\library/des.c **** }
 1290              		.loc 1 606 0
 1291 0016 0020     		movs	r0, #0
 1292 0018 61B0     		add	sp, sp, #388
 1293              		@ sp needed
 1294 001a 00BD     		pop	{pc}
ARM GAS  C:\Users\Phuong\AppData\Local\Temp\ccawWFGQ.s 			page 35


 1295              		.cfi_endproc
 1296              	.LFE15:
 1297              		.size	mbedtls_des3_set3key_enc, .-mbedtls_des3_set3key_enc
 1298              		.section	.text.mbedtls_des3_set3key_dec,"ax",%progbits
 1299              		.align	2
 1300              		.global	mbedtls_des3_set3key_dec
 1301              		.code	16
 1302              		.thumb_func
 1303              		.type	mbedtls_des3_set3key_dec, %function
 1304              	mbedtls_des3_set3key_dec:
 1305              	.LFB16:
 607:Source\mbedtls_open\library/des.c **** 
 608:Source\mbedtls_open\library/des.c **** /*
 609:Source\mbedtls_open\library/des.c ****  * Triple-DES key schedule (168-bit, decryption)
 610:Source\mbedtls_open\library/des.c ****  */
 611:Source\mbedtls_open\library/des.c **** int mbedtls_des3_set3key_dec( mbedtls_des3_context *ctx,
 612:Source\mbedtls_open\library/des.c ****                       const unsigned char key[MBEDTLS_DES_KEY_SIZE * 3] )
 613:Source\mbedtls_open\library/des.c **** {
 1306              		.loc 1 613 0
 1307              		.cfi_startproc
 1308              		@ args = 0, pretend = 0, frame = 384
 1309              		@ frame_needed = 0, uses_anonymous_args = 0
 1310              	.LVL108:
 1311 0000 00B5     		push	{lr}
 1312              		.cfi_def_cfa_offset 4
 1313              		.cfi_offset 14, -4
 1314 0002 E1B0     		sub	sp, sp, #388
 1315              		.cfi_def_cfa_offset 392
 1316 0004 0A00     		movs	r2, r1
 614:Source\mbedtls_open\library/des.c ****     uint32_t sk[96];
 615:Source\mbedtls_open\library/des.c **** 
 616:Source\mbedtls_open\library/des.c ****     des3_set3key( sk, ctx->sk, key );
 1317              		.loc 1 616 0
 1318 0006 0100     		movs	r1, r0
 1319              	.LVL109:
 1320 0008 6846     		mov	r0, sp
 1321              	.LVL110:
 1322 000a FFF7FEFF 		bl	des3_set3key
 1323              	.LVL111:
 617:Source\mbedtls_open\library/des.c ****     mbedtls_platform_zeroize( sk,  sizeof( sk ) );
 1324              		.loc 1 617 0
 1325 000e C021     		movs	r1, #192
 1326 0010 4900     		lsls	r1, r1, #1
 1327 0012 6846     		mov	r0, sp
 1328 0014 FFF7FEFF 		bl	mbedtls_platform_zeroize
 1329              	.LVL112:
 618:Source\mbedtls_open\library/des.c **** 
 619:Source\mbedtls_open\library/des.c ****     return( 0 );
 620:Source\mbedtls_open\library/des.c **** }
 1330              		.loc 1 620 0
 1331 0018 0020     		movs	r0, #0
 1332 001a 61B0     		add	sp, sp, #388
 1333              		@ sp needed
 1334 001c 00BD     		pop	{pc}
 1335              		.cfi_endproc
 1336              	.LFE16:
 1337              		.size	mbedtls_des3_set3key_dec, .-mbedtls_des3_set3key_dec
ARM GAS  C:\Users\Phuong\AppData\Local\Temp\ccawWFGQ.s 			page 36


 1338 001e C046     		.section	.text.mbedtls_des_crypt_ecb,"ax",%progbits
 1339              		.align	2
 1340              		.global	mbedtls_des_crypt_ecb
 1341              		.code	16
 1342              		.thumb_func
 1343              		.type	mbedtls_des_crypt_ecb, %function
 1344              	mbedtls_des_crypt_ecb:
 1345              	.LFB17:
 621:Source\mbedtls_open\library/des.c **** 
 622:Source\mbedtls_open\library/des.c **** /*
 623:Source\mbedtls_open\library/des.c ****  * DES-ECB block encryption/decryption
 624:Source\mbedtls_open\library/des.c ****  */
 625:Source\mbedtls_open\library/des.c **** #if !defined(MBEDTLS_DES_CRYPT_ECB_ALT)
 626:Source\mbedtls_open\library/des.c **** int mbedtls_des_crypt_ecb( mbedtls_des_context *ctx,
 627:Source\mbedtls_open\library/des.c ****                     const unsigned char input[8],
 628:Source\mbedtls_open\library/des.c ****                     unsigned char output[8] )
 629:Source\mbedtls_open\library/des.c **** {
 1346              		.loc 1 629 0
 1347              		.cfi_startproc
 1348              		@ args = 0, pretend = 0, frame = 8
 1349              		@ frame_needed = 0, uses_anonymous_args = 0
 1350              	.LVL113:
 1351 0000 F0B5     		push	{r4, r5, r6, r7, lr}
 1352              		.cfi_def_cfa_offset 20
 1353              		.cfi_offset 4, -20
 1354              		.cfi_offset 5, -16
 1355              		.cfi_offset 6, -12
 1356              		.cfi_offset 7, -8
 1357              		.cfi_offset 14, -4
 1358 0002 5F46     		mov	r7, fp
 1359 0004 5646     		mov	r6, r10
 1360 0006 4D46     		mov	r5, r9
 1361 0008 4446     		mov	r4, r8
 1362 000a F0B4     		push	{r4, r5, r6, r7}
 1363              		.cfi_def_cfa_offset 36
 1364              		.cfi_offset 8, -36
 1365              		.cfi_offset 9, -32
 1366              		.cfi_offset 10, -28
 1367              		.cfi_offset 11, -24
 1368 000c 83B0     		sub	sp, sp, #12
 1369              		.cfi_def_cfa_offset 48
 1370 000e 0192     		str	r2, [sp, #4]
 630:Source\mbedtls_open\library/des.c ****     int i;
 631:Source\mbedtls_open\library/des.c ****     uint32_t X, Y, T, *SK;
 632:Source\mbedtls_open\library/des.c **** 
 633:Source\mbedtls_open\library/des.c ****     SK = ctx->sk;
 1371              		.loc 1 633 0
 1372 0010 0700     		movs	r7, r0
 1373              	.LVL114:
 634:Source\mbedtls_open\library/des.c **** 
 635:Source\mbedtls_open\library/des.c ****     GET_UINT32_BE( X, input, 0 );
 1374              		.loc 1 635 0
 1375 0012 0B78     		ldrb	r3, [r1]
 1376 0014 1806     		lsls	r0, r3, #24
 1377              	.LVL115:
 1378 0016 4A78     		ldrb	r2, [r1, #1]
 1379              	.LVL116:
ARM GAS  C:\Users\Phuong\AppData\Local\Temp\ccawWFGQ.s 			page 37


 1380 0018 1304     		lsls	r3, r2, #16
 1381 001a 0343     		orrs	r3, r0
 1382 001c 8A78     		ldrb	r2, [r1, #2]
 1383 001e 1202     		lsls	r2, r2, #8
 1384 0020 1343     		orrs	r3, r2
 1385 0022 CA78     		ldrb	r2, [r1, #3]
 1386 0024 1343     		orrs	r3, r2
 1387              	.LVL117:
 636:Source\mbedtls_open\library/des.c ****     GET_UINT32_BE( Y, input, 4 );
 1388              		.loc 1 636 0
 1389 0026 0879     		ldrb	r0, [r1, #4]
 1390 0028 0006     		lsls	r0, r0, #24
 1391 002a 4A79     		ldrb	r2, [r1, #5]
 1392 002c 1204     		lsls	r2, r2, #16
 1393 002e 1043     		orrs	r0, r2
 1394 0030 8A79     		ldrb	r2, [r1, #6]
 1395 0032 1202     		lsls	r2, r2, #8
 1396 0034 1043     		orrs	r0, r2
 1397 0036 CA79     		ldrb	r2, [r1, #7]
 1398 0038 1043     		orrs	r0, r2
 1399              	.LVL118:
 637:Source\mbedtls_open\library/des.c **** 
 638:Source\mbedtls_open\library/des.c ****     DES_IP( X, Y );
 1400              		.loc 1 638 0
 1401 003a 1A09     		lsrs	r2, r3, #4
 1402 003c 4240     		eors	r2, r0
 1403 003e 7649     		ldr	r1, .L51
 1404              	.LVL119:
 1405 0040 0A40     		ands	r2, r1
 1406              	.LVL120:
 1407 0042 5040     		eors	r0, r2
 1408              	.LVL121:
 1409 0044 1201     		lsls	r2, r2, #4
 1410              	.LVL122:
 1411 0046 5340     		eors	r3, r2
 1412              	.LVL123:
 1413 0048 190C     		lsrs	r1, r3, #16
 1414              	.LVL124:
 1415 004a 4140     		eors	r1, r0
 1416 004c 0904     		lsls	r1, r1, #16
 1417 004e 090C     		lsrs	r1, r1, #16
 1418              	.LVL125:
 1419 0050 4840     		eors	r0, r1
 1420              	.LVL126:
 1421 0052 0904     		lsls	r1, r1, #16
 1422              	.LVL127:
 1423 0054 4B40     		eors	r3, r1
 1424              	.LVL128:
 1425 0056 8408     		lsrs	r4, r0, #2
 1426 0058 5C40     		eors	r4, r3
 1427 005a 704A     		ldr	r2, .L51+4
 1428              	.LVL129:
 1429 005c 1440     		ands	r4, r2
 1430              	.LVL130:
 1431 005e 6340     		eors	r3, r4
 1432              	.LVL131:
 1433 0060 A400     		lsls	r4, r4, #2
ARM GAS  C:\Users\Phuong\AppData\Local\Temp\ccawWFGQ.s 			page 38


 1434              	.LVL132:
 1435 0062 4440     		eors	r4, r0
 1436              	.LVL133:
 1437 0064 220A     		lsrs	r2, r4, #8
 1438              	.LVL134:
 1439 0066 5A40     		eors	r2, r3
 1440 0068 6D49     		ldr	r1, .L51+8
 1441              	.LVL135:
 1442 006a 0A40     		ands	r2, r1
 1443              	.LVL136:
 1444 006c 5340     		eors	r3, r2
 1445              	.LVL137:
 1446 006e 1202     		lsls	r2, r2, #8
 1447              	.LVL138:
 1448 0070 5440     		eors	r4, r2
 1449              	.LVL139:
 1450 0072 1F25     		movs	r5, #31
 1451 0074 EC41     		rors	r4, r4, r5
 1452              	.LVL140:
 1453 0076 1900     		movs	r1, r3
 1454 0078 6140     		eors	r1, r4
 1455 007a 6A4A     		ldr	r2, .L51+12
 1456 007c 0A40     		ands	r2, r1
 1457              	.LVL141:
 1458 007e 5440     		eors	r4, r2
 1459              	.LVL142:
 1460 0080 2600     		movs	r6, r4
 1461              	.LVL143:
 1462 0082 5A40     		eors	r2, r3
 1463              	.LVL144:
 1464 0084 EA41     		rors	r2, r2, r5
 1465              	.LVL145:
 639:Source\mbedtls_open\library/des.c **** 
 640:Source\mbedtls_open\library/des.c ****     for( i = 0; i < 8; i++ )
 1466              		.loc 1 640 0
 1467 0086 0023     		movs	r3, #0
 1468 0088 0093     		str	r3, [sp]
 1469 008a 1000     		movs	r0, r2
 1470 008c 81E0     		b	.L49
 1471              	.LVL146:
 1472              	.L50:
 641:Source\mbedtls_open\library/des.c ****     {
 642:Source\mbedtls_open\library/des.c ****         DES_ROUND( Y, X );
 1473              		.loc 1 642 0 discriminator 3
 1474 008e 3A68     		ldr	r2, [r7]
 1475 0090 7240     		eors	r2, r6
 1476              	.LVL147:
 1477 0092 3F23     		movs	r3, #63
 1478              	.LVL148:
 1479 0094 1900     		movs	r1, r3
 1480 0096 1140     		ands	r1, r2
 1481 0098 634C     		ldr	r4, .L51+16
 1482 009a A246     		mov	r10, r4
 1483 009c 8900     		lsls	r1, r1, #2
 1484 009e 0959     		ldr	r1, [r1, r4]
 1485 00a0 8C46     		mov	ip, r1
 1486 00a2 150A     		lsrs	r5, r2, #8
ARM GAS  C:\Users\Phuong\AppData\Local\Temp\ccawWFGQ.s 			page 39


 1487 00a4 1D40     		ands	r5, r3
 1488 00a6 6149     		ldr	r1, .L51+20
 1489 00a8 8946     		mov	r9, r1
 1490 00aa AD00     		lsls	r5, r5, #2
 1491 00ac 6958     		ldr	r1, [r5, r1]
 1492 00ae 6446     		mov	r4, ip
 1493 00b0 6140     		eors	r1, r4
 1494 00b2 150C     		lsrs	r5, r2, #16
 1495 00b4 1D40     		ands	r5, r3
 1496 00b6 5E4C     		ldr	r4, .L51+24
 1497 00b8 A046     		mov	r8, r4
 1498 00ba AD00     		lsls	r5, r5, #2
 1499 00bc 2D59     		ldr	r5, [r5, r4]
 1500 00be 6940     		eors	r1, r5
 1501 00c0 120E     		lsrs	r2, r2, #24
 1502              	.LVL149:
 1503 00c2 1A40     		ands	r2, r3
 1504 00c4 9200     		lsls	r2, r2, #2
 1505 00c6 5B4C     		ldr	r4, .L51+28
 1506 00c8 1259     		ldr	r2, [r2, r4]
 1507 00ca 5140     		eors	r1, r2
 1508 00cc 4140     		eors	r1, r0
 1509              	.LVL150:
 1510 00ce 3200     		movs	r2, r6
 1511 00d0 0420     		movs	r0, #4
 1512 00d2 C241     		rors	r2, r2, r0
 1513 00d4 7868     		ldr	r0, [r7, #4]
 1514 00d6 4240     		eors	r2, r0
 1515              	.LVL151:
 1516 00d8 1800     		movs	r0, r3
 1517 00da 1040     		ands	r0, r2
 1518 00dc 8000     		lsls	r0, r0, #2
 1519 00de 564C     		ldr	r4, .L51+32
 1520 00e0 0059     		ldr	r0, [r0, r4]
 1521 00e2 150A     		lsrs	r5, r2, #8
 1522 00e4 1D40     		ands	r5, r3
 1523 00e6 554C     		ldr	r4, .L51+36
 1524 00e8 A446     		mov	ip, r4
 1525 00ea AD00     		lsls	r5, r5, #2
 1526 00ec 2D59     		ldr	r5, [r5, r4]
 1527 00ee 6840     		eors	r0, r5
 1528 00f0 8346     		mov	fp, r0
 1529 00f2 100C     		lsrs	r0, r2, #16
 1530 00f4 1840     		ands	r0, r3
 1531 00f6 524D     		ldr	r5, .L51+40
 1532 00f8 8000     		lsls	r0, r0, #2
 1533 00fa 4059     		ldr	r0, [r0, r5]
 1534 00fc 5C46     		mov	r4, fp
 1535 00fe 6040     		eors	r0, r4
 1536 0100 120E     		lsrs	r2, r2, #24
 1537              	.LVL152:
 1538 0102 1A40     		ands	r2, r3
 1539 0104 4F4C     		ldr	r4, .L51+44
 1540 0106 A346     		mov	fp, r4
 1541 0108 9200     		lsls	r2, r2, #2
 1542 010a 1259     		ldr	r2, [r2, r4]
 1543 010c 5040     		eors	r0, r2
ARM GAS  C:\Users\Phuong\AppData\Local\Temp\ccawWFGQ.s 			page 40


 1544 010e 4840     		eors	r0, r1
 1545              	.LVL153:
 643:Source\mbedtls_open\library/des.c ****         DES_ROUND( X, Y );
 1546              		.loc 1 643 0 discriminator 3
 1547 0110 BA68     		ldr	r2, [r7, #8]
 1548 0112 4240     		eors	r2, r0
 1549              	.LVL154:
 1550 0114 1900     		movs	r1, r3
 1551 0116 1140     		ands	r1, r2
 1552 0118 8900     		lsls	r1, r1, #2
 1553 011a 5446     		mov	r4, r10
 1554 011c 0959     		ldr	r1, [r1, r4]
 1555 011e 8A46     		mov	r10, r1
 1556 0120 110A     		lsrs	r1, r2, #8
 1557 0122 1940     		ands	r1, r3
 1558 0124 8900     		lsls	r1, r1, #2
 1559 0126 4C46     		mov	r4, r9
 1560 0128 0959     		ldr	r1, [r1, r4]
 1561 012a 5446     		mov	r4, r10
 1562 012c 4C40     		eors	r4, r1
 1563 012e A246     		mov	r10, r4
 1564 0130 110C     		lsrs	r1, r2, #16
 1565 0132 1940     		ands	r1, r3
 1566 0134 8900     		lsls	r1, r1, #2
 1567 0136 4446     		mov	r4, r8
 1568 0138 0959     		ldr	r1, [r1, r4]
 1569 013a 5446     		mov	r4, r10
 1570 013c 6140     		eors	r1, r4
 1571 013e 120E     		lsrs	r2, r2, #24
 1572              	.LVL155:
 1573 0140 1A40     		ands	r2, r3
 1574 0142 9200     		lsls	r2, r2, #2
 1575 0144 3B4C     		ldr	r4, .L51+28
 1576 0146 1259     		ldr	r2, [r2, r4]
 1577 0148 5140     		eors	r1, r2
 1578 014a 7140     		eors	r1, r6
 1579              	.LVL156:
 1580 014c 0200     		movs	r2, r0
 1581 014e 0424     		movs	r4, #4
 1582 0150 E241     		rors	r2, r2, r4
 1583 0152 FC68     		ldr	r4, [r7, #12]
 1584 0154 6240     		eors	r2, r4
 1585              	.LVL157:
 1586 0156 1E00     		movs	r6, r3
 1587 0158 1640     		ands	r6, r2
 1588 015a B600     		lsls	r6, r6, #2
 1589 015c 364C     		ldr	r4, .L51+32
 1590 015e 3459     		ldr	r4, [r6, r4]
 1591 0160 A046     		mov	r8, r4
 1592 0162 160A     		lsrs	r6, r2, #8
 1593 0164 1E40     		ands	r6, r3
 1594 0166 B600     		lsls	r6, r6, #2
 1595 0168 6446     		mov	r4, ip
 1596 016a 3659     		ldr	r6, [r6, r4]
 1597 016c 4446     		mov	r4, r8
 1598 016e 7440     		eors	r4, r6
 1599 0170 160C     		lsrs	r6, r2, #16
ARM GAS  C:\Users\Phuong\AppData\Local\Temp\ccawWFGQ.s 			page 41


 1600 0172 1E40     		ands	r6, r3
 1601 0174 B600     		lsls	r6, r6, #2
 1602 0176 7559     		ldr	r5, [r6, r5]
 1603 0178 2600     		movs	r6, r4
 1604 017a 6E40     		eors	r6, r5
 1605 017c 120E     		lsrs	r2, r2, #24
 1606              	.LVL158:
 1607 017e 1340     		ands	r3, r2
 1608 0180 9B00     		lsls	r3, r3, #2
 1609 0182 5A46     		mov	r2, fp
 1610 0184 9B58     		ldr	r3, [r3, r2]
 1611 0186 5E40     		eors	r6, r3
 1612 0188 4E40     		eors	r6, r1
 1613              	.LVL159:
 640:Source\mbedtls_open\library/des.c ****     {
 1614              		.loc 1 640 0 discriminator 3
 1615 018a 009B     		ldr	r3, [sp]
 1616 018c 0133     		adds	r3, r3, #1
 1617 018e 0093     		str	r3, [sp]
 1618              	.LVL160:
 1619              		.loc 1 643 0 discriminator 3
 1620 0190 1037     		adds	r7, r7, #16
 1621              	.LVL161:
 1622              	.L49:
 640:Source\mbedtls_open\library/des.c ****     {
 1623              		.loc 1 640 0 discriminator 1
 1624 0192 009B     		ldr	r3, [sp]
 1625 0194 072B     		cmp	r3, #7
 1626 0196 00DC     		bgt	.LCB1600
 1627 0198 79E7     		b	.L50	@long jump
 1628              	.LCB1600:
 644:Source\mbedtls_open\library/des.c ****     }
 645:Source\mbedtls_open\library/des.c **** 
 646:Source\mbedtls_open\library/des.c ****     DES_FP( Y, X );
 1629              		.loc 1 646 0
 1630 019a 0124     		movs	r4, #1
 1631 019c 3300     		movs	r3, r6
 1632 019e E341     		rors	r3, r3, r4
 1633              	.LVL162:
 1634 01a0 0100     		movs	r1, r0
 1635 01a2 5940     		eors	r1, r3
 1636 01a4 1F4A     		ldr	r2, .L51+12
 1637 01a6 0A40     		ands	r2, r1
 1638              	.LVL163:
 1639 01a8 5340     		eors	r3, r2
 1640              	.LVL164:
 1641 01aa 0100     		movs	r1, r0
 1642 01ac 5140     		eors	r1, r2
 1643 01ae 0A00     		movs	r2, r1
 1644              	.LVL165:
 1645 01b0 E241     		rors	r2, r2, r4
 1646              	.LVL166:
 1647 01b2 140A     		lsrs	r4, r2, #8
 1648              	.LVL167:
 1649 01b4 5C40     		eors	r4, r3
 1650 01b6 1A4D     		ldr	r5, .L51+8
 1651 01b8 2C40     		ands	r4, r5
ARM GAS  C:\Users\Phuong\AppData\Local\Temp\ccawWFGQ.s 			page 42


 1652              	.LVL168:
 1653 01ba 6340     		eors	r3, r4
 1654              	.LVL169:
 1655 01bc 2402     		lsls	r4, r4, #8
 1656              	.LVL170:
 1657 01be 6240     		eors	r2, r4
 1658              	.LVL171:
 1659 01c0 9408     		lsrs	r4, r2, #2
 1660 01c2 5C40     		eors	r4, r3
 1661 01c4 154D     		ldr	r5, .L51+4
 1662              	.LVL172:
 1663 01c6 2C40     		ands	r4, r5
 1664              	.LVL173:
 1665 01c8 6340     		eors	r3, r4
 1666              	.LVL174:
 1667 01ca A400     		lsls	r4, r4, #2
 1668              	.LVL175:
 1669 01cc 6240     		eors	r2, r4
 1670              	.LVL176:
 1671 01ce 190C     		lsrs	r1, r3, #16
 1672              	.LVL177:
 1673 01d0 5140     		eors	r1, r2
 1674 01d2 0904     		lsls	r1, r1, #16
 1675 01d4 090C     		lsrs	r1, r1, #16
 1676              	.LVL178:
 1677 01d6 4A40     		eors	r2, r1
 1678              	.LVL179:
 1679 01d8 0904     		lsls	r1, r1, #16
 1680              	.LVL180:
 1681 01da 4B40     		eors	r3, r1
 1682              	.LVL181:
 1683 01dc 1909     		lsrs	r1, r3, #4
 1684 01de 5140     		eors	r1, r2
 1685 01e0 0D48     		ldr	r0, .L51
 1686 01e2 0140     		ands	r1, r0
 1687              	.LVL182:
 1688 01e4 4A40     		eors	r2, r1
 1689              	.LVL183:
 1690 01e6 0901     		lsls	r1, r1, #4
 1691              	.LVL184:
 1692 01e8 4B40     		eors	r3, r1
 1693              	.LVL185:
 647:Source\mbedtls_open\library/des.c **** 
 648:Source\mbedtls_open\library/des.c ****     PUT_UINT32_BE( Y, output, 0 );
 1694              		.loc 1 648 0
 1695 01ea 190E     		lsrs	r1, r3, #24
 1696 01ec 0198     		ldr	r0, [sp, #4]
 1697 01ee 0170     		strb	r1, [r0]
 1698 01f0 190C     		lsrs	r1, r3, #16
 1699 01f2 4170     		strb	r1, [r0, #1]
 1700 01f4 190A     		lsrs	r1, r3, #8
 1701 01f6 8170     		strb	r1, [r0, #2]
 1702 01f8 C370     		strb	r3, [r0, #3]
 649:Source\mbedtls_open\library/des.c ****     PUT_UINT32_BE( X, output, 4 );
 1703              		.loc 1 649 0
 1704 01fa 130E     		lsrs	r3, r2, #24
 1705              	.LVL186:
ARM GAS  C:\Users\Phuong\AppData\Local\Temp\ccawWFGQ.s 			page 43


 1706 01fc 0371     		strb	r3, [r0, #4]
 1707 01fe 130C     		lsrs	r3, r2, #16
 1708 0200 4371     		strb	r3, [r0, #5]
 1709 0202 130A     		lsrs	r3, r2, #8
 1710 0204 8371     		strb	r3, [r0, #6]
 1711 0206 C271     		strb	r2, [r0, #7]
 650:Source\mbedtls_open\library/des.c **** 
 651:Source\mbedtls_open\library/des.c ****     return( 0 );
 652:Source\mbedtls_open\library/des.c **** }
 1712              		.loc 1 652 0
 1713 0208 0020     		movs	r0, #0
 1714 020a 03B0     		add	sp, sp, #12
 1715              	.LVL187:
 1716              		@ sp needed
 1717              	.LVL188:
 1718 020c 3CBC     		pop	{r2, r3, r4, r5}
 1719 020e 9046     		mov	r8, r2
 1720 0210 9946     		mov	r9, r3
 1721 0212 A246     		mov	r10, r4
 1722 0214 AB46     		mov	fp, r5
 1723 0216 F0BD     		pop	{r4, r5, r6, r7, pc}
 1724              	.L52:
 1725              		.align	2
 1726              	.L51:
 1727 0218 0F0F0F0F 		.word	252645135
 1728 021c 33333333 		.word	858993459
 1729 0220 FF00FF00 		.word	16711935
 1730 0224 AAAAAAAA 		.word	-1431655766
 1731 0228 B0010000 		.word	.LANCHOR3
 1732 022c B0020000 		.word	.LANCHOR4
 1733 0230 B0030000 		.word	.LANCHOR5
 1734 0234 B0040000 		.word	.LANCHOR6
 1735 0238 B0050000 		.word	.LANCHOR7
 1736 023c B0060000 		.word	.LANCHOR8
 1737 0240 B0070000 		.word	.LANCHOR9
 1738 0244 B0080000 		.word	.LANCHOR10
 1739              		.cfi_endproc
 1740              	.LFE17:
 1741              		.size	mbedtls_des_crypt_ecb, .-mbedtls_des_crypt_ecb
 1742              		.section	.text.mbedtls_des_crypt_cbc,"ax",%progbits
 1743              		.align	2
 1744              		.global	mbedtls_des_crypt_cbc
 1745              		.code	16
 1746              		.thumb_func
 1747              		.type	mbedtls_des_crypt_cbc, %function
 1748              	mbedtls_des_crypt_cbc:
 1749              	.LFB18:
 653:Source\mbedtls_open\library/des.c **** #endif /* !MBEDTLS_DES_CRYPT_ECB_ALT */
 654:Source\mbedtls_open\library/des.c **** 
 655:Source\mbedtls_open\library/des.c **** #if defined(MBEDTLS_CIPHER_MODE_CBC)
 656:Source\mbedtls_open\library/des.c **** /*
 657:Source\mbedtls_open\library/des.c ****  * DES-CBC buffer encryption/decryption
 658:Source\mbedtls_open\library/des.c ****  */
 659:Source\mbedtls_open\library/des.c **** int mbedtls_des_crypt_cbc( mbedtls_des_context *ctx,
 660:Source\mbedtls_open\library/des.c ****                     int mode,
 661:Source\mbedtls_open\library/des.c ****                     size_t length,
 662:Source\mbedtls_open\library/des.c ****                     unsigned char iv[8],
ARM GAS  C:\Users\Phuong\AppData\Local\Temp\ccawWFGQ.s 			page 44


 663:Source\mbedtls_open\library/des.c ****                     const unsigned char *input,
 664:Source\mbedtls_open\library/des.c ****                     unsigned char *output )
 665:Source\mbedtls_open\library/des.c **** {
 1750              		.loc 1 665 0
 1751              		.cfi_startproc
 1752              		@ args = 8, pretend = 0, frame = 16
 1753              		@ frame_needed = 0, uses_anonymous_args = 0
 1754              	.LVL189:
 1755 0000 F0B5     		push	{r4, r5, r6, r7, lr}
 1756              		.cfi_def_cfa_offset 20
 1757              		.cfi_offset 4, -20
 1758              		.cfi_offset 5, -16
 1759              		.cfi_offset 6, -12
 1760              		.cfi_offset 7, -8
 1761              		.cfi_offset 14, -4
 1762 0002 85B0     		sub	sp, sp, #20
 1763              		.cfi_def_cfa_offset 40
 1764 0004 0190     		str	r0, [sp, #4]
 1765 0006 1400     		movs	r4, r2
 1766 0008 1E00     		movs	r6, r3
 1767 000a 0A9F     		ldr	r7, [sp, #40]
 1768 000c 0B9D     		ldr	r5, [sp, #44]
 666:Source\mbedtls_open\library/des.c ****     int i;
 667:Source\mbedtls_open\library/des.c ****     unsigned char temp[8];
 668:Source\mbedtls_open\library/des.c **** 
 669:Source\mbedtls_open\library/des.c ****     if( length % 8 )
 1769              		.loc 1 669 0
 1770 000e 5307     		lsls	r3, r2, #29
 1771 0010 3CD1     		bne	.L62
 1772              	.LVL190:
 670:Source\mbedtls_open\library/des.c ****         return( MBEDTLS_ERR_DES_INVALID_INPUT_LENGTH );
 671:Source\mbedtls_open\library/des.c **** 
 672:Source\mbedtls_open\library/des.c ****     if( mode == MBEDTLS_DES_ENCRYPT )
 1773              		.loc 1 672 0
 1774 0012 0129     		cmp	r1, #1
 1775 0014 36D1     		bne	.L56
 1776 0016 15E0     		b	.L55
 1777              	.LVL191:
 1778              	.L57:
 673:Source\mbedtls_open\library/des.c ****     {
 674:Source\mbedtls_open\library/des.c ****         while( length > 0 )
 675:Source\mbedtls_open\library/des.c ****         {
 676:Source\mbedtls_open\library/des.c ****             for( i = 0; i < 8; i++ )
 677:Source\mbedtls_open\library/des.c ****                 output[i] = (unsigned char)( input[i] ^ iv[i] );
 1779              		.loc 1 677 0 discriminator 3
 1780 0018 F95C     		ldrb	r1, [r7, r3]
 1781 001a F25C     		ldrb	r2, [r6, r3]
 1782 001c 4A40     		eors	r2, r1
 1783 001e EA54     		strb	r2, [r5, r3]
 676:Source\mbedtls_open\library/des.c ****                 output[i] = (unsigned char)( input[i] ^ iv[i] );
 1784              		.loc 1 676 0 discriminator 3
 1785 0020 0133     		adds	r3, r3, #1
 1786              	.LVL192:
 1787 0022 00E0     		b	.L58
 1788              	.LVL193:
 1789              	.L63:
 1790 0024 0023     		movs	r3, #0
ARM GAS  C:\Users\Phuong\AppData\Local\Temp\ccawWFGQ.s 			page 45


 1791              	.L58:
 1792              	.LVL194:
 676:Source\mbedtls_open\library/des.c ****                 output[i] = (unsigned char)( input[i] ^ iv[i] );
 1793              		.loc 1 676 0 is_stmt 0 discriminator 1
 1794 0026 072B     		cmp	r3, #7
 1795 0028 F6DD     		ble	.L57
 678:Source\mbedtls_open\library/des.c **** 
 679:Source\mbedtls_open\library/des.c ****             mbedtls_des_crypt_ecb( ctx, output, output );
 1796              		.loc 1 679 0 is_stmt 1
 1797 002a 2A00     		movs	r2, r5
 1798 002c 2900     		movs	r1, r5
 1799 002e 0198     		ldr	r0, [sp, #4]
 1800 0030 FFF7FEFF 		bl	mbedtls_des_crypt_ecb
 1801              	.LVL195:
 680:Source\mbedtls_open\library/des.c ****             memcpy( iv, output, 8 );
 1802              		.loc 1 680 0
 1803 0034 0822     		movs	r2, #8
 1804 0036 2900     		movs	r1, r5
 1805 0038 3000     		movs	r0, r6
 1806 003a FFF7FEFF 		bl	memcpy
 1807              	.LVL196:
 681:Source\mbedtls_open\library/des.c **** 
 682:Source\mbedtls_open\library/des.c ****             input  += 8;
 1808              		.loc 1 682 0
 1809 003e 0837     		adds	r7, r7, #8
 1810              	.LVL197:
 683:Source\mbedtls_open\library/des.c ****             output += 8;
 1811              		.loc 1 683 0
 1812 0040 0835     		adds	r5, r5, #8
 1813              	.LVL198:
 684:Source\mbedtls_open\library/des.c ****             length -= 8;
 1814              		.loc 1 684 0
 1815 0042 083C     		subs	r4, r4, #8
 1816              	.LVL199:
 1817              	.L55:
 674:Source\mbedtls_open\library/des.c ****         {
 1818              		.loc 1 674 0
 1819 0044 002C     		cmp	r4, #0
 1820 0046 EDD1     		bne	.L63
 685:Source\mbedtls_open\library/des.c ****         }
 686:Source\mbedtls_open\library/des.c ****     }
 687:Source\mbedtls_open\library/des.c ****     else /* MBEDTLS_DES_DECRYPT */
 688:Source\mbedtls_open\library/des.c ****     {
 689:Source\mbedtls_open\library/des.c ****         while( length > 0 )
 690:Source\mbedtls_open\library/des.c ****         {
 691:Source\mbedtls_open\library/des.c ****             memcpy( temp, input, 8 );
 692:Source\mbedtls_open\library/des.c ****             mbedtls_des_crypt_ecb( ctx, input, output );
 693:Source\mbedtls_open\library/des.c **** 
 694:Source\mbedtls_open\library/des.c ****             for( i = 0; i < 8; i++ )
 695:Source\mbedtls_open\library/des.c ****                 output[i] = (unsigned char)( output[i] ^ iv[i] );
 696:Source\mbedtls_open\library/des.c **** 
 697:Source\mbedtls_open\library/des.c ****             memcpy( iv, temp, 8 );
 698:Source\mbedtls_open\library/des.c **** 
 699:Source\mbedtls_open\library/des.c ****             input  += 8;
 700:Source\mbedtls_open\library/des.c ****             output += 8;
 701:Source\mbedtls_open\library/des.c ****             length -= 8;
 702:Source\mbedtls_open\library/des.c ****         }
ARM GAS  C:\Users\Phuong\AppData\Local\Temp\ccawWFGQ.s 			page 46


 703:Source\mbedtls_open\library/des.c ****     }
 704:Source\mbedtls_open\library/des.c **** 
 705:Source\mbedtls_open\library/des.c ****     return( 0 );
 1821              		.loc 1 705 0
 1822 0048 0020     		movs	r0, #0
 1823 004a 21E0     		b	.L54
 1824              	.L61:
 691:Source\mbedtls_open\library/des.c ****             mbedtls_des_crypt_ecb( ctx, input, output );
 1825              		.loc 1 691 0
 1826 004c 0822     		movs	r2, #8
 1827 004e 3900     		movs	r1, r7
 1828 0050 02A8     		add	r0, sp, #8
 1829 0052 FFF7FEFF 		bl	memcpy
 1830              	.LVL200:
 692:Source\mbedtls_open\library/des.c **** 
 1831              		.loc 1 692 0
 1832 0056 2A00     		movs	r2, r5
 1833 0058 3900     		movs	r1, r7
 1834 005a 0198     		ldr	r0, [sp, #4]
 1835 005c FFF7FEFF 		bl	mbedtls_des_crypt_ecb
 1836              	.LVL201:
 694:Source\mbedtls_open\library/des.c ****                 output[i] = (unsigned char)( output[i] ^ iv[i] );
 1837              		.loc 1 694 0
 1838 0060 0023     		movs	r3, #0
 1839 0062 05E0     		b	.L59
 1840              	.LVL202:
 1841              	.L60:
 695:Source\mbedtls_open\library/des.c **** 
 1842              		.loc 1 695 0 discriminator 3
 1843 0064 E918     		adds	r1, r5, r3
 1844 0066 0878     		ldrb	r0, [r1]
 1845 0068 F25C     		ldrb	r2, [r6, r3]
 1846 006a 4240     		eors	r2, r0
 1847 006c 0A70     		strb	r2, [r1]
 694:Source\mbedtls_open\library/des.c ****                 output[i] = (unsigned char)( output[i] ^ iv[i] );
 1848              		.loc 1 694 0 discriminator 3
 1849 006e 0133     		adds	r3, r3, #1
 1850              	.LVL203:
 1851              	.L59:
 694:Source\mbedtls_open\library/des.c ****                 output[i] = (unsigned char)( output[i] ^ iv[i] );
 1852              		.loc 1 694 0 is_stmt 0 discriminator 1
 1853 0070 072B     		cmp	r3, #7
 1854 0072 F7DD     		ble	.L60
 697:Source\mbedtls_open\library/des.c **** 
 1855              		.loc 1 697 0 is_stmt 1
 1856 0074 0822     		movs	r2, #8
 1857 0076 02A9     		add	r1, sp, #8
 1858 0078 3000     		movs	r0, r6
 1859 007a FFF7FEFF 		bl	memcpy
 1860              	.LVL204:
 699:Source\mbedtls_open\library/des.c ****             output += 8;
 1861              		.loc 1 699 0
 1862 007e 0837     		adds	r7, r7, #8
 1863              	.LVL205:
 700:Source\mbedtls_open\library/des.c ****             length -= 8;
 1864              		.loc 1 700 0
 1865 0080 0835     		adds	r5, r5, #8
ARM GAS  C:\Users\Phuong\AppData\Local\Temp\ccawWFGQ.s 			page 47


 1866              	.LVL206:
 701:Source\mbedtls_open\library/des.c ****         }
 1867              		.loc 1 701 0
 1868 0082 083C     		subs	r4, r4, #8
 1869              	.LVL207:
 1870              	.L56:
 689:Source\mbedtls_open\library/des.c ****         {
 1871              		.loc 1 689 0
 1872 0084 002C     		cmp	r4, #0
 1873 0086 E1D1     		bne	.L61
 1874              		.loc 1 705 0
 1875 0088 0020     		movs	r0, #0
 1876 008a 01E0     		b	.L54
 1877              	.LVL208:
 1878              	.L62:
 670:Source\mbedtls_open\library/des.c **** 
 1879              		.loc 1 670 0
 1880 008c 3220     		movs	r0, #50
 1881              	.LVL209:
 1882 008e 4042     		rsbs	r0, r0, #0
 1883              	.LVL210:
 1884              	.L54:
 706:Source\mbedtls_open\library/des.c **** }
 1885              		.loc 1 706 0
 1886 0090 05B0     		add	sp, sp, #20
 1887              		@ sp needed
 1888              	.LVL211:
 1889              	.LVL212:
 1890 0092 F0BD     		pop	{r4, r5, r6, r7, pc}
 1891              		.cfi_endproc
 1892              	.LFE18:
 1893              		.size	mbedtls_des_crypt_cbc, .-mbedtls_des_crypt_cbc
 1894              		.section	.text.mbedtls_des3_crypt_ecb,"ax",%progbits
 1895              		.align	2
 1896              		.global	mbedtls_des3_crypt_ecb
 1897              		.code	16
 1898              		.thumb_func
 1899              		.type	mbedtls_des3_crypt_ecb, %function
 1900              	mbedtls_des3_crypt_ecb:
 1901              	.LFB19:
 707:Source\mbedtls_open\library/des.c **** #endif /* MBEDTLS_CIPHER_MODE_CBC */
 708:Source\mbedtls_open\library/des.c **** 
 709:Source\mbedtls_open\library/des.c **** /*
 710:Source\mbedtls_open\library/des.c ****  * 3DES-ECB block encryption/decryption
 711:Source\mbedtls_open\library/des.c ****  */
 712:Source\mbedtls_open\library/des.c **** #if !defined(MBEDTLS_DES3_CRYPT_ECB_ALT)
 713:Source\mbedtls_open\library/des.c **** int mbedtls_des3_crypt_ecb( mbedtls_des3_context *ctx,
 714:Source\mbedtls_open\library/des.c ****                      const unsigned char input[8],
 715:Source\mbedtls_open\library/des.c ****                      unsigned char output[8] )
 716:Source\mbedtls_open\library/des.c **** {
 1902              		.loc 1 716 0
 1903              		.cfi_startproc
 1904              		@ args = 0, pretend = 0, frame = 8
 1905              		@ frame_needed = 0, uses_anonymous_args = 0
 1906              	.LVL213:
 1907 0000 F0B5     		push	{r4, r5, r6, r7, lr}
 1908              		.cfi_def_cfa_offset 20
ARM GAS  C:\Users\Phuong\AppData\Local\Temp\ccawWFGQ.s 			page 48


 1909              		.cfi_offset 4, -20
 1910              		.cfi_offset 5, -16
 1911              		.cfi_offset 6, -12
 1912              		.cfi_offset 7, -8
 1913              		.cfi_offset 14, -4
 1914 0002 5F46     		mov	r7, fp
 1915 0004 5646     		mov	r6, r10
 1916 0006 4D46     		mov	r5, r9
 1917 0008 4446     		mov	r4, r8
 1918 000a F0B4     		push	{r4, r5, r6, r7}
 1919              		.cfi_def_cfa_offset 36
 1920              		.cfi_offset 8, -36
 1921              		.cfi_offset 9, -32
 1922              		.cfi_offset 10, -28
 1923              		.cfi_offset 11, -24
 1924 000c 83B0     		sub	sp, sp, #12
 1925              		.cfi_def_cfa_offset 48
 1926 000e 0192     		str	r2, [sp, #4]
 717:Source\mbedtls_open\library/des.c ****     int i;
 718:Source\mbedtls_open\library/des.c ****     uint32_t X, Y, T, *SK;
 719:Source\mbedtls_open\library/des.c **** 
 720:Source\mbedtls_open\library/des.c ****     SK = ctx->sk;
 1927              		.loc 1 720 0
 1928 0010 0500     		movs	r5, r0
 1929              	.LVL214:
 721:Source\mbedtls_open\library/des.c **** 
 722:Source\mbedtls_open\library/des.c ****     GET_UINT32_BE( X, input, 0 );
 1930              		.loc 1 722 0
 1931 0012 0B78     		ldrb	r3, [r1]
 1932 0014 1806     		lsls	r0, r3, #24
 1933              	.LVL215:
 1934 0016 4A78     		ldrb	r2, [r1, #1]
 1935              	.LVL216:
 1936 0018 1304     		lsls	r3, r2, #16
 1937 001a 0343     		orrs	r3, r0
 1938 001c 8A78     		ldrb	r2, [r1, #2]
 1939 001e 1202     		lsls	r2, r2, #8
 1940 0020 1343     		orrs	r3, r2
 1941 0022 CA78     		ldrb	r2, [r1, #3]
 1942 0024 1343     		orrs	r3, r2
 1943              	.LVL217:
 723:Source\mbedtls_open\library/des.c ****     GET_UINT32_BE( Y, input, 4 );
 1944              		.loc 1 723 0
 1945 0026 0A79     		ldrb	r2, [r1, #4]
 1946 0028 1006     		lsls	r0, r2, #24
 1947 002a 4A79     		ldrb	r2, [r1, #5]
 1948 002c 1204     		lsls	r2, r2, #16
 1949 002e 1043     		orrs	r0, r2
 1950 0030 8A79     		ldrb	r2, [r1, #6]
 1951 0032 1202     		lsls	r2, r2, #8
 1952 0034 1043     		orrs	r0, r2
 1953 0036 CA79     		ldrb	r2, [r1, #7]
 1954 0038 1043     		orrs	r0, r2
 1955              	.LVL218:
 724:Source\mbedtls_open\library/des.c **** 
 725:Source\mbedtls_open\library/des.c ****     DES_IP( X, Y );
 1956              		.loc 1 725 0
ARM GAS  C:\Users\Phuong\AppData\Local\Temp\ccawWFGQ.s 			page 49


 1957 003a 1A09     		lsrs	r2, r3, #4
 1958 003c 4240     		eors	r2, r0
 1959 003e 9D49     		ldr	r1, .L71
 1960              	.LVL219:
 1961 0040 0A40     		ands	r2, r1
 1962              	.LVL220:
 1963 0042 0100     		movs	r1, r0
 1964 0044 5140     		eors	r1, r2
 1965              	.LVL221:
 1966 0046 1201     		lsls	r2, r2, #4
 1967              	.LVL222:
 1968 0048 5340     		eors	r3, r2
 1969              	.LVL223:
 1970 004a 1C0C     		lsrs	r4, r3, #16
 1971 004c 4C40     		eors	r4, r1
 1972 004e 2404     		lsls	r4, r4, #16
 1973 0050 240C     		lsrs	r4, r4, #16
 1974              	.LVL224:
 1975 0052 6140     		eors	r1, r4
 1976              	.LVL225:
 1977 0054 2404     		lsls	r4, r4, #16
 1978              	.LVL226:
 1979 0056 6340     		eors	r3, r4
 1980              	.LVL227:
 1981 0058 8808     		lsrs	r0, r1, #2
 1982              	.LVL228:
 1983 005a 5840     		eors	r0, r3
 1984 005c 964A     		ldr	r2, .L71+4
 1985              	.LVL229:
 1986 005e 1040     		ands	r0, r2
 1987              	.LVL230:
 1988 0060 4340     		eors	r3, r0
 1989              	.LVL231:
 1990 0062 8000     		lsls	r0, r0, #2
 1991              	.LVL232:
 1992 0064 4840     		eors	r0, r1
 1993              	.LVL233:
 1994 0066 040A     		lsrs	r4, r0, #8
 1995              	.LVL234:
 1996 0068 5C40     		eors	r4, r3
 1997 006a 944A     		ldr	r2, .L71+8
 1998              	.LVL235:
 1999 006c 1440     		ands	r4, r2
 2000              	.LVL236:
 2001 006e 6340     		eors	r3, r4
 2002              	.LVL237:
 2003 0070 2402     		lsls	r4, r4, #8
 2004              	.LVL238:
 2005 0072 6040     		eors	r0, r4
 2006              	.LVL239:
 2007 0074 1F24     		movs	r4, #31
 2008 0076 E041     		rors	r0, r0, r4
 2009              	.LVL240:
 2010 0078 1900     		movs	r1, r3
 2011 007a 4140     		eors	r1, r0
 2012 007c 904A     		ldr	r2, .L71+12
 2013 007e 0A40     		ands	r2, r1
ARM GAS  C:\Users\Phuong\AppData\Local\Temp\ccawWFGQ.s 			page 50


 2014              	.LVL241:
 2015 0080 5040     		eors	r0, r2
 2016              	.LVL242:
 2017 0082 5A40     		eors	r2, r3
 2018              	.LVL243:
 2019 0084 E241     		rors	r2, r2, r4
 2020              	.LVL244:
 726:Source\mbedtls_open\library/des.c **** 
 727:Source\mbedtls_open\library/des.c ****     for( i = 0; i < 8; i++ )
 2021              		.loc 1 727 0
 2022 0086 0023     		movs	r3, #0
 2023 0088 0093     		str	r3, [sp]
 2024 008a 1400     		movs	r4, r2
 2025 008c 0100     		movs	r1, r0
 2026              	.LVL245:
 2027 008e 81E0     		b	.L65
 2028              	.LVL246:
 2029              	.L66:
 728:Source\mbedtls_open\library/des.c ****     {
 729:Source\mbedtls_open\library/des.c ****         DES_ROUND( Y, X );
 2030              		.loc 1 729 0 discriminator 3
 2031 0090 2A68     		ldr	r2, [r5]
 2032 0092 4A40     		eors	r2, r1
 2033              	.LVL247:
 2034 0094 3F23     		movs	r3, #63
 2035              	.LVL248:
 2036 0096 1800     		movs	r0, r3
 2037 0098 1040     		ands	r0, r2
 2038 009a 8A4E     		ldr	r6, .L71+16
 2039 009c B246     		mov	r10, r6
 2040 009e 8000     		lsls	r0, r0, #2
 2041 00a0 8059     		ldr	r0, [r0, r6]
 2042 00a2 8446     		mov	ip, r0
 2043 00a4 170A     		lsrs	r7, r2, #8
 2044 00a6 1F40     		ands	r7, r3
 2045 00a8 8748     		ldr	r0, .L71+20
 2046 00aa 8146     		mov	r9, r0
 2047 00ac BF00     		lsls	r7, r7, #2
 2048 00ae 3858     		ldr	r0, [r7, r0]
 2049 00b0 6646     		mov	r6, ip
 2050 00b2 7040     		eors	r0, r6
 2051 00b4 170C     		lsrs	r7, r2, #16
 2052 00b6 1F40     		ands	r7, r3
 2053 00b8 844E     		ldr	r6, .L71+24
 2054 00ba B046     		mov	r8, r6
 2055 00bc BF00     		lsls	r7, r7, #2
 2056 00be BF59     		ldr	r7, [r7, r6]
 2057 00c0 7840     		eors	r0, r7
 2058 00c2 120E     		lsrs	r2, r2, #24
 2059              	.LVL249:
 2060 00c4 1A40     		ands	r2, r3
 2061 00c6 9200     		lsls	r2, r2, #2
 2062 00c8 814E     		ldr	r6, .L71+28
 2063 00ca 9259     		ldr	r2, [r2, r6]
 2064 00cc 5040     		eors	r0, r2
 2065 00ce 6040     		eors	r0, r4
 2066              	.LVL250:
ARM GAS  C:\Users\Phuong\AppData\Local\Temp\ccawWFGQ.s 			page 51


 2067 00d0 0A00     		movs	r2, r1
 2068 00d2 0424     		movs	r4, #4
 2069 00d4 E241     		rors	r2, r2, r4
 2070 00d6 6C68     		ldr	r4, [r5, #4]
 2071 00d8 6240     		eors	r2, r4
 2072              	.LVL251:
 2073 00da 1C00     		movs	r4, r3
 2074 00dc 1440     		ands	r4, r2
 2075 00de A400     		lsls	r4, r4, #2
 2076 00e0 7C4E     		ldr	r6, .L71+32
 2077 00e2 A459     		ldr	r4, [r4, r6]
 2078 00e4 170A     		lsrs	r7, r2, #8
 2079 00e6 1F40     		ands	r7, r3
 2080 00e8 7B4E     		ldr	r6, .L71+36
 2081 00ea B446     		mov	ip, r6
 2082 00ec BF00     		lsls	r7, r7, #2
 2083 00ee BF59     		ldr	r7, [r7, r6]
 2084 00f0 7C40     		eors	r4, r7
 2085 00f2 A346     		mov	fp, r4
 2086 00f4 140C     		lsrs	r4, r2, #16
 2087 00f6 1C40     		ands	r4, r3
 2088 00f8 784F     		ldr	r7, .L71+40
 2089 00fa A400     		lsls	r4, r4, #2
 2090 00fc E459     		ldr	r4, [r4, r7]
 2091 00fe 5E46     		mov	r6, fp
 2092 0100 7440     		eors	r4, r6
 2093 0102 120E     		lsrs	r2, r2, #24
 2094              	.LVL252:
 2095 0104 1A40     		ands	r2, r3
 2096 0106 764E     		ldr	r6, .L71+44
 2097 0108 B346     		mov	fp, r6
 2098 010a 9200     		lsls	r2, r2, #2
 2099 010c 9259     		ldr	r2, [r2, r6]
 2100 010e 5440     		eors	r4, r2
 2101 0110 4440     		eors	r4, r0
 2102              	.LVL253:
 730:Source\mbedtls_open\library/des.c ****         DES_ROUND( X, Y );
 2103              		.loc 1 730 0 discriminator 3
 2104 0112 AA68     		ldr	r2, [r5, #8]
 2105 0114 6240     		eors	r2, r4
 2106              	.LVL254:
 2107 0116 1800     		movs	r0, r3
 2108 0118 1040     		ands	r0, r2
 2109 011a 8000     		lsls	r0, r0, #2
 2110 011c 5646     		mov	r6, r10
 2111 011e 8059     		ldr	r0, [r0, r6]
 2112 0120 8246     		mov	r10, r0
 2113 0122 100A     		lsrs	r0, r2, #8
 2114 0124 1840     		ands	r0, r3
 2115 0126 8000     		lsls	r0, r0, #2
 2116 0128 4E46     		mov	r6, r9
 2117 012a 8059     		ldr	r0, [r0, r6]
 2118 012c 5646     		mov	r6, r10
 2119 012e 4640     		eors	r6, r0
 2120 0130 B246     		mov	r10, r6
 2121 0132 100C     		lsrs	r0, r2, #16
 2122 0134 1840     		ands	r0, r3
ARM GAS  C:\Users\Phuong\AppData\Local\Temp\ccawWFGQ.s 			page 52


 2123 0136 8000     		lsls	r0, r0, #2
 2124 0138 4646     		mov	r6, r8
 2125 013a 8059     		ldr	r0, [r0, r6]
 2126 013c 5646     		mov	r6, r10
 2127 013e 7040     		eors	r0, r6
 2128 0140 120E     		lsrs	r2, r2, #24
 2129              	.LVL255:
 2130 0142 1A40     		ands	r2, r3
 2131 0144 9200     		lsls	r2, r2, #2
 2132 0146 624E     		ldr	r6, .L71+28
 2133 0148 9259     		ldr	r2, [r2, r6]
 2134 014a 5040     		eors	r0, r2
 2135 014c 4840     		eors	r0, r1
 2136              	.LVL256:
 2137 014e 2200     		movs	r2, r4
 2138 0150 0421     		movs	r1, #4
 2139 0152 CA41     		rors	r2, r2, r1
 2140 0154 E968     		ldr	r1, [r5, #12]
 2141 0156 4A40     		eors	r2, r1
 2142              	.LVL257:
 2143 0158 1900     		movs	r1, r3
 2144 015a 1140     		ands	r1, r2
 2145 015c 8900     		lsls	r1, r1, #2
 2146 015e 5D4E     		ldr	r6, .L71+32
 2147 0160 8959     		ldr	r1, [r1, r6]
 2148 0162 8846     		mov	r8, r1
 2149 0164 110A     		lsrs	r1, r2, #8
 2150 0166 1940     		ands	r1, r3
 2151 0168 8900     		lsls	r1, r1, #2
 2152 016a 6646     		mov	r6, ip
 2153 016c 8959     		ldr	r1, [r1, r6]
 2154 016e 4646     		mov	r6, r8
 2155 0170 4E40     		eors	r6, r1
 2156 0172 110C     		lsrs	r1, r2, #16
 2157 0174 1940     		ands	r1, r3
 2158 0176 8900     		lsls	r1, r1, #2
 2159 0178 CF59     		ldr	r7, [r1, r7]
 2160 017a 3100     		movs	r1, r6
 2161 017c 7940     		eors	r1, r7
 2162 017e 120E     		lsrs	r2, r2, #24
 2163              	.LVL258:
 2164 0180 1340     		ands	r3, r2
 2165 0182 9B00     		lsls	r3, r3, #2
 2166 0184 5A46     		mov	r2, fp
 2167 0186 9B58     		ldr	r3, [r3, r2]
 2168 0188 5940     		eors	r1, r3
 2169 018a 4140     		eors	r1, r0
 2170              	.LVL259:
 727:Source\mbedtls_open\library/des.c ****     {
 2171              		.loc 1 727 0 discriminator 3
 2172 018c 009B     		ldr	r3, [sp]
 2173 018e 0133     		adds	r3, r3, #1
 2174 0190 0093     		str	r3, [sp]
 2175              	.LVL260:
 2176              		.loc 1 730 0 discriminator 3
 2177 0192 1035     		adds	r5, r5, #16
 2178              	.LVL261:
ARM GAS  C:\Users\Phuong\AppData\Local\Temp\ccawWFGQ.s 			page 53


 2179              	.L65:
 727:Source\mbedtls_open\library/des.c ****     {
 2180              		.loc 1 727 0 discriminator 1
 2181 0194 009B     		ldr	r3, [sp]
 2182 0196 072B     		cmp	r3, #7
 2183 0198 00DC     		bgt	.LCB2269
 2184 019a 79E7     		b	.L66	@long jump
 2185              	.LCB2269:
 2186 019c 0023     		movs	r3, #0
 2187 019e 0093     		str	r3, [sp]
 2188              	.LVL262:
 2189 01a0 0800     		movs	r0, r1
 2190 01a2 7EE0     		b	.L67
 2191              	.LVL263:
 2192              	.L68:
 731:Source\mbedtls_open\library/des.c ****     }
 732:Source\mbedtls_open\library/des.c **** 
 733:Source\mbedtls_open\library/des.c ****     for( i = 0; i < 8; i++ )
 734:Source\mbedtls_open\library/des.c ****     {
 735:Source\mbedtls_open\library/des.c ****         DES_ROUND( X, Y );
 2193              		.loc 1 735 0 discriminator 3
 2194 01a4 2A68     		ldr	r2, [r5]
 2195 01a6 6240     		eors	r2, r4
 2196              	.LVL264:
 2197 01a8 3F23     		movs	r3, #63
 2198              	.LVL265:
 2199 01aa 1900     		movs	r1, r3
 2200 01ac 1140     		ands	r1, r2
 2201 01ae 454E     		ldr	r6, .L71+16
 2202 01b0 B346     		mov	fp, r6
 2203 01b2 8900     		lsls	r1, r1, #2
 2204 01b4 8F59     		ldr	r7, [r1, r6]
 2205 01b6 160A     		lsrs	r6, r2, #8
 2206 01b8 1E40     		ands	r6, r3
 2207 01ba 4349     		ldr	r1, .L71+20
 2208 01bc 8A46     		mov	r10, r1
 2209 01be B600     		lsls	r6, r6, #2
 2210 01c0 7158     		ldr	r1, [r6, r1]
 2211 01c2 7940     		eors	r1, r7
 2212 01c4 160C     		lsrs	r6, r2, #16
 2213 01c6 1E40     		ands	r6, r3
 2214 01c8 404F     		ldr	r7, .L71+24
 2215 01ca B946     		mov	r9, r7
 2216 01cc B600     		lsls	r6, r6, #2
 2217 01ce F659     		ldr	r6, [r6, r7]
 2218 01d0 7140     		eors	r1, r6
 2219 01d2 120E     		lsrs	r2, r2, #24
 2220              	.LVL266:
 2221 01d4 1A40     		ands	r2, r3
 2222 01d6 3E4E     		ldr	r6, .L71+28
 2223 01d8 B046     		mov	r8, r6
 2224 01da 9200     		lsls	r2, r2, #2
 2225 01dc 9259     		ldr	r2, [r2, r6]
 2226 01de 5140     		eors	r1, r2
 2227 01e0 4140     		eors	r1, r0
 2228              	.LVL267:
 2229 01e2 2200     		movs	r2, r4
ARM GAS  C:\Users\Phuong\AppData\Local\Temp\ccawWFGQ.s 			page 54


 2230 01e4 0420     		movs	r0, #4
 2231 01e6 C241     		rors	r2, r2, r0
 2232 01e8 6868     		ldr	r0, [r5, #4]
 2233 01ea 4240     		eors	r2, r0
 2234              	.LVL268:
 2235 01ec 1800     		movs	r0, r3
 2236 01ee 1040     		ands	r0, r2
 2237 01f0 8000     		lsls	r0, r0, #2
 2238 01f2 384E     		ldr	r6, .L71+32
 2239 01f4 8059     		ldr	r0, [r0, r6]
 2240 01f6 160A     		lsrs	r6, r2, #8
 2241 01f8 1E40     		ands	r6, r3
 2242 01fa 374F     		ldr	r7, .L71+36
 2243 01fc B600     		lsls	r6, r6, #2
 2244 01fe F659     		ldr	r6, [r6, r7]
 2245 0200 7040     		eors	r0, r6
 2246 0202 8446     		mov	ip, r0
 2247 0204 100C     		lsrs	r0, r2, #16
 2248 0206 1840     		ands	r0, r3
 2249 0208 8000     		lsls	r0, r0, #2
 2250 020a 344E     		ldr	r6, .L71+40
 2251 020c 8059     		ldr	r0, [r0, r6]
 2252 020e 6646     		mov	r6, ip
 2253 0210 7040     		eors	r0, r6
 2254 0212 120E     		lsrs	r2, r2, #24
 2255              	.LVL269:
 2256 0214 1A40     		ands	r2, r3
 2257 0216 324E     		ldr	r6, .L71+44
 2258 0218 B446     		mov	ip, r6
 2259 021a 9200     		lsls	r2, r2, #2
 2260 021c 9259     		ldr	r2, [r2, r6]
 2261 021e 5040     		eors	r0, r2
 2262 0220 4840     		eors	r0, r1
 2263              	.LVL270:
 736:Source\mbedtls_open\library/des.c ****         DES_ROUND( Y, X );
 2264              		.loc 1 736 0 discriminator 3
 2265 0222 AA68     		ldr	r2, [r5, #8]
 2266 0224 4240     		eors	r2, r0
 2267              	.LVL271:
 2268 0226 1900     		movs	r1, r3
 2269 0228 1140     		ands	r1, r2
 2270 022a 8900     		lsls	r1, r1, #2
 2271 022c 5E46     		mov	r6, fp
 2272 022e 8959     		ldr	r1, [r1, r6]
 2273 0230 8B46     		mov	fp, r1
 2274 0232 110A     		lsrs	r1, r2, #8
 2275 0234 1940     		ands	r1, r3
 2276 0236 8900     		lsls	r1, r1, #2
 2277 0238 5646     		mov	r6, r10
 2278 023a 8959     		ldr	r1, [r1, r6]
 2279 023c 5E46     		mov	r6, fp
 2280 023e 4E40     		eors	r6, r1
 2281 0240 B346     		mov	fp, r6
 2282 0242 110C     		lsrs	r1, r2, #16
 2283 0244 1940     		ands	r1, r3
 2284 0246 8900     		lsls	r1, r1, #2
 2285 0248 4E46     		mov	r6, r9
ARM GAS  C:\Users\Phuong\AppData\Local\Temp\ccawWFGQ.s 			page 55


 2286 024a 8959     		ldr	r1, [r1, r6]
 2287 024c 5E46     		mov	r6, fp
 2288 024e 7140     		eors	r1, r6
 2289 0250 120E     		lsrs	r2, r2, #24
 2290              	.LVL272:
 2291 0252 1A40     		ands	r2, r3
 2292 0254 9200     		lsls	r2, r2, #2
 2293 0256 4646     		mov	r6, r8
 2294 0258 9259     		ldr	r2, [r2, r6]
 2295 025a 5140     		eors	r1, r2
 2296 025c 6140     		eors	r1, r4
 2297              	.LVL273:
 2298 025e 0200     		movs	r2, r0
 2299 0260 0424     		movs	r4, #4
 2300 0262 E241     		rors	r2, r2, r4
 2301 0264 EC68     		ldr	r4, [r5, #12]
 2302 0266 6240     		eors	r2, r4
 2303              	.LVL274:
 2304 0268 1C00     		movs	r4, r3
 2305 026a 1440     		ands	r4, r2
 2306 026c A400     		lsls	r4, r4, #2
 2307 026e 194E     		ldr	r6, .L71+32
 2308 0270 A459     		ldr	r4, [r4, r6]
 2309 0272 160A     		lsrs	r6, r2, #8
 2310 0274 1E40     		ands	r6, r3
 2311 0276 B600     		lsls	r6, r6, #2
 2312 0278 F759     		ldr	r7, [r6, r7]
 2313 027a 7C40     		eors	r4, r7
 2314 027c 170C     		lsrs	r7, r2, #16
 2315 027e 1F40     		ands	r7, r3
 2316 0280 BF00     		lsls	r7, r7, #2
 2317 0282 164E     		ldr	r6, .L71+40
 2318 0284 BF59     		ldr	r7, [r7, r6]
 2319 0286 7C40     		eors	r4, r7
 2320 0288 120E     		lsrs	r2, r2, #24
 2321              	.LVL275:
 2322 028a 1340     		ands	r3, r2
 2323 028c 9B00     		lsls	r3, r3, #2
 2324 028e 6246     		mov	r2, ip
 2325 0290 9A58     		ldr	r2, [r3, r2]
 2326 0292 2300     		movs	r3, r4
 2327 0294 5340     		eors	r3, r2
 2328 0296 5940     		eors	r1, r3
 2329              	.LVL276:
 2330 0298 0C00     		movs	r4, r1
 2331              	.LVL277:
 733:Source\mbedtls_open\library/des.c ****     {
 2332              		.loc 1 733 0 discriminator 3
 2333 029a 009B     		ldr	r3, [sp]
 2334 029c 0133     		adds	r3, r3, #1
 2335 029e 0093     		str	r3, [sp]
 2336              	.LVL278:
 2337              		.loc 1 736 0 discriminator 3
 2338 02a0 1035     		adds	r5, r5, #16
 2339              	.LVL279:
 2340              	.L67:
 733:Source\mbedtls_open\library/des.c ****     {
ARM GAS  C:\Users\Phuong\AppData\Local\Temp\ccawWFGQ.s 			page 56


 2341              		.loc 1 733 0 discriminator 1
 2342 02a2 009B     		ldr	r3, [sp]
 2343 02a4 072B     		cmp	r3, #7
 2344 02a6 00DC     		bgt	.LCB2455
 2345 02a8 7CE7     		b	.L68	@long jump
 2346              	.LCB2455:
 2347 02aa 0023     		movs	r3, #0
 2348 02ac 0093     		str	r3, [sp]
 2349              	.LVL280:
 2350 02ae 0100     		movs	r1, r0
 2351 02b0 9AE0     		b	.L69
 2352              	.L72:
 2353 02b2 C046     		.align	2
 2354              	.L71:
 2355 02b4 0F0F0F0F 		.word	252645135
 2356 02b8 33333333 		.word	858993459
 2357 02bc FF00FF00 		.word	16711935
 2358 02c0 AAAAAAAA 		.word	-1431655766
 2359 02c4 B0010000 		.word	.LANCHOR3
 2360 02c8 B0020000 		.word	.LANCHOR4
 2361 02cc B0030000 		.word	.LANCHOR5
 2362 02d0 B0040000 		.word	.LANCHOR6
 2363 02d4 B0050000 		.word	.LANCHOR7
 2364 02d8 B0060000 		.word	.LANCHOR8
 2365 02dc B0070000 		.word	.LANCHOR9
 2366 02e0 B0080000 		.word	.LANCHOR10
 2367              	.LVL281:
 2368              	.L70:
 737:Source\mbedtls_open\library/des.c ****     }
 738:Source\mbedtls_open\library/des.c **** 
 739:Source\mbedtls_open\library/des.c ****     for( i = 0; i < 8; i++ )
 740:Source\mbedtls_open\library/des.c ****     {
 741:Source\mbedtls_open\library/des.c ****         DES_ROUND( Y, X );
 2369              		.loc 1 741 0 discriminator 3
 2370 02e4 2A68     		ldr	r2, [r5]
 2371 02e6 4A40     		eors	r2, r1
 2372              	.LVL282:
 2373 02e8 3F23     		movs	r3, #63
 2374              	.LVL283:
 2375 02ea 1800     		movs	r0, r3
 2376 02ec 1040     		ands	r0, r2
 2377 02ee 604E     		ldr	r6, .L73
 2378 02f0 B246     		mov	r10, r6
 2379 02f2 8000     		lsls	r0, r0, #2
 2380 02f4 8059     		ldr	r0, [r0, r6]
 2381 02f6 8446     		mov	ip, r0
 2382 02f8 170A     		lsrs	r7, r2, #8
 2383 02fa 1F40     		ands	r7, r3
 2384 02fc 5D48     		ldr	r0, .L73+4
 2385 02fe 8146     		mov	r9, r0
 2386 0300 BF00     		lsls	r7, r7, #2
 2387 0302 3858     		ldr	r0, [r7, r0]
 2388 0304 6646     		mov	r6, ip
 2389 0306 7040     		eors	r0, r6
 2390 0308 170C     		lsrs	r7, r2, #16
 2391 030a 1F40     		ands	r7, r3
 2392 030c 5A4E     		ldr	r6, .L73+8
ARM GAS  C:\Users\Phuong\AppData\Local\Temp\ccawWFGQ.s 			page 57


 2393 030e B046     		mov	r8, r6
 2394 0310 BF00     		lsls	r7, r7, #2
 2395 0312 BF59     		ldr	r7, [r7, r6]
 2396 0314 7840     		eors	r0, r7
 2397 0316 120E     		lsrs	r2, r2, #24
 2398              	.LVL284:
 2399 0318 1A40     		ands	r2, r3
 2400 031a 9200     		lsls	r2, r2, #2
 2401 031c 574E     		ldr	r6, .L73+12
 2402 031e 9259     		ldr	r2, [r2, r6]
 2403 0320 5040     		eors	r0, r2
 2404 0322 6040     		eors	r0, r4
 2405              	.LVL285:
 2406 0324 0A00     		movs	r2, r1
 2407 0326 0424     		movs	r4, #4
 2408 0328 E241     		rors	r2, r2, r4
 2409 032a 6C68     		ldr	r4, [r5, #4]
 2410 032c 6240     		eors	r2, r4
 2411              	.LVL286:
 2412 032e 1C00     		movs	r4, r3
 2413 0330 1440     		ands	r4, r2
 2414 0332 A400     		lsls	r4, r4, #2
 2415 0334 524E     		ldr	r6, .L73+16
 2416 0336 A459     		ldr	r4, [r4, r6]
 2417 0338 170A     		lsrs	r7, r2, #8
 2418 033a 1F40     		ands	r7, r3
 2419 033c 514E     		ldr	r6, .L73+20
 2420 033e B446     		mov	ip, r6
 2421 0340 BF00     		lsls	r7, r7, #2
 2422 0342 BF59     		ldr	r7, [r7, r6]
 2423 0344 7C40     		eors	r4, r7
 2424 0346 A346     		mov	fp, r4
 2425 0348 140C     		lsrs	r4, r2, #16
 2426 034a 1C40     		ands	r4, r3
 2427 034c 4E4F     		ldr	r7, .L73+24
 2428 034e A400     		lsls	r4, r4, #2
 2429 0350 E459     		ldr	r4, [r4, r7]
 2430 0352 5E46     		mov	r6, fp
 2431 0354 7440     		eors	r4, r6
 2432 0356 120E     		lsrs	r2, r2, #24
 2433              	.LVL287:
 2434 0358 1A40     		ands	r2, r3
 2435 035a 4C4E     		ldr	r6, .L73+28
 2436 035c B346     		mov	fp, r6
 2437 035e 9200     		lsls	r2, r2, #2
 2438 0360 9259     		ldr	r2, [r2, r6]
 2439 0362 5440     		eors	r4, r2
 2440 0364 4440     		eors	r4, r0
 2441              	.LVL288:
 742:Source\mbedtls_open\library/des.c ****         DES_ROUND( X, Y );
 2442              		.loc 1 742 0 discriminator 3
 2443 0366 AA68     		ldr	r2, [r5, #8]
 2444 0368 6240     		eors	r2, r4
 2445              	.LVL289:
 2446 036a 1800     		movs	r0, r3
 2447 036c 1040     		ands	r0, r2
 2448 036e 8000     		lsls	r0, r0, #2
ARM GAS  C:\Users\Phuong\AppData\Local\Temp\ccawWFGQ.s 			page 58


 2449 0370 5646     		mov	r6, r10
 2450 0372 8059     		ldr	r0, [r0, r6]
 2451 0374 8246     		mov	r10, r0
 2452 0376 100A     		lsrs	r0, r2, #8
 2453 0378 1840     		ands	r0, r3
 2454 037a 8000     		lsls	r0, r0, #2
 2455 037c 4E46     		mov	r6, r9
 2456 037e 8059     		ldr	r0, [r0, r6]
 2457 0380 5646     		mov	r6, r10
 2458 0382 4640     		eors	r6, r0
 2459 0384 B246     		mov	r10, r6
 2460 0386 100C     		lsrs	r0, r2, #16
 2461 0388 1840     		ands	r0, r3
 2462 038a 8000     		lsls	r0, r0, #2
 2463 038c 4646     		mov	r6, r8
 2464 038e 8059     		ldr	r0, [r0, r6]
 2465 0390 5646     		mov	r6, r10
 2466 0392 7040     		eors	r0, r6
 2467 0394 120E     		lsrs	r2, r2, #24
 2468              	.LVL290:
 2469 0396 1A40     		ands	r2, r3
 2470 0398 9200     		lsls	r2, r2, #2
 2471 039a 384E     		ldr	r6, .L73+12
 2472 039c 9259     		ldr	r2, [r2, r6]
 2473 039e 5040     		eors	r0, r2
 2474 03a0 4840     		eors	r0, r1
 2475              	.LVL291:
 2476 03a2 2200     		movs	r2, r4
 2477 03a4 0421     		movs	r1, #4
 2478 03a6 CA41     		rors	r2, r2, r1
 2479 03a8 E968     		ldr	r1, [r5, #12]
 2480 03aa 4A40     		eors	r2, r1
 2481              	.LVL292:
 2482 03ac 1900     		movs	r1, r3
 2483 03ae 1140     		ands	r1, r2
 2484 03b0 8900     		lsls	r1, r1, #2
 2485 03b2 334E     		ldr	r6, .L73+16
 2486 03b4 8959     		ldr	r1, [r1, r6]
 2487 03b6 8846     		mov	r8, r1
 2488 03b8 110A     		lsrs	r1, r2, #8
 2489 03ba 1940     		ands	r1, r3
 2490 03bc 8900     		lsls	r1, r1, #2
 2491 03be 6646     		mov	r6, ip
 2492 03c0 8959     		ldr	r1, [r1, r6]
 2493 03c2 4646     		mov	r6, r8
 2494 03c4 4E40     		eors	r6, r1
 2495 03c6 110C     		lsrs	r1, r2, #16
 2496 03c8 1940     		ands	r1, r3
 2497 03ca 8900     		lsls	r1, r1, #2
 2498 03cc CF59     		ldr	r7, [r1, r7]
 2499 03ce 3100     		movs	r1, r6
 2500 03d0 7940     		eors	r1, r7
 2501 03d2 120E     		lsrs	r2, r2, #24
 2502              	.LVL293:
 2503 03d4 1340     		ands	r3, r2
 2504 03d6 9B00     		lsls	r3, r3, #2
 2505 03d8 5A46     		mov	r2, fp
ARM GAS  C:\Users\Phuong\AppData\Local\Temp\ccawWFGQ.s 			page 59


 2506 03da 9B58     		ldr	r3, [r3, r2]
 2507 03dc 5940     		eors	r1, r3
 2508 03de 4140     		eors	r1, r0
 2509              	.LVL294:
 739:Source\mbedtls_open\library/des.c ****     {
 2510              		.loc 1 739 0 discriminator 3
 2511 03e0 009B     		ldr	r3, [sp]
 2512 03e2 0133     		adds	r3, r3, #1
 2513 03e4 0093     		str	r3, [sp]
 2514              	.LVL295:
 2515              		.loc 1 742 0 discriminator 3
 2516 03e6 1035     		adds	r5, r5, #16
 2517              	.LVL296:
 2518              	.L69:
 739:Source\mbedtls_open\library/des.c ****     {
 2519              		.loc 1 739 0 discriminator 1
 2520 03e8 009B     		ldr	r3, [sp]
 2521 03ea 072B     		cmp	r3, #7
 2522 03ec 00DC     		bgt	.LCB2661
 2523 03ee 79E7     		b	.L70	@long jump
 2524              	.LCB2661:
 2525 03f0 2000     		movs	r0, r4
 743:Source\mbedtls_open\library/des.c ****     }
 744:Source\mbedtls_open\library/des.c **** 
 745:Source\mbedtls_open\library/des.c ****     DES_FP( Y, X );
 2526              		.loc 1 745 0
 2527 03f2 0124     		movs	r4, #1
 2528              	.LVL297:
 2529 03f4 0B00     		movs	r3, r1
 2530 03f6 E341     		rors	r3, r3, r4
 2531              	.LVL298:
 2532 03f8 0100     		movs	r1, r0
 2533 03fa 5940     		eors	r1, r3
 2534 03fc 244A     		ldr	r2, .L73+32
 2535 03fe 1140     		ands	r1, r2
 2536              	.LVL299:
 2537 0400 4B40     		eors	r3, r1
 2538              	.LVL300:
 2539 0402 0200     		movs	r2, r0
 2540 0404 4A40     		eors	r2, r1
 2541 0406 1100     		movs	r1, r2
 2542              	.LVL301:
 2543 0408 E141     		rors	r1, r1, r4
 2544              	.LVL302:
 2545 040a 0C0A     		lsrs	r4, r1, #8
 2546 040c 5C40     		eors	r4, r3
 2547 040e 214D     		ldr	r5, .L73+36
 2548              	.LVL303:
 2549 0410 2C40     		ands	r4, r5
 2550              	.LVL304:
 2551 0412 6340     		eors	r3, r4
 2552              	.LVL305:
 2553 0414 2402     		lsls	r4, r4, #8
 2554              	.LVL306:
 2555 0416 6140     		eors	r1, r4
 2556              	.LVL307:
 2557 0418 8C08     		lsrs	r4, r1, #2
ARM GAS  C:\Users\Phuong\AppData\Local\Temp\ccawWFGQ.s 			page 60


 2558 041a 5C40     		eors	r4, r3
 2559 041c 1E4D     		ldr	r5, .L73+40
 2560 041e 2C40     		ands	r4, r5
 2561              	.LVL308:
 2562 0420 6340     		eors	r3, r4
 2563              	.LVL309:
 2564 0422 A400     		lsls	r4, r4, #2
 2565              	.LVL310:
 2566 0424 6140     		eors	r1, r4
 2567              	.LVL311:
 2568 0426 1A0C     		lsrs	r2, r3, #16
 2569 0428 4A40     		eors	r2, r1
 2570 042a 1204     		lsls	r2, r2, #16
 2571 042c 120C     		lsrs	r2, r2, #16
 2572              	.LVL312:
 2573 042e 5140     		eors	r1, r2
 2574              	.LVL313:
 2575 0430 1204     		lsls	r2, r2, #16
 2576              	.LVL314:
 2577 0432 5340     		eors	r3, r2
 2578              	.LVL315:
 2579 0434 1A09     		lsrs	r2, r3, #4
 2580 0436 4A40     		eors	r2, r1
 2581 0438 1848     		ldr	r0, .L73+44
 2582 043a 0240     		ands	r2, r0
 2583              	.LVL316:
 2584 043c 5140     		eors	r1, r2
 2585              	.LVL317:
 2586 043e 1201     		lsls	r2, r2, #4
 2587              	.LVL318:
 2588 0440 5340     		eors	r3, r2
 2589              	.LVL319:
 746:Source\mbedtls_open\library/des.c **** 
 747:Source\mbedtls_open\library/des.c ****     PUT_UINT32_BE( Y, output, 0 );
 2590              		.loc 1 747 0
 2591 0442 1A0E     		lsrs	r2, r3, #24
 2592 0444 0198     		ldr	r0, [sp, #4]
 2593 0446 0270     		strb	r2, [r0]
 2594 0448 1A0C     		lsrs	r2, r3, #16
 2595 044a 4270     		strb	r2, [r0, #1]
 2596 044c 1A0A     		lsrs	r2, r3, #8
 2597 044e 8270     		strb	r2, [r0, #2]
 2598 0450 C370     		strb	r3, [r0, #3]
 748:Source\mbedtls_open\library/des.c ****     PUT_UINT32_BE( X, output, 4 );
 2599              		.loc 1 748 0
 2600 0452 0B0E     		lsrs	r3, r1, #24
 2601              	.LVL320:
 2602 0454 0371     		strb	r3, [r0, #4]
 2603 0456 0B0C     		lsrs	r3, r1, #16
 2604 0458 4371     		strb	r3, [r0, #5]
 2605 045a 0B0A     		lsrs	r3, r1, #8
 2606 045c 8371     		strb	r3, [r0, #6]
 2607 045e C171     		strb	r1, [r0, #7]
 749:Source\mbedtls_open\library/des.c **** 
 750:Source\mbedtls_open\library/des.c ****     return( 0 );
 751:Source\mbedtls_open\library/des.c **** }
 2608              		.loc 1 751 0
ARM GAS  C:\Users\Phuong\AppData\Local\Temp\ccawWFGQ.s 			page 61


 2609 0460 0020     		movs	r0, #0
 2610 0462 03B0     		add	sp, sp, #12
 2611              	.LVL321:
 2612              		@ sp needed
 2613 0464 3CBC     		pop	{r2, r3, r4, r5}
 2614 0466 9046     		mov	r8, r2
 2615 0468 9946     		mov	r9, r3
 2616 046a A246     		mov	r10, r4
 2617 046c AB46     		mov	fp, r5
 2618 046e F0BD     		pop	{r4, r5, r6, r7, pc}
 2619              	.L74:
 2620              		.align	2
 2621              	.L73:
 2622 0470 B0010000 		.word	.LANCHOR3
 2623 0474 B0020000 		.word	.LANCHOR4
 2624 0478 B0030000 		.word	.LANCHOR5
 2625 047c B0040000 		.word	.LANCHOR6
 2626 0480 B0050000 		.word	.LANCHOR7
 2627 0484 B0060000 		.word	.LANCHOR8
 2628 0488 B0070000 		.word	.LANCHOR9
 2629 048c B0080000 		.word	.LANCHOR10
 2630 0490 AAAAAAAA 		.word	-1431655766
 2631 0494 FF00FF00 		.word	16711935
 2632 0498 33333333 		.word	858993459
 2633 049c 0F0F0F0F 		.word	252645135
 2634              		.cfi_endproc
 2635              	.LFE19:
 2636              		.size	mbedtls_des3_crypt_ecb, .-mbedtls_des3_crypt_ecb
 2637              		.section	.text.mbedtls_des3_crypt_cbc,"ax",%progbits
 2638              		.align	2
 2639              		.global	mbedtls_des3_crypt_cbc
 2640              		.code	16
 2641              		.thumb_func
 2642              		.type	mbedtls_des3_crypt_cbc, %function
 2643              	mbedtls_des3_crypt_cbc:
 2644              	.LFB20:
 752:Source\mbedtls_open\library/des.c **** #endif /* !MBEDTLS_DES3_CRYPT_ECB_ALT */
 753:Source\mbedtls_open\library/des.c **** 
 754:Source\mbedtls_open\library/des.c **** #if defined(MBEDTLS_CIPHER_MODE_CBC)
 755:Source\mbedtls_open\library/des.c **** /*
 756:Source\mbedtls_open\library/des.c ****  * 3DES-CBC buffer encryption/decryption
 757:Source\mbedtls_open\library/des.c ****  */
 758:Source\mbedtls_open\library/des.c **** int mbedtls_des3_crypt_cbc( mbedtls_des3_context *ctx,
 759:Source\mbedtls_open\library/des.c ****                      int mode,
 760:Source\mbedtls_open\library/des.c ****                      size_t length,
 761:Source\mbedtls_open\library/des.c ****                      unsigned char iv[8],
 762:Source\mbedtls_open\library/des.c ****                      const unsigned char *input,
 763:Source\mbedtls_open\library/des.c ****                      unsigned char *output )
 764:Source\mbedtls_open\library/des.c **** {
 2645              		.loc 1 764 0
 2646              		.cfi_startproc
 2647              		@ args = 8, pretend = 0, frame = 16
 2648              		@ frame_needed = 0, uses_anonymous_args = 0
 2649              	.LVL322:
 2650 0000 F0B5     		push	{r4, r5, r6, r7, lr}
 2651              		.cfi_def_cfa_offset 20
 2652              		.cfi_offset 4, -20
ARM GAS  C:\Users\Phuong\AppData\Local\Temp\ccawWFGQ.s 			page 62


 2653              		.cfi_offset 5, -16
 2654              		.cfi_offset 6, -12
 2655              		.cfi_offset 7, -8
 2656              		.cfi_offset 14, -4
 2657 0002 85B0     		sub	sp, sp, #20
 2658              		.cfi_def_cfa_offset 40
 2659 0004 0190     		str	r0, [sp, #4]
 2660 0006 1400     		movs	r4, r2
 2661 0008 1E00     		movs	r6, r3
 2662 000a 0A9F     		ldr	r7, [sp, #40]
 2663 000c 0B9D     		ldr	r5, [sp, #44]
 765:Source\mbedtls_open\library/des.c ****     int i;
 766:Source\mbedtls_open\library/des.c ****     unsigned char temp[8];
 767:Source\mbedtls_open\library/des.c **** 
 768:Source\mbedtls_open\library/des.c ****     if( length % 8 )
 2664              		.loc 1 768 0
 2665 000e 5307     		lsls	r3, r2, #29
 2666 0010 3CD1     		bne	.L84
 2667              	.LVL323:
 769:Source\mbedtls_open\library/des.c ****         return( MBEDTLS_ERR_DES_INVALID_INPUT_LENGTH );
 770:Source\mbedtls_open\library/des.c **** 
 771:Source\mbedtls_open\library/des.c ****     if( mode == MBEDTLS_DES_ENCRYPT )
 2668              		.loc 1 771 0
 2669 0012 0129     		cmp	r1, #1
 2670 0014 36D1     		bne	.L78
 2671 0016 15E0     		b	.L77
 2672              	.LVL324:
 2673              	.L79:
 772:Source\mbedtls_open\library/des.c ****     {
 773:Source\mbedtls_open\library/des.c ****         while( length > 0 )
 774:Source\mbedtls_open\library/des.c ****         {
 775:Source\mbedtls_open\library/des.c ****             for( i = 0; i < 8; i++ )
 776:Source\mbedtls_open\library/des.c ****                 output[i] = (unsigned char)( input[i] ^ iv[i] );
 2674              		.loc 1 776 0 discriminator 3
 2675 0018 F95C     		ldrb	r1, [r7, r3]
 2676 001a F25C     		ldrb	r2, [r6, r3]
 2677 001c 4A40     		eors	r2, r1
 2678 001e EA54     		strb	r2, [r5, r3]
 775:Source\mbedtls_open\library/des.c ****                 output[i] = (unsigned char)( input[i] ^ iv[i] );
 2679              		.loc 1 775 0 discriminator 3
 2680 0020 0133     		adds	r3, r3, #1
 2681              	.LVL325:
 2682 0022 00E0     		b	.L80
 2683              	.LVL326:
 2684              	.L85:
 2685 0024 0023     		movs	r3, #0
 2686              	.L80:
 2687              	.LVL327:
 775:Source\mbedtls_open\library/des.c ****                 output[i] = (unsigned char)( input[i] ^ iv[i] );
 2688              		.loc 1 775 0 is_stmt 0 discriminator 1
 2689 0026 072B     		cmp	r3, #7
 2690 0028 F6DD     		ble	.L79
 777:Source\mbedtls_open\library/des.c **** 
 778:Source\mbedtls_open\library/des.c ****             mbedtls_des3_crypt_ecb( ctx, output, output );
 2691              		.loc 1 778 0 is_stmt 1
 2692 002a 2A00     		movs	r2, r5
 2693 002c 2900     		movs	r1, r5
ARM GAS  C:\Users\Phuong\AppData\Local\Temp\ccawWFGQ.s 			page 63


 2694 002e 0198     		ldr	r0, [sp, #4]
 2695 0030 FFF7FEFF 		bl	mbedtls_des3_crypt_ecb
 2696              	.LVL328:
 779:Source\mbedtls_open\library/des.c ****             memcpy( iv, output, 8 );
 2697              		.loc 1 779 0
 2698 0034 0822     		movs	r2, #8
 2699 0036 2900     		movs	r1, r5
 2700 0038 3000     		movs	r0, r6
 2701 003a FFF7FEFF 		bl	memcpy
 2702              	.LVL329:
 780:Source\mbedtls_open\library/des.c **** 
 781:Source\mbedtls_open\library/des.c ****             input  += 8;
 2703              		.loc 1 781 0
 2704 003e 0837     		adds	r7, r7, #8
 2705              	.LVL330:
 782:Source\mbedtls_open\library/des.c ****             output += 8;
 2706              		.loc 1 782 0
 2707 0040 0835     		adds	r5, r5, #8
 2708              	.LVL331:
 783:Source\mbedtls_open\library/des.c ****             length -= 8;
 2709              		.loc 1 783 0
 2710 0042 083C     		subs	r4, r4, #8
 2711              	.LVL332:
 2712              	.L77:
 773:Source\mbedtls_open\library/des.c ****         {
 2713              		.loc 1 773 0
 2714 0044 002C     		cmp	r4, #0
 2715 0046 EDD1     		bne	.L85
 784:Source\mbedtls_open\library/des.c ****         }
 785:Source\mbedtls_open\library/des.c ****     }
 786:Source\mbedtls_open\library/des.c ****     else /* MBEDTLS_DES_DECRYPT */
 787:Source\mbedtls_open\library/des.c ****     {
 788:Source\mbedtls_open\library/des.c ****         while( length > 0 )
 789:Source\mbedtls_open\library/des.c ****         {
 790:Source\mbedtls_open\library/des.c ****             memcpy( temp, input, 8 );
 791:Source\mbedtls_open\library/des.c ****             mbedtls_des3_crypt_ecb( ctx, input, output );
 792:Source\mbedtls_open\library/des.c **** 
 793:Source\mbedtls_open\library/des.c ****             for( i = 0; i < 8; i++ )
 794:Source\mbedtls_open\library/des.c ****                 output[i] = (unsigned char)( output[i] ^ iv[i] );
 795:Source\mbedtls_open\library/des.c **** 
 796:Source\mbedtls_open\library/des.c ****             memcpy( iv, temp, 8 );
 797:Source\mbedtls_open\library/des.c **** 
 798:Source\mbedtls_open\library/des.c ****             input  += 8;
 799:Source\mbedtls_open\library/des.c ****             output += 8;
 800:Source\mbedtls_open\library/des.c ****             length -= 8;
 801:Source\mbedtls_open\library/des.c ****         }
 802:Source\mbedtls_open\library/des.c ****     }
 803:Source\mbedtls_open\library/des.c **** 
 804:Source\mbedtls_open\library/des.c ****     return( 0 );
 2716              		.loc 1 804 0
 2717 0048 0020     		movs	r0, #0
 2718 004a 21E0     		b	.L76
 2719              	.L83:
 790:Source\mbedtls_open\library/des.c ****             mbedtls_des3_crypt_ecb( ctx, input, output );
 2720              		.loc 1 790 0
 2721 004c 0822     		movs	r2, #8
 2722 004e 3900     		movs	r1, r7
ARM GAS  C:\Users\Phuong\AppData\Local\Temp\ccawWFGQ.s 			page 64


 2723 0050 02A8     		add	r0, sp, #8
 2724 0052 FFF7FEFF 		bl	memcpy
 2725              	.LVL333:
 791:Source\mbedtls_open\library/des.c **** 
 2726              		.loc 1 791 0
 2727 0056 2A00     		movs	r2, r5
 2728 0058 3900     		movs	r1, r7
 2729 005a 0198     		ldr	r0, [sp, #4]
 2730 005c FFF7FEFF 		bl	mbedtls_des3_crypt_ecb
 2731              	.LVL334:
 793:Source\mbedtls_open\library/des.c ****                 output[i] = (unsigned char)( output[i] ^ iv[i] );
 2732              		.loc 1 793 0
 2733 0060 0023     		movs	r3, #0
 2734 0062 05E0     		b	.L81
 2735              	.LVL335:
 2736              	.L82:
 794:Source\mbedtls_open\library/des.c **** 
 2737              		.loc 1 794 0 discriminator 3
 2738 0064 E918     		adds	r1, r5, r3
 2739 0066 0878     		ldrb	r0, [r1]
 2740 0068 F25C     		ldrb	r2, [r6, r3]
 2741 006a 4240     		eors	r2, r0
 2742 006c 0A70     		strb	r2, [r1]
 793:Source\mbedtls_open\library/des.c ****                 output[i] = (unsigned char)( output[i] ^ iv[i] );
 2743              		.loc 1 793 0 discriminator 3
 2744 006e 0133     		adds	r3, r3, #1
 2745              	.LVL336:
 2746              	.L81:
 793:Source\mbedtls_open\library/des.c ****                 output[i] = (unsigned char)( output[i] ^ iv[i] );
 2747              		.loc 1 793 0 is_stmt 0 discriminator 1
 2748 0070 072B     		cmp	r3, #7
 2749 0072 F7DD     		ble	.L82
 796:Source\mbedtls_open\library/des.c **** 
 2750              		.loc 1 796 0 is_stmt 1
 2751 0074 0822     		movs	r2, #8
 2752 0076 02A9     		add	r1, sp, #8
 2753 0078 3000     		movs	r0, r6
 2754 007a FFF7FEFF 		bl	memcpy
 2755              	.LVL337:
 798:Source\mbedtls_open\library/des.c ****             output += 8;
 2756              		.loc 1 798 0
 2757 007e 0837     		adds	r7, r7, #8
 2758              	.LVL338:
 799:Source\mbedtls_open\library/des.c ****             length -= 8;
 2759              		.loc 1 799 0
 2760 0080 0835     		adds	r5, r5, #8
 2761              	.LVL339:
 800:Source\mbedtls_open\library/des.c ****         }
 2762              		.loc 1 800 0
 2763 0082 083C     		subs	r4, r4, #8
 2764              	.LVL340:
 2765              	.L78:
 788:Source\mbedtls_open\library/des.c ****         {
 2766              		.loc 1 788 0
 2767 0084 002C     		cmp	r4, #0
 2768 0086 E1D1     		bne	.L83
 2769              		.loc 1 804 0
ARM GAS  C:\Users\Phuong\AppData\Local\Temp\ccawWFGQ.s 			page 65


 2770 0088 0020     		movs	r0, #0
 2771 008a 01E0     		b	.L76
 2772              	.LVL341:
 2773              	.L84:
 769:Source\mbedtls_open\library/des.c **** 
 2774              		.loc 1 769 0
 2775 008c 3220     		movs	r0, #50
 2776              	.LVL342:
 2777 008e 4042     		rsbs	r0, r0, #0
 2778              	.LVL343:
 2779              	.L76:
 805:Source\mbedtls_open\library/des.c **** }
 2780              		.loc 1 805 0
 2781 0090 05B0     		add	sp, sp, #20
 2782              		@ sp needed
 2783              	.LVL344:
 2784              	.LVL345:
 2785 0092 F0BD     		pop	{r4, r5, r6, r7, pc}
 2786              		.cfi_endproc
 2787              	.LFE20:
 2788              		.size	mbedtls_des3_crypt_cbc, .-mbedtls_des3_crypt_cbc
 2789              		.section	.text.mbedtls_des_self_test,"ax",%progbits
 2790              		.align	2
 2791              		.global	mbedtls_des_self_test
 2792              		.code	16
 2793              		.thumb_func
 2794              		.type	mbedtls_des_self_test, %function
 2795              	mbedtls_des_self_test:
 2796              	.LFB21:
 806:Source\mbedtls_open\library/des.c **** #endif /* MBEDTLS_CIPHER_MODE_CBC */
 807:Source\mbedtls_open\library/des.c **** 
 808:Source\mbedtls_open\library/des.c **** #endif /* !MBEDTLS_DES_ALT */
 809:Source\mbedtls_open\library/des.c **** 
 810:Source\mbedtls_open\library/des.c **** #if defined(MBEDTLS_SELF_TEST)
 811:Source\mbedtls_open\library/des.c **** /*
 812:Source\mbedtls_open\library/des.c ****  * DES and 3DES test vectors from:
 813:Source\mbedtls_open\library/des.c ****  *
 814:Source\mbedtls_open\library/des.c ****  * http://csrc.nist.gov/groups/STM/cavp/documents/des/tripledes-vectors.zip
 815:Source\mbedtls_open\library/des.c ****  */
 816:Source\mbedtls_open\library/des.c **** static const unsigned char des3_test_keys[24] =
 817:Source\mbedtls_open\library/des.c **** {
 818:Source\mbedtls_open\library/des.c ****     0x01, 0x23, 0x45, 0x67, 0x89, 0xAB, 0xCD, 0xEF,
 819:Source\mbedtls_open\library/des.c ****     0x23, 0x45, 0x67, 0x89, 0xAB, 0xCD, 0xEF, 0x01,
 820:Source\mbedtls_open\library/des.c ****     0x45, 0x67, 0x89, 0xAB, 0xCD, 0xEF, 0x01, 0x23
 821:Source\mbedtls_open\library/des.c **** };
 822:Source\mbedtls_open\library/des.c **** 
 823:Source\mbedtls_open\library/des.c **** static const unsigned char des3_test_buf[8] =
 824:Source\mbedtls_open\library/des.c **** {
 825:Source\mbedtls_open\library/des.c ****     0x4E, 0x6F, 0x77, 0x20, 0x69, 0x73, 0x20, 0x74
 826:Source\mbedtls_open\library/des.c **** };
 827:Source\mbedtls_open\library/des.c **** 
 828:Source\mbedtls_open\library/des.c **** static const unsigned char des3_test_ecb_dec[3][8] =
 829:Source\mbedtls_open\library/des.c **** {
 830:Source\mbedtls_open\library/des.c ****     { 0xCD, 0xD6, 0x4F, 0x2F, 0x94, 0x27, 0xC1, 0x5D },
 831:Source\mbedtls_open\library/des.c ****     { 0x69, 0x96, 0xC8, 0xFA, 0x47, 0xA2, 0xAB, 0xEB },
 832:Source\mbedtls_open\library/des.c ****     { 0x83, 0x25, 0x39, 0x76, 0x44, 0x09, 0x1A, 0x0A }
 833:Source\mbedtls_open\library/des.c **** };
ARM GAS  C:\Users\Phuong\AppData\Local\Temp\ccawWFGQ.s 			page 66


 834:Source\mbedtls_open\library/des.c **** 
 835:Source\mbedtls_open\library/des.c **** static const unsigned char des3_test_ecb_enc[3][8] =
 836:Source\mbedtls_open\library/des.c **** {
 837:Source\mbedtls_open\library/des.c ****     { 0x6A, 0x2A, 0x19, 0xF4, 0x1E, 0xCA, 0x85, 0x4B },
 838:Source\mbedtls_open\library/des.c ****     { 0x03, 0xE6, 0x9F, 0x5B, 0xFA, 0x58, 0xEB, 0x42 },
 839:Source\mbedtls_open\library/des.c ****     { 0xDD, 0x17, 0xE8, 0xB8, 0xB4, 0x37, 0xD2, 0x32 }
 840:Source\mbedtls_open\library/des.c **** };
 841:Source\mbedtls_open\library/des.c **** 
 842:Source\mbedtls_open\library/des.c **** #if defined(MBEDTLS_CIPHER_MODE_CBC)
 843:Source\mbedtls_open\library/des.c **** static const unsigned char des3_test_iv[8] =
 844:Source\mbedtls_open\library/des.c **** {
 845:Source\mbedtls_open\library/des.c ****     0x12, 0x34, 0x56, 0x78, 0x90, 0xAB, 0xCD, 0xEF,
 846:Source\mbedtls_open\library/des.c **** };
 847:Source\mbedtls_open\library/des.c **** 
 848:Source\mbedtls_open\library/des.c **** static const unsigned char des3_test_cbc_dec[3][8] =
 849:Source\mbedtls_open\library/des.c **** {
 850:Source\mbedtls_open\library/des.c ****     { 0x12, 0x9F, 0x40, 0xB9, 0xD2, 0x00, 0x56, 0xB3 },
 851:Source\mbedtls_open\library/des.c ****     { 0x47, 0x0E, 0xFC, 0x9A, 0x6B, 0x8E, 0xE3, 0x93 },
 852:Source\mbedtls_open\library/des.c ****     { 0xC5, 0xCE, 0xCF, 0x63, 0xEC, 0xEC, 0x51, 0x4C }
 853:Source\mbedtls_open\library/des.c **** };
 854:Source\mbedtls_open\library/des.c **** 
 855:Source\mbedtls_open\library/des.c **** static const unsigned char des3_test_cbc_enc[3][8] =
 856:Source\mbedtls_open\library/des.c **** {
 857:Source\mbedtls_open\library/des.c ****     { 0x54, 0xF1, 0x5A, 0xF6, 0xEB, 0xE3, 0xA4, 0xB4 },
 858:Source\mbedtls_open\library/des.c ****     { 0x35, 0x76, 0x11, 0x56, 0x5F, 0xA1, 0x8E, 0x4D },
 859:Source\mbedtls_open\library/des.c ****     { 0xCB, 0x19, 0x1F, 0x85, 0xD1, 0xED, 0x84, 0x39 }
 860:Source\mbedtls_open\library/des.c **** };
 861:Source\mbedtls_open\library/des.c **** #endif /* MBEDTLS_CIPHER_MODE_CBC */
 862:Source\mbedtls_open\library/des.c **** 
 863:Source\mbedtls_open\library/des.c **** /*
 864:Source\mbedtls_open\library/des.c ****  * Checkup routine
 865:Source\mbedtls_open\library/des.c ****  */
 866:Source\mbedtls_open\library/des.c **** int mbedtls_des_self_test( int verbose )
 867:Source\mbedtls_open\library/des.c **** {
 2797              		.loc 1 867 0
 2798              		.cfi_startproc
 2799              		@ args = 0, pretend = 0, frame = 544
 2800              		@ frame_needed = 0, uses_anonymous_args = 0
 2801              	.LVL346:
 2802 0000 F0B5     		push	{r4, r5, r6, r7, lr}
 2803              		.cfi_def_cfa_offset 20
 2804              		.cfi_offset 4, -20
 2805              		.cfi_offset 5, -16
 2806              		.cfi_offset 6, -12
 2807              		.cfi_offset 7, -8
 2808              		.cfi_offset 14, -4
 2809 0002 4746     		mov	r7, r8
 2810 0004 80B4     		push	{r7}
 2811              		.cfi_def_cfa_offset 24
 2812              		.cfi_offset 8, -24
 2813 0006 BE4C     		ldr	r4, .L147
 2814 0008 A544     		add	sp, sp, r4
 2815              		.cfi_def_cfa_offset 576
 2816 000a 0600     		movs	r6, r0
 2817              	.LVL347:
 868:Source\mbedtls_open\library/des.c ****     int i, j, u, v, ret = 0;
 869:Source\mbedtls_open\library/des.c ****     mbedtls_des_context ctx;
ARM GAS  C:\Users\Phuong\AppData\Local\Temp\ccawWFGQ.s 			page 67


 870:Source\mbedtls_open\library/des.c ****     mbedtls_des3_context ctx3;
 871:Source\mbedtls_open\library/des.c ****     unsigned char buf[8];
 872:Source\mbedtls_open\library/des.c **** #if defined(MBEDTLS_CIPHER_MODE_CBC)
 873:Source\mbedtls_open\library/des.c ****     unsigned char prv[8];
 874:Source\mbedtls_open\library/des.c ****     unsigned char iv[8];
 875:Source\mbedtls_open\library/des.c **** #endif
 876:Source\mbedtls_open\library/des.c **** 
 877:Source\mbedtls_open\library/des.c ****     mbedtls_des_init( &ctx );
 2818              		.loc 1 877 0
 2819 000c 6AA8     		add	r0, sp, #424
 2820              	.LVL348:
 2821 000e FFF7FEFF 		bl	mbedtls_des_init
 2822              	.LVL349:
 878:Source\mbedtls_open\library/des.c ****     mbedtls_des3_init( &ctx3 );
 2823              		.loc 1 878 0
 2824 0012 0AA8     		add	r0, sp, #40
 2825 0014 FFF7FEFF 		bl	mbedtls_des3_init
 2826              	.LVL350:
 879:Source\mbedtls_open\library/des.c ****     /*
 880:Source\mbedtls_open\library/des.c ****      * ECB mode
 881:Source\mbedtls_open\library/des.c ****      */
 882:Source\mbedtls_open\library/des.c ****     for( i = 0; i < 6; i++ )
 2827              		.loc 1 882 0
 2828 0018 0027     		movs	r7, #0
 2829 001a 80E0     		b	.L87
 2830              	.LVL351:
 2831              	.L109:
 883:Source\mbedtls_open\library/des.c ****     {
 884:Source\mbedtls_open\library/des.c ****         u = i >> 1;
 2832              		.loc 1 884 0
 2833 001c 7D10     		asrs	r5, r7, #1
 2834              	.LVL352:
 885:Source\mbedtls_open\library/des.c ****         v = i  & 1;
 2835              		.loc 1 885 0
 2836 001e 0123     		movs	r3, #1
 2837 0020 3B40     		ands	r3, r7
 2838 0022 9846     		mov	r8, r3
 2839              	.LVL353:
 886:Source\mbedtls_open\library/des.c **** 
 887:Source\mbedtls_open\library/des.c ****         if( verbose != 0 )
 2840              		.loc 1 887 0
 2841 0024 002E     		cmp	r6, #0
 2842 0026 11D0     		beq	.L88
 888:Source\mbedtls_open\library/des.c ****             mbedtls_printf( "  DES%c-ECB-%3d (%s): ",
 2843              		.loc 1 888 0
 2844 0028 002D     		cmp	r5, #0
 2845 002a 01D1     		bne	.L137
 2846 002c 2021     		movs	r1, #32
 2847 002e 00E0     		b	.L89
 2848              	.L137:
 2849 0030 3321     		movs	r1, #51
 2850              	.L89:
 889:Source\mbedtls_open\library/des.c ****                              ( u == 0 ) ? ' ' : '3', 56 + u * 56,
 2851              		.loc 1 889 0 discriminator 4
 2852 0032 6A1C     		adds	r2, r5, #1
 888:Source\mbedtls_open\library/des.c ****             mbedtls_printf( "  DES%c-ECB-%3d (%s): ",
 2853              		.loc 1 888 0 discriminator 4
ARM GAS  C:\Users\Phuong\AppData\Local\Temp\ccawWFGQ.s 			page 68


 2854 0034 D300     		lsls	r3, r2, #3
 2855              	.LVL354:
 2856 0036 9B1A     		subs	r3, r3, r2
 2857 0038 DA00     		lsls	r2, r3, #3
 2858 003a 4346     		mov	r3, r8
 2859 003c 002B     		cmp	r3, #0
 2860 003e 01D1     		bne	.L138
 2861              	.LVL355:
 888:Source\mbedtls_open\library/des.c ****             mbedtls_printf( "  DES%c-ECB-%3d (%s): ",
 2862              		.loc 1 888 0 is_stmt 0
 2863 0040 B04B     		ldr	r3, .L147+4
 2864              	.LVL356:
 2865 0042 00E0     		b	.L90
 2866              	.LVL357:
 2867              	.L138:
 2868 0044 B04B     		ldr	r3, .L147+8
 2869              	.LVL358:
 2870              	.L90:
 888:Source\mbedtls_open\library/des.c ****             mbedtls_printf( "  DES%c-ECB-%3d (%s): ",
 2871              		.loc 1 888 0 discriminator 8
 2872 0046 B148     		ldr	r0, .L147+12
 2873 0048 FFF7FEFF 		bl	printf
 2874              	.LVL359:
 2875              	.L88:
 890:Source\mbedtls_open\library/des.c ****                              ( v == MBEDTLS_DES_DECRYPT ) ? "dec" : "enc" );
 891:Source\mbedtls_open\library/des.c **** 
 892:Source\mbedtls_open\library/des.c ****         memcpy( buf, des3_test_buf, 8 );
 2876              		.loc 1 892 0 is_stmt 1
 2877 004c 08AA     		add	r2, sp, #32
 2878 004e B04B     		ldr	r3, .L147+16
 2879 0050 03CB     		ldmia	r3!, {r0, r1}
 2880 0052 03C2     		stmia	r2!, {r0, r1}
 893:Source\mbedtls_open\library/des.c **** 
 894:Source\mbedtls_open\library/des.c ****         switch( i )
 2881              		.loc 1 894 0
 2882 0054 052F     		cmp	r7, #5
 2883 0056 00D9     		bls	.LCB3094
 2884 0058 48E1     		b	.L139	@long jump
 2885              	.LCB3094:
 2886 005a BB00     		lsls	r3, r7, #2
 2887 005c AD4A     		ldr	r2, .L147+20
 2888 005e D358     		ldr	r3, [r2, r3]
 2889 0060 9F46     		mov	pc, r3
 2890              		.section	.rodata
 2891              		.align	2
 2892              	.L93:
 2893 0000 62000000 		.word	.L92
 2894 0004 6E000000 		.word	.L94
 2895 0008 7A000000 		.word	.L95
 2896 000c 88000000 		.word	.L96
 2897 0010 94000000 		.word	.L97
 2898 0014 A0000000 		.word	.L98
 2899              		.section	.text.mbedtls_des_self_test
 2900              	.L92:
 895:Source\mbedtls_open\library/des.c ****         {
 896:Source\mbedtls_open\library/des.c ****         case 0:
 897:Source\mbedtls_open\library/des.c ****             mbedtls_des_setkey_dec( &ctx, des3_test_keys );
ARM GAS  C:\Users\Phuong\AppData\Local\Temp\ccawWFGQ.s 			page 69


 2901              		.loc 1 897 0
 2902 0062 AB49     		ldr	r1, .L147+16
 2903 0064 0831     		adds	r1, r1, #8
 2904 0066 6AA8     		add	r0, sp, #424
 2905 0068 FFF7FEFF 		bl	mbedtls_des_setkey_dec
 2906              	.LVL360:
 898:Source\mbedtls_open\library/des.c ****             break;
 2907              		.loc 1 898 0
 2908 006c 0AE0     		b	.L99
 2909              	.L94:
 899:Source\mbedtls_open\library/des.c **** 
 900:Source\mbedtls_open\library/des.c ****         case 1:
 901:Source\mbedtls_open\library/des.c ****             mbedtls_des_setkey_enc( &ctx, des3_test_keys );
 2910              		.loc 1 901 0
 2911 006e A849     		ldr	r1, .L147+16
 2912 0070 0831     		adds	r1, r1, #8
 2913 0072 6AA8     		add	r0, sp, #424
 2914 0074 FFF7FEFF 		bl	mbedtls_des_setkey_enc
 2915              	.LVL361:
 902:Source\mbedtls_open\library/des.c ****             break;
 2916              		.loc 1 902 0
 2917 0078 04E0     		b	.L99
 2918              	.L95:
 903:Source\mbedtls_open\library/des.c **** 
 904:Source\mbedtls_open\library/des.c ****         case 2:
 905:Source\mbedtls_open\library/des.c ****             mbedtls_des3_set2key_dec( &ctx3, des3_test_keys );
 2919              		.loc 1 905 0
 2920 007a A549     		ldr	r1, .L147+16
 2921 007c 0831     		adds	r1, r1, #8
 2922 007e 0AA8     		add	r0, sp, #40
 2923 0080 FFF7FEFF 		bl	mbedtls_des3_set2key_dec
 2924              	.LVL362:
 2925              	.L99:
 888:Source\mbedtls_open\library/des.c ****                              ( u == 0 ) ? ' ' : '3', 56 + u * 56,
 2926              		.loc 1 888 0 discriminator 1
 2927 0084 0024     		movs	r4, #0
 2928 0086 1FE0     		b	.L100
 2929              	.L96:
 906:Source\mbedtls_open\library/des.c ****             break;
 907:Source\mbedtls_open\library/des.c **** 
 908:Source\mbedtls_open\library/des.c ****         case 3:
 909:Source\mbedtls_open\library/des.c ****             mbedtls_des3_set2key_enc( &ctx3, des3_test_keys );
 2930              		.loc 1 909 0
 2931 0088 A149     		ldr	r1, .L147+16
 2932 008a 0831     		adds	r1, r1, #8
 2933 008c 0AA8     		add	r0, sp, #40
 2934 008e FFF7FEFF 		bl	mbedtls_des3_set2key_enc
 2935              	.LVL363:
 910:Source\mbedtls_open\library/des.c ****             break;
 2936              		.loc 1 910 0
 2937 0092 F7E7     		b	.L99
 2938              	.L97:
 911:Source\mbedtls_open\library/des.c **** 
 912:Source\mbedtls_open\library/des.c ****         case 4:
 913:Source\mbedtls_open\library/des.c ****             mbedtls_des3_set3key_dec( &ctx3, des3_test_keys );
 2939              		.loc 1 913 0
 2940 0094 9E49     		ldr	r1, .L147+16
ARM GAS  C:\Users\Phuong\AppData\Local\Temp\ccawWFGQ.s 			page 70


 2941 0096 0831     		adds	r1, r1, #8
 2942 0098 0AA8     		add	r0, sp, #40
 2943 009a FFF7FEFF 		bl	mbedtls_des3_set3key_dec
 2944              	.LVL364:
 914:Source\mbedtls_open\library/des.c ****             break;
 2945              		.loc 1 914 0
 2946 009e F1E7     		b	.L99
 2947              	.L98:
 915:Source\mbedtls_open\library/des.c **** 
 916:Source\mbedtls_open\library/des.c ****         case 5:
 917:Source\mbedtls_open\library/des.c ****             mbedtls_des3_set3key_enc( &ctx3, des3_test_keys );
 2948              		.loc 1 917 0
 2949 00a0 9B49     		ldr	r1, .L147+16
 2950 00a2 0831     		adds	r1, r1, #8
 2951 00a4 0AA8     		add	r0, sp, #40
 2952 00a6 FFF7FEFF 		bl	mbedtls_des3_set3key_enc
 2953              	.LVL365:
 918:Source\mbedtls_open\library/des.c ****             break;
 2954              		.loc 1 918 0
 2955 00aa EBE7     		b	.L99
 2956              	.LVL366:
 2957              	.L103:
 919:Source\mbedtls_open\library/des.c **** 
 920:Source\mbedtls_open\library/des.c ****         default:
 921:Source\mbedtls_open\library/des.c ****             return( 1 );
 922:Source\mbedtls_open\library/des.c ****         }
 923:Source\mbedtls_open\library/des.c **** 
 924:Source\mbedtls_open\library/des.c ****         for( j = 0; j < 10000; j++ )
 925:Source\mbedtls_open\library/des.c ****         {
 926:Source\mbedtls_open\library/des.c ****             if( u == 0 )
 2958              		.loc 1 926 0
 2959 00ac 002D     		cmp	r5, #0
 2960 00ae 05D1     		bne	.L101
 927:Source\mbedtls_open\library/des.c ****                 mbedtls_des_crypt_ecb( &ctx, buf, buf );
 2961              		.loc 1 927 0
 2962 00b0 08AA     		add	r2, sp, #32
 2963 00b2 1100     		movs	r1, r2
 2964 00b4 6AA8     		add	r0, sp, #424
 2965 00b6 FFF7FEFF 		bl	mbedtls_des_crypt_ecb
 2966              	.LVL367:
 2967 00ba 04E0     		b	.L102
 2968              	.L101:
 928:Source\mbedtls_open\library/des.c ****             else
 929:Source\mbedtls_open\library/des.c ****                 mbedtls_des3_crypt_ecb( &ctx3, buf, buf );
 2969              		.loc 1 929 0
 2970 00bc 08AA     		add	r2, sp, #32
 2971 00be 1100     		movs	r1, r2
 2972 00c0 0AA8     		add	r0, sp, #40
 2973 00c2 FFF7FEFF 		bl	mbedtls_des3_crypt_ecb
 2974              	.LVL368:
 2975              	.L102:
 924:Source\mbedtls_open\library/des.c ****         {
 2976              		.loc 1 924 0 discriminator 2
 2977 00c6 0134     		adds	r4, r4, #1
 2978              	.LVL369:
 2979              	.L100:
 924:Source\mbedtls_open\library/des.c ****         {
ARM GAS  C:\Users\Phuong\AppData\Local\Temp\ccawWFGQ.s 			page 71


 2980              		.loc 1 924 0 is_stmt 0 discriminator 1
 2981 00c8 934B     		ldr	r3, .L147+24
 2982 00ca 9C42     		cmp	r4, r3
 2983 00cc EEDD     		ble	.L103
 930:Source\mbedtls_open\library/des.c ****         }
 931:Source\mbedtls_open\library/des.c **** 
 932:Source\mbedtls_open\library/des.c ****         if( ( v == MBEDTLS_DES_DECRYPT &&
 2984              		.loc 1 932 0 is_stmt 1
 2985 00ce 4346     		mov	r3, r8
 2986 00d0 002B     		cmp	r3, #0
 2987 00d2 09D1     		bne	.L104
 2988              	.LVL370:
 933:Source\mbedtls_open\library/des.c ****                 memcmp( buf, des3_test_ecb_dec[u], 8 ) != 0 ) ||
 2989              		.loc 1 933 0 discriminator 1
 2990 00d4 EB00     		lsls	r3, r5, #3
 2991              	.LVL371:
 2992 00d6 8E49     		ldr	r1, .L147+16
 2993 00d8 2031     		adds	r1, r1, #32
 2994 00da C918     		adds	r1, r1, r3
 2995 00dc 0822     		movs	r2, #8
 2996 00de 08A8     		add	r0, sp, #32
 2997 00e0 FFF7FEFF 		bl	memcmp
 2998              	.LVL372:
 932:Source\mbedtls_open\library/des.c ****                 memcmp( buf, des3_test_ecb_dec[u], 8 ) != 0 ) ||
 2999              		.loc 1 932 0 discriminator 1
 3000 00e4 0028     		cmp	r0, #0
 3001 00e6 0CD1     		bne	.L105
 3002              	.L104:
 3003              		.loc 1 933 0
 3004 00e8 4346     		mov	r3, r8
 3005 00ea 002B     		cmp	r3, #0
 3006 00ec 11D0     		beq	.L106
 3007              	.LVL373:
 934:Source\mbedtls_open\library/des.c ****             ( v != MBEDTLS_DES_DECRYPT &&
 935:Source\mbedtls_open\library/des.c ****                 memcmp( buf, des3_test_ecb_enc[u], 8 ) != 0 ) )
 3008              		.loc 1 935 0
 3009 00ee ED00     		lsls	r5, r5, #3
 3010              	.LVL374:
 3011 00f0 8749     		ldr	r1, .L147+16
 3012 00f2 3831     		adds	r1, r1, #56
 3013 00f4 4919     		adds	r1, r1, r5
 3014 00f6 0822     		movs	r2, #8
 3015 00f8 08A8     		add	r0, sp, #32
 3016 00fa FFF7FEFF 		bl	memcmp
 3017              	.LVL375:
 934:Source\mbedtls_open\library/des.c ****             ( v != MBEDTLS_DES_DECRYPT &&
 3018              		.loc 1 934 0
 3019 00fe 0028     		cmp	r0, #0
 3020 0100 07D0     		beq	.L106
 3021              	.L105:
 936:Source\mbedtls_open\library/des.c ****         {
 937:Source\mbedtls_open\library/des.c ****             if( verbose != 0 )
 3022              		.loc 1 937 0
 3023 0102 002E     		cmp	r6, #0
 3024 0104 00D1     		bne	.LCB3231
 3025 0106 E4E0     		b	.L140	@long jump
 3026              	.LCB3231:
ARM GAS  C:\Users\Phuong\AppData\Local\Temp\ccawWFGQ.s 			page 72


 938:Source\mbedtls_open\library/des.c ****                 mbedtls_printf( "failed\n" );
 3027              		.loc 1 938 0
 3028 0108 8448     		ldr	r0, .L147+28
 3029 010a FFF7FEFF 		bl	puts
 3030              	.LVL376:
 939:Source\mbedtls_open\library/des.c **** 
 940:Source\mbedtls_open\library/des.c ****             ret = 1;
 3031              		.loc 1 940 0
 3032 010e 0124     		movs	r4, #1
 3033              	.LVL377:
 3034 0110 E4E0     		b	.L107
 3035              	.LVL378:
 3036              	.L106:
 941:Source\mbedtls_open\library/des.c ****             goto exit;
 942:Source\mbedtls_open\library/des.c ****         }
 943:Source\mbedtls_open\library/des.c **** 
 944:Source\mbedtls_open\library/des.c ****         if( verbose != 0 )
 3037              		.loc 1 944 0
 3038 0112 002E     		cmp	r6, #0
 3039 0114 02D0     		beq	.L108
 945:Source\mbedtls_open\library/des.c ****             mbedtls_printf( "passed\n" );
 3040              		.loc 1 945 0
 3041 0116 8248     		ldr	r0, .L147+32
 3042 0118 FFF7FEFF 		bl	puts
 3043              	.LVL379:
 3044              	.L108:
 882:Source\mbedtls_open\library/des.c ****     {
 3045              		.loc 1 882 0 discriminator 2
 3046 011c 0137     		adds	r7, r7, #1
 3047              	.LVL380:
 3048              	.L87:
 882:Source\mbedtls_open\library/des.c ****     {
 3049              		.loc 1 882 0 is_stmt 0 discriminator 1
 3050 011e 052F     		cmp	r7, #5
 3051 0120 00DC     		bgt	.LCB3262
 3052 0122 7BE7     		b	.L109	@long jump
 3053              	.LCB3262:
 946:Source\mbedtls_open\library/des.c ****     }
 947:Source\mbedtls_open\library/des.c **** 
 948:Source\mbedtls_open\library/des.c ****     if( verbose != 0 )
 3054              		.loc 1 948 0 is_stmt 1
 3055 0124 002E     		cmp	r6, #0
 3056 0126 02D0     		beq	.L110
 949:Source\mbedtls_open\library/des.c ****         mbedtls_printf( "\n" );
 3057              		.loc 1 949 0
 3058 0128 0A20     		movs	r0, #10
 3059 012a FFF7FEFF 		bl	putchar
 3060              	.LVL381:
 3061              	.L110:
 3062 012e 0023     		movs	r3, #0
 3063 0130 9846     		mov	r8, r3
 3064 0132 C3E0     		b	.L111
 3065              	.LVL382:
 3066              	.L136:
 950:Source\mbedtls_open\library/des.c **** 
 951:Source\mbedtls_open\library/des.c **** #if defined(MBEDTLS_CIPHER_MODE_CBC)
 952:Source\mbedtls_open\library/des.c ****     /*
ARM GAS  C:\Users\Phuong\AppData\Local\Temp\ccawWFGQ.s 			page 73


 953:Source\mbedtls_open\library/des.c ****      * CBC mode
 954:Source\mbedtls_open\library/des.c ****      */
 955:Source\mbedtls_open\library/des.c ****     for( i = 0; i < 6; i++ )
 956:Source\mbedtls_open\library/des.c ****     {
 957:Source\mbedtls_open\library/des.c ****         u = i >> 1;
 3067              		.loc 1 957 0
 3068 0134 4346     		mov	r3, r8
 3069              	.LVL383:
 3070 0136 5F10     		asrs	r7, r3, #1
 3071              	.LVL384:
 958:Source\mbedtls_open\library/des.c ****         v = i  & 1;
 3072              		.loc 1 958 0
 3073 0138 0125     		movs	r5, #1
 3074 013a 1D40     		ands	r5, r3
 3075              	.LVL385:
 959:Source\mbedtls_open\library/des.c **** 
 960:Source\mbedtls_open\library/des.c ****         if( verbose != 0 )
 3076              		.loc 1 960 0
 3077 013c 002E     		cmp	r6, #0
 3078 013e 10D0     		beq	.L112
 3079              	.LVL386:
 961:Source\mbedtls_open\library/des.c ****             mbedtls_printf( "  DES%c-CBC-%3d (%s): ",
 3080              		.loc 1 961 0
 3081 0140 002F     		cmp	r7, #0
 3082 0142 01D1     		bne	.L141
 3083 0144 2021     		movs	r1, #32
 3084 0146 00E0     		b	.L113
 3085              	.L141:
 3086 0148 3321     		movs	r1, #51
 3087              	.L113:
 962:Source\mbedtls_open\library/des.c ****                              ( u == 0 ) ? ' ' : '3', 56 + u * 56,
 3088              		.loc 1 962 0 discriminator 4
 3089 014a 7A1C     		adds	r2, r7, #1
 961:Source\mbedtls_open\library/des.c ****             mbedtls_printf( "  DES%c-CBC-%3d (%s): ",
 3090              		.loc 1 961 0 discriminator 4
 3091 014c D300     		lsls	r3, r2, #3
 3092              	.LVL387:
 3093 014e 9B1A     		subs	r3, r3, r2
 3094 0150 DA00     		lsls	r2, r3, #3
 3095 0152 002D     		cmp	r5, #0
 3096 0154 01D1     		bne	.L142
 961:Source\mbedtls_open\library/des.c ****             mbedtls_printf( "  DES%c-CBC-%3d (%s): ",
 3097              		.loc 1 961 0 is_stmt 0
 3098 0156 6B4B     		ldr	r3, .L147+4
 3099 0158 00E0     		b	.L114
 3100              	.L142:
 3101 015a 6B4B     		ldr	r3, .L147+8
 3102              	.L114:
 961:Source\mbedtls_open\library/des.c ****             mbedtls_printf( "  DES%c-CBC-%3d (%s): ",
 3103              		.loc 1 961 0 discriminator 8
 3104 015c 7148     		ldr	r0, .L147+36
 3105 015e FFF7FEFF 		bl	printf
 3106              	.LVL388:
 3107              	.L112:
 963:Source\mbedtls_open\library/des.c ****                              ( v == MBEDTLS_DES_DECRYPT ) ? "dec" : "enc" );
 964:Source\mbedtls_open\library/des.c **** 
 965:Source\mbedtls_open\library/des.c ****         memcpy( iv,  des3_test_iv,  8 );
ARM GAS  C:\Users\Phuong\AppData\Local\Temp\ccawWFGQ.s 			page 74


 3108              		.loc 1 965 0 is_stmt 1
 3109 0162 04A9     		add	r1, sp, #16
 3110 0164 6A4B     		ldr	r3, .L147+16
 3111 0166 1A00     		movs	r2, r3
 3112 0168 5032     		adds	r2, r2, #80
 3113 016a 11CA     		ldmia	r2!, {r0, r4}
 3114 016c 11C1     		stmia	r1!, {r0, r4}
 966:Source\mbedtls_open\library/des.c ****         memcpy( prv, des3_test_iv,  8 );
 3115              		.loc 1 966 0
 3116 016e 06A9     		add	r1, sp, #24
 3117 0170 1A00     		movs	r2, r3
 3118 0172 5032     		adds	r2, r2, #80
 3119 0174 11CA     		ldmia	r2!, {r0, r4}
 3120 0176 11C1     		stmia	r1!, {r0, r4}
 967:Source\mbedtls_open\library/des.c ****         memcpy( buf, des3_test_buf, 8 );
 3121              		.loc 1 967 0
 3122 0178 08AA     		add	r2, sp, #32
 3123 017a 03CB     		ldmia	r3!, {r0, r1}
 3124 017c 03C2     		stmia	r2!, {r0, r1}
 968:Source\mbedtls_open\library/des.c **** 
 969:Source\mbedtls_open\library/des.c ****         switch( i )
 3125              		.loc 1 969 0
 3126 017e 4346     		mov	r3, r8
 3127 0180 052B     		cmp	r3, #5
 3128 0182 00D9     		bls	.LCB3332
 3129 0184 B4E0     		b	.L143	@long jump
 3130              	.LCB3332:
 3131              	.LVL389:
 3132 0186 9B00     		lsls	r3, r3, #2
 3133              	.LVL390:
 3134 0188 674A     		ldr	r2, .L147+40
 3135 018a D358     		ldr	r3, [r2, r3]
 3136 018c 9F46     		mov	pc, r3
 3137              		.section	.rodata
 3138              		.align	2
 3139              	.L116:
 3140 0018 8E010000 		.word	.L115
 3141 001c 9A010000 		.word	.L117
 3142 0020 A6010000 		.word	.L118
 3143 0024 B2010000 		.word	.L119
 3144 0028 BE010000 		.word	.L120
 3145 002c CA010000 		.word	.L121
 3146              		.section	.text.mbedtls_des_self_test
 3147              	.L115:
 970:Source\mbedtls_open\library/des.c ****         {
 971:Source\mbedtls_open\library/des.c ****         case 0:
 972:Source\mbedtls_open\library/des.c ****             mbedtls_des_setkey_dec( &ctx, des3_test_keys );
 3148              		.loc 1 972 0
 3149 018e 6049     		ldr	r1, .L147+16
 3150 0190 0831     		adds	r1, r1, #8
 3151 0192 6AA8     		add	r0, sp, #424
 3152 0194 FFF7FEFF 		bl	mbedtls_des_setkey_dec
 3153              	.LVL391:
 973:Source\mbedtls_open\library/des.c ****             break;
 3154              		.loc 1 973 0
 3155 0198 1CE0     		b	.L122
 3156              	.L117:
ARM GAS  C:\Users\Phuong\AppData\Local\Temp\ccawWFGQ.s 			page 75


 974:Source\mbedtls_open\library/des.c **** 
 975:Source\mbedtls_open\library/des.c ****         case 1:
 976:Source\mbedtls_open\library/des.c ****             mbedtls_des_setkey_enc( &ctx, des3_test_keys );
 3157              		.loc 1 976 0
 3158 019a 5D49     		ldr	r1, .L147+16
 3159 019c 0831     		adds	r1, r1, #8
 3160 019e 6AA8     		add	r0, sp, #424
 3161 01a0 FFF7FEFF 		bl	mbedtls_des_setkey_enc
 3162              	.LVL392:
 977:Source\mbedtls_open\library/des.c ****             break;
 3163              		.loc 1 977 0
 3164 01a4 16E0     		b	.L122
 3165              	.L118:
 978:Source\mbedtls_open\library/des.c **** 
 979:Source\mbedtls_open\library/des.c ****         case 2:
 980:Source\mbedtls_open\library/des.c ****             mbedtls_des3_set2key_dec( &ctx3, des3_test_keys );
 3166              		.loc 1 980 0
 3167 01a6 5A49     		ldr	r1, .L147+16
 3168 01a8 0831     		adds	r1, r1, #8
 3169 01aa 0AA8     		add	r0, sp, #40
 3170 01ac FFF7FEFF 		bl	mbedtls_des3_set2key_dec
 3171              	.LVL393:
 981:Source\mbedtls_open\library/des.c ****             break;
 3172              		.loc 1 981 0
 3173 01b0 10E0     		b	.L122
 3174              	.L119:
 982:Source\mbedtls_open\library/des.c **** 
 983:Source\mbedtls_open\library/des.c ****         case 3:
 984:Source\mbedtls_open\library/des.c ****             mbedtls_des3_set2key_enc( &ctx3, des3_test_keys );
 3175              		.loc 1 984 0
 3176 01b2 5749     		ldr	r1, .L147+16
 3177 01b4 0831     		adds	r1, r1, #8
 3178 01b6 0AA8     		add	r0, sp, #40
 3179 01b8 FFF7FEFF 		bl	mbedtls_des3_set2key_enc
 3180              	.LVL394:
 985:Source\mbedtls_open\library/des.c ****             break;
 3181              		.loc 1 985 0
 3182 01bc 0AE0     		b	.L122
 3183              	.L120:
 986:Source\mbedtls_open\library/des.c **** 
 987:Source\mbedtls_open\library/des.c ****         case 4:
 988:Source\mbedtls_open\library/des.c ****             mbedtls_des3_set3key_dec( &ctx3, des3_test_keys );
 3184              		.loc 1 988 0
 3185 01be 5449     		ldr	r1, .L147+16
 3186 01c0 0831     		adds	r1, r1, #8
 3187 01c2 0AA8     		add	r0, sp, #40
 3188 01c4 FFF7FEFF 		bl	mbedtls_des3_set3key_dec
 3189              	.LVL395:
 989:Source\mbedtls_open\library/des.c ****             break;
 3190              		.loc 1 989 0
 3191 01c8 04E0     		b	.L122
 3192              	.L121:
 990:Source\mbedtls_open\library/des.c **** 
 991:Source\mbedtls_open\library/des.c ****         case 5:
 992:Source\mbedtls_open\library/des.c ****             mbedtls_des3_set3key_enc( &ctx3, des3_test_keys );
 3193              		.loc 1 992 0
 3194 01ca 5149     		ldr	r1, .L147+16
ARM GAS  C:\Users\Phuong\AppData\Local\Temp\ccawWFGQ.s 			page 76


 3195 01cc 0831     		adds	r1, r1, #8
 3196 01ce 0AA8     		add	r0, sp, #40
 3197 01d0 FFF7FEFF 		bl	mbedtls_des3_set3key_enc
 3198              	.LVL396:
 3199              	.L122:
 993:Source\mbedtls_open\library/des.c ****             break;
 994:Source\mbedtls_open\library/des.c **** 
 995:Source\mbedtls_open\library/des.c ****         default:
 996:Source\mbedtls_open\library/des.c ****             return( 1 );
 997:Source\mbedtls_open\library/des.c ****         }
 998:Source\mbedtls_open\library/des.c **** 
 999:Source\mbedtls_open\library/des.c ****         if( v == MBEDTLS_DES_DECRYPT )
 3200              		.loc 1 999 0
 3201 01d4 002D     		cmp	r5, #0
 3202 01d6 18D0     		beq	.L144
 3203 01d8 0024     		movs	r4, #0
 3204 01da 40E0     		b	.L124
 3205              	.LVL397:
 3206              	.L127:
1000:Source\mbedtls_open\library/des.c ****         {
1001:Source\mbedtls_open\library/des.c ****             for( j = 0; j < 10000; j++ )
1002:Source\mbedtls_open\library/des.c ****             {
1003:Source\mbedtls_open\library/des.c ****                 if( u == 0 )
 3207              		.loc 1 1003 0
 3208 01dc 002F     		cmp	r7, #0
 3209 01de 09D1     		bne	.L125
1004:Source\mbedtls_open\library/des.c ****                     mbedtls_des_crypt_cbc( &ctx, v, 8, iv, buf, buf );
 3210              		.loc 1 1004 0
 3211 01e0 08AB     		add	r3, sp, #32
 3212 01e2 0193     		str	r3, [sp, #4]
 3213 01e4 0093     		str	r3, [sp]
 3214 01e6 04AB     		add	r3, sp, #16
 3215 01e8 0822     		movs	r2, #8
 3216 01ea 2900     		movs	r1, r5
 3217 01ec 6AA8     		add	r0, sp, #424
 3218 01ee FFF7FEFF 		bl	mbedtls_des_crypt_cbc
 3219              	.LVL398:
 3220 01f2 08E0     		b	.L126
 3221              	.L125:
1005:Source\mbedtls_open\library/des.c ****                 else
1006:Source\mbedtls_open\library/des.c ****                     mbedtls_des3_crypt_cbc( &ctx3, v, 8, iv, buf, buf );
 3222              		.loc 1 1006 0
 3223 01f4 08AB     		add	r3, sp, #32
 3224 01f6 0193     		str	r3, [sp, #4]
 3225 01f8 0093     		str	r3, [sp]
 3226 01fa 04AB     		add	r3, sp, #16
 3227 01fc 0822     		movs	r2, #8
 3228 01fe 2900     		movs	r1, r5
 3229 0200 0AA8     		add	r0, sp, #40
 3230 0202 FFF7FEFF 		bl	mbedtls_des3_crypt_cbc
 3231              	.LVL399:
 3232              	.L126:
1001:Source\mbedtls_open\library/des.c ****             {
 3233              		.loc 1 1001 0 discriminator 2
 3234 0206 0134     		adds	r4, r4, #1
 3235              	.LVL400:
 3236 0208 00E0     		b	.L123
ARM GAS  C:\Users\Phuong\AppData\Local\Temp\ccawWFGQ.s 			page 77


 3237              	.LVL401:
 3238              	.L144:
 3239 020a 0024     		movs	r4, #0
 3240              	.L123:
 3241              	.LVL402:
1001:Source\mbedtls_open\library/des.c ****             {
 3242              		.loc 1 1001 0 is_stmt 0 discriminator 1
 3243 020c 424B     		ldr	r3, .L147+24
 3244 020e 9C42     		cmp	r4, r3
 3245 0210 E4DD     		ble	.L127
 3246 0212 2CE0     		b	.L128
 3247              	.L131:
 3248              	.LBB4:
1007:Source\mbedtls_open\library/des.c ****             }
1008:Source\mbedtls_open\library/des.c ****         }
1009:Source\mbedtls_open\library/des.c ****         else
1010:Source\mbedtls_open\library/des.c ****         {
1011:Source\mbedtls_open\library/des.c ****             for( j = 0; j < 10000; j++ )
1012:Source\mbedtls_open\library/des.c ****             {
1013:Source\mbedtls_open\library/des.c ****                 unsigned char tmp[8];
1014:Source\mbedtls_open\library/des.c **** 
1015:Source\mbedtls_open\library/des.c ****                 if( u == 0 )
 3249              		.loc 1 1015 0 is_stmt 1
 3250 0214 002F     		cmp	r7, #0
 3251 0216 09D1     		bne	.L129
1016:Source\mbedtls_open\library/des.c ****                     mbedtls_des_crypt_cbc( &ctx, v, 8, iv, buf, buf );
 3252              		.loc 1 1016 0
 3253 0218 08AB     		add	r3, sp, #32
 3254 021a 0193     		str	r3, [sp, #4]
 3255 021c 0093     		str	r3, [sp]
 3256 021e 04AB     		add	r3, sp, #16
 3257 0220 0822     		movs	r2, #8
 3258 0222 2900     		movs	r1, r5
 3259 0224 6AA8     		add	r0, sp, #424
 3260 0226 FFF7FEFF 		bl	mbedtls_des_crypt_cbc
 3261              	.LVL403:
 3262 022a 08E0     		b	.L130
 3263              	.L129:
1017:Source\mbedtls_open\library/des.c ****                 else
1018:Source\mbedtls_open\library/des.c ****                     mbedtls_des3_crypt_cbc( &ctx3, v, 8, iv, buf, buf );
 3264              		.loc 1 1018 0
 3265 022c 08AB     		add	r3, sp, #32
 3266 022e 0193     		str	r3, [sp, #4]
 3267 0230 0093     		str	r3, [sp]
 3268 0232 04AB     		add	r3, sp, #16
 3269 0234 0822     		movs	r2, #8
 3270 0236 2900     		movs	r1, r5
 3271 0238 0AA8     		add	r0, sp, #40
 3272 023a FFF7FEFF 		bl	mbedtls_des3_crypt_cbc
 3273              	.LVL404:
 3274              	.L130:
1019:Source\mbedtls_open\library/des.c **** 
1020:Source\mbedtls_open\library/des.c ****                 memcpy( tmp, prv, 8 );
 3275              		.loc 1 1020 0 discriminator 2
 3276 023e 0822     		movs	r2, #8
 3277 0240 06A9     		add	r1, sp, #24
 3278 0242 02A8     		add	r0, sp, #8
ARM GAS  C:\Users\Phuong\AppData\Local\Temp\ccawWFGQ.s 			page 78


 3279 0244 FFF7FEFF 		bl	memcpy
 3280              	.LVL405:
1021:Source\mbedtls_open\library/des.c ****                 memcpy( prv, buf, 8 );
 3281              		.loc 1 1021 0 discriminator 2
 3282 0248 0822     		movs	r2, #8
 3283 024a 08A9     		add	r1, sp, #32
 3284 024c 06A8     		add	r0, sp, #24
 3285 024e FFF7FEFF 		bl	memcpy
 3286              	.LVL406:
1022:Source\mbedtls_open\library/des.c ****                 memcpy( buf, tmp, 8 );
 3287              		.loc 1 1022 0 discriminator 2
 3288 0252 0822     		movs	r2, #8
 3289 0254 02A9     		add	r1, sp, #8
 3290 0256 08A8     		add	r0, sp, #32
 3291 0258 FFF7FEFF 		bl	memcpy
 3292              	.LVL407:
 3293              	.LBE4:
1011:Source\mbedtls_open\library/des.c ****             {
 3294              		.loc 1 1011 0 discriminator 2
 3295 025c 0134     		adds	r4, r4, #1
 3296              	.LVL408:
 3297              	.L124:
1011:Source\mbedtls_open\library/des.c ****             {
 3298              		.loc 1 1011 0 is_stmt 0 discriminator 1
 3299 025e 2E4B     		ldr	r3, .L147+24
 3300 0260 9C42     		cmp	r4, r3
 3301 0262 D7DD     		ble	.L131
1023:Source\mbedtls_open\library/des.c ****             }
1024:Source\mbedtls_open\library/des.c **** 
1025:Source\mbedtls_open\library/des.c ****             memcpy( buf, prv, 8 );
 3302              		.loc 1 1025 0 is_stmt 1
 3303 0264 0822     		movs	r2, #8
 3304 0266 06A9     		add	r1, sp, #24
 3305 0268 08A8     		add	r0, sp, #32
 3306 026a FFF7FEFF 		bl	memcpy
 3307              	.LVL409:
 3308              	.L128:
1026:Source\mbedtls_open\library/des.c ****         }
1027:Source\mbedtls_open\library/des.c **** 
1028:Source\mbedtls_open\library/des.c ****         if( ( v == MBEDTLS_DES_DECRYPT &&
 3309              		.loc 1 1028 0
 3310 026e 002D     		cmp	r5, #0
 3311 0270 09D1     		bne	.L132
1029:Source\mbedtls_open\library/des.c ****                 memcmp( buf, des3_test_cbc_dec[u], 8 ) != 0 ) ||
 3312              		.loc 1 1029 0 discriminator 1
 3313 0272 FB00     		lsls	r3, r7, #3
 3314 0274 2649     		ldr	r1, .L147+16
 3315 0276 5831     		adds	r1, r1, #88
 3316 0278 C918     		adds	r1, r1, r3
 3317 027a 0822     		movs	r2, #8
 3318 027c 08A8     		add	r0, sp, #32
 3319 027e FFF7FEFF 		bl	memcmp
 3320              	.LVL410:
1028:Source\mbedtls_open\library/des.c ****                 memcmp( buf, des3_test_cbc_dec[u], 8 ) != 0 ) ||
 3321              		.loc 1 1028 0 discriminator 1
 3322 0282 0028     		cmp	r0, #0
 3323 0284 0BD1     		bne	.L133
ARM GAS  C:\Users\Phuong\AppData\Local\Temp\ccawWFGQ.s 			page 79


 3324              	.L132:
 3325              		.loc 1 1029 0
 3326 0286 002D     		cmp	r5, #0
 3327 0288 10D0     		beq	.L134
1030:Source\mbedtls_open\library/des.c ****             ( v != MBEDTLS_DES_DECRYPT &&
1031:Source\mbedtls_open\library/des.c ****                 memcmp( buf, des3_test_cbc_enc[u], 8 ) != 0 ) )
 3328              		.loc 1 1031 0
 3329 028a FF00     		lsls	r7, r7, #3
 3330              	.LVL411:
 3331 028c 2049     		ldr	r1, .L147+16
 3332 028e 7031     		adds	r1, r1, #112
 3333 0290 C919     		adds	r1, r1, r7
 3334 0292 0822     		movs	r2, #8
 3335 0294 08A8     		add	r0, sp, #32
 3336 0296 FFF7FEFF 		bl	memcmp
 3337              	.LVL412:
1030:Source\mbedtls_open\library/des.c ****             ( v != MBEDTLS_DES_DECRYPT &&
 3338              		.loc 1 1030 0
 3339 029a 0028     		cmp	r0, #0
 3340 029c 06D0     		beq	.L134
 3341              	.L133:
1032:Source\mbedtls_open\library/des.c ****         {
1033:Source\mbedtls_open\library/des.c ****             if( verbose != 0 )
 3342              		.loc 1 1033 0
 3343 029e 002E     		cmp	r6, #0
 3344 02a0 19D0     		beq	.L145
1034:Source\mbedtls_open\library/des.c ****                 mbedtls_printf( "failed\n" );
 3345              		.loc 1 1034 0
 3346 02a2 1E48     		ldr	r0, .L147+28
 3347 02a4 FFF7FEFF 		bl	puts
 3348              	.LVL413:
1035:Source\mbedtls_open\library/des.c **** 
1036:Source\mbedtls_open\library/des.c ****             ret = 1;
 3349              		.loc 1 1036 0
 3350 02a8 0124     		movs	r4, #1
 3351              	.LVL414:
 3352 02aa 17E0     		b	.L107
 3353              	.LVL415:
 3354              	.L134:
1037:Source\mbedtls_open\library/des.c ****             goto exit;
1038:Source\mbedtls_open\library/des.c ****         }
1039:Source\mbedtls_open\library/des.c **** 
1040:Source\mbedtls_open\library/des.c ****         if( verbose != 0 )
 3355              		.loc 1 1040 0
 3356 02ac 002E     		cmp	r6, #0
 3357 02ae 02D0     		beq	.L135
1041:Source\mbedtls_open\library/des.c ****             mbedtls_printf( "passed\n" );
 3358              		.loc 1 1041 0
 3359 02b0 1B48     		ldr	r0, .L147+32
 3360 02b2 FFF7FEFF 		bl	puts
 3361              	.LVL416:
 3362              	.L135:
 955:Source\mbedtls_open\library/des.c ****     {
 3363              		.loc 1 955 0 discriminator 2
 3364 02b6 0123     		movs	r3, #1
 3365 02b8 9C46     		mov	ip, r3
 3366 02ba E044     		add	r8, r8, ip
ARM GAS  C:\Users\Phuong\AppData\Local\Temp\ccawWFGQ.s 			page 80


 3367              	.LVL417:
 3368              	.L111:
 955:Source\mbedtls_open\library/des.c ****     {
 3369              		.loc 1 955 0 is_stmt 0 discriminator 1
 3370 02bc 4346     		mov	r3, r8
 3371 02be 052B     		cmp	r3, #5
 3372 02c0 00DC     		bgt	.LCB3587
 3373 02c2 37E7     		b	.L136	@long jump
 3374              	.LCB3587:
1042:Source\mbedtls_open\library/des.c ****     }
1043:Source\mbedtls_open\library/des.c **** #endif /* MBEDTLS_CIPHER_MODE_CBC */
1044:Source\mbedtls_open\library/des.c **** 
1045:Source\mbedtls_open\library/des.c ****     if( verbose != 0 )
 3375              		.loc 1 1045 0 is_stmt 1
 3376 02c4 002E     		cmp	r6, #0
 3377 02c6 08D0     		beq	.L146
1046:Source\mbedtls_open\library/des.c ****         mbedtls_printf( "\n" );
 3378              		.loc 1 1046 0
 3379 02c8 0A20     		movs	r0, #10
 3380 02ca FFF7FEFF 		bl	putchar
 3381              	.LVL418:
 868:Source\mbedtls_open\library/des.c ****     mbedtls_des_context ctx;
 3382              		.loc 1 868 0
 3383 02ce 0024     		movs	r4, #0
 3384 02d0 04E0     		b	.L107
 3385              	.LVL419:
 3386              	.L140:
 940:Source\mbedtls_open\library/des.c ****             goto exit;
 3387              		.loc 1 940 0
 3388 02d2 0124     		movs	r4, #1
 3389              	.LVL420:
 3390 02d4 02E0     		b	.L107
 3391              	.LVL421:
 3392              	.L145:
1036:Source\mbedtls_open\library/des.c ****             goto exit;
 3393              		.loc 1 1036 0
 3394 02d6 0124     		movs	r4, #1
 3395              	.LVL422:
 3396 02d8 00E0     		b	.L107
 3397              	.LVL423:
 3398              	.L146:
 868:Source\mbedtls_open\library/des.c ****     mbedtls_des_context ctx;
 3399              		.loc 1 868 0
 3400 02da 0024     		movs	r4, #0
 3401              	.LVL424:
 3402              	.L107:
1047:Source\mbedtls_open\library/des.c **** 
1048:Source\mbedtls_open\library/des.c **** exit:
1049:Source\mbedtls_open\library/des.c ****     mbedtls_des_free( &ctx );
 3403              		.loc 1 1049 0
 3404 02dc 6AA8     		add	r0, sp, #424
 3405 02de FFF7FEFF 		bl	mbedtls_des_free
 3406              	.LVL425:
1050:Source\mbedtls_open\library/des.c ****     mbedtls_des3_free( &ctx3 );
 3407              		.loc 1 1050 0
 3408 02e2 0AA8     		add	r0, sp, #40
 3409 02e4 FFF7FEFF 		bl	mbedtls_des3_free
ARM GAS  C:\Users\Phuong\AppData\Local\Temp\ccawWFGQ.s 			page 81


 3410              	.LVL426:
1051:Source\mbedtls_open\library/des.c **** 
1052:Source\mbedtls_open\library/des.c ****     return( ret );
 3411              		.loc 1 1052 0
 3412 02e8 2000     		movs	r0, r4
 3413 02ea 02E0     		b	.L91
 3414              	.LVL427:
 3415              	.L139:
 921:Source\mbedtls_open\library/des.c ****         }
 3416              		.loc 1 921 0
 3417 02ec 0120     		movs	r0, #1
 3418 02ee 00E0     		b	.L91
 3419              	.LVL428:
 3420              	.L143:
 996:Source\mbedtls_open\library/des.c ****         }
 3421              		.loc 1 996 0
 3422 02f0 0120     		movs	r0, #1
 3423              	.LVL429:
 3424              	.L91:
1053:Source\mbedtls_open\library/des.c **** }
 3425              		.loc 1 1053 0
 3426 02f2 8A23     		movs	r3, #138
 3427 02f4 9B00     		lsls	r3, r3, #2
 3428 02f6 9D44     		add	sp, sp, r3
 3429              		@ sp needed
 3430              	.LVL430:
 3431 02f8 04BC     		pop	{r2}
 3432 02fa 9046     		mov	r8, r2
 3433 02fc F0BD     		pop	{r4, r5, r6, r7, pc}
 3434              	.L148:
 3435 02fe C046     		.align	2
 3436              	.L147:
 3437 0300 D8FDFFFF 		.word	-552
 3438 0304 00000000 		.word	.LC20
 3439 0308 04000000 		.word	.LC22
 3440 030c 08000000 		.word	.LC24
 3441 0310 B0090000 		.word	.LANCHOR11
 3442 0314 00000000 		.word	.L93
 3443 0318 0F270000 		.word	9999
 3444 031c 20000000 		.word	.LC28
 3445 0320 28000000 		.word	.LC30
 3446 0324 30000000 		.word	.LC32
 3447 0328 18000000 		.word	.L116
 3448              		.cfi_endproc
 3449              	.LFE21:
 3450              		.size	mbedtls_des_self_test, .-mbedtls_des_self_test
 3451              		.section	.rodata
 3452              		.align	2
 3453              		.set	.LANCHOR0,. + 0
 3454              		.set	.LANCHOR1,. + 128
 3455              		.set	.LANCHOR2,. + 256
 3456              		.set	.LANCHOR3,. + 384
 3457              		.set	.LANCHOR4,. + 640
 3458              		.set	.LANCHOR5,. + 896
 3459              		.set	.LANCHOR6,. + 1152
 3460              		.set	.LANCHOR7,. + 1408
 3461              		.set	.LANCHOR8,. + 1664
ARM GAS  C:\Users\Phuong\AppData\Local\Temp\ccawWFGQ.s 			page 82


 3462              		.set	.LANCHOR9,. + 1920
 3463              		.set	.LANCHOR10,. + 2176
 3464              		.set	.LANCHOR11,. + 2432
 3465              		.type	odd_parity_table, %object
 3466              		.size	odd_parity_table, 128
 3467              	odd_parity_table:
 3468 0030 01       		.byte	1
 3469 0031 02       		.byte	2
 3470 0032 04       		.byte	4
 3471 0033 07       		.byte	7
 3472 0034 08       		.byte	8
 3473 0035 0B       		.byte	11
 3474 0036 0D       		.byte	13
 3475 0037 0E       		.byte	14
 3476 0038 10       		.byte	16
 3477 0039 13       		.byte	19
 3478 003a 15       		.byte	21
 3479 003b 16       		.byte	22
 3480 003c 19       		.byte	25
 3481 003d 1A       		.byte	26
 3482 003e 1C       		.byte	28
 3483 003f 1F       		.byte	31
 3484 0040 20       		.byte	32
 3485 0041 23       		.byte	35
 3486 0042 25       		.byte	37
 3487 0043 26       		.byte	38
 3488 0044 29       		.byte	41
 3489 0045 2A       		.byte	42
 3490 0046 2C       		.byte	44
 3491 0047 2F       		.byte	47
 3492 0048 31       		.byte	49
 3493 0049 32       		.byte	50
 3494 004a 34       		.byte	52
 3495 004b 37       		.byte	55
 3496 004c 38       		.byte	56
 3497 004d 3B       		.byte	59
 3498 004e 3D       		.byte	61
 3499 004f 3E       		.byte	62
 3500 0050 40       		.byte	64
 3501 0051 43       		.byte	67
 3502 0052 45       		.byte	69
 3503 0053 46       		.byte	70
 3504 0054 49       		.byte	73
 3505 0055 4A       		.byte	74
 3506 0056 4C       		.byte	76
 3507 0057 4F       		.byte	79
 3508 0058 51       		.byte	81
 3509 0059 52       		.byte	82
 3510 005a 54       		.byte	84
 3511 005b 57       		.byte	87
 3512 005c 58       		.byte	88
 3513 005d 5B       		.byte	91
 3514 005e 5D       		.byte	93
 3515 005f 5E       		.byte	94
 3516 0060 61       		.byte	97
 3517 0061 62       		.byte	98
 3518 0062 64       		.byte	100
ARM GAS  C:\Users\Phuong\AppData\Local\Temp\ccawWFGQ.s 			page 83


 3519 0063 67       		.byte	103
 3520 0064 68       		.byte	104
 3521 0065 6B       		.byte	107
 3522 0066 6D       		.byte	109
 3523 0067 6E       		.byte	110
 3524 0068 70       		.byte	112
 3525 0069 73       		.byte	115
 3526 006a 75       		.byte	117
 3527 006b 76       		.byte	118
 3528 006c 79       		.byte	121
 3529 006d 7A       		.byte	122
 3530 006e 7C       		.byte	124
 3531 006f 7F       		.byte	127
 3532 0070 80       		.byte	-128
 3533 0071 83       		.byte	-125
 3534 0072 85       		.byte	-123
 3535 0073 86       		.byte	-122
 3536 0074 89       		.byte	-119
 3537 0075 8A       		.byte	-118
 3538 0076 8C       		.byte	-116
 3539 0077 8F       		.byte	-113
 3540 0078 91       		.byte	-111
 3541 0079 92       		.byte	-110
 3542 007a 94       		.byte	-108
 3543 007b 97       		.byte	-105
 3544 007c 98       		.byte	-104
 3545 007d 9B       		.byte	-101
 3546 007e 9D       		.byte	-99
 3547 007f 9E       		.byte	-98
 3548 0080 A1       		.byte	-95
 3549 0081 A2       		.byte	-94
 3550 0082 A4       		.byte	-92
 3551 0083 A7       		.byte	-89
 3552 0084 A8       		.byte	-88
 3553 0085 AB       		.byte	-85
 3554 0086 AD       		.byte	-83
 3555 0087 AE       		.byte	-82
 3556 0088 B0       		.byte	-80
 3557 0089 B3       		.byte	-77
 3558 008a B5       		.byte	-75
 3559 008b B6       		.byte	-74
 3560 008c B9       		.byte	-71
 3561 008d BA       		.byte	-70
 3562 008e BC       		.byte	-68
 3563 008f BF       		.byte	-65
 3564 0090 C1       		.byte	-63
 3565 0091 C2       		.byte	-62
 3566 0092 C4       		.byte	-60
 3567 0093 C7       		.byte	-57
 3568 0094 C8       		.byte	-56
 3569 0095 CB       		.byte	-53
 3570 0096 CD       		.byte	-51
 3571 0097 CE       		.byte	-50
 3572 0098 D0       		.byte	-48
 3573 0099 D3       		.byte	-45
 3574 009a D5       		.byte	-43
 3575 009b D6       		.byte	-42
ARM GAS  C:\Users\Phuong\AppData\Local\Temp\ccawWFGQ.s 			page 84


 3576 009c D9       		.byte	-39
 3577 009d DA       		.byte	-38
 3578 009e DC       		.byte	-36
 3579 009f DF       		.byte	-33
 3580 00a0 E0       		.byte	-32
 3581 00a1 E3       		.byte	-29
 3582 00a2 E5       		.byte	-27
 3583 00a3 E6       		.byte	-26
 3584 00a4 E9       		.byte	-23
 3585 00a5 EA       		.byte	-22
 3586 00a6 EC       		.byte	-20
 3587 00a7 EF       		.byte	-17
 3588 00a8 F1       		.byte	-15
 3589 00a9 F2       		.byte	-14
 3590 00aa F4       		.byte	-12
 3591 00ab F7       		.byte	-9
 3592 00ac F8       		.byte	-8
 3593 00ad FB       		.byte	-5
 3594 00ae FD       		.byte	-3
 3595 00af FE       		.byte	-2
 3596              		.type	weak_key_table, %object
 3597              		.size	weak_key_table, 128
 3598              	weak_key_table:
 3599 00b0 01       		.byte	1
 3600 00b1 01       		.byte	1
 3601 00b2 01       		.byte	1
 3602 00b3 01       		.byte	1
 3603 00b4 01       		.byte	1
 3604 00b5 01       		.byte	1
 3605 00b6 01       		.byte	1
 3606 00b7 01       		.byte	1
 3607 00b8 FE       		.byte	-2
 3608 00b9 FE       		.byte	-2
 3609 00ba FE       		.byte	-2
 3610 00bb FE       		.byte	-2
 3611 00bc FE       		.byte	-2
 3612 00bd FE       		.byte	-2
 3613 00be FE       		.byte	-2
 3614 00bf FE       		.byte	-2
 3615 00c0 1F       		.byte	31
 3616 00c1 1F       		.byte	31
 3617 00c2 1F       		.byte	31
 3618 00c3 1F       		.byte	31
 3619 00c4 0E       		.byte	14
 3620 00c5 0E       		.byte	14
 3621 00c6 0E       		.byte	14
 3622 00c7 0E       		.byte	14
 3623 00c8 E0       		.byte	-32
 3624 00c9 E0       		.byte	-32
 3625 00ca E0       		.byte	-32
 3626 00cb E0       		.byte	-32
 3627 00cc F1       		.byte	-15
 3628 00cd F1       		.byte	-15
 3629 00ce F1       		.byte	-15
 3630 00cf F1       		.byte	-15
 3631 00d0 01       		.byte	1
 3632 00d1 1F       		.byte	31
ARM GAS  C:\Users\Phuong\AppData\Local\Temp\ccawWFGQ.s 			page 85


 3633 00d2 01       		.byte	1
 3634 00d3 1F       		.byte	31
 3635 00d4 01       		.byte	1
 3636 00d5 0E       		.byte	14
 3637 00d6 01       		.byte	1
 3638 00d7 0E       		.byte	14
 3639 00d8 1F       		.byte	31
 3640 00d9 01       		.byte	1
 3641 00da 1F       		.byte	31
 3642 00db 01       		.byte	1
 3643 00dc 0E       		.byte	14
 3644 00dd 01       		.byte	1
 3645 00de 0E       		.byte	14
 3646 00df 01       		.byte	1
 3647 00e0 01       		.byte	1
 3648 00e1 E0       		.byte	-32
 3649 00e2 01       		.byte	1
 3650 00e3 E0       		.byte	-32
 3651 00e4 01       		.byte	1
 3652 00e5 F1       		.byte	-15
 3653 00e6 01       		.byte	1
 3654 00e7 F1       		.byte	-15
 3655 00e8 E0       		.byte	-32
 3656 00e9 01       		.byte	1
 3657 00ea E0       		.byte	-32
 3658 00eb 01       		.byte	1
 3659 00ec F1       		.byte	-15
 3660 00ed 01       		.byte	1
 3661 00ee F1       		.byte	-15
 3662 00ef 01       		.byte	1
 3663 00f0 01       		.byte	1
 3664 00f1 FE       		.byte	-2
 3665 00f2 01       		.byte	1
 3666 00f3 FE       		.byte	-2
 3667 00f4 01       		.byte	1
 3668 00f5 FE       		.byte	-2
 3669 00f6 01       		.byte	1
 3670 00f7 FE       		.byte	-2
 3671 00f8 FE       		.byte	-2
 3672 00f9 01       		.byte	1
 3673 00fa FE       		.byte	-2
 3674 00fb 01       		.byte	1
 3675 00fc FE       		.byte	-2
 3676 00fd 01       		.byte	1
 3677 00fe FE       		.byte	-2
 3678 00ff 01       		.byte	1
 3679 0100 1F       		.byte	31
 3680 0101 E0       		.byte	-32
 3681 0102 1F       		.byte	31
 3682 0103 E0       		.byte	-32
 3683 0104 0E       		.byte	14
 3684 0105 F1       		.byte	-15
 3685 0106 0E       		.byte	14
 3686 0107 F1       		.byte	-15
 3687 0108 E0       		.byte	-32
 3688 0109 1F       		.byte	31
 3689 010a E0       		.byte	-32
ARM GAS  C:\Users\Phuong\AppData\Local\Temp\ccawWFGQ.s 			page 86


 3690 010b 1F       		.byte	31
 3691 010c F1       		.byte	-15
 3692 010d 0E       		.byte	14
 3693 010e F1       		.byte	-15
 3694 010f 0E       		.byte	14
 3695 0110 1F       		.byte	31
 3696 0111 FE       		.byte	-2
 3697 0112 1F       		.byte	31
 3698 0113 FE       		.byte	-2
 3699 0114 0E       		.byte	14
 3700 0115 FE       		.byte	-2
 3701 0116 0E       		.byte	14
 3702 0117 FE       		.byte	-2
 3703 0118 FE       		.byte	-2
 3704 0119 1F       		.byte	31
 3705 011a FE       		.byte	-2
 3706 011b 1F       		.byte	31
 3707 011c FE       		.byte	-2
 3708 011d 0E       		.byte	14
 3709 011e FE       		.byte	-2
 3710 011f 0E       		.byte	14
 3711 0120 E0       		.byte	-32
 3712 0121 FE       		.byte	-2
 3713 0122 E0       		.byte	-32
 3714 0123 FE       		.byte	-2
 3715 0124 F1       		.byte	-15
 3716 0125 FE       		.byte	-2
 3717 0126 F1       		.byte	-15
 3718 0127 FE       		.byte	-2
 3719 0128 FE       		.byte	-2
 3720 0129 E0       		.byte	-32
 3721 012a FE       		.byte	-2
 3722 012b E0       		.byte	-32
 3723 012c FE       		.byte	-2
 3724 012d F1       		.byte	-15
 3725 012e FE       		.byte	-2
 3726 012f F1       		.byte	-15
 3727              		.type	LHs, %object
 3728              		.size	LHs, 64
 3729              	LHs:
 3730 0130 00000000 		.word	0
 3731 0134 01000000 		.word	1
 3732 0138 00010000 		.word	256
 3733 013c 01010000 		.word	257
 3734 0140 00000100 		.word	65536
 3735 0144 01000100 		.word	65537
 3736 0148 00010100 		.word	65792
 3737 014c 01010100 		.word	65793
 3738 0150 00000001 		.word	16777216
 3739 0154 01000001 		.word	16777217
 3740 0158 00010001 		.word	16777472
 3741 015c 01010001 		.word	16777473
 3742 0160 00000101 		.word	16842752
 3743 0164 01000101 		.word	16842753
 3744 0168 00010101 		.word	16843008
 3745 016c 01010101 		.word	16843009
 3746              		.type	RHs, %object
ARM GAS  C:\Users\Phuong\AppData\Local\Temp\ccawWFGQ.s 			page 87


 3747              		.size	RHs, 64
 3748              	RHs:
 3749 0170 00000000 		.word	0
 3750 0174 00000001 		.word	16777216
 3751 0178 00000100 		.word	65536
 3752 017c 00000101 		.word	16842752
 3753 0180 00010000 		.word	256
 3754 0184 00010001 		.word	16777472
 3755 0188 00010100 		.word	65792
 3756 018c 00010101 		.word	16843008
 3757 0190 01000000 		.word	1
 3758 0194 01000001 		.word	16777217
 3759 0198 01000100 		.word	65537
 3760 019c 01000101 		.word	16842753
 3761 01a0 01010000 		.word	257
 3762 01a4 01010001 		.word	16777473
 3763 01a8 01010100 		.word	65793
 3764 01ac 01010101 		.word	16843009
 3765              		.type	SB8, %object
 3766              		.size	SB8, 256
 3767              	SB8:
 3768 01b0 40100010 		.word	268439616
 3769 01b4 00100000 		.word	4096
 3770 01b8 00000400 		.word	262144
 3771 01bc 40100410 		.word	268701760
 3772 01c0 00000010 		.word	268435456
 3773 01c4 40100010 		.word	268439616
 3774 01c8 40000000 		.word	64
 3775 01cc 00000010 		.word	268435456
 3776 01d0 40000400 		.word	262208
 3777 01d4 00000410 		.word	268697600
 3778 01d8 40100410 		.word	268701760
 3779 01dc 00100400 		.word	266240
 3780 01e0 00100410 		.word	268701696
 3781 01e4 40100400 		.word	266304
 3782 01e8 00100000 		.word	4096
 3783 01ec 40000000 		.word	64
 3784 01f0 00000410 		.word	268697600
 3785 01f4 40000010 		.word	268435520
 3786 01f8 00100010 		.word	268439552
 3787 01fc 40100000 		.word	4160
 3788 0200 00100400 		.word	266240
 3789 0204 40000400 		.word	262208
 3790 0208 40000410 		.word	268697664
 3791 020c 00100410 		.word	268701696
 3792 0210 40100000 		.word	4160
 3793 0214 00000000 		.word	0
 3794 0218 00000000 		.word	0
 3795 021c 40000410 		.word	268697664
 3796 0220 40000010 		.word	268435520
 3797 0224 00100010 		.word	268439552
 3798 0228 40100400 		.word	266304
 3799 022c 00000400 		.word	262144
 3800 0230 40100400 		.word	266304
 3801 0234 00000400 		.word	262144
 3802 0238 00100410 		.word	268701696
 3803 023c 00100000 		.word	4096
ARM GAS  C:\Users\Phuong\AppData\Local\Temp\ccawWFGQ.s 			page 88


 3804 0240 40000000 		.word	64
 3805 0244 40000410 		.word	268697664
 3806 0248 00100000 		.word	4096
 3807 024c 40100400 		.word	266304
 3808 0250 00100010 		.word	268439552
 3809 0254 40000000 		.word	64
 3810 0258 40000010 		.word	268435520
 3811 025c 00000410 		.word	268697600
 3812 0260 40000410 		.word	268697664
 3813 0264 00000010 		.word	268435456
 3814 0268 00000400 		.word	262144
 3815 026c 40100010 		.word	268439616
 3816 0270 00000000 		.word	0
 3817 0274 40100410 		.word	268701760
 3818 0278 40000400 		.word	262208
 3819 027c 40000010 		.word	268435520
 3820 0280 00000410 		.word	268697600
 3821 0284 00100010 		.word	268439552
 3822 0288 40100010 		.word	268439616
 3823 028c 00000000 		.word	0
 3824 0290 40100410 		.word	268701760
 3825 0294 00100400 		.word	266240
 3826 0298 00100400 		.word	266240
 3827 029c 40100000 		.word	4160
 3828 02a0 40100000 		.word	4160
 3829 02a4 40000400 		.word	262208
 3830 02a8 00000010 		.word	268435456
 3831 02ac 00100410 		.word	268701696
 3832              		.type	SB6, %object
 3833              		.size	SB6, 256
 3834              	SB6:
 3835 02b0 10000020 		.word	536870928
 3836 02b4 00004020 		.word	541065216
 3837 02b8 00400000 		.word	16384
 3838 02bc 10404020 		.word	541081616
 3839 02c0 00004020 		.word	541065216
 3840 02c4 10000000 		.word	16
 3841 02c8 10404020 		.word	541081616
 3842 02cc 00004000 		.word	4194304
 3843 02d0 00400020 		.word	536887296
 3844 02d4 10404000 		.word	4210704
 3845 02d8 00004000 		.word	4194304
 3846 02dc 10000020 		.word	536870928
 3847 02e0 10004000 		.word	4194320
 3848 02e4 00400020 		.word	536887296
 3849 02e8 00000020 		.word	536870912
 3850 02ec 10400000 		.word	16400
 3851 02f0 00000000 		.word	0
 3852 02f4 10004000 		.word	4194320
 3853 02f8 10400020 		.word	536887312
 3854 02fc 00400000 		.word	16384
 3855 0300 00404000 		.word	4210688
 3856 0304 10400020 		.word	536887312
 3857 0308 10000000 		.word	16
 3858 030c 10004020 		.word	541065232
 3859 0310 10004020 		.word	541065232
 3860 0314 00000000 		.word	0
ARM GAS  C:\Users\Phuong\AppData\Local\Temp\ccawWFGQ.s 			page 89


 3861 0318 10404000 		.word	4210704
 3862 031c 00404020 		.word	541081600
 3863 0320 10400000 		.word	16400
 3864 0324 00404000 		.word	4210688
 3865 0328 00404020 		.word	541081600
 3866 032c 00000020 		.word	536870912
 3867 0330 00400020 		.word	536887296
 3868 0334 10000000 		.word	16
 3869 0338 10004020 		.word	541065232
 3870 033c 00404000 		.word	4210688
 3871 0340 10404020 		.word	541081616
 3872 0344 00004000 		.word	4194304
 3873 0348 10400000 		.word	16400
 3874 034c 10000020 		.word	536870928
 3875 0350 00004000 		.word	4194304
 3876 0354 00400020 		.word	536887296
 3877 0358 00000020 		.word	536870912
 3878 035c 10400000 		.word	16400
 3879 0360 10000020 		.word	536870928
 3880 0364 10404020 		.word	541081616
 3881 0368 00404000 		.word	4210688
 3882 036c 00004020 		.word	541065216
 3883 0370 10404000 		.word	4210704
 3884 0374 00404020 		.word	541081600
 3885 0378 00000000 		.word	0
 3886 037c 10004020 		.word	541065232
 3887 0380 10000000 		.word	16
 3888 0384 00400000 		.word	16384
 3889 0388 00004020 		.word	541065216
 3890 038c 10404000 		.word	4210704
 3891 0390 00400000 		.word	16384
 3892 0394 10004000 		.word	4194320
 3893 0398 10400020 		.word	536887312
 3894 039c 00000000 		.word	0
 3895 03a0 00404020 		.word	541081600
 3896 03a4 00000020 		.word	536870912
 3897 03a8 10004000 		.word	4194320
 3898 03ac 10400020 		.word	536887312
 3899              		.type	SB4, %object
 3900              		.size	SB4, 256
 3901              	SB4:
 3902 03b0 01208000 		.word	8396801
 3903 03b4 81200000 		.word	8321
 3904 03b8 81200000 		.word	8321
 3905 03bc 80000000 		.word	128
 3906 03c0 80208000 		.word	8396928
 3907 03c4 81008000 		.word	8388737
 3908 03c8 01008000 		.word	8388609
 3909 03cc 01200000 		.word	8193
 3910 03d0 00000000 		.word	0
 3911 03d4 00208000 		.word	8396800
 3912 03d8 00208000 		.word	8396800
 3913 03dc 81208000 		.word	8396929
 3914 03e0 81000000 		.word	129
 3915 03e4 00000000 		.word	0
 3916 03e8 80008000 		.word	8388736
 3917 03ec 01008000 		.word	8388609
ARM GAS  C:\Users\Phuong\AppData\Local\Temp\ccawWFGQ.s 			page 90


 3918 03f0 01000000 		.word	1
 3919 03f4 00200000 		.word	8192
 3920 03f8 00008000 		.word	8388608
 3921 03fc 01208000 		.word	8396801
 3922 0400 80000000 		.word	128
 3923 0404 00008000 		.word	8388608
 3924 0408 01200000 		.word	8193
 3925 040c 80200000 		.word	8320
 3926 0410 81008000 		.word	8388737
 3927 0414 01000000 		.word	1
 3928 0418 80200000 		.word	8320
 3929 041c 80008000 		.word	8388736
 3930 0420 00200000 		.word	8192
 3931 0424 80208000 		.word	8396928
 3932 0428 81208000 		.word	8396929
 3933 042c 81000000 		.word	129
 3934 0430 80008000 		.word	8388736
 3935 0434 01008000 		.word	8388609
 3936 0438 00208000 		.word	8396800
 3937 043c 81208000 		.word	8396929
 3938 0440 81000000 		.word	129
 3939 0444 00000000 		.word	0
 3940 0448 00000000 		.word	0
 3941 044c 00208000 		.word	8396800
 3942 0450 80200000 		.word	8320
 3943 0454 80008000 		.word	8388736
 3944 0458 81008000 		.word	8388737
 3945 045c 01000000 		.word	1
 3946 0460 01208000 		.word	8396801
 3947 0464 81200000 		.word	8321
 3948 0468 81200000 		.word	8321
 3949 046c 80000000 		.word	128
 3950 0470 81208000 		.word	8396929
 3951 0474 81000000 		.word	129
 3952 0478 01000000 		.word	1
 3953 047c 00200000 		.word	8192
 3954 0480 01008000 		.word	8388609
 3955 0484 01200000 		.word	8193
 3956 0488 80208000 		.word	8396928
 3957 048c 81008000 		.word	8388737
 3958 0490 01200000 		.word	8193
 3959 0494 80200000 		.word	8320
 3960 0498 00008000 		.word	8388608
 3961 049c 01208000 		.word	8396801
 3962 04a0 80000000 		.word	128
 3963 04a4 00008000 		.word	8388608
 3964 04a8 00200000 		.word	8192
 3965 04ac 80208000 		.word	8396928
 3966              		.type	SB2, %object
 3967              		.size	SB2, 256
 3968              	SB2:
 3969 04b0 20801080 		.word	-2146402272
 3970 04b4 00800080 		.word	-2147450880
 3971 04b8 00800000 		.word	32768
 3972 04bc 20801000 		.word	1081376
 3973 04c0 00001000 		.word	1048576
 3974 04c4 20000000 		.word	32
ARM GAS  C:\Users\Phuong\AppData\Local\Temp\ccawWFGQ.s 			page 91


 3975 04c8 20001080 		.word	-2146435040
 3976 04cc 20800080 		.word	-2147450848
 3977 04d0 20000080 		.word	-2147483616
 3978 04d4 20801080 		.word	-2146402272
 3979 04d8 00801080 		.word	-2146402304
 3980 04dc 00000080 		.word	-2147483648
 3981 04e0 00800080 		.word	-2147450880
 3982 04e4 00001000 		.word	1048576
 3983 04e8 20000000 		.word	32
 3984 04ec 20001080 		.word	-2146435040
 3985 04f0 00801000 		.word	1081344
 3986 04f4 20001000 		.word	1048608
 3987 04f8 20800080 		.word	-2147450848
 3988 04fc 00000000 		.word	0
 3989 0500 00000080 		.word	-2147483648
 3990 0504 00800000 		.word	32768
 3991 0508 20801000 		.word	1081376
 3992 050c 00001080 		.word	-2146435072
 3993 0510 20001000 		.word	1048608
 3994 0514 20000080 		.word	-2147483616
 3995 0518 00000000 		.word	0
 3996 051c 00801000 		.word	1081344
 3997 0520 20800000 		.word	32800
 3998 0524 00801080 		.word	-2146402304
 3999 0528 00001080 		.word	-2146435072
 4000 052c 20800000 		.word	32800
 4001 0530 00000000 		.word	0
 4002 0534 20801000 		.word	1081376
 4003 0538 20001080 		.word	-2146435040
 4004 053c 00001000 		.word	1048576
 4005 0540 20800080 		.word	-2147450848
 4006 0544 00001080 		.word	-2146435072
 4007 0548 00801080 		.word	-2146402304
 4008 054c 00800000 		.word	32768
 4009 0550 00001080 		.word	-2146435072
 4010 0554 00800080 		.word	-2147450880
 4011 0558 20000000 		.word	32
 4012 055c 20801080 		.word	-2146402272
 4013 0560 20801000 		.word	1081376
 4014 0564 20000000 		.word	32
 4015 0568 00800000 		.word	32768
 4016 056c 00000080 		.word	-2147483648
 4017 0570 20800000 		.word	32800
 4018 0574 00801080 		.word	-2146402304
 4019 0578 00001000 		.word	1048576
 4020 057c 20000080 		.word	-2147483616
 4021 0580 20001000 		.word	1048608
 4022 0584 20800080 		.word	-2147450848
 4023 0588 20000080 		.word	-2147483616
 4024 058c 20001000 		.word	1048608
 4025 0590 00801000 		.word	1081344
 4026 0594 00000000 		.word	0
 4027 0598 00800080 		.word	-2147450880
 4028 059c 20800000 		.word	32800
 4029 05a0 00000080 		.word	-2147483648
 4030 05a4 20001080 		.word	-2146435040
 4031 05a8 20801080 		.word	-2146402272
ARM GAS  C:\Users\Phuong\AppData\Local\Temp\ccawWFGQ.s 			page 92


 4032 05ac 00801000 		.word	1081344
 4033              		.type	SB7, %object
 4034              		.size	SB7, 256
 4035              	SB7:
 4036 05b0 00002000 		.word	2097152
 4037 05b4 02002004 		.word	69206018
 4038 05b8 02080004 		.word	67110914
 4039 05bc 00000000 		.word	0
 4040 05c0 00080000 		.word	2048
 4041 05c4 02080004 		.word	67110914
 4042 05c8 02082000 		.word	2099202
 4043 05cc 00082004 		.word	69208064
 4044 05d0 02082004 		.word	69208066
 4045 05d4 00002000 		.word	2097152
 4046 05d8 00000000 		.word	0
 4047 05dc 02000004 		.word	67108866
 4048 05e0 02000000 		.word	2
 4049 05e4 00000004 		.word	67108864
 4050 05e8 02002004 		.word	69206018
 4051 05ec 02080000 		.word	2050
 4052 05f0 00080004 		.word	67110912
 4053 05f4 02082000 		.word	2099202
 4054 05f8 02002000 		.word	2097154
 4055 05fc 00080004 		.word	67110912
 4056 0600 02000004 		.word	67108866
 4057 0604 00002004 		.word	69206016
 4058 0608 00082004 		.word	69208064
 4059 060c 02002000 		.word	2097154
 4060 0610 00002004 		.word	69206016
 4061 0614 00080000 		.word	2048
 4062 0618 02080000 		.word	2050
 4063 061c 02082004 		.word	69208066
 4064 0620 00082000 		.word	2099200
 4065 0624 02000000 		.word	2
 4066 0628 00000004 		.word	67108864
 4067 062c 00082000 		.word	2099200
 4068 0630 00000004 		.word	67108864
 4069 0634 00082000 		.word	2099200
 4070 0638 00002000 		.word	2097152
 4071 063c 02080004 		.word	67110914
 4072 0640 02080004 		.word	67110914
 4073 0644 02002004 		.word	69206018
 4074 0648 02002004 		.word	69206018
 4075 064c 02000000 		.word	2
 4076 0650 02002000 		.word	2097154
 4077 0654 00000004 		.word	67108864
 4078 0658 00080004 		.word	67110912
 4079 065c 00002000 		.word	2097152
 4080 0660 00082004 		.word	69208064
 4081 0664 02080000 		.word	2050
 4082 0668 02082000 		.word	2099202
 4083 066c 00082004 		.word	69208064
 4084 0670 02080000 		.word	2050
 4085 0674 02000004 		.word	67108866
 4086 0678 02082004 		.word	69208066
 4087 067c 00002004 		.word	69206016
 4088 0680 00082000 		.word	2099200
ARM GAS  C:\Users\Phuong\AppData\Local\Temp\ccawWFGQ.s 			page 93


 4089 0684 00000000 		.word	0
 4090 0688 02000000 		.word	2
 4091 068c 02082004 		.word	69208066
 4092 0690 00000000 		.word	0
 4093 0694 02082000 		.word	2099202
 4094 0698 00002004 		.word	69206016
 4095 069c 00080000 		.word	2048
 4096 06a0 02000004 		.word	67108866
 4097 06a4 00080004 		.word	67110912
 4098 06a8 00080000 		.word	2048
 4099 06ac 02002000 		.word	2097154
 4100              		.type	SB5, %object
 4101              		.size	SB5, 256
 4102              	SB5:
 4103 06b0 00010000 		.word	256
 4104 06b4 00010802 		.word	34078976
 4105 06b8 00000802 		.word	34078720
 4106 06bc 00010042 		.word	1107296512
 4107 06c0 00000800 		.word	524288
 4108 06c4 00010000 		.word	256
 4109 06c8 00000040 		.word	1073741824
 4110 06cc 00000802 		.word	34078720
 4111 06d0 00010840 		.word	1074266368
 4112 06d4 00000800 		.word	524288
 4113 06d8 00010002 		.word	33554688
 4114 06dc 00010840 		.word	1074266368
 4115 06e0 00010042 		.word	1107296512
 4116 06e4 00000842 		.word	1107820544
 4117 06e8 00010800 		.word	524544
 4118 06ec 00000040 		.word	1073741824
 4119 06f0 00000002 		.word	33554432
 4120 06f4 00000840 		.word	1074266112
 4121 06f8 00000840 		.word	1074266112
 4122 06fc 00000000 		.word	0
 4123 0700 00010040 		.word	1073742080
 4124 0704 00010842 		.word	1107820800
 4125 0708 00010842 		.word	1107820800
 4126 070c 00010002 		.word	33554688
 4127 0710 00000842 		.word	1107820544
 4128 0714 00010040 		.word	1073742080
 4129 0718 00000000 		.word	0
 4130 071c 00000042 		.word	1107296256
 4131 0720 00010802 		.word	34078976
 4132 0724 00000002 		.word	33554432
 4133 0728 00000042 		.word	1107296256
 4134 072c 00010800 		.word	524544
 4135 0730 00000800 		.word	524288
 4136 0734 00010042 		.word	1107296512
 4137 0738 00010000 		.word	256
 4138 073c 00000002 		.word	33554432
 4139 0740 00000040 		.word	1073741824
 4140 0744 00000802 		.word	34078720
 4141 0748 00010042 		.word	1107296512
 4142 074c 00010840 		.word	1074266368
 4143 0750 00010002 		.word	33554688
 4144 0754 00000040 		.word	1073741824
 4145 0758 00000842 		.word	1107820544
ARM GAS  C:\Users\Phuong\AppData\Local\Temp\ccawWFGQ.s 			page 94


 4146 075c 00010802 		.word	34078976
 4147 0760 00010840 		.word	1074266368
 4148 0764 00010000 		.word	256
 4149 0768 00000002 		.word	33554432
 4150 076c 00000842 		.word	1107820544
 4151 0770 00010842 		.word	1107820800
 4152 0774 00010800 		.word	524544
 4153 0778 00000042 		.word	1107296256
 4154 077c 00010842 		.word	1107820800
 4155 0780 00000802 		.word	34078720
 4156 0784 00000000 		.word	0
 4157 0788 00000840 		.word	1074266112
 4158 078c 00000042 		.word	1107296256
 4159 0790 00010800 		.word	524544
 4160 0794 00010002 		.word	33554688
 4161 0798 00010040 		.word	1073742080
 4162 079c 00000800 		.word	524288
 4163 07a0 00000000 		.word	0
 4164 07a4 00000840 		.word	1074266112
 4165 07a8 00010802 		.word	34078976
 4166 07ac 00010040 		.word	1073742080
 4167              		.type	SB3, %object
 4168              		.size	SB3, 256
 4169              	SB3:
 4170 07b0 08020000 		.word	520
 4171 07b4 00020208 		.word	134349312
 4172 07b8 00000000 		.word	0
 4173 07bc 08000208 		.word	134348808
 4174 07c0 00020008 		.word	134218240
 4175 07c4 00000000 		.word	0
 4176 07c8 08020200 		.word	131592
 4177 07cc 00020008 		.word	134218240
 4178 07d0 08000200 		.word	131080
 4179 07d4 08000008 		.word	134217736
 4180 07d8 08000008 		.word	134217736
 4181 07dc 00000200 		.word	131072
 4182 07e0 08020208 		.word	134349320
 4183 07e4 08000200 		.word	131080
 4184 07e8 00000208 		.word	134348800
 4185 07ec 08020000 		.word	520
 4186 07f0 00000008 		.word	134217728
 4187 07f4 08000000 		.word	8
 4188 07f8 00020208 		.word	134349312
 4189 07fc 00020000 		.word	512
 4190 0800 00020200 		.word	131584
 4191 0804 00000208 		.word	134348800
 4192 0808 08000208 		.word	134348808
 4193 080c 08020200 		.word	131592
 4194 0810 08020008 		.word	134218248
 4195 0814 00020200 		.word	131584
 4196 0818 00000200 		.word	131072
 4197 081c 08020008 		.word	134218248
 4198 0820 08000000 		.word	8
 4199 0824 08020208 		.word	134349320
 4200 0828 00020000 		.word	512
 4201 082c 00000008 		.word	134217728
 4202 0830 00020208 		.word	134349312
ARM GAS  C:\Users\Phuong\AppData\Local\Temp\ccawWFGQ.s 			page 95


 4203 0834 00000008 		.word	134217728
 4204 0838 08000200 		.word	131080
 4205 083c 08020000 		.word	520
 4206 0840 00000200 		.word	131072
 4207 0844 00020208 		.word	134349312
 4208 0848 00020008 		.word	134218240
 4209 084c 00000000 		.word	0
 4210 0850 00020000 		.word	512
 4211 0854 08000200 		.word	131080
 4212 0858 08020208 		.word	134349320
 4213 085c 00020008 		.word	134218240
 4214 0860 08000008 		.word	134217736
 4215 0864 00020000 		.word	512
 4216 0868 00000000 		.word	0
 4217 086c 08000208 		.word	134348808
 4218 0870 08020008 		.word	134218248
 4219 0874 00000200 		.word	131072
 4220 0878 00000008 		.word	134217728
 4221 087c 08020208 		.word	134349320
 4222 0880 08000000 		.word	8
 4223 0884 08020200 		.word	131592
 4224 0888 00020200 		.word	131584
 4225 088c 08000008 		.word	134217736
 4226 0890 00000208 		.word	134348800
 4227 0894 08020008 		.word	134218248
 4228 0898 08020000 		.word	520
 4229 089c 00000208 		.word	134348800
 4230 08a0 08020200 		.word	131592
 4231 08a4 08000000 		.word	8
 4232 08a8 08000208 		.word	134348808
 4233 08ac 00020200 		.word	131584
 4234              		.type	SB1, %object
 4235              		.size	SB1, 256
 4236              	SB1:
 4237 08b0 00040101 		.word	16843776
 4238 08b4 00000000 		.word	0
 4239 08b8 00000100 		.word	65536
 4240 08bc 04040101 		.word	16843780
 4241 08c0 04000101 		.word	16842756
 4242 08c4 04040100 		.word	66564
 4243 08c8 04000000 		.word	4
 4244 08cc 00000100 		.word	65536
 4245 08d0 00040000 		.word	1024
 4246 08d4 00040101 		.word	16843776
 4247 08d8 04040101 		.word	16843780
 4248 08dc 00040000 		.word	1024
 4249 08e0 04040001 		.word	16778244
 4250 08e4 04000101 		.word	16842756
 4251 08e8 00000001 		.word	16777216
 4252 08ec 04000000 		.word	4
 4253 08f0 04040000 		.word	1028
 4254 08f4 00040001 		.word	16778240
 4255 08f8 00040001 		.word	16778240
 4256 08fc 00040100 		.word	66560
 4257 0900 00040100 		.word	66560
 4258 0904 00000101 		.word	16842752
 4259 0908 00000101 		.word	16842752
ARM GAS  C:\Users\Phuong\AppData\Local\Temp\ccawWFGQ.s 			page 96


 4260 090c 04040001 		.word	16778244
 4261 0910 04000100 		.word	65540
 4262 0914 04000001 		.word	16777220
 4263 0918 04000001 		.word	16777220
 4264 091c 04000100 		.word	65540
 4265 0920 00000000 		.word	0
 4266 0924 04040000 		.word	1028
 4267 0928 04040100 		.word	66564
